GAS LISTING /tmp/ccqYKUbi.s 			page 1


   1              		.file	"userMain.cpp"
   2              		.option pic
   3              		.option norelax
   4              		.text
   5              	.Ltext0:
   6              		.section	.text._ZN7WorkerAD2Ev,"axG",@progbits,_ZN7WorkerAD5Ev,comdat
   7              		.align	2
   8              		.weak	_ZN7WorkerAD2Ev
  10              	_ZN7WorkerAD2Ev:
  11              	.LFB105:
  12              		.file 1 "tests/Threads_CPP_API_test.hpp"
   1:tests/Threads_CPP_API_test.hpp **** #ifndef XV6_THREADS_CPP_API_TEST_HPP
   2:tests/Threads_CPP_API_test.hpp **** #define XV6_THREADS_CPP_API_TEST_HPP
   3:tests/Threads_CPP_API_test.hpp **** 
   4:tests/Threads_CPP_API_test.hpp **** #include "../h/syscall_cpp.hpp"
   5:tests/Threads_CPP_API_test.hpp **** 
   6:tests/Threads_CPP_API_test.hpp **** #include "../h/printing.hpp"
   7:tests/Threads_CPP_API_test.hpp **** 
   8:tests/Threads_CPP_API_test.hpp **** bool finishedA = false;
   9:tests/Threads_CPP_API_test.hpp **** bool finishedB = false;
  10:tests/Threads_CPP_API_test.hpp **** bool finishedC = false;
  11:tests/Threads_CPP_API_test.hpp **** bool finishedD = false;
  12:tests/Threads_CPP_API_test.hpp **** 
  13:tests/Threads_CPP_API_test.hpp **** uint64 fibonacci(uint64 n) {
  14:tests/Threads_CPP_API_test.hpp ****     if (n == 0 || n == 1) { return n; }
  15:tests/Threads_CPP_API_test.hpp ****     if (n % 10 == 0) { thread_dispatch(); }
  16:tests/Threads_CPP_API_test.hpp ****     return fibonacci(n - 1) + fibonacci(n - 2);
  17:tests/Threads_CPP_API_test.hpp **** }
  18:tests/Threads_CPP_API_test.hpp **** 
  19:tests/Threads_CPP_API_test.hpp **** class WorkerA: public Thread {
  13              		.loc 1 19 7
  14              		.cfi_startproc
  15              	.LVL0:
  16 0000 130101FF 		addi	sp,sp,-16
  17              		.cfi_def_cfa_offset 16
  18 0004 23341100 		sd	ra,8(sp)
  19 0008 23308100 		sd	s0,0(sp)
  20              		.cfi_offset 1, -8
  21              		.cfi_offset 8, -16
  22 000c 13040101 		addi	s0,sp,16
  23              		.cfi_def_cfa 8, 0
  24              	.LBB70:
  25              		.loc 1 19 7 is_stmt 0
  26 0010 97070000 		lla	a5,_ZTV7WorkerA+16
  26      93870700 
  27 0018 2330F500 		sd	a5,0(a0)
  28 001c 97000000 		call	_ZN6ThreadD2Ev@plt
  28      E7800000 
  29              	.LVL1:
  30              	.LBE70:
  31 0024 83308100 		ld	ra,8(sp)
  32              		.cfi_restore 1
  33 0028 03340100 		ld	s0,0(sp)
  34              		.cfi_restore 8
  35              		.cfi_def_cfa 2, 16
  36 002c 13010101 		addi	sp,sp,16
  37              		.cfi_def_cfa_offset 0
GAS LISTING /tmp/ccqYKUbi.s 			page 2


  38 0030 67800000 		jr	ra
  39              		.cfi_endproc
  40              	.LFE105:
  42              		.weak	_ZN7WorkerAD1Ev
  43              		.set	_ZN7WorkerAD1Ev,_ZN7WorkerAD2Ev
  44              		.section	.text._ZN7WorkerAD0Ev,"axG",@progbits,_ZN7WorkerAD5Ev,comdat
  45              		.align	2
  46              		.weak	_ZN7WorkerAD0Ev
  48              	_ZN7WorkerAD0Ev:
  49              	.LFB107:
  50              		.loc 1 19 7 is_stmt 1
  51              		.cfi_startproc
  52              	.LVL2:
  53 0000 130101FE 		addi	sp,sp,-32
  54              		.cfi_def_cfa_offset 32
  55 0004 233C1100 		sd	ra,24(sp)
  56 0008 23388100 		sd	s0,16(sp)
  57 000c 23349100 		sd	s1,8(sp)
  58              		.cfi_offset 1, -8
  59              		.cfi_offset 8, -16
  60              		.cfi_offset 9, -24
  61 0010 13040102 		addi	s0,sp,32
  62              		.cfi_def_cfa 8, 0
  63 0014 93040500 		mv	s1,a0
  64              	.LVL3:
  65              	.LBB71:
  66              	.LBB72:
  67              		.loc 1 19 7 is_stmt 0
  68 0018 97070000 		lla	a5,_ZTV7WorkerA+16
  68      93870700 
  69 0020 2330F500 		sd	a5,0(a0)
  70 0024 97000000 		call	_ZN6ThreadD2Ev@plt
  70      E7800000 
  71              	.LVL4:
  72              	.LBE72:
  73              	.LBE71:
  74 002c 13850400 		mv	a0,s1
  75 0030 97000000 		call	_ZdlPv@plt
  75      E7800000 
  76              	.LVL5:
  77 0038 83308101 		ld	ra,24(sp)
  78              		.cfi_restore 1
  79 003c 03340101 		ld	s0,16(sp)
  80              		.cfi_restore 8
  81              		.cfi_def_cfa 2, 32
  82 0040 83348100 		ld	s1,8(sp)
  83              		.cfi_restore 9
  84              	.LVL6:
  85 0044 13010102 		addi	sp,sp,32
  86              		.cfi_def_cfa_offset 0
  87 0048 67800000 		jr	ra
  88              		.cfi_endproc
  89              	.LFE107:
  91              		.section	.text._ZN7WorkerBD2Ev,"axG",@progbits,_ZN7WorkerBD5Ev,comdat
  92              		.align	2
  93              		.weak	_ZN7WorkerBD2Ev
  95              	_ZN7WorkerBD2Ev:
GAS LISTING /tmp/ccqYKUbi.s 			page 3


  96              	.LFB101:
  20:tests/Threads_CPP_API_test.hpp ****     void workerBodyA(void* arg);
  21:tests/Threads_CPP_API_test.hpp **** public:
  22:tests/Threads_CPP_API_test.hpp ****     WorkerA():Thread() {}
  23:tests/Threads_CPP_API_test.hpp **** 
  24:tests/Threads_CPP_API_test.hpp ****     void run() override {
  25:tests/Threads_CPP_API_test.hpp ****         workerBodyA(nullptr);
  26:tests/Threads_CPP_API_test.hpp ****     }
  27:tests/Threads_CPP_API_test.hpp **** };
  28:tests/Threads_CPP_API_test.hpp **** 
  29:tests/Threads_CPP_API_test.hpp **** class WorkerB: public Thread {
  97              		.loc 1 29 7 is_stmt 1
  98              		.cfi_startproc
  99              	.LVL7:
 100 0000 130101FF 		addi	sp,sp,-16
 101              		.cfi_def_cfa_offset 16
 102 0004 23341100 		sd	ra,8(sp)
 103 0008 23308100 		sd	s0,0(sp)
 104              		.cfi_offset 1, -8
 105              		.cfi_offset 8, -16
 106 000c 13040101 		addi	s0,sp,16
 107              		.cfi_def_cfa 8, 0
 108              	.LBB73:
 109              		.loc 1 29 7 is_stmt 0
 110 0010 97070000 		lla	a5,_ZTV7WorkerB+16
 110      93870700 
 111 0018 2330F500 		sd	a5,0(a0)
 112 001c 97000000 		call	_ZN6ThreadD2Ev@plt
 112      E7800000 
 113              	.LVL8:
 114              	.LBE73:
 115 0024 83308100 		ld	ra,8(sp)
 116              		.cfi_restore 1
 117 0028 03340100 		ld	s0,0(sp)
 118              		.cfi_restore 8
 119              		.cfi_def_cfa 2, 16
 120 002c 13010101 		addi	sp,sp,16
 121              		.cfi_def_cfa_offset 0
 122 0030 67800000 		jr	ra
 123              		.cfi_endproc
 124              	.LFE101:
 126              		.weak	_ZN7WorkerBD1Ev
 127              		.set	_ZN7WorkerBD1Ev,_ZN7WorkerBD2Ev
 128              		.section	.text._ZN7WorkerBD0Ev,"axG",@progbits,_ZN7WorkerBD5Ev,comdat
 129              		.align	2
 130              		.weak	_ZN7WorkerBD0Ev
 132              	_ZN7WorkerBD0Ev:
 133              	.LFB103:
 134              		.loc 1 29 7 is_stmt 1
 135              		.cfi_startproc
 136              	.LVL9:
 137 0000 130101FE 		addi	sp,sp,-32
 138              		.cfi_def_cfa_offset 32
 139 0004 233C1100 		sd	ra,24(sp)
 140 0008 23388100 		sd	s0,16(sp)
 141 000c 23349100 		sd	s1,8(sp)
 142              		.cfi_offset 1, -8
GAS LISTING /tmp/ccqYKUbi.s 			page 4


 143              		.cfi_offset 8, -16
 144              		.cfi_offset 9, -24
 145 0010 13040102 		addi	s0,sp,32
 146              		.cfi_def_cfa 8, 0
 147 0014 93040500 		mv	s1,a0
 148              	.LVL10:
 149              	.LBB74:
 150              	.LBB75:
 151              		.loc 1 29 7 is_stmt 0
 152 0018 97070000 		lla	a5,_ZTV7WorkerB+16
 152      93870700 
 153 0020 2330F500 		sd	a5,0(a0)
 154 0024 97000000 		call	_ZN6ThreadD2Ev@plt
 154      E7800000 
 155              	.LVL11:
 156              	.LBE75:
 157              	.LBE74:
 158 002c 13850400 		mv	a0,s1
 159 0030 97000000 		call	_ZdlPv@plt
 159      E7800000 
 160              	.LVL12:
 161 0038 83308101 		ld	ra,24(sp)
 162              		.cfi_restore 1
 163 003c 03340101 		ld	s0,16(sp)
 164              		.cfi_restore 8
 165              		.cfi_def_cfa 2, 32
 166 0040 83348100 		ld	s1,8(sp)
 167              		.cfi_restore 9
 168              	.LVL13:
 169 0044 13010102 		addi	sp,sp,32
 170              		.cfi_def_cfa_offset 0
 171 0048 67800000 		jr	ra
 172              		.cfi_endproc
 173              	.LFE103:
 175              		.section	.text._ZN7WorkerCD2Ev,"axG",@progbits,_ZN7WorkerCD5Ev,comdat
 176              		.align	2
 177              		.weak	_ZN7WorkerCD2Ev
 179              	_ZN7WorkerCD2Ev:
 180              	.LFB97:
  30:tests/Threads_CPP_API_test.hpp ****     void workerBodyB(void* arg);
  31:tests/Threads_CPP_API_test.hpp **** public:
  32:tests/Threads_CPP_API_test.hpp ****     WorkerB():Thread() {}
  33:tests/Threads_CPP_API_test.hpp **** 
  34:tests/Threads_CPP_API_test.hpp ****     void run() override {
  35:tests/Threads_CPP_API_test.hpp ****         workerBodyB(nullptr);
  36:tests/Threads_CPP_API_test.hpp ****     }
  37:tests/Threads_CPP_API_test.hpp **** };
  38:tests/Threads_CPP_API_test.hpp **** 
  39:tests/Threads_CPP_API_test.hpp **** class WorkerC: public Thread {
 181              		.loc 1 39 7 is_stmt 1
 182              		.cfi_startproc
 183              	.LVL14:
 184 0000 130101FF 		addi	sp,sp,-16
 185              		.cfi_def_cfa_offset 16
 186 0004 23341100 		sd	ra,8(sp)
 187 0008 23308100 		sd	s0,0(sp)
 188              		.cfi_offset 1, -8
GAS LISTING /tmp/ccqYKUbi.s 			page 5


 189              		.cfi_offset 8, -16
 190 000c 13040101 		addi	s0,sp,16
 191              		.cfi_def_cfa 8, 0
 192              	.LBB76:
 193              		.loc 1 39 7 is_stmt 0
 194 0010 97070000 		lla	a5,_ZTV7WorkerC+16
 194      93870700 
 195 0018 2330F500 		sd	a5,0(a0)
 196 001c 97000000 		call	_ZN6ThreadD2Ev@plt
 196      E7800000 
 197              	.LVL15:
 198              	.LBE76:
 199 0024 83308100 		ld	ra,8(sp)
 200              		.cfi_restore 1
 201 0028 03340100 		ld	s0,0(sp)
 202              		.cfi_restore 8
 203              		.cfi_def_cfa 2, 16
 204 002c 13010101 		addi	sp,sp,16
 205              		.cfi_def_cfa_offset 0
 206 0030 67800000 		jr	ra
 207              		.cfi_endproc
 208              	.LFE97:
 210              		.weak	_ZN7WorkerCD1Ev
 211              		.set	_ZN7WorkerCD1Ev,_ZN7WorkerCD2Ev
 212              		.section	.text._ZN7WorkerCD0Ev,"axG",@progbits,_ZN7WorkerCD5Ev,comdat
 213              		.align	2
 214              		.weak	_ZN7WorkerCD0Ev
 216              	_ZN7WorkerCD0Ev:
 217              	.LFB99:
 218              		.loc 1 39 7 is_stmt 1
 219              		.cfi_startproc
 220              	.LVL16:
 221 0000 130101FE 		addi	sp,sp,-32
 222              		.cfi_def_cfa_offset 32
 223 0004 233C1100 		sd	ra,24(sp)
 224 0008 23388100 		sd	s0,16(sp)
 225 000c 23349100 		sd	s1,8(sp)
 226              		.cfi_offset 1, -8
 227              		.cfi_offset 8, -16
 228              		.cfi_offset 9, -24
 229 0010 13040102 		addi	s0,sp,32
 230              		.cfi_def_cfa 8, 0
 231 0014 93040500 		mv	s1,a0
 232              	.LVL17:
 233              	.LBB77:
 234              	.LBB78:
 235              		.loc 1 39 7 is_stmt 0
 236 0018 97070000 		lla	a5,_ZTV7WorkerC+16
 236      93870700 
 237 0020 2330F500 		sd	a5,0(a0)
 238 0024 97000000 		call	_ZN6ThreadD2Ev@plt
 238      E7800000 
 239              	.LVL18:
 240              	.LBE78:
 241              	.LBE77:
 242 002c 13850400 		mv	a0,s1
 243 0030 97000000 		call	_ZdlPv@plt
GAS LISTING /tmp/ccqYKUbi.s 			page 6


 243      E7800000 
 244              	.LVL19:
 245 0038 83308101 		ld	ra,24(sp)
 246              		.cfi_restore 1
 247 003c 03340101 		ld	s0,16(sp)
 248              		.cfi_restore 8
 249              		.cfi_def_cfa 2, 32
 250 0040 83348100 		ld	s1,8(sp)
 251              		.cfi_restore 9
 252              	.LVL20:
 253 0044 13010102 		addi	sp,sp,32
 254              		.cfi_def_cfa_offset 0
 255 0048 67800000 		jr	ra
 256              		.cfi_endproc
 257              	.LFE99:
 259              		.section	.text._ZN7WorkerDD2Ev,"axG",@progbits,_ZN7WorkerDD5Ev,comdat
 260              		.align	2
 261              		.weak	_ZN7WorkerDD2Ev
 263              	_ZN7WorkerDD2Ev:
 264              	.LFB93:
  40:tests/Threads_CPP_API_test.hpp ****     void workerBodyC(void* arg);
  41:tests/Threads_CPP_API_test.hpp **** public:
  42:tests/Threads_CPP_API_test.hpp ****     WorkerC():Thread() {}
  43:tests/Threads_CPP_API_test.hpp **** 
  44:tests/Threads_CPP_API_test.hpp ****     void run() override {
  45:tests/Threads_CPP_API_test.hpp ****         workerBodyC(nullptr);
  46:tests/Threads_CPP_API_test.hpp ****     }
  47:tests/Threads_CPP_API_test.hpp **** };
  48:tests/Threads_CPP_API_test.hpp **** 
  49:tests/Threads_CPP_API_test.hpp **** class WorkerD: public Thread {
 265              		.loc 1 49 7 is_stmt 1
 266              		.cfi_startproc
 267              	.LVL21:
 268 0000 130101FF 		addi	sp,sp,-16
 269              		.cfi_def_cfa_offset 16
 270 0004 23341100 		sd	ra,8(sp)
 271 0008 23308100 		sd	s0,0(sp)
 272              		.cfi_offset 1, -8
 273              		.cfi_offset 8, -16
 274 000c 13040101 		addi	s0,sp,16
 275              		.cfi_def_cfa 8, 0
 276              	.LBB79:
 277              		.loc 1 49 7 is_stmt 0
 278 0010 97070000 		lla	a5,_ZTV7WorkerD+16
 278      93870700 
 279 0018 2330F500 		sd	a5,0(a0)
 280 001c 97000000 		call	_ZN6ThreadD2Ev@plt
 280      E7800000 
 281              	.LVL22:
 282              	.LBE79:
 283 0024 83308100 		ld	ra,8(sp)
 284              		.cfi_restore 1
 285 0028 03340100 		ld	s0,0(sp)
 286              		.cfi_restore 8
 287              		.cfi_def_cfa 2, 16
 288 002c 13010101 		addi	sp,sp,16
 289              		.cfi_def_cfa_offset 0
GAS LISTING /tmp/ccqYKUbi.s 			page 7


 290 0030 67800000 		jr	ra
 291              		.cfi_endproc
 292              	.LFE93:
 294              		.weak	_ZN7WorkerDD1Ev
 295              		.set	_ZN7WorkerDD1Ev,_ZN7WorkerDD2Ev
 296              		.section	.text._ZN7WorkerDD0Ev,"axG",@progbits,_ZN7WorkerDD5Ev,comdat
 297              		.align	2
 298              		.weak	_ZN7WorkerDD0Ev
 300              	_ZN7WorkerDD0Ev:
 301              	.LFB95:
 302              		.loc 1 49 7 is_stmt 1
 303              		.cfi_startproc
 304              	.LVL23:
 305 0000 130101FE 		addi	sp,sp,-32
 306              		.cfi_def_cfa_offset 32
 307 0004 233C1100 		sd	ra,24(sp)
 308 0008 23388100 		sd	s0,16(sp)
 309 000c 23349100 		sd	s1,8(sp)
 310              		.cfi_offset 1, -8
 311              		.cfi_offset 8, -16
 312              		.cfi_offset 9, -24
 313 0010 13040102 		addi	s0,sp,32
 314              		.cfi_def_cfa 8, 0
 315 0014 93040500 		mv	s1,a0
 316              	.LVL24:
 317              	.LBB80:
 318              	.LBB81:
 319              		.loc 1 49 7 is_stmt 0
 320 0018 97070000 		lla	a5,_ZTV7WorkerD+16
 320      93870700 
 321 0020 2330F500 		sd	a5,0(a0)
 322 0024 97000000 		call	_ZN6ThreadD2Ev@plt
 322      E7800000 
 323              	.LVL25:
 324              	.LBE81:
 325              	.LBE80:
 326 002c 13850400 		mv	a0,s1
 327 0030 97000000 		call	_ZdlPv@plt
 327      E7800000 
 328              	.LVL26:
 329 0038 83308101 		ld	ra,24(sp)
 330              		.cfi_restore 1
 331 003c 03340101 		ld	s0,16(sp)
 332              		.cfi_restore 8
 333              		.cfi_def_cfa 2, 32
 334 0040 83348100 		ld	s1,8(sp)
 335              		.cfi_restore 9
 336              	.LVL27:
 337 0044 13010102 		addi	sp,sp,32
 338              		.cfi_def_cfa_offset 0
 339 0048 67800000 		jr	ra
 340              		.cfi_endproc
 341              	.LFE95:
 343              		.section	.text._ZN8ConsumerD2Ev,"axG",@progbits,_ZN8ConsumerD5Ev,comdat
 344              		.align	2
 345              		.weak	_ZN8ConsumerD2Ev
 347              	_ZN8ConsumerD2Ev:
GAS LISTING /tmp/ccqYKUbi.s 			page 8


 348              	.LFB81:
 349              		.file 2 "tests/ConsumerProducer_CPP_Sync_API_test.hpp"
   1:tests/ConsumerProducer_CPP_Sync_API_test.hpp **** //
   2:tests/ConsumerProducer_CPP_Sync_API_test.hpp **** // Created by os on 4/17/22.
   3:tests/ConsumerProducer_CPP_Sync_API_test.hpp **** //
   4:tests/ConsumerProducer_CPP_Sync_API_test.hpp **** 
   5:tests/ConsumerProducer_CPP_Sync_API_test.hpp **** #ifndef XV6_CONSUMERPRODUCER_CPP_Sync_API_TEST_H
   6:tests/ConsumerProducer_CPP_Sync_API_test.hpp **** #define XV6_CONSUMERPRODUCER_CPP_Sync_API_TEST_H
   7:tests/ConsumerProducer_CPP_Sync_API_test.hpp **** 
   8:tests/ConsumerProducer_CPP_Sync_API_test.hpp **** #include "../h/syscall_cpp.hpp"
   9:tests/ConsumerProducer_CPP_Sync_API_test.hpp **** 
  10:tests/ConsumerProducer_CPP_Sync_API_test.hpp **** #include "buffer_CPP_API.hpp"
  11:tests/ConsumerProducer_CPP_Sync_API_test.hpp **** 
  12:tests/ConsumerProducer_CPP_Sync_API_test.hpp **** Semaphore* waitForAll;
  13:tests/ConsumerProducer_CPP_Sync_API_test.hpp **** 
  14:tests/ConsumerProducer_CPP_Sync_API_test.hpp **** struct thread_data {
  15:tests/ConsumerProducer_CPP_Sync_API_test.hpp ****     int id;
  16:tests/ConsumerProducer_CPP_Sync_API_test.hpp ****     BufferCPP *buffer;
  17:tests/ConsumerProducer_CPP_Sync_API_test.hpp ****     Semaphore* wait;
  18:tests/ConsumerProducer_CPP_Sync_API_test.hpp **** };
  19:tests/ConsumerProducer_CPP_Sync_API_test.hpp **** 
  20:tests/ConsumerProducer_CPP_Sync_API_test.hpp **** volatile int threadEnd = 0;
  21:tests/ConsumerProducer_CPP_Sync_API_test.hpp **** 
  22:tests/ConsumerProducer_CPP_Sync_API_test.hpp **** class ProducerKeyboard:public Thread {
  23:tests/ConsumerProducer_CPP_Sync_API_test.hpp ****     thread_data* td;
  24:tests/ConsumerProducer_CPP_Sync_API_test.hpp ****     void producerKeyboard(void *arg);
  25:tests/ConsumerProducer_CPP_Sync_API_test.hpp **** public:
  26:tests/ConsumerProducer_CPP_Sync_API_test.hpp ****     ProducerKeyboard(thread_data* _td):Thread(), td(_td) {}
  27:tests/ConsumerProducer_CPP_Sync_API_test.hpp **** 
  28:tests/ConsumerProducer_CPP_Sync_API_test.hpp ****     void run() override {
  29:tests/ConsumerProducer_CPP_Sync_API_test.hpp ****         producerKeyboard(td);
  30:tests/ConsumerProducer_CPP_Sync_API_test.hpp ****     }
  31:tests/ConsumerProducer_CPP_Sync_API_test.hpp **** };
  32:tests/ConsumerProducer_CPP_Sync_API_test.hpp **** 
  33:tests/ConsumerProducer_CPP_Sync_API_test.hpp **** void ProducerKeyboard::producerKeyboard(void *arg) {
  34:tests/ConsumerProducer_CPP_Sync_API_test.hpp ****     struct thread_data *data = (struct thread_data *) arg;
  35:tests/ConsumerProducer_CPP_Sync_API_test.hpp **** 
  36:tests/ConsumerProducer_CPP_Sync_API_test.hpp ****     int key;
  37:tests/ConsumerProducer_CPP_Sync_API_test.hpp ****     int i = 0;
  38:tests/ConsumerProducer_CPP_Sync_API_test.hpp ****     while ((key = getc()) != 0x1b) {
  39:tests/ConsumerProducer_CPP_Sync_API_test.hpp ****         data->buffer->put(key);
  40:tests/ConsumerProducer_CPP_Sync_API_test.hpp ****         i++;
  41:tests/ConsumerProducer_CPP_Sync_API_test.hpp **** 
  42:tests/ConsumerProducer_CPP_Sync_API_test.hpp ****         if (i % (10 * data->id) == 0) {
  43:tests/ConsumerProducer_CPP_Sync_API_test.hpp ****             Thread::dispatch();
  44:tests/ConsumerProducer_CPP_Sync_API_test.hpp ****         }
  45:tests/ConsumerProducer_CPP_Sync_API_test.hpp ****     }
  46:tests/ConsumerProducer_CPP_Sync_API_test.hpp **** 
  47:tests/ConsumerProducer_CPP_Sync_API_test.hpp ****     threadEnd = 1;
  48:tests/ConsumerProducer_CPP_Sync_API_test.hpp ****     td->buffer->put('!');
  49:tests/ConsumerProducer_CPP_Sync_API_test.hpp **** 
  50:tests/ConsumerProducer_CPP_Sync_API_test.hpp ****     data->wait->signal();
  51:tests/ConsumerProducer_CPP_Sync_API_test.hpp **** }
  52:tests/ConsumerProducer_CPP_Sync_API_test.hpp **** 
  53:tests/ConsumerProducer_CPP_Sync_API_test.hpp **** class Producer:public Thread {
  54:tests/ConsumerProducer_CPP_Sync_API_test.hpp ****     thread_data* td;
  55:tests/ConsumerProducer_CPP_Sync_API_test.hpp ****     void producer(void *arg);
GAS LISTING /tmp/ccqYKUbi.s 			page 9


  56:tests/ConsumerProducer_CPP_Sync_API_test.hpp **** public:
  57:tests/ConsumerProducer_CPP_Sync_API_test.hpp ****     Producer(thread_data* _td):Thread(), td(_td) {}
  58:tests/ConsumerProducer_CPP_Sync_API_test.hpp **** 
  59:tests/ConsumerProducer_CPP_Sync_API_test.hpp ****     void run() override {
  60:tests/ConsumerProducer_CPP_Sync_API_test.hpp ****         producer(td);
  61:tests/ConsumerProducer_CPP_Sync_API_test.hpp ****     }
  62:tests/ConsumerProducer_CPP_Sync_API_test.hpp **** };
  63:tests/ConsumerProducer_CPP_Sync_API_test.hpp **** 
  64:tests/ConsumerProducer_CPP_Sync_API_test.hpp **** void Producer::producer(void *arg) {
  65:tests/ConsumerProducer_CPP_Sync_API_test.hpp ****     struct thread_data *data = (struct thread_data *) arg;
  66:tests/ConsumerProducer_CPP_Sync_API_test.hpp **** 
  67:tests/ConsumerProducer_CPP_Sync_API_test.hpp ****     int i = 0;
  68:tests/ConsumerProducer_CPP_Sync_API_test.hpp ****     while (!threadEnd) {
  69:tests/ConsumerProducer_CPP_Sync_API_test.hpp ****         data->buffer->put(data->id + '0');
  70:tests/ConsumerProducer_CPP_Sync_API_test.hpp ****         i++;
  71:tests/ConsumerProducer_CPP_Sync_API_test.hpp **** 
  72:tests/ConsumerProducer_CPP_Sync_API_test.hpp ****         if (i % (10 * data->id) == 0) {
  73:tests/ConsumerProducer_CPP_Sync_API_test.hpp ****             Thread::dispatch();
  74:tests/ConsumerProducer_CPP_Sync_API_test.hpp ****         }
  75:tests/ConsumerProducer_CPP_Sync_API_test.hpp ****     }
  76:tests/ConsumerProducer_CPP_Sync_API_test.hpp **** 
  77:tests/ConsumerProducer_CPP_Sync_API_test.hpp ****     data->wait->signal();
  78:tests/ConsumerProducer_CPP_Sync_API_test.hpp **** }
  79:tests/ConsumerProducer_CPP_Sync_API_test.hpp **** 
  80:tests/ConsumerProducer_CPP_Sync_API_test.hpp **** class Consumer:public Thread {
 350              		.loc 2 80 7 is_stmt 1
 351              		.cfi_startproc
 352              	.LVL28:
 353 0000 130101FF 		addi	sp,sp,-16
 354              		.cfi_def_cfa_offset 16
 355 0004 23341100 		sd	ra,8(sp)
 356 0008 23308100 		sd	s0,0(sp)
 357              		.cfi_offset 1, -8
 358              		.cfi_offset 8, -16
 359 000c 13040101 		addi	s0,sp,16
 360              		.cfi_def_cfa 8, 0
 361              	.LBB82:
 362              		.loc 2 80 7 is_stmt 0
 363 0010 97070000 		lla	a5,_ZTV8Consumer+16
 363      93870700 
 364 0018 2330F500 		sd	a5,0(a0)
 365 001c 97000000 		call	_ZN6ThreadD2Ev@plt
 365      E7800000 
 366              	.LVL29:
 367              	.LBE82:
 368 0024 83308100 		ld	ra,8(sp)
 369              		.cfi_restore 1
 370 0028 03340100 		ld	s0,0(sp)
 371              		.cfi_restore 8
 372              		.cfi_def_cfa 2, 16
 373 002c 13010101 		addi	sp,sp,16
 374              		.cfi_def_cfa_offset 0
 375 0030 67800000 		jr	ra
 376              		.cfi_endproc
 377              	.LFE81:
 379              		.weak	_ZN8ConsumerD1Ev
 380              		.set	_ZN8ConsumerD1Ev,_ZN8ConsumerD2Ev
GAS LISTING /tmp/ccqYKUbi.s 			page 10


 381              		.section	.text._ZN8ConsumerD0Ev,"axG",@progbits,_ZN8ConsumerD5Ev,comdat
 382              		.align	2
 383              		.weak	_ZN8ConsumerD0Ev
 385              	_ZN8ConsumerD0Ev:
 386              	.LFB83:
 387              		.loc 2 80 7 is_stmt 1
 388              		.cfi_startproc
 389              	.LVL30:
 390 0000 130101FE 		addi	sp,sp,-32
 391              		.cfi_def_cfa_offset 32
 392 0004 233C1100 		sd	ra,24(sp)
 393 0008 23388100 		sd	s0,16(sp)
 394 000c 23349100 		sd	s1,8(sp)
 395              		.cfi_offset 1, -8
 396              		.cfi_offset 8, -16
 397              		.cfi_offset 9, -24
 398 0010 13040102 		addi	s0,sp,32
 399              		.cfi_def_cfa 8, 0
 400 0014 93040500 		mv	s1,a0
 401              	.LVL31:
 402              	.LBB83:
 403              	.LBB84:
 404              		.loc 2 80 7 is_stmt 0
 405 0018 97070000 		lla	a5,_ZTV8Consumer+16
 405      93870700 
 406 0020 2330F500 		sd	a5,0(a0)
 407 0024 97000000 		call	_ZN6ThreadD2Ev@plt
 407      E7800000 
 408              	.LVL32:
 409              	.LBE84:
 410              	.LBE83:
 411 002c 13850400 		mv	a0,s1
 412 0030 97000000 		call	_ZdlPv@plt
 412      E7800000 
 413              	.LVL33:
 414 0038 83308101 		ld	ra,24(sp)
 415              		.cfi_restore 1
 416 003c 03340101 		ld	s0,16(sp)
 417              		.cfi_restore 8
 418              		.cfi_def_cfa 2, 32
 419 0040 83348100 		ld	s1,8(sp)
 420              		.cfi_restore 9
 421              	.LVL34:
 422 0044 13010102 		addi	sp,sp,32
 423              		.cfi_def_cfa_offset 0
 424 0048 67800000 		jr	ra
 425              		.cfi_endproc
 426              	.LFE83:
 428              		.section	.text._ZN8ProducerD2Ev,"axG",@progbits,_ZN8ProducerD5Ev,comdat
 429              		.align	2
 430              		.weak	_ZN8ProducerD2Ev
 432              	_ZN8ProducerD2Ev:
 433              	.LFB85:
  53:tests/ConsumerProducer_CPP_Sync_API_test.hpp ****     thread_data* td;
 434              		.loc 2 53 7 is_stmt 1
 435              		.cfi_startproc
 436              	.LVL35:
GAS LISTING /tmp/ccqYKUbi.s 			page 11


 437 0000 130101FF 		addi	sp,sp,-16
 438              		.cfi_def_cfa_offset 16
 439 0004 23341100 		sd	ra,8(sp)
 440 0008 23308100 		sd	s0,0(sp)
 441              		.cfi_offset 1, -8
 442              		.cfi_offset 8, -16
 443 000c 13040101 		addi	s0,sp,16
 444              		.cfi_def_cfa 8, 0
 445              	.LBB85:
  53:tests/ConsumerProducer_CPP_Sync_API_test.hpp ****     thread_data* td;
 446              		.loc 2 53 7 is_stmt 0
 447 0010 97070000 		lla	a5,_ZTV8Producer+16
 447      93870700 
 448 0018 2330F500 		sd	a5,0(a0)
 449 001c 97000000 		call	_ZN6ThreadD2Ev@plt
 449      E7800000 
 450              	.LVL36:
 451              	.LBE85:
 452 0024 83308100 		ld	ra,8(sp)
 453              		.cfi_restore 1
 454 0028 03340100 		ld	s0,0(sp)
 455              		.cfi_restore 8
 456              		.cfi_def_cfa 2, 16
 457 002c 13010101 		addi	sp,sp,16
 458              		.cfi_def_cfa_offset 0
 459 0030 67800000 		jr	ra
 460              		.cfi_endproc
 461              	.LFE85:
 463              		.weak	_ZN8ProducerD1Ev
 464              		.set	_ZN8ProducerD1Ev,_ZN8ProducerD2Ev
 465              		.section	.text._ZN8ProducerD0Ev,"axG",@progbits,_ZN8ProducerD5Ev,comdat
 466              		.align	2
 467              		.weak	_ZN8ProducerD0Ev
 469              	_ZN8ProducerD0Ev:
 470              	.LFB87:
  53:tests/ConsumerProducer_CPP_Sync_API_test.hpp ****     thread_data* td;
 471              		.loc 2 53 7 is_stmt 1
 472              		.cfi_startproc
 473              	.LVL37:
 474 0000 130101FE 		addi	sp,sp,-32
 475              		.cfi_def_cfa_offset 32
 476 0004 233C1100 		sd	ra,24(sp)
 477 0008 23388100 		sd	s0,16(sp)
 478 000c 23349100 		sd	s1,8(sp)
 479              		.cfi_offset 1, -8
 480              		.cfi_offset 8, -16
 481              		.cfi_offset 9, -24
 482 0010 13040102 		addi	s0,sp,32
 483              		.cfi_def_cfa 8, 0
 484 0014 93040500 		mv	s1,a0
 485              	.LVL38:
 486              	.LBB86:
 487              	.LBB87:
  53:tests/ConsumerProducer_CPP_Sync_API_test.hpp ****     thread_data* td;
 488              		.loc 2 53 7 is_stmt 0
 489 0018 97070000 		lla	a5,_ZTV8Producer+16
 489      93870700 
GAS LISTING /tmp/ccqYKUbi.s 			page 12


 490 0020 2330F500 		sd	a5,0(a0)
 491 0024 97000000 		call	_ZN6ThreadD2Ev@plt
 491      E7800000 
 492              	.LVL39:
 493              	.LBE87:
 494              	.LBE86:
 495 002c 13850400 		mv	a0,s1
 496 0030 97000000 		call	_ZdlPv@plt
 496      E7800000 
 497              	.LVL40:
 498 0038 83308101 		ld	ra,24(sp)
 499              		.cfi_restore 1
 500 003c 03340101 		ld	s0,16(sp)
 501              		.cfi_restore 8
 502              		.cfi_def_cfa 2, 32
 503 0040 83348100 		ld	s1,8(sp)
 504              		.cfi_restore 9
 505              	.LVL41:
 506 0044 13010102 		addi	sp,sp,32
 507              		.cfi_def_cfa_offset 0
 508 0048 67800000 		jr	ra
 509              		.cfi_endproc
 510              	.LFE87:
 512              		.section	.text._ZN16ProducerKeyboardD2Ev,"axG",@progbits,_ZN16ProducerKeyboardD5Ev,comdat
 513              		.align	2
 514              		.weak	_ZN16ProducerKeyboardD2Ev
 516              	_ZN16ProducerKeyboardD2Ev:
 517              	.LFB89:
  22:tests/ConsumerProducer_CPP_Sync_API_test.hpp ****     thread_data* td;
 518              		.loc 2 22 7 is_stmt 1
 519              		.cfi_startproc
 520              	.LVL42:
 521 0000 130101FF 		addi	sp,sp,-16
 522              		.cfi_def_cfa_offset 16
 523 0004 23341100 		sd	ra,8(sp)
 524 0008 23308100 		sd	s0,0(sp)
 525              		.cfi_offset 1, -8
 526              		.cfi_offset 8, -16
 527 000c 13040101 		addi	s0,sp,16
 528              		.cfi_def_cfa 8, 0
 529              	.LBB88:
  22:tests/ConsumerProducer_CPP_Sync_API_test.hpp ****     thread_data* td;
 530              		.loc 2 22 7 is_stmt 0
 531 0010 97070000 		lla	a5,_ZTV16ProducerKeyboard+16
 531      93870700 
 532 0018 2330F500 		sd	a5,0(a0)
 533 001c 97000000 		call	_ZN6ThreadD2Ev@plt
 533      E7800000 
 534              	.LVL43:
 535              	.LBE88:
 536 0024 83308100 		ld	ra,8(sp)
 537              		.cfi_restore 1
 538 0028 03340100 		ld	s0,0(sp)
 539              		.cfi_restore 8
 540              		.cfi_def_cfa 2, 16
 541 002c 13010101 		addi	sp,sp,16
 542              		.cfi_def_cfa_offset 0
GAS LISTING /tmp/ccqYKUbi.s 			page 13


 543 0030 67800000 		jr	ra
 544              		.cfi_endproc
 545              	.LFE89:
 547              		.weak	_ZN16ProducerKeyboardD1Ev
 548              		.set	_ZN16ProducerKeyboardD1Ev,_ZN16ProducerKeyboardD2Ev
 549              		.section	.text._ZN16ProducerKeyboardD0Ev,"axG",@progbits,_ZN16ProducerKeyboardD5Ev,comdat
 550              		.align	2
 551              		.weak	_ZN16ProducerKeyboardD0Ev
 553              	_ZN16ProducerKeyboardD0Ev:
 554              	.LFB91:
  22:tests/ConsumerProducer_CPP_Sync_API_test.hpp ****     thread_data* td;
 555              		.loc 2 22 7 is_stmt 1
 556              		.cfi_startproc
 557              	.LVL44:
 558 0000 130101FE 		addi	sp,sp,-32
 559              		.cfi_def_cfa_offset 32
 560 0004 233C1100 		sd	ra,24(sp)
 561 0008 23388100 		sd	s0,16(sp)
 562 000c 23349100 		sd	s1,8(sp)
 563              		.cfi_offset 1, -8
 564              		.cfi_offset 8, -16
 565              		.cfi_offset 9, -24
 566 0010 13040102 		addi	s0,sp,32
 567              		.cfi_def_cfa 8, 0
 568 0014 93040500 		mv	s1,a0
 569              	.LVL45:
 570              	.LBB89:
 571              	.LBB90:
  22:tests/ConsumerProducer_CPP_Sync_API_test.hpp ****     thread_data* td;
 572              		.loc 2 22 7 is_stmt 0
 573 0018 97070000 		lla	a5,_ZTV16ProducerKeyboard+16
 573      93870700 
 574 0020 2330F500 		sd	a5,0(a0)
 575 0024 97000000 		call	_ZN6ThreadD2Ev@plt
 575      E7800000 
 576              	.LVL46:
 577              	.LBE90:
 578              	.LBE89:
 579 002c 13850400 		mv	a0,s1
 580 0030 97000000 		call	_ZdlPv@plt
 580      E7800000 
 581              	.LVL47:
 582 0038 83308101 		ld	ra,24(sp)
 583              		.cfi_restore 1
 584 003c 03340101 		ld	s0,16(sp)
 585              		.cfi_restore 8
 586              		.cfi_def_cfa 2, 32
 587 0040 83348100 		ld	s1,8(sp)
 588              		.cfi_restore 9
 589              	.LVL48:
 590 0044 13010102 		addi	sp,sp,32
 591              		.cfi_def_cfa_offset 0
 592 0048 67800000 		jr	ra
 593              		.cfi_endproc
 594              	.LFE91:
 596              		.section	.text._ZN19ConsumerProducerCPP8ConsumerD2Ev,"axG",@progbits,_ZN19ConsumerProducerCPP8Cons
 597              		.align	2
GAS LISTING /tmp/ccqYKUbi.s 			page 14


 598              		.weak	_ZN19ConsumerProducerCPP8ConsumerD2Ev
 600              	_ZN19ConsumerProducerCPP8ConsumerD2Ev:
 601              	.LFB69:
 602              		.file 3 "tests/ConsumerProducer_CPP_API_test.hpp"
   1:tests/ConsumerProducer_CPP_API_test.hpp **** //
   2:tests/ConsumerProducer_CPP_API_test.hpp **** // Created by os on 4/17/22.
   3:tests/ConsumerProducer_CPP_API_test.hpp **** //
   4:tests/ConsumerProducer_CPP_API_test.hpp **** 
   5:tests/ConsumerProducer_CPP_API_test.hpp **** #ifndef XV6_CONSUMERPRODUCER_CPP_API_TEST_HPP
   6:tests/ConsumerProducer_CPP_API_test.hpp **** #define XV6_CONSUMERPRODUCER_CPP_API_TEST_HPP
   7:tests/ConsumerProducer_CPP_API_test.hpp **** 
   8:tests/ConsumerProducer_CPP_API_test.hpp **** #include "../h/syscall_cpp.hpp"
   9:tests/ConsumerProducer_CPP_API_test.hpp **** 
  10:tests/ConsumerProducer_CPP_API_test.hpp **** #include "buffer_CPP_API.hpp"
  11:tests/ConsumerProducer_CPP_API_test.hpp **** #include "../h/printing.hpp"
  12:tests/ConsumerProducer_CPP_API_test.hpp **** 
  13:tests/ConsumerProducer_CPP_API_test.hpp **** namespace ConsumerProducerCPP {
  14:tests/ConsumerProducer_CPP_API_test.hpp **** 
  15:tests/ConsumerProducer_CPP_API_test.hpp ****     Semaphore *waitForAll;
  16:tests/ConsumerProducer_CPP_API_test.hpp **** 
  17:tests/ConsumerProducer_CPP_API_test.hpp ****     struct thread_data {
  18:tests/ConsumerProducer_CPP_API_test.hpp ****         int id;
  19:tests/ConsumerProducer_CPP_API_test.hpp ****         BufferCPP *buffer;
  20:tests/ConsumerProducer_CPP_API_test.hpp ****         Semaphore *sem;
  21:tests/ConsumerProducer_CPP_API_test.hpp ****     };
  22:tests/ConsumerProducer_CPP_API_test.hpp **** 
  23:tests/ConsumerProducer_CPP_API_test.hpp ****     volatile int threadEnd = 0;
  24:tests/ConsumerProducer_CPP_API_test.hpp **** 
  25:tests/ConsumerProducer_CPP_API_test.hpp ****     class ProducerKeyborad : public Thread {
  26:tests/ConsumerProducer_CPP_API_test.hpp ****         thread_data *td;
  27:tests/ConsumerProducer_CPP_API_test.hpp ****     public:
  28:tests/ConsumerProducer_CPP_API_test.hpp ****         ProducerKeyborad(thread_data *_td) : Thread(), td(_td) {}
  29:tests/ConsumerProducer_CPP_API_test.hpp **** 
  30:tests/ConsumerProducer_CPP_API_test.hpp ****         void run() override {
  31:tests/ConsumerProducer_CPP_API_test.hpp ****             int key;
  32:tests/ConsumerProducer_CPP_API_test.hpp ****             int i = 0;
  33:tests/ConsumerProducer_CPP_API_test.hpp ****             while ((key = getc()) != 0x1b) {
  34:tests/ConsumerProducer_CPP_API_test.hpp ****                 td->buffer->put(key);
  35:tests/ConsumerProducer_CPP_API_test.hpp ****                 i++;
  36:tests/ConsumerProducer_CPP_API_test.hpp ****             }
  37:tests/ConsumerProducer_CPP_API_test.hpp **** 
  38:tests/ConsumerProducer_CPP_API_test.hpp ****             threadEnd = 1;
  39:tests/ConsumerProducer_CPP_API_test.hpp ****             td->buffer->put('!');
  40:tests/ConsumerProducer_CPP_API_test.hpp **** 
  41:tests/ConsumerProducer_CPP_API_test.hpp ****             td->sem->signal();
  42:tests/ConsumerProducer_CPP_API_test.hpp ****         }
  43:tests/ConsumerProducer_CPP_API_test.hpp ****     };
  44:tests/ConsumerProducer_CPP_API_test.hpp **** 
  45:tests/ConsumerProducer_CPP_API_test.hpp ****     class Producer : public Thread {
  46:tests/ConsumerProducer_CPP_API_test.hpp ****         thread_data *td;
  47:tests/ConsumerProducer_CPP_API_test.hpp ****     public:
  48:tests/ConsumerProducer_CPP_API_test.hpp ****         Producer(thread_data *_td) : Thread(), td(_td) {}
  49:tests/ConsumerProducer_CPP_API_test.hpp **** 
  50:tests/ConsumerProducer_CPP_API_test.hpp ****         void run() override {
  51:tests/ConsumerProducer_CPP_API_test.hpp ****             int i = 0;
  52:tests/ConsumerProducer_CPP_API_test.hpp ****             while (!threadEnd) {
  53:tests/ConsumerProducer_CPP_API_test.hpp ****                 td->buffer->put(td->id + '0');
GAS LISTING /tmp/ccqYKUbi.s 			page 15


  54:tests/ConsumerProducer_CPP_API_test.hpp ****                 i++;
  55:tests/ConsumerProducer_CPP_API_test.hpp ****                 Thread::sleep((i+td->id)%5);
  56:tests/ConsumerProducer_CPP_API_test.hpp ****             }
  57:tests/ConsumerProducer_CPP_API_test.hpp **** 
  58:tests/ConsumerProducer_CPP_API_test.hpp ****             td->sem->signal();
  59:tests/ConsumerProducer_CPP_API_test.hpp ****         }
  60:tests/ConsumerProducer_CPP_API_test.hpp ****     };
  61:tests/ConsumerProducer_CPP_API_test.hpp **** 
  62:tests/ConsumerProducer_CPP_API_test.hpp ****     class Consumer : public Thread {
 603              		.loc 3 62 11 is_stmt 1
 604              		.cfi_startproc
 605              	.LVL49:
 606 0000 130101FF 		addi	sp,sp,-16
 607              		.cfi_def_cfa_offset 16
 608 0004 23341100 		sd	ra,8(sp)
 609 0008 23308100 		sd	s0,0(sp)
 610              		.cfi_offset 1, -8
 611              		.cfi_offset 8, -16
 612 000c 13040101 		addi	s0,sp,16
 613              		.cfi_def_cfa 8, 0
 614              	.LBB91:
 615              		.loc 3 62 11 is_stmt 0
 616 0010 97070000 		lla	a5,_ZTVN19ConsumerProducerCPP8ConsumerE+16
 616      93870700 
 617 0018 2330F500 		sd	a5,0(a0)
 618 001c 97000000 		call	_ZN6ThreadD2Ev@plt
 618      E7800000 
 619              	.LVL50:
 620              	.LBE91:
 621 0024 83308100 		ld	ra,8(sp)
 622              		.cfi_restore 1
 623 0028 03340100 		ld	s0,0(sp)
 624              		.cfi_restore 8
 625              		.cfi_def_cfa 2, 16
 626 002c 13010101 		addi	sp,sp,16
 627              		.cfi_def_cfa_offset 0
 628 0030 67800000 		jr	ra
 629              		.cfi_endproc
 630              	.LFE69:
 632              		.weak	_ZN19ConsumerProducerCPP8ConsumerD1Ev
 633              		.set	_ZN19ConsumerProducerCPP8ConsumerD1Ev,_ZN19ConsumerProducerCPP8ConsumerD2Ev
 634              		.section	.text._ZN19ConsumerProducerCPP8ConsumerD0Ev,"axG",@progbits,_ZN19ConsumerProducerCPP8Cons
 635              		.align	2
 636              		.weak	_ZN19ConsumerProducerCPP8ConsumerD0Ev
 638              	_ZN19ConsumerProducerCPP8ConsumerD0Ev:
 639              	.LFB71:
 640              		.loc 3 62 11 is_stmt 1
 641              		.cfi_startproc
 642              	.LVL51:
 643 0000 130101FE 		addi	sp,sp,-32
 644              		.cfi_def_cfa_offset 32
 645 0004 233C1100 		sd	ra,24(sp)
 646 0008 23388100 		sd	s0,16(sp)
 647 000c 23349100 		sd	s1,8(sp)
 648              		.cfi_offset 1, -8
 649              		.cfi_offset 8, -16
 650              		.cfi_offset 9, -24
GAS LISTING /tmp/ccqYKUbi.s 			page 16


 651 0010 13040102 		addi	s0,sp,32
 652              		.cfi_def_cfa 8, 0
 653 0014 93040500 		mv	s1,a0
 654              	.LVL52:
 655              	.LBB92:
 656              	.LBB93:
 657              		.loc 3 62 11 is_stmt 0
 658 0018 97070000 		lla	a5,_ZTVN19ConsumerProducerCPP8ConsumerE+16
 658      93870700 
 659 0020 2330F500 		sd	a5,0(a0)
 660 0024 97000000 		call	_ZN6ThreadD2Ev@plt
 660      E7800000 
 661              	.LVL53:
 662              	.LBE93:
 663              	.LBE92:
 664 002c 13850400 		mv	a0,s1
 665 0030 97000000 		call	_ZdlPv@plt
 665      E7800000 
 666              	.LVL54:
 667 0038 83308101 		ld	ra,24(sp)
 668              		.cfi_restore 1
 669 003c 03340101 		ld	s0,16(sp)
 670              		.cfi_restore 8
 671              		.cfi_def_cfa 2, 32
 672 0040 83348100 		ld	s1,8(sp)
 673              		.cfi_restore 9
 674              	.LVL55:
 675 0044 13010102 		addi	sp,sp,32
 676              		.cfi_def_cfa_offset 0
 677 0048 67800000 		jr	ra
 678              		.cfi_endproc
 679              	.LFE71:
 681              		.section	.text._ZN19ConsumerProducerCPP16ProducerKeyboradD2Ev,"axG",@progbits,_ZN19ConsumerProduce
 682              		.align	2
 683              		.weak	_ZN19ConsumerProducerCPP16ProducerKeyboradD2Ev
 685              	_ZN19ConsumerProducerCPP16ProducerKeyboradD2Ev:
 686              	.LFB77:
  25:tests/ConsumerProducer_CPP_API_test.hpp ****         thread_data *td;
 687              		.loc 3 25 11 is_stmt 1
 688              		.cfi_startproc
 689              	.LVL56:
 690 0000 130101FF 		addi	sp,sp,-16
 691              		.cfi_def_cfa_offset 16
 692 0004 23341100 		sd	ra,8(sp)
 693 0008 23308100 		sd	s0,0(sp)
 694              		.cfi_offset 1, -8
 695              		.cfi_offset 8, -16
 696 000c 13040101 		addi	s0,sp,16
 697              		.cfi_def_cfa 8, 0
 698              	.LBB94:
  25:tests/ConsumerProducer_CPP_API_test.hpp ****         thread_data *td;
 699              		.loc 3 25 11 is_stmt 0
 700 0010 97070000 		lla	a5,_ZTVN19ConsumerProducerCPP16ProducerKeyboradE+16
 700      93870700 
 701 0018 2330F500 		sd	a5,0(a0)
 702 001c 97000000 		call	_ZN6ThreadD2Ev@plt
 702      E7800000 
GAS LISTING /tmp/ccqYKUbi.s 			page 17


 703              	.LVL57:
 704              	.LBE94:
 705 0024 83308100 		ld	ra,8(sp)
 706              		.cfi_restore 1
 707 0028 03340100 		ld	s0,0(sp)
 708              		.cfi_restore 8
 709              		.cfi_def_cfa 2, 16
 710 002c 13010101 		addi	sp,sp,16
 711              		.cfi_def_cfa_offset 0
 712 0030 67800000 		jr	ra
 713              		.cfi_endproc
 714              	.LFE77:
 716              		.weak	_ZN19ConsumerProducerCPP16ProducerKeyboradD1Ev
 717              		.set	_ZN19ConsumerProducerCPP16ProducerKeyboradD1Ev,_ZN19ConsumerProducerCPP16ProducerKeyboradD2Ev
 718              		.section	.text._ZN19ConsumerProducerCPP16ProducerKeyboradD0Ev,"axG",@progbits,_ZN19ConsumerProduce
 719              		.align	2
 720              		.weak	_ZN19ConsumerProducerCPP16ProducerKeyboradD0Ev
 722              	_ZN19ConsumerProducerCPP16ProducerKeyboradD0Ev:
 723              	.LFB79:
  25:tests/ConsumerProducer_CPP_API_test.hpp ****         thread_data *td;
 724              		.loc 3 25 11 is_stmt 1
 725              		.cfi_startproc
 726              	.LVL58:
 727 0000 130101FE 		addi	sp,sp,-32
 728              		.cfi_def_cfa_offset 32
 729 0004 233C1100 		sd	ra,24(sp)
 730 0008 23388100 		sd	s0,16(sp)
 731 000c 23349100 		sd	s1,8(sp)
 732              		.cfi_offset 1, -8
 733              		.cfi_offset 8, -16
 734              		.cfi_offset 9, -24
 735 0010 13040102 		addi	s0,sp,32
 736              		.cfi_def_cfa 8, 0
 737 0014 93040500 		mv	s1,a0
 738              	.LVL59:
 739              	.LBB95:
 740              	.LBB96:
  25:tests/ConsumerProducer_CPP_API_test.hpp ****         thread_data *td;
 741              		.loc 3 25 11 is_stmt 0
 742 0018 97070000 		lla	a5,_ZTVN19ConsumerProducerCPP16ProducerKeyboradE+16
 742      93870700 
 743 0020 2330F500 		sd	a5,0(a0)
 744 0024 97000000 		call	_ZN6ThreadD2Ev@plt
 744      E7800000 
 745              	.LVL60:
 746              	.LBE96:
 747              	.LBE95:
 748 002c 13850400 		mv	a0,s1
 749 0030 97000000 		call	_ZdlPv@plt
 749      E7800000 
 750              	.LVL61:
 751 0038 83308101 		ld	ra,24(sp)
 752              		.cfi_restore 1
 753 003c 03340101 		ld	s0,16(sp)
 754              		.cfi_restore 8
 755              		.cfi_def_cfa 2, 32
 756 0040 83348100 		ld	s1,8(sp)
GAS LISTING /tmp/ccqYKUbi.s 			page 18


 757              		.cfi_restore 9
 758              	.LVL62:
 759 0044 13010102 		addi	sp,sp,32
 760              		.cfi_def_cfa_offset 0
 761 0048 67800000 		jr	ra
 762              		.cfi_endproc
 763              	.LFE79:
 765              		.section	.text._ZN19ConsumerProducerCPP8ProducerD2Ev,"axG",@progbits,_ZN19ConsumerProducerCPP8Prod
 766              		.align	2
 767              		.weak	_ZN19ConsumerProducerCPP8ProducerD2Ev
 769              	_ZN19ConsumerProducerCPP8ProducerD2Ev:
 770              	.LFB73:
  45:tests/ConsumerProducer_CPP_API_test.hpp ****         thread_data *td;
 771              		.loc 3 45 11 is_stmt 1
 772              		.cfi_startproc
 773              	.LVL63:
 774 0000 130101FF 		addi	sp,sp,-16
 775              		.cfi_def_cfa_offset 16
 776 0004 23341100 		sd	ra,8(sp)
 777 0008 23308100 		sd	s0,0(sp)
 778              		.cfi_offset 1, -8
 779              		.cfi_offset 8, -16
 780 000c 13040101 		addi	s0,sp,16
 781              		.cfi_def_cfa 8, 0
 782              	.LBB97:
  45:tests/ConsumerProducer_CPP_API_test.hpp ****         thread_data *td;
 783              		.loc 3 45 11 is_stmt 0
 784 0010 97070000 		lla	a5,_ZTVN19ConsumerProducerCPP8ProducerE+16
 784      93870700 
 785 0018 2330F500 		sd	a5,0(a0)
 786 001c 97000000 		call	_ZN6ThreadD2Ev@plt
 786      E7800000 
 787              	.LVL64:
 788              	.LBE97:
 789 0024 83308100 		ld	ra,8(sp)
 790              		.cfi_restore 1
 791 0028 03340100 		ld	s0,0(sp)
 792              		.cfi_restore 8
 793              		.cfi_def_cfa 2, 16
 794 002c 13010101 		addi	sp,sp,16
 795              		.cfi_def_cfa_offset 0
 796 0030 67800000 		jr	ra
 797              		.cfi_endproc
 798              	.LFE73:
 800              		.weak	_ZN19ConsumerProducerCPP8ProducerD1Ev
 801              		.set	_ZN19ConsumerProducerCPP8ProducerD1Ev,_ZN19ConsumerProducerCPP8ProducerD2Ev
 802              		.section	.text._ZN19ConsumerProducerCPP8ProducerD0Ev,"axG",@progbits,_ZN19ConsumerProducerCPP8Prod
 803              		.align	2
 804              		.weak	_ZN19ConsumerProducerCPP8ProducerD0Ev
 806              	_ZN19ConsumerProducerCPP8ProducerD0Ev:
 807              	.LFB75:
  45:tests/ConsumerProducer_CPP_API_test.hpp ****         thread_data *td;
 808              		.loc 3 45 11 is_stmt 1
 809              		.cfi_startproc
 810              	.LVL65:
 811 0000 130101FE 		addi	sp,sp,-32
 812              		.cfi_def_cfa_offset 32
GAS LISTING /tmp/ccqYKUbi.s 			page 19


 813 0004 233C1100 		sd	ra,24(sp)
 814 0008 23388100 		sd	s0,16(sp)
 815 000c 23349100 		sd	s1,8(sp)
 816              		.cfi_offset 1, -8
 817              		.cfi_offset 8, -16
 818              		.cfi_offset 9, -24
 819 0010 13040102 		addi	s0,sp,32
 820              		.cfi_def_cfa 8, 0
 821 0014 93040500 		mv	s1,a0
 822              	.LVL66:
 823              	.LBB98:
 824              	.LBB99:
  45:tests/ConsumerProducer_CPP_API_test.hpp ****         thread_data *td;
 825              		.loc 3 45 11 is_stmt 0
 826 0018 97070000 		lla	a5,_ZTVN19ConsumerProducerCPP8ProducerE+16
 826      93870700 
 827 0020 2330F500 		sd	a5,0(a0)
 828 0024 97000000 		call	_ZN6ThreadD2Ev@plt
 828      E7800000 
 829              	.LVL67:
 830              	.LBE99:
 831              	.LBE98:
 832 002c 13850400 		mv	a0,s1
 833 0030 97000000 		call	_ZdlPv@plt
 833      E7800000 
 834              	.LVL68:
 835 0038 83308101 		ld	ra,24(sp)
 836              		.cfi_restore 1
 837 003c 03340101 		ld	s0,16(sp)
 838              		.cfi_restore 8
 839              		.cfi_def_cfa 2, 32
 840 0040 83348100 		ld	s1,8(sp)
 841              		.cfi_restore 9
 842              	.LVL69:
 843 0044 13010102 		addi	sp,sp,32
 844              		.cfi_def_cfa_offset 0
 845 0048 67800000 		jr	ra
 846              		.cfi_endproc
 847              	.LFE75:
 849              		.section	.text._ZN19ConsumerProducerCPP16ProducerKeyborad3runEv,"axG",@progbits,_ZN19ConsumerProdu
 850              		.align	2
 851              		.weak	_ZN19ConsumerProducerCPP16ProducerKeyborad3runEv
 853              	_ZN19ConsumerProducerCPP16ProducerKeyborad3runEv:
 854              	.LFB57:
  30:tests/ConsumerProducer_CPP_API_test.hpp ****             int key;
 855              		.loc 3 30 14 is_stmt 1
 856              		.cfi_startproc
 857              	.LVL70:
 858 0000 130101FE 		addi	sp,sp,-32
 859              		.cfi_def_cfa_offset 32
 860 0004 233C1100 		sd	ra,24(sp)
 861 0008 23388100 		sd	s0,16(sp)
 862 000c 23349100 		sd	s1,8(sp)
 863              		.cfi_offset 1, -8
 864              		.cfi_offset 8, -16
 865              		.cfi_offset 9, -24
 866 0010 13040102 		addi	s0,sp,32
GAS LISTING /tmp/ccqYKUbi.s 			page 20


 867              		.cfi_def_cfa 8, 0
 868 0014 93040500 		mv	s1,a0
  31:tests/ConsumerProducer_CPP_API_test.hpp ****             int i = 0;
 869              		.loc 3 31 13
  32:tests/ConsumerProducer_CPP_API_test.hpp ****             while ((key = getc()) != 0x1b) {
 870              		.loc 3 32 13
 871              	.LVL71:
 872              	.L43:
  33:tests/ConsumerProducer_CPP_API_test.hpp ****                 td->buffer->put(key);
 873              		.loc 3 33 13
  33:tests/ConsumerProducer_CPP_API_test.hpp ****                 td->buffer->put(key);
 874              		.loc 3 33 35
  33:tests/ConsumerProducer_CPP_API_test.hpp ****                 td->buffer->put(key);
 875              		.loc 3 33 31 is_stmt 0
 876 0018 97000000 		call	_Z4getcv@plt
 876      E7800000 
 877              	.LVL72:
  33:tests/ConsumerProducer_CPP_API_test.hpp ****                 td->buffer->put(key);
 878              		.loc 3 33 25
 879 0020 9B050500 		sext.w	a1,a0
 880              	.LVL73:
  33:tests/ConsumerProducer_CPP_API_test.hpp ****                 td->buffer->put(key);
 881              		.loc 3 33 35
 882 0024 9307B001 		li	a5,27
 883 0028 638CF500 		beq	a1,a5,.L42
  34:tests/ConsumerProducer_CPP_API_test.hpp ****                 i++;
 884              		.loc 3 34 17 is_stmt 1
 885 002c 83B70401 		ld	a5,16(s1)
  34:tests/ConsumerProducer_CPP_API_test.hpp ****                 i++;
 886              		.loc 3 34 32 is_stmt 0
 887 0030 03B58700 		ld	a0,8(a5)
 888 0034 97000000 		call	_ZN9BufferCPP3putEi@plt
 888      E7800000 
 889              	.LVL74:
  35:tests/ConsumerProducer_CPP_API_test.hpp ****             }
 890              		.loc 3 35 17 is_stmt 1
  33:tests/ConsumerProducer_CPP_API_test.hpp ****                 td->buffer->put(key);
 891              		.loc 3 33 13 is_stmt 0
 892 003c 6FF0DFFD 		j	.L43
 893              	.LVL75:
 894              	.L42:
  38:tests/ConsumerProducer_CPP_API_test.hpp ****             td->buffer->put('!');
 895              		.loc 3 38 13 is_stmt 1
  38:tests/ConsumerProducer_CPP_API_test.hpp ****             td->buffer->put('!');
 896              		.loc 3 38 23 is_stmt 0
 897 0040 93071000 		li	a5,1
 898 0044 17070000 		sw	a5,.LANCHOR0,a4
 898      2320F700 
  39:tests/ConsumerProducer_CPP_API_test.hpp **** 
 899              		.loc 3 39 13 is_stmt 1
 900 004c 83B70401 		ld	a5,16(s1)
  39:tests/ConsumerProducer_CPP_API_test.hpp **** 
 901              		.loc 3 39 28 is_stmt 0
 902 0050 93051002 		li	a1,33
 903              	.LVL76:
 904 0054 03B58700 		ld	a0,8(a5)
 905              	.LVL77:
GAS LISTING /tmp/ccqYKUbi.s 			page 21


 906 0058 97000000 		call	_ZN9BufferCPP3putEi@plt
 906      E7800000 
 907              	.LVL78:
  41:tests/ConsumerProducer_CPP_API_test.hpp ****         }
 908              		.loc 3 41 13 is_stmt 1
 909 0060 83B70401 		ld	a5,16(s1)
  41:tests/ConsumerProducer_CPP_API_test.hpp ****         }
 910              		.loc 3 41 28 is_stmt 0
 911 0064 03B50701 		ld	a0,16(a5)
 912 0068 97000000 		call	_ZN9Semaphore6signalEv@plt
 912      E7800000 
 913              	.LVL79:
  42:tests/ConsumerProducer_CPP_API_test.hpp ****     };
 914              		.loc 3 42 9
 915 0070 83308101 		ld	ra,24(sp)
 916              		.cfi_restore 1
 917 0074 03340101 		ld	s0,16(sp)
 918              		.cfi_restore 8
 919              		.cfi_def_cfa 2, 32
 920 0078 83348100 		ld	s1,8(sp)
 921              		.cfi_restore 9
 922              	.LVL80:
 923 007c 13010102 		addi	sp,sp,32
 924              		.cfi_def_cfa_offset 0
 925 0080 67800000 		jr	ra
 926              		.cfi_endproc
 927              	.LFE57:
 929              		.section	.text._ZN19ConsumerProducerCPP8Consumer3runEv,"axG",@progbits,_ZN19ConsumerProducerCPP8Co
 930              		.align	2
 931              		.weak	_ZN19ConsumerProducerCPP8Consumer3runEv
 933              	_ZN19ConsumerProducerCPP8Consumer3runEv:
 934              	.LFB65:
  63:tests/ConsumerProducer_CPP_API_test.hpp ****         thread_data *td;
  64:tests/ConsumerProducer_CPP_API_test.hpp ****     public:
  65:tests/ConsumerProducer_CPP_API_test.hpp ****         Consumer(thread_data *_td) : Thread(), td(_td) {}
  66:tests/ConsumerProducer_CPP_API_test.hpp **** 
  67:tests/ConsumerProducer_CPP_API_test.hpp ****         void run() override {
 935              		.loc 3 67 14 is_stmt 1
 936              		.cfi_startproc
 937              	.LVL81:
 938 0000 130101FD 		addi	sp,sp,-48
 939              		.cfi_def_cfa_offset 48
 940 0004 23341102 		sd	ra,40(sp)
 941 0008 23308102 		sd	s0,32(sp)
 942 000c 233C9100 		sd	s1,24(sp)
 943 0010 23382101 		sd	s2,16(sp)
 944 0014 23343101 		sd	s3,8(sp)
 945              		.cfi_offset 1, -8
 946              		.cfi_offset 8, -16
 947              		.cfi_offset 9, -24
 948              		.cfi_offset 18, -32
 949              		.cfi_offset 19, -40
 950 0018 13040103 		addi	s0,sp,48
 951              		.cfi_def_cfa 8, 0
 952 001c 13090500 		mv	s2,a0
  68:tests/ConsumerProducer_CPP_API_test.hpp ****             int i = 0;
 953              		.loc 3 68 13
GAS LISTING /tmp/ccqYKUbi.s 			page 22


 954              	.LVL82:
 955              		.loc 3 68 17 is_stmt 0
 956 0020 93090000 		li	s3,0
 957 0024 6F000001 		j	.L46
 958              	.LVL83:
 959              	.L51:
 960              	.LBB100:
  69:tests/ConsumerProducer_CPP_API_test.hpp ****             while (!threadEnd) {
  70:tests/ConsumerProducer_CPP_API_test.hpp ****                 int key = td->buffer->get();
  71:tests/ConsumerProducer_CPP_API_test.hpp ****                 i++;
  72:tests/ConsumerProducer_CPP_API_test.hpp **** 
  73:tests/ConsumerProducer_CPP_API_test.hpp ****                 Console::putc(key);
  74:tests/ConsumerProducer_CPP_API_test.hpp **** 
  75:tests/ConsumerProducer_CPP_API_test.hpp ****                 if (i % 80 == 0) {
  76:tests/ConsumerProducer_CPP_API_test.hpp ****                     Console::putc('\n');
 961              		.loc 3 76 21 is_stmt 1
 962              		.loc 3 76 34 is_stmt 0
 963 0028 1305A000 		li	a0,10
 964 002c 97000000 		call	_ZN7Console4putcEc@plt
 964      E7800000 
 965              	.LVL84:
 966              	.L46:
 967              	.LBE100:
  69:tests/ConsumerProducer_CPP_API_test.hpp ****             while (!threadEnd) {
 968              		.loc 3 69 13 is_stmt 1
  69:tests/ConsumerProducer_CPP_API_test.hpp ****             while (!threadEnd) {
 969              		.loc 3 69 20
 970 0034 97070000 		lw	a5,.LANCHOR0
 970      83A70700 
 971 003c 639A0704 		bnez	a5,.L47
 972              	.LBB101:
  70:tests/ConsumerProducer_CPP_API_test.hpp ****                 i++;
 973              		.loc 3 70 17
  70:tests/ConsumerProducer_CPP_API_test.hpp ****                 i++;
 974              		.loc 3 70 27 is_stmt 0
 975 0040 83370901 		ld	a5,16(s2)
  70:tests/ConsumerProducer_CPP_API_test.hpp ****                 i++;
 976              		.loc 3 70 42
 977 0044 03B58700 		ld	a0,8(a5)
 978 0048 97000000 		call	_ZN9BufferCPP3getEv@plt
 978      E7800000 
 979              	.LVL85:
  71:tests/ConsumerProducer_CPP_API_test.hpp **** 
 980              		.loc 3 71 17 is_stmt 1
  71:tests/ConsumerProducer_CPP_API_test.hpp **** 
 981              		.loc 3 71 18 is_stmt 0
 982 0050 9B841900 		addiw	s1,s3,1
 983 0054 9B890400 		sext.w	s3,s1
 984              	.LVL86:
  73:tests/ConsumerProducer_CPP_API_test.hpp **** 
 985              		.loc 3 73 17 is_stmt 1
  73:tests/ConsumerProducer_CPP_API_test.hpp **** 
 986              		.loc 3 73 30 is_stmt 0
 987 0058 1375F50F 		andi	a0,a0,0xff
 988              	.LVL87:
 989 005c 97000000 		call	_ZN7Console4putcEc@plt
 989      E7800000 
GAS LISTING /tmp/ccqYKUbi.s 			page 23


 990              	.LVL88:
  75:tests/ConsumerProducer_CPP_API_test.hpp ****                     Console::putc('\n');
 991              		.loc 3 75 17 is_stmt 1
  75:tests/ConsumerProducer_CPP_API_test.hpp ****                     Console::putc('\n');
 992              		.loc 3 75 23 is_stmt 0
 993 0064 93070005 		li	a5,80
 994 0068 BBE4F402 		remw	s1,s1,a5
 995              	.LVL89:
  75:tests/ConsumerProducer_CPP_API_test.hpp ****                     Console::putc('\n');
 996              		.loc 3 75 17
 997 006c E39404FC 		bnez	s1,.L46
 998 0070 6FF09FFB 		j	.L51
 999              	.L52:
 1000              	.LBE101:
 1001              	.LBB102:
  77:tests/ConsumerProducer_CPP_API_test.hpp ****                 }
  78:tests/ConsumerProducer_CPP_API_test.hpp ****             }
  79:tests/ConsumerProducer_CPP_API_test.hpp **** 
  80:tests/ConsumerProducer_CPP_API_test.hpp ****             while (td->buffer->getCnt() > 0) {
  81:tests/ConsumerProducer_CPP_API_test.hpp ****                 int key = td->buffer->get();
 1002              		.loc 3 81 17 is_stmt 1
 1003              		.loc 3 81 27 is_stmt 0
 1004 0074 83370901 		ld	a5,16(s2)
 1005              		.loc 3 81 42
 1006 0078 03B58700 		ld	a0,8(a5)
 1007 007c 97000000 		call	_ZN9BufferCPP3getEv@plt
 1007      E7800000 
 1008              	.LVL90:
  82:tests/ConsumerProducer_CPP_API_test.hpp ****                 Console::putc(key);
 1009              		.loc 3 82 17 is_stmt 1
 1010              		.loc 3 82 30 is_stmt 0
 1011 0084 1375F50F 		andi	a0,a0,0xff
 1012              	.LVL91:
 1013 0088 97000000 		call	_ZN7Console4putcEc@plt
 1013      E7800000 
 1014              	.LVL92:
 1015              	.L47:
 1016              	.LBE102:
  80:tests/ConsumerProducer_CPP_API_test.hpp ****                 int key = td->buffer->get();
 1017              		.loc 3 80 13 is_stmt 1
  80:tests/ConsumerProducer_CPP_API_test.hpp ****                 int key = td->buffer->get();
 1018              		.loc 3 80 41
  80:tests/ConsumerProducer_CPP_API_test.hpp ****                 int key = td->buffer->get();
 1019              		.loc 3 80 20 is_stmt 0
 1020 0090 83370901 		ld	a5,16(s2)
  80:tests/ConsumerProducer_CPP_API_test.hpp ****                 int key = td->buffer->get();
 1021              		.loc 3 80 38
 1022 0094 03B58700 		ld	a0,8(a5)
 1023 0098 97000000 		call	_ZN9BufferCPP6getCntEv@plt
 1023      E7800000 
 1024              	.LVL93:
  80:tests/ConsumerProducer_CPP_API_test.hpp ****                 int key = td->buffer->get();
 1025              		.loc 3 80 41
 1026 00a0 E34AA0FC 		bgtz	a0,.L52
  83:tests/ConsumerProducer_CPP_API_test.hpp ****             }
  84:tests/ConsumerProducer_CPP_API_test.hpp **** 
  85:tests/ConsumerProducer_CPP_API_test.hpp ****             td->sem->signal();
GAS LISTING /tmp/ccqYKUbi.s 			page 24


 1027              		.loc 3 85 13 is_stmt 1
 1028 00a4 83370901 		ld	a5,16(s2)
 1029              		.loc 3 85 28 is_stmt 0
 1030 00a8 03B50701 		ld	a0,16(a5)
 1031 00ac 97000000 		call	_ZN9Semaphore6signalEv@plt
 1031      E7800000 
 1032              	.LVL94:
  86:tests/ConsumerProducer_CPP_API_test.hpp ****         }
 1033              		.loc 3 86 9
 1034 00b4 83308102 		ld	ra,40(sp)
 1035              		.cfi_restore 1
 1036 00b8 03340102 		ld	s0,32(sp)
 1037              		.cfi_restore 8
 1038              		.cfi_def_cfa 2, 48
 1039 00bc 83348101 		ld	s1,24(sp)
 1040              		.cfi_restore 9
 1041 00c0 03390101 		ld	s2,16(sp)
 1042              		.cfi_restore 18
 1043              	.LVL95:
 1044 00c4 83398100 		ld	s3,8(sp)
 1045              		.cfi_restore 19
 1046              	.LVL96:
 1047 00c8 13010103 		addi	sp,sp,48
 1048              		.cfi_def_cfa_offset 0
 1049 00cc 67800000 		jr	ra
 1050              		.cfi_endproc
 1051              	.LFE65:
 1053              		.section	.rodata.str1.8,"aMS",@progbits,1
 1054              		.align	3
 1055              	.LC0:
 1056 0000 48656C6C 		.string	"Hello "
 1056      6F2000
 1057 0007 00       		.align	3
 1058              	.LC1:
 1059 0008 20210A00 		.string	" !\n"
 1060              		.text
 1061              		.align	2
 1062              		.globl	_Z9sleepyRunPv
 1064              	_Z9sleepyRunPv:
 1065              	.LFB52:
 1066              		.file 4 "tests/ThreadSleep_C_API_test.hpp"
   1:tests/ThreadSleep_C_API_test.hpp **** //
   2:tests/ThreadSleep_C_API_test.hpp **** // Created by os on 4/17/22.
   3:tests/ThreadSleep_C_API_test.hpp **** //
   4:tests/ThreadSleep_C_API_test.hpp **** 
   5:tests/ThreadSleep_C_API_test.hpp **** #ifndef XV6_THREADSLEEP_C_API_TEST_HPP
   6:tests/ThreadSleep_C_API_test.hpp **** #define XV6_THREADSLEEP_C_API_TEST_HPP
   7:tests/ThreadSleep_C_API_test.hpp **** 
   8:tests/ThreadSleep_C_API_test.hpp **** #include "../h/syscall_c.h"
   9:tests/ThreadSleep_C_API_test.hpp **** 
  10:tests/ThreadSleep_C_API_test.hpp **** #include "../h/printing.hpp"
  11:tests/ThreadSleep_C_API_test.hpp **** 
  12:tests/ThreadSleep_C_API_test.hpp **** bool finished[2];
  13:tests/ThreadSleep_C_API_test.hpp **** 
  14:tests/ThreadSleep_C_API_test.hpp **** void sleepyRun(void *arg) {
 1067              		.loc 4 14 27 is_stmt 1
 1068              		.cfi_startproc
GAS LISTING /tmp/ccqYKUbi.s 			page 25


 1069              	.LVL97:
 1070 0000 130101FE 		addi	sp,sp,-32
 1071              		.cfi_def_cfa_offset 32
 1072 0004 233C1100 		sd	ra,24(sp)
 1073 0008 23388100 		sd	s0,16(sp)
 1074 000c 23349100 		sd	s1,8(sp)
 1075 0010 23302101 		sd	s2,0(sp)
 1076              		.cfi_offset 1, -8
 1077              		.cfi_offset 8, -16
 1078              		.cfi_offset 9, -24
 1079              		.cfi_offset 18, -32
 1080 0014 13040102 		addi	s0,sp,32
 1081              		.cfi_def_cfa 8, 0
  15:tests/ThreadSleep_C_API_test.hpp ****     time_t sleep_time = *((time_t *) arg);
 1082              		.loc 4 15 5
 1083              		.loc 4 15 12 is_stmt 0
 1084 0018 03390500 		ld	s2,0(a0)
 1085              	.LVL98:
  16:tests/ThreadSleep_C_API_test.hpp ****     int i = 6;
 1086              		.loc 4 16 5 is_stmt 1
 1087              		.loc 4 16 9 is_stmt 0
 1088 001c 93046000 		li	s1,6
 1089              	.LVL99:
 1090              	.L55:
  17:tests/ThreadSleep_C_API_test.hpp ****     while (--i > 0) {
 1091              		.loc 4 17 5 is_stmt 1
 1092              		.loc 4 17 16
 1093 0020 9B84F4FF 		addiw	s1,s1,-1
 1094              	.LVL100:
 1095 0024 63549004 		blez	s1,.L54
  18:tests/ThreadSleep_C_API_test.hpp **** 
  19:tests/ThreadSleep_C_API_test.hpp ****         printString("Hello ");
 1096              		.loc 4 19 9
 1097              		.loc 4 19 20 is_stmt 0
 1098 0028 17050000 		lla	a0,.LC0
 1098      13050500 
 1099 0030 97000000 		call	_Z11printStringPKc@plt
 1099      E7800000 
 1100              	.LVL101:
  20:tests/ThreadSleep_C_API_test.hpp ****         printInt(sleep_time);
 1101              		.loc 4 20 9 is_stmt 1
 1102              		.loc 4 20 17 is_stmt 0
 1103 0038 13060000 		li	a2,0
 1104 003c 9305A000 		li	a1,10
 1105 0040 1B050900 		sext.w	a0,s2
 1106 0044 97000000 		call	_Z8printIntiii@plt
 1106      E7800000 
 1107              	.LVL102:
  21:tests/ThreadSleep_C_API_test.hpp ****         printString(" !\n");
 1108              		.loc 4 21 9 is_stmt 1
 1109              		.loc 4 21 20 is_stmt 0
 1110 004c 17050000 		lla	a0,.LC1
 1110      13050500 
 1111 0054 97000000 		call	_Z11printStringPKc@plt
 1111      E7800000 
 1112              	.LVL103:
  22:tests/ThreadSleep_C_API_test.hpp ****         time_sleep(sleep_time);
GAS LISTING /tmp/ccqYKUbi.s 			page 26


 1113              		.loc 4 22 9 is_stmt 1
 1114              		.loc 4 22 19 is_stmt 0
 1115 005c 13050900 		mv	a0,s2
 1116 0060 97000000 		call	_Z10time_sleepm@plt
 1116      E7800000 
 1117              	.LVL104:
  17:tests/ThreadSleep_C_API_test.hpp **** 
 1118              		.loc 4 17 5
 1119 0068 6FF09FFB 		j	.L55
 1120              	.L54:
  23:tests/ThreadSleep_C_API_test.hpp ****     }
  24:tests/ThreadSleep_C_API_test.hpp ****     finished[sleep_time/10-1] = true;
 1121              		.loc 4 24 5 is_stmt 1
 1122              		.loc 4 24 24 is_stmt 0
 1123 006c 9307A000 		li	a5,10
 1124 0070 3359F902 		divu	s2,s2,a5
 1125              	.LVL105:
 1126              		.loc 4 24 27
 1127 0074 1309F9FF 		addi	s2,s2,-1
 1128              		.loc 4 24 31
 1129 0078 97070000 		lla	a5,.LANCHOR0
 1129      93870700 
 1130 0080 33892701 		add	s2,a5,s2
 1131 0084 93071000 		li	a5,1
 1132 0088 2304F900 		sb	a5,8(s2)
  25:tests/ThreadSleep_C_API_test.hpp **** }
 1133              		.loc 4 25 1
 1134 008c 83308101 		ld	ra,24(sp)
 1135              		.cfi_restore 1
 1136 0090 03340101 		ld	s0,16(sp)
 1137              		.cfi_restore 8
 1138              		.cfi_def_cfa 2, 32
 1139 0094 83348100 		ld	s1,8(sp)
 1140              		.cfi_restore 9
 1141 0098 03390100 		ld	s2,0(sp)
 1142              		.cfi_restore 18
 1143 009c 13010102 		addi	sp,sp,32
 1144              		.cfi_def_cfa_offset 0
 1145 00a0 67800000 		jr	ra
 1146              		.cfi_endproc
 1147              	.LFE52:
 1149              		.section	.text._ZN19ConsumerProducerCPP8Producer3runEv,"axG",@progbits,_ZN19ConsumerProducerCPP8Pr
 1150              		.align	2
 1151              		.weak	_ZN19ConsumerProducerCPP8Producer3runEv
 1153              	_ZN19ConsumerProducerCPP8Producer3runEv:
 1154              	.LFB61:
  50:tests/ConsumerProducer_CPP_API_test.hpp ****             int i = 0;
 1155              		.loc 3 50 14 is_stmt 1
 1156              		.cfi_startproc
 1157              	.LVL106:
 1158 0000 130101FE 		addi	sp,sp,-32
 1159              		.cfi_def_cfa_offset 32
 1160 0004 233C1100 		sd	ra,24(sp)
 1161 0008 23388100 		sd	s0,16(sp)
 1162 000c 23349100 		sd	s1,8(sp)
 1163 0010 23302101 		sd	s2,0(sp)
 1164              		.cfi_offset 1, -8
GAS LISTING /tmp/ccqYKUbi.s 			page 27


 1165              		.cfi_offset 8, -16
 1166              		.cfi_offset 9, -24
 1167              		.cfi_offset 18, -32
 1168 0014 13040102 		addi	s0,sp,32
 1169              		.cfi_def_cfa 8, 0
 1170 0018 93040500 		mv	s1,a0
  51:tests/ConsumerProducer_CPP_API_test.hpp ****             while (!threadEnd) {
 1171              		.loc 3 51 13
 1172              	.LVL107:
  51:tests/ConsumerProducer_CPP_API_test.hpp ****             while (!threadEnd) {
 1173              		.loc 3 51 17 is_stmt 0
 1174 001c 13090000 		li	s2,0
 1175              	.LVL108:
 1176              	.L59:
  52:tests/ConsumerProducer_CPP_API_test.hpp ****                 td->buffer->put(td->id + '0');
 1177              		.loc 3 52 13 is_stmt 1
  52:tests/ConsumerProducer_CPP_API_test.hpp ****                 td->buffer->put(td->id + '0');
 1178              		.loc 3 52 20
 1179 0020 97070000 		lw	a5,.LANCHOR0
 1179      83A70700 
 1180 0028 63920704 		bnez	a5,.L58
  53:tests/ConsumerProducer_CPP_API_test.hpp ****                 i++;
 1181              		.loc 3 53 17
 1182 002c 83B70401 		ld	a5,16(s1)
  53:tests/ConsumerProducer_CPP_API_test.hpp ****                 i++;
 1183              		.loc 3 53 37 is_stmt 0
 1184 0030 83A50700 		lw	a1,0(a5)
  53:tests/ConsumerProducer_CPP_API_test.hpp ****                 i++;
 1185              		.loc 3 53 32
 1186 0034 9B850503 		addiw	a1,a1,48
 1187 0038 03B58700 		ld	a0,8(a5)
 1188 003c 97000000 		call	_ZN9BufferCPP3putEi@plt
 1188      E7800000 
 1189              	.LVL109:
  54:tests/ConsumerProducer_CPP_API_test.hpp ****                 Thread::sleep((i+td->id)%5);
 1190              		.loc 3 54 17 is_stmt 1
  54:tests/ConsumerProducer_CPP_API_test.hpp ****                 Thread::sleep((i+td->id)%5);
 1191              		.loc 3 54 18 is_stmt 0
 1192 0044 1B071900 		addiw	a4,s2,1
 1193 0048 1B090700 		sext.w	s2,a4
 1194              	.LVL110:
  55:tests/ConsumerProducer_CPP_API_test.hpp ****             }
 1195              		.loc 3 55 17 is_stmt 1
  55:tests/ConsumerProducer_CPP_API_test.hpp ****             }
 1196              		.loc 3 55 34 is_stmt 0
 1197 004c 83B70401 		ld	a5,16(s1)
  55:tests/ConsumerProducer_CPP_API_test.hpp ****             }
 1198              		.loc 3 55 38
 1199 0050 83A70700 		lw	a5,0(a5)
  55:tests/ConsumerProducer_CPP_API_test.hpp ****             }
 1200              		.loc 3 55 33
 1201 0054 BB87E700 		addw	a5,a5,a4
  55:tests/ConsumerProducer_CPP_API_test.hpp ****             }
 1202              		.loc 3 55 30
 1203 0058 13055000 		li	a0,5
 1204 005c 3BE5A702 		remw	a0,a5,a0
 1205 0060 97000000 		call	_ZN6Thread5sleepEm@plt
GAS LISTING /tmp/ccqYKUbi.s 			page 28


 1205      E7800000 
 1206              	.LVL111:
  52:tests/ConsumerProducer_CPP_API_test.hpp ****                 td->buffer->put(td->id + '0');
 1207              		.loc 3 52 13
 1208 0068 6FF09FFB 		j	.L59
 1209              	.L58:
  58:tests/ConsumerProducer_CPP_API_test.hpp ****         }
 1210              		.loc 3 58 13 is_stmt 1
 1211 006c 83B70401 		ld	a5,16(s1)
  58:tests/ConsumerProducer_CPP_API_test.hpp ****         }
 1212              		.loc 3 58 28 is_stmt 0
 1213 0070 03B50701 		ld	a0,16(a5)
 1214 0074 97000000 		call	_ZN9Semaphore6signalEv@plt
 1214      E7800000 
 1215              	.LVL112:
  59:tests/ConsumerProducer_CPP_API_test.hpp ****     };
 1216              		.loc 3 59 9
 1217 007c 83308101 		ld	ra,24(sp)
 1218              		.cfi_restore 1
 1219 0080 03340101 		ld	s0,16(sp)
 1220              		.cfi_restore 8
 1221              		.cfi_def_cfa 2, 32
 1222 0084 83348100 		ld	s1,8(sp)
 1223              		.cfi_restore 9
 1224              	.LVL113:
 1225 0088 03390100 		ld	s2,0(sp)
 1226              		.cfi_restore 18
 1227              	.LVL114:
 1228 008c 13010102 		addi	sp,sp,32
 1229              		.cfi_def_cfa_offset 0
 1230 0090 67800000 		jr	ra
 1231              		.cfi_endproc
 1232              	.LFE61:
 1234              		.text
 1235              		.align	2
 1236              		.globl	_Z9fibonaccim
 1238              	_Z9fibonaccim:
 1239              	.LFB14:
  13:tests/Threads_CPP_API_test.hpp ****     if (n == 0 || n == 1) { return n; }
 1240              		.loc 1 13 28 is_stmt 1
 1241              		.cfi_startproc
 1242              	.LVL115:
 1243 00a4 130101FE 		addi	sp,sp,-32
 1244              		.cfi_def_cfa_offset 32
 1245 00a8 233C1100 		sd	ra,24(sp)
 1246 00ac 23388100 		sd	s0,16(sp)
 1247 00b0 23349100 		sd	s1,8(sp)
 1248 00b4 23302101 		sd	s2,0(sp)
 1249              		.cfi_offset 1, -8
 1250              		.cfi_offset 8, -16
 1251              		.cfi_offset 9, -24
 1252              		.cfi_offset 18, -32
 1253 00b8 13040102 		addi	s0,sp,32
 1254              		.cfi_def_cfa 8, 0
 1255 00bc 93040500 		mv	s1,a0
  14:tests/Threads_CPP_API_test.hpp ****     if (n % 10 == 0) { thread_dispatch(); }
 1256              		.loc 1 14 5
GAS LISTING /tmp/ccqYKUbi.s 			page 29


 1257 00c0 93071000 		li	a5,1
 1258 00c4 63F8A702 		bleu	a0,a5,.L61
  15:tests/Threads_CPP_API_test.hpp ****     return fibonacci(n - 1) + fibonacci(n - 2);
 1259              		.loc 1 15 5
  15:tests/Threads_CPP_API_test.hpp ****     return fibonacci(n - 1) + fibonacci(n - 2);
 1260              		.loc 1 15 11 is_stmt 0
 1261 00c8 9307A000 		li	a5,10
 1262 00cc B377F502 		remu	a5,a0,a5
  15:tests/Threads_CPP_API_test.hpp ****     return fibonacci(n - 1) + fibonacci(n - 2);
 1263              		.loc 1 15 5
 1264 00d0 638E0702 		beqz	a5,.L66
 1265              	.LVL116:
 1266              	.L63:
  16:tests/Threads_CPP_API_test.hpp **** }
 1267              		.loc 1 16 5 is_stmt 1
  16:tests/Threads_CPP_API_test.hpp **** }
 1268              		.loc 1 16 21 is_stmt 0
 1269 00d4 1385F4FF 		addi	a0,s1,-1
 1270 00d8 97000000 		call	_Z9fibonaccim
 1270      E7800000 
 1271              	.LVL117:
 1272 00e0 13090500 		mv	s2,a0
  16:tests/Threads_CPP_API_test.hpp **** }
 1273              		.loc 1 16 40
 1274 00e4 1385E4FF 		addi	a0,s1,-2
 1275 00e8 97000000 		call	_Z9fibonaccim
 1275      E7800000 
 1276              	.LVL118:
  16:tests/Threads_CPP_API_test.hpp **** }
 1277              		.loc 1 16 46
 1278 00f0 3305A900 		add	a0,s2,a0
 1279              	.L61:
  17:tests/Threads_CPP_API_test.hpp **** 
 1280              		.loc 1 17 1
 1281 00f4 83308101 		ld	ra,24(sp)
 1282              		.cfi_remember_state
 1283              		.cfi_restore 1
 1284 00f8 03340101 		ld	s0,16(sp)
 1285              		.cfi_restore 8
 1286              		.cfi_def_cfa 2, 32
 1287 00fc 83348100 		ld	s1,8(sp)
 1288              		.cfi_restore 9
 1289              	.LVL119:
 1290 0100 03390100 		ld	s2,0(sp)
 1291              		.cfi_restore 18
 1292 0104 13010102 		addi	sp,sp,32
 1293              		.cfi_def_cfa_offset 0
 1294 0108 67800000 		jr	ra
 1295              	.LVL120:
 1296              	.L66:
 1297              		.cfi_restore_state
  15:tests/Threads_CPP_API_test.hpp ****     return fibonacci(n - 1) + fibonacci(n - 2);
 1298              		.loc 1 15 24 is_stmt 1 discriminator 1
  15:tests/Threads_CPP_API_test.hpp ****     return fibonacci(n - 1) + fibonacci(n - 2);
 1299              		.loc 1 15 39 is_stmt 0 discriminator 1
 1300 010c 97000000 		call	_Z15thread_dispatchv@plt
 1300      E7800000 
GAS LISTING /tmp/ccqYKUbi.s 			page 30


 1301              	.LVL121:
 1302 0114 6FF01FFC 		j	.L63
 1303              		.cfi_endproc
 1304              	.LFE14:
 1306              		.section	.rodata.str1.8
 1307 000c 00000000 		.align	3
 1308              	.LC2:
 1309 0010 413A2069 		.string	"A: i="
 1309      3D00
 1310 0016 0000     		.align	3
 1311              	.LC3:
 1312 0018 0A00     		.string	"\n"
 1313 001a 00000000 		.align	3
 1313      0000
 1314              	.LC4:
 1315 0020 41206669 		.string	"A finished!\n"
 1315      6E697368 
 1315      6564210A 
 1315      00
 1316              		.text
 1317              		.align	2
 1318              		.globl	_ZN7WorkerA11workerBodyAEPv
 1320              	_ZN7WorkerA11workerBodyAEPv:
 1321              	.LFB31:
  50:tests/Threads_CPP_API_test.hpp ****     void workerBodyD(void* arg);
  51:tests/Threads_CPP_API_test.hpp **** public:
  52:tests/Threads_CPP_API_test.hpp ****     WorkerD():Thread() {}
  53:tests/Threads_CPP_API_test.hpp **** 
  54:tests/Threads_CPP_API_test.hpp ****     void run() override {
  55:tests/Threads_CPP_API_test.hpp ****         workerBodyD(nullptr);
  56:tests/Threads_CPP_API_test.hpp ****     }
  57:tests/Threads_CPP_API_test.hpp **** };
  58:tests/Threads_CPP_API_test.hpp **** 
  59:tests/Threads_CPP_API_test.hpp **** void WorkerA::workerBodyA(void *arg) {
 1322              		.loc 1 59 38 is_stmt 1
 1323              		.cfi_startproc
 1324              	.LVL122:
 1325 0118 130101FE 		addi	sp,sp,-32
 1326              		.cfi_def_cfa_offset 32
 1327 011c 233C1100 		sd	ra,24(sp)
 1328 0120 23388100 		sd	s0,16(sp)
 1329 0124 23349100 		sd	s1,8(sp)
 1330 0128 23302101 		sd	s2,0(sp)
 1331              		.cfi_offset 1, -8
 1332              		.cfi_offset 8, -16
 1333              		.cfi_offset 9, -24
 1334              		.cfi_offset 18, -32
 1335 012c 13040102 		addi	s0,sp,32
 1336              		.cfi_def_cfa 8, 0
  60:tests/Threads_CPP_API_test.hpp ****     for (uint64 i = 0; i < 10; i++) {
 1337              		.loc 1 60 5
 1338              	.LVL123:
 1339              	.LBB103:
 1340              		.loc 1 60 17 is_stmt 0
 1341 0130 13090000 		li	s2,0
 1342 0134 6F008003 		j	.L73
 1343              	.LVL124:
GAS LISTING /tmp/ccqYKUbi.s 			page 31


 1344              	.L70:
 1345              	.LBB104:
 1346              	.LBB105:
 1347              	.LBB106:
  61:tests/Threads_CPP_API_test.hpp ****         printString("A: i="); printInt(i); printString("\n");
  62:tests/Threads_CPP_API_test.hpp ****         for (uint64 j = 0; j < 10000; j++) {
  63:tests/Threads_CPP_API_test.hpp ****             for (uint64 k = 0; k < 30000; k++) { /* busy wait */ }
  64:tests/Threads_CPP_API_test.hpp ****             thread_dispatch();
 1348              		.loc 1 64 13 is_stmt 1 discriminator 2
 1349              		.loc 1 64 28 is_stmt 0 discriminator 2
 1350 0138 97000000 		call	_Z15thread_dispatchv@plt
 1350      E7800000 
 1351              	.LVL125:
 1352              	.LBE106:
  62:tests/Threads_CPP_API_test.hpp ****             for (uint64 k = 0; k < 30000; k++) { /* busy wait */ }
 1353              		.loc 1 62 9 is_stmt 1 discriminator 2
 1354 0140 93841400 		addi	s1,s1,1
 1355              	.LVL126:
 1356              	.L72:
  62:tests/Threads_CPP_API_test.hpp ****             for (uint64 k = 0; k < 30000; k++) { /* busy wait */ }
 1357              		.loc 1 62 30 discriminator 1
 1358 0144 B7270000 		li	a5,8192
 1359 0148 9387F770 		addi	a5,a5,1807
 1360 014c 63EE9700 		bgtu	s1,a5,.L69
 1361              	.LBB108:
 1362              	.LBB107:
  63:tests/Threads_CPP_API_test.hpp ****             thread_dispatch();
 1363              		.loc 1 63 25 is_stmt 0
 1364 0150 13070000 		li	a4,0
 1365              	.L71:
 1366              	.LVL127:
  63:tests/Threads_CPP_API_test.hpp ****             thread_dispatch();
 1367              		.loc 1 63 34 is_stmt 1 discriminator 3
 1368 0154 B7770000 		li	a5,28672
 1369 0158 9387F752 		addi	a5,a5,1327
 1370 015c E3EEE7FC 		bgtu	a4,a5,.L70
  63:tests/Threads_CPP_API_test.hpp ****             thread_dispatch();
 1371              		.loc 1 63 13 discriminator 2
 1372 0160 13071700 		addi	a4,a4,1
 1373              	.LVL128:
 1374 0164 6FF01FFF 		j	.L71
 1375              	.LVL129:
 1376              	.L69:
 1377              	.LBE107:
 1378              	.LBE108:
 1379              	.LBE105:
 1380              	.LBE104:
  60:tests/Threads_CPP_API_test.hpp ****         printString("A: i="); printInt(i); printString("\n");
 1381              		.loc 1 60 5 discriminator 2
 1382 0168 13091900 		addi	s2,s2,1
 1383              	.LVL130:
 1384              	.L73:
  60:tests/Threads_CPP_API_test.hpp ****         printString("A: i="); printInt(i); printString("\n");
 1385              		.loc 1 60 26 discriminator 1
 1386 016c 93079000 		li	a5,9
 1387 0170 63E02705 		bgtu	s2,a5,.L68
 1388              	.LBB110:
GAS LISTING /tmp/ccqYKUbi.s 			page 32


  61:tests/Threads_CPP_API_test.hpp ****         for (uint64 j = 0; j < 10000; j++) {
 1389              		.loc 1 61 9
  61:tests/Threads_CPP_API_test.hpp ****         for (uint64 j = 0; j < 10000; j++) {
 1390              		.loc 1 61 20 is_stmt 0
 1391 0174 17050000 		lla	a0,.LC2
 1391      13050500 
 1392 017c 97000000 		call	_Z11printStringPKc@plt
 1392      E7800000 
 1393              	.LVL131:
  61:tests/Threads_CPP_API_test.hpp ****         for (uint64 j = 0; j < 10000; j++) {
 1394              		.loc 1 61 31 is_stmt 1
  61:tests/Threads_CPP_API_test.hpp ****         for (uint64 j = 0; j < 10000; j++) {
 1395              		.loc 1 61 39 is_stmt 0
 1396 0184 13060000 		li	a2,0
 1397 0188 9305A000 		li	a1,10
 1398 018c 1B050900 		sext.w	a0,s2
 1399 0190 97000000 		call	_Z8printIntiii@plt
 1399      E7800000 
 1400              	.LVL132:
  61:tests/Threads_CPP_API_test.hpp ****         for (uint64 j = 0; j < 10000; j++) {
 1401              		.loc 1 61 44 is_stmt 1
  61:tests/Threads_CPP_API_test.hpp ****         for (uint64 j = 0; j < 10000; j++) {
 1402              		.loc 1 61 55 is_stmt 0
 1403 0198 17050000 		lla	a0,.LC3
 1403      13050500 
 1404 01a0 97000000 		call	_Z11printStringPKc@plt
 1404      E7800000 
 1405              	.LVL133:
  62:tests/Threads_CPP_API_test.hpp ****             for (uint64 k = 0; k < 30000; k++) { /* busy wait */ }
 1406              		.loc 1 62 9 is_stmt 1
 1407              	.LBB109:
  62:tests/Threads_CPP_API_test.hpp ****             for (uint64 k = 0; k < 30000; k++) { /* busy wait */ }
 1408              		.loc 1 62 21 is_stmt 0
 1409 01a8 93040000 		li	s1,0
 1410 01ac 6FF09FF9 		j	.L72
 1411              	.LVL134:
 1412              	.L68:
 1413              	.LBE109:
 1414              	.LBE110:
 1415              	.LBE103:
  65:tests/Threads_CPP_API_test.hpp ****         }
  66:tests/Threads_CPP_API_test.hpp ****     }
  67:tests/Threads_CPP_API_test.hpp ****     printString("A finished!\n");
 1416              		.loc 1 67 5 is_stmt 1
 1417              		.loc 1 67 16 is_stmt 0
 1418 01b0 17050000 		lla	a0,.LC4
 1418      13050500 
 1419 01b8 97000000 		call	_Z11printStringPKc@plt
 1419      E7800000 
 1420              	.LVL135:
  68:tests/Threads_CPP_API_test.hpp ****     finishedA = true;
 1421              		.loc 1 68 5 is_stmt 1
 1422              		.loc 1 68 15 is_stmt 0
 1423 01c0 93071000 		li	a5,1
 1424 01c4 17070000 		sb	a5,.LANCHOR0+10,a4
 1424      2300F700 
  69:tests/Threads_CPP_API_test.hpp **** }
GAS LISTING /tmp/ccqYKUbi.s 			page 33


 1425              		.loc 1 69 1
 1426 01cc 83308101 		ld	ra,24(sp)
 1427              		.cfi_restore 1
 1428 01d0 03340101 		ld	s0,16(sp)
 1429              		.cfi_restore 8
 1430              		.cfi_def_cfa 2, 32
 1431 01d4 83348100 		ld	s1,8(sp)
 1432              		.cfi_restore 9
 1433 01d8 03390100 		ld	s2,0(sp)
 1434              		.cfi_restore 18
 1435              	.LVL136:
 1436 01dc 13010102 		addi	sp,sp,32
 1437              		.cfi_def_cfa_offset 0
 1438 01e0 67800000 		jr	ra
 1439              		.cfi_endproc
 1440              	.LFE31:
 1442              		.section	.text._ZN7WorkerA3runEv,"axG",@progbits,_ZN7WorkerA3runEv,comdat
 1443              		.align	2
 1444              		.weak	_ZN7WorkerA3runEv
 1446              	_ZN7WorkerA3runEv:
 1447              	.LFB18:
  24:tests/Threads_CPP_API_test.hpp ****         workerBodyA(nullptr);
 1448              		.loc 1 24 10 is_stmt 1
 1449              		.cfi_startproc
 1450              	.LVL137:
 1451 0000 130101FF 		addi	sp,sp,-16
 1452              		.cfi_def_cfa_offset 16
 1453 0004 23341100 		sd	ra,8(sp)
 1454 0008 23308100 		sd	s0,0(sp)
 1455              		.cfi_offset 1, -8
 1456              		.cfi_offset 8, -16
 1457 000c 13040101 		addi	s0,sp,16
 1458              		.cfi_def_cfa 8, 0
  25:tests/Threads_CPP_API_test.hpp ****     }
 1459              		.loc 1 25 9
  25:tests/Threads_CPP_API_test.hpp ****     }
 1460              		.loc 1 25 20 is_stmt 0
 1461 0010 93050000 		li	a1,0
 1462 0014 97000000 		call	_ZN7WorkerA11workerBodyAEPv
 1462      E7800000 
 1463              	.LVL138:
  26:tests/Threads_CPP_API_test.hpp **** };
 1464              		.loc 1 26 5
 1465 001c 83308100 		ld	ra,8(sp)
 1466              		.cfi_restore 1
 1467 0020 03340100 		ld	s0,0(sp)
 1468              		.cfi_restore 8
 1469              		.cfi_def_cfa 2, 16
 1470 0024 13010101 		addi	sp,sp,16
 1471              		.cfi_def_cfa_offset 0
 1472 0028 67800000 		jr	ra
 1473              		.cfi_endproc
 1474              	.LFE18:
 1476              		.section	.rodata.str1.8
 1477 002d 000000   		.align	3
 1478              	.LC5:
 1479 0030 423A2069 		.string	"B: i="
GAS LISTING /tmp/ccqYKUbi.s 			page 34


 1479      3D00
 1480 0036 0000     		.align	3
 1481              	.LC6:
 1482 0038 42206669 		.string	"B finished!\n"
 1482      6E697368 
 1482      6564210A 
 1482      00
 1483              		.text
 1484              		.align	2
 1485              		.globl	_ZN7WorkerB11workerBodyBEPv
 1487              	_ZN7WorkerB11workerBodyBEPv:
 1488              	.LFB32:
  70:tests/Threads_CPP_API_test.hpp **** 
  71:tests/Threads_CPP_API_test.hpp **** void WorkerB::workerBodyB(void *arg) {
 1489              		.loc 1 71 38 is_stmt 1
 1490              		.cfi_startproc
 1491              	.LVL139:
 1492 01e4 130101FE 		addi	sp,sp,-32
 1493              		.cfi_def_cfa_offset 32
 1494 01e8 233C1100 		sd	ra,24(sp)
 1495 01ec 23388100 		sd	s0,16(sp)
 1496 01f0 23349100 		sd	s1,8(sp)
 1497 01f4 23302101 		sd	s2,0(sp)
 1498              		.cfi_offset 1, -8
 1499              		.cfi_offset 8, -16
 1500              		.cfi_offset 9, -24
 1501              		.cfi_offset 18, -32
 1502 01f8 13040102 		addi	s0,sp,32
 1503              		.cfi_def_cfa 8, 0
  72:tests/Threads_CPP_API_test.hpp ****     for (uint64 i = 0; i < 16; i++) {
 1504              		.loc 1 72 5
 1505              	.LVL140:
 1506              	.LBB111:
 1507              		.loc 1 72 17 is_stmt 0
 1508 01fc 13090000 		li	s2,0
 1509 0200 6F008003 		j	.L83
 1510              	.LVL141:
 1511              	.L80:
 1512              	.LBB112:
 1513              	.LBB113:
 1514              	.LBB114:
  73:tests/Threads_CPP_API_test.hpp ****         printString("B: i="); printInt(i); printString("\n");
  74:tests/Threads_CPP_API_test.hpp ****         for (uint64 j = 0; j < 10000; j++) {
  75:tests/Threads_CPP_API_test.hpp ****             for (uint64 k = 0; k < 30000; k++) { /* busy wait */ }
  76:tests/Threads_CPP_API_test.hpp ****             thread_dispatch();
 1515              		.loc 1 76 13 is_stmt 1 discriminator 2
 1516              		.loc 1 76 28 is_stmt 0 discriminator 2
 1517 0204 97000000 		call	_Z15thread_dispatchv@plt
 1517      E7800000 
 1518              	.LVL142:
 1519              	.LBE114:
  74:tests/Threads_CPP_API_test.hpp ****             for (uint64 k = 0; k < 30000; k++) { /* busy wait */ }
 1520              		.loc 1 74 9 is_stmt 1 discriminator 2
 1521 020c 93841400 		addi	s1,s1,1
 1522              	.LVL143:
 1523              	.L82:
  74:tests/Threads_CPP_API_test.hpp ****             for (uint64 k = 0; k < 30000; k++) { /* busy wait */ }
GAS LISTING /tmp/ccqYKUbi.s 			page 35


 1524              		.loc 1 74 30 discriminator 1
 1525 0210 B7270000 		li	a5,8192
 1526 0214 9387F770 		addi	a5,a5,1807
 1527 0218 63EE9700 		bgtu	s1,a5,.L79
 1528              	.LBB116:
 1529              	.LBB115:
  75:tests/Threads_CPP_API_test.hpp ****             thread_dispatch();
 1530              		.loc 1 75 25 is_stmt 0
 1531 021c 13070000 		li	a4,0
 1532              	.L81:
 1533              	.LVL144:
  75:tests/Threads_CPP_API_test.hpp ****             thread_dispatch();
 1534              		.loc 1 75 34 is_stmt 1 discriminator 3
 1535 0220 B7770000 		li	a5,28672
 1536 0224 9387F752 		addi	a5,a5,1327
 1537 0228 E3EEE7FC 		bgtu	a4,a5,.L80
  75:tests/Threads_CPP_API_test.hpp ****             thread_dispatch();
 1538              		.loc 1 75 13 discriminator 2
 1539 022c 13071700 		addi	a4,a4,1
 1540              	.LVL145:
 1541 0230 6FF01FFF 		j	.L81
 1542              	.LVL146:
 1543              	.L79:
 1544              	.LBE115:
 1545              	.LBE116:
 1546              	.LBE113:
 1547              	.LBE112:
  72:tests/Threads_CPP_API_test.hpp ****         printString("B: i="); printInt(i); printString("\n");
 1548              		.loc 1 72 5 discriminator 2
 1549 0234 13091900 		addi	s2,s2,1
 1550              	.LVL147:
 1551              	.L83:
  72:tests/Threads_CPP_API_test.hpp ****         printString("B: i="); printInt(i); printString("\n");
 1552              		.loc 1 72 26 discriminator 1
 1553 0238 9307F000 		li	a5,15
 1554 023c 63E02705 		bgtu	s2,a5,.L78
 1555              	.LBB118:
  73:tests/Threads_CPP_API_test.hpp ****         for (uint64 j = 0; j < 10000; j++) {
 1556              		.loc 1 73 9
  73:tests/Threads_CPP_API_test.hpp ****         for (uint64 j = 0; j < 10000; j++) {
 1557              		.loc 1 73 20 is_stmt 0
 1558 0240 17050000 		lla	a0,.LC5
 1558      13050500 
 1559 0248 97000000 		call	_Z11printStringPKc@plt
 1559      E7800000 
 1560              	.LVL148:
  73:tests/Threads_CPP_API_test.hpp ****         for (uint64 j = 0; j < 10000; j++) {
 1561              		.loc 1 73 31 is_stmt 1
  73:tests/Threads_CPP_API_test.hpp ****         for (uint64 j = 0; j < 10000; j++) {
 1562              		.loc 1 73 39 is_stmt 0
 1563 0250 13060000 		li	a2,0
 1564 0254 9305A000 		li	a1,10
 1565 0258 1B050900 		sext.w	a0,s2
 1566 025c 97000000 		call	_Z8printIntiii@plt
 1566      E7800000 
 1567              	.LVL149:
  73:tests/Threads_CPP_API_test.hpp ****         for (uint64 j = 0; j < 10000; j++) {
GAS LISTING /tmp/ccqYKUbi.s 			page 36


 1568              		.loc 1 73 44 is_stmt 1
  73:tests/Threads_CPP_API_test.hpp ****         for (uint64 j = 0; j < 10000; j++) {
 1569              		.loc 1 73 55 is_stmt 0
 1570 0264 17050000 		lla	a0,.LC3
 1570      13050500 
 1571 026c 97000000 		call	_Z11printStringPKc@plt
 1571      E7800000 
 1572              	.LVL150:
  74:tests/Threads_CPP_API_test.hpp ****             for (uint64 k = 0; k < 30000; k++) { /* busy wait */ }
 1573              		.loc 1 74 9 is_stmt 1
 1574              	.LBB117:
  74:tests/Threads_CPP_API_test.hpp ****             for (uint64 k = 0; k < 30000; k++) { /* busy wait */ }
 1575              		.loc 1 74 21 is_stmt 0
 1576 0274 93040000 		li	s1,0
 1577 0278 6FF09FF9 		j	.L82
 1578              	.LVL151:
 1579              	.L78:
 1580              	.LBE117:
 1581              	.LBE118:
 1582              	.LBE111:
  77:tests/Threads_CPP_API_test.hpp ****         }
  78:tests/Threads_CPP_API_test.hpp ****     }
  79:tests/Threads_CPP_API_test.hpp ****     printString("B finished!\n");
 1583              		.loc 1 79 5 is_stmt 1
 1584              		.loc 1 79 16 is_stmt 0
 1585 027c 17050000 		lla	a0,.LC6
 1585      13050500 
 1586 0284 97000000 		call	_Z11printStringPKc@plt
 1586      E7800000 
 1587              	.LVL152:
  80:tests/Threads_CPP_API_test.hpp ****     finishedB = true;
 1588              		.loc 1 80 5 is_stmt 1
 1589              		.loc 1 80 15 is_stmt 0
 1590 028c 93071000 		li	a5,1
 1591 0290 17070000 		sb	a5,.LANCHOR0+11,a4
 1591      2300F700 
  81:tests/Threads_CPP_API_test.hpp ****     thread_dispatch();
 1592              		.loc 1 81 5 is_stmt 1
 1593              		.loc 1 81 20 is_stmt 0
 1594 0298 97000000 		call	_Z15thread_dispatchv@plt
 1594      E7800000 
 1595              	.LVL153:
  82:tests/Threads_CPP_API_test.hpp **** }
 1596              		.loc 1 82 1
 1597 02a0 83308101 		ld	ra,24(sp)
 1598              		.cfi_restore 1
 1599 02a4 03340101 		ld	s0,16(sp)
 1600              		.cfi_restore 8
 1601              		.cfi_def_cfa 2, 32
 1602 02a8 83348100 		ld	s1,8(sp)
 1603              		.cfi_restore 9
 1604 02ac 03390100 		ld	s2,0(sp)
 1605              		.cfi_restore 18
 1606              	.LVL154:
 1607 02b0 13010102 		addi	sp,sp,32
 1608              		.cfi_def_cfa_offset 0
 1609 02b4 67800000 		jr	ra
GAS LISTING /tmp/ccqYKUbi.s 			page 37


 1610              		.cfi_endproc
 1611              	.LFE32:
 1613              		.section	.text._ZN7WorkerB3runEv,"axG",@progbits,_ZN7WorkerB3runEv,comdat
 1614              		.align	2
 1615              		.weak	_ZN7WorkerB3runEv
 1617              	_ZN7WorkerB3runEv:
 1618              	.LFB22:
  34:tests/Threads_CPP_API_test.hpp ****         workerBodyB(nullptr);
 1619              		.loc 1 34 10 is_stmt 1
 1620              		.cfi_startproc
 1621              	.LVL155:
 1622 0000 130101FF 		addi	sp,sp,-16
 1623              		.cfi_def_cfa_offset 16
 1624 0004 23341100 		sd	ra,8(sp)
 1625 0008 23308100 		sd	s0,0(sp)
 1626              		.cfi_offset 1, -8
 1627              		.cfi_offset 8, -16
 1628 000c 13040101 		addi	s0,sp,16
 1629              		.cfi_def_cfa 8, 0
  35:tests/Threads_CPP_API_test.hpp ****     }
 1630              		.loc 1 35 9
  35:tests/Threads_CPP_API_test.hpp ****     }
 1631              		.loc 1 35 20 is_stmt 0
 1632 0010 93050000 		li	a1,0
 1633 0014 97000000 		call	_ZN7WorkerB11workerBodyBEPv
 1633      E7800000 
 1634              	.LVL156:
  36:tests/Threads_CPP_API_test.hpp **** };
 1635              		.loc 1 36 5
 1636 001c 83308100 		ld	ra,8(sp)
 1637              		.cfi_restore 1
 1638 0020 03340100 		ld	s0,0(sp)
 1639              		.cfi_restore 8
 1640              		.cfi_def_cfa 2, 16
 1641 0024 13010101 		addi	sp,sp,16
 1642              		.cfi_def_cfa_offset 0
 1643 0028 67800000 		jr	ra
 1644              		.cfi_endproc
 1645              	.LFE22:
 1647              		.section	.rodata.str1.8
 1648 0045 000000   		.align	3
 1649              	.LC7:
 1650 0048 433A2069 		.string	"C: i="
 1650      3D00
 1651 004e 0000     		.align	3
 1652              	.LC8:
 1653 0050 433A2064 		.string	"C: dispatch\n"
 1653      69737061 
 1653      7463680A 
 1653      00
 1654 005d 000000   		.align	3
 1655              	.LC9:
 1656 0060 433A2074 		.string	"C: t1="
 1656      313D00
 1657 0067 00       		.align	3
 1658              	.LC10:
 1659 0068 433A2066 		.string	"C: fibonaci="
GAS LISTING /tmp/ccqYKUbi.s 			page 38


 1659      69626F6E 
 1659      6163693D 
 1659      00
 1660 0075 000000   		.align	3
 1661              	.LC11:
 1662 0078 43206669 		.string	"C finished!\n"
 1662      6E697368 
 1662      6564210A 
 1662      00
 1663              		.text
 1664              		.align	2
 1665              		.globl	_ZN7WorkerC11workerBodyCEPv
 1667              	_ZN7WorkerC11workerBodyCEPv:
 1668              	.LFB33:
  83:tests/Threads_CPP_API_test.hpp **** 
  84:tests/Threads_CPP_API_test.hpp **** void WorkerC::workerBodyC(void *arg) {
 1669              		.loc 1 84 38 is_stmt 1
 1670              		.cfi_startproc
 1671              	.LVL157:
 1672 02b8 130101FE 		addi	sp,sp,-32
 1673              		.cfi_def_cfa_offset 32
 1674 02bc 233C1100 		sd	ra,24(sp)
 1675 02c0 23388100 		sd	s0,16(sp)
 1676 02c4 23349100 		sd	s1,8(sp)
 1677 02c8 23302101 		sd	s2,0(sp)
 1678              		.cfi_offset 1, -8
 1679              		.cfi_offset 8, -16
 1680              		.cfi_offset 9, -24
 1681              		.cfi_offset 18, -32
 1682 02cc 13040102 		addi	s0,sp,32
 1683              		.cfi_def_cfa 8, 0
  85:tests/Threads_CPP_API_test.hpp ****     uint8 i = 0;
 1684              		.loc 1 85 5
 1685              	.LVL158:
 1686              		.loc 1 85 11 is_stmt 0
 1687 02d0 93040000 		li	s1,0
 1688 02d4 6F000004 		j	.L89
 1689              	.LVL159:
 1690              	.L93:
  86:tests/Threads_CPP_API_test.hpp ****     for (; i < 3; i++) {
  87:tests/Threads_CPP_API_test.hpp ****         printString("C: i="); printInt(i); printString("\n");
 1691              		.loc 1 87 9 is_stmt 1 discriminator 1
 1692              		.loc 1 87 20 is_stmt 0 discriminator 1
 1693 02d8 17050000 		lla	a0,.LC7
 1693      13050500 
 1694 02e0 97000000 		call	_Z11printStringPKc@plt
 1694      E7800000 
 1695              	.LVL160:
 1696              		.loc 1 87 31 is_stmt 1 discriminator 1
 1697              		.loc 1 87 39 is_stmt 0 discriminator 1
 1698 02e8 13060000 		li	a2,0
 1699 02ec 9305A000 		li	a1,10
 1700 02f0 13850400 		mv	a0,s1
 1701 02f4 97000000 		call	_Z8printIntiii@plt
 1701      E7800000 
 1702              	.LVL161:
 1703              		.loc 1 87 44 is_stmt 1 discriminator 1
GAS LISTING /tmp/ccqYKUbi.s 			page 39


 1704              		.loc 1 87 55 is_stmt 0 discriminator 1
 1705 02fc 17050000 		lla	a0,.LC3
 1705      13050500 
 1706 0304 97000000 		call	_Z11printStringPKc@plt
 1706      E7800000 
 1707              	.LVL162:
  86:tests/Threads_CPP_API_test.hpp ****     for (; i < 3; i++) {
 1708              		.loc 1 86 5 is_stmt 1 discriminator 1
 1709 030c 9B841400 		addiw	s1,s1,1
 1710              	.LVL163:
 1711 0310 93F4F40F 		andi	s1,s1,0xff
 1712              	.LVL164:
 1713              	.L89:
  86:tests/Threads_CPP_API_test.hpp ****     for (; i < 3; i++) {
 1714              		.loc 1 86 5 discriminator 2
  86:tests/Threads_CPP_API_test.hpp ****     for (; i < 3; i++) {
 1715              		.loc 1 86 14 discriminator 2
 1716 0314 93072000 		li	a5,2
 1717 0318 E3F097FC 		bleu	s1,a5,.L93
  88:tests/Threads_CPP_API_test.hpp ****     }
  89:tests/Threads_CPP_API_test.hpp **** 
  90:tests/Threads_CPP_API_test.hpp ****     printString("C: dispatch\n");
 1718              		.loc 1 90 5
 1719              		.loc 1 90 16 is_stmt 0
 1720 031c 17050000 		lla	a0,.LC8
 1720      13050500 
 1721 0324 97000000 		call	_Z11printStringPKc@plt
 1721      E7800000 
 1722              	.LVL165:
  91:tests/Threads_CPP_API_test.hpp ****     __asm__ ("li t1, 7");
 1723              		.loc 1 91 5 is_stmt 1
 1724              		.loc 1 91 25 is_stmt 0
 1725              	#APP
 1726              	# 91 "tests/Threads_CPP_API_test.hpp" 1
  92              	    thread_dispatch();
 1727              		li t1, 7
 1728              	# 0 "" 2
 1729              		.loc 1 92 5 is_stmt 1
 1730              		.loc 1 92 20 is_stmt 0
 1731              	#NO_APP
 1732 0330 97000000 		call	_Z15thread_dispatchv@plt
 1732      E7800000 
 1733              	.LVL166:
  93:tests/Threads_CPP_API_test.hpp **** 
  94:tests/Threads_CPP_API_test.hpp ****     uint64 t1 = 0;
 1734              		.loc 1 94 5 is_stmt 1
  95:tests/Threads_CPP_API_test.hpp ****     __asm__ ("mv %[t1], t1" : [t1] "=r"(t1));
 1735              		.loc 1 95 5
 1736              		.loc 1 95 45 is_stmt 0
 1737              	#APP
 1738              	# 95 "tests/Threads_CPP_API_test.hpp" 1
  96              	
 1739              		mv s2, t1
 1740              	# 0 "" 2
 1741              	.LVL167:
  97:tests/Threads_CPP_API_test.hpp ****     printString("C: t1="); printInt(t1); printString("\n");
 1742              		.loc 1 97 5 is_stmt 1
GAS LISTING /tmp/ccqYKUbi.s 			page 40


 1743              		.loc 1 97 16 is_stmt 0
 1744              	#NO_APP
 1745 033c 17050000 		lla	a0,.LC9
 1745      13050500 
 1746 0344 97000000 		call	_Z11printStringPKc@plt
 1746      E7800000 
 1747              	.LVL168:
 1748              		.loc 1 97 28 is_stmt 1
 1749              		.loc 1 97 36 is_stmt 0
 1750 034c 13060000 		li	a2,0
 1751 0350 9305A000 		li	a1,10
 1752 0354 1B050900 		sext.w	a0,s2
 1753 0358 97000000 		call	_Z8printIntiii@plt
 1753      E7800000 
 1754              	.LVL169:
 1755              		.loc 1 97 42 is_stmt 1
 1756              		.loc 1 97 53 is_stmt 0
 1757 0360 17050000 		lla	a0,.LC3
 1757      13050500 
 1758 0368 97000000 		call	_Z11printStringPKc@plt
 1758      E7800000 
 1759              	.LVL170:
  98:tests/Threads_CPP_API_test.hpp **** 
  99:tests/Threads_CPP_API_test.hpp ****     uint64 result = fibonacci(12);
 1760              		.loc 1 99 5 is_stmt 1
 1761              		.loc 1 99 30 is_stmt 0
 1762 0370 1305C000 		li	a0,12
 1763 0374 97000000 		call	_Z9fibonaccim
 1763      E7800000 
 1764              	.LVL171:
 1765 037c 13090500 		mv	s2,a0
 1766              	.LVL172:
 100:tests/Threads_CPP_API_test.hpp ****     printString("C: fibonaci="); printInt(result); printString("\n");
 1767              		.loc 1 100 5 is_stmt 1
 1768              		.loc 1 100 16 is_stmt 0
 1769 0380 17050000 		lla	a0,.LC10
 1769      13050500 
 1770              	.LVL173:
 1771 0388 97000000 		call	_Z11printStringPKc@plt
 1771      E7800000 
 1772              	.LVL174:
 1773              		.loc 1 100 34 is_stmt 1
 1774              		.loc 1 100 42 is_stmt 0
 1775 0390 13060000 		li	a2,0
 1776 0394 9305A000 		li	a1,10
 1777 0398 1B050900 		sext.w	a0,s2
 1778 039c 97000000 		call	_Z8printIntiii@plt
 1778      E7800000 
 1779              	.LVL175:
 1780              		.loc 1 100 52 is_stmt 1
 1781              		.loc 1 100 63 is_stmt 0
 1782 03a4 17050000 		lla	a0,.LC3
 1782      13050500 
 1783 03ac 97000000 		call	_Z11printStringPKc@plt
 1783      E7800000 
 1784              	.LVL176:
 1785 03b4 6F000004 		j	.L91
GAS LISTING /tmp/ccqYKUbi.s 			page 41


 1786              	.L94:
 101:tests/Threads_CPP_API_test.hpp **** 
 102:tests/Threads_CPP_API_test.hpp ****     for (; i < 6; i++) {
 103:tests/Threads_CPP_API_test.hpp ****         printString("C: i="); printInt(i); printString("\n");
 1787              		.loc 1 103 9 is_stmt 1 discriminator 1
 1788              		.loc 1 103 20 is_stmt 0 discriminator 1
 1789 03b8 17050000 		lla	a0,.LC7
 1789      13050500 
 1790 03c0 97000000 		call	_Z11printStringPKc@plt
 1790      E7800000 
 1791              	.LVL177:
 1792              		.loc 1 103 31 is_stmt 1 discriminator 1
 1793              		.loc 1 103 39 is_stmt 0 discriminator 1
 1794 03c8 13060000 		li	a2,0
 1795 03cc 9305A000 		li	a1,10
 1796 03d0 13850400 		mv	a0,s1
 1797 03d4 97000000 		call	_Z8printIntiii@plt
 1797      E7800000 
 1798              	.LVL178:
 1799              		.loc 1 103 44 is_stmt 1 discriminator 1
 1800              		.loc 1 103 55 is_stmt 0 discriminator 1
 1801 03dc 17050000 		lla	a0,.LC3
 1801      13050500 
 1802 03e4 97000000 		call	_Z11printStringPKc@plt
 1802      E7800000 
 1803              	.LVL179:
 102:tests/Threads_CPP_API_test.hpp ****         printString("C: i="); printInt(i); printString("\n");
 1804              		.loc 1 102 5 is_stmt 1 discriminator 1
 1805 03ec 9B841400 		addiw	s1,s1,1
 1806              	.LVL180:
 1807 03f0 93F4F40F 		andi	s1,s1,0xff
 1808              	.LVL181:
 1809              	.L91:
 102:tests/Threads_CPP_API_test.hpp ****         printString("C: i="); printInt(i); printString("\n");
 1810              		.loc 1 102 5 discriminator 2
 102:tests/Threads_CPP_API_test.hpp ****         printString("C: i="); printInt(i); printString("\n");
 1811              		.loc 1 102 14 discriminator 2
 1812 03f4 93075000 		li	a5,5
 1813 03f8 E3F097FC 		bleu	s1,a5,.L94
 104:tests/Threads_CPP_API_test.hpp ****     }
 105:tests/Threads_CPP_API_test.hpp **** 
 106:tests/Threads_CPP_API_test.hpp ****     printString("C finished!\n");
 1814              		.loc 1 106 5
 1815              		.loc 1 106 16 is_stmt 0
 1816 03fc 17050000 		lla	a0,.LC11
 1816      13050500 
 1817 0404 97000000 		call	_Z11printStringPKc@plt
 1817      E7800000 
 1818              	.LVL182:
 107:tests/Threads_CPP_API_test.hpp ****     finishedC = true;
 1819              		.loc 1 107 5 is_stmt 1
 1820              		.loc 1 107 15 is_stmt 0
 1821 040c 93071000 		li	a5,1
 1822 0410 17070000 		sb	a5,.LANCHOR0+12,a4
 1822      2300F700 
 108:tests/Threads_CPP_API_test.hpp ****     thread_dispatch();
 1823              		.loc 1 108 5 is_stmt 1
GAS LISTING /tmp/ccqYKUbi.s 			page 42


 1824              		.loc 1 108 20 is_stmt 0
 1825 0418 97000000 		call	_Z15thread_dispatchv@plt
 1825      E7800000 
 1826              	.LVL183:
 109:tests/Threads_CPP_API_test.hpp **** }
 1827              		.loc 1 109 1
 1828 0420 83308101 		ld	ra,24(sp)
 1829              		.cfi_restore 1
 1830 0424 03340101 		ld	s0,16(sp)
 1831              		.cfi_restore 8
 1832              		.cfi_def_cfa 2, 32
 1833 0428 83348100 		ld	s1,8(sp)
 1834              		.cfi_restore 9
 1835              	.LVL184:
 1836 042c 03390100 		ld	s2,0(sp)
 1837              		.cfi_restore 18
 1838              	.LVL185:
 1839 0430 13010102 		addi	sp,sp,32
 1840              		.cfi_def_cfa_offset 0
 1841 0434 67800000 		jr	ra
 1842              		.cfi_endproc
 1843              	.LFE33:
 1845              		.section	.text._ZN7WorkerC3runEv,"axG",@progbits,_ZN7WorkerC3runEv,comdat
 1846              		.align	2
 1847              		.weak	_ZN7WorkerC3runEv
 1849              	_ZN7WorkerC3runEv:
 1850              	.LFB26:
  44:tests/Threads_CPP_API_test.hpp ****         workerBodyC(nullptr);
 1851              		.loc 1 44 10 is_stmt 1
 1852              		.cfi_startproc
 1853              	.LVL186:
 1854 0000 130101FF 		addi	sp,sp,-16
 1855              		.cfi_def_cfa_offset 16
 1856 0004 23341100 		sd	ra,8(sp)
 1857 0008 23308100 		sd	s0,0(sp)
 1858              		.cfi_offset 1, -8
 1859              		.cfi_offset 8, -16
 1860 000c 13040101 		addi	s0,sp,16
 1861              		.cfi_def_cfa 8, 0
  45:tests/Threads_CPP_API_test.hpp ****     }
 1862              		.loc 1 45 9
  45:tests/Threads_CPP_API_test.hpp ****     }
 1863              		.loc 1 45 20 is_stmt 0
 1864 0010 93050000 		li	a1,0
 1865 0014 97000000 		call	_ZN7WorkerC11workerBodyCEPv
 1865      E7800000 
 1866              	.LVL187:
  46:tests/Threads_CPP_API_test.hpp **** };
 1867              		.loc 1 46 5
 1868 001c 83308100 		ld	ra,8(sp)
 1869              		.cfi_restore 1
 1870 0020 03340100 		ld	s0,0(sp)
 1871              		.cfi_restore 8
 1872              		.cfi_def_cfa 2, 16
 1873 0024 13010101 		addi	sp,sp,16
 1874              		.cfi_def_cfa_offset 0
 1875 0028 67800000 		jr	ra
GAS LISTING /tmp/ccqYKUbi.s 			page 43


 1876              		.cfi_endproc
 1877              	.LFE26:
 1879              		.section	.rodata.str1.8
 1880 0085 000000   		.align	3
 1881              	.LC12:
 1882 0088 443A2069 		.string	"D: i="
 1882      3D00
 1883 008e 0000     		.align	3
 1884              	.LC13:
 1885 0090 443A2064 		.string	"D: dispatch\n"
 1885      69737061 
 1885      7463680A 
 1885      00
 1886 009d 000000   		.align	3
 1887              	.LC14:
 1888 00a0 443A2066 		.string	"D: fibonaci="
 1888      69626F6E 
 1888      6163693D 
 1888      00
 1889 00ad 000000   		.align	3
 1890              	.LC15:
 1891 00b0 44206669 		.string	"D finished!\n"
 1891      6E697368 
 1891      6564210A 
 1891      00
 1892              		.text
 1893              		.align	2
 1894              		.globl	_ZN7WorkerD11workerBodyDEPv
 1896              	_ZN7WorkerD11workerBodyDEPv:
 1897              	.LFB34:
 110:tests/Threads_CPP_API_test.hpp **** 
 111:tests/Threads_CPP_API_test.hpp **** void WorkerD::workerBodyD(void* arg) {
 1898              		.loc 1 111 38 is_stmt 1
 1899              		.cfi_startproc
 1900              	.LVL188:
 1901 0438 130101FE 		addi	sp,sp,-32
 1902              		.cfi_def_cfa_offset 32
 1903 043c 233C1100 		sd	ra,24(sp)
 1904 0440 23388100 		sd	s0,16(sp)
 1905 0444 23349100 		sd	s1,8(sp)
 1906 0448 23302101 		sd	s2,0(sp)
 1907              		.cfi_offset 1, -8
 1908              		.cfi_offset 8, -16
 1909              		.cfi_offset 9, -24
 1910              		.cfi_offset 18, -32
 1911 044c 13040102 		addi	s0,sp,32
 1912              		.cfi_def_cfa 8, 0
 112:tests/Threads_CPP_API_test.hpp ****     uint8 i = 10;
 1913              		.loc 1 112 5
 1914              	.LVL189:
 1915              		.loc 1 112 11 is_stmt 0
 1916 0450 9304A000 		li	s1,10
 1917 0454 6F000004 		j	.L99
 1918              	.LVL190:
 1919              	.L103:
 113:tests/Threads_CPP_API_test.hpp ****     for (; i < 13; i++) {
 114:tests/Threads_CPP_API_test.hpp ****         printString("D: i="); printInt(i); printString("\n");
GAS LISTING /tmp/ccqYKUbi.s 			page 44


 1920              		.loc 1 114 9 is_stmt 1 discriminator 1
 1921              		.loc 1 114 20 is_stmt 0 discriminator 1
 1922 0458 17050000 		lla	a0,.LC12
 1922      13050500 
 1923 0460 97000000 		call	_Z11printStringPKc@plt
 1923      E7800000 
 1924              	.LVL191:
 1925              		.loc 1 114 31 is_stmt 1 discriminator 1
 1926              		.loc 1 114 39 is_stmt 0 discriminator 1
 1927 0468 13060000 		li	a2,0
 1928 046c 9305A000 		li	a1,10
 1929 0470 13850400 		mv	a0,s1
 1930 0474 97000000 		call	_Z8printIntiii@plt
 1930      E7800000 
 1931              	.LVL192:
 1932              		.loc 1 114 44 is_stmt 1 discriminator 1
 1933              		.loc 1 114 55 is_stmt 0 discriminator 1
 1934 047c 17050000 		lla	a0,.LC3
 1934      13050500 
 1935 0484 97000000 		call	_Z11printStringPKc@plt
 1935      E7800000 
 1936              	.LVL193:
 113:tests/Threads_CPP_API_test.hpp ****     for (; i < 13; i++) {
 1937              		.loc 1 113 5 is_stmt 1 discriminator 1
 1938 048c 9B841400 		addiw	s1,s1,1
 1939              	.LVL194:
 1940 0490 93F4F40F 		andi	s1,s1,0xff
 1941              	.LVL195:
 1942              	.L99:
 113:tests/Threads_CPP_API_test.hpp ****     for (; i < 13; i++) {
 1943              		.loc 1 113 5 discriminator 2
 113:tests/Threads_CPP_API_test.hpp ****     for (; i < 13; i++) {
 1944              		.loc 1 113 14 discriminator 2
 1945 0494 9307C000 		li	a5,12
 1946 0498 E3F097FC 		bleu	s1,a5,.L103
 115:tests/Threads_CPP_API_test.hpp ****     }
 116:tests/Threads_CPP_API_test.hpp **** 
 117:tests/Threads_CPP_API_test.hpp ****     printString("D: dispatch\n");
 1947              		.loc 1 117 5
 1948              		.loc 1 117 16 is_stmt 0
 1949 049c 17050000 		lla	a0,.LC13
 1949      13050500 
 1950 04a4 97000000 		call	_Z11printStringPKc@plt
 1950      E7800000 
 1951              	.LVL196:
 118:tests/Threads_CPP_API_test.hpp ****     __asm__ ("li t1, 5");
 1952              		.loc 1 118 5 is_stmt 1
 1953              		.loc 1 118 25 is_stmt 0
 1954              	#APP
 1955              	# 118 "tests/Threads_CPP_API_test.hpp" 1
 119              	    thread_dispatch();
 1956              		li t1, 5
 1957              	# 0 "" 2
 1958              		.loc 1 119 5 is_stmt 1
 1959              		.loc 1 119 20 is_stmt 0
 1960              	#NO_APP
 1961 04b0 97000000 		call	_Z15thread_dispatchv@plt
GAS LISTING /tmp/ccqYKUbi.s 			page 45


 1961      E7800000 
 1962              	.LVL197:
 120:tests/Threads_CPP_API_test.hpp **** 
 121:tests/Threads_CPP_API_test.hpp ****     uint64 result = fibonacci(16);
 1963              		.loc 1 121 5 is_stmt 1
 1964              		.loc 1 121 30 is_stmt 0
 1965 04b8 13050001 		li	a0,16
 1966 04bc 97000000 		call	_Z9fibonaccim
 1966      E7800000 
 1967              	.LVL198:
 1968 04c4 13090500 		mv	s2,a0
 1969              	.LVL199:
 122:tests/Threads_CPP_API_test.hpp ****     printString("D: fibonaci="); printInt(result); printString("\n");
 1970              		.loc 1 122 5 is_stmt 1
 1971              		.loc 1 122 16 is_stmt 0
 1972 04c8 17050000 		lla	a0,.LC14
 1972      13050500 
 1973              	.LVL200:
 1974 04d0 97000000 		call	_Z11printStringPKc@plt
 1974      E7800000 
 1975              	.LVL201:
 1976              		.loc 1 122 34 is_stmt 1
 1977              		.loc 1 122 42 is_stmt 0
 1978 04d8 13060000 		li	a2,0
 1979 04dc 9305A000 		li	a1,10
 1980 04e0 1B050900 		sext.w	a0,s2
 1981 04e4 97000000 		call	_Z8printIntiii@plt
 1981      E7800000 
 1982              	.LVL202:
 1983              		.loc 1 122 52 is_stmt 1
 1984              		.loc 1 122 63 is_stmt 0
 1985 04ec 17050000 		lla	a0,.LC3
 1985      13050500 
 1986 04f4 97000000 		call	_Z11printStringPKc@plt
 1986      E7800000 
 1987              	.LVL203:
 1988 04fc 6F000004 		j	.L101
 1989              	.L104:
 123:tests/Threads_CPP_API_test.hpp **** 
 124:tests/Threads_CPP_API_test.hpp ****     for (; i < 16; i++) {
 125:tests/Threads_CPP_API_test.hpp ****         printString("D: i="); printInt(i); printString("\n");
 1990              		.loc 1 125 9 is_stmt 1 discriminator 1
 1991              		.loc 1 125 20 is_stmt 0 discriminator 1
 1992 0500 17050000 		lla	a0,.LC12
 1992      13050500 
 1993 0508 97000000 		call	_Z11printStringPKc@plt
 1993      E7800000 
 1994              	.LVL204:
 1995              		.loc 1 125 31 is_stmt 1 discriminator 1
 1996              		.loc 1 125 39 is_stmt 0 discriminator 1
 1997 0510 13060000 		li	a2,0
 1998 0514 9305A000 		li	a1,10
 1999 0518 13850400 		mv	a0,s1
 2000 051c 97000000 		call	_Z8printIntiii@plt
 2000      E7800000 
 2001              	.LVL205:
 2002              		.loc 1 125 44 is_stmt 1 discriminator 1
GAS LISTING /tmp/ccqYKUbi.s 			page 46


 2003              		.loc 1 125 55 is_stmt 0 discriminator 1
 2004 0524 17050000 		lla	a0,.LC3
 2004      13050500 
 2005 052c 97000000 		call	_Z11printStringPKc@plt
 2005      E7800000 
 2006              	.LVL206:
 124:tests/Threads_CPP_API_test.hpp ****         printString("D: i="); printInt(i); printString("\n");
 2007              		.loc 1 124 5 is_stmt 1 discriminator 1
 2008 0534 9B841400 		addiw	s1,s1,1
 2009              	.LVL207:
 2010 0538 93F4F40F 		andi	s1,s1,0xff
 2011              	.LVL208:
 2012              	.L101:
 124:tests/Threads_CPP_API_test.hpp ****         printString("D: i="); printInt(i); printString("\n");
 2013              		.loc 1 124 5 discriminator 2
 124:tests/Threads_CPP_API_test.hpp ****         printString("D: i="); printInt(i); printString("\n");
 2014              		.loc 1 124 14 discriminator 2
 2015 053c 9307F000 		li	a5,15
 2016 0540 E3F097FC 		bleu	s1,a5,.L104
 126:tests/Threads_CPP_API_test.hpp ****     }
 127:tests/Threads_CPP_API_test.hpp **** 
 128:tests/Threads_CPP_API_test.hpp ****     printString("D finished!\n");
 2017              		.loc 1 128 5
 2018              		.loc 1 128 16 is_stmt 0
 2019 0544 17050000 		lla	a0,.LC15
 2019      13050500 
 2020 054c 97000000 		call	_Z11printStringPKc@plt
 2020      E7800000 
 2021              	.LVL209:
 129:tests/Threads_CPP_API_test.hpp ****     finishedD = true;
 2022              		.loc 1 129 5 is_stmt 1
 2023              		.loc 1 129 15 is_stmt 0
 2024 0554 93071000 		li	a5,1
 2025 0558 17070000 		sb	a5,.LANCHOR0+13,a4
 2025      2300F700 
 130:tests/Threads_CPP_API_test.hpp ****     thread_dispatch();
 2026              		.loc 1 130 5 is_stmt 1
 2027              		.loc 1 130 20 is_stmt 0
 2028 0560 97000000 		call	_Z15thread_dispatchv@plt
 2028      E7800000 
 2029              	.LVL210:
 131:tests/Threads_CPP_API_test.hpp **** }
 2030              		.loc 1 131 1
 2031 0568 83308101 		ld	ra,24(sp)
 2032              		.cfi_restore 1
 2033 056c 03340101 		ld	s0,16(sp)
 2034              		.cfi_restore 8
 2035              		.cfi_def_cfa 2, 32
 2036 0570 83348100 		ld	s1,8(sp)
 2037              		.cfi_restore 9
 2038              	.LVL211:
 2039 0574 03390100 		ld	s2,0(sp)
 2040              		.cfi_restore 18
 2041              	.LVL212:
 2042 0578 13010102 		addi	sp,sp,32
 2043              		.cfi_def_cfa_offset 0
 2044 057c 67800000 		jr	ra
GAS LISTING /tmp/ccqYKUbi.s 			page 47


 2045              		.cfi_endproc
 2046              	.LFE34:
 2048              		.section	.text._ZN7WorkerD3runEv,"axG",@progbits,_ZN7WorkerD3runEv,comdat
 2049              		.align	2
 2050              		.weak	_ZN7WorkerD3runEv
 2052              	_ZN7WorkerD3runEv:
 2053              	.LFB30:
  54:tests/Threads_CPP_API_test.hpp ****         workerBodyD(nullptr);
 2054              		.loc 1 54 10 is_stmt 1
 2055              		.cfi_startproc
 2056              	.LVL213:
 2057 0000 130101FF 		addi	sp,sp,-16
 2058              		.cfi_def_cfa_offset 16
 2059 0004 23341100 		sd	ra,8(sp)
 2060 0008 23308100 		sd	s0,0(sp)
 2061              		.cfi_offset 1, -8
 2062              		.cfi_offset 8, -16
 2063 000c 13040101 		addi	s0,sp,16
 2064              		.cfi_def_cfa 8, 0
  55:tests/Threads_CPP_API_test.hpp ****     }
 2065              		.loc 1 55 9
  55:tests/Threads_CPP_API_test.hpp ****     }
 2066              		.loc 1 55 20 is_stmt 0
 2067 0010 93050000 		li	a1,0
 2068 0014 97000000 		call	_ZN7WorkerD11workerBodyDEPv
 2068      E7800000 
 2069              	.LVL214:
  56:tests/Threads_CPP_API_test.hpp **** };
 2070              		.loc 1 56 5
 2071 001c 83308100 		ld	ra,8(sp)
 2072              		.cfi_restore 1
 2073 0020 03340100 		ld	s0,0(sp)
 2074              		.cfi_restore 8
 2075              		.cfi_def_cfa 2, 16
 2076 0024 13010101 		addi	sp,sp,16
 2077              		.cfi_def_cfa_offset 0
 2078 0028 67800000 		jr	ra
 2079              		.cfi_endproc
 2080              	.LFE30:
 2082              		.section	.rodata.str1.8
 2083 00bd 000000   		.align	3
 2084              	.LC16:
 2085 00c0 54687265 		.string	"ThreadA created\n"
 2085      61644120 
 2085      63726561 
 2085      7465640A 
 2085      00
 2086 00d1 00000000 		.align	3
 2086      000000
 2087              	.LC17:
 2088 00d8 54687265 		.string	"ThreadB created\n"
 2088      61644220 
 2088      63726561 
 2088      7465640A 
 2088      00
 2089 00e9 00000000 		.align	3
 2089      000000
GAS LISTING /tmp/ccqYKUbi.s 			page 48


 2090              	.LC18:
 2091 00f0 54687265 		.string	"ThreadC created\n"
 2091      61644320 
 2091      63726561 
 2091      7465640A 
 2091      00
 2092 0101 00000000 		.align	3
 2092      000000
 2093              	.LC19:
 2094 0108 54687265 		.string	"ThreadD created\n"
 2094      61644420 
 2094      63726561 
 2094      7465640A 
 2094      00
 2095              		.text
 2096              		.align	2
 2097              		.globl	_Z20Threads_CPP_API_testv
 2099              	_Z20Threads_CPP_API_testv:
 2100              	.LFB35:
 132:tests/Threads_CPP_API_test.hpp **** 
 133:tests/Threads_CPP_API_test.hpp **** 
 134:tests/Threads_CPP_API_test.hpp **** void Threads_CPP_API_test() {
 2101              		.loc 1 134 29 is_stmt 1
 2102              		.cfi_startproc
 2103              		.cfi_personality 0x9b,DW.ref.__gxx_personality_v0
 2104              		.cfi_lsda 0x1b,.LLSDA35
 2105 0580 130101FC 		addi	sp,sp,-64
 2106              		.cfi_def_cfa_offset 64
 2107 0584 233C1102 		sd	ra,56(sp)
 2108 0588 23388102 		sd	s0,48(sp)
 2109 058c 23349102 		sd	s1,40(sp)
 2110 0590 23302103 		sd	s2,32(sp)
 2111              		.cfi_offset 1, -8
 2112              		.cfi_offset 8, -16
 2113              		.cfi_offset 9, -24
 2114              		.cfi_offset 18, -32
 2115 0594 13040104 		addi	s0,sp,64
 2116              		.cfi_def_cfa 8, 0
 135:tests/Threads_CPP_API_test.hpp **** 
 136:tests/Threads_CPP_API_test.hpp ****     Thread* threads[4];
 2117              		.loc 1 136 5
 137:tests/Threads_CPP_API_test.hpp **** 
 138:tests/Threads_CPP_API_test.hpp ****     threads[0] = new WorkerA();
 2118              		.loc 1 138 5
 2119              		.loc 1 138 30 is_stmt 0
 2120 0598 13050001 		li	a0,16
 2121              	.LEHB0:
 2122 059c 97000000 		call	_Znwm@plt
 2122      E7800000 
 2123              	.LVL215:
 2124              	.LEHE0:
 2125 05a4 93040500 		mv	s1,a0
 2126              	.LVL216:
 2127              	.LEHB1:
 2128              	.LBB119:
 2129              	.LBB120:
  22:tests/Threads_CPP_API_test.hpp **** 
GAS LISTING /tmp/ccqYKUbi.s 			page 49


 2130              		.loc 1 22 22
 2131 05a8 97000000 		call	_ZN6ThreadC2Ev@plt
 2131      E7800000 
 2132              	.LVL217:
 2133              	.LEHE1:
 2134 05b0 97070000 		lla	a5,_ZTV7WorkerA+16
 2134      93870700 
 2135 05b8 23B0F400 		sd	a5,0(s1)
 2136              	.LVL218:
 2137              	.LBE120:
 2138              	.LBE119:
 2139              		.loc 1 138 16
 2140 05bc 233094FC 		sd	s1,-64(s0)
 139:tests/Threads_CPP_API_test.hpp ****     printString("ThreadA created\n");
 2141              		.loc 1 139 5 is_stmt 1
 2142              		.loc 1 139 16 is_stmt 0
 2143 05c0 17050000 		lla	a0,.LC16
 2143      13050500 
 2144              	.LEHB2:
 2145 05c8 97000000 		call	_Z11printStringPKc@plt
 2145      E7800000 
 2146              	.LVL219:
 140:tests/Threads_CPP_API_test.hpp **** 
 141:tests/Threads_CPP_API_test.hpp ****     threads[1] = new WorkerB();
 2147              		.loc 1 141 5 is_stmt 1
 2148              		.loc 1 141 30 is_stmt 0
 2149 05d0 13050001 		li	a0,16
 2150 05d4 97000000 		call	_Znwm@plt
 2150      E7800000 
 2151              	.LVL220:
 2152              	.LEHE2:
 2153 05dc 93040500 		mv	s1,a0
 2154              	.LVL221:
 2155              	.LEHB3:
 2156              	.LBB121:
 2157              	.LBB122:
  32:tests/Threads_CPP_API_test.hpp **** 
 2158              		.loc 1 32 22
 2159 05e0 97000000 		call	_ZN6ThreadC2Ev@plt
 2159      E7800000 
 2160              	.LVL222:
 2161              	.LEHE3:
 2162 05e8 97070000 		lla	a5,_ZTV7WorkerB+16
 2162      93870700 
 2163 05f0 23B0F400 		sd	a5,0(s1)
 2164              	.LVL223:
 2165              	.LBE122:
 2166              	.LBE121:
 2167              		.loc 1 141 16
 2168 05f4 233494FC 		sd	s1,-56(s0)
 142:tests/Threads_CPP_API_test.hpp ****     printString("ThreadB created\n");
 2169              		.loc 1 142 5 is_stmt 1
 2170              		.loc 1 142 16 is_stmt 0
 2171 05f8 17050000 		lla	a0,.LC17
 2171      13050500 
 2172              	.LEHB4:
 2173 0600 97000000 		call	_Z11printStringPKc@plt
GAS LISTING /tmp/ccqYKUbi.s 			page 50


 2173      E7800000 
 2174              	.LVL224:
 143:tests/Threads_CPP_API_test.hpp **** 
 144:tests/Threads_CPP_API_test.hpp ****     threads[2] = new WorkerC();
 2175              		.loc 1 144 5 is_stmt 1
 2176              		.loc 1 144 30 is_stmt 0
 2177 0608 13050001 		li	a0,16
 2178 060c 97000000 		call	_Znwm@plt
 2178      E7800000 
 2179              	.LVL225:
 2180              	.LEHE4:
 2181 0614 93040500 		mv	s1,a0
 2182              	.LVL226:
 2183              	.LEHB5:
 2184              	.LBB123:
 2185              	.LBB124:
  42:tests/Threads_CPP_API_test.hpp **** 
 2186              		.loc 1 42 22
 2187 0618 97000000 		call	_ZN6ThreadC2Ev@plt
 2187      E7800000 
 2188              	.LVL227:
 2189              	.LEHE5:
 2190 0620 97070000 		lla	a5,_ZTV7WorkerC+16
 2190      93870700 
 2191 0628 23B0F400 		sd	a5,0(s1)
 2192              	.LVL228:
 2193              	.LBE124:
 2194              	.LBE123:
 2195              		.loc 1 144 16
 2196 062c 233894FC 		sd	s1,-48(s0)
 145:tests/Threads_CPP_API_test.hpp ****     printString("ThreadC created\n");
 2197              		.loc 1 145 5 is_stmt 1
 2198              		.loc 1 145 16 is_stmt 0
 2199 0630 17050000 		lla	a0,.LC18
 2199      13050500 
 2200              	.LEHB6:
 2201 0638 97000000 		call	_Z11printStringPKc@plt
 2201      E7800000 
 2202              	.LVL229:
 146:tests/Threads_CPP_API_test.hpp **** 
 147:tests/Threads_CPP_API_test.hpp ****     threads[3] = new WorkerD();
 2203              		.loc 1 147 5 is_stmt 1
 2204              		.loc 1 147 30 is_stmt 0
 2205 0640 13050001 		li	a0,16
 2206 0644 97000000 		call	_Znwm@plt
 2206      E7800000 
 2207              	.LVL230:
 2208              	.LEHE6:
 2209 064c 93040500 		mv	s1,a0
 2210              	.LVL231:
 2211              	.LEHB7:
 2212              	.LBB125:
 2213              	.LBB126:
  52:tests/Threads_CPP_API_test.hpp **** 
 2214              		.loc 1 52 22
 2215 0650 97000000 		call	_ZN6ThreadC2Ev@plt
 2215      E7800000 
GAS LISTING /tmp/ccqYKUbi.s 			page 51


 2216              	.LVL232:
 2217              	.LEHE7:
 2218 0658 97070000 		lla	a5,_ZTV7WorkerD+16
 2218      93870700 
 2219 0660 23B0F400 		sd	a5,0(s1)
 2220              	.LVL233:
 2221              	.LBE126:
 2222              	.LBE125:
 2223              		.loc 1 147 16
 2224 0664 233C94FC 		sd	s1,-40(s0)
 148:tests/Threads_CPP_API_test.hpp ****     printString("ThreadD created\n");
 2225              		.loc 1 148 5 is_stmt 1
 2226              		.loc 1 148 16 is_stmt 0
 2227 0668 17050000 		lla	a0,.LC19
 2227      13050500 
 2228              	.LEHB8:
 2229 0670 97000000 		call	_Z11printStringPKc@plt
 2229      E7800000 
 2230              	.LVL234:
 2231              	.LBB127:
 149:tests/Threads_CPP_API_test.hpp **** 
 150:tests/Threads_CPP_API_test.hpp ****     for(int i=0; i<4; i++) {
 2232              		.loc 1 150 13
 2233 0678 93040000 		li	s1,0
 2234              	.L109:
 2235              	.LVL235:
 2236              		.loc 1 150 19 is_stmt 1 discriminator 1
 2237 067c 93073000 		li	a5,3
 2238 0680 63C69702 		bgt	s1,a5,.L108
 151:tests/Threads_CPP_API_test.hpp ****         threads[i]->start();
 2239              		.loc 1 151 9
 2240              		.loc 1 151 18 is_stmt 0
 2241 0684 93973400 		slli	a5,s1,3
 2242 0688 130704FE 		addi	a4,s0,-32
 2243 068c B307F700 		add	a5,a4,a5
 2244              		.loc 1 151 26
 2245 0690 03B507FE 		ld	a0,-32(a5)
 2246 0694 97000000 		call	_ZN6Thread5startEv@plt
 2246      E7800000 
 2247              	.LVL236:
 150:tests/Threads_CPP_API_test.hpp ****         threads[i]->start();
 2248              		.loc 1 150 5 is_stmt 1
 2249 069c 9B841400 		addiw	s1,s1,1
 2250              	.LVL237:
 2251 06a0 6FF0DFFD 		j	.L109
 2252              	.LVL238:
 2253              	.L110:
 2254              	.LBE127:
 152:tests/Threads_CPP_API_test.hpp ****     }
 153:tests/Threads_CPP_API_test.hpp **** 
 154:tests/Threads_CPP_API_test.hpp ****     while (!(finishedA && finishedB && finishedC && finishedD)) {
 155:tests/Threads_CPP_API_test.hpp ****         Thread::dispatch();
 2255              		.loc 1 155 9
 2256              		.loc 1 155 25 is_stmt 0
 2257 06a4 97000000 		call	_ZN6Thread8dispatchEv@plt
 2257      E7800000 
 2258              	.LVL239:
GAS LISTING /tmp/ccqYKUbi.s 			page 52


 2259              	.LEHE8:
 2260              	.L108:
 154:tests/Threads_CPP_API_test.hpp ****         Thread::dispatch();
 2261              		.loc 1 154 5 is_stmt 1
 154:tests/Threads_CPP_API_test.hpp ****         Thread::dispatch();
 2262              		.loc 1 154 12
 2263 06ac 97070000 		lbu	a5,.LANCHOR0+10
 2263      83C70700 
 2264 06b4 E38807FE 		beqz	a5,.L110
 154:tests/Threads_CPP_API_test.hpp ****         Thread::dispatch();
 2265              		.loc 1 154 24 is_stmt 0 discriminator 1
 2266 06b8 97070000 		lbu	a5,.LANCHOR0+11
 2266      83C70700 
 2267 06c0 E38207FE 		beqz	a5,.L110
 154:tests/Threads_CPP_API_test.hpp ****         Thread::dispatch();
 2268              		.loc 1 154 37 discriminator 2
 2269 06c4 97070000 		lbu	a5,.LANCHOR0+12
 2269      83C70700 
 2270 06cc E38C07FC 		beqz	a5,.L110
 154:tests/Threads_CPP_API_test.hpp ****         Thread::dispatch();
 2271              		.loc 1 154 12 discriminator 3
 2272 06d0 97070000 		lbu	a5,.LANCHOR0+13
 2272      83C70700 
 2273 06d8 E38607FC 		beqz	a5,.L110
 2274              	.LBB128:
 156:tests/Threads_CPP_API_test.hpp ****     }
 157:tests/Threads_CPP_API_test.hpp **** 
 158:tests/Threads_CPP_API_test.hpp ****     for (auto thread: threads) { delete thread; }
 2275              		.loc 1 158 23
 2276 06dc 930404FC 		addi	s1,s0,-64
 2277              	.LVL240:
 2278 06e0 6F008000 		j	.L111
 2279              	.LVL241:
 2280              	.L113:
 2281              		.loc 1 158 5 is_stmt 1 discriminator 5
 2282 06e4 93848400 		addi	s1,s1,8
 2283              	.LVL242:
 2284              	.L111:
 2285              		.loc 1 158 23 discriminator 6
 2286 06e8 930704FE 		addi	a5,s0,-32
 2287 06ec 6386F408 		beq	s1,a5,.L107
 2288              		.loc 1 158 15 is_stmt 0 discriminator 2
 2289 06f0 03B50400 		ld	a0,0(s1)
 2290              	.LVL243:
 2291              		.loc 1 158 34 is_stmt 1 discriminator 2
 2292              		.loc 1 158 47 is_stmt 0 discriminator 2
 2293 06f4 E30805FE 		beqz	a0,.L113
 2294              		.loc 1 158 41 discriminator 3
 2295 06f8 83370500 		ld	a5,0(a0)
 2296 06fc 83B78700 		ld	a5,8(a5)
 2297 0700 E7800700 		jalr	a5
 2298              	.LVL244:
 2299 0704 6FF01FFE 		j	.L113
 2300              	.LVL245:
 2301              	.L119:
 2302 0708 13090500 		mv	s2,a0
 2303              	.LBE128:
GAS LISTING /tmp/ccqYKUbi.s 			page 53


 138:tests/Threads_CPP_API_test.hpp ****     printString("ThreadA created\n");
 2304              		.loc 1 138 30
 2305 070c 13850400 		mv	a0,s1
 2306 0710 97000000 		call	_ZdlPv@plt
 2306      E7800000 
 2307              	.LVL246:
 2308 0718 13050900 		mv	a0,s2
 2309              	.LEHB9:
 2310 071c 97000000 		call	_Unwind_Resume@plt
 2310      E7800000 
 2311              	.LVL247:
 2312              	.LEHE9:
 2313              	.L120:
 2314 0724 13090500 		mv	s2,a0
 141:tests/Threads_CPP_API_test.hpp ****     printString("ThreadB created\n");
 2315              		.loc 1 141 30
 2316 0728 13850400 		mv	a0,s1
 2317 072c 97000000 		call	_ZdlPv@plt
 2317      E7800000 
 2318              	.LVL248:
 2319 0734 13050900 		mv	a0,s2
 2320              	.LEHB10:
 2321 0738 97000000 		call	_Unwind_Resume@plt
 2321      E7800000 
 2322              	.LVL249:
 2323              	.LEHE10:
 2324              	.L121:
 2325 0740 13090500 		mv	s2,a0
 144:tests/Threads_CPP_API_test.hpp ****     printString("ThreadC created\n");
 2326              		.loc 1 144 30
 2327 0744 13850400 		mv	a0,s1
 2328 0748 97000000 		call	_ZdlPv@plt
 2328      E7800000 
 2329              	.LVL250:
 2330 0750 13050900 		mv	a0,s2
 2331              	.LEHB11:
 2332 0754 97000000 		call	_Unwind_Resume@plt
 2332      E7800000 
 2333              	.LVL251:
 2334              	.LEHE11:
 2335              	.L122:
 2336 075c 13090500 		mv	s2,a0
 147:tests/Threads_CPP_API_test.hpp ****     printString("ThreadD created\n");
 2337              		.loc 1 147 30
 2338 0760 13850400 		mv	a0,s1
 2339 0764 97000000 		call	_ZdlPv@plt
 2339      E7800000 
 2340              	.LVL252:
 2341 076c 13050900 		mv	a0,s2
 2342              	.LEHB12:
 2343 0770 97000000 		call	_Unwind_Resume@plt
 2343      E7800000 
 2344              	.LVL253:
 2345              	.LEHE12:
 2346              	.L107:
 159:tests/Threads_CPP_API_test.hpp **** }
 2347              		.loc 1 159 1
GAS LISTING /tmp/ccqYKUbi.s 			page 54


 2348 0778 83308103 		ld	ra,56(sp)
 2349              		.cfi_restore 1
 2350 077c 03340103 		ld	s0,48(sp)
 2351              		.cfi_restore 8
 2352              		.cfi_def_cfa 2, 64
 2353 0780 83348102 		ld	s1,40(sp)
 2354              		.cfi_restore 9
 2355              	.LVL254:
 2356 0784 03390102 		ld	s2,32(sp)
 2357              		.cfi_restore 18
 2358 0788 13010104 		addi	sp,sp,64
 2359              		.cfi_def_cfa_offset 0
 2360 078c 67800000 		jr	ra
 2361              		.cfi_endproc
 2362              	.LFE35:
 2363              		.globl	__gxx_personality_v0
 2364              		.section	.gcc_except_table,"a",@progbits
 2365              	.LLSDA35:
 2366 0000 FF       		.byte	0xff
 2367 0001 FF       		.byte	0xff
 2368 0002 03       		.byte	0x3
 2369 0003 A901     		.byte	0xa9,0x1
 2370 0005 00000000 		.4byte	.LEHB0-.LFB35
 2371 0009 00000000 		.4byte	.LEHE0-.LEHB0
 2372 000d 00000000 		.4byte	0
 2373 0011 00       		.byte	0
 2374 0012 00000000 		.4byte	.LEHB1-.LFB35
 2375 0016 00000000 		.4byte	.LEHE1-.LEHB1
 2376 001a 00000000 		.4byte	.L119-.LFB35
 2377 001e 00       		.byte	0
 2378 001f 00000000 		.4byte	.LEHB2-.LFB35
 2379 0023 00000000 		.4byte	.LEHE2-.LEHB2
 2380 0027 00000000 		.4byte	0
 2381 002b 00       		.byte	0
 2382 002c 00000000 		.4byte	.LEHB3-.LFB35
 2383 0030 00000000 		.4byte	.LEHE3-.LEHB3
 2384 0034 00000000 		.4byte	.L120-.LFB35
 2385 0038 00       		.byte	0
 2386 0039 00000000 		.4byte	.LEHB4-.LFB35
 2387 003d 00000000 		.4byte	.LEHE4-.LEHB4
 2388 0041 00000000 		.4byte	0
 2389 0045 00       		.byte	0
 2390 0046 00000000 		.4byte	.LEHB5-.LFB35
 2391 004a 00000000 		.4byte	.LEHE5-.LEHB5
 2392 004e 00000000 		.4byte	.L121-.LFB35
 2393 0052 00       		.byte	0
 2394 0053 00000000 		.4byte	.LEHB6-.LFB35
 2395 0057 00000000 		.4byte	.LEHE6-.LEHB6
 2396 005b 00000000 		.4byte	0
 2397 005f 00       		.byte	0
 2398 0060 00000000 		.4byte	.LEHB7-.LFB35
 2399 0064 00000000 		.4byte	.LEHE7-.LEHB7
 2400 0068 00000000 		.4byte	.L122-.LFB35
 2401 006c 00       		.byte	0
 2402 006d 00000000 		.4byte	.LEHB8-.LFB35
 2403 0071 00000000 		.4byte	.LEHE8-.LEHB8
 2404 0075 00000000 		.4byte	0
GAS LISTING /tmp/ccqYKUbi.s 			page 55


 2405 0079 00       		.byte	0
 2406 007a 00000000 		.4byte	.LEHB9-.LFB35
 2407 007e 00000000 		.4byte	.LEHE9-.LEHB9
 2408 0082 00000000 		.4byte	0
 2409 0086 00       		.byte	0
 2410 0087 00000000 		.4byte	.LEHB10-.LFB35
 2411 008b 00000000 		.4byte	.LEHE10-.LEHB10
 2412 008f 00000000 		.4byte	0
 2413 0093 00       		.byte	0
 2414 0094 00000000 		.4byte	.LEHB11-.LFB35
 2415 0098 00000000 		.4byte	.LEHE11-.LEHB11
 2416 009c 00000000 		.4byte	0
 2417 00a0 00       		.byte	0
 2418 00a1 00000000 		.4byte	.LEHB12-.LFB35
 2419 00a5 00000000 		.4byte	.LEHE12-.LEHB12
 2420 00a9 00000000 		.4byte	0
 2421 00ad 00       		.byte	0
 2422              		.text
 2424              		.align	2
 2425              		.globl	_ZN16ProducerKeyboard16producerKeyboardEPv
 2427              	_ZN16ProducerKeyboard16producerKeyboardEPv:
 2428              	.LFB40:
  33:tests/ConsumerProducer_CPP_Sync_API_test.hpp ****     struct thread_data *data = (struct thread_data *) arg;
 2429              		.loc 2 33 52 is_stmt 1
 2430              		.cfi_startproc
 2431              	.LVL255:
 2432 0790 130101FD 		addi	sp,sp,-48
 2433              		.cfi_def_cfa_offset 48
 2434 0794 23341102 		sd	ra,40(sp)
 2435 0798 23308102 		sd	s0,32(sp)
 2436 079c 233C9100 		sd	s1,24(sp)
 2437 07a0 23382101 		sd	s2,16(sp)
 2438 07a4 23343101 		sd	s3,8(sp)
 2439              		.cfi_offset 1, -8
 2440              		.cfi_offset 8, -16
 2441              		.cfi_offset 9, -24
 2442              		.cfi_offset 18, -32
 2443              		.cfi_offset 19, -40
 2444 07a8 13040103 		addi	s0,sp,48
 2445              		.cfi_def_cfa 8, 0
 2446 07ac 93090500 		mv	s3,a0
 2447 07b0 93840500 		mv	s1,a1
  34:tests/ConsumerProducer_CPP_Sync_API_test.hpp **** 
 2448              		.loc 2 34 5
 2449              	.LVL256:
  36:tests/ConsumerProducer_CPP_Sync_API_test.hpp ****     int i = 0;
 2450              		.loc 2 36 5
  37:tests/ConsumerProducer_CPP_Sync_API_test.hpp ****     while ((key = getc()) != 0x1b) {
 2451              		.loc 2 37 5
  37:tests/ConsumerProducer_CPP_Sync_API_test.hpp ****     while ((key = getc()) != 0x1b) {
 2452              		.loc 2 37 9 is_stmt 0
 2453 07b4 13090000 		li	s2,0
 2454 07b8 6F00C000 		j	.L125
 2455              	.LVL257:
 2456              	.L129:
  43:tests/ConsumerProducer_CPP_Sync_API_test.hpp ****         }
 2457              		.loc 2 43 13 is_stmt 1
GAS LISTING /tmp/ccqYKUbi.s 			page 56


  43:tests/ConsumerProducer_CPP_Sync_API_test.hpp ****         }
 2458              		.loc 2 43 29 is_stmt 0
 2459 07bc 97000000 		call	_ZN6Thread8dispatchEv@plt
 2459      E7800000 
 2460              	.LVL258:
 2461              	.L125:
  38:tests/ConsumerProducer_CPP_Sync_API_test.hpp ****         data->buffer->put(key);
 2462              		.loc 2 38 5 is_stmt 1
  38:tests/ConsumerProducer_CPP_Sync_API_test.hpp ****         data->buffer->put(key);
 2463              		.loc 2 38 27
  38:tests/ConsumerProducer_CPP_Sync_API_test.hpp ****         data->buffer->put(key);
 2464              		.loc 2 38 23 is_stmt 0
 2465 07c4 97000000 		call	_Z4getcv@plt
 2465      E7800000 
 2466              	.LVL259:
  38:tests/ConsumerProducer_CPP_Sync_API_test.hpp ****         data->buffer->put(key);
 2467              		.loc 2 38 17
 2468 07cc 9B050500 		sext.w	a1,a0
 2469              	.LVL260:
  38:tests/ConsumerProducer_CPP_Sync_API_test.hpp ****         data->buffer->put(key);
 2470              		.loc 2 38 27
 2471 07d0 9307B001 		li	a5,27
 2472 07d4 638AF502 		beq	a1,a5,.L126
  39:tests/ConsumerProducer_CPP_Sync_API_test.hpp ****         i++;
 2473              		.loc 2 39 9 is_stmt 1
  39:tests/ConsumerProducer_CPP_Sync_API_test.hpp ****         i++;
 2474              		.loc 2 39 26 is_stmt 0
 2475 07d8 03B58400 		ld	a0,8(s1)
 2476 07dc 97000000 		call	_ZN9BufferCPP3putEi@plt
 2476      E7800000 
 2477              	.LVL261:
  40:tests/ConsumerProducer_CPP_Sync_API_test.hpp **** 
 2478              		.loc 2 40 9 is_stmt 1
  40:tests/ConsumerProducer_CPP_Sync_API_test.hpp **** 
 2479              		.loc 2 40 10 is_stmt 0
 2480 07e4 1B071900 		addiw	a4,s2,1
 2481 07e8 1B090700 		sext.w	s2,a4
 2482              	.LVL262:
  42:tests/ConsumerProducer_CPP_Sync_API_test.hpp ****             Thread::dispatch();
 2483              		.loc 2 42 9 is_stmt 1
  42:tests/ConsumerProducer_CPP_Sync_API_test.hpp ****             Thread::dispatch();
 2484              		.loc 2 42 29 is_stmt 0
 2485 07ec 83A60400 		lw	a3,0(s1)
  42:tests/ConsumerProducer_CPP_Sync_API_test.hpp ****             Thread::dispatch();
 2486              		.loc 2 42 21
 2487 07f0 9B972600 		slliw	a5,a3,2
 2488 07f4 BB87D700 		addw	a5,a5,a3
 2489 07f8 9B971700 		slliw	a5,a5,1
  42:tests/ConsumerProducer_CPP_Sync_API_test.hpp ****             Thread::dispatch();
 2490              		.loc 2 42 15
 2491 07fc BB67F702 		remw	a5,a4,a5
  42:tests/ConsumerProducer_CPP_Sync_API_test.hpp ****             Thread::dispatch();
 2492              		.loc 2 42 9
 2493 0800 E39207FC 		bnez	a5,.L125
 2494 0804 6FF09FFB 		j	.L129
 2495              	.LVL263:
 2496              	.L126:
GAS LISTING /tmp/ccqYKUbi.s 			page 57


  47:tests/ConsumerProducer_CPP_Sync_API_test.hpp ****     td->buffer->put('!');
 2497              		.loc 2 47 5 is_stmt 1
  47:tests/ConsumerProducer_CPP_Sync_API_test.hpp ****     td->buffer->put('!');
 2498              		.loc 2 47 15 is_stmt 0
 2499 0808 93071000 		li	a5,1
 2500 080c 17070000 		sw	a5,.LANCHOR0+16,a4
 2500      2320F700 
  48:tests/ConsumerProducer_CPP_Sync_API_test.hpp **** 
 2501              		.loc 2 48 5 is_stmt 1
 2502 0814 83B70901 		ld	a5,16(s3)
  48:tests/ConsumerProducer_CPP_Sync_API_test.hpp **** 
 2503              		.loc 2 48 20 is_stmt 0
 2504 0818 93051002 		li	a1,33
 2505              	.LVL264:
 2506 081c 03B58700 		ld	a0,8(a5)
 2507              	.LVL265:
 2508 0820 97000000 		call	_ZN9BufferCPP3putEi@plt
 2508      E7800000 
 2509              	.LVL266:
  50:tests/ConsumerProducer_CPP_Sync_API_test.hpp **** }
 2510              		.loc 2 50 5 is_stmt 1
  50:tests/ConsumerProducer_CPP_Sync_API_test.hpp **** }
 2511              		.loc 2 50 23 is_stmt 0
 2512 0828 03B50401 		ld	a0,16(s1)
 2513 082c 97000000 		call	_ZN9Semaphore6signalEv@plt
 2513      E7800000 
 2514              	.LVL267:
  51:tests/ConsumerProducer_CPP_Sync_API_test.hpp **** 
 2515              		.loc 2 51 1
 2516 0834 83308102 		ld	ra,40(sp)
 2517              		.cfi_restore 1
 2518 0838 03340102 		ld	s0,32(sp)
 2519              		.cfi_restore 8
 2520              		.cfi_def_cfa 2, 48
 2521 083c 83348101 		ld	s1,24(sp)
 2522              		.cfi_restore 9
 2523              	.LVL268:
 2524 0840 03390101 		ld	s2,16(sp)
 2525              		.cfi_restore 18
 2526              	.LVL269:
 2527 0844 83398100 		ld	s3,8(sp)
 2528              		.cfi_restore 19
 2529              	.LVL270:
 2530 0848 13010103 		addi	sp,sp,48
 2531              		.cfi_def_cfa_offset 0
 2532 084c 67800000 		jr	ra
 2533              		.cfi_endproc
 2534              	.LFE40:
 2536              		.section	.text._ZN16ProducerKeyboard3runEv,"axG",@progbits,_ZN16ProducerKeyboard3runEv,comdat
 2537              		.align	2
 2538              		.weak	_ZN16ProducerKeyboard3runEv
 2540              	_ZN16ProducerKeyboard3runEv:
 2541              	.LFB39:
  28:tests/ConsumerProducer_CPP_Sync_API_test.hpp ****         producerKeyboard(td);
 2542              		.loc 2 28 10 is_stmt 1
 2543              		.cfi_startproc
 2544              	.LVL271:
GAS LISTING /tmp/ccqYKUbi.s 			page 58


 2545 0000 130101FF 		addi	sp,sp,-16
 2546              		.cfi_def_cfa_offset 16
 2547 0004 23341100 		sd	ra,8(sp)
 2548 0008 23308100 		sd	s0,0(sp)
 2549              		.cfi_offset 1, -8
 2550              		.cfi_offset 8, -16
 2551 000c 13040101 		addi	s0,sp,16
 2552              		.cfi_def_cfa 8, 0
  29:tests/ConsumerProducer_CPP_Sync_API_test.hpp ****     }
 2553              		.loc 2 29 9
  29:tests/ConsumerProducer_CPP_Sync_API_test.hpp ****     }
 2554              		.loc 2 29 25 is_stmt 0
 2555 0010 83350501 		ld	a1,16(a0)
 2556 0014 97000000 		call	_ZN16ProducerKeyboard16producerKeyboardEPv
 2556      E7800000 
 2557              	.LVL272:
  30:tests/ConsumerProducer_CPP_Sync_API_test.hpp **** };
 2558              		.loc 2 30 5
 2559 001c 83308100 		ld	ra,8(sp)
 2560              		.cfi_restore 1
 2561 0020 03340100 		ld	s0,0(sp)
 2562              		.cfi_restore 8
 2563              		.cfi_def_cfa 2, 16
 2564 0024 13010101 		addi	sp,sp,16
 2565              		.cfi_def_cfa_offset 0
 2566 0028 67800000 		jr	ra
 2567              		.cfi_endproc
 2568              	.LFE39:
 2570              		.text
 2571              		.align	2
 2572              		.globl	_ZN8Producer8producerEPv
 2574              	_ZN8Producer8producerEPv:
 2575              	.LFB45:
  64:tests/ConsumerProducer_CPP_Sync_API_test.hpp ****     struct thread_data *data = (struct thread_data *) arg;
 2576              		.loc 2 64 36 is_stmt 1
 2577              		.cfi_startproc
 2578              	.LVL273:
 2579 0850 130101FE 		addi	sp,sp,-32
 2580              		.cfi_def_cfa_offset 32
 2581 0854 233C1100 		sd	ra,24(sp)
 2582 0858 23388100 		sd	s0,16(sp)
 2583 085c 23349100 		sd	s1,8(sp)
 2584 0860 23302101 		sd	s2,0(sp)
 2585              		.cfi_offset 1, -8
 2586              		.cfi_offset 8, -16
 2587              		.cfi_offset 9, -24
 2588              		.cfi_offset 18, -32
 2589 0864 13040102 		addi	s0,sp,32
 2590              		.cfi_def_cfa 8, 0
 2591 0868 93840500 		mv	s1,a1
  65:tests/ConsumerProducer_CPP_Sync_API_test.hpp **** 
 2592              		.loc 2 65 5
 2593              	.LVL274:
  67:tests/ConsumerProducer_CPP_Sync_API_test.hpp ****     while (!threadEnd) {
 2594              		.loc 2 67 5
  67:tests/ConsumerProducer_CPP_Sync_API_test.hpp ****     while (!threadEnd) {
 2595              		.loc 2 67 9 is_stmt 0
GAS LISTING /tmp/ccqYKUbi.s 			page 59


 2596 086c 13090000 		li	s2,0
 2597 0870 6F00C000 		j	.L133
 2598              	.LVL275:
 2599              	.L137:
  73:tests/ConsumerProducer_CPP_Sync_API_test.hpp ****         }
 2600              		.loc 2 73 13 is_stmt 1
  73:tests/ConsumerProducer_CPP_Sync_API_test.hpp ****         }
 2601              		.loc 2 73 29 is_stmt 0
 2602 0874 97000000 		call	_ZN6Thread8dispatchEv@plt
 2602      E7800000 
 2603              	.LVL276:
 2604              	.L133:
  68:tests/ConsumerProducer_CPP_Sync_API_test.hpp ****         data->buffer->put(data->id + '0');
 2605              		.loc 2 68 5 is_stmt 1
  68:tests/ConsumerProducer_CPP_Sync_API_test.hpp ****         data->buffer->put(data->id + '0');
 2606              		.loc 2 68 12
 2607 087c 97070000 		lw	a5,.LANCHOR0+16
 2607      83A70700 
 2608 0884 639E0702 		bnez	a5,.L134
  69:tests/ConsumerProducer_CPP_Sync_API_test.hpp ****         i++;
 2609              		.loc 2 69 9
  69:tests/ConsumerProducer_CPP_Sync_API_test.hpp ****         i++;
 2610              		.loc 2 69 33 is_stmt 0
 2611 0888 83A50400 		lw	a1,0(s1)
  69:tests/ConsumerProducer_CPP_Sync_API_test.hpp ****         i++;
 2612              		.loc 2 69 26
 2613 088c 9B850503 		addiw	a1,a1,48
 2614 0890 03B58400 		ld	a0,8(s1)
 2615 0894 97000000 		call	_ZN9BufferCPP3putEi@plt
 2615      E7800000 
 2616              	.LVL277:
  70:tests/ConsumerProducer_CPP_Sync_API_test.hpp **** 
 2617              		.loc 2 70 9 is_stmt 1
  70:tests/ConsumerProducer_CPP_Sync_API_test.hpp **** 
 2618              		.loc 2 70 10 is_stmt 0
 2619 089c 1B071900 		addiw	a4,s2,1
 2620 08a0 1B090700 		sext.w	s2,a4
 2621              	.LVL278:
  72:tests/ConsumerProducer_CPP_Sync_API_test.hpp ****             Thread::dispatch();
 2622              		.loc 2 72 9 is_stmt 1
  72:tests/ConsumerProducer_CPP_Sync_API_test.hpp ****             Thread::dispatch();
 2623              		.loc 2 72 29 is_stmt 0
 2624 08a4 83A60400 		lw	a3,0(s1)
  72:tests/ConsumerProducer_CPP_Sync_API_test.hpp ****             Thread::dispatch();
 2625              		.loc 2 72 21
 2626 08a8 9B972600 		slliw	a5,a3,2
 2627 08ac BB87D700 		addw	a5,a5,a3
 2628 08b0 9B971700 		slliw	a5,a5,1
  72:tests/ConsumerProducer_CPP_Sync_API_test.hpp ****             Thread::dispatch();
 2629              		.loc 2 72 15
 2630 08b4 BB67F702 		remw	a5,a4,a5
  72:tests/ConsumerProducer_CPP_Sync_API_test.hpp ****             Thread::dispatch();
 2631              		.loc 2 72 9
 2632 08b8 E39207FC 		bnez	a5,.L133
 2633 08bc 6FF09FFB 		j	.L137
 2634              	.LVL279:
 2635              	.L134:
GAS LISTING /tmp/ccqYKUbi.s 			page 60


  77:tests/ConsumerProducer_CPP_Sync_API_test.hpp **** }
 2636              		.loc 2 77 5 is_stmt 1
  77:tests/ConsumerProducer_CPP_Sync_API_test.hpp **** }
 2637              		.loc 2 77 23 is_stmt 0
 2638 08c0 03B50401 		ld	a0,16(s1)
 2639 08c4 97000000 		call	_ZN9Semaphore6signalEv@plt
 2639      E7800000 
 2640              	.LVL280:
  78:tests/ConsumerProducer_CPP_Sync_API_test.hpp **** 
 2641              		.loc 2 78 1
 2642 08cc 83308101 		ld	ra,24(sp)
 2643              		.cfi_restore 1
 2644 08d0 03340101 		ld	s0,16(sp)
 2645              		.cfi_restore 8
 2646              		.cfi_def_cfa 2, 32
 2647 08d4 83348100 		ld	s1,8(sp)
 2648              		.cfi_restore 9
 2649              	.LVL281:
 2650 08d8 03390100 		ld	s2,0(sp)
 2651              		.cfi_restore 18
 2652              	.LVL282:
 2653 08dc 13010102 		addi	sp,sp,32
 2654              		.cfi_def_cfa_offset 0
 2655 08e0 67800000 		jr	ra
 2656              		.cfi_endproc
 2657              	.LFE45:
 2659              		.section	.text._ZN8Producer3runEv,"axG",@progbits,_ZN8Producer3runEv,comdat
 2660              		.align	2
 2661              		.weak	_ZN8Producer3runEv
 2663              	_ZN8Producer3runEv:
 2664              	.LFB44:
  59:tests/ConsumerProducer_CPP_Sync_API_test.hpp ****         producer(td);
 2665              		.loc 2 59 10 is_stmt 1
 2666              		.cfi_startproc
 2667              	.LVL283:
 2668 0000 130101FF 		addi	sp,sp,-16
 2669              		.cfi_def_cfa_offset 16
 2670 0004 23341100 		sd	ra,8(sp)
 2671 0008 23308100 		sd	s0,0(sp)
 2672              		.cfi_offset 1, -8
 2673              		.cfi_offset 8, -16
 2674 000c 13040101 		addi	s0,sp,16
 2675              		.cfi_def_cfa 8, 0
  60:tests/ConsumerProducer_CPP_Sync_API_test.hpp ****     }
 2676              		.loc 2 60 9
  60:tests/ConsumerProducer_CPP_Sync_API_test.hpp ****     }
 2677              		.loc 2 60 17 is_stmt 0
 2678 0010 83350501 		ld	a1,16(a0)
 2679 0014 97000000 		call	_ZN8Producer8producerEPv
 2679      E7800000 
 2680              	.LVL284:
  61:tests/ConsumerProducer_CPP_Sync_API_test.hpp **** };
 2681              		.loc 2 61 5
 2682 001c 83308100 		ld	ra,8(sp)
 2683              		.cfi_restore 1
 2684 0020 03340100 		ld	s0,0(sp)
 2685              		.cfi_restore 8
GAS LISTING /tmp/ccqYKUbi.s 			page 61


 2686              		.cfi_def_cfa 2, 16
 2687 0024 13010101 		addi	sp,sp,16
 2688              		.cfi_def_cfa_offset 0
 2689 0028 67800000 		jr	ra
 2690              		.cfi_endproc
 2691              	.LFE44:
 2693              		.text
 2694              		.align	2
 2695              		.globl	_ZN8Consumer8consumerEPv
 2697              	_ZN8Consumer8consumerEPv:
 2698              	.LFB50:
  81:tests/ConsumerProducer_CPP_Sync_API_test.hpp ****     thread_data* td;
  82:tests/ConsumerProducer_CPP_Sync_API_test.hpp ****     void consumer(void *arg);
  83:tests/ConsumerProducer_CPP_Sync_API_test.hpp **** public:
  84:tests/ConsumerProducer_CPP_Sync_API_test.hpp ****     Consumer(thread_data* _td):Thread(), td(_td) {}
  85:tests/ConsumerProducer_CPP_Sync_API_test.hpp **** 
  86:tests/ConsumerProducer_CPP_Sync_API_test.hpp ****     void run() override {
  87:tests/ConsumerProducer_CPP_Sync_API_test.hpp ****         consumer(td);
  88:tests/ConsumerProducer_CPP_Sync_API_test.hpp ****     }
  89:tests/ConsumerProducer_CPP_Sync_API_test.hpp **** };
  90:tests/ConsumerProducer_CPP_Sync_API_test.hpp **** 
  91:tests/ConsumerProducer_CPP_Sync_API_test.hpp **** void Consumer::consumer(void *arg) {
 2699              		.loc 2 91 36 is_stmt 1
 2700              		.cfi_startproc
 2701              	.LVL285:
 2702 08e4 130101FD 		addi	sp,sp,-48
 2703              		.cfi_def_cfa_offset 48
 2704 08e8 23341102 		sd	ra,40(sp)
 2705 08ec 23308102 		sd	s0,32(sp)
 2706 08f0 233C9100 		sd	s1,24(sp)
 2707 08f4 23382101 		sd	s2,16(sp)
 2708 08f8 23343101 		sd	s3,8(sp)
 2709 08fc 23304101 		sd	s4,0(sp)
 2710              		.cfi_offset 1, -8
 2711              		.cfi_offset 8, -16
 2712              		.cfi_offset 9, -24
 2713              		.cfi_offset 18, -32
 2714              		.cfi_offset 19, -40
 2715              		.cfi_offset 20, -48
 2716 0900 13040103 		addi	s0,sp,48
 2717              		.cfi_def_cfa 8, 0
 2718 0904 93090500 		mv	s3,a0
 2719 0908 13890500 		mv	s2,a1
  92:tests/ConsumerProducer_CPP_Sync_API_test.hpp ****     struct thread_data *data = (struct thread_data *) arg;
 2720              		.loc 2 92 5
 2721              	.LVL286:
  93:tests/ConsumerProducer_CPP_Sync_API_test.hpp **** 
  94:tests/ConsumerProducer_CPP_Sync_API_test.hpp ****     int i = 0;
 2722              		.loc 2 94 5
 2723              		.loc 2 94 9 is_stmt 0
 2724 090c 130A0000 		li	s4,0
 2725 0910 6F00C001 		j	.L141
 2726              	.LVL287:
 2727              	.L147:
 2728              	.LBB129:
  95:tests/ConsumerProducer_CPP_Sync_API_test.hpp ****     while (!threadEnd) {
  96:tests/ConsumerProducer_CPP_Sync_API_test.hpp ****         int key = data->buffer->get();
GAS LISTING /tmp/ccqYKUbi.s 			page 62


  97:tests/ConsumerProducer_CPP_Sync_API_test.hpp ****         i++;
  98:tests/ConsumerProducer_CPP_Sync_API_test.hpp **** 
  99:tests/ConsumerProducer_CPP_Sync_API_test.hpp ****         putc(key);
 100:tests/ConsumerProducer_CPP_Sync_API_test.hpp **** 
 101:tests/ConsumerProducer_CPP_Sync_API_test.hpp ****         if (i % (5 * data->id) == 0) {
 102:tests/ConsumerProducer_CPP_Sync_API_test.hpp ****             Thread::dispatch();
 2729              		.loc 2 102 13 is_stmt 1
 2730              		.loc 2 102 29 is_stmt 0
 2731 0914 97000000 		call	_ZN6Thread8dispatchEv@plt
 2731      E7800000 
 2732              	.LVL288:
 2733 091c 6F000005 		j	.L143
 2734              	.LVL289:
 2735              	.L148:
 103:tests/ConsumerProducer_CPP_Sync_API_test.hpp ****         }
 104:tests/ConsumerProducer_CPP_Sync_API_test.hpp **** 
 105:tests/ConsumerProducer_CPP_Sync_API_test.hpp ****         if (i % 80 == 0) {
 106:tests/ConsumerProducer_CPP_Sync_API_test.hpp ****             putc('\n');
 2736              		.loc 2 106 13 is_stmt 1
 2737              		.loc 2 106 17 is_stmt 0
 2738 0920 1305A000 		li	a0,10
 2739 0924 97000000 		call	_Z4putcc@plt
 2739      E7800000 
 2740              	.LVL290:
 2741              	.L141:
 2742              	.LBE129:
  95:tests/ConsumerProducer_CPP_Sync_API_test.hpp ****     while (!threadEnd) {
 2743              		.loc 2 95 5 is_stmt 1
  95:tests/ConsumerProducer_CPP_Sync_API_test.hpp ****     while (!threadEnd) {
 2744              		.loc 2 95 12
 2745 092c 97070000 		lw	a5,.LANCHOR0+16
 2745      83A70700 
 2746 0934 63920706 		bnez	a5,.L142
 2747              	.LBB130:
  96:tests/ConsumerProducer_CPP_Sync_API_test.hpp ****         i++;
 2748              		.loc 2 96 9
  96:tests/ConsumerProducer_CPP_Sync_API_test.hpp ****         i++;
 2749              		.loc 2 96 36 is_stmt 0
 2750 0938 03358900 		ld	a0,8(s2)
 2751 093c 97000000 		call	_ZN9BufferCPP3getEv@plt
 2751      E7800000 
 2752              	.LVL291:
  97:tests/ConsumerProducer_CPP_Sync_API_test.hpp **** 
 2753              		.loc 2 97 9 is_stmt 1
  97:tests/ConsumerProducer_CPP_Sync_API_test.hpp **** 
 2754              		.loc 2 97 10 is_stmt 0
 2755 0944 9B041A00 		addiw	s1,s4,1
 2756 0948 1B8A0400 		sext.w	s4,s1
 2757              	.LVL292:
  99:tests/ConsumerProducer_CPP_Sync_API_test.hpp **** 
 2758              		.loc 2 99 9 is_stmt 1
  99:tests/ConsumerProducer_CPP_Sync_API_test.hpp **** 
 2759              		.loc 2 99 13 is_stmt 0
 2760 094c 1375F50F 		andi	a0,a0,0xff
 2761              	.LVL293:
 2762 0950 97000000 		call	_Z4putcc@plt
 2762      E7800000 
GAS LISTING /tmp/ccqYKUbi.s 			page 63


 2763              	.LVL294:
 101:tests/ConsumerProducer_CPP_Sync_API_test.hpp ****             Thread::dispatch();
 2764              		.loc 2 101 9 is_stmt 1
 101:tests/ConsumerProducer_CPP_Sync_API_test.hpp ****             Thread::dispatch();
 2765              		.loc 2 101 28 is_stmt 0
 2766 0958 03270900 		lw	a4,0(s2)
 101:tests/ConsumerProducer_CPP_Sync_API_test.hpp ****             Thread::dispatch();
 2767              		.loc 2 101 20
 2768 095c 9B172700 		slliw	a5,a4,2
 2769 0960 BB87E700 		addw	a5,a5,a4
 101:tests/ConsumerProducer_CPP_Sync_API_test.hpp ****             Thread::dispatch();
 2770              		.loc 2 101 15
 2771 0964 BBE7F402 		remw	a5,s1,a5
 101:tests/ConsumerProducer_CPP_Sync_API_test.hpp ****             Thread::dispatch();
 2772              		.loc 2 101 9
 2773 0968 E38607FA 		beqz	a5,.L147
 2774              	.L143:
 105:tests/ConsumerProducer_CPP_Sync_API_test.hpp ****             putc('\n');
 2775              		.loc 2 105 9 is_stmt 1
 105:tests/ConsumerProducer_CPP_Sync_API_test.hpp ****             putc('\n');
 2776              		.loc 2 105 15 is_stmt 0
 2777 096c 93070005 		li	a5,80
 2778 0970 BBE4F402 		remw	s1,s1,a5
 2779              	.LVL295:
 105:tests/ConsumerProducer_CPP_Sync_API_test.hpp ****             putc('\n');
 2780              		.loc 2 105 9
 2781 0974 E39C04FA 		bnez	s1,.L141
 2782 0978 6FF09FFA 		j	.L148
 2783              	.L149:
 2784              	.LBE130:
 2785              	.LBB131:
 107:tests/ConsumerProducer_CPP_Sync_API_test.hpp ****         }
 108:tests/ConsumerProducer_CPP_Sync_API_test.hpp ****     }
 109:tests/ConsumerProducer_CPP_Sync_API_test.hpp **** 
 110:tests/ConsumerProducer_CPP_Sync_API_test.hpp **** 
 111:tests/ConsumerProducer_CPP_Sync_API_test.hpp ****     while (td->buffer->getCnt() > 0) {
 112:tests/ConsumerProducer_CPP_Sync_API_test.hpp ****         int key = td->buffer->get();
 2786              		.loc 2 112 9 is_stmt 1
 2787              		.loc 2 112 19 is_stmt 0
 2788 097c 83B70901 		ld	a5,16(s3)
 2789              		.loc 2 112 34
 2790 0980 03B58700 		ld	a0,8(a5)
 2791 0984 97000000 		call	_ZN9BufferCPP3getEv@plt
 2791      E7800000 
 2792              	.LVL296:
 113:tests/ConsumerProducer_CPP_Sync_API_test.hpp ****         Console::putc(key);
 2793              		.loc 2 113 9 is_stmt 1
 2794              		.loc 2 113 22 is_stmt 0
 2795 098c 1375F50F 		andi	a0,a0,0xff
 2796              	.LVL297:
 2797 0990 97000000 		call	_ZN7Console4putcEc@plt
 2797      E7800000 
 2798              	.LVL298:
 2799              	.L142:
 2800              	.LBE131:
 111:tests/ConsumerProducer_CPP_Sync_API_test.hpp ****         int key = td->buffer->get();
 2801              		.loc 2 111 5 is_stmt 1
GAS LISTING /tmp/ccqYKUbi.s 			page 64


 111:tests/ConsumerProducer_CPP_Sync_API_test.hpp ****         int key = td->buffer->get();
 2802              		.loc 2 111 33
 111:tests/ConsumerProducer_CPP_Sync_API_test.hpp ****         int key = td->buffer->get();
 2803              		.loc 2 111 12 is_stmt 0
 2804 0998 83B70901 		ld	a5,16(s3)
 111:tests/ConsumerProducer_CPP_Sync_API_test.hpp ****         int key = td->buffer->get();
 2805              		.loc 2 111 30
 2806 099c 03B58700 		ld	a0,8(a5)
 2807 09a0 97000000 		call	_ZN9BufferCPP6getCntEv@plt
 2807      E7800000 
 2808              	.LVL299:
 111:tests/ConsumerProducer_CPP_Sync_API_test.hpp ****         int key = td->buffer->get();
 2809              		.loc 2 111 33
 2810 09a8 E34AA0FC 		bgtz	a0,.L149
 114:tests/ConsumerProducer_CPP_Sync_API_test.hpp ****     }
 115:tests/ConsumerProducer_CPP_Sync_API_test.hpp **** 
 116:tests/ConsumerProducer_CPP_Sync_API_test.hpp ****     data->wait->signal();
 2811              		.loc 2 116 5 is_stmt 1
 2812              		.loc 2 116 23 is_stmt 0
 2813 09ac 03350901 		ld	a0,16(s2)
 2814 09b0 97000000 		call	_ZN9Semaphore6signalEv@plt
 2814      E7800000 
 2815              	.LVL300:
 117:tests/ConsumerProducer_CPP_Sync_API_test.hpp **** }
 2816              		.loc 2 117 1
 2817 09b8 83308102 		ld	ra,40(sp)
 2818              		.cfi_restore 1
 2819 09bc 03340102 		ld	s0,32(sp)
 2820              		.cfi_restore 8
 2821              		.cfi_def_cfa 2, 48
 2822 09c0 83348101 		ld	s1,24(sp)
 2823              		.cfi_restore 9
 2824 09c4 03390101 		ld	s2,16(sp)
 2825              		.cfi_restore 18
 2826              	.LVL301:
 2827 09c8 83398100 		ld	s3,8(sp)
 2828              		.cfi_restore 19
 2829              	.LVL302:
 2830 09cc 033A0100 		ld	s4,0(sp)
 2831              		.cfi_restore 20
 2832              	.LVL303:
 2833 09d0 13010103 		addi	sp,sp,48
 2834              		.cfi_def_cfa_offset 0
 2835 09d4 67800000 		jr	ra
 2836              		.cfi_endproc
 2837              	.LFE50:
 2839              		.section	.text._ZN8Consumer3runEv,"axG",@progbits,_ZN8Consumer3runEv,comdat
 2840              		.align	2
 2841              		.weak	_ZN8Consumer3runEv
 2843              	_ZN8Consumer3runEv:
 2844              	.LFB49:
  86:tests/ConsumerProducer_CPP_Sync_API_test.hpp ****         consumer(td);
 2845              		.loc 2 86 10 is_stmt 1
 2846              		.cfi_startproc
 2847              	.LVL304:
 2848 0000 130101FF 		addi	sp,sp,-16
 2849              		.cfi_def_cfa_offset 16
GAS LISTING /tmp/ccqYKUbi.s 			page 65


 2850 0004 23341100 		sd	ra,8(sp)
 2851 0008 23308100 		sd	s0,0(sp)
 2852              		.cfi_offset 1, -8
 2853              		.cfi_offset 8, -16
 2854 000c 13040101 		addi	s0,sp,16
 2855              		.cfi_def_cfa 8, 0
  87:tests/ConsumerProducer_CPP_Sync_API_test.hpp ****     }
 2856              		.loc 2 87 9
  87:tests/ConsumerProducer_CPP_Sync_API_test.hpp ****     }
 2857              		.loc 2 87 17 is_stmt 0
 2858 0010 83350501 		ld	a1,16(a0)
 2859 0014 97000000 		call	_ZN8Consumer8consumerEPv
 2859      E7800000 
 2860              	.LVL305:
  88:tests/ConsumerProducer_CPP_Sync_API_test.hpp **** };
 2861              		.loc 2 88 5
 2862 001c 83308100 		ld	ra,8(sp)
 2863              		.cfi_restore 1
 2864 0020 03340100 		ld	s0,0(sp)
 2865              		.cfi_restore 8
 2866              		.cfi_def_cfa 2, 16
 2867 0024 13010101 		addi	sp,sp,16
 2868              		.cfi_def_cfa_offset 0
 2869 0028 67800000 		jr	ra
 2870              		.cfi_endproc
 2871              	.LFE49:
 2873              		.section	.rodata.str1.8
 2874 0119 00000000 		.align	3
 2874      000000
 2875              	.LC20:
 2876 0120 556E6573 		.string	"Unesite broj proizvodjaca?\n"
 2876      69746520 
 2876      62726F6A 
 2876      2070726F 
 2876      697A766F 
 2877 013c 00000000 		.align	3
 2878              	.LC21:
 2879 0140 556E6573 		.string	"Unesite velicinu bafera?\n"
 2879      69746520 
 2879      76656C69 
 2879      63696E75 
 2879      20626166 
 2880 015a 00000000 		.align	3
 2880      0000
 2881              	.LC22:
 2882 0160 42726F6A 		.string	"Broj proizvodjaca "
 2882      2070726F 
 2882      697A766F 
 2882      646A6163 
 2882      612000
 2883 0173 00000000 		.align	3
 2883      00
 2884              	.LC23:
 2885 0178 20692076 		.string	" i velicina bafera "
 2885      656C6963 
 2885      696E6120 
 2885      62616665 
GAS LISTING /tmp/ccqYKUbi.s 			page 66


 2885      72612000 
 2886 018c 00000000 		.align	3
 2887              	.LC24:
 2888 0190 2E0A00   		.string	".\n"
 2889 0193 00000000 		.align	3
 2889      00
 2890              	.LC25:
 2891 0198 42726F6A 		.string	"Broj proizvodjaca ne sme biti manji od velicine bafera!\n"
 2891      2070726F 
 2891      697A766F 
 2891      646A6163 
 2891      61206E65 
 2892 01d1 00000000 		.align	3
 2892      000000
 2893              	.LC26:
 2894 01d8 42726F6A 		.string	"Broj proizvodjaca mora biti veci od nula!\n"
 2894      2070726F 
 2894      697A766F 
 2894      646A6163 
 2894      61206D6F 
 2895              		.text
 2896              		.align	2
 2897              		.globl	_Z29producerConsumer_CPP_Sync_APIv
 2899              	_Z29producerConsumer_CPP_Sync_APIv:
 2900              	.LFB51:
 118:tests/ConsumerProducer_CPP_Sync_API_test.hpp **** 
 119:tests/ConsumerProducer_CPP_Sync_API_test.hpp **** void producerConsumer_CPP_Sync_API() {
 2901              		.loc 2 119 38 is_stmt 1
 2902              		.cfi_startproc
 2903              		.cfi_personality 0x9b,DW.ref.__gxx_personality_v0
 2904              		.cfi_lsda 0x1b,.LLSDA51
 2905 09d8 130101F8 		addi	sp,sp,-128
 2906              		.cfi_def_cfa_offset 128
 2907 09dc 233C1106 		sd	ra,120(sp)
 2908 09e0 23388106 		sd	s0,112(sp)
 2909 09e4 23349106 		sd	s1,104(sp)
 2910 09e8 23302107 		sd	s2,96(sp)
 2911 09ec 233C3105 		sd	s3,88(sp)
 2912 09f0 23384105 		sd	s4,80(sp)
 2913 09f4 23345105 		sd	s5,72(sp)
 2914 09f8 23306105 		sd	s6,64(sp)
 2915 09fc 233C7103 		sd	s7,56(sp)
 2916 0a00 23388103 		sd	s8,48(sp)
 2917 0a04 23349103 		sd	s9,40(sp)
 2918              		.cfi_offset 1, -8
 2919              		.cfi_offset 8, -16
 2920              		.cfi_offset 9, -24
 2921              		.cfi_offset 18, -32
 2922              		.cfi_offset 19, -40
 2923              		.cfi_offset 20, -48
 2924              		.cfi_offset 21, -56
 2925              		.cfi_offset 22, -64
 2926              		.cfi_offset 23, -72
 2927              		.cfi_offset 24, -80
 2928              		.cfi_offset 25, -88
 2929 0a08 13040108 		addi	s0,sp,128
 2930              		.cfi_def_cfa 8, 0
GAS LISTING /tmp/ccqYKUbi.s 			page 67


 120:tests/ConsumerProducer_CPP_Sync_API_test.hpp ****     char input[30];
 121:tests/ConsumerProducer_CPP_Sync_API_test.hpp ****     int n, threadNum;
 122:tests/ConsumerProducer_CPP_Sync_API_test.hpp **** 
 123:tests/ConsumerProducer_CPP_Sync_API_test.hpp ****     printString("Unesite broj proizvodjaca?\n");
 124:tests/ConsumerProducer_CPP_Sync_API_test.hpp ****     getString(input, 30);
 125:tests/ConsumerProducer_CPP_Sync_API_test.hpp ****     threadNum = stringToInt(input);
 126:tests/ConsumerProducer_CPP_Sync_API_test.hpp **** 
 127:tests/ConsumerProducer_CPP_Sync_API_test.hpp ****     printString("Unesite velicinu bafera?\n");
 128:tests/ConsumerProducer_CPP_Sync_API_test.hpp ****     getString(input, 30);
 129:tests/ConsumerProducer_CPP_Sync_API_test.hpp ****     n = stringToInt(input);
 130:tests/ConsumerProducer_CPP_Sync_API_test.hpp **** 
 131:tests/ConsumerProducer_CPP_Sync_API_test.hpp ****     printString("Broj proizvodjaca "); printInt(threadNum);
 132:tests/ConsumerProducer_CPP_Sync_API_test.hpp ****     printString(" i velicina bafera "); printInt(n);
 133:tests/ConsumerProducer_CPP_Sync_API_test.hpp ****     printString(".\n");
 134:tests/ConsumerProducer_CPP_Sync_API_test.hpp **** 
 135:tests/ConsumerProducer_CPP_Sync_API_test.hpp ****     if(threadNum > n) {
 136:tests/ConsumerProducer_CPP_Sync_API_test.hpp ****         printString("Broj proizvodjaca ne sme biti manji od velicine bafera!\n");
 137:tests/ConsumerProducer_CPP_Sync_API_test.hpp ****         return;
 138:tests/ConsumerProducer_CPP_Sync_API_test.hpp ****     } else if (threadNum < 1) {
 139:tests/ConsumerProducer_CPP_Sync_API_test.hpp ****         printString("Broj proizvodjaca mora biti veci od nula!\n");
 140:tests/ConsumerProducer_CPP_Sync_API_test.hpp ****         return;
 141:tests/ConsumerProducer_CPP_Sync_API_test.hpp ****     }
 142:tests/ConsumerProducer_CPP_Sync_API_test.hpp **** 
 143:tests/ConsumerProducer_CPP_Sync_API_test.hpp ****     BufferCPP *buffer = new BufferCPP(n);
 144:tests/ConsumerProducer_CPP_Sync_API_test.hpp **** 
 145:tests/ConsumerProducer_CPP_Sync_API_test.hpp ****     waitForAll = new Semaphore(0);
 146:tests/ConsumerProducer_CPP_Sync_API_test.hpp **** 
 147:tests/ConsumerProducer_CPP_Sync_API_test.hpp ****     Thread* threads[threadNum];
 148:tests/ConsumerProducer_CPP_Sync_API_test.hpp ****     Thread* consumerThread;
 149:tests/ConsumerProducer_CPP_Sync_API_test.hpp **** 
 150:tests/ConsumerProducer_CPP_Sync_API_test.hpp ****     struct thread_data data[threadNum + 1];
 151:tests/ConsumerProducer_CPP_Sync_API_test.hpp **** 
 152:tests/ConsumerProducer_CPP_Sync_API_test.hpp ****     data[threadNum].id = threadNum;
 153:tests/ConsumerProducer_CPP_Sync_API_test.hpp ****     data[threadNum].buffer = buffer;
 154:tests/ConsumerProducer_CPP_Sync_API_test.hpp ****     data[threadNum].wait = waitForAll;
 155:tests/ConsumerProducer_CPP_Sync_API_test.hpp ****     consumerThread = new Consumer(data+threadNum);
 156:tests/ConsumerProducer_CPP_Sync_API_test.hpp ****     consumerThread->start();
 157:tests/ConsumerProducer_CPP_Sync_API_test.hpp **** 
 158:tests/ConsumerProducer_CPP_Sync_API_test.hpp ****     for (int i = 0; i < threadNum; i++) {
 159:tests/ConsumerProducer_CPP_Sync_API_test.hpp ****         data[i].id = i;
 160:tests/ConsumerProducer_CPP_Sync_API_test.hpp ****         data[i].buffer = buffer;
 161:tests/ConsumerProducer_CPP_Sync_API_test.hpp ****         data[i].wait = waitForAll;
 162:tests/ConsumerProducer_CPP_Sync_API_test.hpp **** 
 163:tests/ConsumerProducer_CPP_Sync_API_test.hpp ****         if(i>0) {
 164:tests/ConsumerProducer_CPP_Sync_API_test.hpp ****             threads[i] = new Producer(data+i);
 165:tests/ConsumerProducer_CPP_Sync_API_test.hpp ****         } else {
 166:tests/ConsumerProducer_CPP_Sync_API_test.hpp ****             threads[i] = new ProducerKeyboard(data+i);
 167:tests/ConsumerProducer_CPP_Sync_API_test.hpp ****         }
 168:tests/ConsumerProducer_CPP_Sync_API_test.hpp **** 
 169:tests/ConsumerProducer_CPP_Sync_API_test.hpp ****         threads[i]->start();
 170:tests/ConsumerProducer_CPP_Sync_API_test.hpp ****     }
 171:tests/ConsumerProducer_CPP_Sync_API_test.hpp **** 
 172:tests/ConsumerProducer_CPP_Sync_API_test.hpp ****     Thread::dispatch();
 173:tests/ConsumerProducer_CPP_Sync_API_test.hpp **** 
 174:tests/ConsumerProducer_CPP_Sync_API_test.hpp ****     for (int i = 0; i <= threadNum; i++) {
 175:tests/ConsumerProducer_CPP_Sync_API_test.hpp ****         waitForAll->wait();
 176:tests/ConsumerProducer_CPP_Sync_API_test.hpp ****     }
GAS LISTING /tmp/ccqYKUbi.s 			page 68


 177:tests/ConsumerProducer_CPP_Sync_API_test.hpp **** 
 178:tests/ConsumerProducer_CPP_Sync_API_test.hpp ****     for (int i = 0; i < threadNum; i++) {
 179:tests/ConsumerProducer_CPP_Sync_API_test.hpp ****         delete threads[i];
 180:tests/ConsumerProducer_CPP_Sync_API_test.hpp ****     }
 181:tests/ConsumerProducer_CPP_Sync_API_test.hpp ****     delete consumerThread;
 182:tests/ConsumerProducer_CPP_Sync_API_test.hpp ****     delete waitForAll;
 183:tests/ConsumerProducer_CPP_Sync_API_test.hpp ****     delete buffer;
 2931              		.loc 2 183 18 is_stmt 0
 2932 0a0c 930B0100 		mv	s7,sp
 120:tests/ConsumerProducer_CPP_Sync_API_test.hpp ****     char input[30];
 2933              		.loc 2 120 5 is_stmt 1
 121:tests/ConsumerProducer_CPP_Sync_API_test.hpp **** 
 2934              		.loc 2 121 5
 123:tests/ConsumerProducer_CPP_Sync_API_test.hpp ****     getString(input, 30);
 2935              		.loc 2 123 5
 123:tests/ConsumerProducer_CPP_Sync_API_test.hpp ****     getString(input, 30);
 2936              		.loc 2 123 16 is_stmt 0
 2937 0a10 17050000 		lla	a0,.LC20
 2937      13050500 
 2938              	.LEHB13:
 2939 0a18 97000000 		call	_Z11printStringPKc@plt
 2939      E7800000 
 2940              	.LVL306:
 124:tests/ConsumerProducer_CPP_Sync_API_test.hpp ****     threadNum = stringToInt(input);
 2941              		.loc 2 124 5 is_stmt 1
 124:tests/ConsumerProducer_CPP_Sync_API_test.hpp ****     threadNum = stringToInt(input);
 2942              		.loc 2 124 14 is_stmt 0
 2943 0a20 9305E001 		li	a1,30
 2944 0a24 930404F8 		addi	s1,s0,-128
 2945 0a28 13850400 		mv	a0,s1
 2946 0a2c 97000000 		call	_Z9getStringPci@plt
 2946      E7800000 
 2947              	.LVL307:
 125:tests/ConsumerProducer_CPP_Sync_API_test.hpp **** 
 2948              		.loc 2 125 5 is_stmt 1
 125:tests/ConsumerProducer_CPP_Sync_API_test.hpp **** 
 2949              		.loc 2 125 28 is_stmt 0
 2950 0a34 13850400 		mv	a0,s1
 2951 0a38 97000000 		call	_Z11stringToIntPKc@plt
 2951      E7800000 
 2952              	.LVL308:
 2953 0a40 13090500 		mv	s2,a0
 2954              	.LVL309:
 127:tests/ConsumerProducer_CPP_Sync_API_test.hpp ****     getString(input, 30);
 2955              		.loc 2 127 5 is_stmt 1
 127:tests/ConsumerProducer_CPP_Sync_API_test.hpp ****     getString(input, 30);
 2956              		.loc 2 127 16 is_stmt 0
 2957 0a44 17050000 		lla	a0,.LC21
 2957      13050500 
 2958 0a4c 97000000 		call	_Z11printStringPKc@plt
 2958      E7800000 
 2959              	.LVL310:
 128:tests/ConsumerProducer_CPP_Sync_API_test.hpp ****     n = stringToInt(input);
 2960              		.loc 2 128 5 is_stmt 1
 128:tests/ConsumerProducer_CPP_Sync_API_test.hpp ****     n = stringToInt(input);
 2961              		.loc 2 128 14 is_stmt 0
 2962 0a54 9305E001 		li	a1,30
GAS LISTING /tmp/ccqYKUbi.s 			page 69


 2963 0a58 13850400 		mv	a0,s1
 2964 0a5c 97000000 		call	_Z9getStringPci@plt
 2964      E7800000 
 2965              	.LVL311:
 129:tests/ConsumerProducer_CPP_Sync_API_test.hpp **** 
 2966              		.loc 2 129 5 is_stmt 1
 129:tests/ConsumerProducer_CPP_Sync_API_test.hpp **** 
 2967              		.loc 2 129 20 is_stmt 0
 2968 0a64 13850400 		mv	a0,s1
 2969 0a68 97000000 		call	_Z11stringToIntPKc@plt
 2969      E7800000 
 2970              	.LVL312:
 2971 0a70 93040500 		mv	s1,a0
 2972              	.LVL313:
 131:tests/ConsumerProducer_CPP_Sync_API_test.hpp ****     printString(" i velicina bafera "); printInt(n);
 2973              		.loc 2 131 5 is_stmt 1
 131:tests/ConsumerProducer_CPP_Sync_API_test.hpp ****     printString(" i velicina bafera "); printInt(n);
 2974              		.loc 2 131 16 is_stmt 0
 2975 0a74 17050000 		lla	a0,.LC22
 2975      13050500 
 2976 0a7c 97000000 		call	_Z11printStringPKc@plt
 2976      E7800000 
 2977              	.LVL314:
 131:tests/ConsumerProducer_CPP_Sync_API_test.hpp ****     printString(" i velicina bafera "); printInt(n);
 2978              		.loc 2 131 40 is_stmt 1
 131:tests/ConsumerProducer_CPP_Sync_API_test.hpp ****     printString(" i velicina bafera "); printInt(n);
 2979              		.loc 2 131 48 is_stmt 0
 2980 0a84 13060000 		li	a2,0
 2981 0a88 9305A000 		li	a1,10
 2982 0a8c 13050900 		mv	a0,s2
 2983 0a90 97000000 		call	_Z8printIntiii@plt
 2983      E7800000 
 2984              	.LVL315:
 132:tests/ConsumerProducer_CPP_Sync_API_test.hpp ****     printString(".\n");
 2985              		.loc 2 132 5 is_stmt 1
 132:tests/ConsumerProducer_CPP_Sync_API_test.hpp ****     printString(".\n");
 2986              		.loc 2 132 16 is_stmt 0
 2987 0a98 17050000 		lla	a0,.LC23
 2987      13050500 
 2988 0aa0 97000000 		call	_Z11printStringPKc@plt
 2988      E7800000 
 2989              	.LVL316:
 132:tests/ConsumerProducer_CPP_Sync_API_test.hpp ****     printString(".\n");
 2990              		.loc 2 132 41 is_stmt 1
 132:tests/ConsumerProducer_CPP_Sync_API_test.hpp ****     printString(".\n");
 2991              		.loc 2 132 49 is_stmt 0
 2992 0aa8 13060000 		li	a2,0
 2993 0aac 9305A000 		li	a1,10
 2994 0ab0 13850400 		mv	a0,s1
 2995 0ab4 97000000 		call	_Z8printIntiii@plt
 2995      E7800000 
 2996              	.LVL317:
 133:tests/ConsumerProducer_CPP_Sync_API_test.hpp **** 
 2997              		.loc 2 133 5 is_stmt 1
 133:tests/ConsumerProducer_CPP_Sync_API_test.hpp **** 
 2998              		.loc 2 133 16 is_stmt 0
 2999 0abc 17050000 		lla	a0,.LC24
GAS LISTING /tmp/ccqYKUbi.s 			page 70


 2999      13050500 
 3000 0ac4 97000000 		call	_Z11printStringPKc@plt
 3000      E7800000 
 3001              	.LVL318:
 135:tests/ConsumerProducer_CPP_Sync_API_test.hpp ****         printString("Broj proizvodjaca ne sme biti manji od velicine bafera!\n");
 3002              		.loc 2 135 5 is_stmt 1
 3003 0acc 63C42403 		bgt	s2,s1,.L180
 138:tests/ConsumerProducer_CPP_Sync_API_test.hpp ****         printString("Broj proizvodjaca mora biti veci od nula!\n");
 3004              		.loc 2 138 12
 3005 0ad0 635C2003 		blez	s2,.L181
 143:tests/ConsumerProducer_CPP_Sync_API_test.hpp **** 
 3006              		.loc 2 143 5
 143:tests/ConsumerProducer_CPP_Sync_API_test.hpp **** 
 3007              		.loc 2 143 40 is_stmt 0
 3008 0ad4 13058003 		li	a0,56
 3009 0ad8 97000000 		call	_Znwm@plt
 3009      E7800000 
 3010              	.LVL319:
 3011              	.LEHE13:
 3012 0ae0 930A0500 		mv	s5,a0
 3013 0ae4 93850400 		mv	a1,s1
 3014              	.LEHB14:
 3015 0ae8 97000000 		call	_ZN9BufferCPPC1Ei@plt
 3015      E7800000 
 3016              	.LVL320:
 3017              	.LEHE14:
 3018 0af0 6F000003 		j	.L182
 3019              	.L180:
 136:tests/ConsumerProducer_CPP_Sync_API_test.hpp ****         return;
 3020              		.loc 2 136 9 is_stmt 1
 136:tests/ConsumerProducer_CPP_Sync_API_test.hpp ****         return;
 3021              		.loc 2 136 20 is_stmt 0
 3022 0af4 17050000 		lla	a0,.LC25
 3022      13050500 
 3023              	.LEHB15:
 3024 0afc 97000000 		call	_Z11printStringPKc@plt
 3024      E7800000 
 3025              	.LVL321:
 137:tests/ConsumerProducer_CPP_Sync_API_test.hpp ****     } else if (threadNum < 1) {
 3026              		.loc 2 137 9 is_stmt 1
 3027 0b04 6F004001 		j	.L154
 3028              	.L181:
 139:tests/ConsumerProducer_CPP_Sync_API_test.hpp ****         return;
 3029              		.loc 2 139 9
 139:tests/ConsumerProducer_CPP_Sync_API_test.hpp ****         return;
 3030              		.loc 2 139 20 is_stmt 0
 3031 0b08 17050000 		lla	a0,.LC26
 3031      13050500 
 3032 0b10 97000000 		call	_Z11printStringPKc@plt
 3032      E7800000 
 3033              	.LVL322:
 140:tests/ConsumerProducer_CPP_Sync_API_test.hpp ****     }
 3034              		.loc 2 140 9 is_stmt 1
 3035              	.L154:
 3036 0b18 13810B00 		mv	sp,s7
 3037 0b1c 6F000024 		j	.L152
 3038              	.L182:
GAS LISTING /tmp/ccqYKUbi.s 			page 71


 3039              	.LVL323:
 145:tests/ConsumerProducer_CPP_Sync_API_test.hpp **** 
 3040              		.loc 2 145 5 discriminator 3
 145:tests/ConsumerProducer_CPP_Sync_API_test.hpp **** 
 3041              		.loc 2 145 33 is_stmt 0 discriminator 3
 3042 0b20 13050001 		li	a0,16
 3043 0b24 97000000 		call	_Znwm@plt
 3043      E7800000 
 3044              	.LVL324:
 3045              	.LEHE15:
 3046 0b2c 93040500 		mv	s1,a0
 3047              	.LVL325:
 3048 0b30 93050000 		li	a1,0
 3049              	.LEHB16:
 3050 0b34 97000000 		call	_ZN9SemaphoreC1Ej@plt
 3050      E7800000 
 3051              	.LVL326:
 3052              	.LEHE16:
 145:tests/ConsumerProducer_CPP_Sync_API_test.hpp **** 
 3053              		.loc 2 145 16 discriminator 3
 3054 0b3c 17070000 		lla	a4,.LANCHOR0
 3054      13070700 
 3055 0b44 233C9700 		sd	s1,24(a4)
 147:tests/ConsumerProducer_CPP_Sync_API_test.hpp ****     Thread* consumerThread;
 3056              		.loc 2 147 5 is_stmt 1 discriminator 3
 3057              	.LVL327:
 147:tests/ConsumerProducer_CPP_Sync_API_test.hpp ****     Thread* consumerThread;
 3058              		.loc 2 147 13 is_stmt 0 discriminator 3
 3059 0b48 93173900 		slli	a5,s2,3
 3060 0b4c 9387F700 		addi	a5,a5,15
 3061 0b50 93F707FF 		andi	a5,a5,-16
 3062 0b54 3301F140 		sub	sp,sp,a5
 3063 0b58 93090100 		mv	s3,sp
 3064              	.LVL328:
 148:tests/ConsumerProducer_CPP_Sync_API_test.hpp **** 
 3065              		.loc 2 148 5 is_stmt 1 discriminator 3
 150:tests/ConsumerProducer_CPP_Sync_API_test.hpp **** 
 3066              		.loc 2 150 5 discriminator 3
 150:tests/ConsumerProducer_CPP_Sync_API_test.hpp **** 
 3067              		.loc 2 150 39 is_stmt 0 discriminator 3
 3068 0b5c 9B061900 		addiw	a3,s2,1
 3069              	.LVL329:
 150:tests/ConsumerProducer_CPP_Sync_API_test.hpp **** 
 3070              		.loc 2 150 24 discriminator 3
 3071 0b60 93971600 		slli	a5,a3,1
 3072 0b64 B387D700 		add	a5,a5,a3
 3073 0b68 93973700 		slli	a5,a5,3
 3074 0b6c 9387F700 		addi	a5,a5,15
 3075 0b70 93F707FF 		andi	a5,a5,-16
 3076 0b74 3301F140 		sub	sp,sp,a5
 3077              	.LVL330:
 3078 0b78 130A0100 		mv	s4,sp
 3079              	.LVL331:
 152:tests/ConsumerProducer_CPP_Sync_API_test.hpp ****     data[threadNum].buffer = buffer;
 3080              		.loc 2 152 5 is_stmt 1 discriminator 3
 152:tests/ConsumerProducer_CPP_Sync_API_test.hpp ****     data[threadNum].buffer = buffer;
 3081              		.loc 2 152 24 is_stmt 0 discriminator 3
GAS LISTING /tmp/ccqYKUbi.s 			page 72


 3082 0b7c 93141900 		slli	s1,s2,1
 3083 0b80 B3872401 		add	a5,s1,s2
 3084 0b84 93973700 		slli	a5,a5,3
 3085 0b88 B307FA00 		add	a5,s4,a5
 3086 0b8c 23A02701 		sw	s2,0(a5)
 153:tests/ConsumerProducer_CPP_Sync_API_test.hpp ****     data[threadNum].wait = waitForAll;
 3087              		.loc 2 153 5 is_stmt 1 discriminator 3
 153:tests/ConsumerProducer_CPP_Sync_API_test.hpp ****     data[threadNum].wait = waitForAll;
 3088              		.loc 2 153 28 is_stmt 0 discriminator 3
 3089 0b90 23B45701 		sd	s5,8(a5)
 154:tests/ConsumerProducer_CPP_Sync_API_test.hpp ****     consumerThread = new Consumer(data+threadNum);
 3090              		.loc 2 154 5 is_stmt 1 discriminator 3
 154:tests/ConsumerProducer_CPP_Sync_API_test.hpp ****     consumerThread = new Consumer(data+threadNum);
 3091              		.loc 2 154 26 is_stmt 0 discriminator 3
 3092 0b94 03378701 		ld	a4,24(a4)
 3093 0b98 23B8E700 		sd	a4,16(a5)
 155:tests/ConsumerProducer_CPP_Sync_API_test.hpp ****     consumerThread->start();
 3094              		.loc 2 155 5 is_stmt 1 discriminator 3
 155:tests/ConsumerProducer_CPP_Sync_API_test.hpp ****     consumerThread->start();
 3095              		.loc 2 155 49 is_stmt 0 discriminator 3
 3096 0b9c 13058001 		li	a0,24
 3097              	.LEHB17:
 3098 0ba0 97000000 		call	_Znwm@plt
 3098      E7800000 
 3099              	.LVL332:
 3100              	.LEHE17:
 3101 0ba8 130B0500 		mv	s6,a0
 155:tests/ConsumerProducer_CPP_Sync_API_test.hpp ****     consumerThread->start();
 3102              		.loc 2 155 39 discriminator 3
 3103 0bac B3842401 		add	s1,s1,s2
 3104 0bb0 93943400 		slli	s1,s1,3
 155:tests/ConsumerProducer_CPP_Sync_API_test.hpp ****     consumerThread->start();
 3105              		.loc 2 155 49 discriminator 3
 3106 0bb4 B3049A00 		add	s1,s4,s1
 3107              	.LVL333:
 3108              	.LEHB18:
 3109              	.LBB132:
 3110              	.LBB133:
  84:tests/ConsumerProducer_CPP_Sync_API_test.hpp **** 
 3111              		.loc 2 84 48 discriminator 3
 3112 0bb8 97000000 		call	_ZN6ThreadC2Ev@plt
 3112      E7800000 
 3113              	.LVL334:
 3114              	.LEHE18:
  84:tests/ConsumerProducer_CPP_Sync_API_test.hpp **** 
 3115              		.loc 2 84 48
 3116 0bc0 97070000 		lla	a5,_ZTV8Consumer+16
 3116      93870700 
 3117 0bc8 2330FB00 		sd	a5,0(s6)
 3118 0bcc 23389B00 		sd	s1,16(s6)
 3119              	.LVL335:
 3120              	.LBE133:
 3121              	.LBE132:
 156:tests/ConsumerProducer_CPP_Sync_API_test.hpp **** 
 3122              		.loc 2 156 5 is_stmt 1
 156:tests/ConsumerProducer_CPP_Sync_API_test.hpp **** 
 3123              		.loc 2 156 26 is_stmt 0
GAS LISTING /tmp/ccqYKUbi.s 			page 73


 3124 0bd0 13050B00 		mv	a0,s6
 3125              	.LEHB19:
 3126 0bd4 97000000 		call	_ZN6Thread5startEv@plt
 3126      E7800000 
 3127              	.LVL336:
 3128              	.LBB134:
 158:tests/ConsumerProducer_CPP_Sync_API_test.hpp ****         data[i].id = i;
 3129              		.loc 2 158 14
 3130 0bdc 93040000 		li	s1,0
 3131 0be0 6F008003 		j	.L159
 3132              	.LVL337:
 3133              	.L183:
 3134              	.LBB135:
 3135              	.LBB136:
  57:tests/ConsumerProducer_CPP_Sync_API_test.hpp **** 
 3136              		.loc 2 57 48
 3137 0be4 97070000 		lla	a5,_ZTV8Producer+16
 3137      93870700 
 3138 0bec 23B0FC00 		sd	a5,0(s9)
 3139 0bf0 23B88C01 		sd	s8,16(s9)
 3140              	.LVL338:
 3141              	.LBE136:
 3142              	.LBE135:
 164:tests/ConsumerProducer_CPP_Sync_API_test.hpp ****         } else {
 3143              		.loc 2 164 24
 3144 0bf4 93973400 		slli	a5,s1,3
 3145 0bf8 B387F900 		add	a5,s3,a5
 3146 0bfc 23B09701 		sd	s9,0(a5)
 3147              	.L158:
 169:tests/ConsumerProducer_CPP_Sync_API_test.hpp ****     }
 3148              		.loc 2 169 9 is_stmt 1
 169:tests/ConsumerProducer_CPP_Sync_API_test.hpp ****     }
 3149              		.loc 2 169 18 is_stmt 0
 3150 0c00 93973400 		slli	a5,s1,3
 3151 0c04 B387F900 		add	a5,s3,a5
 169:tests/ConsumerProducer_CPP_Sync_API_test.hpp ****     }
 3152              		.loc 2 169 26
 3153 0c08 03B50700 		ld	a0,0(a5)
 3154 0c0c 97000000 		call	_ZN6Thread5startEv@plt
 3154      E7800000 
 3155              	.LVL339:
 158:tests/ConsumerProducer_CPP_Sync_API_test.hpp ****         data[i].id = i;
 3156              		.loc 2 158 5 is_stmt 1
 3157 0c14 9B841400 		addiw	s1,s1,1
 3158              	.LVL340:
 3159              	.L159:
 158:tests/ConsumerProducer_CPP_Sync_API_test.hpp ****         data[i].id = i;
 3160              		.loc 2 158 23 discriminator 1
 3161 0c18 63D0240B 		bge	s1,s2,.L156
 159:tests/ConsumerProducer_CPP_Sync_API_test.hpp ****         data[i].buffer = buffer;
 3162              		.loc 2 159 9
 159:tests/ConsumerProducer_CPP_Sync_API_test.hpp ****         data[i].buffer = buffer;
 3163              		.loc 2 159 20 is_stmt 0
 3164 0c1c 93971400 		slli	a5,s1,1
 3165 0c20 B3879700 		add	a5,a5,s1
 3166 0c24 93973700 		slli	a5,a5,3
 3167 0c28 B307FA00 		add	a5,s4,a5
GAS LISTING /tmp/ccqYKUbi.s 			page 74


 3168 0c2c 23A09700 		sw	s1,0(a5)
 160:tests/ConsumerProducer_CPP_Sync_API_test.hpp ****         data[i].wait = waitForAll;
 3169              		.loc 2 160 9 is_stmt 1
 160:tests/ConsumerProducer_CPP_Sync_API_test.hpp ****         data[i].wait = waitForAll;
 3170              		.loc 2 160 24 is_stmt 0
 3171 0c30 23B45701 		sd	s5,8(a5)
 161:tests/ConsumerProducer_CPP_Sync_API_test.hpp **** 
 3172              		.loc 2 161 9 is_stmt 1
 161:tests/ConsumerProducer_CPP_Sync_API_test.hpp **** 
 3173              		.loc 2 161 22 is_stmt 0
 3174 0c34 17070000 		ld	a4,.LANCHOR0+24
 3174      03370700 
 3175 0c3c 23B8E700 		sd	a4,16(a5)
 163:tests/ConsumerProducer_CPP_Sync_API_test.hpp ****             threads[i] = new Producer(data+i);
 3176              		.loc 2 163 9 is_stmt 1
 3177 0c40 63589002 		blez	s1,.L157
 164:tests/ConsumerProducer_CPP_Sync_API_test.hpp ****         } else {
 3178              		.loc 2 164 13
 164:tests/ConsumerProducer_CPP_Sync_API_test.hpp ****         } else {
 3179              		.loc 2 164 45 is_stmt 0
 3180 0c44 13058001 		li	a0,24
 3181 0c48 97000000 		call	_Znwm@plt
 3181      E7800000 
 3182              	.LVL341:
 3183              	.LEHE19:
 3184 0c50 930C0500 		mv	s9,a0
 164:tests/ConsumerProducer_CPP_Sync_API_test.hpp ****         } else {
 3185              		.loc 2 164 43
 3186 0c54 139C1400 		slli	s8,s1,1
 3187 0c58 330C9C00 		add	s8,s8,s1
 3188 0c5c 131C3C00 		slli	s8,s8,3
 164:tests/ConsumerProducer_CPP_Sync_API_test.hpp ****         } else {
 3189              		.loc 2 164 45
 3190 0c60 330C8A01 		add	s8,s4,s8
 3191              	.LVL342:
 3192              	.LEHB20:
 3193              	.LBB138:
 3194              	.LBB137:
  57:tests/ConsumerProducer_CPP_Sync_API_test.hpp **** 
 3195              		.loc 2 57 48
 3196 0c64 97000000 		call	_ZN6ThreadC2Ev@plt
 3196      E7800000 
 3197              	.LVL343:
 3198              	.LEHE20:
 3199 0c6c 6FF09FF7 		j	.L183
 3200              	.LVL344:
 3201              	.L157:
 3202              	.LBE137:
 3203              	.LBE138:
 166:tests/ConsumerProducer_CPP_Sync_API_test.hpp ****         }
 3204              		.loc 2 166 13 is_stmt 1
 166:tests/ConsumerProducer_CPP_Sync_API_test.hpp ****         }
 3205              		.loc 2 166 53 is_stmt 0
 3206 0c70 13058001 		li	a0,24
 3207              	.LEHB21:
 3208 0c74 97000000 		call	_Znwm@plt
 3208      E7800000 
GAS LISTING /tmp/ccqYKUbi.s 			page 75


 3209              	.LVL345:
 3210              	.LEHE21:
 3211 0c7c 930C0500 		mv	s9,a0
 166:tests/ConsumerProducer_CPP_Sync_API_test.hpp ****         }
 3212              		.loc 2 166 51
 3213 0c80 139C1400 		slli	s8,s1,1
 3214 0c84 330C9C00 		add	s8,s8,s1
 3215 0c88 131C3C00 		slli	s8,s8,3
 166:tests/ConsumerProducer_CPP_Sync_API_test.hpp ****         }
 3216              		.loc 2 166 53
 3217 0c8c 330C8A01 		add	s8,s4,s8
 3218              	.LVL346:
 3219              	.LEHB22:
 3220              	.LBB139:
 3221              	.LBB140:
  26:tests/ConsumerProducer_CPP_Sync_API_test.hpp **** 
 3222              		.loc 2 26 56
 3223 0c90 97000000 		call	_ZN6ThreadC2Ev@plt
 3223      E7800000 
 3224              	.LVL347:
 3225              	.LEHE22:
 3226 0c98 97070000 		lla	a5,_ZTV16ProducerKeyboard+16
 3226      93870700 
 3227 0ca0 23B0FC00 		sd	a5,0(s9)
 3228 0ca4 23B88C01 		sd	s8,16(s9)
 3229              	.LVL348:
 3230              	.LBE140:
 3231              	.LBE139:
 166:tests/ConsumerProducer_CPP_Sync_API_test.hpp ****         }
 3232              		.loc 2 166 24
 3233 0ca8 93973400 		slli	a5,s1,3
 3234 0cac B387F900 		add	a5,s3,a5
 3235 0cb0 23B09701 		sd	s9,0(a5)
 3236 0cb4 6FF0DFF4 		j	.L158
 3237              	.L156:
 3238              	.LBE134:
 172:tests/ConsumerProducer_CPP_Sync_API_test.hpp **** 
 3239              		.loc 2 172 5 is_stmt 1
 3240              	.LEHB23:
 172:tests/ConsumerProducer_CPP_Sync_API_test.hpp **** 
 3241              		.loc 2 172 21 is_stmt 0
 3242 0cb8 97000000 		call	_ZN6Thread8dispatchEv@plt
 3242      E7800000 
 3243              	.LVL349:
 3244              	.LBB141:
 174:tests/ConsumerProducer_CPP_Sync_API_test.hpp ****         waitForAll->wait();
 3245              		.loc 2 174 14
 3246 0cc0 93040000 		li	s1,0
 3247              	.LVL350:
 3248              	.L161:
 174:tests/ConsumerProducer_CPP_Sync_API_test.hpp ****         waitForAll->wait();
 3249              		.loc 2 174 23 is_stmt 1 discriminator 1
 3250 0cc4 634E9900 		bgt	s1,s2,.L173
 175:tests/ConsumerProducer_CPP_Sync_API_test.hpp ****     }
 3251              		.loc 2 175 9
 175:tests/ConsumerProducer_CPP_Sync_API_test.hpp ****     }
 3252              		.loc 2 175 25 is_stmt 0
GAS LISTING /tmp/ccqYKUbi.s 			page 76


 3253 0cc8 17050000 		ld	a0,.LANCHOR0+24
 3253      03350500 
 3254 0cd0 97000000 		call	_ZN9Semaphore4waitEv@plt
 3254      E7800000 
 3255              	.LVL351:
 174:tests/ConsumerProducer_CPP_Sync_API_test.hpp ****         waitForAll->wait();
 3256              		.loc 2 174 5 is_stmt 1
 3257 0cd8 9B841400 		addiw	s1,s1,1
 3258              	.LVL352:
 3259 0cdc 6FF09FFE 		j	.L161
 3260              	.LVL353:
 3261              	.L173:
 3262              	.LBE141:
 3263              	.LBB142:
 178:tests/ConsumerProducer_CPP_Sync_API_test.hpp ****         delete threads[i];
 3264              		.loc 2 178 14 is_stmt 0
 3265 0ce0 93040000 		li	s1,0
 3266              	.LVL354:
 3267 0ce4 6F008000 		j	.L160
 3268              	.LVL355:
 3269              	.L163:
 178:tests/ConsumerProducer_CPP_Sync_API_test.hpp ****         delete threads[i];
 3270              		.loc 2 178 5 is_stmt 1 discriminator 2
 3271 0ce8 9B841400 		addiw	s1,s1,1
 3272              	.LVL356:
 3273              	.L160:
 178:tests/ConsumerProducer_CPP_Sync_API_test.hpp ****         delete threads[i];
 3274              		.loc 2 178 23 discriminator 1
 3275 0cec 63D22403 		bge	s1,s2,.L162
 179:tests/ConsumerProducer_CPP_Sync_API_test.hpp ****     }
 3276              		.loc 2 179 9
 179:tests/ConsumerProducer_CPP_Sync_API_test.hpp ****     }
 3277              		.loc 2 179 25 is_stmt 0
 3278 0cf0 93973400 		slli	a5,s1,3
 3279 0cf4 B387F900 		add	a5,s3,a5
 3280 0cf8 03B50700 		ld	a0,0(a5)
 179:tests/ConsumerProducer_CPP_Sync_API_test.hpp ****     }
 3281              		.loc 2 179 26
 3282 0cfc E30605FE 		beqz	a0,.L163
 179:tests/ConsumerProducer_CPP_Sync_API_test.hpp ****     }
 3283              		.loc 2 179 25 discriminator 1
 3284 0d00 83370500 		ld	a5,0(a0)
 3285 0d04 83B78700 		ld	a5,8(a5)
 3286 0d08 E7800700 		jalr	a5
 3287              	.LVL357:
 3288 0d0c 6FF0DFFD 		j	.L163
 3289              	.L162:
 3290              	.LBE142:
 181:tests/ConsumerProducer_CPP_Sync_API_test.hpp ****     delete waitForAll;
 3291              		.loc 2 181 5 is_stmt 1
 181:tests/ConsumerProducer_CPP_Sync_API_test.hpp ****     delete waitForAll;
 3292              		.loc 2 181 26 is_stmt 0
 3293 0d10 630A0B00 		beqz	s6,.L164
 181:tests/ConsumerProducer_CPP_Sync_API_test.hpp ****     delete waitForAll;
 3294              		.loc 2 181 12 discriminator 1
 3295 0d14 83370B00 		ld	a5,0(s6)
 3296 0d18 83B78700 		ld	a5,8(a5)
GAS LISTING /tmp/ccqYKUbi.s 			page 77


 3297 0d1c 13050B00 		mv	a0,s6
 3298 0d20 E7800700 		jalr	a5
 3299              	.LVL358:
 3300              	.L164:
 182:tests/ConsumerProducer_CPP_Sync_API_test.hpp ****     delete buffer;
 3301              		.loc 2 182 5 is_stmt 1
 182:tests/ConsumerProducer_CPP_Sync_API_test.hpp ****     delete buffer;
 3302              		.loc 2 182 12 is_stmt 0
 3303 0d24 17050000 		ld	a0,.LANCHOR0+24
 3303      03350500 
 182:tests/ConsumerProducer_CPP_Sync_API_test.hpp ****     delete buffer;
 3304              		.loc 2 182 22
 3305 0d2c 63080500 		beqz	a0,.L165
 182:tests/ConsumerProducer_CPP_Sync_API_test.hpp ****     delete buffer;
 3306              		.loc 2 182 12 discriminator 1
 3307 0d30 83370500 		ld	a5,0(a0)
 3308 0d34 83B78700 		ld	a5,8(a5)
 3309 0d38 E7800700 		jalr	a5
 3310              	.LVL359:
 3311              	.L165:
 3312              		.loc 2 183 5 is_stmt 1
 3313              		.loc 2 183 18 is_stmt 0
 3314 0d3c 638E0A00 		beqz	s5,.L166
 3315              		.loc 2 183 12 discriminator 1
 3316 0d40 13850A00 		mv	a0,s5
 3317 0d44 97000000 		call	_ZN9BufferCPPD1Ev@plt
 3317      E7800000 
 3318              	.LVL360:
 3319 0d4c 13850A00 		mv	a0,s5
 3320 0d50 97000000 		call	_ZdlPv@plt
 3320      E7800000 
 3321              	.LVL361:
 3322              	.LEHE23:
 3323              	.L166:
 3324 0d58 13810B00 		mv	sp,s7
 3325              	.LVL362:
 3326              	.L152:
 184:tests/ConsumerProducer_CPP_Sync_API_test.hpp **** 
 185:tests/ConsumerProducer_CPP_Sync_API_test.hpp **** }
 3327              		.loc 2 185 1
 3328 0d5c 130104F8 		addi	sp,s0,-128
 3329              		.cfi_remember_state
 3330              		.cfi_def_cfa 2, 128
 3331 0d60 83308107 		ld	ra,120(sp)
 3332              		.cfi_restore 1
 3333 0d64 03340107 		ld	s0,112(sp)
 3334              		.cfi_restore 8
 3335 0d68 83348106 		ld	s1,104(sp)
 3336              		.cfi_restore 9
 3337 0d6c 03390106 		ld	s2,96(sp)
 3338              		.cfi_restore 18
 3339              	.LVL363:
 3340 0d70 83398105 		ld	s3,88(sp)
 3341              		.cfi_restore 19
 3342 0d74 033A0105 		ld	s4,80(sp)
 3343              		.cfi_restore 20
 3344 0d78 833A8104 		ld	s5,72(sp)
GAS LISTING /tmp/ccqYKUbi.s 			page 78


 3345              		.cfi_restore 21
 3346 0d7c 033B0104 		ld	s6,64(sp)
 3347              		.cfi_restore 22
 3348 0d80 833B8103 		ld	s7,56(sp)
 3349              		.cfi_restore 23
 3350 0d84 033C0103 		ld	s8,48(sp)
 3351              		.cfi_restore 24
 3352 0d88 833C8102 		ld	s9,40(sp)
 3353              		.cfi_restore 25
 3354 0d8c 13010108 		addi	sp,sp,128
 3355              		.cfi_def_cfa_offset 0
 3356 0d90 67800000 		jr	ra
 3357              	.LVL364:
 3358              	.L174:
 3359              		.cfi_restore_state
 3360 0d94 93040500 		mv	s1,a0
 3361              	.LVL365:
 143:tests/ConsumerProducer_CPP_Sync_API_test.hpp **** 
 3362              		.loc 2 143 40
 3363 0d98 13850A00 		mv	a0,s5
 3364 0d9c 97000000 		call	_ZdlPv@plt
 3364      E7800000 
 3365              	.LVL366:
 3366 0da4 13850400 		mv	a0,s1
 3367              	.LEHB24:
 3368 0da8 97000000 		call	_Unwind_Resume@plt
 3368      E7800000 
 3369              	.LVL367:
 3370              	.LEHE24:
 3371              	.L175:
 3372 0db0 13090500 		mv	s2,a0
 3373              	.LVL368:
 145:tests/ConsumerProducer_CPP_Sync_API_test.hpp **** 
 3374              		.loc 2 145 33
 3375 0db4 13850400 		mv	a0,s1
 3376 0db8 97000000 		call	_ZdlPv@plt
 3376      E7800000 
 3377              	.LVL369:
 3378 0dc0 13050900 		mv	a0,s2
 3379              	.LEHB25:
 3380 0dc4 97000000 		call	_Unwind_Resume@plt
 3380      E7800000 
 3381              	.LVL370:
 3382              	.LEHE25:
 3383              	.L176:
 3384 0dcc 93040500 		mv	s1,a0
 3385              	.LVL371:
 155:tests/ConsumerProducer_CPP_Sync_API_test.hpp ****     consumerThread->start();
 3386              		.loc 2 155 49
 3387 0dd0 13050B00 		mv	a0,s6
 3388 0dd4 97000000 		call	_ZdlPv@plt
 3388      E7800000 
 3389              	.LVL372:
 3390 0ddc 13850400 		mv	a0,s1
 3391              	.LEHB26:
 3392 0de0 97000000 		call	_Unwind_Resume@plt
 3392      E7800000 
GAS LISTING /tmp/ccqYKUbi.s 			page 79


 3393              	.LVL373:
 3394              	.LEHE26:
 3395              	.L177:
 3396 0de8 93040500 		mv	s1,a0
 3397              	.LVL374:
 3398              	.LBB143:
 164:tests/ConsumerProducer_CPP_Sync_API_test.hpp ****         } else {
 3399              		.loc 2 164 45
 3400 0dec 13850C00 		mv	a0,s9
 3401 0df0 97000000 		call	_ZdlPv@plt
 3401      E7800000 
 3402              	.LVL375:
 3403 0df8 13850400 		mv	a0,s1
 3404              	.LEHB27:
 3405 0dfc 97000000 		call	_Unwind_Resume@plt
 3405      E7800000 
 3406              	.LVL376:
 3407              	.LEHE27:
 3408              	.L178:
 3409 0e04 93040500 		mv	s1,a0
 3410              	.LVL377:
 166:tests/ConsumerProducer_CPP_Sync_API_test.hpp ****         }
 3411              		.loc 2 166 53
 3412 0e08 13850C00 		mv	a0,s9
 3413 0e0c 97000000 		call	_ZdlPv@plt
 3413      E7800000 
 3414              	.LVL378:
 3415 0e14 13850400 		mv	a0,s1
 3416              	.LEHB28:
 3417 0e18 97000000 		call	_Unwind_Resume@plt
 3417      E7800000 
 3418              	.LVL379:
 3419              	.LEHE28:
 3420              	.LBE143:
 3421              		.cfi_endproc
 3422              	.LFE51:
 3423              		.section	.gcc_except_table
 3424              	.LLSDA51:
 3425 00ae FF       		.byte	0xff
 3426 00af FF       		.byte	0xff
 3427 00b0 03       		.byte	0x3
 3428 00b1 D001     		.byte	0xd0,0x1
 3429 00b3 00000000 		.4byte	.LEHB13-.LFB51
 3430 00b7 00000000 		.4byte	.LEHE13-.LEHB13
 3431 00bb 00000000 		.4byte	0
 3432 00bf 00       		.byte	0
 3433 00c0 00000000 		.4byte	.LEHB14-.LFB51
 3434 00c4 00000000 		.4byte	.LEHE14-.LEHB14
 3435 00c8 00000000 		.4byte	.L174-.LFB51
 3436 00cc 00       		.byte	0
 3437 00cd 00000000 		.4byte	.LEHB15-.LFB51
 3438 00d1 00000000 		.4byte	.LEHE15-.LEHB15
 3439 00d5 00000000 		.4byte	0
 3440 00d9 00       		.byte	0
 3441 00da 00000000 		.4byte	.LEHB16-.LFB51
 3442 00de 00000000 		.4byte	.LEHE16-.LEHB16
 3443 00e2 00000000 		.4byte	.L175-.LFB51
GAS LISTING /tmp/ccqYKUbi.s 			page 80


 3444 00e6 00       		.byte	0
 3445 00e7 00000000 		.4byte	.LEHB17-.LFB51
 3446 00eb 00000000 		.4byte	.LEHE17-.LEHB17
 3447 00ef 00000000 		.4byte	0
 3448 00f3 00       		.byte	0
 3449 00f4 00000000 		.4byte	.LEHB18-.LFB51
 3450 00f8 00000000 		.4byte	.LEHE18-.LEHB18
 3451 00fc 00000000 		.4byte	.L176-.LFB51
 3452 0100 00       		.byte	0
 3453 0101 00000000 		.4byte	.LEHB19-.LFB51
 3454 0105 00000000 		.4byte	.LEHE19-.LEHB19
 3455 0109 00000000 		.4byte	0
 3456 010d 00       		.byte	0
 3457 010e 00000000 		.4byte	.LEHB20-.LFB51
 3458 0112 00000000 		.4byte	.LEHE20-.LEHB20
 3459 0116 00000000 		.4byte	.L177-.LFB51
 3460 011a 00       		.byte	0
 3461 011b 00000000 		.4byte	.LEHB21-.LFB51
 3462 011f 00000000 		.4byte	.LEHE21-.LEHB21
 3463 0123 00000000 		.4byte	0
 3464 0127 00       		.byte	0
 3465 0128 00000000 		.4byte	.LEHB22-.LFB51
 3466 012c 00000000 		.4byte	.LEHE22-.LEHB22
 3467 0130 00000000 		.4byte	.L178-.LFB51
 3468 0134 00       		.byte	0
 3469 0135 00000000 		.4byte	.LEHB23-.LFB51
 3470 0139 00000000 		.4byte	.LEHE23-.LEHB23
 3471 013d 00000000 		.4byte	0
 3472 0141 00       		.byte	0
 3473 0142 00000000 		.4byte	.LEHB24-.LFB51
 3474 0146 00000000 		.4byte	.LEHE24-.LEHB24
 3475 014a 00000000 		.4byte	0
 3476 014e 00       		.byte	0
 3477 014f 00000000 		.4byte	.LEHB25-.LFB51
 3478 0153 00000000 		.4byte	.LEHE25-.LEHB25
 3479 0157 00000000 		.4byte	0
 3480 015b 00       		.byte	0
 3481 015c 00000000 		.4byte	.LEHB26-.LFB51
 3482 0160 00000000 		.4byte	.LEHE26-.LEHB26
 3483 0164 00000000 		.4byte	0
 3484 0168 00       		.byte	0
 3485 0169 00000000 		.4byte	.LEHB27-.LFB51
 3486 016d 00000000 		.4byte	.LEHE27-.LEHB27
 3487 0171 00000000 		.4byte	0
 3488 0175 00       		.byte	0
 3489 0176 00000000 		.4byte	.LEHB28-.LFB51
 3490 017a 00000000 		.4byte	.LEHE28-.LEHB28
 3491 017e 00000000 		.4byte	0
 3492 0182 00       		.byte	0
 3493              		.text
 3495              		.align	2
 3496              		.globl	_Z12testSleepingv
 3498              	_Z12testSleepingv:
 3499              	.LFB53:
  26:tests/ThreadSleep_C_API_test.hpp **** 
  27:tests/ThreadSleep_C_API_test.hpp **** void testSleeping() {
 3500              		.loc 4 27 21 is_stmt 1
GAS LISTING /tmp/ccqYKUbi.s 			page 81


 3501              		.cfi_startproc
 3502 0e20 130101FC 		addi	sp,sp,-64
 3503              		.cfi_def_cfa_offset 64
 3504 0e24 233C1102 		sd	ra,56(sp)
 3505 0e28 23388102 		sd	s0,48(sp)
 3506 0e2c 23349102 		sd	s1,40(sp)
 3507              		.cfi_offset 1, -8
 3508              		.cfi_offset 8, -16
 3509              		.cfi_offset 9, -24
 3510 0e30 13040104 		addi	s0,sp,64
 3511              		.cfi_def_cfa 8, 0
  28:tests/ThreadSleep_C_API_test.hpp ****     const int sleepy_thread_count = 2;
 3512              		.loc 4 28 5
 3513              	.LVL380:
  29:tests/ThreadSleep_C_API_test.hpp ****     time_t sleep_times[sleepy_thread_count] = {10, 20};
 3514              		.loc 4 29 5
 3515              		.loc 4 29 12 is_stmt 0
 3516 0e34 9307A000 		li	a5,10
 3517 0e38 2338F4FC 		sd	a5,-48(s0)
 3518 0e3c 93074001 		li	a5,20
 3519 0e40 233CF4FC 		sd	a5,-40(s0)
  30:tests/ThreadSleep_C_API_test.hpp ****     thread_t sleepyThread[sleepy_thread_count];
 3520              		.loc 4 30 5 is_stmt 1
  31:tests/ThreadSleep_C_API_test.hpp **** 
  32:tests/ThreadSleep_C_API_test.hpp ****     for (int i = 0; i < sleepy_thread_count; i++) {
 3521              		.loc 4 32 5
 3522              	.LVL381:
 3523              	.LBB144:
 3524              		.loc 4 32 14 is_stmt 0
 3525 0e44 93040000 		li	s1,0
 3526 0e48 6F00C002 		j	.L186
 3527              	.LVL382:
 3528              	.L189:
  33:tests/ThreadSleep_C_API_test.hpp ****         thread_create(&sleepyThread[i], sleepyRun, sleep_times + i);
 3529              		.loc 4 33 9 is_stmt 1
 3530              		.loc 4 33 64 is_stmt 0
 3531 0e4c 93973400 		slli	a5,s1,3
 3532              		.loc 4 33 22
 3533 0e50 130604FD 		addi	a2,s0,-48
 3534 0e54 3306F600 		add	a2,a2,a5
 3535 0e58 97050000 		lla	a1,_Z9sleepyRunPv
 3535      93850500 
 3536 0e60 130504FC 		addi	a0,s0,-64
 3537 0e64 3305F500 		add	a0,a0,a5
 3538 0e68 97000000 		call	_Z13thread_createPP7_threadPFvPvES2_@plt
 3538      E7800000 
 3539              	.LVL383:
  32:tests/ThreadSleep_C_API_test.hpp ****         thread_create(&sleepyThread[i], sleepyRun, sleep_times + i);
 3540              		.loc 4 32 5 is_stmt 1
 3541 0e70 9B841400 		addiw	s1,s1,1
 3542              	.LVL384:
 3543              	.L186:
  32:tests/ThreadSleep_C_API_test.hpp ****         thread_create(&sleepyThread[i], sleepyRun, sleep_times + i);
 3544              		.loc 4 32 23 discriminator 1
 3545 0e74 93071000 		li	a5,1
 3546 0e78 E3DA97FC 		ble	s1,a5,.L189
 3547              	.L187:
GAS LISTING /tmp/ccqYKUbi.s 			page 82


 3548              	.LBE144:
  34:tests/ThreadSleep_C_API_test.hpp ****     }
  35:tests/ThreadSleep_C_API_test.hpp **** 
  36:tests/ThreadSleep_C_API_test.hpp ****     while (!(finished[0] && finished[1])) {}
 3549              		.loc 4 36 5
 3550              		.loc 4 36 12
 3551              		.loc 4 36 24 is_stmt 0
 3552 0e7c 97070000 		lbu	a5,.LANCHOR0+8
 3552      83C70700 
 3553              		.loc 4 36 12
 3554 0e84 E38C07FE 		beqz	a5,.L187
 3555              		.loc 4 36 39 discriminator 1
 3556 0e88 97070000 		lbu	a5,.LANCHOR0+9
 3556      83C70700 
 3557              		.loc 4 36 12 discriminator 1
 3558 0e90 E38607FE 		beqz	a5,.L187
  37:tests/ThreadSleep_C_API_test.hpp **** }
 3559              		.loc 4 37 1
 3560 0e94 83308103 		ld	ra,56(sp)
 3561              		.cfi_restore 1
 3562 0e98 03340103 		ld	s0,48(sp)
 3563              		.cfi_restore 8
 3564              		.cfi_def_cfa 2, 64
 3565 0e9c 83348102 		ld	s1,40(sp)
 3566              		.cfi_restore 9
 3567              	.LVL385:
 3568 0ea0 13010104 		addi	sp,sp,64
 3569              		.cfi_def_cfa_offset 0
 3570 0ea4 67800000 		jr	ra
 3571              		.cfi_endproc
 3572              	.LFE53:
 3574              		.align	2
 3575              		.globl	_ZN19ConsumerProducerCPP20testConsumerProducerEv
 3577              	_ZN19ConsumerProducerCPP20testConsumerProducerEv:
 3578              	.LFB66:
  87:tests/ConsumerProducer_CPP_API_test.hpp ****     };
  88:tests/ConsumerProducer_CPP_API_test.hpp **** 
  89:tests/ConsumerProducer_CPP_API_test.hpp ****     void testConsumerProducer() {
 3579              		.loc 3 89 33 is_stmt 1
 3580              		.cfi_startproc
 3581              		.cfi_personality 0x9b,DW.ref.__gxx_personality_v0
 3582              		.cfi_lsda 0x1b,.LLSDA66
 3583 0ea8 130101F8 		addi	sp,sp,-128
 3584              		.cfi_def_cfa_offset 128
 3585 0eac 233C1106 		sd	ra,120(sp)
 3586 0eb0 23388106 		sd	s0,112(sp)
 3587 0eb4 23349106 		sd	s1,104(sp)
 3588 0eb8 23302107 		sd	s2,96(sp)
 3589 0ebc 233C3105 		sd	s3,88(sp)
 3590 0ec0 23384105 		sd	s4,80(sp)
 3591 0ec4 23345105 		sd	s5,72(sp)
 3592 0ec8 23306105 		sd	s6,64(sp)
 3593 0ecc 233C7103 		sd	s7,56(sp)
 3594 0ed0 23388103 		sd	s8,48(sp)
 3595 0ed4 23349103 		sd	s9,40(sp)
 3596              		.cfi_offset 1, -8
 3597              		.cfi_offset 8, -16
GAS LISTING /tmp/ccqYKUbi.s 			page 83


 3598              		.cfi_offset 9, -24
 3599              		.cfi_offset 18, -32
 3600              		.cfi_offset 19, -40
 3601              		.cfi_offset 20, -48
 3602              		.cfi_offset 21, -56
 3603              		.cfi_offset 22, -64
 3604              		.cfi_offset 23, -72
 3605              		.cfi_offset 24, -80
 3606              		.cfi_offset 25, -88
 3607 0ed8 13040108 		addi	s0,sp,128
 3608              		.cfi_def_cfa 8, 0
  90:tests/ConsumerProducer_CPP_API_test.hpp ****         char input[30];
  91:tests/ConsumerProducer_CPP_API_test.hpp ****         int n, threadNum;
  92:tests/ConsumerProducer_CPP_API_test.hpp **** 
  93:tests/ConsumerProducer_CPP_API_test.hpp ****         printString("Unesite broj proizvodjaca?\n");
  94:tests/ConsumerProducer_CPP_API_test.hpp ****         getString(input, 30);
  95:tests/ConsumerProducer_CPP_API_test.hpp ****         threadNum = stringToInt(input);
  96:tests/ConsumerProducer_CPP_API_test.hpp **** 
  97:tests/ConsumerProducer_CPP_API_test.hpp ****         printString("Unesite velicinu bafera?\n");
  98:tests/ConsumerProducer_CPP_API_test.hpp ****         getString(input, 30);
  99:tests/ConsumerProducer_CPP_API_test.hpp ****         n = stringToInt(input);
 100:tests/ConsumerProducer_CPP_API_test.hpp **** 
 101:tests/ConsumerProducer_CPP_API_test.hpp ****         printString("Broj proizvodjaca "); printInt(threadNum);
 102:tests/ConsumerProducer_CPP_API_test.hpp ****         printString(" i velicina bafera "); printInt(n);
 103:tests/ConsumerProducer_CPP_API_test.hpp ****         printString(".\n");
 104:tests/ConsumerProducer_CPP_API_test.hpp **** 
 105:tests/ConsumerProducer_CPP_API_test.hpp ****         if(threadNum > n) {
 106:tests/ConsumerProducer_CPP_API_test.hpp ****             printString("Broj proizvodjaca ne sme biti manji od velicine bafera!\n");
 107:tests/ConsumerProducer_CPP_API_test.hpp ****             return;
 108:tests/ConsumerProducer_CPP_API_test.hpp ****         } else if (threadNum < 1) {
 109:tests/ConsumerProducer_CPP_API_test.hpp ****             printString("Broj proizvodjaca mora biti veci od nula!\n");
 110:tests/ConsumerProducer_CPP_API_test.hpp ****             return;
 111:tests/ConsumerProducer_CPP_API_test.hpp ****         }
 112:tests/ConsumerProducer_CPP_API_test.hpp **** 
 113:tests/ConsumerProducer_CPP_API_test.hpp ****         BufferCPP *buffer = new BufferCPP(n);
 114:tests/ConsumerProducer_CPP_API_test.hpp **** 
 115:tests/ConsumerProducer_CPP_API_test.hpp ****         waitForAll = new Semaphore(0);
 116:tests/ConsumerProducer_CPP_API_test.hpp ****         Thread *producers[threadNum];
 117:tests/ConsumerProducer_CPP_API_test.hpp ****         thread_data threadData[threadNum + 1];
 118:tests/ConsumerProducer_CPP_API_test.hpp **** 
 119:tests/ConsumerProducer_CPP_API_test.hpp ****         threadData[threadNum].id = threadNum;
 120:tests/ConsumerProducer_CPP_API_test.hpp ****         threadData[threadNum].buffer = buffer;
 121:tests/ConsumerProducer_CPP_API_test.hpp ****         threadData[threadNum].sem = waitForAll;
 122:tests/ConsumerProducer_CPP_API_test.hpp ****         Thread *consumer = new Consumer(&threadData[threadNum]);
 123:tests/ConsumerProducer_CPP_API_test.hpp ****         consumer->start();
 124:tests/ConsumerProducer_CPP_API_test.hpp **** 
 125:tests/ConsumerProducer_CPP_API_test.hpp ****         threadData[0].id = 0;
 126:tests/ConsumerProducer_CPP_API_test.hpp ****         threadData[0].buffer = buffer;
 127:tests/ConsumerProducer_CPP_API_test.hpp ****         threadData[0].sem = waitForAll;
 128:tests/ConsumerProducer_CPP_API_test.hpp ****         producers[0] = new ProducerKeyborad(&threadData[0]);
 129:tests/ConsumerProducer_CPP_API_test.hpp ****         producers[0]->start();
 130:tests/ConsumerProducer_CPP_API_test.hpp **** 
 131:tests/ConsumerProducer_CPP_API_test.hpp ****         for (int i = 1; i < threadNum; i++) {
 132:tests/ConsumerProducer_CPP_API_test.hpp ****             threadData[i].id = i;
 133:tests/ConsumerProducer_CPP_API_test.hpp ****             threadData[i].buffer = buffer;
 134:tests/ConsumerProducer_CPP_API_test.hpp ****             threadData[i].sem = waitForAll;
 135:tests/ConsumerProducer_CPP_API_test.hpp **** 
GAS LISTING /tmp/ccqYKUbi.s 			page 84


 136:tests/ConsumerProducer_CPP_API_test.hpp ****             producers[i] = new Producer(&threadData[i]);
 137:tests/ConsumerProducer_CPP_API_test.hpp ****             producers[i]->start();
 138:tests/ConsumerProducer_CPP_API_test.hpp **** 
 139:tests/ConsumerProducer_CPP_API_test.hpp ****         }
 140:tests/ConsumerProducer_CPP_API_test.hpp **** 
 141:tests/ConsumerProducer_CPP_API_test.hpp ****         Thread::dispatch();
 142:tests/ConsumerProducer_CPP_API_test.hpp **** 
 143:tests/ConsumerProducer_CPP_API_test.hpp ****         for (int i = 0; i <= threadNum; i++) {
 144:tests/ConsumerProducer_CPP_API_test.hpp ****             waitForAll->wait();
 145:tests/ConsumerProducer_CPP_API_test.hpp ****         }
 146:tests/ConsumerProducer_CPP_API_test.hpp **** 
 147:tests/ConsumerProducer_CPP_API_test.hpp ****         delete waitForAll;
 148:tests/ConsumerProducer_CPP_API_test.hpp ****         for (int i = 0; i < threadNum; i++) {
 149:tests/ConsumerProducer_CPP_API_test.hpp ****             delete producers[i];
 150:tests/ConsumerProducer_CPP_API_test.hpp ****         }
 151:tests/ConsumerProducer_CPP_API_test.hpp ****         delete consumer;
 152:tests/ConsumerProducer_CPP_API_test.hpp ****         delete buffer;
 3609              		.loc 3 152 22 is_stmt 0
 3610 0edc 130C0100 		mv	s8,sp
  90:tests/ConsumerProducer_CPP_API_test.hpp ****         char input[30];
 3611              		.loc 3 90 9 is_stmt 1
  91:tests/ConsumerProducer_CPP_API_test.hpp **** 
 3612              		.loc 3 91 9
  93:tests/ConsumerProducer_CPP_API_test.hpp ****         getString(input, 30);
 3613              		.loc 3 93 9
  93:tests/ConsumerProducer_CPP_API_test.hpp ****         getString(input, 30);
 3614              		.loc 3 93 20 is_stmt 0
 3615 0ee0 17050000 		lla	a0,.LC20
 3615      13050500 
 3616              	.LEHB29:
 3617 0ee8 97000000 		call	_Z11printStringPKc@plt
 3617      E7800000 
 3618              	.LVL386:
  94:tests/ConsumerProducer_CPP_API_test.hpp ****         threadNum = stringToInt(input);
 3619              		.loc 3 94 9 is_stmt 1
  94:tests/ConsumerProducer_CPP_API_test.hpp ****         threadNum = stringToInt(input);
 3620              		.loc 3 94 18 is_stmt 0
 3621 0ef0 9305E001 		li	a1,30
 3622 0ef4 930404F8 		addi	s1,s0,-128
 3623 0ef8 13850400 		mv	a0,s1
 3624 0efc 97000000 		call	_Z9getStringPci@plt
 3624      E7800000 
 3625              	.LVL387:
  95:tests/ConsumerProducer_CPP_API_test.hpp **** 
 3626              		.loc 3 95 9 is_stmt 1
  95:tests/ConsumerProducer_CPP_API_test.hpp **** 
 3627              		.loc 3 95 32 is_stmt 0
 3628 0f04 13850400 		mv	a0,s1
 3629 0f08 97000000 		call	_Z11stringToIntPKc@plt
 3629      E7800000 
 3630              	.LVL388:
 3631 0f10 93090500 		mv	s3,a0
 3632              	.LVL389:
  97:tests/ConsumerProducer_CPP_API_test.hpp ****         getString(input, 30);
 3633              		.loc 3 97 9 is_stmt 1
  97:tests/ConsumerProducer_CPP_API_test.hpp ****         getString(input, 30);
 3634              		.loc 3 97 20 is_stmt 0
GAS LISTING /tmp/ccqYKUbi.s 			page 85


 3635 0f14 17050000 		lla	a0,.LC21
 3635      13050500 
 3636 0f1c 97000000 		call	_Z11printStringPKc@plt
 3636      E7800000 
 3637              	.LVL390:
  98:tests/ConsumerProducer_CPP_API_test.hpp ****         n = stringToInt(input);
 3638              		.loc 3 98 9 is_stmt 1
  98:tests/ConsumerProducer_CPP_API_test.hpp ****         n = stringToInt(input);
 3639              		.loc 3 98 18 is_stmt 0
 3640 0f24 9305E001 		li	a1,30
 3641 0f28 13850400 		mv	a0,s1
 3642 0f2c 97000000 		call	_Z9getStringPci@plt
 3642      E7800000 
 3643              	.LVL391:
  99:tests/ConsumerProducer_CPP_API_test.hpp **** 
 3644              		.loc 3 99 9 is_stmt 1
  99:tests/ConsumerProducer_CPP_API_test.hpp **** 
 3645              		.loc 3 99 24 is_stmt 0
 3646 0f34 13850400 		mv	a0,s1
 3647 0f38 97000000 		call	_Z11stringToIntPKc@plt
 3647      E7800000 
 3648              	.LVL392:
 3649 0f40 93040500 		mv	s1,a0
 3650              	.LVL393:
 101:tests/ConsumerProducer_CPP_API_test.hpp ****         printString(" i velicina bafera "); printInt(n);
 3651              		.loc 3 101 9 is_stmt 1
 101:tests/ConsumerProducer_CPP_API_test.hpp ****         printString(" i velicina bafera "); printInt(n);
 3652              		.loc 3 101 20 is_stmt 0
 3653 0f44 17050000 		lla	a0,.LC22
 3653      13050500 
 3654 0f4c 97000000 		call	_Z11printStringPKc@plt
 3654      E7800000 
 3655              	.LVL394:
 101:tests/ConsumerProducer_CPP_API_test.hpp ****         printString(" i velicina bafera "); printInt(n);
 3656              		.loc 3 101 44 is_stmt 1
 101:tests/ConsumerProducer_CPP_API_test.hpp ****         printString(" i velicina bafera "); printInt(n);
 3657              		.loc 3 101 52 is_stmt 0
 3658 0f54 13060000 		li	a2,0
 3659 0f58 9305A000 		li	a1,10
 3660 0f5c 13850900 		mv	a0,s3
 3661 0f60 97000000 		call	_Z8printIntiii@plt
 3661      E7800000 
 3662              	.LVL395:
 102:tests/ConsumerProducer_CPP_API_test.hpp ****         printString(".\n");
 3663              		.loc 3 102 9 is_stmt 1
 102:tests/ConsumerProducer_CPP_API_test.hpp ****         printString(".\n");
 3664              		.loc 3 102 20 is_stmt 0
 3665 0f68 17050000 		lla	a0,.LC23
 3665      13050500 
 3666 0f70 97000000 		call	_Z11printStringPKc@plt
 3666      E7800000 
 3667              	.LVL396:
 102:tests/ConsumerProducer_CPP_API_test.hpp ****         printString(".\n");
 3668              		.loc 3 102 45 is_stmt 1
 102:tests/ConsumerProducer_CPP_API_test.hpp ****         printString(".\n");
 3669              		.loc 3 102 53 is_stmt 0
 3670 0f78 13060000 		li	a2,0
GAS LISTING /tmp/ccqYKUbi.s 			page 86


 3671 0f7c 9305A000 		li	a1,10
 3672 0f80 13850400 		mv	a0,s1
 3673 0f84 97000000 		call	_Z8printIntiii@plt
 3673      E7800000 
 3674              	.LVL397:
 103:tests/ConsumerProducer_CPP_API_test.hpp **** 
 3675              		.loc 3 103 9 is_stmt 1
 103:tests/ConsumerProducer_CPP_API_test.hpp **** 
 3676              		.loc 3 103 20 is_stmt 0
 3677 0f8c 17050000 		lla	a0,.LC24
 3677      13050500 
 3678 0f94 97000000 		call	_Z11printStringPKc@plt
 3678      E7800000 
 3679              	.LVL398:
 105:tests/ConsumerProducer_CPP_API_test.hpp ****             printString("Broj proizvodjaca ne sme biti manji od velicine bafera!\n");
 3680              		.loc 3 105 9 is_stmt 1
 3681 0f9c 63C43403 		bgt	s3,s1,.L216
 108:tests/ConsumerProducer_CPP_API_test.hpp ****             printString("Broj proizvodjaca mora biti veci od nula!\n");
 3682              		.loc 3 108 16
 3683 0fa0 635C3003 		blez	s3,.L217
 113:tests/ConsumerProducer_CPP_API_test.hpp **** 
 3684              		.loc 3 113 9
 113:tests/ConsumerProducer_CPP_API_test.hpp **** 
 3685              		.loc 3 113 44 is_stmt 0
 3686 0fa4 13058003 		li	a0,56
 3687 0fa8 97000000 		call	_Znwm@plt
 3687      E7800000 
 3688              	.LVL399:
 3689              	.LEHE29:
 3690 0fb0 930A0500 		mv	s5,a0
 3691 0fb4 93850400 		mv	a1,s1
 3692              	.LEHB30:
 3693 0fb8 97000000 		call	_ZN9BufferCPPC1Ei@plt
 3693      E7800000 
 3694              	.LVL400:
 3695              	.LEHE30:
 3696 0fc0 6F000003 		j	.L218
 3697              	.L216:
 106:tests/ConsumerProducer_CPP_API_test.hpp ****             return;
 3698              		.loc 3 106 13 is_stmt 1
 106:tests/ConsumerProducer_CPP_API_test.hpp ****             return;
 3699              		.loc 3 106 24 is_stmt 0
 3700 0fc4 17050000 		lla	a0,.LC25
 3700      13050500 
 3701              	.LEHB31:
 3702 0fcc 97000000 		call	_Z11printStringPKc@plt
 3702      E7800000 
 3703              	.LVL401:
 107:tests/ConsumerProducer_CPP_API_test.hpp ****         } else if (threadNum < 1) {
 3704              		.loc 3 107 13 is_stmt 1
 3705 0fd4 6F004001 		j	.L192
 3706              	.L217:
 109:tests/ConsumerProducer_CPP_API_test.hpp ****             return;
 3707              		.loc 3 109 13
 109:tests/ConsumerProducer_CPP_API_test.hpp ****             return;
 3708              		.loc 3 109 24 is_stmt 0
 3709 0fd8 17050000 		lla	a0,.LC26
GAS LISTING /tmp/ccqYKUbi.s 			page 87


 3709      13050500 
 3710 0fe0 97000000 		call	_Z11printStringPKc@plt
 3710      E7800000 
 3711              	.LVL402:
 110:tests/ConsumerProducer_CPP_API_test.hpp ****         }
 3712              		.loc 3 110 13 is_stmt 1
 3713              	.L192:
 3714 0fe8 13010C00 		mv	sp,s8
 3715 0fec 6F00C021 		j	.L190
 3716              	.L218:
 3717              	.LVL403:
 115:tests/ConsumerProducer_CPP_API_test.hpp ****         Thread *producers[threadNum];
 3718              		.loc 3 115 9 discriminator 3
 115:tests/ConsumerProducer_CPP_API_test.hpp ****         Thread *producers[threadNum];
 3719              		.loc 3 115 37 is_stmt 0 discriminator 3
 3720 0ff0 13050001 		li	a0,16
 3721 0ff4 97000000 		call	_Znwm@plt
 3721      E7800000 
 3722              	.LVL404:
 3723              	.LEHE31:
 3724 0ffc 93040500 		mv	s1,a0
 3725              	.LVL405:
 3726 1000 93050000 		li	a1,0
 3727              	.LEHB32:
 3728 1004 97000000 		call	_ZN9SemaphoreC1Ej@plt
 3728      E7800000 
 3729              	.LVL406:
 3730              	.LEHE32:
 115:tests/ConsumerProducer_CPP_API_test.hpp ****         Thread *producers[threadNum];
 3731              		.loc 3 115 20 discriminator 3
 3732 100c 17070000 		lla	a4,.LANCHOR0
 3732      13070700 
 3733 1014 23309702 		sd	s1,32(a4)
 116:tests/ConsumerProducer_CPP_API_test.hpp ****         thread_data threadData[threadNum + 1];
 3734              		.loc 3 116 9 is_stmt 1 discriminator 3
 3735              	.LVL407:
 116:tests/ConsumerProducer_CPP_API_test.hpp ****         thread_data threadData[threadNum + 1];
 3736              		.loc 3 116 17 is_stmt 0 discriminator 3
 3737 1018 93973900 		slli	a5,s3,3
 3738 101c 9387F700 		addi	a5,a5,15
 3739 1020 93F707FF 		andi	a5,a5,-16
 3740 1024 3301F140 		sub	sp,sp,a5
 3741 1028 130A0100 		mv	s4,sp
 3742              	.LVL408:
 117:tests/ConsumerProducer_CPP_API_test.hpp **** 
 3743              		.loc 3 117 9 is_stmt 1 discriminator 3
 117:tests/ConsumerProducer_CPP_API_test.hpp **** 
 3744              		.loc 3 117 42 is_stmt 0 discriminator 3
 3745 102c 9B861900 		addiw	a3,s3,1
 3746              	.LVL409:
 117:tests/ConsumerProducer_CPP_API_test.hpp **** 
 3747              		.loc 3 117 21 discriminator 3
 3748 1030 93971600 		slli	a5,a3,1
 3749 1034 B387D700 		add	a5,a5,a3
 3750 1038 93973700 		slli	a5,a5,3
 3751 103c 9387F700 		addi	a5,a5,15
 3752 1040 93F707FF 		andi	a5,a5,-16
GAS LISTING /tmp/ccqYKUbi.s 			page 88


 3753 1044 3301F140 		sub	sp,sp,a5
 3754              	.LVL410:
 3755 1048 130B0100 		mv	s6,sp
 3756              	.LVL411:
 119:tests/ConsumerProducer_CPP_API_test.hpp ****         threadData[threadNum].buffer = buffer;
 3757              		.loc 3 119 9 is_stmt 1 discriminator 3
 119:tests/ConsumerProducer_CPP_API_test.hpp ****         threadData[threadNum].buffer = buffer;
 3758              		.loc 3 119 34 is_stmt 0 discriminator 3
 3759 104c 93941900 		slli	s1,s3,1
 3760 1050 B3843401 		add	s1,s1,s3
 3761 1054 93943400 		slli	s1,s1,3
 3762 1058 B3049B00 		add	s1,s6,s1
 3763 105c 23A03401 		sw	s3,0(s1)
 120:tests/ConsumerProducer_CPP_API_test.hpp ****         threadData[threadNum].sem = waitForAll;
 3764              		.loc 3 120 9 is_stmt 1 discriminator 3
 120:tests/ConsumerProducer_CPP_API_test.hpp ****         threadData[threadNum].sem = waitForAll;
 3765              		.loc 3 120 38 is_stmt 0 discriminator 3
 3766 1060 23B45401 		sd	s5,8(s1)
 121:tests/ConsumerProducer_CPP_API_test.hpp ****         Thread *consumer = new Consumer(&threadData[threadNum]);
 3767              		.loc 3 121 9 is_stmt 1 discriminator 3
 121:tests/ConsumerProducer_CPP_API_test.hpp ****         Thread *consumer = new Consumer(&threadData[threadNum]);
 3768              		.loc 3 121 35 is_stmt 0 discriminator 3
 3769 1064 83370702 		ld	a5,32(a4)
 3770 1068 23B8F400 		sd	a5,16(s1)
 122:tests/ConsumerProducer_CPP_API_test.hpp ****         consumer->start();
 3771              		.loc 3 122 9 is_stmt 1 discriminator 3
 122:tests/ConsumerProducer_CPP_API_test.hpp ****         consumer->start();
 3772              		.loc 3 122 63 is_stmt 0 discriminator 3
 3773 106c 13058001 		li	a0,24
 3774              	.LEHB33:
 3775 1070 97000000 		call	_Znwm@plt
 3775      E7800000 
 3776              	.LVL412:
 3777              	.LEHE33:
 3778 1078 930B0500 		mv	s7,a0
 3779              	.LVL413:
 3780              	.LEHB34:
 3781              	.LBB145:
 3782              	.LBB146:
  65:tests/ConsumerProducer_CPP_API_test.hpp **** 
 3783              		.loc 3 65 54 discriminator 3
 3784 107c 97000000 		call	_ZN6ThreadC2Ev@plt
 3784      E7800000 
 3785              	.LVL414:
 3786              	.LEHE34:
  65:tests/ConsumerProducer_CPP_API_test.hpp **** 
 3787              		.loc 3 65 54
 3788 1084 97070000 		lla	a5,_ZTVN19ConsumerProducerCPP8ConsumerE+16
 3788      93870700 
 3789 108c 23B0FB00 		sd	a5,0(s7)
 3790 1090 23B89B00 		sd	s1,16(s7)
 3791              	.LVL415:
 3792              	.LBE146:
 3793              	.LBE145:
 123:tests/ConsumerProducer_CPP_API_test.hpp **** 
 3794              		.loc 3 123 9 is_stmt 1
 123:tests/ConsumerProducer_CPP_API_test.hpp **** 
GAS LISTING /tmp/ccqYKUbi.s 			page 89


 3795              		.loc 3 123 24 is_stmt 0
 3796 1094 13850B00 		mv	a0,s7
 3797              	.LEHB35:
 3798 1098 97000000 		call	_ZN6Thread5startEv@plt
 3798      E7800000 
 3799              	.LVL416:
 125:tests/ConsumerProducer_CPP_API_test.hpp ****         threadData[0].buffer = buffer;
 3800              		.loc 3 125 9 is_stmt 1
 125:tests/ConsumerProducer_CPP_API_test.hpp ****         threadData[0].buffer = buffer;
 3801              		.loc 3 125 26 is_stmt 0
 3802 10a0 23200B00 		sw	zero,0(s6)
 126:tests/ConsumerProducer_CPP_API_test.hpp ****         threadData[0].sem = waitForAll;
 3803              		.loc 3 126 9 is_stmt 1
 126:tests/ConsumerProducer_CPP_API_test.hpp ****         threadData[0].sem = waitForAll;
 3804              		.loc 3 126 30 is_stmt 0
 3805 10a4 23345B01 		sd	s5,8(s6)
 127:tests/ConsumerProducer_CPP_API_test.hpp ****         producers[0] = new ProducerKeyborad(&threadData[0]);
 3806              		.loc 3 127 9 is_stmt 1
 127:tests/ConsumerProducer_CPP_API_test.hpp ****         producers[0] = new ProducerKeyborad(&threadData[0]);
 3807              		.loc 3 127 27 is_stmt 0
 3808 10a8 97070000 		ld	a5,.LANCHOR0+32
 3808      83B70700 
 3809 10b0 2338FB00 		sd	a5,16(s6)
 128:tests/ConsumerProducer_CPP_API_test.hpp ****         producers[0]->start();
 3810              		.loc 3 128 9 is_stmt 1
 128:tests/ConsumerProducer_CPP_API_test.hpp ****         producers[0]->start();
 3811              		.loc 3 128 59 is_stmt 0
 3812 10b4 13058001 		li	a0,24
 3813 10b8 97000000 		call	_Znwm@plt
 3813      E7800000 
 3814              	.LVL417:
 3815              	.LEHE35:
 3816 10c0 93040500 		mv	s1,a0
 3817              	.LVL418:
 3818              	.LEHB36:
 3819              	.LBB147:
 3820              	.LBB148:
  28:tests/ConsumerProducer_CPP_API_test.hpp **** 
 3821              		.loc 3 28 62
 3822 10c4 97000000 		call	_ZN6ThreadC2Ev@plt
 3822      E7800000 
 3823              	.LVL419:
 3824              	.LEHE36:
 3825 10cc 97070000 		lla	a5,_ZTVN19ConsumerProducerCPP16ProducerKeyboradE+16
 3825      93870700 
 3826 10d4 23B0F400 		sd	a5,0(s1)
 3827 10d8 23B86401 		sd	s6,16(s1)
 3828              	.LVL420:
 3829              	.LBE148:
 3830              	.LBE147:
 128:tests/ConsumerProducer_CPP_API_test.hpp ****         producers[0]->start();
 3831              		.loc 3 128 22
 3832 10dc 23309A00 		sd	s1,0(s4)
 129:tests/ConsumerProducer_CPP_API_test.hpp **** 
 3833              		.loc 3 129 9 is_stmt 1
 129:tests/ConsumerProducer_CPP_API_test.hpp **** 
 3834              		.loc 3 129 28 is_stmt 0
GAS LISTING /tmp/ccqYKUbi.s 			page 90


 3835 10e0 13850400 		mv	a0,s1
 3836              	.LEHB37:
 3837 10e4 97000000 		call	_ZN6Thread5startEv@plt
 3837      E7800000 
 3838              	.LVL421:
 3839              	.LBB149:
 131:tests/ConsumerProducer_CPP_API_test.hpp ****             threadData[i].id = i;
 3840              		.loc 3 131 18
 3841 10ec 13091000 		li	s2,1
 3842 10f0 6F000003 		j	.L195
 3843              	.LVL422:
 3844              	.L219:
 3845              	.LBB150:
 3846              	.LBB151:
  48:tests/ConsumerProducer_CPP_API_test.hpp **** 
 3847              		.loc 3 48 54
 3848 10f4 97070000 		lla	a5,_ZTVN19ConsumerProducerCPP8ProducerE+16
 3848      93870700 
 3849 10fc 23B0FC00 		sd	a5,0(s9)
 3850 1100 23B89C00 		sd	s1,16(s9)
 3851              	.LVL423:
 3852              	.LBE151:
 3853              	.LBE150:
 136:tests/ConsumerProducer_CPP_API_test.hpp ****             producers[i]->start();
 3854              		.loc 3 136 26
 3855 1104 93173900 		slli	a5,s2,3
 3856 1108 B307FA00 		add	a5,s4,a5
 3857 110c 23B09701 		sd	s9,0(a5)
 137:tests/ConsumerProducer_CPP_API_test.hpp **** 
 3858              		.loc 3 137 13 is_stmt 1
 137:tests/ConsumerProducer_CPP_API_test.hpp **** 
 3859              		.loc 3 137 32 is_stmt 0
 3860 1110 13850C00 		mv	a0,s9
 3861 1114 97000000 		call	_ZN6Thread5startEv@plt
 3861      E7800000 
 3862              	.LVL424:
 131:tests/ConsumerProducer_CPP_API_test.hpp ****             threadData[i].id = i;
 3863              		.loc 3 131 9 is_stmt 1
 3864 111c 1B091900 		addiw	s2,s2,1
 3865              	.LVL425:
 3866              	.L195:
 131:tests/ConsumerProducer_CPP_API_test.hpp ****             threadData[i].id = i;
 3867              		.loc 3 131 27 discriminator 1
 3868 1120 63523905 		bge	s2,s3,.L194
 132:tests/ConsumerProducer_CPP_API_test.hpp ****             threadData[i].buffer = buffer;
 3869              		.loc 3 132 13
 132:tests/ConsumerProducer_CPP_API_test.hpp ****             threadData[i].buffer = buffer;
 3870              		.loc 3 132 30 is_stmt 0
 3871 1124 93141900 		slli	s1,s2,1
 3872 1128 B3842401 		add	s1,s1,s2
 3873 112c 93943400 		slli	s1,s1,3
 3874 1130 B3049B00 		add	s1,s6,s1
 3875 1134 23A02401 		sw	s2,0(s1)
 133:tests/ConsumerProducer_CPP_API_test.hpp ****             threadData[i].sem = waitForAll;
 3876              		.loc 3 133 13 is_stmt 1
 133:tests/ConsumerProducer_CPP_API_test.hpp ****             threadData[i].sem = waitForAll;
 3877              		.loc 3 133 34 is_stmt 0
GAS LISTING /tmp/ccqYKUbi.s 			page 91


 3878 1138 23B45401 		sd	s5,8(s1)
 134:tests/ConsumerProducer_CPP_API_test.hpp **** 
 3879              		.loc 3 134 13 is_stmt 1
 134:tests/ConsumerProducer_CPP_API_test.hpp **** 
 3880              		.loc 3 134 31 is_stmt 0
 3881 113c 97070000 		ld	a5,.LANCHOR0+32
 3881      83B70700 
 3882 1144 23B8F400 		sd	a5,16(s1)
 136:tests/ConsumerProducer_CPP_API_test.hpp ****             producers[i]->start();
 3883              		.loc 3 136 13 is_stmt 1
 136:tests/ConsumerProducer_CPP_API_test.hpp ****             producers[i]->start();
 3884              		.loc 3 136 55 is_stmt 0
 3885 1148 13058001 		li	a0,24
 3886 114c 97000000 		call	_Znwm@plt
 3886      E7800000 
 3887              	.LVL426:
 3888              	.LEHE37:
 3889 1154 930C0500 		mv	s9,a0
 3890              	.LVL427:
 3891              	.LEHB38:
 3892              	.LBB153:
 3893              	.LBB152:
  48:tests/ConsumerProducer_CPP_API_test.hpp **** 
 3894              		.loc 3 48 54
 3895 1158 97000000 		call	_ZN6ThreadC2Ev@plt
 3895      E7800000 
 3896              	.LVL428:
 3897              	.LEHE38:
 3898 1160 6FF05FF9 		j	.L219
 3899              	.LVL429:
 3900              	.L194:
 3901              	.LBE152:
 3902              	.LBE153:
 3903              	.LBE149:
 141:tests/ConsumerProducer_CPP_API_test.hpp **** 
 3904              		.loc 3 141 9 is_stmt 1
 3905              	.LEHB39:
 141:tests/ConsumerProducer_CPP_API_test.hpp **** 
 3906              		.loc 3 141 25 is_stmt 0
 3907 1164 97000000 		call	_ZN6Thread8dispatchEv@plt
 3907      E7800000 
 3908              	.LVL430:
 3909              	.LBB154:
 143:tests/ConsumerProducer_CPP_API_test.hpp ****             waitForAll->wait();
 3910              		.loc 3 143 18
 3911 116c 93040000 		li	s1,0
 3912              	.L197:
 3913              	.LVL431:
 143:tests/ConsumerProducer_CPP_API_test.hpp ****             waitForAll->wait();
 3914              		.loc 3 143 27 is_stmt 1 discriminator 1
 3915 1170 63CE9900 		bgt	s1,s3,.L196
 144:tests/ConsumerProducer_CPP_API_test.hpp ****         }
 3916              		.loc 3 144 13
 144:tests/ConsumerProducer_CPP_API_test.hpp ****         }
 3917              		.loc 3 144 29 is_stmt 0
 3918 1174 17050000 		ld	a0,.LANCHOR0+32
 3918      03350500 
GAS LISTING /tmp/ccqYKUbi.s 			page 92


 3919 117c 97000000 		call	_ZN9Semaphore4waitEv@plt
 3919      E7800000 
 3920              	.LVL432:
 143:tests/ConsumerProducer_CPP_API_test.hpp ****             waitForAll->wait();
 3921              		.loc 3 143 9 is_stmt 1
 3922 1184 9B841400 		addiw	s1,s1,1
 3923              	.LVL433:
 3924 1188 6FF09FFE 		j	.L197
 3925              	.LVL434:
 3926              	.L196:
 3927              	.LBE154:
 147:tests/ConsumerProducer_CPP_API_test.hpp ****         for (int i = 0; i < threadNum; i++) {
 3928              		.loc 3 147 9
 147:tests/ConsumerProducer_CPP_API_test.hpp ****         for (int i = 0; i < threadNum; i++) {
 3929              		.loc 3 147 16 is_stmt 0
 3930 118c 17050000 		ld	a0,.LANCHOR0+32
 3930      03350500 
 147:tests/ConsumerProducer_CPP_API_test.hpp ****         for (int i = 0; i < threadNum; i++) {
 3931              		.loc 3 147 26
 3932 1194 63080500 		beqz	a0,.L198
 147:tests/ConsumerProducer_CPP_API_test.hpp ****         for (int i = 0; i < threadNum; i++) {
 3933              		.loc 3 147 16 discriminator 1
 3934 1198 83370500 		ld	a5,0(a0)
 3935 119c 83B78700 		ld	a5,8(a5)
 3936 11a0 E7800700 		jalr	a5
 3937              	.LVL435:
 3938              	.L198:
 3939              	.LBB155:
 143:tests/ConsumerProducer_CPP_API_test.hpp ****             waitForAll->wait();
 3940              		.loc 3 143 18 discriminator 1
 3941 11a4 93040000 		li	s1,0
 3942              	.LVL436:
 3943 11a8 6F008000 		j	.L201
 3944              	.LVL437:
 3945              	.L200:
 3946              	.LBE155:
 3947              	.LBB156:
 148:tests/ConsumerProducer_CPP_API_test.hpp ****             delete producers[i];
 3948              		.loc 3 148 9 is_stmt 1 discriminator 2
 3949 11ac 9B841400 		addiw	s1,s1,1
 3950              	.LVL438:
 3951              	.L201:
 148:tests/ConsumerProducer_CPP_API_test.hpp ****             delete producers[i];
 3952              		.loc 3 148 27 discriminator 1
 3953 11b0 63D23403 		bge	s1,s3,.L199
 149:tests/ConsumerProducer_CPP_API_test.hpp ****         }
 3954              		.loc 3 149 13
 149:tests/ConsumerProducer_CPP_API_test.hpp ****         }
 3955              		.loc 3 149 31 is_stmt 0
 3956 11b4 93973400 		slli	a5,s1,3
 3957 11b8 B307FA00 		add	a5,s4,a5
 3958 11bc 03B50700 		ld	a0,0(a5)
 149:tests/ConsumerProducer_CPP_API_test.hpp ****         }
 3959              		.loc 3 149 32
 3960 11c0 E30605FE 		beqz	a0,.L200
 149:tests/ConsumerProducer_CPP_API_test.hpp ****         }
 3961              		.loc 3 149 31 discriminator 1
GAS LISTING /tmp/ccqYKUbi.s 			page 93


 3962 11c4 83370500 		ld	a5,0(a0)
 3963 11c8 83B78700 		ld	a5,8(a5)
 3964 11cc E7800700 		jalr	a5
 3965              	.LVL439:
 3966 11d0 6FF0DFFD 		j	.L200
 3967              	.L199:
 3968              	.LBE156:
 151:tests/ConsumerProducer_CPP_API_test.hpp ****         delete buffer;
 3969              		.loc 3 151 9 is_stmt 1
 151:tests/ConsumerProducer_CPP_API_test.hpp ****         delete buffer;
 3970              		.loc 3 151 24 is_stmt 0
 3971 11d4 638A0B00 		beqz	s7,.L202
 151:tests/ConsumerProducer_CPP_API_test.hpp ****         delete buffer;
 3972              		.loc 3 151 16 discriminator 1
 3973 11d8 83B70B00 		ld	a5,0(s7)
 3974 11dc 83B78700 		ld	a5,8(a5)
 3975 11e0 13850B00 		mv	a0,s7
 3976 11e4 E7800700 		jalr	a5
 3977              	.LVL440:
 3978              	.L202:
 3979              		.loc 3 152 9 is_stmt 1
 3980              		.loc 3 152 22 is_stmt 0
 3981 11e8 638E0A00 		beqz	s5,.L203
 3982              		.loc 3 152 16 discriminator 1
 3983 11ec 13850A00 		mv	a0,s5
 3984 11f0 97000000 		call	_ZN9BufferCPPD1Ev@plt
 3984      E7800000 
 3985              	.LVL441:
 3986 11f8 13850A00 		mv	a0,s5
 3987 11fc 97000000 		call	_ZdlPv@plt
 3987      E7800000 
 3988              	.LVL442:
 3989              	.LEHE39:
 3990              	.L203:
 3991 1204 13010C00 		mv	sp,s8
 3992              	.LVL443:
 3993              	.L190:
 153:tests/ConsumerProducer_CPP_API_test.hpp ****     }
 3994              		.loc 3 153 5
 3995 1208 130104F8 		addi	sp,s0,-128
 3996              		.cfi_remember_state
 3997              		.cfi_def_cfa 2, 128
 3998 120c 83308107 		ld	ra,120(sp)
 3999              		.cfi_restore 1
 4000 1210 03340107 		ld	s0,112(sp)
 4001              		.cfi_restore 8
 4002 1214 83348106 		ld	s1,104(sp)
 4003              		.cfi_restore 9
 4004 1218 03390106 		ld	s2,96(sp)
 4005              		.cfi_restore 18
 4006 121c 83398105 		ld	s3,88(sp)
 4007              		.cfi_restore 19
 4008              	.LVL444:
 4009 1220 033A0105 		ld	s4,80(sp)
 4010              		.cfi_restore 20
 4011 1224 833A8104 		ld	s5,72(sp)
 4012              		.cfi_restore 21
GAS LISTING /tmp/ccqYKUbi.s 			page 94


 4013 1228 033B0104 		ld	s6,64(sp)
 4014              		.cfi_restore 22
 4015 122c 833B8103 		ld	s7,56(sp)
 4016              		.cfi_restore 23
 4017 1230 033C0103 		ld	s8,48(sp)
 4018              		.cfi_restore 24
 4019 1234 833C8102 		ld	s9,40(sp)
 4020              		.cfi_restore 25
 4021 1238 13010108 		addi	sp,sp,128
 4022              		.cfi_def_cfa_offset 0
 4023 123c 67800000 		jr	ra
 4024              	.LVL445:
 4025              	.L210:
 4026              		.cfi_restore_state
 4027 1240 93040500 		mv	s1,a0
 4028              	.LVL446:
 113:tests/ConsumerProducer_CPP_API_test.hpp **** 
 4029              		.loc 3 113 44
 4030 1244 13850A00 		mv	a0,s5
 4031 1248 97000000 		call	_ZdlPv@plt
 4031      E7800000 
 4032              	.LVL447:
 4033 1250 13850400 		mv	a0,s1
 4034              	.LEHB40:
 4035 1254 97000000 		call	_Unwind_Resume@plt
 4035      E7800000 
 4036              	.LVL448:
 4037              	.LEHE40:
 4038              	.L211:
 4039 125c 13090500 		mv	s2,a0
 115:tests/ConsumerProducer_CPP_API_test.hpp ****         Thread *producers[threadNum];
 4040              		.loc 3 115 37
 4041 1260 13850400 		mv	a0,s1
 4042 1264 97000000 		call	_ZdlPv@plt
 4042      E7800000 
 4043              	.LVL449:
 4044 126c 13050900 		mv	a0,s2
 4045              	.LEHB41:
 4046 1270 97000000 		call	_Unwind_Resume@plt
 4046      E7800000 
 4047              	.LVL450:
 4048              	.LEHE41:
 4049              	.L212:
 4050 1278 93040500 		mv	s1,a0
 4051              	.LVL451:
 122:tests/ConsumerProducer_CPP_API_test.hpp ****         consumer->start();
 4052              		.loc 3 122 63
 4053 127c 13850B00 		mv	a0,s7
 4054 1280 97000000 		call	_ZdlPv@plt
 4054      E7800000 
 4055              	.LVL452:
 4056 1288 13850400 		mv	a0,s1
 4057              	.LEHB42:
 4058 128c 97000000 		call	_Unwind_Resume@plt
 4058      E7800000 
 4059              	.LVL453:
 4060              	.LEHE42:
GAS LISTING /tmp/ccqYKUbi.s 			page 95


 4061              	.L213:
 4062 1294 13090500 		mv	s2,a0
 128:tests/ConsumerProducer_CPP_API_test.hpp ****         producers[0]->start();
 4063              		.loc 3 128 59
 4064 1298 13850400 		mv	a0,s1
 4065 129c 97000000 		call	_ZdlPv@plt
 4065      E7800000 
 4066              	.LVL454:
 4067 12a4 13050900 		mv	a0,s2
 4068              	.LEHB43:
 4069 12a8 97000000 		call	_Unwind_Resume@plt
 4069      E7800000 
 4070              	.LVL455:
 4071              	.LEHE43:
 4072              	.L214:
 4073 12b0 93040500 		mv	s1,a0
 4074              	.LVL456:
 4075              	.LBB157:
 136:tests/ConsumerProducer_CPP_API_test.hpp ****             producers[i]->start();
 4076              		.loc 3 136 55
 4077 12b4 13850C00 		mv	a0,s9
 4078 12b8 97000000 		call	_ZdlPv@plt
 4078      E7800000 
 4079              	.LVL457:
 4080 12c0 13850400 		mv	a0,s1
 4081              	.LEHB44:
 4082 12c4 97000000 		call	_Unwind_Resume@plt
 4082      E7800000 
 4083              	.LVL458:
 4084              	.LEHE44:
 4085              	.LBE157:
 4086              		.cfi_endproc
 4087              	.LFE66:
 4088              		.section	.gcc_except_table
 4089              	.LLSDA66:
 4090 0183 FF       		.byte	0xff
 4091 0184 FF       		.byte	0xff
 4092 0185 03       		.byte	0x3
 4093 0186 D001     		.byte	0xd0,0x1
 4094 0188 00000000 		.4byte	.LEHB29-.LFB66
 4095 018c 00000000 		.4byte	.LEHE29-.LEHB29
 4096 0190 00000000 		.4byte	0
 4097 0194 00       		.byte	0
 4098 0195 00000000 		.4byte	.LEHB30-.LFB66
 4099 0199 00000000 		.4byte	.LEHE30-.LEHB30
 4100 019d 00000000 		.4byte	.L210-.LFB66
 4101 01a1 00       		.byte	0
 4102 01a2 00000000 		.4byte	.LEHB31-.LFB66
 4103 01a6 00000000 		.4byte	.LEHE31-.LEHB31
 4104 01aa 00000000 		.4byte	0
 4105 01ae 00       		.byte	0
 4106 01af 00000000 		.4byte	.LEHB32-.LFB66
 4107 01b3 00000000 		.4byte	.LEHE32-.LEHB32
 4108 01b7 00000000 		.4byte	.L211-.LFB66
 4109 01bb 00       		.byte	0
 4110 01bc 00000000 		.4byte	.LEHB33-.LFB66
 4111 01c0 00000000 		.4byte	.LEHE33-.LEHB33
GAS LISTING /tmp/ccqYKUbi.s 			page 96


 4112 01c4 00000000 		.4byte	0
 4113 01c8 00       		.byte	0
 4114 01c9 00000000 		.4byte	.LEHB34-.LFB66
 4115 01cd 00000000 		.4byte	.LEHE34-.LEHB34
 4116 01d1 00000000 		.4byte	.L212-.LFB66
 4117 01d5 00       		.byte	0
 4118 01d6 00000000 		.4byte	.LEHB35-.LFB66
 4119 01da 00000000 		.4byte	.LEHE35-.LEHB35
 4120 01de 00000000 		.4byte	0
 4121 01e2 00       		.byte	0
 4122 01e3 00000000 		.4byte	.LEHB36-.LFB66
 4123 01e7 00000000 		.4byte	.LEHE36-.LEHB36
 4124 01eb 00000000 		.4byte	.L213-.LFB66
 4125 01ef 00       		.byte	0
 4126 01f0 00000000 		.4byte	.LEHB37-.LFB66
 4127 01f4 00000000 		.4byte	.LEHE37-.LEHB37
 4128 01f8 00000000 		.4byte	0
 4129 01fc 00       		.byte	0
 4130 01fd 00000000 		.4byte	.LEHB38-.LFB66
 4131 0201 00000000 		.4byte	.LEHE38-.LEHB38
 4132 0205 00000000 		.4byte	.L214-.LFB66
 4133 0209 00       		.byte	0
 4134 020a 00000000 		.4byte	.LEHB39-.LFB66
 4135 020e 00000000 		.4byte	.LEHE39-.LEHB39
 4136 0212 00000000 		.4byte	0
 4137 0216 00       		.byte	0
 4138 0217 00000000 		.4byte	.LEHB40-.LFB66
 4139 021b 00000000 		.4byte	.LEHE40-.LEHB40
 4140 021f 00000000 		.4byte	0
 4141 0223 00       		.byte	0
 4142 0224 00000000 		.4byte	.LEHB41-.LFB66
 4143 0228 00000000 		.4byte	.LEHE41-.LEHB41
 4144 022c 00000000 		.4byte	0
 4145 0230 00       		.byte	0
 4146 0231 00000000 		.4byte	.LEHB42-.LFB66
 4147 0235 00000000 		.4byte	.LEHE42-.LEHB42
 4148 0239 00000000 		.4byte	0
 4149 023d 00       		.byte	0
 4150 023e 00000000 		.4byte	.LEHB43-.LFB66
 4151 0242 00000000 		.4byte	.LEHE43-.LEHB43
 4152 0246 00000000 		.4byte	0
 4153 024a 00       		.byte	0
 4154 024b 00000000 		.4byte	.LEHB44-.LFB66
 4155 024f 00000000 		.4byte	.LEHE44-.LEHB44
 4156 0253 00000000 		.4byte	0
 4157 0257 00       		.byte	0
 4158              		.text
 4160              		.align	2
 4161              		.globl	_Z8userMainv
 4163              	_Z8userMainv:
 4164              	.LFB67:
 4165              		.file 5 "tests/userMain.cpp"
   1:tests/userMain.cpp **** //#include "Threads_C_API_test.hpp" // zadatak 2, niti C API i sinhrona promena konteksta
   2:tests/userMain.cpp **** #include "Threads_CPP_API_test.hpp" // zadatak 2., niti CPP API i sinhrona promena konteksta
   3:tests/userMain.cpp **** //
   4:tests/userMain.cpp **** //#include "ConsumerProducer_C_API_test.h" // zadatak 3., kompletan C API sa semaforima, sinhrona p
   5:tests/userMain.cpp **** #include "ConsumerProducer_CPP_Sync_API_test.hpp" // zadatak 3., kompletan CPP API sa semaforima, s
GAS LISTING /tmp/ccqYKUbi.s 			page 97


   6:tests/userMain.cpp **** 
   7:tests/userMain.cpp **** #include "ThreadSleep_C_API_test.hpp" // thread_sleep test C API
   8:tests/userMain.cpp **** #include "ConsumerProducer_CPP_API_test.hpp" // zadatak 4. CPP API i asinhrona promena konteksta
   9:tests/userMain.cpp **** 
  10:tests/userMain.cpp **** 
  11:tests/userMain.cpp **** void userMain() {
 4166              		.loc 5 11 17 is_stmt 1
 4167              		.cfi_startproc
 4168 12cc 130101FF 		addi	sp,sp,-16
 4169              		.cfi_def_cfa_offset 16
 4170 12d0 23348100 		sd	s0,8(sp)
 4171              		.cfi_offset 8, -8
 4172 12d4 13040101 		addi	s0,sp,16
 4173              		.cfi_def_cfa 8, 0
  12:tests/userMain.cpp **** //    Threads_C_API_test(); // zadatak 2., niti C API i sinhrona promena konteksta
  13:tests/userMain.cpp **** //    Threads_CPP_API_test(); // zadatak 2., niti CPP API i sinhrona promena konteksta
  14:tests/userMain.cpp **** 
  15:tests/userMain.cpp **** //    producerConsumer_C_API(); // zadatak 3., kompletan C API sa semaforima, sinhrona promena kont
  16:tests/userMain.cpp **** //    producerConsumer_CPP_Sync_API(); // zadatak 3., kompletan CPP API sa semaforima, sinhrona pro
  17:tests/userMain.cpp **** 
  18:tests/userMain.cpp **** //    testSleeping(); // thread_sleep test C API
  19:tests/userMain.cpp **** //    ConsumerProducerCPP::testConsumerProducer(); // zadatak 4. CPP API i asinhrona promena kontek
  20:tests/userMain.cpp **** 
  21:tests/userMain.cpp **** }...
 4174              		.loc 5 21 1 is_stmt 0
 4175 12d8 03348100 		ld	s0,8(sp)
 4176              		.cfi_restore 8
 4177              		.cfi_def_cfa 2, 16
 4178 12dc 13010101 		addi	sp,sp,16
 4179              		.cfi_def_cfa_offset 0
 4180 12e0 67800000 		jr	ra
 4181              		.cfi_endproc
 4182              	.LFE67:
 4184              		.weak	_ZTV7WorkerA
 4185              		.section	.data.rel.ro.local._ZTV7WorkerA,"awG",@progbits,_ZTV7WorkerA,comdat
 4186              		.align	3
 4189              	_ZTV7WorkerA:
 4190 0000 00000000 		.dword	0
 4190      00000000 
 4191 0008 00000000 		.dword	0
 4191      00000000 
 4192 0010 00000000 		.dword	_ZN7WorkerAD1Ev
 4192      00000000 
 4193 0018 00000000 		.dword	_ZN7WorkerAD0Ev
 4193      00000000 
 4194 0020 00000000 		.dword	_ZN7WorkerA3runEv
 4194      00000000 
 4195              		.weak	_ZTV7WorkerB
 4196              		.section	.data.rel.ro.local._ZTV7WorkerB,"awG",@progbits,_ZTV7WorkerB,comdat
 4197              		.align	3
 4200              	_ZTV7WorkerB:
 4201 0000 00000000 		.dword	0
 4201      00000000 
 4202 0008 00000000 		.dword	0
 4202      00000000 
 4203 0010 00000000 		.dword	_ZN7WorkerBD1Ev
 4203      00000000 
GAS LISTING /tmp/ccqYKUbi.s 			page 98


 4204 0018 00000000 		.dword	_ZN7WorkerBD0Ev
 4204      00000000 
 4205 0020 00000000 		.dword	_ZN7WorkerB3runEv
 4205      00000000 
 4206              		.weak	_ZTV7WorkerC
 4207              		.section	.data.rel.ro.local._ZTV7WorkerC,"awG",@progbits,_ZTV7WorkerC,comdat
 4208              		.align	3
 4211              	_ZTV7WorkerC:
 4212 0000 00000000 		.dword	0
 4212      00000000 
 4213 0008 00000000 		.dword	0
 4213      00000000 
 4214 0010 00000000 		.dword	_ZN7WorkerCD1Ev
 4214      00000000 
 4215 0018 00000000 		.dword	_ZN7WorkerCD0Ev
 4215      00000000 
 4216 0020 00000000 		.dword	_ZN7WorkerC3runEv
 4216      00000000 
 4217              		.weak	_ZTV7WorkerD
 4218              		.section	.data.rel.ro.local._ZTV7WorkerD,"awG",@progbits,_ZTV7WorkerD,comdat
 4219              		.align	3
 4222              	_ZTV7WorkerD:
 4223 0000 00000000 		.dword	0
 4223      00000000 
 4224 0008 00000000 		.dword	0
 4224      00000000 
 4225 0010 00000000 		.dword	_ZN7WorkerDD1Ev
 4225      00000000 
 4226 0018 00000000 		.dword	_ZN7WorkerDD0Ev
 4226      00000000 
 4227 0020 00000000 		.dword	_ZN7WorkerD3runEv
 4227      00000000 
 4228              		.weak	_ZTV16ProducerKeyboard
 4229              		.section	.data.rel.ro.local._ZTV16ProducerKeyboard,"awG",@progbits,_ZTV16ProducerKeyboard,comdat
 4230              		.align	3
 4233              	_ZTV16ProducerKeyboard:
 4234 0000 00000000 		.dword	0
 4234      00000000 
 4235 0008 00000000 		.dword	0
 4235      00000000 
 4236 0010 00000000 		.dword	_ZN16ProducerKeyboardD1Ev
 4236      00000000 
 4237 0018 00000000 		.dword	_ZN16ProducerKeyboardD0Ev
 4237      00000000 
 4238 0020 00000000 		.dword	_ZN16ProducerKeyboard3runEv
 4238      00000000 
 4239              		.weak	_ZTV8Producer
 4240              		.section	.data.rel.ro.local._ZTV8Producer,"awG",@progbits,_ZTV8Producer,comdat
 4241              		.align	3
 4244              	_ZTV8Producer:
 4245 0000 00000000 		.dword	0
 4245      00000000 
 4246 0008 00000000 		.dword	0
 4246      00000000 
 4247 0010 00000000 		.dword	_ZN8ProducerD1Ev
 4247      00000000 
 4248 0018 00000000 		.dword	_ZN8ProducerD0Ev
GAS LISTING /tmp/ccqYKUbi.s 			page 99


 4248      00000000 
 4249 0020 00000000 		.dword	_ZN8Producer3runEv
 4249      00000000 
 4250              		.weak	_ZTV8Consumer
 4251              		.section	.data.rel.ro.local._ZTV8Consumer,"awG",@progbits,_ZTV8Consumer,comdat
 4252              		.align	3
 4255              	_ZTV8Consumer:
 4256 0000 00000000 		.dword	0
 4256      00000000 
 4257 0008 00000000 		.dword	0
 4257      00000000 
 4258 0010 00000000 		.dword	_ZN8ConsumerD1Ev
 4258      00000000 
 4259 0018 00000000 		.dword	_ZN8ConsumerD0Ev
 4259      00000000 
 4260 0020 00000000 		.dword	_ZN8Consumer3runEv
 4260      00000000 
 4261              		.weak	_ZTVN19ConsumerProducerCPP16ProducerKeyboradE
 4262              		.section	.data.rel.ro.local._ZTVN19ConsumerProducerCPP16ProducerKeyboradE,"awG",@progbits,_ZTVN19C
 4263              		.align	3
 4266              	_ZTVN19ConsumerProducerCPP16ProducerKeyboradE:
 4267 0000 00000000 		.dword	0
 4267      00000000 
 4268 0008 00000000 		.dword	0
 4268      00000000 
 4269 0010 00000000 		.dword	_ZN19ConsumerProducerCPP16ProducerKeyboradD1Ev
 4269      00000000 
 4270 0018 00000000 		.dword	_ZN19ConsumerProducerCPP16ProducerKeyboradD0Ev
 4270      00000000 
 4271 0020 00000000 		.dword	_ZN19ConsumerProducerCPP16ProducerKeyborad3runEv
 4271      00000000 
 4272              		.weak	_ZTVN19ConsumerProducerCPP8ProducerE
 4273              		.section	.data.rel.ro.local._ZTVN19ConsumerProducerCPP8ProducerE,"awG",@progbits,_ZTVN19ConsumerPr
 4274              		.align	3
 4277              	_ZTVN19ConsumerProducerCPP8ProducerE:
 4278 0000 00000000 		.dword	0
 4278      00000000 
 4279 0008 00000000 		.dword	0
 4279      00000000 
 4280 0010 00000000 		.dword	_ZN19ConsumerProducerCPP8ProducerD1Ev
 4280      00000000 
 4281 0018 00000000 		.dword	_ZN19ConsumerProducerCPP8ProducerD0Ev
 4281      00000000 
 4282 0020 00000000 		.dword	_ZN19ConsumerProducerCPP8Producer3runEv
 4282      00000000 
 4283              		.weak	_ZTVN19ConsumerProducerCPP8ConsumerE
 4284              		.section	.data.rel.ro.local._ZTVN19ConsumerProducerCPP8ConsumerE,"awG",@progbits,_ZTVN19ConsumerPr
 4285              		.align	3
 4288              	_ZTVN19ConsumerProducerCPP8ConsumerE:
 4289 0000 00000000 		.dword	0
 4289      00000000 
 4290 0008 00000000 		.dword	0
 4290      00000000 
 4291 0010 00000000 		.dword	_ZN19ConsumerProducerCPP8ConsumerD1Ev
 4291      00000000 
 4292 0018 00000000 		.dword	_ZN19ConsumerProducerCPP8ConsumerD0Ev
 4292      00000000 
GAS LISTING /tmp/ccqYKUbi.s 			page 100


 4293 0020 00000000 		.dword	_ZN19ConsumerProducerCPP8Consumer3runEv
 4293      00000000 
 4294              		.globl	_ZN19ConsumerProducerCPP9threadEndE
 4295              		.globl	_ZN19ConsumerProducerCPP10waitForAllE
 4296              		.globl	finished
 4297              		.globl	threadEnd
 4298              		.globl	waitForAll
 4299              		.globl	finishedD
 4300              		.globl	finishedC
 4301              		.globl	finishedB
 4302              		.globl	finishedA
 4303              		.bss
 4304              		.align	3
 4305              		.set	.LANCHOR0,. + 0
 4308              	_ZN19ConsumerProducerCPP9threadEndE:
 4309 0000 00000000 		.zero	4
 4310 0004 00000000 		.zero	4
 4313              	finished:
 4314 0008 0000     		.zero	2
 4317              	finishedA:
 4318 000a 00       		.zero	1
 4321              	finishedB:
 4322 000b 00       		.zero	1
 4325              	finishedC:
 4326 000c 00       		.zero	1
 4329              	finishedD:
 4330 000d 00       		.zero	1
 4331 000e 0000     		.zero	2
 4334              	threadEnd:
 4335 0010 00000000 		.zero	4
 4336 0014 00000000 		.zero	4
 4339              	waitForAll:
 4340 0018 00000000 		.zero	8
 4340      00000000 
 4343              	_ZN19ConsumerProducerCPP10waitForAllE:
 4344 0020 00000000 		.zero	8
 4344      00000000 
 4345              		.text
 4346              	.Letext0:
 4347              		.file 6 "tests/../h/../lib/hw.h"
 4348              		.file 7 "tests/../h/../h/../h/_thread.hpp"
 4349              		.file 8 "tests/../h/syscall_cpp.hpp"
 4350              		.file 9 "tests/buffer_CPP_API.hpp"
 4351              		.file 10 "tests/../h/printing.hpp"
 4352              		.file 11 "tests/../h/../h/syscall_c.h"
 13791              		.align	3
 13794              	DW.ref.__gxx_personality_v0:
 13795 0000 00000000 		.dword	__gxx_personality_v0
 13795      00000000 
 13796              		.ident	"GCC: (Ubuntu 9.4.0-1ubuntu1~20.04) 9.4.0"
 13797              		.section	.note.GNU-stack,"",@progbits
GAS LISTING /tmp/ccqYKUbi.s 			page 101


DEFINED SYMBOLS
                            *ABS*:0000000000000000 userMain.cpp
     /tmp/ccqYKUbi.s:10     .text._ZN7WorkerAD2Ev:0000000000000000 _ZN7WorkerAD2Ev
     /tmp/ccqYKUbi.s:14     .text._ZN7WorkerAD2Ev:0000000000000000 .L0 
     /tmp/ccqYKUbi.s:16     .text._ZN7WorkerAD2Ev:0000000000000000 .L0 
     /tmp/ccqYKUbi.s:17     .text._ZN7WorkerAD2Ev:0000000000000004 .L0 
     /tmp/ccqYKUbi.s:20     .text._ZN7WorkerAD2Ev:000000000000000c .L0 
     /tmp/ccqYKUbi.s:21     .text._ZN7WorkerAD2Ev:000000000000000c .L0 
     /tmp/ccqYKUbi.s:23     .text._ZN7WorkerAD2Ev:0000000000000010 .L0 
     /tmp/ccqYKUbi.s:4189   .data.rel.ro.local._ZTV7WorkerA:0000000000000000 _ZTV7WorkerA
     /tmp/ccqYKUbi.s:26     .text._ZN7WorkerAD2Ev:0000000000000010 .L0 
     /tmp/ccqYKUbi.s:32     .text._ZN7WorkerAD2Ev:0000000000000028 .L0 
     /tmp/ccqYKUbi.s:34     .text._ZN7WorkerAD2Ev:000000000000002c .L0 
     /tmp/ccqYKUbi.s:35     .text._ZN7WorkerAD2Ev:000000000000002c .L0 
     /tmp/ccqYKUbi.s:37     .text._ZN7WorkerAD2Ev:0000000000000030 .L0 
     /tmp/ccqYKUbi.s:39     .text._ZN7WorkerAD2Ev:0000000000000034 .L0 
     /tmp/ccqYKUbi.s:10     .text._ZN7WorkerAD2Ev:0000000000000000 _ZN7WorkerAD1Ev
     /tmp/ccqYKUbi.s:48     .text._ZN7WorkerAD0Ev:0000000000000000 _ZN7WorkerAD0Ev
     /tmp/ccqYKUbi.s:51     .text._ZN7WorkerAD0Ev:0000000000000000 .L0 
     /tmp/ccqYKUbi.s:53     .text._ZN7WorkerAD0Ev:0000000000000000 .L0 
     /tmp/ccqYKUbi.s:54     .text._ZN7WorkerAD0Ev:0000000000000004 .L0 
     /tmp/ccqYKUbi.s:58     .text._ZN7WorkerAD0Ev:0000000000000010 .L0 
     /tmp/ccqYKUbi.s:59     .text._ZN7WorkerAD0Ev:0000000000000010 .L0 
     /tmp/ccqYKUbi.s:60     .text._ZN7WorkerAD0Ev:0000000000000010 .L0 
     /tmp/ccqYKUbi.s:62     .text._ZN7WorkerAD0Ev:0000000000000014 .L0 
     /tmp/ccqYKUbi.s:68     .text._ZN7WorkerAD0Ev:0000000000000018 .L0 
     /tmp/ccqYKUbi.s:78     .text._ZN7WorkerAD0Ev:000000000000003c .L0 
     /tmp/ccqYKUbi.s:80     .text._ZN7WorkerAD0Ev:0000000000000040 .L0 
     /tmp/ccqYKUbi.s:81     .text._ZN7WorkerAD0Ev:0000000000000040 .L0 
     /tmp/ccqYKUbi.s:83     .text._ZN7WorkerAD0Ev:0000000000000044 .L0 
     /tmp/ccqYKUbi.s:86     .text._ZN7WorkerAD0Ev:0000000000000048 .L0 
     /tmp/ccqYKUbi.s:88     .text._ZN7WorkerAD0Ev:000000000000004c .L0 
     /tmp/ccqYKUbi.s:95     .text._ZN7WorkerBD2Ev:0000000000000000 _ZN7WorkerBD2Ev
     /tmp/ccqYKUbi.s:98     .text._ZN7WorkerBD2Ev:0000000000000000 .L0 
     /tmp/ccqYKUbi.s:100    .text._ZN7WorkerBD2Ev:0000000000000000 .L0 
     /tmp/ccqYKUbi.s:101    .text._ZN7WorkerBD2Ev:0000000000000004 .L0 
     /tmp/ccqYKUbi.s:104    .text._ZN7WorkerBD2Ev:000000000000000c .L0 
     /tmp/ccqYKUbi.s:105    .text._ZN7WorkerBD2Ev:000000000000000c .L0 
     /tmp/ccqYKUbi.s:107    .text._ZN7WorkerBD2Ev:0000000000000010 .L0 
     /tmp/ccqYKUbi.s:4200   .data.rel.ro.local._ZTV7WorkerB:0000000000000000 _ZTV7WorkerB
     /tmp/ccqYKUbi.s:110    .text._ZN7WorkerBD2Ev:0000000000000010 .L0 
     /tmp/ccqYKUbi.s:116    .text._ZN7WorkerBD2Ev:0000000000000028 .L0 
     /tmp/ccqYKUbi.s:118    .text._ZN7WorkerBD2Ev:000000000000002c .L0 
     /tmp/ccqYKUbi.s:119    .text._ZN7WorkerBD2Ev:000000000000002c .L0 
     /tmp/ccqYKUbi.s:121    .text._ZN7WorkerBD2Ev:0000000000000030 .L0 
     /tmp/ccqYKUbi.s:123    .text._ZN7WorkerBD2Ev:0000000000000034 .L0 
     /tmp/ccqYKUbi.s:95     .text._ZN7WorkerBD2Ev:0000000000000000 _ZN7WorkerBD1Ev
     /tmp/ccqYKUbi.s:132    .text._ZN7WorkerBD0Ev:0000000000000000 _ZN7WorkerBD0Ev
     /tmp/ccqYKUbi.s:135    .text._ZN7WorkerBD0Ev:0000000000000000 .L0 
     /tmp/ccqYKUbi.s:137    .text._ZN7WorkerBD0Ev:0000000000000000 .L0 
     /tmp/ccqYKUbi.s:138    .text._ZN7WorkerBD0Ev:0000000000000004 .L0 
     /tmp/ccqYKUbi.s:142    .text._ZN7WorkerBD0Ev:0000000000000010 .L0 
     /tmp/ccqYKUbi.s:143    .text._ZN7WorkerBD0Ev:0000000000000010 .L0 
     /tmp/ccqYKUbi.s:144    .text._ZN7WorkerBD0Ev:0000000000000010 .L0 
     /tmp/ccqYKUbi.s:146    .text._ZN7WorkerBD0Ev:0000000000000014 .L0 
     /tmp/ccqYKUbi.s:152    .text._ZN7WorkerBD0Ev:0000000000000018 .L0 
     /tmp/ccqYKUbi.s:162    .text._ZN7WorkerBD0Ev:000000000000003c .L0 
GAS LISTING /tmp/ccqYKUbi.s 			page 102


     /tmp/ccqYKUbi.s:164    .text._ZN7WorkerBD0Ev:0000000000000040 .L0 
     /tmp/ccqYKUbi.s:165    .text._ZN7WorkerBD0Ev:0000000000000040 .L0 
     /tmp/ccqYKUbi.s:167    .text._ZN7WorkerBD0Ev:0000000000000044 .L0 
     /tmp/ccqYKUbi.s:170    .text._ZN7WorkerBD0Ev:0000000000000048 .L0 
     /tmp/ccqYKUbi.s:172    .text._ZN7WorkerBD0Ev:000000000000004c .L0 
     /tmp/ccqYKUbi.s:179    .text._ZN7WorkerCD2Ev:0000000000000000 _ZN7WorkerCD2Ev
     /tmp/ccqYKUbi.s:182    .text._ZN7WorkerCD2Ev:0000000000000000 .L0 
     /tmp/ccqYKUbi.s:184    .text._ZN7WorkerCD2Ev:0000000000000000 .L0 
     /tmp/ccqYKUbi.s:185    .text._ZN7WorkerCD2Ev:0000000000000004 .L0 
     /tmp/ccqYKUbi.s:188    .text._ZN7WorkerCD2Ev:000000000000000c .L0 
     /tmp/ccqYKUbi.s:189    .text._ZN7WorkerCD2Ev:000000000000000c .L0 
     /tmp/ccqYKUbi.s:191    .text._ZN7WorkerCD2Ev:0000000000000010 .L0 
     /tmp/ccqYKUbi.s:4211   .data.rel.ro.local._ZTV7WorkerC:0000000000000000 _ZTV7WorkerC
     /tmp/ccqYKUbi.s:194    .text._ZN7WorkerCD2Ev:0000000000000010 .L0 
     /tmp/ccqYKUbi.s:200    .text._ZN7WorkerCD2Ev:0000000000000028 .L0 
     /tmp/ccqYKUbi.s:202    .text._ZN7WorkerCD2Ev:000000000000002c .L0 
     /tmp/ccqYKUbi.s:203    .text._ZN7WorkerCD2Ev:000000000000002c .L0 
     /tmp/ccqYKUbi.s:205    .text._ZN7WorkerCD2Ev:0000000000000030 .L0 
     /tmp/ccqYKUbi.s:207    .text._ZN7WorkerCD2Ev:0000000000000034 .L0 
     /tmp/ccqYKUbi.s:179    .text._ZN7WorkerCD2Ev:0000000000000000 _ZN7WorkerCD1Ev
     /tmp/ccqYKUbi.s:216    .text._ZN7WorkerCD0Ev:0000000000000000 _ZN7WorkerCD0Ev
     /tmp/ccqYKUbi.s:219    .text._ZN7WorkerCD0Ev:0000000000000000 .L0 
     /tmp/ccqYKUbi.s:221    .text._ZN7WorkerCD0Ev:0000000000000000 .L0 
     /tmp/ccqYKUbi.s:222    .text._ZN7WorkerCD0Ev:0000000000000004 .L0 
     /tmp/ccqYKUbi.s:226    .text._ZN7WorkerCD0Ev:0000000000000010 .L0 
     /tmp/ccqYKUbi.s:227    .text._ZN7WorkerCD0Ev:0000000000000010 .L0 
     /tmp/ccqYKUbi.s:228    .text._ZN7WorkerCD0Ev:0000000000000010 .L0 
     /tmp/ccqYKUbi.s:230    .text._ZN7WorkerCD0Ev:0000000000000014 .L0 
     /tmp/ccqYKUbi.s:236    .text._ZN7WorkerCD0Ev:0000000000000018 .L0 
     /tmp/ccqYKUbi.s:246    .text._ZN7WorkerCD0Ev:000000000000003c .L0 
     /tmp/ccqYKUbi.s:248    .text._ZN7WorkerCD0Ev:0000000000000040 .L0 
     /tmp/ccqYKUbi.s:249    .text._ZN7WorkerCD0Ev:0000000000000040 .L0 
     /tmp/ccqYKUbi.s:251    .text._ZN7WorkerCD0Ev:0000000000000044 .L0 
     /tmp/ccqYKUbi.s:254    .text._ZN7WorkerCD0Ev:0000000000000048 .L0 
     /tmp/ccqYKUbi.s:256    .text._ZN7WorkerCD0Ev:000000000000004c .L0 
     /tmp/ccqYKUbi.s:263    .text._ZN7WorkerDD2Ev:0000000000000000 _ZN7WorkerDD2Ev
     /tmp/ccqYKUbi.s:266    .text._ZN7WorkerDD2Ev:0000000000000000 .L0 
     /tmp/ccqYKUbi.s:268    .text._ZN7WorkerDD2Ev:0000000000000000 .L0 
     /tmp/ccqYKUbi.s:269    .text._ZN7WorkerDD2Ev:0000000000000004 .L0 
     /tmp/ccqYKUbi.s:272    .text._ZN7WorkerDD2Ev:000000000000000c .L0 
     /tmp/ccqYKUbi.s:273    .text._ZN7WorkerDD2Ev:000000000000000c .L0 
     /tmp/ccqYKUbi.s:275    .text._ZN7WorkerDD2Ev:0000000000000010 .L0 
     /tmp/ccqYKUbi.s:4222   .data.rel.ro.local._ZTV7WorkerD:0000000000000000 _ZTV7WorkerD
     /tmp/ccqYKUbi.s:278    .text._ZN7WorkerDD2Ev:0000000000000010 .L0 
     /tmp/ccqYKUbi.s:284    .text._ZN7WorkerDD2Ev:0000000000000028 .L0 
     /tmp/ccqYKUbi.s:286    .text._ZN7WorkerDD2Ev:000000000000002c .L0 
     /tmp/ccqYKUbi.s:287    .text._ZN7WorkerDD2Ev:000000000000002c .L0 
     /tmp/ccqYKUbi.s:289    .text._ZN7WorkerDD2Ev:0000000000000030 .L0 
     /tmp/ccqYKUbi.s:291    .text._ZN7WorkerDD2Ev:0000000000000034 .L0 
     /tmp/ccqYKUbi.s:263    .text._ZN7WorkerDD2Ev:0000000000000000 _ZN7WorkerDD1Ev
     /tmp/ccqYKUbi.s:300    .text._ZN7WorkerDD0Ev:0000000000000000 _ZN7WorkerDD0Ev
     /tmp/ccqYKUbi.s:303    .text._ZN7WorkerDD0Ev:0000000000000000 .L0 
     /tmp/ccqYKUbi.s:305    .text._ZN7WorkerDD0Ev:0000000000000000 .L0 
     /tmp/ccqYKUbi.s:306    .text._ZN7WorkerDD0Ev:0000000000000004 .L0 
     /tmp/ccqYKUbi.s:310    .text._ZN7WorkerDD0Ev:0000000000000010 .L0 
     /tmp/ccqYKUbi.s:311    .text._ZN7WorkerDD0Ev:0000000000000010 .L0 
     /tmp/ccqYKUbi.s:312    .text._ZN7WorkerDD0Ev:0000000000000010 .L0 
GAS LISTING /tmp/ccqYKUbi.s 			page 103


     /tmp/ccqYKUbi.s:314    .text._ZN7WorkerDD0Ev:0000000000000014 .L0 
     /tmp/ccqYKUbi.s:320    .text._ZN7WorkerDD0Ev:0000000000000018 .L0 
     /tmp/ccqYKUbi.s:330    .text._ZN7WorkerDD0Ev:000000000000003c .L0 
     /tmp/ccqYKUbi.s:332    .text._ZN7WorkerDD0Ev:0000000000000040 .L0 
     /tmp/ccqYKUbi.s:333    .text._ZN7WorkerDD0Ev:0000000000000040 .L0 
     /tmp/ccqYKUbi.s:335    .text._ZN7WorkerDD0Ev:0000000000000044 .L0 
     /tmp/ccqYKUbi.s:338    .text._ZN7WorkerDD0Ev:0000000000000048 .L0 
     /tmp/ccqYKUbi.s:340    .text._ZN7WorkerDD0Ev:000000000000004c .L0 
     /tmp/ccqYKUbi.s:347    .text._ZN8ConsumerD2Ev:0000000000000000 _ZN8ConsumerD2Ev
     /tmp/ccqYKUbi.s:351    .text._ZN8ConsumerD2Ev:0000000000000000 .L0 
     /tmp/ccqYKUbi.s:353    .text._ZN8ConsumerD2Ev:0000000000000000 .L0 
     /tmp/ccqYKUbi.s:354    .text._ZN8ConsumerD2Ev:0000000000000004 .L0 
     /tmp/ccqYKUbi.s:357    .text._ZN8ConsumerD2Ev:000000000000000c .L0 
     /tmp/ccqYKUbi.s:358    .text._ZN8ConsumerD2Ev:000000000000000c .L0 
     /tmp/ccqYKUbi.s:360    .text._ZN8ConsumerD2Ev:0000000000000010 .L0 
     /tmp/ccqYKUbi.s:4255   .data.rel.ro.local._ZTV8Consumer:0000000000000000 _ZTV8Consumer
     /tmp/ccqYKUbi.s:363    .text._ZN8ConsumerD2Ev:0000000000000010 .L0 
     /tmp/ccqYKUbi.s:369    .text._ZN8ConsumerD2Ev:0000000000000028 .L0 
     /tmp/ccqYKUbi.s:371    .text._ZN8ConsumerD2Ev:000000000000002c .L0 
     /tmp/ccqYKUbi.s:372    .text._ZN8ConsumerD2Ev:000000000000002c .L0 
     /tmp/ccqYKUbi.s:374    .text._ZN8ConsumerD2Ev:0000000000000030 .L0 
     /tmp/ccqYKUbi.s:376    .text._ZN8ConsumerD2Ev:0000000000000034 .L0 
     /tmp/ccqYKUbi.s:347    .text._ZN8ConsumerD2Ev:0000000000000000 _ZN8ConsumerD1Ev
     /tmp/ccqYKUbi.s:385    .text._ZN8ConsumerD0Ev:0000000000000000 _ZN8ConsumerD0Ev
     /tmp/ccqYKUbi.s:388    .text._ZN8ConsumerD0Ev:0000000000000000 .L0 
     /tmp/ccqYKUbi.s:390    .text._ZN8ConsumerD0Ev:0000000000000000 .L0 
     /tmp/ccqYKUbi.s:391    .text._ZN8ConsumerD0Ev:0000000000000004 .L0 
     /tmp/ccqYKUbi.s:395    .text._ZN8ConsumerD0Ev:0000000000000010 .L0 
     /tmp/ccqYKUbi.s:396    .text._ZN8ConsumerD0Ev:0000000000000010 .L0 
     /tmp/ccqYKUbi.s:397    .text._ZN8ConsumerD0Ev:0000000000000010 .L0 
     /tmp/ccqYKUbi.s:399    .text._ZN8ConsumerD0Ev:0000000000000014 .L0 
     /tmp/ccqYKUbi.s:405    .text._ZN8ConsumerD0Ev:0000000000000018 .L0 
     /tmp/ccqYKUbi.s:415    .text._ZN8ConsumerD0Ev:000000000000003c .L0 
     /tmp/ccqYKUbi.s:417    .text._ZN8ConsumerD0Ev:0000000000000040 .L0 
     /tmp/ccqYKUbi.s:418    .text._ZN8ConsumerD0Ev:0000000000000040 .L0 
     /tmp/ccqYKUbi.s:420    .text._ZN8ConsumerD0Ev:0000000000000044 .L0 
     /tmp/ccqYKUbi.s:423    .text._ZN8ConsumerD0Ev:0000000000000048 .L0 
     /tmp/ccqYKUbi.s:425    .text._ZN8ConsumerD0Ev:000000000000004c .L0 
     /tmp/ccqYKUbi.s:432    .text._ZN8ProducerD2Ev:0000000000000000 _ZN8ProducerD2Ev
     /tmp/ccqYKUbi.s:435    .text._ZN8ProducerD2Ev:0000000000000000 .L0 
     /tmp/ccqYKUbi.s:437    .text._ZN8ProducerD2Ev:0000000000000000 .L0 
     /tmp/ccqYKUbi.s:438    .text._ZN8ProducerD2Ev:0000000000000004 .L0 
     /tmp/ccqYKUbi.s:441    .text._ZN8ProducerD2Ev:000000000000000c .L0 
     /tmp/ccqYKUbi.s:442    .text._ZN8ProducerD2Ev:000000000000000c .L0 
     /tmp/ccqYKUbi.s:444    .text._ZN8ProducerD2Ev:0000000000000010 .L0 
     /tmp/ccqYKUbi.s:4244   .data.rel.ro.local._ZTV8Producer:0000000000000000 _ZTV8Producer
     /tmp/ccqYKUbi.s:447    .text._ZN8ProducerD2Ev:0000000000000010 .L0 
     /tmp/ccqYKUbi.s:453    .text._ZN8ProducerD2Ev:0000000000000028 .L0 
     /tmp/ccqYKUbi.s:455    .text._ZN8ProducerD2Ev:000000000000002c .L0 
     /tmp/ccqYKUbi.s:456    .text._ZN8ProducerD2Ev:000000000000002c .L0 
     /tmp/ccqYKUbi.s:458    .text._ZN8ProducerD2Ev:0000000000000030 .L0 
     /tmp/ccqYKUbi.s:460    .text._ZN8ProducerD2Ev:0000000000000034 .L0 
     /tmp/ccqYKUbi.s:432    .text._ZN8ProducerD2Ev:0000000000000000 _ZN8ProducerD1Ev
     /tmp/ccqYKUbi.s:469    .text._ZN8ProducerD0Ev:0000000000000000 _ZN8ProducerD0Ev
     /tmp/ccqYKUbi.s:472    .text._ZN8ProducerD0Ev:0000000000000000 .L0 
     /tmp/ccqYKUbi.s:474    .text._ZN8ProducerD0Ev:0000000000000000 .L0 
     /tmp/ccqYKUbi.s:475    .text._ZN8ProducerD0Ev:0000000000000004 .L0 
GAS LISTING /tmp/ccqYKUbi.s 			page 104


     /tmp/ccqYKUbi.s:479    .text._ZN8ProducerD0Ev:0000000000000010 .L0 
     /tmp/ccqYKUbi.s:480    .text._ZN8ProducerD0Ev:0000000000000010 .L0 
     /tmp/ccqYKUbi.s:481    .text._ZN8ProducerD0Ev:0000000000000010 .L0 
     /tmp/ccqYKUbi.s:483    .text._ZN8ProducerD0Ev:0000000000000014 .L0 
     /tmp/ccqYKUbi.s:489    .text._ZN8ProducerD0Ev:0000000000000018 .L0 
     /tmp/ccqYKUbi.s:499    .text._ZN8ProducerD0Ev:000000000000003c .L0 
     /tmp/ccqYKUbi.s:501    .text._ZN8ProducerD0Ev:0000000000000040 .L0 
     /tmp/ccqYKUbi.s:502    .text._ZN8ProducerD0Ev:0000000000000040 .L0 
     /tmp/ccqYKUbi.s:504    .text._ZN8ProducerD0Ev:0000000000000044 .L0 
     /tmp/ccqYKUbi.s:507    .text._ZN8ProducerD0Ev:0000000000000048 .L0 
     /tmp/ccqYKUbi.s:509    .text._ZN8ProducerD0Ev:000000000000004c .L0 
     /tmp/ccqYKUbi.s:516    .text._ZN16ProducerKeyboardD2Ev:0000000000000000 _ZN16ProducerKeyboardD2Ev
     /tmp/ccqYKUbi.s:519    .text._ZN16ProducerKeyboardD2Ev:0000000000000000 .L0 
     /tmp/ccqYKUbi.s:521    .text._ZN16ProducerKeyboardD2Ev:0000000000000000 .L0 
     /tmp/ccqYKUbi.s:522    .text._ZN16ProducerKeyboardD2Ev:0000000000000004 .L0 
     /tmp/ccqYKUbi.s:525    .text._ZN16ProducerKeyboardD2Ev:000000000000000c .L0 
     /tmp/ccqYKUbi.s:526    .text._ZN16ProducerKeyboardD2Ev:000000000000000c .L0 
     /tmp/ccqYKUbi.s:528    .text._ZN16ProducerKeyboardD2Ev:0000000000000010 .L0 
     /tmp/ccqYKUbi.s:4233   .data.rel.ro.local._ZTV16ProducerKeyboard:0000000000000000 _ZTV16ProducerKeyboard
     /tmp/ccqYKUbi.s:531    .text._ZN16ProducerKeyboardD2Ev:0000000000000010 .L0 
     /tmp/ccqYKUbi.s:537    .text._ZN16ProducerKeyboardD2Ev:0000000000000028 .L0 
     /tmp/ccqYKUbi.s:539    .text._ZN16ProducerKeyboardD2Ev:000000000000002c .L0 
     /tmp/ccqYKUbi.s:540    .text._ZN16ProducerKeyboardD2Ev:000000000000002c .L0 
     /tmp/ccqYKUbi.s:542    .text._ZN16ProducerKeyboardD2Ev:0000000000000030 .L0 
     /tmp/ccqYKUbi.s:544    .text._ZN16ProducerKeyboardD2Ev:0000000000000034 .L0 
     /tmp/ccqYKUbi.s:516    .text._ZN16ProducerKeyboardD2Ev:0000000000000000 _ZN16ProducerKeyboardD1Ev
     /tmp/ccqYKUbi.s:553    .text._ZN16ProducerKeyboardD0Ev:0000000000000000 _ZN16ProducerKeyboardD0Ev
     /tmp/ccqYKUbi.s:556    .text._ZN16ProducerKeyboardD0Ev:0000000000000000 .L0 
     /tmp/ccqYKUbi.s:558    .text._ZN16ProducerKeyboardD0Ev:0000000000000000 .L0 
     /tmp/ccqYKUbi.s:559    .text._ZN16ProducerKeyboardD0Ev:0000000000000004 .L0 
     /tmp/ccqYKUbi.s:563    .text._ZN16ProducerKeyboardD0Ev:0000000000000010 .L0 
     /tmp/ccqYKUbi.s:564    .text._ZN16ProducerKeyboardD0Ev:0000000000000010 .L0 
     /tmp/ccqYKUbi.s:565    .text._ZN16ProducerKeyboardD0Ev:0000000000000010 .L0 
     /tmp/ccqYKUbi.s:567    .text._ZN16ProducerKeyboardD0Ev:0000000000000014 .L0 
     /tmp/ccqYKUbi.s:573    .text._ZN16ProducerKeyboardD0Ev:0000000000000018 .L0 
     /tmp/ccqYKUbi.s:583    .text._ZN16ProducerKeyboardD0Ev:000000000000003c .L0 
     /tmp/ccqYKUbi.s:585    .text._ZN16ProducerKeyboardD0Ev:0000000000000040 .L0 
     /tmp/ccqYKUbi.s:586    .text._ZN16ProducerKeyboardD0Ev:0000000000000040 .L0 
     /tmp/ccqYKUbi.s:588    .text._ZN16ProducerKeyboardD0Ev:0000000000000044 .L0 
     /tmp/ccqYKUbi.s:591    .text._ZN16ProducerKeyboardD0Ev:0000000000000048 .L0 
     /tmp/ccqYKUbi.s:593    .text._ZN16ProducerKeyboardD0Ev:000000000000004c .L0 
     /tmp/ccqYKUbi.s:600    .text._ZN19ConsumerProducerCPP8ConsumerD2Ev:0000000000000000 _ZN19ConsumerProducerCPP8ConsumerD2Ev
     /tmp/ccqYKUbi.s:604    .text._ZN19ConsumerProducerCPP8ConsumerD2Ev:0000000000000000 .L0 
     /tmp/ccqYKUbi.s:606    .text._ZN19ConsumerProducerCPP8ConsumerD2Ev:0000000000000000 .L0 
     /tmp/ccqYKUbi.s:607    .text._ZN19ConsumerProducerCPP8ConsumerD2Ev:0000000000000004 .L0 
     /tmp/ccqYKUbi.s:610    .text._ZN19ConsumerProducerCPP8ConsumerD2Ev:000000000000000c .L0 
     /tmp/ccqYKUbi.s:611    .text._ZN19ConsumerProducerCPP8ConsumerD2Ev:000000000000000c .L0 
     /tmp/ccqYKUbi.s:613    .text._ZN19ConsumerProducerCPP8ConsumerD2Ev:0000000000000010 .L0 
     /tmp/ccqYKUbi.s:4288   .data.rel.ro.local._ZTVN19ConsumerProducerCPP8ConsumerE:0000000000000000 _ZTVN19ConsumerProducerCPP8ConsumerE
     /tmp/ccqYKUbi.s:616    .text._ZN19ConsumerProducerCPP8ConsumerD2Ev:0000000000000010 .L0 
     /tmp/ccqYKUbi.s:622    .text._ZN19ConsumerProducerCPP8ConsumerD2Ev:0000000000000028 .L0 
     /tmp/ccqYKUbi.s:624    .text._ZN19ConsumerProducerCPP8ConsumerD2Ev:000000000000002c .L0 
     /tmp/ccqYKUbi.s:625    .text._ZN19ConsumerProducerCPP8ConsumerD2Ev:000000000000002c .L0 
     /tmp/ccqYKUbi.s:627    .text._ZN19ConsumerProducerCPP8ConsumerD2Ev:0000000000000030 .L0 
     /tmp/ccqYKUbi.s:629    .text._ZN19ConsumerProducerCPP8ConsumerD2Ev:0000000000000034 .L0 
     /tmp/ccqYKUbi.s:600    .text._ZN19ConsumerProducerCPP8ConsumerD2Ev:0000000000000000 _ZN19ConsumerProducerCPP8ConsumerD1Ev
     /tmp/ccqYKUbi.s:638    .text._ZN19ConsumerProducerCPP8ConsumerD0Ev:0000000000000000 _ZN19ConsumerProducerCPP8ConsumerD0Ev
GAS LISTING /tmp/ccqYKUbi.s 			page 105


     /tmp/ccqYKUbi.s:641    .text._ZN19ConsumerProducerCPP8ConsumerD0Ev:0000000000000000 .L0 
     /tmp/ccqYKUbi.s:643    .text._ZN19ConsumerProducerCPP8ConsumerD0Ev:0000000000000000 .L0 
     /tmp/ccqYKUbi.s:644    .text._ZN19ConsumerProducerCPP8ConsumerD0Ev:0000000000000004 .L0 
     /tmp/ccqYKUbi.s:648    .text._ZN19ConsumerProducerCPP8ConsumerD0Ev:0000000000000010 .L0 
     /tmp/ccqYKUbi.s:649    .text._ZN19ConsumerProducerCPP8ConsumerD0Ev:0000000000000010 .L0 
     /tmp/ccqYKUbi.s:650    .text._ZN19ConsumerProducerCPP8ConsumerD0Ev:0000000000000010 .L0 
     /tmp/ccqYKUbi.s:652    .text._ZN19ConsumerProducerCPP8ConsumerD0Ev:0000000000000014 .L0 
     /tmp/ccqYKUbi.s:658    .text._ZN19ConsumerProducerCPP8ConsumerD0Ev:0000000000000018 .L0 
     /tmp/ccqYKUbi.s:668    .text._ZN19ConsumerProducerCPP8ConsumerD0Ev:000000000000003c .L0 
     /tmp/ccqYKUbi.s:670    .text._ZN19ConsumerProducerCPP8ConsumerD0Ev:0000000000000040 .L0 
     /tmp/ccqYKUbi.s:671    .text._ZN19ConsumerProducerCPP8ConsumerD0Ev:0000000000000040 .L0 
     /tmp/ccqYKUbi.s:673    .text._ZN19ConsumerProducerCPP8ConsumerD0Ev:0000000000000044 .L0 
     /tmp/ccqYKUbi.s:676    .text._ZN19ConsumerProducerCPP8ConsumerD0Ev:0000000000000048 .L0 
     /tmp/ccqYKUbi.s:678    .text._ZN19ConsumerProducerCPP8ConsumerD0Ev:000000000000004c .L0 
     /tmp/ccqYKUbi.s:685    .text._ZN19ConsumerProducerCPP16ProducerKeyboradD2Ev:0000000000000000 _ZN19ConsumerProducerCPP16ProducerKeyboradD2Ev
     /tmp/ccqYKUbi.s:688    .text._ZN19ConsumerProducerCPP16ProducerKeyboradD2Ev:0000000000000000 .L0 
     /tmp/ccqYKUbi.s:690    .text._ZN19ConsumerProducerCPP16ProducerKeyboradD2Ev:0000000000000000 .L0 
     /tmp/ccqYKUbi.s:691    .text._ZN19ConsumerProducerCPP16ProducerKeyboradD2Ev:0000000000000004 .L0 
     /tmp/ccqYKUbi.s:694    .text._ZN19ConsumerProducerCPP16ProducerKeyboradD2Ev:000000000000000c .L0 
     /tmp/ccqYKUbi.s:695    .text._ZN19ConsumerProducerCPP16ProducerKeyboradD2Ev:000000000000000c .L0 
     /tmp/ccqYKUbi.s:697    .text._ZN19ConsumerProducerCPP16ProducerKeyboradD2Ev:0000000000000010 .L0 
     /tmp/ccqYKUbi.s:4266   .data.rel.ro.local._ZTVN19ConsumerProducerCPP16ProducerKeyboradE:0000000000000000 _ZTVN19ConsumerProducerCPP16ProducerKeyboradE
     /tmp/ccqYKUbi.s:700    .text._ZN19ConsumerProducerCPP16ProducerKeyboradD2Ev:0000000000000010 .L0 
     /tmp/ccqYKUbi.s:706    .text._ZN19ConsumerProducerCPP16ProducerKeyboradD2Ev:0000000000000028 .L0 
     /tmp/ccqYKUbi.s:708    .text._ZN19ConsumerProducerCPP16ProducerKeyboradD2Ev:000000000000002c .L0 
     /tmp/ccqYKUbi.s:709    .text._ZN19ConsumerProducerCPP16ProducerKeyboradD2Ev:000000000000002c .L0 
     /tmp/ccqYKUbi.s:711    .text._ZN19ConsumerProducerCPP16ProducerKeyboradD2Ev:0000000000000030 .L0 
     /tmp/ccqYKUbi.s:713    .text._ZN19ConsumerProducerCPP16ProducerKeyboradD2Ev:0000000000000034 .L0 
     /tmp/ccqYKUbi.s:685    .text._ZN19ConsumerProducerCPP16ProducerKeyboradD2Ev:0000000000000000 _ZN19ConsumerProducerCPP16ProducerKeyboradD1Ev
     /tmp/ccqYKUbi.s:722    .text._ZN19ConsumerProducerCPP16ProducerKeyboradD0Ev:0000000000000000 _ZN19ConsumerProducerCPP16ProducerKeyboradD0Ev
     /tmp/ccqYKUbi.s:725    .text._ZN19ConsumerProducerCPP16ProducerKeyboradD0Ev:0000000000000000 .L0 
     /tmp/ccqYKUbi.s:727    .text._ZN19ConsumerProducerCPP16ProducerKeyboradD0Ev:0000000000000000 .L0 
     /tmp/ccqYKUbi.s:728    .text._ZN19ConsumerProducerCPP16ProducerKeyboradD0Ev:0000000000000004 .L0 
     /tmp/ccqYKUbi.s:732    .text._ZN19ConsumerProducerCPP16ProducerKeyboradD0Ev:0000000000000010 .L0 
     /tmp/ccqYKUbi.s:733    .text._ZN19ConsumerProducerCPP16ProducerKeyboradD0Ev:0000000000000010 .L0 
     /tmp/ccqYKUbi.s:734    .text._ZN19ConsumerProducerCPP16ProducerKeyboradD0Ev:0000000000000010 .L0 
     /tmp/ccqYKUbi.s:736    .text._ZN19ConsumerProducerCPP16ProducerKeyboradD0Ev:0000000000000014 .L0 
     /tmp/ccqYKUbi.s:742    .text._ZN19ConsumerProducerCPP16ProducerKeyboradD0Ev:0000000000000018 .L0 
     /tmp/ccqYKUbi.s:752    .text._ZN19ConsumerProducerCPP16ProducerKeyboradD0Ev:000000000000003c .L0 
     /tmp/ccqYKUbi.s:754    .text._ZN19ConsumerProducerCPP16ProducerKeyboradD0Ev:0000000000000040 .L0 
     /tmp/ccqYKUbi.s:755    .text._ZN19ConsumerProducerCPP16ProducerKeyboradD0Ev:0000000000000040 .L0 
     /tmp/ccqYKUbi.s:757    .text._ZN19ConsumerProducerCPP16ProducerKeyboradD0Ev:0000000000000044 .L0 
     /tmp/ccqYKUbi.s:760    .text._ZN19ConsumerProducerCPP16ProducerKeyboradD0Ev:0000000000000048 .L0 
     /tmp/ccqYKUbi.s:762    .text._ZN19ConsumerProducerCPP16ProducerKeyboradD0Ev:000000000000004c .L0 
     /tmp/ccqYKUbi.s:769    .text._ZN19ConsumerProducerCPP8ProducerD2Ev:0000000000000000 _ZN19ConsumerProducerCPP8ProducerD2Ev
     /tmp/ccqYKUbi.s:772    .text._ZN19ConsumerProducerCPP8ProducerD2Ev:0000000000000000 .L0 
     /tmp/ccqYKUbi.s:774    .text._ZN19ConsumerProducerCPP8ProducerD2Ev:0000000000000000 .L0 
     /tmp/ccqYKUbi.s:775    .text._ZN19ConsumerProducerCPP8ProducerD2Ev:0000000000000004 .L0 
     /tmp/ccqYKUbi.s:778    .text._ZN19ConsumerProducerCPP8ProducerD2Ev:000000000000000c .L0 
     /tmp/ccqYKUbi.s:779    .text._ZN19ConsumerProducerCPP8ProducerD2Ev:000000000000000c .L0 
     /tmp/ccqYKUbi.s:781    .text._ZN19ConsumerProducerCPP8ProducerD2Ev:0000000000000010 .L0 
     /tmp/ccqYKUbi.s:4277   .data.rel.ro.local._ZTVN19ConsumerProducerCPP8ProducerE:0000000000000000 _ZTVN19ConsumerProducerCPP8ProducerE
     /tmp/ccqYKUbi.s:784    .text._ZN19ConsumerProducerCPP8ProducerD2Ev:0000000000000010 .L0 
     /tmp/ccqYKUbi.s:790    .text._ZN19ConsumerProducerCPP8ProducerD2Ev:0000000000000028 .L0 
     /tmp/ccqYKUbi.s:792    .text._ZN19ConsumerProducerCPP8ProducerD2Ev:000000000000002c .L0 
     /tmp/ccqYKUbi.s:793    .text._ZN19ConsumerProducerCPP8ProducerD2Ev:000000000000002c .L0 
     /tmp/ccqYKUbi.s:795    .text._ZN19ConsumerProducerCPP8ProducerD2Ev:0000000000000030 .L0 
GAS LISTING /tmp/ccqYKUbi.s 			page 106


     /tmp/ccqYKUbi.s:797    .text._ZN19ConsumerProducerCPP8ProducerD2Ev:0000000000000034 .L0 
     /tmp/ccqYKUbi.s:769    .text._ZN19ConsumerProducerCPP8ProducerD2Ev:0000000000000000 _ZN19ConsumerProducerCPP8ProducerD1Ev
     /tmp/ccqYKUbi.s:806    .text._ZN19ConsumerProducerCPP8ProducerD0Ev:0000000000000000 _ZN19ConsumerProducerCPP8ProducerD0Ev
     /tmp/ccqYKUbi.s:809    .text._ZN19ConsumerProducerCPP8ProducerD0Ev:0000000000000000 .L0 
     /tmp/ccqYKUbi.s:811    .text._ZN19ConsumerProducerCPP8ProducerD0Ev:0000000000000000 .L0 
     /tmp/ccqYKUbi.s:812    .text._ZN19ConsumerProducerCPP8ProducerD0Ev:0000000000000004 .L0 
     /tmp/ccqYKUbi.s:816    .text._ZN19ConsumerProducerCPP8ProducerD0Ev:0000000000000010 .L0 
     /tmp/ccqYKUbi.s:817    .text._ZN19ConsumerProducerCPP8ProducerD0Ev:0000000000000010 .L0 
     /tmp/ccqYKUbi.s:818    .text._ZN19ConsumerProducerCPP8ProducerD0Ev:0000000000000010 .L0 
     /tmp/ccqYKUbi.s:820    .text._ZN19ConsumerProducerCPP8ProducerD0Ev:0000000000000014 .L0 
     /tmp/ccqYKUbi.s:826    .text._ZN19ConsumerProducerCPP8ProducerD0Ev:0000000000000018 .L0 
     /tmp/ccqYKUbi.s:836    .text._ZN19ConsumerProducerCPP8ProducerD0Ev:000000000000003c .L0 
     /tmp/ccqYKUbi.s:838    .text._ZN19ConsumerProducerCPP8ProducerD0Ev:0000000000000040 .L0 
     /tmp/ccqYKUbi.s:839    .text._ZN19ConsumerProducerCPP8ProducerD0Ev:0000000000000040 .L0 
     /tmp/ccqYKUbi.s:841    .text._ZN19ConsumerProducerCPP8ProducerD0Ev:0000000000000044 .L0 
     /tmp/ccqYKUbi.s:844    .text._ZN19ConsumerProducerCPP8ProducerD0Ev:0000000000000048 .L0 
     /tmp/ccqYKUbi.s:846    .text._ZN19ConsumerProducerCPP8ProducerD0Ev:000000000000004c .L0 
     /tmp/ccqYKUbi.s:853    .text._ZN19ConsumerProducerCPP16ProducerKeyborad3runEv:0000000000000000 _ZN19ConsumerProducerCPP16ProducerKeyborad3runEv
     /tmp/ccqYKUbi.s:856    .text._ZN19ConsumerProducerCPP16ProducerKeyborad3runEv:0000000000000000 .L0 
     /tmp/ccqYKUbi.s:858    .text._ZN19ConsumerProducerCPP16ProducerKeyborad3runEv:0000000000000000 .L0 
     /tmp/ccqYKUbi.s:859    .text._ZN19ConsumerProducerCPP16ProducerKeyborad3runEv:0000000000000004 .L0 
     /tmp/ccqYKUbi.s:863    .text._ZN19ConsumerProducerCPP16ProducerKeyborad3runEv:0000000000000010 .L0 
     /tmp/ccqYKUbi.s:864    .text._ZN19ConsumerProducerCPP16ProducerKeyborad3runEv:0000000000000010 .L0 
     /tmp/ccqYKUbi.s:865    .text._ZN19ConsumerProducerCPP16ProducerKeyborad3runEv:0000000000000010 .L0 
     /tmp/ccqYKUbi.s:867    .text._ZN19ConsumerProducerCPP16ProducerKeyborad3runEv:0000000000000014 .L0 
     /tmp/ccqYKUbi.s:870    .text._ZN19ConsumerProducerCPP16ProducerKeyborad3runEv:0000000000000018 .L0 
     /tmp/ccqYKUbi.s:873    .text._ZN19ConsumerProducerCPP16ProducerKeyborad3runEv:0000000000000018 .L0 
     /tmp/ccqYKUbi.s:874    .text._ZN19ConsumerProducerCPP16ProducerKeyborad3runEv:0000000000000018 .L0 
     /tmp/ccqYKUbi.s:875    .text._ZN19ConsumerProducerCPP16ProducerKeyborad3runEv:0000000000000018 .L0 
     /tmp/ccqYKUbi.s:876    .text._ZN19ConsumerProducerCPP16ProducerKeyborad3runEv:0000000000000018 .L0 
     /tmp/ccqYKUbi.s:879    .text._ZN19ConsumerProducerCPP16ProducerKeyborad3runEv:0000000000000020 .L0 
     /tmp/ccqYKUbi.s:882    .text._ZN19ConsumerProducerCPP16ProducerKeyborad3runEv:0000000000000024 .L0 
     /tmp/ccqYKUbi.s:885    .text._ZN19ConsumerProducerCPP16ProducerKeyborad3runEv:000000000000002c .L0 
     /tmp/ccqYKUbi.s:887    .text._ZN19ConsumerProducerCPP16ProducerKeyborad3runEv:0000000000000030 .L0 
     /tmp/ccqYKUbi.s:891    .text._ZN19ConsumerProducerCPP16ProducerKeyborad3runEv:000000000000003c .L0 
     /tmp/ccqYKUbi.s:892    .text._ZN19ConsumerProducerCPP16ProducerKeyborad3runEv:000000000000003c .L0 
     /tmp/ccqYKUbi.s:896    .text._ZN19ConsumerProducerCPP16ProducerKeyborad3runEv:0000000000000040 .L0 
     /tmp/ccqYKUbi.s:897    .text._ZN19ConsumerProducerCPP16ProducerKeyborad3runEv:0000000000000040 .L0 
     /tmp/ccqYKUbi.s:900    .text._ZN19ConsumerProducerCPP16ProducerKeyborad3runEv:000000000000004c .L0 
     /tmp/ccqYKUbi.s:902    .text._ZN19ConsumerProducerCPP16ProducerKeyborad3runEv:0000000000000050 .L0 
     /tmp/ccqYKUbi.s:909    .text._ZN19ConsumerProducerCPP16ProducerKeyborad3runEv:0000000000000060 .L0 
     /tmp/ccqYKUbi.s:911    .text._ZN19ConsumerProducerCPP16ProducerKeyborad3runEv:0000000000000064 .L0 
     /tmp/ccqYKUbi.s:915    .text._ZN19ConsumerProducerCPP16ProducerKeyborad3runEv:0000000000000070 .L0 
     /tmp/ccqYKUbi.s:916    .text._ZN19ConsumerProducerCPP16ProducerKeyborad3runEv:0000000000000074 .L0 
     /tmp/ccqYKUbi.s:918    .text._ZN19ConsumerProducerCPP16ProducerKeyborad3runEv:0000000000000078 .L0 
     /tmp/ccqYKUbi.s:919    .text._ZN19ConsumerProducerCPP16ProducerKeyborad3runEv:0000000000000078 .L0 
     /tmp/ccqYKUbi.s:921    .text._ZN19ConsumerProducerCPP16ProducerKeyborad3runEv:000000000000007c .L0 
     /tmp/ccqYKUbi.s:924    .text._ZN19ConsumerProducerCPP16ProducerKeyborad3runEv:0000000000000080 .L0 
     /tmp/ccqYKUbi.s:926    .text._ZN19ConsumerProducerCPP16ProducerKeyborad3runEv:0000000000000084 .L0 
     /tmp/ccqYKUbi.s:933    .text._ZN19ConsumerProducerCPP8Consumer3runEv:0000000000000000 _ZN19ConsumerProducerCPP8Consumer3runEv
     /tmp/ccqYKUbi.s:936    .text._ZN19ConsumerProducerCPP8Consumer3runEv:0000000000000000 .L0 
     /tmp/ccqYKUbi.s:938    .text._ZN19ConsumerProducerCPP8Consumer3runEv:0000000000000000 .L0 
     /tmp/ccqYKUbi.s:939    .text._ZN19ConsumerProducerCPP8Consumer3runEv:0000000000000004 .L0 
     /tmp/ccqYKUbi.s:945    .text._ZN19ConsumerProducerCPP8Consumer3runEv:0000000000000018 .L0 
     /tmp/ccqYKUbi.s:946    .text._ZN19ConsumerProducerCPP8Consumer3runEv:0000000000000018 .L0 
     /tmp/ccqYKUbi.s:947    .text._ZN19ConsumerProducerCPP8Consumer3runEv:0000000000000018 .L0 
     /tmp/ccqYKUbi.s:948    .text._ZN19ConsumerProducerCPP8Consumer3runEv:0000000000000018 .L0 
GAS LISTING /tmp/ccqYKUbi.s 			page 107


     /tmp/ccqYKUbi.s:949    .text._ZN19ConsumerProducerCPP8Consumer3runEv:0000000000000018 .L0 
     /tmp/ccqYKUbi.s:951    .text._ZN19ConsumerProducerCPP8Consumer3runEv:000000000000001c .L0 
     /tmp/ccqYKUbi.s:955    .text._ZN19ConsumerProducerCPP8Consumer3runEv:0000000000000020 .L0 
     /tmp/ccqYKUbi.s:956    .text._ZN19ConsumerProducerCPP8Consumer3runEv:0000000000000020 .L0 
     /tmp/ccqYKUbi.s:962    .text._ZN19ConsumerProducerCPP8Consumer3runEv:0000000000000028 .L0 
     /tmp/ccqYKUbi.s:963    .text._ZN19ConsumerProducerCPP8Consumer3runEv:0000000000000028 .L0 
     /tmp/ccqYKUbi.s:969    .text._ZN19ConsumerProducerCPP8Consumer3runEv:0000000000000034 .L0 
     /tmp/ccqYKUbi.s:970    .text._ZN19ConsumerProducerCPP8Consumer3runEv:0000000000000034 .L0 
     /tmp/ccqYKUbi.s:974    .text._ZN19ConsumerProducerCPP8Consumer3runEv:0000000000000040 .L0 
     /tmp/ccqYKUbi.s:975    .text._ZN19ConsumerProducerCPP8Consumer3runEv:0000000000000040 .L0 
     /tmp/ccqYKUbi.s:977    .text._ZN19ConsumerProducerCPP8Consumer3runEv:0000000000000044 .L0 
     /tmp/ccqYKUbi.s:981    .text._ZN19ConsumerProducerCPP8Consumer3runEv:0000000000000050 .L0 
     /tmp/ccqYKUbi.s:982    .text._ZN19ConsumerProducerCPP8Consumer3runEv:0000000000000050 .L0 
     /tmp/ccqYKUbi.s:986    .text._ZN19ConsumerProducerCPP8Consumer3runEv:0000000000000058 .L0 
     /tmp/ccqYKUbi.s:987    .text._ZN19ConsumerProducerCPP8Consumer3runEv:0000000000000058 .L0 
     /tmp/ccqYKUbi.s:992    .text._ZN19ConsumerProducerCPP8Consumer3runEv:0000000000000064 .L0 
     /tmp/ccqYKUbi.s:993    .text._ZN19ConsumerProducerCPP8Consumer3runEv:0000000000000064 .L0 
     /tmp/ccqYKUbi.s:997    .text._ZN19ConsumerProducerCPP8Consumer3runEv:000000000000006c .L0 
     /tmp/ccqYKUbi.s:1003   .text._ZN19ConsumerProducerCPP8Consumer3runEv:0000000000000074 .L0 
     /tmp/ccqYKUbi.s:1004   .text._ZN19ConsumerProducerCPP8Consumer3runEv:0000000000000074 .L0 
     /tmp/ccqYKUbi.s:1006   .text._ZN19ConsumerProducerCPP8Consumer3runEv:0000000000000078 .L0 
     /tmp/ccqYKUbi.s:1010   .text._ZN19ConsumerProducerCPP8Consumer3runEv:0000000000000084 .L0 
     /tmp/ccqYKUbi.s:1011   .text._ZN19ConsumerProducerCPP8Consumer3runEv:0000000000000084 .L0 
     /tmp/ccqYKUbi.s:1018   .text._ZN19ConsumerProducerCPP8Consumer3runEv:0000000000000090 .L0 
     /tmp/ccqYKUbi.s:1019   .text._ZN19ConsumerProducerCPP8Consumer3runEv:0000000000000090 .L0 
     /tmp/ccqYKUbi.s:1020   .text._ZN19ConsumerProducerCPP8Consumer3runEv:0000000000000090 .L0 
     /tmp/ccqYKUbi.s:1022   .text._ZN19ConsumerProducerCPP8Consumer3runEv:0000000000000094 .L0 
     /tmp/ccqYKUbi.s:1026   .text._ZN19ConsumerProducerCPP8Consumer3runEv:00000000000000a0 .L0 
     /tmp/ccqYKUbi.s:1028   .text._ZN19ConsumerProducerCPP8Consumer3runEv:00000000000000a4 .L0 
     /tmp/ccqYKUbi.s:1030   .text._ZN19ConsumerProducerCPP8Consumer3runEv:00000000000000a8 .L0 
     /tmp/ccqYKUbi.s:1034   .text._ZN19ConsumerProducerCPP8Consumer3runEv:00000000000000b4 .L0 
     /tmp/ccqYKUbi.s:1035   .text._ZN19ConsumerProducerCPP8Consumer3runEv:00000000000000b8 .L0 
     /tmp/ccqYKUbi.s:1037   .text._ZN19ConsumerProducerCPP8Consumer3runEv:00000000000000bc .L0 
     /tmp/ccqYKUbi.s:1038   .text._ZN19ConsumerProducerCPP8Consumer3runEv:00000000000000bc .L0 
     /tmp/ccqYKUbi.s:1040   .text._ZN19ConsumerProducerCPP8Consumer3runEv:00000000000000c0 .L0 
     /tmp/ccqYKUbi.s:1042   .text._ZN19ConsumerProducerCPP8Consumer3runEv:00000000000000c4 .L0 
     /tmp/ccqYKUbi.s:1045   .text._ZN19ConsumerProducerCPP8Consumer3runEv:00000000000000c8 .L0 
     /tmp/ccqYKUbi.s:1048   .text._ZN19ConsumerProducerCPP8Consumer3runEv:00000000000000cc .L0 
     /tmp/ccqYKUbi.s:1050   .text._ZN19ConsumerProducerCPP8Consumer3runEv:00000000000000d0 .L0 
     /tmp/ccqYKUbi.s:1064   .text:0000000000000000 _Z9sleepyRunPv
     /tmp/ccqYKUbi.s:1068   .text:0000000000000000 .L0 
     /tmp/ccqYKUbi.s:1070   .text:0000000000000000 .L0 
     /tmp/ccqYKUbi.s:1071   .text:0000000000000004 .L0 
     /tmp/ccqYKUbi.s:1076   .text:0000000000000014 .L0 
     /tmp/ccqYKUbi.s:1077   .text:0000000000000014 .L0 
     /tmp/ccqYKUbi.s:1078   .text:0000000000000014 .L0 
     /tmp/ccqYKUbi.s:1079   .text:0000000000000014 .L0 
     /tmp/ccqYKUbi.s:1081   .text:0000000000000018 .L0 
     /tmp/ccqYKUbi.s:1083   .text:0000000000000018 .L0 
     /tmp/ccqYKUbi.s:1084   .text:0000000000000018 .L0 
     /tmp/ccqYKUbi.s:1087   .text:000000000000001c .L0 
     /tmp/ccqYKUbi.s:1088   .text:000000000000001c .L0 
     /tmp/ccqYKUbi.s:1092   .text:0000000000000020 .L0 
     /tmp/ccqYKUbi.s:1093   .text:0000000000000020 .L0 
     /tmp/ccqYKUbi.s:1097   .text:0000000000000028 .L0 
     /tmp/ccqYKUbi.s:1098   .text:0000000000000028 .L0 
     /tmp/ccqYKUbi.s:1102   .text:0000000000000038 .L0 
GAS LISTING /tmp/ccqYKUbi.s 			page 108


     /tmp/ccqYKUbi.s:1103   .text:0000000000000038 .L0 
     /tmp/ccqYKUbi.s:1109   .text:000000000000004c .L0 
     /tmp/ccqYKUbi.s:1110   .text:000000000000004c .L0 
     /tmp/ccqYKUbi.s:1114   .text:000000000000005c .L0 
     /tmp/ccqYKUbi.s:1115   .text:000000000000005c .L0 
     /tmp/ccqYKUbi.s:1119   .text:0000000000000068 .L0 
     /tmp/ccqYKUbi.s:1122   .text:000000000000006c .L0 
     /tmp/ccqYKUbi.s:1123   .text:000000000000006c .L0 
     /tmp/ccqYKUbi.s:1127   .text:0000000000000074 .L0 
     /tmp/ccqYKUbi.s:1129   .text:0000000000000078 .L0 
     /tmp/ccqYKUbi.s:1134   .text:000000000000008c .L0 
     /tmp/ccqYKUbi.s:1135   .text:0000000000000090 .L0 
     /tmp/ccqYKUbi.s:1137   .text:0000000000000094 .L0 
     /tmp/ccqYKUbi.s:1138   .text:0000000000000094 .L0 
     /tmp/ccqYKUbi.s:1140   .text:0000000000000098 .L0 
     /tmp/ccqYKUbi.s:1142   .text:000000000000009c .L0 
     /tmp/ccqYKUbi.s:1144   .text:00000000000000a0 .L0 
     /tmp/ccqYKUbi.s:1146   .text:00000000000000a4 .L0 
     /tmp/ccqYKUbi.s:1153   .text._ZN19ConsumerProducerCPP8Producer3runEv:0000000000000000 _ZN19ConsumerProducerCPP8Producer3runEv
     /tmp/ccqYKUbi.s:1156   .text._ZN19ConsumerProducerCPP8Producer3runEv:0000000000000000 .L0 
     /tmp/ccqYKUbi.s:1158   .text._ZN19ConsumerProducerCPP8Producer3runEv:0000000000000000 .L0 
     /tmp/ccqYKUbi.s:1159   .text._ZN19ConsumerProducerCPP8Producer3runEv:0000000000000004 .L0 
     /tmp/ccqYKUbi.s:1164   .text._ZN19ConsumerProducerCPP8Producer3runEv:0000000000000014 .L0 
     /tmp/ccqYKUbi.s:1165   .text._ZN19ConsumerProducerCPP8Producer3runEv:0000000000000014 .L0 
     /tmp/ccqYKUbi.s:1166   .text._ZN19ConsumerProducerCPP8Producer3runEv:0000000000000014 .L0 
     /tmp/ccqYKUbi.s:1167   .text._ZN19ConsumerProducerCPP8Producer3runEv:0000000000000014 .L0 
     /tmp/ccqYKUbi.s:1169   .text._ZN19ConsumerProducerCPP8Producer3runEv:0000000000000018 .L0 
     /tmp/ccqYKUbi.s:1173   .text._ZN19ConsumerProducerCPP8Producer3runEv:000000000000001c .L0 
     /tmp/ccqYKUbi.s:1174   .text._ZN19ConsumerProducerCPP8Producer3runEv:000000000000001c .L0 
     /tmp/ccqYKUbi.s:1178   .text._ZN19ConsumerProducerCPP8Producer3runEv:0000000000000020 .L0 
     /tmp/ccqYKUbi.s:1179   .text._ZN19ConsumerProducerCPP8Producer3runEv:0000000000000020 .L0 
     /tmp/ccqYKUbi.s:1182   .text._ZN19ConsumerProducerCPP8Producer3runEv:000000000000002c .L0 
     /tmp/ccqYKUbi.s:1184   .text._ZN19ConsumerProducerCPP8Producer3runEv:0000000000000030 .L0 
     /tmp/ccqYKUbi.s:1186   .text._ZN19ConsumerProducerCPP8Producer3runEv:0000000000000034 .L0 
     /tmp/ccqYKUbi.s:1191   .text._ZN19ConsumerProducerCPP8Producer3runEv:0000000000000044 .L0 
     /tmp/ccqYKUbi.s:1192   .text._ZN19ConsumerProducerCPP8Producer3runEv:0000000000000044 .L0 
     /tmp/ccqYKUbi.s:1196   .text._ZN19ConsumerProducerCPP8Producer3runEv:000000000000004c .L0 
     /tmp/ccqYKUbi.s:1197   .text._ZN19ConsumerProducerCPP8Producer3runEv:000000000000004c .L0 
     /tmp/ccqYKUbi.s:1199   .text._ZN19ConsumerProducerCPP8Producer3runEv:0000000000000050 .L0 
     /tmp/ccqYKUbi.s:1201   .text._ZN19ConsumerProducerCPP8Producer3runEv:0000000000000054 .L0 
     /tmp/ccqYKUbi.s:1203   .text._ZN19ConsumerProducerCPP8Producer3runEv:0000000000000058 .L0 
     /tmp/ccqYKUbi.s:1208   .text._ZN19ConsumerProducerCPP8Producer3runEv:0000000000000068 .L0 
     /tmp/ccqYKUbi.s:1211   .text._ZN19ConsumerProducerCPP8Producer3runEv:000000000000006c .L0 
     /tmp/ccqYKUbi.s:1213   .text._ZN19ConsumerProducerCPP8Producer3runEv:0000000000000070 .L0 
     /tmp/ccqYKUbi.s:1217   .text._ZN19ConsumerProducerCPP8Producer3runEv:000000000000007c .L0 
     /tmp/ccqYKUbi.s:1218   .text._ZN19ConsumerProducerCPP8Producer3runEv:0000000000000080 .L0 
     /tmp/ccqYKUbi.s:1220   .text._ZN19ConsumerProducerCPP8Producer3runEv:0000000000000084 .L0 
     /tmp/ccqYKUbi.s:1221   .text._ZN19ConsumerProducerCPP8Producer3runEv:0000000000000084 .L0 
     /tmp/ccqYKUbi.s:1223   .text._ZN19ConsumerProducerCPP8Producer3runEv:0000000000000088 .L0 
     /tmp/ccqYKUbi.s:1226   .text._ZN19ConsumerProducerCPP8Producer3runEv:000000000000008c .L0 
     /tmp/ccqYKUbi.s:1229   .text._ZN19ConsumerProducerCPP8Producer3runEv:0000000000000090 .L0 
     /tmp/ccqYKUbi.s:1231   .text._ZN19ConsumerProducerCPP8Producer3runEv:0000000000000094 .L0 
     /tmp/ccqYKUbi.s:1238   .text:00000000000000a4 _Z9fibonaccim
     /tmp/ccqYKUbi.s:1241   .text:00000000000000a4 .L0 
     /tmp/ccqYKUbi.s:1243   .text:00000000000000a4 .L0 
     /tmp/ccqYKUbi.s:1244   .text:00000000000000a8 .L0 
     /tmp/ccqYKUbi.s:1249   .text:00000000000000b8 .L0 
GAS LISTING /tmp/ccqYKUbi.s 			page 109


     /tmp/ccqYKUbi.s:1250   .text:00000000000000b8 .L0 
     /tmp/ccqYKUbi.s:1251   .text:00000000000000b8 .L0 
     /tmp/ccqYKUbi.s:1252   .text:00000000000000b8 .L0 
     /tmp/ccqYKUbi.s:1254   .text:00000000000000bc .L0 
     /tmp/ccqYKUbi.s:1257   .text:00000000000000c0 .L0 
     /tmp/ccqYKUbi.s:1260   .text:00000000000000c8 .L0 
     /tmp/ccqYKUbi.s:1261   .text:00000000000000c8 .L0 
     /tmp/ccqYKUbi.s:1264   .text:00000000000000d0 .L0 
     /tmp/ccqYKUbi.s:1268   .text:00000000000000d4 .L0 
     /tmp/ccqYKUbi.s:1269   .text:00000000000000d4 .L0 
     /tmp/ccqYKUbi.s:1274   .text:00000000000000e4 .L0 
     /tmp/ccqYKUbi.s:1278   .text:00000000000000f0 .L0 
     /tmp/ccqYKUbi.s:1281   .text:00000000000000f4 .L0 
     /tmp/ccqYKUbi.s:1282   .text:00000000000000f8 .L0 
     /tmp/ccqYKUbi.s:1283   .text:00000000000000f8 .L0 
     /tmp/ccqYKUbi.s:1285   .text:00000000000000fc .L0 
     /tmp/ccqYKUbi.s:1286   .text:00000000000000fc .L0 
     /tmp/ccqYKUbi.s:1288   .text:0000000000000100 .L0 
     /tmp/ccqYKUbi.s:1291   .text:0000000000000104 .L0 
     /tmp/ccqYKUbi.s:1293   .text:0000000000000108 .L0 
     /tmp/ccqYKUbi.s:1297   .text:000000000000010c .L0 
     /tmp/ccqYKUbi.s:1299   .text:000000000000010c .L0 
     /tmp/ccqYKUbi.s:1300   .text:000000000000010c .L0 
     /tmp/ccqYKUbi.s:1303   .text:0000000000000118 .L0 
     /tmp/ccqYKUbi.s:1320   .text:0000000000000118 _ZN7WorkerA11workerBodyAEPv
     /tmp/ccqYKUbi.s:1323   .text:0000000000000118 .L0 
     /tmp/ccqYKUbi.s:1325   .text:0000000000000118 .L0 
     /tmp/ccqYKUbi.s:1326   .text:000000000000011c .L0 
     /tmp/ccqYKUbi.s:1331   .text:000000000000012c .L0 
     /tmp/ccqYKUbi.s:1332   .text:000000000000012c .L0 
     /tmp/ccqYKUbi.s:1333   .text:000000000000012c .L0 
     /tmp/ccqYKUbi.s:1334   .text:000000000000012c .L0 
     /tmp/ccqYKUbi.s:1336   .text:0000000000000130 .L0 
     /tmp/ccqYKUbi.s:1340   .text:0000000000000130 .L0 
     /tmp/ccqYKUbi.s:1341   .text:0000000000000130 .L0 
     /tmp/ccqYKUbi.s:1349   .text:0000000000000138 .L0 
     /tmp/ccqYKUbi.s:1350   .text:0000000000000138 .L0 
     /tmp/ccqYKUbi.s:1354   .text:0000000000000140 .L0 
     /tmp/ccqYKUbi.s:1358   .text:0000000000000144 .L0 
     /tmp/ccqYKUbi.s:1364   .text:0000000000000150 .L0 
     /tmp/ccqYKUbi.s:1368   .text:0000000000000154 .L0 
     /tmp/ccqYKUbi.s:1372   .text:0000000000000160 .L0 
     /tmp/ccqYKUbi.s:1382   .text:0000000000000168 .L0 
     /tmp/ccqYKUbi.s:1386   .text:000000000000016c .L0 
     /tmp/ccqYKUbi.s:1390   .text:0000000000000174 .L0 
     /tmp/ccqYKUbi.s:1391   .text:0000000000000174 .L0 
     /tmp/ccqYKUbi.s:1395   .text:0000000000000184 .L0 
     /tmp/ccqYKUbi.s:1396   .text:0000000000000184 .L0 
     /tmp/ccqYKUbi.s:1402   .text:0000000000000198 .L0 
     /tmp/ccqYKUbi.s:1403   .text:0000000000000198 .L0 
     /tmp/ccqYKUbi.s:1408   .text:00000000000001a8 .L0 
     /tmp/ccqYKUbi.s:1409   .text:00000000000001a8 .L0 
     /tmp/ccqYKUbi.s:1417   .text:00000000000001b0 .L0 
     /tmp/ccqYKUbi.s:1418   .text:00000000000001b0 .L0 
     /tmp/ccqYKUbi.s:1422   .text:00000000000001c0 .L0 
     /tmp/ccqYKUbi.s:1423   .text:00000000000001c0 .L0 
     /tmp/ccqYKUbi.s:1426   .text:00000000000001cc .L0 
GAS LISTING /tmp/ccqYKUbi.s 			page 110


     /tmp/ccqYKUbi.s:1427   .text:00000000000001d0 .L0 
     /tmp/ccqYKUbi.s:1429   .text:00000000000001d4 .L0 
     /tmp/ccqYKUbi.s:1430   .text:00000000000001d4 .L0 
     /tmp/ccqYKUbi.s:1432   .text:00000000000001d8 .L0 
     /tmp/ccqYKUbi.s:1434   .text:00000000000001dc .L0 
     /tmp/ccqYKUbi.s:1437   .text:00000000000001e0 .L0 
     /tmp/ccqYKUbi.s:1439   .text:00000000000001e4 .L0 
     /tmp/ccqYKUbi.s:1446   .text._ZN7WorkerA3runEv:0000000000000000 _ZN7WorkerA3runEv
     /tmp/ccqYKUbi.s:1449   .text._ZN7WorkerA3runEv:0000000000000000 .L0 
     /tmp/ccqYKUbi.s:1451   .text._ZN7WorkerA3runEv:0000000000000000 .L0 
     /tmp/ccqYKUbi.s:1452   .text._ZN7WorkerA3runEv:0000000000000004 .L0 
     /tmp/ccqYKUbi.s:1455   .text._ZN7WorkerA3runEv:000000000000000c .L0 
     /tmp/ccqYKUbi.s:1456   .text._ZN7WorkerA3runEv:000000000000000c .L0 
     /tmp/ccqYKUbi.s:1458   .text._ZN7WorkerA3runEv:0000000000000010 .L0 
     /tmp/ccqYKUbi.s:1460   .text._ZN7WorkerA3runEv:0000000000000010 .L0 
     /tmp/ccqYKUbi.s:1461   .text._ZN7WorkerA3runEv:0000000000000010 .L0 
     /tmp/ccqYKUbi.s:1465   .text._ZN7WorkerA3runEv:000000000000001c .L0 
     /tmp/ccqYKUbi.s:1466   .text._ZN7WorkerA3runEv:0000000000000020 .L0 
     /tmp/ccqYKUbi.s:1468   .text._ZN7WorkerA3runEv:0000000000000024 .L0 
     /tmp/ccqYKUbi.s:1469   .text._ZN7WorkerA3runEv:0000000000000024 .L0 
     /tmp/ccqYKUbi.s:1471   .text._ZN7WorkerA3runEv:0000000000000028 .L0 
     /tmp/ccqYKUbi.s:1473   .text._ZN7WorkerA3runEv:000000000000002c .L0 
     /tmp/ccqYKUbi.s:1487   .text:00000000000001e4 _ZN7WorkerB11workerBodyBEPv
     /tmp/ccqYKUbi.s:1490   .text:00000000000001e4 .L0 
     /tmp/ccqYKUbi.s:1492   .text:00000000000001e4 .L0 
     /tmp/ccqYKUbi.s:1493   .text:00000000000001e8 .L0 
     /tmp/ccqYKUbi.s:1498   .text:00000000000001f8 .L0 
     /tmp/ccqYKUbi.s:1499   .text:00000000000001f8 .L0 
     /tmp/ccqYKUbi.s:1500   .text:00000000000001f8 .L0 
     /tmp/ccqYKUbi.s:1501   .text:00000000000001f8 .L0 
     /tmp/ccqYKUbi.s:1503   .text:00000000000001fc .L0 
     /tmp/ccqYKUbi.s:1507   .text:00000000000001fc .L0 
     /tmp/ccqYKUbi.s:1508   .text:00000000000001fc .L0 
     /tmp/ccqYKUbi.s:1516   .text:0000000000000204 .L0 
     /tmp/ccqYKUbi.s:1517   .text:0000000000000204 .L0 
     /tmp/ccqYKUbi.s:1521   .text:000000000000020c .L0 
     /tmp/ccqYKUbi.s:1525   .text:0000000000000210 .L0 
     /tmp/ccqYKUbi.s:1531   .text:000000000000021c .L0 
     /tmp/ccqYKUbi.s:1535   .text:0000000000000220 .L0 
     /tmp/ccqYKUbi.s:1539   .text:000000000000022c .L0 
     /tmp/ccqYKUbi.s:1549   .text:0000000000000234 .L0 
     /tmp/ccqYKUbi.s:1553   .text:0000000000000238 .L0 
     /tmp/ccqYKUbi.s:1557   .text:0000000000000240 .L0 
     /tmp/ccqYKUbi.s:1558   .text:0000000000000240 .L0 
     /tmp/ccqYKUbi.s:1562   .text:0000000000000250 .L0 
     /tmp/ccqYKUbi.s:1563   .text:0000000000000250 .L0 
     /tmp/ccqYKUbi.s:1569   .text:0000000000000264 .L0 
     /tmp/ccqYKUbi.s:1570   .text:0000000000000264 .L0 
     /tmp/ccqYKUbi.s:1575   .text:0000000000000274 .L0 
     /tmp/ccqYKUbi.s:1576   .text:0000000000000274 .L0 
     /tmp/ccqYKUbi.s:1584   .text:000000000000027c .L0 
     /tmp/ccqYKUbi.s:1585   .text:000000000000027c .L0 
     /tmp/ccqYKUbi.s:1589   .text:000000000000028c .L0 
     /tmp/ccqYKUbi.s:1590   .text:000000000000028c .L0 
     /tmp/ccqYKUbi.s:1593   .text:0000000000000298 .L0 
     /tmp/ccqYKUbi.s:1594   .text:0000000000000298 .L0 
     /tmp/ccqYKUbi.s:1597   .text:00000000000002a0 .L0 
GAS LISTING /tmp/ccqYKUbi.s 			page 111


     /tmp/ccqYKUbi.s:1598   .text:00000000000002a4 .L0 
     /tmp/ccqYKUbi.s:1600   .text:00000000000002a8 .L0 
     /tmp/ccqYKUbi.s:1601   .text:00000000000002a8 .L0 
     /tmp/ccqYKUbi.s:1603   .text:00000000000002ac .L0 
     /tmp/ccqYKUbi.s:1605   .text:00000000000002b0 .L0 
     /tmp/ccqYKUbi.s:1608   .text:00000000000002b4 .L0 
     /tmp/ccqYKUbi.s:1610   .text:00000000000002b8 .L0 
     /tmp/ccqYKUbi.s:1617   .text._ZN7WorkerB3runEv:0000000000000000 _ZN7WorkerB3runEv
     /tmp/ccqYKUbi.s:1620   .text._ZN7WorkerB3runEv:0000000000000000 .L0 
     /tmp/ccqYKUbi.s:1622   .text._ZN7WorkerB3runEv:0000000000000000 .L0 
     /tmp/ccqYKUbi.s:1623   .text._ZN7WorkerB3runEv:0000000000000004 .L0 
     /tmp/ccqYKUbi.s:1626   .text._ZN7WorkerB3runEv:000000000000000c .L0 
     /tmp/ccqYKUbi.s:1627   .text._ZN7WorkerB3runEv:000000000000000c .L0 
     /tmp/ccqYKUbi.s:1629   .text._ZN7WorkerB3runEv:0000000000000010 .L0 
     /tmp/ccqYKUbi.s:1631   .text._ZN7WorkerB3runEv:0000000000000010 .L0 
     /tmp/ccqYKUbi.s:1632   .text._ZN7WorkerB3runEv:0000000000000010 .L0 
     /tmp/ccqYKUbi.s:1636   .text._ZN7WorkerB3runEv:000000000000001c .L0 
     /tmp/ccqYKUbi.s:1637   .text._ZN7WorkerB3runEv:0000000000000020 .L0 
     /tmp/ccqYKUbi.s:1639   .text._ZN7WorkerB3runEv:0000000000000024 .L0 
     /tmp/ccqYKUbi.s:1640   .text._ZN7WorkerB3runEv:0000000000000024 .L0 
     /tmp/ccqYKUbi.s:1642   .text._ZN7WorkerB3runEv:0000000000000028 .L0 
     /tmp/ccqYKUbi.s:1644   .text._ZN7WorkerB3runEv:000000000000002c .L0 
     /tmp/ccqYKUbi.s:1667   .text:00000000000002b8 _ZN7WorkerC11workerBodyCEPv
     /tmp/ccqYKUbi.s:1670   .text:00000000000002b8 .L0 
     /tmp/ccqYKUbi.s:1672   .text:00000000000002b8 .L0 
     /tmp/ccqYKUbi.s:1673   .text:00000000000002bc .L0 
     /tmp/ccqYKUbi.s:1678   .text:00000000000002cc .L0 
     /tmp/ccqYKUbi.s:1679   .text:00000000000002cc .L0 
     /tmp/ccqYKUbi.s:1680   .text:00000000000002cc .L0 
     /tmp/ccqYKUbi.s:1681   .text:00000000000002cc .L0 
     /tmp/ccqYKUbi.s:1683   .text:00000000000002d0 .L0 
     /tmp/ccqYKUbi.s:1686   .text:00000000000002d0 .L0 
     /tmp/ccqYKUbi.s:1687   .text:00000000000002d0 .L0 
     /tmp/ccqYKUbi.s:1692   .text:00000000000002d8 .L0 
     /tmp/ccqYKUbi.s:1693   .text:00000000000002d8 .L0 
     /tmp/ccqYKUbi.s:1697   .text:00000000000002e8 .L0 
     /tmp/ccqYKUbi.s:1698   .text:00000000000002e8 .L0 
     /tmp/ccqYKUbi.s:1704   .text:00000000000002fc .L0 
     /tmp/ccqYKUbi.s:1705   .text:00000000000002fc .L0 
     /tmp/ccqYKUbi.s:1709   .text:000000000000030c .L0 
     /tmp/ccqYKUbi.s:1715   .text:0000000000000314 .L0 
     /tmp/ccqYKUbi.s:1716   .text:0000000000000314 .L0 
     /tmp/ccqYKUbi.s:1719   .text:000000000000031c .L0 
     /tmp/ccqYKUbi.s:1720   .text:000000000000031c .L0 
     /tmp/ccqYKUbi.s:1724   .text:000000000000032c .L0 
tests/Threads_CPP_API_test.hpp:91     .text:000000000000032c .L0 
     /tmp/ccqYKUbi.s:1730   .text:0000000000000330 .L0 
     /tmp/ccqYKUbi.s:1732   .text:0000000000000330 .L0 
     /tmp/ccqYKUbi.s:1735   .text:0000000000000338 .L0 
     /tmp/ccqYKUbi.s:1736   .text:0000000000000338 .L0 
tests/Threads_CPP_API_test.hpp:95     .text:0000000000000338 .L0 
     /tmp/ccqYKUbi.s:1743   .text:000000000000033c .L0 
     /tmp/ccqYKUbi.s:1745   .text:000000000000033c .L0 
     /tmp/ccqYKUbi.s:1749   .text:000000000000034c .L0 
     /tmp/ccqYKUbi.s:1750   .text:000000000000034c .L0 
     /tmp/ccqYKUbi.s:1756   .text:0000000000000360 .L0 
     /tmp/ccqYKUbi.s:1757   .text:0000000000000360 .L0 
GAS LISTING /tmp/ccqYKUbi.s 			page 112


     /tmp/ccqYKUbi.s:1761   .text:0000000000000370 .L0 
     /tmp/ccqYKUbi.s:1762   .text:0000000000000370 .L0 
     /tmp/ccqYKUbi.s:1768   .text:0000000000000380 .L0 
     /tmp/ccqYKUbi.s:1769   .text:0000000000000380 .L0 
     /tmp/ccqYKUbi.s:1774   .text:0000000000000390 .L0 
     /tmp/ccqYKUbi.s:1775   .text:0000000000000390 .L0 
     /tmp/ccqYKUbi.s:1781   .text:00000000000003a4 .L0 
     /tmp/ccqYKUbi.s:1782   .text:00000000000003a4 .L0 
     /tmp/ccqYKUbi.s:1788   .text:00000000000003b8 .L0 
     /tmp/ccqYKUbi.s:1789   .text:00000000000003b8 .L0 
     /tmp/ccqYKUbi.s:1793   .text:00000000000003c8 .L0 
     /tmp/ccqYKUbi.s:1794   .text:00000000000003c8 .L0 
     /tmp/ccqYKUbi.s:1800   .text:00000000000003dc .L0 
     /tmp/ccqYKUbi.s:1801   .text:00000000000003dc .L0 
     /tmp/ccqYKUbi.s:1805   .text:00000000000003ec .L0 
     /tmp/ccqYKUbi.s:1811   .text:00000000000003f4 .L0 
     /tmp/ccqYKUbi.s:1812   .text:00000000000003f4 .L0 
     /tmp/ccqYKUbi.s:1815   .text:00000000000003fc .L0 
     /tmp/ccqYKUbi.s:1816   .text:00000000000003fc .L0 
     /tmp/ccqYKUbi.s:1820   .text:000000000000040c .L0 
     /tmp/ccqYKUbi.s:1821   .text:000000000000040c .L0 
     /tmp/ccqYKUbi.s:1824   .text:0000000000000418 .L0 
     /tmp/ccqYKUbi.s:1825   .text:0000000000000418 .L0 
     /tmp/ccqYKUbi.s:1828   .text:0000000000000420 .L0 
     /tmp/ccqYKUbi.s:1829   .text:0000000000000424 .L0 
     /tmp/ccqYKUbi.s:1831   .text:0000000000000428 .L0 
     /tmp/ccqYKUbi.s:1832   .text:0000000000000428 .L0 
     /tmp/ccqYKUbi.s:1834   .text:000000000000042c .L0 
     /tmp/ccqYKUbi.s:1837   .text:0000000000000430 .L0 
     /tmp/ccqYKUbi.s:1840   .text:0000000000000434 .L0 
     /tmp/ccqYKUbi.s:1842   .text:0000000000000438 .L0 
     /tmp/ccqYKUbi.s:1849   .text._ZN7WorkerC3runEv:0000000000000000 _ZN7WorkerC3runEv
     /tmp/ccqYKUbi.s:1852   .text._ZN7WorkerC3runEv:0000000000000000 .L0 
     /tmp/ccqYKUbi.s:1854   .text._ZN7WorkerC3runEv:0000000000000000 .L0 
     /tmp/ccqYKUbi.s:1855   .text._ZN7WorkerC3runEv:0000000000000004 .L0 
     /tmp/ccqYKUbi.s:1858   .text._ZN7WorkerC3runEv:000000000000000c .L0 
     /tmp/ccqYKUbi.s:1859   .text._ZN7WorkerC3runEv:000000000000000c .L0 
     /tmp/ccqYKUbi.s:1861   .text._ZN7WorkerC3runEv:0000000000000010 .L0 
     /tmp/ccqYKUbi.s:1863   .text._ZN7WorkerC3runEv:0000000000000010 .L0 
     /tmp/ccqYKUbi.s:1864   .text._ZN7WorkerC3runEv:0000000000000010 .L0 
     /tmp/ccqYKUbi.s:1868   .text._ZN7WorkerC3runEv:000000000000001c .L0 
     /tmp/ccqYKUbi.s:1869   .text._ZN7WorkerC3runEv:0000000000000020 .L0 
     /tmp/ccqYKUbi.s:1871   .text._ZN7WorkerC3runEv:0000000000000024 .L0 
     /tmp/ccqYKUbi.s:1872   .text._ZN7WorkerC3runEv:0000000000000024 .L0 
     /tmp/ccqYKUbi.s:1874   .text._ZN7WorkerC3runEv:0000000000000028 .L0 
     /tmp/ccqYKUbi.s:1876   .text._ZN7WorkerC3runEv:000000000000002c .L0 
     /tmp/ccqYKUbi.s:1896   .text:0000000000000438 _ZN7WorkerD11workerBodyDEPv
     /tmp/ccqYKUbi.s:1899   .text:0000000000000438 .L0 
     /tmp/ccqYKUbi.s:1901   .text:0000000000000438 .L0 
     /tmp/ccqYKUbi.s:1902   .text:000000000000043c .L0 
     /tmp/ccqYKUbi.s:1907   .text:000000000000044c .L0 
     /tmp/ccqYKUbi.s:1908   .text:000000000000044c .L0 
     /tmp/ccqYKUbi.s:1909   .text:000000000000044c .L0 
     /tmp/ccqYKUbi.s:1910   .text:000000000000044c .L0 
     /tmp/ccqYKUbi.s:1912   .text:0000000000000450 .L0 
     /tmp/ccqYKUbi.s:1915   .text:0000000000000450 .L0 
     /tmp/ccqYKUbi.s:1916   .text:0000000000000450 .L0 
GAS LISTING /tmp/ccqYKUbi.s 			page 113


     /tmp/ccqYKUbi.s:1921   .text:0000000000000458 .L0 
     /tmp/ccqYKUbi.s:1922   .text:0000000000000458 .L0 
     /tmp/ccqYKUbi.s:1926   .text:0000000000000468 .L0 
     /tmp/ccqYKUbi.s:1927   .text:0000000000000468 .L0 
     /tmp/ccqYKUbi.s:1933   .text:000000000000047c .L0 
     /tmp/ccqYKUbi.s:1934   .text:000000000000047c .L0 
     /tmp/ccqYKUbi.s:1938   .text:000000000000048c .L0 
     /tmp/ccqYKUbi.s:1944   .text:0000000000000494 .L0 
     /tmp/ccqYKUbi.s:1945   .text:0000000000000494 .L0 
     /tmp/ccqYKUbi.s:1948   .text:000000000000049c .L0 
     /tmp/ccqYKUbi.s:1949   .text:000000000000049c .L0 
     /tmp/ccqYKUbi.s:1953   .text:00000000000004ac .L0 
tests/Threads_CPP_API_test.hpp:118    .text:00000000000004ac .L0 
     /tmp/ccqYKUbi.s:1959   .text:00000000000004b0 .L0 
     /tmp/ccqYKUbi.s:1961   .text:00000000000004b0 .L0 
     /tmp/ccqYKUbi.s:1964   .text:00000000000004b8 .L0 
     /tmp/ccqYKUbi.s:1965   .text:00000000000004b8 .L0 
     /tmp/ccqYKUbi.s:1971   .text:00000000000004c8 .L0 
     /tmp/ccqYKUbi.s:1972   .text:00000000000004c8 .L0 
     /tmp/ccqYKUbi.s:1977   .text:00000000000004d8 .L0 
     /tmp/ccqYKUbi.s:1978   .text:00000000000004d8 .L0 
     /tmp/ccqYKUbi.s:1984   .text:00000000000004ec .L0 
     /tmp/ccqYKUbi.s:1985   .text:00000000000004ec .L0 
     /tmp/ccqYKUbi.s:1991   .text:0000000000000500 .L0 
     /tmp/ccqYKUbi.s:1992   .text:0000000000000500 .L0 
     /tmp/ccqYKUbi.s:1996   .text:0000000000000510 .L0 
     /tmp/ccqYKUbi.s:1997   .text:0000000000000510 .L0 
     /tmp/ccqYKUbi.s:2003   .text:0000000000000524 .L0 
     /tmp/ccqYKUbi.s:2004   .text:0000000000000524 .L0 
     /tmp/ccqYKUbi.s:2008   .text:0000000000000534 .L0 
     /tmp/ccqYKUbi.s:2014   .text:000000000000053c .L0 
     /tmp/ccqYKUbi.s:2015   .text:000000000000053c .L0 
     /tmp/ccqYKUbi.s:2018   .text:0000000000000544 .L0 
     /tmp/ccqYKUbi.s:2019   .text:0000000000000544 .L0 
     /tmp/ccqYKUbi.s:2023   .text:0000000000000554 .L0 
     /tmp/ccqYKUbi.s:2024   .text:0000000000000554 .L0 
     /tmp/ccqYKUbi.s:2027   .text:0000000000000560 .L0 
     /tmp/ccqYKUbi.s:2028   .text:0000000000000560 .L0 
     /tmp/ccqYKUbi.s:2031   .text:0000000000000568 .L0 
     /tmp/ccqYKUbi.s:2032   .text:000000000000056c .L0 
     /tmp/ccqYKUbi.s:2034   .text:0000000000000570 .L0 
     /tmp/ccqYKUbi.s:2035   .text:0000000000000570 .L0 
     /tmp/ccqYKUbi.s:2037   .text:0000000000000574 .L0 
     /tmp/ccqYKUbi.s:2040   .text:0000000000000578 .L0 
     /tmp/ccqYKUbi.s:2043   .text:000000000000057c .L0 
     /tmp/ccqYKUbi.s:2045   .text:0000000000000580 .L0 
     /tmp/ccqYKUbi.s:2052   .text._ZN7WorkerD3runEv:0000000000000000 _ZN7WorkerD3runEv
     /tmp/ccqYKUbi.s:2055   .text._ZN7WorkerD3runEv:0000000000000000 .L0 
     /tmp/ccqYKUbi.s:2057   .text._ZN7WorkerD3runEv:0000000000000000 .L0 
     /tmp/ccqYKUbi.s:2058   .text._ZN7WorkerD3runEv:0000000000000004 .L0 
     /tmp/ccqYKUbi.s:2061   .text._ZN7WorkerD3runEv:000000000000000c .L0 
     /tmp/ccqYKUbi.s:2062   .text._ZN7WorkerD3runEv:000000000000000c .L0 
     /tmp/ccqYKUbi.s:2064   .text._ZN7WorkerD3runEv:0000000000000010 .L0 
     /tmp/ccqYKUbi.s:2066   .text._ZN7WorkerD3runEv:0000000000000010 .L0 
     /tmp/ccqYKUbi.s:2067   .text._ZN7WorkerD3runEv:0000000000000010 .L0 
     /tmp/ccqYKUbi.s:2071   .text._ZN7WorkerD3runEv:000000000000001c .L0 
     /tmp/ccqYKUbi.s:2072   .text._ZN7WorkerD3runEv:0000000000000020 .L0 
GAS LISTING /tmp/ccqYKUbi.s 			page 114


     /tmp/ccqYKUbi.s:2074   .text._ZN7WorkerD3runEv:0000000000000024 .L0 
     /tmp/ccqYKUbi.s:2075   .text._ZN7WorkerD3runEv:0000000000000024 .L0 
     /tmp/ccqYKUbi.s:2077   .text._ZN7WorkerD3runEv:0000000000000028 .L0 
     /tmp/ccqYKUbi.s:2079   .text._ZN7WorkerD3runEv:000000000000002c .L0 
     /tmp/ccqYKUbi.s:2099   .text:0000000000000580 _Z20Threads_CPP_API_testv
     /tmp/ccqYKUbi.s:2102   .text:0000000000000580 .L0 
     /tmp/ccqYKUbi.s:13794  .data.rel.local.DW.ref.__gxx_personality_v0:0000000000000000 DW.ref.__gxx_personality_v0
     /tmp/ccqYKUbi.s:2105   .text:0000000000000580 .L0 
     /tmp/ccqYKUbi.s:2106   .text:0000000000000584 .L0 
     /tmp/ccqYKUbi.s:2111   .text:0000000000000594 .L0 
     /tmp/ccqYKUbi.s:2112   .text:0000000000000594 .L0 
     /tmp/ccqYKUbi.s:2113   .text:0000000000000594 .L0 
     /tmp/ccqYKUbi.s:2114   .text:0000000000000594 .L0 
     /tmp/ccqYKUbi.s:2116   .text:0000000000000598 .L0 
     /tmp/ccqYKUbi.s:2118   .text:0000000000000598 .L0 
     /tmp/ccqYKUbi.s:2119   .text:0000000000000598 .L0 
     /tmp/ccqYKUbi.s:2120   .text:0000000000000598 .L0 
     /tmp/ccqYKUbi.s:2131   .text:00000000000005a8 .L0 
     /tmp/ccqYKUbi.s:2140   .text:00000000000005bc .L0 
     /tmp/ccqYKUbi.s:2142   .text:00000000000005c0 .L0 
     /tmp/ccqYKUbi.s:2143   .text:00000000000005c0 .L0 
     /tmp/ccqYKUbi.s:2148   .text:00000000000005d0 .L0 
     /tmp/ccqYKUbi.s:2149   .text:00000000000005d0 .L0 
     /tmp/ccqYKUbi.s:2159   .text:00000000000005e0 .L0 
     /tmp/ccqYKUbi.s:2168   .text:00000000000005f4 .L0 
     /tmp/ccqYKUbi.s:2170   .text:00000000000005f8 .L0 
     /tmp/ccqYKUbi.s:2171   .text:00000000000005f8 .L0 
     /tmp/ccqYKUbi.s:2176   .text:0000000000000608 .L0 
     /tmp/ccqYKUbi.s:2177   .text:0000000000000608 .L0 
     /tmp/ccqYKUbi.s:2187   .text:0000000000000618 .L0 
     /tmp/ccqYKUbi.s:2196   .text:000000000000062c .L0 
     /tmp/ccqYKUbi.s:2198   .text:0000000000000630 .L0 
     /tmp/ccqYKUbi.s:2199   .text:0000000000000630 .L0 
     /tmp/ccqYKUbi.s:2204   .text:0000000000000640 .L0 
     /tmp/ccqYKUbi.s:2205   .text:0000000000000640 .L0 
     /tmp/ccqYKUbi.s:2215   .text:0000000000000650 .L0 
     /tmp/ccqYKUbi.s:2224   .text:0000000000000664 .L0 
     /tmp/ccqYKUbi.s:2226   .text:0000000000000668 .L0 
     /tmp/ccqYKUbi.s:2227   .text:0000000000000668 .L0 
     /tmp/ccqYKUbi.s:2233   .text:0000000000000678 .L0 
     /tmp/ccqYKUbi.s:2237   .text:000000000000067c .L0 
     /tmp/ccqYKUbi.s:2240   .text:0000000000000684 .L0 
     /tmp/ccqYKUbi.s:2241   .text:0000000000000684 .L0 
     /tmp/ccqYKUbi.s:2245   .text:0000000000000690 .L0 
     /tmp/ccqYKUbi.s:2249   .text:000000000000069c .L0 
     /tmp/ccqYKUbi.s:2256   .text:00000000000006a4 .L0 
     /tmp/ccqYKUbi.s:2257   .text:00000000000006a4 .L0 
     /tmp/ccqYKUbi.s:2262   .text:00000000000006ac .L0 
     /tmp/ccqYKUbi.s:2263   .text:00000000000006ac .L0 
     /tmp/ccqYKUbi.s:2266   .text:00000000000006b8 .L0 
     /tmp/ccqYKUbi.s:2269   .text:00000000000006c4 .L0 
     /tmp/ccqYKUbi.s:2272   .text:00000000000006d0 .L0 
     /tmp/ccqYKUbi.s:2276   .text:00000000000006dc .L0 
     /tmp/ccqYKUbi.s:2282   .text:00000000000006e4 .L0 
     /tmp/ccqYKUbi.s:2286   .text:00000000000006e8 .L0 
     /tmp/ccqYKUbi.s:2289   .text:00000000000006f0 .L0 
     /tmp/ccqYKUbi.s:2292   .text:00000000000006f4 .L0 
GAS LISTING /tmp/ccqYKUbi.s 			page 115


     /tmp/ccqYKUbi.s:2293   .text:00000000000006f4 .L0 
     /tmp/ccqYKUbi.s:2295   .text:00000000000006f8 .L0 
     /tmp/ccqYKUbi.s:2305   .text:000000000000070c .L0 
     /tmp/ccqYKUbi.s:2316   .text:0000000000000728 .L0 
     /tmp/ccqYKUbi.s:2327   .text:0000000000000744 .L0 
     /tmp/ccqYKUbi.s:2338   .text:0000000000000760 .L0 
     /tmp/ccqYKUbi.s:2348   .text:0000000000000778 .L0 
     /tmp/ccqYKUbi.s:2349   .text:000000000000077c .L0 
     /tmp/ccqYKUbi.s:2351   .text:0000000000000780 .L0 
     /tmp/ccqYKUbi.s:2352   .text:0000000000000780 .L0 
     /tmp/ccqYKUbi.s:2354   .text:0000000000000784 .L0 
     /tmp/ccqYKUbi.s:2357   .text:0000000000000788 .L0 
     /tmp/ccqYKUbi.s:2359   .text:000000000000078c .L0 
     /tmp/ccqYKUbi.s:2361   .text:0000000000000790 .L0 
     /tmp/ccqYKUbi.s:2427   .text:0000000000000790 _ZN16ProducerKeyboard16producerKeyboardEPv
     /tmp/ccqYKUbi.s:2430   .text:0000000000000790 .L0 
     /tmp/ccqYKUbi.s:2432   .text:0000000000000790 .L0 
     /tmp/ccqYKUbi.s:2433   .text:0000000000000794 .L0 
     /tmp/ccqYKUbi.s:2439   .text:00000000000007a8 .L0 
     /tmp/ccqYKUbi.s:2440   .text:00000000000007a8 .L0 
     /tmp/ccqYKUbi.s:2441   .text:00000000000007a8 .L0 
     /tmp/ccqYKUbi.s:2442   .text:00000000000007a8 .L0 
     /tmp/ccqYKUbi.s:2443   .text:00000000000007a8 .L0 
     /tmp/ccqYKUbi.s:2445   .text:00000000000007ac .L0 
     /tmp/ccqYKUbi.s:2450   .text:00000000000007b4 .L0 
     /tmp/ccqYKUbi.s:2451   .text:00000000000007b4 .L0 
     /tmp/ccqYKUbi.s:2452   .text:00000000000007b4 .L0 
     /tmp/ccqYKUbi.s:2453   .text:00000000000007b4 .L0 
     /tmp/ccqYKUbi.s:2458   .text:00000000000007bc .L0 
     /tmp/ccqYKUbi.s:2459   .text:00000000000007bc .L0 
     /tmp/ccqYKUbi.s:2463   .text:00000000000007c4 .L0 
     /tmp/ccqYKUbi.s:2464   .text:00000000000007c4 .L0 
     /tmp/ccqYKUbi.s:2465   .text:00000000000007c4 .L0 
     /tmp/ccqYKUbi.s:2468   .text:00000000000007cc .L0 
     /tmp/ccqYKUbi.s:2471   .text:00000000000007d0 .L0 
     /tmp/ccqYKUbi.s:2474   .text:00000000000007d8 .L0 
     /tmp/ccqYKUbi.s:2475   .text:00000000000007d8 .L0 
     /tmp/ccqYKUbi.s:2479   .text:00000000000007e4 .L0 
     /tmp/ccqYKUbi.s:2480   .text:00000000000007e4 .L0 
     /tmp/ccqYKUbi.s:2484   .text:00000000000007ec .L0 
     /tmp/ccqYKUbi.s:2485   .text:00000000000007ec .L0 
     /tmp/ccqYKUbi.s:2487   .text:00000000000007f0 .L0 
     /tmp/ccqYKUbi.s:2491   .text:00000000000007fc .L0 
     /tmp/ccqYKUbi.s:2493   .text:0000000000000800 .L0 
     /tmp/ccqYKUbi.s:2498   .text:0000000000000808 .L0 
     /tmp/ccqYKUbi.s:2499   .text:0000000000000808 .L0 
     /tmp/ccqYKUbi.s:2502   .text:0000000000000814 .L0 
     /tmp/ccqYKUbi.s:2504   .text:0000000000000818 .L0 
     /tmp/ccqYKUbi.s:2511   .text:0000000000000828 .L0 
     /tmp/ccqYKUbi.s:2512   .text:0000000000000828 .L0 
     /tmp/ccqYKUbi.s:2516   .text:0000000000000834 .L0 
     /tmp/ccqYKUbi.s:2517   .text:0000000000000838 .L0 
     /tmp/ccqYKUbi.s:2519   .text:000000000000083c .L0 
     /tmp/ccqYKUbi.s:2520   .text:000000000000083c .L0 
     /tmp/ccqYKUbi.s:2522   .text:0000000000000840 .L0 
     /tmp/ccqYKUbi.s:2525   .text:0000000000000844 .L0 
     /tmp/ccqYKUbi.s:2528   .text:0000000000000848 .L0 
GAS LISTING /tmp/ccqYKUbi.s 			page 116


     /tmp/ccqYKUbi.s:2531   .text:000000000000084c .L0 
     /tmp/ccqYKUbi.s:2533   .text:0000000000000850 .L0 
     /tmp/ccqYKUbi.s:2540   .text._ZN16ProducerKeyboard3runEv:0000000000000000 _ZN16ProducerKeyboard3runEv
     /tmp/ccqYKUbi.s:2543   .text._ZN16ProducerKeyboard3runEv:0000000000000000 .L0 
     /tmp/ccqYKUbi.s:2545   .text._ZN16ProducerKeyboard3runEv:0000000000000000 .L0 
     /tmp/ccqYKUbi.s:2546   .text._ZN16ProducerKeyboard3runEv:0000000000000004 .L0 
     /tmp/ccqYKUbi.s:2549   .text._ZN16ProducerKeyboard3runEv:000000000000000c .L0 
     /tmp/ccqYKUbi.s:2550   .text._ZN16ProducerKeyboard3runEv:000000000000000c .L0 
     /tmp/ccqYKUbi.s:2552   .text._ZN16ProducerKeyboard3runEv:0000000000000010 .L0 
     /tmp/ccqYKUbi.s:2554   .text._ZN16ProducerKeyboard3runEv:0000000000000010 .L0 
     /tmp/ccqYKUbi.s:2555   .text._ZN16ProducerKeyboard3runEv:0000000000000010 .L0 
     /tmp/ccqYKUbi.s:2559   .text._ZN16ProducerKeyboard3runEv:000000000000001c .L0 
     /tmp/ccqYKUbi.s:2560   .text._ZN16ProducerKeyboard3runEv:0000000000000020 .L0 
     /tmp/ccqYKUbi.s:2562   .text._ZN16ProducerKeyboard3runEv:0000000000000024 .L0 
     /tmp/ccqYKUbi.s:2563   .text._ZN16ProducerKeyboard3runEv:0000000000000024 .L0 
     /tmp/ccqYKUbi.s:2565   .text._ZN16ProducerKeyboard3runEv:0000000000000028 .L0 
     /tmp/ccqYKUbi.s:2567   .text._ZN16ProducerKeyboard3runEv:000000000000002c .L0 
     /tmp/ccqYKUbi.s:2574   .text:0000000000000850 _ZN8Producer8producerEPv
     /tmp/ccqYKUbi.s:2577   .text:0000000000000850 .L0 
     /tmp/ccqYKUbi.s:2579   .text:0000000000000850 .L0 
     /tmp/ccqYKUbi.s:2580   .text:0000000000000854 .L0 
     /tmp/ccqYKUbi.s:2585   .text:0000000000000864 .L0 
     /tmp/ccqYKUbi.s:2586   .text:0000000000000864 .L0 
     /tmp/ccqYKUbi.s:2587   .text:0000000000000864 .L0 
     /tmp/ccqYKUbi.s:2588   .text:0000000000000864 .L0 
     /tmp/ccqYKUbi.s:2590   .text:0000000000000868 .L0 
     /tmp/ccqYKUbi.s:2594   .text:000000000000086c .L0 
     /tmp/ccqYKUbi.s:2595   .text:000000000000086c .L0 
     /tmp/ccqYKUbi.s:2596   .text:000000000000086c .L0 
     /tmp/ccqYKUbi.s:2601   .text:0000000000000874 .L0 
     /tmp/ccqYKUbi.s:2602   .text:0000000000000874 .L0 
     /tmp/ccqYKUbi.s:2606   .text:000000000000087c .L0 
     /tmp/ccqYKUbi.s:2607   .text:000000000000087c .L0 
     /tmp/ccqYKUbi.s:2610   .text:0000000000000888 .L0 
     /tmp/ccqYKUbi.s:2611   .text:0000000000000888 .L0 
     /tmp/ccqYKUbi.s:2613   .text:000000000000088c .L0 
     /tmp/ccqYKUbi.s:2618   .text:000000000000089c .L0 
     /tmp/ccqYKUbi.s:2619   .text:000000000000089c .L0 
     /tmp/ccqYKUbi.s:2623   .text:00000000000008a4 .L0 
     /tmp/ccqYKUbi.s:2624   .text:00000000000008a4 .L0 
     /tmp/ccqYKUbi.s:2626   .text:00000000000008a8 .L0 
     /tmp/ccqYKUbi.s:2630   .text:00000000000008b4 .L0 
     /tmp/ccqYKUbi.s:2632   .text:00000000000008b8 .L0 
     /tmp/ccqYKUbi.s:2637   .text:00000000000008c0 .L0 
     /tmp/ccqYKUbi.s:2638   .text:00000000000008c0 .L0 
     /tmp/ccqYKUbi.s:2642   .text:00000000000008cc .L0 
     /tmp/ccqYKUbi.s:2643   .text:00000000000008d0 .L0 
     /tmp/ccqYKUbi.s:2645   .text:00000000000008d4 .L0 
     /tmp/ccqYKUbi.s:2646   .text:00000000000008d4 .L0 
     /tmp/ccqYKUbi.s:2648   .text:00000000000008d8 .L0 
     /tmp/ccqYKUbi.s:2651   .text:00000000000008dc .L0 
     /tmp/ccqYKUbi.s:2654   .text:00000000000008e0 .L0 
     /tmp/ccqYKUbi.s:2656   .text:00000000000008e4 .L0 
     /tmp/ccqYKUbi.s:2663   .text._ZN8Producer3runEv:0000000000000000 _ZN8Producer3runEv
     /tmp/ccqYKUbi.s:2666   .text._ZN8Producer3runEv:0000000000000000 .L0 
     /tmp/ccqYKUbi.s:2668   .text._ZN8Producer3runEv:0000000000000000 .L0 
     /tmp/ccqYKUbi.s:2669   .text._ZN8Producer3runEv:0000000000000004 .L0 
GAS LISTING /tmp/ccqYKUbi.s 			page 117


     /tmp/ccqYKUbi.s:2672   .text._ZN8Producer3runEv:000000000000000c .L0 
     /tmp/ccqYKUbi.s:2673   .text._ZN8Producer3runEv:000000000000000c .L0 
     /tmp/ccqYKUbi.s:2675   .text._ZN8Producer3runEv:0000000000000010 .L0 
     /tmp/ccqYKUbi.s:2677   .text._ZN8Producer3runEv:0000000000000010 .L0 
     /tmp/ccqYKUbi.s:2678   .text._ZN8Producer3runEv:0000000000000010 .L0 
     /tmp/ccqYKUbi.s:2682   .text._ZN8Producer3runEv:000000000000001c .L0 
     /tmp/ccqYKUbi.s:2683   .text._ZN8Producer3runEv:0000000000000020 .L0 
     /tmp/ccqYKUbi.s:2685   .text._ZN8Producer3runEv:0000000000000024 .L0 
     /tmp/ccqYKUbi.s:2686   .text._ZN8Producer3runEv:0000000000000024 .L0 
     /tmp/ccqYKUbi.s:2688   .text._ZN8Producer3runEv:0000000000000028 .L0 
     /tmp/ccqYKUbi.s:2690   .text._ZN8Producer3runEv:000000000000002c .L0 
     /tmp/ccqYKUbi.s:2697   .text:00000000000008e4 _ZN8Consumer8consumerEPv
     /tmp/ccqYKUbi.s:2700   .text:00000000000008e4 .L0 
     /tmp/ccqYKUbi.s:2702   .text:00000000000008e4 .L0 
     /tmp/ccqYKUbi.s:2703   .text:00000000000008e8 .L0 
     /tmp/ccqYKUbi.s:2710   .text:0000000000000900 .L0 
     /tmp/ccqYKUbi.s:2711   .text:0000000000000900 .L0 
     /tmp/ccqYKUbi.s:2712   .text:0000000000000900 .L0 
     /tmp/ccqYKUbi.s:2713   .text:0000000000000900 .L0 
     /tmp/ccqYKUbi.s:2714   .text:0000000000000900 .L0 
     /tmp/ccqYKUbi.s:2715   .text:0000000000000900 .L0 
     /tmp/ccqYKUbi.s:2717   .text:0000000000000904 .L0 
     /tmp/ccqYKUbi.s:2722   .text:000000000000090c .L0 
     /tmp/ccqYKUbi.s:2723   .text:000000000000090c .L0 
     /tmp/ccqYKUbi.s:2724   .text:000000000000090c .L0 
     /tmp/ccqYKUbi.s:2730   .text:0000000000000914 .L0 
     /tmp/ccqYKUbi.s:2731   .text:0000000000000914 .L0 
     /tmp/ccqYKUbi.s:2737   .text:0000000000000920 .L0 
     /tmp/ccqYKUbi.s:2738   .text:0000000000000920 .L0 
     /tmp/ccqYKUbi.s:2744   .text:000000000000092c .L0 
     /tmp/ccqYKUbi.s:2745   .text:000000000000092c .L0 
     /tmp/ccqYKUbi.s:2749   .text:0000000000000938 .L0 
     /tmp/ccqYKUbi.s:2750   .text:0000000000000938 .L0 
     /tmp/ccqYKUbi.s:2754   .text:0000000000000944 .L0 
     /tmp/ccqYKUbi.s:2755   .text:0000000000000944 .L0 
     /tmp/ccqYKUbi.s:2759   .text:000000000000094c .L0 
     /tmp/ccqYKUbi.s:2760   .text:000000000000094c .L0 
     /tmp/ccqYKUbi.s:2765   .text:0000000000000958 .L0 
     /tmp/ccqYKUbi.s:2766   .text:0000000000000958 .L0 
     /tmp/ccqYKUbi.s:2768   .text:000000000000095c .L0 
     /tmp/ccqYKUbi.s:2771   .text:0000000000000964 .L0 
     /tmp/ccqYKUbi.s:2773   .text:0000000000000968 .L0 
     /tmp/ccqYKUbi.s:2776   .text:000000000000096c .L0 
     /tmp/ccqYKUbi.s:2777   .text:000000000000096c .L0 
     /tmp/ccqYKUbi.s:2781   .text:0000000000000974 .L0 
     /tmp/ccqYKUbi.s:2787   .text:000000000000097c .L0 
     /tmp/ccqYKUbi.s:2788   .text:000000000000097c .L0 
     /tmp/ccqYKUbi.s:2790   .text:0000000000000980 .L0 
     /tmp/ccqYKUbi.s:2794   .text:000000000000098c .L0 
     /tmp/ccqYKUbi.s:2795   .text:000000000000098c .L0 
     /tmp/ccqYKUbi.s:2802   .text:0000000000000998 .L0 
     /tmp/ccqYKUbi.s:2803   .text:0000000000000998 .L0 
     /tmp/ccqYKUbi.s:2804   .text:0000000000000998 .L0 
     /tmp/ccqYKUbi.s:2806   .text:000000000000099c .L0 
     /tmp/ccqYKUbi.s:2810   .text:00000000000009a8 .L0 
     /tmp/ccqYKUbi.s:2812   .text:00000000000009ac .L0 
     /tmp/ccqYKUbi.s:2813   .text:00000000000009ac .L0 
GAS LISTING /tmp/ccqYKUbi.s 			page 118


     /tmp/ccqYKUbi.s:2817   .text:00000000000009b8 .L0 
     /tmp/ccqYKUbi.s:2818   .text:00000000000009bc .L0 
     /tmp/ccqYKUbi.s:2820   .text:00000000000009c0 .L0 
     /tmp/ccqYKUbi.s:2821   .text:00000000000009c0 .L0 
     /tmp/ccqYKUbi.s:2823   .text:00000000000009c4 .L0 
     /tmp/ccqYKUbi.s:2825   .text:00000000000009c8 .L0 
     /tmp/ccqYKUbi.s:2828   .text:00000000000009cc .L0 
     /tmp/ccqYKUbi.s:2831   .text:00000000000009d0 .L0 
     /tmp/ccqYKUbi.s:2834   .text:00000000000009d4 .L0 
     /tmp/ccqYKUbi.s:2836   .text:00000000000009d8 .L0 
     /tmp/ccqYKUbi.s:2843   .text._ZN8Consumer3runEv:0000000000000000 _ZN8Consumer3runEv
     /tmp/ccqYKUbi.s:2846   .text._ZN8Consumer3runEv:0000000000000000 .L0 
     /tmp/ccqYKUbi.s:2848   .text._ZN8Consumer3runEv:0000000000000000 .L0 
     /tmp/ccqYKUbi.s:2849   .text._ZN8Consumer3runEv:0000000000000004 .L0 
     /tmp/ccqYKUbi.s:2852   .text._ZN8Consumer3runEv:000000000000000c .L0 
     /tmp/ccqYKUbi.s:2853   .text._ZN8Consumer3runEv:000000000000000c .L0 
     /tmp/ccqYKUbi.s:2855   .text._ZN8Consumer3runEv:0000000000000010 .L0 
     /tmp/ccqYKUbi.s:2857   .text._ZN8Consumer3runEv:0000000000000010 .L0 
     /tmp/ccqYKUbi.s:2858   .text._ZN8Consumer3runEv:0000000000000010 .L0 
     /tmp/ccqYKUbi.s:2862   .text._ZN8Consumer3runEv:000000000000001c .L0 
     /tmp/ccqYKUbi.s:2863   .text._ZN8Consumer3runEv:0000000000000020 .L0 
     /tmp/ccqYKUbi.s:2865   .text._ZN8Consumer3runEv:0000000000000024 .L0 
     /tmp/ccqYKUbi.s:2866   .text._ZN8Consumer3runEv:0000000000000024 .L0 
     /tmp/ccqYKUbi.s:2868   .text._ZN8Consumer3runEv:0000000000000028 .L0 
     /tmp/ccqYKUbi.s:2870   .text._ZN8Consumer3runEv:000000000000002c .L0 
     /tmp/ccqYKUbi.s:2899   .text:00000000000009d8 _Z29producerConsumer_CPP_Sync_APIv
     /tmp/ccqYKUbi.s:2902   .text:00000000000009d8 .L0 
     /tmp/ccqYKUbi.s:2905   .text:00000000000009d8 .L0 
     /tmp/ccqYKUbi.s:2906   .text:00000000000009dc .L0 
     /tmp/ccqYKUbi.s:2918   .text:0000000000000a08 .L0 
     /tmp/ccqYKUbi.s:2919   .text:0000000000000a08 .L0 
     /tmp/ccqYKUbi.s:2920   .text:0000000000000a08 .L0 
     /tmp/ccqYKUbi.s:2921   .text:0000000000000a08 .L0 
     /tmp/ccqYKUbi.s:2922   .text:0000000000000a08 .L0 
     /tmp/ccqYKUbi.s:2923   .text:0000000000000a08 .L0 
     /tmp/ccqYKUbi.s:2924   .text:0000000000000a08 .L0 
     /tmp/ccqYKUbi.s:2925   .text:0000000000000a08 .L0 
     /tmp/ccqYKUbi.s:2926   .text:0000000000000a08 .L0 
     /tmp/ccqYKUbi.s:2927   .text:0000000000000a08 .L0 
     /tmp/ccqYKUbi.s:2928   .text:0000000000000a08 .L0 
     /tmp/ccqYKUbi.s:2930   .text:0000000000000a0c .L0 
     /tmp/ccqYKUbi.s:2932   .text:0000000000000a0c .L0 
     /tmp/ccqYKUbi.s:2934   .text:0000000000000a10 .L0 
     /tmp/ccqYKUbi.s:2935   .text:0000000000000a10 .L0 
     /tmp/ccqYKUbi.s:2936   .text:0000000000000a10 .L0 
     /tmp/ccqYKUbi.s:2937   .text:0000000000000a10 .L0 
     /tmp/ccqYKUbi.s:2942   .text:0000000000000a20 .L0 
     /tmp/ccqYKUbi.s:2943   .text:0000000000000a20 .L0 
     /tmp/ccqYKUbi.s:2949   .text:0000000000000a34 .L0 
     /tmp/ccqYKUbi.s:2950   .text:0000000000000a34 .L0 
     /tmp/ccqYKUbi.s:2956   .text:0000000000000a44 .L0 
     /tmp/ccqYKUbi.s:2957   .text:0000000000000a44 .L0 
     /tmp/ccqYKUbi.s:2961   .text:0000000000000a54 .L0 
     /tmp/ccqYKUbi.s:2962   .text:0000000000000a54 .L0 
     /tmp/ccqYKUbi.s:2967   .text:0000000000000a64 .L0 
     /tmp/ccqYKUbi.s:2968   .text:0000000000000a64 .L0 
     /tmp/ccqYKUbi.s:2974   .text:0000000000000a74 .L0 
GAS LISTING /tmp/ccqYKUbi.s 			page 119


     /tmp/ccqYKUbi.s:2975   .text:0000000000000a74 .L0 
     /tmp/ccqYKUbi.s:2979   .text:0000000000000a84 .L0 
     /tmp/ccqYKUbi.s:2980   .text:0000000000000a84 .L0 
     /tmp/ccqYKUbi.s:2986   .text:0000000000000a98 .L0 
     /tmp/ccqYKUbi.s:2987   .text:0000000000000a98 .L0 
     /tmp/ccqYKUbi.s:2991   .text:0000000000000aa8 .L0 
     /tmp/ccqYKUbi.s:2992   .text:0000000000000aa8 .L0 
     /tmp/ccqYKUbi.s:2998   .text:0000000000000abc .L0 
     /tmp/ccqYKUbi.s:2999   .text:0000000000000abc .L0 
     /tmp/ccqYKUbi.s:3003   .text:0000000000000acc .L0 
     /tmp/ccqYKUbi.s:3005   .text:0000000000000ad0 .L0 
     /tmp/ccqYKUbi.s:3007   .text:0000000000000ad4 .L0 
     /tmp/ccqYKUbi.s:3008   .text:0000000000000ad4 .L0 
     /tmp/ccqYKUbi.s:3021   .text:0000000000000af4 .L0 
     /tmp/ccqYKUbi.s:3022   .text:0000000000000af4 .L0 
     /tmp/ccqYKUbi.s:3027   .text:0000000000000b04 .L0 
     /tmp/ccqYKUbi.s:3030   .text:0000000000000b08 .L0 
     /tmp/ccqYKUbi.s:3031   .text:0000000000000b08 .L0 
     /tmp/ccqYKUbi.s:3036   .text:0000000000000b18 .L0 
     /tmp/ccqYKUbi.s:3041   .text:0000000000000b20 .L0 
     /tmp/ccqYKUbi.s:3042   .text:0000000000000b20 .L0 
     /tmp/ccqYKUbi.s:3054   .text:0000000000000b3c .L0 
     /tmp/ccqYKUbi.s:3058   .text:0000000000000b48 .L0 
     /tmp/ccqYKUbi.s:3059   .text:0000000000000b48 .L0 
     /tmp/ccqYKUbi.s:3066   .text:0000000000000b5c .L0 
     /tmp/ccqYKUbi.s:3067   .text:0000000000000b5c .L0 
     /tmp/ccqYKUbi.s:3068   .text:0000000000000b5c .L0 
     /tmp/ccqYKUbi.s:3071   .text:0000000000000b60 .L0 
     /tmp/ccqYKUbi.s:3081   .text:0000000000000b7c .L0 
     /tmp/ccqYKUbi.s:3082   .text:0000000000000b7c .L0 
     /tmp/ccqYKUbi.s:3088   .text:0000000000000b90 .L0 
     /tmp/ccqYKUbi.s:3089   .text:0000000000000b90 .L0 
     /tmp/ccqYKUbi.s:3091   .text:0000000000000b94 .L0 
     /tmp/ccqYKUbi.s:3092   .text:0000000000000b94 .L0 
     /tmp/ccqYKUbi.s:3095   .text:0000000000000b9c .L0 
     /tmp/ccqYKUbi.s:3096   .text:0000000000000b9c .L0 
     /tmp/ccqYKUbi.s:3103   .text:0000000000000bac .L0 
     /tmp/ccqYKUbi.s:3106   .text:0000000000000bb4 .L0 
     /tmp/ccqYKUbi.s:3112   .text:0000000000000bb8 .L0 
     /tmp/ccqYKUbi.s:3116   .text:0000000000000bc0 .L0 
     /tmp/ccqYKUbi.s:3123   .text:0000000000000bd0 .L0 
     /tmp/ccqYKUbi.s:3124   .text:0000000000000bd0 .L0 
     /tmp/ccqYKUbi.s:3130   .text:0000000000000bdc .L0 
     /tmp/ccqYKUbi.s:3137   .text:0000000000000be4 .L0 
     /tmp/ccqYKUbi.s:3144   .text:0000000000000bf4 .L0 
     /tmp/ccqYKUbi.s:3149   .text:0000000000000c00 .L0 
     /tmp/ccqYKUbi.s:3150   .text:0000000000000c00 .L0 
     /tmp/ccqYKUbi.s:3153   .text:0000000000000c08 .L0 
     /tmp/ccqYKUbi.s:3157   .text:0000000000000c14 .L0 
     /tmp/ccqYKUbi.s:3161   .text:0000000000000c18 .L0 
     /tmp/ccqYKUbi.s:3163   .text:0000000000000c1c .L0 
     /tmp/ccqYKUbi.s:3164   .text:0000000000000c1c .L0 
     /tmp/ccqYKUbi.s:3170   .text:0000000000000c30 .L0 
     /tmp/ccqYKUbi.s:3171   .text:0000000000000c30 .L0 
     /tmp/ccqYKUbi.s:3173   .text:0000000000000c34 .L0 
     /tmp/ccqYKUbi.s:3174   .text:0000000000000c34 .L0 
     /tmp/ccqYKUbi.s:3177   .text:0000000000000c40 .L0 
GAS LISTING /tmp/ccqYKUbi.s 			page 120


     /tmp/ccqYKUbi.s:3179   .text:0000000000000c44 .L0 
     /tmp/ccqYKUbi.s:3180   .text:0000000000000c44 .L0 
     /tmp/ccqYKUbi.s:3186   .text:0000000000000c54 .L0 
     /tmp/ccqYKUbi.s:3190   .text:0000000000000c60 .L0 
     /tmp/ccqYKUbi.s:3196   .text:0000000000000c64 .L0 
     /tmp/ccqYKUbi.s:3205   .text:0000000000000c70 .L0 
     /tmp/ccqYKUbi.s:3206   .text:0000000000000c70 .L0 
     /tmp/ccqYKUbi.s:3213   .text:0000000000000c80 .L0 
     /tmp/ccqYKUbi.s:3217   .text:0000000000000c8c .L0 
     /tmp/ccqYKUbi.s:3223   .text:0000000000000c90 .L0 
     /tmp/ccqYKUbi.s:3233   .text:0000000000000ca8 .L0 
     /tmp/ccqYKUbi.s:3241   .text:0000000000000cb8 .L0 
     /tmp/ccqYKUbi.s:3242   .text:0000000000000cb8 .L0 
     /tmp/ccqYKUbi.s:3246   .text:0000000000000cc0 .L0 
     /tmp/ccqYKUbi.s:3250   .text:0000000000000cc4 .L0 
     /tmp/ccqYKUbi.s:3252   .text:0000000000000cc8 .L0 
     /tmp/ccqYKUbi.s:3253   .text:0000000000000cc8 .L0 
     /tmp/ccqYKUbi.s:3257   .text:0000000000000cd8 .L0 
     /tmp/ccqYKUbi.s:3265   .text:0000000000000ce0 .L0 
     /tmp/ccqYKUbi.s:3271   .text:0000000000000ce8 .L0 
     /tmp/ccqYKUbi.s:3275   .text:0000000000000cec .L0 
     /tmp/ccqYKUbi.s:3277   .text:0000000000000cf0 .L0 
     /tmp/ccqYKUbi.s:3278   .text:0000000000000cf0 .L0 
     /tmp/ccqYKUbi.s:3282   .text:0000000000000cfc .L0 
     /tmp/ccqYKUbi.s:3284   .text:0000000000000d00 .L0 
     /tmp/ccqYKUbi.s:3292   .text:0000000000000d10 .L0 
     /tmp/ccqYKUbi.s:3293   .text:0000000000000d10 .L0 
     /tmp/ccqYKUbi.s:3295   .text:0000000000000d14 .L0 
     /tmp/ccqYKUbi.s:3302   .text:0000000000000d24 .L0 
     /tmp/ccqYKUbi.s:3303   .text:0000000000000d24 .L0 
     /tmp/ccqYKUbi.s:3305   .text:0000000000000d2c .L0 
     /tmp/ccqYKUbi.s:3307   .text:0000000000000d30 .L0 
     /tmp/ccqYKUbi.s:3313   .text:0000000000000d3c .L0 
     /tmp/ccqYKUbi.s:3314   .text:0000000000000d3c .L0 
     /tmp/ccqYKUbi.s:3316   .text:0000000000000d40 .L0 
     /tmp/ccqYKUbi.s:3328   .text:0000000000000d5c .L0 
     /tmp/ccqYKUbi.s:3329   .text:0000000000000d60 .L0 
     /tmp/ccqYKUbi.s:3330   .text:0000000000000d60 .L0 
     /tmp/ccqYKUbi.s:3332   .text:0000000000000d64 .L0 
     /tmp/ccqYKUbi.s:3334   .text:0000000000000d68 .L0 
     /tmp/ccqYKUbi.s:3336   .text:0000000000000d6c .L0 
     /tmp/ccqYKUbi.s:3338   .text:0000000000000d70 .L0 
     /tmp/ccqYKUbi.s:3341   .text:0000000000000d74 .L0 
     /tmp/ccqYKUbi.s:3343   .text:0000000000000d78 .L0 
     /tmp/ccqYKUbi.s:3345   .text:0000000000000d7c .L0 
     /tmp/ccqYKUbi.s:3347   .text:0000000000000d80 .L0 
     /tmp/ccqYKUbi.s:3349   .text:0000000000000d84 .L0 
     /tmp/ccqYKUbi.s:3351   .text:0000000000000d88 .L0 
     /tmp/ccqYKUbi.s:3353   .text:0000000000000d8c .L0 
     /tmp/ccqYKUbi.s:3355   .text:0000000000000d90 .L0 
     /tmp/ccqYKUbi.s:3359   .text:0000000000000d94 .L0 
     /tmp/ccqYKUbi.s:3363   .text:0000000000000d98 .L0 
     /tmp/ccqYKUbi.s:3375   .text:0000000000000db4 .L0 
     /tmp/ccqYKUbi.s:3387   .text:0000000000000dd0 .L0 
     /tmp/ccqYKUbi.s:3400   .text:0000000000000dec .L0 
     /tmp/ccqYKUbi.s:3412   .text:0000000000000e08 .L0 
     /tmp/ccqYKUbi.s:3421   .text:0000000000000e20 .L0 
GAS LISTING /tmp/ccqYKUbi.s 			page 121


     /tmp/ccqYKUbi.s:3498   .text:0000000000000e20 _Z12testSleepingv
     /tmp/ccqYKUbi.s:3501   .text:0000000000000e20 .L0 
     /tmp/ccqYKUbi.s:3502   .text:0000000000000e20 .L0 
     /tmp/ccqYKUbi.s:3503   .text:0000000000000e24 .L0 
     /tmp/ccqYKUbi.s:3507   .text:0000000000000e30 .L0 
     /tmp/ccqYKUbi.s:3508   .text:0000000000000e30 .L0 
     /tmp/ccqYKUbi.s:3509   .text:0000000000000e30 .L0 
     /tmp/ccqYKUbi.s:3511   .text:0000000000000e34 .L0 
     /tmp/ccqYKUbi.s:3514   .text:0000000000000e34 .L0 
     /tmp/ccqYKUbi.s:3515   .text:0000000000000e34 .L0 
     /tmp/ccqYKUbi.s:3516   .text:0000000000000e34 .L0 
     /tmp/ccqYKUbi.s:3521   .text:0000000000000e44 .L0 
     /tmp/ccqYKUbi.s:3524   .text:0000000000000e44 .L0 
     /tmp/ccqYKUbi.s:3525   .text:0000000000000e44 .L0 
     /tmp/ccqYKUbi.s:3530   .text:0000000000000e4c .L0 
     /tmp/ccqYKUbi.s:3531   .text:0000000000000e4c .L0 
     /tmp/ccqYKUbi.s:3533   .text:0000000000000e50 .L0 
     /tmp/ccqYKUbi.s:3541   .text:0000000000000e70 .L0 
     /tmp/ccqYKUbi.s:3545   .text:0000000000000e74 .L0 
     /tmp/ccqYKUbi.s:3550   .text:0000000000000e7c .L0 
     /tmp/ccqYKUbi.s:3551   .text:0000000000000e7c .L0 
     /tmp/ccqYKUbi.s:3552   .text:0000000000000e7c .L0 
     /tmp/ccqYKUbi.s:3554   .text:0000000000000e84 .L0 
     /tmp/ccqYKUbi.s:3556   .text:0000000000000e88 .L0 
     /tmp/ccqYKUbi.s:3558   .text:0000000000000e90 .L0 
     /tmp/ccqYKUbi.s:3560   .text:0000000000000e94 .L0 
     /tmp/ccqYKUbi.s:3561   .text:0000000000000e98 .L0 
     /tmp/ccqYKUbi.s:3563   .text:0000000000000e9c .L0 
     /tmp/ccqYKUbi.s:3564   .text:0000000000000e9c .L0 
     /tmp/ccqYKUbi.s:3566   .text:0000000000000ea0 .L0 
     /tmp/ccqYKUbi.s:3569   .text:0000000000000ea4 .L0 
     /tmp/ccqYKUbi.s:3571   .text:0000000000000ea8 .L0 
     /tmp/ccqYKUbi.s:3577   .text:0000000000000ea8 _ZN19ConsumerProducerCPP20testConsumerProducerEv
     /tmp/ccqYKUbi.s:3580   .text:0000000000000ea8 .L0 
     /tmp/ccqYKUbi.s:3583   .text:0000000000000ea8 .L0 
     /tmp/ccqYKUbi.s:3584   .text:0000000000000eac .L0 
     /tmp/ccqYKUbi.s:3596   .text:0000000000000ed8 .L0 
     /tmp/ccqYKUbi.s:3597   .text:0000000000000ed8 .L0 
     /tmp/ccqYKUbi.s:3598   .text:0000000000000ed8 .L0 
     /tmp/ccqYKUbi.s:3599   .text:0000000000000ed8 .L0 
     /tmp/ccqYKUbi.s:3600   .text:0000000000000ed8 .L0 
     /tmp/ccqYKUbi.s:3601   .text:0000000000000ed8 .L0 
     /tmp/ccqYKUbi.s:3602   .text:0000000000000ed8 .L0 
     /tmp/ccqYKUbi.s:3603   .text:0000000000000ed8 .L0 
     /tmp/ccqYKUbi.s:3604   .text:0000000000000ed8 .L0 
     /tmp/ccqYKUbi.s:3605   .text:0000000000000ed8 .L0 
     /tmp/ccqYKUbi.s:3606   .text:0000000000000ed8 .L0 
     /tmp/ccqYKUbi.s:3608   .text:0000000000000edc .L0 
     /tmp/ccqYKUbi.s:3610   .text:0000000000000edc .L0 
     /tmp/ccqYKUbi.s:3612   .text:0000000000000ee0 .L0 
     /tmp/ccqYKUbi.s:3613   .text:0000000000000ee0 .L0 
     /tmp/ccqYKUbi.s:3614   .text:0000000000000ee0 .L0 
     /tmp/ccqYKUbi.s:3615   .text:0000000000000ee0 .L0 
     /tmp/ccqYKUbi.s:3620   .text:0000000000000ef0 .L0 
     /tmp/ccqYKUbi.s:3621   .text:0000000000000ef0 .L0 
     /tmp/ccqYKUbi.s:3627   .text:0000000000000f04 .L0 
     /tmp/ccqYKUbi.s:3628   .text:0000000000000f04 .L0 
GAS LISTING /tmp/ccqYKUbi.s 			page 122


     /tmp/ccqYKUbi.s:3634   .text:0000000000000f14 .L0 
     /tmp/ccqYKUbi.s:3635   .text:0000000000000f14 .L0 
     /tmp/ccqYKUbi.s:3639   .text:0000000000000f24 .L0 
     /tmp/ccqYKUbi.s:3640   .text:0000000000000f24 .L0 
     /tmp/ccqYKUbi.s:3645   .text:0000000000000f34 .L0 
     /tmp/ccqYKUbi.s:3646   .text:0000000000000f34 .L0 
     /tmp/ccqYKUbi.s:3652   .text:0000000000000f44 .L0 
     /tmp/ccqYKUbi.s:3653   .text:0000000000000f44 .L0 
     /tmp/ccqYKUbi.s:3657   .text:0000000000000f54 .L0 
     /tmp/ccqYKUbi.s:3658   .text:0000000000000f54 .L0 
     /tmp/ccqYKUbi.s:3664   .text:0000000000000f68 .L0 
     /tmp/ccqYKUbi.s:3665   .text:0000000000000f68 .L0 
     /tmp/ccqYKUbi.s:3669   .text:0000000000000f78 .L0 
     /tmp/ccqYKUbi.s:3670   .text:0000000000000f78 .L0 
     /tmp/ccqYKUbi.s:3676   .text:0000000000000f8c .L0 
     /tmp/ccqYKUbi.s:3677   .text:0000000000000f8c .L0 
     /tmp/ccqYKUbi.s:3681   .text:0000000000000f9c .L0 
     /tmp/ccqYKUbi.s:3683   .text:0000000000000fa0 .L0 
     /tmp/ccqYKUbi.s:3685   .text:0000000000000fa4 .L0 
     /tmp/ccqYKUbi.s:3686   .text:0000000000000fa4 .L0 
     /tmp/ccqYKUbi.s:3699   .text:0000000000000fc4 .L0 
     /tmp/ccqYKUbi.s:3700   .text:0000000000000fc4 .L0 
     /tmp/ccqYKUbi.s:3705   .text:0000000000000fd4 .L0 
     /tmp/ccqYKUbi.s:3708   .text:0000000000000fd8 .L0 
     /tmp/ccqYKUbi.s:3709   .text:0000000000000fd8 .L0 
     /tmp/ccqYKUbi.s:3714   .text:0000000000000fe8 .L0 
     /tmp/ccqYKUbi.s:3719   .text:0000000000000ff0 .L0 
     /tmp/ccqYKUbi.s:3720   .text:0000000000000ff0 .L0 
     /tmp/ccqYKUbi.s:3732   .text:000000000000100c .L0 
     /tmp/ccqYKUbi.s:3736   .text:0000000000001018 .L0 
     /tmp/ccqYKUbi.s:3737   .text:0000000000001018 .L0 
     /tmp/ccqYKUbi.s:3744   .text:000000000000102c .L0 
     /tmp/ccqYKUbi.s:3745   .text:000000000000102c .L0 
     /tmp/ccqYKUbi.s:3748   .text:0000000000001030 .L0 
     /tmp/ccqYKUbi.s:3758   .text:000000000000104c .L0 
     /tmp/ccqYKUbi.s:3759   .text:000000000000104c .L0 
     /tmp/ccqYKUbi.s:3765   .text:0000000000001060 .L0 
     /tmp/ccqYKUbi.s:3766   .text:0000000000001060 .L0 
     /tmp/ccqYKUbi.s:3768   .text:0000000000001064 .L0 
     /tmp/ccqYKUbi.s:3769   .text:0000000000001064 .L0 
     /tmp/ccqYKUbi.s:3772   .text:000000000000106c .L0 
     /tmp/ccqYKUbi.s:3773   .text:000000000000106c .L0 
     /tmp/ccqYKUbi.s:3784   .text:000000000000107c .L0 
     /tmp/ccqYKUbi.s:3788   .text:0000000000001084 .L0 
     /tmp/ccqYKUbi.s:3795   .text:0000000000001094 .L0 
     /tmp/ccqYKUbi.s:3796   .text:0000000000001094 .L0 
     /tmp/ccqYKUbi.s:3801   .text:00000000000010a0 .L0 
     /tmp/ccqYKUbi.s:3802   .text:00000000000010a0 .L0 
     /tmp/ccqYKUbi.s:3804   .text:00000000000010a4 .L0 
     /tmp/ccqYKUbi.s:3805   .text:00000000000010a4 .L0 
     /tmp/ccqYKUbi.s:3807   .text:00000000000010a8 .L0 
     /tmp/ccqYKUbi.s:3808   .text:00000000000010a8 .L0 
     /tmp/ccqYKUbi.s:3811   .text:00000000000010b4 .L0 
     /tmp/ccqYKUbi.s:3812   .text:00000000000010b4 .L0 
     /tmp/ccqYKUbi.s:3822   .text:00000000000010c4 .L0 
     /tmp/ccqYKUbi.s:3832   .text:00000000000010dc .L0 
     /tmp/ccqYKUbi.s:3834   .text:00000000000010e0 .L0 
GAS LISTING /tmp/ccqYKUbi.s 			page 123


     /tmp/ccqYKUbi.s:3835   .text:00000000000010e0 .L0 
     /tmp/ccqYKUbi.s:3841   .text:00000000000010ec .L0 
     /tmp/ccqYKUbi.s:3848   .text:00000000000010f4 .L0 
     /tmp/ccqYKUbi.s:3855   .text:0000000000001104 .L0 
     /tmp/ccqYKUbi.s:3859   .text:0000000000001110 .L0 
     /tmp/ccqYKUbi.s:3860   .text:0000000000001110 .L0 
     /tmp/ccqYKUbi.s:3864   .text:000000000000111c .L0 
     /tmp/ccqYKUbi.s:3868   .text:0000000000001120 .L0 
     /tmp/ccqYKUbi.s:3870   .text:0000000000001124 .L0 
     /tmp/ccqYKUbi.s:3871   .text:0000000000001124 .L0 
     /tmp/ccqYKUbi.s:3877   .text:0000000000001138 .L0 
     /tmp/ccqYKUbi.s:3878   .text:0000000000001138 .L0 
     /tmp/ccqYKUbi.s:3880   .text:000000000000113c .L0 
     /tmp/ccqYKUbi.s:3881   .text:000000000000113c .L0 
     /tmp/ccqYKUbi.s:3884   .text:0000000000001148 .L0 
     /tmp/ccqYKUbi.s:3885   .text:0000000000001148 .L0 
     /tmp/ccqYKUbi.s:3895   .text:0000000000001158 .L0 
     /tmp/ccqYKUbi.s:3906   .text:0000000000001164 .L0 
     /tmp/ccqYKUbi.s:3907   .text:0000000000001164 .L0 
     /tmp/ccqYKUbi.s:3911   .text:000000000000116c .L0 
     /tmp/ccqYKUbi.s:3915   .text:0000000000001170 .L0 
     /tmp/ccqYKUbi.s:3917   .text:0000000000001174 .L0 
     /tmp/ccqYKUbi.s:3918   .text:0000000000001174 .L0 
     /tmp/ccqYKUbi.s:3922   .text:0000000000001184 .L0 
     /tmp/ccqYKUbi.s:3929   .text:000000000000118c .L0 
     /tmp/ccqYKUbi.s:3930   .text:000000000000118c .L0 
     /tmp/ccqYKUbi.s:3932   .text:0000000000001194 .L0 
     /tmp/ccqYKUbi.s:3934   .text:0000000000001198 .L0 
     /tmp/ccqYKUbi.s:3941   .text:00000000000011a4 .L0 
     /tmp/ccqYKUbi.s:3949   .text:00000000000011ac .L0 
     /tmp/ccqYKUbi.s:3953   .text:00000000000011b0 .L0 
     /tmp/ccqYKUbi.s:3955   .text:00000000000011b4 .L0 
     /tmp/ccqYKUbi.s:3956   .text:00000000000011b4 .L0 
     /tmp/ccqYKUbi.s:3960   .text:00000000000011c0 .L0 
     /tmp/ccqYKUbi.s:3962   .text:00000000000011c4 .L0 
     /tmp/ccqYKUbi.s:3970   .text:00000000000011d4 .L0 
     /tmp/ccqYKUbi.s:3971   .text:00000000000011d4 .L0 
     /tmp/ccqYKUbi.s:3973   .text:00000000000011d8 .L0 
     /tmp/ccqYKUbi.s:3980   .text:00000000000011e8 .L0 
     /tmp/ccqYKUbi.s:3981   .text:00000000000011e8 .L0 
     /tmp/ccqYKUbi.s:3983   .text:00000000000011ec .L0 
     /tmp/ccqYKUbi.s:3995   .text:0000000000001208 .L0 
     /tmp/ccqYKUbi.s:3996   .text:000000000000120c .L0 
     /tmp/ccqYKUbi.s:3997   .text:000000000000120c .L0 
     /tmp/ccqYKUbi.s:3999   .text:0000000000001210 .L0 
     /tmp/ccqYKUbi.s:4001   .text:0000000000001214 .L0 
     /tmp/ccqYKUbi.s:4003   .text:0000000000001218 .L0 
     /tmp/ccqYKUbi.s:4005   .text:000000000000121c .L0 
     /tmp/ccqYKUbi.s:4007   .text:0000000000001220 .L0 
     /tmp/ccqYKUbi.s:4010   .text:0000000000001224 .L0 
     /tmp/ccqYKUbi.s:4012   .text:0000000000001228 .L0 
     /tmp/ccqYKUbi.s:4014   .text:000000000000122c .L0 
     /tmp/ccqYKUbi.s:4016   .text:0000000000001230 .L0 
     /tmp/ccqYKUbi.s:4018   .text:0000000000001234 .L0 
     /tmp/ccqYKUbi.s:4020   .text:0000000000001238 .L0 
     /tmp/ccqYKUbi.s:4022   .text:000000000000123c .L0 
     /tmp/ccqYKUbi.s:4026   .text:0000000000001240 .L0 
GAS LISTING /tmp/ccqYKUbi.s 			page 124


     /tmp/ccqYKUbi.s:4030   .text:0000000000001244 .L0 
     /tmp/ccqYKUbi.s:4041   .text:0000000000001260 .L0 
     /tmp/ccqYKUbi.s:4053   .text:000000000000127c .L0 
     /tmp/ccqYKUbi.s:4064   .text:0000000000001298 .L0 
     /tmp/ccqYKUbi.s:4077   .text:00000000000012b4 .L0 
     /tmp/ccqYKUbi.s:4086   .text:00000000000012cc .L0 
     /tmp/ccqYKUbi.s:4163   .text:00000000000012cc _Z8userMainv
     /tmp/ccqYKUbi.s:4167   .text:00000000000012cc .L0 
     /tmp/ccqYKUbi.s:4168   .text:00000000000012cc .L0 
     /tmp/ccqYKUbi.s:4169   .text:00000000000012d0 .L0 
     /tmp/ccqYKUbi.s:4171   .text:00000000000012d4 .L0 
     /tmp/ccqYKUbi.s:4173   .text:00000000000012d8 .L0 
     /tmp/ccqYKUbi.s:4175   .text:00000000000012d8 .L0 
     /tmp/ccqYKUbi.s:4176   .text:00000000000012dc .L0 
     /tmp/ccqYKUbi.s:4177   .text:00000000000012dc .L0 
     /tmp/ccqYKUbi.s:4179   .text:00000000000012e0 .L0 
     /tmp/ccqYKUbi.s:4181   .text:00000000000012e4 .L0 
     /tmp/ccqYKUbi.s:4308   .bss:0000000000000000 _ZN19ConsumerProducerCPP9threadEndE
     /tmp/ccqYKUbi.s:4343   .bss:0000000000000020 _ZN19ConsumerProducerCPP10waitForAllE
     /tmp/ccqYKUbi.s:4313   .bss:0000000000000008 finished
     /tmp/ccqYKUbi.s:4334   .bss:0000000000000010 threadEnd
     /tmp/ccqYKUbi.s:4339   .bss:0000000000000018 waitForAll
     /tmp/ccqYKUbi.s:4329   .bss:000000000000000d finishedD
     /tmp/ccqYKUbi.s:4325   .bss:000000000000000c finishedC
     /tmp/ccqYKUbi.s:4321   .bss:000000000000000b finishedB
     /tmp/ccqYKUbi.s:4317   .bss:000000000000000a finishedA
     /tmp/ccqYKUbi.s:4305   .bss:0000000000000000 .LANCHOR0
     /tmp/ccqYKUbi.s:44     .text._ZN7WorkerAD2Ev:0000000000000034 .L0 
     /tmp/ccqYKUbi.s:91     .text._ZN7WorkerAD0Ev:000000000000004c .L0 
     /tmp/ccqYKUbi.s:128    .text._ZN7WorkerBD2Ev:0000000000000034 .L0 
     /tmp/ccqYKUbi.s:175    .text._ZN7WorkerBD0Ev:000000000000004c .L0 
     /tmp/ccqYKUbi.s:212    .text._ZN7WorkerCD2Ev:0000000000000034 .L0 
     /tmp/ccqYKUbi.s:259    .text._ZN7WorkerCD0Ev:000000000000004c .L0 
     /tmp/ccqYKUbi.s:296    .text._ZN7WorkerDD2Ev:0000000000000034 .L0 
     /tmp/ccqYKUbi.s:343    .text._ZN7WorkerDD0Ev:000000000000004c .L0 
     /tmp/ccqYKUbi.s:381    .text._ZN8ConsumerD2Ev:0000000000000034 .L0 
     /tmp/ccqYKUbi.s:428    .text._ZN8ConsumerD0Ev:000000000000004c .L0 
     /tmp/ccqYKUbi.s:465    .text._ZN8ProducerD2Ev:0000000000000034 .L0 
     /tmp/ccqYKUbi.s:512    .text._ZN8ProducerD0Ev:000000000000004c .L0 
     /tmp/ccqYKUbi.s:549    .text._ZN16ProducerKeyboardD2Ev:0000000000000034 .L0 
     /tmp/ccqYKUbi.s:596    .text._ZN16ProducerKeyboardD0Ev:000000000000004c .L0 
     /tmp/ccqYKUbi.s:634    .text._ZN19ConsumerProducerCPP8ConsumerD2Ev:0000000000000034 .L0 
     /tmp/ccqYKUbi.s:681    .text._ZN19ConsumerProducerCPP8ConsumerD0Ev:000000000000004c .L0 
     /tmp/ccqYKUbi.s:718    .text._ZN19ConsumerProducerCPP16ProducerKeyboradD2Ev:0000000000000034 .L0 
     /tmp/ccqYKUbi.s:765    .text._ZN19ConsumerProducerCPP16ProducerKeyboradD0Ev:000000000000004c .L0 
     /tmp/ccqYKUbi.s:802    .text._ZN19ConsumerProducerCPP8ProducerD2Ev:0000000000000034 .L0 
     /tmp/ccqYKUbi.s:849    .text._ZN19ConsumerProducerCPP8ProducerD0Ev:000000000000004c .L0 
     /tmp/ccqYKUbi.s:929    .text._ZN19ConsumerProducerCPP16ProducerKeyborad3runEv:0000000000000084 .L0 
     /tmp/ccqYKUbi.s:1053   .text._ZN19ConsumerProducerCPP8Consumer3runEv:00000000000000d0 .L0 
     /tmp/ccqYKUbi.s:4353   .text:00000000000012e4 .L0 
     /tmp/ccqYKUbi.s:1234   .text._ZN19ConsumerProducerCPP8Producer3runEv:0000000000000094 .L0 
     /tmp/ccqYKUbi.s:1476   .text._ZN7WorkerA3runEv:000000000000002c .L0 
     /tmp/ccqYKUbi.s:1647   .text._ZN7WorkerB3runEv:000000000000002c .L0 
     /tmp/ccqYKUbi.s:1879   .text._ZN7WorkerC3runEv:000000000000002c .L0 
     /tmp/ccqYKUbi.s:2082   .text._ZN7WorkerD3runEv:000000000000002c .L0 
     /tmp/ccqYKUbi.s:2570   .text._ZN16ProducerKeyboard3runEv:000000000000002c .L0 
     /tmp/ccqYKUbi.s:2693   .text._ZN8Producer3runEv:000000000000002c .L0 
GAS LISTING /tmp/ccqYKUbi.s 			page 125


     /tmp/ccqYKUbi.s:2873   .text._ZN8Consumer3runEv:000000000000002c .L0 
     /tmp/ccqYKUbi.s:1055   .rodata.str1.8:0000000000000000 .LC0
     /tmp/ccqYKUbi.s:1098   .text:0000000000000028 .L0 
     /tmp/ccqYKUbi.s:1058   .rodata.str1.8:0000000000000008 .LC1
     /tmp/ccqYKUbi.s:1110   .text:000000000000004c .L0 
     /tmp/ccqYKUbi.s:1129   .text:0000000000000078 .L0 
     /tmp/ccqYKUbi.s:1308   .rodata.str1.8:0000000000000010 .LC2
     /tmp/ccqYKUbi.s:1391   .text:0000000000000174 .L0 
     /tmp/ccqYKUbi.s:1311   .rodata.str1.8:0000000000000018 .LC3
     /tmp/ccqYKUbi.s:1403   .text:0000000000000198 .L0 
     /tmp/ccqYKUbi.s:1314   .rodata.str1.8:0000000000000020 .LC4
     /tmp/ccqYKUbi.s:1418   .text:00000000000001b0 .L0 
     /tmp/ccqYKUbi.s:1424   .text:00000000000001c4 .L0 
     /tmp/ccqYKUbi.s:1478   .rodata.str1.8:0000000000000030 .LC5
     /tmp/ccqYKUbi.s:1558   .text:0000000000000240 .L0 
     /tmp/ccqYKUbi.s:1570   .text:0000000000000264 .L0 
     /tmp/ccqYKUbi.s:1481   .rodata.str1.8:0000000000000038 .LC6
     /tmp/ccqYKUbi.s:1585   .text:000000000000027c .L0 
     /tmp/ccqYKUbi.s:1591   .text:0000000000000290 .L0 
     /tmp/ccqYKUbi.s:1649   .rodata.str1.8:0000000000000048 .LC7
     /tmp/ccqYKUbi.s:1693   .text:00000000000002d8 .L0 
     /tmp/ccqYKUbi.s:1705   .text:00000000000002fc .L0 
     /tmp/ccqYKUbi.s:1652   .rodata.str1.8:0000000000000050 .LC8
     /tmp/ccqYKUbi.s:1720   .text:000000000000031c .L0 
     /tmp/ccqYKUbi.s:1655   .rodata.str1.8:0000000000000060 .LC9
     /tmp/ccqYKUbi.s:1745   .text:000000000000033c .L0 
     /tmp/ccqYKUbi.s:1757   .text:0000000000000360 .L0 
     /tmp/ccqYKUbi.s:1658   .rodata.str1.8:0000000000000068 .LC10
     /tmp/ccqYKUbi.s:1769   .text:0000000000000380 .L0 
     /tmp/ccqYKUbi.s:1782   .text:00000000000003a4 .L0 
     /tmp/ccqYKUbi.s:1789   .text:00000000000003b8 .L0 
     /tmp/ccqYKUbi.s:1801   .text:00000000000003dc .L0 
     /tmp/ccqYKUbi.s:1661   .rodata.str1.8:0000000000000078 .LC11
     /tmp/ccqYKUbi.s:1816   .text:00000000000003fc .L0 
     /tmp/ccqYKUbi.s:1822   .text:0000000000000410 .L0 
     /tmp/ccqYKUbi.s:1881   .rodata.str1.8:0000000000000088 .LC12
     /tmp/ccqYKUbi.s:1922   .text:0000000000000458 .L0 
     /tmp/ccqYKUbi.s:1934   .text:000000000000047c .L0 
     /tmp/ccqYKUbi.s:1884   .rodata.str1.8:0000000000000090 .LC13
     /tmp/ccqYKUbi.s:1949   .text:000000000000049c .L0 
     /tmp/ccqYKUbi.s:1887   .rodata.str1.8:00000000000000a0 .LC14
     /tmp/ccqYKUbi.s:1972   .text:00000000000004c8 .L0 
     /tmp/ccqYKUbi.s:1985   .text:00000000000004ec .L0 
     /tmp/ccqYKUbi.s:1992   .text:0000000000000500 .L0 
     /tmp/ccqYKUbi.s:2004   .text:0000000000000524 .L0 
     /tmp/ccqYKUbi.s:1890   .rodata.str1.8:00000000000000b0 .LC15
     /tmp/ccqYKUbi.s:2019   .text:0000000000000544 .L0 
     /tmp/ccqYKUbi.s:2025   .text:0000000000000558 .L0 
     /tmp/ccqYKUbi.s:2134   .text:00000000000005b0 .L0 
     /tmp/ccqYKUbi.s:2084   .rodata.str1.8:00000000000000c0 .LC16
     /tmp/ccqYKUbi.s:2143   .text:00000000000005c0 .L0 
     /tmp/ccqYKUbi.s:2162   .text:00000000000005e8 .L0 
     /tmp/ccqYKUbi.s:2087   .rodata.str1.8:00000000000000d8 .LC17
     /tmp/ccqYKUbi.s:2171   .text:00000000000005f8 .L0 
     /tmp/ccqYKUbi.s:2190   .text:0000000000000620 .L0 
     /tmp/ccqYKUbi.s:2090   .rodata.str1.8:00000000000000f0 .LC18
     /tmp/ccqYKUbi.s:2199   .text:0000000000000630 .L0 
GAS LISTING /tmp/ccqYKUbi.s 			page 126


     /tmp/ccqYKUbi.s:2218   .text:0000000000000658 .L0 
     /tmp/ccqYKUbi.s:2093   .rodata.str1.8:0000000000000108 .LC19
     /tmp/ccqYKUbi.s:2227   .text:0000000000000668 .L0 
     /tmp/ccqYKUbi.s:2263   .text:00000000000006ac .L0 
     /tmp/ccqYKUbi.s:2266   .text:00000000000006b8 .L0 
     /tmp/ccqYKUbi.s:2269   .text:00000000000006c4 .L0 
     /tmp/ccqYKUbi.s:2272   .text:00000000000006d0 .L0 
     /tmp/ccqYKUbi.s:2500   .text:000000000000080c .L0 
     /tmp/ccqYKUbi.s:2607   .text:000000000000087c .L0 
     /tmp/ccqYKUbi.s:2745   .text:000000000000092c .L0 
     /tmp/ccqYKUbi.s:2875   .rodata.str1.8:0000000000000120 .LC20
     /tmp/ccqYKUbi.s:2937   .text:0000000000000a10 .L0 
     /tmp/ccqYKUbi.s:2878   .rodata.str1.8:0000000000000140 .LC21
     /tmp/ccqYKUbi.s:2957   .text:0000000000000a44 .L0 
     /tmp/ccqYKUbi.s:2881   .rodata.str1.8:0000000000000160 .LC22
     /tmp/ccqYKUbi.s:2975   .text:0000000000000a74 .L0 
     /tmp/ccqYKUbi.s:2884   .rodata.str1.8:0000000000000178 .LC23
     /tmp/ccqYKUbi.s:2987   .text:0000000000000a98 .L0 
     /tmp/ccqYKUbi.s:2887   .rodata.str1.8:0000000000000190 .LC24
     /tmp/ccqYKUbi.s:2999   .text:0000000000000abc .L0 
     /tmp/ccqYKUbi.s:2890   .rodata.str1.8:0000000000000198 .LC25
     /tmp/ccqYKUbi.s:3022   .text:0000000000000af4 .L0 
     /tmp/ccqYKUbi.s:2893   .rodata.str1.8:00000000000001d8 .LC26
     /tmp/ccqYKUbi.s:3031   .text:0000000000000b08 .L0 
     /tmp/ccqYKUbi.s:3054   .text:0000000000000b3c .L0 
     /tmp/ccqYKUbi.s:3116   .text:0000000000000bc0 .L0 
     /tmp/ccqYKUbi.s:3137   .text:0000000000000be4 .L0 
     /tmp/ccqYKUbi.s:3174   .text:0000000000000c34 .L0 
     /tmp/ccqYKUbi.s:3226   .text:0000000000000c98 .L0 
     /tmp/ccqYKUbi.s:3253   .text:0000000000000cc8 .L0 
     /tmp/ccqYKUbi.s:3303   .text:0000000000000d24 .L0 
     /tmp/ccqYKUbi.s:3535   .text:0000000000000e58 .L0 
     /tmp/ccqYKUbi.s:3552   .text:0000000000000e7c .L0 
     /tmp/ccqYKUbi.s:3556   .text:0000000000000e88 .L0 
     /tmp/ccqYKUbi.s:3615   .text:0000000000000ee0 .L0 
     /tmp/ccqYKUbi.s:3635   .text:0000000000000f14 .L0 
     /tmp/ccqYKUbi.s:3653   .text:0000000000000f44 .L0 
     /tmp/ccqYKUbi.s:3665   .text:0000000000000f68 .L0 
     /tmp/ccqYKUbi.s:3677   .text:0000000000000f8c .L0 
     /tmp/ccqYKUbi.s:3700   .text:0000000000000fc4 .L0 
     /tmp/ccqYKUbi.s:3709   .text:0000000000000fd8 .L0 
     /tmp/ccqYKUbi.s:3732   .text:000000000000100c .L0 
     /tmp/ccqYKUbi.s:3788   .text:0000000000001084 .L0 
     /tmp/ccqYKUbi.s:3808   .text:00000000000010a8 .L0 
     /tmp/ccqYKUbi.s:3825   .text:00000000000010cc .L0 
     /tmp/ccqYKUbi.s:3848   .text:00000000000010f4 .L0 
     /tmp/ccqYKUbi.s:3881   .text:000000000000113c .L0 
     /tmp/ccqYKUbi.s:3918   .text:0000000000001174 .L0 
     /tmp/ccqYKUbi.s:3930   .text:000000000000118c .L0 
     /tmp/ccqYKUbi.s:1120   .text:000000000000006c .L54
     /tmp/ccqYKUbi.s:1090   .text:0000000000000020 .L55
     /tmp/ccqYKUbi.s:1279   .text:00000000000000f4 .L61
     /tmp/ccqYKUbi.s:1296   .text:000000000000010c .L66
     /tmp/ccqYKUbi.s:1266   .text:00000000000000d4 .L63
     /tmp/ccqYKUbi.s:1384   .text:000000000000016c .L73
     /tmp/ccqYKUbi.s:1376   .text:0000000000000168 .L69
     /tmp/ccqYKUbi.s:1344   .text:0000000000000138 .L70
GAS LISTING /tmp/ccqYKUbi.s 			page 127


     /tmp/ccqYKUbi.s:1365   .text:0000000000000154 .L71
     /tmp/ccqYKUbi.s:1412   .text:00000000000001b0 .L68
     /tmp/ccqYKUbi.s:1356   .text:0000000000000144 .L72
     /tmp/ccqYKUbi.s:1551   .text:0000000000000238 .L83
     /tmp/ccqYKUbi.s:1543   .text:0000000000000234 .L79
     /tmp/ccqYKUbi.s:1511   .text:0000000000000204 .L80
     /tmp/ccqYKUbi.s:1532   .text:0000000000000220 .L81
     /tmp/ccqYKUbi.s:1579   .text:000000000000027c .L78
     /tmp/ccqYKUbi.s:1523   .text:0000000000000210 .L82
     /tmp/ccqYKUbi.s:1713   .text:0000000000000314 .L89
     /tmp/ccqYKUbi.s:1690   .text:00000000000002d8 .L93
     /tmp/ccqYKUbi.s:1809   .text:00000000000003f4 .L91
     /tmp/ccqYKUbi.s:1786   .text:00000000000003b8 .L94
     /tmp/ccqYKUbi.s:1942   .text:0000000000000494 .L99
     /tmp/ccqYKUbi.s:1919   .text:0000000000000458 .L103
     /tmp/ccqYKUbi.s:2012   .text:000000000000053c .L101
     /tmp/ccqYKUbi.s:1989   .text:0000000000000500 .L104
     /tmp/ccqYKUbi.s:2260   .text:00000000000006ac .L108
     /tmp/ccqYKUbi.s:2234   .text:000000000000067c .L109
     /tmp/ccqYKUbi.s:2253   .text:00000000000006a4 .L110
     /tmp/ccqYKUbi.s:2284   .text:00000000000006e8 .L111
     /tmp/ccqYKUbi.s:2346   .text:0000000000000778 .L107
     /tmp/ccqYKUbi.s:2280   .text:00000000000006e4 .L113
     /tmp/ccqYKUbi.s:2461   .text:00000000000007c4 .L125
     /tmp/ccqYKUbi.s:2496   .text:0000000000000808 .L126
     /tmp/ccqYKUbi.s:2456   .text:00000000000007bc .L129
     /tmp/ccqYKUbi.s:2604   .text:000000000000087c .L133
     /tmp/ccqYKUbi.s:2635   .text:00000000000008c0 .L134
     /tmp/ccqYKUbi.s:2599   .text:0000000000000874 .L137
     /tmp/ccqYKUbi.s:2741   .text:000000000000092c .L141
     /tmp/ccqYKUbi.s:2774   .text:000000000000096c .L143
     /tmp/ccqYKUbi.s:2799   .text:0000000000000998 .L142
     /tmp/ccqYKUbi.s:2727   .text:0000000000000914 .L147
     /tmp/ccqYKUbi.s:2735   .text:0000000000000920 .L148
     /tmp/ccqYKUbi.s:2783   .text:000000000000097c .L149
     /tmp/ccqYKUbi.s:3019   .text:0000000000000af4 .L180
     /tmp/ccqYKUbi.s:3028   .text:0000000000000b08 .L181
     /tmp/ccqYKUbi.s:3038   .text:0000000000000b20 .L182
     /tmp/ccqYKUbi.s:3035   .text:0000000000000b18 .L154
     /tmp/ccqYKUbi.s:3326   .text:0000000000000d5c .L152
     /tmp/ccqYKUbi.s:3159   .text:0000000000000c18 .L159
     /tmp/ccqYKUbi.s:3237   .text:0000000000000cb8 .L156
     /tmp/ccqYKUbi.s:3201   .text:0000000000000c70 .L157
     /tmp/ccqYKUbi.s:3133   .text:0000000000000be4 .L183
     /tmp/ccqYKUbi.s:3147   .text:0000000000000c00 .L158
     /tmp/ccqYKUbi.s:3261   .text:0000000000000ce0 .L173
     /tmp/ccqYKUbi.s:3248   .text:0000000000000cc4 .L161
     /tmp/ccqYKUbi.s:3273   .text:0000000000000cec .L160
     /tmp/ccqYKUbi.s:3289   .text:0000000000000d10 .L162
     /tmp/ccqYKUbi.s:3269   .text:0000000000000ce8 .L163
     /tmp/ccqYKUbi.s:3300   .text:0000000000000d24 .L164
     /tmp/ccqYKUbi.s:3311   .text:0000000000000d3c .L165
     /tmp/ccqYKUbi.s:3323   .text:0000000000000d58 .L166
     /tmp/ccqYKUbi.s:3543   .text:0000000000000e74 .L186
     /tmp/ccqYKUbi.s:3528   .text:0000000000000e4c .L189
     /tmp/ccqYKUbi.s:3547   .text:0000000000000e7c .L187
     /tmp/ccqYKUbi.s:3697   .text:0000000000000fc4 .L216
GAS LISTING /tmp/ccqYKUbi.s 			page 128


     /tmp/ccqYKUbi.s:3706   .text:0000000000000fd8 .L217
     /tmp/ccqYKUbi.s:3716   .text:0000000000000ff0 .L218
     /tmp/ccqYKUbi.s:3713   .text:0000000000000fe8 .L192
     /tmp/ccqYKUbi.s:3993   .text:0000000000001208 .L190
     /tmp/ccqYKUbi.s:3866   .text:0000000000001120 .L195
     /tmp/ccqYKUbi.s:3900   .text:0000000000001164 .L194
     /tmp/ccqYKUbi.s:3844   .text:00000000000010f4 .L219
     /tmp/ccqYKUbi.s:3926   .text:000000000000118c .L196
     /tmp/ccqYKUbi.s:3912   .text:0000000000001170 .L197
     /tmp/ccqYKUbi.s:3938   .text:00000000000011a4 .L198
     /tmp/ccqYKUbi.s:3951   .text:00000000000011b0 .L201
     /tmp/ccqYKUbi.s:3967   .text:00000000000011d4 .L199
     /tmp/ccqYKUbi.s:3945   .text:00000000000011ac .L200
     /tmp/ccqYKUbi.s:3978   .text:00000000000011e8 .L202
     /tmp/ccqYKUbi.s:3990   .text:0000000000001204 .L203
     /tmp/ccqYKUbi.s:26     .text._ZN7WorkerAD2Ev:0000000000000010 .L0 
     /tmp/ccqYKUbi.s:68     .text._ZN7WorkerAD0Ev:0000000000000018 .L0 
     /tmp/ccqYKUbi.s:110    .text._ZN7WorkerBD2Ev:0000000000000010 .L0 
     /tmp/ccqYKUbi.s:152    .text._ZN7WorkerBD0Ev:0000000000000018 .L0 
     /tmp/ccqYKUbi.s:194    .text._ZN7WorkerCD2Ev:0000000000000010 .L0 
     /tmp/ccqYKUbi.s:236    .text._ZN7WorkerCD0Ev:0000000000000018 .L0 
     /tmp/ccqYKUbi.s:278    .text._ZN7WorkerDD2Ev:0000000000000010 .L0 
     /tmp/ccqYKUbi.s:320    .text._ZN7WorkerDD0Ev:0000000000000018 .L0 
     /tmp/ccqYKUbi.s:363    .text._ZN8ConsumerD2Ev:0000000000000010 .L0 
     /tmp/ccqYKUbi.s:405    .text._ZN8ConsumerD0Ev:0000000000000018 .L0 
     /tmp/ccqYKUbi.s:447    .text._ZN8ProducerD2Ev:0000000000000010 .L0 
     /tmp/ccqYKUbi.s:489    .text._ZN8ProducerD0Ev:0000000000000018 .L0 
     /tmp/ccqYKUbi.s:531    .text._ZN16ProducerKeyboardD2Ev:0000000000000010 .L0 
     /tmp/ccqYKUbi.s:573    .text._ZN16ProducerKeyboardD0Ev:0000000000000018 .L0 
     /tmp/ccqYKUbi.s:616    .text._ZN19ConsumerProducerCPP8ConsumerD2Ev:0000000000000010 .L0 
     /tmp/ccqYKUbi.s:658    .text._ZN19ConsumerProducerCPP8ConsumerD0Ev:0000000000000018 .L0 
     /tmp/ccqYKUbi.s:700    .text._ZN19ConsumerProducerCPP16ProducerKeyboradD2Ev:0000000000000010 .L0 
     /tmp/ccqYKUbi.s:742    .text._ZN19ConsumerProducerCPP16ProducerKeyboradD0Ev:0000000000000018 .L0 
     /tmp/ccqYKUbi.s:784    .text._ZN19ConsumerProducerCPP8ProducerD2Ev:0000000000000010 .L0 
     /tmp/ccqYKUbi.s:826    .text._ZN19ConsumerProducerCPP8ProducerD0Ev:0000000000000018 .L0 
     /tmp/ccqYKUbi.s:898    .text._ZN19ConsumerProducerCPP16ProducerKeyborad3runEv:0000000000000044 .L0 
     /tmp/ccqYKUbi.s:894    .text._ZN19ConsumerProducerCPP16ProducerKeyborad3runEv:0000000000000040 .L42
     /tmp/ccqYKUbi.s:872    .text._ZN19ConsumerProducerCPP16ProducerKeyborad3runEv:0000000000000018 .L43
     /tmp/ccqYKUbi.s:970    .text._ZN19ConsumerProducerCPP8Consumer3runEv:0000000000000034 .L0 
     /tmp/ccqYKUbi.s:966    .text._ZN19ConsumerProducerCPP8Consumer3runEv:0000000000000034 .L46
     /tmp/ccqYKUbi.s:1015   .text._ZN19ConsumerProducerCPP8Consumer3runEv:0000000000000090 .L47
     /tmp/ccqYKUbi.s:959    .text._ZN19ConsumerProducerCPP8Consumer3runEv:0000000000000028 .L51
     /tmp/ccqYKUbi.s:999    .text._ZN19ConsumerProducerCPP8Consumer3runEv:0000000000000074 .L52
     /tmp/ccqYKUbi.s:1179   .text._ZN19ConsumerProducerCPP8Producer3runEv:0000000000000020 .L0 
     /tmp/ccqYKUbi.s:1209   .text._ZN19ConsumerProducerCPP8Producer3runEv:000000000000006c .L58
     /tmp/ccqYKUbi.s:1176   .text._ZN19ConsumerProducerCPP8Producer3runEv:0000000000000020 .L59
     /tmp/ccqYKUbi.s:2121   .text:000000000000059c .LEHB0
     /tmp/ccqYKUbi.s:2100   .text:0000000000000580 .LFB35
     /tmp/ccqYKUbi.s:2124   .text:00000000000005a4 .LEHE0
     /tmp/ccqYKUbi.s:2127   .text:00000000000005a8 .LEHB1
     /tmp/ccqYKUbi.s:2133   .text:00000000000005b0 .LEHE1
     /tmp/ccqYKUbi.s:2301   .text:0000000000000708 .L119
     /tmp/ccqYKUbi.s:2144   .text:00000000000005c8 .LEHB2
     /tmp/ccqYKUbi.s:2152   .text:00000000000005dc .LEHE2
     /tmp/ccqYKUbi.s:2155   .text:00000000000005e0 .LEHB3
     /tmp/ccqYKUbi.s:2161   .text:00000000000005e8 .LEHE3
     /tmp/ccqYKUbi.s:2313   .text:0000000000000724 .L120
GAS LISTING /tmp/ccqYKUbi.s 			page 129


     /tmp/ccqYKUbi.s:2172   .text:0000000000000600 .LEHB4
     /tmp/ccqYKUbi.s:2180   .text:0000000000000614 .LEHE4
     /tmp/ccqYKUbi.s:2183   .text:0000000000000618 .LEHB5
     /tmp/ccqYKUbi.s:2189   .text:0000000000000620 .LEHE5
     /tmp/ccqYKUbi.s:2324   .text:0000000000000740 .L121
     /tmp/ccqYKUbi.s:2200   .text:0000000000000638 .LEHB6
     /tmp/ccqYKUbi.s:2208   .text:000000000000064c .LEHE6
     /tmp/ccqYKUbi.s:2211   .text:0000000000000650 .LEHB7
     /tmp/ccqYKUbi.s:2217   .text:0000000000000658 .LEHE7
     /tmp/ccqYKUbi.s:2335   .text:000000000000075c .L122
     /tmp/ccqYKUbi.s:2228   .text:0000000000000670 .LEHB8
     /tmp/ccqYKUbi.s:2259   .text:00000000000006ac .LEHE8
     /tmp/ccqYKUbi.s:2309   .text:000000000000071c .LEHB9
     /tmp/ccqYKUbi.s:2312   .text:0000000000000724 .LEHE9
     /tmp/ccqYKUbi.s:2320   .text:0000000000000738 .LEHB10
     /tmp/ccqYKUbi.s:2323   .text:0000000000000740 .LEHE10
     /tmp/ccqYKUbi.s:2331   .text:0000000000000754 .LEHB11
     /tmp/ccqYKUbi.s:2334   .text:000000000000075c .LEHE11
     /tmp/ccqYKUbi.s:2342   .text:0000000000000770 .LEHB12
     /tmp/ccqYKUbi.s:2345   .text:0000000000000778 .LEHE12
     /tmp/ccqYKUbi.s:2938   .text:0000000000000a18 .LEHB13
     /tmp/ccqYKUbi.s:2900   .text:00000000000009d8 .LFB51
     /tmp/ccqYKUbi.s:3011   .text:0000000000000ae0 .LEHE13
     /tmp/ccqYKUbi.s:3014   .text:0000000000000ae8 .LEHB14
     /tmp/ccqYKUbi.s:3017   .text:0000000000000af0 .LEHE14
     /tmp/ccqYKUbi.s:3358   .text:0000000000000d94 .L174
     /tmp/ccqYKUbi.s:3023   .text:0000000000000afc .LEHB15
     /tmp/ccqYKUbi.s:3045   .text:0000000000000b2c .LEHE15
     /tmp/ccqYKUbi.s:3049   .text:0000000000000b34 .LEHB16
     /tmp/ccqYKUbi.s:3052   .text:0000000000000b3c .LEHE16
     /tmp/ccqYKUbi.s:3371   .text:0000000000000db0 .L175
     /tmp/ccqYKUbi.s:3097   .text:0000000000000ba0 .LEHB17
     /tmp/ccqYKUbi.s:3100   .text:0000000000000ba8 .LEHE17
     /tmp/ccqYKUbi.s:3108   .text:0000000000000bb8 .LEHB18
     /tmp/ccqYKUbi.s:3114   .text:0000000000000bc0 .LEHE18
     /tmp/ccqYKUbi.s:3383   .text:0000000000000dcc .L176
     /tmp/ccqYKUbi.s:3125   .text:0000000000000bd4 .LEHB19
     /tmp/ccqYKUbi.s:3183   .text:0000000000000c50 .LEHE19
     /tmp/ccqYKUbi.s:3192   .text:0000000000000c64 .LEHB20
     /tmp/ccqYKUbi.s:3198   .text:0000000000000c6c .LEHE20
     /tmp/ccqYKUbi.s:3395   .text:0000000000000de8 .L177
     /tmp/ccqYKUbi.s:3207   .text:0000000000000c74 .LEHB21
     /tmp/ccqYKUbi.s:3210   .text:0000000000000c7c .LEHE21
     /tmp/ccqYKUbi.s:3219   .text:0000000000000c90 .LEHB22
     /tmp/ccqYKUbi.s:3225   .text:0000000000000c98 .LEHE22
     /tmp/ccqYKUbi.s:3408   .text:0000000000000e04 .L178
     /tmp/ccqYKUbi.s:3240   .text:0000000000000cb8 .LEHB23
     /tmp/ccqYKUbi.s:3322   .text:0000000000000d58 .LEHE23
     /tmp/ccqYKUbi.s:3367   .text:0000000000000da8 .LEHB24
     /tmp/ccqYKUbi.s:3370   .text:0000000000000db0 .LEHE24
     /tmp/ccqYKUbi.s:3379   .text:0000000000000dc4 .LEHB25
     /tmp/ccqYKUbi.s:3382   .text:0000000000000dcc .LEHE25
     /tmp/ccqYKUbi.s:3391   .text:0000000000000de0 .LEHB26
     /tmp/ccqYKUbi.s:3394   .text:0000000000000de8 .LEHE26
     /tmp/ccqYKUbi.s:3404   .text:0000000000000dfc .LEHB27
     /tmp/ccqYKUbi.s:3407   .text:0000000000000e04 .LEHE27
     /tmp/ccqYKUbi.s:3416   .text:0000000000000e18 .LEHB28
GAS LISTING /tmp/ccqYKUbi.s 			page 130


     /tmp/ccqYKUbi.s:3419   .text:0000000000000e20 .LEHE28
     /tmp/ccqYKUbi.s:3616   .text:0000000000000ee8 .LEHB29
     /tmp/ccqYKUbi.s:3578   .text:0000000000000ea8 .LFB66
     /tmp/ccqYKUbi.s:3689   .text:0000000000000fb0 .LEHE29
     /tmp/ccqYKUbi.s:3692   .text:0000000000000fb8 .LEHB30
     /tmp/ccqYKUbi.s:3695   .text:0000000000000fc0 .LEHE30
     /tmp/ccqYKUbi.s:4025   .text:0000000000001240 .L210
     /tmp/ccqYKUbi.s:3701   .text:0000000000000fcc .LEHB31
     /tmp/ccqYKUbi.s:3723   .text:0000000000000ffc .LEHE31
     /tmp/ccqYKUbi.s:3727   .text:0000000000001004 .LEHB32
     /tmp/ccqYKUbi.s:3730   .text:000000000000100c .LEHE32
     /tmp/ccqYKUbi.s:4038   .text:000000000000125c .L211
     /tmp/ccqYKUbi.s:3774   .text:0000000000001070 .LEHB33
     /tmp/ccqYKUbi.s:3777   .text:0000000000001078 .LEHE33
     /tmp/ccqYKUbi.s:3780   .text:000000000000107c .LEHB34
     /tmp/ccqYKUbi.s:3786   .text:0000000000001084 .LEHE34
     /tmp/ccqYKUbi.s:4049   .text:0000000000001278 .L212
     /tmp/ccqYKUbi.s:3797   .text:0000000000001098 .LEHB35
     /tmp/ccqYKUbi.s:3815   .text:00000000000010c0 .LEHE35
     /tmp/ccqYKUbi.s:3818   .text:00000000000010c4 .LEHB36
     /tmp/ccqYKUbi.s:3824   .text:00000000000010cc .LEHE36
     /tmp/ccqYKUbi.s:4061   .text:0000000000001294 .L213
     /tmp/ccqYKUbi.s:3836   .text:00000000000010e4 .LEHB37
     /tmp/ccqYKUbi.s:3888   .text:0000000000001154 .LEHE37
     /tmp/ccqYKUbi.s:3891   .text:0000000000001158 .LEHB38
     /tmp/ccqYKUbi.s:3897   .text:0000000000001160 .LEHE38
     /tmp/ccqYKUbi.s:4072   .text:00000000000012b0 .L214
     /tmp/ccqYKUbi.s:3905   .text:0000000000001164 .LEHB39
     /tmp/ccqYKUbi.s:3989   .text:0000000000001204 .LEHE39
     /tmp/ccqYKUbi.s:4034   .text:0000000000001254 .LEHB40
     /tmp/ccqYKUbi.s:4037   .text:000000000000125c .LEHE40
     /tmp/ccqYKUbi.s:4045   .text:0000000000001270 .LEHB41
     /tmp/ccqYKUbi.s:4048   .text:0000000000001278 .LEHE41
     /tmp/ccqYKUbi.s:4057   .text:000000000000128c .LEHB42
     /tmp/ccqYKUbi.s:4060   .text:0000000000001294 .LEHE42
     /tmp/ccqYKUbi.s:4068   .text:00000000000012a8 .LEHB43
     /tmp/ccqYKUbi.s:4071   .text:00000000000012b0 .LEHE43
     /tmp/ccqYKUbi.s:4081   .text:00000000000012c4 .LEHB44
     /tmp/ccqYKUbi.s:4084   .text:00000000000012cc .LEHE44
     /tmp/ccqYKUbi.s:10082  .debug_abbrev:0000000000000000 .Ldebug_abbrev0
     /tmp/ccqYKUbi.s:13684  .debug_str:0000000000000d7d .LASF220
     /tmp/ccqYKUbi.s:13638  .debug_str:0000000000000bdf .LASF221
     /tmp/ccqYKUbi.s:13354  .debug_str:000000000000013c .LASF222
     /tmp/ccqYKUbi.s:13194  .debug_ranges:0000000000000000 .Ldebug_ranges0
     /tmp/ccqYKUbi.s:13314  .debug_line:0000000000000000 .Ldebug_line0
     /tmp/ccqYKUbi.s:13460  .debug_str:000000000000053f .LASF0
     /tmp/ccqYKUbi.s:13490  .debug_str:0000000000000675 .LASF1
     /tmp/ccqYKUbi.s:13614  .debug_str:0000000000000b2d .LASF2
     /tmp/ccqYKUbi.s:13414  .debug_str:00000000000003a9 .LASF3
     /tmp/ccqYKUbi.s:13624  .debug_str:0000000000000b8f .LASF4
     /tmp/ccqYKUbi.s:13472  .debug_str:00000000000005b7 .LASF5
     /tmp/ccqYKUbi.s:13330  .debug_str:0000000000000063 .LASF6
     /tmp/ccqYKUbi.s:13586  .debug_str:0000000000000a36 .LASF7
     /tmp/ccqYKUbi.s:13572  .debug_str:00000000000009d8 .LASF8
     /tmp/ccqYKUbi.s:13482  .debug_str:0000000000000623 .LASF9
     /tmp/ccqYKUbi.s:13436  .debug_str:000000000000045b .LASF10
     /tmp/ccqYKUbi.s:13444  .debug_str:00000000000004bc .LASF11
GAS LISTING /tmp/ccqYKUbi.s 			page 131


     /tmp/ccqYKUbi.s:13370  .debug_str:0000000000000201 .LASF12
     /tmp/ccqYKUbi.s:13426  .debug_str:0000000000000405 .LASF13
     /tmp/ccqYKUbi.s:13388  .debug_str:00000000000002c3 .LASF14
     /tmp/ccqYKUbi.s:13368  .debug_str:00000000000001f1 .LASF15
     /tmp/ccqYKUbi.s:13668  .debug_str:0000000000000d0e .LASF16
     /tmp/ccqYKUbi.s:13408  .debug_str:0000000000000369 .LASF17
     /tmp/ccqYKUbi.s:13650  .debug_str:0000000000000c4e .LASF18
     /tmp/ccqYKUbi.s:13350  .debug_str:000000000000010e .LASF19
     /tmp/ccqYKUbi.s:13538  .debug_str:00000000000008c1 .LASF20
     /tmp/ccqYKUbi.s:13480  .debug_str:0000000000000611 .LASF21
     /tmp/ccqYKUbi.s:13322  .debug_str:000000000000002c .LASF24
     /tmp/ccqYKUbi.s:13688  .debug_str:0000000000000e5b .LASF26
     /tmp/ccqYKUbi.s:13734  .debug_str:000000000000105d .LASF22
     /tmp/ccqYKUbi.s:13512  .debug_str:00000000000007a4 .LASF23
     /tmp/ccqYKUbi.s:13466  .debug_str:000000000000056d .LASF212
     /tmp/ccqYKUbi.s:13394  .debug_str:00000000000002ec .LASF223
     /tmp/ccqYKUbi.s:13516  .debug_str:00000000000007b9 .LASF25
     /tmp/ccqYKUbi.s:13402  .debug_str:0000000000000338 .LASF27
     /tmp/ccqYKUbi.s:13676  .debug_str:0000000000000d51 .LASF28
     /tmp/ccqYKUbi.s:13622  .debug_str:0000000000000b85 .LASF29
     /tmp/ccqYKUbi.s:13508  .debug_str:0000000000000783 .LASF30
     /tmp/ccqYKUbi.s:13540  .debug_str:00000000000008d1 .LASF31
     /tmp/ccqYKUbi.s:13626  .debug_str:0000000000000b96 .LASF32
     /tmp/ccqYKUbi.s:13628  .debug_str:0000000000000ba0 .LASF33
     /tmp/ccqYKUbi.s:13704  .debug_str:0000000000000ef0 .LASF34
     /tmp/ccqYKUbi.s:13692  .debug_str:0000000000000e9d .LASF35
     /tmp/ccqYKUbi.s:13658  .debug_str:0000000000000cad .LASF36
     /tmp/ccqYKUbi.s:13544  .debug_str:00000000000008f7 .LASF37
     /tmp/ccqYKUbi.s:13708  .debug_str:0000000000000f3a .LASF38
     /tmp/ccqYKUbi.s:13518  .debug_str:00000000000007be .LASF39
     /tmp/ccqYKUbi.s:13320  .debug_str:0000000000000022 .LASF40
     /tmp/ccqYKUbi.s:13534  .debug_str:0000000000000877 .LASF41
     /tmp/ccqYKUbi.s:13478  .debug_str:00000000000005ff .LASF43
     /tmp/ccqYKUbi.s:13574  .debug_str:00000000000009eb .LASF42
     /tmp/ccqYKUbi.s:13776  .debug_str:00000000000011b2 .LASF44
     /tmp/ccqYKUbi.s:13662  .debug_str:0000000000000cdc .LASF224
     /tmp/ccqYKUbi.s:13432  .debug_str:0000000000000439 .LASF225
     /tmp/ccqYKUbi.s:13604  .debug_str:0000000000000aeb .LASF45
     /tmp/ccqYKUbi.s:13608  .debug_str:0000000000000afb .LASF46
     /tmp/ccqYKUbi.s:13720  .debug_str:0000000000000fc7 .LASF78
     /tmp/ccqYKUbi.s:13374  .debug_str:000000000000021c .LASF47
     /tmp/ccqYKUbi.s:13400  .debug_str:0000000000000333 .LASF49
     /tmp/ccqYKUbi.s:13700  .debug_str:0000000000000ec7 .LASF48
     /tmp/ccqYKUbi.s:13672  .debug_str:0000000000000d40 .LASF50
     /tmp/ccqYKUbi.s:13524  .debug_str:000000000000080e .LASF51
     /tmp/ccqYKUbi.s:13372  .debug_str:0000000000000210 .LASF54
     /tmp/ccqYKUbi.s:13602  .debug_str:0000000000000ae1 .LASF52
     /tmp/ccqYKUbi.s:13648  .debug_str:0000000000000c45 .LASF53
     /tmp/ccqYKUbi.s:13566  .debug_str:00000000000009a2 .LASF226
     /tmp/ccqYKUbi.s:13646  .debug_str:0000000000000c1f .LASF55
     /tmp/ccqYKUbi.s:13410  .debug_str:000000000000037f .LASF56
     /tmp/ccqYKUbi.s:13418  .debug_str:00000000000003c0 .LASF57
     /tmp/ccqYKUbi.s:13488  .debug_str:000000000000064c .LASF58
     /tmp/ccqYKUbi.s:13346  .debug_str:00000000000000d4 .LASF59
     /tmp/ccqYKUbi.s:13778  .debug_str:00000000000011c4 .LASF60
     /tmp/ccqYKUbi.s:13506  .debug_str:000000000000075b .LASF66
     /tmp/ccqYKUbi.s:13452  .debug_str:0000000000000507 .LASF61
GAS LISTING /tmp/ccqYKUbi.s 			page 132


     /tmp/ccqYKUbi.s:13378  .debug_str:0000000000000244 .LASF69
     /tmp/ccqYKUbi.s:13356  .debug_str:000000000000016d .LASF62
     /tmp/ccqYKUbi.s:13716  .debug_str:0000000000000f80 .LASF63
     /tmp/ccqYKUbi.s:13660  .debug_str:0000000000000cb2 .LASF64
     /tmp/ccqYKUbi.s:13492  .debug_str:0000000000000688 .LASF65
     /tmp/ccqYKUbi.s:13504  .debug_str:0000000000000733 .LASF67
     /tmp/ccqYKUbi.s:13326  .debug_str:000000000000004f .LASF68
     /tmp/ccqYKUbi.s:13754  .debug_str:0000000000001110 .LASF70
     /tmp/ccqYKUbi.s:13416  .debug_str:00000000000003af .LASF71
     /tmp/ccqYKUbi.s:13494  .debug_str:00000000000006bf .LASF72
     /tmp/ccqYKUbi.s:13468  .debug_str:0000000000000572 .LASF73
     /tmp/ccqYKUbi.s:13536  .debug_str:0000000000000881 .LASF74
     /tmp/ccqYKUbi.s:13690  .debug_str:0000000000000e6c .LASF75
     /tmp/ccqYKUbi.s:13462  .debug_str:000000000000054c .LASF76
     /tmp/ccqYKUbi.s:13440  .debug_str:0000000000000475 .LASF77
     /tmp/ccqYKUbi.s:13784  .debug_str:000000000000120c .LASF227
     /tmp/ccqYKUbi.s:13722  .debug_str:0000000000000fd1 .LASF228
     /tmp/ccqYKUbi.s:13446  .debug_str:00000000000004ca .LASF79
     /tmp/ccqYKUbi.s:13324  .debug_str:000000000000003c .LASF80
     /tmp/ccqYKUbi.s:13764  .debug_str:000000000000117b .LASF81
     /tmp/ccqYKUbi.s:13760  .debug_str:0000000000001152 .LASF82
     /tmp/ccqYKUbi.s:13398  .debug_str:000000000000032a .LASF83
     /tmp/ccqYKUbi.s:13550  .debug_str:000000000000091a .LASF84
     /tmp/ccqYKUbi.s:13652  .debug_str:0000000000000c64 .LASF85
     /tmp/ccqYKUbi.s:13526  .debug_str:0000000000000819 .LASF86
     /tmp/ccqYKUbi.s:13428  .debug_str:0000000000000414 .LASF87
     /tmp/ccqYKUbi.s:13740  .debug_str:000000000000108e .LASF88
     /tmp/ccqYKUbi.s:13726  .debug_str:0000000000001011 .LASF89
     /tmp/ccqYKUbi.s:13738  .debug_str:0000000000001070 .LASF90
     /tmp/ccqYKUbi.s:13420  .debug_str:00000000000003c9 .LASF91
     /tmp/ccqYKUbi.s:13380  .debug_str:000000000000026a .LASF92
     /tmp/ccqYKUbi.s:13552  .debug_str:000000000000092d .LASF93
     /tmp/ccqYKUbi.s:13644  .debug_str:0000000000000c0b .LASF94
     /tmp/ccqYKUbi.s:13600  .debug_str:0000000000000ad8 .LASF95
     /tmp/ccqYKUbi.s:13620  .debug_str:0000000000000b6c .LASF96
     /tmp/ccqYKUbi.s:13718  .debug_str:0000000000000fa9 .LASF97
     /tmp/ccqYKUbi.s:13618  .debug_str:0000000000000b59 .LASF98
     /tmp/ccqYKUbi.s:13430  .debug_str:0000000000000428 .LASF99
     /tmp/ccqYKUbi.s:13556  .debug_str:0000000000000952 .LASF100
     /tmp/ccqYKUbi.s:13596  .debug_str:0000000000000aab .LASF101
     /tmp/ccqYKUbi.s:13590  .debug_str:0000000000000a5b .LASF102
     /tmp/ccqYKUbi.s:13484  .debug_str:0000000000000636 .LASF103
     /tmp/ccqYKUbi.s:13396  .debug_str:00000000000002ff .LASF104
     /tmp/ccqYKUbi.s:13364  .debug_str:00000000000001ba .LASF105
     /tmp/ccqYKUbi.s:13510  .debug_str:0000000000000788 .LASF106
     /tmp/ccqYKUbi.s:13612  .debug_str:0000000000000b1b .LASF107
     /tmp/ccqYKUbi.s:13686  .debug_str:0000000000000e41 .LASF108
     /tmp/ccqYKUbi.s:13772  .debug_str:0000000000001199 .LASF109
     /tmp/ccqYKUbi.s:13570  .debug_str:00000000000009c6 .LASF110
     /tmp/ccqYKUbi.s:13338  .debug_str:000000000000008f .LASF111
     /tmp/ccqYKUbi.s:13582  .debug_str:0000000000000a1a .LASF112
     /tmp/ccqYKUbi.s:13750  .debug_str:00000000000010ea .LASF113
     /tmp/ccqYKUbi.s:13344  .debug_str:00000000000000c4 .LASF114
     /tmp/ccqYKUbi.s:13496  .debug_str:00000000000006f1 .LASF115
     /tmp/ccqYKUbi.s:13742  .debug_str:0000000000001097 .LASF116
     /tmp/ccqYKUbi.s:13758  .debug_str:0000000000001142 .LASF117
     /tmp/ccqYKUbi.s:13770  .debug_str:0000000000001191 .LASF118
GAS LISTING /tmp/ccqYKUbi.s 			page 133


     /tmp/ccqYKUbi.s:13342  .debug_str:00000000000000b2 .LASF119
     /tmp/ccqYKUbi.s:13560  .debug_str:000000000000097d .LASF120
     /tmp/ccqYKUbi.s:13580  .debug_str:0000000000000a0e .LASF121
     /tmp/ccqYKUbi.s:13474  .debug_str:00000000000005c9 .LASF122
     /tmp/ccqYKUbi.s:13502  .debug_str:0000000000000723 .LASF123
     /tmp/ccqYKUbi.s:13702  .debug_str:0000000000000ede .LASF124
     /tmp/ccqYKUbi.s:13610  .debug_str:0000000000000b12 .LASF125
     /tmp/ccqYKUbi.s:13456  .debug_str:0000000000000522 .LASF126
     /tmp/ccqYKUbi.s:13768  .debug_str:0000000000001189 .LASF127
     /tmp/ccqYKUbi.s:13554  .debug_str:0000000000000940 .LASF128
     /tmp/ccqYKUbi.s:13710  .debug_str:0000000000000f49 .LASF129
     /tmp/ccqYKUbi.s:13578  .debug_str:0000000000000a02 .LASF130
     /tmp/ccqYKUbi.s:13542  .debug_str:00000000000008db .LASF131
     /tmp/ccqYKUbi.s:13694  .debug_str:0000000000000ea4 .LASF132
     /tmp/ccqYKUbi.s:13470  .debug_str:00000000000005a5 .LASF133
     /tmp/ccqYKUbi.s:13390  .debug_str:00000000000002d3 .LASF134
     /tmp/ccqYKUbi.s:13640  .debug_str:0000000000000bf2 .LASF135
     /tmp/ccqYKUbi.s:13766  .debug_str:0000000000001181 .LASF136
     /tmp/ccqYKUbi.s:13316  .debug_str:0000000000000000 .LASF137
     /tmp/ccqYKUbi.s:13376  .debug_str:0000000000000231 .LASF138
     /tmp/ccqYKUbi.s:13576  .debug_str:00000000000009f6 .LASF139
     /tmp/ccqYKUbi.s:13744  .debug_str:00000000000010a0 .LASF140
     /tmp/ccqYKUbi.s:13732  .debug_str:000000000000104d .LASF141
     /tmp/ccqYKUbi.s:13714  .debug_str:0000000000000f6e .LASF142
     /tmp/ccqYKUbi.s:13606  .debug_str:0000000000000af2 .LASF143
     /tmp/ccqYKUbi.s:13348  .debug_str:00000000000000fe .LASF144
     /tmp/ccqYKUbi.s:13358  .debug_str:0000000000000176 .LASF145
     /tmp/ccqYKUbi.s:13328  .debug_str:0000000000000059 .LASF146
     /tmp/ccqYKUbi.s:13682  .debug_str:0000000000000d6d .LASF147
     /tmp/ccqYKUbi.s:49     .text._ZN7WorkerAD0Ev:0000000000000000 .LFB107
     /tmp/ccqYKUbi.s:89     .text._ZN7WorkerAD0Ev:000000000000004c .LFE107
     /tmp/ccqYKUbi.s:11263  .debug_loc:0000000000000000 .LLST1
     /tmp/ccqYKUbi.s:65     .text._ZN7WorkerAD0Ev:0000000000000018 .LBB71
     /tmp/ccqYKUbi.s:73     .text._ZN7WorkerAD0Ev:000000000000002c .LBE71
     /tmp/ccqYKUbi.s:11281  .debug_loc:000000000000004c .LLST2
     /tmp/ccqYKUbi.s:71     .text._ZN7WorkerAD0Ev:000000000000002c .LVL4
     /tmp/ccqYKUbi.s:76     .text._ZN7WorkerAD0Ev:0000000000000038 .LVL5
     /tmp/ccqYKUbi.s:13500  .debug_str:0000000000000713 .LASF148
     /tmp/ccqYKUbi.s:11     .text._ZN7WorkerAD2Ev:0000000000000000 .LFB105
     /tmp/ccqYKUbi.s:40     .text._ZN7WorkerAD2Ev:0000000000000034 .LFE105
     /tmp/ccqYKUbi.s:11292  .debug_loc:0000000000000082 .LLST0
     /tmp/ccqYKUbi.s:29     .text._ZN7WorkerAD2Ev:0000000000000024 .LVL1
     /tmp/ccqYKUbi.s:13664  .debug_str:0000000000000cf0 .LASF149
     /tmp/ccqYKUbi.s:133    .text._ZN7WorkerBD0Ev:0000000000000000 .LFB103
     /tmp/ccqYKUbi.s:173    .text._ZN7WorkerBD0Ev:000000000000004c .LFE103
     /tmp/ccqYKUbi.s:11306  .debug_loc:00000000000000bb .LLST4
     /tmp/ccqYKUbi.s:149    .text._ZN7WorkerBD0Ev:0000000000000018 .LBB74
     /tmp/ccqYKUbi.s:157    .text._ZN7WorkerBD0Ev:000000000000002c .LBE74
     /tmp/ccqYKUbi.s:11324  .debug_loc:0000000000000107 .LLST5
     /tmp/ccqYKUbi.s:155    .text._ZN7WorkerBD0Ev:000000000000002c .LVL11
     /tmp/ccqYKUbi.s:160    .text._ZN7WorkerBD0Ev:0000000000000038 .LVL12
     /tmp/ccqYKUbi.s:13340  .debug_str:00000000000000a2 .LASF150
     /tmp/ccqYKUbi.s:96     .text._ZN7WorkerBD2Ev:0000000000000000 .LFB101
     /tmp/ccqYKUbi.s:124    .text._ZN7WorkerBD2Ev:0000000000000034 .LFE101
     /tmp/ccqYKUbi.s:11335  .debug_loc:000000000000013d .LLST3
     /tmp/ccqYKUbi.s:113    .text._ZN7WorkerBD2Ev:0000000000000024 .LVL8
     /tmp/ccqYKUbi.s:13334  .debug_str:0000000000000076 .LASF151
GAS LISTING /tmp/ccqYKUbi.s 			page 134


     /tmp/ccqYKUbi.s:217    .text._ZN7WorkerCD0Ev:0000000000000000 .LFB99
     /tmp/ccqYKUbi.s:257    .text._ZN7WorkerCD0Ev:000000000000004c .LFE99
     /tmp/ccqYKUbi.s:11349  .debug_loc:0000000000000176 .LLST7
     /tmp/ccqYKUbi.s:233    .text._ZN7WorkerCD0Ev:0000000000000018 .LBB77
     /tmp/ccqYKUbi.s:241    .text._ZN7WorkerCD0Ev:000000000000002c .LBE77
     /tmp/ccqYKUbi.s:11367  .debug_loc:00000000000001c2 .LLST8
     /tmp/ccqYKUbi.s:239    .text._ZN7WorkerCD0Ev:000000000000002c .LVL18
     /tmp/ccqYKUbi.s:244    .text._ZN7WorkerCD0Ev:0000000000000038 .LVL19
     /tmp/ccqYKUbi.s:13636  .debug_str:0000000000000bcf .LASF152
     /tmp/ccqYKUbi.s:180    .text._ZN7WorkerCD2Ev:0000000000000000 .LFB97
     /tmp/ccqYKUbi.s:208    .text._ZN7WorkerCD2Ev:0000000000000034 .LFE97
     /tmp/ccqYKUbi.s:11378  .debug_loc:00000000000001f8 .LLST6
     /tmp/ccqYKUbi.s:197    .text._ZN7WorkerCD2Ev:0000000000000024 .LVL15
     /tmp/ccqYKUbi.s:13630  .debug_str:0000000000000baa .LASF153
     /tmp/ccqYKUbi.s:301    .text._ZN7WorkerDD0Ev:0000000000000000 .LFB95
     /tmp/ccqYKUbi.s:341    .text._ZN7WorkerDD0Ev:000000000000004c .LFE95
     /tmp/ccqYKUbi.s:11392  .debug_loc:0000000000000231 .LLST10
     /tmp/ccqYKUbi.s:317    .text._ZN7WorkerDD0Ev:0000000000000018 .LBB80
     /tmp/ccqYKUbi.s:325    .text._ZN7WorkerDD0Ev:000000000000002c .LBE80
     /tmp/ccqYKUbi.s:11410  .debug_loc:000000000000027d .LLST11
     /tmp/ccqYKUbi.s:323    .text._ZN7WorkerDD0Ev:000000000000002c .LVL25
     /tmp/ccqYKUbi.s:328    .text._ZN7WorkerDD0Ev:0000000000000038 .LVL26
     /tmp/ccqYKUbi.s:13450  .debug_str:00000000000004f7 .LASF154
     /tmp/ccqYKUbi.s:264    .text._ZN7WorkerDD2Ev:0000000000000000 .LFB93
     /tmp/ccqYKUbi.s:292    .text._ZN7WorkerDD2Ev:0000000000000034 .LFE93
     /tmp/ccqYKUbi.s:11421  .debug_loc:00000000000002b3 .LLST9
     /tmp/ccqYKUbi.s:281    .text._ZN7WorkerDD2Ev:0000000000000024 .LVL22
     /tmp/ccqYKUbi.s:13558  .debug_str:0000000000000963 .LASF155
     /tmp/ccqYKUbi.s:554    .text._ZN16ProducerKeyboardD0Ev:0000000000000000 .LFB91
     /tmp/ccqYKUbi.s:594    .text._ZN16ProducerKeyboardD0Ev:000000000000004c .LFE91
     /tmp/ccqYKUbi.s:11435  .debug_loc:00000000000002ec .LLST19
     /tmp/ccqYKUbi.s:570    .text._ZN16ProducerKeyboardD0Ev:0000000000000018 .LBB89
     /tmp/ccqYKUbi.s:578    .text._ZN16ProducerKeyboardD0Ev:000000000000002c .LBE89
     /tmp/ccqYKUbi.s:11453  .debug_loc:0000000000000338 .LLST20
     /tmp/ccqYKUbi.s:576    .text._ZN16ProducerKeyboardD0Ev:000000000000002c .LVL46
     /tmp/ccqYKUbi.s:581    .text._ZN16ProducerKeyboardD0Ev:0000000000000038 .LVL47
     /tmp/ccqYKUbi.s:13728  .debug_str:000000000000102a .LASF156
     /tmp/ccqYKUbi.s:517    .text._ZN16ProducerKeyboardD2Ev:0000000000000000 .LFB89
     /tmp/ccqYKUbi.s:545    .text._ZN16ProducerKeyboardD2Ev:0000000000000034 .LFE89
     /tmp/ccqYKUbi.s:11464  .debug_loc:000000000000036e .LLST18
     /tmp/ccqYKUbi.s:534    .text._ZN16ProducerKeyboardD2Ev:0000000000000024 .LVL43
     /tmp/ccqYKUbi.s:13774  .debug_str:00000000000011a1 .LASF157
     /tmp/ccqYKUbi.s:470    .text._ZN8ProducerD0Ev:0000000000000000 .LFB87
     /tmp/ccqYKUbi.s:510    .text._ZN8ProducerD0Ev:000000000000004c .LFE87
     /tmp/ccqYKUbi.s:11478  .debug_loc:00000000000003a7 .LLST16
     /tmp/ccqYKUbi.s:486    .text._ZN8ProducerD0Ev:0000000000000018 .LBB86
     /tmp/ccqYKUbi.s:494    .text._ZN8ProducerD0Ev:000000000000002c .LBE86
     /tmp/ccqYKUbi.s:11496  .debug_loc:00000000000003f3 .LLST17
     /tmp/ccqYKUbi.s:492    .text._ZN8ProducerD0Ev:000000000000002c .LVL39
     /tmp/ccqYKUbi.s:497    .text._ZN8ProducerD0Ev:0000000000000038 .LVL40
     /tmp/ccqYKUbi.s:13598  .debug_str:0000000000000ac7 .LASF158
     /tmp/ccqYKUbi.s:433    .text._ZN8ProducerD2Ev:0000000000000000 .LFB85
     /tmp/ccqYKUbi.s:461    .text._ZN8ProducerD2Ev:0000000000000034 .LFE85
     /tmp/ccqYKUbi.s:11507  .debug_loc:0000000000000429 .LLST15
     /tmp/ccqYKUbi.s:450    .text._ZN8ProducerD2Ev:0000000000000024 .LVL36
     /tmp/ccqYKUbi.s:13454  .debug_str:0000000000000511 .LASF159
     /tmp/ccqYKUbi.s:386    .text._ZN8ConsumerD0Ev:0000000000000000 .LFB83
GAS LISTING /tmp/ccqYKUbi.s 			page 135


     /tmp/ccqYKUbi.s:426    .text._ZN8ConsumerD0Ev:000000000000004c .LFE83
     /tmp/ccqYKUbi.s:11521  .debug_loc:0000000000000462 .LLST13
     /tmp/ccqYKUbi.s:402    .text._ZN8ConsumerD0Ev:0000000000000018 .LBB83
     /tmp/ccqYKUbi.s:410    .text._ZN8ConsumerD0Ev:000000000000002c .LBE83
     /tmp/ccqYKUbi.s:11539  .debug_loc:00000000000004ae .LLST14
     /tmp/ccqYKUbi.s:408    .text._ZN8ConsumerD0Ev:000000000000002c .LVL32
     /tmp/ccqYKUbi.s:413    .text._ZN8ConsumerD0Ev:0000000000000038 .LVL33
     /tmp/ccqYKUbi.s:13546  .debug_str:00000000000008fc .LASF160
     /tmp/ccqYKUbi.s:348    .text._ZN8ConsumerD2Ev:0000000000000000 .LFB81
     /tmp/ccqYKUbi.s:377    .text._ZN8ConsumerD2Ev:0000000000000034 .LFE81
     /tmp/ccqYKUbi.s:11550  .debug_loc:00000000000004e4 .LLST12
     /tmp/ccqYKUbi.s:366    .text._ZN8ConsumerD2Ev:0000000000000024 .LVL29
     /tmp/ccqYKUbi.s:13786  .debug_str:0000000000001221 .LASF161
     /tmp/ccqYKUbi.s:723    .text._ZN19ConsumerProducerCPP16ProducerKeyboradD0Ev:0000000000000000 .LFB79
     /tmp/ccqYKUbi.s:763    .text._ZN19ConsumerProducerCPP16ProducerKeyboradD0Ev:000000000000004c .LFE79
     /tmp/ccqYKUbi.s:11564  .debug_loc:000000000000051d .LLST25
     /tmp/ccqYKUbi.s:739    .text._ZN19ConsumerProducerCPP16ProducerKeyboradD0Ev:0000000000000018 .LBB95
     /tmp/ccqYKUbi.s:747    .text._ZN19ConsumerProducerCPP16ProducerKeyboradD0Ev:000000000000002c .LBE95
     /tmp/ccqYKUbi.s:11582  .debug_loc:0000000000000569 .LLST26
     /tmp/ccqYKUbi.s:745    .text._ZN19ConsumerProducerCPP16ProducerKeyboradD0Ev:000000000000002c .LVL60
     /tmp/ccqYKUbi.s:750    .text._ZN19ConsumerProducerCPP16ProducerKeyboradD0Ev:0000000000000038 .LVL61
     /tmp/ccqYKUbi.s:13360  .debug_str:000000000000017b .LASF162
     /tmp/ccqYKUbi.s:686    .text._ZN19ConsumerProducerCPP16ProducerKeyboradD2Ev:0000000000000000 .LFB77
     /tmp/ccqYKUbi.s:714    .text._ZN19ConsumerProducerCPP16ProducerKeyboradD2Ev:0000000000000034 .LFE77
     /tmp/ccqYKUbi.s:11593  .debug_loc:000000000000059f .LLST24
     /tmp/ccqYKUbi.s:703    .text._ZN19ConsumerProducerCPP16ProducerKeyboradD2Ev:0000000000000024 .LVL57
     /tmp/ccqYKUbi.s:13352  .debug_str:0000000000000116 .LASF163
     /tmp/ccqYKUbi.s:807    .text._ZN19ConsumerProducerCPP8ProducerD0Ev:0000000000000000 .LFB75
     /tmp/ccqYKUbi.s:847    .text._ZN19ConsumerProducerCPP8ProducerD0Ev:000000000000004c .LFE75
     /tmp/ccqYKUbi.s:11607  .debug_loc:00000000000005d8 .LLST28
     /tmp/ccqYKUbi.s:823    .text._ZN19ConsumerProducerCPP8ProducerD0Ev:0000000000000018 .LBB98
     /tmp/ccqYKUbi.s:831    .text._ZN19ConsumerProducerCPP8ProducerD0Ev:000000000000002c .LBE98
     /tmp/ccqYKUbi.s:11625  .debug_loc:0000000000000624 .LLST29
     /tmp/ccqYKUbi.s:829    .text._ZN19ConsumerProducerCPP8ProducerD0Ev:000000000000002c .LVL67
     /tmp/ccqYKUbi.s:834    .text._ZN19ConsumerProducerCPP8ProducerD0Ev:0000000000000038 .LVL68
     /tmp/ccqYKUbi.s:13448  .debug_str:00000000000004d1 .LASF164
     /tmp/ccqYKUbi.s:770    .text._ZN19ConsumerProducerCPP8ProducerD2Ev:0000000000000000 .LFB73
     /tmp/ccqYKUbi.s:798    .text._ZN19ConsumerProducerCPP8ProducerD2Ev:0000000000000034 .LFE73
     /tmp/ccqYKUbi.s:11636  .debug_loc:000000000000065a .LLST27
     /tmp/ccqYKUbi.s:787    .text._ZN19ConsumerProducerCPP8ProducerD2Ev:0000000000000024 .LVL64
     /tmp/ccqYKUbi.s:13670  .debug_str:0000000000000d1a .LASF165
     /tmp/ccqYKUbi.s:639    .text._ZN19ConsumerProducerCPP8ConsumerD0Ev:0000000000000000 .LFB71
     /tmp/ccqYKUbi.s:679    .text._ZN19ConsumerProducerCPP8ConsumerD0Ev:000000000000004c .LFE71
     /tmp/ccqYKUbi.s:11650  .debug_loc:0000000000000693 .LLST22
     /tmp/ccqYKUbi.s:655    .text._ZN19ConsumerProducerCPP8ConsumerD0Ev:0000000000000018 .LBB92
     /tmp/ccqYKUbi.s:663    .text._ZN19ConsumerProducerCPP8ConsumerD0Ev:000000000000002c .LBE92
     /tmp/ccqYKUbi.s:11668  .debug_loc:00000000000006df .LLST23
     /tmp/ccqYKUbi.s:661    .text._ZN19ConsumerProducerCPP8ConsumerD0Ev:000000000000002c .LVL53
     /tmp/ccqYKUbi.s:666    .text._ZN19ConsumerProducerCPP8ConsumerD0Ev:0000000000000038 .LVL54
     /tmp/ccqYKUbi.s:13384  .debug_str:000000000000028e .LASF166
     /tmp/ccqYKUbi.s:601    .text._ZN19ConsumerProducerCPP8ConsumerD2Ev:0000000000000000 .LFB69
     /tmp/ccqYKUbi.s:630    .text._ZN19ConsumerProducerCPP8ConsumerD2Ev:0000000000000034 .LFE69
     /tmp/ccqYKUbi.s:11679  .debug_loc:0000000000000715 .LLST21
     /tmp/ccqYKUbi.s:619    .text._ZN19ConsumerProducerCPP8ConsumerD2Ev:0000000000000024 .LVL50
     /tmp/ccqYKUbi.s:13642  .debug_str:0000000000000c02 .LASF229
     /tmp/ccqYKUbi.s:13458  .debug_str:0000000000000532 .LASF230
     /tmp/ccqYKUbi.s:4164   .text:00000000000012cc .LFB67
GAS LISTING /tmp/ccqYKUbi.s 			page 136


     /tmp/ccqYKUbi.s:4182   .text:00000000000012e4 .LFE67
     /tmp/ccqYKUbi.s:4087   .text:00000000000012cc .LFE66
     /tmp/ccqYKUbi.s:13412  .debug_str:00000000000003a3 .LASF167
     /tmp/ccqYKUbi.s:11693  .debug_loc:000000000000074e .LLST114
     /tmp/ccqYKUbi.s:13752  .debug_str:0000000000001106 .LASF168
     /tmp/ccqYKUbi.s:11704  .debug_loc:0000000000000784 .LLST115
     /tmp/ccqYKUbi.s:11715  .debug_loc:00000000000007ba .LLST116
     /tmp/ccqYKUbi.s:13404  .debug_str:000000000000034b .LASF169
     /tmp/ccqYKUbi.s:11726  .debug_loc:00000000000007f0 .LLST117
     /tmp/ccqYKUbi.s:13520  .debug_str:00000000000007cc .LASF170
     /tmp/ccqYKUbi.s:11744  .debug_loc:000000000000083c .LLST118
     /tmp/ccqYKUbi.s:11757  .debug_loc:0000000000000874 .LLST119
     /tmp/ccqYKUbi.s:11768  .debug_loc:00000000000008aa .LLST124
     /tmp/ccqYKUbi.s:3845   .text:00000000000010f4 .LBB150
     /tmp/ccqYKUbi.s:11779  .debug_loc:00000000000008e0 .LLST125
     /tmp/ccqYKUbi.s:11810  .debug_loc:0000000000000948 .LLST126
     /tmp/ccqYKUbi.s:3896   .text:0000000000001160 .LVL428
     /tmp/ccqYKUbi.s:3862   .text:000000000000111c .LVL424
     /tmp/ccqYKUbi.s:3887   .text:0000000000001154 .LVL426
     /tmp/ccqYKUbi.s:4079   .text:00000000000012c0 .LVL457
     /tmp/ccqYKUbi.s:11829  .debug_loc:00000000000009a4 .LLST127
     /tmp/ccqYKUbi.s:3920   .text:0000000000001184 .LVL432
     /tmp/ccqYKUbi.s:3947   .text:00000000000011ac .LBB156
     /tmp/ccqYKUbi.s:3968   .text:00000000000011d4 .LBE156
     /tmp/ccqYKUbi.s:11840  .debug_loc:00000000000009da .LLST128
     /tmp/ccqYKUbi.s:11847  .debug_loc:00000000000009fd .LLST111
     /tmp/ccqYKUbi.s:11878  .debug_loc:0000000000000a47 .LLST113
     /tmp/ccqYKUbi.s:3781   .text:000000000000107c .LBB145
     /tmp/ccqYKUbi.s:3793   .text:0000000000001094 .LBE145
     /tmp/ccqYKUbi.s:11909  .debug_loc:0000000000000a91 .LLST120
     /tmp/ccqYKUbi.s:11936  .debug_loc:0000000000000ae6 .LLST121
     /tmp/ccqYKUbi.s:3785   .text:0000000000001084 .LVL414
     /tmp/ccqYKUbi.s:3819   .text:00000000000010c4 .LBB147
     /tmp/ccqYKUbi.s:3830   .text:00000000000010dc .LBE147
     /tmp/ccqYKUbi.s:11951  .debug_loc:0000000000000b2f .LLST122
     /tmp/ccqYKUbi.s:11962  .debug_loc:0000000000000b65 .LLST123
     /tmp/ccqYKUbi.s:3823   .text:00000000000010cc .LVL419
     /tmp/ccqYKUbi.s:3618   .text:0000000000000ef0 .LVL386
     /tmp/ccqYKUbi.s:3625   .text:0000000000000f04 .LVL387
     /tmp/ccqYKUbi.s:3630   .text:0000000000000f10 .LVL388
     /tmp/ccqYKUbi.s:3637   .text:0000000000000f24 .LVL390
     /tmp/ccqYKUbi.s:3643   .text:0000000000000f34 .LVL391
     /tmp/ccqYKUbi.s:3648   .text:0000000000000f40 .LVL392
     /tmp/ccqYKUbi.s:3655   .text:0000000000000f54 .LVL394
     /tmp/ccqYKUbi.s:3662   .text:0000000000000f68 .LVL395
     /tmp/ccqYKUbi.s:3667   .text:0000000000000f78 .LVL396
     /tmp/ccqYKUbi.s:3674   .text:0000000000000f8c .LVL397
     /tmp/ccqYKUbi.s:3679   .text:0000000000000f9c .LVL398
     /tmp/ccqYKUbi.s:3688   .text:0000000000000fb0 .LVL399
     /tmp/ccqYKUbi.s:3694   .text:0000000000000fc0 .LVL400
     /tmp/ccqYKUbi.s:3703   .text:0000000000000fd4 .LVL401
     /tmp/ccqYKUbi.s:3711   .text:0000000000000fe8 .LVL402
     /tmp/ccqYKUbi.s:3722   .text:0000000000000ffc .LVL404
     /tmp/ccqYKUbi.s:3729   .text:000000000000100c .LVL406
     /tmp/ccqYKUbi.s:3776   .text:0000000000001078 .LVL412
     /tmp/ccqYKUbi.s:3799   .text:00000000000010a0 .LVL416
     /tmp/ccqYKUbi.s:3814   .text:00000000000010c0 .LVL417
GAS LISTING /tmp/ccqYKUbi.s 			page 137


     /tmp/ccqYKUbi.s:3838   .text:00000000000010ec .LVL421
     /tmp/ccqYKUbi.s:3908   .text:000000000000116c .LVL430
     /tmp/ccqYKUbi.s:3977   .text:00000000000011e8 .LVL440
     /tmp/ccqYKUbi.s:3985   .text:00000000000011f8 .LVL441
     /tmp/ccqYKUbi.s:3988   .text:0000000000001204 .LVL442
     /tmp/ccqYKUbi.s:4032   .text:0000000000001250 .LVL447
     /tmp/ccqYKUbi.s:4036   .text:000000000000125c .LVL448
     /tmp/ccqYKUbi.s:4043   .text:000000000000126c .LVL449
     /tmp/ccqYKUbi.s:4047   .text:0000000000001278 .LVL450
     /tmp/ccqYKUbi.s:4055   .text:0000000000001288 .LVL452
     /tmp/ccqYKUbi.s:4059   .text:0000000000001294 .LVL453
     /tmp/ccqYKUbi.s:4066   .text:00000000000012a4 .LVL454
     /tmp/ccqYKUbi.s:4070   .text:00000000000012b0 .LVL455
     /tmp/ccqYKUbi.s:4083   .text:00000000000012cc .LVL458
     /tmp/ccqYKUbi.s:934    .text._ZN19ConsumerProducerCPP8Consumer3runEv:0000000000000000 .LFB65
     /tmp/ccqYKUbi.s:1051   .text._ZN19ConsumerProducerCPP8Consumer3runEv:00000000000000d0 .LFE65
     /tmp/ccqYKUbi.s:11973  .debug_loc:0000000000000b9b .LLST32
     /tmp/ccqYKUbi.s:11991  .debug_loc:0000000000000be7 .LLST33
     /tmp/ccqYKUbi.s:12011  .debug_loc:0000000000000c44 .LLST34
     /tmp/ccqYKUbi.s:965    .text._ZN19ConsumerProducerCPP8Consumer3runEv:0000000000000034 .LVL84
     /tmp/ccqYKUbi.s:979    .text._ZN19ConsumerProducerCPP8Consumer3runEv:0000000000000050 .LVL85
     /tmp/ccqYKUbi.s:990    .text._ZN19ConsumerProducerCPP8Consumer3runEv:0000000000000064 .LVL88
     /tmp/ccqYKUbi.s:1001   .text._ZN19ConsumerProducerCPP8Consumer3runEv:0000000000000074 .LBB102
     /tmp/ccqYKUbi.s:1016   .text._ZN19ConsumerProducerCPP8Consumer3runEv:0000000000000090 .LBE102
     /tmp/ccqYKUbi.s:12018  .debug_loc:0000000000000c67 .LLST35
     /tmp/ccqYKUbi.s:1008   .text._ZN19ConsumerProducerCPP8Consumer3runEv:0000000000000084 .LVL90
     /tmp/ccqYKUbi.s:1014   .text._ZN19ConsumerProducerCPP8Consumer3runEv:0000000000000090 .LVL92
     /tmp/ccqYKUbi.s:1024   .text._ZN19ConsumerProducerCPP8Consumer3runEv:00000000000000a0 .LVL93
     /tmp/ccqYKUbi.s:1032   .text._ZN19ConsumerProducerCPP8Consumer3runEv:00000000000000b4 .LVL94
     /tmp/ccqYKUbi.s:13522  .debug_str:00000000000007d7 .LASF171
     /tmp/ccqYKUbi.s:1154   .text._ZN19ConsumerProducerCPP8Producer3runEv:0000000000000000 .LFB61
     /tmp/ccqYKUbi.s:1232   .text._ZN19ConsumerProducerCPP8Producer3runEv:0000000000000094 .LFE61
     /tmp/ccqYKUbi.s:12025  .debug_loc:0000000000000c8a .LLST39
     /tmp/ccqYKUbi.s:12043  .debug_loc:0000000000000cd6 .LLST40
     /tmp/ccqYKUbi.s:1189   .text._ZN19ConsumerProducerCPP8Producer3runEv:0000000000000044 .LVL109
     /tmp/ccqYKUbi.s:1206   .text._ZN19ConsumerProducerCPP8Producer3runEv:0000000000000068 .LVL111
     /tmp/ccqYKUbi.s:1215   .text._ZN19ConsumerProducerCPP8Producer3runEv:000000000000007c .LVL112
     /tmp/ccqYKUbi.s:13656  .debug_str:0000000000000c76 .LASF172
     /tmp/ccqYKUbi.s:854    .text._ZN19ConsumerProducerCPP16ProducerKeyborad3runEv:0000000000000000 .LFB57
     /tmp/ccqYKUbi.s:927    .text._ZN19ConsumerProducerCPP16ProducerKeyborad3runEv:0000000000000084 .LFE57
     /tmp/ccqYKUbi.s:12063  .debug_loc:0000000000000d33 .LLST30
     /tmp/ccqYKUbi.s:12081  .debug_loc:0000000000000d7f .LLST31
     /tmp/ccqYKUbi.s:877    .text._ZN19ConsumerProducerCPP16ProducerKeyborad3runEv:0000000000000020 .LVL72
     /tmp/ccqYKUbi.s:889    .text._ZN19ConsumerProducerCPP16ProducerKeyborad3runEv:000000000000003c .LVL74
     /tmp/ccqYKUbi.s:907    .text._ZN19ConsumerProducerCPP16ProducerKeyborad3runEv:0000000000000060 .LVL78
     /tmp/ccqYKUbi.s:913    .text._ZN19ConsumerProducerCPP16ProducerKeyborad3runEv:0000000000000070 .LVL79
     /tmp/ccqYKUbi.s:13706  .debug_str:0000000000000efa .LASF173
     /tmp/ccqYKUbi.s:13548  .debug_str:000000000000090d .LASF174
     /tmp/ccqYKUbi.s:13712  .debug_str:0000000000000f5c .LASF179
     /tmp/ccqYKUbi.s:3499   .text:0000000000000e20 .LFB53
     /tmp/ccqYKUbi.s:3572   .text:0000000000000ea8 .LFE53
     /tmp/ccqYKUbi.s:13406  .debug_str:0000000000000355 .LASF175
     /tmp/ccqYKUbi.s:13698  .debug_str:0000000000000ebb .LASF176
     /tmp/ccqYKUbi.s:13632  .debug_str:0000000000000bba .LASF177
     /tmp/ccqYKUbi.s:3523   .text:0000000000000e44 .LBB144
     /tmp/ccqYKUbi.s:3548   .text:0000000000000e7c .LBE144
     /tmp/ccqYKUbi.s:12096  .debug_loc:0000000000000dc8 .LLST109
GAS LISTING /tmp/ccqYKUbi.s 			page 138


     /tmp/ccqYKUbi.s:3539   .text:0000000000000e70 .LVL383
     /tmp/ccqYKUbi.s:13782  .debug_str:0000000000001202 .LASF178
     /tmp/ccqYKUbi.s:13530  .debug_str:0000000000000841 .LASF180
     /tmp/ccqYKUbi.s:1065   .text:0000000000000000 .LFB52
     /tmp/ccqYKUbi.s:1147   .text:00000000000000a4 .LFE52
     /tmp/ccqYKUbi.s:12108  .debug_loc:0000000000000dff .LLST36
     /tmp/ccqYKUbi.s:13562  .debug_str:0000000000000990 .LASF181
     /tmp/ccqYKUbi.s:12122  .debug_loc:0000000000000e38 .LLST37
     /tmp/ccqYKUbi.s:12129  .debug_loc:0000000000000e5b .LLST38
     /tmp/ccqYKUbi.s:1100   .text:0000000000000038 .LVL101
     /tmp/ccqYKUbi.s:1107   .text:000000000000004c .LVL102
     /tmp/ccqYKUbi.s:1112   .text:000000000000005c .LVL103
     /tmp/ccqYKUbi.s:1117   .text:0000000000000068 .LVL104
     /tmp/ccqYKUbi.s:13588  .debug_str:0000000000000a3d .LASF182
     /tmp/ccqYKUbi.s:13424  .debug_str:00000000000003e2 .LASF183
     /tmp/ccqYKUbi.s:3422   .text:0000000000000e20 .LFE51
     /tmp/ccqYKUbi.s:12141  .debug_loc:0000000000000e92 .LLST94
     /tmp/ccqYKUbi.s:12152  .debug_loc:0000000000000ec8 .LLST95
     /tmp/ccqYKUbi.s:12167  .debug_loc:0000000000000f11 .LLST96
     /tmp/ccqYKUbi.s:13634  .debug_str:0000000000000bc7 .LASF184
     /tmp/ccqYKUbi.s:12178  .debug_loc:0000000000000f47 .LLST97
     /tmp/ccqYKUbi.s:13464  .debug_str:000000000000055e .LASF185
     /tmp/ccqYKUbi.s:12196  .debug_loc:0000000000000f93 .LLST98
     /tmp/ccqYKUbi.s:13486  .debug_str:0000000000000647 .LASF186
     /tmp/ccqYKUbi.s:12207  .debug_loc:0000000000000fc9 .LLST99
     /tmp/ccqYKUbi.s:12220  .debug_loc:0000000000001001 .LLST102
     /tmp/ccqYKUbi.s:3134   .text:0000000000000be4 .LBB135
     /tmp/ccqYKUbi.s:12235  .debug_loc:000000000000104a .LLST103
     /tmp/ccqYKUbi.s:12250  .debug_loc:0000000000001093 .LLST104
     /tmp/ccqYKUbi.s:3197   .text:0000000000000c6c .LVL343
     /tmp/ccqYKUbi.s:3220   .text:0000000000000c90 .LBB139
     /tmp/ccqYKUbi.s:3231   .text:0000000000000ca8 .LBE139
     /tmp/ccqYKUbi.s:12269  .debug_loc:00000000000010ef .LLST105
     /tmp/ccqYKUbi.s:12280  .debug_loc:0000000000001125 .LLST106
     /tmp/ccqYKUbi.s:3224   .text:0000000000000c98 .LVL347
     /tmp/ccqYKUbi.s:3155   .text:0000000000000c14 .LVL339
     /tmp/ccqYKUbi.s:3182   .text:0000000000000c50 .LVL341
     /tmp/ccqYKUbi.s:3209   .text:0000000000000c7c .LVL345
     /tmp/ccqYKUbi.s:3402   .text:0000000000000df8 .LVL375
     /tmp/ccqYKUbi.s:3414   .text:0000000000000e14 .LVL378
     /tmp/ccqYKUbi.s:3244   .text:0000000000000cc0 .LBB141
     /tmp/ccqYKUbi.s:3262   .text:0000000000000ce0 .LBE141
     /tmp/ccqYKUbi.s:12295  .debug_loc:000000000000116e .LLST107
     /tmp/ccqYKUbi.s:3255   .text:0000000000000cd8 .LVL351
     /tmp/ccqYKUbi.s:3263   .text:0000000000000ce0 .LBB142
     /tmp/ccqYKUbi.s:3290   .text:0000000000000d10 .LBE142
     /tmp/ccqYKUbi.s:12306  .debug_loc:00000000000011a4 .LLST108
     /tmp/ccqYKUbi.s:12313  .debug_loc:00000000000011c7 .LLST91
     /tmp/ccqYKUbi.s:12344  .debug_loc:0000000000001211 .LLST93
     /tmp/ccqYKUbi.s:3109   .text:0000000000000bb8 .LBB132
     /tmp/ccqYKUbi.s:3121   .text:0000000000000bd0 .LBE132
     /tmp/ccqYKUbi.s:12375  .debug_loc:000000000000125b .LLST100
     /tmp/ccqYKUbi.s:12402  .debug_loc:00000000000012b0 .LLST101
     /tmp/ccqYKUbi.s:3113   .text:0000000000000bc0 .LVL334
     /tmp/ccqYKUbi.s:2940   .text:0000000000000a20 .LVL306
     /tmp/ccqYKUbi.s:2947   .text:0000000000000a34 .LVL307
     /tmp/ccqYKUbi.s:2952   .text:0000000000000a40 .LVL308
GAS LISTING /tmp/ccqYKUbi.s 			page 139


     /tmp/ccqYKUbi.s:2959   .text:0000000000000a54 .LVL310
     /tmp/ccqYKUbi.s:2965   .text:0000000000000a64 .LVL311
     /tmp/ccqYKUbi.s:2970   .text:0000000000000a70 .LVL312
     /tmp/ccqYKUbi.s:2977   .text:0000000000000a84 .LVL314
     /tmp/ccqYKUbi.s:2984   .text:0000000000000a98 .LVL315
     /tmp/ccqYKUbi.s:2989   .text:0000000000000aa8 .LVL316
     /tmp/ccqYKUbi.s:2996   .text:0000000000000abc .LVL317
     /tmp/ccqYKUbi.s:3001   .text:0000000000000acc .LVL318
     /tmp/ccqYKUbi.s:3010   .text:0000000000000ae0 .LVL319
     /tmp/ccqYKUbi.s:3016   .text:0000000000000af0 .LVL320
     /tmp/ccqYKUbi.s:3025   .text:0000000000000b04 .LVL321
     /tmp/ccqYKUbi.s:3033   .text:0000000000000b18 .LVL322
     /tmp/ccqYKUbi.s:3044   .text:0000000000000b2c .LVL324
     /tmp/ccqYKUbi.s:3051   .text:0000000000000b3c .LVL326
     /tmp/ccqYKUbi.s:3099   .text:0000000000000ba8 .LVL332
     /tmp/ccqYKUbi.s:3127   .text:0000000000000bdc .LVL336
     /tmp/ccqYKUbi.s:3243   .text:0000000000000cc0 .LVL349
     /tmp/ccqYKUbi.s:3299   .text:0000000000000d24 .LVL358
     /tmp/ccqYKUbi.s:3318   .text:0000000000000d4c .LVL360
     /tmp/ccqYKUbi.s:3321   .text:0000000000000d58 .LVL361
     /tmp/ccqYKUbi.s:3365   .text:0000000000000da4 .LVL366
     /tmp/ccqYKUbi.s:3369   .text:0000000000000db0 .LVL367
     /tmp/ccqYKUbi.s:3377   .text:0000000000000dc0 .LVL369
     /tmp/ccqYKUbi.s:3381   .text:0000000000000dcc .LVL370
     /tmp/ccqYKUbi.s:3389   .text:0000000000000ddc .LVL372
     /tmp/ccqYKUbi.s:3393   .text:0000000000000de8 .LVL373
     /tmp/ccqYKUbi.s:3406   .text:0000000000000e04 .LVL376
     /tmp/ccqYKUbi.s:3418   .text:0000000000000e20 .LVL379
     /tmp/ccqYKUbi.s:2698   .text:00000000000008e4 .LFB50
     /tmp/ccqYKUbi.s:2837   .text:00000000000009d8 .LFE50
     /tmp/ccqYKUbi.s:12417  .debug_loc:00000000000012f9 .LLST83
     /tmp/ccqYKUbi.s:12435  .debug_loc:0000000000001345 .LLST84
     /tmp/ccqYKUbi.s:12453  .debug_loc:0000000000001391 .LLST85
     /tmp/ccqYKUbi.s:12471  .debug_loc:00000000000013dd .LLST86
     /tmp/ccqYKUbi.s:12495  .debug_loc:000000000000144d .LLST87
     /tmp/ccqYKUbi.s:2732   .text:000000000000091c .LVL288
     /tmp/ccqYKUbi.s:2740   .text:000000000000092c .LVL290
     /tmp/ccqYKUbi.s:2752   .text:0000000000000944 .LVL291
     /tmp/ccqYKUbi.s:2763   .text:0000000000000958 .LVL294
     /tmp/ccqYKUbi.s:2785   .text:000000000000097c .LBB131
     /tmp/ccqYKUbi.s:2800   .text:0000000000000998 .LBE131
     /tmp/ccqYKUbi.s:12502  .debug_loc:0000000000001470 .LLST88
     /tmp/ccqYKUbi.s:2792   .text:000000000000098c .LVL296
     /tmp/ccqYKUbi.s:2798   .text:0000000000000998 .LVL298
     /tmp/ccqYKUbi.s:2808   .text:00000000000009a8 .LVL299
     /tmp/ccqYKUbi.s:2815   .text:00000000000009b8 .LVL300
     /tmp/ccqYKUbi.s:2844   .text._ZN8Consumer3runEv:0000000000000000 .LFB49
     /tmp/ccqYKUbi.s:2871   .text._ZN8Consumer3runEv:000000000000002c .LFE49
     /tmp/ccqYKUbi.s:12509  .debug_loc:0000000000001493 .LLST89
     /tmp/ccqYKUbi.s:2860   .text._ZN8Consumer3runEv:000000000000001c .LVL305
     /tmp/ccqYKUbi.s:13616  .debug_str:0000000000000b3b .LASF187
     /tmp/ccqYKUbi.s:2575   .text:0000000000000850 .LFB45
     /tmp/ccqYKUbi.s:2657   .text:00000000000008e4 .LFE45
     /tmp/ccqYKUbi.s:12523  .debug_loc:00000000000014cc .LLST78
     /tmp/ccqYKUbi.s:12537  .debug_loc:0000000000001505 .LLST79
     /tmp/ccqYKUbi.s:12555  .debug_loc:0000000000001551 .LLST80
     /tmp/ccqYKUbi.s:12573  .debug_loc:000000000000159d .LLST81
GAS LISTING /tmp/ccqYKUbi.s 			page 140


     /tmp/ccqYKUbi.s:2603   .text:000000000000087c .LVL276
     /tmp/ccqYKUbi.s:2616   .text:000000000000089c .LVL277
     /tmp/ccqYKUbi.s:2640   .text:00000000000008cc .LVL280
     /tmp/ccqYKUbi.s:2664   .text._ZN8Producer3runEv:0000000000000000 .LFB44
     /tmp/ccqYKUbi.s:2691   .text._ZN8Producer3runEv:000000000000002c .LFE44
     /tmp/ccqYKUbi.s:12597  .debug_loc:000000000000160d .LLST82
     /tmp/ccqYKUbi.s:2680   .text._ZN8Producer3runEv:000000000000001c .LVL284
     /tmp/ccqYKUbi.s:13592  .debug_str:0000000000000a78 .LASF188
     /tmp/ccqYKUbi.s:2428   .text:0000000000000790 .LFB40
     /tmp/ccqYKUbi.s:2534   .text:0000000000000850 .LFE40
     /tmp/ccqYKUbi.s:12611  .debug_loc:0000000000001646 .LLST72
     /tmp/ccqYKUbi.s:12629  .debug_loc:0000000000001692 .LLST73
     /tmp/ccqYKUbi.s:12647  .debug_loc:00000000000016de .LLST74
     /tmp/ccqYKUbi.s:12665  .debug_loc:000000000000172a .LLST75
     /tmp/ccqYKUbi.s:12680  .debug_loc:0000000000001773 .LLST76
     /tmp/ccqYKUbi.s:2460   .text:00000000000007c4 .LVL258
     /tmp/ccqYKUbi.s:2466   .text:00000000000007cc .LVL259
     /tmp/ccqYKUbi.s:2477   .text:00000000000007e4 .LVL261
     /tmp/ccqYKUbi.s:2509   .text:0000000000000828 .LVL266
     /tmp/ccqYKUbi.s:2514   .text:0000000000000834 .LVL267
     /tmp/ccqYKUbi.s:2541   .text._ZN16ProducerKeyboard3runEv:0000000000000000 .LFB39
     /tmp/ccqYKUbi.s:2568   .text._ZN16ProducerKeyboard3runEv:000000000000002c .LFE39
     /tmp/ccqYKUbi.s:12704  .debug_loc:00000000000017e3 .LLST77
     /tmp/ccqYKUbi.s:2557   .text._ZN16ProducerKeyboard3runEv:000000000000001c .LVL272
     /tmp/ccqYKUbi.s:13532  .debug_str:0000000000000850 .LASF189
     /tmp/ccqYKUbi.s:13594  .debug_str:0000000000000a96 .LASF190
     /tmp/ccqYKUbi.s:13476  .debug_str:00000000000005e5 .LASF191
     /tmp/ccqYKUbi.s:2362   .text:0000000000000790 .LFE35
     /tmp/ccqYKUbi.s:2231   .text:0000000000000678 .LBB127
     /tmp/ccqYKUbi.s:2254   .text:00000000000006a4 .LBE127
     /tmp/ccqYKUbi.s:12718  .debug_loc:000000000000181c .LLST69
     /tmp/ccqYKUbi.s:2247   .text:000000000000069c .LVL236
     /tmp/ccqYKUbi.s:2274   .text:00000000000006dc .LBB128
     /tmp/ccqYKUbi.s:2303   .text:000000000000070c .LBE128
     /tmp/ccqYKUbi.s:13696  .debug_str:0000000000000eb4 .LASF192
     /tmp/ccqYKUbi.s:12729  .debug_loc:0000000000001852 .LLST70
     /tmp/ccqYKUbi.s:13654  .debug_str:0000000000000c6a .LASF193
     /tmp/ccqYKUbi.s:13678  .debug_str:0000000000000d56 .LASF231
     /tmp/ccqYKUbi.s:12736  .debug_loc:0000000000001875 .LLST71
     /tmp/ccqYKUbi.s:13674  .debug_str:0000000000000d47 .LASF194
     /tmp/ccqYKUbi.s:2128   .text:00000000000005a8 .LBB119
     /tmp/ccqYKUbi.s:2138   .text:00000000000005bc .LBE119
     /tmp/ccqYKUbi.s:12747  .debug_loc:00000000000018ab .LLST65
     /tmp/ccqYKUbi.s:2132   .text:00000000000005b0 .LVL217
     /tmp/ccqYKUbi.s:2156   .text:00000000000005e0 .LBB121
     /tmp/ccqYKUbi.s:2166   .text:00000000000005f4 .LBE121
     /tmp/ccqYKUbi.s:12758  .debug_loc:00000000000018e1 .LLST66
     /tmp/ccqYKUbi.s:2160   .text:00000000000005e8 .LVL222
     /tmp/ccqYKUbi.s:2184   .text:0000000000000618 .LBB123
     /tmp/ccqYKUbi.s:2194   .text:000000000000062c .LBE123
     /tmp/ccqYKUbi.s:12769  .debug_loc:0000000000001917 .LLST67
     /tmp/ccqYKUbi.s:2188   .text:0000000000000620 .LVL227
     /tmp/ccqYKUbi.s:2212   .text:0000000000000650 .LBB125
     /tmp/ccqYKUbi.s:2222   .text:0000000000000664 .LBE125
     /tmp/ccqYKUbi.s:12780  .debug_loc:000000000000194d .LLST68
     /tmp/ccqYKUbi.s:2216   .text:0000000000000658 .LVL232
     /tmp/ccqYKUbi.s:2123   .text:00000000000005a4 .LVL215
GAS LISTING /tmp/ccqYKUbi.s 			page 141


     /tmp/ccqYKUbi.s:2146   .text:00000000000005d0 .LVL219
     /tmp/ccqYKUbi.s:2151   .text:00000000000005dc .LVL220
     /tmp/ccqYKUbi.s:2174   .text:0000000000000608 .LVL224
     /tmp/ccqYKUbi.s:2179   .text:0000000000000614 .LVL225
     /tmp/ccqYKUbi.s:2202   .text:0000000000000640 .LVL229
     /tmp/ccqYKUbi.s:2207   .text:000000000000064c .LVL230
     /tmp/ccqYKUbi.s:2230   .text:0000000000000678 .LVL234
     /tmp/ccqYKUbi.s:2258   .text:00000000000006ac .LVL239
     /tmp/ccqYKUbi.s:2307   .text:0000000000000718 .LVL246
     /tmp/ccqYKUbi.s:2311   .text:0000000000000724 .LVL247
     /tmp/ccqYKUbi.s:2318   .text:0000000000000734 .LVL248
     /tmp/ccqYKUbi.s:2322   .text:0000000000000740 .LVL249
     /tmp/ccqYKUbi.s:2329   .text:0000000000000750 .LVL250
     /tmp/ccqYKUbi.s:2333   .text:000000000000075c .LVL251
     /tmp/ccqYKUbi.s:2340   .text:000000000000076c .LVL252
     /tmp/ccqYKUbi.s:2344   .text:0000000000000778 .LVL253
     /tmp/ccqYKUbi.s:1897   .text:0000000000000438 .LFB34
     /tmp/ccqYKUbi.s:2046   .text:0000000000000580 .LFE34
     /tmp/ccqYKUbi.s:12791  .debug_loc:0000000000001983 .LLST60
     /tmp/ccqYKUbi.s:12805  .debug_loc:00000000000019bc .LLST61
     /tmp/ccqYKUbi.s:12819  .debug_loc:00000000000019f5 .LLST62
     /tmp/ccqYKUbi.s:13780  .debug_str:00000000000011fb .LASF195
     /tmp/ccqYKUbi.s:12839  .debug_loc:0000000000001a52 .LLST63
     /tmp/ccqYKUbi.s:1924   .text:0000000000000468 .LVL191
     /tmp/ccqYKUbi.s:1931   .text:000000000000047c .LVL192
     /tmp/ccqYKUbi.s:1936   .text:000000000000048c .LVL193
     /tmp/ccqYKUbi.s:1951   .text:00000000000004ac .LVL196
     /tmp/ccqYKUbi.s:1962   .text:00000000000004b8 .LVL197
     /tmp/ccqYKUbi.s:1967   .text:00000000000004c4 .LVL198
     /tmp/ccqYKUbi.s:1975   .text:00000000000004d8 .LVL201
     /tmp/ccqYKUbi.s:1982   .text:00000000000004ec .LVL202
     /tmp/ccqYKUbi.s:1987   .text:00000000000004fc .LVL203
     /tmp/ccqYKUbi.s:1994   .text:0000000000000510 .LVL204
     /tmp/ccqYKUbi.s:2001   .text:0000000000000524 .LVL205
     /tmp/ccqYKUbi.s:2006   .text:0000000000000534 .LVL206
     /tmp/ccqYKUbi.s:2021   .text:0000000000000554 .LVL209
     /tmp/ccqYKUbi.s:2029   .text:0000000000000568 .LVL210
     /tmp/ccqYKUbi.s:1668   .text:00000000000002b8 .LFB33
     /tmp/ccqYKUbi.s:1843   .text:0000000000000438 .LFE33
     /tmp/ccqYKUbi.s:12850  .debug_loc:0000000000001a88 .LLST54
     /tmp/ccqYKUbi.s:12864  .debug_loc:0000000000001ac1 .LLST55
     /tmp/ccqYKUbi.s:12878  .debug_loc:0000000000001afa .LLST56
     /tmp/ccqYKUbi.s:12898  .debug_loc:0000000000001b57 .LLST57
     /tmp/ccqYKUbi.s:12906  .debug_loc:0000000000001b7b .LLST58
     /tmp/ccqYKUbi.s:1695   .text:00000000000002e8 .LVL160
     /tmp/ccqYKUbi.s:1702   .text:00000000000002fc .LVL161
     /tmp/ccqYKUbi.s:1707   .text:000000000000030c .LVL162
     /tmp/ccqYKUbi.s:1722   .text:000000000000032c .LVL165
     /tmp/ccqYKUbi.s:1733   .text:0000000000000338 .LVL166
     /tmp/ccqYKUbi.s:1747   .text:000000000000034c .LVL168
     /tmp/ccqYKUbi.s:1754   .text:0000000000000360 .LVL169
     /tmp/ccqYKUbi.s:1759   .text:0000000000000370 .LVL170
     /tmp/ccqYKUbi.s:1764   .text:000000000000037c .LVL171
     /tmp/ccqYKUbi.s:1772   .text:0000000000000390 .LVL174
     /tmp/ccqYKUbi.s:1779   .text:00000000000003a4 .LVL175
     /tmp/ccqYKUbi.s:1784   .text:00000000000003b4 .LVL176
     /tmp/ccqYKUbi.s:1791   .text:00000000000003c8 .LVL177
GAS LISTING /tmp/ccqYKUbi.s 			page 142


     /tmp/ccqYKUbi.s:1798   .text:00000000000003dc .LVL178
     /tmp/ccqYKUbi.s:1803   .text:00000000000003ec .LVL179
     /tmp/ccqYKUbi.s:1818   .text:000000000000040c .LVL182
     /tmp/ccqYKUbi.s:1826   .text:0000000000000420 .LVL183
     /tmp/ccqYKUbi.s:1488   .text:00000000000001e4 .LFB32
     /tmp/ccqYKUbi.s:1611   .text:00000000000002b8 .LFE32
     /tmp/ccqYKUbi.s:12917  .debug_loc:0000000000001bb1 .LLST48
     /tmp/ccqYKUbi.s:12931  .debug_loc:0000000000001bea .LLST49
     /tmp/ccqYKUbi.s:1506   .text:00000000000001fc .LBB111
     /tmp/ccqYKUbi.s:1582   .text:000000000000027c .LBE111
     /tmp/ccqYKUbi.s:12945  .debug_loc:0000000000001c23 .LLST50
     /tmp/ccqYKUbi.s:12957  .debug_loc:0000000000001c5a .LLST51
     /tmp/ccqYKUbi.s:1529   .text:000000000000021c .LBB115
     /tmp/ccqYKUbi.s:1544   .text:0000000000000234 .LBE115
     /tmp/ccqYKUbi.s:12969  .debug_loc:0000000000001c91 .LLST52
     /tmp/ccqYKUbi.s:1518   .text:000000000000020c .LVL142
     /tmp/ccqYKUbi.s:1560   .text:0000000000000250 .LVL148
     /tmp/ccqYKUbi.s:1567   .text:0000000000000264 .LVL149
     /tmp/ccqYKUbi.s:1572   .text:0000000000000274 .LVL150
     /tmp/ccqYKUbi.s:1587   .text:000000000000028c .LVL152
     /tmp/ccqYKUbi.s:1595   .text:00000000000002a0 .LVL153
     /tmp/ccqYKUbi.s:1321   .text:0000000000000118 .LFB31
     /tmp/ccqYKUbi.s:1440   .text:00000000000001e4 .LFE31
     /tmp/ccqYKUbi.s:12980  .debug_loc:0000000000001cc7 .LLST42
     /tmp/ccqYKUbi.s:12994  .debug_loc:0000000000001d00 .LLST43
     /tmp/ccqYKUbi.s:1339   .text:0000000000000130 .LBB103
     /tmp/ccqYKUbi.s:1415   .text:00000000000001b0 .LBE103
     /tmp/ccqYKUbi.s:13008  .debug_loc:0000000000001d39 .LLST44
     /tmp/ccqYKUbi.s:13020  .debug_loc:0000000000001d70 .LLST45
     /tmp/ccqYKUbi.s:1362   .text:0000000000000150 .LBB107
     /tmp/ccqYKUbi.s:1377   .text:0000000000000168 .LBE107
     /tmp/ccqYKUbi.s:13032  .debug_loc:0000000000001da7 .LLST46
     /tmp/ccqYKUbi.s:1351   .text:0000000000000140 .LVL125
     /tmp/ccqYKUbi.s:1393   .text:0000000000000184 .LVL131
     /tmp/ccqYKUbi.s:1400   .text:0000000000000198 .LVL132
     /tmp/ccqYKUbi.s:1405   .text:00000000000001a8 .LVL133
     /tmp/ccqYKUbi.s:1420   .text:00000000000001c0 .LVL135
     /tmp/ccqYKUbi.s:2053   .text._ZN7WorkerD3runEv:0000000000000000 .LFB30
     /tmp/ccqYKUbi.s:2080   .text._ZN7WorkerD3runEv:000000000000002c .LFE30
     /tmp/ccqYKUbi.s:13043  .debug_loc:0000000000001ddd .LLST64
     /tmp/ccqYKUbi.s:2069   .text._ZN7WorkerD3runEv:000000000000001c .LVL214
     /tmp/ccqYKUbi.s:13498  .debug_str:0000000000000703 .LASF196
     /tmp/ccqYKUbi.s:1850   .text._ZN7WorkerC3runEv:0000000000000000 .LFB26
     /tmp/ccqYKUbi.s:1877   .text._ZN7WorkerC3runEv:000000000000002c .LFE26
     /tmp/ccqYKUbi.s:13057  .debug_loc:0000000000001e16 .LLST59
     /tmp/ccqYKUbi.s:1866   .text._ZN7WorkerC3runEv:000000000000001c .LVL187
     /tmp/ccqYKUbi.s:13318  .debug_str:0000000000000012 .LASF197
     /tmp/ccqYKUbi.s:1618   .text._ZN7WorkerB3runEv:0000000000000000 .LFB22
     /tmp/ccqYKUbi.s:1645   .text._ZN7WorkerB3runEv:000000000000002c .LFE22
     /tmp/ccqYKUbi.s:13071  .debug_loc:0000000000001e4f .LLST53
     /tmp/ccqYKUbi.s:1634   .text._ZN7WorkerB3runEv:000000000000001c .LVL156
     /tmp/ccqYKUbi.s:13392  .debug_str:00000000000002dc .LASF198
     /tmp/ccqYKUbi.s:1447   .text._ZN7WorkerA3runEv:0000000000000000 .LFB18
     /tmp/ccqYKUbi.s:1474   .text._ZN7WorkerA3runEv:000000000000002c .LFE18
     /tmp/ccqYKUbi.s:13085  .debug_loc:0000000000001e88 .LLST47
     /tmp/ccqYKUbi.s:1463   .text._ZN7WorkerA3runEv:000000000000001c .LVL138
     /tmp/ccqYKUbi.s:13568  .debug_str:00000000000009b6 .LASF199
GAS LISTING /tmp/ccqYKUbi.s 			page 143


     /tmp/ccqYKUbi.s:13438  .debug_str:000000000000046b .LASF232
     /tmp/ccqYKUbi.s:13434  .debug_str:000000000000044d .LASF233
     /tmp/ccqYKUbi.s:1239   .text:00000000000000a4 .LFB14
     /tmp/ccqYKUbi.s:1304   .text:0000000000000118 .LFE14
     /tmp/ccqYKUbi.s:13099  .debug_loc:0000000000001ec1 .LLST41
     /tmp/ccqYKUbi.s:1271   .text:00000000000000e0 .LVL117
     /tmp/ccqYKUbi.s:1276   .text:00000000000000f0 .LVL118
     /tmp/ccqYKUbi.s:1301   .text:0000000000000114 .LVL121
     /tmp/ccqYKUbi.s:13564  .debug_str:000000000000099b .LASF200
     /tmp/ccqYKUbi.s:13422  .debug_str:00000000000003dc .LASF201
     /tmp/ccqYKUbi.s:13514  .debug_str:00000000000007ac .LASF202
     /tmp/ccqYKUbi.s:13382  .debug_str:000000000000027b .LASF203
     /tmp/ccqYKUbi.s:13756  .debug_str:0000000000001136 .LASF204
     /tmp/ccqYKUbi.s:13362  .debug_str:00000000000001aa .LASF205
     /tmp/ccqYKUbi.s:13736  .debug_str:0000000000001066 .LASF206
     /tmp/ccqYKUbi.s:13762  .debug_str:0000000000001168 .LASF207
     /tmp/ccqYKUbi.s:13332  .debug_str:000000000000006a .LASF208
     /tmp/ccqYKUbi.s:13386  .debug_str:00000000000002b4 .LASF209
     /tmp/ccqYKUbi.s:13746  .debug_str:00000000000010bc .LASF210
     /tmp/ccqYKUbi.s:13724  .debug_str:0000000000001002 .LASF234
     /tmp/ccqYKUbi.s:13442  .debug_str:00000000000004a4 .LASF235
     /tmp/ccqYKUbi.s:13730  .debug_str:0000000000001044 .LASF211
     /tmp/ccqYKUbi.s:13748  .debug_str:00000000000010c5 .LASF213
     /tmp/ccqYKUbi.s:13666  .debug_str:0000000000000d00 .LASF214
     /tmp/ccqYKUbi.s:13584  .debug_str:0000000000000a26 .LASF215
     /tmp/ccqYKUbi.s:13680  .debug_str:0000000000000d62 .LASF216
     /tmp/ccqYKUbi.s:13336  .debug_str:0000000000000086 .LASF217
     /tmp/ccqYKUbi.s:13528  .debug_str:000000000000082c .LASF218
     /tmp/ccqYKUbi.s:13366  .debug_str:00000000000001e1 .LASF219
     /tmp/ccqYKUbi.s:52     .text._ZN7WorkerAD0Ev:0000000000000000 .LVL2
     /tmp/ccqYKUbi.s:84     .text._ZN7WorkerAD0Ev:0000000000000044 .LVL6
     /tmp/ccqYKUbi.s:64     .text._ZN7WorkerAD0Ev:0000000000000018 .LVL3
     /tmp/ccqYKUbi.s:15     .text._ZN7WorkerAD2Ev:0000000000000000 .LVL0
     /tmp/ccqYKUbi.s:136    .text._ZN7WorkerBD0Ev:0000000000000000 .LVL9
     /tmp/ccqYKUbi.s:168    .text._ZN7WorkerBD0Ev:0000000000000044 .LVL13
     /tmp/ccqYKUbi.s:148    .text._ZN7WorkerBD0Ev:0000000000000018 .LVL10
     /tmp/ccqYKUbi.s:99     .text._ZN7WorkerBD2Ev:0000000000000000 .LVL7
     /tmp/ccqYKUbi.s:220    .text._ZN7WorkerCD0Ev:0000000000000000 .LVL16
     /tmp/ccqYKUbi.s:252    .text._ZN7WorkerCD0Ev:0000000000000044 .LVL20
     /tmp/ccqYKUbi.s:232    .text._ZN7WorkerCD0Ev:0000000000000018 .LVL17
     /tmp/ccqYKUbi.s:183    .text._ZN7WorkerCD2Ev:0000000000000000 .LVL14
     /tmp/ccqYKUbi.s:304    .text._ZN7WorkerDD0Ev:0000000000000000 .LVL23
     /tmp/ccqYKUbi.s:336    .text._ZN7WorkerDD0Ev:0000000000000044 .LVL27
     /tmp/ccqYKUbi.s:316    .text._ZN7WorkerDD0Ev:0000000000000018 .LVL24
     /tmp/ccqYKUbi.s:267    .text._ZN7WorkerDD2Ev:0000000000000000 .LVL21
     /tmp/ccqYKUbi.s:557    .text._ZN16ProducerKeyboardD0Ev:0000000000000000 .LVL44
     /tmp/ccqYKUbi.s:589    .text._ZN16ProducerKeyboardD0Ev:0000000000000044 .LVL48
     /tmp/ccqYKUbi.s:569    .text._ZN16ProducerKeyboardD0Ev:0000000000000018 .LVL45
     /tmp/ccqYKUbi.s:520    .text._ZN16ProducerKeyboardD2Ev:0000000000000000 .LVL42
     /tmp/ccqYKUbi.s:473    .text._ZN8ProducerD0Ev:0000000000000000 .LVL37
     /tmp/ccqYKUbi.s:505    .text._ZN8ProducerD0Ev:0000000000000044 .LVL41
     /tmp/ccqYKUbi.s:485    .text._ZN8ProducerD0Ev:0000000000000018 .LVL38
     /tmp/ccqYKUbi.s:436    .text._ZN8ProducerD2Ev:0000000000000000 .LVL35
     /tmp/ccqYKUbi.s:389    .text._ZN8ConsumerD0Ev:0000000000000000 .LVL30
     /tmp/ccqYKUbi.s:421    .text._ZN8ConsumerD0Ev:0000000000000044 .LVL34
     /tmp/ccqYKUbi.s:401    .text._ZN8ConsumerD0Ev:0000000000000018 .LVL31
     /tmp/ccqYKUbi.s:352    .text._ZN8ConsumerD2Ev:0000000000000000 .LVL28
GAS LISTING /tmp/ccqYKUbi.s 			page 144


     /tmp/ccqYKUbi.s:726    .text._ZN19ConsumerProducerCPP16ProducerKeyboradD0Ev:0000000000000000 .LVL58
     /tmp/ccqYKUbi.s:758    .text._ZN19ConsumerProducerCPP16ProducerKeyboradD0Ev:0000000000000044 .LVL62
     /tmp/ccqYKUbi.s:738    .text._ZN19ConsumerProducerCPP16ProducerKeyboradD0Ev:0000000000000018 .LVL59
     /tmp/ccqYKUbi.s:689    .text._ZN19ConsumerProducerCPP16ProducerKeyboradD2Ev:0000000000000000 .LVL56
     /tmp/ccqYKUbi.s:810    .text._ZN19ConsumerProducerCPP8ProducerD0Ev:0000000000000000 .LVL65
     /tmp/ccqYKUbi.s:842    .text._ZN19ConsumerProducerCPP8ProducerD0Ev:0000000000000044 .LVL69
     /tmp/ccqYKUbi.s:822    .text._ZN19ConsumerProducerCPP8ProducerD0Ev:0000000000000018 .LVL66
     /tmp/ccqYKUbi.s:773    .text._ZN19ConsumerProducerCPP8ProducerD2Ev:0000000000000000 .LVL63
     /tmp/ccqYKUbi.s:642    .text._ZN19ConsumerProducerCPP8ConsumerD0Ev:0000000000000000 .LVL51
     /tmp/ccqYKUbi.s:674    .text._ZN19ConsumerProducerCPP8ConsumerD0Ev:0000000000000044 .LVL55
     /tmp/ccqYKUbi.s:654    .text._ZN19ConsumerProducerCPP8ConsumerD0Ev:0000000000000018 .LVL52
     /tmp/ccqYKUbi.s:605    .text._ZN19ConsumerProducerCPP8ConsumerD2Ev:0000000000000000 .LVL49
     /tmp/ccqYKUbi.s:3650   .text:0000000000000f44 .LVL393
     /tmp/ccqYKUbi.s:3725   .text:0000000000001000 .LVL405
     /tmp/ccqYKUbi.s:4024   .text:0000000000001240 .LVL445
     /tmp/ccqYKUbi.s:4028   .text:0000000000001244 .LVL446
     /tmp/ccqYKUbi.s:3632   .text:0000000000000f14 .LVL389
     /tmp/ccqYKUbi.s:4008   .text:0000000000001220 .LVL444
     /tmp/ccqYKUbi.s:3717   .text:0000000000000ff0 .LVL403
     /tmp/ccqYKUbi.s:3992   .text:0000000000001208 .LVL443
     /tmp/ccqYKUbi.s:3742   .text:000000000000102c .LVL408
     /tmp/ccqYKUbi.s:3754   .text:0000000000001048 .LVL410
     /tmp/ccqYKUbi.s:3756   .text:000000000000104c .LVL411
     /tmp/ccqYKUbi.s:3791   .text:0000000000001094 .LVL415
     /tmp/ccqYKUbi.s:3843   .text:00000000000010f4 .LVL422
     /tmp/ccqYKUbi.s:3851   .text:0000000000001104 .LVL423
     /tmp/ccqYKUbi.s:3890   .text:0000000000001158 .LVL427
     /tmp/ccqYKUbi.s:3899   .text:0000000000001164 .LVL429
     /tmp/ccqYKUbi.s:4074   .text:00000000000012b4 .LVL456
     /tmp/ccqYKUbi.s:3913   .text:0000000000001170 .LVL431
     /tmp/ccqYKUbi.s:3923   .text:0000000000001188 .LVL433
     /tmp/ccqYKUbi.s:3925   .text:000000000000118c .LVL434
     /tmp/ccqYKUbi.s:3942   .text:00000000000011a8 .LVL436
     /tmp/ccqYKUbi.s:3944   .text:00000000000011ac .LVL437
     /tmp/ccqYKUbi.s:3735   .text:0000000000001018 .LVL407
     /tmp/ccqYKUbi.s:3746   .text:0000000000001030 .LVL409
     /tmp/ccqYKUbi.s:3779   .text:000000000000107c .LVL413
     /tmp/ccqYKUbi.s:4051   .text:000000000000127c .LVL451
     /tmp/ccqYKUbi.s:3817   .text:00000000000010c4 .LVL418
     /tmp/ccqYKUbi.s:3828   .text:00000000000010dc .LVL420
     /tmp/ccqYKUbi.s:937    .text._ZN19ConsumerProducerCPP8Consumer3runEv:0000000000000000 .LVL81
     /tmp/ccqYKUbi.s:958    .text._ZN19ConsumerProducerCPP8Consumer3runEv:0000000000000028 .LVL83
     /tmp/ccqYKUbi.s:1043   .text._ZN19ConsumerProducerCPP8Consumer3runEv:00000000000000c4 .LVL95
     /tmp/ccqYKUbi.s:954    .text._ZN19ConsumerProducerCPP8Consumer3runEv:0000000000000020 .LVL82
     /tmp/ccqYKUbi.s:984    .text._ZN19ConsumerProducerCPP8Consumer3runEv:0000000000000058 .LVL86
     /tmp/ccqYKUbi.s:995    .text._ZN19ConsumerProducerCPP8Consumer3runEv:000000000000006c .LVL89
     /tmp/ccqYKUbi.s:1046   .text._ZN19ConsumerProducerCPP8Consumer3runEv:00000000000000c8 .LVL96
     /tmp/ccqYKUbi.s:988    .text._ZN19ConsumerProducerCPP8Consumer3runEv:000000000000005c .LVL87
     /tmp/ccqYKUbi.s:1012   .text._ZN19ConsumerProducerCPP8Consumer3runEv:0000000000000088 .LVL91
     /tmp/ccqYKUbi.s:1157   .text._ZN19ConsumerProducerCPP8Producer3runEv:0000000000000000 .LVL106
     /tmp/ccqYKUbi.s:1175   .text._ZN19ConsumerProducerCPP8Producer3runEv:0000000000000020 .LVL108
     /tmp/ccqYKUbi.s:1224   .text._ZN19ConsumerProducerCPP8Producer3runEv:0000000000000088 .LVL113
     /tmp/ccqYKUbi.s:1172   .text._ZN19ConsumerProducerCPP8Producer3runEv:000000000000001c .LVL107
     /tmp/ccqYKUbi.s:1194   .text._ZN19ConsumerProducerCPP8Producer3runEv:000000000000004c .LVL110
     /tmp/ccqYKUbi.s:1227   .text._ZN19ConsumerProducerCPP8Producer3runEv:000000000000008c .LVL114
     /tmp/ccqYKUbi.s:857    .text._ZN19ConsumerProducerCPP16ProducerKeyborad3runEv:0000000000000000 .LVL70
     /tmp/ccqYKUbi.s:871    .text._ZN19ConsumerProducerCPP16ProducerKeyborad3runEv:0000000000000018 .LVL71
GAS LISTING /tmp/ccqYKUbi.s 			page 145


     /tmp/ccqYKUbi.s:922    .text._ZN19ConsumerProducerCPP16ProducerKeyborad3runEv:000000000000007c .LVL80
     /tmp/ccqYKUbi.s:880    .text._ZN19ConsumerProducerCPP16ProducerKeyborad3runEv:0000000000000024 .LVL73
     /tmp/ccqYKUbi.s:893    .text._ZN19ConsumerProducerCPP16ProducerKeyborad3runEv:0000000000000040 .LVL75
     /tmp/ccqYKUbi.s:903    .text._ZN19ConsumerProducerCPP16ProducerKeyborad3runEv:0000000000000054 .LVL76
     /tmp/ccqYKUbi.s:905    .text._ZN19ConsumerProducerCPP16ProducerKeyborad3runEv:0000000000000058 .LVL77
     /tmp/ccqYKUbi.s:3522   .text:0000000000000e44 .LVL381
     /tmp/ccqYKUbi.s:3527   .text:0000000000000e4c .LVL382
     /tmp/ccqYKUbi.s:3567   .text:0000000000000ea0 .LVL385
     /tmp/ccqYKUbi.s:1069   .text:0000000000000000 .LVL97
     /tmp/ccqYKUbi.s:1089   .text:0000000000000020 .LVL99
     /tmp/ccqYKUbi.s:1085   .text:000000000000001c .LVL98
     /tmp/ccqYKUbi.s:1125   .text:0000000000000074 .LVL105
     /tmp/ccqYKUbi.s:1094   .text:0000000000000024 .LVL100
     /tmp/ccqYKUbi.s:2972   .text:0000000000000a74 .LVL313
     /tmp/ccqYKUbi.s:3047   .text:0000000000000b30 .LVL325
     /tmp/ccqYKUbi.s:3357   .text:0000000000000d94 .LVL364
     /tmp/ccqYKUbi.s:3361   .text:0000000000000d98 .LVL365
     /tmp/ccqYKUbi.s:2954   .text:0000000000000a44 .LVL309
     /tmp/ccqYKUbi.s:3339   .text:0000000000000d70 .LVL363
     /tmp/ccqYKUbi.s:3373   .text:0000000000000db4 .LVL368
     /tmp/ccqYKUbi.s:3039   .text:0000000000000b20 .LVL323
     /tmp/ccqYKUbi.s:3325   .text:0000000000000d5c .LVL362
     /tmp/ccqYKUbi.s:3064   .text:0000000000000b5c .LVL328
     /tmp/ccqYKUbi.s:3077   .text:0000000000000b78 .LVL330
     /tmp/ccqYKUbi.s:3119   .text:0000000000000bd0 .LVL335
     /tmp/ccqYKUbi.s:3079   .text:0000000000000b7c .LVL331
     /tmp/ccqYKUbi.s:3132   .text:0000000000000be4 .LVL337
     /tmp/ccqYKUbi.s:3247   .text:0000000000000cc4 .LVL350
     /tmp/ccqYKUbi.s:3397   .text:0000000000000dec .LVL374
     /tmp/ccqYKUbi.s:3410   .text:0000000000000e08 .LVL377
     /tmp/ccqYKUbi.s:3140   .text:0000000000000bf4 .LVL338
     /tmp/ccqYKUbi.s:3191   .text:0000000000000c64 .LVL342
     /tmp/ccqYKUbi.s:3200   .text:0000000000000c70 .LVL344
     /tmp/ccqYKUbi.s:3218   .text:0000000000000c90 .LVL346
     /tmp/ccqYKUbi.s:3229   .text:0000000000000ca8 .LVL348
     /tmp/ccqYKUbi.s:3258   .text:0000000000000cdc .LVL352
     /tmp/ccqYKUbi.s:3260   .text:0000000000000ce0 .LVL353
     /tmp/ccqYKUbi.s:3266   .text:0000000000000ce4 .LVL354
     /tmp/ccqYKUbi.s:3268   .text:0000000000000ce8 .LVL355
     /tmp/ccqYKUbi.s:3057   .text:0000000000000b48 .LVL327
     /tmp/ccqYKUbi.s:3069   .text:0000000000000b60 .LVL329
     /tmp/ccqYKUbi.s:3107   .text:0000000000000bb8 .LVL333
     /tmp/ccqYKUbi.s:3385   .text:0000000000000dd0 .LVL371
     /tmp/ccqYKUbi.s:2701   .text:00000000000008e4 .LVL285
     /tmp/ccqYKUbi.s:2726   .text:0000000000000914 .LVL287
     /tmp/ccqYKUbi.s:2829   .text:00000000000009cc .LVL302
     /tmp/ccqYKUbi.s:2826   .text:00000000000009c8 .LVL301
     /tmp/ccqYKUbi.s:2721   .text:000000000000090c .LVL286
     /tmp/ccqYKUbi.s:2734   .text:0000000000000920 .LVL289
     /tmp/ccqYKUbi.s:2757   .text:000000000000094c .LVL292
     /tmp/ccqYKUbi.s:2779   .text:0000000000000974 .LVL295
     /tmp/ccqYKUbi.s:2832   .text:00000000000009d0 .LVL303
     /tmp/ccqYKUbi.s:2761   .text:0000000000000950 .LVL293
     /tmp/ccqYKUbi.s:2796   .text:0000000000000990 .LVL297
     /tmp/ccqYKUbi.s:2847   .text._ZN8Consumer3runEv:0000000000000000 .LVL304
     /tmp/ccqYKUbi.s:2578   .text:0000000000000850 .LVL273
     /tmp/ccqYKUbi.s:2598   .text:0000000000000874 .LVL275
GAS LISTING /tmp/ccqYKUbi.s 			page 146


     /tmp/ccqYKUbi.s:2649   .text:00000000000008d8 .LVL281
     /tmp/ccqYKUbi.s:2593   .text:000000000000086c .LVL274
     /tmp/ccqYKUbi.s:2621   .text:00000000000008a4 .LVL278
     /tmp/ccqYKUbi.s:2634   .text:00000000000008c0 .LVL279
     /tmp/ccqYKUbi.s:2652   .text:00000000000008dc .LVL282
     /tmp/ccqYKUbi.s:2667   .text._ZN8Producer3runEv:0000000000000000 .LVL283
     /tmp/ccqYKUbi.s:2431   .text:0000000000000790 .LVL255
     /tmp/ccqYKUbi.s:2455   .text:00000000000007bc .LVL257
     /tmp/ccqYKUbi.s:2529   .text:0000000000000848 .LVL270
     /tmp/ccqYKUbi.s:2523   .text:0000000000000840 .LVL268
     /tmp/ccqYKUbi.s:2449   .text:00000000000007b4 .LVL256
     /tmp/ccqYKUbi.s:2469   .text:00000000000007d0 .LVL260
     /tmp/ccqYKUbi.s:2495   .text:0000000000000808 .LVL263
     /tmp/ccqYKUbi.s:2505   .text:000000000000081c .LVL264
     /tmp/ccqYKUbi.s:2507   .text:0000000000000820 .LVL265
     /tmp/ccqYKUbi.s:2482   .text:00000000000007ec .LVL262
     /tmp/ccqYKUbi.s:2526   .text:0000000000000844 .LVL269
     /tmp/ccqYKUbi.s:2544   .text._ZN16ProducerKeyboard3runEv:0000000000000000 .LVL271
     /tmp/ccqYKUbi.s:2235   .text:000000000000067c .LVL235
     /tmp/ccqYKUbi.s:2250   .text:00000000000006a0 .LVL237
     /tmp/ccqYKUbi.s:2252   .text:00000000000006a4 .LVL238
     /tmp/ccqYKUbi.s:2277   .text:00000000000006e0 .LVL240
     /tmp/ccqYKUbi.s:2290   .text:00000000000006f4 .LVL243
     /tmp/ccqYKUbi.s:2298   .text:0000000000000704 .LVL244
     /tmp/ccqYKUbi.s:2279   .text:00000000000006e4 .LVL241
     /tmp/ccqYKUbi.s:2300   .text:0000000000000708 .LVL245
     /tmp/ccqYKUbi.s:2355   .text:0000000000000784 .LVL254
     /tmp/ccqYKUbi.s:2126   .text:00000000000005a8 .LVL216
     /tmp/ccqYKUbi.s:2136   .text:00000000000005bc .LVL218
     /tmp/ccqYKUbi.s:2154   .text:00000000000005e0 .LVL221
     /tmp/ccqYKUbi.s:2164   .text:00000000000005f4 .LVL223
     /tmp/ccqYKUbi.s:2182   .text:0000000000000618 .LVL226
     /tmp/ccqYKUbi.s:2192   .text:000000000000062c .LVL228
     /tmp/ccqYKUbi.s:2210   .text:0000000000000650 .LVL231
     /tmp/ccqYKUbi.s:2220   .text:0000000000000664 .LVL233
     /tmp/ccqYKUbi.s:1900   .text:0000000000000438 .LVL188
     /tmp/ccqYKUbi.s:1918   .text:0000000000000458 .LVL190
     /tmp/ccqYKUbi.s:1914   .text:0000000000000450 .LVL189
     /tmp/ccqYKUbi.s:1939   .text:0000000000000490 .LVL194
     /tmp/ccqYKUbi.s:1941   .text:0000000000000494 .LVL195
     /tmp/ccqYKUbi.s:2009   .text:0000000000000538 .LVL207
     /tmp/ccqYKUbi.s:2011   .text:000000000000053c .LVL208
     /tmp/ccqYKUbi.s:2038   .text:0000000000000574 .LVL211
     /tmp/ccqYKUbi.s:1969   .text:00000000000004c8 .LVL199
     /tmp/ccqYKUbi.s:1973   .text:00000000000004d0 .LVL200
     /tmp/ccqYKUbi.s:2041   .text:0000000000000578 .LVL212
     /tmp/ccqYKUbi.s:1671   .text:00000000000002b8 .LVL157
     /tmp/ccqYKUbi.s:1689   .text:00000000000002d8 .LVL159
     /tmp/ccqYKUbi.s:1685   .text:00000000000002d0 .LVL158
     /tmp/ccqYKUbi.s:1710   .text:0000000000000310 .LVL163
     /tmp/ccqYKUbi.s:1712   .text:0000000000000314 .LVL164
     /tmp/ccqYKUbi.s:1806   .text:00000000000003f0 .LVL180
     /tmp/ccqYKUbi.s:1808   .text:00000000000003f4 .LVL181
     /tmp/ccqYKUbi.s:1835   .text:000000000000042c .LVL184
     /tmp/ccqYKUbi.s:1741   .text:000000000000033c .LVL167
     /tmp/ccqYKUbi.s:1766   .text:0000000000000380 .LVL172
     /tmp/ccqYKUbi.s:1770   .text:0000000000000388 .LVL173
GAS LISTING /tmp/ccqYKUbi.s 			page 147


     /tmp/ccqYKUbi.s:1838   .text:0000000000000430 .LVL185
     /tmp/ccqYKUbi.s:1491   .text:00000000000001e4 .LVL139
     /tmp/ccqYKUbi.s:1510   .text:0000000000000204 .LVL141
     /tmp/ccqYKUbi.s:1505   .text:00000000000001fc .LVL140
     /tmp/ccqYKUbi.s:1606   .text:00000000000002b0 .LVL154
     /tmp/ccqYKUbi.s:1550   .text:0000000000000238 .LVL147
     /tmp/ccqYKUbi.s:1578   .text:000000000000027c .LVL151
     /tmp/ccqYKUbi.s:1533   .text:0000000000000220 .LVL144
     /tmp/ccqYKUbi.s:1542   .text:0000000000000234 .LVL146
     /tmp/ccqYKUbi.s:1324   .text:0000000000000118 .LVL122
     /tmp/ccqYKUbi.s:1343   .text:0000000000000138 .LVL124
     /tmp/ccqYKUbi.s:1338   .text:0000000000000130 .LVL123
     /tmp/ccqYKUbi.s:1435   .text:00000000000001dc .LVL136
     /tmp/ccqYKUbi.s:1383   .text:000000000000016c .LVL130
     /tmp/ccqYKUbi.s:1411   .text:00000000000001b0 .LVL134
     /tmp/ccqYKUbi.s:1366   .text:0000000000000154 .LVL127
     /tmp/ccqYKUbi.s:1375   .text:0000000000000168 .LVL129
     /tmp/ccqYKUbi.s:2056   .text._ZN7WorkerD3runEv:0000000000000000 .LVL213
     /tmp/ccqYKUbi.s:1853   .text._ZN7WorkerC3runEv:0000000000000000 .LVL186
     /tmp/ccqYKUbi.s:1621   .text._ZN7WorkerB3runEv:0000000000000000 .LVL155
     /tmp/ccqYKUbi.s:1450   .text._ZN7WorkerA3runEv:0000000000000000 .LVL137
     /tmp/ccqYKUbi.s:1242   .text:00000000000000a4 .LVL115
     /tmp/ccqYKUbi.s:1265   .text:00000000000000d4 .LVL116
     /tmp/ccqYKUbi.s:1289   .text:0000000000000100 .LVL119
     /tmp/ccqYKUbi.s:1295   .text:000000000000010c .LVL120
     /tmp/ccqYKUbi.s:4354   .debug_info:0000000000000000 .Ldebug_info0
     /tmp/ccqYKUbi.s:5      .text:0000000000000000 .Ltext0
     /tmp/ccqYKUbi.s:4346   .text:00000000000012e4 .Letext0
     /tmp/ccqYKUbi.s:960    .text._ZN19ConsumerProducerCPP8Consumer3runEv:0000000000000028 .LBB100
     /tmp/ccqYKUbi.s:967    .text._ZN19ConsumerProducerCPP8Consumer3runEv:0000000000000034 .LBE100
     /tmp/ccqYKUbi.s:972    .text._ZN19ConsumerProducerCPP8Consumer3runEv:0000000000000040 .LBB101
     /tmp/ccqYKUbi.s:1000   .text._ZN19ConsumerProducerCPP8Consumer3runEv:0000000000000074 .LBE101
     /tmp/ccqYKUbi.s:1346   .text:0000000000000138 .LBB105
     /tmp/ccqYKUbi.s:1379   .text:0000000000000168 .LBE105
     /tmp/ccqYKUbi.s:1407   .text:00000000000001a8 .LBB109
     /tmp/ccqYKUbi.s:1413   .text:00000000000001b0 .LBE109
     /tmp/ccqYKUbi.s:1513   .text:0000000000000204 .LBB113
     /tmp/ccqYKUbi.s:1546   .text:0000000000000234 .LBE113
     /tmp/ccqYKUbi.s:1574   .text:0000000000000274 .LBB117
     /tmp/ccqYKUbi.s:1580   .text:000000000000027c .LBE117
     /tmp/ccqYKUbi.s:2728   .text:0000000000000914 .LBB129
     /tmp/ccqYKUbi.s:2742   .text:000000000000092c .LBE129
     /tmp/ccqYKUbi.s:2747   .text:0000000000000938 .LBB130
     /tmp/ccqYKUbi.s:2784   .text:000000000000097c .LBE130
     /tmp/ccqYKUbi.s:3128   .text:0000000000000bdc .LBB134
     /tmp/ccqYKUbi.s:3238   .text:0000000000000cb8 .LBE134
     /tmp/ccqYKUbi.s:3398   .text:0000000000000dec .LBB143
     /tmp/ccqYKUbi.s:3420   .text:0000000000000e20 .LBE143
     /tmp/ccqYKUbi.s:3142   .text:0000000000000bf4 .LBE135
     /tmp/ccqYKUbi.s:3193   .text:0000000000000c64 .LBB138
     /tmp/ccqYKUbi.s:3203   .text:0000000000000c70 .LBE138
     /tmp/ccqYKUbi.s:3839   .text:00000000000010ec .LBB149
     /tmp/ccqYKUbi.s:3903   .text:0000000000001164 .LBE149
     /tmp/ccqYKUbi.s:4075   .text:00000000000012b4 .LBB157
     /tmp/ccqYKUbi.s:4085   .text:00000000000012cc .LBE157
     /tmp/ccqYKUbi.s:3853   .text:0000000000001104 .LBE150
     /tmp/ccqYKUbi.s:3892   .text:0000000000001158 .LBB153
GAS LISTING /tmp/ccqYKUbi.s 			page 148


     /tmp/ccqYKUbi.s:3902   .text:0000000000001164 .LBE153
     /tmp/ccqYKUbi.s:3909   .text:000000000000116c .LBB154
     /tmp/ccqYKUbi.s:3927   .text:000000000000118c .LBE154
     /tmp/ccqYKUbi.s:3939   .text:00000000000011a4 .LBB155
     /tmp/ccqYKUbi.s:3946   .text:00000000000011ac .LBE155
     /tmp/ccqYKUbi.s:2365   .gcc_except_table:0000000000000000 .LLSDA35
     /tmp/ccqYKUbi.s:3424   .gcc_except_table:00000000000000ae .LLSDA51
     /tmp/ccqYKUbi.s:4089   .gcc_except_table:0000000000000183 .LLSDA66
                           .group:0000000000000000 _ZN7WorkerAD5Ev
                           .group:0000000000000000 _ZN7WorkerBD5Ev
                           .group:0000000000000000 _ZN7WorkerCD5Ev
                           .group:0000000000000000 _ZN7WorkerDD5Ev
                           .group:0000000000000000 _ZN8ConsumerD5Ev
                           .group:0000000000000000 _ZN8ProducerD5Ev
                           .group:0000000000000000 _ZN16ProducerKeyboardD5Ev
                           .group:0000000000000000 _ZN19ConsumerProducerCPP8ConsumerD5Ev
                           .group:0000000000000000 _ZN19ConsumerProducerCPP16ProducerKeyboradD5Ev
                           .group:0000000000000000 _ZN19ConsumerProducerCPP8ProducerD5Ev

UNDEFINED SYMBOLS
_ZN6ThreadD2Ev
_ZdlPv
_Z4getcv
_ZN9BufferCPP3putEi
_ZN9Semaphore6signalEv
_ZN7Console4putcEc
_ZN9BufferCPP3getEv
_ZN9BufferCPP6getCntEv
_Z11printStringPKc
_Z8printIntiii
_Z10time_sleepm
_ZN6Thread5sleepEm
_Z15thread_dispatchv
_Znwm
_ZN6ThreadC2Ev
_ZN6Thread5startEv
_ZN6Thread8dispatchEv
_Unwind_Resume
__gxx_personality_v0
_Z4putcc
_Z9getStringPci
_Z11stringToIntPKc
_ZN9BufferCPPC1Ei
_ZN9SemaphoreC1Ej
_ZN9Semaphore4waitEv
_ZN9BufferCPPD1Ev
_Z13thread_createPP7_threadPFvPvES2_
