GAS LISTING /tmp/ccZXeySo.s 			page 1


   1              		.file	"userMain.cpp"
   2              		.option pic
   3              		.option norelax
   4              		.text
   5              	.Ltext0:
   6              		.section	.text._ZN19ConsumerProducerCPP8Consumer3runEv,"axG",@progbits,_ZN19ConsumerProducerCPP8Co
   7              		.align	2
   8              		.weak	_ZN19ConsumerProducerCPP8Consumer3runEv
  10              	_ZN19ConsumerProducerCPP8Consumer3runEv:
  11              	.LFB25:
  12              		.file 1 "tests/ConsumerProducer_CPP_API_test.hpp"
   1:tests/ConsumerProducer_CPP_API_test.hpp **** //
   2:tests/ConsumerProducer_CPP_API_test.hpp **** // Created by os on 4/17/22.
   3:tests/ConsumerProducer_CPP_API_test.hpp **** //
   4:tests/ConsumerProducer_CPP_API_test.hpp **** 
   5:tests/ConsumerProducer_CPP_API_test.hpp **** #ifndef XV6_CONSUMERPRODUCER_CPP_API_TEST_HPP
   6:tests/ConsumerProducer_CPP_API_test.hpp **** #define XV6_CONSUMERPRODUCER_CPP_API_TEST_HPP
   7:tests/ConsumerProducer_CPP_API_test.hpp **** 
   8:tests/ConsumerProducer_CPP_API_test.hpp **** #include "../h/syscall_cpp.hpp"
   9:tests/ConsumerProducer_CPP_API_test.hpp **** 
  10:tests/ConsumerProducer_CPP_API_test.hpp **** #include "buffer_CPP_API.hpp"
  11:tests/ConsumerProducer_CPP_API_test.hpp **** #include "../h/printing.hpp"
  12:tests/ConsumerProducer_CPP_API_test.hpp **** 
  13:tests/ConsumerProducer_CPP_API_test.hpp **** namespace ConsumerProducerCPP {
  14:tests/ConsumerProducer_CPP_API_test.hpp **** 
  15:tests/ConsumerProducer_CPP_API_test.hpp ****     Semaphore *waitForAll;
  16:tests/ConsumerProducer_CPP_API_test.hpp **** 
  17:tests/ConsumerProducer_CPP_API_test.hpp ****     struct thread_data {
  18:tests/ConsumerProducer_CPP_API_test.hpp ****         int id;
  19:tests/ConsumerProducer_CPP_API_test.hpp ****         BufferCPP *buffer;
  20:tests/ConsumerProducer_CPP_API_test.hpp ****         Semaphore *sem;
  21:tests/ConsumerProducer_CPP_API_test.hpp ****     };
  22:tests/ConsumerProducer_CPP_API_test.hpp **** 
  23:tests/ConsumerProducer_CPP_API_test.hpp ****     volatile int threadEnd = 0;
  24:tests/ConsumerProducer_CPP_API_test.hpp **** 
  25:tests/ConsumerProducer_CPP_API_test.hpp ****     class ProducerKeyborad : public Thread {
  26:tests/ConsumerProducer_CPP_API_test.hpp ****         thread_data *td;
  27:tests/ConsumerProducer_CPP_API_test.hpp ****     public:
  28:tests/ConsumerProducer_CPP_API_test.hpp ****         ProducerKeyborad(thread_data *_td) : Thread(), td(_td) {}
  29:tests/ConsumerProducer_CPP_API_test.hpp **** 
  30:tests/ConsumerProducer_CPP_API_test.hpp ****         void run() override {
  31:tests/ConsumerProducer_CPP_API_test.hpp ****             int key;
  32:tests/ConsumerProducer_CPP_API_test.hpp ****             int i = 0;
  33:tests/ConsumerProducer_CPP_API_test.hpp ****             while ((key = getc()) != 0x1b) {
  34:tests/ConsumerProducer_CPP_API_test.hpp ****                 td->buffer->put(key);
  35:tests/ConsumerProducer_CPP_API_test.hpp ****                 i++;
  36:tests/ConsumerProducer_CPP_API_test.hpp ****             }
  37:tests/ConsumerProducer_CPP_API_test.hpp **** 
  38:tests/ConsumerProducer_CPP_API_test.hpp ****             threadEnd = 1;
  39:tests/ConsumerProducer_CPP_API_test.hpp ****             td->buffer->put('!');
  40:tests/ConsumerProducer_CPP_API_test.hpp **** 
  41:tests/ConsumerProducer_CPP_API_test.hpp ****             td->sem->signal();
  42:tests/ConsumerProducer_CPP_API_test.hpp ****         }
  43:tests/ConsumerProducer_CPP_API_test.hpp ****     };
  44:tests/ConsumerProducer_CPP_API_test.hpp **** 
  45:tests/ConsumerProducer_CPP_API_test.hpp ****     class Producer : public Thread {
  46:tests/ConsumerProducer_CPP_API_test.hpp ****         thread_data *td;
GAS LISTING /tmp/ccZXeySo.s 			page 2


  47:tests/ConsumerProducer_CPP_API_test.hpp ****     public:
  48:tests/ConsumerProducer_CPP_API_test.hpp ****         Producer(thread_data *_td) : Thread(), td(_td) {}
  49:tests/ConsumerProducer_CPP_API_test.hpp **** 
  50:tests/ConsumerProducer_CPP_API_test.hpp ****         void run() override {
  51:tests/ConsumerProducer_CPP_API_test.hpp ****             int i = 0;
  52:tests/ConsumerProducer_CPP_API_test.hpp ****             while (!threadEnd) {
  53:tests/ConsumerProducer_CPP_API_test.hpp ****                 td->buffer->put(td->id + '0');
  54:tests/ConsumerProducer_CPP_API_test.hpp ****                 i++;
  55:tests/ConsumerProducer_CPP_API_test.hpp ****                 Thread::sleep((i+td->id)%5);
  56:tests/ConsumerProducer_CPP_API_test.hpp ****             }
  57:tests/ConsumerProducer_CPP_API_test.hpp **** 
  58:tests/ConsumerProducer_CPP_API_test.hpp ****             td->sem->signal();
  59:tests/ConsumerProducer_CPP_API_test.hpp ****         }
  60:tests/ConsumerProducer_CPP_API_test.hpp ****     };
  61:tests/ConsumerProducer_CPP_API_test.hpp **** 
  62:tests/ConsumerProducer_CPP_API_test.hpp ****     class Consumer : public Thread {
  63:tests/ConsumerProducer_CPP_API_test.hpp ****         thread_data *td;
  64:tests/ConsumerProducer_CPP_API_test.hpp ****     public:
  65:tests/ConsumerProducer_CPP_API_test.hpp ****         Consumer(thread_data *_td) : Thread(), td(_td) {}
  66:tests/ConsumerProducer_CPP_API_test.hpp **** 
  67:tests/ConsumerProducer_CPP_API_test.hpp ****         void run() override {
  13              		.loc 1 67 14
  14              		.cfi_startproc
  15              	.LVL0:
  16 0000 130101FD 		addi	sp,sp,-48
  17              		.cfi_def_cfa_offset 48
  18 0004 23341102 		sd	ra,40(sp)
  19 0008 23308102 		sd	s0,32(sp)
  20 000c 233C9100 		sd	s1,24(sp)
  21 0010 23382101 		sd	s2,16(sp)
  22 0014 23343101 		sd	s3,8(sp)
  23              		.cfi_offset 1, -8
  24              		.cfi_offset 8, -16
  25              		.cfi_offset 9, -24
  26              		.cfi_offset 18, -32
  27              		.cfi_offset 19, -40
  28 0018 13040103 		addi	s0,sp,48
  29              		.cfi_def_cfa 8, 0
  30 001c 13090500 		mv	s2,a0
  68:tests/ConsumerProducer_CPP_API_test.hpp ****             int i = 0;
  31              		.loc 1 68 13
  32              	.LVL1:
  33              		.loc 1 68 17 is_stmt 0
  34 0020 93090000 		li	s3,0
  35 0024 6F000001 		j	.L2
  36              	.LVL2:
  37              	.L7:
  38              	.LBB23:
  69:tests/ConsumerProducer_CPP_API_test.hpp ****             while (!threadEnd) {
  70:tests/ConsumerProducer_CPP_API_test.hpp ****                 int key = td->buffer->get();
  71:tests/ConsumerProducer_CPP_API_test.hpp ****                 i++;
  72:tests/ConsumerProducer_CPP_API_test.hpp **** 
  73:tests/ConsumerProducer_CPP_API_test.hpp ****                 Console::putc(key);
  74:tests/ConsumerProducer_CPP_API_test.hpp **** 
  75:tests/ConsumerProducer_CPP_API_test.hpp ****                 if (i % 80 == 0) {
  76:tests/ConsumerProducer_CPP_API_test.hpp ****                     Console::putc('\n');
  39              		.loc 1 76 21 is_stmt 1
GAS LISTING /tmp/ccZXeySo.s 			page 3


  40              		.loc 1 76 34 is_stmt 0
  41 0028 1305A000 		li	a0,10
  42 002c 97000000 		call	_ZN7Console4putcEc@plt
  42      E7800000 
  43              	.LVL3:
  44              	.L2:
  45              	.LBE23:
  69:tests/ConsumerProducer_CPP_API_test.hpp ****             while (!threadEnd) {
  46              		.loc 1 69 13 is_stmt 1
  69:tests/ConsumerProducer_CPP_API_test.hpp ****             while (!threadEnd) {
  47              		.loc 1 69 20
  48 0034 97070000 		lw	a5,.LANCHOR0
  48      83A70700 
  49 003c 639A0704 		bnez	a5,.L3
  50              	.LBB24:
  70:tests/ConsumerProducer_CPP_API_test.hpp ****                 i++;
  51              		.loc 1 70 17
  70:tests/ConsumerProducer_CPP_API_test.hpp ****                 i++;
  52              		.loc 1 70 27 is_stmt 0
  53 0040 83370901 		ld	a5,16(s2)
  70:tests/ConsumerProducer_CPP_API_test.hpp ****                 i++;
  54              		.loc 1 70 42
  55 0044 03B58700 		ld	a0,8(a5)
  56 0048 97000000 		call	_ZN9BufferCPP3getEv@plt
  56      E7800000 
  57              	.LVL4:
  71:tests/ConsumerProducer_CPP_API_test.hpp **** 
  58              		.loc 1 71 17 is_stmt 1
  71:tests/ConsumerProducer_CPP_API_test.hpp **** 
  59              		.loc 1 71 18 is_stmt 0
  60 0050 9B841900 		addiw	s1,s3,1
  61 0054 9B890400 		sext.w	s3,s1
  62              	.LVL5:
  73:tests/ConsumerProducer_CPP_API_test.hpp **** 
  63              		.loc 1 73 17 is_stmt 1
  73:tests/ConsumerProducer_CPP_API_test.hpp **** 
  64              		.loc 1 73 30 is_stmt 0
  65 0058 1375F50F 		andi	a0,a0,0xff
  66              	.LVL6:
  67 005c 97000000 		call	_ZN7Console4putcEc@plt
  67      E7800000 
  68              	.LVL7:
  75:tests/ConsumerProducer_CPP_API_test.hpp ****                     Console::putc('\n');
  69              		.loc 1 75 17 is_stmt 1
  75:tests/ConsumerProducer_CPP_API_test.hpp ****                     Console::putc('\n');
  70              		.loc 1 75 23 is_stmt 0
  71 0064 93070005 		li	a5,80
  72 0068 BBE4F402 		remw	s1,s1,a5
  73              	.LVL8:
  75:tests/ConsumerProducer_CPP_API_test.hpp ****                     Console::putc('\n');
  74              		.loc 1 75 17
  75 006c E39404FC 		bnez	s1,.L2
  76 0070 6FF09FFB 		j	.L7
  77              	.L8:
  78              	.LBE24:
  79              	.LBB25:
  77:tests/ConsumerProducer_CPP_API_test.hpp ****                 }
GAS LISTING /tmp/ccZXeySo.s 			page 4


  78:tests/ConsumerProducer_CPP_API_test.hpp ****             }
  79:tests/ConsumerProducer_CPP_API_test.hpp **** 
  80:tests/ConsumerProducer_CPP_API_test.hpp ****             while (td->buffer->getCnt() > 0) {
  81:tests/ConsumerProducer_CPP_API_test.hpp ****                 int key = td->buffer->get();
  80              		.loc 1 81 17 is_stmt 1
  81              		.loc 1 81 27 is_stmt 0
  82 0074 83370901 		ld	a5,16(s2)
  83              		.loc 1 81 42
  84 0078 03B58700 		ld	a0,8(a5)
  85 007c 97000000 		call	_ZN9BufferCPP3getEv@plt
  85      E7800000 
  86              	.LVL9:
  82:tests/ConsumerProducer_CPP_API_test.hpp ****                 Console::putc(key);
  87              		.loc 1 82 17 is_stmt 1
  88              		.loc 1 82 30 is_stmt 0
  89 0084 1375F50F 		andi	a0,a0,0xff
  90              	.LVL10:
  91 0088 97000000 		call	_ZN7Console4putcEc@plt
  91      E7800000 
  92              	.LVL11:
  93              	.L3:
  94              	.LBE25:
  80:tests/ConsumerProducer_CPP_API_test.hpp ****                 int key = td->buffer->get();
  95              		.loc 1 80 13 is_stmt 1
  80:tests/ConsumerProducer_CPP_API_test.hpp ****                 int key = td->buffer->get();
  96              		.loc 1 80 41
  80:tests/ConsumerProducer_CPP_API_test.hpp ****                 int key = td->buffer->get();
  97              		.loc 1 80 20 is_stmt 0
  98 0090 83370901 		ld	a5,16(s2)
  80:tests/ConsumerProducer_CPP_API_test.hpp ****                 int key = td->buffer->get();
  99              		.loc 1 80 38
 100 0094 03B58700 		ld	a0,8(a5)
 101 0098 97000000 		call	_ZN9BufferCPP6getCntEv@plt
 101      E7800000 
 102              	.LVL12:
  80:tests/ConsumerProducer_CPP_API_test.hpp ****                 int key = td->buffer->get();
 103              		.loc 1 80 41
 104 00a0 E34AA0FC 		bgtz	a0,.L8
  83:tests/ConsumerProducer_CPP_API_test.hpp ****             }
  84:tests/ConsumerProducer_CPP_API_test.hpp **** 
  85:tests/ConsumerProducer_CPP_API_test.hpp ****             td->sem->signal();
 105              		.loc 1 85 13 is_stmt 1
 106 00a4 83370901 		ld	a5,16(s2)
 107              		.loc 1 85 28 is_stmt 0
 108 00a8 03B50701 		ld	a0,16(a5)
 109 00ac 97000000 		call	_ZN9Semaphore6signalEv@plt
 109      E7800000 
 110              	.LVL13:
  86:tests/ConsumerProducer_CPP_API_test.hpp ****         }
 111              		.loc 1 86 9
 112 00b4 83308102 		ld	ra,40(sp)
 113              		.cfi_restore 1
 114 00b8 03340102 		ld	s0,32(sp)
 115              		.cfi_restore 8
 116              		.cfi_def_cfa 2, 48
 117 00bc 83348101 		ld	s1,24(sp)
 118              		.cfi_restore 9
GAS LISTING /tmp/ccZXeySo.s 			page 5


 119 00c0 03390101 		ld	s2,16(sp)
 120              		.cfi_restore 18
 121              	.LVL14:
 122 00c4 83398100 		ld	s3,8(sp)
 123              		.cfi_restore 19
 124              	.LVL15:
 125 00c8 13010103 		addi	sp,sp,48
 126              		.cfi_def_cfa_offset 0
 127 00cc 67800000 		jr	ra
 128              		.cfi_endproc
 129              	.LFE25:
 131              		.section	.text._ZN19ConsumerProducerCPP8ConsumerD2Ev,"axG",@progbits,_ZN19ConsumerProducerCPP8Cons
 132              		.align	2
 133              		.weak	_ZN19ConsumerProducerCPP8ConsumerD2Ev
 135              	_ZN19ConsumerProducerCPP8ConsumerD2Ev:
 136              	.LFB29:
  62:tests/ConsumerProducer_CPP_API_test.hpp ****         thread_data *td;
 137              		.loc 1 62 11 is_stmt 1
 138              		.cfi_startproc
 139              	.LVL16:
 140 0000 130101FF 		addi	sp,sp,-16
 141              		.cfi_def_cfa_offset 16
 142 0004 23341100 		sd	ra,8(sp)
 143 0008 23308100 		sd	s0,0(sp)
 144              		.cfi_offset 1, -8
 145              		.cfi_offset 8, -16
 146 000c 13040101 		addi	s0,sp,16
 147              		.cfi_def_cfa 8, 0
 148              	.LBB26:
  62:tests/ConsumerProducer_CPP_API_test.hpp ****         thread_data *td;
 149              		.loc 1 62 11 is_stmt 0
 150 0010 97070000 		lla	a5,_ZTVN19ConsumerProducerCPP8ConsumerE+16
 150      93870700 
 151 0018 2330F500 		sd	a5,0(a0)
 152 001c 97000000 		call	_ZN6ThreadD2Ev@plt
 152      E7800000 
 153              	.LVL17:
 154              	.LBE26:
 155 0024 83308100 		ld	ra,8(sp)
 156              		.cfi_restore 1
 157 0028 03340100 		ld	s0,0(sp)
 158              		.cfi_restore 8
 159              		.cfi_def_cfa 2, 16
 160 002c 13010101 		addi	sp,sp,16
 161              		.cfi_def_cfa_offset 0
 162 0030 67800000 		jr	ra
 163              		.cfi_endproc
 164              	.LFE29:
 166              		.weak	_ZN19ConsumerProducerCPP8ConsumerD1Ev
 167              		.set	_ZN19ConsumerProducerCPP8ConsumerD1Ev,_ZN19ConsumerProducerCPP8ConsumerD2Ev
 168              		.section	.text._ZN19ConsumerProducerCPP8ConsumerD0Ev,"axG",@progbits,_ZN19ConsumerProducerCPP8Cons
 169              		.align	2
 170              		.weak	_ZN19ConsumerProducerCPP8ConsumerD0Ev
 172              	_ZN19ConsumerProducerCPP8ConsumerD0Ev:
 173              	.LFB31:
  62:tests/ConsumerProducer_CPP_API_test.hpp ****         thread_data *td;
 174              		.loc 1 62 11 is_stmt 1
GAS LISTING /tmp/ccZXeySo.s 			page 6


 175              		.cfi_startproc
 176              	.LVL18:
 177 0000 130101FE 		addi	sp,sp,-32
 178              		.cfi_def_cfa_offset 32
 179 0004 233C1100 		sd	ra,24(sp)
 180 0008 23388100 		sd	s0,16(sp)
 181 000c 23349100 		sd	s1,8(sp)
 182              		.cfi_offset 1, -8
 183              		.cfi_offset 8, -16
 184              		.cfi_offset 9, -24
 185 0010 13040102 		addi	s0,sp,32
 186              		.cfi_def_cfa 8, 0
 187 0014 93040500 		mv	s1,a0
 188              	.LVL19:
 189              	.LBB27:
 190              	.LBB28:
  62:tests/ConsumerProducer_CPP_API_test.hpp ****         thread_data *td;
 191              		.loc 1 62 11 is_stmt 0
 192 0018 97070000 		lla	a5,_ZTVN19ConsumerProducerCPP8ConsumerE+16
 192      93870700 
 193 0020 2330F500 		sd	a5,0(a0)
 194 0024 97000000 		call	_ZN6ThreadD2Ev@plt
 194      E7800000 
 195              	.LVL20:
 196              	.LBE28:
 197              	.LBE27:
 198 002c 13850400 		mv	a0,s1
 199 0030 97000000 		call	_ZdlPv@plt
 199      E7800000 
 200              	.LVL21:
 201 0038 83308101 		ld	ra,24(sp)
 202              		.cfi_restore 1
 203 003c 03340101 		ld	s0,16(sp)
 204              		.cfi_restore 8
 205              		.cfi_def_cfa 2, 32
 206 0040 83348100 		ld	s1,8(sp)
 207              		.cfi_restore 9
 208              	.LVL22:
 209 0044 13010102 		addi	sp,sp,32
 210              		.cfi_def_cfa_offset 0
 211 0048 67800000 		jr	ra
 212              		.cfi_endproc
 213              	.LFE31:
 215              		.section	.text._ZN19ConsumerProducerCPP16ProducerKeyboradD2Ev,"axG",@progbits,_ZN19ConsumerProduce
 216              		.align	2
 217              		.weak	_ZN19ConsumerProducerCPP16ProducerKeyboradD2Ev
 219              	_ZN19ConsumerProducerCPP16ProducerKeyboradD2Ev:
 220              	.LFB37:
  25:tests/ConsumerProducer_CPP_API_test.hpp ****         thread_data *td;
 221              		.loc 1 25 11 is_stmt 1
 222              		.cfi_startproc
 223              	.LVL23:
 224 0000 130101FF 		addi	sp,sp,-16
 225              		.cfi_def_cfa_offset 16
 226 0004 23341100 		sd	ra,8(sp)
 227 0008 23308100 		sd	s0,0(sp)
 228              		.cfi_offset 1, -8
GAS LISTING /tmp/ccZXeySo.s 			page 7


 229              		.cfi_offset 8, -16
 230 000c 13040101 		addi	s0,sp,16
 231              		.cfi_def_cfa 8, 0
 232              	.LBB29:
  25:tests/ConsumerProducer_CPP_API_test.hpp ****         thread_data *td;
 233              		.loc 1 25 11 is_stmt 0
 234 0010 97070000 		lla	a5,_ZTVN19ConsumerProducerCPP16ProducerKeyboradE+16
 234      93870700 
 235 0018 2330F500 		sd	a5,0(a0)
 236 001c 97000000 		call	_ZN6ThreadD2Ev@plt
 236      E7800000 
 237              	.LVL24:
 238              	.LBE29:
 239 0024 83308100 		ld	ra,8(sp)
 240              		.cfi_restore 1
 241 0028 03340100 		ld	s0,0(sp)
 242              		.cfi_restore 8
 243              		.cfi_def_cfa 2, 16
 244 002c 13010101 		addi	sp,sp,16
 245              		.cfi_def_cfa_offset 0
 246 0030 67800000 		jr	ra
 247              		.cfi_endproc
 248              	.LFE37:
 250              		.weak	_ZN19ConsumerProducerCPP16ProducerKeyboradD1Ev
 251              		.set	_ZN19ConsumerProducerCPP16ProducerKeyboradD1Ev,_ZN19ConsumerProducerCPP16ProducerKeyboradD2Ev
 252              		.section	.text._ZN19ConsumerProducerCPP16ProducerKeyboradD0Ev,"axG",@progbits,_ZN19ConsumerProduce
 253              		.align	2
 254              		.weak	_ZN19ConsumerProducerCPP16ProducerKeyboradD0Ev
 256              	_ZN19ConsumerProducerCPP16ProducerKeyboradD0Ev:
 257              	.LFB39:
  25:tests/ConsumerProducer_CPP_API_test.hpp ****         thread_data *td;
 258              		.loc 1 25 11 is_stmt 1
 259              		.cfi_startproc
 260              	.LVL25:
 261 0000 130101FE 		addi	sp,sp,-32
 262              		.cfi_def_cfa_offset 32
 263 0004 233C1100 		sd	ra,24(sp)
 264 0008 23388100 		sd	s0,16(sp)
 265 000c 23349100 		sd	s1,8(sp)
 266              		.cfi_offset 1, -8
 267              		.cfi_offset 8, -16
 268              		.cfi_offset 9, -24
 269 0010 13040102 		addi	s0,sp,32
 270              		.cfi_def_cfa 8, 0
 271 0014 93040500 		mv	s1,a0
 272              	.LVL26:
 273              	.LBB30:
 274              	.LBB31:
  25:tests/ConsumerProducer_CPP_API_test.hpp ****         thread_data *td;
 275              		.loc 1 25 11 is_stmt 0
 276 0018 97070000 		lla	a5,_ZTVN19ConsumerProducerCPP16ProducerKeyboradE+16
 276      93870700 
 277 0020 2330F500 		sd	a5,0(a0)
 278 0024 97000000 		call	_ZN6ThreadD2Ev@plt
 278      E7800000 
 279              	.LVL27:
 280              	.LBE31:
GAS LISTING /tmp/ccZXeySo.s 			page 8


 281              	.LBE30:
 282 002c 13850400 		mv	a0,s1
 283 0030 97000000 		call	_ZdlPv@plt
 283      E7800000 
 284              	.LVL28:
 285 0038 83308101 		ld	ra,24(sp)
 286              		.cfi_restore 1
 287 003c 03340101 		ld	s0,16(sp)
 288              		.cfi_restore 8
 289              		.cfi_def_cfa 2, 32
 290 0040 83348100 		ld	s1,8(sp)
 291              		.cfi_restore 9
 292              	.LVL29:
 293 0044 13010102 		addi	sp,sp,32
 294              		.cfi_def_cfa_offset 0
 295 0048 67800000 		jr	ra
 296              		.cfi_endproc
 297              	.LFE39:
 299              		.section	.text._ZN19ConsumerProducerCPP8ProducerD2Ev,"axG",@progbits,_ZN19ConsumerProducerCPP8Prod
 300              		.align	2
 301              		.weak	_ZN19ConsumerProducerCPP8ProducerD2Ev
 303              	_ZN19ConsumerProducerCPP8ProducerD2Ev:
 304              	.LFB33:
  45:tests/ConsumerProducer_CPP_API_test.hpp ****         thread_data *td;
 305              		.loc 1 45 11 is_stmt 1
 306              		.cfi_startproc
 307              	.LVL30:
 308 0000 130101FF 		addi	sp,sp,-16
 309              		.cfi_def_cfa_offset 16
 310 0004 23341100 		sd	ra,8(sp)
 311 0008 23308100 		sd	s0,0(sp)
 312              		.cfi_offset 1, -8
 313              		.cfi_offset 8, -16
 314 000c 13040101 		addi	s0,sp,16
 315              		.cfi_def_cfa 8, 0
 316              	.LBB32:
  45:tests/ConsumerProducer_CPP_API_test.hpp ****         thread_data *td;
 317              		.loc 1 45 11 is_stmt 0
 318 0010 97070000 		lla	a5,_ZTVN19ConsumerProducerCPP8ProducerE+16
 318      93870700 
 319 0018 2330F500 		sd	a5,0(a0)
 320 001c 97000000 		call	_ZN6ThreadD2Ev@plt
 320      E7800000 
 321              	.LVL31:
 322              	.LBE32:
 323 0024 83308100 		ld	ra,8(sp)
 324              		.cfi_restore 1
 325 0028 03340100 		ld	s0,0(sp)
 326              		.cfi_restore 8
 327              		.cfi_def_cfa 2, 16
 328 002c 13010101 		addi	sp,sp,16
 329              		.cfi_def_cfa_offset 0
 330 0030 67800000 		jr	ra
 331              		.cfi_endproc
 332              	.LFE33:
 334              		.weak	_ZN19ConsumerProducerCPP8ProducerD1Ev
 335              		.set	_ZN19ConsumerProducerCPP8ProducerD1Ev,_ZN19ConsumerProducerCPP8ProducerD2Ev
GAS LISTING /tmp/ccZXeySo.s 			page 9


 336              		.section	.text._ZN19ConsumerProducerCPP8ProducerD0Ev,"axG",@progbits,_ZN19ConsumerProducerCPP8Prod
 337              		.align	2
 338              		.weak	_ZN19ConsumerProducerCPP8ProducerD0Ev
 340              	_ZN19ConsumerProducerCPP8ProducerD0Ev:
 341              	.LFB35:
  45:tests/ConsumerProducer_CPP_API_test.hpp ****         thread_data *td;
 342              		.loc 1 45 11 is_stmt 1
 343              		.cfi_startproc
 344              	.LVL32:
 345 0000 130101FE 		addi	sp,sp,-32
 346              		.cfi_def_cfa_offset 32
 347 0004 233C1100 		sd	ra,24(sp)
 348 0008 23388100 		sd	s0,16(sp)
 349 000c 23349100 		sd	s1,8(sp)
 350              		.cfi_offset 1, -8
 351              		.cfi_offset 8, -16
 352              		.cfi_offset 9, -24
 353 0010 13040102 		addi	s0,sp,32
 354              		.cfi_def_cfa 8, 0
 355 0014 93040500 		mv	s1,a0
 356              	.LVL33:
 357              	.LBB33:
 358              	.LBB34:
  45:tests/ConsumerProducer_CPP_API_test.hpp ****         thread_data *td;
 359              		.loc 1 45 11 is_stmt 0
 360 0018 97070000 		lla	a5,_ZTVN19ConsumerProducerCPP8ProducerE+16
 360      93870700 
 361 0020 2330F500 		sd	a5,0(a0)
 362 0024 97000000 		call	_ZN6ThreadD2Ev@plt
 362      E7800000 
 363              	.LVL34:
 364              	.LBE34:
 365              	.LBE33:
 366 002c 13850400 		mv	a0,s1
 367 0030 97000000 		call	_ZdlPv@plt
 367      E7800000 
 368              	.LVL35:
 369 0038 83308101 		ld	ra,24(sp)
 370              		.cfi_restore 1
 371 003c 03340101 		ld	s0,16(sp)
 372              		.cfi_restore 8
 373              		.cfi_def_cfa 2, 32
 374 0040 83348100 		ld	s1,8(sp)
 375              		.cfi_restore 9
 376              	.LVL36:
 377 0044 13010102 		addi	sp,sp,32
 378              		.cfi_def_cfa_offset 0
 379 0048 67800000 		jr	ra
 380              		.cfi_endproc
 381              	.LFE35:
 383              		.section	.text._ZN19ConsumerProducerCPP16ProducerKeyborad3runEv,"axG",@progbits,_ZN19ConsumerProdu
 384              		.align	2
 385              		.weak	_ZN19ConsumerProducerCPP16ProducerKeyborad3runEv
 387              	_ZN19ConsumerProducerCPP16ProducerKeyborad3runEv:
 388              	.LFB17:
  30:tests/ConsumerProducer_CPP_API_test.hpp ****             int key;
 389              		.loc 1 30 14 is_stmt 1
GAS LISTING /tmp/ccZXeySo.s 			page 10


 390              		.cfi_startproc
 391              	.LVL37:
 392 0000 130101FE 		addi	sp,sp,-32
 393              		.cfi_def_cfa_offset 32
 394 0004 233C1100 		sd	ra,24(sp)
 395 0008 23388100 		sd	s0,16(sp)
 396 000c 23349100 		sd	s1,8(sp)
 397              		.cfi_offset 1, -8
 398              		.cfi_offset 8, -16
 399              		.cfi_offset 9, -24
 400 0010 13040102 		addi	s0,sp,32
 401              		.cfi_def_cfa 8, 0
 402 0014 93040500 		mv	s1,a0
  31:tests/ConsumerProducer_CPP_API_test.hpp ****             int i = 0;
 403              		.loc 1 31 13
  32:tests/ConsumerProducer_CPP_API_test.hpp ****             while ((key = getc()) != 0x1b) {
 404              		.loc 1 32 13
 405              	.LVL38:
 406              	.L23:
  33:tests/ConsumerProducer_CPP_API_test.hpp ****                 td->buffer->put(key);
 407              		.loc 1 33 13
  33:tests/ConsumerProducer_CPP_API_test.hpp ****                 td->buffer->put(key);
 408              		.loc 1 33 35
  33:tests/ConsumerProducer_CPP_API_test.hpp ****                 td->buffer->put(key);
 409              		.loc 1 33 31 is_stmt 0
 410 0018 97000000 		call	_Z4getcv@plt
 410      E7800000 
 411              	.LVL39:
  33:tests/ConsumerProducer_CPP_API_test.hpp ****                 td->buffer->put(key);
 412              		.loc 1 33 25
 413 0020 9B050500 		sext.w	a1,a0
 414              	.LVL40:
  33:tests/ConsumerProducer_CPP_API_test.hpp ****                 td->buffer->put(key);
 415              		.loc 1 33 35
 416 0024 9307B001 		li	a5,27
 417 0028 638CF500 		beq	a1,a5,.L22
  34:tests/ConsumerProducer_CPP_API_test.hpp ****                 i++;
 418              		.loc 1 34 17 is_stmt 1
 419 002c 83B70401 		ld	a5,16(s1)
  34:tests/ConsumerProducer_CPP_API_test.hpp ****                 i++;
 420              		.loc 1 34 32 is_stmt 0
 421 0030 03B58700 		ld	a0,8(a5)
 422 0034 97000000 		call	_ZN9BufferCPP3putEi@plt
 422      E7800000 
 423              	.LVL41:
  35:tests/ConsumerProducer_CPP_API_test.hpp ****             }
 424              		.loc 1 35 17 is_stmt 1
  33:tests/ConsumerProducer_CPP_API_test.hpp ****                 td->buffer->put(key);
 425              		.loc 1 33 13 is_stmt 0
 426 003c 6FF0DFFD 		j	.L23
 427              	.LVL42:
 428              	.L22:
  38:tests/ConsumerProducer_CPP_API_test.hpp ****             td->buffer->put('!');
 429              		.loc 1 38 13 is_stmt 1
  38:tests/ConsumerProducer_CPP_API_test.hpp ****             td->buffer->put('!');
 430              		.loc 1 38 23 is_stmt 0
 431 0040 93071000 		li	a5,1
GAS LISTING /tmp/ccZXeySo.s 			page 11


 432 0044 17070000 		sw	a5,.LANCHOR0,a4
 432      2320F700 
  39:tests/ConsumerProducer_CPP_API_test.hpp **** 
 433              		.loc 1 39 13 is_stmt 1
 434 004c 83B70401 		ld	a5,16(s1)
  39:tests/ConsumerProducer_CPP_API_test.hpp **** 
 435              		.loc 1 39 28 is_stmt 0
 436 0050 93051002 		li	a1,33
 437              	.LVL43:
 438 0054 03B58700 		ld	a0,8(a5)
 439              	.LVL44:
 440 0058 97000000 		call	_ZN9BufferCPP3putEi@plt
 440      E7800000 
 441              	.LVL45:
  41:tests/ConsumerProducer_CPP_API_test.hpp ****         }
 442              		.loc 1 41 13 is_stmt 1
 443 0060 83B70401 		ld	a5,16(s1)
  41:tests/ConsumerProducer_CPP_API_test.hpp ****         }
 444              		.loc 1 41 28 is_stmt 0
 445 0064 03B50701 		ld	a0,16(a5)
 446 0068 97000000 		call	_ZN9Semaphore6signalEv@plt
 446      E7800000 
 447              	.LVL46:
  42:tests/ConsumerProducer_CPP_API_test.hpp ****     };
 448              		.loc 1 42 9
 449 0070 83308101 		ld	ra,24(sp)
 450              		.cfi_restore 1
 451 0074 03340101 		ld	s0,16(sp)
 452              		.cfi_restore 8
 453              		.cfi_def_cfa 2, 32
 454 0078 83348100 		ld	s1,8(sp)
 455              		.cfi_restore 9
 456              	.LVL47:
 457 007c 13010102 		addi	sp,sp,32
 458              		.cfi_def_cfa_offset 0
 459 0080 67800000 		jr	ra
 460              		.cfi_endproc
 461              	.LFE17:
 463              		.section	.text._ZN19ConsumerProducerCPP8Producer3runEv,"axG",@progbits,_ZN19ConsumerProducerCPP8Pr
 464              		.align	2
 465              		.weak	_ZN19ConsumerProducerCPP8Producer3runEv
 467              	_ZN19ConsumerProducerCPP8Producer3runEv:
 468              	.LFB21:
  50:tests/ConsumerProducer_CPP_API_test.hpp ****             int i = 0;
 469              		.loc 1 50 14 is_stmt 1
 470              		.cfi_startproc
 471              	.LVL48:
 472 0000 130101FE 		addi	sp,sp,-32
 473              		.cfi_def_cfa_offset 32
 474 0004 233C1100 		sd	ra,24(sp)
 475 0008 23388100 		sd	s0,16(sp)
 476 000c 23349100 		sd	s1,8(sp)
 477 0010 23302101 		sd	s2,0(sp)
 478              		.cfi_offset 1, -8
 479              		.cfi_offset 8, -16
 480              		.cfi_offset 9, -24
 481              		.cfi_offset 18, -32
GAS LISTING /tmp/ccZXeySo.s 			page 12


 482 0014 13040102 		addi	s0,sp,32
 483              		.cfi_def_cfa 8, 0
 484 0018 93040500 		mv	s1,a0
  51:tests/ConsumerProducer_CPP_API_test.hpp ****             while (!threadEnd) {
 485              		.loc 1 51 13
 486              	.LVL49:
  51:tests/ConsumerProducer_CPP_API_test.hpp ****             while (!threadEnd) {
 487              		.loc 1 51 17 is_stmt 0
 488 001c 13090000 		li	s2,0
 489              	.LVL50:
 490              	.L27:
  52:tests/ConsumerProducer_CPP_API_test.hpp ****                 td->buffer->put(td->id + '0');
 491              		.loc 1 52 13 is_stmt 1
  52:tests/ConsumerProducer_CPP_API_test.hpp ****                 td->buffer->put(td->id + '0');
 492              		.loc 1 52 20
 493 0020 97070000 		lw	a5,.LANCHOR0
 493      83A70700 
 494 0028 63920704 		bnez	a5,.L26
  53:tests/ConsumerProducer_CPP_API_test.hpp ****                 i++;
 495              		.loc 1 53 17
 496 002c 83B70401 		ld	a5,16(s1)
  53:tests/ConsumerProducer_CPP_API_test.hpp ****                 i++;
 497              		.loc 1 53 37 is_stmt 0
 498 0030 83A50700 		lw	a1,0(a5)
  53:tests/ConsumerProducer_CPP_API_test.hpp ****                 i++;
 499              		.loc 1 53 32
 500 0034 9B850503 		addiw	a1,a1,48
 501 0038 03B58700 		ld	a0,8(a5)
 502 003c 97000000 		call	_ZN9BufferCPP3putEi@plt
 502      E7800000 
 503              	.LVL51:
  54:tests/ConsumerProducer_CPP_API_test.hpp ****                 Thread::sleep((i+td->id)%5);
 504              		.loc 1 54 17 is_stmt 1
  54:tests/ConsumerProducer_CPP_API_test.hpp ****                 Thread::sleep((i+td->id)%5);
 505              		.loc 1 54 18 is_stmt 0
 506 0044 1B071900 		addiw	a4,s2,1
 507 0048 1B090700 		sext.w	s2,a4
 508              	.LVL52:
  55:tests/ConsumerProducer_CPP_API_test.hpp ****             }
 509              		.loc 1 55 17 is_stmt 1
  55:tests/ConsumerProducer_CPP_API_test.hpp ****             }
 510              		.loc 1 55 34 is_stmt 0
 511 004c 83B70401 		ld	a5,16(s1)
  55:tests/ConsumerProducer_CPP_API_test.hpp ****             }
 512              		.loc 1 55 38
 513 0050 83A70700 		lw	a5,0(a5)
  55:tests/ConsumerProducer_CPP_API_test.hpp ****             }
 514              		.loc 1 55 33
 515 0054 BB87E700 		addw	a5,a5,a4
  55:tests/ConsumerProducer_CPP_API_test.hpp ****             }
 516              		.loc 1 55 30
 517 0058 13055000 		li	a0,5
 518 005c 3BE5A702 		remw	a0,a5,a0
 519 0060 97000000 		call	_ZN6Thread5sleepEm@plt
 519      E7800000 
 520              	.LVL53:
  52:tests/ConsumerProducer_CPP_API_test.hpp ****                 td->buffer->put(td->id + '0');
GAS LISTING /tmp/ccZXeySo.s 			page 13


 521              		.loc 1 52 13
 522 0068 6FF09FFB 		j	.L27
 523              	.L26:
  58:tests/ConsumerProducer_CPP_API_test.hpp ****         }
 524              		.loc 1 58 13 is_stmt 1
 525 006c 83B70401 		ld	a5,16(s1)
  58:tests/ConsumerProducer_CPP_API_test.hpp ****         }
 526              		.loc 1 58 28 is_stmt 0
 527 0070 03B50701 		ld	a0,16(a5)
 528 0074 97000000 		call	_ZN9Semaphore6signalEv@plt
 528      E7800000 
 529              	.LVL54:
  59:tests/ConsumerProducer_CPP_API_test.hpp ****     };
 530              		.loc 1 59 9
 531 007c 83308101 		ld	ra,24(sp)
 532              		.cfi_restore 1
 533 0080 03340101 		ld	s0,16(sp)
 534              		.cfi_restore 8
 535              		.cfi_def_cfa 2, 32
 536 0084 83348100 		ld	s1,8(sp)
 537              		.cfi_restore 9
 538              	.LVL55:
 539 0088 03390100 		ld	s2,0(sp)
 540              		.cfi_restore 18
 541              	.LVL56:
 542 008c 13010102 		addi	sp,sp,32
 543              		.cfi_def_cfa_offset 0
 544 0090 67800000 		jr	ra
 545              		.cfi_endproc
 546              	.LFE21:
 548              		.section	.rodata.str1.8,"aMS",@progbits,1
 549              		.align	3
 550              	.LC0:
 551 0000 556E6573 		.string	"Unesite broj proizvodjaca?\n"
 551      69746520 
 551      62726F6A 
 551      2070726F 
 551      697A766F 
 552 001c 00000000 		.align	3
 553              	.LC1:
 554 0020 556E6573 		.string	"Unesite velicinu bafera?\n"
 554      69746520 
 554      76656C69 
 554      63696E75 
 554      20626166 
 555 003a 00000000 		.align	3
 555      0000
 556              	.LC2:
 557 0040 42726F6A 		.string	"Broj proizvodjaca "
 557      2070726F 
 557      697A766F 
 557      646A6163 
 557      612000
 558 0053 00000000 		.align	3
 558      00
 559              	.LC3:
 560 0058 20692076 		.string	" i velicina bafera "
GAS LISTING /tmp/ccZXeySo.s 			page 14


 560      656C6963 
 560      696E6120 
 560      62616665 
 560      72612000 
 561 006c 00000000 		.align	3
 562              	.LC4:
 563 0070 2E0A00   		.string	".\n"
 564 0073 00000000 		.align	3
 564      00
 565              	.LC5:
 566 0078 42726F6A 		.string	"Broj proizvodjaca ne sme biti manji od velicine bafera!\n"
 566      2070726F 
 566      697A766F 
 566      646A6163 
 566      61206E65 
 567 00b1 00000000 		.align	3
 567      000000
 568              	.LC6:
 569 00b8 42726F6A 		.string	"Broj proizvodjaca mora biti veci od nula!\n"
 569      2070726F 
 569      697A766F 
 569      646A6163 
 569      61206D6F 
 570              		.text
 571              		.align	2
 572              		.globl	_ZN19ConsumerProducerCPP20testConsumerProducerEv
 574              	_ZN19ConsumerProducerCPP20testConsumerProducerEv:
 575              	.LFB26:
  87:tests/ConsumerProducer_CPP_API_test.hpp ****     };
  88:tests/ConsumerProducer_CPP_API_test.hpp **** 
  89:tests/ConsumerProducer_CPP_API_test.hpp ****     void testConsumerProducer() {
 576              		.loc 1 89 33 is_stmt 1
 577              		.cfi_startproc
 578              		.cfi_personality 0x9b,DW.ref.__gxx_personality_v0
 579              		.cfi_lsda 0x1b,.LLSDA26
 580 0000 130101F8 		addi	sp,sp,-128
 581              		.cfi_def_cfa_offset 128
 582 0004 233C1106 		sd	ra,120(sp)
 583 0008 23388106 		sd	s0,112(sp)
 584 000c 23349106 		sd	s1,104(sp)
 585 0010 23302107 		sd	s2,96(sp)
 586 0014 233C3105 		sd	s3,88(sp)
 587 0018 23384105 		sd	s4,80(sp)
 588 001c 23345105 		sd	s5,72(sp)
 589 0020 23306105 		sd	s6,64(sp)
 590 0024 233C7103 		sd	s7,56(sp)
 591 0028 23388103 		sd	s8,48(sp)
 592 002c 23349103 		sd	s9,40(sp)
 593              		.cfi_offset 1, -8
 594              		.cfi_offset 8, -16
 595              		.cfi_offset 9, -24
 596              		.cfi_offset 18, -32
 597              		.cfi_offset 19, -40
 598              		.cfi_offset 20, -48
 599              		.cfi_offset 21, -56
 600              		.cfi_offset 22, -64
 601              		.cfi_offset 23, -72
GAS LISTING /tmp/ccZXeySo.s 			page 15


 602              		.cfi_offset 24, -80
 603              		.cfi_offset 25, -88
 604 0030 13040108 		addi	s0,sp,128
 605              		.cfi_def_cfa 8, 0
  90:tests/ConsumerProducer_CPP_API_test.hpp ****         char input[30];
  91:tests/ConsumerProducer_CPP_API_test.hpp ****         int n, threadNum;
  92:tests/ConsumerProducer_CPP_API_test.hpp **** 
  93:tests/ConsumerProducer_CPP_API_test.hpp ****         printString("Unesite broj proizvodjaca?\n");
  94:tests/ConsumerProducer_CPP_API_test.hpp ****         getString(input, 30);
  95:tests/ConsumerProducer_CPP_API_test.hpp ****         threadNum = stringToInt(input);
  96:tests/ConsumerProducer_CPP_API_test.hpp **** 
  97:tests/ConsumerProducer_CPP_API_test.hpp ****         printString("Unesite velicinu bafera?\n");
  98:tests/ConsumerProducer_CPP_API_test.hpp ****         getString(input, 30);
  99:tests/ConsumerProducer_CPP_API_test.hpp ****         n = stringToInt(input);
 100:tests/ConsumerProducer_CPP_API_test.hpp **** 
 101:tests/ConsumerProducer_CPP_API_test.hpp ****         printString("Broj proizvodjaca "); printInt(threadNum);
 102:tests/ConsumerProducer_CPP_API_test.hpp ****         printString(" i velicina bafera "); printInt(n);
 103:tests/ConsumerProducer_CPP_API_test.hpp ****         printString(".\n");
 104:tests/ConsumerProducer_CPP_API_test.hpp **** 
 105:tests/ConsumerProducer_CPP_API_test.hpp ****         if(threadNum > n) {
 106:tests/ConsumerProducer_CPP_API_test.hpp ****             printString("Broj proizvodjaca ne sme biti manji od velicine bafera!\n");
 107:tests/ConsumerProducer_CPP_API_test.hpp ****             return;
 108:tests/ConsumerProducer_CPP_API_test.hpp ****         } else if (threadNum < 1) {
 109:tests/ConsumerProducer_CPP_API_test.hpp ****             printString("Broj proizvodjaca mora biti veci od nula!\n");
 110:tests/ConsumerProducer_CPP_API_test.hpp ****             return;
 111:tests/ConsumerProducer_CPP_API_test.hpp ****         }
 112:tests/ConsumerProducer_CPP_API_test.hpp **** 
 113:tests/ConsumerProducer_CPP_API_test.hpp ****         BufferCPP *buffer = new BufferCPP(n);
 114:tests/ConsumerProducer_CPP_API_test.hpp **** 
 115:tests/ConsumerProducer_CPP_API_test.hpp ****         waitForAll = new Semaphore(0);
 116:tests/ConsumerProducer_CPP_API_test.hpp ****         Thread *producers[threadNum];
 117:tests/ConsumerProducer_CPP_API_test.hpp ****         thread_data threadData[threadNum + 1];
 118:tests/ConsumerProducer_CPP_API_test.hpp **** 
 119:tests/ConsumerProducer_CPP_API_test.hpp ****         threadData[threadNum].id = threadNum;
 120:tests/ConsumerProducer_CPP_API_test.hpp ****         threadData[threadNum].buffer = buffer;
 121:tests/ConsumerProducer_CPP_API_test.hpp ****         threadData[threadNum].sem = waitForAll;
 122:tests/ConsumerProducer_CPP_API_test.hpp ****         Thread *consumer = new Consumer(&threadData[threadNum]);
 123:tests/ConsumerProducer_CPP_API_test.hpp ****         consumer->start();
 124:tests/ConsumerProducer_CPP_API_test.hpp **** 
 125:tests/ConsumerProducer_CPP_API_test.hpp ****         threadData[0].id = 0;
 126:tests/ConsumerProducer_CPP_API_test.hpp ****         threadData[0].buffer = buffer;
 127:tests/ConsumerProducer_CPP_API_test.hpp ****         threadData[0].sem = waitForAll;
 128:tests/ConsumerProducer_CPP_API_test.hpp ****         producers[0] = new ProducerKeyborad(&threadData[0]);
 129:tests/ConsumerProducer_CPP_API_test.hpp ****         producers[0]->start();
 130:tests/ConsumerProducer_CPP_API_test.hpp **** 
 131:tests/ConsumerProducer_CPP_API_test.hpp ****         for (int i = 1; i < threadNum; i++) {
 132:tests/ConsumerProducer_CPP_API_test.hpp ****             threadData[i].id = i;
 133:tests/ConsumerProducer_CPP_API_test.hpp ****             threadData[i].buffer = buffer;
 134:tests/ConsumerProducer_CPP_API_test.hpp ****             threadData[i].sem = waitForAll;
 135:tests/ConsumerProducer_CPP_API_test.hpp **** 
 136:tests/ConsumerProducer_CPP_API_test.hpp ****             producers[i] = new Producer(&threadData[i]);
 137:tests/ConsumerProducer_CPP_API_test.hpp ****             producers[i]->start();
 138:tests/ConsumerProducer_CPP_API_test.hpp **** 
 139:tests/ConsumerProducer_CPP_API_test.hpp ****         }
 140:tests/ConsumerProducer_CPP_API_test.hpp **** 
 141:tests/ConsumerProducer_CPP_API_test.hpp ****         Thread::dispatch();
 142:tests/ConsumerProducer_CPP_API_test.hpp **** 
GAS LISTING /tmp/ccZXeySo.s 			page 16


 143:tests/ConsumerProducer_CPP_API_test.hpp ****         for (int i = 0; i <= threadNum; i++) {
 144:tests/ConsumerProducer_CPP_API_test.hpp ****             waitForAll->wait();
 145:tests/ConsumerProducer_CPP_API_test.hpp ****         }
 146:tests/ConsumerProducer_CPP_API_test.hpp **** 
 147:tests/ConsumerProducer_CPP_API_test.hpp ****         delete waitForAll;
 148:tests/ConsumerProducer_CPP_API_test.hpp ****         for (int i = 0; i < threadNum; i++) {
 149:tests/ConsumerProducer_CPP_API_test.hpp ****             delete producers[i];
 150:tests/ConsumerProducer_CPP_API_test.hpp ****         }
 151:tests/ConsumerProducer_CPP_API_test.hpp ****         delete consumer;
 152:tests/ConsumerProducer_CPP_API_test.hpp ****         delete buffer;
 606              		.loc 1 152 22 is_stmt 0
 607 0034 130C0100 		mv	s8,sp
  90:tests/ConsumerProducer_CPP_API_test.hpp ****         char input[30];
 608              		.loc 1 90 9 is_stmt 1
  91:tests/ConsumerProducer_CPP_API_test.hpp **** 
 609              		.loc 1 91 9
  93:tests/ConsumerProducer_CPP_API_test.hpp ****         getString(input, 30);
 610              		.loc 1 93 9
  93:tests/ConsumerProducer_CPP_API_test.hpp ****         getString(input, 30);
 611              		.loc 1 93 20 is_stmt 0
 612 0038 17050000 		lla	a0,.LC0
 612      13050500 
 613              	.LEHB0:
 614 0040 97000000 		call	_Z11printStringPKc@plt
 614      E7800000 
 615              	.LVL57:
  94:tests/ConsumerProducer_CPP_API_test.hpp ****         threadNum = stringToInt(input);
 616              		.loc 1 94 9 is_stmt 1
  94:tests/ConsumerProducer_CPP_API_test.hpp ****         threadNum = stringToInt(input);
 617              		.loc 1 94 18 is_stmt 0
 618 0048 9305E001 		li	a1,30
 619 004c 930404F8 		addi	s1,s0,-128
 620 0050 13850400 		mv	a0,s1
 621 0054 97000000 		call	_Z9getStringPci@plt
 621      E7800000 
 622              	.LVL58:
  95:tests/ConsumerProducer_CPP_API_test.hpp **** 
 623              		.loc 1 95 9 is_stmt 1
  95:tests/ConsumerProducer_CPP_API_test.hpp **** 
 624              		.loc 1 95 32 is_stmt 0
 625 005c 13850400 		mv	a0,s1
 626 0060 97000000 		call	_Z11stringToIntPKc@plt
 626      E7800000 
 627              	.LVL59:
 628 0068 93090500 		mv	s3,a0
 629              	.LVL60:
  97:tests/ConsumerProducer_CPP_API_test.hpp ****         getString(input, 30);
 630              		.loc 1 97 9 is_stmt 1
  97:tests/ConsumerProducer_CPP_API_test.hpp ****         getString(input, 30);
 631              		.loc 1 97 20 is_stmt 0
 632 006c 17050000 		lla	a0,.LC1
 632      13050500 
 633 0074 97000000 		call	_Z11printStringPKc@plt
 633      E7800000 
 634              	.LVL61:
  98:tests/ConsumerProducer_CPP_API_test.hpp ****         n = stringToInt(input);
 635              		.loc 1 98 9 is_stmt 1
GAS LISTING /tmp/ccZXeySo.s 			page 17


  98:tests/ConsumerProducer_CPP_API_test.hpp ****         n = stringToInt(input);
 636              		.loc 1 98 18 is_stmt 0
 637 007c 9305E001 		li	a1,30
 638 0080 13850400 		mv	a0,s1
 639 0084 97000000 		call	_Z9getStringPci@plt
 639      E7800000 
 640              	.LVL62:
  99:tests/ConsumerProducer_CPP_API_test.hpp **** 
 641              		.loc 1 99 9 is_stmt 1
  99:tests/ConsumerProducer_CPP_API_test.hpp **** 
 642              		.loc 1 99 24 is_stmt 0
 643 008c 13850400 		mv	a0,s1
 644 0090 97000000 		call	_Z11stringToIntPKc@plt
 644      E7800000 
 645              	.LVL63:
 646 0098 93040500 		mv	s1,a0
 647              	.LVL64:
 101:tests/ConsumerProducer_CPP_API_test.hpp ****         printString(" i velicina bafera "); printInt(n);
 648              		.loc 1 101 9 is_stmt 1
 101:tests/ConsumerProducer_CPP_API_test.hpp ****         printString(" i velicina bafera "); printInt(n);
 649              		.loc 1 101 20 is_stmt 0
 650 009c 17050000 		lla	a0,.LC2
 650      13050500 
 651 00a4 97000000 		call	_Z11printStringPKc@plt
 651      E7800000 
 652              	.LVL65:
 101:tests/ConsumerProducer_CPP_API_test.hpp ****         printString(" i velicina bafera "); printInt(n);
 653              		.loc 1 101 44 is_stmt 1
 101:tests/ConsumerProducer_CPP_API_test.hpp ****         printString(" i velicina bafera "); printInt(n);
 654              		.loc 1 101 52 is_stmt 0
 655 00ac 13060000 		li	a2,0
 656 00b0 9305A000 		li	a1,10
 657 00b4 13850900 		mv	a0,s3
 658 00b8 97000000 		call	_Z8printIntiii@plt
 658      E7800000 
 659              	.LVL66:
 102:tests/ConsumerProducer_CPP_API_test.hpp ****         printString(".\n");
 660              		.loc 1 102 9 is_stmt 1
 102:tests/ConsumerProducer_CPP_API_test.hpp ****         printString(".\n");
 661              		.loc 1 102 20 is_stmt 0
 662 00c0 17050000 		lla	a0,.LC3
 662      13050500 
 663 00c8 97000000 		call	_Z11printStringPKc@plt
 663      E7800000 
 664              	.LVL67:
 102:tests/ConsumerProducer_CPP_API_test.hpp ****         printString(".\n");
 665              		.loc 1 102 45 is_stmt 1
 102:tests/ConsumerProducer_CPP_API_test.hpp ****         printString(".\n");
 666              		.loc 1 102 53 is_stmt 0
 667 00d0 13060000 		li	a2,0
 668 00d4 9305A000 		li	a1,10
 669 00d8 13850400 		mv	a0,s1
 670 00dc 97000000 		call	_Z8printIntiii@plt
 670      E7800000 
 671              	.LVL68:
 103:tests/ConsumerProducer_CPP_API_test.hpp **** 
 672              		.loc 1 103 9 is_stmt 1
GAS LISTING /tmp/ccZXeySo.s 			page 18


 103:tests/ConsumerProducer_CPP_API_test.hpp **** 
 673              		.loc 1 103 20 is_stmt 0
 674 00e4 17050000 		lla	a0,.LC4
 674      13050500 
 675 00ec 97000000 		call	_Z11printStringPKc@plt
 675      E7800000 
 676              	.LVL69:
 105:tests/ConsumerProducer_CPP_API_test.hpp ****             printString("Broj proizvodjaca ne sme biti manji od velicine bafera!\n");
 677              		.loc 1 105 9 is_stmt 1
 678 00f4 63C43403 		bgt	s3,s1,.L55
 108:tests/ConsumerProducer_CPP_API_test.hpp ****             printString("Broj proizvodjaca mora biti veci od nula!\n");
 679              		.loc 1 108 16
 680 00f8 635C3003 		blez	s3,.L56
 113:tests/ConsumerProducer_CPP_API_test.hpp **** 
 681              		.loc 1 113 9
 113:tests/ConsumerProducer_CPP_API_test.hpp **** 
 682              		.loc 1 113 44 is_stmt 0
 683 00fc 13058003 		li	a0,56
 684 0100 97000000 		call	_Znwm@plt
 684      E7800000 
 685              	.LVL70:
 686              	.LEHE0:
 687 0108 930A0500 		mv	s5,a0
 688 010c 93850400 		mv	a1,s1
 689              	.LEHB1:
 690 0110 97000000 		call	_ZN9BufferCPPC1Ei@plt
 690      E7800000 
 691              	.LVL71:
 692              	.LEHE1:
 693 0118 6F000003 		j	.L57
 694              	.L55:
 106:tests/ConsumerProducer_CPP_API_test.hpp ****             return;
 695              		.loc 1 106 13 is_stmt 1
 106:tests/ConsumerProducer_CPP_API_test.hpp ****             return;
 696              		.loc 1 106 24 is_stmt 0
 697 011c 17050000 		lla	a0,.LC5
 697      13050500 
 698              	.LEHB2:
 699 0124 97000000 		call	_Z11printStringPKc@plt
 699      E7800000 
 700              	.LVL72:
 107:tests/ConsumerProducer_CPP_API_test.hpp ****         } else if (threadNum < 1) {
 701              		.loc 1 107 13 is_stmt 1
 702 012c 6F004001 		j	.L31
 703              	.L56:
 109:tests/ConsumerProducer_CPP_API_test.hpp ****             return;
 704              		.loc 1 109 13
 109:tests/ConsumerProducer_CPP_API_test.hpp ****             return;
 705              		.loc 1 109 24 is_stmt 0
 706 0130 17050000 		lla	a0,.LC6
 706      13050500 
 707 0138 97000000 		call	_Z11printStringPKc@plt
 707      E7800000 
 708              	.LVL73:
 110:tests/ConsumerProducer_CPP_API_test.hpp ****         }
 709              		.loc 1 110 13 is_stmt 1
 710              	.L31:
GAS LISTING /tmp/ccZXeySo.s 			page 19


 711 0140 13010C00 		mv	sp,s8
 712 0144 6F00C021 		j	.L29
 713              	.L57:
 714              	.LVL74:
 115:tests/ConsumerProducer_CPP_API_test.hpp ****         Thread *producers[threadNum];
 715              		.loc 1 115 9 discriminator 3
 115:tests/ConsumerProducer_CPP_API_test.hpp ****         Thread *producers[threadNum];
 716              		.loc 1 115 37 is_stmt 0 discriminator 3
 717 0148 13050001 		li	a0,16
 718 014c 97000000 		call	_Znwm@plt
 718      E7800000 
 719              	.LVL75:
 720              	.LEHE2:
 721 0154 93040500 		mv	s1,a0
 722              	.LVL76:
 723 0158 93050000 		li	a1,0
 724              	.LEHB3:
 725 015c 97000000 		call	_ZN9SemaphoreC1Ej@plt
 725      E7800000 
 726              	.LVL77:
 727              	.LEHE3:
 115:tests/ConsumerProducer_CPP_API_test.hpp ****         Thread *producers[threadNum];
 728              		.loc 1 115 20 discriminator 3
 729 0164 17070000 		lla	a4,.LANCHOR0
 729      13070700 
 730 016c 23349700 		sd	s1,8(a4)
 116:tests/ConsumerProducer_CPP_API_test.hpp ****         thread_data threadData[threadNum + 1];
 731              		.loc 1 116 9 is_stmt 1 discriminator 3
 732              	.LVL78:
 116:tests/ConsumerProducer_CPP_API_test.hpp ****         thread_data threadData[threadNum + 1];
 733              		.loc 1 116 17 is_stmt 0 discriminator 3
 734 0170 93973900 		slli	a5,s3,3
 735 0174 9387F700 		addi	a5,a5,15
 736 0178 93F707FF 		andi	a5,a5,-16
 737 017c 3301F140 		sub	sp,sp,a5
 738 0180 130A0100 		mv	s4,sp
 739              	.LVL79:
 117:tests/ConsumerProducer_CPP_API_test.hpp **** 
 740              		.loc 1 117 9 is_stmt 1 discriminator 3
 117:tests/ConsumerProducer_CPP_API_test.hpp **** 
 741              		.loc 1 117 42 is_stmt 0 discriminator 3
 742 0184 9B861900 		addiw	a3,s3,1
 743              	.LVL80:
 117:tests/ConsumerProducer_CPP_API_test.hpp **** 
 744              		.loc 1 117 21 discriminator 3
 745 0188 93971600 		slli	a5,a3,1
 746 018c B387D700 		add	a5,a5,a3
 747 0190 93973700 		slli	a5,a5,3
 748 0194 9387F700 		addi	a5,a5,15
 749 0198 93F707FF 		andi	a5,a5,-16
 750 019c 3301F140 		sub	sp,sp,a5
 751              	.LVL81:
 752 01a0 130B0100 		mv	s6,sp
 753              	.LVL82:
 119:tests/ConsumerProducer_CPP_API_test.hpp ****         threadData[threadNum].buffer = buffer;
 754              		.loc 1 119 9 is_stmt 1 discriminator 3
 119:tests/ConsumerProducer_CPP_API_test.hpp ****         threadData[threadNum].buffer = buffer;
GAS LISTING /tmp/ccZXeySo.s 			page 20


 755              		.loc 1 119 34 is_stmt 0 discriminator 3
 756 01a4 93941900 		slli	s1,s3,1
 757 01a8 B3843401 		add	s1,s1,s3
 758 01ac 93943400 		slli	s1,s1,3
 759 01b0 B3049B00 		add	s1,s6,s1
 760 01b4 23A03401 		sw	s3,0(s1)
 120:tests/ConsumerProducer_CPP_API_test.hpp ****         threadData[threadNum].sem = waitForAll;
 761              		.loc 1 120 9 is_stmt 1 discriminator 3
 120:tests/ConsumerProducer_CPP_API_test.hpp ****         threadData[threadNum].sem = waitForAll;
 762              		.loc 1 120 38 is_stmt 0 discriminator 3
 763 01b8 23B45401 		sd	s5,8(s1)
 121:tests/ConsumerProducer_CPP_API_test.hpp ****         Thread *consumer = new Consumer(&threadData[threadNum]);
 764              		.loc 1 121 9 is_stmt 1 discriminator 3
 121:tests/ConsumerProducer_CPP_API_test.hpp ****         Thread *consumer = new Consumer(&threadData[threadNum]);
 765              		.loc 1 121 35 is_stmt 0 discriminator 3
 766 01bc 83378700 		ld	a5,8(a4)
 767 01c0 23B8F400 		sd	a5,16(s1)
 122:tests/ConsumerProducer_CPP_API_test.hpp ****         consumer->start();
 768              		.loc 1 122 9 is_stmt 1 discriminator 3
 122:tests/ConsumerProducer_CPP_API_test.hpp ****         consumer->start();
 769              		.loc 1 122 63 is_stmt 0 discriminator 3
 770 01c4 13058001 		li	a0,24
 771              	.LEHB4:
 772 01c8 97000000 		call	_Znwm@plt
 772      E7800000 
 773              	.LVL83:
 774              	.LEHE4:
 775 01d0 930B0500 		mv	s7,a0
 776              	.LVL84:
 777              	.LEHB5:
 778              	.LBB35:
 779              	.LBB36:
  65:tests/ConsumerProducer_CPP_API_test.hpp **** 
 780              		.loc 1 65 54 discriminator 3
 781 01d4 97000000 		call	_ZN6ThreadC2Ev@plt
 781      E7800000 
 782              	.LVL85:
 783              	.LEHE5:
  65:tests/ConsumerProducer_CPP_API_test.hpp **** 
 784              		.loc 1 65 54
 785 01dc 97070000 		lla	a5,_ZTVN19ConsumerProducerCPP8ConsumerE+16
 785      93870700 
 786 01e4 23B0FB00 		sd	a5,0(s7)
 787 01e8 23B89B00 		sd	s1,16(s7)
 788              	.LVL86:
 789              	.LBE36:
 790              	.LBE35:
 123:tests/ConsumerProducer_CPP_API_test.hpp **** 
 791              		.loc 1 123 9 is_stmt 1
 123:tests/ConsumerProducer_CPP_API_test.hpp **** 
 792              		.loc 1 123 24 is_stmt 0
 793 01ec 13850B00 		mv	a0,s7
 794              	.LEHB6:
 795 01f0 97000000 		call	_ZN6Thread5startEv@plt
 795      E7800000 
 796              	.LVL87:
 125:tests/ConsumerProducer_CPP_API_test.hpp ****         threadData[0].buffer = buffer;
GAS LISTING /tmp/ccZXeySo.s 			page 21


 797              		.loc 1 125 9 is_stmt 1
 125:tests/ConsumerProducer_CPP_API_test.hpp ****         threadData[0].buffer = buffer;
 798              		.loc 1 125 26 is_stmt 0
 799 01f8 23200B00 		sw	zero,0(s6)
 126:tests/ConsumerProducer_CPP_API_test.hpp ****         threadData[0].sem = waitForAll;
 800              		.loc 1 126 9 is_stmt 1
 126:tests/ConsumerProducer_CPP_API_test.hpp ****         threadData[0].sem = waitForAll;
 801              		.loc 1 126 30 is_stmt 0
 802 01fc 23345B01 		sd	s5,8(s6)
 127:tests/ConsumerProducer_CPP_API_test.hpp ****         producers[0] = new ProducerKeyborad(&threadData[0]);
 803              		.loc 1 127 9 is_stmt 1
 127:tests/ConsumerProducer_CPP_API_test.hpp ****         producers[0] = new ProducerKeyborad(&threadData[0]);
 804              		.loc 1 127 27 is_stmt 0
 805 0200 97070000 		ld	a5,.LANCHOR0+8
 805      83B70700 
 806 0208 2338FB00 		sd	a5,16(s6)
 128:tests/ConsumerProducer_CPP_API_test.hpp ****         producers[0]->start();
 807              		.loc 1 128 9 is_stmt 1
 128:tests/ConsumerProducer_CPP_API_test.hpp ****         producers[0]->start();
 808              		.loc 1 128 59 is_stmt 0
 809 020c 13058001 		li	a0,24
 810 0210 97000000 		call	_Znwm@plt
 810      E7800000 
 811              	.LVL88:
 812              	.LEHE6:
 813 0218 93040500 		mv	s1,a0
 814              	.LVL89:
 815              	.LEHB7:
 816              	.LBB37:
 817              	.LBB38:
  28:tests/ConsumerProducer_CPP_API_test.hpp **** 
 818              		.loc 1 28 62
 819 021c 97000000 		call	_ZN6ThreadC2Ev@plt
 819      E7800000 
 820              	.LVL90:
 821              	.LEHE7:
 822 0224 97070000 		lla	a5,_ZTVN19ConsumerProducerCPP16ProducerKeyboradE+16
 822      93870700 
 823 022c 23B0F400 		sd	a5,0(s1)
 824 0230 23B86401 		sd	s6,16(s1)
 825              	.LVL91:
 826              	.LBE38:
 827              	.LBE37:
 128:tests/ConsumerProducer_CPP_API_test.hpp ****         producers[0]->start();
 828              		.loc 1 128 22
 829 0234 23309A00 		sd	s1,0(s4)
 129:tests/ConsumerProducer_CPP_API_test.hpp **** 
 830              		.loc 1 129 9 is_stmt 1
 129:tests/ConsumerProducer_CPP_API_test.hpp **** 
 831              		.loc 1 129 28 is_stmt 0
 832 0238 13850400 		mv	a0,s1
 833              	.LEHB8:
 834 023c 97000000 		call	_ZN6Thread5startEv@plt
 834      E7800000 
 835              	.LVL92:
 836              	.LBB39:
 131:tests/ConsumerProducer_CPP_API_test.hpp ****             threadData[i].id = i;
GAS LISTING /tmp/ccZXeySo.s 			page 22


 837              		.loc 1 131 18
 838 0244 13091000 		li	s2,1
 839 0248 6F000003 		j	.L34
 840              	.LVL93:
 841              	.L58:
 842              	.LBB40:
 843              	.LBB41:
  48:tests/ConsumerProducer_CPP_API_test.hpp **** 
 844              		.loc 1 48 54
 845 024c 97070000 		lla	a5,_ZTVN19ConsumerProducerCPP8ProducerE+16
 845      93870700 
 846 0254 23B0FC00 		sd	a5,0(s9)
 847 0258 23B89C00 		sd	s1,16(s9)
 848              	.LVL94:
 849              	.LBE41:
 850              	.LBE40:
 136:tests/ConsumerProducer_CPP_API_test.hpp ****             producers[i]->start();
 851              		.loc 1 136 26
 852 025c 93173900 		slli	a5,s2,3
 853 0260 B307FA00 		add	a5,s4,a5
 854 0264 23B09701 		sd	s9,0(a5)
 137:tests/ConsumerProducer_CPP_API_test.hpp **** 
 855              		.loc 1 137 13 is_stmt 1
 137:tests/ConsumerProducer_CPP_API_test.hpp **** 
 856              		.loc 1 137 32 is_stmt 0
 857 0268 13850C00 		mv	a0,s9
 858 026c 97000000 		call	_ZN6Thread5startEv@plt
 858      E7800000 
 859              	.LVL95:
 131:tests/ConsumerProducer_CPP_API_test.hpp ****             threadData[i].id = i;
 860              		.loc 1 131 9 is_stmt 1
 861 0274 1B091900 		addiw	s2,s2,1
 862              	.LVL96:
 863              	.L34:
 131:tests/ConsumerProducer_CPP_API_test.hpp ****             threadData[i].id = i;
 864              		.loc 1 131 27 discriminator 1
 865 0278 63523905 		bge	s2,s3,.L33
 132:tests/ConsumerProducer_CPP_API_test.hpp ****             threadData[i].buffer = buffer;
 866              		.loc 1 132 13
 132:tests/ConsumerProducer_CPP_API_test.hpp ****             threadData[i].buffer = buffer;
 867              		.loc 1 132 30 is_stmt 0
 868 027c 93141900 		slli	s1,s2,1
 869 0280 B3842401 		add	s1,s1,s2
 870 0284 93943400 		slli	s1,s1,3
 871 0288 B3049B00 		add	s1,s6,s1
 872 028c 23A02401 		sw	s2,0(s1)
 133:tests/ConsumerProducer_CPP_API_test.hpp ****             threadData[i].sem = waitForAll;
 873              		.loc 1 133 13 is_stmt 1
 133:tests/ConsumerProducer_CPP_API_test.hpp ****             threadData[i].sem = waitForAll;
 874              		.loc 1 133 34 is_stmt 0
 875 0290 23B45401 		sd	s5,8(s1)
 134:tests/ConsumerProducer_CPP_API_test.hpp **** 
 876              		.loc 1 134 13 is_stmt 1
 134:tests/ConsumerProducer_CPP_API_test.hpp **** 
 877              		.loc 1 134 31 is_stmt 0
 878 0294 97070000 		ld	a5,.LANCHOR0+8
 878      83B70700 
GAS LISTING /tmp/ccZXeySo.s 			page 23


 879 029c 23B8F400 		sd	a5,16(s1)
 136:tests/ConsumerProducer_CPP_API_test.hpp ****             producers[i]->start();
 880              		.loc 1 136 13 is_stmt 1
 136:tests/ConsumerProducer_CPP_API_test.hpp ****             producers[i]->start();
 881              		.loc 1 136 55 is_stmt 0
 882 02a0 13058001 		li	a0,24
 883 02a4 97000000 		call	_Znwm@plt
 883      E7800000 
 884              	.LVL97:
 885              	.LEHE8:
 886 02ac 930C0500 		mv	s9,a0
 887              	.LVL98:
 888              	.LEHB9:
 889              	.LBB43:
 890              	.LBB42:
  48:tests/ConsumerProducer_CPP_API_test.hpp **** 
 891              		.loc 1 48 54
 892 02b0 97000000 		call	_ZN6ThreadC2Ev@plt
 892      E7800000 
 893              	.LVL99:
 894              	.LEHE9:
 895 02b8 6FF05FF9 		j	.L58
 896              	.LVL100:
 897              	.L33:
 898              	.LBE42:
 899              	.LBE43:
 900              	.LBE39:
 141:tests/ConsumerProducer_CPP_API_test.hpp **** 
 901              		.loc 1 141 9 is_stmt 1
 902              	.LEHB10:
 141:tests/ConsumerProducer_CPP_API_test.hpp **** 
 903              		.loc 1 141 25 is_stmt 0
 904 02bc 97000000 		call	_ZN6Thread8dispatchEv@plt
 904      E7800000 
 905              	.LVL101:
 906              	.LBB44:
 143:tests/ConsumerProducer_CPP_API_test.hpp ****             waitForAll->wait();
 907              		.loc 1 143 18
 908 02c4 93040000 		li	s1,0
 909              	.L36:
 910              	.LVL102:
 143:tests/ConsumerProducer_CPP_API_test.hpp ****             waitForAll->wait();
 911              		.loc 1 143 27 is_stmt 1 discriminator 1
 912 02c8 63CE9900 		bgt	s1,s3,.L35
 144:tests/ConsumerProducer_CPP_API_test.hpp ****         }
 913              		.loc 1 144 13
 144:tests/ConsumerProducer_CPP_API_test.hpp ****         }
 914              		.loc 1 144 29 is_stmt 0
 915 02cc 17050000 		ld	a0,.LANCHOR0+8
 915      03350500 
 916 02d4 97000000 		call	_ZN9Semaphore4waitEv@plt
 916      E7800000 
 917              	.LVL103:
 143:tests/ConsumerProducer_CPP_API_test.hpp ****             waitForAll->wait();
 918              		.loc 1 143 9 is_stmt 1
 919 02dc 9B841400 		addiw	s1,s1,1
 920              	.LVL104:
GAS LISTING /tmp/ccZXeySo.s 			page 24


 921 02e0 6FF09FFE 		j	.L36
 922              	.LVL105:
 923              	.L35:
 924              	.LBE44:
 147:tests/ConsumerProducer_CPP_API_test.hpp ****         for (int i = 0; i < threadNum; i++) {
 925              		.loc 1 147 9
 147:tests/ConsumerProducer_CPP_API_test.hpp ****         for (int i = 0; i < threadNum; i++) {
 926              		.loc 1 147 16 is_stmt 0
 927 02e4 17050000 		ld	a0,.LANCHOR0+8
 927      03350500 
 147:tests/ConsumerProducer_CPP_API_test.hpp ****         for (int i = 0; i < threadNum; i++) {
 928              		.loc 1 147 26
 929 02ec 63080500 		beqz	a0,.L37
 147:tests/ConsumerProducer_CPP_API_test.hpp ****         for (int i = 0; i < threadNum; i++) {
 930              		.loc 1 147 16 discriminator 1
 931 02f0 83370500 		ld	a5,0(a0)
 932 02f4 83B78700 		ld	a5,8(a5)
 933 02f8 E7800700 		jalr	a5
 934              	.LVL106:
 935              	.L37:
 936              	.LBB45:
 143:tests/ConsumerProducer_CPP_API_test.hpp ****             waitForAll->wait();
 937              		.loc 1 143 18 discriminator 1
 938 02fc 93040000 		li	s1,0
 939              	.LVL107:
 940 0300 6F008000 		j	.L40
 941              	.LVL108:
 942              	.L39:
 943              	.LBE45:
 944              	.LBB46:
 148:tests/ConsumerProducer_CPP_API_test.hpp ****             delete producers[i];
 945              		.loc 1 148 9 is_stmt 1 discriminator 2
 946 0304 9B841400 		addiw	s1,s1,1
 947              	.LVL109:
 948              	.L40:
 148:tests/ConsumerProducer_CPP_API_test.hpp ****             delete producers[i];
 949              		.loc 1 148 27 discriminator 1
 950 0308 63D23403 		bge	s1,s3,.L38
 149:tests/ConsumerProducer_CPP_API_test.hpp ****         }
 951              		.loc 1 149 13
 149:tests/ConsumerProducer_CPP_API_test.hpp ****         }
 952              		.loc 1 149 31 is_stmt 0
 953 030c 93973400 		slli	a5,s1,3
 954 0310 B307FA00 		add	a5,s4,a5
 955 0314 03B50700 		ld	a0,0(a5)
 149:tests/ConsumerProducer_CPP_API_test.hpp ****         }
 956              		.loc 1 149 32
 957 0318 E30605FE 		beqz	a0,.L39
 149:tests/ConsumerProducer_CPP_API_test.hpp ****         }
 958              		.loc 1 149 31 discriminator 1
 959 031c 83370500 		ld	a5,0(a0)
 960 0320 83B78700 		ld	a5,8(a5)
 961 0324 E7800700 		jalr	a5
 962              	.LVL110:
 963 0328 6FF0DFFD 		j	.L39
 964              	.L38:
 965              	.LBE46:
GAS LISTING /tmp/ccZXeySo.s 			page 25


 151:tests/ConsumerProducer_CPP_API_test.hpp ****         delete buffer;
 966              		.loc 1 151 9 is_stmt 1
 151:tests/ConsumerProducer_CPP_API_test.hpp ****         delete buffer;
 967              		.loc 1 151 24 is_stmt 0
 968 032c 638A0B00 		beqz	s7,.L41
 151:tests/ConsumerProducer_CPP_API_test.hpp ****         delete buffer;
 969              		.loc 1 151 16 discriminator 1
 970 0330 83B70B00 		ld	a5,0(s7)
 971 0334 83B78700 		ld	a5,8(a5)
 972 0338 13850B00 		mv	a0,s7
 973 033c E7800700 		jalr	a5
 974              	.LVL111:
 975              	.L41:
 976              		.loc 1 152 9 is_stmt 1
 977              		.loc 1 152 22 is_stmt 0
 978 0340 638E0A00 		beqz	s5,.L42
 979              		.loc 1 152 16 discriminator 1
 980 0344 13850A00 		mv	a0,s5
 981 0348 97000000 		call	_ZN9BufferCPPD1Ev@plt
 981      E7800000 
 982              	.LVL112:
 983 0350 13850A00 		mv	a0,s5
 984 0354 97000000 		call	_ZdlPv@plt
 984      E7800000 
 985              	.LVL113:
 986              	.LEHE10:
 987              	.L42:
 988 035c 13010C00 		mv	sp,s8
 989              	.LVL114:
 990              	.L29:
 153:tests/ConsumerProducer_CPP_API_test.hpp ****     }
 991              		.loc 1 153 5
 992 0360 130104F8 		addi	sp,s0,-128
 993              		.cfi_remember_state
 994              		.cfi_def_cfa 2, 128
 995 0364 83308107 		ld	ra,120(sp)
 996              		.cfi_restore 1
 997 0368 03340107 		ld	s0,112(sp)
 998              		.cfi_restore 8
 999 036c 83348106 		ld	s1,104(sp)
 1000              		.cfi_restore 9
 1001 0370 03390106 		ld	s2,96(sp)
 1002              		.cfi_restore 18
 1003 0374 83398105 		ld	s3,88(sp)
 1004              		.cfi_restore 19
 1005              	.LVL115:
 1006 0378 033A0105 		ld	s4,80(sp)
 1007              		.cfi_restore 20
 1008 037c 833A8104 		ld	s5,72(sp)
 1009              		.cfi_restore 21
 1010 0380 033B0104 		ld	s6,64(sp)
 1011              		.cfi_restore 22
 1012 0384 833B8103 		ld	s7,56(sp)
 1013              		.cfi_restore 23
 1014 0388 033C0103 		ld	s8,48(sp)
 1015              		.cfi_restore 24
 1016 038c 833C8102 		ld	s9,40(sp)
GAS LISTING /tmp/ccZXeySo.s 			page 26


 1017              		.cfi_restore 25
 1018 0390 13010108 		addi	sp,sp,128
 1019              		.cfi_def_cfa_offset 0
 1020 0394 67800000 		jr	ra
 1021              	.LVL116:
 1022              	.L49:
 1023              		.cfi_restore_state
 1024 0398 93040500 		mv	s1,a0
 1025              	.LVL117:
 113:tests/ConsumerProducer_CPP_API_test.hpp **** 
 1026              		.loc 1 113 44
 1027 039c 13850A00 		mv	a0,s5
 1028 03a0 97000000 		call	_ZdlPv@plt
 1028      E7800000 
 1029              	.LVL118:
 1030 03a8 13850400 		mv	a0,s1
 1031              	.LEHB11:
 1032 03ac 97000000 		call	_Unwind_Resume@plt
 1032      E7800000 
 1033              	.LVL119:
 1034              	.LEHE11:
 1035              	.L50:
 1036 03b4 13090500 		mv	s2,a0
 115:tests/ConsumerProducer_CPP_API_test.hpp ****         Thread *producers[threadNum];
 1037              		.loc 1 115 37
 1038 03b8 13850400 		mv	a0,s1
 1039 03bc 97000000 		call	_ZdlPv@plt
 1039      E7800000 
 1040              	.LVL120:
 1041 03c4 13050900 		mv	a0,s2
 1042              	.LEHB12:
 1043 03c8 97000000 		call	_Unwind_Resume@plt
 1043      E7800000 
 1044              	.LVL121:
 1045              	.LEHE12:
 1046              	.L51:
 1047 03d0 93040500 		mv	s1,a0
 1048              	.LVL122:
 122:tests/ConsumerProducer_CPP_API_test.hpp ****         consumer->start();
 1049              		.loc 1 122 63
 1050 03d4 13850B00 		mv	a0,s7
 1051 03d8 97000000 		call	_ZdlPv@plt
 1051      E7800000 
 1052              	.LVL123:
 1053 03e0 13850400 		mv	a0,s1
 1054              	.LEHB13:
 1055 03e4 97000000 		call	_Unwind_Resume@plt
 1055      E7800000 
 1056              	.LVL124:
 1057              	.LEHE13:
 1058              	.L52:
 1059 03ec 13090500 		mv	s2,a0
 128:tests/ConsumerProducer_CPP_API_test.hpp ****         producers[0]->start();
 1060              		.loc 1 128 59
 1061 03f0 13850400 		mv	a0,s1
 1062 03f4 97000000 		call	_ZdlPv@plt
 1062      E7800000 
GAS LISTING /tmp/ccZXeySo.s 			page 27


 1063              	.LVL125:
 1064 03fc 13050900 		mv	a0,s2
 1065              	.LEHB14:
 1066 0400 97000000 		call	_Unwind_Resume@plt
 1066      E7800000 
 1067              	.LVL126:
 1068              	.LEHE14:
 1069              	.L53:
 1070 0408 93040500 		mv	s1,a0
 1071              	.LVL127:
 1072              	.LBB47:
 136:tests/ConsumerProducer_CPP_API_test.hpp ****             producers[i]->start();
 1073              		.loc 1 136 55
 1074 040c 13850C00 		mv	a0,s9
 1075 0410 97000000 		call	_ZdlPv@plt
 1075      E7800000 
 1076              	.LVL128:
 1077 0418 13850400 		mv	a0,s1
 1078              	.LEHB15:
 1079 041c 97000000 		call	_Unwind_Resume@plt
 1079      E7800000 
 1080              	.LVL129:
 1081              	.LEHE15:
 1082              	.LBE47:
 1083              		.cfi_endproc
 1084              	.LFE26:
 1085              		.globl	__gxx_personality_v0
 1086              		.section	.gcc_except_table,"a",@progbits
 1087              	.LLSDA26:
 1088 0000 FF       		.byte	0xff
 1089 0001 FF       		.byte	0xff
 1090 0002 03       		.byte	0x3
 1091 0003 D001     		.byte	0xd0,0x1
 1092 0005 00000000 		.4byte	.LEHB0-.LFB26
 1093 0009 00000000 		.4byte	.LEHE0-.LEHB0
 1094 000d 00000000 		.4byte	0
 1095 0011 00       		.byte	0
 1096 0012 00000000 		.4byte	.LEHB1-.LFB26
 1097 0016 00000000 		.4byte	.LEHE1-.LEHB1
 1098 001a 00000000 		.4byte	.L49-.LFB26
 1099 001e 00       		.byte	0
 1100 001f 00000000 		.4byte	.LEHB2-.LFB26
 1101 0023 00000000 		.4byte	.LEHE2-.LEHB2
 1102 0027 00000000 		.4byte	0
 1103 002b 00       		.byte	0
 1104 002c 00000000 		.4byte	.LEHB3-.LFB26
 1105 0030 00000000 		.4byte	.LEHE3-.LEHB3
 1106 0034 00000000 		.4byte	.L50-.LFB26
 1107 0038 00       		.byte	0
 1108 0039 00000000 		.4byte	.LEHB4-.LFB26
 1109 003d 00000000 		.4byte	.LEHE4-.LEHB4
 1110 0041 00000000 		.4byte	0
 1111 0045 00       		.byte	0
 1112 0046 00000000 		.4byte	.LEHB5-.LFB26
 1113 004a 00000000 		.4byte	.LEHE5-.LEHB5
 1114 004e 00000000 		.4byte	.L51-.LFB26
 1115 0052 00       		.byte	0
GAS LISTING /tmp/ccZXeySo.s 			page 28


 1116 0053 00000000 		.4byte	.LEHB6-.LFB26
 1117 0057 00000000 		.4byte	.LEHE6-.LEHB6
 1118 005b 00000000 		.4byte	0
 1119 005f 00       		.byte	0
 1120 0060 00000000 		.4byte	.LEHB7-.LFB26
 1121 0064 00000000 		.4byte	.LEHE7-.LEHB7
 1122 0068 00000000 		.4byte	.L52-.LFB26
 1123 006c 00       		.byte	0
 1124 006d 00000000 		.4byte	.LEHB8-.LFB26
 1125 0071 00000000 		.4byte	.LEHE8-.LEHB8
 1126 0075 00000000 		.4byte	0
 1127 0079 00       		.byte	0
 1128 007a 00000000 		.4byte	.LEHB9-.LFB26
 1129 007e 00000000 		.4byte	.LEHE9-.LEHB9
 1130 0082 00000000 		.4byte	.L53-.LFB26
 1131 0086 00       		.byte	0
 1132 0087 00000000 		.4byte	.LEHB10-.LFB26
 1133 008b 00000000 		.4byte	.LEHE10-.LEHB10
 1134 008f 00000000 		.4byte	0
 1135 0093 00       		.byte	0
 1136 0094 00000000 		.4byte	.LEHB11-.LFB26
 1137 0098 00000000 		.4byte	.LEHE11-.LEHB11
 1138 009c 00000000 		.4byte	0
 1139 00a0 00       		.byte	0
 1140 00a1 00000000 		.4byte	.LEHB12-.LFB26
 1141 00a5 00000000 		.4byte	.LEHE12-.LEHB12
 1142 00a9 00000000 		.4byte	0
 1143 00ad 00       		.byte	0
 1144 00ae 00000000 		.4byte	.LEHB13-.LFB26
 1145 00b2 00000000 		.4byte	.LEHE13-.LEHB13
 1146 00b6 00000000 		.4byte	0
 1147 00ba 00       		.byte	0
 1148 00bb 00000000 		.4byte	.LEHB14-.LFB26
 1149 00bf 00000000 		.4byte	.LEHE14-.LEHB14
 1150 00c3 00000000 		.4byte	0
 1151 00c7 00       		.byte	0
 1152 00c8 00000000 		.4byte	.LEHB15-.LFB26
 1153 00cc 00000000 		.4byte	.LEHE15-.LEHB15
 1154 00d0 00000000 		.4byte	0
 1155 00d4 00       		.byte	0
 1156              		.text
 1158              		.align	2
 1159              		.globl	_Z8userMainv
 1161              	_Z8userMainv:
 1162              	.LFB27:
 1163              		.file 2 "tests/userMain.cpp"
   1:tests/userMain.cpp **** //#include "Threads_C_API_test.hpp" // zadatak 2, niti C API i sinhrona promena konteksta
   2:tests/userMain.cpp **** //#include "Threads_CPP_API_test.hpp" // zadatak 2., niti CPP API i sinhrona promena konteksta
   3:tests/userMain.cpp **** //
   4:tests/userMain.cpp **** //#include "ConsumerProducer_C_API_test.h" // zadatak 3., kompletan C API sa semaforima, sinhrona p
   5:tests/userMain.cpp **** //#include "ConsumerProducer_CPP_Sync_API_test.hpp" // zadatak 3., kompletan CPP API sa semaforima,
   6:tests/userMain.cpp **** 
   7:tests/userMain.cpp **** //#include "ThreadSleep_C_API_test.hpp" // thread_sleep test C API
   8:tests/userMain.cpp **** #include "ConsumerProducer_CPP_API_test.hpp" // zadatak 4. CPP API i asinhrona promena konteksta
   9:tests/userMain.cpp **** 
  10:tests/userMain.cpp **** 
  11:tests/userMain.cpp **** void userMain() {
GAS LISTING /tmp/ccZXeySo.s 			page 29


 1164              		.loc 2 11 17 is_stmt 1
 1165              		.cfi_startproc
 1166 0424 130101FF 		addi	sp,sp,-16
 1167              		.cfi_def_cfa_offset 16
 1168 0428 23341100 		sd	ra,8(sp)
 1169 042c 23308100 		sd	s0,0(sp)
 1170              		.cfi_offset 1, -8
 1171              		.cfi_offset 8, -16
 1172 0430 13040101 		addi	s0,sp,16
 1173              		.cfi_def_cfa 8, 0
  12:tests/userMain.cpp **** //    Threads_C_API_test(); // zadatak 2., niti C API i sinhrona promena konteksta
  13:tests/userMain.cpp **** //    Threads_CPP_API_test(); // zadatak 2., niti CPP API i sinhrona promena konteksta
  14:tests/userMain.cpp **** 
  15:tests/userMain.cpp **** //    producerConsumer_C_API(); // zadatak 3., kompletan C API sa semaforima, sinhrona promena kont
  16:tests/userMain.cpp **** //    producerConsumer_CPP_Sync_API(); // zadatak 3., kompletan CPP API sa semaforima, sinhrona pro
  17:tests/userMain.cpp **** 
  18:tests/userMain.cpp **** //    testSleeping(); // thread_sleep test C API
  19:tests/userMain.cpp ****     ConsumerProducerCPP::testConsumerProducer(); // zadatak 4. CPP API i asinhrona promena kontekst
 1174              		.loc 2 19 5
 1175              		.loc 2 19 46 is_stmt 0
 1176 0434 97000000 		call	_ZN19ConsumerProducerCPP20testConsumerProducerEv
 1176      E7800000 
 1177              	.LVL130:
  20:tests/userMain.cpp **** 
  21:tests/userMain.cpp **** }...
 1178              		.loc 2 21 1
 1179 043c 83308100 		ld	ra,8(sp)
 1180              		.cfi_restore 1
 1181 0440 03340100 		ld	s0,0(sp)
 1182              		.cfi_restore 8
 1183              		.cfi_def_cfa 2, 16
 1184 0444 13010101 		addi	sp,sp,16
 1185              		.cfi_def_cfa_offset 0
 1186 0448 67800000 		jr	ra
 1187              		.cfi_endproc
 1188              	.LFE27:
 1190              		.weak	_ZTVN19ConsumerProducerCPP16ProducerKeyboradE
 1191              		.section	.data.rel.ro.local._ZTVN19ConsumerProducerCPP16ProducerKeyboradE,"awG",@progbits,_ZTVN19C
 1192              		.align	3
 1195              	_ZTVN19ConsumerProducerCPP16ProducerKeyboradE:
 1196 0000 00000000 		.dword	0
 1196      00000000 
 1197 0008 00000000 		.dword	0
 1197      00000000 
 1198 0010 00000000 		.dword	_ZN19ConsumerProducerCPP16ProducerKeyboradD1Ev
 1198      00000000 
 1199 0018 00000000 		.dword	_ZN19ConsumerProducerCPP16ProducerKeyboradD0Ev
 1199      00000000 
 1200 0020 00000000 		.dword	_ZN19ConsumerProducerCPP16ProducerKeyborad3runEv
 1200      00000000 
 1201              		.weak	_ZTVN19ConsumerProducerCPP8ProducerE
 1202              		.section	.data.rel.ro.local._ZTVN19ConsumerProducerCPP8ProducerE,"awG",@progbits,_ZTVN19ConsumerPr
 1203              		.align	3
 1206              	_ZTVN19ConsumerProducerCPP8ProducerE:
 1207 0000 00000000 		.dword	0
 1207      00000000 
 1208 0008 00000000 		.dword	0
GAS LISTING /tmp/ccZXeySo.s 			page 30


 1208      00000000 
 1209 0010 00000000 		.dword	_ZN19ConsumerProducerCPP8ProducerD1Ev
 1209      00000000 
 1210 0018 00000000 		.dword	_ZN19ConsumerProducerCPP8ProducerD0Ev
 1210      00000000 
 1211 0020 00000000 		.dword	_ZN19ConsumerProducerCPP8Producer3runEv
 1211      00000000 
 1212              		.weak	_ZTVN19ConsumerProducerCPP8ConsumerE
 1213              		.section	.data.rel.ro.local._ZTVN19ConsumerProducerCPP8ConsumerE,"awG",@progbits,_ZTVN19ConsumerPr
 1214              		.align	3
 1217              	_ZTVN19ConsumerProducerCPP8ConsumerE:
 1218 0000 00000000 		.dword	0
 1218      00000000 
 1219 0008 00000000 		.dword	0
 1219      00000000 
 1220 0010 00000000 		.dword	_ZN19ConsumerProducerCPP8ConsumerD1Ev
 1220      00000000 
 1221 0018 00000000 		.dword	_ZN19ConsumerProducerCPP8ConsumerD0Ev
 1221      00000000 
 1222 0020 00000000 		.dword	_ZN19ConsumerProducerCPP8Consumer3runEv
 1222      00000000 
 1223              		.globl	_ZN19ConsumerProducerCPP9threadEndE
 1224              		.globl	_ZN19ConsumerProducerCPP10waitForAllE
 1225              		.bss
 1226              		.align	3
 1227              		.set	.LANCHOR0,. + 0
 1230              	_ZN19ConsumerProducerCPP9threadEndE:
 1231 0000 00000000 		.zero	4
 1232 0004 00000000 		.zero	4
 1235              	_ZN19ConsumerProducerCPP10waitForAllE:
 1236 0008 00000000 		.zero	8
 1236      00000000 
 1237              		.text
 1238              	.Letext0:
 1239              		.file 3 "tests/../h/../lib/hw.h"
 1240              		.file 4 "tests/../h/syscall_cpp.hpp"
 1241              		.file 5 "tests/buffer_CPP_API.hpp"
 1242              		.file 6 "tests/../h/printing.hpp"
 1243              		.file 7 "tests/../h/../h/syscall_c.h"
 4949              		.align	3
 4952              	DW.ref.__gxx_personality_v0:
 4953 0000 00000000 		.dword	__gxx_personality_v0
 4953      00000000 
 4954              		.ident	"GCC: (Ubuntu 9.4.0-1ubuntu1~20.04) 9.4.0"
 4955              		.section	.note.GNU-stack,"",@progbits
GAS LISTING /tmp/ccZXeySo.s 			page 31


DEFINED SYMBOLS
                            *ABS*:0000000000000000 userMain.cpp
     /tmp/ccZXeySo.s:10     .text._ZN19ConsumerProducerCPP8Consumer3runEv:0000000000000000 _ZN19ConsumerProducerCPP8Consumer3runEv
     /tmp/ccZXeySo.s:14     .text._ZN19ConsumerProducerCPP8Consumer3runEv:0000000000000000 .L0 
     /tmp/ccZXeySo.s:16     .text._ZN19ConsumerProducerCPP8Consumer3runEv:0000000000000000 .L0 
     /tmp/ccZXeySo.s:17     .text._ZN19ConsumerProducerCPP8Consumer3runEv:0000000000000004 .L0 
     /tmp/ccZXeySo.s:23     .text._ZN19ConsumerProducerCPP8Consumer3runEv:0000000000000018 .L0 
     /tmp/ccZXeySo.s:24     .text._ZN19ConsumerProducerCPP8Consumer3runEv:0000000000000018 .L0 
     /tmp/ccZXeySo.s:25     .text._ZN19ConsumerProducerCPP8Consumer3runEv:0000000000000018 .L0 
     /tmp/ccZXeySo.s:26     .text._ZN19ConsumerProducerCPP8Consumer3runEv:0000000000000018 .L0 
     /tmp/ccZXeySo.s:27     .text._ZN19ConsumerProducerCPP8Consumer3runEv:0000000000000018 .L0 
     /tmp/ccZXeySo.s:29     .text._ZN19ConsumerProducerCPP8Consumer3runEv:000000000000001c .L0 
     /tmp/ccZXeySo.s:33     .text._ZN19ConsumerProducerCPP8Consumer3runEv:0000000000000020 .L0 
     /tmp/ccZXeySo.s:34     .text._ZN19ConsumerProducerCPP8Consumer3runEv:0000000000000020 .L0 
     /tmp/ccZXeySo.s:40     .text._ZN19ConsumerProducerCPP8Consumer3runEv:0000000000000028 .L0 
     /tmp/ccZXeySo.s:41     .text._ZN19ConsumerProducerCPP8Consumer3runEv:0000000000000028 .L0 
     /tmp/ccZXeySo.s:47     .text._ZN19ConsumerProducerCPP8Consumer3runEv:0000000000000034 .L0 
     /tmp/ccZXeySo.s:48     .text._ZN19ConsumerProducerCPP8Consumer3runEv:0000000000000034 .L0 
     /tmp/ccZXeySo.s:52     .text._ZN19ConsumerProducerCPP8Consumer3runEv:0000000000000040 .L0 
     /tmp/ccZXeySo.s:53     .text._ZN19ConsumerProducerCPP8Consumer3runEv:0000000000000040 .L0 
     /tmp/ccZXeySo.s:55     .text._ZN19ConsumerProducerCPP8Consumer3runEv:0000000000000044 .L0 
     /tmp/ccZXeySo.s:59     .text._ZN19ConsumerProducerCPP8Consumer3runEv:0000000000000050 .L0 
     /tmp/ccZXeySo.s:60     .text._ZN19ConsumerProducerCPP8Consumer3runEv:0000000000000050 .L0 
     /tmp/ccZXeySo.s:64     .text._ZN19ConsumerProducerCPP8Consumer3runEv:0000000000000058 .L0 
     /tmp/ccZXeySo.s:65     .text._ZN19ConsumerProducerCPP8Consumer3runEv:0000000000000058 .L0 
     /tmp/ccZXeySo.s:70     .text._ZN19ConsumerProducerCPP8Consumer3runEv:0000000000000064 .L0 
     /tmp/ccZXeySo.s:71     .text._ZN19ConsumerProducerCPP8Consumer3runEv:0000000000000064 .L0 
     /tmp/ccZXeySo.s:75     .text._ZN19ConsumerProducerCPP8Consumer3runEv:000000000000006c .L0 
     /tmp/ccZXeySo.s:81     .text._ZN19ConsumerProducerCPP8Consumer3runEv:0000000000000074 .L0 
     /tmp/ccZXeySo.s:82     .text._ZN19ConsumerProducerCPP8Consumer3runEv:0000000000000074 .L0 
     /tmp/ccZXeySo.s:84     .text._ZN19ConsumerProducerCPP8Consumer3runEv:0000000000000078 .L0 
     /tmp/ccZXeySo.s:88     .text._ZN19ConsumerProducerCPP8Consumer3runEv:0000000000000084 .L0 
     /tmp/ccZXeySo.s:89     .text._ZN19ConsumerProducerCPP8Consumer3runEv:0000000000000084 .L0 
     /tmp/ccZXeySo.s:96     .text._ZN19ConsumerProducerCPP8Consumer3runEv:0000000000000090 .L0 
     /tmp/ccZXeySo.s:97     .text._ZN19ConsumerProducerCPP8Consumer3runEv:0000000000000090 .L0 
     /tmp/ccZXeySo.s:98     .text._ZN19ConsumerProducerCPP8Consumer3runEv:0000000000000090 .L0 
     /tmp/ccZXeySo.s:100    .text._ZN19ConsumerProducerCPP8Consumer3runEv:0000000000000094 .L0 
     /tmp/ccZXeySo.s:104    .text._ZN19ConsumerProducerCPP8Consumer3runEv:00000000000000a0 .L0 
     /tmp/ccZXeySo.s:106    .text._ZN19ConsumerProducerCPP8Consumer3runEv:00000000000000a4 .L0 
     /tmp/ccZXeySo.s:108    .text._ZN19ConsumerProducerCPP8Consumer3runEv:00000000000000a8 .L0 
     /tmp/ccZXeySo.s:112    .text._ZN19ConsumerProducerCPP8Consumer3runEv:00000000000000b4 .L0 
     /tmp/ccZXeySo.s:113    .text._ZN19ConsumerProducerCPP8Consumer3runEv:00000000000000b8 .L0 
     /tmp/ccZXeySo.s:115    .text._ZN19ConsumerProducerCPP8Consumer3runEv:00000000000000bc .L0 
     /tmp/ccZXeySo.s:116    .text._ZN19ConsumerProducerCPP8Consumer3runEv:00000000000000bc .L0 
     /tmp/ccZXeySo.s:118    .text._ZN19ConsumerProducerCPP8Consumer3runEv:00000000000000c0 .L0 
     /tmp/ccZXeySo.s:120    .text._ZN19ConsumerProducerCPP8Consumer3runEv:00000000000000c4 .L0 
     /tmp/ccZXeySo.s:123    .text._ZN19ConsumerProducerCPP8Consumer3runEv:00000000000000c8 .L0 
     /tmp/ccZXeySo.s:126    .text._ZN19ConsumerProducerCPP8Consumer3runEv:00000000000000cc .L0 
     /tmp/ccZXeySo.s:128    .text._ZN19ConsumerProducerCPP8Consumer3runEv:00000000000000d0 .L0 
     /tmp/ccZXeySo.s:135    .text._ZN19ConsumerProducerCPP8ConsumerD2Ev:0000000000000000 _ZN19ConsumerProducerCPP8ConsumerD2Ev
     /tmp/ccZXeySo.s:138    .text._ZN19ConsumerProducerCPP8ConsumerD2Ev:0000000000000000 .L0 
     /tmp/ccZXeySo.s:140    .text._ZN19ConsumerProducerCPP8ConsumerD2Ev:0000000000000000 .L0 
     /tmp/ccZXeySo.s:141    .text._ZN19ConsumerProducerCPP8ConsumerD2Ev:0000000000000004 .L0 
     /tmp/ccZXeySo.s:144    .text._ZN19ConsumerProducerCPP8ConsumerD2Ev:000000000000000c .L0 
     /tmp/ccZXeySo.s:145    .text._ZN19ConsumerProducerCPP8ConsumerD2Ev:000000000000000c .L0 
     /tmp/ccZXeySo.s:147    .text._ZN19ConsumerProducerCPP8ConsumerD2Ev:0000000000000010 .L0 
     /tmp/ccZXeySo.s:1217   .data.rel.ro.local._ZTVN19ConsumerProducerCPP8ConsumerE:0000000000000000 _ZTVN19ConsumerProducerCPP8ConsumerE
GAS LISTING /tmp/ccZXeySo.s 			page 32


     /tmp/ccZXeySo.s:150    .text._ZN19ConsumerProducerCPP8ConsumerD2Ev:0000000000000010 .L0 
     /tmp/ccZXeySo.s:156    .text._ZN19ConsumerProducerCPP8ConsumerD2Ev:0000000000000028 .L0 
     /tmp/ccZXeySo.s:158    .text._ZN19ConsumerProducerCPP8ConsumerD2Ev:000000000000002c .L0 
     /tmp/ccZXeySo.s:159    .text._ZN19ConsumerProducerCPP8ConsumerD2Ev:000000000000002c .L0 
     /tmp/ccZXeySo.s:161    .text._ZN19ConsumerProducerCPP8ConsumerD2Ev:0000000000000030 .L0 
     /tmp/ccZXeySo.s:163    .text._ZN19ConsumerProducerCPP8ConsumerD2Ev:0000000000000034 .L0 
     /tmp/ccZXeySo.s:135    .text._ZN19ConsumerProducerCPP8ConsumerD2Ev:0000000000000000 _ZN19ConsumerProducerCPP8ConsumerD1Ev
     /tmp/ccZXeySo.s:172    .text._ZN19ConsumerProducerCPP8ConsumerD0Ev:0000000000000000 _ZN19ConsumerProducerCPP8ConsumerD0Ev
     /tmp/ccZXeySo.s:175    .text._ZN19ConsumerProducerCPP8ConsumerD0Ev:0000000000000000 .L0 
     /tmp/ccZXeySo.s:177    .text._ZN19ConsumerProducerCPP8ConsumerD0Ev:0000000000000000 .L0 
     /tmp/ccZXeySo.s:178    .text._ZN19ConsumerProducerCPP8ConsumerD0Ev:0000000000000004 .L0 
     /tmp/ccZXeySo.s:182    .text._ZN19ConsumerProducerCPP8ConsumerD0Ev:0000000000000010 .L0 
     /tmp/ccZXeySo.s:183    .text._ZN19ConsumerProducerCPP8ConsumerD0Ev:0000000000000010 .L0 
     /tmp/ccZXeySo.s:184    .text._ZN19ConsumerProducerCPP8ConsumerD0Ev:0000000000000010 .L0 
     /tmp/ccZXeySo.s:186    .text._ZN19ConsumerProducerCPP8ConsumerD0Ev:0000000000000014 .L0 
     /tmp/ccZXeySo.s:192    .text._ZN19ConsumerProducerCPP8ConsumerD0Ev:0000000000000018 .L0 
     /tmp/ccZXeySo.s:202    .text._ZN19ConsumerProducerCPP8ConsumerD0Ev:000000000000003c .L0 
     /tmp/ccZXeySo.s:204    .text._ZN19ConsumerProducerCPP8ConsumerD0Ev:0000000000000040 .L0 
     /tmp/ccZXeySo.s:205    .text._ZN19ConsumerProducerCPP8ConsumerD0Ev:0000000000000040 .L0 
     /tmp/ccZXeySo.s:207    .text._ZN19ConsumerProducerCPP8ConsumerD0Ev:0000000000000044 .L0 
     /tmp/ccZXeySo.s:210    .text._ZN19ConsumerProducerCPP8ConsumerD0Ev:0000000000000048 .L0 
     /tmp/ccZXeySo.s:212    .text._ZN19ConsumerProducerCPP8ConsumerD0Ev:000000000000004c .L0 
     /tmp/ccZXeySo.s:219    .text._ZN19ConsumerProducerCPP16ProducerKeyboradD2Ev:0000000000000000 _ZN19ConsumerProducerCPP16ProducerKeyboradD2Ev
     /tmp/ccZXeySo.s:222    .text._ZN19ConsumerProducerCPP16ProducerKeyboradD2Ev:0000000000000000 .L0 
     /tmp/ccZXeySo.s:224    .text._ZN19ConsumerProducerCPP16ProducerKeyboradD2Ev:0000000000000000 .L0 
     /tmp/ccZXeySo.s:225    .text._ZN19ConsumerProducerCPP16ProducerKeyboradD2Ev:0000000000000004 .L0 
     /tmp/ccZXeySo.s:228    .text._ZN19ConsumerProducerCPP16ProducerKeyboradD2Ev:000000000000000c .L0 
     /tmp/ccZXeySo.s:229    .text._ZN19ConsumerProducerCPP16ProducerKeyboradD2Ev:000000000000000c .L0 
     /tmp/ccZXeySo.s:231    .text._ZN19ConsumerProducerCPP16ProducerKeyboradD2Ev:0000000000000010 .L0 
     /tmp/ccZXeySo.s:1195   .data.rel.ro.local._ZTVN19ConsumerProducerCPP16ProducerKeyboradE:0000000000000000 _ZTVN19ConsumerProducerCPP16ProducerKeyboradE
     /tmp/ccZXeySo.s:234    .text._ZN19ConsumerProducerCPP16ProducerKeyboradD2Ev:0000000000000010 .L0 
     /tmp/ccZXeySo.s:240    .text._ZN19ConsumerProducerCPP16ProducerKeyboradD2Ev:0000000000000028 .L0 
     /tmp/ccZXeySo.s:242    .text._ZN19ConsumerProducerCPP16ProducerKeyboradD2Ev:000000000000002c .L0 
     /tmp/ccZXeySo.s:243    .text._ZN19ConsumerProducerCPP16ProducerKeyboradD2Ev:000000000000002c .L0 
     /tmp/ccZXeySo.s:245    .text._ZN19ConsumerProducerCPP16ProducerKeyboradD2Ev:0000000000000030 .L0 
     /tmp/ccZXeySo.s:247    .text._ZN19ConsumerProducerCPP16ProducerKeyboradD2Ev:0000000000000034 .L0 
     /tmp/ccZXeySo.s:219    .text._ZN19ConsumerProducerCPP16ProducerKeyboradD2Ev:0000000000000000 _ZN19ConsumerProducerCPP16ProducerKeyboradD1Ev
     /tmp/ccZXeySo.s:256    .text._ZN19ConsumerProducerCPP16ProducerKeyboradD0Ev:0000000000000000 _ZN19ConsumerProducerCPP16ProducerKeyboradD0Ev
     /tmp/ccZXeySo.s:259    .text._ZN19ConsumerProducerCPP16ProducerKeyboradD0Ev:0000000000000000 .L0 
     /tmp/ccZXeySo.s:261    .text._ZN19ConsumerProducerCPP16ProducerKeyboradD0Ev:0000000000000000 .L0 
     /tmp/ccZXeySo.s:262    .text._ZN19ConsumerProducerCPP16ProducerKeyboradD0Ev:0000000000000004 .L0 
     /tmp/ccZXeySo.s:266    .text._ZN19ConsumerProducerCPP16ProducerKeyboradD0Ev:0000000000000010 .L0 
     /tmp/ccZXeySo.s:267    .text._ZN19ConsumerProducerCPP16ProducerKeyboradD0Ev:0000000000000010 .L0 
     /tmp/ccZXeySo.s:268    .text._ZN19ConsumerProducerCPP16ProducerKeyboradD0Ev:0000000000000010 .L0 
     /tmp/ccZXeySo.s:270    .text._ZN19ConsumerProducerCPP16ProducerKeyboradD0Ev:0000000000000014 .L0 
     /tmp/ccZXeySo.s:276    .text._ZN19ConsumerProducerCPP16ProducerKeyboradD0Ev:0000000000000018 .L0 
     /tmp/ccZXeySo.s:286    .text._ZN19ConsumerProducerCPP16ProducerKeyboradD0Ev:000000000000003c .L0 
     /tmp/ccZXeySo.s:288    .text._ZN19ConsumerProducerCPP16ProducerKeyboradD0Ev:0000000000000040 .L0 
     /tmp/ccZXeySo.s:289    .text._ZN19ConsumerProducerCPP16ProducerKeyboradD0Ev:0000000000000040 .L0 
     /tmp/ccZXeySo.s:291    .text._ZN19ConsumerProducerCPP16ProducerKeyboradD0Ev:0000000000000044 .L0 
     /tmp/ccZXeySo.s:294    .text._ZN19ConsumerProducerCPP16ProducerKeyboradD0Ev:0000000000000048 .L0 
     /tmp/ccZXeySo.s:296    .text._ZN19ConsumerProducerCPP16ProducerKeyboradD0Ev:000000000000004c .L0 
     /tmp/ccZXeySo.s:303    .text._ZN19ConsumerProducerCPP8ProducerD2Ev:0000000000000000 _ZN19ConsumerProducerCPP8ProducerD2Ev
     /tmp/ccZXeySo.s:306    .text._ZN19ConsumerProducerCPP8ProducerD2Ev:0000000000000000 .L0 
     /tmp/ccZXeySo.s:308    .text._ZN19ConsumerProducerCPP8ProducerD2Ev:0000000000000000 .L0 
     /tmp/ccZXeySo.s:309    .text._ZN19ConsumerProducerCPP8ProducerD2Ev:0000000000000004 .L0 
     /tmp/ccZXeySo.s:312    .text._ZN19ConsumerProducerCPP8ProducerD2Ev:000000000000000c .L0 
GAS LISTING /tmp/ccZXeySo.s 			page 33


     /tmp/ccZXeySo.s:313    .text._ZN19ConsumerProducerCPP8ProducerD2Ev:000000000000000c .L0 
     /tmp/ccZXeySo.s:315    .text._ZN19ConsumerProducerCPP8ProducerD2Ev:0000000000000010 .L0 
     /tmp/ccZXeySo.s:1206   .data.rel.ro.local._ZTVN19ConsumerProducerCPP8ProducerE:0000000000000000 _ZTVN19ConsumerProducerCPP8ProducerE
     /tmp/ccZXeySo.s:318    .text._ZN19ConsumerProducerCPP8ProducerD2Ev:0000000000000010 .L0 
     /tmp/ccZXeySo.s:324    .text._ZN19ConsumerProducerCPP8ProducerD2Ev:0000000000000028 .L0 
     /tmp/ccZXeySo.s:326    .text._ZN19ConsumerProducerCPP8ProducerD2Ev:000000000000002c .L0 
     /tmp/ccZXeySo.s:327    .text._ZN19ConsumerProducerCPP8ProducerD2Ev:000000000000002c .L0 
     /tmp/ccZXeySo.s:329    .text._ZN19ConsumerProducerCPP8ProducerD2Ev:0000000000000030 .L0 
     /tmp/ccZXeySo.s:331    .text._ZN19ConsumerProducerCPP8ProducerD2Ev:0000000000000034 .L0 
     /tmp/ccZXeySo.s:303    .text._ZN19ConsumerProducerCPP8ProducerD2Ev:0000000000000000 _ZN19ConsumerProducerCPP8ProducerD1Ev
     /tmp/ccZXeySo.s:340    .text._ZN19ConsumerProducerCPP8ProducerD0Ev:0000000000000000 _ZN19ConsumerProducerCPP8ProducerD0Ev
     /tmp/ccZXeySo.s:343    .text._ZN19ConsumerProducerCPP8ProducerD0Ev:0000000000000000 .L0 
     /tmp/ccZXeySo.s:345    .text._ZN19ConsumerProducerCPP8ProducerD0Ev:0000000000000000 .L0 
     /tmp/ccZXeySo.s:346    .text._ZN19ConsumerProducerCPP8ProducerD0Ev:0000000000000004 .L0 
     /tmp/ccZXeySo.s:350    .text._ZN19ConsumerProducerCPP8ProducerD0Ev:0000000000000010 .L0 
     /tmp/ccZXeySo.s:351    .text._ZN19ConsumerProducerCPP8ProducerD0Ev:0000000000000010 .L0 
     /tmp/ccZXeySo.s:352    .text._ZN19ConsumerProducerCPP8ProducerD0Ev:0000000000000010 .L0 
     /tmp/ccZXeySo.s:354    .text._ZN19ConsumerProducerCPP8ProducerD0Ev:0000000000000014 .L0 
     /tmp/ccZXeySo.s:360    .text._ZN19ConsumerProducerCPP8ProducerD0Ev:0000000000000018 .L0 
     /tmp/ccZXeySo.s:370    .text._ZN19ConsumerProducerCPP8ProducerD0Ev:000000000000003c .L0 
     /tmp/ccZXeySo.s:372    .text._ZN19ConsumerProducerCPP8ProducerD0Ev:0000000000000040 .L0 
     /tmp/ccZXeySo.s:373    .text._ZN19ConsumerProducerCPP8ProducerD0Ev:0000000000000040 .L0 
     /tmp/ccZXeySo.s:375    .text._ZN19ConsumerProducerCPP8ProducerD0Ev:0000000000000044 .L0 
     /tmp/ccZXeySo.s:378    .text._ZN19ConsumerProducerCPP8ProducerD0Ev:0000000000000048 .L0 
     /tmp/ccZXeySo.s:380    .text._ZN19ConsumerProducerCPP8ProducerD0Ev:000000000000004c .L0 
     /tmp/ccZXeySo.s:387    .text._ZN19ConsumerProducerCPP16ProducerKeyborad3runEv:0000000000000000 _ZN19ConsumerProducerCPP16ProducerKeyborad3runEv
     /tmp/ccZXeySo.s:390    .text._ZN19ConsumerProducerCPP16ProducerKeyborad3runEv:0000000000000000 .L0 
     /tmp/ccZXeySo.s:392    .text._ZN19ConsumerProducerCPP16ProducerKeyborad3runEv:0000000000000000 .L0 
     /tmp/ccZXeySo.s:393    .text._ZN19ConsumerProducerCPP16ProducerKeyborad3runEv:0000000000000004 .L0 
     /tmp/ccZXeySo.s:397    .text._ZN19ConsumerProducerCPP16ProducerKeyborad3runEv:0000000000000010 .L0 
     /tmp/ccZXeySo.s:398    .text._ZN19ConsumerProducerCPP16ProducerKeyborad3runEv:0000000000000010 .L0 
     /tmp/ccZXeySo.s:399    .text._ZN19ConsumerProducerCPP16ProducerKeyborad3runEv:0000000000000010 .L0 
     /tmp/ccZXeySo.s:401    .text._ZN19ConsumerProducerCPP16ProducerKeyborad3runEv:0000000000000014 .L0 
     /tmp/ccZXeySo.s:404    .text._ZN19ConsumerProducerCPP16ProducerKeyborad3runEv:0000000000000018 .L0 
     /tmp/ccZXeySo.s:407    .text._ZN19ConsumerProducerCPP16ProducerKeyborad3runEv:0000000000000018 .L0 
     /tmp/ccZXeySo.s:408    .text._ZN19ConsumerProducerCPP16ProducerKeyborad3runEv:0000000000000018 .L0 
     /tmp/ccZXeySo.s:409    .text._ZN19ConsumerProducerCPP16ProducerKeyborad3runEv:0000000000000018 .L0 
     /tmp/ccZXeySo.s:410    .text._ZN19ConsumerProducerCPP16ProducerKeyborad3runEv:0000000000000018 .L0 
     /tmp/ccZXeySo.s:413    .text._ZN19ConsumerProducerCPP16ProducerKeyborad3runEv:0000000000000020 .L0 
     /tmp/ccZXeySo.s:416    .text._ZN19ConsumerProducerCPP16ProducerKeyborad3runEv:0000000000000024 .L0 
     /tmp/ccZXeySo.s:419    .text._ZN19ConsumerProducerCPP16ProducerKeyborad3runEv:000000000000002c .L0 
     /tmp/ccZXeySo.s:421    .text._ZN19ConsumerProducerCPP16ProducerKeyborad3runEv:0000000000000030 .L0 
     /tmp/ccZXeySo.s:425    .text._ZN19ConsumerProducerCPP16ProducerKeyborad3runEv:000000000000003c .L0 
     /tmp/ccZXeySo.s:426    .text._ZN19ConsumerProducerCPP16ProducerKeyborad3runEv:000000000000003c .L0 
     /tmp/ccZXeySo.s:430    .text._ZN19ConsumerProducerCPP16ProducerKeyborad3runEv:0000000000000040 .L0 
     /tmp/ccZXeySo.s:431    .text._ZN19ConsumerProducerCPP16ProducerKeyborad3runEv:0000000000000040 .L0 
     /tmp/ccZXeySo.s:434    .text._ZN19ConsumerProducerCPP16ProducerKeyborad3runEv:000000000000004c .L0 
     /tmp/ccZXeySo.s:436    .text._ZN19ConsumerProducerCPP16ProducerKeyborad3runEv:0000000000000050 .L0 
     /tmp/ccZXeySo.s:443    .text._ZN19ConsumerProducerCPP16ProducerKeyborad3runEv:0000000000000060 .L0 
     /tmp/ccZXeySo.s:445    .text._ZN19ConsumerProducerCPP16ProducerKeyborad3runEv:0000000000000064 .L0 
     /tmp/ccZXeySo.s:449    .text._ZN19ConsumerProducerCPP16ProducerKeyborad3runEv:0000000000000070 .L0 
     /tmp/ccZXeySo.s:450    .text._ZN19ConsumerProducerCPP16ProducerKeyborad3runEv:0000000000000074 .L0 
     /tmp/ccZXeySo.s:452    .text._ZN19ConsumerProducerCPP16ProducerKeyborad3runEv:0000000000000078 .L0 
     /tmp/ccZXeySo.s:453    .text._ZN19ConsumerProducerCPP16ProducerKeyborad3runEv:0000000000000078 .L0 
     /tmp/ccZXeySo.s:455    .text._ZN19ConsumerProducerCPP16ProducerKeyborad3runEv:000000000000007c .L0 
     /tmp/ccZXeySo.s:458    .text._ZN19ConsumerProducerCPP16ProducerKeyborad3runEv:0000000000000080 .L0 
     /tmp/ccZXeySo.s:460    .text._ZN19ConsumerProducerCPP16ProducerKeyborad3runEv:0000000000000084 .L0 
GAS LISTING /tmp/ccZXeySo.s 			page 34


     /tmp/ccZXeySo.s:467    .text._ZN19ConsumerProducerCPP8Producer3runEv:0000000000000000 _ZN19ConsumerProducerCPP8Producer3runEv
     /tmp/ccZXeySo.s:470    .text._ZN19ConsumerProducerCPP8Producer3runEv:0000000000000000 .L0 
     /tmp/ccZXeySo.s:472    .text._ZN19ConsumerProducerCPP8Producer3runEv:0000000000000000 .L0 
     /tmp/ccZXeySo.s:473    .text._ZN19ConsumerProducerCPP8Producer3runEv:0000000000000004 .L0 
     /tmp/ccZXeySo.s:478    .text._ZN19ConsumerProducerCPP8Producer3runEv:0000000000000014 .L0 
     /tmp/ccZXeySo.s:479    .text._ZN19ConsumerProducerCPP8Producer3runEv:0000000000000014 .L0 
     /tmp/ccZXeySo.s:480    .text._ZN19ConsumerProducerCPP8Producer3runEv:0000000000000014 .L0 
     /tmp/ccZXeySo.s:481    .text._ZN19ConsumerProducerCPP8Producer3runEv:0000000000000014 .L0 
     /tmp/ccZXeySo.s:483    .text._ZN19ConsumerProducerCPP8Producer3runEv:0000000000000018 .L0 
     /tmp/ccZXeySo.s:487    .text._ZN19ConsumerProducerCPP8Producer3runEv:000000000000001c .L0 
     /tmp/ccZXeySo.s:488    .text._ZN19ConsumerProducerCPP8Producer3runEv:000000000000001c .L0 
     /tmp/ccZXeySo.s:492    .text._ZN19ConsumerProducerCPP8Producer3runEv:0000000000000020 .L0 
     /tmp/ccZXeySo.s:493    .text._ZN19ConsumerProducerCPP8Producer3runEv:0000000000000020 .L0 
     /tmp/ccZXeySo.s:496    .text._ZN19ConsumerProducerCPP8Producer3runEv:000000000000002c .L0 
     /tmp/ccZXeySo.s:498    .text._ZN19ConsumerProducerCPP8Producer3runEv:0000000000000030 .L0 
     /tmp/ccZXeySo.s:500    .text._ZN19ConsumerProducerCPP8Producer3runEv:0000000000000034 .L0 
     /tmp/ccZXeySo.s:505    .text._ZN19ConsumerProducerCPP8Producer3runEv:0000000000000044 .L0 
     /tmp/ccZXeySo.s:506    .text._ZN19ConsumerProducerCPP8Producer3runEv:0000000000000044 .L0 
     /tmp/ccZXeySo.s:510    .text._ZN19ConsumerProducerCPP8Producer3runEv:000000000000004c .L0 
     /tmp/ccZXeySo.s:511    .text._ZN19ConsumerProducerCPP8Producer3runEv:000000000000004c .L0 
     /tmp/ccZXeySo.s:513    .text._ZN19ConsumerProducerCPP8Producer3runEv:0000000000000050 .L0 
     /tmp/ccZXeySo.s:515    .text._ZN19ConsumerProducerCPP8Producer3runEv:0000000000000054 .L0 
     /tmp/ccZXeySo.s:517    .text._ZN19ConsumerProducerCPP8Producer3runEv:0000000000000058 .L0 
     /tmp/ccZXeySo.s:522    .text._ZN19ConsumerProducerCPP8Producer3runEv:0000000000000068 .L0 
     /tmp/ccZXeySo.s:525    .text._ZN19ConsumerProducerCPP8Producer3runEv:000000000000006c .L0 
     /tmp/ccZXeySo.s:527    .text._ZN19ConsumerProducerCPP8Producer3runEv:0000000000000070 .L0 
     /tmp/ccZXeySo.s:531    .text._ZN19ConsumerProducerCPP8Producer3runEv:000000000000007c .L0 
     /tmp/ccZXeySo.s:532    .text._ZN19ConsumerProducerCPP8Producer3runEv:0000000000000080 .L0 
     /tmp/ccZXeySo.s:534    .text._ZN19ConsumerProducerCPP8Producer3runEv:0000000000000084 .L0 
     /tmp/ccZXeySo.s:535    .text._ZN19ConsumerProducerCPP8Producer3runEv:0000000000000084 .L0 
     /tmp/ccZXeySo.s:537    .text._ZN19ConsumerProducerCPP8Producer3runEv:0000000000000088 .L0 
     /tmp/ccZXeySo.s:540    .text._ZN19ConsumerProducerCPP8Producer3runEv:000000000000008c .L0 
     /tmp/ccZXeySo.s:543    .text._ZN19ConsumerProducerCPP8Producer3runEv:0000000000000090 .L0 
     /tmp/ccZXeySo.s:545    .text._ZN19ConsumerProducerCPP8Producer3runEv:0000000000000094 .L0 
     /tmp/ccZXeySo.s:574    .text:0000000000000000 _ZN19ConsumerProducerCPP20testConsumerProducerEv
     /tmp/ccZXeySo.s:577    .text:0000000000000000 .L0 
     /tmp/ccZXeySo.s:4952   .data.rel.local.DW.ref.__gxx_personality_v0:0000000000000000 DW.ref.__gxx_personality_v0
     /tmp/ccZXeySo.s:580    .text:0000000000000000 .L0 
     /tmp/ccZXeySo.s:581    .text:0000000000000004 .L0 
     /tmp/ccZXeySo.s:593    .text:0000000000000030 .L0 
     /tmp/ccZXeySo.s:594    .text:0000000000000030 .L0 
     /tmp/ccZXeySo.s:595    .text:0000000000000030 .L0 
     /tmp/ccZXeySo.s:596    .text:0000000000000030 .L0 
     /tmp/ccZXeySo.s:597    .text:0000000000000030 .L0 
     /tmp/ccZXeySo.s:598    .text:0000000000000030 .L0 
     /tmp/ccZXeySo.s:599    .text:0000000000000030 .L0 
     /tmp/ccZXeySo.s:600    .text:0000000000000030 .L0 
     /tmp/ccZXeySo.s:601    .text:0000000000000030 .L0 
     /tmp/ccZXeySo.s:602    .text:0000000000000030 .L0 
     /tmp/ccZXeySo.s:603    .text:0000000000000030 .L0 
     /tmp/ccZXeySo.s:605    .text:0000000000000034 .L0 
     /tmp/ccZXeySo.s:607    .text:0000000000000034 .L0 
     /tmp/ccZXeySo.s:609    .text:0000000000000038 .L0 
     /tmp/ccZXeySo.s:610    .text:0000000000000038 .L0 
     /tmp/ccZXeySo.s:611    .text:0000000000000038 .L0 
     /tmp/ccZXeySo.s:612    .text:0000000000000038 .L0 
     /tmp/ccZXeySo.s:617    .text:0000000000000048 .L0 
GAS LISTING /tmp/ccZXeySo.s 			page 35


     /tmp/ccZXeySo.s:618    .text:0000000000000048 .L0 
     /tmp/ccZXeySo.s:624    .text:000000000000005c .L0 
     /tmp/ccZXeySo.s:625    .text:000000000000005c .L0 
     /tmp/ccZXeySo.s:631    .text:000000000000006c .L0 
     /tmp/ccZXeySo.s:632    .text:000000000000006c .L0 
     /tmp/ccZXeySo.s:636    .text:000000000000007c .L0 
     /tmp/ccZXeySo.s:637    .text:000000000000007c .L0 
     /tmp/ccZXeySo.s:642    .text:000000000000008c .L0 
     /tmp/ccZXeySo.s:643    .text:000000000000008c .L0 
     /tmp/ccZXeySo.s:649    .text:000000000000009c .L0 
     /tmp/ccZXeySo.s:650    .text:000000000000009c .L0 
     /tmp/ccZXeySo.s:654    .text:00000000000000ac .L0 
     /tmp/ccZXeySo.s:655    .text:00000000000000ac .L0 
     /tmp/ccZXeySo.s:661    .text:00000000000000c0 .L0 
     /tmp/ccZXeySo.s:662    .text:00000000000000c0 .L0 
     /tmp/ccZXeySo.s:666    .text:00000000000000d0 .L0 
     /tmp/ccZXeySo.s:667    .text:00000000000000d0 .L0 
     /tmp/ccZXeySo.s:673    .text:00000000000000e4 .L0 
     /tmp/ccZXeySo.s:674    .text:00000000000000e4 .L0 
     /tmp/ccZXeySo.s:678    .text:00000000000000f4 .L0 
     /tmp/ccZXeySo.s:680    .text:00000000000000f8 .L0 
     /tmp/ccZXeySo.s:682    .text:00000000000000fc .L0 
     /tmp/ccZXeySo.s:683    .text:00000000000000fc .L0 
     /tmp/ccZXeySo.s:696    .text:000000000000011c .L0 
     /tmp/ccZXeySo.s:697    .text:000000000000011c .L0 
     /tmp/ccZXeySo.s:702    .text:000000000000012c .L0 
     /tmp/ccZXeySo.s:705    .text:0000000000000130 .L0 
     /tmp/ccZXeySo.s:706    .text:0000000000000130 .L0 
     /tmp/ccZXeySo.s:711    .text:0000000000000140 .L0 
     /tmp/ccZXeySo.s:716    .text:0000000000000148 .L0 
     /tmp/ccZXeySo.s:717    .text:0000000000000148 .L0 
     /tmp/ccZXeySo.s:729    .text:0000000000000164 .L0 
     /tmp/ccZXeySo.s:733    .text:0000000000000170 .L0 
     /tmp/ccZXeySo.s:734    .text:0000000000000170 .L0 
     /tmp/ccZXeySo.s:741    .text:0000000000000184 .L0 
     /tmp/ccZXeySo.s:742    .text:0000000000000184 .L0 
     /tmp/ccZXeySo.s:745    .text:0000000000000188 .L0 
     /tmp/ccZXeySo.s:755    .text:00000000000001a4 .L0 
     /tmp/ccZXeySo.s:756    .text:00000000000001a4 .L0 
     /tmp/ccZXeySo.s:762    .text:00000000000001b8 .L0 
     /tmp/ccZXeySo.s:763    .text:00000000000001b8 .L0 
     /tmp/ccZXeySo.s:765    .text:00000000000001bc .L0 
     /tmp/ccZXeySo.s:766    .text:00000000000001bc .L0 
     /tmp/ccZXeySo.s:769    .text:00000000000001c4 .L0 
     /tmp/ccZXeySo.s:770    .text:00000000000001c4 .L0 
     /tmp/ccZXeySo.s:781    .text:00000000000001d4 .L0 
     /tmp/ccZXeySo.s:785    .text:00000000000001dc .L0 
     /tmp/ccZXeySo.s:792    .text:00000000000001ec .L0 
     /tmp/ccZXeySo.s:793    .text:00000000000001ec .L0 
     /tmp/ccZXeySo.s:798    .text:00000000000001f8 .L0 
     /tmp/ccZXeySo.s:799    .text:00000000000001f8 .L0 
     /tmp/ccZXeySo.s:801    .text:00000000000001fc .L0 
     /tmp/ccZXeySo.s:802    .text:00000000000001fc .L0 
     /tmp/ccZXeySo.s:804    .text:0000000000000200 .L0 
     /tmp/ccZXeySo.s:805    .text:0000000000000200 .L0 
     /tmp/ccZXeySo.s:808    .text:000000000000020c .L0 
     /tmp/ccZXeySo.s:809    .text:000000000000020c .L0 
GAS LISTING /tmp/ccZXeySo.s 			page 36


     /tmp/ccZXeySo.s:819    .text:000000000000021c .L0 
     /tmp/ccZXeySo.s:829    .text:0000000000000234 .L0 
     /tmp/ccZXeySo.s:831    .text:0000000000000238 .L0 
     /tmp/ccZXeySo.s:832    .text:0000000000000238 .L0 
     /tmp/ccZXeySo.s:838    .text:0000000000000244 .L0 
     /tmp/ccZXeySo.s:845    .text:000000000000024c .L0 
     /tmp/ccZXeySo.s:852    .text:000000000000025c .L0 
     /tmp/ccZXeySo.s:856    .text:0000000000000268 .L0 
     /tmp/ccZXeySo.s:857    .text:0000000000000268 .L0 
     /tmp/ccZXeySo.s:861    .text:0000000000000274 .L0 
     /tmp/ccZXeySo.s:865    .text:0000000000000278 .L0 
     /tmp/ccZXeySo.s:867    .text:000000000000027c .L0 
     /tmp/ccZXeySo.s:868    .text:000000000000027c .L0 
     /tmp/ccZXeySo.s:874    .text:0000000000000290 .L0 
     /tmp/ccZXeySo.s:875    .text:0000000000000290 .L0 
     /tmp/ccZXeySo.s:877    .text:0000000000000294 .L0 
     /tmp/ccZXeySo.s:878    .text:0000000000000294 .L0 
     /tmp/ccZXeySo.s:881    .text:00000000000002a0 .L0 
     /tmp/ccZXeySo.s:882    .text:00000000000002a0 .L0 
     /tmp/ccZXeySo.s:892    .text:00000000000002b0 .L0 
     /tmp/ccZXeySo.s:903    .text:00000000000002bc .L0 
     /tmp/ccZXeySo.s:904    .text:00000000000002bc .L0 
     /tmp/ccZXeySo.s:908    .text:00000000000002c4 .L0 
     /tmp/ccZXeySo.s:912    .text:00000000000002c8 .L0 
     /tmp/ccZXeySo.s:914    .text:00000000000002cc .L0 
     /tmp/ccZXeySo.s:915    .text:00000000000002cc .L0 
     /tmp/ccZXeySo.s:919    .text:00000000000002dc .L0 
     /tmp/ccZXeySo.s:926    .text:00000000000002e4 .L0 
     /tmp/ccZXeySo.s:927    .text:00000000000002e4 .L0 
     /tmp/ccZXeySo.s:929    .text:00000000000002ec .L0 
     /tmp/ccZXeySo.s:931    .text:00000000000002f0 .L0 
     /tmp/ccZXeySo.s:938    .text:00000000000002fc .L0 
     /tmp/ccZXeySo.s:946    .text:0000000000000304 .L0 
     /tmp/ccZXeySo.s:950    .text:0000000000000308 .L0 
     /tmp/ccZXeySo.s:952    .text:000000000000030c .L0 
     /tmp/ccZXeySo.s:953    .text:000000000000030c .L0 
     /tmp/ccZXeySo.s:957    .text:0000000000000318 .L0 
     /tmp/ccZXeySo.s:959    .text:000000000000031c .L0 
     /tmp/ccZXeySo.s:967    .text:000000000000032c .L0 
     /tmp/ccZXeySo.s:968    .text:000000000000032c .L0 
     /tmp/ccZXeySo.s:970    .text:0000000000000330 .L0 
     /tmp/ccZXeySo.s:977    .text:0000000000000340 .L0 
     /tmp/ccZXeySo.s:978    .text:0000000000000340 .L0 
     /tmp/ccZXeySo.s:980    .text:0000000000000344 .L0 
     /tmp/ccZXeySo.s:992    .text:0000000000000360 .L0 
     /tmp/ccZXeySo.s:993    .text:0000000000000364 .L0 
     /tmp/ccZXeySo.s:994    .text:0000000000000364 .L0 
     /tmp/ccZXeySo.s:996    .text:0000000000000368 .L0 
     /tmp/ccZXeySo.s:998    .text:000000000000036c .L0 
     /tmp/ccZXeySo.s:1000   .text:0000000000000370 .L0 
     /tmp/ccZXeySo.s:1002   .text:0000000000000374 .L0 
     /tmp/ccZXeySo.s:1004   .text:0000000000000378 .L0 
     /tmp/ccZXeySo.s:1007   .text:000000000000037c .L0 
     /tmp/ccZXeySo.s:1009   .text:0000000000000380 .L0 
     /tmp/ccZXeySo.s:1011   .text:0000000000000384 .L0 
     /tmp/ccZXeySo.s:1013   .text:0000000000000388 .L0 
     /tmp/ccZXeySo.s:1015   .text:000000000000038c .L0 
GAS LISTING /tmp/ccZXeySo.s 			page 37


     /tmp/ccZXeySo.s:1017   .text:0000000000000390 .L0 
     /tmp/ccZXeySo.s:1019   .text:0000000000000394 .L0 
     /tmp/ccZXeySo.s:1023   .text:0000000000000398 .L0 
     /tmp/ccZXeySo.s:1027   .text:000000000000039c .L0 
     /tmp/ccZXeySo.s:1038   .text:00000000000003b8 .L0 
     /tmp/ccZXeySo.s:1050   .text:00000000000003d4 .L0 
     /tmp/ccZXeySo.s:1061   .text:00000000000003f0 .L0 
     /tmp/ccZXeySo.s:1074   .text:000000000000040c .L0 
     /tmp/ccZXeySo.s:1083   .text:0000000000000424 .L0 
     /tmp/ccZXeySo.s:1161   .text:0000000000000424 _Z8userMainv
     /tmp/ccZXeySo.s:1165   .text:0000000000000424 .L0 
     /tmp/ccZXeySo.s:1166   .text:0000000000000424 .L0 
     /tmp/ccZXeySo.s:1167   .text:0000000000000428 .L0 
     /tmp/ccZXeySo.s:1170   .text:0000000000000430 .L0 
     /tmp/ccZXeySo.s:1171   .text:0000000000000430 .L0 
     /tmp/ccZXeySo.s:1173   .text:0000000000000434 .L0 
     /tmp/ccZXeySo.s:1175   .text:0000000000000434 .L0 
     /tmp/ccZXeySo.s:1176   .text:0000000000000434 .L0 
     /tmp/ccZXeySo.s:1179   .text:000000000000043c .L0 
     /tmp/ccZXeySo.s:1180   .text:0000000000000440 .L0 
     /tmp/ccZXeySo.s:1182   .text:0000000000000444 .L0 
     /tmp/ccZXeySo.s:1183   .text:0000000000000444 .L0 
     /tmp/ccZXeySo.s:1185   .text:0000000000000448 .L0 
     /tmp/ccZXeySo.s:1187   .text:000000000000044c .L0 
     /tmp/ccZXeySo.s:1230   .bss:0000000000000000 _ZN19ConsumerProducerCPP9threadEndE
     /tmp/ccZXeySo.s:1235   .bss:0000000000000008 _ZN19ConsumerProducerCPP10waitForAllE
     /tmp/ccZXeySo.s:1227   .bss:0000000000000000 .LANCHOR0
     /tmp/ccZXeySo.s:131    .text._ZN19ConsumerProducerCPP8Consumer3runEv:00000000000000d0 .L0 
     /tmp/ccZXeySo.s:168    .text._ZN19ConsumerProducerCPP8ConsumerD2Ev:0000000000000034 .L0 
     /tmp/ccZXeySo.s:215    .text._ZN19ConsumerProducerCPP8ConsumerD0Ev:000000000000004c .L0 
     /tmp/ccZXeySo.s:252    .text._ZN19ConsumerProducerCPP16ProducerKeyboradD2Ev:0000000000000034 .L0 
     /tmp/ccZXeySo.s:299    .text._ZN19ConsumerProducerCPP16ProducerKeyboradD0Ev:000000000000004c .L0 
     /tmp/ccZXeySo.s:336    .text._ZN19ConsumerProducerCPP8ProducerD2Ev:0000000000000034 .L0 
     /tmp/ccZXeySo.s:383    .text._ZN19ConsumerProducerCPP8ProducerD0Ev:000000000000004c .L0 
     /tmp/ccZXeySo.s:463    .text._ZN19ConsumerProducerCPP16ProducerKeyborad3runEv:0000000000000084 .L0 
     /tmp/ccZXeySo.s:548    .text._ZN19ConsumerProducerCPP8Producer3runEv:0000000000000094 .L0 
     /tmp/ccZXeySo.s:1244   .text:000000000000044c .L0 
     /tmp/ccZXeySo.s:550    .rodata.str1.8:0000000000000000 .LC0
     /tmp/ccZXeySo.s:612    .text:0000000000000038 .L0 
     /tmp/ccZXeySo.s:553    .rodata.str1.8:0000000000000020 .LC1
     /tmp/ccZXeySo.s:632    .text:000000000000006c .L0 
     /tmp/ccZXeySo.s:556    .rodata.str1.8:0000000000000040 .LC2
     /tmp/ccZXeySo.s:650    .text:000000000000009c .L0 
     /tmp/ccZXeySo.s:559    .rodata.str1.8:0000000000000058 .LC3
     /tmp/ccZXeySo.s:662    .text:00000000000000c0 .L0 
     /tmp/ccZXeySo.s:562    .rodata.str1.8:0000000000000070 .LC4
     /tmp/ccZXeySo.s:674    .text:00000000000000e4 .L0 
     /tmp/ccZXeySo.s:565    .rodata.str1.8:0000000000000078 .LC5
     /tmp/ccZXeySo.s:697    .text:000000000000011c .L0 
     /tmp/ccZXeySo.s:568    .rodata.str1.8:00000000000000b8 .LC6
     /tmp/ccZXeySo.s:706    .text:0000000000000130 .L0 
     /tmp/ccZXeySo.s:729    .text:0000000000000164 .L0 
     /tmp/ccZXeySo.s:785    .text:00000000000001dc .L0 
     /tmp/ccZXeySo.s:805    .text:0000000000000200 .L0 
     /tmp/ccZXeySo.s:822    .text:0000000000000224 .L0 
     /tmp/ccZXeySo.s:845    .text:000000000000024c .L0 
     /tmp/ccZXeySo.s:878    .text:0000000000000294 .L0 
GAS LISTING /tmp/ccZXeySo.s 			page 38


     /tmp/ccZXeySo.s:915    .text:00000000000002cc .L0 
     /tmp/ccZXeySo.s:927    .text:00000000000002e4 .L0 
     /tmp/ccZXeySo.s:694    .text:000000000000011c .L55
     /tmp/ccZXeySo.s:703    .text:0000000000000130 .L56
     /tmp/ccZXeySo.s:713    .text:0000000000000148 .L57
     /tmp/ccZXeySo.s:710    .text:0000000000000140 .L31
     /tmp/ccZXeySo.s:990    .text:0000000000000360 .L29
     /tmp/ccZXeySo.s:863    .text:0000000000000278 .L34
     /tmp/ccZXeySo.s:897    .text:00000000000002bc .L33
     /tmp/ccZXeySo.s:841    .text:000000000000024c .L58
     /tmp/ccZXeySo.s:923    .text:00000000000002e4 .L35
     /tmp/ccZXeySo.s:909    .text:00000000000002c8 .L36
     /tmp/ccZXeySo.s:935    .text:00000000000002fc .L37
     /tmp/ccZXeySo.s:948    .text:0000000000000308 .L40
     /tmp/ccZXeySo.s:964    .text:000000000000032c .L38
     /tmp/ccZXeySo.s:942    .text:0000000000000304 .L39
     /tmp/ccZXeySo.s:975    .text:0000000000000340 .L41
     /tmp/ccZXeySo.s:987    .text:000000000000035c .L42
     /tmp/ccZXeySo.s:48     .text._ZN19ConsumerProducerCPP8Consumer3runEv:0000000000000034 .L0 
     /tmp/ccZXeySo.s:44     .text._ZN19ConsumerProducerCPP8Consumer3runEv:0000000000000034 .L2
     /tmp/ccZXeySo.s:93     .text._ZN19ConsumerProducerCPP8Consumer3runEv:0000000000000090 .L3
     /tmp/ccZXeySo.s:37     .text._ZN19ConsumerProducerCPP8Consumer3runEv:0000000000000028 .L7
     /tmp/ccZXeySo.s:77     .text._ZN19ConsumerProducerCPP8Consumer3runEv:0000000000000074 .L8
     /tmp/ccZXeySo.s:150    .text._ZN19ConsumerProducerCPP8ConsumerD2Ev:0000000000000010 .L0 
     /tmp/ccZXeySo.s:192    .text._ZN19ConsumerProducerCPP8ConsumerD0Ev:0000000000000018 .L0 
     /tmp/ccZXeySo.s:234    .text._ZN19ConsumerProducerCPP16ProducerKeyboradD2Ev:0000000000000010 .L0 
     /tmp/ccZXeySo.s:276    .text._ZN19ConsumerProducerCPP16ProducerKeyboradD0Ev:0000000000000018 .L0 
     /tmp/ccZXeySo.s:318    .text._ZN19ConsumerProducerCPP8ProducerD2Ev:0000000000000010 .L0 
     /tmp/ccZXeySo.s:360    .text._ZN19ConsumerProducerCPP8ProducerD0Ev:0000000000000018 .L0 
     /tmp/ccZXeySo.s:432    .text._ZN19ConsumerProducerCPP16ProducerKeyborad3runEv:0000000000000044 .L0 
     /tmp/ccZXeySo.s:428    .text._ZN19ConsumerProducerCPP16ProducerKeyborad3runEv:0000000000000040 .L22
     /tmp/ccZXeySo.s:406    .text._ZN19ConsumerProducerCPP16ProducerKeyborad3runEv:0000000000000018 .L23
     /tmp/ccZXeySo.s:493    .text._ZN19ConsumerProducerCPP8Producer3runEv:0000000000000020 .L0 
     /tmp/ccZXeySo.s:523    .text._ZN19ConsumerProducerCPP8Producer3runEv:000000000000006c .L26
     /tmp/ccZXeySo.s:490    .text._ZN19ConsumerProducerCPP8Producer3runEv:0000000000000020 .L27
     /tmp/ccZXeySo.s:613    .text:0000000000000040 .LEHB0
     /tmp/ccZXeySo.s:575    .text:0000000000000000 .LFB26
     /tmp/ccZXeySo.s:686    .text:0000000000000108 .LEHE0
     /tmp/ccZXeySo.s:689    .text:0000000000000110 .LEHB1
     /tmp/ccZXeySo.s:692    .text:0000000000000118 .LEHE1
     /tmp/ccZXeySo.s:1022   .text:0000000000000398 .L49
     /tmp/ccZXeySo.s:698    .text:0000000000000124 .LEHB2
     /tmp/ccZXeySo.s:720    .text:0000000000000154 .LEHE2
     /tmp/ccZXeySo.s:724    .text:000000000000015c .LEHB3
     /tmp/ccZXeySo.s:727    .text:0000000000000164 .LEHE3
     /tmp/ccZXeySo.s:1035   .text:00000000000003b4 .L50
     /tmp/ccZXeySo.s:771    .text:00000000000001c8 .LEHB4
     /tmp/ccZXeySo.s:774    .text:00000000000001d0 .LEHE4
     /tmp/ccZXeySo.s:777    .text:00000000000001d4 .LEHB5
     /tmp/ccZXeySo.s:783    .text:00000000000001dc .LEHE5
     /tmp/ccZXeySo.s:1046   .text:00000000000003d0 .L51
     /tmp/ccZXeySo.s:794    .text:00000000000001f0 .LEHB6
     /tmp/ccZXeySo.s:812    .text:0000000000000218 .LEHE6
     /tmp/ccZXeySo.s:815    .text:000000000000021c .LEHB7
     /tmp/ccZXeySo.s:821    .text:0000000000000224 .LEHE7
     /tmp/ccZXeySo.s:1058   .text:00000000000003ec .L52
     /tmp/ccZXeySo.s:833    .text:000000000000023c .LEHB8
GAS LISTING /tmp/ccZXeySo.s 			page 39


     /tmp/ccZXeySo.s:885    .text:00000000000002ac .LEHE8
     /tmp/ccZXeySo.s:888    .text:00000000000002b0 .LEHB9
     /tmp/ccZXeySo.s:894    .text:00000000000002b8 .LEHE9
     /tmp/ccZXeySo.s:1069   .text:0000000000000408 .L53
     /tmp/ccZXeySo.s:902    .text:00000000000002bc .LEHB10
     /tmp/ccZXeySo.s:986    .text:000000000000035c .LEHE10
     /tmp/ccZXeySo.s:1031   .text:00000000000003ac .LEHB11
     /tmp/ccZXeySo.s:1034   .text:00000000000003b4 .LEHE11
     /tmp/ccZXeySo.s:1042   .text:00000000000003c8 .LEHB12
     /tmp/ccZXeySo.s:1045   .text:00000000000003d0 .LEHE12
     /tmp/ccZXeySo.s:1054   .text:00000000000003e4 .LEHB13
     /tmp/ccZXeySo.s:1057   .text:00000000000003ec .LEHE13
     /tmp/ccZXeySo.s:1065   .text:0000000000000400 .LEHB14
     /tmp/ccZXeySo.s:1068   .text:0000000000000408 .LEHE14
     /tmp/ccZXeySo.s:1078   .text:000000000000041c .LEHB15
     /tmp/ccZXeySo.s:1081   .text:0000000000000424 .LEHE15
     /tmp/ccZXeySo.s:3102   .debug_abbrev:0000000000000000 .Ldebug_abbrev0
     /tmp/ccZXeySo.s:4906   .debug_str:00000000000007a5 .LASF101
     /tmp/ccZXeySo.s:4940   .debug_str:00000000000009e1 .LASF102
     /tmp/ccZXeySo.s:4942   .debug_str:00000000000009f4 .LASF103
     /tmp/ccZXeySo.s:4666   .debug_ranges:0000000000000000 .Ldebug_ranges0
     /tmp/ccZXeySo.s:4714   .debug_line:0000000000000000 .Ldebug_line0
     /tmp/ccZXeySo.s:4834   .debug_str:000000000000046c .LASF0
     /tmp/ccZXeySo.s:4856   .debug_str:0000000000000543 .LASF1
     /tmp/ccZXeySo.s:4822   .debug_str:00000000000003ee .LASF2
     /tmp/ccZXeySo.s:4800   .debug_str:0000000000000343 .LASF4
     /tmp/ccZXeySo.s:4890   .debug_str:00000000000006b5 .LASF3
     /tmp/ccZXeySo.s:4734   .debug_str:000000000000007c .LASF5
     /tmp/ccZXeySo.s:4862   .debug_str:000000000000058f .LASF6
     /tmp/ccZXeySo.s:4832   .debug_str:0000000000000459 .LASF7
     /tmp/ccZXeySo.s:4918   .debug_str:00000000000008f6 .LASF8
     /tmp/ccZXeySo.s:4786   .debug_str:00000000000002dd .LASF9
     /tmp/ccZXeySo.s:4870   .debug_str:00000000000005b8 .LASF10
     /tmp/ccZXeySo.s:4908   .debug_str:0000000000000869 .LASF11
     /tmp/ccZXeySo.s:4738   .debug_str:0000000000000097 .LASF12
     /tmp/ccZXeySo.s:4720   .debug_str:0000000000000030 .LASF13
     /tmp/ccZXeySo.s:4750   .debug_str:000000000000010c .LASF14
     /tmp/ccZXeySo.s:4886   .debug_str:0000000000000675 .LASF15
     /tmp/ccZXeySo.s:4760   .debug_str:00000000000001cc .LASF16
     /tmp/ccZXeySo.s:4796   .debug_str:000000000000032f .LASF18
     /tmp/ccZXeySo.s:4722   .debug_str:0000000000000040 .LASF100
     /tmp/ccZXeySo.s:4746   .debug_str:00000000000000f0 .LASF104
     /tmp/ccZXeySo.s:4826   .debug_str:0000000000000433 .LASF40
     /tmp/ccZXeySo.s:4858   .debug_str:0000000000000556 .LASF105
     /tmp/ccZXeySo.s:4864   .debug_str:00000000000005a2 .LASF17
     /tmp/ccZXeySo.s:4882   .debug_str:0000000000000664 .LASF19
     /tmp/ccZXeySo.s:4884   .debug_str:000000000000066e .LASF20
     /tmp/ccZXeySo.s:4762   .debug_str:00000000000001e2 .LASF21
     /tmp/ccZXeySo.s:4818   .debug_str:00000000000003bf .LASF22
     /tmp/ccZXeySo.s:4770   .debug_str:0000000000000227 .LASF23
     /tmp/ccZXeySo.s:4790   .debug_str:00000000000002fe .LASF24
     /tmp/ccZXeySo.s:4814   .debug_str:00000000000003a4 .LASF25
     /tmp/ccZXeySo.s:4842   .debug_str:00000000000004f5 .LASF26
     /tmp/ccZXeySo.s:4844   .debug_str:00000000000004ff .LASF28
     /tmp/ccZXeySo.s:4810   .debug_str:0000000000000393 .LASF27
     /tmp/ccZXeySo.s:4922   .debug_str:000000000000091e .LASF29
     /tmp/ccZXeySo.s:4792   .debug_str:000000000000030c .LASF106
GAS LISTING /tmp/ccZXeySo.s 			page 40


     /tmp/ccZXeySo.s:4736   .debug_str:0000000000000083 .LASF107
     /tmp/ccZXeySo.s:4730   .debug_str:000000000000005e .LASF30
     /tmp/ccZXeySo.s:4732   .debug_str:0000000000000065 .LASF31
     /tmp/ccZXeySo.s:4716   .debug_str:0000000000000000 .LASF62
     /tmp/ccZXeySo.s:4910   .debug_str:0000000000000878 .LASF32
     /tmp/ccZXeySo.s:4774   .debug_str:000000000000023f .LASF34
     /tmp/ccZXeySo.s:4880   .debug_str:000000000000064d .LASF33
     /tmp/ccZXeySo.s:4866   .debug_str:00000000000005a7 .LASF35
     /tmp/ccZXeySo.s:4900   .debug_str:000000000000071a .LASF108
     /tmp/ccZXeySo.s:4780   .debug_str:00000000000002b6 .LASF36
     /tmp/ccZXeySo.s:4756   .debug_str:000000000000016f .LASF38
     /tmp/ccZXeySo.s:4784   .debug_str:00000000000002d1 .LASF109
     /tmp/ccZXeySo.s:4804   .debug_str:0000000000000370 .LASF37
     /tmp/ccZXeySo.s:4836   .debug_str:0000000000000479 .LASF39
     /tmp/ccZXeySo.s:4740   .debug_str:00000000000000a7 .LASF41
     /tmp/ccZXeySo.s:4898   .debug_str:00000000000006f1 .LASF42
     /tmp/ccZXeySo.s:4820   .debug_str:00000000000003c4 .LASF43
     /tmp/ccZXeySo.s:4824   .debug_str:00000000000003fc .LASF44
     /tmp/ccZXeySo.s:4754   .debug_str:0000000000000147 .LASF49
     /tmp/ccZXeySo.s:4846   .debug_str:0000000000000511 .LASF51
     /tmp/ccZXeySo.s:4860   .debug_str:0000000000000569 .LASF53
     /tmp/ccZXeySo.s:4852   .debug_str:0000000000000534 .LASF45
     /tmp/ccZXeySo.s:4840   .debug_str:00000000000004cc .LASF46
     /tmp/ccZXeySo.s:4888   .debug_str:000000000000068b .LASF47
     /tmp/ccZXeySo.s:4758   .debug_str:0000000000000195 .LASF48
     /tmp/ccZXeySo.s:4878   .debug_str:0000000000000625 .LASF50
     /tmp/ccZXeySo.s:4726   .debug_str:000000000000004b .LASF52
     /tmp/ccZXeySo.s:4764   .debug_str:00000000000001e7 .LASF54
     /tmp/ccZXeySo.s:4816   .debug_str:00000000000003ae .LASF55
     /tmp/ccZXeySo.s:4776   .debug_str:0000000000000244 .LASF56
     /tmp/ccZXeySo.s:4872   .debug_str:00000000000005c7 .LASF57
     /tmp/ccZXeySo.s:4902   .debug_str:000000000000072e .LASF58
     /tmp/ccZXeySo.s:4916   .debug_str:00000000000008c5 .LASF59
     /tmp/ccZXeySo.s:4828   .debug_str:0000000000000438 .LASF60
     /tmp/ccZXeySo.s:4838   .debug_str:000000000000049d .LASF61
     /tmp/ccZXeySo.s:4892   .debug_str:00000000000006c7 .LASF110
     /tmp/ccZXeySo.s:4912   .debug_str:000000000000088d .LASF111
     /tmp/ccZXeySo.s:4914   .debug_str:00000000000008be .LASF63
     /tmp/ccZXeySo.s:4928   .debug_str:0000000000000953 .LASF64
     /tmp/ccZXeySo.s:4854   .debug_str:000000000000053d .LASF65
     /tmp/ccZXeySo.s:4924   .debug_str:0000000000000930 .LASF66
     /tmp/ccZXeySo.s:4934   .debug_str:000000000000099f .LASF67
     /tmp/ccZXeySo.s:4788   .debug_str:00000000000002eb .LASF68
     /tmp/ccZXeySo.s:4848   .debug_str:000000000000051b .LASF69
     /tmp/ccZXeySo.s:4874   .debug_str:00000000000005fa .LASF70
     /tmp/ccZXeySo.s:4894   .debug_str:00000000000006dc .LASF71
     /tmp/ccZXeySo.s:4752   .debug_str:0000000000000118 .LASF72
     /tmp/ccZXeySo.s:257    .text._ZN19ConsumerProducerCPP16ProducerKeyboradD0Ev:0000000000000000 .LFB39
     /tmp/ccZXeySo.s:297    .text._ZN19ConsumerProducerCPP16ProducerKeyboradD0Ev:000000000000004c .LFE39
     /tmp/ccZXeySo.s:4103   .debug_loc:0000000000000000 .LLST8
     /tmp/ccZXeySo.s:273    .text._ZN19ConsumerProducerCPP16ProducerKeyboradD0Ev:0000000000000018 .LBB30
     /tmp/ccZXeySo.s:281    .text._ZN19ConsumerProducerCPP16ProducerKeyboradD0Ev:000000000000002c .LBE30
     /tmp/ccZXeySo.s:4121   .debug_loc:000000000000004c .LLST9
     /tmp/ccZXeySo.s:279    .text._ZN19ConsumerProducerCPP16ProducerKeyboradD0Ev:000000000000002c .LVL27
     /tmp/ccZXeySo.s:284    .text._ZN19ConsumerProducerCPP16ProducerKeyboradD0Ev:0000000000000038 .LVL28
     /tmp/ccZXeySo.s:4932   .debug_str:0000000000000970 .LASF73
     /tmp/ccZXeySo.s:220    .text._ZN19ConsumerProducerCPP16ProducerKeyboradD2Ev:0000000000000000 .LFB37
GAS LISTING /tmp/ccZXeySo.s 			page 41


     /tmp/ccZXeySo.s:248    .text._ZN19ConsumerProducerCPP16ProducerKeyboradD2Ev:0000000000000034 .LFE37
     /tmp/ccZXeySo.s:4132   .debug_loc:0000000000000082 .LLST7
     /tmp/ccZXeySo.s:237    .text._ZN19ConsumerProducerCPP16ProducerKeyboradD2Ev:0000000000000024 .LVL24
     /tmp/ccZXeySo.s:4876   .debug_str:00000000000005ff .LASF74
     /tmp/ccZXeySo.s:341    .text._ZN19ConsumerProducerCPP8ProducerD0Ev:0000000000000000 .LFB35
     /tmp/ccZXeySo.s:381    .text._ZN19ConsumerProducerCPP8ProducerD0Ev:000000000000004c .LFE35
     /tmp/ccZXeySo.s:4146   .debug_loc:00000000000000bb .LLST11
     /tmp/ccZXeySo.s:357    .text._ZN19ConsumerProducerCPP8ProducerD0Ev:0000000000000018 .LBB33
     /tmp/ccZXeySo.s:365    .text._ZN19ConsumerProducerCPP8ProducerD0Ev:000000000000002c .LBE33
     /tmp/ccZXeySo.s:4164   .debug_loc:0000000000000107 .LLST12
     /tmp/ccZXeySo.s:363    .text._ZN19ConsumerProducerCPP8ProducerD0Ev:000000000000002c .LVL34
     /tmp/ccZXeySo.s:368    .text._ZN19ConsumerProducerCPP8ProducerD0Ev:0000000000000038 .LVL35
     /tmp/ccZXeySo.s:4718   .debug_str:000000000000000a .LASF75
     /tmp/ccZXeySo.s:304    .text._ZN19ConsumerProducerCPP8ProducerD2Ev:0000000000000000 .LFB33
     /tmp/ccZXeySo.s:332    .text._ZN19ConsumerProducerCPP8ProducerD2Ev:0000000000000034 .LFE33
     /tmp/ccZXeySo.s:4175   .debug_loc:000000000000013d .LLST10
     /tmp/ccZXeySo.s:321    .text._ZN19ConsumerProducerCPP8ProducerD2Ev:0000000000000024 .LVL31
     /tmp/ccZXeySo.s:4938   .debug_str:00000000000009bb .LASF76
     /tmp/ccZXeySo.s:173    .text._ZN19ConsumerProducerCPP8ConsumerD0Ev:0000000000000000 .LFB31
     /tmp/ccZXeySo.s:213    .text._ZN19ConsumerProducerCPP8ConsumerD0Ev:000000000000004c .LFE31
     /tmp/ccZXeySo.s:4189   .debug_loc:0000000000000176 .LLST5
     /tmp/ccZXeySo.s:189    .text._ZN19ConsumerProducerCPP8ConsumerD0Ev:0000000000000018 .LBB27
     /tmp/ccZXeySo.s:197    .text._ZN19ConsumerProducerCPP8ConsumerD0Ev:000000000000002c .LBE27
     /tmp/ccZXeySo.s:4207   .debug_loc:00000000000001c2 .LLST6
     /tmp/ccZXeySo.s:195    .text._ZN19ConsumerProducerCPP8ConsumerD0Ev:000000000000002c .LVL20
     /tmp/ccZXeySo.s:200    .text._ZN19ConsumerProducerCPP8ConsumerD0Ev:0000000000000038 .LVL21
     /tmp/ccZXeySo.s:4802   .debug_str:000000000000034a .LASF77
     /tmp/ccZXeySo.s:136    .text._ZN19ConsumerProducerCPP8ConsumerD2Ev:0000000000000000 .LFB29
     /tmp/ccZXeySo.s:164    .text._ZN19ConsumerProducerCPP8ConsumerD2Ev:0000000000000034 .LFE29
     /tmp/ccZXeySo.s:4218   .debug_loc:00000000000001f8 .LLST4
     /tmp/ccZXeySo.s:153    .text._ZN19ConsumerProducerCPP8ConsumerD2Ev:0000000000000024 .LVL17
     /tmp/ccZXeySo.s:4772   .debug_str:0000000000000236 .LASF78
     /tmp/ccZXeySo.s:4808   .debug_str:0000000000000386 .LASF112
     /tmp/ccZXeySo.s:1162   .text:0000000000000424 .LFB27
     /tmp/ccZXeySo.s:1188   .text:000000000000044c .LFE27
     /tmp/ccZXeySo.s:1177   .text:000000000000043c .LVL130
     /tmp/ccZXeySo.s:1084   .text:0000000000000424 .LFE26
     /tmp/ccZXeySo.s:4724   .debug_str:0000000000000045 .LASF79
     /tmp/ccZXeySo.s:4232   .debug_loc:0000000000000231 .LLST21
     /tmp/ccZXeySo.s:4768   .debug_str:000000000000021d .LASF80
     /tmp/ccZXeySo.s:4243   .debug_loc:0000000000000267 .LLST22
     /tmp/ccZXeySo.s:4254   .debug_loc:000000000000029d .LLST23
     /tmp/ccZXeySo.s:4930   .debug_str:0000000000000966 .LASF81
     /tmp/ccZXeySo.s:4265   .debug_loc:00000000000002d3 .LLST24
     /tmp/ccZXeySo.s:4896   .debug_str:00000000000006e6 .LASF82
     /tmp/ccZXeySo.s:4283   .debug_loc:000000000000031f .LLST25
     /tmp/ccZXeySo.s:4742   .debug_str:00000000000000b0 .LASF83
     /tmp/ccZXeySo.s:4296   .debug_loc:0000000000000357 .LLST26
     /tmp/ccZXeySo.s:4307   .debug_loc:000000000000038d .LLST31
     /tmp/ccZXeySo.s:842    .text:000000000000024c .LBB40
     /tmp/ccZXeySo.s:4318   .debug_loc:00000000000003c3 .LLST32
     /tmp/ccZXeySo.s:4349   .debug_loc:000000000000042b .LLST33
     /tmp/ccZXeySo.s:893    .text:00000000000002b8 .LVL99
     /tmp/ccZXeySo.s:859    .text:0000000000000274 .LVL95
     /tmp/ccZXeySo.s:884    .text:00000000000002ac .LVL97
     /tmp/ccZXeySo.s:1076   .text:0000000000000418 .LVL128
     /tmp/ccZXeySo.s:4368   .debug_loc:0000000000000487 .LLST34
GAS LISTING /tmp/ccZXeySo.s 			page 42


     /tmp/ccZXeySo.s:917    .text:00000000000002dc .LVL103
     /tmp/ccZXeySo.s:944    .text:0000000000000304 .LBB46
     /tmp/ccZXeySo.s:965    .text:000000000000032c .LBE46
     /tmp/ccZXeySo.s:4379   .debug_loc:00000000000004bd .LLST35
     /tmp/ccZXeySo.s:4386   .debug_loc:00000000000004e0 .LLST18
     /tmp/ccZXeySo.s:4417   .debug_loc:000000000000052a .LLST20
     /tmp/ccZXeySo.s:778    .text:00000000000001d4 .LBB35
     /tmp/ccZXeySo.s:790    .text:00000000000001ec .LBE35
     /tmp/ccZXeySo.s:4448   .debug_loc:0000000000000574 .LLST27
     /tmp/ccZXeySo.s:4475   .debug_loc:00000000000005c9 .LLST28
     /tmp/ccZXeySo.s:782    .text:00000000000001dc .LVL85
     /tmp/ccZXeySo.s:816    .text:000000000000021c .LBB37
     /tmp/ccZXeySo.s:827    .text:0000000000000234 .LBE37
     /tmp/ccZXeySo.s:4490   .debug_loc:0000000000000612 .LLST29
     /tmp/ccZXeySo.s:4501   .debug_loc:0000000000000648 .LLST30
     /tmp/ccZXeySo.s:820    .text:0000000000000224 .LVL90
     /tmp/ccZXeySo.s:615    .text:0000000000000048 .LVL57
     /tmp/ccZXeySo.s:622    .text:000000000000005c .LVL58
     /tmp/ccZXeySo.s:627    .text:0000000000000068 .LVL59
     /tmp/ccZXeySo.s:634    .text:000000000000007c .LVL61
     /tmp/ccZXeySo.s:640    .text:000000000000008c .LVL62
     /tmp/ccZXeySo.s:645    .text:0000000000000098 .LVL63
     /tmp/ccZXeySo.s:652    .text:00000000000000ac .LVL65
     /tmp/ccZXeySo.s:659    .text:00000000000000c0 .LVL66
     /tmp/ccZXeySo.s:664    .text:00000000000000d0 .LVL67
     /tmp/ccZXeySo.s:671    .text:00000000000000e4 .LVL68
     /tmp/ccZXeySo.s:676    .text:00000000000000f4 .LVL69
     /tmp/ccZXeySo.s:685    .text:0000000000000108 .LVL70
     /tmp/ccZXeySo.s:691    .text:0000000000000118 .LVL71
     /tmp/ccZXeySo.s:700    .text:000000000000012c .LVL72
     /tmp/ccZXeySo.s:708    .text:0000000000000140 .LVL73
     /tmp/ccZXeySo.s:719    .text:0000000000000154 .LVL75
     /tmp/ccZXeySo.s:726    .text:0000000000000164 .LVL77
     /tmp/ccZXeySo.s:773    .text:00000000000001d0 .LVL83
     /tmp/ccZXeySo.s:796    .text:00000000000001f8 .LVL87
     /tmp/ccZXeySo.s:811    .text:0000000000000218 .LVL88
     /tmp/ccZXeySo.s:835    .text:0000000000000244 .LVL92
     /tmp/ccZXeySo.s:905    .text:00000000000002c4 .LVL101
     /tmp/ccZXeySo.s:974    .text:0000000000000340 .LVL111
     /tmp/ccZXeySo.s:982    .text:0000000000000350 .LVL112
     /tmp/ccZXeySo.s:985    .text:000000000000035c .LVL113
     /tmp/ccZXeySo.s:1029   .text:00000000000003a8 .LVL118
     /tmp/ccZXeySo.s:1033   .text:00000000000003b4 .LVL119
     /tmp/ccZXeySo.s:1040   .text:00000000000003c4 .LVL120
     /tmp/ccZXeySo.s:1044   .text:00000000000003d0 .LVL121
     /tmp/ccZXeySo.s:1052   .text:00000000000003e0 .LVL123
     /tmp/ccZXeySo.s:1056   .text:00000000000003ec .LVL124
     /tmp/ccZXeySo.s:1063   .text:00000000000003fc .LVL125
     /tmp/ccZXeySo.s:1067   .text:0000000000000408 .LVL126
     /tmp/ccZXeySo.s:1080   .text:0000000000000424 .LVL129
     /tmp/ccZXeySo.s:11     .text._ZN19ConsumerProducerCPP8Consumer3runEv:0000000000000000 .LFB25
     /tmp/ccZXeySo.s:129    .text._ZN19ConsumerProducerCPP8Consumer3runEv:00000000000000d0 .LFE25
     /tmp/ccZXeySo.s:4512   .debug_loc:000000000000067e .LLST0
     /tmp/ccZXeySo.s:4530   .debug_loc:00000000000006ca .LLST1
     /tmp/ccZXeySo.s:4550   .debug_loc:0000000000000727 .LLST2
     /tmp/ccZXeySo.s:43     .text._ZN19ConsumerProducerCPP8Consumer3runEv:0000000000000034 .LVL3
     /tmp/ccZXeySo.s:57     .text._ZN19ConsumerProducerCPP8Consumer3runEv:0000000000000050 .LVL4
GAS LISTING /tmp/ccZXeySo.s 			page 43


     /tmp/ccZXeySo.s:68     .text._ZN19ConsumerProducerCPP8Consumer3runEv:0000000000000064 .LVL7
     /tmp/ccZXeySo.s:79     .text._ZN19ConsumerProducerCPP8Consumer3runEv:0000000000000074 .LBB25
     /tmp/ccZXeySo.s:94     .text._ZN19ConsumerProducerCPP8Consumer3runEv:0000000000000090 .LBE25
     /tmp/ccZXeySo.s:4557   .debug_loc:000000000000074a .LLST3
     /tmp/ccZXeySo.s:86     .text._ZN19ConsumerProducerCPP8Consumer3runEv:0000000000000084 .LVL9
     /tmp/ccZXeySo.s:92     .text._ZN19ConsumerProducerCPP8Consumer3runEv:0000000000000090 .LVL11
     /tmp/ccZXeySo.s:102    .text._ZN19ConsumerProducerCPP8Consumer3runEv:00000000000000a0 .LVL12
     /tmp/ccZXeySo.s:110    .text._ZN19ConsumerProducerCPP8Consumer3runEv:00000000000000b4 .LVL13
     /tmp/ccZXeySo.s:4744   .debug_str:00000000000000b9 .LASF84
     /tmp/ccZXeySo.s:468    .text._ZN19ConsumerProducerCPP8Producer3runEv:0000000000000000 .LFB21
     /tmp/ccZXeySo.s:546    .text._ZN19ConsumerProducerCPP8Producer3runEv:0000000000000094 .LFE21
     /tmp/ccZXeySo.s:4564   .debug_loc:000000000000076d .LLST15
     /tmp/ccZXeySo.s:4582   .debug_loc:00000000000007b9 .LLST16
     /tmp/ccZXeySo.s:503    .text._ZN19ConsumerProducerCPP8Producer3runEv:0000000000000044 .LVL51
     /tmp/ccZXeySo.s:520    .text._ZN19ConsumerProducerCPP8Producer3runEv:0000000000000068 .LVL53
     /tmp/ccZXeySo.s:529    .text._ZN19ConsumerProducerCPP8Producer3runEv:000000000000007c .LVL54
     /tmp/ccZXeySo.s:4904   .debug_str:000000000000076e .LASF85
     /tmp/ccZXeySo.s:388    .text._ZN19ConsumerProducerCPP16ProducerKeyborad3runEv:0000000000000000 .LFB17
     /tmp/ccZXeySo.s:461    .text._ZN19ConsumerProducerCPP16ProducerKeyborad3runEv:0000000000000084 .LFE17
     /tmp/ccZXeySo.s:4602   .debug_loc:0000000000000816 .LLST13
     /tmp/ccZXeySo.s:4620   .debug_loc:0000000000000862 .LLST14
     /tmp/ccZXeySo.s:411    .text._ZN19ConsumerProducerCPP16ProducerKeyborad3runEv:0000000000000020 .LVL39
     /tmp/ccZXeySo.s:423    .text._ZN19ConsumerProducerCPP16ProducerKeyborad3runEv:000000000000003c .LVL41
     /tmp/ccZXeySo.s:441    .text._ZN19ConsumerProducerCPP16ProducerKeyborad3runEv:0000000000000060 .LVL45
     /tmp/ccZXeySo.s:447    .text._ZN19ConsumerProducerCPP16ProducerKeyborad3runEv:0000000000000070 .LVL46
     /tmp/ccZXeySo.s:4778   .debug_str:0000000000000276 .LASF86
     /tmp/ccZXeySo.s:4944   .debug_str:0000000000000a25 .LASF87
     /tmp/ccZXeySo.s:4766   .debug_str:000000000000020d .LASF88
     /tmp/ccZXeySo.s:4812   .debug_str:000000000000039e .LASF89
     /tmp/ccZXeySo.s:4926   .debug_str:0000000000000946 .LASF90
     /tmp/ccZXeySo.s:4936   .debug_str:00000000000009a8 .LASF91
     /tmp/ccZXeySo.s:4806   .debug_str:000000000000037a .LASF92
     /tmp/ccZXeySo.s:4782   .debug_str:00000000000002c1 .LASF93
     /tmp/ccZXeySo.s:4868   .debug_str:00000000000005ae .LASF94
     /tmp/ccZXeySo.s:4850   .debug_str:0000000000000521 .LASF95
     /tmp/ccZXeySo.s:4798   .debug_str:0000000000000337 .LASF96
     /tmp/ccZXeySo.s:4830   .debug_str:000000000000044a .LASF97
     /tmp/ccZXeySo.s:4748   .debug_str:0000000000000103 .LASF98
     /tmp/ccZXeySo.s:4794   .debug_str:0000000000000320 .LASF113
     /tmp/ccZXeySo.s:4920   .debug_str:0000000000000906 .LASF114
     /tmp/ccZXeySo.s:4728   .debug_str:0000000000000055 .LASF99
     /tmp/ccZXeySo.s:260    .text._ZN19ConsumerProducerCPP16ProducerKeyboradD0Ev:0000000000000000 .LVL25
     /tmp/ccZXeySo.s:292    .text._ZN19ConsumerProducerCPP16ProducerKeyboradD0Ev:0000000000000044 .LVL29
     /tmp/ccZXeySo.s:272    .text._ZN19ConsumerProducerCPP16ProducerKeyboradD0Ev:0000000000000018 .LVL26
     /tmp/ccZXeySo.s:223    .text._ZN19ConsumerProducerCPP16ProducerKeyboradD2Ev:0000000000000000 .LVL23
     /tmp/ccZXeySo.s:344    .text._ZN19ConsumerProducerCPP8ProducerD0Ev:0000000000000000 .LVL32
     /tmp/ccZXeySo.s:376    .text._ZN19ConsumerProducerCPP8ProducerD0Ev:0000000000000044 .LVL36
     /tmp/ccZXeySo.s:356    .text._ZN19ConsumerProducerCPP8ProducerD0Ev:0000000000000018 .LVL33
     /tmp/ccZXeySo.s:307    .text._ZN19ConsumerProducerCPP8ProducerD2Ev:0000000000000000 .LVL30
     /tmp/ccZXeySo.s:176    .text._ZN19ConsumerProducerCPP8ConsumerD0Ev:0000000000000000 .LVL18
     /tmp/ccZXeySo.s:208    .text._ZN19ConsumerProducerCPP8ConsumerD0Ev:0000000000000044 .LVL22
     /tmp/ccZXeySo.s:188    .text._ZN19ConsumerProducerCPP8ConsumerD0Ev:0000000000000018 .LVL19
     /tmp/ccZXeySo.s:139    .text._ZN19ConsumerProducerCPP8ConsumerD2Ev:0000000000000000 .LVL16
     /tmp/ccZXeySo.s:647    .text:000000000000009c .LVL64
     /tmp/ccZXeySo.s:722    .text:0000000000000158 .LVL76
     /tmp/ccZXeySo.s:1021   .text:0000000000000398 .LVL116
     /tmp/ccZXeySo.s:1025   .text:000000000000039c .LVL117
GAS LISTING /tmp/ccZXeySo.s 			page 44


     /tmp/ccZXeySo.s:629    .text:000000000000006c .LVL60
     /tmp/ccZXeySo.s:1005   .text:0000000000000378 .LVL115
     /tmp/ccZXeySo.s:714    .text:0000000000000148 .LVL74
     /tmp/ccZXeySo.s:989    .text:0000000000000360 .LVL114
     /tmp/ccZXeySo.s:739    .text:0000000000000184 .LVL79
     /tmp/ccZXeySo.s:751    .text:00000000000001a0 .LVL81
     /tmp/ccZXeySo.s:753    .text:00000000000001a4 .LVL82
     /tmp/ccZXeySo.s:788    .text:00000000000001ec .LVL86
     /tmp/ccZXeySo.s:840    .text:000000000000024c .LVL93
     /tmp/ccZXeySo.s:848    .text:000000000000025c .LVL94
     /tmp/ccZXeySo.s:887    .text:00000000000002b0 .LVL98
     /tmp/ccZXeySo.s:896    .text:00000000000002bc .LVL100
     /tmp/ccZXeySo.s:1071   .text:000000000000040c .LVL127
     /tmp/ccZXeySo.s:910    .text:00000000000002c8 .LVL102
     /tmp/ccZXeySo.s:920    .text:00000000000002e0 .LVL104
     /tmp/ccZXeySo.s:922    .text:00000000000002e4 .LVL105
     /tmp/ccZXeySo.s:939    .text:0000000000000300 .LVL107
     /tmp/ccZXeySo.s:941    .text:0000000000000304 .LVL108
     /tmp/ccZXeySo.s:732    .text:0000000000000170 .LVL78
     /tmp/ccZXeySo.s:743    .text:0000000000000188 .LVL80
     /tmp/ccZXeySo.s:776    .text:00000000000001d4 .LVL84
     /tmp/ccZXeySo.s:1048   .text:00000000000003d4 .LVL122
     /tmp/ccZXeySo.s:814    .text:000000000000021c .LVL89
     /tmp/ccZXeySo.s:825    .text:0000000000000234 .LVL91
     /tmp/ccZXeySo.s:15     .text._ZN19ConsumerProducerCPP8Consumer3runEv:0000000000000000 .LVL0
     /tmp/ccZXeySo.s:36     .text._ZN19ConsumerProducerCPP8Consumer3runEv:0000000000000028 .LVL2
     /tmp/ccZXeySo.s:121    .text._ZN19ConsumerProducerCPP8Consumer3runEv:00000000000000c4 .LVL14
     /tmp/ccZXeySo.s:32     .text._ZN19ConsumerProducerCPP8Consumer3runEv:0000000000000020 .LVL1
     /tmp/ccZXeySo.s:62     .text._ZN19ConsumerProducerCPP8Consumer3runEv:0000000000000058 .LVL5
     /tmp/ccZXeySo.s:73     .text._ZN19ConsumerProducerCPP8Consumer3runEv:000000000000006c .LVL8
     /tmp/ccZXeySo.s:124    .text._ZN19ConsumerProducerCPP8Consumer3runEv:00000000000000c8 .LVL15
     /tmp/ccZXeySo.s:66     .text._ZN19ConsumerProducerCPP8Consumer3runEv:000000000000005c .LVL6
     /tmp/ccZXeySo.s:90     .text._ZN19ConsumerProducerCPP8Consumer3runEv:0000000000000088 .LVL10
     /tmp/ccZXeySo.s:471    .text._ZN19ConsumerProducerCPP8Producer3runEv:0000000000000000 .LVL48
     /tmp/ccZXeySo.s:489    .text._ZN19ConsumerProducerCPP8Producer3runEv:0000000000000020 .LVL50
     /tmp/ccZXeySo.s:538    .text._ZN19ConsumerProducerCPP8Producer3runEv:0000000000000088 .LVL55
     /tmp/ccZXeySo.s:486    .text._ZN19ConsumerProducerCPP8Producer3runEv:000000000000001c .LVL49
     /tmp/ccZXeySo.s:508    .text._ZN19ConsumerProducerCPP8Producer3runEv:000000000000004c .LVL52
     /tmp/ccZXeySo.s:541    .text._ZN19ConsumerProducerCPP8Producer3runEv:000000000000008c .LVL56
     /tmp/ccZXeySo.s:391    .text._ZN19ConsumerProducerCPP16ProducerKeyborad3runEv:0000000000000000 .LVL37
     /tmp/ccZXeySo.s:405    .text._ZN19ConsumerProducerCPP16ProducerKeyborad3runEv:0000000000000018 .LVL38
     /tmp/ccZXeySo.s:456    .text._ZN19ConsumerProducerCPP16ProducerKeyborad3runEv:000000000000007c .LVL47
     /tmp/ccZXeySo.s:414    .text._ZN19ConsumerProducerCPP16ProducerKeyborad3runEv:0000000000000024 .LVL40
     /tmp/ccZXeySo.s:427    .text._ZN19ConsumerProducerCPP16ProducerKeyborad3runEv:0000000000000040 .LVL42
     /tmp/ccZXeySo.s:437    .text._ZN19ConsumerProducerCPP16ProducerKeyborad3runEv:0000000000000054 .LVL43
     /tmp/ccZXeySo.s:439    .text._ZN19ConsumerProducerCPP16ProducerKeyborad3runEv:0000000000000058 .LVL44
     /tmp/ccZXeySo.s:1245   .debug_info:0000000000000000 .Ldebug_info0
     /tmp/ccZXeySo.s:5      .text:0000000000000000 .Ltext0
     /tmp/ccZXeySo.s:1238   .text:000000000000044c .Letext0
     /tmp/ccZXeySo.s:38     .text._ZN19ConsumerProducerCPP8Consumer3runEv:0000000000000028 .LBB23
     /tmp/ccZXeySo.s:45     .text._ZN19ConsumerProducerCPP8Consumer3runEv:0000000000000034 .LBE23
     /tmp/ccZXeySo.s:50     .text._ZN19ConsumerProducerCPP8Consumer3runEv:0000000000000040 .LBB24
     /tmp/ccZXeySo.s:78     .text._ZN19ConsumerProducerCPP8Consumer3runEv:0000000000000074 .LBE24
     /tmp/ccZXeySo.s:836    .text:0000000000000244 .LBB39
     /tmp/ccZXeySo.s:900    .text:00000000000002bc .LBE39
     /tmp/ccZXeySo.s:1072   .text:000000000000040c .LBB47
     /tmp/ccZXeySo.s:1082   .text:0000000000000424 .LBE47
GAS LISTING /tmp/ccZXeySo.s 			page 45


     /tmp/ccZXeySo.s:850    .text:000000000000025c .LBE40
     /tmp/ccZXeySo.s:889    .text:00000000000002b0 .LBB43
     /tmp/ccZXeySo.s:899    .text:00000000000002bc .LBE43
     /tmp/ccZXeySo.s:906    .text:00000000000002c4 .LBB44
     /tmp/ccZXeySo.s:924    .text:00000000000002e4 .LBE44
     /tmp/ccZXeySo.s:936    .text:00000000000002fc .LBB45
     /tmp/ccZXeySo.s:943    .text:0000000000000304 .LBE45
     /tmp/ccZXeySo.s:1087   .gcc_except_table:0000000000000000 .LLSDA26
                           .group:0000000000000000 _ZN19ConsumerProducerCPP8ConsumerD5Ev
                           .group:0000000000000000 _ZN19ConsumerProducerCPP16ProducerKeyboradD5Ev
                           .group:0000000000000000 _ZN19ConsumerProducerCPP8ProducerD5Ev

UNDEFINED SYMBOLS
_ZN7Console4putcEc
_ZN9BufferCPP3getEv
_ZN9BufferCPP6getCntEv
_ZN9Semaphore6signalEv
_ZN6ThreadD2Ev
_ZdlPv
_Z4getcv
_ZN9BufferCPP3putEi
_ZN6Thread5sleepEm
_Z11printStringPKc
_Z9getStringPci
_Z11stringToIntPKc
_Z8printIntiii
_Znwm
_ZN9BufferCPPC1Ei
_ZN9SemaphoreC1Ej
_ZN6ThreadC2Ev
_ZN6Thread5startEv
_ZN6Thread8dispatchEv
_ZN9Semaphore4waitEv
_ZN9BufferCPPD1Ev
_Unwind_Resume
__gxx_personality_v0
