GAS LISTING /tmp/ccbTlbUb.s 			page 1


   1              		.file	"userMain.cpp"
   2              		.option pic
   3              		.option norelax
   4              		.text
   5              	.Ltext0:
   6              		.section	.rodata.str1.8,"aMS",@progbits,1
   7              		.align	3
   8              	.LC0:
   9 0000 413A2069 		.string	"A: i="
   9      3D00
  10 0006 0000     		.align	3
  11              	.LC1:
  12 0008 0A00     		.string	"\n"
  13 000a 00000000 		.align	3
  13      0000
  14              	.LC2:
  15 0010 41206669 		.string	"A finished!\n"
  15      6E697368 
  15      6564210A 
  15      00
  16              		.text
  17              		.align	2
  18              		.globl	_Z11workerBodyAPv
  20              	_Z11workerBodyAPv:
  21              	.LFB13:
  22              		.file 1 "tests/Threads_C_API_test.hpp"
   1:tests/Threads_C_API_test.hpp **** #ifndef XV6_THREADS_C_API_TEST_HPP
   2:tests/Threads_C_API_test.hpp **** #define XV6_THREADS_C_API_TEST_HPP
   3:tests/Threads_C_API_test.hpp **** 
   4:tests/Threads_C_API_test.hpp **** #include "../h/syscall_c.h"
   5:tests/Threads_C_API_test.hpp **** 
   6:tests/Threads_C_API_test.hpp **** #include "../h/printing.hpp"
   7:tests/Threads_C_API_test.hpp **** 
   8:tests/Threads_C_API_test.hpp **** bool finishedA = false;
   9:tests/Threads_C_API_test.hpp **** bool finishedB = false;
  10:tests/Threads_C_API_test.hpp **** bool finishedC = false;
  11:tests/Threads_C_API_test.hpp **** bool finishedD = false;
  12:tests/Threads_C_API_test.hpp **** 
  13:tests/Threads_C_API_test.hpp **** uint64 fibonacci(uint64 n) {
  14:tests/Threads_C_API_test.hpp ****     if (n == 0 || n == 1) { return n; }
  15:tests/Threads_C_API_test.hpp ****     if (n % 10 == 0) { thread_dispatch(); }
  16:tests/Threads_C_API_test.hpp ****     return fibonacci(n - 1) + fibonacci(n - 2);
  17:tests/Threads_C_API_test.hpp **** }
  18:tests/Threads_C_API_test.hpp **** 
  19:tests/Threads_C_API_test.hpp **** void workerBodyA(void* arg) {
  23              		.loc 1 19 29
  24              		.cfi_startproc
  25              	.LVL0:
  26 0000 130101FE 		addi	sp,sp,-32
  27              		.cfi_def_cfa_offset 32
  28 0004 233C1100 		sd	ra,24(sp)
  29 0008 23388100 		sd	s0,16(sp)
  30 000c 23349100 		sd	s1,8(sp)
  31 0010 23302101 		sd	s2,0(sp)
  32              		.cfi_offset 1, -8
  33              		.cfi_offset 8, -16
  34              		.cfi_offset 9, -24
GAS LISTING /tmp/ccbTlbUb.s 			page 2


  35              		.cfi_offset 18, -32
  36 0014 13040102 		addi	s0,sp,32
  37              		.cfi_def_cfa 8, 0
  20:tests/Threads_C_API_test.hpp ****     for (uint64 i = 0; i < 10; i++) {
  38              		.loc 1 20 5
  39              	.LVL1:
  40              	.LBB23:
  41              		.loc 1 20 17 is_stmt 0
  42 0018 13090000 		li	s2,0
  43 001c 6F008003 		j	.L7
  44              	.LVL2:
  45              	.L4:
  46              	.LBB24:
  47              	.LBB25:
  48              	.LBB26:
  21:tests/Threads_C_API_test.hpp ****         printString("A: i="); printInt(i); printString("\n");
  22:tests/Threads_C_API_test.hpp ****         for (uint64 j = 0; j < 10000; j++) {
  23:tests/Threads_C_API_test.hpp ****             for (uint64 k = 0; k < 30000; k++) { /* busy wait */ }
  24:tests/Threads_C_API_test.hpp ****             thread_dispatch();
  49              		.loc 1 24 13 is_stmt 1 discriminator 2
  50              		.loc 1 24 28 is_stmt 0 discriminator 2
  51 0020 97000000 		call	_Z15thread_dispatchv@plt
  51      E7800000 
  52              	.LVL3:
  53              	.LBE26:
  22:tests/Threads_C_API_test.hpp ****             for (uint64 k = 0; k < 30000; k++) { /* busy wait */ }
  54              		.loc 1 22 9 is_stmt 1 discriminator 2
  55 0028 93841400 		addi	s1,s1,1
  56              	.LVL4:
  57              	.L6:
  22:tests/Threads_C_API_test.hpp ****             for (uint64 k = 0; k < 30000; k++) { /* busy wait */ }
  58              		.loc 1 22 30 discriminator 1
  59 002c B7270000 		li	a5,8192
  60 0030 9387F770 		addi	a5,a5,1807
  61 0034 63EE9700 		bgtu	s1,a5,.L3
  62              	.LBB28:
  63              	.LBB27:
  23:tests/Threads_C_API_test.hpp ****             thread_dispatch();
  64              		.loc 1 23 25 is_stmt 0
  65 0038 13070000 		li	a4,0
  66              	.L5:
  67              	.LVL5:
  23:tests/Threads_C_API_test.hpp ****             thread_dispatch();
  68              		.loc 1 23 34 is_stmt 1 discriminator 3
  69 003c B7770000 		li	a5,28672
  70 0040 9387F752 		addi	a5,a5,1327
  71 0044 E3EEE7FC 		bgtu	a4,a5,.L4
  23:tests/Threads_C_API_test.hpp ****             thread_dispatch();
  72              		.loc 1 23 13 discriminator 2
  73 0048 13071700 		addi	a4,a4,1
  74              	.LVL6:
  75 004c 6FF01FFF 		j	.L5
  76              	.LVL7:
  77              	.L3:
  78              	.LBE27:
  79              	.LBE28:
  80              	.LBE25:
GAS LISTING /tmp/ccbTlbUb.s 			page 3


  81              	.LBE24:
  20:tests/Threads_C_API_test.hpp ****         printString("A: i="); printInt(i); printString("\n");
  82              		.loc 1 20 5 discriminator 2
  83 0050 13091900 		addi	s2,s2,1
  84              	.LVL8:
  85              	.L7:
  20:tests/Threads_C_API_test.hpp ****         printString("A: i="); printInt(i); printString("\n");
  86              		.loc 1 20 26 discriminator 1
  87 0054 93079000 		li	a5,9
  88 0058 63E02705 		bgtu	s2,a5,.L2
  89              	.LBB30:
  21:tests/Threads_C_API_test.hpp ****         for (uint64 j = 0; j < 10000; j++) {
  90              		.loc 1 21 9
  21:tests/Threads_C_API_test.hpp ****         for (uint64 j = 0; j < 10000; j++) {
  91              		.loc 1 21 20 is_stmt 0
  92 005c 17050000 		lla	a0,.LC0
  92      13050500 
  93 0064 97000000 		call	_Z11printStringPKc@plt
  93      E7800000 
  94              	.LVL9:
  21:tests/Threads_C_API_test.hpp ****         for (uint64 j = 0; j < 10000; j++) {
  95              		.loc 1 21 31 is_stmt 1
  21:tests/Threads_C_API_test.hpp ****         for (uint64 j = 0; j < 10000; j++) {
  96              		.loc 1 21 39 is_stmt 0
  97 006c 13060000 		li	a2,0
  98 0070 9305A000 		li	a1,10
  99 0074 1B050900 		sext.w	a0,s2
 100 0078 97000000 		call	_Z8printIntiii@plt
 100      E7800000 
 101              	.LVL10:
  21:tests/Threads_C_API_test.hpp ****         for (uint64 j = 0; j < 10000; j++) {
 102              		.loc 1 21 44 is_stmt 1
  21:tests/Threads_C_API_test.hpp ****         for (uint64 j = 0; j < 10000; j++) {
 103              		.loc 1 21 55 is_stmt 0
 104 0080 17050000 		lla	a0,.LC1
 104      13050500 
 105 0088 97000000 		call	_Z11printStringPKc@plt
 105      E7800000 
 106              	.LVL11:
  22:tests/Threads_C_API_test.hpp ****             for (uint64 k = 0; k < 30000; k++) { /* busy wait */ }
 107              		.loc 1 22 9 is_stmt 1
 108              	.LBB29:
  22:tests/Threads_C_API_test.hpp ****             for (uint64 k = 0; k < 30000; k++) { /* busy wait */ }
 109              		.loc 1 22 21 is_stmt 0
 110 0090 93040000 		li	s1,0
 111 0094 6FF09FF9 		j	.L6
 112              	.LVL12:
 113              	.L2:
 114              	.LBE29:
 115              	.LBE30:
 116              	.LBE23:
  25:tests/Threads_C_API_test.hpp ****         }
  26:tests/Threads_C_API_test.hpp ****     }
  27:tests/Threads_C_API_test.hpp ****     printString("A finished!\n");
 117              		.loc 1 27 5 is_stmt 1
 118              		.loc 1 27 16 is_stmt 0
 119 0098 17050000 		lla	a0,.LC2
GAS LISTING /tmp/ccbTlbUb.s 			page 4


 119      13050500 
 120 00a0 97000000 		call	_Z11printStringPKc@plt
 120      E7800000 
 121              	.LVL13:
  28:tests/Threads_C_API_test.hpp ****     finishedA = true;
 122              		.loc 1 28 5 is_stmt 1
 123              		.loc 1 28 15 is_stmt 0
 124 00a8 93071000 		li	a5,1
 125 00ac 17070000 		sb	a5,.LANCHOR0,a4
 125      2300F700 
  29:tests/Threads_C_API_test.hpp **** }
 126              		.loc 1 29 1
 127 00b4 83308101 		ld	ra,24(sp)
 128              		.cfi_restore 1
 129 00b8 03340101 		ld	s0,16(sp)
 130              		.cfi_restore 8
 131              		.cfi_def_cfa 2, 32
 132 00bc 83348100 		ld	s1,8(sp)
 133              		.cfi_restore 9
 134 00c0 03390100 		ld	s2,0(sp)
 135              		.cfi_restore 18
 136              	.LVL14:
 137 00c4 13010102 		addi	sp,sp,32
 138              		.cfi_def_cfa_offset 0
 139 00c8 67800000 		jr	ra
 140              		.cfi_endproc
 141              	.LFE13:
 143              		.section	.rodata.str1.8
 144 001d 000000   		.align	3
 145              	.LC3:
 146 0020 423A2069 		.string	"B: i="
 146      3D00
 147 0026 0000     		.align	3
 148              	.LC4:
 149 0028 42206669 		.string	"B finished!\n"
 149      6E697368 
 149      6564210A 
 149      00
 150              		.text
 151              		.align	2
 152              		.globl	_Z11workerBodyBPv
 154              	_Z11workerBodyBPv:
 155              	.LFB14:
  30:tests/Threads_C_API_test.hpp **** 
  31:tests/Threads_C_API_test.hpp **** void workerBodyB(void* arg) {
 156              		.loc 1 31 29 is_stmt 1
 157              		.cfi_startproc
 158              	.LVL15:
 159 00cc 130101FE 		addi	sp,sp,-32
 160              		.cfi_def_cfa_offset 32
 161 00d0 233C1100 		sd	ra,24(sp)
 162 00d4 23388100 		sd	s0,16(sp)
 163 00d8 23349100 		sd	s1,8(sp)
 164 00dc 23302101 		sd	s2,0(sp)
 165              		.cfi_offset 1, -8
 166              		.cfi_offset 8, -16
 167              		.cfi_offset 9, -24
GAS LISTING /tmp/ccbTlbUb.s 			page 5


 168              		.cfi_offset 18, -32
 169 00e0 13040102 		addi	s0,sp,32
 170              		.cfi_def_cfa 8, 0
  32:tests/Threads_C_API_test.hpp ****     for (uint64 i = 0; i < 16; i++) {
 171              		.loc 1 32 5
 172              	.LVL16:
 173              	.LBB31:
 174              		.loc 1 32 17 is_stmt 0
 175 00e4 13090000 		li	s2,0
 176 00e8 6F008003 		j	.L15
 177              	.LVL17:
 178              	.L12:
 179              	.LBB32:
 180              	.LBB33:
 181              	.LBB34:
  33:tests/Threads_C_API_test.hpp ****         printString("B: i="); printInt(i); printString("\n");
  34:tests/Threads_C_API_test.hpp ****         for (uint64 j = 0; j < 10000; j++) {
  35:tests/Threads_C_API_test.hpp ****             for (uint64 k = 0; k < 30000; k++) { /* busy wait */ }
  36:tests/Threads_C_API_test.hpp ****             thread_dispatch();
 182              		.loc 1 36 13 is_stmt 1 discriminator 2
 183              		.loc 1 36 28 is_stmt 0 discriminator 2
 184 00ec 97000000 		call	_Z15thread_dispatchv@plt
 184      E7800000 
 185              	.LVL18:
 186              	.LBE34:
  34:tests/Threads_C_API_test.hpp ****             for (uint64 k = 0; k < 30000; k++) { /* busy wait */ }
 187              		.loc 1 34 9 is_stmt 1 discriminator 2
 188 00f4 93841400 		addi	s1,s1,1
 189              	.LVL19:
 190              	.L14:
  34:tests/Threads_C_API_test.hpp ****             for (uint64 k = 0; k < 30000; k++) { /* busy wait */ }
 191              		.loc 1 34 30 discriminator 1
 192 00f8 B7270000 		li	a5,8192
 193 00fc 9387F770 		addi	a5,a5,1807
 194 0100 63EE9700 		bgtu	s1,a5,.L11
 195              	.LBB36:
 196              	.LBB35:
  35:tests/Threads_C_API_test.hpp ****             thread_dispatch();
 197              		.loc 1 35 25 is_stmt 0
 198 0104 13070000 		li	a4,0
 199              	.L13:
 200              	.LVL20:
  35:tests/Threads_C_API_test.hpp ****             thread_dispatch();
 201              		.loc 1 35 34 is_stmt 1 discriminator 3
 202 0108 B7770000 		li	a5,28672
 203 010c 9387F752 		addi	a5,a5,1327
 204 0110 E3EEE7FC 		bgtu	a4,a5,.L12
  35:tests/Threads_C_API_test.hpp ****             thread_dispatch();
 205              		.loc 1 35 13 discriminator 2
 206 0114 13071700 		addi	a4,a4,1
 207              	.LVL21:
 208 0118 6FF01FFF 		j	.L13
 209              	.LVL22:
 210              	.L11:
 211              	.LBE35:
 212              	.LBE36:
 213              	.LBE33:
GAS LISTING /tmp/ccbTlbUb.s 			page 6


 214              	.LBE32:
  32:tests/Threads_C_API_test.hpp ****         printString("B: i="); printInt(i); printString("\n");
 215              		.loc 1 32 5 discriminator 2
 216 011c 13091900 		addi	s2,s2,1
 217              	.LVL23:
 218              	.L15:
  32:tests/Threads_C_API_test.hpp ****         printString("B: i="); printInt(i); printString("\n");
 219              		.loc 1 32 26 discriminator 1
 220 0120 9307F000 		li	a5,15
 221 0124 63E02705 		bgtu	s2,a5,.L10
 222              	.LBB38:
  33:tests/Threads_C_API_test.hpp ****         for (uint64 j = 0; j < 10000; j++) {
 223              		.loc 1 33 9
  33:tests/Threads_C_API_test.hpp ****         for (uint64 j = 0; j < 10000; j++) {
 224              		.loc 1 33 20 is_stmt 0
 225 0128 17050000 		lla	a0,.LC3
 225      13050500 
 226 0130 97000000 		call	_Z11printStringPKc@plt
 226      E7800000 
 227              	.LVL24:
  33:tests/Threads_C_API_test.hpp ****         for (uint64 j = 0; j < 10000; j++) {
 228              		.loc 1 33 31 is_stmt 1
  33:tests/Threads_C_API_test.hpp ****         for (uint64 j = 0; j < 10000; j++) {
 229              		.loc 1 33 39 is_stmt 0
 230 0138 13060000 		li	a2,0
 231 013c 9305A000 		li	a1,10
 232 0140 1B050900 		sext.w	a0,s2
 233 0144 97000000 		call	_Z8printIntiii@plt
 233      E7800000 
 234              	.LVL25:
  33:tests/Threads_C_API_test.hpp ****         for (uint64 j = 0; j < 10000; j++) {
 235              		.loc 1 33 44 is_stmt 1
  33:tests/Threads_C_API_test.hpp ****         for (uint64 j = 0; j < 10000; j++) {
 236              		.loc 1 33 55 is_stmt 0
 237 014c 17050000 		lla	a0,.LC1
 237      13050500 
 238 0154 97000000 		call	_Z11printStringPKc@plt
 238      E7800000 
 239              	.LVL26:
  34:tests/Threads_C_API_test.hpp ****             for (uint64 k = 0; k < 30000; k++) { /* busy wait */ }
 240              		.loc 1 34 9 is_stmt 1
 241              	.LBB37:
  34:tests/Threads_C_API_test.hpp ****             for (uint64 k = 0; k < 30000; k++) { /* busy wait */ }
 242              		.loc 1 34 21 is_stmt 0
 243 015c 93040000 		li	s1,0
 244 0160 6FF09FF9 		j	.L14
 245              	.LVL27:
 246              	.L10:
 247              	.LBE37:
 248              	.LBE38:
 249              	.LBE31:
  37:tests/Threads_C_API_test.hpp ****         }
  38:tests/Threads_C_API_test.hpp ****     }
  39:tests/Threads_C_API_test.hpp ****     printString("B finished!\n");
 250              		.loc 1 39 5 is_stmt 1
 251              		.loc 1 39 16 is_stmt 0
 252 0164 17050000 		lla	a0,.LC4
GAS LISTING /tmp/ccbTlbUb.s 			page 7


 252      13050500 
 253 016c 97000000 		call	_Z11printStringPKc@plt
 253      E7800000 
 254              	.LVL28:
  40:tests/Threads_C_API_test.hpp ****     finishedB = true;
 255              		.loc 1 40 5 is_stmt 1
 256              		.loc 1 40 15 is_stmt 0
 257 0174 93071000 		li	a5,1
 258 0178 17070000 		sb	a5,.LANCHOR0+1,a4
 258      2300F700 
  41:tests/Threads_C_API_test.hpp ****     thread_dispatch();
 259              		.loc 1 41 5 is_stmt 1
 260              		.loc 1 41 20 is_stmt 0
 261 0180 97000000 		call	_Z15thread_dispatchv@plt
 261      E7800000 
 262              	.LVL29:
  42:tests/Threads_C_API_test.hpp **** }
 263              		.loc 1 42 1
 264 0188 83308101 		ld	ra,24(sp)
 265              		.cfi_restore 1
 266 018c 03340101 		ld	s0,16(sp)
 267              		.cfi_restore 8
 268              		.cfi_def_cfa 2, 32
 269 0190 83348100 		ld	s1,8(sp)
 270              		.cfi_restore 9
 271 0194 03390100 		ld	s2,0(sp)
 272              		.cfi_restore 18
 273              	.LVL30:
 274 0198 13010102 		addi	sp,sp,32
 275              		.cfi_def_cfa_offset 0
 276 019c 67800000 		jr	ra
 277              		.cfi_endproc
 278              	.LFE14:
 280              		.section	.rodata.str1.8
 281 0035 000000   		.align	3
 282              	.LC5:
 283 0038 48656C6C 		.string	"Hello "
 283      6F2000
 284 003f 00       		.align	3
 285              	.LC6:
 286 0040 20210A00 		.string	" !\n"
 287              		.text
 288              		.align	2
 289              		.globl	_Z9sleepyRunPv
 291              	_Z9sleepyRunPv:
 292              	.LFB18:
 293              		.file 2 "tests/ThreadSleep_C_API_test.hpp"
   1:tests/ThreadSleep_C_API_test.hpp **** //
   2:tests/ThreadSleep_C_API_test.hpp **** // Created by os on 4/17/22.
   3:tests/ThreadSleep_C_API_test.hpp **** //
   4:tests/ThreadSleep_C_API_test.hpp **** 
   5:tests/ThreadSleep_C_API_test.hpp **** #ifndef XV6_THREADSLEEP_C_API_TEST_HPP
   6:tests/ThreadSleep_C_API_test.hpp **** #define XV6_THREADSLEEP_C_API_TEST_HPP
   7:tests/ThreadSleep_C_API_test.hpp **** 
   8:tests/ThreadSleep_C_API_test.hpp **** #include "../h/syscall_c.h"
   9:tests/ThreadSleep_C_API_test.hpp **** 
  10:tests/ThreadSleep_C_API_test.hpp **** #include "../h/printing.hpp"
GAS LISTING /tmp/ccbTlbUb.s 			page 8


  11:tests/ThreadSleep_C_API_test.hpp **** 
  12:tests/ThreadSleep_C_API_test.hpp **** bool finished[2];
  13:tests/ThreadSleep_C_API_test.hpp **** 
  14:tests/ThreadSleep_C_API_test.hpp **** void sleepyRun(void *arg) {
 294              		.loc 2 14 27 is_stmt 1
 295              		.cfi_startproc
 296              	.LVL31:
 297 01a0 130101FE 		addi	sp,sp,-32
 298              		.cfi_def_cfa_offset 32
 299 01a4 233C1100 		sd	ra,24(sp)
 300 01a8 23388100 		sd	s0,16(sp)
 301 01ac 23349100 		sd	s1,8(sp)
 302 01b0 23302101 		sd	s2,0(sp)
 303              		.cfi_offset 1, -8
 304              		.cfi_offset 8, -16
 305              		.cfi_offset 9, -24
 306              		.cfi_offset 18, -32
 307 01b4 13040102 		addi	s0,sp,32
 308              		.cfi_def_cfa 8, 0
  15:tests/ThreadSleep_C_API_test.hpp ****     time_t sleep_time = *((time_t *) arg);
 309              		.loc 2 15 5
 310              		.loc 2 15 12 is_stmt 0
 311 01b8 03390500 		ld	s2,0(a0)
 312              	.LVL32:
  16:tests/ThreadSleep_C_API_test.hpp ****     int i = 6;
 313              		.loc 2 16 5 is_stmt 1
 314              		.loc 2 16 9 is_stmt 0
 315 01bc 93046000 		li	s1,6
 316              	.LVL33:
 317              	.L19:
  17:tests/ThreadSleep_C_API_test.hpp ****     while (--i > 0) {
 318              		.loc 2 17 5 is_stmt 1
 319              		.loc 2 17 16
 320 01c0 9B84F4FF 		addiw	s1,s1,-1
 321              	.LVL34:
 322 01c4 63549004 		blez	s1,.L18
  18:tests/ThreadSleep_C_API_test.hpp **** 
  19:tests/ThreadSleep_C_API_test.hpp ****         printString("Hello ");
 323              		.loc 2 19 9
 324              		.loc 2 19 20 is_stmt 0
 325 01c8 17050000 		lla	a0,.LC5
 325      13050500 
 326 01d0 97000000 		call	_Z11printStringPKc@plt
 326      E7800000 
 327              	.LVL35:
  20:tests/ThreadSleep_C_API_test.hpp ****         printInt(sleep_time);
 328              		.loc 2 20 9 is_stmt 1
 329              		.loc 2 20 17 is_stmt 0
 330 01d8 13060000 		li	a2,0
 331 01dc 9305A000 		li	a1,10
 332 01e0 1B050900 		sext.w	a0,s2
 333 01e4 97000000 		call	_Z8printIntiii@plt
 333      E7800000 
 334              	.LVL36:
  21:tests/ThreadSleep_C_API_test.hpp ****         printString(" !\n");
 335              		.loc 2 21 9 is_stmt 1
 336              		.loc 2 21 20 is_stmt 0
GAS LISTING /tmp/ccbTlbUb.s 			page 9


 337 01ec 17050000 		lla	a0,.LC6
 337      13050500 
 338 01f4 97000000 		call	_Z11printStringPKc@plt
 338      E7800000 
 339              	.LVL37:
  22:tests/ThreadSleep_C_API_test.hpp ****         time_sleep(sleep_time);
 340              		.loc 2 22 9 is_stmt 1
 341              		.loc 2 22 19 is_stmt 0
 342 01fc 13050900 		mv	a0,s2
 343 0200 97000000 		call	_Z10time_sleepm@plt
 343      E7800000 
 344              	.LVL38:
  17:tests/ThreadSleep_C_API_test.hpp **** 
 345              		.loc 2 17 5
 346 0208 6FF09FFB 		j	.L19
 347              	.L18:
  23:tests/ThreadSleep_C_API_test.hpp ****     }
  24:tests/ThreadSleep_C_API_test.hpp ****     finished[sleep_time/10-1] = true;
 348              		.loc 2 24 5 is_stmt 1
 349              		.loc 2 24 24 is_stmt 0
 350 020c 9307A000 		li	a5,10
 351 0210 3359F902 		divu	s2,s2,a5
 352              	.LVL39:
 353              		.loc 2 24 27
 354 0214 1309F9FF 		addi	s2,s2,-1
 355              		.loc 2 24 31
 356 0218 97070000 		lla	a5,.LANCHOR0
 356      93870700 
 357 0220 33892701 		add	s2,a5,s2
 358 0224 93071000 		li	a5,1
 359 0228 2304F900 		sb	a5,8(s2)
  25:tests/ThreadSleep_C_API_test.hpp **** }
 360              		.loc 2 25 1
 361 022c 83308101 		ld	ra,24(sp)
 362              		.cfi_restore 1
 363 0230 03340101 		ld	s0,16(sp)
 364              		.cfi_restore 8
 365              		.cfi_def_cfa 2, 32
 366 0234 83348100 		ld	s1,8(sp)
 367              		.cfi_restore 9
 368 0238 03390100 		ld	s2,0(sp)
 369              		.cfi_restore 18
 370 023c 13010102 		addi	sp,sp,32
 371              		.cfi_def_cfa_offset 0
 372 0240 67800000 		jr	ra
 373              		.cfi_endproc
 374              	.LFE18:
 376              		.section	.text._ZN19ConsumerProducerCPP8Consumer3runEv,"axG",@progbits,_ZN19ConsumerProducerCPP8Co
 377              		.align	2
 378              		.weak	_ZN19ConsumerProducerCPP8Consumer3runEv
 380              	_ZN19ConsumerProducerCPP8Consumer3runEv:
 381              	.LFB33:
 382              		.file 3 "tests/ConsumerProducer_CPP_API_test.hpp"
   1:tests/ConsumerProducer_CPP_API_test.hpp **** //
   2:tests/ConsumerProducer_CPP_API_test.hpp **** // Created by os on 4/17/22.
   3:tests/ConsumerProducer_CPP_API_test.hpp **** //
   4:tests/ConsumerProducer_CPP_API_test.hpp **** 
GAS LISTING /tmp/ccbTlbUb.s 			page 10


   5:tests/ConsumerProducer_CPP_API_test.hpp **** #ifndef XV6_CONSUMERPRODUCER_CPP_API_TEST_HPP
   6:tests/ConsumerProducer_CPP_API_test.hpp **** #define XV6_CONSUMERPRODUCER_CPP_API_TEST_HPP
   7:tests/ConsumerProducer_CPP_API_test.hpp **** 
   8:tests/ConsumerProducer_CPP_API_test.hpp **** #include "../h/syscall_cpp.hpp"
   9:tests/ConsumerProducer_CPP_API_test.hpp **** 
  10:tests/ConsumerProducer_CPP_API_test.hpp **** #include "buffer_CPP_API.hpp"
  11:tests/ConsumerProducer_CPP_API_test.hpp **** #include "../h/printing.hpp"
  12:tests/ConsumerProducer_CPP_API_test.hpp **** 
  13:tests/ConsumerProducer_CPP_API_test.hpp **** namespace ConsumerProducerCPP {
  14:tests/ConsumerProducer_CPP_API_test.hpp **** 
  15:tests/ConsumerProducer_CPP_API_test.hpp ****     Semaphore *waitForAll;
  16:tests/ConsumerProducer_CPP_API_test.hpp **** 
  17:tests/ConsumerProducer_CPP_API_test.hpp ****     struct thread_data {
  18:tests/ConsumerProducer_CPP_API_test.hpp ****         int id;
  19:tests/ConsumerProducer_CPP_API_test.hpp ****         BufferCPP *buffer;
  20:tests/ConsumerProducer_CPP_API_test.hpp ****         Semaphore *sem;
  21:tests/ConsumerProducer_CPP_API_test.hpp ****     };
  22:tests/ConsumerProducer_CPP_API_test.hpp **** 
  23:tests/ConsumerProducer_CPP_API_test.hpp ****     volatile int threadEnd = 0;
  24:tests/ConsumerProducer_CPP_API_test.hpp **** 
  25:tests/ConsumerProducer_CPP_API_test.hpp ****     class ProducerKeyborad : public Thread {
  26:tests/ConsumerProducer_CPP_API_test.hpp ****         thread_data *td;
  27:tests/ConsumerProducer_CPP_API_test.hpp ****     public:
  28:tests/ConsumerProducer_CPP_API_test.hpp ****         ProducerKeyborad(thread_data *_td) : Thread(), td(_td) {}
  29:tests/ConsumerProducer_CPP_API_test.hpp **** 
  30:tests/ConsumerProducer_CPP_API_test.hpp ****         void run() override {
  31:tests/ConsumerProducer_CPP_API_test.hpp ****             int key;
  32:tests/ConsumerProducer_CPP_API_test.hpp ****             int i = 0;
  33:tests/ConsumerProducer_CPP_API_test.hpp ****             while ((key = getc()) != 0x1b) {
  34:tests/ConsumerProducer_CPP_API_test.hpp ****                 td->buffer->put(key);
  35:tests/ConsumerProducer_CPP_API_test.hpp ****                 i++;
  36:tests/ConsumerProducer_CPP_API_test.hpp ****             }
  37:tests/ConsumerProducer_CPP_API_test.hpp **** 
  38:tests/ConsumerProducer_CPP_API_test.hpp ****             threadEnd = 1;
  39:tests/ConsumerProducer_CPP_API_test.hpp ****             td->buffer->put('!');
  40:tests/ConsumerProducer_CPP_API_test.hpp **** 
  41:tests/ConsumerProducer_CPP_API_test.hpp ****             td->sem->signal();
  42:tests/ConsumerProducer_CPP_API_test.hpp ****         }
  43:tests/ConsumerProducer_CPP_API_test.hpp ****     };
  44:tests/ConsumerProducer_CPP_API_test.hpp **** 
  45:tests/ConsumerProducer_CPP_API_test.hpp ****     class Producer : public Thread {
  46:tests/ConsumerProducer_CPP_API_test.hpp ****         thread_data *td;
  47:tests/ConsumerProducer_CPP_API_test.hpp ****     public:
  48:tests/ConsumerProducer_CPP_API_test.hpp ****         Producer(thread_data *_td) : Thread(), td(_td) {}
  49:tests/ConsumerProducer_CPP_API_test.hpp **** 
  50:tests/ConsumerProducer_CPP_API_test.hpp ****         void run() override {
  51:tests/ConsumerProducer_CPP_API_test.hpp ****             int i = 0;
  52:tests/ConsumerProducer_CPP_API_test.hpp ****             while (!threadEnd) {
  53:tests/ConsumerProducer_CPP_API_test.hpp ****                 td->buffer->put(td->id + '0');
  54:tests/ConsumerProducer_CPP_API_test.hpp ****                 i++;
  55:tests/ConsumerProducer_CPP_API_test.hpp ****                 Thread::sleep((i+td->id)%5);
  56:tests/ConsumerProducer_CPP_API_test.hpp ****             }
  57:tests/ConsumerProducer_CPP_API_test.hpp **** 
  58:tests/ConsumerProducer_CPP_API_test.hpp ****             td->sem->signal();
  59:tests/ConsumerProducer_CPP_API_test.hpp ****         }
  60:tests/ConsumerProducer_CPP_API_test.hpp ****     };
  61:tests/ConsumerProducer_CPP_API_test.hpp **** 
GAS LISTING /tmp/ccbTlbUb.s 			page 11


  62:tests/ConsumerProducer_CPP_API_test.hpp ****     class Consumer : public Thread {
  63:tests/ConsumerProducer_CPP_API_test.hpp ****         thread_data *td;
  64:tests/ConsumerProducer_CPP_API_test.hpp ****     public:
  65:tests/ConsumerProducer_CPP_API_test.hpp ****         Consumer(thread_data *_td) : Thread(), td(_td) {}
  66:tests/ConsumerProducer_CPP_API_test.hpp **** 
  67:tests/ConsumerProducer_CPP_API_test.hpp ****         void run() override {
 383              		.loc 3 67 14 is_stmt 1
 384              		.cfi_startproc
 385              	.LVL40:
 386 0000 130101FD 		addi	sp,sp,-48
 387              		.cfi_def_cfa_offset 48
 388 0004 23341102 		sd	ra,40(sp)
 389 0008 23308102 		sd	s0,32(sp)
 390 000c 233C9100 		sd	s1,24(sp)
 391 0010 23382101 		sd	s2,16(sp)
 392 0014 23343101 		sd	s3,8(sp)
 393              		.cfi_offset 1, -8
 394              		.cfi_offset 8, -16
 395              		.cfi_offset 9, -24
 396              		.cfi_offset 18, -32
 397              		.cfi_offset 19, -40
 398 0018 13040103 		addi	s0,sp,48
 399              		.cfi_def_cfa 8, 0
 400 001c 13090500 		mv	s2,a0
  68:tests/ConsumerProducer_CPP_API_test.hpp ****             int i = 0;
 401              		.loc 3 68 13
 402              	.LVL41:
 403              		.loc 3 68 17 is_stmt 0
 404 0020 93090000 		li	s3,0
 405 0024 6F000001 		j	.L22
 406              	.LVL42:
 407              	.L27:
 408              	.LBB39:
  69:tests/ConsumerProducer_CPP_API_test.hpp ****             while (!threadEnd) {
  70:tests/ConsumerProducer_CPP_API_test.hpp ****                 int key = td->buffer->get();
  71:tests/ConsumerProducer_CPP_API_test.hpp ****                 i++;
  72:tests/ConsumerProducer_CPP_API_test.hpp **** 
  73:tests/ConsumerProducer_CPP_API_test.hpp ****                 Console::putc(key);
  74:tests/ConsumerProducer_CPP_API_test.hpp **** 
  75:tests/ConsumerProducer_CPP_API_test.hpp ****                 if (i % 80 == 0) {
  76:tests/ConsumerProducer_CPP_API_test.hpp ****                     Console::putc('\n');
 409              		.loc 3 76 21 is_stmt 1
 410              		.loc 3 76 34 is_stmt 0
 411 0028 1305A000 		li	a0,10
 412 002c 97000000 		call	_ZN7Console4putcEc@plt
 412      E7800000 
 413              	.LVL43:
 414              	.L22:
 415              	.LBE39:
  69:tests/ConsumerProducer_CPP_API_test.hpp ****             while (!threadEnd) {
 416              		.loc 3 69 13 is_stmt 1
  69:tests/ConsumerProducer_CPP_API_test.hpp ****             while (!threadEnd) {
 417              		.loc 3 69 20
 418 0034 97070000 		lw	a5,.LANCHOR0+12
 418      83A70700 
 419 003c 639A0704 		bnez	a5,.L23
 420              	.LBB40:
GAS LISTING /tmp/ccbTlbUb.s 			page 12


  70:tests/ConsumerProducer_CPP_API_test.hpp ****                 i++;
 421              		.loc 3 70 17
  70:tests/ConsumerProducer_CPP_API_test.hpp ****                 i++;
 422              		.loc 3 70 27 is_stmt 0
 423 0040 83370901 		ld	a5,16(s2)
  70:tests/ConsumerProducer_CPP_API_test.hpp ****                 i++;
 424              		.loc 3 70 42
 425 0044 03B58700 		ld	a0,8(a5)
 426 0048 97000000 		call	_ZN9BufferCPP3getEv@plt
 426      E7800000 
 427              	.LVL44:
  71:tests/ConsumerProducer_CPP_API_test.hpp **** 
 428              		.loc 3 71 17 is_stmt 1
  71:tests/ConsumerProducer_CPP_API_test.hpp **** 
 429              		.loc 3 71 18 is_stmt 0
 430 0050 9B841900 		addiw	s1,s3,1
 431 0054 9B890400 		sext.w	s3,s1
 432              	.LVL45:
  73:tests/ConsumerProducer_CPP_API_test.hpp **** 
 433              		.loc 3 73 17 is_stmt 1
  73:tests/ConsumerProducer_CPP_API_test.hpp **** 
 434              		.loc 3 73 30 is_stmt 0
 435 0058 1375F50F 		andi	a0,a0,0xff
 436              	.LVL46:
 437 005c 97000000 		call	_ZN7Console4putcEc@plt
 437      E7800000 
 438              	.LVL47:
  75:tests/ConsumerProducer_CPP_API_test.hpp ****                     Console::putc('\n');
 439              		.loc 3 75 17 is_stmt 1
  75:tests/ConsumerProducer_CPP_API_test.hpp ****                     Console::putc('\n');
 440              		.loc 3 75 23 is_stmt 0
 441 0064 93070005 		li	a5,80
 442 0068 BBE4F402 		remw	s1,s1,a5
 443              	.LVL48:
  75:tests/ConsumerProducer_CPP_API_test.hpp ****                     Console::putc('\n');
 444              		.loc 3 75 17
 445 006c E39404FC 		bnez	s1,.L22
 446 0070 6FF09FFB 		j	.L27
 447              	.L28:
 448              	.LBE40:
 449              	.LBB41:
  77:tests/ConsumerProducer_CPP_API_test.hpp ****                 }
  78:tests/ConsumerProducer_CPP_API_test.hpp ****             }
  79:tests/ConsumerProducer_CPP_API_test.hpp **** 
  80:tests/ConsumerProducer_CPP_API_test.hpp ****             while (td->buffer->getCnt() > 0) {
  81:tests/ConsumerProducer_CPP_API_test.hpp ****                 int key = td->buffer->get();
 450              		.loc 3 81 17 is_stmt 1
 451              		.loc 3 81 27 is_stmt 0
 452 0074 83370901 		ld	a5,16(s2)
 453              		.loc 3 81 42
 454 0078 03B58700 		ld	a0,8(a5)
 455 007c 97000000 		call	_ZN9BufferCPP3getEv@plt
 455      E7800000 
 456              	.LVL49:
  82:tests/ConsumerProducer_CPP_API_test.hpp ****                 Console::putc(key);
 457              		.loc 3 82 17 is_stmt 1
 458              		.loc 3 82 30 is_stmt 0
GAS LISTING /tmp/ccbTlbUb.s 			page 13


 459 0084 1375F50F 		andi	a0,a0,0xff
 460              	.LVL50:
 461 0088 97000000 		call	_ZN7Console4putcEc@plt
 461      E7800000 
 462              	.LVL51:
 463              	.L23:
 464              	.LBE41:
  80:tests/ConsumerProducer_CPP_API_test.hpp ****                 int key = td->buffer->get();
 465              		.loc 3 80 13 is_stmt 1
  80:tests/ConsumerProducer_CPP_API_test.hpp ****                 int key = td->buffer->get();
 466              		.loc 3 80 41
  80:tests/ConsumerProducer_CPP_API_test.hpp ****                 int key = td->buffer->get();
 467              		.loc 3 80 20 is_stmt 0
 468 0090 83370901 		ld	a5,16(s2)
  80:tests/ConsumerProducer_CPP_API_test.hpp ****                 int key = td->buffer->get();
 469              		.loc 3 80 38
 470 0094 03B58700 		ld	a0,8(a5)
 471 0098 97000000 		call	_ZN9BufferCPP6getCntEv@plt
 471      E7800000 
 472              	.LVL52:
  80:tests/ConsumerProducer_CPP_API_test.hpp ****                 int key = td->buffer->get();
 473              		.loc 3 80 41
 474 00a0 E34AA0FC 		bgtz	a0,.L28
  83:tests/ConsumerProducer_CPP_API_test.hpp ****             }
  84:tests/ConsumerProducer_CPP_API_test.hpp **** 
  85:tests/ConsumerProducer_CPP_API_test.hpp ****             td->sem->signal();
 475              		.loc 3 85 13 is_stmt 1
 476 00a4 83370901 		ld	a5,16(s2)
 477              		.loc 3 85 28 is_stmt 0
 478 00a8 03B50701 		ld	a0,16(a5)
 479 00ac 97000000 		call	_ZN9Semaphore6signalEv@plt
 479      E7800000 
 480              	.LVL53:
  86:tests/ConsumerProducer_CPP_API_test.hpp ****         }
 481              		.loc 3 86 9
 482 00b4 83308102 		ld	ra,40(sp)
 483              		.cfi_restore 1
 484 00b8 03340102 		ld	s0,32(sp)
 485              		.cfi_restore 8
 486              		.cfi_def_cfa 2, 48
 487 00bc 83348101 		ld	s1,24(sp)
 488              		.cfi_restore 9
 489 00c0 03390101 		ld	s2,16(sp)
 490              		.cfi_restore 18
 491              	.LVL54:
 492 00c4 83398100 		ld	s3,8(sp)
 493              		.cfi_restore 19
 494              	.LVL55:
 495 00c8 13010103 		addi	sp,sp,48
 496              		.cfi_def_cfa_offset 0
 497 00cc 67800000 		jr	ra
 498              		.cfi_endproc
 499              	.LFE33:
 501              		.section	.text._ZN19ConsumerProducerCPP8ConsumerD2Ev,"axG",@progbits,_ZN19ConsumerProducerCPP8Cons
 502              		.align	2
 503              		.weak	_ZN19ConsumerProducerCPP8ConsumerD2Ev
 505              	_ZN19ConsumerProducerCPP8ConsumerD2Ev:
GAS LISTING /tmp/ccbTlbUb.s 			page 14


 506              	.LFB37:
  62:tests/ConsumerProducer_CPP_API_test.hpp ****         thread_data *td;
 507              		.loc 3 62 11 is_stmt 1
 508              		.cfi_startproc
 509              	.LVL56:
 510 0000 130101FF 		addi	sp,sp,-16
 511              		.cfi_def_cfa_offset 16
 512 0004 23341100 		sd	ra,8(sp)
 513 0008 23308100 		sd	s0,0(sp)
 514              		.cfi_offset 1, -8
 515              		.cfi_offset 8, -16
 516 000c 13040101 		addi	s0,sp,16
 517              		.cfi_def_cfa 8, 0
 518              	.LBB42:
  62:tests/ConsumerProducer_CPP_API_test.hpp ****         thread_data *td;
 519              		.loc 3 62 11 is_stmt 0
 520 0010 97070000 		lla	a5,_ZTVN19ConsumerProducerCPP8ConsumerE+16
 520      93870700 
 521 0018 2330F500 		sd	a5,0(a0)
 522 001c 97000000 		call	_ZN6ThreadD2Ev@plt
 522      E7800000 
 523              	.LVL57:
 524              	.LBE42:
 525 0024 83308100 		ld	ra,8(sp)
 526              		.cfi_restore 1
 527 0028 03340100 		ld	s0,0(sp)
 528              		.cfi_restore 8
 529              		.cfi_def_cfa 2, 16
 530 002c 13010101 		addi	sp,sp,16
 531              		.cfi_def_cfa_offset 0
 532 0030 67800000 		jr	ra
 533              		.cfi_endproc
 534              	.LFE37:
 536              		.weak	_ZN19ConsumerProducerCPP8ConsumerD1Ev
 537              		.set	_ZN19ConsumerProducerCPP8ConsumerD1Ev,_ZN19ConsumerProducerCPP8ConsumerD2Ev
 538              		.section	.text._ZN19ConsumerProducerCPP8ConsumerD0Ev,"axG",@progbits,_ZN19ConsumerProducerCPP8Cons
 539              		.align	2
 540              		.weak	_ZN19ConsumerProducerCPP8ConsumerD0Ev
 542              	_ZN19ConsumerProducerCPP8ConsumerD0Ev:
 543              	.LFB39:
  62:tests/ConsumerProducer_CPP_API_test.hpp ****         thread_data *td;
 544              		.loc 3 62 11 is_stmt 1
 545              		.cfi_startproc
 546              	.LVL58:
 547 0000 130101FE 		addi	sp,sp,-32
 548              		.cfi_def_cfa_offset 32
 549 0004 233C1100 		sd	ra,24(sp)
 550 0008 23388100 		sd	s0,16(sp)
 551 000c 23349100 		sd	s1,8(sp)
 552              		.cfi_offset 1, -8
 553              		.cfi_offset 8, -16
 554              		.cfi_offset 9, -24
 555 0010 13040102 		addi	s0,sp,32
 556              		.cfi_def_cfa 8, 0
 557 0014 93040500 		mv	s1,a0
 558              	.LVL59:
 559              	.LBB43:
GAS LISTING /tmp/ccbTlbUb.s 			page 15


 560              	.LBB44:
  62:tests/ConsumerProducer_CPP_API_test.hpp ****         thread_data *td;
 561              		.loc 3 62 11 is_stmt 0
 562 0018 97070000 		lla	a5,_ZTVN19ConsumerProducerCPP8ConsumerE+16
 562      93870700 
 563 0020 2330F500 		sd	a5,0(a0)
 564 0024 97000000 		call	_ZN6ThreadD2Ev@plt
 564      E7800000 
 565              	.LVL60:
 566              	.LBE44:
 567              	.LBE43:
 568 002c 13850400 		mv	a0,s1
 569 0030 97000000 		call	_ZdlPv@plt
 569      E7800000 
 570              	.LVL61:
 571 0038 83308101 		ld	ra,24(sp)
 572              		.cfi_restore 1
 573 003c 03340101 		ld	s0,16(sp)
 574              		.cfi_restore 8
 575              		.cfi_def_cfa 2, 32
 576 0040 83348100 		ld	s1,8(sp)
 577              		.cfi_restore 9
 578              	.LVL62:
 579 0044 13010102 		addi	sp,sp,32
 580              		.cfi_def_cfa_offset 0
 581 0048 67800000 		jr	ra
 582              		.cfi_endproc
 583              	.LFE39:
 585              		.section	.text._ZN19ConsumerProducerCPP16ProducerKeyboradD2Ev,"axG",@progbits,_ZN19ConsumerProduce
 586              		.align	2
 587              		.weak	_ZN19ConsumerProducerCPP16ProducerKeyboradD2Ev
 589              	_ZN19ConsumerProducerCPP16ProducerKeyboradD2Ev:
 590              	.LFB45:
  25:tests/ConsumerProducer_CPP_API_test.hpp ****         thread_data *td;
 591              		.loc 3 25 11 is_stmt 1
 592              		.cfi_startproc
 593              	.LVL63:
 594 0000 130101FF 		addi	sp,sp,-16
 595              		.cfi_def_cfa_offset 16
 596 0004 23341100 		sd	ra,8(sp)
 597 0008 23308100 		sd	s0,0(sp)
 598              		.cfi_offset 1, -8
 599              		.cfi_offset 8, -16
 600 000c 13040101 		addi	s0,sp,16
 601              		.cfi_def_cfa 8, 0
 602              	.LBB45:
  25:tests/ConsumerProducer_CPP_API_test.hpp ****         thread_data *td;
 603              		.loc 3 25 11 is_stmt 0
 604 0010 97070000 		lla	a5,_ZTVN19ConsumerProducerCPP16ProducerKeyboradE+16
 604      93870700 
 605 0018 2330F500 		sd	a5,0(a0)
 606 001c 97000000 		call	_ZN6ThreadD2Ev@plt
 606      E7800000 
 607              	.LVL64:
 608              	.LBE45:
 609 0024 83308100 		ld	ra,8(sp)
 610              		.cfi_restore 1
GAS LISTING /tmp/ccbTlbUb.s 			page 16


 611 0028 03340100 		ld	s0,0(sp)
 612              		.cfi_restore 8
 613              		.cfi_def_cfa 2, 16
 614 002c 13010101 		addi	sp,sp,16
 615              		.cfi_def_cfa_offset 0
 616 0030 67800000 		jr	ra
 617              		.cfi_endproc
 618              	.LFE45:
 620              		.weak	_ZN19ConsumerProducerCPP16ProducerKeyboradD1Ev
 621              		.set	_ZN19ConsumerProducerCPP16ProducerKeyboradD1Ev,_ZN19ConsumerProducerCPP16ProducerKeyboradD2Ev
 622              		.section	.text._ZN19ConsumerProducerCPP16ProducerKeyboradD0Ev,"axG",@progbits,_ZN19ConsumerProduce
 623              		.align	2
 624              		.weak	_ZN19ConsumerProducerCPP16ProducerKeyboradD0Ev
 626              	_ZN19ConsumerProducerCPP16ProducerKeyboradD0Ev:
 627              	.LFB47:
  25:tests/ConsumerProducer_CPP_API_test.hpp ****         thread_data *td;
 628              		.loc 3 25 11 is_stmt 1
 629              		.cfi_startproc
 630              	.LVL65:
 631 0000 130101FE 		addi	sp,sp,-32
 632              		.cfi_def_cfa_offset 32
 633 0004 233C1100 		sd	ra,24(sp)
 634 0008 23388100 		sd	s0,16(sp)
 635 000c 23349100 		sd	s1,8(sp)
 636              		.cfi_offset 1, -8
 637              		.cfi_offset 8, -16
 638              		.cfi_offset 9, -24
 639 0010 13040102 		addi	s0,sp,32
 640              		.cfi_def_cfa 8, 0
 641 0014 93040500 		mv	s1,a0
 642              	.LVL66:
 643              	.LBB46:
 644              	.LBB47:
  25:tests/ConsumerProducer_CPP_API_test.hpp ****         thread_data *td;
 645              		.loc 3 25 11 is_stmt 0
 646 0018 97070000 		lla	a5,_ZTVN19ConsumerProducerCPP16ProducerKeyboradE+16
 646      93870700 
 647 0020 2330F500 		sd	a5,0(a0)
 648 0024 97000000 		call	_ZN6ThreadD2Ev@plt
 648      E7800000 
 649              	.LVL67:
 650              	.LBE47:
 651              	.LBE46:
 652 002c 13850400 		mv	a0,s1
 653 0030 97000000 		call	_ZdlPv@plt
 653      E7800000 
 654              	.LVL68:
 655 0038 83308101 		ld	ra,24(sp)
 656              		.cfi_restore 1
 657 003c 03340101 		ld	s0,16(sp)
 658              		.cfi_restore 8
 659              		.cfi_def_cfa 2, 32
 660 0040 83348100 		ld	s1,8(sp)
 661              		.cfi_restore 9
 662              	.LVL69:
 663 0044 13010102 		addi	sp,sp,32
 664              		.cfi_def_cfa_offset 0
GAS LISTING /tmp/ccbTlbUb.s 			page 17


 665 0048 67800000 		jr	ra
 666              		.cfi_endproc
 667              	.LFE47:
 669              		.section	.text._ZN19ConsumerProducerCPP8ProducerD2Ev,"axG",@progbits,_ZN19ConsumerProducerCPP8Prod
 670              		.align	2
 671              		.weak	_ZN19ConsumerProducerCPP8ProducerD2Ev
 673              	_ZN19ConsumerProducerCPP8ProducerD2Ev:
 674              	.LFB41:
  45:tests/ConsumerProducer_CPP_API_test.hpp ****         thread_data *td;
 675              		.loc 3 45 11 is_stmt 1
 676              		.cfi_startproc
 677              	.LVL70:
 678 0000 130101FF 		addi	sp,sp,-16
 679              		.cfi_def_cfa_offset 16
 680 0004 23341100 		sd	ra,8(sp)
 681 0008 23308100 		sd	s0,0(sp)
 682              		.cfi_offset 1, -8
 683              		.cfi_offset 8, -16
 684 000c 13040101 		addi	s0,sp,16
 685              		.cfi_def_cfa 8, 0
 686              	.LBB48:
  45:tests/ConsumerProducer_CPP_API_test.hpp ****         thread_data *td;
 687              		.loc 3 45 11 is_stmt 0
 688 0010 97070000 		lla	a5,_ZTVN19ConsumerProducerCPP8ProducerE+16
 688      93870700 
 689 0018 2330F500 		sd	a5,0(a0)
 690 001c 97000000 		call	_ZN6ThreadD2Ev@plt
 690      E7800000 
 691              	.LVL71:
 692              	.LBE48:
 693 0024 83308100 		ld	ra,8(sp)
 694              		.cfi_restore 1
 695 0028 03340100 		ld	s0,0(sp)
 696              		.cfi_restore 8
 697              		.cfi_def_cfa 2, 16
 698 002c 13010101 		addi	sp,sp,16
 699              		.cfi_def_cfa_offset 0
 700 0030 67800000 		jr	ra
 701              		.cfi_endproc
 702              	.LFE41:
 704              		.weak	_ZN19ConsumerProducerCPP8ProducerD1Ev
 705              		.set	_ZN19ConsumerProducerCPP8ProducerD1Ev,_ZN19ConsumerProducerCPP8ProducerD2Ev
 706              		.section	.text._ZN19ConsumerProducerCPP8ProducerD0Ev,"axG",@progbits,_ZN19ConsumerProducerCPP8Prod
 707              		.align	2
 708              		.weak	_ZN19ConsumerProducerCPP8ProducerD0Ev
 710              	_ZN19ConsumerProducerCPP8ProducerD0Ev:
 711              	.LFB43:
  45:tests/ConsumerProducer_CPP_API_test.hpp ****         thread_data *td;
 712              		.loc 3 45 11 is_stmt 1
 713              		.cfi_startproc
 714              	.LVL72:
 715 0000 130101FE 		addi	sp,sp,-32
 716              		.cfi_def_cfa_offset 32
 717 0004 233C1100 		sd	ra,24(sp)
 718 0008 23388100 		sd	s0,16(sp)
 719 000c 23349100 		sd	s1,8(sp)
 720              		.cfi_offset 1, -8
GAS LISTING /tmp/ccbTlbUb.s 			page 18


 721              		.cfi_offset 8, -16
 722              		.cfi_offset 9, -24
 723 0010 13040102 		addi	s0,sp,32
 724              		.cfi_def_cfa 8, 0
 725 0014 93040500 		mv	s1,a0
 726              	.LVL73:
 727              	.LBB49:
 728              	.LBB50:
  45:tests/ConsumerProducer_CPP_API_test.hpp ****         thread_data *td;
 729              		.loc 3 45 11 is_stmt 0
 730 0018 97070000 		lla	a5,_ZTVN19ConsumerProducerCPP8ProducerE+16
 730      93870700 
 731 0020 2330F500 		sd	a5,0(a0)
 732 0024 97000000 		call	_ZN6ThreadD2Ev@plt
 732      E7800000 
 733              	.LVL74:
 734              	.LBE50:
 735              	.LBE49:
 736 002c 13850400 		mv	a0,s1
 737 0030 97000000 		call	_ZdlPv@plt
 737      E7800000 
 738              	.LVL75:
 739 0038 83308101 		ld	ra,24(sp)
 740              		.cfi_restore 1
 741 003c 03340101 		ld	s0,16(sp)
 742              		.cfi_restore 8
 743              		.cfi_def_cfa 2, 32
 744 0040 83348100 		ld	s1,8(sp)
 745              		.cfi_restore 9
 746              	.LVL76:
 747 0044 13010102 		addi	sp,sp,32
 748              		.cfi_def_cfa_offset 0
 749 0048 67800000 		jr	ra
 750              		.cfi_endproc
 751              	.LFE43:
 753              		.section	.text._ZN19ConsumerProducerCPP16ProducerKeyborad3runEv,"axG",@progbits,_ZN19ConsumerProdu
 754              		.align	2
 755              		.weak	_ZN19ConsumerProducerCPP16ProducerKeyborad3runEv
 757              	_ZN19ConsumerProducerCPP16ProducerKeyborad3runEv:
 758              	.LFB25:
  30:tests/ConsumerProducer_CPP_API_test.hpp ****             int key;
 759              		.loc 3 30 14 is_stmt 1
 760              		.cfi_startproc
 761              	.LVL77:
 762 0000 130101FE 		addi	sp,sp,-32
 763              		.cfi_def_cfa_offset 32
 764 0004 233C1100 		sd	ra,24(sp)
 765 0008 23388100 		sd	s0,16(sp)
 766 000c 23349100 		sd	s1,8(sp)
 767              		.cfi_offset 1, -8
 768              		.cfi_offset 8, -16
 769              		.cfi_offset 9, -24
 770 0010 13040102 		addi	s0,sp,32
 771              		.cfi_def_cfa 8, 0
 772 0014 93040500 		mv	s1,a0
  31:tests/ConsumerProducer_CPP_API_test.hpp ****             int i = 0;
 773              		.loc 3 31 13
GAS LISTING /tmp/ccbTlbUb.s 			page 19


  32:tests/ConsumerProducer_CPP_API_test.hpp ****             while ((key = getc()) != 0x1b) {
 774              		.loc 3 32 13
 775              	.LVL78:
 776              	.L43:
  33:tests/ConsumerProducer_CPP_API_test.hpp ****                 td->buffer->put(key);
 777              		.loc 3 33 13
  33:tests/ConsumerProducer_CPP_API_test.hpp ****                 td->buffer->put(key);
 778              		.loc 3 33 35
  33:tests/ConsumerProducer_CPP_API_test.hpp ****                 td->buffer->put(key);
 779              		.loc 3 33 31 is_stmt 0
 780 0018 97000000 		call	_Z4getcv@plt
 780      E7800000 
 781              	.LVL79:
  33:tests/ConsumerProducer_CPP_API_test.hpp ****                 td->buffer->put(key);
 782              		.loc 3 33 25
 783 0020 9B050500 		sext.w	a1,a0
 784              	.LVL80:
  33:tests/ConsumerProducer_CPP_API_test.hpp ****                 td->buffer->put(key);
 785              		.loc 3 33 35
 786 0024 9307B001 		li	a5,27
 787 0028 638CF500 		beq	a1,a5,.L42
  34:tests/ConsumerProducer_CPP_API_test.hpp ****                 i++;
 788              		.loc 3 34 17 is_stmt 1
 789 002c 83B70401 		ld	a5,16(s1)
  34:tests/ConsumerProducer_CPP_API_test.hpp ****                 i++;
 790              		.loc 3 34 32 is_stmt 0
 791 0030 03B58700 		ld	a0,8(a5)
 792 0034 97000000 		call	_ZN9BufferCPP3putEi@plt
 792      E7800000 
 793              	.LVL81:
  35:tests/ConsumerProducer_CPP_API_test.hpp ****             }
 794              		.loc 3 35 17 is_stmt 1
  33:tests/ConsumerProducer_CPP_API_test.hpp ****                 td->buffer->put(key);
 795              		.loc 3 33 13 is_stmt 0
 796 003c 6FF0DFFD 		j	.L43
 797              	.LVL82:
 798              	.L42:
  38:tests/ConsumerProducer_CPP_API_test.hpp ****             td->buffer->put('!');
 799              		.loc 3 38 13 is_stmt 1
  38:tests/ConsumerProducer_CPP_API_test.hpp ****             td->buffer->put('!');
 800              		.loc 3 38 23 is_stmt 0
 801 0040 93071000 		li	a5,1
 802 0044 17070000 		sw	a5,.LANCHOR0+12,a4
 802      2320F700 
  39:tests/ConsumerProducer_CPP_API_test.hpp **** 
 803              		.loc 3 39 13 is_stmt 1
 804 004c 83B70401 		ld	a5,16(s1)
  39:tests/ConsumerProducer_CPP_API_test.hpp **** 
 805              		.loc 3 39 28 is_stmt 0
 806 0050 93051002 		li	a1,33
 807              	.LVL83:
 808 0054 03B58700 		ld	a0,8(a5)
 809              	.LVL84:
 810 0058 97000000 		call	_ZN9BufferCPP3putEi@plt
 810      E7800000 
 811              	.LVL85:
  41:tests/ConsumerProducer_CPP_API_test.hpp ****         }
GAS LISTING /tmp/ccbTlbUb.s 			page 20


 812              		.loc 3 41 13 is_stmt 1
 813 0060 83B70401 		ld	a5,16(s1)
  41:tests/ConsumerProducer_CPP_API_test.hpp ****         }
 814              		.loc 3 41 28 is_stmt 0
 815 0064 03B50701 		ld	a0,16(a5)
 816 0068 97000000 		call	_ZN9Semaphore6signalEv@plt
 816      E7800000 
 817              	.LVL86:
  42:tests/ConsumerProducer_CPP_API_test.hpp ****     };
 818              		.loc 3 42 9
 819 0070 83308101 		ld	ra,24(sp)
 820              		.cfi_restore 1
 821 0074 03340101 		ld	s0,16(sp)
 822              		.cfi_restore 8
 823              		.cfi_def_cfa 2, 32
 824 0078 83348100 		ld	s1,8(sp)
 825              		.cfi_restore 9
 826              	.LVL87:
 827 007c 13010102 		addi	sp,sp,32
 828              		.cfi_def_cfa_offset 0
 829 0080 67800000 		jr	ra
 830              		.cfi_endproc
 831              	.LFE25:
 833              		.section	.text._ZN19ConsumerProducerCPP8Producer3runEv,"axG",@progbits,_ZN19ConsumerProducerCPP8Pr
 834              		.align	2
 835              		.weak	_ZN19ConsumerProducerCPP8Producer3runEv
 837              	_ZN19ConsumerProducerCPP8Producer3runEv:
 838              	.LFB29:
  50:tests/ConsumerProducer_CPP_API_test.hpp ****             int i = 0;
 839              		.loc 3 50 14 is_stmt 1
 840              		.cfi_startproc
 841              	.LVL88:
 842 0000 130101FE 		addi	sp,sp,-32
 843              		.cfi_def_cfa_offset 32
 844 0004 233C1100 		sd	ra,24(sp)
 845 0008 23388100 		sd	s0,16(sp)
 846 000c 23349100 		sd	s1,8(sp)
 847 0010 23302101 		sd	s2,0(sp)
 848              		.cfi_offset 1, -8
 849              		.cfi_offset 8, -16
 850              		.cfi_offset 9, -24
 851              		.cfi_offset 18, -32
 852 0014 13040102 		addi	s0,sp,32
 853              		.cfi_def_cfa 8, 0
 854 0018 93040500 		mv	s1,a0
  51:tests/ConsumerProducer_CPP_API_test.hpp ****             while (!threadEnd) {
 855              		.loc 3 51 13
 856              	.LVL89:
  51:tests/ConsumerProducer_CPP_API_test.hpp ****             while (!threadEnd) {
 857              		.loc 3 51 17 is_stmt 0
 858 001c 13090000 		li	s2,0
 859              	.LVL90:
 860              	.L47:
  52:tests/ConsumerProducer_CPP_API_test.hpp ****                 td->buffer->put(td->id + '0');
 861              		.loc 3 52 13 is_stmt 1
  52:tests/ConsumerProducer_CPP_API_test.hpp ****                 td->buffer->put(td->id + '0');
 862              		.loc 3 52 20
GAS LISTING /tmp/ccbTlbUb.s 			page 21


 863 0020 97070000 		lw	a5,.LANCHOR0+12
 863      83A70700 
 864 0028 63920704 		bnez	a5,.L46
  53:tests/ConsumerProducer_CPP_API_test.hpp ****                 i++;
 865              		.loc 3 53 17
 866 002c 83B70401 		ld	a5,16(s1)
  53:tests/ConsumerProducer_CPP_API_test.hpp ****                 i++;
 867              		.loc 3 53 37 is_stmt 0
 868 0030 83A50700 		lw	a1,0(a5)
  53:tests/ConsumerProducer_CPP_API_test.hpp ****                 i++;
 869              		.loc 3 53 32
 870 0034 9B850503 		addiw	a1,a1,48
 871 0038 03B58700 		ld	a0,8(a5)
 872 003c 97000000 		call	_ZN9BufferCPP3putEi@plt
 872      E7800000 
 873              	.LVL91:
  54:tests/ConsumerProducer_CPP_API_test.hpp ****                 Thread::sleep((i+td->id)%5);
 874              		.loc 3 54 17 is_stmt 1
  54:tests/ConsumerProducer_CPP_API_test.hpp ****                 Thread::sleep((i+td->id)%5);
 875              		.loc 3 54 18 is_stmt 0
 876 0044 1B071900 		addiw	a4,s2,1
 877 0048 1B090700 		sext.w	s2,a4
 878              	.LVL92:
  55:tests/ConsumerProducer_CPP_API_test.hpp ****             }
 879              		.loc 3 55 17 is_stmt 1
  55:tests/ConsumerProducer_CPP_API_test.hpp ****             }
 880              		.loc 3 55 34 is_stmt 0
 881 004c 83B70401 		ld	a5,16(s1)
  55:tests/ConsumerProducer_CPP_API_test.hpp ****             }
 882              		.loc 3 55 38
 883 0050 83A70700 		lw	a5,0(a5)
  55:tests/ConsumerProducer_CPP_API_test.hpp ****             }
 884              		.loc 3 55 33
 885 0054 BB87E700 		addw	a5,a5,a4
  55:tests/ConsumerProducer_CPP_API_test.hpp ****             }
 886              		.loc 3 55 30
 887 0058 13055000 		li	a0,5
 888 005c 3BE5A702 		remw	a0,a5,a0
 889 0060 97000000 		call	_ZN6Thread5sleepEm@plt
 889      E7800000 
 890              	.LVL93:
  52:tests/ConsumerProducer_CPP_API_test.hpp ****                 td->buffer->put(td->id + '0');
 891              		.loc 3 52 13
 892 0068 6FF09FFB 		j	.L47
 893              	.L46:
  58:tests/ConsumerProducer_CPP_API_test.hpp ****         }
 894              		.loc 3 58 13 is_stmt 1
 895 006c 83B70401 		ld	a5,16(s1)
  58:tests/ConsumerProducer_CPP_API_test.hpp ****         }
 896              		.loc 3 58 28 is_stmt 0
 897 0070 03B50701 		ld	a0,16(a5)
 898 0074 97000000 		call	_ZN9Semaphore6signalEv@plt
 898      E7800000 
 899              	.LVL94:
  59:tests/ConsumerProducer_CPP_API_test.hpp ****     };
 900              		.loc 3 59 9
 901 007c 83308101 		ld	ra,24(sp)
GAS LISTING /tmp/ccbTlbUb.s 			page 22


 902              		.cfi_restore 1
 903 0080 03340101 		ld	s0,16(sp)
 904              		.cfi_restore 8
 905              		.cfi_def_cfa 2, 32
 906 0084 83348100 		ld	s1,8(sp)
 907              		.cfi_restore 9
 908              	.LVL95:
 909 0088 03390100 		ld	s2,0(sp)
 910              		.cfi_restore 18
 911              	.LVL96:
 912 008c 13010102 		addi	sp,sp,32
 913              		.cfi_def_cfa_offset 0
 914 0090 67800000 		jr	ra
 915              		.cfi_endproc
 916              	.LFE29:
 918              		.text
 919              		.align	2
 920              		.globl	_Z9fibonaccim
 922              	_Z9fibonaccim:
 923              	.LFB12:
  13:tests/Threads_C_API_test.hpp ****     if (n == 0 || n == 1) { return n; }
 924              		.loc 1 13 28 is_stmt 1
 925              		.cfi_startproc
 926              	.LVL97:
 927 0244 130101FE 		addi	sp,sp,-32
 928              		.cfi_def_cfa_offset 32
 929 0248 233C1100 		sd	ra,24(sp)
 930 024c 23388100 		sd	s0,16(sp)
 931 0250 23349100 		sd	s1,8(sp)
 932 0254 23302101 		sd	s2,0(sp)
 933              		.cfi_offset 1, -8
 934              		.cfi_offset 8, -16
 935              		.cfi_offset 9, -24
 936              		.cfi_offset 18, -32
 937 0258 13040102 		addi	s0,sp,32
 938              		.cfi_def_cfa 8, 0
 939 025c 93040500 		mv	s1,a0
  14:tests/Threads_C_API_test.hpp ****     if (n % 10 == 0) { thread_dispatch(); }
 940              		.loc 1 14 5
 941 0260 93071000 		li	a5,1
 942 0264 63F8A702 		bleu	a0,a5,.L49
  15:tests/Threads_C_API_test.hpp ****     return fibonacci(n - 1) + fibonacci(n - 2);
 943              		.loc 1 15 5
  15:tests/Threads_C_API_test.hpp ****     return fibonacci(n - 1) + fibonacci(n - 2);
 944              		.loc 1 15 11 is_stmt 0
 945 0268 9307A000 		li	a5,10
 946 026c B377F502 		remu	a5,a0,a5
  15:tests/Threads_C_API_test.hpp ****     return fibonacci(n - 1) + fibonacci(n - 2);
 947              		.loc 1 15 5
 948 0270 638E0702 		beqz	a5,.L54
 949              	.LVL98:
 950              	.L51:
  16:tests/Threads_C_API_test.hpp **** }
 951              		.loc 1 16 5 is_stmt 1
  16:tests/Threads_C_API_test.hpp **** }
 952              		.loc 1 16 21 is_stmt 0
 953 0274 1385F4FF 		addi	a0,s1,-1
GAS LISTING /tmp/ccbTlbUb.s 			page 23


 954 0278 97000000 		call	_Z9fibonaccim
 954      E7800000 
 955              	.LVL99:
 956 0280 13090500 		mv	s2,a0
  16:tests/Threads_C_API_test.hpp **** }
 957              		.loc 1 16 40
 958 0284 1385E4FF 		addi	a0,s1,-2
 959 0288 97000000 		call	_Z9fibonaccim
 959      E7800000 
 960              	.LVL100:
  16:tests/Threads_C_API_test.hpp **** }
 961              		.loc 1 16 46
 962 0290 3305A900 		add	a0,s2,a0
 963              	.L49:
  17:tests/Threads_C_API_test.hpp **** 
 964              		.loc 1 17 1
 965 0294 83308101 		ld	ra,24(sp)
 966              		.cfi_remember_state
 967              		.cfi_restore 1
 968 0298 03340101 		ld	s0,16(sp)
 969              		.cfi_restore 8
 970              		.cfi_def_cfa 2, 32
 971 029c 83348100 		ld	s1,8(sp)
 972              		.cfi_restore 9
 973              	.LVL101:
 974 02a0 03390100 		ld	s2,0(sp)
 975              		.cfi_restore 18
 976 02a4 13010102 		addi	sp,sp,32
 977              		.cfi_def_cfa_offset 0
 978 02a8 67800000 		jr	ra
 979              	.LVL102:
 980              	.L54:
 981              		.cfi_restore_state
  15:tests/Threads_C_API_test.hpp ****     return fibonacci(n - 1) + fibonacci(n - 2);
 982              		.loc 1 15 24 is_stmt 1 discriminator 1
  15:tests/Threads_C_API_test.hpp ****     return fibonacci(n - 1) + fibonacci(n - 2);
 983              		.loc 1 15 39 is_stmt 0 discriminator 1
 984 02ac 97000000 		call	_Z15thread_dispatchv@plt
 984      E7800000 
 985              	.LVL103:
 986 02b4 6FF01FFC 		j	.L51
 987              		.cfi_endproc
 988              	.LFE12:
 990              		.section	.rodata.str1.8
 991 0044 00000000 		.align	3
 992              	.LC7:
 993 0048 433A2069 		.string	"C: i="
 993      3D00
 994 004e 0000     		.align	3
 995              	.LC8:
 996 0050 433A2064 		.string	"C: dispatch\n"
 996      69737061 
 996      7463680A 
 996      00
 997 005d 000000   		.align	3
 998              	.LC9:
 999 0060 433A2074 		.string	"C: t1="
GAS LISTING /tmp/ccbTlbUb.s 			page 24


 999      313D00
 1000 0067 00       		.align	3
 1001              	.LC10:
 1002 0068 433A2066 		.string	"C: fibonaci="
 1002      69626F6E 
 1002      6163693D 
 1002      00
 1003              		.text
 1004              		.align	2
 1005              		.globl	_Z11workerBodyCPv
 1007              	_Z11workerBodyCPv:
 1008              	.LFB15:
  43:tests/Threads_C_API_test.hpp **** 
  44:tests/Threads_C_API_test.hpp **** void workerBodyC(void* arg) {
 1009              		.loc 1 44 29 is_stmt 1
 1010              		.cfi_startproc
 1011              	.LVL104:
 1012 02b8 130101FE 		addi	sp,sp,-32
 1013              		.cfi_def_cfa_offset 32
 1014 02bc 233C1100 		sd	ra,24(sp)
 1015 02c0 23388100 		sd	s0,16(sp)
 1016 02c4 23349100 		sd	s1,8(sp)
 1017 02c8 23302101 		sd	s2,0(sp)
 1018              		.cfi_offset 1, -8
 1019              		.cfi_offset 8, -16
 1020              		.cfi_offset 9, -24
 1021              		.cfi_offset 18, -32
 1022 02cc 13040102 		addi	s0,sp,32
 1023              		.cfi_def_cfa 8, 0
  45:tests/Threads_C_API_test.hpp ****     uint8 i = 0;
 1024              		.loc 1 45 5
 1025              	.LVL105:
 1026              		.loc 1 45 11 is_stmt 0
 1027 02d0 93040000 		li	s1,0
 1028 02d4 6F000004 		j	.L57
 1029              	.LVL106:
 1030              	.L61:
  46:tests/Threads_C_API_test.hpp ****     for (; i < 3; i++) {
  47:tests/Threads_C_API_test.hpp ****         printString("C: i="); printInt(i); printString("\n");
 1031              		.loc 1 47 9 is_stmt 1 discriminator 1
 1032              		.loc 1 47 20 is_stmt 0 discriminator 1
 1033 02d8 17050000 		lla	a0,.LC7
 1033      13050500 
 1034 02e0 97000000 		call	_Z11printStringPKc@plt
 1034      E7800000 
 1035              	.LVL107:
 1036              		.loc 1 47 31 is_stmt 1 discriminator 1
 1037              		.loc 1 47 39 is_stmt 0 discriminator 1
 1038 02e8 13060000 		li	a2,0
 1039 02ec 9305A000 		li	a1,10
 1040 02f0 13850400 		mv	a0,s1
 1041 02f4 97000000 		call	_Z8printIntiii@plt
 1041      E7800000 
 1042              	.LVL108:
 1043              		.loc 1 47 44 is_stmt 1 discriminator 1
 1044              		.loc 1 47 55 is_stmt 0 discriminator 1
 1045 02fc 17050000 		lla	a0,.LC1
GAS LISTING /tmp/ccbTlbUb.s 			page 25


 1045      13050500 
 1046 0304 97000000 		call	_Z11printStringPKc@plt
 1046      E7800000 
 1047              	.LVL109:
  46:tests/Threads_C_API_test.hpp ****     for (; i < 3; i++) {
 1048              		.loc 1 46 5 is_stmt 1 discriminator 1
 1049 030c 9B841400 		addiw	s1,s1,1
 1050              	.LVL110:
 1051 0310 93F4F40F 		andi	s1,s1,0xff
 1052              	.LVL111:
 1053              	.L57:
  46:tests/Threads_C_API_test.hpp ****     for (; i < 3; i++) {
 1054              		.loc 1 46 5 discriminator 2
  46:tests/Threads_C_API_test.hpp ****     for (; i < 3; i++) {
 1055              		.loc 1 46 14 discriminator 2
 1056 0314 93072000 		li	a5,2
 1057 0318 E3F097FC 		bleu	s1,a5,.L61
  48:tests/Threads_C_API_test.hpp ****     }
  49:tests/Threads_C_API_test.hpp **** 
  50:tests/Threads_C_API_test.hpp ****     printString("C: dispatch\n");
 1058              		.loc 1 50 5
 1059              		.loc 1 50 16 is_stmt 0
 1060 031c 17050000 		lla	a0,.LC8
 1060      13050500 
 1061 0324 97000000 		call	_Z11printStringPKc@plt
 1061      E7800000 
 1062              	.LVL112:
  51:tests/Threads_C_API_test.hpp ****     __asm__ ("li t1, 7");
 1063              		.loc 1 51 5 is_stmt 1
 1064              		.loc 1 51 25 is_stmt 0
 1065              	#APP
 1066              	# 51 "tests/Threads_C_API_test.hpp" 1
  52              	    thread_dispatch();
 1067              		li t1, 7
 1068              	# 0 "" 2
 1069              		.loc 1 52 5 is_stmt 1
 1070              		.loc 1 52 20 is_stmt 0
 1071              	#NO_APP
 1072 0330 97000000 		call	_Z15thread_dispatchv@plt
 1072      E7800000 
 1073              	.LVL113:
  53:tests/Threads_C_API_test.hpp **** 
  54:tests/Threads_C_API_test.hpp ****     uint64 t1 = 0;
 1074              		.loc 1 54 5 is_stmt 1
  55:tests/Threads_C_API_test.hpp ****     __asm__ ("mv %[t1], t1" : [t1] "=r"(t1));
 1075              		.loc 1 55 5
 1076              		.loc 1 55 45 is_stmt 0
 1077              	#APP
 1078              	# 55 "tests/Threads_C_API_test.hpp" 1
  56              	
 1079              		mv s2, t1
 1080              	# 0 "" 2
 1081              	.LVL114:
  57:tests/Threads_C_API_test.hpp ****     printString("C: t1="); printInt(t1); printString("\n");
 1082              		.loc 1 57 5 is_stmt 1
 1083              		.loc 1 57 16 is_stmt 0
 1084              	#NO_APP
GAS LISTING /tmp/ccbTlbUb.s 			page 26


 1085 033c 17050000 		lla	a0,.LC9
 1085      13050500 
 1086 0344 97000000 		call	_Z11printStringPKc@plt
 1086      E7800000 
 1087              	.LVL115:
 1088              		.loc 1 57 28 is_stmt 1
 1089              		.loc 1 57 36 is_stmt 0
 1090 034c 13060000 		li	a2,0
 1091 0350 9305A000 		li	a1,10
 1092 0354 1B050900 		sext.w	a0,s2
 1093 0358 97000000 		call	_Z8printIntiii@plt
 1093      E7800000 
 1094              	.LVL116:
 1095              		.loc 1 57 42 is_stmt 1
 1096              		.loc 1 57 53 is_stmt 0
 1097 0360 17050000 		lla	a0,.LC1
 1097      13050500 
 1098 0368 97000000 		call	_Z11printStringPKc@plt
 1098      E7800000 
 1099              	.LVL117:
  58:tests/Threads_C_API_test.hpp **** 
  59:tests/Threads_C_API_test.hpp ****     uint64 result = fibonacci(12);
 1100              		.loc 1 59 5 is_stmt 1
 1101              		.loc 1 59 30 is_stmt 0
 1102 0370 1305C000 		li	a0,12
 1103 0374 97000000 		call	_Z9fibonaccim
 1103      E7800000 
 1104              	.LVL118:
 1105 037c 13090500 		mv	s2,a0
 1106              	.LVL119:
  60:tests/Threads_C_API_test.hpp ****     printString("C: fibonaci="); printInt(result); printString("\n");
 1107              		.loc 1 60 5 is_stmt 1
 1108              		.loc 1 60 16 is_stmt 0
 1109 0380 17050000 		lla	a0,.LC10
 1109      13050500 
 1110              	.LVL120:
 1111 0388 97000000 		call	_Z11printStringPKc@plt
 1111      E7800000 
 1112              	.LVL121:
 1113              		.loc 1 60 34 is_stmt 1
 1114              		.loc 1 60 42 is_stmt 0
 1115 0390 13060000 		li	a2,0
 1116 0394 9305A000 		li	a1,10
 1117 0398 1B050900 		sext.w	a0,s2
 1118 039c 97000000 		call	_Z8printIntiii@plt
 1118      E7800000 
 1119              	.LVL122:
 1120              		.loc 1 60 52 is_stmt 1
 1121              		.loc 1 60 63 is_stmt 0
 1122 03a4 17050000 		lla	a0,.LC1
 1122      13050500 
 1123 03ac 97000000 		call	_Z11printStringPKc@plt
 1123      E7800000 
 1124              	.LVL123:
 1125 03b4 6F000004 		j	.L59
 1126              	.L62:
  61:tests/Threads_C_API_test.hpp **** 
GAS LISTING /tmp/ccbTlbUb.s 			page 27


  62:tests/Threads_C_API_test.hpp ****     for (; i < 6; i++) {
  63:tests/Threads_C_API_test.hpp ****         printString("C: i="); printInt(i); printString("\n");
 1127              		.loc 1 63 9 is_stmt 1 discriminator 1
 1128              		.loc 1 63 20 is_stmt 0 discriminator 1
 1129 03b8 17050000 		lla	a0,.LC7
 1129      13050500 
 1130 03c0 97000000 		call	_Z11printStringPKc@plt
 1130      E7800000 
 1131              	.LVL124:
 1132              		.loc 1 63 31 is_stmt 1 discriminator 1
 1133              		.loc 1 63 39 is_stmt 0 discriminator 1
 1134 03c8 13060000 		li	a2,0
 1135 03cc 9305A000 		li	a1,10
 1136 03d0 13850400 		mv	a0,s1
 1137 03d4 97000000 		call	_Z8printIntiii@plt
 1137      E7800000 
 1138              	.LVL125:
 1139              		.loc 1 63 44 is_stmt 1 discriminator 1
 1140              		.loc 1 63 55 is_stmt 0 discriminator 1
 1141 03dc 17050000 		lla	a0,.LC1
 1141      13050500 
 1142 03e4 97000000 		call	_Z11printStringPKc@plt
 1142      E7800000 
 1143              	.LVL126:
  62:tests/Threads_C_API_test.hpp ****         printString("C: i="); printInt(i); printString("\n");
 1144              		.loc 1 62 5 is_stmt 1 discriminator 1
 1145 03ec 9B841400 		addiw	s1,s1,1
 1146              	.LVL127:
 1147 03f0 93F4F40F 		andi	s1,s1,0xff
 1148              	.LVL128:
 1149              	.L59:
  62:tests/Threads_C_API_test.hpp ****         printString("C: i="); printInt(i); printString("\n");
 1150              		.loc 1 62 5 discriminator 2
  62:tests/Threads_C_API_test.hpp ****         printString("C: i="); printInt(i); printString("\n");
 1151              		.loc 1 62 14 discriminator 2
 1152 03f4 93075000 		li	a5,5
 1153 03f8 E3F097FC 		bleu	s1,a5,.L62
  64:tests/Threads_C_API_test.hpp ****     }
  65:tests/Threads_C_API_test.hpp **** 
  66:tests/Threads_C_API_test.hpp ****     printString("A finished!\n");
 1154              		.loc 1 66 5
 1155              		.loc 1 66 16 is_stmt 0
 1156 03fc 17050000 		lla	a0,.LC2
 1156      13050500 
 1157 0404 97000000 		call	_Z11printStringPKc@plt
 1157      E7800000 
 1158              	.LVL129:
  67:tests/Threads_C_API_test.hpp ****     finishedC = true;
 1159              		.loc 1 67 5 is_stmt 1
 1160              		.loc 1 67 15 is_stmt 0
 1161 040c 93071000 		li	a5,1
 1162 0410 17070000 		sb	a5,.LANCHOR0+16,a4
 1162      2300F700 
  68:tests/Threads_C_API_test.hpp ****     thread_dispatch();
 1163              		.loc 1 68 5 is_stmt 1
 1164              		.loc 1 68 20 is_stmt 0
 1165 0418 97000000 		call	_Z15thread_dispatchv@plt
GAS LISTING /tmp/ccbTlbUb.s 			page 28


 1165      E7800000 
 1166              	.LVL130:
  69:tests/Threads_C_API_test.hpp **** }
 1167              		.loc 1 69 1
 1168 0420 83308101 		ld	ra,24(sp)
 1169              		.cfi_restore 1
 1170 0424 03340101 		ld	s0,16(sp)
 1171              		.cfi_restore 8
 1172              		.cfi_def_cfa 2, 32
 1173 0428 83348100 		ld	s1,8(sp)
 1174              		.cfi_restore 9
 1175              	.LVL131:
 1176 042c 03390100 		ld	s2,0(sp)
 1177              		.cfi_restore 18
 1178              	.LVL132:
 1179 0430 13010102 		addi	sp,sp,32
 1180              		.cfi_def_cfa_offset 0
 1181 0434 67800000 		jr	ra
 1182              		.cfi_endproc
 1183              	.LFE15:
 1185              		.section	.rodata.str1.8
 1186 0075 000000   		.align	3
 1187              	.LC11:
 1188 0078 443A2069 		.string	"D: i="
 1188      3D00
 1189 007e 0000     		.align	3
 1190              	.LC12:
 1191 0080 443A2064 		.string	"D: dispatch\n"
 1191      69737061 
 1191      7463680A 
 1191      00
 1192 008d 000000   		.align	3
 1193              	.LC13:
 1194 0090 443A2066 		.string	"D: fibonaci="
 1194      69626F6E 
 1194      6163693D 
 1194      00
 1195 009d 000000   		.align	3
 1196              	.LC14:
 1197 00a0 44206669 		.string	"D finished!\n"
 1197      6E697368 
 1197      6564210A 
 1197      00
 1198              		.text
 1199              		.align	2
 1200              		.globl	_Z11workerBodyDPv
 1202              	_Z11workerBodyDPv:
 1203              	.LFB16:
  70:tests/Threads_C_API_test.hpp **** 
  71:tests/Threads_C_API_test.hpp **** void workerBodyD(void* arg) {
 1204              		.loc 1 71 29 is_stmt 1
 1205              		.cfi_startproc
 1206              	.LVL133:
 1207 0438 130101FE 		addi	sp,sp,-32
 1208              		.cfi_def_cfa_offset 32
 1209 043c 233C1100 		sd	ra,24(sp)
 1210 0440 23388100 		sd	s0,16(sp)
GAS LISTING /tmp/ccbTlbUb.s 			page 29


 1211 0444 23349100 		sd	s1,8(sp)
 1212 0448 23302101 		sd	s2,0(sp)
 1213              		.cfi_offset 1, -8
 1214              		.cfi_offset 8, -16
 1215              		.cfi_offset 9, -24
 1216              		.cfi_offset 18, -32
 1217 044c 13040102 		addi	s0,sp,32
 1218              		.cfi_def_cfa 8, 0
  72:tests/Threads_C_API_test.hpp ****     uint8 i = 10;
 1219              		.loc 1 72 5
 1220              	.LVL134:
 1221              		.loc 1 72 11 is_stmt 0
 1222 0450 9304A000 		li	s1,10
 1223 0454 6F000004 		j	.L65
 1224              	.LVL135:
 1225              	.L69:
  73:tests/Threads_C_API_test.hpp ****     for (; i < 13; i++) {
  74:tests/Threads_C_API_test.hpp ****         printString("D: i="); printInt(i); printString("\n");
 1226              		.loc 1 74 9 is_stmt 1 discriminator 1
 1227              		.loc 1 74 20 is_stmt 0 discriminator 1
 1228 0458 17050000 		lla	a0,.LC11
 1228      13050500 
 1229 0460 97000000 		call	_Z11printStringPKc@plt
 1229      E7800000 
 1230              	.LVL136:
 1231              		.loc 1 74 31 is_stmt 1 discriminator 1
 1232              		.loc 1 74 39 is_stmt 0 discriminator 1
 1233 0468 13060000 		li	a2,0
 1234 046c 9305A000 		li	a1,10
 1235 0470 13850400 		mv	a0,s1
 1236 0474 97000000 		call	_Z8printIntiii@plt
 1236      E7800000 
 1237              	.LVL137:
 1238              		.loc 1 74 44 is_stmt 1 discriminator 1
 1239              		.loc 1 74 55 is_stmt 0 discriminator 1
 1240 047c 17050000 		lla	a0,.LC1
 1240      13050500 
 1241 0484 97000000 		call	_Z11printStringPKc@plt
 1241      E7800000 
 1242              	.LVL138:
  73:tests/Threads_C_API_test.hpp ****     for (; i < 13; i++) {
 1243              		.loc 1 73 5 is_stmt 1 discriminator 1
 1244 048c 9B841400 		addiw	s1,s1,1
 1245              	.LVL139:
 1246 0490 93F4F40F 		andi	s1,s1,0xff
 1247              	.LVL140:
 1248              	.L65:
  73:tests/Threads_C_API_test.hpp ****     for (; i < 13; i++) {
 1249              		.loc 1 73 5 discriminator 2
  73:tests/Threads_C_API_test.hpp ****     for (; i < 13; i++) {
 1250              		.loc 1 73 14 discriminator 2
 1251 0494 9307C000 		li	a5,12
 1252 0498 E3F097FC 		bleu	s1,a5,.L69
  75:tests/Threads_C_API_test.hpp ****     }
  76:tests/Threads_C_API_test.hpp **** 
  77:tests/Threads_C_API_test.hpp ****     printString("D: dispatch\n");
 1253              		.loc 1 77 5
GAS LISTING /tmp/ccbTlbUb.s 			page 30


 1254              		.loc 1 77 16 is_stmt 0
 1255 049c 17050000 		lla	a0,.LC12
 1255      13050500 
 1256 04a4 97000000 		call	_Z11printStringPKc@plt
 1256      E7800000 
 1257              	.LVL141:
  78:tests/Threads_C_API_test.hpp ****     __asm__ ("li t1, 5");
 1258              		.loc 1 78 5 is_stmt 1
 1259              		.loc 1 78 25 is_stmt 0
 1260              	#APP
 1261              	# 78 "tests/Threads_C_API_test.hpp" 1
  79              	    thread_dispatch();
 1262              		li t1, 5
 1263              	# 0 "" 2
 1264              		.loc 1 79 5 is_stmt 1
 1265              		.loc 1 79 20 is_stmt 0
 1266              	#NO_APP
 1267 04b0 97000000 		call	_Z15thread_dispatchv@plt
 1267      E7800000 
 1268              	.LVL142:
  80:tests/Threads_C_API_test.hpp **** 
  81:tests/Threads_C_API_test.hpp ****     uint64 result = fibonacci(16);
 1269              		.loc 1 81 5 is_stmt 1
 1270              		.loc 1 81 30 is_stmt 0
 1271 04b8 13050001 		li	a0,16
 1272 04bc 97000000 		call	_Z9fibonaccim
 1272      E7800000 
 1273              	.LVL143:
 1274 04c4 13090500 		mv	s2,a0
 1275              	.LVL144:
  82:tests/Threads_C_API_test.hpp ****     printString("D: fibonaci="); printInt(result); printString("\n");
 1276              		.loc 1 82 5 is_stmt 1
 1277              		.loc 1 82 16 is_stmt 0
 1278 04c8 17050000 		lla	a0,.LC13
 1278      13050500 
 1279              	.LVL145:
 1280 04d0 97000000 		call	_Z11printStringPKc@plt
 1280      E7800000 
 1281              	.LVL146:
 1282              		.loc 1 82 34 is_stmt 1
 1283              		.loc 1 82 42 is_stmt 0
 1284 04d8 13060000 		li	a2,0
 1285 04dc 9305A000 		li	a1,10
 1286 04e0 1B050900 		sext.w	a0,s2
 1287 04e4 97000000 		call	_Z8printIntiii@plt
 1287      E7800000 
 1288              	.LVL147:
 1289              		.loc 1 82 52 is_stmt 1
 1290              		.loc 1 82 63 is_stmt 0
 1291 04ec 17050000 		lla	a0,.LC1
 1291      13050500 
 1292 04f4 97000000 		call	_Z11printStringPKc@plt
 1292      E7800000 
 1293              	.LVL148:
 1294 04fc 6F000004 		j	.L67
 1295              	.L70:
  83:tests/Threads_C_API_test.hpp **** 
GAS LISTING /tmp/ccbTlbUb.s 			page 31


  84:tests/Threads_C_API_test.hpp ****     for (; i < 16; i++) {
  85:tests/Threads_C_API_test.hpp ****         printString("D: i="); printInt(i); printString("\n");
 1296              		.loc 1 85 9 is_stmt 1 discriminator 1
 1297              		.loc 1 85 20 is_stmt 0 discriminator 1
 1298 0500 17050000 		lla	a0,.LC11
 1298      13050500 
 1299 0508 97000000 		call	_Z11printStringPKc@plt
 1299      E7800000 
 1300              	.LVL149:
 1301              		.loc 1 85 31 is_stmt 1 discriminator 1
 1302              		.loc 1 85 39 is_stmt 0 discriminator 1
 1303 0510 13060000 		li	a2,0
 1304 0514 9305A000 		li	a1,10
 1305 0518 13850400 		mv	a0,s1
 1306 051c 97000000 		call	_Z8printIntiii@plt
 1306      E7800000 
 1307              	.LVL150:
 1308              		.loc 1 85 44 is_stmt 1 discriminator 1
 1309              		.loc 1 85 55 is_stmt 0 discriminator 1
 1310 0524 17050000 		lla	a0,.LC1
 1310      13050500 
 1311 052c 97000000 		call	_Z11printStringPKc@plt
 1311      E7800000 
 1312              	.LVL151:
  84:tests/Threads_C_API_test.hpp ****         printString("D: i="); printInt(i); printString("\n");
 1313              		.loc 1 84 5 is_stmt 1 discriminator 1
 1314 0534 9B841400 		addiw	s1,s1,1
 1315              	.LVL152:
 1316 0538 93F4F40F 		andi	s1,s1,0xff
 1317              	.LVL153:
 1318              	.L67:
  84:tests/Threads_C_API_test.hpp ****         printString("D: i="); printInt(i); printString("\n");
 1319              		.loc 1 84 5 discriminator 2
  84:tests/Threads_C_API_test.hpp ****         printString("D: i="); printInt(i); printString("\n");
 1320              		.loc 1 84 14 discriminator 2
 1321 053c 9307F000 		li	a5,15
 1322 0540 E3F097FC 		bleu	s1,a5,.L70
  86:tests/Threads_C_API_test.hpp ****     }
  87:tests/Threads_C_API_test.hpp **** 
  88:tests/Threads_C_API_test.hpp ****     printString("D finished!\n");
 1323              		.loc 1 88 5
 1324              		.loc 1 88 16 is_stmt 0
 1325 0544 17050000 		lla	a0,.LC14
 1325      13050500 
 1326 054c 97000000 		call	_Z11printStringPKc@plt
 1326      E7800000 
 1327              	.LVL154:
  89:tests/Threads_C_API_test.hpp ****     finishedD = true;
 1328              		.loc 1 89 5 is_stmt 1
 1329              		.loc 1 89 15 is_stmt 0
 1330 0554 93071000 		li	a5,1
 1331 0558 17070000 		sb	a5,.LANCHOR0+17,a4
 1331      2300F700 
  90:tests/Threads_C_API_test.hpp ****     thread_dispatch();
 1332              		.loc 1 90 5 is_stmt 1
 1333              		.loc 1 90 20 is_stmt 0
 1334 0560 97000000 		call	_Z15thread_dispatchv@plt
GAS LISTING /tmp/ccbTlbUb.s 			page 32


 1334      E7800000 
 1335              	.LVL155:
  91:tests/Threads_C_API_test.hpp **** }
 1336              		.loc 1 91 1
 1337 0568 83308101 		ld	ra,24(sp)
 1338              		.cfi_restore 1
 1339 056c 03340101 		ld	s0,16(sp)
 1340              		.cfi_restore 8
 1341              		.cfi_def_cfa 2, 32
 1342 0570 83348100 		ld	s1,8(sp)
 1343              		.cfi_restore 9
 1344              	.LVL156:
 1345 0574 03390100 		ld	s2,0(sp)
 1346              		.cfi_restore 18
 1347              	.LVL157:
 1348 0578 13010102 		addi	sp,sp,32
 1349              		.cfi_def_cfa_offset 0
 1350 057c 67800000 		jr	ra
 1351              		.cfi_endproc
 1352              	.LFE16:
 1354              		.section	.rodata.str1.8
 1355 00ad 000000   		.align	3
 1356              	.LC15:
 1357 00b0 54687265 		.string	"ThreadA created\n"
 1357      61644120 
 1357      63726561 
 1357      7465640A 
 1357      00
 1358 00c1 00000000 		.align	3
 1358      000000
 1359              	.LC16:
 1360 00c8 54687265 		.string	"ThreadB created\n"
 1360      61644220 
 1360      63726561 
 1360      7465640A 
 1360      00
 1361 00d9 00000000 		.align	3
 1361      000000
 1362              	.LC17:
 1363 00e0 54687265 		.string	"ThreadC created\n"
 1363      61644320 
 1363      63726561 
 1363      7465640A 
 1363      00
 1364 00f1 00000000 		.align	3
 1364      000000
 1365              	.LC18:
 1366 00f8 54687265 		.string	"ThreadD created\n"
 1366      61644420 
 1366      63726561 
 1366      7465640A 
 1366      00
 1367              		.text
 1368              		.align	2
 1369              		.globl	_Z18Threads_C_API_testv
 1371              	_Z18Threads_C_API_testv:
 1372              	.LFB17:
GAS LISTING /tmp/ccbTlbUb.s 			page 33


  92:tests/Threads_C_API_test.hpp **** 
  93:tests/Threads_C_API_test.hpp **** 
  94:tests/Threads_C_API_test.hpp **** void Threads_C_API_test() {
 1373              		.loc 1 94 27 is_stmt 1
 1374              		.cfi_startproc
 1375 0580 130101FC 		addi	sp,sp,-64
 1376              		.cfi_def_cfa_offset 64
 1377 0584 233C1102 		sd	ra,56(sp)
 1378 0588 23388102 		sd	s0,48(sp)
 1379 058c 23349102 		sd	s1,40(sp)
 1380              		.cfi_offset 1, -8
 1381              		.cfi_offset 8, -16
 1382              		.cfi_offset 9, -24
 1383 0590 13040104 		addi	s0,sp,64
 1384              		.cfi_def_cfa 8, 0
  95:tests/Threads_C_API_test.hpp ****     thread_t threads[4];
 1385              		.loc 1 95 5
  96:tests/Threads_C_API_test.hpp ****     thread_create(&threads[0], workerBodyA, nullptr);
 1386              		.loc 1 96 5
 1387              		.loc 1 96 18 is_stmt 0
 1388 0594 13060000 		li	a2,0
 1389 0598 97050000 		lla	a1,_Z11workerBodyAPv
 1389      93850500 
 1390 05a0 130504FC 		addi	a0,s0,-64
 1391 05a4 97000000 		call	_Z13thread_createPP7_threadPFvPvES2_@plt
 1391      E7800000 
 1392              	.LVL158:
  97:tests/Threads_C_API_test.hpp ****     printString("ThreadA created\n");
 1393              		.loc 1 97 5 is_stmt 1
 1394              		.loc 1 97 16 is_stmt 0
 1395 05ac 17050000 		lla	a0,.LC15
 1395      13050500 
 1396 05b4 97000000 		call	_Z11printStringPKc@plt
 1396      E7800000 
 1397              	.LVL159:
  98:tests/Threads_C_API_test.hpp **** 
  99:tests/Threads_C_API_test.hpp ****     thread_create(&threads[1], workerBodyB, nullptr);
 1398              		.loc 1 99 5 is_stmt 1
 1399              		.loc 1 99 18 is_stmt 0
 1400 05bc 13060000 		li	a2,0
 1401 05c0 97050000 		lla	a1,_Z11workerBodyBPv
 1401      93850500 
 1402 05c8 130584FC 		addi	a0,s0,-56
 1403 05cc 97000000 		call	_Z13thread_createPP7_threadPFvPvES2_@plt
 1403      E7800000 
 1404              	.LVL160:
 100:tests/Threads_C_API_test.hpp ****     printString("ThreadB created\n");
 1405              		.loc 1 100 5 is_stmt 1
 1406              		.loc 1 100 16 is_stmt 0
 1407 05d4 17050000 		lla	a0,.LC16
 1407      13050500 
 1408 05dc 97000000 		call	_Z11printStringPKc@plt
 1408      E7800000 
 1409              	.LVL161:
 101:tests/Threads_C_API_test.hpp **** 
 102:tests/Threads_C_API_test.hpp ****     thread_create(&threads[2], workerBodyC, nullptr);
 1410              		.loc 1 102 5 is_stmt 1
GAS LISTING /tmp/ccbTlbUb.s 			page 34


 1411              		.loc 1 102 18 is_stmt 0
 1412 05e4 13060000 		li	a2,0
 1413 05e8 97050000 		lla	a1,_Z11workerBodyCPv
 1413      93850500 
 1414 05f0 130504FD 		addi	a0,s0,-48
 1415 05f4 97000000 		call	_Z13thread_createPP7_threadPFvPvES2_@plt
 1415      E7800000 
 1416              	.LVL162:
 103:tests/Threads_C_API_test.hpp ****     printString("ThreadC created\n");
 1417              		.loc 1 103 5 is_stmt 1
 1418              		.loc 1 103 16 is_stmt 0
 1419 05fc 17050000 		lla	a0,.LC17
 1419      13050500 
 1420 0604 97000000 		call	_Z11printStringPKc@plt
 1420      E7800000 
 1421              	.LVL163:
 104:tests/Threads_C_API_test.hpp **** 
 105:tests/Threads_C_API_test.hpp ****     thread_create(&threads[3], workerBodyD, nullptr);
 1422              		.loc 1 105 5 is_stmt 1
 1423              		.loc 1 105 18 is_stmt 0
 1424 060c 13060000 		li	a2,0
 1425 0610 97050000 		lla	a1,_Z11workerBodyDPv
 1425      93850500 
 1426 0618 130584FD 		addi	a0,s0,-40
 1427 061c 97000000 		call	_Z13thread_createPP7_threadPFvPvES2_@plt
 1427      E7800000 
 1428              	.LVL164:
 106:tests/Threads_C_API_test.hpp ****     printString("ThreadD created\n");
 1429              		.loc 1 106 5 is_stmt 1
 1430              		.loc 1 106 16 is_stmt 0
 1431 0624 17050000 		lla	a0,.LC18
 1431      13050500 
 1432 062c 97000000 		call	_Z11printStringPKc@plt
 1432      E7800000 
 1433              	.LVL165:
 1434 0634 6F00C000 		j	.L74
 1435              	.L72:
 107:tests/Threads_C_API_test.hpp **** 
 108:tests/Threads_C_API_test.hpp ****     while (!(finishedA && finishedB && finishedC && finishedD)) {
 109:tests/Threads_C_API_test.hpp ****         thread_dispatch();
 1436              		.loc 1 109 9 is_stmt 1
 1437              		.loc 1 109 24 is_stmt 0
 1438 0638 97000000 		call	_Z15thread_dispatchv@plt
 1438      E7800000 
 1439              	.LVL166:
 1440              	.L74:
 108:tests/Threads_C_API_test.hpp ****         thread_dispatch();
 1441              		.loc 1 108 5 is_stmt 1
 108:tests/Threads_C_API_test.hpp ****         thread_dispatch();
 1442              		.loc 1 108 12
 1443 0640 97070000 		lbu	a5,.LANCHOR0
 1443      83C70700 
 1444 0648 E38807FE 		beqz	a5,.L72
 108:tests/Threads_C_API_test.hpp ****         thread_dispatch();
 1445              		.loc 1 108 24 is_stmt 0 discriminator 1
 1446 064c 97070000 		lbu	a5,.LANCHOR0+1
 1446      83C70700 
GAS LISTING /tmp/ccbTlbUb.s 			page 35


 1447 0654 E38207FE 		beqz	a5,.L72
 108:tests/Threads_C_API_test.hpp ****         thread_dispatch();
 1448              		.loc 1 108 37 discriminator 2
 1449 0658 97070000 		lbu	a5,.LANCHOR0+16
 1449      83C70700 
 1450 0660 E38C07FC 		beqz	a5,.L72
 108:tests/Threads_C_API_test.hpp ****         thread_dispatch();
 1451              		.loc 1 108 12 discriminator 3
 1452 0664 97070000 		lbu	a5,.LANCHOR0+17
 1452      83C70700 
 1453 066c E38607FC 		beqz	a5,.L72
 1454              	.LBB51:
 110:tests/Threads_C_API_test.hpp ****     }
 111:tests/Threads_C_API_test.hpp **** 
 112:tests/Threads_C_API_test.hpp ****     for (auto &thread: threads) { delete thread; }
 1455              		.loc 1 112 24
 1456 0670 930404FC 		addi	s1,s0,-64
 1457 0674 6F008000 		j	.L73
 1458              	.LVL167:
 1459              	.L76:
 1460              		.loc 1 112 5 is_stmt 1 discriminator 4
 1461 0678 93848400 		addi	s1,s1,8
 1462              	.LVL168:
 1463              	.L73:
 1464              		.loc 1 112 24 discriminator 5
 1465 067c 930704FE 		addi	a5,s0,-32
 1466 0680 638CF400 		beq	s1,a5,.L71
 1467              	.LVL169:
 1468              		.loc 1 112 35 discriminator 2
 1469              		.loc 1 112 42 is_stmt 0 discriminator 2
 1470 0684 03B50400 		ld	a0,0(s1)
 1471              		.loc 1 112 48 discriminator 2
 1472 0688 E30805FE 		beqz	a0,.L76
 1473              		.loc 1 112 42 discriminator 3
 1474 068c 97000000 		call	_ZN7_threaddlEPv@plt
 1474      E7800000 
 1475              	.LVL170:
 1476 0694 6FF05FFE 		j	.L76
 1477              	.LVL171:
 1478              	.L71:
 1479              	.LBE51:
 113:tests/Threads_C_API_test.hpp **** }
 1480              		.loc 1 113 1
 1481 0698 83308103 		ld	ra,56(sp)
 1482              		.cfi_restore 1
 1483 069c 03340103 		ld	s0,48(sp)
 1484              		.cfi_restore 8
 1485              		.cfi_def_cfa 2, 64
 1486 06a0 83348102 		ld	s1,40(sp)
 1487              		.cfi_restore 9
 1488              	.LVL172:
 1489 06a4 13010104 		addi	sp,sp,64
 1490              		.cfi_def_cfa_offset 0
 1491 06a8 67800000 		jr	ra
 1492              		.cfi_endproc
 1493              	.LFE17:
 1495              		.align	2
GAS LISTING /tmp/ccbTlbUb.s 			page 36


 1496              		.globl	_Z12testSleepingv
 1498              	_Z12testSleepingv:
 1499              	.LFB19:
  26:tests/ThreadSleep_C_API_test.hpp **** 
  27:tests/ThreadSleep_C_API_test.hpp **** void testSleeping() {
 1500              		.loc 2 27 21 is_stmt 1
 1501              		.cfi_startproc
 1502 06ac 130101FC 		addi	sp,sp,-64
 1503              		.cfi_def_cfa_offset 64
 1504 06b0 233C1102 		sd	ra,56(sp)
 1505 06b4 23388102 		sd	s0,48(sp)
 1506 06b8 23349102 		sd	s1,40(sp)
 1507              		.cfi_offset 1, -8
 1508              		.cfi_offset 8, -16
 1509              		.cfi_offset 9, -24
 1510 06bc 13040104 		addi	s0,sp,64
 1511              		.cfi_def_cfa 8, 0
  28:tests/ThreadSleep_C_API_test.hpp ****     const int sleepy_thread_count = 2;
 1512              		.loc 2 28 5
 1513              	.LVL173:
  29:tests/ThreadSleep_C_API_test.hpp ****     time_t sleep_times[sleepy_thread_count] = {10, 20};
 1514              		.loc 2 29 5
 1515              		.loc 2 29 12 is_stmt 0
 1516 06c0 9307A000 		li	a5,10
 1517 06c4 2338F4FC 		sd	a5,-48(s0)
 1518 06c8 93074001 		li	a5,20
 1519 06cc 233CF4FC 		sd	a5,-40(s0)
  30:tests/ThreadSleep_C_API_test.hpp ****     thread_t sleepyThread[sleepy_thread_count];
 1520              		.loc 2 30 5 is_stmt 1
  31:tests/ThreadSleep_C_API_test.hpp **** 
  32:tests/ThreadSleep_C_API_test.hpp ****     for (int i = 0; i < sleepy_thread_count; i++) {
 1521              		.loc 2 32 5
 1522              	.LVL174:
 1523              	.LBB52:
 1524              		.loc 2 32 14 is_stmt 0
 1525 06d0 93040000 		li	s1,0
 1526 06d4 6F00C002 		j	.L81
 1527              	.LVL175:
 1528              	.L84:
  33:tests/ThreadSleep_C_API_test.hpp ****         thread_create(&sleepyThread[i], sleepyRun, sleep_times + i);
 1529              		.loc 2 33 9 is_stmt 1
 1530              		.loc 2 33 64 is_stmt 0
 1531 06d8 93973400 		slli	a5,s1,3
 1532              		.loc 2 33 22
 1533 06dc 130604FD 		addi	a2,s0,-48
 1534 06e0 3306F600 		add	a2,a2,a5
 1535 06e4 97050000 		lla	a1,_Z9sleepyRunPv
 1535      93850500 
 1536 06ec 130504FC 		addi	a0,s0,-64
 1537 06f0 3305F500 		add	a0,a0,a5
 1538 06f4 97000000 		call	_Z13thread_createPP7_threadPFvPvES2_@plt
 1538      E7800000 
 1539              	.LVL176:
  32:tests/ThreadSleep_C_API_test.hpp ****         thread_create(&sleepyThread[i], sleepyRun, sleep_times + i);
 1540              		.loc 2 32 5 is_stmt 1
 1541 06fc 9B841400 		addiw	s1,s1,1
 1542              	.LVL177:
GAS LISTING /tmp/ccbTlbUb.s 			page 37


 1543              	.L81:
  32:tests/ThreadSleep_C_API_test.hpp ****         thread_create(&sleepyThread[i], sleepyRun, sleep_times + i);
 1544              		.loc 2 32 23 discriminator 1
 1545 0700 93071000 		li	a5,1
 1546 0704 E3DA97FC 		ble	s1,a5,.L84
 1547              	.L82:
 1548              	.LBE52:
  34:tests/ThreadSleep_C_API_test.hpp ****     }
  35:tests/ThreadSleep_C_API_test.hpp **** 
  36:tests/ThreadSleep_C_API_test.hpp ****     while (!(finished[0] && finished[1])) {}
 1549              		.loc 2 36 5
 1550              		.loc 2 36 12
 1551              		.loc 2 36 24 is_stmt 0
 1552 0708 97070000 		lbu	a5,.LANCHOR0+8
 1552      83C70700 
 1553              		.loc 2 36 12
 1554 0710 E38C07FE 		beqz	a5,.L82
 1555              		.loc 2 36 39 discriminator 1
 1556 0714 97070000 		lbu	a5,.LANCHOR0+9
 1556      83C70700 
 1557              		.loc 2 36 12 discriminator 1
 1558 071c E38607FE 		beqz	a5,.L82
  37:tests/ThreadSleep_C_API_test.hpp **** }
 1559              		.loc 2 37 1
 1560 0720 83308103 		ld	ra,56(sp)
 1561              		.cfi_restore 1
 1562 0724 03340103 		ld	s0,48(sp)
 1563              		.cfi_restore 8
 1564              		.cfi_def_cfa 2, 64
 1565 0728 83348102 		ld	s1,40(sp)
 1566              		.cfi_restore 9
 1567              	.LVL178:
 1568 072c 13010104 		addi	sp,sp,64
 1569              		.cfi_def_cfa_offset 0
 1570 0730 67800000 		jr	ra
 1571              		.cfi_endproc
 1572              	.LFE19:
 1574              		.section	.rodata.str1.8
 1575 0109 00000000 		.align	3
 1575      000000
 1576              	.LC19:
 1577 0110 556E6573 		.string	"Unesite broj proizvodjaca?\n"
 1577      69746520 
 1577      62726F6A 
 1577      2070726F 
 1577      697A766F 
 1578 012c 00000000 		.align	3
 1579              	.LC20:
 1580 0130 556E6573 		.string	"Unesite velicinu bafera?\n"
 1580      69746520 
 1580      76656C69 
 1580      63696E75 
 1580      20626166 
 1581 014a 00000000 		.align	3
 1581      0000
 1582              	.LC21:
 1583 0150 42726F6A 		.string	"Broj proizvodjaca "
GAS LISTING /tmp/ccbTlbUb.s 			page 38


 1583      2070726F 
 1583      697A766F 
 1583      646A6163 
 1583      612000
 1584 0163 00000000 		.align	3
 1584      00
 1585              	.LC22:
 1586 0168 20692076 		.string	" i velicina bafera "
 1586      656C6963 
 1586      696E6120 
 1586      62616665 
 1586      72612000 
 1587 017c 00000000 		.align	3
 1588              	.LC23:
 1589 0180 2E0A00   		.string	".\n"
 1590 0183 00000000 		.align	3
 1590      00
 1591              	.LC24:
 1592 0188 42726F6A 		.string	"Broj proizvodjaca ne sme biti manji od velicine bafera!\n"
 1592      2070726F 
 1592      697A766F 
 1592      646A6163 
 1592      61206E65 
 1593 01c1 00000000 		.align	3
 1593      000000
 1594              	.LC25:
 1595 01c8 42726F6A 		.string	"Broj proizvodjaca mora biti veci od nula!\n"
 1595      2070726F 
 1595      697A766F 
 1595      646A6163 
 1595      61206D6F 
 1596              		.text
 1597              		.align	2
 1598              		.globl	_ZN19ConsumerProducerCPP20testConsumerProducerEv
 1600              	_ZN19ConsumerProducerCPP20testConsumerProducerEv:
 1601              	.LFB34:
  87:tests/ConsumerProducer_CPP_API_test.hpp ****     };
  88:tests/ConsumerProducer_CPP_API_test.hpp **** 
  89:tests/ConsumerProducer_CPP_API_test.hpp ****     void testConsumerProducer() {
 1602              		.loc 3 89 33 is_stmt 1
 1603              		.cfi_startproc
 1604              		.cfi_personality 0x9b,DW.ref.__gxx_personality_v0
 1605              		.cfi_lsda 0x1b,.LLSDA34
 1606 0734 130101F8 		addi	sp,sp,-128
 1607              		.cfi_def_cfa_offset 128
 1608 0738 233C1106 		sd	ra,120(sp)
 1609 073c 23388106 		sd	s0,112(sp)
 1610 0740 23349106 		sd	s1,104(sp)
 1611 0744 23302107 		sd	s2,96(sp)
 1612 0748 233C3105 		sd	s3,88(sp)
 1613 074c 23384105 		sd	s4,80(sp)
 1614 0750 23345105 		sd	s5,72(sp)
 1615 0754 23306105 		sd	s6,64(sp)
 1616 0758 233C7103 		sd	s7,56(sp)
 1617 075c 23388103 		sd	s8,48(sp)
 1618 0760 23349103 		sd	s9,40(sp)
 1619              		.cfi_offset 1, -8
GAS LISTING /tmp/ccbTlbUb.s 			page 39


 1620              		.cfi_offset 8, -16
 1621              		.cfi_offset 9, -24
 1622              		.cfi_offset 18, -32
 1623              		.cfi_offset 19, -40
 1624              		.cfi_offset 20, -48
 1625              		.cfi_offset 21, -56
 1626              		.cfi_offset 22, -64
 1627              		.cfi_offset 23, -72
 1628              		.cfi_offset 24, -80
 1629              		.cfi_offset 25, -88
 1630 0764 13040108 		addi	s0,sp,128
 1631              		.cfi_def_cfa 8, 0
  90:tests/ConsumerProducer_CPP_API_test.hpp ****         char input[30];
  91:tests/ConsumerProducer_CPP_API_test.hpp ****         int n, threadNum;
  92:tests/ConsumerProducer_CPP_API_test.hpp **** 
  93:tests/ConsumerProducer_CPP_API_test.hpp ****         printString("Unesite broj proizvodjaca?\n");
  94:tests/ConsumerProducer_CPP_API_test.hpp ****         getString(input, 30);
  95:tests/ConsumerProducer_CPP_API_test.hpp ****         threadNum = stringToInt(input);
  96:tests/ConsumerProducer_CPP_API_test.hpp **** 
  97:tests/ConsumerProducer_CPP_API_test.hpp ****         printString("Unesite velicinu bafera?\n");
  98:tests/ConsumerProducer_CPP_API_test.hpp ****         getString(input, 30);
  99:tests/ConsumerProducer_CPP_API_test.hpp ****         n = stringToInt(input);
 100:tests/ConsumerProducer_CPP_API_test.hpp **** 
 101:tests/ConsumerProducer_CPP_API_test.hpp ****         printString("Broj proizvodjaca "); printInt(threadNum);
 102:tests/ConsumerProducer_CPP_API_test.hpp ****         printString(" i velicina bafera "); printInt(n);
 103:tests/ConsumerProducer_CPP_API_test.hpp ****         printString(".\n");
 104:tests/ConsumerProducer_CPP_API_test.hpp **** 
 105:tests/ConsumerProducer_CPP_API_test.hpp ****         if(threadNum > n) {
 106:tests/ConsumerProducer_CPP_API_test.hpp ****             printString("Broj proizvodjaca ne sme biti manji od velicine bafera!\n");
 107:tests/ConsumerProducer_CPP_API_test.hpp ****             return;
 108:tests/ConsumerProducer_CPP_API_test.hpp ****         } else if (threadNum < 1) {
 109:tests/ConsumerProducer_CPP_API_test.hpp ****             printString("Broj proizvodjaca mora biti veci od nula!\n");
 110:tests/ConsumerProducer_CPP_API_test.hpp ****             return;
 111:tests/ConsumerProducer_CPP_API_test.hpp ****         }
 112:tests/ConsumerProducer_CPP_API_test.hpp **** 
 113:tests/ConsumerProducer_CPP_API_test.hpp ****         BufferCPP *buffer = new BufferCPP(n);
 114:tests/ConsumerProducer_CPP_API_test.hpp **** 
 115:tests/ConsumerProducer_CPP_API_test.hpp ****         waitForAll = new Semaphore(0);
 116:tests/ConsumerProducer_CPP_API_test.hpp ****         Thread *producers[threadNum];
 117:tests/ConsumerProducer_CPP_API_test.hpp ****         thread_data threadData[threadNum + 1];
 118:tests/ConsumerProducer_CPP_API_test.hpp **** 
 119:tests/ConsumerProducer_CPP_API_test.hpp ****         threadData[threadNum].id = threadNum;
 120:tests/ConsumerProducer_CPP_API_test.hpp ****         threadData[threadNum].buffer = buffer;
 121:tests/ConsumerProducer_CPP_API_test.hpp ****         threadData[threadNum].sem = waitForAll;
 122:tests/ConsumerProducer_CPP_API_test.hpp ****         Thread *consumer = new Consumer(&threadData[threadNum]);
 123:tests/ConsumerProducer_CPP_API_test.hpp ****         consumer->start();
 124:tests/ConsumerProducer_CPP_API_test.hpp **** 
 125:tests/ConsumerProducer_CPP_API_test.hpp ****         threadData[0].id = 0;
 126:tests/ConsumerProducer_CPP_API_test.hpp ****         threadData[0].buffer = buffer;
 127:tests/ConsumerProducer_CPP_API_test.hpp ****         threadData[0].sem = waitForAll;
 128:tests/ConsumerProducer_CPP_API_test.hpp ****         producers[0] = new ProducerKeyborad(&threadData[0]);
 129:tests/ConsumerProducer_CPP_API_test.hpp ****         producers[0]->start();
 130:tests/ConsumerProducer_CPP_API_test.hpp **** 
 131:tests/ConsumerProducer_CPP_API_test.hpp ****         for (int i = 1; i < threadNum; i++) {
 132:tests/ConsumerProducer_CPP_API_test.hpp ****             threadData[i].id = i;
 133:tests/ConsumerProducer_CPP_API_test.hpp ****             threadData[i].buffer = buffer;
 134:tests/ConsumerProducer_CPP_API_test.hpp ****             threadData[i].sem = waitForAll;
GAS LISTING /tmp/ccbTlbUb.s 			page 40


 135:tests/ConsumerProducer_CPP_API_test.hpp **** 
 136:tests/ConsumerProducer_CPP_API_test.hpp ****             producers[i] = new Producer(&threadData[i]);
 137:tests/ConsumerProducer_CPP_API_test.hpp ****             producers[i]->start();
 138:tests/ConsumerProducer_CPP_API_test.hpp **** 
 139:tests/ConsumerProducer_CPP_API_test.hpp ****         }
 140:tests/ConsumerProducer_CPP_API_test.hpp **** 
 141:tests/ConsumerProducer_CPP_API_test.hpp ****         Thread::dispatch();
 142:tests/ConsumerProducer_CPP_API_test.hpp **** 
 143:tests/ConsumerProducer_CPP_API_test.hpp ****         for (int i = 0; i <= threadNum; i++) {
 144:tests/ConsumerProducer_CPP_API_test.hpp ****             waitForAll->wait();
 145:tests/ConsumerProducer_CPP_API_test.hpp ****         }
 146:tests/ConsumerProducer_CPP_API_test.hpp **** 
 147:tests/ConsumerProducer_CPP_API_test.hpp ****         delete waitForAll;
 148:tests/ConsumerProducer_CPP_API_test.hpp ****         for (int i = 0; i < threadNum; i++) {
 149:tests/ConsumerProducer_CPP_API_test.hpp ****             delete producers[i];
 150:tests/ConsumerProducer_CPP_API_test.hpp ****         }
 151:tests/ConsumerProducer_CPP_API_test.hpp ****         delete consumer;
 152:tests/ConsumerProducer_CPP_API_test.hpp ****         delete buffer;
 1632              		.loc 3 152 22 is_stmt 0
 1633 0768 130C0100 		mv	s8,sp
  90:tests/ConsumerProducer_CPP_API_test.hpp ****         char input[30];
 1634              		.loc 3 90 9 is_stmt 1
  91:tests/ConsumerProducer_CPP_API_test.hpp **** 
 1635              		.loc 3 91 9
  93:tests/ConsumerProducer_CPP_API_test.hpp ****         getString(input, 30);
 1636              		.loc 3 93 9
  93:tests/ConsumerProducer_CPP_API_test.hpp ****         getString(input, 30);
 1637              		.loc 3 93 20 is_stmt 0
 1638 076c 17050000 		lla	a0,.LC19
 1638      13050500 
 1639              	.LEHB0:
 1640 0774 97000000 		call	_Z11printStringPKc@plt
 1640      E7800000 
 1641              	.LVL179:
  94:tests/ConsumerProducer_CPP_API_test.hpp ****         threadNum = stringToInt(input);
 1642              		.loc 3 94 9 is_stmt 1
  94:tests/ConsumerProducer_CPP_API_test.hpp ****         threadNum = stringToInt(input);
 1643              		.loc 3 94 18 is_stmt 0
 1644 077c 9305E001 		li	a1,30
 1645 0780 930404F8 		addi	s1,s0,-128
 1646 0784 13850400 		mv	a0,s1
 1647 0788 97000000 		call	_Z9getStringPci@plt
 1647      E7800000 
 1648              	.LVL180:
  95:tests/ConsumerProducer_CPP_API_test.hpp **** 
 1649              		.loc 3 95 9 is_stmt 1
  95:tests/ConsumerProducer_CPP_API_test.hpp **** 
 1650              		.loc 3 95 32 is_stmt 0
 1651 0790 13850400 		mv	a0,s1
 1652 0794 97000000 		call	_Z11stringToIntPKc@plt
 1652      E7800000 
 1653              	.LVL181:
 1654 079c 93090500 		mv	s3,a0
 1655              	.LVL182:
  97:tests/ConsumerProducer_CPP_API_test.hpp ****         getString(input, 30);
 1656              		.loc 3 97 9 is_stmt 1
  97:tests/ConsumerProducer_CPP_API_test.hpp ****         getString(input, 30);
GAS LISTING /tmp/ccbTlbUb.s 			page 41


 1657              		.loc 3 97 20 is_stmt 0
 1658 07a0 17050000 		lla	a0,.LC20
 1658      13050500 
 1659 07a8 97000000 		call	_Z11printStringPKc@plt
 1659      E7800000 
 1660              	.LVL183:
  98:tests/ConsumerProducer_CPP_API_test.hpp ****         n = stringToInt(input);
 1661              		.loc 3 98 9 is_stmt 1
  98:tests/ConsumerProducer_CPP_API_test.hpp ****         n = stringToInt(input);
 1662              		.loc 3 98 18 is_stmt 0
 1663 07b0 9305E001 		li	a1,30
 1664 07b4 13850400 		mv	a0,s1
 1665 07b8 97000000 		call	_Z9getStringPci@plt
 1665      E7800000 
 1666              	.LVL184:
  99:tests/ConsumerProducer_CPP_API_test.hpp **** 
 1667              		.loc 3 99 9 is_stmt 1
  99:tests/ConsumerProducer_CPP_API_test.hpp **** 
 1668              		.loc 3 99 24 is_stmt 0
 1669 07c0 13850400 		mv	a0,s1
 1670 07c4 97000000 		call	_Z11stringToIntPKc@plt
 1670      E7800000 
 1671              	.LVL185:
 1672 07cc 93040500 		mv	s1,a0
 1673              	.LVL186:
 101:tests/ConsumerProducer_CPP_API_test.hpp ****         printString(" i velicina bafera "); printInt(n);
 1674              		.loc 3 101 9 is_stmt 1
 101:tests/ConsumerProducer_CPP_API_test.hpp ****         printString(" i velicina bafera "); printInt(n);
 1675              		.loc 3 101 20 is_stmt 0
 1676 07d0 17050000 		lla	a0,.LC21
 1676      13050500 
 1677 07d8 97000000 		call	_Z11printStringPKc@plt
 1677      E7800000 
 1678              	.LVL187:
 101:tests/ConsumerProducer_CPP_API_test.hpp ****         printString(" i velicina bafera "); printInt(n);
 1679              		.loc 3 101 44 is_stmt 1
 101:tests/ConsumerProducer_CPP_API_test.hpp ****         printString(" i velicina bafera "); printInt(n);
 1680              		.loc 3 101 52 is_stmt 0
 1681 07e0 13060000 		li	a2,0
 1682 07e4 9305A000 		li	a1,10
 1683 07e8 13850900 		mv	a0,s3
 1684 07ec 97000000 		call	_Z8printIntiii@plt
 1684      E7800000 
 1685              	.LVL188:
 102:tests/ConsumerProducer_CPP_API_test.hpp ****         printString(".\n");
 1686              		.loc 3 102 9 is_stmt 1
 102:tests/ConsumerProducer_CPP_API_test.hpp ****         printString(".\n");
 1687              		.loc 3 102 20 is_stmt 0
 1688 07f4 17050000 		lla	a0,.LC22
 1688      13050500 
 1689 07fc 97000000 		call	_Z11printStringPKc@plt
 1689      E7800000 
 1690              	.LVL189:
 102:tests/ConsumerProducer_CPP_API_test.hpp ****         printString(".\n");
 1691              		.loc 3 102 45 is_stmt 1
 102:tests/ConsumerProducer_CPP_API_test.hpp ****         printString(".\n");
 1692              		.loc 3 102 53 is_stmt 0
GAS LISTING /tmp/ccbTlbUb.s 			page 42


 1693 0804 13060000 		li	a2,0
 1694 0808 9305A000 		li	a1,10
 1695 080c 13850400 		mv	a0,s1
 1696 0810 97000000 		call	_Z8printIntiii@plt
 1696      E7800000 
 1697              	.LVL190:
 103:tests/ConsumerProducer_CPP_API_test.hpp **** 
 1698              		.loc 3 103 9 is_stmt 1
 103:tests/ConsumerProducer_CPP_API_test.hpp **** 
 1699              		.loc 3 103 20 is_stmt 0
 1700 0818 17050000 		lla	a0,.LC23
 1700      13050500 
 1701 0820 97000000 		call	_Z11printStringPKc@plt
 1701      E7800000 
 1702              	.LVL191:
 105:tests/ConsumerProducer_CPP_API_test.hpp ****             printString("Broj proizvodjaca ne sme biti manji od velicine bafera!\n");
 1703              		.loc 3 105 9 is_stmt 1
 1704 0828 63C43403 		bgt	s3,s1,.L111
 108:tests/ConsumerProducer_CPP_API_test.hpp ****             printString("Broj proizvodjaca mora biti veci od nula!\n");
 1705              		.loc 3 108 16
 1706 082c 635C3003 		blez	s3,.L112
 113:tests/ConsumerProducer_CPP_API_test.hpp **** 
 1707              		.loc 3 113 9
 113:tests/ConsumerProducer_CPP_API_test.hpp **** 
 1708              		.loc 3 113 44 is_stmt 0
 1709 0830 13058003 		li	a0,56
 1710 0834 97000000 		call	_Znwm@plt
 1710      E7800000 
 1711              	.LVL192:
 1712              	.LEHE0:
 1713 083c 930A0500 		mv	s5,a0
 1714 0840 93850400 		mv	a1,s1
 1715              	.LEHB1:
 1716 0844 97000000 		call	_ZN9BufferCPPC1Ei@plt
 1716      E7800000 
 1717              	.LVL193:
 1718              	.LEHE1:
 1719 084c 6F000003 		j	.L113
 1720              	.L111:
 106:tests/ConsumerProducer_CPP_API_test.hpp ****             return;
 1721              		.loc 3 106 13 is_stmt 1
 106:tests/ConsumerProducer_CPP_API_test.hpp ****             return;
 1722              		.loc 3 106 24 is_stmt 0
 1723 0850 17050000 		lla	a0,.LC24
 1723      13050500 
 1724              	.LEHB2:
 1725 0858 97000000 		call	_Z11printStringPKc@plt
 1725      E7800000 
 1726              	.LVL194:
 107:tests/ConsumerProducer_CPP_API_test.hpp ****         } else if (threadNum < 1) {
 1727              		.loc 3 107 13 is_stmt 1
 1728 0860 6F004001 		j	.L87
 1729              	.L112:
 109:tests/ConsumerProducer_CPP_API_test.hpp ****             return;
 1730              		.loc 3 109 13
 109:tests/ConsumerProducer_CPP_API_test.hpp ****             return;
 1731              		.loc 3 109 24 is_stmt 0
GAS LISTING /tmp/ccbTlbUb.s 			page 43


 1732 0864 17050000 		lla	a0,.LC25
 1732      13050500 
 1733 086c 97000000 		call	_Z11printStringPKc@plt
 1733      E7800000 
 1734              	.LVL195:
 110:tests/ConsumerProducer_CPP_API_test.hpp ****         }
 1735              		.loc 3 110 13 is_stmt 1
 1736              	.L87:
 1737 0874 13010C00 		mv	sp,s8
 1738 0878 6F00C021 		j	.L85
 1739              	.L113:
 1740              	.LVL196:
 115:tests/ConsumerProducer_CPP_API_test.hpp ****         Thread *producers[threadNum];
 1741              		.loc 3 115 9 discriminator 3
 115:tests/ConsumerProducer_CPP_API_test.hpp ****         Thread *producers[threadNum];
 1742              		.loc 3 115 37 is_stmt 0 discriminator 3
 1743 087c 13050001 		li	a0,16
 1744 0880 97000000 		call	_Znwm@plt
 1744      E7800000 
 1745              	.LVL197:
 1746              	.LEHE2:
 1747 0888 93040500 		mv	s1,a0
 1748              	.LVL198:
 1749 088c 93050000 		li	a1,0
 1750              	.LEHB3:
 1751 0890 97000000 		call	_ZN9SemaphoreC1Ej@plt
 1751      E7800000 
 1752              	.LVL199:
 1753              	.LEHE3:
 115:tests/ConsumerProducer_CPP_API_test.hpp ****         Thread *producers[threadNum];
 1754              		.loc 3 115 20 discriminator 3
 1755 0898 17070000 		lla	a4,.LANCHOR0
 1755      13070700 
 1756 08a0 233C9700 		sd	s1,24(a4)
 116:tests/ConsumerProducer_CPP_API_test.hpp ****         thread_data threadData[threadNum + 1];
 1757              		.loc 3 116 9 is_stmt 1 discriminator 3
 1758              	.LVL200:
 116:tests/ConsumerProducer_CPP_API_test.hpp ****         thread_data threadData[threadNum + 1];
 1759              		.loc 3 116 17 is_stmt 0 discriminator 3
 1760 08a4 93973900 		slli	a5,s3,3
 1761 08a8 9387F700 		addi	a5,a5,15
 1762 08ac 93F707FF 		andi	a5,a5,-16
 1763 08b0 3301F140 		sub	sp,sp,a5
 1764 08b4 130A0100 		mv	s4,sp
 1765              	.LVL201:
 117:tests/ConsumerProducer_CPP_API_test.hpp **** 
 1766              		.loc 3 117 9 is_stmt 1 discriminator 3
 117:tests/ConsumerProducer_CPP_API_test.hpp **** 
 1767              		.loc 3 117 42 is_stmt 0 discriminator 3
 1768 08b8 9B861900 		addiw	a3,s3,1
 1769              	.LVL202:
 117:tests/ConsumerProducer_CPP_API_test.hpp **** 
 1770              		.loc 3 117 21 discriminator 3
 1771 08bc 93971600 		slli	a5,a3,1
 1772 08c0 B387D700 		add	a5,a5,a3
 1773 08c4 93973700 		slli	a5,a5,3
 1774 08c8 9387F700 		addi	a5,a5,15
GAS LISTING /tmp/ccbTlbUb.s 			page 44


 1775 08cc 93F707FF 		andi	a5,a5,-16
 1776 08d0 3301F140 		sub	sp,sp,a5
 1777              	.LVL203:
 1778 08d4 130B0100 		mv	s6,sp
 1779              	.LVL204:
 119:tests/ConsumerProducer_CPP_API_test.hpp ****         threadData[threadNum].buffer = buffer;
 1780              		.loc 3 119 9 is_stmt 1 discriminator 3
 119:tests/ConsumerProducer_CPP_API_test.hpp ****         threadData[threadNum].buffer = buffer;
 1781              		.loc 3 119 34 is_stmt 0 discriminator 3
 1782 08d8 93941900 		slli	s1,s3,1
 1783 08dc B3843401 		add	s1,s1,s3
 1784 08e0 93943400 		slli	s1,s1,3
 1785 08e4 B3049B00 		add	s1,s6,s1
 1786 08e8 23A03401 		sw	s3,0(s1)
 120:tests/ConsumerProducer_CPP_API_test.hpp ****         threadData[threadNum].sem = waitForAll;
 1787              		.loc 3 120 9 is_stmt 1 discriminator 3
 120:tests/ConsumerProducer_CPP_API_test.hpp ****         threadData[threadNum].sem = waitForAll;
 1788              		.loc 3 120 38 is_stmt 0 discriminator 3
 1789 08ec 23B45401 		sd	s5,8(s1)
 121:tests/ConsumerProducer_CPP_API_test.hpp ****         Thread *consumer = new Consumer(&threadData[threadNum]);
 1790              		.loc 3 121 9 is_stmt 1 discriminator 3
 121:tests/ConsumerProducer_CPP_API_test.hpp ****         Thread *consumer = new Consumer(&threadData[threadNum]);
 1791              		.loc 3 121 35 is_stmt 0 discriminator 3
 1792 08f0 83378701 		ld	a5,24(a4)
 1793 08f4 23B8F400 		sd	a5,16(s1)
 122:tests/ConsumerProducer_CPP_API_test.hpp ****         consumer->start();
 1794              		.loc 3 122 9 is_stmt 1 discriminator 3
 122:tests/ConsumerProducer_CPP_API_test.hpp ****         consumer->start();
 1795              		.loc 3 122 63 is_stmt 0 discriminator 3
 1796 08f8 13058001 		li	a0,24
 1797              	.LEHB4:
 1798 08fc 97000000 		call	_Znwm@plt
 1798      E7800000 
 1799              	.LVL205:
 1800              	.LEHE4:
 1801 0904 930B0500 		mv	s7,a0
 1802              	.LVL206:
 1803              	.LEHB5:
 1804              	.LBB53:
 1805              	.LBB54:
  65:tests/ConsumerProducer_CPP_API_test.hpp **** 
 1806              		.loc 3 65 54 discriminator 3
 1807 0908 97000000 		call	_ZN6ThreadC2Ev@plt
 1807      E7800000 
 1808              	.LVL207:
 1809              	.LEHE5:
  65:tests/ConsumerProducer_CPP_API_test.hpp **** 
 1810              		.loc 3 65 54
 1811 0910 97070000 		lla	a5,_ZTVN19ConsumerProducerCPP8ConsumerE+16
 1811      93870700 
 1812 0918 23B0FB00 		sd	a5,0(s7)
 1813 091c 23B89B00 		sd	s1,16(s7)
 1814              	.LVL208:
 1815              	.LBE54:
 1816              	.LBE53:
 123:tests/ConsumerProducer_CPP_API_test.hpp **** 
 1817              		.loc 3 123 9 is_stmt 1
GAS LISTING /tmp/ccbTlbUb.s 			page 45


 123:tests/ConsumerProducer_CPP_API_test.hpp **** 
 1818              		.loc 3 123 24 is_stmt 0
 1819 0920 13850B00 		mv	a0,s7
 1820              	.LEHB6:
 1821 0924 97000000 		call	_ZN6Thread5startEv@plt
 1821      E7800000 
 1822              	.LVL209:
 125:tests/ConsumerProducer_CPP_API_test.hpp ****         threadData[0].buffer = buffer;
 1823              		.loc 3 125 9 is_stmt 1
 125:tests/ConsumerProducer_CPP_API_test.hpp ****         threadData[0].buffer = buffer;
 1824              		.loc 3 125 26 is_stmt 0
 1825 092c 23200B00 		sw	zero,0(s6)
 126:tests/ConsumerProducer_CPP_API_test.hpp ****         threadData[0].sem = waitForAll;
 1826              		.loc 3 126 9 is_stmt 1
 126:tests/ConsumerProducer_CPP_API_test.hpp ****         threadData[0].sem = waitForAll;
 1827              		.loc 3 126 30 is_stmt 0
 1828 0930 23345B01 		sd	s5,8(s6)
 127:tests/ConsumerProducer_CPP_API_test.hpp ****         producers[0] = new ProducerKeyborad(&threadData[0]);
 1829              		.loc 3 127 9 is_stmt 1
 127:tests/ConsumerProducer_CPP_API_test.hpp ****         producers[0] = new ProducerKeyborad(&threadData[0]);
 1830              		.loc 3 127 27 is_stmt 0
 1831 0934 97070000 		ld	a5,.LANCHOR0+24
 1831      83B70700 
 1832 093c 2338FB00 		sd	a5,16(s6)
 128:tests/ConsumerProducer_CPP_API_test.hpp ****         producers[0]->start();
 1833              		.loc 3 128 9 is_stmt 1
 128:tests/ConsumerProducer_CPP_API_test.hpp ****         producers[0]->start();
 1834              		.loc 3 128 59 is_stmt 0
 1835 0940 13058001 		li	a0,24
 1836 0944 97000000 		call	_Znwm@plt
 1836      E7800000 
 1837              	.LVL210:
 1838              	.LEHE6:
 1839 094c 93040500 		mv	s1,a0
 1840              	.LVL211:
 1841              	.LEHB7:
 1842              	.LBB55:
 1843              	.LBB56:
  28:tests/ConsumerProducer_CPP_API_test.hpp **** 
 1844              		.loc 3 28 62
 1845 0950 97000000 		call	_ZN6ThreadC2Ev@plt
 1845      E7800000 
 1846              	.LVL212:
 1847              	.LEHE7:
 1848 0958 97070000 		lla	a5,_ZTVN19ConsumerProducerCPP16ProducerKeyboradE+16
 1848      93870700 
 1849 0960 23B0F400 		sd	a5,0(s1)
 1850 0964 23B86401 		sd	s6,16(s1)
 1851              	.LVL213:
 1852              	.LBE56:
 1853              	.LBE55:
 128:tests/ConsumerProducer_CPP_API_test.hpp ****         producers[0]->start();
 1854              		.loc 3 128 22
 1855 0968 23309A00 		sd	s1,0(s4)
 129:tests/ConsumerProducer_CPP_API_test.hpp **** 
 1856              		.loc 3 129 9 is_stmt 1
 129:tests/ConsumerProducer_CPP_API_test.hpp **** 
GAS LISTING /tmp/ccbTlbUb.s 			page 46


 1857              		.loc 3 129 28 is_stmt 0
 1858 096c 13850400 		mv	a0,s1
 1859              	.LEHB8:
 1860 0970 97000000 		call	_ZN6Thread5startEv@plt
 1860      E7800000 
 1861              	.LVL214:
 1862              	.LBB57:
 131:tests/ConsumerProducer_CPP_API_test.hpp ****             threadData[i].id = i;
 1863              		.loc 3 131 18
 1864 0978 13091000 		li	s2,1
 1865 097c 6F000003 		j	.L90
 1866              	.LVL215:
 1867              	.L114:
 1868              	.LBB58:
 1869              	.LBB59:
  48:tests/ConsumerProducer_CPP_API_test.hpp **** 
 1870              		.loc 3 48 54
 1871 0980 97070000 		lla	a5,_ZTVN19ConsumerProducerCPP8ProducerE+16
 1871      93870700 
 1872 0988 23B0FC00 		sd	a5,0(s9)
 1873 098c 23B89C00 		sd	s1,16(s9)
 1874              	.LVL216:
 1875              	.LBE59:
 1876              	.LBE58:
 136:tests/ConsumerProducer_CPP_API_test.hpp ****             producers[i]->start();
 1877              		.loc 3 136 26
 1878 0990 93173900 		slli	a5,s2,3
 1879 0994 B307FA00 		add	a5,s4,a5
 1880 0998 23B09701 		sd	s9,0(a5)
 137:tests/ConsumerProducer_CPP_API_test.hpp **** 
 1881              		.loc 3 137 13 is_stmt 1
 137:tests/ConsumerProducer_CPP_API_test.hpp **** 
 1882              		.loc 3 137 32 is_stmt 0
 1883 099c 13850C00 		mv	a0,s9
 1884 09a0 97000000 		call	_ZN6Thread5startEv@plt
 1884      E7800000 
 1885              	.LVL217:
 131:tests/ConsumerProducer_CPP_API_test.hpp ****             threadData[i].id = i;
 1886              		.loc 3 131 9 is_stmt 1
 1887 09a8 1B091900 		addiw	s2,s2,1
 1888              	.LVL218:
 1889              	.L90:
 131:tests/ConsumerProducer_CPP_API_test.hpp ****             threadData[i].id = i;
 1890              		.loc 3 131 27 discriminator 1
 1891 09ac 63523905 		bge	s2,s3,.L89
 132:tests/ConsumerProducer_CPP_API_test.hpp ****             threadData[i].buffer = buffer;
 1892              		.loc 3 132 13
 132:tests/ConsumerProducer_CPP_API_test.hpp ****             threadData[i].buffer = buffer;
 1893              		.loc 3 132 30 is_stmt 0
 1894 09b0 93141900 		slli	s1,s2,1
 1895 09b4 B3842401 		add	s1,s1,s2
 1896 09b8 93943400 		slli	s1,s1,3
 1897 09bc B3049B00 		add	s1,s6,s1
 1898 09c0 23A02401 		sw	s2,0(s1)
 133:tests/ConsumerProducer_CPP_API_test.hpp ****             threadData[i].sem = waitForAll;
 1899              		.loc 3 133 13 is_stmt 1
 133:tests/ConsumerProducer_CPP_API_test.hpp ****             threadData[i].sem = waitForAll;
GAS LISTING /tmp/ccbTlbUb.s 			page 47


 1900              		.loc 3 133 34 is_stmt 0
 1901 09c4 23B45401 		sd	s5,8(s1)
 134:tests/ConsumerProducer_CPP_API_test.hpp **** 
 1902              		.loc 3 134 13 is_stmt 1
 134:tests/ConsumerProducer_CPP_API_test.hpp **** 
 1903              		.loc 3 134 31 is_stmt 0
 1904 09c8 97070000 		ld	a5,.LANCHOR0+24
 1904      83B70700 
 1905 09d0 23B8F400 		sd	a5,16(s1)
 136:tests/ConsumerProducer_CPP_API_test.hpp ****             producers[i]->start();
 1906              		.loc 3 136 13 is_stmt 1
 136:tests/ConsumerProducer_CPP_API_test.hpp ****             producers[i]->start();
 1907              		.loc 3 136 55 is_stmt 0
 1908 09d4 13058001 		li	a0,24
 1909 09d8 97000000 		call	_Znwm@plt
 1909      E7800000 
 1910              	.LVL219:
 1911              	.LEHE8:
 1912 09e0 930C0500 		mv	s9,a0
 1913              	.LVL220:
 1914              	.LEHB9:
 1915              	.LBB61:
 1916              	.LBB60:
  48:tests/ConsumerProducer_CPP_API_test.hpp **** 
 1917              		.loc 3 48 54
 1918 09e4 97000000 		call	_ZN6ThreadC2Ev@plt
 1918      E7800000 
 1919              	.LVL221:
 1920              	.LEHE9:
 1921 09ec 6FF05FF9 		j	.L114
 1922              	.LVL222:
 1923              	.L89:
 1924              	.LBE60:
 1925              	.LBE61:
 1926              	.LBE57:
 141:tests/ConsumerProducer_CPP_API_test.hpp **** 
 1927              		.loc 3 141 9 is_stmt 1
 1928              	.LEHB10:
 141:tests/ConsumerProducer_CPP_API_test.hpp **** 
 1929              		.loc 3 141 25 is_stmt 0
 1930 09f0 97000000 		call	_ZN6Thread8dispatchEv@plt
 1930      E7800000 
 1931              	.LVL223:
 1932              	.LBB62:
 143:tests/ConsumerProducer_CPP_API_test.hpp ****             waitForAll->wait();
 1933              		.loc 3 143 18
 1934 09f8 93040000 		li	s1,0
 1935              	.L92:
 1936              	.LVL224:
 143:tests/ConsumerProducer_CPP_API_test.hpp ****             waitForAll->wait();
 1937              		.loc 3 143 27 is_stmt 1 discriminator 1
 1938 09fc 63CE9900 		bgt	s1,s3,.L91
 144:tests/ConsumerProducer_CPP_API_test.hpp ****         }
 1939              		.loc 3 144 13
 144:tests/ConsumerProducer_CPP_API_test.hpp ****         }
 1940              		.loc 3 144 29 is_stmt 0
 1941 0a00 17050000 		ld	a0,.LANCHOR0+24
GAS LISTING /tmp/ccbTlbUb.s 			page 48


 1941      03350500 
 1942 0a08 97000000 		call	_ZN9Semaphore4waitEv@plt
 1942      E7800000 
 1943              	.LVL225:
 143:tests/ConsumerProducer_CPP_API_test.hpp ****             waitForAll->wait();
 1944              		.loc 3 143 9 is_stmt 1
 1945 0a10 9B841400 		addiw	s1,s1,1
 1946              	.LVL226:
 1947 0a14 6FF09FFE 		j	.L92
 1948              	.LVL227:
 1949              	.L91:
 1950              	.LBE62:
 147:tests/ConsumerProducer_CPP_API_test.hpp ****         for (int i = 0; i < threadNum; i++) {
 1951              		.loc 3 147 9
 147:tests/ConsumerProducer_CPP_API_test.hpp ****         for (int i = 0; i < threadNum; i++) {
 1952              		.loc 3 147 16 is_stmt 0
 1953 0a18 17050000 		ld	a0,.LANCHOR0+24
 1953      03350500 
 147:tests/ConsumerProducer_CPP_API_test.hpp ****         for (int i = 0; i < threadNum; i++) {
 1954              		.loc 3 147 26
 1955 0a20 63080500 		beqz	a0,.L93
 147:tests/ConsumerProducer_CPP_API_test.hpp ****         for (int i = 0; i < threadNum; i++) {
 1956              		.loc 3 147 16 discriminator 1
 1957 0a24 83370500 		ld	a5,0(a0)
 1958 0a28 83B78700 		ld	a5,8(a5)
 1959 0a2c E7800700 		jalr	a5
 1960              	.LVL228:
 1961              	.L93:
 1962              	.LBB63:
 143:tests/ConsumerProducer_CPP_API_test.hpp ****             waitForAll->wait();
 1963              		.loc 3 143 18 discriminator 1
 1964 0a30 93040000 		li	s1,0
 1965              	.LVL229:
 1966 0a34 6F008000 		j	.L96
 1967              	.LVL230:
 1968              	.L95:
 1969              	.LBE63:
 1970              	.LBB64:
 148:tests/ConsumerProducer_CPP_API_test.hpp ****             delete producers[i];
 1971              		.loc 3 148 9 is_stmt 1 discriminator 2
 1972 0a38 9B841400 		addiw	s1,s1,1
 1973              	.LVL231:
 1974              	.L96:
 148:tests/ConsumerProducer_CPP_API_test.hpp ****             delete producers[i];
 1975              		.loc 3 148 27 discriminator 1
 1976 0a3c 63D23403 		bge	s1,s3,.L94
 149:tests/ConsumerProducer_CPP_API_test.hpp ****         }
 1977              		.loc 3 149 13
 149:tests/ConsumerProducer_CPP_API_test.hpp ****         }
 1978              		.loc 3 149 31 is_stmt 0
 1979 0a40 93973400 		slli	a5,s1,3
 1980 0a44 B307FA00 		add	a5,s4,a5
 1981 0a48 03B50700 		ld	a0,0(a5)
 149:tests/ConsumerProducer_CPP_API_test.hpp ****         }
 1982              		.loc 3 149 32
 1983 0a4c E30605FE 		beqz	a0,.L95
 149:tests/ConsumerProducer_CPP_API_test.hpp ****         }
GAS LISTING /tmp/ccbTlbUb.s 			page 49


 1984              		.loc 3 149 31 discriminator 1
 1985 0a50 83370500 		ld	a5,0(a0)
 1986 0a54 83B78700 		ld	a5,8(a5)
 1987 0a58 E7800700 		jalr	a5
 1988              	.LVL232:
 1989 0a5c 6FF0DFFD 		j	.L95
 1990              	.L94:
 1991              	.LBE64:
 151:tests/ConsumerProducer_CPP_API_test.hpp ****         delete buffer;
 1992              		.loc 3 151 9 is_stmt 1
 151:tests/ConsumerProducer_CPP_API_test.hpp ****         delete buffer;
 1993              		.loc 3 151 24 is_stmt 0
 1994 0a60 638A0B00 		beqz	s7,.L97
 151:tests/ConsumerProducer_CPP_API_test.hpp ****         delete buffer;
 1995              		.loc 3 151 16 discriminator 1
 1996 0a64 83B70B00 		ld	a5,0(s7)
 1997 0a68 83B78700 		ld	a5,8(a5)
 1998 0a6c 13850B00 		mv	a0,s7
 1999 0a70 E7800700 		jalr	a5
 2000              	.LVL233:
 2001              	.L97:
 2002              		.loc 3 152 9 is_stmt 1
 2003              		.loc 3 152 22 is_stmt 0
 2004 0a74 638E0A00 		beqz	s5,.L98
 2005              		.loc 3 152 16 discriminator 1
 2006 0a78 13850A00 		mv	a0,s5
 2007 0a7c 97000000 		call	_ZN9BufferCPPD1Ev@plt
 2007      E7800000 
 2008              	.LVL234:
 2009 0a84 13850A00 		mv	a0,s5
 2010 0a88 97000000 		call	_ZdlPv@plt
 2010      E7800000 
 2011              	.LVL235:
 2012              	.LEHE10:
 2013              	.L98:
 2014 0a90 13010C00 		mv	sp,s8
 2015              	.LVL236:
 2016              	.L85:
 153:tests/ConsumerProducer_CPP_API_test.hpp ****     }
 2017              		.loc 3 153 5
 2018 0a94 130104F8 		addi	sp,s0,-128
 2019              		.cfi_remember_state
 2020              		.cfi_def_cfa 2, 128
 2021 0a98 83308107 		ld	ra,120(sp)
 2022              		.cfi_restore 1
 2023 0a9c 03340107 		ld	s0,112(sp)
 2024              		.cfi_restore 8
 2025 0aa0 83348106 		ld	s1,104(sp)
 2026              		.cfi_restore 9
 2027 0aa4 03390106 		ld	s2,96(sp)
 2028              		.cfi_restore 18
 2029 0aa8 83398105 		ld	s3,88(sp)
 2030              		.cfi_restore 19
 2031              	.LVL237:
 2032 0aac 033A0105 		ld	s4,80(sp)
 2033              		.cfi_restore 20
 2034 0ab0 833A8104 		ld	s5,72(sp)
GAS LISTING /tmp/ccbTlbUb.s 			page 50


 2035              		.cfi_restore 21
 2036 0ab4 033B0104 		ld	s6,64(sp)
 2037              		.cfi_restore 22
 2038 0ab8 833B8103 		ld	s7,56(sp)
 2039              		.cfi_restore 23
 2040 0abc 033C0103 		ld	s8,48(sp)
 2041              		.cfi_restore 24
 2042 0ac0 833C8102 		ld	s9,40(sp)
 2043              		.cfi_restore 25
 2044 0ac4 13010108 		addi	sp,sp,128
 2045              		.cfi_def_cfa_offset 0
 2046 0ac8 67800000 		jr	ra
 2047              	.LVL238:
 2048              	.L105:
 2049              		.cfi_restore_state
 2050 0acc 93040500 		mv	s1,a0
 2051              	.LVL239:
 113:tests/ConsumerProducer_CPP_API_test.hpp **** 
 2052              		.loc 3 113 44
 2053 0ad0 13850A00 		mv	a0,s5
 2054 0ad4 97000000 		call	_ZdlPv@plt
 2054      E7800000 
 2055              	.LVL240:
 2056 0adc 13850400 		mv	a0,s1
 2057              	.LEHB11:
 2058 0ae0 97000000 		call	_Unwind_Resume@plt
 2058      E7800000 
 2059              	.LVL241:
 2060              	.LEHE11:
 2061              	.L106:
 2062 0ae8 13090500 		mv	s2,a0
 115:tests/ConsumerProducer_CPP_API_test.hpp ****         Thread *producers[threadNum];
 2063              		.loc 3 115 37
 2064 0aec 13850400 		mv	a0,s1
 2065 0af0 97000000 		call	_ZdlPv@plt
 2065      E7800000 
 2066              	.LVL242:
 2067 0af8 13050900 		mv	a0,s2
 2068              	.LEHB12:
 2069 0afc 97000000 		call	_Unwind_Resume@plt
 2069      E7800000 
 2070              	.LVL243:
 2071              	.LEHE12:
 2072              	.L107:
 2073 0b04 93040500 		mv	s1,a0
 2074              	.LVL244:
 122:tests/ConsumerProducer_CPP_API_test.hpp ****         consumer->start();
 2075              		.loc 3 122 63
 2076 0b08 13850B00 		mv	a0,s7
 2077 0b0c 97000000 		call	_ZdlPv@plt
 2077      E7800000 
 2078              	.LVL245:
 2079 0b14 13850400 		mv	a0,s1
 2080              	.LEHB13:
 2081 0b18 97000000 		call	_Unwind_Resume@plt
 2081      E7800000 
 2082              	.LVL246:
GAS LISTING /tmp/ccbTlbUb.s 			page 51


 2083              	.LEHE13:
 2084              	.L108:
 2085 0b20 13090500 		mv	s2,a0
 128:tests/ConsumerProducer_CPP_API_test.hpp ****         producers[0]->start();
 2086              		.loc 3 128 59
 2087 0b24 13850400 		mv	a0,s1
 2088 0b28 97000000 		call	_ZdlPv@plt
 2088      E7800000 
 2089              	.LVL247:
 2090 0b30 13050900 		mv	a0,s2
 2091              	.LEHB14:
 2092 0b34 97000000 		call	_Unwind_Resume@plt
 2092      E7800000 
 2093              	.LVL248:
 2094              	.LEHE14:
 2095              	.L109:
 2096 0b3c 93040500 		mv	s1,a0
 2097              	.LVL249:
 2098              	.LBB65:
 136:tests/ConsumerProducer_CPP_API_test.hpp ****             producers[i]->start();
 2099              		.loc 3 136 55
 2100 0b40 13850C00 		mv	a0,s9
 2101 0b44 97000000 		call	_ZdlPv@plt
 2101      E7800000 
 2102              	.LVL250:
 2103 0b4c 13850400 		mv	a0,s1
 2104              	.LEHB15:
 2105 0b50 97000000 		call	_Unwind_Resume@plt
 2105      E7800000 
 2106              	.LVL251:
 2107              	.LEHE15:
 2108              	.LBE65:
 2109              		.cfi_endproc
 2110              	.LFE34:
 2111              		.globl	__gxx_personality_v0
 2112              		.section	.gcc_except_table,"a",@progbits
 2113              	.LLSDA34:
 2114 0000 FF       		.byte	0xff
 2115 0001 FF       		.byte	0xff
 2116 0002 03       		.byte	0x3
 2117 0003 D001     		.byte	0xd0,0x1
 2118 0005 00000000 		.4byte	.LEHB0-.LFB34
 2119 0009 00000000 		.4byte	.LEHE0-.LEHB0
 2120 000d 00000000 		.4byte	0
 2121 0011 00       		.byte	0
 2122 0012 00000000 		.4byte	.LEHB1-.LFB34
 2123 0016 00000000 		.4byte	.LEHE1-.LEHB1
 2124 001a 00000000 		.4byte	.L105-.LFB34
 2125 001e 00       		.byte	0
 2126 001f 00000000 		.4byte	.LEHB2-.LFB34
 2127 0023 00000000 		.4byte	.LEHE2-.LEHB2
 2128 0027 00000000 		.4byte	0
 2129 002b 00       		.byte	0
 2130 002c 00000000 		.4byte	.LEHB3-.LFB34
 2131 0030 00000000 		.4byte	.LEHE3-.LEHB3
 2132 0034 00000000 		.4byte	.L106-.LFB34
 2133 0038 00       		.byte	0
GAS LISTING /tmp/ccbTlbUb.s 			page 52


 2134 0039 00000000 		.4byte	.LEHB4-.LFB34
 2135 003d 00000000 		.4byte	.LEHE4-.LEHB4
 2136 0041 00000000 		.4byte	0
 2137 0045 00       		.byte	0
 2138 0046 00000000 		.4byte	.LEHB5-.LFB34
 2139 004a 00000000 		.4byte	.LEHE5-.LEHB5
 2140 004e 00000000 		.4byte	.L107-.LFB34
 2141 0052 00       		.byte	0
 2142 0053 00000000 		.4byte	.LEHB6-.LFB34
 2143 0057 00000000 		.4byte	.LEHE6-.LEHB6
 2144 005b 00000000 		.4byte	0
 2145 005f 00       		.byte	0
 2146 0060 00000000 		.4byte	.LEHB7-.LFB34
 2147 0064 00000000 		.4byte	.LEHE7-.LEHB7
 2148 0068 00000000 		.4byte	.L108-.LFB34
 2149 006c 00       		.byte	0
 2150 006d 00000000 		.4byte	.LEHB8-.LFB34
 2151 0071 00000000 		.4byte	.LEHE8-.LEHB8
 2152 0075 00000000 		.4byte	0
 2153 0079 00       		.byte	0
 2154 007a 00000000 		.4byte	.LEHB9-.LFB34
 2155 007e 00000000 		.4byte	.LEHE9-.LEHB9
 2156 0082 00000000 		.4byte	.L109-.LFB34
 2157 0086 00       		.byte	0
 2158 0087 00000000 		.4byte	.LEHB10-.LFB34
 2159 008b 00000000 		.4byte	.LEHE10-.LEHB10
 2160 008f 00000000 		.4byte	0
 2161 0093 00       		.byte	0
 2162 0094 00000000 		.4byte	.LEHB11-.LFB34
 2163 0098 00000000 		.4byte	.LEHE11-.LEHB11
 2164 009c 00000000 		.4byte	0
 2165 00a0 00       		.byte	0
 2166 00a1 00000000 		.4byte	.LEHB12-.LFB34
 2167 00a5 00000000 		.4byte	.LEHE12-.LEHB12
 2168 00a9 00000000 		.4byte	0
 2169 00ad 00       		.byte	0
 2170 00ae 00000000 		.4byte	.LEHB13-.LFB34
 2171 00b2 00000000 		.4byte	.LEHE13-.LEHB13
 2172 00b6 00000000 		.4byte	0
 2173 00ba 00       		.byte	0
 2174 00bb 00000000 		.4byte	.LEHB14-.LFB34
 2175 00bf 00000000 		.4byte	.LEHE14-.LEHB14
 2176 00c3 00000000 		.4byte	0
 2177 00c7 00       		.byte	0
 2178 00c8 00000000 		.4byte	.LEHB15-.LFB34
 2179 00cc 00000000 		.4byte	.LEHE15-.LEHB15
 2180 00d0 00000000 		.4byte	0
 2181 00d4 00       		.byte	0
 2182              		.text
 2184              		.align	2
 2185              		.globl	_Z8userMainv
 2187              	_Z8userMainv:
 2188              	.LFB35:
 2189              		.file 4 "tests/userMain.cpp"
   1:tests/userMain.cpp **** #include "Threads_C_API_test.hpp" // zadatak 2, niti C API i sinhrona promena konteksta
   2:tests/userMain.cpp **** //#include "Threads_CPP_API_test.hpp" // zadatak 2., niti CPP API i sinhrona promena konteksta
   3:tests/userMain.cpp **** //
GAS LISTING /tmp/ccbTlbUb.s 			page 53


   4:tests/userMain.cpp **** //#include "ConsumerProducer_C_API_test.h" // zadatak 3., kompletan C API sa semaforima, sinhrona p
   5:tests/userMain.cpp **** //#include "ConsumerProducer_CPP_Sync_API_test.hpp" // zadatak 3., kompletan CPP API sa semaforima,
   6:tests/userMain.cpp **** 
   7:tests/userMain.cpp **** #include "ThreadSleep_C_API_test.hpp" // thread_sleep test C API
   8:tests/userMain.cpp **** #include "ConsumerProducer_CPP_API_test.hpp" // zadatak 4. CPP API i asinhrona promena konteksta
   9:tests/userMain.cpp **** 
  10:tests/userMain.cpp **** 
  11:tests/userMain.cpp **** void userMain() {
 2190              		.loc 4 11 17 is_stmt 1
 2191              		.cfi_startproc
 2192 0b58 130101FF 		addi	sp,sp,-16
 2193              		.cfi_def_cfa_offset 16
 2194 0b5c 23341100 		sd	ra,8(sp)
 2195 0b60 23308100 		sd	s0,0(sp)
 2196              		.cfi_offset 1, -8
 2197              		.cfi_offset 8, -16
 2198 0b64 13040101 		addi	s0,sp,16
 2199              		.cfi_def_cfa 8, 0
  12:tests/userMain.cpp **** //    Threads_C_API_test(); // zadatak 2., niti C API i sinhrona promena konteksta
  13:tests/userMain.cpp **** //    Threads_CPP_API_test(); // zadatak 2., niti CPP API i sinhrona promena konteksta
  14:tests/userMain.cpp **** 
  15:tests/userMain.cpp **** //    producerConsumer_C_API(); // zadatak 3., kompletan C API sa semaforima, sinhrona promena kont
  16:tests/userMain.cpp **** //    producerConsumer_CPP_Sync_API(); // zadatak 3., kompletan CPP API sa semaforima, sinhrona pro
  17:tests/userMain.cpp **** 
  18:tests/userMain.cpp ****     testSleeping(); // thread_sleep test C API
 2200              		.loc 4 18 5
 2201              		.loc 4 18 17 is_stmt 0
 2202 0b68 97000000 		call	_Z12testSleepingv
 2202      E7800000 
 2203              	.LVL252:
  19:tests/userMain.cpp ****     ConsumerProducerCPP::testConsumerProducer(); // zadatak 4. CPP API i asinhrona promena kontekst
 2204              		.loc 4 19 5 is_stmt 1
 2205              		.loc 4 19 46 is_stmt 0
 2206 0b70 97000000 		call	_ZN19ConsumerProducerCPP20testConsumerProducerEv
 2206      E7800000 
 2207              	.LVL253:
  20:tests/userMain.cpp **** 
  21:tests/userMain.cpp **** }...
 2208              		.loc 4 21 1
 2209 0b78 83308100 		ld	ra,8(sp)
 2210              		.cfi_restore 1
 2211 0b7c 03340100 		ld	s0,0(sp)
 2212              		.cfi_restore 8
 2213              		.cfi_def_cfa 2, 16
 2214 0b80 13010101 		addi	sp,sp,16
 2215              		.cfi_def_cfa_offset 0
 2216 0b84 67800000 		jr	ra
 2217              		.cfi_endproc
 2218              	.LFE35:
 2220              		.weak	_ZTVN19ConsumerProducerCPP16ProducerKeyboradE
 2221              		.section	.data.rel.ro.local._ZTVN19ConsumerProducerCPP16ProducerKeyboradE,"awG",@progbits,_ZTVN19C
 2222              		.align	3
 2225              	_ZTVN19ConsumerProducerCPP16ProducerKeyboradE:
 2226 0000 00000000 		.dword	0
 2226      00000000 
 2227 0008 00000000 		.dword	0
 2227      00000000 
GAS LISTING /tmp/ccbTlbUb.s 			page 54


 2228 0010 00000000 		.dword	_ZN19ConsumerProducerCPP16ProducerKeyboradD1Ev
 2228      00000000 
 2229 0018 00000000 		.dword	_ZN19ConsumerProducerCPP16ProducerKeyboradD0Ev
 2229      00000000 
 2230 0020 00000000 		.dword	_ZN19ConsumerProducerCPP16ProducerKeyborad3runEv
 2230      00000000 
 2231              		.weak	_ZTVN19ConsumerProducerCPP8ProducerE
 2232              		.section	.data.rel.ro.local._ZTVN19ConsumerProducerCPP8ProducerE,"awG",@progbits,_ZTVN19ConsumerPr
 2233              		.align	3
 2236              	_ZTVN19ConsumerProducerCPP8ProducerE:
 2237 0000 00000000 		.dword	0
 2237      00000000 
 2238 0008 00000000 		.dword	0
 2238      00000000 
 2239 0010 00000000 		.dword	_ZN19ConsumerProducerCPP8ProducerD1Ev
 2239      00000000 
 2240 0018 00000000 		.dword	_ZN19ConsumerProducerCPP8ProducerD0Ev
 2240      00000000 
 2241 0020 00000000 		.dword	_ZN19ConsumerProducerCPP8Producer3runEv
 2241      00000000 
 2242              		.weak	_ZTVN19ConsumerProducerCPP8ConsumerE
 2243              		.section	.data.rel.ro.local._ZTVN19ConsumerProducerCPP8ConsumerE,"awG",@progbits,_ZTVN19ConsumerPr
 2244              		.align	3
 2247              	_ZTVN19ConsumerProducerCPP8ConsumerE:
 2248 0000 00000000 		.dword	0
 2248      00000000 
 2249 0008 00000000 		.dword	0
 2249      00000000 
 2250 0010 00000000 		.dword	_ZN19ConsumerProducerCPP8ConsumerD1Ev
 2250      00000000 
 2251 0018 00000000 		.dword	_ZN19ConsumerProducerCPP8ConsumerD0Ev
 2251      00000000 
 2252 0020 00000000 		.dword	_ZN19ConsumerProducerCPP8Consumer3runEv
 2252      00000000 
 2253              		.globl	_ZN19ConsumerProducerCPP9threadEndE
 2254              		.globl	_ZN19ConsumerProducerCPP10waitForAllE
 2255              		.globl	finished
 2256              		.globl	finishedD
 2257              		.globl	finishedC
 2258              		.globl	finishedB
 2259              		.globl	finishedA
 2260              		.bss
 2261              		.align	3
 2262              		.set	.LANCHOR0,. + 0
 2265              	finishedA:
 2266 0000 00       		.zero	1
 2269              	finishedB:
 2270 0001 00       		.zero	1
 2271 0002 00000000 		.zero	6
 2271      0000
 2274              	finished:
 2275 0008 0000     		.zero	2
 2276 000a 0000     		.zero	2
 2279              	_ZN19ConsumerProducerCPP9threadEndE:
 2280 000c 00000000 		.zero	4
 2283              	finishedC:
 2284 0010 00       		.zero	1
GAS LISTING /tmp/ccbTlbUb.s 			page 55


 2287              	finishedD:
 2288 0011 00       		.zero	1
 2289 0012 00000000 		.zero	6
 2289      0000
 2292              	_ZN19ConsumerProducerCPP10waitForAllE:
 2293 0018 00000000 		.zero	8
 2293      00000000 
 2294              		.text
 2295              	.Letext0:
 2296              		.file 5 "tests/../h/../lib/hw.h"
 2297              		.file 6 "tests/../h/../h/_thread.hpp"
 2298              		.file 7 "tests/../h/syscall_cpp.hpp"
 2299              		.file 8 "tests/buffer_CPP_API.hpp"
 2300              		.file 9 "tests/../h/printing.hpp"
 2301              		.file 10 "tests/../h/syscall_c.h"
 7767              		.align	3
 7770              	DW.ref.__gxx_personality_v0:
 7771 0000 00000000 		.dword	__gxx_personality_v0
 7771      00000000 
 7772              		.ident	"GCC: (Ubuntu 9.4.0-1ubuntu1~20.04) 9.4.0"
 7773              		.section	.note.GNU-stack,"",@progbits
GAS LISTING /tmp/ccbTlbUb.s 			page 56

