GAS LISTING /tmp/cc4XBM2x.s 			page 1


   1              		.file	"userMain.cpp"
   2              		.option pic
   3              		.option norelax
   4              		.text
   5              	.Ltext0:
   6              		.section	.rodata.str1.8,"aMS",@progbits,1
   7              		.align	3
   8              	.LC0:
   9 0000 413A2069 		.string	"A: i="
   9      3D00
  10 0006 0000     		.align	3
  11              	.LC1:
  12 0008 0A00     		.string	"\n"
  13 000a 00000000 		.align	3
  13      0000
  14              	.LC2:
  15 0010 41206669 		.string	"A finished!\n"
  15      6E697368 
  15      6564210A 
  15      00
  16              		.text
  17              		.align	2
  18              		.globl	_Z11workerBodyAPv
  20              	_Z11workerBodyAPv:
  21              	.LFB13:
  22              		.file 1 "tests/Threads_C_API_test.hpp"
   1:tests/Threads_C_API_test.hpp **** #ifndef XV6_THREADS_C_API_TEST_HPP
   2:tests/Threads_C_API_test.hpp **** #define XV6_THREADS_C_API_TEST_HPP
   3:tests/Threads_C_API_test.hpp **** 
   4:tests/Threads_C_API_test.hpp **** #include "../h/syscall_c.h"
   5:tests/Threads_C_API_test.hpp **** 
   6:tests/Threads_C_API_test.hpp **** #include "../h/printing.hpp"
   7:tests/Threads_C_API_test.hpp **** 
   8:tests/Threads_C_API_test.hpp **** bool finishedA = false;
   9:tests/Threads_C_API_test.hpp **** bool finishedB = false;
  10:tests/Threads_C_API_test.hpp **** bool finishedC = false;
  11:tests/Threads_C_API_test.hpp **** bool finishedD = false;
  12:tests/Threads_C_API_test.hpp **** 
  13:tests/Threads_C_API_test.hpp **** uint64 fibonacci(uint64 n) {
  14:tests/Threads_C_API_test.hpp ****     if (n == 0 || n == 1) { return n; }
  15:tests/Threads_C_API_test.hpp ****     if (n % 10 == 0) { thread_dispatch(); }
  16:tests/Threads_C_API_test.hpp ****     return fibonacci(n - 1) + fibonacci(n - 2);
  17:tests/Threads_C_API_test.hpp **** }
  18:tests/Threads_C_API_test.hpp **** 
  19:tests/Threads_C_API_test.hpp **** void workerBodyA(void* arg) {
  23              		.loc 1 19 29
  24              		.cfi_startproc
  25              	.LVL0:
  26 0000 130101FE 		addi	sp,sp,-32
  27              		.cfi_def_cfa_offset 32
  28 0004 233C1100 		sd	ra,24(sp)
  29 0008 23388100 		sd	s0,16(sp)
  30 000c 23349100 		sd	s1,8(sp)
  31 0010 23302101 		sd	s2,0(sp)
  32              		.cfi_offset 1, -8
  33              		.cfi_offset 8, -16
  34              		.cfi_offset 9, -24
GAS LISTING /tmp/cc4XBM2x.s 			page 2


  35              		.cfi_offset 18, -32
  36 0014 13040102 		addi	s0,sp,32
  37              		.cfi_def_cfa 8, 0
  20:tests/Threads_C_API_test.hpp ****     for (uint64 i = 0; i < 10; i++) {
  38              		.loc 1 20 5
  39              	.LVL1:
  40              	.LBB44:
  41              		.loc 1 20 17 is_stmt 0
  42 0018 13090000 		li	s2,0
  43 001c 6F008003 		j	.L7
  44              	.LVL2:
  45              	.L4:
  46              	.LBB45:
  47              	.LBB46:
  48              	.LBB47:
  21:tests/Threads_C_API_test.hpp ****         printString("A: i="); printInt(i); printString("\n");
  22:tests/Threads_C_API_test.hpp ****         for (uint64 j = 0; j < 10000; j++) {
  23:tests/Threads_C_API_test.hpp ****             for (uint64 k = 0; k < 30000; k++) { /* busy wait */ }
  24:tests/Threads_C_API_test.hpp ****             thread_dispatch();
  49              		.loc 1 24 13 is_stmt 1 discriminator 2
  50              		.loc 1 24 28 is_stmt 0 discriminator 2
  51 0020 97000000 		call	_Z15thread_dispatchv@plt
  51      E7800000 
  52              	.LVL3:
  53              	.LBE47:
  22:tests/Threads_C_API_test.hpp ****             for (uint64 k = 0; k < 30000; k++) { /* busy wait */ }
  54              		.loc 1 22 9 is_stmt 1 discriminator 2
  55 0028 93841400 		addi	s1,s1,1
  56              	.LVL4:
  57              	.L6:
  22:tests/Threads_C_API_test.hpp ****             for (uint64 k = 0; k < 30000; k++) { /* busy wait */ }
  58              		.loc 1 22 30 discriminator 1
  59 002c B7270000 		li	a5,8192
  60 0030 9387F770 		addi	a5,a5,1807
  61 0034 63EE9700 		bgtu	s1,a5,.L3
  62              	.LBB49:
  63              	.LBB48:
  23:tests/Threads_C_API_test.hpp ****             thread_dispatch();
  64              		.loc 1 23 25 is_stmt 0
  65 0038 13070000 		li	a4,0
  66              	.L5:
  67              	.LVL5:
  23:tests/Threads_C_API_test.hpp ****             thread_dispatch();
  68              		.loc 1 23 34 is_stmt 1 discriminator 3
  69 003c B7770000 		li	a5,28672
  70 0040 9387F752 		addi	a5,a5,1327
  71 0044 E3EEE7FC 		bgtu	a4,a5,.L4
  23:tests/Threads_C_API_test.hpp ****             thread_dispatch();
  72              		.loc 1 23 13 discriminator 2
  73 0048 13071700 		addi	a4,a4,1
  74              	.LVL6:
  75 004c 6FF01FFF 		j	.L5
  76              	.LVL7:
  77              	.L3:
  78              	.LBE48:
  79              	.LBE49:
  80              	.LBE46:
GAS LISTING /tmp/cc4XBM2x.s 			page 3


  81              	.LBE45:
  20:tests/Threads_C_API_test.hpp ****         printString("A: i="); printInt(i); printString("\n");
  82              		.loc 1 20 5 discriminator 2
  83 0050 13091900 		addi	s2,s2,1
  84              	.LVL8:
  85              	.L7:
  20:tests/Threads_C_API_test.hpp ****         printString("A: i="); printInt(i); printString("\n");
  86              		.loc 1 20 26 discriminator 1
  87 0054 93079000 		li	a5,9
  88 0058 63E02705 		bgtu	s2,a5,.L2
  89              	.LBB51:
  21:tests/Threads_C_API_test.hpp ****         for (uint64 j = 0; j < 10000; j++) {
  90              		.loc 1 21 9
  21:tests/Threads_C_API_test.hpp ****         for (uint64 j = 0; j < 10000; j++) {
  91              		.loc 1 21 20 is_stmt 0
  92 005c 17050000 		lla	a0,.LC0
  92      13050500 
  93 0064 97000000 		call	_Z11printStringPKc@plt
  93      E7800000 
  94              	.LVL9:
  21:tests/Threads_C_API_test.hpp ****         for (uint64 j = 0; j < 10000; j++) {
  95              		.loc 1 21 31 is_stmt 1
  21:tests/Threads_C_API_test.hpp ****         for (uint64 j = 0; j < 10000; j++) {
  96              		.loc 1 21 39 is_stmt 0
  97 006c 13060000 		li	a2,0
  98 0070 9305A000 		li	a1,10
  99 0074 1B050900 		sext.w	a0,s2
 100 0078 97000000 		call	_Z8printIntiii@plt
 100      E7800000 
 101              	.LVL10:
  21:tests/Threads_C_API_test.hpp ****         for (uint64 j = 0; j < 10000; j++) {
 102              		.loc 1 21 44 is_stmt 1
  21:tests/Threads_C_API_test.hpp ****         for (uint64 j = 0; j < 10000; j++) {
 103              		.loc 1 21 55 is_stmt 0
 104 0080 17050000 		lla	a0,.LC1
 104      13050500 
 105 0088 97000000 		call	_Z11printStringPKc@plt
 105      E7800000 
 106              	.LVL11:
  22:tests/Threads_C_API_test.hpp ****             for (uint64 k = 0; k < 30000; k++) { /* busy wait */ }
 107              		.loc 1 22 9 is_stmt 1
 108              	.LBB50:
  22:tests/Threads_C_API_test.hpp ****             for (uint64 k = 0; k < 30000; k++) { /* busy wait */ }
 109              		.loc 1 22 21 is_stmt 0
 110 0090 93040000 		li	s1,0
 111 0094 6FF09FF9 		j	.L6
 112              	.LVL12:
 113              	.L2:
 114              	.LBE50:
 115              	.LBE51:
 116              	.LBE44:
  25:tests/Threads_C_API_test.hpp ****         }
  26:tests/Threads_C_API_test.hpp ****     }
  27:tests/Threads_C_API_test.hpp ****     printString("A finished!\n");
 117              		.loc 1 27 5 is_stmt 1
 118              		.loc 1 27 16 is_stmt 0
 119 0098 17050000 		lla	a0,.LC2
GAS LISTING /tmp/cc4XBM2x.s 			page 4


 119      13050500 
 120 00a0 97000000 		call	_Z11printStringPKc@plt
 120      E7800000 
 121              	.LVL13:
  28:tests/Threads_C_API_test.hpp ****     finishedA = true;
 122              		.loc 1 28 5 is_stmt 1
 123              		.loc 1 28 15 is_stmt 0
 124 00a8 93071000 		li	a5,1
 125 00ac 17070000 		sb	a5,.LANCHOR0,a4
 125      2300F700 
  29:tests/Threads_C_API_test.hpp **** }
 126              		.loc 1 29 1
 127 00b4 83308101 		ld	ra,24(sp)
 128              		.cfi_restore 1
 129 00b8 03340101 		ld	s0,16(sp)
 130              		.cfi_restore 8
 131              		.cfi_def_cfa 2, 32
 132 00bc 83348100 		ld	s1,8(sp)
 133              		.cfi_restore 9
 134 00c0 03390100 		ld	s2,0(sp)
 135              		.cfi_restore 18
 136              	.LVL14:
 137 00c4 13010102 		addi	sp,sp,32
 138              		.cfi_def_cfa_offset 0
 139 00c8 67800000 		jr	ra
 140              		.cfi_endproc
 141              	.LFE13:
 143              		.section	.rodata.str1.8
 144 001d 000000   		.align	3
 145              	.LC3:
 146 0020 423A2069 		.string	"B: i="
 146      3D00
 147 0026 0000     		.align	3
 148              	.LC4:
 149 0028 42206669 		.string	"B finished!\n"
 149      6E697368 
 149      6564210A 
 149      00
 150              		.text
 151              		.align	2
 152              		.globl	_Z11workerBodyBPv
 154              	_Z11workerBodyBPv:
 155              	.LFB14:
  30:tests/Threads_C_API_test.hpp **** 
  31:tests/Threads_C_API_test.hpp **** void workerBodyB(void* arg) {
 156              		.loc 1 31 29 is_stmt 1
 157              		.cfi_startproc
 158              	.LVL15:
 159 00cc 130101FE 		addi	sp,sp,-32
 160              		.cfi_def_cfa_offset 32
 161 00d0 233C1100 		sd	ra,24(sp)
 162 00d4 23388100 		sd	s0,16(sp)
 163 00d8 23349100 		sd	s1,8(sp)
 164 00dc 23302101 		sd	s2,0(sp)
 165              		.cfi_offset 1, -8
 166              		.cfi_offset 8, -16
 167              		.cfi_offset 9, -24
GAS LISTING /tmp/cc4XBM2x.s 			page 5


 168              		.cfi_offset 18, -32
 169 00e0 13040102 		addi	s0,sp,32
 170              		.cfi_def_cfa 8, 0
  32:tests/Threads_C_API_test.hpp ****     for (uint64 i = 0; i < 16; i++) {
 171              		.loc 1 32 5
 172              	.LVL16:
 173              	.LBB52:
 174              		.loc 1 32 17 is_stmt 0
 175 00e4 13090000 		li	s2,0
 176 00e8 6F008003 		j	.L15
 177              	.LVL17:
 178              	.L12:
 179              	.LBB53:
 180              	.LBB54:
 181              	.LBB55:
  33:tests/Threads_C_API_test.hpp ****         printString("B: i="); printInt(i); printString("\n");
  34:tests/Threads_C_API_test.hpp ****         for (uint64 j = 0; j < 10000; j++) {
  35:tests/Threads_C_API_test.hpp ****             for (uint64 k = 0; k < 30000; k++) { /* busy wait */ }
  36:tests/Threads_C_API_test.hpp ****             thread_dispatch();
 182              		.loc 1 36 13 is_stmt 1 discriminator 2
 183              		.loc 1 36 28 is_stmt 0 discriminator 2
 184 00ec 97000000 		call	_Z15thread_dispatchv@plt
 184      E7800000 
 185              	.LVL18:
 186              	.LBE55:
  34:tests/Threads_C_API_test.hpp ****             for (uint64 k = 0; k < 30000; k++) { /* busy wait */ }
 187              		.loc 1 34 9 is_stmt 1 discriminator 2
 188 00f4 93841400 		addi	s1,s1,1
 189              	.LVL19:
 190              	.L14:
  34:tests/Threads_C_API_test.hpp ****             for (uint64 k = 0; k < 30000; k++) { /* busy wait */ }
 191              		.loc 1 34 30 discriminator 1
 192 00f8 B7270000 		li	a5,8192
 193 00fc 9387F770 		addi	a5,a5,1807
 194 0100 63EE9700 		bgtu	s1,a5,.L11
 195              	.LBB57:
 196              	.LBB56:
  35:tests/Threads_C_API_test.hpp ****             thread_dispatch();
 197              		.loc 1 35 25 is_stmt 0
 198 0104 13070000 		li	a4,0
 199              	.L13:
 200              	.LVL20:
  35:tests/Threads_C_API_test.hpp ****             thread_dispatch();
 201              		.loc 1 35 34 is_stmt 1 discriminator 3
 202 0108 B7770000 		li	a5,28672
 203 010c 9387F752 		addi	a5,a5,1327
 204 0110 E3EEE7FC 		bgtu	a4,a5,.L12
  35:tests/Threads_C_API_test.hpp ****             thread_dispatch();
 205              		.loc 1 35 13 discriminator 2
 206 0114 13071700 		addi	a4,a4,1
 207              	.LVL21:
 208 0118 6FF01FFF 		j	.L13
 209              	.LVL22:
 210              	.L11:
 211              	.LBE56:
 212              	.LBE57:
 213              	.LBE54:
GAS LISTING /tmp/cc4XBM2x.s 			page 6


 214              	.LBE53:
  32:tests/Threads_C_API_test.hpp ****         printString("B: i="); printInt(i); printString("\n");
 215              		.loc 1 32 5 discriminator 2
 216 011c 13091900 		addi	s2,s2,1
 217              	.LVL23:
 218              	.L15:
  32:tests/Threads_C_API_test.hpp ****         printString("B: i="); printInt(i); printString("\n");
 219              		.loc 1 32 26 discriminator 1
 220 0120 9307F000 		li	a5,15
 221 0124 63E02705 		bgtu	s2,a5,.L10
 222              	.LBB59:
  33:tests/Threads_C_API_test.hpp ****         for (uint64 j = 0; j < 10000; j++) {
 223              		.loc 1 33 9
  33:tests/Threads_C_API_test.hpp ****         for (uint64 j = 0; j < 10000; j++) {
 224              		.loc 1 33 20 is_stmt 0
 225 0128 17050000 		lla	a0,.LC3
 225      13050500 
 226 0130 97000000 		call	_Z11printStringPKc@plt
 226      E7800000 
 227              	.LVL24:
  33:tests/Threads_C_API_test.hpp ****         for (uint64 j = 0; j < 10000; j++) {
 228              		.loc 1 33 31 is_stmt 1
  33:tests/Threads_C_API_test.hpp ****         for (uint64 j = 0; j < 10000; j++) {
 229              		.loc 1 33 39 is_stmt 0
 230 0138 13060000 		li	a2,0
 231 013c 9305A000 		li	a1,10
 232 0140 1B050900 		sext.w	a0,s2
 233 0144 97000000 		call	_Z8printIntiii@plt
 233      E7800000 
 234              	.LVL25:
  33:tests/Threads_C_API_test.hpp ****         for (uint64 j = 0; j < 10000; j++) {
 235              		.loc 1 33 44 is_stmt 1
  33:tests/Threads_C_API_test.hpp ****         for (uint64 j = 0; j < 10000; j++) {
 236              		.loc 1 33 55 is_stmt 0
 237 014c 17050000 		lla	a0,.LC1
 237      13050500 
 238 0154 97000000 		call	_Z11printStringPKc@plt
 238      E7800000 
 239              	.LVL26:
  34:tests/Threads_C_API_test.hpp ****             for (uint64 k = 0; k < 30000; k++) { /* busy wait */ }
 240              		.loc 1 34 9 is_stmt 1
 241              	.LBB58:
  34:tests/Threads_C_API_test.hpp ****             for (uint64 k = 0; k < 30000; k++) { /* busy wait */ }
 242              		.loc 1 34 21 is_stmt 0
 243 015c 93040000 		li	s1,0
 244 0160 6FF09FF9 		j	.L14
 245              	.LVL27:
 246              	.L10:
 247              	.LBE58:
 248              	.LBE59:
 249              	.LBE52:
  37:tests/Threads_C_API_test.hpp ****         }
  38:tests/Threads_C_API_test.hpp ****     }
  39:tests/Threads_C_API_test.hpp ****     printString("B finished!\n");
 250              		.loc 1 39 5 is_stmt 1
 251              		.loc 1 39 16 is_stmt 0
 252 0164 17050000 		lla	a0,.LC4
GAS LISTING /tmp/cc4XBM2x.s 			page 7


 252      13050500 
 253 016c 97000000 		call	_Z11printStringPKc@plt
 253      E7800000 
 254              	.LVL28:
  40:tests/Threads_C_API_test.hpp ****     finishedB = true;
 255              		.loc 1 40 5 is_stmt 1
 256              		.loc 1 40 15 is_stmt 0
 257 0174 93071000 		li	a5,1
 258 0178 17070000 		sb	a5,.LANCHOR0+1,a4
 258      2300F700 
  41:tests/Threads_C_API_test.hpp ****     thread_dispatch();
 259              		.loc 1 41 5 is_stmt 1
 260              		.loc 1 41 20 is_stmt 0
 261 0180 97000000 		call	_Z15thread_dispatchv@plt
 261      E7800000 
 262              	.LVL29:
  42:tests/Threads_C_API_test.hpp **** }
 263              		.loc 1 42 1
 264 0188 83308101 		ld	ra,24(sp)
 265              		.cfi_restore 1
 266 018c 03340101 		ld	s0,16(sp)
 267              		.cfi_restore 8
 268              		.cfi_def_cfa 2, 32
 269 0190 83348100 		ld	s1,8(sp)
 270              		.cfi_restore 9
 271 0194 03390100 		ld	s2,0(sp)
 272              		.cfi_restore 18
 273              	.LVL30:
 274 0198 13010102 		addi	sp,sp,32
 275              		.cfi_def_cfa_offset 0
 276 019c 67800000 		jr	ra
 277              		.cfi_endproc
 278              	.LFE14:
 280              		.section	.text._ZN19ConsumerProducerCPP16ProducerKeyborad3runEv,"axG",@progbits,_ZN19ConsumerProdu
 281              		.align	2
 282              		.weak	_ZN19ConsumerProducerCPP16ProducerKeyborad3runEv
 284              	_ZN19ConsumerProducerCPP16ProducerKeyborad3runEv:
 285              	.LFB41:
 286              		.file 2 "tests/ConsumerProducer_CPP_API_test.hpp"
   1:tests/ConsumerProducer_CPP_API_test.hpp **** //
   2:tests/ConsumerProducer_CPP_API_test.hpp **** // Created by os on 4/17/22.
   3:tests/ConsumerProducer_CPP_API_test.hpp **** //
   4:tests/ConsumerProducer_CPP_API_test.hpp **** 
   5:tests/ConsumerProducer_CPP_API_test.hpp **** #ifndef XV6_CONSUMERPRODUCER_CPP_API_TEST_HPP
   6:tests/ConsumerProducer_CPP_API_test.hpp **** #define XV6_CONSUMERPRODUCER_CPP_API_TEST_HPP
   7:tests/ConsumerProducer_CPP_API_test.hpp **** 
   8:tests/ConsumerProducer_CPP_API_test.hpp **** #include "../h/syscall_cpp.hpp"
   9:tests/ConsumerProducer_CPP_API_test.hpp **** 
  10:tests/ConsumerProducer_CPP_API_test.hpp **** #include "buffer_CPP_API.hpp"
  11:tests/ConsumerProducer_CPP_API_test.hpp **** #include "../h/printing.hpp"
  12:tests/ConsumerProducer_CPP_API_test.hpp **** 
  13:tests/ConsumerProducer_CPP_API_test.hpp **** namespace ConsumerProducerCPP {
  14:tests/ConsumerProducer_CPP_API_test.hpp **** 
  15:tests/ConsumerProducer_CPP_API_test.hpp ****     Semaphore *waitForAll;
  16:tests/ConsumerProducer_CPP_API_test.hpp **** 
  17:tests/ConsumerProducer_CPP_API_test.hpp ****     struct thread_data {
  18:tests/ConsumerProducer_CPP_API_test.hpp ****         int id;
GAS LISTING /tmp/cc4XBM2x.s 			page 8


  19:tests/ConsumerProducer_CPP_API_test.hpp ****         BufferCPP *buffer;
  20:tests/ConsumerProducer_CPP_API_test.hpp ****         Semaphore *sem;
  21:tests/ConsumerProducer_CPP_API_test.hpp ****     };
  22:tests/ConsumerProducer_CPP_API_test.hpp **** 
  23:tests/ConsumerProducer_CPP_API_test.hpp ****     volatile int threadEnd = 0;
  24:tests/ConsumerProducer_CPP_API_test.hpp **** 
  25:tests/ConsumerProducer_CPP_API_test.hpp ****     class ProducerKeyborad : public Thread {
  26:tests/ConsumerProducer_CPP_API_test.hpp ****         thread_data *td;
  27:tests/ConsumerProducer_CPP_API_test.hpp ****     public:
  28:tests/ConsumerProducer_CPP_API_test.hpp ****         ProducerKeyborad(thread_data *_td) : Thread(), td(_td) {}
  29:tests/ConsumerProducer_CPP_API_test.hpp **** 
  30:tests/ConsumerProducer_CPP_API_test.hpp ****         void run() override {
 287              		.loc 2 30 14 is_stmt 1
 288              		.cfi_startproc
 289              	.LVL31:
 290 0000 130101FE 		addi	sp,sp,-32
 291              		.cfi_def_cfa_offset 32
 292 0004 233C1100 		sd	ra,24(sp)
 293 0008 23388100 		sd	s0,16(sp)
 294 000c 23349100 		sd	s1,8(sp)
 295              		.cfi_offset 1, -8
 296              		.cfi_offset 8, -16
 297              		.cfi_offset 9, -24
 298 0010 13040102 		addi	s0,sp,32
 299              		.cfi_def_cfa 8, 0
 300 0014 93040500 		mv	s1,a0
  31:tests/ConsumerProducer_CPP_API_test.hpp ****             int key;
 301              		.loc 2 31 13
  32:tests/ConsumerProducer_CPP_API_test.hpp ****             int i = 0;
 302              		.loc 2 32 13
 303              	.LVL32:
 304              	.L19:
  33:tests/ConsumerProducer_CPP_API_test.hpp ****             while ((key = getc()) != 0x1b) {
 305              		.loc 2 33 13
 306              		.loc 2 33 35
 307              		.loc 2 33 31 is_stmt 0
 308 0018 97000000 		call	_Z4getcv@plt
 308      E7800000 
 309              	.LVL33:
 310              		.loc 2 33 25
 311 0020 9B050500 		sext.w	a1,a0
 312              	.LVL34:
 313              		.loc 2 33 35
 314 0024 9307B001 		li	a5,27
 315 0028 638CF500 		beq	a1,a5,.L18
  34:tests/ConsumerProducer_CPP_API_test.hpp ****                 td->buffer->put(key);
 316              		.loc 2 34 17 is_stmt 1
 317 002c 83B70401 		ld	a5,16(s1)
 318              		.loc 2 34 32 is_stmt 0
 319 0030 03B58700 		ld	a0,8(a5)
 320 0034 97000000 		call	_ZN9BufferCPP3putEi@plt
 320      E7800000 
 321              	.LVL35:
  35:tests/ConsumerProducer_CPP_API_test.hpp ****                 i++;
 322              		.loc 2 35 17 is_stmt 1
  33:tests/ConsumerProducer_CPP_API_test.hpp ****             while ((key = getc()) != 0x1b) {
 323              		.loc 2 33 13 is_stmt 0
GAS LISTING /tmp/cc4XBM2x.s 			page 9


 324 003c 6FF0DFFD 		j	.L19
 325              	.LVL36:
 326              	.L18:
  36:tests/ConsumerProducer_CPP_API_test.hpp ****             }
  37:tests/ConsumerProducer_CPP_API_test.hpp **** 
  38:tests/ConsumerProducer_CPP_API_test.hpp ****             threadEnd = 1;
 327              		.loc 2 38 13 is_stmt 1
 328              		.loc 2 38 23 is_stmt 0
 329 0040 93071000 		li	a5,1
 330 0044 17070000 		sw	a5,.LANCHOR0+4,a4
 330      2320F700 
  39:tests/ConsumerProducer_CPP_API_test.hpp ****             td->buffer->put('!');
 331              		.loc 2 39 13 is_stmt 1
 332 004c 83B70401 		ld	a5,16(s1)
 333              		.loc 2 39 28 is_stmt 0
 334 0050 93051002 		li	a1,33
 335              	.LVL37:
 336 0054 03B58700 		ld	a0,8(a5)
 337              	.LVL38:
 338 0058 97000000 		call	_ZN9BufferCPP3putEi@plt
 338      E7800000 
 339              	.LVL39:
  40:tests/ConsumerProducer_CPP_API_test.hpp **** 
  41:tests/ConsumerProducer_CPP_API_test.hpp ****             td->sem->signal();
 340              		.loc 2 41 13 is_stmt 1
 341 0060 83B70401 		ld	a5,16(s1)
 342              		.loc 2 41 28 is_stmt 0
 343 0064 03B50701 		ld	a0,16(a5)
 344 0068 97000000 		call	_ZN9Semaphore6signalEv@plt
 344      E7800000 
 345              	.LVL40:
  42:tests/ConsumerProducer_CPP_API_test.hpp ****         }
 346              		.loc 2 42 9
 347 0070 83308101 		ld	ra,24(sp)
 348              		.cfi_restore 1
 349 0074 03340101 		ld	s0,16(sp)
 350              		.cfi_restore 8
 351              		.cfi_def_cfa 2, 32
 352 0078 83348100 		ld	s1,8(sp)
 353              		.cfi_restore 9
 354              	.LVL41:
 355 007c 13010102 		addi	sp,sp,32
 356              		.cfi_def_cfa_offset 0
 357 0080 67800000 		jr	ra
 358              		.cfi_endproc
 359              	.LFE41:
 361              		.section	.text._ZN19ConsumerProducerCPP8Consumer3runEv,"axG",@progbits,_ZN19ConsumerProducerCPP8Co
 362              		.align	2
 363              		.weak	_ZN19ConsumerProducerCPP8Consumer3runEv
 365              	_ZN19ConsumerProducerCPP8Consumer3runEv:
 366              	.LFB49:
  43:tests/ConsumerProducer_CPP_API_test.hpp ****     };
  44:tests/ConsumerProducer_CPP_API_test.hpp **** 
  45:tests/ConsumerProducer_CPP_API_test.hpp ****     class Producer : public Thread {
  46:tests/ConsumerProducer_CPP_API_test.hpp ****         thread_data *td;
  47:tests/ConsumerProducer_CPP_API_test.hpp ****     public:
  48:tests/ConsumerProducer_CPP_API_test.hpp ****         Producer(thread_data *_td) : Thread(), td(_td) {}
GAS LISTING /tmp/cc4XBM2x.s 			page 10


  49:tests/ConsumerProducer_CPP_API_test.hpp **** 
  50:tests/ConsumerProducer_CPP_API_test.hpp ****         void run() override {
  51:tests/ConsumerProducer_CPP_API_test.hpp ****             int i = 0;
  52:tests/ConsumerProducer_CPP_API_test.hpp ****             while (!threadEnd) {
  53:tests/ConsumerProducer_CPP_API_test.hpp ****                 td->buffer->put(td->id + '0');
  54:tests/ConsumerProducer_CPP_API_test.hpp ****                 i++;
  55:tests/ConsumerProducer_CPP_API_test.hpp ****                 Thread::sleep((i+td->id)%5);
  56:tests/ConsumerProducer_CPP_API_test.hpp ****             }
  57:tests/ConsumerProducer_CPP_API_test.hpp **** 
  58:tests/ConsumerProducer_CPP_API_test.hpp ****             td->sem->signal();
  59:tests/ConsumerProducer_CPP_API_test.hpp ****         }
  60:tests/ConsumerProducer_CPP_API_test.hpp ****     };
  61:tests/ConsumerProducer_CPP_API_test.hpp **** 
  62:tests/ConsumerProducer_CPP_API_test.hpp ****     class Consumer : public Thread {
  63:tests/ConsumerProducer_CPP_API_test.hpp ****         thread_data *td;
  64:tests/ConsumerProducer_CPP_API_test.hpp ****     public:
  65:tests/ConsumerProducer_CPP_API_test.hpp ****         Consumer(thread_data *_td) : Thread(), td(_td) {}
  66:tests/ConsumerProducer_CPP_API_test.hpp **** 
  67:tests/ConsumerProducer_CPP_API_test.hpp ****         void run() override {
 367              		.loc 2 67 14 is_stmt 1
 368              		.cfi_startproc
 369              	.LVL42:
 370 0000 130101FD 		addi	sp,sp,-48
 371              		.cfi_def_cfa_offset 48
 372 0004 23341102 		sd	ra,40(sp)
 373 0008 23308102 		sd	s0,32(sp)
 374 000c 233C9100 		sd	s1,24(sp)
 375 0010 23382101 		sd	s2,16(sp)
 376 0014 23343101 		sd	s3,8(sp)
 377              		.cfi_offset 1, -8
 378              		.cfi_offset 8, -16
 379              		.cfi_offset 9, -24
 380              		.cfi_offset 18, -32
 381              		.cfi_offset 19, -40
 382 0018 13040103 		addi	s0,sp,48
 383              		.cfi_def_cfa 8, 0
 384 001c 13090500 		mv	s2,a0
  68:tests/ConsumerProducer_CPP_API_test.hpp ****             int i = 0;
 385              		.loc 2 68 13
 386              	.LVL43:
 387              		.loc 2 68 17 is_stmt 0
 388 0020 93090000 		li	s3,0
 389 0024 6F000001 		j	.L22
 390              	.LVL44:
 391              	.L27:
 392              	.LBB60:
  69:tests/ConsumerProducer_CPP_API_test.hpp ****             while (!threadEnd) {
  70:tests/ConsumerProducer_CPP_API_test.hpp ****                 int key = td->buffer->get();
  71:tests/ConsumerProducer_CPP_API_test.hpp ****                 i++;
  72:tests/ConsumerProducer_CPP_API_test.hpp **** 
  73:tests/ConsumerProducer_CPP_API_test.hpp ****                 Console::putc(key);
  74:tests/ConsumerProducer_CPP_API_test.hpp **** 
  75:tests/ConsumerProducer_CPP_API_test.hpp ****                 if (i % 80 == 0) {
  76:tests/ConsumerProducer_CPP_API_test.hpp ****                     Console::putc('\n');
 393              		.loc 2 76 21 is_stmt 1
 394              		.loc 2 76 34 is_stmt 0
 395 0028 1305A000 		li	a0,10
GAS LISTING /tmp/cc4XBM2x.s 			page 11


 396 002c 97000000 		call	_ZN7Console4putcEc@plt
 396      E7800000 
 397              	.LVL45:
 398              	.L22:
 399              	.LBE60:
  69:tests/ConsumerProducer_CPP_API_test.hpp ****             while (!threadEnd) {
 400              		.loc 2 69 13 is_stmt 1
  69:tests/ConsumerProducer_CPP_API_test.hpp ****             while (!threadEnd) {
 401              		.loc 2 69 20
 402 0034 97070000 		lw	a5,.LANCHOR0+4
 402      83A70700 
 403 003c 639A0704 		bnez	a5,.L23
 404              	.LBB61:
  70:tests/ConsumerProducer_CPP_API_test.hpp ****                 i++;
 405              		.loc 2 70 17
  70:tests/ConsumerProducer_CPP_API_test.hpp ****                 i++;
 406              		.loc 2 70 27 is_stmt 0
 407 0040 83370901 		ld	a5,16(s2)
  70:tests/ConsumerProducer_CPP_API_test.hpp ****                 i++;
 408              		.loc 2 70 42
 409 0044 03B58700 		ld	a0,8(a5)
 410 0048 97000000 		call	_ZN9BufferCPP3getEv@plt
 410      E7800000 
 411              	.LVL46:
  71:tests/ConsumerProducer_CPP_API_test.hpp **** 
 412              		.loc 2 71 17 is_stmt 1
  71:tests/ConsumerProducer_CPP_API_test.hpp **** 
 413              		.loc 2 71 18 is_stmt 0
 414 0050 9B841900 		addiw	s1,s3,1
 415 0054 9B890400 		sext.w	s3,s1
 416              	.LVL47:
  73:tests/ConsumerProducer_CPP_API_test.hpp **** 
 417              		.loc 2 73 17 is_stmt 1
  73:tests/ConsumerProducer_CPP_API_test.hpp **** 
 418              		.loc 2 73 30 is_stmt 0
 419 0058 1375F50F 		andi	a0,a0,0xff
 420              	.LVL48:
 421 005c 97000000 		call	_ZN7Console4putcEc@plt
 421      E7800000 
 422              	.LVL49:
  75:tests/ConsumerProducer_CPP_API_test.hpp ****                     Console::putc('\n');
 423              		.loc 2 75 17 is_stmt 1
  75:tests/ConsumerProducer_CPP_API_test.hpp ****                     Console::putc('\n');
 424              		.loc 2 75 23 is_stmt 0
 425 0064 93070005 		li	a5,80
 426 0068 BBE4F402 		remw	s1,s1,a5
 427              	.LVL50:
  75:tests/ConsumerProducer_CPP_API_test.hpp ****                     Console::putc('\n');
 428              		.loc 2 75 17
 429 006c E39404FC 		bnez	s1,.L22
 430 0070 6FF09FFB 		j	.L27
 431              	.L28:
 432              	.LBE61:
 433              	.LBB62:
  77:tests/ConsumerProducer_CPP_API_test.hpp ****                 }
  78:tests/ConsumerProducer_CPP_API_test.hpp ****             }
  79:tests/ConsumerProducer_CPP_API_test.hpp **** 
GAS LISTING /tmp/cc4XBM2x.s 			page 12


  80:tests/ConsumerProducer_CPP_API_test.hpp ****             while (td->buffer->getCnt() > 0) {
  81:tests/ConsumerProducer_CPP_API_test.hpp ****                 int key = td->buffer->get();
 434              		.loc 2 81 17 is_stmt 1
 435              		.loc 2 81 27 is_stmt 0
 436 0074 83370901 		ld	a5,16(s2)
 437              		.loc 2 81 42
 438 0078 03B58700 		ld	a0,8(a5)
 439 007c 97000000 		call	_ZN9BufferCPP3getEv@plt
 439      E7800000 
 440              	.LVL51:
  82:tests/ConsumerProducer_CPP_API_test.hpp ****                 Console::putc(key);
 441              		.loc 2 82 17 is_stmt 1
 442              		.loc 2 82 30 is_stmt 0
 443 0084 1375F50F 		andi	a0,a0,0xff
 444              	.LVL52:
 445 0088 97000000 		call	_ZN7Console4putcEc@plt
 445      E7800000 
 446              	.LVL53:
 447              	.L23:
 448              	.LBE62:
  80:tests/ConsumerProducer_CPP_API_test.hpp ****                 int key = td->buffer->get();
 449              		.loc 2 80 13 is_stmt 1
  80:tests/ConsumerProducer_CPP_API_test.hpp ****                 int key = td->buffer->get();
 450              		.loc 2 80 41
  80:tests/ConsumerProducer_CPP_API_test.hpp ****                 int key = td->buffer->get();
 451              		.loc 2 80 20 is_stmt 0
 452 0090 83370901 		ld	a5,16(s2)
  80:tests/ConsumerProducer_CPP_API_test.hpp ****                 int key = td->buffer->get();
 453              		.loc 2 80 38
 454 0094 03B58700 		ld	a0,8(a5)
 455 0098 97000000 		call	_ZN9BufferCPP6getCntEv@plt
 455      E7800000 
 456              	.LVL54:
  80:tests/ConsumerProducer_CPP_API_test.hpp ****                 int key = td->buffer->get();
 457              		.loc 2 80 41
 458 00a0 E34AA0FC 		bgtz	a0,.L28
  83:tests/ConsumerProducer_CPP_API_test.hpp ****             }
  84:tests/ConsumerProducer_CPP_API_test.hpp **** 
  85:tests/ConsumerProducer_CPP_API_test.hpp ****             td->sem->signal();
 459              		.loc 2 85 13 is_stmt 1
 460 00a4 83370901 		ld	a5,16(s2)
 461              		.loc 2 85 28 is_stmt 0
 462 00a8 03B50701 		ld	a0,16(a5)
 463 00ac 97000000 		call	_ZN9Semaphore6signalEv@plt
 463      E7800000 
 464              	.LVL55:
  86:tests/ConsumerProducer_CPP_API_test.hpp ****         }
 465              		.loc 2 86 9
 466 00b4 83308102 		ld	ra,40(sp)
 467              		.cfi_restore 1
 468 00b8 03340102 		ld	s0,32(sp)
 469              		.cfi_restore 8
 470              		.cfi_def_cfa 2, 48
 471 00bc 83348101 		ld	s1,24(sp)
 472              		.cfi_restore 9
 473 00c0 03390101 		ld	s2,16(sp)
 474              		.cfi_restore 18
GAS LISTING /tmp/cc4XBM2x.s 			page 13


 475              	.LVL56:
 476 00c4 83398100 		ld	s3,8(sp)
 477              		.cfi_restore 19
 478              	.LVL57:
 479 00c8 13010103 		addi	sp,sp,48
 480              		.cfi_def_cfa_offset 0
 481 00cc 67800000 		jr	ra
 482              		.cfi_endproc
 483              	.LFE49:
 485              		.section	.text._ZN8ConsumerD2Ev,"axG",@progbits,_ZN8ConsumerD5Ev,comdat
 486              		.align	2
 487              		.weak	_ZN8ConsumerD2Ev
 489              	_ZN8ConsumerD2Ev:
 490              	.LFB65:
 491              		.file 3 "tests/ConsumerProducer_CPP_Sync_API_test.hpp"
   1:tests/ConsumerProducer_CPP_Sync_API_test.hpp **** //
   2:tests/ConsumerProducer_CPP_Sync_API_test.hpp **** // Created by os on 4/17/22.
   3:tests/ConsumerProducer_CPP_Sync_API_test.hpp **** //
   4:tests/ConsumerProducer_CPP_Sync_API_test.hpp **** 
   5:tests/ConsumerProducer_CPP_Sync_API_test.hpp **** #ifndef XV6_CONSUMERPRODUCER_CPP_Sync_API_TEST_H
   6:tests/ConsumerProducer_CPP_Sync_API_test.hpp **** #define XV6_CONSUMERPRODUCER_CPP_Sync_API_TEST_H
   7:tests/ConsumerProducer_CPP_Sync_API_test.hpp **** 
   8:tests/ConsumerProducer_CPP_Sync_API_test.hpp **** #include "../h/syscall_cpp.hpp"
   9:tests/ConsumerProducer_CPP_Sync_API_test.hpp **** 
  10:tests/ConsumerProducer_CPP_Sync_API_test.hpp **** #include "buffer_CPP_API.hpp"
  11:tests/ConsumerProducer_CPP_Sync_API_test.hpp **** 
  12:tests/ConsumerProducer_CPP_Sync_API_test.hpp **** Semaphore* waitForAll;
  13:tests/ConsumerProducer_CPP_Sync_API_test.hpp **** 
  14:tests/ConsumerProducer_CPP_Sync_API_test.hpp **** struct thread_data {
  15:tests/ConsumerProducer_CPP_Sync_API_test.hpp ****     int id;
  16:tests/ConsumerProducer_CPP_Sync_API_test.hpp ****     BufferCPP *buffer;
  17:tests/ConsumerProducer_CPP_Sync_API_test.hpp ****     Semaphore* wait;
  18:tests/ConsumerProducer_CPP_Sync_API_test.hpp **** };
  19:tests/ConsumerProducer_CPP_Sync_API_test.hpp **** 
  20:tests/ConsumerProducer_CPP_Sync_API_test.hpp **** volatile int threadEnd = 0;
  21:tests/ConsumerProducer_CPP_Sync_API_test.hpp **** 
  22:tests/ConsumerProducer_CPP_Sync_API_test.hpp **** class ProducerKeyboard:public Thread {
  23:tests/ConsumerProducer_CPP_Sync_API_test.hpp ****     thread_data* td;
  24:tests/ConsumerProducer_CPP_Sync_API_test.hpp ****     void producerKeyboard(void *arg);
  25:tests/ConsumerProducer_CPP_Sync_API_test.hpp **** public:
  26:tests/ConsumerProducer_CPP_Sync_API_test.hpp ****     ProducerKeyboard(thread_data* _td):Thread(), td(_td) {}
  27:tests/ConsumerProducer_CPP_Sync_API_test.hpp **** 
  28:tests/ConsumerProducer_CPP_Sync_API_test.hpp ****     void run() override {
  29:tests/ConsumerProducer_CPP_Sync_API_test.hpp ****         producerKeyboard(td);
  30:tests/ConsumerProducer_CPP_Sync_API_test.hpp ****     }
  31:tests/ConsumerProducer_CPP_Sync_API_test.hpp **** };
  32:tests/ConsumerProducer_CPP_Sync_API_test.hpp **** 
  33:tests/ConsumerProducer_CPP_Sync_API_test.hpp **** void ProducerKeyboard::producerKeyboard(void *arg) {
  34:tests/ConsumerProducer_CPP_Sync_API_test.hpp ****     struct thread_data *data = (struct thread_data *) arg;
  35:tests/ConsumerProducer_CPP_Sync_API_test.hpp **** 
  36:tests/ConsumerProducer_CPP_Sync_API_test.hpp ****     int key;
  37:tests/ConsumerProducer_CPP_Sync_API_test.hpp ****     int i = 0;
  38:tests/ConsumerProducer_CPP_Sync_API_test.hpp ****     while ((key = getc()) != 0x1b) {
  39:tests/ConsumerProducer_CPP_Sync_API_test.hpp ****         data->buffer->put(key);
  40:tests/ConsumerProducer_CPP_Sync_API_test.hpp ****         i++;
  41:tests/ConsumerProducer_CPP_Sync_API_test.hpp **** 
  42:tests/ConsumerProducer_CPP_Sync_API_test.hpp ****         if (i % (10 * data->id) == 0) {
GAS LISTING /tmp/cc4XBM2x.s 			page 14


  43:tests/ConsumerProducer_CPP_Sync_API_test.hpp ****             Thread::dispatch();
  44:tests/ConsumerProducer_CPP_Sync_API_test.hpp ****         }
  45:tests/ConsumerProducer_CPP_Sync_API_test.hpp ****     }
  46:tests/ConsumerProducer_CPP_Sync_API_test.hpp **** 
  47:tests/ConsumerProducer_CPP_Sync_API_test.hpp ****     threadEnd = 1;
  48:tests/ConsumerProducer_CPP_Sync_API_test.hpp ****     td->buffer->put('!');
  49:tests/ConsumerProducer_CPP_Sync_API_test.hpp **** 
  50:tests/ConsumerProducer_CPP_Sync_API_test.hpp ****     data->wait->signal();
  51:tests/ConsumerProducer_CPP_Sync_API_test.hpp **** }
  52:tests/ConsumerProducer_CPP_Sync_API_test.hpp **** 
  53:tests/ConsumerProducer_CPP_Sync_API_test.hpp **** class Producer:public Thread {
  54:tests/ConsumerProducer_CPP_Sync_API_test.hpp ****     thread_data* td;
  55:tests/ConsumerProducer_CPP_Sync_API_test.hpp ****     void producer(void *arg);
  56:tests/ConsumerProducer_CPP_Sync_API_test.hpp **** public:
  57:tests/ConsumerProducer_CPP_Sync_API_test.hpp ****     Producer(thread_data* _td):Thread(), td(_td) {}
  58:tests/ConsumerProducer_CPP_Sync_API_test.hpp **** 
  59:tests/ConsumerProducer_CPP_Sync_API_test.hpp ****     void run() override {
  60:tests/ConsumerProducer_CPP_Sync_API_test.hpp ****         producer(td);
  61:tests/ConsumerProducer_CPP_Sync_API_test.hpp ****     }
  62:tests/ConsumerProducer_CPP_Sync_API_test.hpp **** };
  63:tests/ConsumerProducer_CPP_Sync_API_test.hpp **** 
  64:tests/ConsumerProducer_CPP_Sync_API_test.hpp **** void Producer::producer(void *arg) {
  65:tests/ConsumerProducer_CPP_Sync_API_test.hpp ****     struct thread_data *data = (struct thread_data *) arg;
  66:tests/ConsumerProducer_CPP_Sync_API_test.hpp **** 
  67:tests/ConsumerProducer_CPP_Sync_API_test.hpp ****     int i = 0;
  68:tests/ConsumerProducer_CPP_Sync_API_test.hpp ****     while (!threadEnd) {
  69:tests/ConsumerProducer_CPP_Sync_API_test.hpp ****         data->buffer->put(data->id + '0');
  70:tests/ConsumerProducer_CPP_Sync_API_test.hpp ****         i++;
  71:tests/ConsumerProducer_CPP_Sync_API_test.hpp **** 
  72:tests/ConsumerProducer_CPP_Sync_API_test.hpp ****         if (i % (10 * data->id) == 0) {
  73:tests/ConsumerProducer_CPP_Sync_API_test.hpp ****             Thread::dispatch();
  74:tests/ConsumerProducer_CPP_Sync_API_test.hpp ****         }
  75:tests/ConsumerProducer_CPP_Sync_API_test.hpp ****     }
  76:tests/ConsumerProducer_CPP_Sync_API_test.hpp **** 
  77:tests/ConsumerProducer_CPP_Sync_API_test.hpp ****     data->wait->signal();
  78:tests/ConsumerProducer_CPP_Sync_API_test.hpp **** }
  79:tests/ConsumerProducer_CPP_Sync_API_test.hpp **** 
  80:tests/ConsumerProducer_CPP_Sync_API_test.hpp **** class Consumer:public Thread {
 492              		.loc 3 80 7 is_stmt 1
 493              		.cfi_startproc
 494              	.LVL58:
 495 0000 130101FF 		addi	sp,sp,-16
 496              		.cfi_def_cfa_offset 16
 497 0004 23341100 		sd	ra,8(sp)
 498 0008 23308100 		sd	s0,0(sp)
 499              		.cfi_offset 1, -8
 500              		.cfi_offset 8, -16
 501 000c 13040101 		addi	s0,sp,16
 502              		.cfi_def_cfa 8, 0
 503              	.LBB63:
 504              		.loc 3 80 7 is_stmt 0
 505 0010 97070000 		lla	a5,_ZTV8Consumer+16
 505      93870700 
 506 0018 2330F500 		sd	a5,0(a0)
 507 001c 97000000 		call	_ZN6ThreadD2Ev@plt
 507      E7800000 
 508              	.LVL59:
GAS LISTING /tmp/cc4XBM2x.s 			page 15


 509              	.LBE63:
 510 0024 83308100 		ld	ra,8(sp)
 511              		.cfi_restore 1
 512 0028 03340100 		ld	s0,0(sp)
 513              		.cfi_restore 8
 514              		.cfi_def_cfa 2, 16
 515 002c 13010101 		addi	sp,sp,16
 516              		.cfi_def_cfa_offset 0
 517 0030 67800000 		jr	ra
 518              		.cfi_endproc
 519              	.LFE65:
 521              		.weak	_ZN8ConsumerD1Ev
 522              		.set	_ZN8ConsumerD1Ev,_ZN8ConsumerD2Ev
 523              		.section	.text._ZN8ConsumerD0Ev,"axG",@progbits,_ZN8ConsumerD5Ev,comdat
 524              		.align	2
 525              		.weak	_ZN8ConsumerD0Ev
 527              	_ZN8ConsumerD0Ev:
 528              	.LFB67:
 529              		.loc 3 80 7 is_stmt 1
 530              		.cfi_startproc
 531              	.LVL60:
 532 0000 130101FE 		addi	sp,sp,-32
 533              		.cfi_def_cfa_offset 32
 534 0004 233C1100 		sd	ra,24(sp)
 535 0008 23388100 		sd	s0,16(sp)
 536 000c 23349100 		sd	s1,8(sp)
 537              		.cfi_offset 1, -8
 538              		.cfi_offset 8, -16
 539              		.cfi_offset 9, -24
 540 0010 13040102 		addi	s0,sp,32
 541              		.cfi_def_cfa 8, 0
 542 0014 93040500 		mv	s1,a0
 543              	.LVL61:
 544              	.LBB64:
 545              	.LBB65:
 546              		.loc 3 80 7 is_stmt 0
 547 0018 97070000 		lla	a5,_ZTV8Consumer+16
 547      93870700 
 548 0020 2330F500 		sd	a5,0(a0)
 549 0024 97000000 		call	_ZN6ThreadD2Ev@plt
 549      E7800000 
 550              	.LVL62:
 551              	.LBE65:
 552              	.LBE64:
 553 002c 13850400 		mv	a0,s1
 554 0030 97000000 		call	_ZdlPv@plt
 554      E7800000 
 555              	.LVL63:
 556 0038 83308101 		ld	ra,24(sp)
 557              		.cfi_restore 1
 558 003c 03340101 		ld	s0,16(sp)
 559              		.cfi_restore 8
 560              		.cfi_def_cfa 2, 32
 561 0040 83348100 		ld	s1,8(sp)
 562              		.cfi_restore 9
 563              	.LVL64:
 564 0044 13010102 		addi	sp,sp,32
GAS LISTING /tmp/cc4XBM2x.s 			page 16


 565              		.cfi_def_cfa_offset 0
 566 0048 67800000 		jr	ra
 567              		.cfi_endproc
 568              	.LFE67:
 570              		.section	.text._ZN8ProducerD2Ev,"axG",@progbits,_ZN8ProducerD5Ev,comdat
 571              		.align	2
 572              		.weak	_ZN8ProducerD2Ev
 574              	_ZN8ProducerD2Ev:
 575              	.LFB69:
  53:tests/ConsumerProducer_CPP_Sync_API_test.hpp ****     thread_data* td;
 576              		.loc 3 53 7 is_stmt 1
 577              		.cfi_startproc
 578              	.LVL65:
 579 0000 130101FF 		addi	sp,sp,-16
 580              		.cfi_def_cfa_offset 16
 581 0004 23341100 		sd	ra,8(sp)
 582 0008 23308100 		sd	s0,0(sp)
 583              		.cfi_offset 1, -8
 584              		.cfi_offset 8, -16
 585 000c 13040101 		addi	s0,sp,16
 586              		.cfi_def_cfa 8, 0
 587              	.LBB66:
  53:tests/ConsumerProducer_CPP_Sync_API_test.hpp ****     thread_data* td;
 588              		.loc 3 53 7 is_stmt 0
 589 0010 97070000 		lla	a5,_ZTV8Producer+16
 589      93870700 
 590 0018 2330F500 		sd	a5,0(a0)
 591 001c 97000000 		call	_ZN6ThreadD2Ev@plt
 591      E7800000 
 592              	.LVL66:
 593              	.LBE66:
 594 0024 83308100 		ld	ra,8(sp)
 595              		.cfi_restore 1
 596 0028 03340100 		ld	s0,0(sp)
 597              		.cfi_restore 8
 598              		.cfi_def_cfa 2, 16
 599 002c 13010101 		addi	sp,sp,16
 600              		.cfi_def_cfa_offset 0
 601 0030 67800000 		jr	ra
 602              		.cfi_endproc
 603              	.LFE69:
 605              		.weak	_ZN8ProducerD1Ev
 606              		.set	_ZN8ProducerD1Ev,_ZN8ProducerD2Ev
 607              		.section	.text._ZN8ProducerD0Ev,"axG",@progbits,_ZN8ProducerD5Ev,comdat
 608              		.align	2
 609              		.weak	_ZN8ProducerD0Ev
 611              	_ZN8ProducerD0Ev:
 612              	.LFB71:
  53:tests/ConsumerProducer_CPP_Sync_API_test.hpp ****     thread_data* td;
 613              		.loc 3 53 7 is_stmt 1
 614              		.cfi_startproc
 615              	.LVL67:
 616 0000 130101FE 		addi	sp,sp,-32
 617              		.cfi_def_cfa_offset 32
 618 0004 233C1100 		sd	ra,24(sp)
 619 0008 23388100 		sd	s0,16(sp)
 620 000c 23349100 		sd	s1,8(sp)
GAS LISTING /tmp/cc4XBM2x.s 			page 17


 621              		.cfi_offset 1, -8
 622              		.cfi_offset 8, -16
 623              		.cfi_offset 9, -24
 624 0010 13040102 		addi	s0,sp,32
 625              		.cfi_def_cfa 8, 0
 626 0014 93040500 		mv	s1,a0
 627              	.LVL68:
 628              	.LBB67:
 629              	.LBB68:
  53:tests/ConsumerProducer_CPP_Sync_API_test.hpp ****     thread_data* td;
 630              		.loc 3 53 7 is_stmt 0
 631 0018 97070000 		lla	a5,_ZTV8Producer+16
 631      93870700 
 632 0020 2330F500 		sd	a5,0(a0)
 633 0024 97000000 		call	_ZN6ThreadD2Ev@plt
 633      E7800000 
 634              	.LVL69:
 635              	.LBE68:
 636              	.LBE67:
 637 002c 13850400 		mv	a0,s1
 638 0030 97000000 		call	_ZdlPv@plt
 638      E7800000 
 639              	.LVL70:
 640 0038 83308101 		ld	ra,24(sp)
 641              		.cfi_restore 1
 642 003c 03340101 		ld	s0,16(sp)
 643              		.cfi_restore 8
 644              		.cfi_def_cfa 2, 32
 645 0040 83348100 		ld	s1,8(sp)
 646              		.cfi_restore 9
 647              	.LVL71:
 648 0044 13010102 		addi	sp,sp,32
 649              		.cfi_def_cfa_offset 0
 650 0048 67800000 		jr	ra
 651              		.cfi_endproc
 652              	.LFE71:
 654              		.section	.text._ZN16ProducerKeyboardD2Ev,"axG",@progbits,_ZN16ProducerKeyboardD5Ev,comdat
 655              		.align	2
 656              		.weak	_ZN16ProducerKeyboardD2Ev
 658              	_ZN16ProducerKeyboardD2Ev:
 659              	.LFB73:
  22:tests/ConsumerProducer_CPP_Sync_API_test.hpp ****     thread_data* td;
 660              		.loc 3 22 7 is_stmt 1
 661              		.cfi_startproc
 662              	.LVL72:
 663 0000 130101FF 		addi	sp,sp,-16
 664              		.cfi_def_cfa_offset 16
 665 0004 23341100 		sd	ra,8(sp)
 666 0008 23308100 		sd	s0,0(sp)
 667              		.cfi_offset 1, -8
 668              		.cfi_offset 8, -16
 669 000c 13040101 		addi	s0,sp,16
 670              		.cfi_def_cfa 8, 0
 671              	.LBB69:
  22:tests/ConsumerProducer_CPP_Sync_API_test.hpp ****     thread_data* td;
 672              		.loc 3 22 7 is_stmt 0
 673 0010 97070000 		lla	a5,_ZTV16ProducerKeyboard+16
GAS LISTING /tmp/cc4XBM2x.s 			page 18


 673      93870700 
 674 0018 2330F500 		sd	a5,0(a0)
 675 001c 97000000 		call	_ZN6ThreadD2Ev@plt
 675      E7800000 
 676              	.LVL73:
 677              	.LBE69:
 678 0024 83308100 		ld	ra,8(sp)
 679              		.cfi_restore 1
 680 0028 03340100 		ld	s0,0(sp)
 681              		.cfi_restore 8
 682              		.cfi_def_cfa 2, 16
 683 002c 13010101 		addi	sp,sp,16
 684              		.cfi_def_cfa_offset 0
 685 0030 67800000 		jr	ra
 686              		.cfi_endproc
 687              	.LFE73:
 689              		.weak	_ZN16ProducerKeyboardD1Ev
 690              		.set	_ZN16ProducerKeyboardD1Ev,_ZN16ProducerKeyboardD2Ev
 691              		.section	.text._ZN16ProducerKeyboardD0Ev,"axG",@progbits,_ZN16ProducerKeyboardD5Ev,comdat
 692              		.align	2
 693              		.weak	_ZN16ProducerKeyboardD0Ev
 695              	_ZN16ProducerKeyboardD0Ev:
 696              	.LFB75:
  22:tests/ConsumerProducer_CPP_Sync_API_test.hpp ****     thread_data* td;
 697              		.loc 3 22 7 is_stmt 1
 698              		.cfi_startproc
 699              	.LVL74:
 700 0000 130101FE 		addi	sp,sp,-32
 701              		.cfi_def_cfa_offset 32
 702 0004 233C1100 		sd	ra,24(sp)
 703 0008 23388100 		sd	s0,16(sp)
 704 000c 23349100 		sd	s1,8(sp)
 705              		.cfi_offset 1, -8
 706              		.cfi_offset 8, -16
 707              		.cfi_offset 9, -24
 708 0010 13040102 		addi	s0,sp,32
 709              		.cfi_def_cfa 8, 0
 710 0014 93040500 		mv	s1,a0
 711              	.LVL75:
 712              	.LBB70:
 713              	.LBB71:
  22:tests/ConsumerProducer_CPP_Sync_API_test.hpp ****     thread_data* td;
 714              		.loc 3 22 7 is_stmt 0
 715 0018 97070000 		lla	a5,_ZTV16ProducerKeyboard+16
 715      93870700 
 716 0020 2330F500 		sd	a5,0(a0)
 717 0024 97000000 		call	_ZN6ThreadD2Ev@plt
 717      E7800000 
 718              	.LVL76:
 719              	.LBE71:
 720              	.LBE70:
 721 002c 13850400 		mv	a0,s1
 722 0030 97000000 		call	_ZdlPv@plt
 722      E7800000 
 723              	.LVL77:
 724 0038 83308101 		ld	ra,24(sp)
 725              		.cfi_restore 1
GAS LISTING /tmp/cc4XBM2x.s 			page 19


 726 003c 03340101 		ld	s0,16(sp)
 727              		.cfi_restore 8
 728              		.cfi_def_cfa 2, 32
 729 0040 83348100 		ld	s1,8(sp)
 730              		.cfi_restore 9
 731              	.LVL78:
 732 0044 13010102 		addi	sp,sp,32
 733              		.cfi_def_cfa_offset 0
 734 0048 67800000 		jr	ra
 735              		.cfi_endproc
 736              	.LFE75:
 738              		.section	.text._ZN19ConsumerProducerCPP8ConsumerD2Ev,"axG",@progbits,_ZN19ConsumerProducerCPP8Cons
 739              		.align	2
 740              		.weak	_ZN19ConsumerProducerCPP8ConsumerD2Ev
 742              	_ZN19ConsumerProducerCPP8ConsumerD2Ev:
 743              	.LFB53:
  62:tests/ConsumerProducer_CPP_API_test.hpp ****         thread_data *td;
 744              		.loc 2 62 11 is_stmt 1
 745              		.cfi_startproc
 746              	.LVL79:
 747 0000 130101FF 		addi	sp,sp,-16
 748              		.cfi_def_cfa_offset 16
 749 0004 23341100 		sd	ra,8(sp)
 750 0008 23308100 		sd	s0,0(sp)
 751              		.cfi_offset 1, -8
 752              		.cfi_offset 8, -16
 753 000c 13040101 		addi	s0,sp,16
 754              		.cfi_def_cfa 8, 0
 755              	.LBB72:
  62:tests/ConsumerProducer_CPP_API_test.hpp ****         thread_data *td;
 756              		.loc 2 62 11 is_stmt 0
 757 0010 97070000 		lla	a5,_ZTVN19ConsumerProducerCPP8ConsumerE+16
 757      93870700 
 758 0018 2330F500 		sd	a5,0(a0)
 759 001c 97000000 		call	_ZN6ThreadD2Ev@plt
 759      E7800000 
 760              	.LVL80:
 761              	.LBE72:
 762 0024 83308100 		ld	ra,8(sp)
 763              		.cfi_restore 1
 764 0028 03340100 		ld	s0,0(sp)
 765              		.cfi_restore 8
 766              		.cfi_def_cfa 2, 16
 767 002c 13010101 		addi	sp,sp,16
 768              		.cfi_def_cfa_offset 0
 769 0030 67800000 		jr	ra
 770              		.cfi_endproc
 771              	.LFE53:
 773              		.weak	_ZN19ConsumerProducerCPP8ConsumerD1Ev
 774              		.set	_ZN19ConsumerProducerCPP8ConsumerD1Ev,_ZN19ConsumerProducerCPP8ConsumerD2Ev
 775              		.section	.text._ZN19ConsumerProducerCPP8ConsumerD0Ev,"axG",@progbits,_ZN19ConsumerProducerCPP8Cons
 776              		.align	2
 777              		.weak	_ZN19ConsumerProducerCPP8ConsumerD0Ev
 779              	_ZN19ConsumerProducerCPP8ConsumerD0Ev:
 780              	.LFB55:
  62:tests/ConsumerProducer_CPP_API_test.hpp ****         thread_data *td;
 781              		.loc 2 62 11 is_stmt 1
GAS LISTING /tmp/cc4XBM2x.s 			page 20


 782              		.cfi_startproc
 783              	.LVL81:
 784 0000 130101FE 		addi	sp,sp,-32
 785              		.cfi_def_cfa_offset 32
 786 0004 233C1100 		sd	ra,24(sp)
 787 0008 23388100 		sd	s0,16(sp)
 788 000c 23349100 		sd	s1,8(sp)
 789              		.cfi_offset 1, -8
 790              		.cfi_offset 8, -16
 791              		.cfi_offset 9, -24
 792 0010 13040102 		addi	s0,sp,32
 793              		.cfi_def_cfa 8, 0
 794 0014 93040500 		mv	s1,a0
 795              	.LVL82:
 796              	.LBB73:
 797              	.LBB74:
  62:tests/ConsumerProducer_CPP_API_test.hpp ****         thread_data *td;
 798              		.loc 2 62 11 is_stmt 0
 799 0018 97070000 		lla	a5,_ZTVN19ConsumerProducerCPP8ConsumerE+16
 799      93870700 
 800 0020 2330F500 		sd	a5,0(a0)
 801 0024 97000000 		call	_ZN6ThreadD2Ev@plt
 801      E7800000 
 802              	.LVL83:
 803              	.LBE74:
 804              	.LBE73:
 805 002c 13850400 		mv	a0,s1
 806 0030 97000000 		call	_ZdlPv@plt
 806      E7800000 
 807              	.LVL84:
 808 0038 83308101 		ld	ra,24(sp)
 809              		.cfi_restore 1
 810 003c 03340101 		ld	s0,16(sp)
 811              		.cfi_restore 8
 812              		.cfi_def_cfa 2, 32
 813 0040 83348100 		ld	s1,8(sp)
 814              		.cfi_restore 9
 815              	.LVL85:
 816 0044 13010102 		addi	sp,sp,32
 817              		.cfi_def_cfa_offset 0
 818 0048 67800000 		jr	ra
 819              		.cfi_endproc
 820              	.LFE55:
 822              		.section	.text._ZN19ConsumerProducerCPP16ProducerKeyboradD2Ev,"axG",@progbits,_ZN19ConsumerProduce
 823              		.align	2
 824              		.weak	_ZN19ConsumerProducerCPP16ProducerKeyboradD2Ev
 826              	_ZN19ConsumerProducerCPP16ProducerKeyboradD2Ev:
 827              	.LFB61:
  25:tests/ConsumerProducer_CPP_API_test.hpp ****         thread_data *td;
 828              		.loc 2 25 11 is_stmt 1
 829              		.cfi_startproc
 830              	.LVL86:
 831 0000 130101FF 		addi	sp,sp,-16
 832              		.cfi_def_cfa_offset 16
 833 0004 23341100 		sd	ra,8(sp)
 834 0008 23308100 		sd	s0,0(sp)
 835              		.cfi_offset 1, -8
GAS LISTING /tmp/cc4XBM2x.s 			page 21


 836              		.cfi_offset 8, -16
 837 000c 13040101 		addi	s0,sp,16
 838              		.cfi_def_cfa 8, 0
 839              	.LBB75:
  25:tests/ConsumerProducer_CPP_API_test.hpp ****         thread_data *td;
 840              		.loc 2 25 11 is_stmt 0
 841 0010 97070000 		lla	a5,_ZTVN19ConsumerProducerCPP16ProducerKeyboradE+16
 841      93870700 
 842 0018 2330F500 		sd	a5,0(a0)
 843 001c 97000000 		call	_ZN6ThreadD2Ev@plt
 843      E7800000 
 844              	.LVL87:
 845              	.LBE75:
 846 0024 83308100 		ld	ra,8(sp)
 847              		.cfi_restore 1
 848 0028 03340100 		ld	s0,0(sp)
 849              		.cfi_restore 8
 850              		.cfi_def_cfa 2, 16
 851 002c 13010101 		addi	sp,sp,16
 852              		.cfi_def_cfa_offset 0
 853 0030 67800000 		jr	ra
 854              		.cfi_endproc
 855              	.LFE61:
 857              		.weak	_ZN19ConsumerProducerCPP16ProducerKeyboradD1Ev
 858              		.set	_ZN19ConsumerProducerCPP16ProducerKeyboradD1Ev,_ZN19ConsumerProducerCPP16ProducerKeyboradD2Ev
 859              		.section	.text._ZN19ConsumerProducerCPP16ProducerKeyboradD0Ev,"axG",@progbits,_ZN19ConsumerProduce
 860              		.align	2
 861              		.weak	_ZN19ConsumerProducerCPP16ProducerKeyboradD0Ev
 863              	_ZN19ConsumerProducerCPP16ProducerKeyboradD0Ev:
 864              	.LFB63:
  25:tests/ConsumerProducer_CPP_API_test.hpp ****         thread_data *td;
 865              		.loc 2 25 11 is_stmt 1
 866              		.cfi_startproc
 867              	.LVL88:
 868 0000 130101FE 		addi	sp,sp,-32
 869              		.cfi_def_cfa_offset 32
 870 0004 233C1100 		sd	ra,24(sp)
 871 0008 23388100 		sd	s0,16(sp)
 872 000c 23349100 		sd	s1,8(sp)
 873              		.cfi_offset 1, -8
 874              		.cfi_offset 8, -16
 875              		.cfi_offset 9, -24
 876 0010 13040102 		addi	s0,sp,32
 877              		.cfi_def_cfa 8, 0
 878 0014 93040500 		mv	s1,a0
 879              	.LVL89:
 880              	.LBB76:
 881              	.LBB77:
  25:tests/ConsumerProducer_CPP_API_test.hpp ****         thread_data *td;
 882              		.loc 2 25 11 is_stmt 0
 883 0018 97070000 		lla	a5,_ZTVN19ConsumerProducerCPP16ProducerKeyboradE+16
 883      93870700 
 884 0020 2330F500 		sd	a5,0(a0)
 885 0024 97000000 		call	_ZN6ThreadD2Ev@plt
 885      E7800000 
 886              	.LVL90:
 887              	.LBE77:
GAS LISTING /tmp/cc4XBM2x.s 			page 22


 888              	.LBE76:
 889 002c 13850400 		mv	a0,s1
 890 0030 97000000 		call	_ZdlPv@plt
 890      E7800000 
 891              	.LVL91:
 892 0038 83308101 		ld	ra,24(sp)
 893              		.cfi_restore 1
 894 003c 03340101 		ld	s0,16(sp)
 895              		.cfi_restore 8
 896              		.cfi_def_cfa 2, 32
 897 0040 83348100 		ld	s1,8(sp)
 898              		.cfi_restore 9
 899              	.LVL92:
 900 0044 13010102 		addi	sp,sp,32
 901              		.cfi_def_cfa_offset 0
 902 0048 67800000 		jr	ra
 903              		.cfi_endproc
 904              	.LFE63:
 906              		.section	.text._ZN19ConsumerProducerCPP8ProducerD2Ev,"axG",@progbits,_ZN19ConsumerProducerCPP8Prod
 907              		.align	2
 908              		.weak	_ZN19ConsumerProducerCPP8ProducerD2Ev
 910              	_ZN19ConsumerProducerCPP8ProducerD2Ev:
 911              	.LFB57:
  45:tests/ConsumerProducer_CPP_API_test.hpp ****         thread_data *td;
 912              		.loc 2 45 11 is_stmt 1
 913              		.cfi_startproc
 914              	.LVL93:
 915 0000 130101FF 		addi	sp,sp,-16
 916              		.cfi_def_cfa_offset 16
 917 0004 23341100 		sd	ra,8(sp)
 918 0008 23308100 		sd	s0,0(sp)
 919              		.cfi_offset 1, -8
 920              		.cfi_offset 8, -16
 921 000c 13040101 		addi	s0,sp,16
 922              		.cfi_def_cfa 8, 0
 923              	.LBB78:
  45:tests/ConsumerProducer_CPP_API_test.hpp ****         thread_data *td;
 924              		.loc 2 45 11 is_stmt 0
 925 0010 97070000 		lla	a5,_ZTVN19ConsumerProducerCPP8ProducerE+16
 925      93870700 
 926 0018 2330F500 		sd	a5,0(a0)
 927 001c 97000000 		call	_ZN6ThreadD2Ev@plt
 927      E7800000 
 928              	.LVL94:
 929              	.LBE78:
 930 0024 83308100 		ld	ra,8(sp)
 931              		.cfi_restore 1
 932 0028 03340100 		ld	s0,0(sp)
 933              		.cfi_restore 8
 934              		.cfi_def_cfa 2, 16
 935 002c 13010101 		addi	sp,sp,16
 936              		.cfi_def_cfa_offset 0
 937 0030 67800000 		jr	ra
 938              		.cfi_endproc
 939              	.LFE57:
 941              		.weak	_ZN19ConsumerProducerCPP8ProducerD1Ev
 942              		.set	_ZN19ConsumerProducerCPP8ProducerD1Ev,_ZN19ConsumerProducerCPP8ProducerD2Ev
GAS LISTING /tmp/cc4XBM2x.s 			page 23


 943              		.section	.text._ZN19ConsumerProducerCPP8ProducerD0Ev,"axG",@progbits,_ZN19ConsumerProducerCPP8Prod
 944              		.align	2
 945              		.weak	_ZN19ConsumerProducerCPP8ProducerD0Ev
 947              	_ZN19ConsumerProducerCPP8ProducerD0Ev:
 948              	.LFB59:
  45:tests/ConsumerProducer_CPP_API_test.hpp ****         thread_data *td;
 949              		.loc 2 45 11 is_stmt 1
 950              		.cfi_startproc
 951              	.LVL95:
 952 0000 130101FE 		addi	sp,sp,-32
 953              		.cfi_def_cfa_offset 32
 954 0004 233C1100 		sd	ra,24(sp)
 955 0008 23388100 		sd	s0,16(sp)
 956 000c 23349100 		sd	s1,8(sp)
 957              		.cfi_offset 1, -8
 958              		.cfi_offset 8, -16
 959              		.cfi_offset 9, -24
 960 0010 13040102 		addi	s0,sp,32
 961              		.cfi_def_cfa 8, 0
 962 0014 93040500 		mv	s1,a0
 963              	.LVL96:
 964              	.LBB79:
 965              	.LBB80:
  45:tests/ConsumerProducer_CPP_API_test.hpp ****         thread_data *td;
 966              		.loc 2 45 11 is_stmt 0
 967 0018 97070000 		lla	a5,_ZTVN19ConsumerProducerCPP8ProducerE+16
 967      93870700 
 968 0020 2330F500 		sd	a5,0(a0)
 969 0024 97000000 		call	_ZN6ThreadD2Ev@plt
 969      E7800000 
 970              	.LVL97:
 971              	.LBE80:
 972              	.LBE79:
 973 002c 13850400 		mv	a0,s1
 974 0030 97000000 		call	_ZdlPv@plt
 974      E7800000 
 975              	.LVL98:
 976 0038 83308101 		ld	ra,24(sp)
 977              		.cfi_restore 1
 978 003c 03340101 		ld	s0,16(sp)
 979              		.cfi_restore 8
 980              		.cfi_def_cfa 2, 32
 981 0040 83348100 		ld	s1,8(sp)
 982              		.cfi_restore 9
 983              	.LVL99:
 984 0044 13010102 		addi	sp,sp,32
 985              		.cfi_def_cfa_offset 0
 986 0048 67800000 		jr	ra
 987              		.cfi_endproc
 988              	.LFE59:
 990              		.section	.rodata.str1.8
 991 0035 000000   		.align	3
 992              	.LC5:
 993 0038 48656C6C 		.string	"Hello "
 993      6F2000
 994 003f 00       		.align	3
 995              	.LC6:
GAS LISTING /tmp/cc4XBM2x.s 			page 24


 996 0040 20210A00 		.string	" !\n"
 997              		.text
 998              		.align	2
 999              		.globl	_Z9sleepyRunPv
 1001              	_Z9sleepyRunPv:
 1002              	.LFB36:
 1003              		.file 4 "tests/ThreadSleep_C_API_test.hpp"
   1:tests/ThreadSleep_C_API_test.hpp **** //
   2:tests/ThreadSleep_C_API_test.hpp **** // Created by os on 4/17/22.
   3:tests/ThreadSleep_C_API_test.hpp **** //
   4:tests/ThreadSleep_C_API_test.hpp **** 
   5:tests/ThreadSleep_C_API_test.hpp **** #ifndef XV6_THREADSLEEP_C_API_TEST_HPP
   6:tests/ThreadSleep_C_API_test.hpp **** #define XV6_THREADSLEEP_C_API_TEST_HPP
   7:tests/ThreadSleep_C_API_test.hpp **** 
   8:tests/ThreadSleep_C_API_test.hpp **** #include "../h/syscall_c.h"
   9:tests/ThreadSleep_C_API_test.hpp **** 
  10:tests/ThreadSleep_C_API_test.hpp **** #include "../h/printing.hpp"
  11:tests/ThreadSleep_C_API_test.hpp **** 
  12:tests/ThreadSleep_C_API_test.hpp **** bool finished[2];
  13:tests/ThreadSleep_C_API_test.hpp **** 
  14:tests/ThreadSleep_C_API_test.hpp **** void sleepyRun(void *arg) {
 1004              		.loc 4 14 27 is_stmt 1
 1005              		.cfi_startproc
 1006              	.LVL100:
 1007 01a0 130101FE 		addi	sp,sp,-32
 1008              		.cfi_def_cfa_offset 32
 1009 01a4 233C1100 		sd	ra,24(sp)
 1010 01a8 23388100 		sd	s0,16(sp)
 1011 01ac 23349100 		sd	s1,8(sp)
 1012 01b0 23302101 		sd	s2,0(sp)
 1013              		.cfi_offset 1, -8
 1014              		.cfi_offset 8, -16
 1015              		.cfi_offset 9, -24
 1016              		.cfi_offset 18, -32
 1017 01b4 13040102 		addi	s0,sp,32
 1018              		.cfi_def_cfa 8, 0
  15:tests/ThreadSleep_C_API_test.hpp ****     time_t sleep_time = *((time_t *) arg);
 1019              		.loc 4 15 5
 1020              		.loc 4 15 12 is_stmt 0
 1021 01b8 03390500 		ld	s2,0(a0)
 1022              	.LVL101:
  16:tests/ThreadSleep_C_API_test.hpp ****     int i = 6;
 1023              		.loc 4 16 5 is_stmt 1
 1024              		.loc 4 16 9 is_stmt 0
 1025 01bc 93046000 		li	s1,6
 1026              	.LVL102:
 1027              	.L55:
  17:tests/ThreadSleep_C_API_test.hpp ****     while (--i > 0) {
 1028              		.loc 4 17 5 is_stmt 1
 1029              		.loc 4 17 16
 1030 01c0 9B84F4FF 		addiw	s1,s1,-1
 1031              	.LVL103:
 1032 01c4 63549004 		blez	s1,.L54
  18:tests/ThreadSleep_C_API_test.hpp **** 
  19:tests/ThreadSleep_C_API_test.hpp ****         printString("Hello ");
 1033              		.loc 4 19 9
 1034              		.loc 4 19 20 is_stmt 0
GAS LISTING /tmp/cc4XBM2x.s 			page 25


 1035 01c8 17050000 		lla	a0,.LC5
 1035      13050500 
 1036 01d0 97000000 		call	_Z11printStringPKc@plt
 1036      E7800000 
 1037              	.LVL104:
  20:tests/ThreadSleep_C_API_test.hpp ****         printInt(sleep_time);
 1038              		.loc 4 20 9 is_stmt 1
 1039              		.loc 4 20 17 is_stmt 0
 1040 01d8 13060000 		li	a2,0
 1041 01dc 9305A000 		li	a1,10
 1042 01e0 1B050900 		sext.w	a0,s2
 1043 01e4 97000000 		call	_Z8printIntiii@plt
 1043      E7800000 
 1044              	.LVL105:
  21:tests/ThreadSleep_C_API_test.hpp ****         printString(" !\n");
 1045              		.loc 4 21 9 is_stmt 1
 1046              		.loc 4 21 20 is_stmt 0
 1047 01ec 17050000 		lla	a0,.LC6
 1047      13050500 
 1048 01f4 97000000 		call	_Z11printStringPKc@plt
 1048      E7800000 
 1049              	.LVL106:
  22:tests/ThreadSleep_C_API_test.hpp ****         time_sleep(sleep_time);
 1050              		.loc 4 22 9 is_stmt 1
 1051              		.loc 4 22 19 is_stmt 0
 1052 01fc 13050900 		mv	a0,s2
 1053 0200 97000000 		call	_Z10time_sleepm@plt
 1053      E7800000 
 1054              	.LVL107:
  17:tests/ThreadSleep_C_API_test.hpp **** 
 1055              		.loc 4 17 5
 1056 0208 6FF09FFB 		j	.L55
 1057              	.L54:
  23:tests/ThreadSleep_C_API_test.hpp ****     }
  24:tests/ThreadSleep_C_API_test.hpp ****     finished[sleep_time/10-1] = true;
 1058              		.loc 4 24 5 is_stmt 1
 1059              		.loc 4 24 24 is_stmt 0
 1060 020c 9307A000 		li	a5,10
 1061 0210 3359F902 		divu	s2,s2,a5
 1062              	.LVL108:
 1063              		.loc 4 24 27
 1064 0214 1309F9FF 		addi	s2,s2,-1
 1065              		.loc 4 24 31
 1066 0218 97070000 		lla	a5,.LANCHOR0
 1066      93870700 
 1067 0220 33892701 		add	s2,a5,s2
 1068 0224 93071000 		li	a5,1
 1069 0228 2304F900 		sb	a5,8(s2)
  25:tests/ThreadSleep_C_API_test.hpp **** }
 1070              		.loc 4 25 1
 1071 022c 83308101 		ld	ra,24(sp)
 1072              		.cfi_restore 1
 1073 0230 03340101 		ld	s0,16(sp)
 1074              		.cfi_restore 8
 1075              		.cfi_def_cfa 2, 32
 1076 0234 83348100 		ld	s1,8(sp)
 1077              		.cfi_restore 9
GAS LISTING /tmp/cc4XBM2x.s 			page 26


 1078 0238 03390100 		ld	s2,0(sp)
 1079              		.cfi_restore 18
 1080 023c 13010102 		addi	sp,sp,32
 1081              		.cfi_def_cfa_offset 0
 1082 0240 67800000 		jr	ra
 1083              		.cfi_endproc
 1084              	.LFE36:
 1086              		.section	.text._ZN19ConsumerProducerCPP8Producer3runEv,"axG",@progbits,_ZN19ConsumerProducerCPP8Pr
 1087              		.align	2
 1088              		.weak	_ZN19ConsumerProducerCPP8Producer3runEv
 1090              	_ZN19ConsumerProducerCPP8Producer3runEv:
 1091              	.LFB45:
  50:tests/ConsumerProducer_CPP_API_test.hpp ****             int i = 0;
 1092              		.loc 2 50 14 is_stmt 1
 1093              		.cfi_startproc
 1094              	.LVL109:
 1095 0000 130101FE 		addi	sp,sp,-32
 1096              		.cfi_def_cfa_offset 32
 1097 0004 233C1100 		sd	ra,24(sp)
 1098 0008 23388100 		sd	s0,16(sp)
 1099 000c 23349100 		sd	s1,8(sp)
 1100 0010 23302101 		sd	s2,0(sp)
 1101              		.cfi_offset 1, -8
 1102              		.cfi_offset 8, -16
 1103              		.cfi_offset 9, -24
 1104              		.cfi_offset 18, -32
 1105 0014 13040102 		addi	s0,sp,32
 1106              		.cfi_def_cfa 8, 0
 1107 0018 93040500 		mv	s1,a0
  51:tests/ConsumerProducer_CPP_API_test.hpp ****             while (!threadEnd) {
 1108              		.loc 2 51 13
 1109              	.LVL110:
  51:tests/ConsumerProducer_CPP_API_test.hpp ****             while (!threadEnd) {
 1110              		.loc 2 51 17 is_stmt 0
 1111 001c 13090000 		li	s2,0
 1112              	.LVL111:
 1113              	.L59:
  52:tests/ConsumerProducer_CPP_API_test.hpp ****                 td->buffer->put(td->id + '0');
 1114              		.loc 2 52 13 is_stmt 1
  52:tests/ConsumerProducer_CPP_API_test.hpp ****                 td->buffer->put(td->id + '0');
 1115              		.loc 2 52 20
 1116 0020 97070000 		lw	a5,.LANCHOR0+4
 1116      83A70700 
 1117 0028 63920704 		bnez	a5,.L58
  53:tests/ConsumerProducer_CPP_API_test.hpp ****                 i++;
 1118              		.loc 2 53 17
 1119 002c 83B70401 		ld	a5,16(s1)
  53:tests/ConsumerProducer_CPP_API_test.hpp ****                 i++;
 1120              		.loc 2 53 37 is_stmt 0
 1121 0030 83A50700 		lw	a1,0(a5)
  53:tests/ConsumerProducer_CPP_API_test.hpp ****                 i++;
 1122              		.loc 2 53 32
 1123 0034 9B850503 		addiw	a1,a1,48
 1124 0038 03B58700 		ld	a0,8(a5)
 1125 003c 97000000 		call	_ZN9BufferCPP3putEi@plt
 1125      E7800000 
 1126              	.LVL112:
GAS LISTING /tmp/cc4XBM2x.s 			page 27


  54:tests/ConsumerProducer_CPP_API_test.hpp ****                 Thread::sleep((i+td->id)%5);
 1127              		.loc 2 54 17 is_stmt 1
  54:tests/ConsumerProducer_CPP_API_test.hpp ****                 Thread::sleep((i+td->id)%5);
 1128              		.loc 2 54 18 is_stmt 0
 1129 0044 1B071900 		addiw	a4,s2,1
 1130 0048 1B090700 		sext.w	s2,a4
 1131              	.LVL113:
  55:tests/ConsumerProducer_CPP_API_test.hpp ****             }
 1132              		.loc 2 55 17 is_stmt 1
  55:tests/ConsumerProducer_CPP_API_test.hpp ****             }
 1133              		.loc 2 55 34 is_stmt 0
 1134 004c 83B70401 		ld	a5,16(s1)
  55:tests/ConsumerProducer_CPP_API_test.hpp ****             }
 1135              		.loc 2 55 38
 1136 0050 83A70700 		lw	a5,0(a5)
  55:tests/ConsumerProducer_CPP_API_test.hpp ****             }
 1137              		.loc 2 55 33
 1138 0054 BB87E700 		addw	a5,a5,a4
  55:tests/ConsumerProducer_CPP_API_test.hpp ****             }
 1139              		.loc 2 55 30
 1140 0058 13055000 		li	a0,5
 1141 005c 3BE5A702 		remw	a0,a5,a0
 1142 0060 97000000 		call	_ZN6Thread5sleepEm@plt
 1142      E7800000 
 1143              	.LVL114:
  52:tests/ConsumerProducer_CPP_API_test.hpp ****                 td->buffer->put(td->id + '0');
 1144              		.loc 2 52 13
 1145 0068 6FF09FFB 		j	.L59
 1146              	.L58:
  58:tests/ConsumerProducer_CPP_API_test.hpp ****         }
 1147              		.loc 2 58 13 is_stmt 1
 1148 006c 83B70401 		ld	a5,16(s1)
  58:tests/ConsumerProducer_CPP_API_test.hpp ****         }
 1149              		.loc 2 58 28 is_stmt 0
 1150 0070 03B50701 		ld	a0,16(a5)
 1151 0074 97000000 		call	_ZN9Semaphore6signalEv@plt
 1151      E7800000 
 1152              	.LVL115:
  59:tests/ConsumerProducer_CPP_API_test.hpp ****     };
 1153              		.loc 2 59 9
 1154 007c 83308101 		ld	ra,24(sp)
 1155              		.cfi_restore 1
 1156 0080 03340101 		ld	s0,16(sp)
 1157              		.cfi_restore 8
 1158              		.cfi_def_cfa 2, 32
 1159 0084 83348100 		ld	s1,8(sp)
 1160              		.cfi_restore 9
 1161              	.LVL116:
 1162 0088 03390100 		ld	s2,0(sp)
 1163              		.cfi_restore 18
 1164              	.LVL117:
 1165 008c 13010102 		addi	sp,sp,32
 1166              		.cfi_def_cfa_offset 0
 1167 0090 67800000 		jr	ra
 1168              		.cfi_endproc
 1169              	.LFE45:
 1171              		.text
GAS LISTING /tmp/cc4XBM2x.s 			page 28


 1172              		.align	2
 1173              		.globl	_Z9fibonaccim
 1175              	_Z9fibonaccim:
 1176              	.LFB12:
  13:tests/Threads_C_API_test.hpp ****     if (n == 0 || n == 1) { return n; }
 1177              		.loc 1 13 28 is_stmt 1
 1178              		.cfi_startproc
 1179              	.LVL118:
 1180 0244 130101FE 		addi	sp,sp,-32
 1181              		.cfi_def_cfa_offset 32
 1182 0248 233C1100 		sd	ra,24(sp)
 1183 024c 23388100 		sd	s0,16(sp)
 1184 0250 23349100 		sd	s1,8(sp)
 1185 0254 23302101 		sd	s2,0(sp)
 1186              		.cfi_offset 1, -8
 1187              		.cfi_offset 8, -16
 1188              		.cfi_offset 9, -24
 1189              		.cfi_offset 18, -32
 1190 0258 13040102 		addi	s0,sp,32
 1191              		.cfi_def_cfa 8, 0
 1192 025c 93040500 		mv	s1,a0
  14:tests/Threads_C_API_test.hpp ****     if (n % 10 == 0) { thread_dispatch(); }
 1193              		.loc 1 14 5
 1194 0260 93071000 		li	a5,1
 1195 0264 63F8A702 		bleu	a0,a5,.L61
  15:tests/Threads_C_API_test.hpp ****     return fibonacci(n - 1) + fibonacci(n - 2);
 1196              		.loc 1 15 5
  15:tests/Threads_C_API_test.hpp ****     return fibonacci(n - 1) + fibonacci(n - 2);
 1197              		.loc 1 15 11 is_stmt 0
 1198 0268 9307A000 		li	a5,10
 1199 026c B377F502 		remu	a5,a0,a5
  15:tests/Threads_C_API_test.hpp ****     return fibonacci(n - 1) + fibonacci(n - 2);
 1200              		.loc 1 15 5
 1201 0270 638E0702 		beqz	a5,.L66
 1202              	.LVL119:
 1203              	.L63:
  16:tests/Threads_C_API_test.hpp **** }
 1204              		.loc 1 16 5 is_stmt 1
  16:tests/Threads_C_API_test.hpp **** }
 1205              		.loc 1 16 21 is_stmt 0
 1206 0274 1385F4FF 		addi	a0,s1,-1
 1207 0278 97000000 		call	_Z9fibonaccim
 1207      E7800000 
 1208              	.LVL120:
 1209 0280 13090500 		mv	s2,a0
  16:tests/Threads_C_API_test.hpp **** }
 1210              		.loc 1 16 40
 1211 0284 1385E4FF 		addi	a0,s1,-2
 1212 0288 97000000 		call	_Z9fibonaccim
 1212      E7800000 
 1213              	.LVL121:
  16:tests/Threads_C_API_test.hpp **** }
 1214              		.loc 1 16 46
 1215 0290 3305A900 		add	a0,s2,a0
 1216              	.L61:
  17:tests/Threads_C_API_test.hpp **** 
 1217              		.loc 1 17 1
GAS LISTING /tmp/cc4XBM2x.s 			page 29


 1218 0294 83308101 		ld	ra,24(sp)
 1219              		.cfi_remember_state
 1220              		.cfi_restore 1
 1221 0298 03340101 		ld	s0,16(sp)
 1222              		.cfi_restore 8
 1223              		.cfi_def_cfa 2, 32
 1224 029c 83348100 		ld	s1,8(sp)
 1225              		.cfi_restore 9
 1226              	.LVL122:
 1227 02a0 03390100 		ld	s2,0(sp)
 1228              		.cfi_restore 18
 1229 02a4 13010102 		addi	sp,sp,32
 1230              		.cfi_def_cfa_offset 0
 1231 02a8 67800000 		jr	ra
 1232              	.LVL123:
 1233              	.L66:
 1234              		.cfi_restore_state
  15:tests/Threads_C_API_test.hpp ****     return fibonacci(n - 1) + fibonacci(n - 2);
 1235              		.loc 1 15 24 is_stmt 1 discriminator 1
  15:tests/Threads_C_API_test.hpp ****     return fibonacci(n - 1) + fibonacci(n - 2);
 1236              		.loc 1 15 39 is_stmt 0 discriminator 1
 1237 02ac 97000000 		call	_Z15thread_dispatchv@plt
 1237      E7800000 
 1238              	.LVL124:
 1239 02b4 6FF01FFC 		j	.L63
 1240              		.cfi_endproc
 1241              	.LFE12:
 1243              		.section	.rodata.str1.8
 1244 0044 00000000 		.align	3
 1245              	.LC7:
 1246 0048 433A2069 		.string	"C: i="
 1246      3D00
 1247 004e 0000     		.align	3
 1248              	.LC8:
 1249 0050 433A2064 		.string	"C: dispatch\n"
 1249      69737061 
 1249      7463680A 
 1249      00
 1250 005d 000000   		.align	3
 1251              	.LC9:
 1252 0060 433A2074 		.string	"C: t1="
 1252      313D00
 1253 0067 00       		.align	3
 1254              	.LC10:
 1255 0068 433A2066 		.string	"C: fibonaci="
 1255      69626F6E 
 1255      6163693D 
 1255      00
 1256              		.text
 1257              		.align	2
 1258              		.globl	_Z11workerBodyCPv
 1260              	_Z11workerBodyCPv:
 1261              	.LFB15:
  43:tests/Threads_C_API_test.hpp **** 
  44:tests/Threads_C_API_test.hpp **** void workerBodyC(void* arg) {
 1262              		.loc 1 44 29 is_stmt 1
 1263              		.cfi_startproc
GAS LISTING /tmp/cc4XBM2x.s 			page 30


 1264              	.LVL125:
 1265 02b8 130101FE 		addi	sp,sp,-32
 1266              		.cfi_def_cfa_offset 32
 1267 02bc 233C1100 		sd	ra,24(sp)
 1268 02c0 23388100 		sd	s0,16(sp)
 1269 02c4 23349100 		sd	s1,8(sp)
 1270 02c8 23302101 		sd	s2,0(sp)
 1271              		.cfi_offset 1, -8
 1272              		.cfi_offset 8, -16
 1273              		.cfi_offset 9, -24
 1274              		.cfi_offset 18, -32
 1275 02cc 13040102 		addi	s0,sp,32
 1276              		.cfi_def_cfa 8, 0
  45:tests/Threads_C_API_test.hpp ****     uint8 i = 0;
 1277              		.loc 1 45 5
 1278              	.LVL126:
 1279              		.loc 1 45 11 is_stmt 0
 1280 02d0 93040000 		li	s1,0
 1281 02d4 6F000004 		j	.L69
 1282              	.LVL127:
 1283              	.L73:
  46:tests/Threads_C_API_test.hpp ****     for (; i < 3; i++) {
  47:tests/Threads_C_API_test.hpp ****         printString("C: i="); printInt(i); printString("\n");
 1284              		.loc 1 47 9 is_stmt 1 discriminator 1
 1285              		.loc 1 47 20 is_stmt 0 discriminator 1
 1286 02d8 17050000 		lla	a0,.LC7
 1286      13050500 
 1287 02e0 97000000 		call	_Z11printStringPKc@plt
 1287      E7800000 
 1288              	.LVL128:
 1289              		.loc 1 47 31 is_stmt 1 discriminator 1
 1290              		.loc 1 47 39 is_stmt 0 discriminator 1
 1291 02e8 13060000 		li	a2,0
 1292 02ec 9305A000 		li	a1,10
 1293 02f0 13850400 		mv	a0,s1
 1294 02f4 97000000 		call	_Z8printIntiii@plt
 1294      E7800000 
 1295              	.LVL129:
 1296              		.loc 1 47 44 is_stmt 1 discriminator 1
 1297              		.loc 1 47 55 is_stmt 0 discriminator 1
 1298 02fc 17050000 		lla	a0,.LC1
 1298      13050500 
 1299 0304 97000000 		call	_Z11printStringPKc@plt
 1299      E7800000 
 1300              	.LVL130:
  46:tests/Threads_C_API_test.hpp ****     for (; i < 3; i++) {
 1301              		.loc 1 46 5 is_stmt 1 discriminator 1
 1302 030c 9B841400 		addiw	s1,s1,1
 1303              	.LVL131:
 1304 0310 93F4F40F 		andi	s1,s1,0xff
 1305              	.LVL132:
 1306              	.L69:
  46:tests/Threads_C_API_test.hpp ****     for (; i < 3; i++) {
 1307              		.loc 1 46 5 discriminator 2
  46:tests/Threads_C_API_test.hpp ****     for (; i < 3; i++) {
 1308              		.loc 1 46 14 discriminator 2
 1309 0314 93072000 		li	a5,2
GAS LISTING /tmp/cc4XBM2x.s 			page 31


 1310 0318 E3F097FC 		bleu	s1,a5,.L73
  48:tests/Threads_C_API_test.hpp ****     }
  49:tests/Threads_C_API_test.hpp **** 
  50:tests/Threads_C_API_test.hpp ****     printString("C: dispatch\n");
 1311              		.loc 1 50 5
 1312              		.loc 1 50 16 is_stmt 0
 1313 031c 17050000 		lla	a0,.LC8
 1313      13050500 
 1314 0324 97000000 		call	_Z11printStringPKc@plt
 1314      E7800000 
 1315              	.LVL133:
  51:tests/Threads_C_API_test.hpp ****     __asm__ ("li t1, 7");
 1316              		.loc 1 51 5 is_stmt 1
 1317              		.loc 1 51 25 is_stmt 0
 1318              	#APP
 1319              	# 51 "tests/Threads_C_API_test.hpp" 1
  52              	    thread_dispatch();
 1320              		li t1, 7
 1321              	# 0 "" 2
 1322              		.loc 1 52 5 is_stmt 1
 1323              		.loc 1 52 20 is_stmt 0
 1324              	#NO_APP
 1325 0330 97000000 		call	_Z15thread_dispatchv@plt
 1325      E7800000 
 1326              	.LVL134:
  53:tests/Threads_C_API_test.hpp **** 
  54:tests/Threads_C_API_test.hpp ****     uint64 t1 = 0;
 1327              		.loc 1 54 5 is_stmt 1
  55:tests/Threads_C_API_test.hpp ****     __asm__ ("mv %[t1], t1" : [t1] "=r"(t1));
 1328              		.loc 1 55 5
 1329              		.loc 1 55 45 is_stmt 0
 1330              	#APP
 1331              	# 55 "tests/Threads_C_API_test.hpp" 1
  56              	
 1332              		mv s2, t1
 1333              	# 0 "" 2
 1334              	.LVL135:
  57:tests/Threads_C_API_test.hpp ****     printString("C: t1="); printInt(t1); printString("\n");
 1335              		.loc 1 57 5 is_stmt 1
 1336              		.loc 1 57 16 is_stmt 0
 1337              	#NO_APP
 1338 033c 17050000 		lla	a0,.LC9
 1338      13050500 
 1339 0344 97000000 		call	_Z11printStringPKc@plt
 1339      E7800000 
 1340              	.LVL136:
 1341              		.loc 1 57 28 is_stmt 1
 1342              		.loc 1 57 36 is_stmt 0
 1343 034c 13060000 		li	a2,0
 1344 0350 9305A000 		li	a1,10
 1345 0354 1B050900 		sext.w	a0,s2
 1346 0358 97000000 		call	_Z8printIntiii@plt
 1346      E7800000 
 1347              	.LVL137:
 1348              		.loc 1 57 42 is_stmt 1
 1349              		.loc 1 57 53 is_stmt 0
 1350 0360 17050000 		lla	a0,.LC1
GAS LISTING /tmp/cc4XBM2x.s 			page 32


 1350      13050500 
 1351 0368 97000000 		call	_Z11printStringPKc@plt
 1351      E7800000 
 1352              	.LVL138:
  58:tests/Threads_C_API_test.hpp **** 
  59:tests/Threads_C_API_test.hpp ****     uint64 result = fibonacci(12);
 1353              		.loc 1 59 5 is_stmt 1
 1354              		.loc 1 59 30 is_stmt 0
 1355 0370 1305C000 		li	a0,12
 1356 0374 97000000 		call	_Z9fibonaccim
 1356      E7800000 
 1357              	.LVL139:
 1358 037c 13090500 		mv	s2,a0
 1359              	.LVL140:
  60:tests/Threads_C_API_test.hpp ****     printString("C: fibonaci="); printInt(result); printString("\n");
 1360              		.loc 1 60 5 is_stmt 1
 1361              		.loc 1 60 16 is_stmt 0
 1362 0380 17050000 		lla	a0,.LC10
 1362      13050500 
 1363              	.LVL141:
 1364 0388 97000000 		call	_Z11printStringPKc@plt
 1364      E7800000 
 1365              	.LVL142:
 1366              		.loc 1 60 34 is_stmt 1
 1367              		.loc 1 60 42 is_stmt 0
 1368 0390 13060000 		li	a2,0
 1369 0394 9305A000 		li	a1,10
 1370 0398 1B050900 		sext.w	a0,s2
 1371 039c 97000000 		call	_Z8printIntiii@plt
 1371      E7800000 
 1372              	.LVL143:
 1373              		.loc 1 60 52 is_stmt 1
 1374              		.loc 1 60 63 is_stmt 0
 1375 03a4 17050000 		lla	a0,.LC1
 1375      13050500 
 1376 03ac 97000000 		call	_Z11printStringPKc@plt
 1376      E7800000 
 1377              	.LVL144:
 1378 03b4 6F000004 		j	.L71
 1379              	.L74:
  61:tests/Threads_C_API_test.hpp **** 
  62:tests/Threads_C_API_test.hpp ****     for (; i < 6; i++) {
  63:tests/Threads_C_API_test.hpp ****         printString("C: i="); printInt(i); printString("\n");
 1380              		.loc 1 63 9 is_stmt 1 discriminator 1
 1381              		.loc 1 63 20 is_stmt 0 discriminator 1
 1382 03b8 17050000 		lla	a0,.LC7
 1382      13050500 
 1383 03c0 97000000 		call	_Z11printStringPKc@plt
 1383      E7800000 
 1384              	.LVL145:
 1385              		.loc 1 63 31 is_stmt 1 discriminator 1
 1386              		.loc 1 63 39 is_stmt 0 discriminator 1
 1387 03c8 13060000 		li	a2,0
 1388 03cc 9305A000 		li	a1,10
 1389 03d0 13850400 		mv	a0,s1
 1390 03d4 97000000 		call	_Z8printIntiii@plt
 1390      E7800000 
GAS LISTING /tmp/cc4XBM2x.s 			page 33


 1391              	.LVL146:
 1392              		.loc 1 63 44 is_stmt 1 discriminator 1
 1393              		.loc 1 63 55 is_stmt 0 discriminator 1
 1394 03dc 17050000 		lla	a0,.LC1
 1394      13050500 
 1395 03e4 97000000 		call	_Z11printStringPKc@plt
 1395      E7800000 
 1396              	.LVL147:
  62:tests/Threads_C_API_test.hpp ****         printString("C: i="); printInt(i); printString("\n");
 1397              		.loc 1 62 5 is_stmt 1 discriminator 1
 1398 03ec 9B841400 		addiw	s1,s1,1
 1399              	.LVL148:
 1400 03f0 93F4F40F 		andi	s1,s1,0xff
 1401              	.LVL149:
 1402              	.L71:
  62:tests/Threads_C_API_test.hpp ****         printString("C: i="); printInt(i); printString("\n");
 1403              		.loc 1 62 5 discriminator 2
  62:tests/Threads_C_API_test.hpp ****         printString("C: i="); printInt(i); printString("\n");
 1404              		.loc 1 62 14 discriminator 2
 1405 03f4 93075000 		li	a5,5
 1406 03f8 E3F097FC 		bleu	s1,a5,.L74
  64:tests/Threads_C_API_test.hpp ****     }
  65:tests/Threads_C_API_test.hpp **** 
  66:tests/Threads_C_API_test.hpp ****     printString("A finished!\n");
 1407              		.loc 1 66 5
 1408              		.loc 1 66 16 is_stmt 0
 1409 03fc 17050000 		lla	a0,.LC2
 1409      13050500 
 1410 0404 97000000 		call	_Z11printStringPKc@plt
 1410      E7800000 
 1411              	.LVL150:
  67:tests/Threads_C_API_test.hpp ****     finishedC = true;
 1412              		.loc 1 67 5 is_stmt 1
 1413              		.loc 1 67 15 is_stmt 0
 1414 040c 93071000 		li	a5,1
 1415 0410 17070000 		sb	a5,.LANCHOR0+10,a4
 1415      2300F700 
  68:tests/Threads_C_API_test.hpp ****     thread_dispatch();
 1416              		.loc 1 68 5 is_stmt 1
 1417              		.loc 1 68 20 is_stmt 0
 1418 0418 97000000 		call	_Z15thread_dispatchv@plt
 1418      E7800000 
 1419              	.LVL151:
  69:tests/Threads_C_API_test.hpp **** }
 1420              		.loc 1 69 1
 1421 0420 83308101 		ld	ra,24(sp)
 1422              		.cfi_restore 1
 1423 0424 03340101 		ld	s0,16(sp)
 1424              		.cfi_restore 8
 1425              		.cfi_def_cfa 2, 32
 1426 0428 83348100 		ld	s1,8(sp)
 1427              		.cfi_restore 9
 1428              	.LVL152:
 1429 042c 03390100 		ld	s2,0(sp)
 1430              		.cfi_restore 18
 1431              	.LVL153:
 1432 0430 13010102 		addi	sp,sp,32
GAS LISTING /tmp/cc4XBM2x.s 			page 34


 1433              		.cfi_def_cfa_offset 0
 1434 0434 67800000 		jr	ra
 1435              		.cfi_endproc
 1436              	.LFE15:
 1438              		.section	.rodata.str1.8
 1439 0075 000000   		.align	3
 1440              	.LC11:
 1441 0078 443A2069 		.string	"D: i="
 1441      3D00
 1442 007e 0000     		.align	3
 1443              	.LC12:
 1444 0080 443A2064 		.string	"D: dispatch\n"
 1444      69737061 
 1444      7463680A 
 1444      00
 1445 008d 000000   		.align	3
 1446              	.LC13:
 1447 0090 443A2066 		.string	"D: fibonaci="
 1447      69626F6E 
 1447      6163693D 
 1447      00
 1448 009d 000000   		.align	3
 1449              	.LC14:
 1450 00a0 44206669 		.string	"D finished!\n"
 1450      6E697368 
 1450      6564210A 
 1450      00
 1451              		.text
 1452              		.align	2
 1453              		.globl	_Z11workerBodyDPv
 1455              	_Z11workerBodyDPv:
 1456              	.LFB16:
  70:tests/Threads_C_API_test.hpp **** 
  71:tests/Threads_C_API_test.hpp **** void workerBodyD(void* arg) {
 1457              		.loc 1 71 29 is_stmt 1
 1458              		.cfi_startproc
 1459              	.LVL154:
 1460 0438 130101FE 		addi	sp,sp,-32
 1461              		.cfi_def_cfa_offset 32
 1462 043c 233C1100 		sd	ra,24(sp)
 1463 0440 23388100 		sd	s0,16(sp)
 1464 0444 23349100 		sd	s1,8(sp)
 1465 0448 23302101 		sd	s2,0(sp)
 1466              		.cfi_offset 1, -8
 1467              		.cfi_offset 8, -16
 1468              		.cfi_offset 9, -24
 1469              		.cfi_offset 18, -32
 1470 044c 13040102 		addi	s0,sp,32
 1471              		.cfi_def_cfa 8, 0
  72:tests/Threads_C_API_test.hpp ****     uint8 i = 10;
 1472              		.loc 1 72 5
 1473              	.LVL155:
 1474              		.loc 1 72 11 is_stmt 0
 1475 0450 9304A000 		li	s1,10
 1476 0454 6F000004 		j	.L77
 1477              	.LVL156:
 1478              	.L81:
GAS LISTING /tmp/cc4XBM2x.s 			page 35


  73:tests/Threads_C_API_test.hpp ****     for (; i < 13; i++) {
  74:tests/Threads_C_API_test.hpp ****         printString("D: i="); printInt(i); printString("\n");
 1479              		.loc 1 74 9 is_stmt 1 discriminator 1
 1480              		.loc 1 74 20 is_stmt 0 discriminator 1
 1481 0458 17050000 		lla	a0,.LC11
 1481      13050500 
 1482 0460 97000000 		call	_Z11printStringPKc@plt
 1482      E7800000 
 1483              	.LVL157:
 1484              		.loc 1 74 31 is_stmt 1 discriminator 1
 1485              		.loc 1 74 39 is_stmt 0 discriminator 1
 1486 0468 13060000 		li	a2,0
 1487 046c 9305A000 		li	a1,10
 1488 0470 13850400 		mv	a0,s1
 1489 0474 97000000 		call	_Z8printIntiii@plt
 1489      E7800000 
 1490              	.LVL158:
 1491              		.loc 1 74 44 is_stmt 1 discriminator 1
 1492              		.loc 1 74 55 is_stmt 0 discriminator 1
 1493 047c 17050000 		lla	a0,.LC1
 1493      13050500 
 1494 0484 97000000 		call	_Z11printStringPKc@plt
 1494      E7800000 
 1495              	.LVL159:
  73:tests/Threads_C_API_test.hpp ****     for (; i < 13; i++) {
 1496              		.loc 1 73 5 is_stmt 1 discriminator 1
 1497 048c 9B841400 		addiw	s1,s1,1
 1498              	.LVL160:
 1499 0490 93F4F40F 		andi	s1,s1,0xff
 1500              	.LVL161:
 1501              	.L77:
  73:tests/Threads_C_API_test.hpp ****     for (; i < 13; i++) {
 1502              		.loc 1 73 5 discriminator 2
  73:tests/Threads_C_API_test.hpp ****     for (; i < 13; i++) {
 1503              		.loc 1 73 14 discriminator 2
 1504 0494 9307C000 		li	a5,12
 1505 0498 E3F097FC 		bleu	s1,a5,.L81
  75:tests/Threads_C_API_test.hpp ****     }
  76:tests/Threads_C_API_test.hpp **** 
  77:tests/Threads_C_API_test.hpp ****     printString("D: dispatch\n");
 1506              		.loc 1 77 5
 1507              		.loc 1 77 16 is_stmt 0
 1508 049c 17050000 		lla	a0,.LC12
 1508      13050500 
 1509 04a4 97000000 		call	_Z11printStringPKc@plt
 1509      E7800000 
 1510              	.LVL162:
  78:tests/Threads_C_API_test.hpp ****     __asm__ ("li t1, 5");
 1511              		.loc 1 78 5 is_stmt 1
 1512              		.loc 1 78 25 is_stmt 0
 1513              	#APP
 1514              	# 78 "tests/Threads_C_API_test.hpp" 1
  79              	    thread_dispatch();
 1515              		li t1, 5
 1516              	# 0 "" 2
 1517              		.loc 1 79 5 is_stmt 1
 1518              		.loc 1 79 20 is_stmt 0
GAS LISTING /tmp/cc4XBM2x.s 			page 36


 1519              	#NO_APP
 1520 04b0 97000000 		call	_Z15thread_dispatchv@plt
 1520      E7800000 
 1521              	.LVL163:
  80:tests/Threads_C_API_test.hpp **** 
  81:tests/Threads_C_API_test.hpp ****     uint64 result = fibonacci(16);
 1522              		.loc 1 81 5 is_stmt 1
 1523              		.loc 1 81 30 is_stmt 0
 1524 04b8 13050001 		li	a0,16
 1525 04bc 97000000 		call	_Z9fibonaccim
 1525      E7800000 
 1526              	.LVL164:
 1527 04c4 13090500 		mv	s2,a0
 1528              	.LVL165:
  82:tests/Threads_C_API_test.hpp ****     printString("D: fibonaci="); printInt(result); printString("\n");
 1529              		.loc 1 82 5 is_stmt 1
 1530              		.loc 1 82 16 is_stmt 0
 1531 04c8 17050000 		lla	a0,.LC13
 1531      13050500 
 1532              	.LVL166:
 1533 04d0 97000000 		call	_Z11printStringPKc@plt
 1533      E7800000 
 1534              	.LVL167:
 1535              		.loc 1 82 34 is_stmt 1
 1536              		.loc 1 82 42 is_stmt 0
 1537 04d8 13060000 		li	a2,0
 1538 04dc 9305A000 		li	a1,10
 1539 04e0 1B050900 		sext.w	a0,s2
 1540 04e4 97000000 		call	_Z8printIntiii@plt
 1540      E7800000 
 1541              	.LVL168:
 1542              		.loc 1 82 52 is_stmt 1
 1543              		.loc 1 82 63 is_stmt 0
 1544 04ec 17050000 		lla	a0,.LC1
 1544      13050500 
 1545 04f4 97000000 		call	_Z11printStringPKc@plt
 1545      E7800000 
 1546              	.LVL169:
 1547 04fc 6F000004 		j	.L79
 1548              	.L82:
  83:tests/Threads_C_API_test.hpp **** 
  84:tests/Threads_C_API_test.hpp ****     for (; i < 16; i++) {
  85:tests/Threads_C_API_test.hpp ****         printString("D: i="); printInt(i); printString("\n");
 1549              		.loc 1 85 9 is_stmt 1 discriminator 1
 1550              		.loc 1 85 20 is_stmt 0 discriminator 1
 1551 0500 17050000 		lla	a0,.LC11
 1551      13050500 
 1552 0508 97000000 		call	_Z11printStringPKc@plt
 1552      E7800000 
 1553              	.LVL170:
 1554              		.loc 1 85 31 is_stmt 1 discriminator 1
 1555              		.loc 1 85 39 is_stmt 0 discriminator 1
 1556 0510 13060000 		li	a2,0
 1557 0514 9305A000 		li	a1,10
 1558 0518 13850400 		mv	a0,s1
 1559 051c 97000000 		call	_Z8printIntiii@plt
 1559      E7800000 
GAS LISTING /tmp/cc4XBM2x.s 			page 37


 1560              	.LVL171:
 1561              		.loc 1 85 44 is_stmt 1 discriminator 1
 1562              		.loc 1 85 55 is_stmt 0 discriminator 1
 1563 0524 17050000 		lla	a0,.LC1
 1563      13050500 
 1564 052c 97000000 		call	_Z11printStringPKc@plt
 1564      E7800000 
 1565              	.LVL172:
  84:tests/Threads_C_API_test.hpp ****         printString("D: i="); printInt(i); printString("\n");
 1566              		.loc 1 84 5 is_stmt 1 discriminator 1
 1567 0534 9B841400 		addiw	s1,s1,1
 1568              	.LVL173:
 1569 0538 93F4F40F 		andi	s1,s1,0xff
 1570              	.LVL174:
 1571              	.L79:
  84:tests/Threads_C_API_test.hpp ****         printString("D: i="); printInt(i); printString("\n");
 1572              		.loc 1 84 5 discriminator 2
  84:tests/Threads_C_API_test.hpp ****         printString("D: i="); printInt(i); printString("\n");
 1573              		.loc 1 84 14 discriminator 2
 1574 053c 9307F000 		li	a5,15
 1575 0540 E3F097FC 		bleu	s1,a5,.L82
  86:tests/Threads_C_API_test.hpp ****     }
  87:tests/Threads_C_API_test.hpp **** 
  88:tests/Threads_C_API_test.hpp ****     printString("D finished!\n");
 1576              		.loc 1 88 5
 1577              		.loc 1 88 16 is_stmt 0
 1578 0544 17050000 		lla	a0,.LC14
 1578      13050500 
 1579 054c 97000000 		call	_Z11printStringPKc@plt
 1579      E7800000 
 1580              	.LVL175:
  89:tests/Threads_C_API_test.hpp ****     finishedD = true;
 1581              		.loc 1 89 5 is_stmt 1
 1582              		.loc 1 89 15 is_stmt 0
 1583 0554 93071000 		li	a5,1
 1584 0558 17070000 		sb	a5,.LANCHOR0+11,a4
 1584      2300F700 
  90:tests/Threads_C_API_test.hpp ****     thread_dispatch();
 1585              		.loc 1 90 5 is_stmt 1
 1586              		.loc 1 90 20 is_stmt 0
 1587 0560 97000000 		call	_Z15thread_dispatchv@plt
 1587      E7800000 
 1588              	.LVL176:
  91:tests/Threads_C_API_test.hpp **** }
 1589              		.loc 1 91 1
 1590 0568 83308101 		ld	ra,24(sp)
 1591              		.cfi_restore 1
 1592 056c 03340101 		ld	s0,16(sp)
 1593              		.cfi_restore 8
 1594              		.cfi_def_cfa 2, 32
 1595 0570 83348100 		ld	s1,8(sp)
 1596              		.cfi_restore 9
 1597              	.LVL177:
 1598 0574 03390100 		ld	s2,0(sp)
 1599              		.cfi_restore 18
 1600              	.LVL178:
 1601 0578 13010102 		addi	sp,sp,32
GAS LISTING /tmp/cc4XBM2x.s 			page 38


 1602              		.cfi_def_cfa_offset 0
 1603 057c 67800000 		jr	ra
 1604              		.cfi_endproc
 1605              	.LFE16:
 1607              		.section	.rodata.str1.8
 1608 00ad 000000   		.align	3
 1609              	.LC15:
 1610 00b0 54687265 		.string	"ThreadA created\n"
 1610      61644120 
 1610      63726561 
 1610      7465640A 
 1610      00
 1611 00c1 00000000 		.align	3
 1611      000000
 1612              	.LC16:
 1613 00c8 54687265 		.string	"ThreadB created\n"
 1613      61644220 
 1613      63726561 
 1613      7465640A 
 1613      00
 1614 00d9 00000000 		.align	3
 1614      000000
 1615              	.LC17:
 1616 00e0 54687265 		.string	"ThreadC created\n"
 1616      61644320 
 1616      63726561 
 1616      7465640A 
 1616      00
 1617 00f1 00000000 		.align	3
 1617      000000
 1618              	.LC18:
 1619 00f8 54687265 		.string	"ThreadD created\n"
 1619      61644420 
 1619      63726561 
 1619      7465640A 
 1619      00
 1620              		.text
 1621              		.align	2
 1622              		.globl	_Z18Threads_C_API_testv
 1624              	_Z18Threads_C_API_testv:
 1625              	.LFB17:
  92:tests/Threads_C_API_test.hpp **** 
  93:tests/Threads_C_API_test.hpp **** 
  94:tests/Threads_C_API_test.hpp **** void Threads_C_API_test() {
 1626              		.loc 1 94 27 is_stmt 1
 1627              		.cfi_startproc
 1628 0580 130101FC 		addi	sp,sp,-64
 1629              		.cfi_def_cfa_offset 64
 1630 0584 233C1102 		sd	ra,56(sp)
 1631 0588 23388102 		sd	s0,48(sp)
 1632 058c 23349102 		sd	s1,40(sp)
 1633              		.cfi_offset 1, -8
 1634              		.cfi_offset 8, -16
 1635              		.cfi_offset 9, -24
 1636 0590 13040104 		addi	s0,sp,64
 1637              		.cfi_def_cfa 8, 0
  95:tests/Threads_C_API_test.hpp ****     thread_t threads[4];
GAS LISTING /tmp/cc4XBM2x.s 			page 39


 1638              		.loc 1 95 5
  96:tests/Threads_C_API_test.hpp ****     thread_create(&threads[0], workerBodyA, nullptr);
 1639              		.loc 1 96 5
 1640              		.loc 1 96 18 is_stmt 0
 1641 0594 13060000 		li	a2,0
 1642 0598 97050000 		lla	a1,_Z11workerBodyAPv
 1642      93850500 
 1643 05a0 130504FC 		addi	a0,s0,-64
 1644 05a4 97000000 		call	_Z13thread_createPP7_threadPFvPvES2_@plt
 1644      E7800000 
 1645              	.LVL179:
  97:tests/Threads_C_API_test.hpp ****     printString("ThreadA created\n");
 1646              		.loc 1 97 5 is_stmt 1
 1647              		.loc 1 97 16 is_stmt 0
 1648 05ac 17050000 		lla	a0,.LC15
 1648      13050500 
 1649 05b4 97000000 		call	_Z11printStringPKc@plt
 1649      E7800000 
 1650              	.LVL180:
  98:tests/Threads_C_API_test.hpp **** 
  99:tests/Threads_C_API_test.hpp ****     thread_create(&threads[1], workerBodyB, nullptr);
 1651              		.loc 1 99 5 is_stmt 1
 1652              		.loc 1 99 18 is_stmt 0
 1653 05bc 13060000 		li	a2,0
 1654 05c0 97050000 		lla	a1,_Z11workerBodyBPv
 1654      93850500 
 1655 05c8 130584FC 		addi	a0,s0,-56
 1656 05cc 97000000 		call	_Z13thread_createPP7_threadPFvPvES2_@plt
 1656      E7800000 
 1657              	.LVL181:
 100:tests/Threads_C_API_test.hpp ****     printString("ThreadB created\n");
 1658              		.loc 1 100 5 is_stmt 1
 1659              		.loc 1 100 16 is_stmt 0
 1660 05d4 17050000 		lla	a0,.LC16
 1660      13050500 
 1661 05dc 97000000 		call	_Z11printStringPKc@plt
 1661      E7800000 
 1662              	.LVL182:
 101:tests/Threads_C_API_test.hpp **** 
 102:tests/Threads_C_API_test.hpp ****     thread_create(&threads[2], workerBodyC, nullptr);
 1663              		.loc 1 102 5 is_stmt 1
 1664              		.loc 1 102 18 is_stmt 0
 1665 05e4 13060000 		li	a2,0
 1666 05e8 97050000 		lla	a1,_Z11workerBodyCPv
 1666      93850500 
 1667 05f0 130504FD 		addi	a0,s0,-48
 1668 05f4 97000000 		call	_Z13thread_createPP7_threadPFvPvES2_@plt
 1668      E7800000 
 1669              	.LVL183:
 103:tests/Threads_C_API_test.hpp ****     printString("ThreadC created\n");
 1670              		.loc 1 103 5 is_stmt 1
 1671              		.loc 1 103 16 is_stmt 0
 1672 05fc 17050000 		lla	a0,.LC17
 1672      13050500 
 1673 0604 97000000 		call	_Z11printStringPKc@plt
 1673      E7800000 
 1674              	.LVL184:
GAS LISTING /tmp/cc4XBM2x.s 			page 40


 104:tests/Threads_C_API_test.hpp **** 
 105:tests/Threads_C_API_test.hpp ****     thread_create(&threads[3], workerBodyD, nullptr);
 1675              		.loc 1 105 5 is_stmt 1
 1676              		.loc 1 105 18 is_stmt 0
 1677 060c 13060000 		li	a2,0
 1678 0610 97050000 		lla	a1,_Z11workerBodyDPv
 1678      93850500 
 1679 0618 130584FD 		addi	a0,s0,-40
 1680 061c 97000000 		call	_Z13thread_createPP7_threadPFvPvES2_@plt
 1680      E7800000 
 1681              	.LVL185:
 106:tests/Threads_C_API_test.hpp ****     printString("ThreadD created\n");
 1682              		.loc 1 106 5 is_stmt 1
 1683              		.loc 1 106 16 is_stmt 0
 1684 0624 17050000 		lla	a0,.LC18
 1684      13050500 
 1685 062c 97000000 		call	_Z11printStringPKc@plt
 1685      E7800000 
 1686              	.LVL186:
 1687 0634 6F00C000 		j	.L86
 1688              	.L84:
 107:tests/Threads_C_API_test.hpp **** 
 108:tests/Threads_C_API_test.hpp ****     while (!(finishedA && finishedB && finishedC && finishedD)) {
 109:tests/Threads_C_API_test.hpp ****         thread_dispatch();
 1689              		.loc 1 109 9 is_stmt 1
 1690              		.loc 1 109 24 is_stmt 0
 1691 0638 97000000 		call	_Z15thread_dispatchv@plt
 1691      E7800000 
 1692              	.LVL187:
 1693              	.L86:
 108:tests/Threads_C_API_test.hpp ****         thread_dispatch();
 1694              		.loc 1 108 5 is_stmt 1
 108:tests/Threads_C_API_test.hpp ****         thread_dispatch();
 1695              		.loc 1 108 12
 1696 0640 97070000 		lbu	a5,.LANCHOR0
 1696      83C70700 
 1697 0648 E38807FE 		beqz	a5,.L84
 108:tests/Threads_C_API_test.hpp ****         thread_dispatch();
 1698              		.loc 1 108 24 is_stmt 0 discriminator 1
 1699 064c 97070000 		lbu	a5,.LANCHOR0+1
 1699      83C70700 
 1700 0654 E38207FE 		beqz	a5,.L84
 108:tests/Threads_C_API_test.hpp ****         thread_dispatch();
 1701              		.loc 1 108 37 discriminator 2
 1702 0658 97070000 		lbu	a5,.LANCHOR0+10
 1702      83C70700 
 1703 0660 E38C07FC 		beqz	a5,.L84
 108:tests/Threads_C_API_test.hpp ****         thread_dispatch();
 1704              		.loc 1 108 12 discriminator 3
 1705 0664 97070000 		lbu	a5,.LANCHOR0+11
 1705      83C70700 
 1706 066c E38607FC 		beqz	a5,.L84
 1707              	.LBB81:
 110:tests/Threads_C_API_test.hpp ****     }
 111:tests/Threads_C_API_test.hpp **** 
 112:tests/Threads_C_API_test.hpp ****     for (auto &thread: threads) { delete thread; }
 1708              		.loc 1 112 24
GAS LISTING /tmp/cc4XBM2x.s 			page 41


 1709 0670 930404FC 		addi	s1,s0,-64
 1710 0674 6F008000 		j	.L85
 1711              	.LVL188:
 1712              	.L88:
 1713              		.loc 1 112 5 is_stmt 1 discriminator 4
 1714 0678 93848400 		addi	s1,s1,8
 1715              	.LVL189:
 1716              	.L85:
 1717              		.loc 1 112 24 discriminator 5
 1718 067c 930704FE 		addi	a5,s0,-32
 1719 0680 638CF400 		beq	s1,a5,.L83
 1720              	.LVL190:
 1721              		.loc 1 112 35 discriminator 2
 1722              		.loc 1 112 42 is_stmt 0 discriminator 2
 1723 0684 03B50400 		ld	a0,0(s1)
 1724              		.loc 1 112 48 discriminator 2
 1725 0688 E30805FE 		beqz	a0,.L88
 1726              		.loc 1 112 42 discriminator 3
 1727 068c 97000000 		call	_ZN7_threaddlEPv@plt
 1727      E7800000 
 1728              	.LVL191:
 1729 0694 6FF05FFE 		j	.L88
 1730              	.LVL192:
 1731              	.L83:
 1732              	.LBE81:
 113:tests/Threads_C_API_test.hpp **** }
 1733              		.loc 1 113 1
 1734 0698 83308103 		ld	ra,56(sp)
 1735              		.cfi_restore 1
 1736 069c 03340103 		ld	s0,48(sp)
 1737              		.cfi_restore 8
 1738              		.cfi_def_cfa 2, 64
 1739 06a0 83348102 		ld	s1,40(sp)
 1740              		.cfi_restore 9
 1741              	.LVL193:
 1742 06a4 13010104 		addi	sp,sp,64
 1743              		.cfi_def_cfa_offset 0
 1744 06a8 67800000 		jr	ra
 1745              		.cfi_endproc
 1746              	.LFE17:
 1748              		.align	2
 1749              		.globl	_ZN16ProducerKeyboard16producerKeyboardEPv
 1751              	_ZN16ProducerKeyboard16producerKeyboardEPv:
 1752              	.LFB24:
  33:tests/ConsumerProducer_CPP_Sync_API_test.hpp ****     struct thread_data *data = (struct thread_data *) arg;
 1753              		.loc 3 33 52 is_stmt 1
 1754              		.cfi_startproc
 1755              	.LVL194:
 1756 06ac 130101FD 		addi	sp,sp,-48
 1757              		.cfi_def_cfa_offset 48
 1758 06b0 23341102 		sd	ra,40(sp)
 1759 06b4 23308102 		sd	s0,32(sp)
 1760 06b8 233C9100 		sd	s1,24(sp)
 1761 06bc 23382101 		sd	s2,16(sp)
 1762 06c0 23343101 		sd	s3,8(sp)
 1763              		.cfi_offset 1, -8
 1764              		.cfi_offset 8, -16
GAS LISTING /tmp/cc4XBM2x.s 			page 42


 1765              		.cfi_offset 9, -24
 1766              		.cfi_offset 18, -32
 1767              		.cfi_offset 19, -40
 1768 06c4 13040103 		addi	s0,sp,48
 1769              		.cfi_def_cfa 8, 0
 1770 06c8 93090500 		mv	s3,a0
 1771 06cc 93840500 		mv	s1,a1
  34:tests/ConsumerProducer_CPP_Sync_API_test.hpp **** 
 1772              		.loc 3 34 5
 1773              	.LVL195:
  36:tests/ConsumerProducer_CPP_Sync_API_test.hpp ****     int i = 0;
 1774              		.loc 3 36 5
  37:tests/ConsumerProducer_CPP_Sync_API_test.hpp ****     while ((key = getc()) != 0x1b) {
 1775              		.loc 3 37 5
  37:tests/ConsumerProducer_CPP_Sync_API_test.hpp ****     while ((key = getc()) != 0x1b) {
 1776              		.loc 3 37 9 is_stmt 0
 1777 06d0 13090000 		li	s2,0
 1778 06d4 6F00C000 		j	.L92
 1779              	.LVL196:
 1780              	.L96:
  43:tests/ConsumerProducer_CPP_Sync_API_test.hpp ****         }
 1781              		.loc 3 43 13 is_stmt 1
  43:tests/ConsumerProducer_CPP_Sync_API_test.hpp ****         }
 1782              		.loc 3 43 29 is_stmt 0
 1783 06d8 97000000 		call	_ZN6Thread8dispatchEv@plt
 1783      E7800000 
 1784              	.LVL197:
 1785              	.L92:
  38:tests/ConsumerProducer_CPP_Sync_API_test.hpp ****         data->buffer->put(key);
 1786              		.loc 3 38 5 is_stmt 1
  38:tests/ConsumerProducer_CPP_Sync_API_test.hpp ****         data->buffer->put(key);
 1787              		.loc 3 38 27
  38:tests/ConsumerProducer_CPP_Sync_API_test.hpp ****         data->buffer->put(key);
 1788              		.loc 3 38 23 is_stmt 0
 1789 06e0 97000000 		call	_Z4getcv@plt
 1789      E7800000 
 1790              	.LVL198:
  38:tests/ConsumerProducer_CPP_Sync_API_test.hpp ****         data->buffer->put(key);
 1791              		.loc 3 38 17
 1792 06e8 9B050500 		sext.w	a1,a0
 1793              	.LVL199:
  38:tests/ConsumerProducer_CPP_Sync_API_test.hpp ****         data->buffer->put(key);
 1794              		.loc 3 38 27
 1795 06ec 9307B001 		li	a5,27
 1796 06f0 638AF502 		beq	a1,a5,.L93
  39:tests/ConsumerProducer_CPP_Sync_API_test.hpp ****         i++;
 1797              		.loc 3 39 9 is_stmt 1
  39:tests/ConsumerProducer_CPP_Sync_API_test.hpp ****         i++;
 1798              		.loc 3 39 26 is_stmt 0
 1799 06f4 03B58400 		ld	a0,8(s1)
 1800 06f8 97000000 		call	_ZN9BufferCPP3putEi@plt
 1800      E7800000 
 1801              	.LVL200:
  40:tests/ConsumerProducer_CPP_Sync_API_test.hpp **** 
 1802              		.loc 3 40 9 is_stmt 1
  40:tests/ConsumerProducer_CPP_Sync_API_test.hpp **** 
 1803              		.loc 3 40 10 is_stmt 0
GAS LISTING /tmp/cc4XBM2x.s 			page 43


 1804 0700 1B071900 		addiw	a4,s2,1
 1805 0704 1B090700 		sext.w	s2,a4
 1806              	.LVL201:
  42:tests/ConsumerProducer_CPP_Sync_API_test.hpp ****             Thread::dispatch();
 1807              		.loc 3 42 9 is_stmt 1
  42:tests/ConsumerProducer_CPP_Sync_API_test.hpp ****             Thread::dispatch();
 1808              		.loc 3 42 29 is_stmt 0
 1809 0708 83A60400 		lw	a3,0(s1)
  42:tests/ConsumerProducer_CPP_Sync_API_test.hpp ****             Thread::dispatch();
 1810              		.loc 3 42 21
 1811 070c 9B972600 		slliw	a5,a3,2
 1812 0710 BB87D700 		addw	a5,a5,a3
 1813 0714 9B971700 		slliw	a5,a5,1
  42:tests/ConsumerProducer_CPP_Sync_API_test.hpp ****             Thread::dispatch();
 1814              		.loc 3 42 15
 1815 0718 BB67F702 		remw	a5,a4,a5
  42:tests/ConsumerProducer_CPP_Sync_API_test.hpp ****             Thread::dispatch();
 1816              		.loc 3 42 9
 1817 071c E39207FC 		bnez	a5,.L92
 1818 0720 6FF09FFB 		j	.L96
 1819              	.LVL202:
 1820              	.L93:
  47:tests/ConsumerProducer_CPP_Sync_API_test.hpp ****     td->buffer->put('!');
 1821              		.loc 3 47 5 is_stmt 1
  47:tests/ConsumerProducer_CPP_Sync_API_test.hpp ****     td->buffer->put('!');
 1822              		.loc 3 47 15 is_stmt 0
 1823 0724 93071000 		li	a5,1
 1824 0728 17070000 		sw	a5,.LANCHOR0+12,a4
 1824      2320F700 
  48:tests/ConsumerProducer_CPP_Sync_API_test.hpp **** 
 1825              		.loc 3 48 5 is_stmt 1
 1826 0730 83B70901 		ld	a5,16(s3)
  48:tests/ConsumerProducer_CPP_Sync_API_test.hpp **** 
 1827              		.loc 3 48 20 is_stmt 0
 1828 0734 93051002 		li	a1,33
 1829              	.LVL203:
 1830 0738 03B58700 		ld	a0,8(a5)
 1831              	.LVL204:
 1832 073c 97000000 		call	_ZN9BufferCPP3putEi@plt
 1832      E7800000 
 1833              	.LVL205:
  50:tests/ConsumerProducer_CPP_Sync_API_test.hpp **** }
 1834              		.loc 3 50 5 is_stmt 1
  50:tests/ConsumerProducer_CPP_Sync_API_test.hpp **** }
 1835              		.loc 3 50 23 is_stmt 0
 1836 0744 03B50401 		ld	a0,16(s1)
 1837 0748 97000000 		call	_ZN9Semaphore6signalEv@plt
 1837      E7800000 
 1838              	.LVL206:
  51:tests/ConsumerProducer_CPP_Sync_API_test.hpp **** 
 1839              		.loc 3 51 1
 1840 0750 83308102 		ld	ra,40(sp)
 1841              		.cfi_restore 1
 1842 0754 03340102 		ld	s0,32(sp)
 1843              		.cfi_restore 8
 1844              		.cfi_def_cfa 2, 48
 1845 0758 83348101 		ld	s1,24(sp)
GAS LISTING /tmp/cc4XBM2x.s 			page 44


 1846              		.cfi_restore 9
 1847              	.LVL207:
 1848 075c 03390101 		ld	s2,16(sp)
 1849              		.cfi_restore 18
 1850              	.LVL208:
 1851 0760 83398100 		ld	s3,8(sp)
 1852              		.cfi_restore 19
 1853              	.LVL209:
 1854 0764 13010103 		addi	sp,sp,48
 1855              		.cfi_def_cfa_offset 0
 1856 0768 67800000 		jr	ra
 1857              		.cfi_endproc
 1858              	.LFE24:
 1860              		.section	.text._ZN16ProducerKeyboard3runEv,"axG",@progbits,_ZN16ProducerKeyboard3runEv,comdat
 1861              		.align	2
 1862              		.weak	_ZN16ProducerKeyboard3runEv
 1864              	_ZN16ProducerKeyboard3runEv:
 1865              	.LFB23:
  28:tests/ConsumerProducer_CPP_Sync_API_test.hpp ****         producerKeyboard(td);
 1866              		.loc 3 28 10 is_stmt 1
 1867              		.cfi_startproc
 1868              	.LVL210:
 1869 0000 130101FF 		addi	sp,sp,-16
 1870              		.cfi_def_cfa_offset 16
 1871 0004 23341100 		sd	ra,8(sp)
 1872 0008 23308100 		sd	s0,0(sp)
 1873              		.cfi_offset 1, -8
 1874              		.cfi_offset 8, -16
 1875 000c 13040101 		addi	s0,sp,16
 1876              		.cfi_def_cfa 8, 0
  29:tests/ConsumerProducer_CPP_Sync_API_test.hpp ****     }
 1877              		.loc 3 29 9
  29:tests/ConsumerProducer_CPP_Sync_API_test.hpp ****     }
 1878              		.loc 3 29 25 is_stmt 0
 1879 0010 83350501 		ld	a1,16(a0)
 1880 0014 97000000 		call	_ZN16ProducerKeyboard16producerKeyboardEPv
 1880      E7800000 
 1881              	.LVL211:
  30:tests/ConsumerProducer_CPP_Sync_API_test.hpp **** };
 1882              		.loc 3 30 5
 1883 001c 83308100 		ld	ra,8(sp)
 1884              		.cfi_restore 1
 1885 0020 03340100 		ld	s0,0(sp)
 1886              		.cfi_restore 8
 1887              		.cfi_def_cfa 2, 16
 1888 0024 13010101 		addi	sp,sp,16
 1889              		.cfi_def_cfa_offset 0
 1890 0028 67800000 		jr	ra
 1891              		.cfi_endproc
 1892              	.LFE23:
 1894              		.text
 1895              		.align	2
 1896              		.globl	_ZN8Producer8producerEPv
 1898              	_ZN8Producer8producerEPv:
 1899              	.LFB29:
  64:tests/ConsumerProducer_CPP_Sync_API_test.hpp ****     struct thread_data *data = (struct thread_data *) arg;
 1900              		.loc 3 64 36 is_stmt 1
GAS LISTING /tmp/cc4XBM2x.s 			page 45


 1901              		.cfi_startproc
 1902              	.LVL212:
 1903 076c 130101FE 		addi	sp,sp,-32
 1904              		.cfi_def_cfa_offset 32
 1905 0770 233C1100 		sd	ra,24(sp)
 1906 0774 23388100 		sd	s0,16(sp)
 1907 0778 23349100 		sd	s1,8(sp)
 1908 077c 23302101 		sd	s2,0(sp)
 1909              		.cfi_offset 1, -8
 1910              		.cfi_offset 8, -16
 1911              		.cfi_offset 9, -24
 1912              		.cfi_offset 18, -32
 1913 0780 13040102 		addi	s0,sp,32
 1914              		.cfi_def_cfa 8, 0
 1915 0784 93840500 		mv	s1,a1
  65:tests/ConsumerProducer_CPP_Sync_API_test.hpp **** 
 1916              		.loc 3 65 5
 1917              	.LVL213:
  67:tests/ConsumerProducer_CPP_Sync_API_test.hpp ****     while (!threadEnd) {
 1918              		.loc 3 67 5
  67:tests/ConsumerProducer_CPP_Sync_API_test.hpp ****     while (!threadEnd) {
 1919              		.loc 3 67 9 is_stmt 0
 1920 0788 13090000 		li	s2,0
 1921 078c 6F00C000 		j	.L100
 1922              	.LVL214:
 1923              	.L104:
  73:tests/ConsumerProducer_CPP_Sync_API_test.hpp ****         }
 1924              		.loc 3 73 13 is_stmt 1
  73:tests/ConsumerProducer_CPP_Sync_API_test.hpp ****         }
 1925              		.loc 3 73 29 is_stmt 0
 1926 0790 97000000 		call	_ZN6Thread8dispatchEv@plt
 1926      E7800000 
 1927              	.LVL215:
 1928              	.L100:
  68:tests/ConsumerProducer_CPP_Sync_API_test.hpp ****         data->buffer->put(data->id + '0');
 1929              		.loc 3 68 5 is_stmt 1
  68:tests/ConsumerProducer_CPP_Sync_API_test.hpp ****         data->buffer->put(data->id + '0');
 1930              		.loc 3 68 12
 1931 0798 97070000 		lw	a5,.LANCHOR0+12
 1931      83A70700 
 1932 07a0 639E0702 		bnez	a5,.L101
  69:tests/ConsumerProducer_CPP_Sync_API_test.hpp ****         i++;
 1933              		.loc 3 69 9
  69:tests/ConsumerProducer_CPP_Sync_API_test.hpp ****         i++;
 1934              		.loc 3 69 33 is_stmt 0
 1935 07a4 83A50400 		lw	a1,0(s1)
  69:tests/ConsumerProducer_CPP_Sync_API_test.hpp ****         i++;
 1936              		.loc 3 69 26
 1937 07a8 9B850503 		addiw	a1,a1,48
 1938 07ac 03B58400 		ld	a0,8(s1)
 1939 07b0 97000000 		call	_ZN9BufferCPP3putEi@plt
 1939      E7800000 
 1940              	.LVL216:
  70:tests/ConsumerProducer_CPP_Sync_API_test.hpp **** 
 1941              		.loc 3 70 9 is_stmt 1
  70:tests/ConsumerProducer_CPP_Sync_API_test.hpp **** 
 1942              		.loc 3 70 10 is_stmt 0
GAS LISTING /tmp/cc4XBM2x.s 			page 46


 1943 07b8 1B071900 		addiw	a4,s2,1
 1944 07bc 1B090700 		sext.w	s2,a4
 1945              	.LVL217:
  72:tests/ConsumerProducer_CPP_Sync_API_test.hpp ****             Thread::dispatch();
 1946              		.loc 3 72 9 is_stmt 1
  72:tests/ConsumerProducer_CPP_Sync_API_test.hpp ****             Thread::dispatch();
 1947              		.loc 3 72 29 is_stmt 0
 1948 07c0 83A60400 		lw	a3,0(s1)
  72:tests/ConsumerProducer_CPP_Sync_API_test.hpp ****             Thread::dispatch();
 1949              		.loc 3 72 21
 1950 07c4 9B972600 		slliw	a5,a3,2
 1951 07c8 BB87D700 		addw	a5,a5,a3
 1952 07cc 9B971700 		slliw	a5,a5,1
  72:tests/ConsumerProducer_CPP_Sync_API_test.hpp ****             Thread::dispatch();
 1953              		.loc 3 72 15
 1954 07d0 BB67F702 		remw	a5,a4,a5
  72:tests/ConsumerProducer_CPP_Sync_API_test.hpp ****             Thread::dispatch();
 1955              		.loc 3 72 9
 1956 07d4 E39207FC 		bnez	a5,.L100
 1957 07d8 6FF09FFB 		j	.L104
 1958              	.LVL218:
 1959              	.L101:
  77:tests/ConsumerProducer_CPP_Sync_API_test.hpp **** }
 1960              		.loc 3 77 5 is_stmt 1
  77:tests/ConsumerProducer_CPP_Sync_API_test.hpp **** }
 1961              		.loc 3 77 23 is_stmt 0
 1962 07dc 03B50401 		ld	a0,16(s1)
 1963 07e0 97000000 		call	_ZN9Semaphore6signalEv@plt
 1963      E7800000 
 1964              	.LVL219:
  78:tests/ConsumerProducer_CPP_Sync_API_test.hpp **** 
 1965              		.loc 3 78 1
 1966 07e8 83308101 		ld	ra,24(sp)
 1967              		.cfi_restore 1
 1968 07ec 03340101 		ld	s0,16(sp)
 1969              		.cfi_restore 8
 1970              		.cfi_def_cfa 2, 32
 1971 07f0 83348100 		ld	s1,8(sp)
 1972              		.cfi_restore 9
 1973              	.LVL220:
 1974 07f4 03390100 		ld	s2,0(sp)
 1975              		.cfi_restore 18
 1976              	.LVL221:
 1977 07f8 13010102 		addi	sp,sp,32
 1978              		.cfi_def_cfa_offset 0
 1979 07fc 67800000 		jr	ra
 1980              		.cfi_endproc
 1981              	.LFE29:
 1983              		.section	.text._ZN8Producer3runEv,"axG",@progbits,_ZN8Producer3runEv,comdat
 1984              		.align	2
 1985              		.weak	_ZN8Producer3runEv
 1987              	_ZN8Producer3runEv:
 1988              	.LFB28:
  59:tests/ConsumerProducer_CPP_Sync_API_test.hpp ****         producer(td);
 1989              		.loc 3 59 10 is_stmt 1
 1990              		.cfi_startproc
 1991              	.LVL222:
GAS LISTING /tmp/cc4XBM2x.s 			page 47


 1992 0000 130101FF 		addi	sp,sp,-16
 1993              		.cfi_def_cfa_offset 16
 1994 0004 23341100 		sd	ra,8(sp)
 1995 0008 23308100 		sd	s0,0(sp)
 1996              		.cfi_offset 1, -8
 1997              		.cfi_offset 8, -16
 1998 000c 13040101 		addi	s0,sp,16
 1999              		.cfi_def_cfa 8, 0
  60:tests/ConsumerProducer_CPP_Sync_API_test.hpp ****     }
 2000              		.loc 3 60 9
  60:tests/ConsumerProducer_CPP_Sync_API_test.hpp ****     }
 2001              		.loc 3 60 17 is_stmt 0
 2002 0010 83350501 		ld	a1,16(a0)
 2003 0014 97000000 		call	_ZN8Producer8producerEPv
 2003      E7800000 
 2004              	.LVL223:
  61:tests/ConsumerProducer_CPP_Sync_API_test.hpp **** };
 2005              		.loc 3 61 5
 2006 001c 83308100 		ld	ra,8(sp)
 2007              		.cfi_restore 1
 2008 0020 03340100 		ld	s0,0(sp)
 2009              		.cfi_restore 8
 2010              		.cfi_def_cfa 2, 16
 2011 0024 13010101 		addi	sp,sp,16
 2012              		.cfi_def_cfa_offset 0
 2013 0028 67800000 		jr	ra
 2014              		.cfi_endproc
 2015              	.LFE28:
 2017              		.text
 2018              		.align	2
 2019              		.globl	_ZN8Consumer8consumerEPv
 2021              	_ZN8Consumer8consumerEPv:
 2022              	.LFB34:
  81:tests/ConsumerProducer_CPP_Sync_API_test.hpp ****     thread_data* td;
  82:tests/ConsumerProducer_CPP_Sync_API_test.hpp ****     void consumer(void *arg);
  83:tests/ConsumerProducer_CPP_Sync_API_test.hpp **** public:
  84:tests/ConsumerProducer_CPP_Sync_API_test.hpp ****     Consumer(thread_data* _td):Thread(), td(_td) {}
  85:tests/ConsumerProducer_CPP_Sync_API_test.hpp **** 
  86:tests/ConsumerProducer_CPP_Sync_API_test.hpp ****     void run() override {
  87:tests/ConsumerProducer_CPP_Sync_API_test.hpp ****         consumer(td);
  88:tests/ConsumerProducer_CPP_Sync_API_test.hpp ****     }
  89:tests/ConsumerProducer_CPP_Sync_API_test.hpp **** };
  90:tests/ConsumerProducer_CPP_Sync_API_test.hpp **** 
  91:tests/ConsumerProducer_CPP_Sync_API_test.hpp **** void Consumer::consumer(void *arg) {
 2023              		.loc 3 91 36 is_stmt 1
 2024              		.cfi_startproc
 2025              	.LVL224:
 2026 0800 130101FD 		addi	sp,sp,-48
 2027              		.cfi_def_cfa_offset 48
 2028 0804 23341102 		sd	ra,40(sp)
 2029 0808 23308102 		sd	s0,32(sp)
 2030 080c 233C9100 		sd	s1,24(sp)
 2031 0810 23382101 		sd	s2,16(sp)
 2032 0814 23343101 		sd	s3,8(sp)
 2033 0818 23304101 		sd	s4,0(sp)
 2034              		.cfi_offset 1, -8
 2035              		.cfi_offset 8, -16
GAS LISTING /tmp/cc4XBM2x.s 			page 48


 2036              		.cfi_offset 9, -24
 2037              		.cfi_offset 18, -32
 2038              		.cfi_offset 19, -40
 2039              		.cfi_offset 20, -48
 2040 081c 13040103 		addi	s0,sp,48
 2041              		.cfi_def_cfa 8, 0
 2042 0820 93090500 		mv	s3,a0
 2043 0824 13890500 		mv	s2,a1
  92:tests/ConsumerProducer_CPP_Sync_API_test.hpp ****     struct thread_data *data = (struct thread_data *) arg;
 2044              		.loc 3 92 5
 2045              	.LVL225:
  93:tests/ConsumerProducer_CPP_Sync_API_test.hpp **** 
  94:tests/ConsumerProducer_CPP_Sync_API_test.hpp ****     int i = 0;
 2046              		.loc 3 94 5
 2047              		.loc 3 94 9 is_stmt 0
 2048 0828 130A0000 		li	s4,0
 2049 082c 6F00C001 		j	.L108
 2050              	.LVL226:
 2051              	.L114:
 2052              	.LBB82:
  95:tests/ConsumerProducer_CPP_Sync_API_test.hpp ****     while (!threadEnd) {
  96:tests/ConsumerProducer_CPP_Sync_API_test.hpp ****         int key = data->buffer->get();
  97:tests/ConsumerProducer_CPP_Sync_API_test.hpp ****         i++;
  98:tests/ConsumerProducer_CPP_Sync_API_test.hpp **** 
  99:tests/ConsumerProducer_CPP_Sync_API_test.hpp ****         putc(key);
 100:tests/ConsumerProducer_CPP_Sync_API_test.hpp **** 
 101:tests/ConsumerProducer_CPP_Sync_API_test.hpp ****         if (i % (5 * data->id) == 0) {
 102:tests/ConsumerProducer_CPP_Sync_API_test.hpp ****             Thread::dispatch();
 2053              		.loc 3 102 13 is_stmt 1
 2054              		.loc 3 102 29 is_stmt 0
 2055 0830 97000000 		call	_ZN6Thread8dispatchEv@plt
 2055      E7800000 
 2056              	.LVL227:
 2057 0838 6F000005 		j	.L110
 2058              	.LVL228:
 2059              	.L115:
 103:tests/ConsumerProducer_CPP_Sync_API_test.hpp ****         }
 104:tests/ConsumerProducer_CPP_Sync_API_test.hpp **** 
 105:tests/ConsumerProducer_CPP_Sync_API_test.hpp ****         if (i % 80 == 0) {
 106:tests/ConsumerProducer_CPP_Sync_API_test.hpp ****             putc('\n');
 2060              		.loc 3 106 13 is_stmt 1
 2061              		.loc 3 106 17 is_stmt 0
 2062 083c 1305A000 		li	a0,10
 2063 0840 97000000 		call	_Z4putcc@plt
 2063      E7800000 
 2064              	.LVL229:
 2065              	.L108:
 2066              	.LBE82:
  95:tests/ConsumerProducer_CPP_Sync_API_test.hpp ****     while (!threadEnd) {
 2067              		.loc 3 95 5 is_stmt 1
  95:tests/ConsumerProducer_CPP_Sync_API_test.hpp ****     while (!threadEnd) {
 2068              		.loc 3 95 12
 2069 0848 97070000 		lw	a5,.LANCHOR0+12
 2069      83A70700 
 2070 0850 63920706 		bnez	a5,.L109
 2071              	.LBB83:
  96:tests/ConsumerProducer_CPP_Sync_API_test.hpp ****         i++;
GAS LISTING /tmp/cc4XBM2x.s 			page 49


 2072              		.loc 3 96 9
  96:tests/ConsumerProducer_CPP_Sync_API_test.hpp ****         i++;
 2073              		.loc 3 96 36 is_stmt 0
 2074 0854 03358900 		ld	a0,8(s2)
 2075 0858 97000000 		call	_ZN9BufferCPP3getEv@plt
 2075      E7800000 
 2076              	.LVL230:
  97:tests/ConsumerProducer_CPP_Sync_API_test.hpp **** 
 2077              		.loc 3 97 9 is_stmt 1
  97:tests/ConsumerProducer_CPP_Sync_API_test.hpp **** 
 2078              		.loc 3 97 10 is_stmt 0
 2079 0860 9B041A00 		addiw	s1,s4,1
 2080 0864 1B8A0400 		sext.w	s4,s1
 2081              	.LVL231:
  99:tests/ConsumerProducer_CPP_Sync_API_test.hpp **** 
 2082              		.loc 3 99 9 is_stmt 1
  99:tests/ConsumerProducer_CPP_Sync_API_test.hpp **** 
 2083              		.loc 3 99 13 is_stmt 0
 2084 0868 1375F50F 		andi	a0,a0,0xff
 2085              	.LVL232:
 2086 086c 97000000 		call	_Z4putcc@plt
 2086      E7800000 
 2087              	.LVL233:
 101:tests/ConsumerProducer_CPP_Sync_API_test.hpp ****             Thread::dispatch();
 2088              		.loc 3 101 9 is_stmt 1
 101:tests/ConsumerProducer_CPP_Sync_API_test.hpp ****             Thread::dispatch();
 2089              		.loc 3 101 28 is_stmt 0
 2090 0874 03270900 		lw	a4,0(s2)
 101:tests/ConsumerProducer_CPP_Sync_API_test.hpp ****             Thread::dispatch();
 2091              		.loc 3 101 20
 2092 0878 9B172700 		slliw	a5,a4,2
 2093 087c BB87E700 		addw	a5,a5,a4
 101:tests/ConsumerProducer_CPP_Sync_API_test.hpp ****             Thread::dispatch();
 2094              		.loc 3 101 15
 2095 0880 BBE7F402 		remw	a5,s1,a5
 101:tests/ConsumerProducer_CPP_Sync_API_test.hpp ****             Thread::dispatch();
 2096              		.loc 3 101 9
 2097 0884 E38607FA 		beqz	a5,.L114
 2098              	.L110:
 105:tests/ConsumerProducer_CPP_Sync_API_test.hpp ****             putc('\n');
 2099              		.loc 3 105 9 is_stmt 1
 105:tests/ConsumerProducer_CPP_Sync_API_test.hpp ****             putc('\n');
 2100              		.loc 3 105 15 is_stmt 0
 2101 0888 93070005 		li	a5,80
 2102 088c BBE4F402 		remw	s1,s1,a5
 2103              	.LVL234:
 105:tests/ConsumerProducer_CPP_Sync_API_test.hpp ****             putc('\n');
 2104              		.loc 3 105 9
 2105 0890 E39C04FA 		bnez	s1,.L108
 2106 0894 6FF09FFA 		j	.L115
 2107              	.L116:
 2108              	.LBE83:
 2109              	.LBB84:
 107:tests/ConsumerProducer_CPP_Sync_API_test.hpp ****         }
 108:tests/ConsumerProducer_CPP_Sync_API_test.hpp ****     }
 109:tests/ConsumerProducer_CPP_Sync_API_test.hpp **** 
 110:tests/ConsumerProducer_CPP_Sync_API_test.hpp **** 
GAS LISTING /tmp/cc4XBM2x.s 			page 50


 111:tests/ConsumerProducer_CPP_Sync_API_test.hpp ****     while (td->buffer->getCnt() > 0) {
 112:tests/ConsumerProducer_CPP_Sync_API_test.hpp ****         int key = td->buffer->get();
 2110              		.loc 3 112 9 is_stmt 1
 2111              		.loc 3 112 19 is_stmt 0
 2112 0898 83B70901 		ld	a5,16(s3)
 2113              		.loc 3 112 34
 2114 089c 03B58700 		ld	a0,8(a5)
 2115 08a0 97000000 		call	_ZN9BufferCPP3getEv@plt
 2115      E7800000 
 2116              	.LVL235:
 113:tests/ConsumerProducer_CPP_Sync_API_test.hpp ****         Console::putc(key);
 2117              		.loc 3 113 9 is_stmt 1
 2118              		.loc 3 113 22 is_stmt 0
 2119 08a8 1375F50F 		andi	a0,a0,0xff
 2120              	.LVL236:
 2121 08ac 97000000 		call	_ZN7Console4putcEc@plt
 2121      E7800000 
 2122              	.LVL237:
 2123              	.L109:
 2124              	.LBE84:
 111:tests/ConsumerProducer_CPP_Sync_API_test.hpp ****         int key = td->buffer->get();
 2125              		.loc 3 111 5 is_stmt 1
 111:tests/ConsumerProducer_CPP_Sync_API_test.hpp ****         int key = td->buffer->get();
 2126              		.loc 3 111 33
 111:tests/ConsumerProducer_CPP_Sync_API_test.hpp ****         int key = td->buffer->get();
 2127              		.loc 3 111 12 is_stmt 0
 2128 08b4 83B70901 		ld	a5,16(s3)
 111:tests/ConsumerProducer_CPP_Sync_API_test.hpp ****         int key = td->buffer->get();
 2129              		.loc 3 111 30
 2130 08b8 03B58700 		ld	a0,8(a5)
 2131 08bc 97000000 		call	_ZN9BufferCPP6getCntEv@plt
 2131      E7800000 
 2132              	.LVL238:
 111:tests/ConsumerProducer_CPP_Sync_API_test.hpp ****         int key = td->buffer->get();
 2133              		.loc 3 111 33
 2134 08c4 E34AA0FC 		bgtz	a0,.L116
 114:tests/ConsumerProducer_CPP_Sync_API_test.hpp ****     }
 115:tests/ConsumerProducer_CPP_Sync_API_test.hpp **** 
 116:tests/ConsumerProducer_CPP_Sync_API_test.hpp ****     data->wait->signal();
 2135              		.loc 3 116 5 is_stmt 1
 2136              		.loc 3 116 23 is_stmt 0
 2137 08c8 03350901 		ld	a0,16(s2)
 2138 08cc 97000000 		call	_ZN9Semaphore6signalEv@plt
 2138      E7800000 
 2139              	.LVL239:
 117:tests/ConsumerProducer_CPP_Sync_API_test.hpp **** }
 2140              		.loc 3 117 1
 2141 08d4 83308102 		ld	ra,40(sp)
 2142              		.cfi_restore 1
 2143 08d8 03340102 		ld	s0,32(sp)
 2144              		.cfi_restore 8
 2145              		.cfi_def_cfa 2, 48
 2146 08dc 83348101 		ld	s1,24(sp)
 2147              		.cfi_restore 9
 2148 08e0 03390101 		ld	s2,16(sp)
 2149              		.cfi_restore 18
 2150              	.LVL240:
GAS LISTING /tmp/cc4XBM2x.s 			page 51


 2151 08e4 83398100 		ld	s3,8(sp)
 2152              		.cfi_restore 19
 2153              	.LVL241:
 2154 08e8 033A0100 		ld	s4,0(sp)
 2155              		.cfi_restore 20
 2156              	.LVL242:
 2157 08ec 13010103 		addi	sp,sp,48
 2158              		.cfi_def_cfa_offset 0
 2159 08f0 67800000 		jr	ra
 2160              		.cfi_endproc
 2161              	.LFE34:
 2163              		.section	.text._ZN8Consumer3runEv,"axG",@progbits,_ZN8Consumer3runEv,comdat
 2164              		.align	2
 2165              		.weak	_ZN8Consumer3runEv
 2167              	_ZN8Consumer3runEv:
 2168              	.LFB33:
  86:tests/ConsumerProducer_CPP_Sync_API_test.hpp ****         consumer(td);
 2169              		.loc 3 86 10 is_stmt 1
 2170              		.cfi_startproc
 2171              	.LVL243:
 2172 0000 130101FF 		addi	sp,sp,-16
 2173              		.cfi_def_cfa_offset 16
 2174 0004 23341100 		sd	ra,8(sp)
 2175 0008 23308100 		sd	s0,0(sp)
 2176              		.cfi_offset 1, -8
 2177              		.cfi_offset 8, -16
 2178 000c 13040101 		addi	s0,sp,16
 2179              		.cfi_def_cfa 8, 0
  87:tests/ConsumerProducer_CPP_Sync_API_test.hpp ****     }
 2180              		.loc 3 87 9
  87:tests/ConsumerProducer_CPP_Sync_API_test.hpp ****     }
 2181              		.loc 3 87 17 is_stmt 0
 2182 0010 83350501 		ld	a1,16(a0)
 2183 0014 97000000 		call	_ZN8Consumer8consumerEPv
 2183      E7800000 
 2184              	.LVL244:
  88:tests/ConsumerProducer_CPP_Sync_API_test.hpp **** };
 2185              		.loc 3 88 5
 2186 001c 83308100 		ld	ra,8(sp)
 2187              		.cfi_restore 1
 2188 0020 03340100 		ld	s0,0(sp)
 2189              		.cfi_restore 8
 2190              		.cfi_def_cfa 2, 16
 2191 0024 13010101 		addi	sp,sp,16
 2192              		.cfi_def_cfa_offset 0
 2193 0028 67800000 		jr	ra
 2194              		.cfi_endproc
 2195              	.LFE33:
 2197              		.section	.rodata.str1.8
 2198 0109 00000000 		.align	3
 2198      000000
 2199              	.LC19:
 2200 0110 556E6573 		.string	"Unesite broj proizvodjaca?\n"
 2200      69746520 
 2200      62726F6A 
 2200      2070726F 
 2200      697A766F 
GAS LISTING /tmp/cc4XBM2x.s 			page 52


 2201 012c 00000000 		.align	3
 2202              	.LC20:
 2203 0130 556E6573 		.string	"Unesite velicinu bafera?\n"
 2203      69746520 
 2203      76656C69 
 2203      63696E75 
 2203      20626166 
 2204 014a 00000000 		.align	3
 2204      0000
 2205              	.LC21:
 2206 0150 42726F6A 		.string	"Broj proizvodjaca "
 2206      2070726F 
 2206      697A766F 
 2206      646A6163 
 2206      612000
 2207 0163 00000000 		.align	3
 2207      00
 2208              	.LC22:
 2209 0168 20692076 		.string	" i velicina bafera "
 2209      656C6963 
 2209      696E6120 
 2209      62616665 
 2209      72612000 
 2210 017c 00000000 		.align	3
 2211              	.LC23:
 2212 0180 2E0A00   		.string	".\n"
 2213 0183 00000000 		.align	3
 2213      00
 2214              	.LC24:
 2215 0188 42726F6A 		.string	"Broj proizvodjaca ne sme biti manji od velicine bafera!\n"
 2215      2070726F 
 2215      697A766F 
 2215      646A6163 
 2215      61206E65 
 2216 01c1 00000000 		.align	3
 2216      000000
 2217              	.LC25:
 2218 01c8 42726F6A 		.string	"Broj proizvodjaca mora biti veci od nula!\n"
 2218      2070726F 
 2218      697A766F 
 2218      646A6163 
 2218      61206D6F 
 2219              		.text
 2220              		.align	2
 2221              		.globl	_Z29producerConsumer_CPP_Sync_APIv
 2223              	_Z29producerConsumer_CPP_Sync_APIv:
 2224              	.LFB35:
 118:tests/ConsumerProducer_CPP_Sync_API_test.hpp **** 
 119:tests/ConsumerProducer_CPP_Sync_API_test.hpp **** void producerConsumer_CPP_Sync_API() {
 2225              		.loc 3 119 38 is_stmt 1
 2226              		.cfi_startproc
 2227              		.cfi_personality 0x9b,DW.ref.__gxx_personality_v0
 2228              		.cfi_lsda 0x1b,.LLSDA35
 2229 08f4 130101F8 		addi	sp,sp,-128
 2230              		.cfi_def_cfa_offset 128
 2231 08f8 233C1106 		sd	ra,120(sp)
 2232 08fc 23388106 		sd	s0,112(sp)
GAS LISTING /tmp/cc4XBM2x.s 			page 53


 2233 0900 23349106 		sd	s1,104(sp)
 2234 0904 23302107 		sd	s2,96(sp)
 2235 0908 233C3105 		sd	s3,88(sp)
 2236 090c 23384105 		sd	s4,80(sp)
 2237 0910 23345105 		sd	s5,72(sp)
 2238 0914 23306105 		sd	s6,64(sp)
 2239 0918 233C7103 		sd	s7,56(sp)
 2240 091c 23388103 		sd	s8,48(sp)
 2241 0920 23349103 		sd	s9,40(sp)
 2242              		.cfi_offset 1, -8
 2243              		.cfi_offset 8, -16
 2244              		.cfi_offset 9, -24
 2245              		.cfi_offset 18, -32
 2246              		.cfi_offset 19, -40
 2247              		.cfi_offset 20, -48
 2248              		.cfi_offset 21, -56
 2249              		.cfi_offset 22, -64
 2250              		.cfi_offset 23, -72
 2251              		.cfi_offset 24, -80
 2252              		.cfi_offset 25, -88
 2253 0924 13040108 		addi	s0,sp,128
 2254              		.cfi_def_cfa 8, 0
 120:tests/ConsumerProducer_CPP_Sync_API_test.hpp ****     char input[30];
 121:tests/ConsumerProducer_CPP_Sync_API_test.hpp ****     int n, threadNum;
 122:tests/ConsumerProducer_CPP_Sync_API_test.hpp **** 
 123:tests/ConsumerProducer_CPP_Sync_API_test.hpp ****     printString("Unesite broj proizvodjaca?\n");
 124:tests/ConsumerProducer_CPP_Sync_API_test.hpp ****     getString(input, 30);
 125:tests/ConsumerProducer_CPP_Sync_API_test.hpp ****     threadNum = stringToInt(input);
 126:tests/ConsumerProducer_CPP_Sync_API_test.hpp **** 
 127:tests/ConsumerProducer_CPP_Sync_API_test.hpp ****     printString("Unesite velicinu bafera?\n");
 128:tests/ConsumerProducer_CPP_Sync_API_test.hpp ****     getString(input, 30);
 129:tests/ConsumerProducer_CPP_Sync_API_test.hpp ****     n = stringToInt(input);
 130:tests/ConsumerProducer_CPP_Sync_API_test.hpp **** 
 131:tests/ConsumerProducer_CPP_Sync_API_test.hpp ****     printString("Broj proizvodjaca "); printInt(threadNum);
 132:tests/ConsumerProducer_CPP_Sync_API_test.hpp ****     printString(" i velicina bafera "); printInt(n);
 133:tests/ConsumerProducer_CPP_Sync_API_test.hpp ****     printString(".\n");
 134:tests/ConsumerProducer_CPP_Sync_API_test.hpp **** 
 135:tests/ConsumerProducer_CPP_Sync_API_test.hpp ****     if(threadNum > n) {
 136:tests/ConsumerProducer_CPP_Sync_API_test.hpp ****         printString("Broj proizvodjaca ne sme biti manji od velicine bafera!\n");
 137:tests/ConsumerProducer_CPP_Sync_API_test.hpp ****         return;
 138:tests/ConsumerProducer_CPP_Sync_API_test.hpp ****     } else if (threadNum < 1) {
 139:tests/ConsumerProducer_CPP_Sync_API_test.hpp ****         printString("Broj proizvodjaca mora biti veci od nula!\n");
 140:tests/ConsumerProducer_CPP_Sync_API_test.hpp ****         return;
 141:tests/ConsumerProducer_CPP_Sync_API_test.hpp ****     }
 142:tests/ConsumerProducer_CPP_Sync_API_test.hpp **** 
 143:tests/ConsumerProducer_CPP_Sync_API_test.hpp ****     BufferCPP *buffer = new BufferCPP(n);
 144:tests/ConsumerProducer_CPP_Sync_API_test.hpp **** 
 145:tests/ConsumerProducer_CPP_Sync_API_test.hpp ****     waitForAll = new Semaphore(0);
 146:tests/ConsumerProducer_CPP_Sync_API_test.hpp **** 
 147:tests/ConsumerProducer_CPP_Sync_API_test.hpp ****     Thread* threads[threadNum];
 148:tests/ConsumerProducer_CPP_Sync_API_test.hpp ****     Thread* consumerThread;
 149:tests/ConsumerProducer_CPP_Sync_API_test.hpp **** 
 150:tests/ConsumerProducer_CPP_Sync_API_test.hpp ****     struct thread_data data[threadNum + 1];
 151:tests/ConsumerProducer_CPP_Sync_API_test.hpp **** 
 152:tests/ConsumerProducer_CPP_Sync_API_test.hpp ****     data[threadNum].id = threadNum;
 153:tests/ConsumerProducer_CPP_Sync_API_test.hpp ****     data[threadNum].buffer = buffer;
 154:tests/ConsumerProducer_CPP_Sync_API_test.hpp ****     data[threadNum].wait = waitForAll;
GAS LISTING /tmp/cc4XBM2x.s 			page 54


 155:tests/ConsumerProducer_CPP_Sync_API_test.hpp ****     consumerThread = new Consumer(data+threadNum);
 156:tests/ConsumerProducer_CPP_Sync_API_test.hpp ****     consumerThread->start();
 157:tests/ConsumerProducer_CPP_Sync_API_test.hpp **** 
 158:tests/ConsumerProducer_CPP_Sync_API_test.hpp ****     for (int i = 0; i < threadNum; i++) {
 159:tests/ConsumerProducer_CPP_Sync_API_test.hpp ****         data[i].id = i;
 160:tests/ConsumerProducer_CPP_Sync_API_test.hpp ****         data[i].buffer = buffer;
 161:tests/ConsumerProducer_CPP_Sync_API_test.hpp ****         data[i].wait = waitForAll;
 162:tests/ConsumerProducer_CPP_Sync_API_test.hpp **** 
 163:tests/ConsumerProducer_CPP_Sync_API_test.hpp ****         if(i>0) {
 164:tests/ConsumerProducer_CPP_Sync_API_test.hpp ****             threads[i] = new Producer(data+i);
 165:tests/ConsumerProducer_CPP_Sync_API_test.hpp ****         } else {
 166:tests/ConsumerProducer_CPP_Sync_API_test.hpp ****             threads[i] = new ProducerKeyboard(data+i);
 167:tests/ConsumerProducer_CPP_Sync_API_test.hpp ****         }
 168:tests/ConsumerProducer_CPP_Sync_API_test.hpp **** 
 169:tests/ConsumerProducer_CPP_Sync_API_test.hpp ****         threads[i]->start();
 170:tests/ConsumerProducer_CPP_Sync_API_test.hpp ****     }
 171:tests/ConsumerProducer_CPP_Sync_API_test.hpp **** 
 172:tests/ConsumerProducer_CPP_Sync_API_test.hpp ****     Thread::dispatch();
 173:tests/ConsumerProducer_CPP_Sync_API_test.hpp **** 
 174:tests/ConsumerProducer_CPP_Sync_API_test.hpp ****     for (int i = 0; i <= threadNum; i++) {
 175:tests/ConsumerProducer_CPP_Sync_API_test.hpp ****         waitForAll->wait();
 176:tests/ConsumerProducer_CPP_Sync_API_test.hpp ****     }
 177:tests/ConsumerProducer_CPP_Sync_API_test.hpp **** 
 178:tests/ConsumerProducer_CPP_Sync_API_test.hpp ****     for (int i = 0; i < threadNum; i++) {
 179:tests/ConsumerProducer_CPP_Sync_API_test.hpp ****         delete threads[i];
 180:tests/ConsumerProducer_CPP_Sync_API_test.hpp ****     }
 181:tests/ConsumerProducer_CPP_Sync_API_test.hpp ****     delete consumerThread;
 182:tests/ConsumerProducer_CPP_Sync_API_test.hpp ****     delete waitForAll;
 183:tests/ConsumerProducer_CPP_Sync_API_test.hpp ****     delete buffer;
 2255              		.loc 3 183 18 is_stmt 0
 2256 0928 930B0100 		mv	s7,sp
 120:tests/ConsumerProducer_CPP_Sync_API_test.hpp ****     char input[30];
 2257              		.loc 3 120 5 is_stmt 1
 121:tests/ConsumerProducer_CPP_Sync_API_test.hpp **** 
 2258              		.loc 3 121 5
 123:tests/ConsumerProducer_CPP_Sync_API_test.hpp ****     getString(input, 30);
 2259              		.loc 3 123 5
 123:tests/ConsumerProducer_CPP_Sync_API_test.hpp ****     getString(input, 30);
 2260              		.loc 3 123 16 is_stmt 0
 2261 092c 17050000 		lla	a0,.LC19
 2261      13050500 
 2262              	.LEHB0:
 2263 0934 97000000 		call	_Z11printStringPKc@plt
 2263      E7800000 
 2264              	.LVL245:
 124:tests/ConsumerProducer_CPP_Sync_API_test.hpp ****     threadNum = stringToInt(input);
 2265              		.loc 3 124 5 is_stmt 1
 124:tests/ConsumerProducer_CPP_Sync_API_test.hpp ****     threadNum = stringToInt(input);
 2266              		.loc 3 124 14 is_stmt 0
 2267 093c 9305E001 		li	a1,30
 2268 0940 930404F8 		addi	s1,s0,-128
 2269 0944 13850400 		mv	a0,s1
 2270 0948 97000000 		call	_Z9getStringPci@plt
 2270      E7800000 
 2271              	.LVL246:
 125:tests/ConsumerProducer_CPP_Sync_API_test.hpp **** 
 2272              		.loc 3 125 5 is_stmt 1
GAS LISTING /tmp/cc4XBM2x.s 			page 55


 125:tests/ConsumerProducer_CPP_Sync_API_test.hpp **** 
 2273              		.loc 3 125 28 is_stmt 0
 2274 0950 13850400 		mv	a0,s1
 2275 0954 97000000 		call	_Z11stringToIntPKc@plt
 2275      E7800000 
 2276              	.LVL247:
 2277 095c 13090500 		mv	s2,a0
 2278              	.LVL248:
 127:tests/ConsumerProducer_CPP_Sync_API_test.hpp ****     getString(input, 30);
 2279              		.loc 3 127 5 is_stmt 1
 127:tests/ConsumerProducer_CPP_Sync_API_test.hpp ****     getString(input, 30);
 2280              		.loc 3 127 16 is_stmt 0
 2281 0960 17050000 		lla	a0,.LC20
 2281      13050500 
 2282 0968 97000000 		call	_Z11printStringPKc@plt
 2282      E7800000 
 2283              	.LVL249:
 128:tests/ConsumerProducer_CPP_Sync_API_test.hpp ****     n = stringToInt(input);
 2284              		.loc 3 128 5 is_stmt 1
 128:tests/ConsumerProducer_CPP_Sync_API_test.hpp ****     n = stringToInt(input);
 2285              		.loc 3 128 14 is_stmt 0
 2286 0970 9305E001 		li	a1,30
 2287 0974 13850400 		mv	a0,s1
 2288 0978 97000000 		call	_Z9getStringPci@plt
 2288      E7800000 
 2289              	.LVL250:
 129:tests/ConsumerProducer_CPP_Sync_API_test.hpp **** 
 2290              		.loc 3 129 5 is_stmt 1
 129:tests/ConsumerProducer_CPP_Sync_API_test.hpp **** 
 2291              		.loc 3 129 20 is_stmt 0
 2292 0980 13850400 		mv	a0,s1
 2293 0984 97000000 		call	_Z11stringToIntPKc@plt
 2293      E7800000 
 2294              	.LVL251:
 2295 098c 93040500 		mv	s1,a0
 2296              	.LVL252:
 131:tests/ConsumerProducer_CPP_Sync_API_test.hpp ****     printString(" i velicina bafera "); printInt(n);
 2297              		.loc 3 131 5 is_stmt 1
 131:tests/ConsumerProducer_CPP_Sync_API_test.hpp ****     printString(" i velicina bafera "); printInt(n);
 2298              		.loc 3 131 16 is_stmt 0
 2299 0990 17050000 		lla	a0,.LC21
 2299      13050500 
 2300 0998 97000000 		call	_Z11printStringPKc@plt
 2300      E7800000 
 2301              	.LVL253:
 131:tests/ConsumerProducer_CPP_Sync_API_test.hpp ****     printString(" i velicina bafera "); printInt(n);
 2302              		.loc 3 131 40 is_stmt 1
 131:tests/ConsumerProducer_CPP_Sync_API_test.hpp ****     printString(" i velicina bafera "); printInt(n);
 2303              		.loc 3 131 48 is_stmt 0
 2304 09a0 13060000 		li	a2,0
 2305 09a4 9305A000 		li	a1,10
 2306 09a8 13050900 		mv	a0,s2
 2307 09ac 97000000 		call	_Z8printIntiii@plt
 2307      E7800000 
 2308              	.LVL254:
 132:tests/ConsumerProducer_CPP_Sync_API_test.hpp ****     printString(".\n");
 2309              		.loc 3 132 5 is_stmt 1
GAS LISTING /tmp/cc4XBM2x.s 			page 56


 132:tests/ConsumerProducer_CPP_Sync_API_test.hpp ****     printString(".\n");
 2310              		.loc 3 132 16 is_stmt 0
 2311 09b4 17050000 		lla	a0,.LC22
 2311      13050500 
 2312 09bc 97000000 		call	_Z11printStringPKc@plt
 2312      E7800000 
 2313              	.LVL255:
 132:tests/ConsumerProducer_CPP_Sync_API_test.hpp ****     printString(".\n");
 2314              		.loc 3 132 41 is_stmt 1
 132:tests/ConsumerProducer_CPP_Sync_API_test.hpp ****     printString(".\n");
 2315              		.loc 3 132 49 is_stmt 0
 2316 09c4 13060000 		li	a2,0
 2317 09c8 9305A000 		li	a1,10
 2318 09cc 13850400 		mv	a0,s1
 2319 09d0 97000000 		call	_Z8printIntiii@plt
 2319      E7800000 
 2320              	.LVL256:
 133:tests/ConsumerProducer_CPP_Sync_API_test.hpp **** 
 2321              		.loc 3 133 5 is_stmt 1
 133:tests/ConsumerProducer_CPP_Sync_API_test.hpp **** 
 2322              		.loc 3 133 16 is_stmt 0
 2323 09d8 17050000 		lla	a0,.LC23
 2323      13050500 
 2324 09e0 97000000 		call	_Z11printStringPKc@plt
 2324      E7800000 
 2325              	.LVL257:
 135:tests/ConsumerProducer_CPP_Sync_API_test.hpp ****         printString("Broj proizvodjaca ne sme biti manji od velicine bafera!\n");
 2326              		.loc 3 135 5 is_stmt 1
 2327 09e8 63C42403 		bgt	s2,s1,.L147
 138:tests/ConsumerProducer_CPP_Sync_API_test.hpp ****         printString("Broj proizvodjaca mora biti veci od nula!\n");
 2328              		.loc 3 138 12
 2329 09ec 635C2003 		blez	s2,.L148
 143:tests/ConsumerProducer_CPP_Sync_API_test.hpp **** 
 2330              		.loc 3 143 5
 143:tests/ConsumerProducer_CPP_Sync_API_test.hpp **** 
 2331              		.loc 3 143 40 is_stmt 0
 2332 09f0 13058003 		li	a0,56
 2333 09f4 97000000 		call	_Znwm@plt
 2333      E7800000 
 2334              	.LVL258:
 2335              	.LEHE0:
 2336 09fc 930A0500 		mv	s5,a0
 2337 0a00 93850400 		mv	a1,s1
 2338              	.LEHB1:
 2339 0a04 97000000 		call	_ZN9BufferCPPC1Ei@plt
 2339      E7800000 
 2340              	.LVL259:
 2341              	.LEHE1:
 2342 0a0c 6F000003 		j	.L149
 2343              	.L147:
 136:tests/ConsumerProducer_CPP_Sync_API_test.hpp ****         return;
 2344              		.loc 3 136 9 is_stmt 1
 136:tests/ConsumerProducer_CPP_Sync_API_test.hpp ****         return;
 2345              		.loc 3 136 20 is_stmt 0
 2346 0a10 17050000 		lla	a0,.LC24
 2346      13050500 
 2347              	.LEHB2:
GAS LISTING /tmp/cc4XBM2x.s 			page 57


 2348 0a18 97000000 		call	_Z11printStringPKc@plt
 2348      E7800000 
 2349              	.LVL260:
 137:tests/ConsumerProducer_CPP_Sync_API_test.hpp ****     } else if (threadNum < 1) {
 2350              		.loc 3 137 9 is_stmt 1
 2351 0a20 6F004001 		j	.L121
 2352              	.L148:
 139:tests/ConsumerProducer_CPP_Sync_API_test.hpp ****         return;
 2353              		.loc 3 139 9
 139:tests/ConsumerProducer_CPP_Sync_API_test.hpp ****         return;
 2354              		.loc 3 139 20 is_stmt 0
 2355 0a24 17050000 		lla	a0,.LC25
 2355      13050500 
 2356 0a2c 97000000 		call	_Z11printStringPKc@plt
 2356      E7800000 
 2357              	.LVL261:
 140:tests/ConsumerProducer_CPP_Sync_API_test.hpp ****     }
 2358              		.loc 3 140 9 is_stmt 1
 2359              	.L121:
 2360 0a34 13810B00 		mv	sp,s7
 2361 0a38 6F000024 		j	.L119
 2362              	.L149:
 2363              	.LVL262:
 145:tests/ConsumerProducer_CPP_Sync_API_test.hpp **** 
 2364              		.loc 3 145 5 discriminator 3
 145:tests/ConsumerProducer_CPP_Sync_API_test.hpp **** 
 2365              		.loc 3 145 33 is_stmt 0 discriminator 3
 2366 0a3c 13050001 		li	a0,16
 2367 0a40 97000000 		call	_Znwm@plt
 2367      E7800000 
 2368              	.LVL263:
 2369              	.LEHE2:
 2370 0a48 93040500 		mv	s1,a0
 2371              	.LVL264:
 2372 0a4c 93050000 		li	a1,0
 2373              	.LEHB3:
 2374 0a50 97000000 		call	_ZN9SemaphoreC1Ej@plt
 2374      E7800000 
 2375              	.LVL265:
 2376              	.LEHE3:
 145:tests/ConsumerProducer_CPP_Sync_API_test.hpp **** 
 2377              		.loc 3 145 16 discriminator 3
 2378 0a58 17070000 		lla	a4,.LANCHOR0
 2378      13070700 
 2379 0a60 23389700 		sd	s1,16(a4)
 147:tests/ConsumerProducer_CPP_Sync_API_test.hpp ****     Thread* consumerThread;
 2380              		.loc 3 147 5 is_stmt 1 discriminator 3
 2381              	.LVL266:
 147:tests/ConsumerProducer_CPP_Sync_API_test.hpp ****     Thread* consumerThread;
 2382              		.loc 3 147 13 is_stmt 0 discriminator 3
 2383 0a64 93173900 		slli	a5,s2,3
 2384 0a68 9387F700 		addi	a5,a5,15
 2385 0a6c 93F707FF 		andi	a5,a5,-16
 2386 0a70 3301F140 		sub	sp,sp,a5
 2387 0a74 93090100 		mv	s3,sp
 2388              	.LVL267:
 148:tests/ConsumerProducer_CPP_Sync_API_test.hpp **** 
GAS LISTING /tmp/cc4XBM2x.s 			page 58


 2389              		.loc 3 148 5 is_stmt 1 discriminator 3
 150:tests/ConsumerProducer_CPP_Sync_API_test.hpp **** 
 2390              		.loc 3 150 5 discriminator 3
 150:tests/ConsumerProducer_CPP_Sync_API_test.hpp **** 
 2391              		.loc 3 150 39 is_stmt 0 discriminator 3
 2392 0a78 9B061900 		addiw	a3,s2,1
 2393              	.LVL268:
 150:tests/ConsumerProducer_CPP_Sync_API_test.hpp **** 
 2394              		.loc 3 150 24 discriminator 3
 2395 0a7c 93971600 		slli	a5,a3,1
 2396 0a80 B387D700 		add	a5,a5,a3
 2397 0a84 93973700 		slli	a5,a5,3
 2398 0a88 9387F700 		addi	a5,a5,15
 2399 0a8c 93F707FF 		andi	a5,a5,-16
 2400 0a90 3301F140 		sub	sp,sp,a5
 2401              	.LVL269:
 2402 0a94 130A0100 		mv	s4,sp
 2403              	.LVL270:
 152:tests/ConsumerProducer_CPP_Sync_API_test.hpp ****     data[threadNum].buffer = buffer;
 2404              		.loc 3 152 5 is_stmt 1 discriminator 3
 152:tests/ConsumerProducer_CPP_Sync_API_test.hpp ****     data[threadNum].buffer = buffer;
 2405              		.loc 3 152 24 is_stmt 0 discriminator 3
 2406 0a98 93141900 		slli	s1,s2,1
 2407 0a9c B3872401 		add	a5,s1,s2
 2408 0aa0 93973700 		slli	a5,a5,3
 2409 0aa4 B307FA00 		add	a5,s4,a5
 2410 0aa8 23A02701 		sw	s2,0(a5)
 153:tests/ConsumerProducer_CPP_Sync_API_test.hpp ****     data[threadNum].wait = waitForAll;
 2411              		.loc 3 153 5 is_stmt 1 discriminator 3
 153:tests/ConsumerProducer_CPP_Sync_API_test.hpp ****     data[threadNum].wait = waitForAll;
 2412              		.loc 3 153 28 is_stmt 0 discriminator 3
 2413 0aac 23B45701 		sd	s5,8(a5)
 154:tests/ConsumerProducer_CPP_Sync_API_test.hpp ****     consumerThread = new Consumer(data+threadNum);
 2414              		.loc 3 154 5 is_stmt 1 discriminator 3
 154:tests/ConsumerProducer_CPP_Sync_API_test.hpp ****     consumerThread = new Consumer(data+threadNum);
 2415              		.loc 3 154 26 is_stmt 0 discriminator 3
 2416 0ab0 03370701 		ld	a4,16(a4)
 2417 0ab4 23B8E700 		sd	a4,16(a5)
 155:tests/ConsumerProducer_CPP_Sync_API_test.hpp ****     consumerThread->start();
 2418              		.loc 3 155 5 is_stmt 1 discriminator 3
 155:tests/ConsumerProducer_CPP_Sync_API_test.hpp ****     consumerThread->start();
 2419              		.loc 3 155 49 is_stmt 0 discriminator 3
 2420 0ab8 13058001 		li	a0,24
 2421              	.LEHB4:
 2422 0abc 97000000 		call	_Znwm@plt
 2422      E7800000 
 2423              	.LVL271:
 2424              	.LEHE4:
 2425 0ac4 130B0500 		mv	s6,a0
 155:tests/ConsumerProducer_CPP_Sync_API_test.hpp ****     consumerThread->start();
 2426              		.loc 3 155 39 discriminator 3
 2427 0ac8 B3842401 		add	s1,s1,s2
 2428 0acc 93943400 		slli	s1,s1,3
 155:tests/ConsumerProducer_CPP_Sync_API_test.hpp ****     consumerThread->start();
 2429              		.loc 3 155 49 discriminator 3
 2430 0ad0 B3049A00 		add	s1,s4,s1
 2431              	.LVL272:
GAS LISTING /tmp/cc4XBM2x.s 			page 59


 2432              	.LEHB5:
 2433              	.LBB85:
 2434              	.LBB86:
  84:tests/ConsumerProducer_CPP_Sync_API_test.hpp **** 
 2435              		.loc 3 84 48 discriminator 3
 2436 0ad4 97000000 		call	_ZN6ThreadC2Ev@plt
 2436      E7800000 
 2437              	.LVL273:
 2438              	.LEHE5:
  84:tests/ConsumerProducer_CPP_Sync_API_test.hpp **** 
 2439              		.loc 3 84 48
 2440 0adc 97070000 		lla	a5,_ZTV8Consumer+16
 2440      93870700 
 2441 0ae4 2330FB00 		sd	a5,0(s6)
 2442 0ae8 23389B00 		sd	s1,16(s6)
 2443              	.LVL274:
 2444              	.LBE86:
 2445              	.LBE85:
 156:tests/ConsumerProducer_CPP_Sync_API_test.hpp **** 
 2446              		.loc 3 156 5 is_stmt 1
 156:tests/ConsumerProducer_CPP_Sync_API_test.hpp **** 
 2447              		.loc 3 156 26 is_stmt 0
 2448 0aec 13050B00 		mv	a0,s6
 2449              	.LEHB6:
 2450 0af0 97000000 		call	_ZN6Thread5startEv@plt
 2450      E7800000 
 2451              	.LVL275:
 2452              	.LBB87:
 158:tests/ConsumerProducer_CPP_Sync_API_test.hpp ****         data[i].id = i;
 2453              		.loc 3 158 14
 2454 0af8 93040000 		li	s1,0
 2455 0afc 6F008003 		j	.L126
 2456              	.LVL276:
 2457              	.L150:
 2458              	.LBB88:
 2459              	.LBB89:
  57:tests/ConsumerProducer_CPP_Sync_API_test.hpp **** 
 2460              		.loc 3 57 48
 2461 0b00 97070000 		lla	a5,_ZTV8Producer+16
 2461      93870700 
 2462 0b08 23B0FC00 		sd	a5,0(s9)
 2463 0b0c 23B88C01 		sd	s8,16(s9)
 2464              	.LVL277:
 2465              	.LBE89:
 2466              	.LBE88:
 164:tests/ConsumerProducer_CPP_Sync_API_test.hpp ****         } else {
 2467              		.loc 3 164 24
 2468 0b10 93973400 		slli	a5,s1,3
 2469 0b14 B387F900 		add	a5,s3,a5
 2470 0b18 23B09701 		sd	s9,0(a5)
 2471              	.L125:
 169:tests/ConsumerProducer_CPP_Sync_API_test.hpp ****     }
 2472              		.loc 3 169 9 is_stmt 1
 169:tests/ConsumerProducer_CPP_Sync_API_test.hpp ****     }
 2473              		.loc 3 169 18 is_stmt 0
 2474 0b1c 93973400 		slli	a5,s1,3
 2475 0b20 B387F900 		add	a5,s3,a5
GAS LISTING /tmp/cc4XBM2x.s 			page 60


 169:tests/ConsumerProducer_CPP_Sync_API_test.hpp ****     }
 2476              		.loc 3 169 26
 2477 0b24 03B50700 		ld	a0,0(a5)
 2478 0b28 97000000 		call	_ZN6Thread5startEv@plt
 2478      E7800000 
 2479              	.LVL278:
 158:tests/ConsumerProducer_CPP_Sync_API_test.hpp ****         data[i].id = i;
 2480              		.loc 3 158 5 is_stmt 1
 2481 0b30 9B841400 		addiw	s1,s1,1
 2482              	.LVL279:
 2483              	.L126:
 158:tests/ConsumerProducer_CPP_Sync_API_test.hpp ****         data[i].id = i;
 2484              		.loc 3 158 23 discriminator 1
 2485 0b34 63D0240B 		bge	s1,s2,.L123
 159:tests/ConsumerProducer_CPP_Sync_API_test.hpp ****         data[i].buffer = buffer;
 2486              		.loc 3 159 9
 159:tests/ConsumerProducer_CPP_Sync_API_test.hpp ****         data[i].buffer = buffer;
 2487              		.loc 3 159 20 is_stmt 0
 2488 0b38 93971400 		slli	a5,s1,1
 2489 0b3c B3879700 		add	a5,a5,s1
 2490 0b40 93973700 		slli	a5,a5,3
 2491 0b44 B307FA00 		add	a5,s4,a5
 2492 0b48 23A09700 		sw	s1,0(a5)
 160:tests/ConsumerProducer_CPP_Sync_API_test.hpp ****         data[i].wait = waitForAll;
 2493              		.loc 3 160 9 is_stmt 1
 160:tests/ConsumerProducer_CPP_Sync_API_test.hpp ****         data[i].wait = waitForAll;
 2494              		.loc 3 160 24 is_stmt 0
 2495 0b4c 23B45701 		sd	s5,8(a5)
 161:tests/ConsumerProducer_CPP_Sync_API_test.hpp **** 
 2496              		.loc 3 161 9 is_stmt 1
 161:tests/ConsumerProducer_CPP_Sync_API_test.hpp **** 
 2497              		.loc 3 161 22 is_stmt 0
 2498 0b50 17070000 		ld	a4,.LANCHOR0+16
 2498      03370700 
 2499 0b58 23B8E700 		sd	a4,16(a5)
 163:tests/ConsumerProducer_CPP_Sync_API_test.hpp ****             threads[i] = new Producer(data+i);
 2500              		.loc 3 163 9 is_stmt 1
 2501 0b5c 63589002 		blez	s1,.L124
 164:tests/ConsumerProducer_CPP_Sync_API_test.hpp ****         } else {
 2502              		.loc 3 164 13
 164:tests/ConsumerProducer_CPP_Sync_API_test.hpp ****         } else {
 2503              		.loc 3 164 45 is_stmt 0
 2504 0b60 13058001 		li	a0,24
 2505 0b64 97000000 		call	_Znwm@plt
 2505      E7800000 
 2506              	.LVL280:
 2507              	.LEHE6:
 2508 0b6c 930C0500 		mv	s9,a0
 164:tests/ConsumerProducer_CPP_Sync_API_test.hpp ****         } else {
 2509              		.loc 3 164 43
 2510 0b70 139C1400 		slli	s8,s1,1
 2511 0b74 330C9C00 		add	s8,s8,s1
 2512 0b78 131C3C00 		slli	s8,s8,3
 164:tests/ConsumerProducer_CPP_Sync_API_test.hpp ****         } else {
 2513              		.loc 3 164 45
 2514 0b7c 330C8A01 		add	s8,s4,s8
 2515              	.LVL281:
GAS LISTING /tmp/cc4XBM2x.s 			page 61


 2516              	.LEHB7:
 2517              	.LBB91:
 2518              	.LBB90:
  57:tests/ConsumerProducer_CPP_Sync_API_test.hpp **** 
 2519              		.loc 3 57 48
 2520 0b80 97000000 		call	_ZN6ThreadC2Ev@plt
 2520      E7800000 
 2521              	.LVL282:
 2522              	.LEHE7:
 2523 0b88 6FF09FF7 		j	.L150
 2524              	.LVL283:
 2525              	.L124:
 2526              	.LBE90:
 2527              	.LBE91:
 166:tests/ConsumerProducer_CPP_Sync_API_test.hpp ****         }
 2528              		.loc 3 166 13 is_stmt 1
 166:tests/ConsumerProducer_CPP_Sync_API_test.hpp ****         }
 2529              		.loc 3 166 53 is_stmt 0
 2530 0b8c 13058001 		li	a0,24
 2531              	.LEHB8:
 2532 0b90 97000000 		call	_Znwm@plt
 2532      E7800000 
 2533              	.LVL284:
 2534              	.LEHE8:
 2535 0b98 930C0500 		mv	s9,a0
 166:tests/ConsumerProducer_CPP_Sync_API_test.hpp ****         }
 2536              		.loc 3 166 51
 2537 0b9c 139C1400 		slli	s8,s1,1
 2538 0ba0 330C9C00 		add	s8,s8,s1
 2539 0ba4 131C3C00 		slli	s8,s8,3
 166:tests/ConsumerProducer_CPP_Sync_API_test.hpp ****         }
 2540              		.loc 3 166 53
 2541 0ba8 330C8A01 		add	s8,s4,s8
 2542              	.LVL285:
 2543              	.LEHB9:
 2544              	.LBB92:
 2545              	.LBB93:
  26:tests/ConsumerProducer_CPP_Sync_API_test.hpp **** 
 2546              		.loc 3 26 56
 2547 0bac 97000000 		call	_ZN6ThreadC2Ev@plt
 2547      E7800000 
 2548              	.LVL286:
 2549              	.LEHE9:
 2550 0bb4 97070000 		lla	a5,_ZTV16ProducerKeyboard+16
 2550      93870700 
 2551 0bbc 23B0FC00 		sd	a5,0(s9)
 2552 0bc0 23B88C01 		sd	s8,16(s9)
 2553              	.LVL287:
 2554              	.LBE93:
 2555              	.LBE92:
 166:tests/ConsumerProducer_CPP_Sync_API_test.hpp ****         }
 2556              		.loc 3 166 24
 2557 0bc4 93973400 		slli	a5,s1,3
 2558 0bc8 B387F900 		add	a5,s3,a5
 2559 0bcc 23B09701 		sd	s9,0(a5)
 2560 0bd0 6FF0DFF4 		j	.L125
 2561              	.L123:
GAS LISTING /tmp/cc4XBM2x.s 			page 62


 2562              	.LBE87:
 172:tests/ConsumerProducer_CPP_Sync_API_test.hpp **** 
 2563              		.loc 3 172 5 is_stmt 1
 2564              	.LEHB10:
 172:tests/ConsumerProducer_CPP_Sync_API_test.hpp **** 
 2565              		.loc 3 172 21 is_stmt 0
 2566 0bd4 97000000 		call	_ZN6Thread8dispatchEv@plt
 2566      E7800000 
 2567              	.LVL288:
 2568              	.LBB94:
 174:tests/ConsumerProducer_CPP_Sync_API_test.hpp ****         waitForAll->wait();
 2569              		.loc 3 174 14
 2570 0bdc 93040000 		li	s1,0
 2571              	.LVL289:
 2572              	.L128:
 174:tests/ConsumerProducer_CPP_Sync_API_test.hpp ****         waitForAll->wait();
 2573              		.loc 3 174 23 is_stmt 1 discriminator 1
 2574 0be0 634E9900 		bgt	s1,s2,.L140
 175:tests/ConsumerProducer_CPP_Sync_API_test.hpp ****     }
 2575              		.loc 3 175 9
 175:tests/ConsumerProducer_CPP_Sync_API_test.hpp ****     }
 2576              		.loc 3 175 25 is_stmt 0
 2577 0be4 17050000 		ld	a0,.LANCHOR0+16
 2577      03350500 
 2578 0bec 97000000 		call	_ZN9Semaphore4waitEv@plt
 2578      E7800000 
 2579              	.LVL290:
 174:tests/ConsumerProducer_CPP_Sync_API_test.hpp ****         waitForAll->wait();
 2580              		.loc 3 174 5 is_stmt 1
 2581 0bf4 9B841400 		addiw	s1,s1,1
 2582              	.LVL291:
 2583 0bf8 6FF09FFE 		j	.L128
 2584              	.LVL292:
 2585              	.L140:
 2586              	.LBE94:
 2587              	.LBB95:
 178:tests/ConsumerProducer_CPP_Sync_API_test.hpp ****         delete threads[i];
 2588              		.loc 3 178 14 is_stmt 0
 2589 0bfc 93040000 		li	s1,0
 2590              	.LVL293:
 2591 0c00 6F008000 		j	.L127
 2592              	.LVL294:
 2593              	.L130:
 178:tests/ConsumerProducer_CPP_Sync_API_test.hpp ****         delete threads[i];
 2594              		.loc 3 178 5 is_stmt 1 discriminator 2
 2595 0c04 9B841400 		addiw	s1,s1,1
 2596              	.LVL295:
 2597              	.L127:
 178:tests/ConsumerProducer_CPP_Sync_API_test.hpp ****         delete threads[i];
 2598              		.loc 3 178 23 discriminator 1
 2599 0c08 63D22403 		bge	s1,s2,.L129
 179:tests/ConsumerProducer_CPP_Sync_API_test.hpp ****     }
 2600              		.loc 3 179 9
 179:tests/ConsumerProducer_CPP_Sync_API_test.hpp ****     }
 2601              		.loc 3 179 25 is_stmt 0
 2602 0c0c 93973400 		slli	a5,s1,3
 2603 0c10 B387F900 		add	a5,s3,a5
GAS LISTING /tmp/cc4XBM2x.s 			page 63


 2604 0c14 03B50700 		ld	a0,0(a5)
 179:tests/ConsumerProducer_CPP_Sync_API_test.hpp ****     }
 2605              		.loc 3 179 26
 2606 0c18 E30605FE 		beqz	a0,.L130
 179:tests/ConsumerProducer_CPP_Sync_API_test.hpp ****     }
 2607              		.loc 3 179 25 discriminator 1
 2608 0c1c 83370500 		ld	a5,0(a0)
 2609 0c20 83B78700 		ld	a5,8(a5)
 2610 0c24 E7800700 		jalr	a5
 2611              	.LVL296:
 2612 0c28 6FF0DFFD 		j	.L130
 2613              	.L129:
 2614              	.LBE95:
 181:tests/ConsumerProducer_CPP_Sync_API_test.hpp ****     delete waitForAll;
 2615              		.loc 3 181 5 is_stmt 1
 181:tests/ConsumerProducer_CPP_Sync_API_test.hpp ****     delete waitForAll;
 2616              		.loc 3 181 26 is_stmt 0
 2617 0c2c 630A0B00 		beqz	s6,.L131
 181:tests/ConsumerProducer_CPP_Sync_API_test.hpp ****     delete waitForAll;
 2618              		.loc 3 181 12 discriminator 1
 2619 0c30 83370B00 		ld	a5,0(s6)
 2620 0c34 83B78700 		ld	a5,8(a5)
 2621 0c38 13050B00 		mv	a0,s6
 2622 0c3c E7800700 		jalr	a5
 2623              	.LVL297:
 2624              	.L131:
 182:tests/ConsumerProducer_CPP_Sync_API_test.hpp ****     delete buffer;
 2625              		.loc 3 182 5 is_stmt 1
 182:tests/ConsumerProducer_CPP_Sync_API_test.hpp ****     delete buffer;
 2626              		.loc 3 182 12 is_stmt 0
 2627 0c40 17050000 		ld	a0,.LANCHOR0+16
 2627      03350500 
 182:tests/ConsumerProducer_CPP_Sync_API_test.hpp ****     delete buffer;
 2628              		.loc 3 182 22
 2629 0c48 63080500 		beqz	a0,.L132
 182:tests/ConsumerProducer_CPP_Sync_API_test.hpp ****     delete buffer;
 2630              		.loc 3 182 12 discriminator 1
 2631 0c4c 83370500 		ld	a5,0(a0)
 2632 0c50 83B78700 		ld	a5,8(a5)
 2633 0c54 E7800700 		jalr	a5
 2634              	.LVL298:
 2635              	.L132:
 2636              		.loc 3 183 5 is_stmt 1
 2637              		.loc 3 183 18 is_stmt 0
 2638 0c58 638E0A00 		beqz	s5,.L133
 2639              		.loc 3 183 12 discriminator 1
 2640 0c5c 13850A00 		mv	a0,s5
 2641 0c60 97000000 		call	_ZN9BufferCPPD1Ev@plt
 2641      E7800000 
 2642              	.LVL299:
 2643 0c68 13850A00 		mv	a0,s5
 2644 0c6c 97000000 		call	_ZdlPv@plt
 2644      E7800000 
 2645              	.LVL300:
 2646              	.LEHE10:
 2647              	.L133:
 2648 0c74 13810B00 		mv	sp,s7
GAS LISTING /tmp/cc4XBM2x.s 			page 64


 2649              	.LVL301:
 2650              	.L119:
 184:tests/ConsumerProducer_CPP_Sync_API_test.hpp **** 
 185:tests/ConsumerProducer_CPP_Sync_API_test.hpp **** }
 2651              		.loc 3 185 1
 2652 0c78 130104F8 		addi	sp,s0,-128
 2653              		.cfi_remember_state
 2654              		.cfi_def_cfa 2, 128
 2655 0c7c 83308107 		ld	ra,120(sp)
 2656              		.cfi_restore 1
 2657 0c80 03340107 		ld	s0,112(sp)
 2658              		.cfi_restore 8
 2659 0c84 83348106 		ld	s1,104(sp)
 2660              		.cfi_restore 9
 2661 0c88 03390106 		ld	s2,96(sp)
 2662              		.cfi_restore 18
 2663              	.LVL302:
 2664 0c8c 83398105 		ld	s3,88(sp)
 2665              		.cfi_restore 19
 2666 0c90 033A0105 		ld	s4,80(sp)
 2667              		.cfi_restore 20
 2668 0c94 833A8104 		ld	s5,72(sp)
 2669              		.cfi_restore 21
 2670 0c98 033B0104 		ld	s6,64(sp)
 2671              		.cfi_restore 22
 2672 0c9c 833B8103 		ld	s7,56(sp)
 2673              		.cfi_restore 23
 2674 0ca0 033C0103 		ld	s8,48(sp)
 2675              		.cfi_restore 24
 2676 0ca4 833C8102 		ld	s9,40(sp)
 2677              		.cfi_restore 25
 2678 0ca8 13010108 		addi	sp,sp,128
 2679              		.cfi_def_cfa_offset 0
 2680 0cac 67800000 		jr	ra
 2681              	.LVL303:
 2682              	.L141:
 2683              		.cfi_restore_state
 2684 0cb0 93040500 		mv	s1,a0
 2685              	.LVL304:
 143:tests/ConsumerProducer_CPP_Sync_API_test.hpp **** 
 2686              		.loc 3 143 40
 2687 0cb4 13850A00 		mv	a0,s5
 2688 0cb8 97000000 		call	_ZdlPv@plt
 2688      E7800000 
 2689              	.LVL305:
 2690 0cc0 13850400 		mv	a0,s1
 2691              	.LEHB11:
 2692 0cc4 97000000 		call	_Unwind_Resume@plt
 2692      E7800000 
 2693              	.LVL306:
 2694              	.LEHE11:
 2695              	.L142:
 2696 0ccc 13090500 		mv	s2,a0
 2697              	.LVL307:
 145:tests/ConsumerProducer_CPP_Sync_API_test.hpp **** 
 2698              		.loc 3 145 33
 2699 0cd0 13850400 		mv	a0,s1
GAS LISTING /tmp/cc4XBM2x.s 			page 65


 2700 0cd4 97000000 		call	_ZdlPv@plt
 2700      E7800000 
 2701              	.LVL308:
 2702 0cdc 13050900 		mv	a0,s2
 2703              	.LEHB12:
 2704 0ce0 97000000 		call	_Unwind_Resume@plt
 2704      E7800000 
 2705              	.LVL309:
 2706              	.LEHE12:
 2707              	.L143:
 2708 0ce8 93040500 		mv	s1,a0
 2709              	.LVL310:
 155:tests/ConsumerProducer_CPP_Sync_API_test.hpp ****     consumerThread->start();
 2710              		.loc 3 155 49
 2711 0cec 13050B00 		mv	a0,s6
 2712 0cf0 97000000 		call	_ZdlPv@plt
 2712      E7800000 
 2713              	.LVL311:
 2714 0cf8 13850400 		mv	a0,s1
 2715              	.LEHB13:
 2716 0cfc 97000000 		call	_Unwind_Resume@plt
 2716      E7800000 
 2717              	.LVL312:
 2718              	.LEHE13:
 2719              	.L144:
 2720 0d04 93040500 		mv	s1,a0
 2721              	.LVL313:
 2722              	.LBB96:
 164:tests/ConsumerProducer_CPP_Sync_API_test.hpp ****         } else {
 2723              		.loc 3 164 45
 2724 0d08 13850C00 		mv	a0,s9
 2725 0d0c 97000000 		call	_ZdlPv@plt
 2725      E7800000 
 2726              	.LVL314:
 2727 0d14 13850400 		mv	a0,s1
 2728              	.LEHB14:
 2729 0d18 97000000 		call	_Unwind_Resume@plt
 2729      E7800000 
 2730              	.LVL315:
 2731              	.LEHE14:
 2732              	.L145:
 2733 0d20 93040500 		mv	s1,a0
 2734              	.LVL316:
 166:tests/ConsumerProducer_CPP_Sync_API_test.hpp ****         }
 2735              		.loc 3 166 53
 2736 0d24 13850C00 		mv	a0,s9
 2737 0d28 97000000 		call	_ZdlPv@plt
 2737      E7800000 
 2738              	.LVL317:
 2739 0d30 13850400 		mv	a0,s1
 2740              	.LEHB15:
 2741 0d34 97000000 		call	_Unwind_Resume@plt
 2741      E7800000 
 2742              	.LVL318:
 2743              	.LEHE15:
 2744              	.LBE96:
 2745              		.cfi_endproc
GAS LISTING /tmp/cc4XBM2x.s 			page 66


 2746              	.LFE35:
 2747              		.globl	__gxx_personality_v0
 2748              		.section	.gcc_except_table,"a",@progbits
 2749              	.LLSDA35:
 2750 0000 FF       		.byte	0xff
 2751 0001 FF       		.byte	0xff
 2752 0002 03       		.byte	0x3
 2753 0003 D001     		.byte	0xd0,0x1
 2754 0005 00000000 		.4byte	.LEHB0-.LFB35
 2755 0009 00000000 		.4byte	.LEHE0-.LEHB0
 2756 000d 00000000 		.4byte	0
 2757 0011 00       		.byte	0
 2758 0012 00000000 		.4byte	.LEHB1-.LFB35
 2759 0016 00000000 		.4byte	.LEHE1-.LEHB1
 2760 001a 00000000 		.4byte	.L141-.LFB35
 2761 001e 00       		.byte	0
 2762 001f 00000000 		.4byte	.LEHB2-.LFB35
 2763 0023 00000000 		.4byte	.LEHE2-.LEHB2
 2764 0027 00000000 		.4byte	0
 2765 002b 00       		.byte	0
 2766 002c 00000000 		.4byte	.LEHB3-.LFB35
 2767 0030 00000000 		.4byte	.LEHE3-.LEHB3
 2768 0034 00000000 		.4byte	.L142-.LFB35
 2769 0038 00       		.byte	0
 2770 0039 00000000 		.4byte	.LEHB4-.LFB35
 2771 003d 00000000 		.4byte	.LEHE4-.LEHB4
 2772 0041 00000000 		.4byte	0
 2773 0045 00       		.byte	0
 2774 0046 00000000 		.4byte	.LEHB5-.LFB35
 2775 004a 00000000 		.4byte	.LEHE5-.LEHB5
 2776 004e 00000000 		.4byte	.L143-.LFB35
 2777 0052 00       		.byte	0
 2778 0053 00000000 		.4byte	.LEHB6-.LFB35
 2779 0057 00000000 		.4byte	.LEHE6-.LEHB6
 2780 005b 00000000 		.4byte	0
 2781 005f 00       		.byte	0
 2782 0060 00000000 		.4byte	.LEHB7-.LFB35
 2783 0064 00000000 		.4byte	.LEHE7-.LEHB7
 2784 0068 00000000 		.4byte	.L144-.LFB35
 2785 006c 00       		.byte	0
 2786 006d 00000000 		.4byte	.LEHB8-.LFB35
 2787 0071 00000000 		.4byte	.LEHE8-.LEHB8
 2788 0075 00000000 		.4byte	0
 2789 0079 00       		.byte	0
 2790 007a 00000000 		.4byte	.LEHB9-.LFB35
 2791 007e 00000000 		.4byte	.LEHE9-.LEHB9
 2792 0082 00000000 		.4byte	.L145-.LFB35
 2793 0086 00       		.byte	0
 2794 0087 00000000 		.4byte	.LEHB10-.LFB35
 2795 008b 00000000 		.4byte	.LEHE10-.LEHB10
 2796 008f 00000000 		.4byte	0
 2797 0093 00       		.byte	0
 2798 0094 00000000 		.4byte	.LEHB11-.LFB35
 2799 0098 00000000 		.4byte	.LEHE11-.LEHB11
 2800 009c 00000000 		.4byte	0
 2801 00a0 00       		.byte	0
 2802 00a1 00000000 		.4byte	.LEHB12-.LFB35
GAS LISTING /tmp/cc4XBM2x.s 			page 67


 2803 00a5 00000000 		.4byte	.LEHE12-.LEHB12
 2804 00a9 00000000 		.4byte	0
 2805 00ad 00       		.byte	0
 2806 00ae 00000000 		.4byte	.LEHB13-.LFB35
 2807 00b2 00000000 		.4byte	.LEHE13-.LEHB13
 2808 00b6 00000000 		.4byte	0
 2809 00ba 00       		.byte	0
 2810 00bb 00000000 		.4byte	.LEHB14-.LFB35
 2811 00bf 00000000 		.4byte	.LEHE14-.LEHB14
 2812 00c3 00000000 		.4byte	0
 2813 00c7 00       		.byte	0
 2814 00c8 00000000 		.4byte	.LEHB15-.LFB35
 2815 00cc 00000000 		.4byte	.LEHE15-.LEHB15
 2816 00d0 00000000 		.4byte	0
 2817 00d4 00       		.byte	0
 2818              		.text
 2820              		.align	2
 2821              		.globl	_Z12testSleepingv
 2823              	_Z12testSleepingv:
 2824              	.LFB37:
  26:tests/ThreadSleep_C_API_test.hpp **** 
  27:tests/ThreadSleep_C_API_test.hpp **** void testSleeping() {
 2825              		.loc 4 27 21 is_stmt 1
 2826              		.cfi_startproc
 2827 0d3c 130101FC 		addi	sp,sp,-64
 2828              		.cfi_def_cfa_offset 64
 2829 0d40 233C1102 		sd	ra,56(sp)
 2830 0d44 23388102 		sd	s0,48(sp)
 2831 0d48 23349102 		sd	s1,40(sp)
 2832              		.cfi_offset 1, -8
 2833              		.cfi_offset 8, -16
 2834              		.cfi_offset 9, -24
 2835 0d4c 13040104 		addi	s0,sp,64
 2836              		.cfi_def_cfa 8, 0
  28:tests/ThreadSleep_C_API_test.hpp ****     const int sleepy_thread_count = 2;
 2837              		.loc 4 28 5
 2838              	.LVL319:
  29:tests/ThreadSleep_C_API_test.hpp ****     time_t sleep_times[sleepy_thread_count] = {10, 20};
 2839              		.loc 4 29 5
 2840              		.loc 4 29 12 is_stmt 0
 2841 0d50 9307A000 		li	a5,10
 2842 0d54 2338F4FC 		sd	a5,-48(s0)
 2843 0d58 93074001 		li	a5,20
 2844 0d5c 233CF4FC 		sd	a5,-40(s0)
  30:tests/ThreadSleep_C_API_test.hpp ****     thread_t sleepyThread[sleepy_thread_count];
 2845              		.loc 4 30 5 is_stmt 1
  31:tests/ThreadSleep_C_API_test.hpp **** 
  32:tests/ThreadSleep_C_API_test.hpp ****     for (int i = 0; i < sleepy_thread_count; i++) {
 2846              		.loc 4 32 5
 2847              	.LVL320:
 2848              	.LBB97:
 2849              		.loc 4 32 14 is_stmt 0
 2850 0d60 93040000 		li	s1,0
 2851 0d64 6F00C002 		j	.L153
 2852              	.LVL321:
 2853              	.L156:
  33:tests/ThreadSleep_C_API_test.hpp ****         thread_create(&sleepyThread[i], sleepyRun, sleep_times + i);
GAS LISTING /tmp/cc4XBM2x.s 			page 68


 2854              		.loc 4 33 9 is_stmt 1
 2855              		.loc 4 33 64 is_stmt 0
 2856 0d68 93973400 		slli	a5,s1,3
 2857              		.loc 4 33 22
 2858 0d6c 130604FD 		addi	a2,s0,-48
 2859 0d70 3306F600 		add	a2,a2,a5
 2860 0d74 97050000 		lla	a1,_Z9sleepyRunPv
 2860      93850500 
 2861 0d7c 130504FC 		addi	a0,s0,-64
 2862 0d80 3305F500 		add	a0,a0,a5
 2863 0d84 97000000 		call	_Z13thread_createPP7_threadPFvPvES2_@plt
 2863      E7800000 
 2864              	.LVL322:
  32:tests/ThreadSleep_C_API_test.hpp ****         thread_create(&sleepyThread[i], sleepyRun, sleep_times + i);
 2865              		.loc 4 32 5 is_stmt 1
 2866 0d8c 9B841400 		addiw	s1,s1,1
 2867              	.LVL323:
 2868              	.L153:
  32:tests/ThreadSleep_C_API_test.hpp ****         thread_create(&sleepyThread[i], sleepyRun, sleep_times + i);
 2869              		.loc 4 32 23 discriminator 1
 2870 0d90 93071000 		li	a5,1
 2871 0d94 E3DA97FC 		ble	s1,a5,.L156
 2872              	.L154:
 2873              	.LBE97:
  34:tests/ThreadSleep_C_API_test.hpp ****     }
  35:tests/ThreadSleep_C_API_test.hpp **** 
  36:tests/ThreadSleep_C_API_test.hpp ****     while (!(finished[0] && finished[1])) {}
 2874              		.loc 4 36 5
 2875              		.loc 4 36 12
 2876              		.loc 4 36 24 is_stmt 0
 2877 0d98 97070000 		lbu	a5,.LANCHOR0+8
 2877      83C70700 
 2878              		.loc 4 36 12
 2879 0da0 E38C07FE 		beqz	a5,.L154
 2880              		.loc 4 36 39 discriminator 1
 2881 0da4 97070000 		lbu	a5,.LANCHOR0+9
 2881      83C70700 
 2882              		.loc 4 36 12 discriminator 1
 2883 0dac E38607FE 		beqz	a5,.L154
  37:tests/ThreadSleep_C_API_test.hpp **** }
 2884              		.loc 4 37 1
 2885 0db0 83308103 		ld	ra,56(sp)
 2886              		.cfi_restore 1
 2887 0db4 03340103 		ld	s0,48(sp)
 2888              		.cfi_restore 8
 2889              		.cfi_def_cfa 2, 64
 2890 0db8 83348102 		ld	s1,40(sp)
 2891              		.cfi_restore 9
 2892              	.LVL324:
 2893 0dbc 13010104 		addi	sp,sp,64
 2894              		.cfi_def_cfa_offset 0
 2895 0dc0 67800000 		jr	ra
 2896              		.cfi_endproc
 2897              	.LFE37:
 2899              		.align	2
 2900              		.globl	_ZN19ConsumerProducerCPP20testConsumerProducerEv
 2902              	_ZN19ConsumerProducerCPP20testConsumerProducerEv:
GAS LISTING /tmp/cc4XBM2x.s 			page 69


 2903              	.LFB50:
  87:tests/ConsumerProducer_CPP_API_test.hpp ****     };
  88:tests/ConsumerProducer_CPP_API_test.hpp **** 
  89:tests/ConsumerProducer_CPP_API_test.hpp ****     void testConsumerProducer() {
 2904              		.loc 2 89 33 is_stmt 1
 2905              		.cfi_startproc
 2906              		.cfi_personality 0x9b,DW.ref.__gxx_personality_v0
 2907              		.cfi_lsda 0x1b,.LLSDA50
 2908 0dc4 130101F8 		addi	sp,sp,-128
 2909              		.cfi_def_cfa_offset 128
 2910 0dc8 233C1106 		sd	ra,120(sp)
 2911 0dcc 23388106 		sd	s0,112(sp)
 2912 0dd0 23349106 		sd	s1,104(sp)
 2913 0dd4 23302107 		sd	s2,96(sp)
 2914 0dd8 233C3105 		sd	s3,88(sp)
 2915 0ddc 23384105 		sd	s4,80(sp)
 2916 0de0 23345105 		sd	s5,72(sp)
 2917 0de4 23306105 		sd	s6,64(sp)
 2918 0de8 233C7103 		sd	s7,56(sp)
 2919 0dec 23388103 		sd	s8,48(sp)
 2920 0df0 23349103 		sd	s9,40(sp)
 2921              		.cfi_offset 1, -8
 2922              		.cfi_offset 8, -16
 2923              		.cfi_offset 9, -24
 2924              		.cfi_offset 18, -32
 2925              		.cfi_offset 19, -40
 2926              		.cfi_offset 20, -48
 2927              		.cfi_offset 21, -56
 2928              		.cfi_offset 22, -64
 2929              		.cfi_offset 23, -72
 2930              		.cfi_offset 24, -80
 2931              		.cfi_offset 25, -88
 2932 0df4 13040108 		addi	s0,sp,128
 2933              		.cfi_def_cfa 8, 0
  90:tests/ConsumerProducer_CPP_API_test.hpp ****         char input[30];
  91:tests/ConsumerProducer_CPP_API_test.hpp ****         int n, threadNum;
  92:tests/ConsumerProducer_CPP_API_test.hpp **** 
  93:tests/ConsumerProducer_CPP_API_test.hpp ****         printString("Unesite broj proizvodjaca?\n");
  94:tests/ConsumerProducer_CPP_API_test.hpp ****         getString(input, 30);
  95:tests/ConsumerProducer_CPP_API_test.hpp ****         threadNum = stringToInt(input);
  96:tests/ConsumerProducer_CPP_API_test.hpp **** 
  97:tests/ConsumerProducer_CPP_API_test.hpp ****         printString("Unesite velicinu bafera?\n");
  98:tests/ConsumerProducer_CPP_API_test.hpp ****         getString(input, 30);
  99:tests/ConsumerProducer_CPP_API_test.hpp ****         n = stringToInt(input);
 100:tests/ConsumerProducer_CPP_API_test.hpp **** 
 101:tests/ConsumerProducer_CPP_API_test.hpp ****         printString("Broj proizvodjaca "); printInt(threadNum);
 102:tests/ConsumerProducer_CPP_API_test.hpp ****         printString(" i velicina bafera "); printInt(n);
 103:tests/ConsumerProducer_CPP_API_test.hpp ****         printString(".\n");
 104:tests/ConsumerProducer_CPP_API_test.hpp **** 
 105:tests/ConsumerProducer_CPP_API_test.hpp ****         if(threadNum > n) {
 106:tests/ConsumerProducer_CPP_API_test.hpp ****             printString("Broj proizvodjaca ne sme biti manji od velicine bafera!\n");
 107:tests/ConsumerProducer_CPP_API_test.hpp ****             return;
 108:tests/ConsumerProducer_CPP_API_test.hpp ****         } else if (threadNum < 1) {
 109:tests/ConsumerProducer_CPP_API_test.hpp ****             printString("Broj proizvodjaca mora biti veci od nula!\n");
 110:tests/ConsumerProducer_CPP_API_test.hpp ****             return;
 111:tests/ConsumerProducer_CPP_API_test.hpp ****         }
 112:tests/ConsumerProducer_CPP_API_test.hpp **** 
GAS LISTING /tmp/cc4XBM2x.s 			page 70


 113:tests/ConsumerProducer_CPP_API_test.hpp ****         BufferCPP *buffer = new BufferCPP(n);
 114:tests/ConsumerProducer_CPP_API_test.hpp **** 
 115:tests/ConsumerProducer_CPP_API_test.hpp ****         waitForAll = new Semaphore(0);
 116:tests/ConsumerProducer_CPP_API_test.hpp ****         Thread *producers[threadNum];
 117:tests/ConsumerProducer_CPP_API_test.hpp ****         thread_data threadData[threadNum + 1];
 118:tests/ConsumerProducer_CPP_API_test.hpp **** 
 119:tests/ConsumerProducer_CPP_API_test.hpp ****         threadData[threadNum].id = threadNum;
 120:tests/ConsumerProducer_CPP_API_test.hpp ****         threadData[threadNum].buffer = buffer;
 121:tests/ConsumerProducer_CPP_API_test.hpp ****         threadData[threadNum].sem = waitForAll;
 122:tests/ConsumerProducer_CPP_API_test.hpp ****         Thread *consumer = new Consumer(&threadData[threadNum]);
 123:tests/ConsumerProducer_CPP_API_test.hpp ****         consumer->start();
 124:tests/ConsumerProducer_CPP_API_test.hpp **** 
 125:tests/ConsumerProducer_CPP_API_test.hpp ****         threadData[0].id = 0;
 126:tests/ConsumerProducer_CPP_API_test.hpp ****         threadData[0].buffer = buffer;
 127:tests/ConsumerProducer_CPP_API_test.hpp ****         threadData[0].sem = waitForAll;
 128:tests/ConsumerProducer_CPP_API_test.hpp ****         producers[0] = new ProducerKeyborad(&threadData[0]);
 129:tests/ConsumerProducer_CPP_API_test.hpp ****         producers[0]->start();
 130:tests/ConsumerProducer_CPP_API_test.hpp **** 
 131:tests/ConsumerProducer_CPP_API_test.hpp ****         for (int i = 1; i < threadNum; i++) {
 132:tests/ConsumerProducer_CPP_API_test.hpp ****             threadData[i].id = i;
 133:tests/ConsumerProducer_CPP_API_test.hpp ****             threadData[i].buffer = buffer;
 134:tests/ConsumerProducer_CPP_API_test.hpp ****             threadData[i].sem = waitForAll;
 135:tests/ConsumerProducer_CPP_API_test.hpp **** 
 136:tests/ConsumerProducer_CPP_API_test.hpp ****             producers[i] = new Producer(&threadData[i]);
 137:tests/ConsumerProducer_CPP_API_test.hpp ****             producers[i]->start();
 138:tests/ConsumerProducer_CPP_API_test.hpp **** 
 139:tests/ConsumerProducer_CPP_API_test.hpp ****         }
 140:tests/ConsumerProducer_CPP_API_test.hpp **** 
 141:tests/ConsumerProducer_CPP_API_test.hpp ****         Thread::dispatch();
 142:tests/ConsumerProducer_CPP_API_test.hpp **** 
 143:tests/ConsumerProducer_CPP_API_test.hpp ****         for (int i = 0; i <= threadNum; i++) {
 144:tests/ConsumerProducer_CPP_API_test.hpp ****             waitForAll->wait();
 145:tests/ConsumerProducer_CPP_API_test.hpp ****         }
 146:tests/ConsumerProducer_CPP_API_test.hpp **** 
 147:tests/ConsumerProducer_CPP_API_test.hpp ****         delete waitForAll;
 148:tests/ConsumerProducer_CPP_API_test.hpp ****         for (int i = 0; i < threadNum; i++) {
 149:tests/ConsumerProducer_CPP_API_test.hpp ****             delete producers[i];
 150:tests/ConsumerProducer_CPP_API_test.hpp ****         }
 151:tests/ConsumerProducer_CPP_API_test.hpp ****         delete consumer;
 152:tests/ConsumerProducer_CPP_API_test.hpp ****         delete buffer;
 2934              		.loc 2 152 22 is_stmt 0
 2935 0df8 130C0100 		mv	s8,sp
  90:tests/ConsumerProducer_CPP_API_test.hpp ****         char input[30];
 2936              		.loc 2 90 9 is_stmt 1
  91:tests/ConsumerProducer_CPP_API_test.hpp **** 
 2937              		.loc 2 91 9
  93:tests/ConsumerProducer_CPP_API_test.hpp ****         getString(input, 30);
 2938              		.loc 2 93 9
  93:tests/ConsumerProducer_CPP_API_test.hpp ****         getString(input, 30);
 2939              		.loc 2 93 20 is_stmt 0
 2940 0dfc 17050000 		lla	a0,.LC19
 2940      13050500 
 2941              	.LEHB16:
 2942 0e04 97000000 		call	_Z11printStringPKc@plt
 2942      E7800000 
 2943              	.LVL325:
  94:tests/ConsumerProducer_CPP_API_test.hpp ****         threadNum = stringToInt(input);
GAS LISTING /tmp/cc4XBM2x.s 			page 71


 2944              		.loc 2 94 9 is_stmt 1
  94:tests/ConsumerProducer_CPP_API_test.hpp ****         threadNum = stringToInt(input);
 2945              		.loc 2 94 18 is_stmt 0
 2946 0e0c 9305E001 		li	a1,30
 2947 0e10 930404F8 		addi	s1,s0,-128
 2948 0e14 13850400 		mv	a0,s1
 2949 0e18 97000000 		call	_Z9getStringPci@plt
 2949      E7800000 
 2950              	.LVL326:
  95:tests/ConsumerProducer_CPP_API_test.hpp **** 
 2951              		.loc 2 95 9 is_stmt 1
  95:tests/ConsumerProducer_CPP_API_test.hpp **** 
 2952              		.loc 2 95 32 is_stmt 0
 2953 0e20 13850400 		mv	a0,s1
 2954 0e24 97000000 		call	_Z11stringToIntPKc@plt
 2954      E7800000 
 2955              	.LVL327:
 2956 0e2c 93090500 		mv	s3,a0
 2957              	.LVL328:
  97:tests/ConsumerProducer_CPP_API_test.hpp ****         getString(input, 30);
 2958              		.loc 2 97 9 is_stmt 1
  97:tests/ConsumerProducer_CPP_API_test.hpp ****         getString(input, 30);
 2959              		.loc 2 97 20 is_stmt 0
 2960 0e30 17050000 		lla	a0,.LC20
 2960      13050500 
 2961 0e38 97000000 		call	_Z11printStringPKc@plt
 2961      E7800000 
 2962              	.LVL329:
  98:tests/ConsumerProducer_CPP_API_test.hpp ****         n = stringToInt(input);
 2963              		.loc 2 98 9 is_stmt 1
  98:tests/ConsumerProducer_CPP_API_test.hpp ****         n = stringToInt(input);
 2964              		.loc 2 98 18 is_stmt 0
 2965 0e40 9305E001 		li	a1,30
 2966 0e44 13850400 		mv	a0,s1
 2967 0e48 97000000 		call	_Z9getStringPci@plt
 2967      E7800000 
 2968              	.LVL330:
  99:tests/ConsumerProducer_CPP_API_test.hpp **** 
 2969              		.loc 2 99 9 is_stmt 1
  99:tests/ConsumerProducer_CPP_API_test.hpp **** 
 2970              		.loc 2 99 24 is_stmt 0
 2971 0e50 13850400 		mv	a0,s1
 2972 0e54 97000000 		call	_Z11stringToIntPKc@plt
 2972      E7800000 
 2973              	.LVL331:
 2974 0e5c 93040500 		mv	s1,a0
 2975              	.LVL332:
 101:tests/ConsumerProducer_CPP_API_test.hpp ****         printString(" i velicina bafera "); printInt(n);
 2976              		.loc 2 101 9 is_stmt 1
 101:tests/ConsumerProducer_CPP_API_test.hpp ****         printString(" i velicina bafera "); printInt(n);
 2977              		.loc 2 101 20 is_stmt 0
 2978 0e60 17050000 		lla	a0,.LC21
 2978      13050500 
 2979 0e68 97000000 		call	_Z11printStringPKc@plt
 2979      E7800000 
 2980              	.LVL333:
 101:tests/ConsumerProducer_CPP_API_test.hpp ****         printString(" i velicina bafera "); printInt(n);
GAS LISTING /tmp/cc4XBM2x.s 			page 72


 2981              		.loc 2 101 44 is_stmt 1
 101:tests/ConsumerProducer_CPP_API_test.hpp ****         printString(" i velicina bafera "); printInt(n);
 2982              		.loc 2 101 52 is_stmt 0
 2983 0e70 13060000 		li	a2,0
 2984 0e74 9305A000 		li	a1,10
 2985 0e78 13850900 		mv	a0,s3
 2986 0e7c 97000000 		call	_Z8printIntiii@plt
 2986      E7800000 
 2987              	.LVL334:
 102:tests/ConsumerProducer_CPP_API_test.hpp ****         printString(".\n");
 2988              		.loc 2 102 9 is_stmt 1
 102:tests/ConsumerProducer_CPP_API_test.hpp ****         printString(".\n");
 2989              		.loc 2 102 20 is_stmt 0
 2990 0e84 17050000 		lla	a0,.LC22
 2990      13050500 
 2991 0e8c 97000000 		call	_Z11printStringPKc@plt
 2991      E7800000 
 2992              	.LVL335:
 102:tests/ConsumerProducer_CPP_API_test.hpp ****         printString(".\n");
 2993              		.loc 2 102 45 is_stmt 1
 102:tests/ConsumerProducer_CPP_API_test.hpp ****         printString(".\n");
 2994              		.loc 2 102 53 is_stmt 0
 2995 0e94 13060000 		li	a2,0
 2996 0e98 9305A000 		li	a1,10
 2997 0e9c 13850400 		mv	a0,s1
 2998 0ea0 97000000 		call	_Z8printIntiii@plt
 2998      E7800000 
 2999              	.LVL336:
 103:tests/ConsumerProducer_CPP_API_test.hpp **** 
 3000              		.loc 2 103 9 is_stmt 1
 103:tests/ConsumerProducer_CPP_API_test.hpp **** 
 3001              		.loc 2 103 20 is_stmt 0
 3002 0ea8 17050000 		lla	a0,.LC23
 3002      13050500 
 3003 0eb0 97000000 		call	_Z11printStringPKc@plt
 3003      E7800000 
 3004              	.LVL337:
 105:tests/ConsumerProducer_CPP_API_test.hpp ****             printString("Broj proizvodjaca ne sme biti manji od velicine bafera!\n");
 3005              		.loc 2 105 9 is_stmt 1
 3006 0eb8 63C43403 		bgt	s3,s1,.L183
 108:tests/ConsumerProducer_CPP_API_test.hpp ****             printString("Broj proizvodjaca mora biti veci od nula!\n");
 3007              		.loc 2 108 16
 3008 0ebc 635C3003 		blez	s3,.L184
 113:tests/ConsumerProducer_CPP_API_test.hpp **** 
 3009              		.loc 2 113 9
 113:tests/ConsumerProducer_CPP_API_test.hpp **** 
 3010              		.loc 2 113 44 is_stmt 0
 3011 0ec0 13058003 		li	a0,56
 3012 0ec4 97000000 		call	_Znwm@plt
 3012      E7800000 
 3013              	.LVL338:
 3014              	.LEHE16:
 3015 0ecc 930A0500 		mv	s5,a0
 3016 0ed0 93850400 		mv	a1,s1
 3017              	.LEHB17:
 3018 0ed4 97000000 		call	_ZN9BufferCPPC1Ei@plt
 3018      E7800000 
GAS LISTING /tmp/cc4XBM2x.s 			page 73


 3019              	.LVL339:
 3020              	.LEHE17:
 3021 0edc 6F000003 		j	.L185
 3022              	.L183:
 106:tests/ConsumerProducer_CPP_API_test.hpp ****             return;
 3023              		.loc 2 106 13 is_stmt 1
 106:tests/ConsumerProducer_CPP_API_test.hpp ****             return;
 3024              		.loc 2 106 24 is_stmt 0
 3025 0ee0 17050000 		lla	a0,.LC24
 3025      13050500 
 3026              	.LEHB18:
 3027 0ee8 97000000 		call	_Z11printStringPKc@plt
 3027      E7800000 
 3028              	.LVL340:
 107:tests/ConsumerProducer_CPP_API_test.hpp ****         } else if (threadNum < 1) {
 3029              		.loc 2 107 13 is_stmt 1
 3030 0ef0 6F004001 		j	.L159
 3031              	.L184:
 109:tests/ConsumerProducer_CPP_API_test.hpp ****             return;
 3032              		.loc 2 109 13
 109:tests/ConsumerProducer_CPP_API_test.hpp ****             return;
 3033              		.loc 2 109 24 is_stmt 0
 3034 0ef4 17050000 		lla	a0,.LC25
 3034      13050500 
 3035 0efc 97000000 		call	_Z11printStringPKc@plt
 3035      E7800000 
 3036              	.LVL341:
 110:tests/ConsumerProducer_CPP_API_test.hpp ****         }
 3037              		.loc 2 110 13 is_stmt 1
 3038              	.L159:
 3039 0f04 13010C00 		mv	sp,s8
 3040 0f08 6F00C021 		j	.L157
 3041              	.L185:
 3042              	.LVL342:
 115:tests/ConsumerProducer_CPP_API_test.hpp ****         Thread *producers[threadNum];
 3043              		.loc 2 115 9 discriminator 3
 115:tests/ConsumerProducer_CPP_API_test.hpp ****         Thread *producers[threadNum];
 3044              		.loc 2 115 37 is_stmt 0 discriminator 3
 3045 0f0c 13050001 		li	a0,16
 3046 0f10 97000000 		call	_Znwm@plt
 3046      E7800000 
 3047              	.LVL343:
 3048              	.LEHE18:
 3049 0f18 93040500 		mv	s1,a0
 3050              	.LVL344:
 3051 0f1c 93050000 		li	a1,0
 3052              	.LEHB19:
 3053 0f20 97000000 		call	_ZN9SemaphoreC1Ej@plt
 3053      E7800000 
 3054              	.LVL345:
 3055              	.LEHE19:
 115:tests/ConsumerProducer_CPP_API_test.hpp ****         Thread *producers[threadNum];
 3056              		.loc 2 115 20 discriminator 3
 3057 0f28 17070000 		lla	a4,.LANCHOR0
 3057      13070700 
 3058 0f30 233C9700 		sd	s1,24(a4)
 116:tests/ConsumerProducer_CPP_API_test.hpp ****         thread_data threadData[threadNum + 1];
GAS LISTING /tmp/cc4XBM2x.s 			page 74


 3059              		.loc 2 116 9 is_stmt 1 discriminator 3
 3060              	.LVL346:
 116:tests/ConsumerProducer_CPP_API_test.hpp ****         thread_data threadData[threadNum + 1];
 3061              		.loc 2 116 17 is_stmt 0 discriminator 3
 3062 0f34 93973900 		slli	a5,s3,3
 3063 0f38 9387F700 		addi	a5,a5,15
 3064 0f3c 93F707FF 		andi	a5,a5,-16
 3065 0f40 3301F140 		sub	sp,sp,a5
 3066 0f44 130A0100 		mv	s4,sp
 3067              	.LVL347:
 117:tests/ConsumerProducer_CPP_API_test.hpp **** 
 3068              		.loc 2 117 9 is_stmt 1 discriminator 3
 117:tests/ConsumerProducer_CPP_API_test.hpp **** 
 3069              		.loc 2 117 42 is_stmt 0 discriminator 3
 3070 0f48 9B861900 		addiw	a3,s3,1
 3071              	.LVL348:
 117:tests/ConsumerProducer_CPP_API_test.hpp **** 
 3072              		.loc 2 117 21 discriminator 3
 3073 0f4c 93971600 		slli	a5,a3,1
 3074 0f50 B387D700 		add	a5,a5,a3
 3075 0f54 93973700 		slli	a5,a5,3
 3076 0f58 9387F700 		addi	a5,a5,15
 3077 0f5c 93F707FF 		andi	a5,a5,-16
 3078 0f60 3301F140 		sub	sp,sp,a5
 3079              	.LVL349:
 3080 0f64 130B0100 		mv	s6,sp
 3081              	.LVL350:
 119:tests/ConsumerProducer_CPP_API_test.hpp ****         threadData[threadNum].buffer = buffer;
 3082              		.loc 2 119 9 is_stmt 1 discriminator 3
 119:tests/ConsumerProducer_CPP_API_test.hpp ****         threadData[threadNum].buffer = buffer;
 3083              		.loc 2 119 34 is_stmt 0 discriminator 3
 3084 0f68 93941900 		slli	s1,s3,1
 3085 0f6c B3843401 		add	s1,s1,s3
 3086 0f70 93943400 		slli	s1,s1,3
 3087 0f74 B3049B00 		add	s1,s6,s1
 3088 0f78 23A03401 		sw	s3,0(s1)
 120:tests/ConsumerProducer_CPP_API_test.hpp ****         threadData[threadNum].sem = waitForAll;
 3089              		.loc 2 120 9 is_stmt 1 discriminator 3
 120:tests/ConsumerProducer_CPP_API_test.hpp ****         threadData[threadNum].sem = waitForAll;
 3090              		.loc 2 120 38 is_stmt 0 discriminator 3
 3091 0f7c 23B45401 		sd	s5,8(s1)
 121:tests/ConsumerProducer_CPP_API_test.hpp ****         Thread *consumer = new Consumer(&threadData[threadNum]);
 3092              		.loc 2 121 9 is_stmt 1 discriminator 3
 121:tests/ConsumerProducer_CPP_API_test.hpp ****         Thread *consumer = new Consumer(&threadData[threadNum]);
 3093              		.loc 2 121 35 is_stmt 0 discriminator 3
 3094 0f80 83378701 		ld	a5,24(a4)
 3095 0f84 23B8F400 		sd	a5,16(s1)
 122:tests/ConsumerProducer_CPP_API_test.hpp ****         consumer->start();
 3096              		.loc 2 122 9 is_stmt 1 discriminator 3
 122:tests/ConsumerProducer_CPP_API_test.hpp ****         consumer->start();
 3097              		.loc 2 122 63 is_stmt 0 discriminator 3
 3098 0f88 13058001 		li	a0,24
 3099              	.LEHB20:
 3100 0f8c 97000000 		call	_Znwm@plt
 3100      E7800000 
 3101              	.LVL351:
 3102              	.LEHE20:
GAS LISTING /tmp/cc4XBM2x.s 			page 75


 3103 0f94 930B0500 		mv	s7,a0
 3104              	.LVL352:
 3105              	.LEHB21:
 3106              	.LBB98:
 3107              	.LBB99:
  65:tests/ConsumerProducer_CPP_API_test.hpp **** 
 3108              		.loc 2 65 54 discriminator 3
 3109 0f98 97000000 		call	_ZN6ThreadC2Ev@plt
 3109      E7800000 
 3110              	.LVL353:
 3111              	.LEHE21:
  65:tests/ConsumerProducer_CPP_API_test.hpp **** 
 3112              		.loc 2 65 54
 3113 0fa0 97070000 		lla	a5,_ZTVN19ConsumerProducerCPP8ConsumerE+16
 3113      93870700 
 3114 0fa8 23B0FB00 		sd	a5,0(s7)
 3115 0fac 23B89B00 		sd	s1,16(s7)
 3116              	.LVL354:
 3117              	.LBE99:
 3118              	.LBE98:
 123:tests/ConsumerProducer_CPP_API_test.hpp **** 
 3119              		.loc 2 123 9 is_stmt 1
 123:tests/ConsumerProducer_CPP_API_test.hpp **** 
 3120              		.loc 2 123 24 is_stmt 0
 3121 0fb0 13850B00 		mv	a0,s7
 3122              	.LEHB22:
 3123 0fb4 97000000 		call	_ZN6Thread5startEv@plt
 3123      E7800000 
 3124              	.LVL355:
 125:tests/ConsumerProducer_CPP_API_test.hpp ****         threadData[0].buffer = buffer;
 3125              		.loc 2 125 9 is_stmt 1
 125:tests/ConsumerProducer_CPP_API_test.hpp ****         threadData[0].buffer = buffer;
 3126              		.loc 2 125 26 is_stmt 0
 3127 0fbc 23200B00 		sw	zero,0(s6)
 126:tests/ConsumerProducer_CPP_API_test.hpp ****         threadData[0].sem = waitForAll;
 3128              		.loc 2 126 9 is_stmt 1
 126:tests/ConsumerProducer_CPP_API_test.hpp ****         threadData[0].sem = waitForAll;
 3129              		.loc 2 126 30 is_stmt 0
 3130 0fc0 23345B01 		sd	s5,8(s6)
 127:tests/ConsumerProducer_CPP_API_test.hpp ****         producers[0] = new ProducerKeyborad(&threadData[0]);
 3131              		.loc 2 127 9 is_stmt 1
 127:tests/ConsumerProducer_CPP_API_test.hpp ****         producers[0] = new ProducerKeyborad(&threadData[0]);
 3132              		.loc 2 127 27 is_stmt 0
 3133 0fc4 97070000 		ld	a5,.LANCHOR0+24
 3133      83B70700 
 3134 0fcc 2338FB00 		sd	a5,16(s6)
 128:tests/ConsumerProducer_CPP_API_test.hpp ****         producers[0]->start();
 3135              		.loc 2 128 9 is_stmt 1
 128:tests/ConsumerProducer_CPP_API_test.hpp ****         producers[0]->start();
 3136              		.loc 2 128 59 is_stmt 0
 3137 0fd0 13058001 		li	a0,24
 3138 0fd4 97000000 		call	_Znwm@plt
 3138      E7800000 
 3139              	.LVL356:
 3140              	.LEHE22:
 3141 0fdc 93040500 		mv	s1,a0
 3142              	.LVL357:
GAS LISTING /tmp/cc4XBM2x.s 			page 76


 3143              	.LEHB23:
 3144              	.LBB100:
 3145              	.LBB101:
  28:tests/ConsumerProducer_CPP_API_test.hpp **** 
 3146              		.loc 2 28 62
 3147 0fe0 97000000 		call	_ZN6ThreadC2Ev@plt
 3147      E7800000 
 3148              	.LVL358:
 3149              	.LEHE23:
 3150 0fe8 97070000 		lla	a5,_ZTVN19ConsumerProducerCPP16ProducerKeyboradE+16
 3150      93870700 
 3151 0ff0 23B0F400 		sd	a5,0(s1)
 3152 0ff4 23B86401 		sd	s6,16(s1)
 3153              	.LVL359:
 3154              	.LBE101:
 3155              	.LBE100:
 128:tests/ConsumerProducer_CPP_API_test.hpp ****         producers[0]->start();
 3156              		.loc 2 128 22
 3157 0ff8 23309A00 		sd	s1,0(s4)
 129:tests/ConsumerProducer_CPP_API_test.hpp **** 
 3158              		.loc 2 129 9 is_stmt 1
 129:tests/ConsumerProducer_CPP_API_test.hpp **** 
 3159              		.loc 2 129 28 is_stmt 0
 3160 0ffc 13850400 		mv	a0,s1
 3161              	.LEHB24:
 3162 1000 97000000 		call	_ZN6Thread5startEv@plt
 3162      E7800000 
 3163              	.LVL360:
 3164              	.LBB102:
 131:tests/ConsumerProducer_CPP_API_test.hpp ****             threadData[i].id = i;
 3165              		.loc 2 131 18
 3166 1008 13091000 		li	s2,1
 3167 100c 6F000003 		j	.L162
 3168              	.LVL361:
 3169              	.L186:
 3170              	.LBB103:
 3171              	.LBB104:
  48:tests/ConsumerProducer_CPP_API_test.hpp **** 
 3172              		.loc 2 48 54
 3173 1010 97070000 		lla	a5,_ZTVN19ConsumerProducerCPP8ProducerE+16
 3173      93870700 
 3174 1018 23B0FC00 		sd	a5,0(s9)
 3175 101c 23B89C00 		sd	s1,16(s9)
 3176              	.LVL362:
 3177              	.LBE104:
 3178              	.LBE103:
 136:tests/ConsumerProducer_CPP_API_test.hpp ****             producers[i]->start();
 3179              		.loc 2 136 26
 3180 1020 93173900 		slli	a5,s2,3
 3181 1024 B307FA00 		add	a5,s4,a5
 3182 1028 23B09701 		sd	s9,0(a5)
 137:tests/ConsumerProducer_CPP_API_test.hpp **** 
 3183              		.loc 2 137 13 is_stmt 1
 137:tests/ConsumerProducer_CPP_API_test.hpp **** 
 3184              		.loc 2 137 32 is_stmt 0
 3185 102c 13850C00 		mv	a0,s9
 3186 1030 97000000 		call	_ZN6Thread5startEv@plt
GAS LISTING /tmp/cc4XBM2x.s 			page 77


 3186      E7800000 
 3187              	.LVL363:
 131:tests/ConsumerProducer_CPP_API_test.hpp ****             threadData[i].id = i;
 3188              		.loc 2 131 9 is_stmt 1
 3189 1038 1B091900 		addiw	s2,s2,1
 3190              	.LVL364:
 3191              	.L162:
 131:tests/ConsumerProducer_CPP_API_test.hpp ****             threadData[i].id = i;
 3192              		.loc 2 131 27 discriminator 1
 3193 103c 63523905 		bge	s2,s3,.L161
 132:tests/ConsumerProducer_CPP_API_test.hpp ****             threadData[i].buffer = buffer;
 3194              		.loc 2 132 13
 132:tests/ConsumerProducer_CPP_API_test.hpp ****             threadData[i].buffer = buffer;
 3195              		.loc 2 132 30 is_stmt 0
 3196 1040 93141900 		slli	s1,s2,1
 3197 1044 B3842401 		add	s1,s1,s2
 3198 1048 93943400 		slli	s1,s1,3
 3199 104c B3049B00 		add	s1,s6,s1
 3200 1050 23A02401 		sw	s2,0(s1)
 133:tests/ConsumerProducer_CPP_API_test.hpp ****             threadData[i].sem = waitForAll;
 3201              		.loc 2 133 13 is_stmt 1
 133:tests/ConsumerProducer_CPP_API_test.hpp ****             threadData[i].sem = waitForAll;
 3202              		.loc 2 133 34 is_stmt 0
 3203 1054 23B45401 		sd	s5,8(s1)
 134:tests/ConsumerProducer_CPP_API_test.hpp **** 
 3204              		.loc 2 134 13 is_stmt 1
 134:tests/ConsumerProducer_CPP_API_test.hpp **** 
 3205              		.loc 2 134 31 is_stmt 0
 3206 1058 97070000 		ld	a5,.LANCHOR0+24
 3206      83B70700 
 3207 1060 23B8F400 		sd	a5,16(s1)
 136:tests/ConsumerProducer_CPP_API_test.hpp ****             producers[i]->start();
 3208              		.loc 2 136 13 is_stmt 1
 136:tests/ConsumerProducer_CPP_API_test.hpp ****             producers[i]->start();
 3209              		.loc 2 136 55 is_stmt 0
 3210 1064 13058001 		li	a0,24
 3211 1068 97000000 		call	_Znwm@plt
 3211      E7800000 
 3212              	.LVL365:
 3213              	.LEHE24:
 3214 1070 930C0500 		mv	s9,a0
 3215              	.LVL366:
 3216              	.LEHB25:
 3217              	.LBB106:
 3218              	.LBB105:
  48:tests/ConsumerProducer_CPP_API_test.hpp **** 
 3219              		.loc 2 48 54
 3220 1074 97000000 		call	_ZN6ThreadC2Ev@plt
 3220      E7800000 
 3221              	.LVL367:
 3222              	.LEHE25:
 3223 107c 6FF05FF9 		j	.L186
 3224              	.LVL368:
 3225              	.L161:
 3226              	.LBE105:
 3227              	.LBE106:
 3228              	.LBE102:
GAS LISTING /tmp/cc4XBM2x.s 			page 78


 141:tests/ConsumerProducer_CPP_API_test.hpp **** 
 3229              		.loc 2 141 9 is_stmt 1
 3230              	.LEHB26:
 141:tests/ConsumerProducer_CPP_API_test.hpp **** 
 3231              		.loc 2 141 25 is_stmt 0
 3232 1080 97000000 		call	_ZN6Thread8dispatchEv@plt
 3232      E7800000 
 3233              	.LVL369:
 3234              	.LBB107:
 143:tests/ConsumerProducer_CPP_API_test.hpp ****             waitForAll->wait();
 3235              		.loc 2 143 18
 3236 1088 93040000 		li	s1,0
 3237              	.L164:
 3238              	.LVL370:
 143:tests/ConsumerProducer_CPP_API_test.hpp ****             waitForAll->wait();
 3239              		.loc 2 143 27 is_stmt 1 discriminator 1
 3240 108c 63CE9900 		bgt	s1,s3,.L163
 144:tests/ConsumerProducer_CPP_API_test.hpp ****         }
 3241              		.loc 2 144 13
 144:tests/ConsumerProducer_CPP_API_test.hpp ****         }
 3242              		.loc 2 144 29 is_stmt 0
 3243 1090 17050000 		ld	a0,.LANCHOR0+24
 3243      03350500 
 3244 1098 97000000 		call	_ZN9Semaphore4waitEv@plt
 3244      E7800000 
 3245              	.LVL371:
 143:tests/ConsumerProducer_CPP_API_test.hpp ****             waitForAll->wait();
 3246              		.loc 2 143 9 is_stmt 1
 3247 10a0 9B841400 		addiw	s1,s1,1
 3248              	.LVL372:
 3249 10a4 6FF09FFE 		j	.L164
 3250              	.LVL373:
 3251              	.L163:
 3252              	.LBE107:
 147:tests/ConsumerProducer_CPP_API_test.hpp ****         for (int i = 0; i < threadNum; i++) {
 3253              		.loc 2 147 9
 147:tests/ConsumerProducer_CPP_API_test.hpp ****         for (int i = 0; i < threadNum; i++) {
 3254              		.loc 2 147 16 is_stmt 0
 3255 10a8 17050000 		ld	a0,.LANCHOR0+24
 3255      03350500 
 147:tests/ConsumerProducer_CPP_API_test.hpp ****         for (int i = 0; i < threadNum; i++) {
 3256              		.loc 2 147 26
 3257 10b0 63080500 		beqz	a0,.L165
 147:tests/ConsumerProducer_CPP_API_test.hpp ****         for (int i = 0; i < threadNum; i++) {
 3258              		.loc 2 147 16 discriminator 1
 3259 10b4 83370500 		ld	a5,0(a0)
 3260 10b8 83B78700 		ld	a5,8(a5)
 3261 10bc E7800700 		jalr	a5
 3262              	.LVL374:
 3263              	.L165:
 3264              	.LBB108:
 143:tests/ConsumerProducer_CPP_API_test.hpp ****             waitForAll->wait();
 3265              		.loc 2 143 18 discriminator 1
 3266 10c0 93040000 		li	s1,0
 3267              	.LVL375:
 3268 10c4 6F008000 		j	.L168
 3269              	.LVL376:
GAS LISTING /tmp/cc4XBM2x.s 			page 79


 3270              	.L167:
 3271              	.LBE108:
 3272              	.LBB109:
 148:tests/ConsumerProducer_CPP_API_test.hpp ****             delete producers[i];
 3273              		.loc 2 148 9 is_stmt 1 discriminator 2
 3274 10c8 9B841400 		addiw	s1,s1,1
 3275              	.LVL377:
 3276              	.L168:
 148:tests/ConsumerProducer_CPP_API_test.hpp ****             delete producers[i];
 3277              		.loc 2 148 27 discriminator 1
 3278 10cc 63D23403 		bge	s1,s3,.L166
 149:tests/ConsumerProducer_CPP_API_test.hpp ****         }
 3279              		.loc 2 149 13
 149:tests/ConsumerProducer_CPP_API_test.hpp ****         }
 3280              		.loc 2 149 31 is_stmt 0
 3281 10d0 93973400 		slli	a5,s1,3
 3282 10d4 B307FA00 		add	a5,s4,a5
 3283 10d8 03B50700 		ld	a0,0(a5)
 149:tests/ConsumerProducer_CPP_API_test.hpp ****         }
 3284              		.loc 2 149 32
 3285 10dc E30605FE 		beqz	a0,.L167
 149:tests/ConsumerProducer_CPP_API_test.hpp ****         }
 3286              		.loc 2 149 31 discriminator 1
 3287 10e0 83370500 		ld	a5,0(a0)
 3288 10e4 83B78700 		ld	a5,8(a5)
 3289 10e8 E7800700 		jalr	a5
 3290              	.LVL378:
 3291 10ec 6FF0DFFD 		j	.L167
 3292              	.L166:
 3293              	.LBE109:
 151:tests/ConsumerProducer_CPP_API_test.hpp ****         delete buffer;
 3294              		.loc 2 151 9 is_stmt 1
 151:tests/ConsumerProducer_CPP_API_test.hpp ****         delete buffer;
 3295              		.loc 2 151 24 is_stmt 0
 3296 10f0 638A0B00 		beqz	s7,.L169
 151:tests/ConsumerProducer_CPP_API_test.hpp ****         delete buffer;
 3297              		.loc 2 151 16 discriminator 1
 3298 10f4 83B70B00 		ld	a5,0(s7)
 3299 10f8 83B78700 		ld	a5,8(a5)
 3300 10fc 13850B00 		mv	a0,s7
 3301 1100 E7800700 		jalr	a5
 3302              	.LVL379:
 3303              	.L169:
 3304              		.loc 2 152 9 is_stmt 1
 3305              		.loc 2 152 22 is_stmt 0
 3306 1104 638E0A00 		beqz	s5,.L170
 3307              		.loc 2 152 16 discriminator 1
 3308 1108 13850A00 		mv	a0,s5
 3309 110c 97000000 		call	_ZN9BufferCPPD1Ev@plt
 3309      E7800000 
 3310              	.LVL380:
 3311 1114 13850A00 		mv	a0,s5
 3312 1118 97000000 		call	_ZdlPv@plt
 3312      E7800000 
 3313              	.LVL381:
 3314              	.LEHE26:
 3315              	.L170:
GAS LISTING /tmp/cc4XBM2x.s 			page 80


 3316 1120 13010C00 		mv	sp,s8
 3317              	.LVL382:
 3318              	.L157:
 153:tests/ConsumerProducer_CPP_API_test.hpp ****     }
 3319              		.loc 2 153 5
 3320 1124 130104F8 		addi	sp,s0,-128
 3321              		.cfi_remember_state
 3322              		.cfi_def_cfa 2, 128
 3323 1128 83308107 		ld	ra,120(sp)
 3324              		.cfi_restore 1
 3325 112c 03340107 		ld	s0,112(sp)
 3326              		.cfi_restore 8
 3327 1130 83348106 		ld	s1,104(sp)
 3328              		.cfi_restore 9
 3329 1134 03390106 		ld	s2,96(sp)
 3330              		.cfi_restore 18
 3331 1138 83398105 		ld	s3,88(sp)
 3332              		.cfi_restore 19
 3333              	.LVL383:
 3334 113c 033A0105 		ld	s4,80(sp)
 3335              		.cfi_restore 20
 3336 1140 833A8104 		ld	s5,72(sp)
 3337              		.cfi_restore 21
 3338 1144 033B0104 		ld	s6,64(sp)
 3339              		.cfi_restore 22
 3340 1148 833B8103 		ld	s7,56(sp)
 3341              		.cfi_restore 23
 3342 114c 033C0103 		ld	s8,48(sp)
 3343              		.cfi_restore 24
 3344 1150 833C8102 		ld	s9,40(sp)
 3345              		.cfi_restore 25
 3346 1154 13010108 		addi	sp,sp,128
 3347              		.cfi_def_cfa_offset 0
 3348 1158 67800000 		jr	ra
 3349              	.LVL384:
 3350              	.L177:
 3351              		.cfi_restore_state
 3352 115c 93040500 		mv	s1,a0
 3353              	.LVL385:
 113:tests/ConsumerProducer_CPP_API_test.hpp **** 
 3354              		.loc 2 113 44
 3355 1160 13850A00 		mv	a0,s5
 3356 1164 97000000 		call	_ZdlPv@plt
 3356      E7800000 
 3357              	.LVL386:
 3358 116c 13850400 		mv	a0,s1
 3359              	.LEHB27:
 3360 1170 97000000 		call	_Unwind_Resume@plt
 3360      E7800000 
 3361              	.LVL387:
 3362              	.LEHE27:
 3363              	.L178:
 3364 1178 13090500 		mv	s2,a0
 115:tests/ConsumerProducer_CPP_API_test.hpp ****         Thread *producers[threadNum];
 3365              		.loc 2 115 37
 3366 117c 13850400 		mv	a0,s1
 3367 1180 97000000 		call	_ZdlPv@plt
GAS LISTING /tmp/cc4XBM2x.s 			page 81


 3367      E7800000 
 3368              	.LVL388:
 3369 1188 13050900 		mv	a0,s2
 3370              	.LEHB28:
 3371 118c 97000000 		call	_Unwind_Resume@plt
 3371      E7800000 
 3372              	.LVL389:
 3373              	.LEHE28:
 3374              	.L179:
 3375 1194 93040500 		mv	s1,a0
 3376              	.LVL390:
 122:tests/ConsumerProducer_CPP_API_test.hpp ****         consumer->start();
 3377              		.loc 2 122 63
 3378 1198 13850B00 		mv	a0,s7
 3379 119c 97000000 		call	_ZdlPv@plt
 3379      E7800000 
 3380              	.LVL391:
 3381 11a4 13850400 		mv	a0,s1
 3382              	.LEHB29:
 3383 11a8 97000000 		call	_Unwind_Resume@plt
 3383      E7800000 
 3384              	.LVL392:
 3385              	.LEHE29:
 3386              	.L180:
 3387 11b0 13090500 		mv	s2,a0
 128:tests/ConsumerProducer_CPP_API_test.hpp ****         producers[0]->start();
 3388              		.loc 2 128 59
 3389 11b4 13850400 		mv	a0,s1
 3390 11b8 97000000 		call	_ZdlPv@plt
 3390      E7800000 
 3391              	.LVL393:
 3392 11c0 13050900 		mv	a0,s2
 3393              	.LEHB30:
 3394 11c4 97000000 		call	_Unwind_Resume@plt
 3394      E7800000 
 3395              	.LVL394:
 3396              	.LEHE30:
 3397              	.L181:
 3398 11cc 93040500 		mv	s1,a0
 3399              	.LVL395:
 3400              	.LBB110:
 136:tests/ConsumerProducer_CPP_API_test.hpp ****             producers[i]->start();
 3401              		.loc 2 136 55
 3402 11d0 13850C00 		mv	a0,s9
 3403 11d4 97000000 		call	_ZdlPv@plt
 3403      E7800000 
 3404              	.LVL396:
 3405 11dc 13850400 		mv	a0,s1
 3406              	.LEHB31:
 3407 11e0 97000000 		call	_Unwind_Resume@plt
 3407      E7800000 
 3408              	.LVL397:
 3409              	.LEHE31:
 3410              	.LBE110:
 3411              		.cfi_endproc
 3412              	.LFE50:
 3413              		.section	.gcc_except_table
GAS LISTING /tmp/cc4XBM2x.s 			page 82


 3414              	.LLSDA50:
 3415 00d5 FF       		.byte	0xff
 3416 00d6 FF       		.byte	0xff
 3417 00d7 03       		.byte	0x3
 3418 00d8 D001     		.byte	0xd0,0x1
 3419 00da 00000000 		.4byte	.LEHB16-.LFB50
 3420 00de 00000000 		.4byte	.LEHE16-.LEHB16
 3421 00e2 00000000 		.4byte	0
 3422 00e6 00       		.byte	0
 3423 00e7 00000000 		.4byte	.LEHB17-.LFB50
 3424 00eb 00000000 		.4byte	.LEHE17-.LEHB17
 3425 00ef 00000000 		.4byte	.L177-.LFB50
 3426 00f3 00       		.byte	0
 3427 00f4 00000000 		.4byte	.LEHB18-.LFB50
 3428 00f8 00000000 		.4byte	.LEHE18-.LEHB18
 3429 00fc 00000000 		.4byte	0
 3430 0100 00       		.byte	0
 3431 0101 00000000 		.4byte	.LEHB19-.LFB50
 3432 0105 00000000 		.4byte	.LEHE19-.LEHB19
 3433 0109 00000000 		.4byte	.L178-.LFB50
 3434 010d 00       		.byte	0
 3435 010e 00000000 		.4byte	.LEHB20-.LFB50
 3436 0112 00000000 		.4byte	.LEHE20-.LEHB20
 3437 0116 00000000 		.4byte	0
 3438 011a 00       		.byte	0
 3439 011b 00000000 		.4byte	.LEHB21-.LFB50
 3440 011f 00000000 		.4byte	.LEHE21-.LEHB21
 3441 0123 00000000 		.4byte	.L179-.LFB50
 3442 0127 00       		.byte	0
 3443 0128 00000000 		.4byte	.LEHB22-.LFB50
 3444 012c 00000000 		.4byte	.LEHE22-.LEHB22
 3445 0130 00000000 		.4byte	0
 3446 0134 00       		.byte	0
 3447 0135 00000000 		.4byte	.LEHB23-.LFB50
 3448 0139 00000000 		.4byte	.LEHE23-.LEHB23
 3449 013d 00000000 		.4byte	.L180-.LFB50
 3450 0141 00       		.byte	0
 3451 0142 00000000 		.4byte	.LEHB24-.LFB50
 3452 0146 00000000 		.4byte	.LEHE24-.LEHB24
 3453 014a 00000000 		.4byte	0
 3454 014e 00       		.byte	0
 3455 014f 00000000 		.4byte	.LEHB25-.LFB50
 3456 0153 00000000 		.4byte	.LEHE25-.LEHB25
 3457 0157 00000000 		.4byte	.L181-.LFB50
 3458 015b 00       		.byte	0
 3459 015c 00000000 		.4byte	.LEHB26-.LFB50
 3460 0160 00000000 		.4byte	.LEHE26-.LEHB26
 3461 0164 00000000 		.4byte	0
 3462 0168 00       		.byte	0
 3463 0169 00000000 		.4byte	.LEHB27-.LFB50
 3464 016d 00000000 		.4byte	.LEHE27-.LEHB27
 3465 0171 00000000 		.4byte	0
 3466 0175 00       		.byte	0
 3467 0176 00000000 		.4byte	.LEHB28-.LFB50
 3468 017a 00000000 		.4byte	.LEHE28-.LEHB28
 3469 017e 00000000 		.4byte	0
 3470 0182 00       		.byte	0
GAS LISTING /tmp/cc4XBM2x.s 			page 83


 3471 0183 00000000 		.4byte	.LEHB29-.LFB50
 3472 0187 00000000 		.4byte	.LEHE29-.LEHB29
 3473 018b 00000000 		.4byte	0
 3474 018f 00       		.byte	0
 3475 0190 00000000 		.4byte	.LEHB30-.LFB50
 3476 0194 00000000 		.4byte	.LEHE30-.LEHB30
 3477 0198 00000000 		.4byte	0
 3478 019c 00       		.byte	0
 3479 019d 00000000 		.4byte	.LEHB31-.LFB50
 3480 01a1 00000000 		.4byte	.LEHE31-.LEHB31
 3481 01a5 00000000 		.4byte	0
 3482 01a9 00       		.byte	0
 3483              		.text
 3485              		.align	2
 3486              		.globl	_Z8userMainv
 3488              	_Z8userMainv:
 3489              	.LFB51:
 3490              		.file 5 "tests/userMain.cpp"
   1:tests/userMain.cpp **** #include "Threads_C_API_test.hpp" // zadatak 2, niti C API i sinhrona promena konteksta
   2:tests/userMain.cpp **** //#include "Threads_CPP_API_test.hpp" // zadatak 2., niti CPP API i sinhrona promena konteksta
   3:tests/userMain.cpp **** //
   4:tests/userMain.cpp **** //#include "ConsumerProducer_C_API_test.h" // zadatak 3., kompletan C API sa semaforima, sinhrona p
   5:tests/userMain.cpp **** #include "ConsumerProducer_CPP_Sync_API_test.hpp" // zadatak 3., kompletan CPP API sa semaforima, s
   6:tests/userMain.cpp **** 
   7:tests/userMain.cpp **** #include "ThreadSleep_C_API_test.hpp" // thread_sleep test C API
   8:tests/userMain.cpp **** #include "ConsumerProducer_CPP_API_test.hpp" // zadatak 4. CPP API i asinhrona promena konteksta
   9:tests/userMain.cpp **** 
  10:tests/userMain.cpp **** 
  11:tests/userMain.cpp **** void userMain() {
 3491              		.loc 5 11 17 is_stmt 1
 3492              		.cfi_startproc
 3493 11e8 130101FF 		addi	sp,sp,-16
 3494              		.cfi_def_cfa_offset 16
 3495 11ec 23341100 		sd	ra,8(sp)
 3496 11f0 23308100 		sd	s0,0(sp)
 3497              		.cfi_offset 1, -8
 3498              		.cfi_offset 8, -16
 3499 11f4 13040101 		addi	s0,sp,16
 3500              		.cfi_def_cfa 8, 0
  12:tests/userMain.cpp ****     Threads_C_API_test(); // zadatak 2., niti C API i sinhrona promena konteksta
 3501              		.loc 5 12 5
 3502              		.loc 5 12 23 is_stmt 0
 3503 11f8 97000000 		call	_Z18Threads_C_API_testv
 3503      E7800000 
 3504              	.LVL398:
  13:tests/userMain.cpp **** //    Threads_CPP_API_test(); // zadatak 2., niti CPP API i sinhrona promena konteksta
  14:tests/userMain.cpp **** 
  15:tests/userMain.cpp **** //    producerConsumer_C_API(); // zadatak 3., kompletan C API sa semaforima, sinhrona promena kont
  16:tests/userMain.cpp **** //    producerConsumer_CPP_Sync_API(); // zadatak 3., kompletan CPP API sa semaforima, sinhrona pro
  17:tests/userMain.cpp **** 
  18:tests/userMain.cpp **** //    testSleeping(); // thread_sleep test C API
  19:tests/userMain.cpp **** //    ConsumerProducerCPP::testConsumerProducer(); // zadatak 4. CPP API i asinhrona promena kontek
  20:tests/userMain.cpp **** 
  21:tests/userMain.cpp **** }...
 3505              		.loc 5 21 1
 3506 1200 83308100 		ld	ra,8(sp)
 3507              		.cfi_restore 1
GAS LISTING /tmp/cc4XBM2x.s 			page 84


 3508 1204 03340100 		ld	s0,0(sp)
 3509              		.cfi_restore 8
 3510              		.cfi_def_cfa 2, 16
 3511 1208 13010101 		addi	sp,sp,16
 3512              		.cfi_def_cfa_offset 0
 3513 120c 67800000 		jr	ra
 3514              		.cfi_endproc
 3515              	.LFE51:
 3517              		.weak	_ZTV16ProducerKeyboard
 3518              		.section	.data.rel.ro.local._ZTV16ProducerKeyboard,"awG",@progbits,_ZTV16ProducerKeyboard,comdat
 3519              		.align	3
 3522              	_ZTV16ProducerKeyboard:
 3523 0000 00000000 		.dword	0
 3523      00000000 
 3524 0008 00000000 		.dword	0
 3524      00000000 
 3525 0010 00000000 		.dword	_ZN16ProducerKeyboardD1Ev
 3525      00000000 
 3526 0018 00000000 		.dword	_ZN16ProducerKeyboardD0Ev
 3526      00000000 
 3527 0020 00000000 		.dword	_ZN16ProducerKeyboard3runEv
 3527      00000000 
 3528              		.weak	_ZTV8Producer
 3529              		.section	.data.rel.ro.local._ZTV8Producer,"awG",@progbits,_ZTV8Producer,comdat
 3530              		.align	3
 3533              	_ZTV8Producer:
 3534 0000 00000000 		.dword	0
 3534      00000000 
 3535 0008 00000000 		.dword	0
 3535      00000000 
 3536 0010 00000000 		.dword	_ZN8ProducerD1Ev
 3536      00000000 
 3537 0018 00000000 		.dword	_ZN8ProducerD0Ev
 3537      00000000 
 3538 0020 00000000 		.dword	_ZN8Producer3runEv
 3538      00000000 
 3539              		.weak	_ZTV8Consumer
 3540              		.section	.data.rel.ro.local._ZTV8Consumer,"awG",@progbits,_ZTV8Consumer,comdat
 3541              		.align	3
 3544              	_ZTV8Consumer:
 3545 0000 00000000 		.dword	0
 3545      00000000 
 3546 0008 00000000 		.dword	0
 3546      00000000 
 3547 0010 00000000 		.dword	_ZN8ConsumerD1Ev
 3547      00000000 
 3548 0018 00000000 		.dword	_ZN8ConsumerD0Ev
 3548      00000000 
 3549 0020 00000000 		.dword	_ZN8Consumer3runEv
 3549      00000000 
 3550              		.weak	_ZTVN19ConsumerProducerCPP16ProducerKeyboradE
 3551              		.section	.data.rel.ro.local._ZTVN19ConsumerProducerCPP16ProducerKeyboradE,"awG",@progbits,_ZTVN19C
 3552              		.align	3
 3555              	_ZTVN19ConsumerProducerCPP16ProducerKeyboradE:
 3556 0000 00000000 		.dword	0
 3556      00000000 
 3557 0008 00000000 		.dword	0
GAS LISTING /tmp/cc4XBM2x.s 			page 85


 3557      00000000 
 3558 0010 00000000 		.dword	_ZN19ConsumerProducerCPP16ProducerKeyboradD1Ev
 3558      00000000 
 3559 0018 00000000 		.dword	_ZN19ConsumerProducerCPP16ProducerKeyboradD0Ev
 3559      00000000 
 3560 0020 00000000 		.dword	_ZN19ConsumerProducerCPP16ProducerKeyborad3runEv
 3560      00000000 
 3561              		.weak	_ZTVN19ConsumerProducerCPP8ProducerE
 3562              		.section	.data.rel.ro.local._ZTVN19ConsumerProducerCPP8ProducerE,"awG",@progbits,_ZTVN19ConsumerPr
 3563              		.align	3
 3566              	_ZTVN19ConsumerProducerCPP8ProducerE:
 3567 0000 00000000 		.dword	0
 3567      00000000 
 3568 0008 00000000 		.dword	0
 3568      00000000 
 3569 0010 00000000 		.dword	_ZN19ConsumerProducerCPP8ProducerD1Ev
 3569      00000000 
 3570 0018 00000000 		.dword	_ZN19ConsumerProducerCPP8ProducerD0Ev
 3570      00000000 
 3571 0020 00000000 		.dword	_ZN19ConsumerProducerCPP8Producer3runEv
 3571      00000000 
 3572              		.weak	_ZTVN19ConsumerProducerCPP8ConsumerE
 3573              		.section	.data.rel.ro.local._ZTVN19ConsumerProducerCPP8ConsumerE,"awG",@progbits,_ZTVN19ConsumerPr
 3574              		.align	3
 3577              	_ZTVN19ConsumerProducerCPP8ConsumerE:
 3578 0000 00000000 		.dword	0
 3578      00000000 
 3579 0008 00000000 		.dword	0
 3579      00000000 
 3580 0010 00000000 		.dword	_ZN19ConsumerProducerCPP8ConsumerD1Ev
 3580      00000000 
 3581 0018 00000000 		.dword	_ZN19ConsumerProducerCPP8ConsumerD0Ev
 3581      00000000 
 3582 0020 00000000 		.dword	_ZN19ConsumerProducerCPP8Consumer3runEv
 3582      00000000 
 3583              		.globl	_ZN19ConsumerProducerCPP9threadEndE
 3584              		.globl	_ZN19ConsumerProducerCPP10waitForAllE
 3585              		.globl	finished
 3586              		.globl	threadEnd
 3587              		.globl	waitForAll
 3588              		.globl	finishedD
 3589              		.globl	finishedC
 3590              		.globl	finishedB
 3591              		.globl	finishedA
 3592              		.bss
 3593              		.align	3
 3594              		.set	.LANCHOR0,. + 0
 3597              	finishedA:
 3598 0000 00       		.zero	1
 3601              	finishedB:
 3602 0001 00       		.zero	1
 3603 0002 0000     		.zero	2
 3606              	_ZN19ConsumerProducerCPP9threadEndE:
 3607 0004 00000000 		.zero	4
 3610              	finished:
 3611 0008 0000     		.zero	2
 3614              	finishedC:
GAS LISTING /tmp/cc4XBM2x.s 			page 86


 3615 000a 00       		.zero	1
 3618              	finishedD:
 3619 000b 00       		.zero	1
 3622              	threadEnd:
 3623 000c 00000000 		.zero	4
 3626              	waitForAll:
 3627 0010 00000000 		.zero	8
 3627      00000000 
 3630              	_ZN19ConsumerProducerCPP10waitForAllE:
 3631 0018 00000000 		.zero	8
 3631      00000000 
 3632              		.text
 3633              	.Letext0:
 3634              		.file 6 "tests/../h/../lib/hw.h"
 3635              		.file 7 "tests/../h/../h/_thread.hpp"
 3636              		.file 8 "tests/../h/syscall_cpp.hpp"
 3637              		.file 9 "tests/buffer_CPP_API.hpp"
 3638              		.file 10 "tests/../h/printing.hpp"
 3639              		.file 11 "tests/../h/syscall_c.h"
 11542              		.align	3
 11545              	DW.ref.__gxx_personality_v0:
 11546 0000 00000000 		.dword	__gxx_personality_v0
 11546      00000000 
 11547              		.ident	"GCC: (Ubuntu 9.3.0-17ubuntu1~20.04) 9.3.0"
 11548              		.section	.note.GNU-stack,"",@progbits
GAS LISTING /tmp/cc4XBM2x.s 			page 87


DEFINED SYMBOLS
                            *ABS*:0000000000000000 userMain.cpp
     /tmp/cc4XBM2x.s:20     .text:0000000000000000 _Z11workerBodyAPv
     /tmp/cc4XBM2x.s:24     .text:0000000000000000 .L0 
     /tmp/cc4XBM2x.s:26     .text:0000000000000000 .L0 
     /tmp/cc4XBM2x.s:27     .text:0000000000000004 .L0 
     /tmp/cc4XBM2x.s:32     .text:0000000000000014 .L0 
     /tmp/cc4XBM2x.s:33     .text:0000000000000014 .L0 
     /tmp/cc4XBM2x.s:34     .text:0000000000000014 .L0 
     /tmp/cc4XBM2x.s:35     .text:0000000000000014 .L0 
     /tmp/cc4XBM2x.s:37     .text:0000000000000018 .L0 
     /tmp/cc4XBM2x.s:41     .text:0000000000000018 .L0 
     /tmp/cc4XBM2x.s:42     .text:0000000000000018 .L0 
     /tmp/cc4XBM2x.s:50     .text:0000000000000020 .L0 
     /tmp/cc4XBM2x.s:51     .text:0000000000000020 .L0 
     /tmp/cc4XBM2x.s:55     .text:0000000000000028 .L0 
     /tmp/cc4XBM2x.s:59     .text:000000000000002c .L0 
     /tmp/cc4XBM2x.s:65     .text:0000000000000038 .L0 
     /tmp/cc4XBM2x.s:69     .text:000000000000003c .L0 
     /tmp/cc4XBM2x.s:73     .text:0000000000000048 .L0 
     /tmp/cc4XBM2x.s:83     .text:0000000000000050 .L0 
     /tmp/cc4XBM2x.s:87     .text:0000000000000054 .L0 
     /tmp/cc4XBM2x.s:91     .text:000000000000005c .L0 
     /tmp/cc4XBM2x.s:92     .text:000000000000005c .L0 
     /tmp/cc4XBM2x.s:96     .text:000000000000006c .L0 
     /tmp/cc4XBM2x.s:97     .text:000000000000006c .L0 
     /tmp/cc4XBM2x.s:103    .text:0000000000000080 .L0 
     /tmp/cc4XBM2x.s:104    .text:0000000000000080 .L0 
     /tmp/cc4XBM2x.s:109    .text:0000000000000090 .L0 
     /tmp/cc4XBM2x.s:110    .text:0000000000000090 .L0 
     /tmp/cc4XBM2x.s:118    .text:0000000000000098 .L0 
     /tmp/cc4XBM2x.s:119    .text:0000000000000098 .L0 
     /tmp/cc4XBM2x.s:123    .text:00000000000000a8 .L0 
     /tmp/cc4XBM2x.s:124    .text:00000000000000a8 .L0 
     /tmp/cc4XBM2x.s:127    .text:00000000000000b4 .L0 
     /tmp/cc4XBM2x.s:128    .text:00000000000000b8 .L0 
     /tmp/cc4XBM2x.s:130    .text:00000000000000bc .L0 
     /tmp/cc4XBM2x.s:131    .text:00000000000000bc .L0 
     /tmp/cc4XBM2x.s:133    .text:00000000000000c0 .L0 
     /tmp/cc4XBM2x.s:135    .text:00000000000000c4 .L0 
     /tmp/cc4XBM2x.s:138    .text:00000000000000c8 .L0 
     /tmp/cc4XBM2x.s:140    .text:00000000000000cc .L0 
     /tmp/cc4XBM2x.s:154    .text:00000000000000cc _Z11workerBodyBPv
     /tmp/cc4XBM2x.s:157    .text:00000000000000cc .L0 
     /tmp/cc4XBM2x.s:159    .text:00000000000000cc .L0 
     /tmp/cc4XBM2x.s:160    .text:00000000000000d0 .L0 
     /tmp/cc4XBM2x.s:165    .text:00000000000000e0 .L0 
     /tmp/cc4XBM2x.s:166    .text:00000000000000e0 .L0 
     /tmp/cc4XBM2x.s:167    .text:00000000000000e0 .L0 
     /tmp/cc4XBM2x.s:168    .text:00000000000000e0 .L0 
     /tmp/cc4XBM2x.s:170    .text:00000000000000e4 .L0 
     /tmp/cc4XBM2x.s:174    .text:00000000000000e4 .L0 
     /tmp/cc4XBM2x.s:175    .text:00000000000000e4 .L0 
     /tmp/cc4XBM2x.s:183    .text:00000000000000ec .L0 
     /tmp/cc4XBM2x.s:184    .text:00000000000000ec .L0 
     /tmp/cc4XBM2x.s:188    .text:00000000000000f4 .L0 
     /tmp/cc4XBM2x.s:192    .text:00000000000000f8 .L0 
GAS LISTING /tmp/cc4XBM2x.s 			page 88


     /tmp/cc4XBM2x.s:198    .text:0000000000000104 .L0 
     /tmp/cc4XBM2x.s:202    .text:0000000000000108 .L0 
     /tmp/cc4XBM2x.s:206    .text:0000000000000114 .L0 
     /tmp/cc4XBM2x.s:216    .text:000000000000011c .L0 
     /tmp/cc4XBM2x.s:220    .text:0000000000000120 .L0 
     /tmp/cc4XBM2x.s:224    .text:0000000000000128 .L0 
     /tmp/cc4XBM2x.s:225    .text:0000000000000128 .L0 
     /tmp/cc4XBM2x.s:229    .text:0000000000000138 .L0 
     /tmp/cc4XBM2x.s:230    .text:0000000000000138 .L0 
     /tmp/cc4XBM2x.s:236    .text:000000000000014c .L0 
     /tmp/cc4XBM2x.s:237    .text:000000000000014c .L0 
     /tmp/cc4XBM2x.s:242    .text:000000000000015c .L0 
     /tmp/cc4XBM2x.s:243    .text:000000000000015c .L0 
     /tmp/cc4XBM2x.s:251    .text:0000000000000164 .L0 
     /tmp/cc4XBM2x.s:252    .text:0000000000000164 .L0 
     /tmp/cc4XBM2x.s:256    .text:0000000000000174 .L0 
     /tmp/cc4XBM2x.s:257    .text:0000000000000174 .L0 
     /tmp/cc4XBM2x.s:260    .text:0000000000000180 .L0 
     /tmp/cc4XBM2x.s:261    .text:0000000000000180 .L0 
     /tmp/cc4XBM2x.s:264    .text:0000000000000188 .L0 
     /tmp/cc4XBM2x.s:265    .text:000000000000018c .L0 
     /tmp/cc4XBM2x.s:267    .text:0000000000000190 .L0 
     /tmp/cc4XBM2x.s:268    .text:0000000000000190 .L0 
     /tmp/cc4XBM2x.s:270    .text:0000000000000194 .L0 
     /tmp/cc4XBM2x.s:272    .text:0000000000000198 .L0 
     /tmp/cc4XBM2x.s:275    .text:000000000000019c .L0 
     /tmp/cc4XBM2x.s:277    .text:00000000000001a0 .L0 
     /tmp/cc4XBM2x.s:284    .text._ZN19ConsumerProducerCPP16ProducerKeyborad3runEv:0000000000000000 _ZN19ConsumerProducerCPP16ProducerKeyborad3runEv
     /tmp/cc4XBM2x.s:288    .text._ZN19ConsumerProducerCPP16ProducerKeyborad3runEv:0000000000000000 .L0 
     /tmp/cc4XBM2x.s:290    .text._ZN19ConsumerProducerCPP16ProducerKeyborad3runEv:0000000000000000 .L0 
     /tmp/cc4XBM2x.s:291    .text._ZN19ConsumerProducerCPP16ProducerKeyborad3runEv:0000000000000004 .L0 
     /tmp/cc4XBM2x.s:295    .text._ZN19ConsumerProducerCPP16ProducerKeyborad3runEv:0000000000000010 .L0 
     /tmp/cc4XBM2x.s:296    .text._ZN19ConsumerProducerCPP16ProducerKeyborad3runEv:0000000000000010 .L0 
     /tmp/cc4XBM2x.s:297    .text._ZN19ConsumerProducerCPP16ProducerKeyborad3runEv:0000000000000010 .L0 
     /tmp/cc4XBM2x.s:299    .text._ZN19ConsumerProducerCPP16ProducerKeyborad3runEv:0000000000000014 .L0 
     /tmp/cc4XBM2x.s:302    .text._ZN19ConsumerProducerCPP16ProducerKeyborad3runEv:0000000000000018 .L0 
     /tmp/cc4XBM2x.s:305    .text._ZN19ConsumerProducerCPP16ProducerKeyborad3runEv:0000000000000018 .L0 
     /tmp/cc4XBM2x.s:306    .text._ZN19ConsumerProducerCPP16ProducerKeyborad3runEv:0000000000000018 .L0 
     /tmp/cc4XBM2x.s:307    .text._ZN19ConsumerProducerCPP16ProducerKeyborad3runEv:0000000000000018 .L0 
     /tmp/cc4XBM2x.s:308    .text._ZN19ConsumerProducerCPP16ProducerKeyborad3runEv:0000000000000018 .L0 
     /tmp/cc4XBM2x.s:311    .text._ZN19ConsumerProducerCPP16ProducerKeyborad3runEv:0000000000000020 .L0 
     /tmp/cc4XBM2x.s:314    .text._ZN19ConsumerProducerCPP16ProducerKeyborad3runEv:0000000000000024 .L0 
     /tmp/cc4XBM2x.s:317    .text._ZN19ConsumerProducerCPP16ProducerKeyborad3runEv:000000000000002c .L0 
     /tmp/cc4XBM2x.s:319    .text._ZN19ConsumerProducerCPP16ProducerKeyborad3runEv:0000000000000030 .L0 
     /tmp/cc4XBM2x.s:323    .text._ZN19ConsumerProducerCPP16ProducerKeyborad3runEv:000000000000003c .L0 
     /tmp/cc4XBM2x.s:324    .text._ZN19ConsumerProducerCPP16ProducerKeyborad3runEv:000000000000003c .L0 
     /tmp/cc4XBM2x.s:328    .text._ZN19ConsumerProducerCPP16ProducerKeyborad3runEv:0000000000000040 .L0 
     /tmp/cc4XBM2x.s:329    .text._ZN19ConsumerProducerCPP16ProducerKeyborad3runEv:0000000000000040 .L0 
     /tmp/cc4XBM2x.s:332    .text._ZN19ConsumerProducerCPP16ProducerKeyborad3runEv:000000000000004c .L0 
     /tmp/cc4XBM2x.s:334    .text._ZN19ConsumerProducerCPP16ProducerKeyborad3runEv:0000000000000050 .L0 
     /tmp/cc4XBM2x.s:341    .text._ZN19ConsumerProducerCPP16ProducerKeyborad3runEv:0000000000000060 .L0 
     /tmp/cc4XBM2x.s:343    .text._ZN19ConsumerProducerCPP16ProducerKeyborad3runEv:0000000000000064 .L0 
     /tmp/cc4XBM2x.s:347    .text._ZN19ConsumerProducerCPP16ProducerKeyborad3runEv:0000000000000070 .L0 
     /tmp/cc4XBM2x.s:348    .text._ZN19ConsumerProducerCPP16ProducerKeyborad3runEv:0000000000000074 .L0 
     /tmp/cc4XBM2x.s:350    .text._ZN19ConsumerProducerCPP16ProducerKeyborad3runEv:0000000000000078 .L0 
     /tmp/cc4XBM2x.s:351    .text._ZN19ConsumerProducerCPP16ProducerKeyborad3runEv:0000000000000078 .L0 
     /tmp/cc4XBM2x.s:353    .text._ZN19ConsumerProducerCPP16ProducerKeyborad3runEv:000000000000007c .L0 
GAS LISTING /tmp/cc4XBM2x.s 			page 89


     /tmp/cc4XBM2x.s:356    .text._ZN19ConsumerProducerCPP16ProducerKeyborad3runEv:0000000000000080 .L0 
     /tmp/cc4XBM2x.s:358    .text._ZN19ConsumerProducerCPP16ProducerKeyborad3runEv:0000000000000084 .L0 
     /tmp/cc4XBM2x.s:365    .text._ZN19ConsumerProducerCPP8Consumer3runEv:0000000000000000 _ZN19ConsumerProducerCPP8Consumer3runEv
     /tmp/cc4XBM2x.s:368    .text._ZN19ConsumerProducerCPP8Consumer3runEv:0000000000000000 .L0 
     /tmp/cc4XBM2x.s:370    .text._ZN19ConsumerProducerCPP8Consumer3runEv:0000000000000000 .L0 
     /tmp/cc4XBM2x.s:371    .text._ZN19ConsumerProducerCPP8Consumer3runEv:0000000000000004 .L0 
     /tmp/cc4XBM2x.s:377    .text._ZN19ConsumerProducerCPP8Consumer3runEv:0000000000000018 .L0 
     /tmp/cc4XBM2x.s:378    .text._ZN19ConsumerProducerCPP8Consumer3runEv:0000000000000018 .L0 
     /tmp/cc4XBM2x.s:379    .text._ZN19ConsumerProducerCPP8Consumer3runEv:0000000000000018 .L0 
     /tmp/cc4XBM2x.s:380    .text._ZN19ConsumerProducerCPP8Consumer3runEv:0000000000000018 .L0 
     /tmp/cc4XBM2x.s:381    .text._ZN19ConsumerProducerCPP8Consumer3runEv:0000000000000018 .L0 
     /tmp/cc4XBM2x.s:383    .text._ZN19ConsumerProducerCPP8Consumer3runEv:000000000000001c .L0 
     /tmp/cc4XBM2x.s:387    .text._ZN19ConsumerProducerCPP8Consumer3runEv:0000000000000020 .L0 
     /tmp/cc4XBM2x.s:388    .text._ZN19ConsumerProducerCPP8Consumer3runEv:0000000000000020 .L0 
     /tmp/cc4XBM2x.s:394    .text._ZN19ConsumerProducerCPP8Consumer3runEv:0000000000000028 .L0 
     /tmp/cc4XBM2x.s:395    .text._ZN19ConsumerProducerCPP8Consumer3runEv:0000000000000028 .L0 
     /tmp/cc4XBM2x.s:401    .text._ZN19ConsumerProducerCPP8Consumer3runEv:0000000000000034 .L0 
     /tmp/cc4XBM2x.s:402    .text._ZN19ConsumerProducerCPP8Consumer3runEv:0000000000000034 .L0 
     /tmp/cc4XBM2x.s:406    .text._ZN19ConsumerProducerCPP8Consumer3runEv:0000000000000040 .L0 
     /tmp/cc4XBM2x.s:407    .text._ZN19ConsumerProducerCPP8Consumer3runEv:0000000000000040 .L0 
     /tmp/cc4XBM2x.s:409    .text._ZN19ConsumerProducerCPP8Consumer3runEv:0000000000000044 .L0 
     /tmp/cc4XBM2x.s:413    .text._ZN19ConsumerProducerCPP8Consumer3runEv:0000000000000050 .L0 
     /tmp/cc4XBM2x.s:414    .text._ZN19ConsumerProducerCPP8Consumer3runEv:0000000000000050 .L0 
     /tmp/cc4XBM2x.s:418    .text._ZN19ConsumerProducerCPP8Consumer3runEv:0000000000000058 .L0 
     /tmp/cc4XBM2x.s:419    .text._ZN19ConsumerProducerCPP8Consumer3runEv:0000000000000058 .L0 
     /tmp/cc4XBM2x.s:424    .text._ZN19ConsumerProducerCPP8Consumer3runEv:0000000000000064 .L0 
     /tmp/cc4XBM2x.s:425    .text._ZN19ConsumerProducerCPP8Consumer3runEv:0000000000000064 .L0 
     /tmp/cc4XBM2x.s:429    .text._ZN19ConsumerProducerCPP8Consumer3runEv:000000000000006c .L0 
     /tmp/cc4XBM2x.s:435    .text._ZN19ConsumerProducerCPP8Consumer3runEv:0000000000000074 .L0 
     /tmp/cc4XBM2x.s:436    .text._ZN19ConsumerProducerCPP8Consumer3runEv:0000000000000074 .L0 
     /tmp/cc4XBM2x.s:438    .text._ZN19ConsumerProducerCPP8Consumer3runEv:0000000000000078 .L0 
     /tmp/cc4XBM2x.s:442    .text._ZN19ConsumerProducerCPP8Consumer3runEv:0000000000000084 .L0 
     /tmp/cc4XBM2x.s:443    .text._ZN19ConsumerProducerCPP8Consumer3runEv:0000000000000084 .L0 
     /tmp/cc4XBM2x.s:450    .text._ZN19ConsumerProducerCPP8Consumer3runEv:0000000000000090 .L0 
     /tmp/cc4XBM2x.s:451    .text._ZN19ConsumerProducerCPP8Consumer3runEv:0000000000000090 .L0 
     /tmp/cc4XBM2x.s:452    .text._ZN19ConsumerProducerCPP8Consumer3runEv:0000000000000090 .L0 
     /tmp/cc4XBM2x.s:454    .text._ZN19ConsumerProducerCPP8Consumer3runEv:0000000000000094 .L0 
     /tmp/cc4XBM2x.s:458    .text._ZN19ConsumerProducerCPP8Consumer3runEv:00000000000000a0 .L0 
     /tmp/cc4XBM2x.s:460    .text._ZN19ConsumerProducerCPP8Consumer3runEv:00000000000000a4 .L0 
     /tmp/cc4XBM2x.s:462    .text._ZN19ConsumerProducerCPP8Consumer3runEv:00000000000000a8 .L0 
     /tmp/cc4XBM2x.s:466    .text._ZN19ConsumerProducerCPP8Consumer3runEv:00000000000000b4 .L0 
     /tmp/cc4XBM2x.s:467    .text._ZN19ConsumerProducerCPP8Consumer3runEv:00000000000000b8 .L0 
     /tmp/cc4XBM2x.s:469    .text._ZN19ConsumerProducerCPP8Consumer3runEv:00000000000000bc .L0 
     /tmp/cc4XBM2x.s:470    .text._ZN19ConsumerProducerCPP8Consumer3runEv:00000000000000bc .L0 
     /tmp/cc4XBM2x.s:472    .text._ZN19ConsumerProducerCPP8Consumer3runEv:00000000000000c0 .L0 
     /tmp/cc4XBM2x.s:474    .text._ZN19ConsumerProducerCPP8Consumer3runEv:00000000000000c4 .L0 
     /tmp/cc4XBM2x.s:477    .text._ZN19ConsumerProducerCPP8Consumer3runEv:00000000000000c8 .L0 
     /tmp/cc4XBM2x.s:480    .text._ZN19ConsumerProducerCPP8Consumer3runEv:00000000000000cc .L0 
     /tmp/cc4XBM2x.s:482    .text._ZN19ConsumerProducerCPP8Consumer3runEv:00000000000000d0 .L0 
     /tmp/cc4XBM2x.s:489    .text._ZN8ConsumerD2Ev:0000000000000000 _ZN8ConsumerD2Ev
     /tmp/cc4XBM2x.s:493    .text._ZN8ConsumerD2Ev:0000000000000000 .L0 
     /tmp/cc4XBM2x.s:495    .text._ZN8ConsumerD2Ev:0000000000000000 .L0 
     /tmp/cc4XBM2x.s:496    .text._ZN8ConsumerD2Ev:0000000000000004 .L0 
     /tmp/cc4XBM2x.s:499    .text._ZN8ConsumerD2Ev:000000000000000c .L0 
     /tmp/cc4XBM2x.s:500    .text._ZN8ConsumerD2Ev:000000000000000c .L0 
     /tmp/cc4XBM2x.s:502    .text._ZN8ConsumerD2Ev:0000000000000010 .L0 
     /tmp/cc4XBM2x.s:3544   .data.rel.ro.local._ZTV8Consumer:0000000000000000 _ZTV8Consumer
GAS LISTING /tmp/cc4XBM2x.s 			page 90


     /tmp/cc4XBM2x.s:505    .text._ZN8ConsumerD2Ev:0000000000000010 .L0 
     /tmp/cc4XBM2x.s:511    .text._ZN8ConsumerD2Ev:0000000000000028 .L0 
     /tmp/cc4XBM2x.s:513    .text._ZN8ConsumerD2Ev:000000000000002c .L0 
     /tmp/cc4XBM2x.s:514    .text._ZN8ConsumerD2Ev:000000000000002c .L0 
     /tmp/cc4XBM2x.s:516    .text._ZN8ConsumerD2Ev:0000000000000030 .L0 
     /tmp/cc4XBM2x.s:518    .text._ZN8ConsumerD2Ev:0000000000000034 .L0 
     /tmp/cc4XBM2x.s:489    .text._ZN8ConsumerD2Ev:0000000000000000 _ZN8ConsumerD1Ev
     /tmp/cc4XBM2x.s:527    .text._ZN8ConsumerD0Ev:0000000000000000 _ZN8ConsumerD0Ev
     /tmp/cc4XBM2x.s:530    .text._ZN8ConsumerD0Ev:0000000000000000 .L0 
     /tmp/cc4XBM2x.s:532    .text._ZN8ConsumerD0Ev:0000000000000000 .L0 
     /tmp/cc4XBM2x.s:533    .text._ZN8ConsumerD0Ev:0000000000000004 .L0 
     /tmp/cc4XBM2x.s:537    .text._ZN8ConsumerD0Ev:0000000000000010 .L0 
     /tmp/cc4XBM2x.s:538    .text._ZN8ConsumerD0Ev:0000000000000010 .L0 
     /tmp/cc4XBM2x.s:539    .text._ZN8ConsumerD0Ev:0000000000000010 .L0 
     /tmp/cc4XBM2x.s:541    .text._ZN8ConsumerD0Ev:0000000000000014 .L0 
     /tmp/cc4XBM2x.s:547    .text._ZN8ConsumerD0Ev:0000000000000018 .L0 
     /tmp/cc4XBM2x.s:557    .text._ZN8ConsumerD0Ev:000000000000003c .L0 
     /tmp/cc4XBM2x.s:559    .text._ZN8ConsumerD0Ev:0000000000000040 .L0 
     /tmp/cc4XBM2x.s:560    .text._ZN8ConsumerD0Ev:0000000000000040 .L0 
     /tmp/cc4XBM2x.s:562    .text._ZN8ConsumerD0Ev:0000000000000044 .L0 
     /tmp/cc4XBM2x.s:565    .text._ZN8ConsumerD0Ev:0000000000000048 .L0 
     /tmp/cc4XBM2x.s:567    .text._ZN8ConsumerD0Ev:000000000000004c .L0 
     /tmp/cc4XBM2x.s:574    .text._ZN8ProducerD2Ev:0000000000000000 _ZN8ProducerD2Ev
     /tmp/cc4XBM2x.s:577    .text._ZN8ProducerD2Ev:0000000000000000 .L0 
     /tmp/cc4XBM2x.s:579    .text._ZN8ProducerD2Ev:0000000000000000 .L0 
     /tmp/cc4XBM2x.s:580    .text._ZN8ProducerD2Ev:0000000000000004 .L0 
     /tmp/cc4XBM2x.s:583    .text._ZN8ProducerD2Ev:000000000000000c .L0 
     /tmp/cc4XBM2x.s:584    .text._ZN8ProducerD2Ev:000000000000000c .L0 
     /tmp/cc4XBM2x.s:586    .text._ZN8ProducerD2Ev:0000000000000010 .L0 
     /tmp/cc4XBM2x.s:3533   .data.rel.ro.local._ZTV8Producer:0000000000000000 _ZTV8Producer
     /tmp/cc4XBM2x.s:589    .text._ZN8ProducerD2Ev:0000000000000010 .L0 
     /tmp/cc4XBM2x.s:595    .text._ZN8ProducerD2Ev:0000000000000028 .L0 
     /tmp/cc4XBM2x.s:597    .text._ZN8ProducerD2Ev:000000000000002c .L0 
     /tmp/cc4XBM2x.s:598    .text._ZN8ProducerD2Ev:000000000000002c .L0 
     /tmp/cc4XBM2x.s:600    .text._ZN8ProducerD2Ev:0000000000000030 .L0 
     /tmp/cc4XBM2x.s:602    .text._ZN8ProducerD2Ev:0000000000000034 .L0 
     /tmp/cc4XBM2x.s:574    .text._ZN8ProducerD2Ev:0000000000000000 _ZN8ProducerD1Ev
     /tmp/cc4XBM2x.s:611    .text._ZN8ProducerD0Ev:0000000000000000 _ZN8ProducerD0Ev
     /tmp/cc4XBM2x.s:614    .text._ZN8ProducerD0Ev:0000000000000000 .L0 
     /tmp/cc4XBM2x.s:616    .text._ZN8ProducerD0Ev:0000000000000000 .L0 
     /tmp/cc4XBM2x.s:617    .text._ZN8ProducerD0Ev:0000000000000004 .L0 
     /tmp/cc4XBM2x.s:621    .text._ZN8ProducerD0Ev:0000000000000010 .L0 
     /tmp/cc4XBM2x.s:622    .text._ZN8ProducerD0Ev:0000000000000010 .L0 
     /tmp/cc4XBM2x.s:623    .text._ZN8ProducerD0Ev:0000000000000010 .L0 
     /tmp/cc4XBM2x.s:625    .text._ZN8ProducerD0Ev:0000000000000014 .L0 
     /tmp/cc4XBM2x.s:631    .text._ZN8ProducerD0Ev:0000000000000018 .L0 
     /tmp/cc4XBM2x.s:641    .text._ZN8ProducerD0Ev:000000000000003c .L0 
     /tmp/cc4XBM2x.s:643    .text._ZN8ProducerD0Ev:0000000000000040 .L0 
     /tmp/cc4XBM2x.s:644    .text._ZN8ProducerD0Ev:0000000000000040 .L0 
     /tmp/cc4XBM2x.s:646    .text._ZN8ProducerD0Ev:0000000000000044 .L0 
     /tmp/cc4XBM2x.s:649    .text._ZN8ProducerD0Ev:0000000000000048 .L0 
     /tmp/cc4XBM2x.s:651    .text._ZN8ProducerD0Ev:000000000000004c .L0 
     /tmp/cc4XBM2x.s:658    .text._ZN16ProducerKeyboardD2Ev:0000000000000000 _ZN16ProducerKeyboardD2Ev
     /tmp/cc4XBM2x.s:661    .text._ZN16ProducerKeyboardD2Ev:0000000000000000 .L0 
     /tmp/cc4XBM2x.s:663    .text._ZN16ProducerKeyboardD2Ev:0000000000000000 .L0 
     /tmp/cc4XBM2x.s:664    .text._ZN16ProducerKeyboardD2Ev:0000000000000004 .L0 
     /tmp/cc4XBM2x.s:667    .text._ZN16ProducerKeyboardD2Ev:000000000000000c .L0 
GAS LISTING /tmp/cc4XBM2x.s 			page 91


     /tmp/cc4XBM2x.s:668    .text._ZN16ProducerKeyboardD2Ev:000000000000000c .L0 
     /tmp/cc4XBM2x.s:670    .text._ZN16ProducerKeyboardD2Ev:0000000000000010 .L0 
     /tmp/cc4XBM2x.s:3522   .data.rel.ro.local._ZTV16ProducerKeyboard:0000000000000000 _ZTV16ProducerKeyboard
     /tmp/cc4XBM2x.s:673    .text._ZN16ProducerKeyboardD2Ev:0000000000000010 .L0 
     /tmp/cc4XBM2x.s:679    .text._ZN16ProducerKeyboardD2Ev:0000000000000028 .L0 
     /tmp/cc4XBM2x.s:681    .text._ZN16ProducerKeyboardD2Ev:000000000000002c .L0 
     /tmp/cc4XBM2x.s:682    .text._ZN16ProducerKeyboardD2Ev:000000000000002c .L0 
     /tmp/cc4XBM2x.s:684    .text._ZN16ProducerKeyboardD2Ev:0000000000000030 .L0 
     /tmp/cc4XBM2x.s:686    .text._ZN16ProducerKeyboardD2Ev:0000000000000034 .L0 
     /tmp/cc4XBM2x.s:658    .text._ZN16ProducerKeyboardD2Ev:0000000000000000 _ZN16ProducerKeyboardD1Ev
     /tmp/cc4XBM2x.s:695    .text._ZN16ProducerKeyboardD0Ev:0000000000000000 _ZN16ProducerKeyboardD0Ev
     /tmp/cc4XBM2x.s:698    .text._ZN16ProducerKeyboardD0Ev:0000000000000000 .L0 
     /tmp/cc4XBM2x.s:700    .text._ZN16ProducerKeyboardD0Ev:0000000000000000 .L0 
     /tmp/cc4XBM2x.s:701    .text._ZN16ProducerKeyboardD0Ev:0000000000000004 .L0 
     /tmp/cc4XBM2x.s:705    .text._ZN16ProducerKeyboardD0Ev:0000000000000010 .L0 
     /tmp/cc4XBM2x.s:706    .text._ZN16ProducerKeyboardD0Ev:0000000000000010 .L0 
     /tmp/cc4XBM2x.s:707    .text._ZN16ProducerKeyboardD0Ev:0000000000000010 .L0 
     /tmp/cc4XBM2x.s:709    .text._ZN16ProducerKeyboardD0Ev:0000000000000014 .L0 
     /tmp/cc4XBM2x.s:715    .text._ZN16ProducerKeyboardD0Ev:0000000000000018 .L0 
     /tmp/cc4XBM2x.s:725    .text._ZN16ProducerKeyboardD0Ev:000000000000003c .L0 
     /tmp/cc4XBM2x.s:727    .text._ZN16ProducerKeyboardD0Ev:0000000000000040 .L0 
     /tmp/cc4XBM2x.s:728    .text._ZN16ProducerKeyboardD0Ev:0000000000000040 .L0 
     /tmp/cc4XBM2x.s:730    .text._ZN16ProducerKeyboardD0Ev:0000000000000044 .L0 
     /tmp/cc4XBM2x.s:733    .text._ZN16ProducerKeyboardD0Ev:0000000000000048 .L0 
     /tmp/cc4XBM2x.s:735    .text._ZN16ProducerKeyboardD0Ev:000000000000004c .L0 
     /tmp/cc4XBM2x.s:742    .text._ZN19ConsumerProducerCPP8ConsumerD2Ev:0000000000000000 _ZN19ConsumerProducerCPP8ConsumerD2Ev
     /tmp/cc4XBM2x.s:745    .text._ZN19ConsumerProducerCPP8ConsumerD2Ev:0000000000000000 .L0 
     /tmp/cc4XBM2x.s:747    .text._ZN19ConsumerProducerCPP8ConsumerD2Ev:0000000000000000 .L0 
     /tmp/cc4XBM2x.s:748    .text._ZN19ConsumerProducerCPP8ConsumerD2Ev:0000000000000004 .L0 
     /tmp/cc4XBM2x.s:751    .text._ZN19ConsumerProducerCPP8ConsumerD2Ev:000000000000000c .L0 
     /tmp/cc4XBM2x.s:752    .text._ZN19ConsumerProducerCPP8ConsumerD2Ev:000000000000000c .L0 
     /tmp/cc4XBM2x.s:754    .text._ZN19ConsumerProducerCPP8ConsumerD2Ev:0000000000000010 .L0 
     /tmp/cc4XBM2x.s:3577   .data.rel.ro.local._ZTVN19ConsumerProducerCPP8ConsumerE:0000000000000000 _ZTVN19ConsumerProducerCPP8ConsumerE
     /tmp/cc4XBM2x.s:757    .text._ZN19ConsumerProducerCPP8ConsumerD2Ev:0000000000000010 .L0 
     /tmp/cc4XBM2x.s:763    .text._ZN19ConsumerProducerCPP8ConsumerD2Ev:0000000000000028 .L0 
     /tmp/cc4XBM2x.s:765    .text._ZN19ConsumerProducerCPP8ConsumerD2Ev:000000000000002c .L0 
     /tmp/cc4XBM2x.s:766    .text._ZN19ConsumerProducerCPP8ConsumerD2Ev:000000000000002c .L0 
     /tmp/cc4XBM2x.s:768    .text._ZN19ConsumerProducerCPP8ConsumerD2Ev:0000000000000030 .L0 
     /tmp/cc4XBM2x.s:770    .text._ZN19ConsumerProducerCPP8ConsumerD2Ev:0000000000000034 .L0 
     /tmp/cc4XBM2x.s:742    .text._ZN19ConsumerProducerCPP8ConsumerD2Ev:0000000000000000 _ZN19ConsumerProducerCPP8ConsumerD1Ev
     /tmp/cc4XBM2x.s:779    .text._ZN19ConsumerProducerCPP8ConsumerD0Ev:0000000000000000 _ZN19ConsumerProducerCPP8ConsumerD0Ev
     /tmp/cc4XBM2x.s:782    .text._ZN19ConsumerProducerCPP8ConsumerD0Ev:0000000000000000 .L0 
     /tmp/cc4XBM2x.s:784    .text._ZN19ConsumerProducerCPP8ConsumerD0Ev:0000000000000000 .L0 
     /tmp/cc4XBM2x.s:785    .text._ZN19ConsumerProducerCPP8ConsumerD0Ev:0000000000000004 .L0 
     /tmp/cc4XBM2x.s:789    .text._ZN19ConsumerProducerCPP8ConsumerD0Ev:0000000000000010 .L0 
     /tmp/cc4XBM2x.s:790    .text._ZN19ConsumerProducerCPP8ConsumerD0Ev:0000000000000010 .L0 
     /tmp/cc4XBM2x.s:791    .text._ZN19ConsumerProducerCPP8ConsumerD0Ev:0000000000000010 .L0 
     /tmp/cc4XBM2x.s:793    .text._ZN19ConsumerProducerCPP8ConsumerD0Ev:0000000000000014 .L0 
     /tmp/cc4XBM2x.s:799    .text._ZN19ConsumerProducerCPP8ConsumerD0Ev:0000000000000018 .L0 
     /tmp/cc4XBM2x.s:809    .text._ZN19ConsumerProducerCPP8ConsumerD0Ev:000000000000003c .L0 
     /tmp/cc4XBM2x.s:811    .text._ZN19ConsumerProducerCPP8ConsumerD0Ev:0000000000000040 .L0 
     /tmp/cc4XBM2x.s:812    .text._ZN19ConsumerProducerCPP8ConsumerD0Ev:0000000000000040 .L0 
     /tmp/cc4XBM2x.s:814    .text._ZN19ConsumerProducerCPP8ConsumerD0Ev:0000000000000044 .L0 
     /tmp/cc4XBM2x.s:817    .text._ZN19ConsumerProducerCPP8ConsumerD0Ev:0000000000000048 .L0 
     /tmp/cc4XBM2x.s:819    .text._ZN19ConsumerProducerCPP8ConsumerD0Ev:000000000000004c .L0 
     /tmp/cc4XBM2x.s:826    .text._ZN19ConsumerProducerCPP16ProducerKeyboradD2Ev:0000000000000000 _ZN19ConsumerProducerCPP16ProducerKeyboradD2Ev
     /tmp/cc4XBM2x.s:829    .text._ZN19ConsumerProducerCPP16ProducerKeyboradD2Ev:0000000000000000 .L0 
GAS LISTING /tmp/cc4XBM2x.s 			page 92


     /tmp/cc4XBM2x.s:831    .text._ZN19ConsumerProducerCPP16ProducerKeyboradD2Ev:0000000000000000 .L0 
     /tmp/cc4XBM2x.s:832    .text._ZN19ConsumerProducerCPP16ProducerKeyboradD2Ev:0000000000000004 .L0 
     /tmp/cc4XBM2x.s:835    .text._ZN19ConsumerProducerCPP16ProducerKeyboradD2Ev:000000000000000c .L0 
     /tmp/cc4XBM2x.s:836    .text._ZN19ConsumerProducerCPP16ProducerKeyboradD2Ev:000000000000000c .L0 
     /tmp/cc4XBM2x.s:838    .text._ZN19ConsumerProducerCPP16ProducerKeyboradD2Ev:0000000000000010 .L0 
     /tmp/cc4XBM2x.s:3555   .data.rel.ro.local._ZTVN19ConsumerProducerCPP16ProducerKeyboradE:0000000000000000 _ZTVN19ConsumerProducerCPP16ProducerKeyboradE
     /tmp/cc4XBM2x.s:841    .text._ZN19ConsumerProducerCPP16ProducerKeyboradD2Ev:0000000000000010 .L0 
     /tmp/cc4XBM2x.s:847    .text._ZN19ConsumerProducerCPP16ProducerKeyboradD2Ev:0000000000000028 .L0 
     /tmp/cc4XBM2x.s:849    .text._ZN19ConsumerProducerCPP16ProducerKeyboradD2Ev:000000000000002c .L0 
     /tmp/cc4XBM2x.s:850    .text._ZN19ConsumerProducerCPP16ProducerKeyboradD2Ev:000000000000002c .L0 
     /tmp/cc4XBM2x.s:852    .text._ZN19ConsumerProducerCPP16ProducerKeyboradD2Ev:0000000000000030 .L0 
     /tmp/cc4XBM2x.s:854    .text._ZN19ConsumerProducerCPP16ProducerKeyboradD2Ev:0000000000000034 .L0 
     /tmp/cc4XBM2x.s:826    .text._ZN19ConsumerProducerCPP16ProducerKeyboradD2Ev:0000000000000000 _ZN19ConsumerProducerCPP16ProducerKeyboradD1Ev
     /tmp/cc4XBM2x.s:863    .text._ZN19ConsumerProducerCPP16ProducerKeyboradD0Ev:0000000000000000 _ZN19ConsumerProducerCPP16ProducerKeyboradD0Ev
     /tmp/cc4XBM2x.s:866    .text._ZN19ConsumerProducerCPP16ProducerKeyboradD0Ev:0000000000000000 .L0 
     /tmp/cc4XBM2x.s:868    .text._ZN19ConsumerProducerCPP16ProducerKeyboradD0Ev:0000000000000000 .L0 
     /tmp/cc4XBM2x.s:869    .text._ZN19ConsumerProducerCPP16ProducerKeyboradD0Ev:0000000000000004 .L0 
     /tmp/cc4XBM2x.s:873    .text._ZN19ConsumerProducerCPP16ProducerKeyboradD0Ev:0000000000000010 .L0 
     /tmp/cc4XBM2x.s:874    .text._ZN19ConsumerProducerCPP16ProducerKeyboradD0Ev:0000000000000010 .L0 
     /tmp/cc4XBM2x.s:875    .text._ZN19ConsumerProducerCPP16ProducerKeyboradD0Ev:0000000000000010 .L0 
     /tmp/cc4XBM2x.s:877    .text._ZN19ConsumerProducerCPP16ProducerKeyboradD0Ev:0000000000000014 .L0 
     /tmp/cc4XBM2x.s:883    .text._ZN19ConsumerProducerCPP16ProducerKeyboradD0Ev:0000000000000018 .L0 
     /tmp/cc4XBM2x.s:893    .text._ZN19ConsumerProducerCPP16ProducerKeyboradD0Ev:000000000000003c .L0 
     /tmp/cc4XBM2x.s:895    .text._ZN19ConsumerProducerCPP16ProducerKeyboradD0Ev:0000000000000040 .L0 
     /tmp/cc4XBM2x.s:896    .text._ZN19ConsumerProducerCPP16ProducerKeyboradD0Ev:0000000000000040 .L0 
     /tmp/cc4XBM2x.s:898    .text._ZN19ConsumerProducerCPP16ProducerKeyboradD0Ev:0000000000000044 .L0 
     /tmp/cc4XBM2x.s:901    .text._ZN19ConsumerProducerCPP16ProducerKeyboradD0Ev:0000000000000048 .L0 
     /tmp/cc4XBM2x.s:903    .text._ZN19ConsumerProducerCPP16ProducerKeyboradD0Ev:000000000000004c .L0 
     /tmp/cc4XBM2x.s:910    .text._ZN19ConsumerProducerCPP8ProducerD2Ev:0000000000000000 _ZN19ConsumerProducerCPP8ProducerD2Ev
     /tmp/cc4XBM2x.s:913    .text._ZN19ConsumerProducerCPP8ProducerD2Ev:0000000000000000 .L0 
     /tmp/cc4XBM2x.s:915    .text._ZN19ConsumerProducerCPP8ProducerD2Ev:0000000000000000 .L0 
     /tmp/cc4XBM2x.s:916    .text._ZN19ConsumerProducerCPP8ProducerD2Ev:0000000000000004 .L0 
     /tmp/cc4XBM2x.s:919    .text._ZN19ConsumerProducerCPP8ProducerD2Ev:000000000000000c .L0 
     /tmp/cc4XBM2x.s:920    .text._ZN19ConsumerProducerCPP8ProducerD2Ev:000000000000000c .L0 
     /tmp/cc4XBM2x.s:922    .text._ZN19ConsumerProducerCPP8ProducerD2Ev:0000000000000010 .L0 
     /tmp/cc4XBM2x.s:3566   .data.rel.ro.local._ZTVN19ConsumerProducerCPP8ProducerE:0000000000000000 _ZTVN19ConsumerProducerCPP8ProducerE
     /tmp/cc4XBM2x.s:925    .text._ZN19ConsumerProducerCPP8ProducerD2Ev:0000000000000010 .L0 
     /tmp/cc4XBM2x.s:931    .text._ZN19ConsumerProducerCPP8ProducerD2Ev:0000000000000028 .L0 
     /tmp/cc4XBM2x.s:933    .text._ZN19ConsumerProducerCPP8ProducerD2Ev:000000000000002c .L0 
     /tmp/cc4XBM2x.s:934    .text._ZN19ConsumerProducerCPP8ProducerD2Ev:000000000000002c .L0 
     /tmp/cc4XBM2x.s:936    .text._ZN19ConsumerProducerCPP8ProducerD2Ev:0000000000000030 .L0 
     /tmp/cc4XBM2x.s:938    .text._ZN19ConsumerProducerCPP8ProducerD2Ev:0000000000000034 .L0 
     /tmp/cc4XBM2x.s:910    .text._ZN19ConsumerProducerCPP8ProducerD2Ev:0000000000000000 _ZN19ConsumerProducerCPP8ProducerD1Ev
     /tmp/cc4XBM2x.s:947    .text._ZN19ConsumerProducerCPP8ProducerD0Ev:0000000000000000 _ZN19ConsumerProducerCPP8ProducerD0Ev
     /tmp/cc4XBM2x.s:950    .text._ZN19ConsumerProducerCPP8ProducerD0Ev:0000000000000000 .L0 
     /tmp/cc4XBM2x.s:952    .text._ZN19ConsumerProducerCPP8ProducerD0Ev:0000000000000000 .L0 
     /tmp/cc4XBM2x.s:953    .text._ZN19ConsumerProducerCPP8ProducerD0Ev:0000000000000004 .L0 
     /tmp/cc4XBM2x.s:957    .text._ZN19ConsumerProducerCPP8ProducerD0Ev:0000000000000010 .L0 
     /tmp/cc4XBM2x.s:958    .text._ZN19ConsumerProducerCPP8ProducerD0Ev:0000000000000010 .L0 
     /tmp/cc4XBM2x.s:959    .text._ZN19ConsumerProducerCPP8ProducerD0Ev:0000000000000010 .L0 
     /tmp/cc4XBM2x.s:961    .text._ZN19ConsumerProducerCPP8ProducerD0Ev:0000000000000014 .L0 
     /tmp/cc4XBM2x.s:967    .text._ZN19ConsumerProducerCPP8ProducerD0Ev:0000000000000018 .L0 
     /tmp/cc4XBM2x.s:977    .text._ZN19ConsumerProducerCPP8ProducerD0Ev:000000000000003c .L0 
     /tmp/cc4XBM2x.s:979    .text._ZN19ConsumerProducerCPP8ProducerD0Ev:0000000000000040 .L0 
     /tmp/cc4XBM2x.s:980    .text._ZN19ConsumerProducerCPP8ProducerD0Ev:0000000000000040 .L0 
     /tmp/cc4XBM2x.s:982    .text._ZN19ConsumerProducerCPP8ProducerD0Ev:0000000000000044 .L0 
     /tmp/cc4XBM2x.s:985    .text._ZN19ConsumerProducerCPP8ProducerD0Ev:0000000000000048 .L0 
GAS LISTING /tmp/cc4XBM2x.s 			page 93


     /tmp/cc4XBM2x.s:987    .text._ZN19ConsumerProducerCPP8ProducerD0Ev:000000000000004c .L0 
     /tmp/cc4XBM2x.s:1001   .text:00000000000001a0 _Z9sleepyRunPv
     /tmp/cc4XBM2x.s:1005   .text:00000000000001a0 .L0 
     /tmp/cc4XBM2x.s:1007   .text:00000000000001a0 .L0 
     /tmp/cc4XBM2x.s:1008   .text:00000000000001a4 .L0 
     /tmp/cc4XBM2x.s:1013   .text:00000000000001b4 .L0 
     /tmp/cc4XBM2x.s:1014   .text:00000000000001b4 .L0 
     /tmp/cc4XBM2x.s:1015   .text:00000000000001b4 .L0 
     /tmp/cc4XBM2x.s:1016   .text:00000000000001b4 .L0 
     /tmp/cc4XBM2x.s:1018   .text:00000000000001b8 .L0 
     /tmp/cc4XBM2x.s:1020   .text:00000000000001b8 .L0 
     /tmp/cc4XBM2x.s:1021   .text:00000000000001b8 .L0 
     /tmp/cc4XBM2x.s:1024   .text:00000000000001bc .L0 
     /tmp/cc4XBM2x.s:1025   .text:00000000000001bc .L0 
     /tmp/cc4XBM2x.s:1029   .text:00000000000001c0 .L0 
     /tmp/cc4XBM2x.s:1030   .text:00000000000001c0 .L0 
     /tmp/cc4XBM2x.s:1034   .text:00000000000001c8 .L0 
     /tmp/cc4XBM2x.s:1035   .text:00000000000001c8 .L0 
     /tmp/cc4XBM2x.s:1039   .text:00000000000001d8 .L0 
     /tmp/cc4XBM2x.s:1040   .text:00000000000001d8 .L0 
     /tmp/cc4XBM2x.s:1046   .text:00000000000001ec .L0 
     /tmp/cc4XBM2x.s:1047   .text:00000000000001ec .L0 
     /tmp/cc4XBM2x.s:1051   .text:00000000000001fc .L0 
     /tmp/cc4XBM2x.s:1052   .text:00000000000001fc .L0 
     /tmp/cc4XBM2x.s:1056   .text:0000000000000208 .L0 
     /tmp/cc4XBM2x.s:1059   .text:000000000000020c .L0 
     /tmp/cc4XBM2x.s:1060   .text:000000000000020c .L0 
     /tmp/cc4XBM2x.s:1064   .text:0000000000000214 .L0 
     /tmp/cc4XBM2x.s:1066   .text:0000000000000218 .L0 
     /tmp/cc4XBM2x.s:1071   .text:000000000000022c .L0 
     /tmp/cc4XBM2x.s:1072   .text:0000000000000230 .L0 
     /tmp/cc4XBM2x.s:1074   .text:0000000000000234 .L0 
     /tmp/cc4XBM2x.s:1075   .text:0000000000000234 .L0 
     /tmp/cc4XBM2x.s:1077   .text:0000000000000238 .L0 
     /tmp/cc4XBM2x.s:1079   .text:000000000000023c .L0 
     /tmp/cc4XBM2x.s:1081   .text:0000000000000240 .L0 
     /tmp/cc4XBM2x.s:1083   .text:0000000000000244 .L0 
     /tmp/cc4XBM2x.s:1090   .text._ZN19ConsumerProducerCPP8Producer3runEv:0000000000000000 _ZN19ConsumerProducerCPP8Producer3runEv
     /tmp/cc4XBM2x.s:1093   .text._ZN19ConsumerProducerCPP8Producer3runEv:0000000000000000 .L0 
     /tmp/cc4XBM2x.s:1095   .text._ZN19ConsumerProducerCPP8Producer3runEv:0000000000000000 .L0 
     /tmp/cc4XBM2x.s:1096   .text._ZN19ConsumerProducerCPP8Producer3runEv:0000000000000004 .L0 
     /tmp/cc4XBM2x.s:1101   .text._ZN19ConsumerProducerCPP8Producer3runEv:0000000000000014 .L0 
     /tmp/cc4XBM2x.s:1102   .text._ZN19ConsumerProducerCPP8Producer3runEv:0000000000000014 .L0 
     /tmp/cc4XBM2x.s:1103   .text._ZN19ConsumerProducerCPP8Producer3runEv:0000000000000014 .L0 
     /tmp/cc4XBM2x.s:1104   .text._ZN19ConsumerProducerCPP8Producer3runEv:0000000000000014 .L0 
     /tmp/cc4XBM2x.s:1106   .text._ZN19ConsumerProducerCPP8Producer3runEv:0000000000000018 .L0 
     /tmp/cc4XBM2x.s:1110   .text._ZN19ConsumerProducerCPP8Producer3runEv:000000000000001c .L0 
     /tmp/cc4XBM2x.s:1111   .text._ZN19ConsumerProducerCPP8Producer3runEv:000000000000001c .L0 
     /tmp/cc4XBM2x.s:1115   .text._ZN19ConsumerProducerCPP8Producer3runEv:0000000000000020 .L0 
     /tmp/cc4XBM2x.s:1116   .text._ZN19ConsumerProducerCPP8Producer3runEv:0000000000000020 .L0 
     /tmp/cc4XBM2x.s:1119   .text._ZN19ConsumerProducerCPP8Producer3runEv:000000000000002c .L0 
     /tmp/cc4XBM2x.s:1121   .text._ZN19ConsumerProducerCPP8Producer3runEv:0000000000000030 .L0 
     /tmp/cc4XBM2x.s:1123   .text._ZN19ConsumerProducerCPP8Producer3runEv:0000000000000034 .L0 
     /tmp/cc4XBM2x.s:1128   .text._ZN19ConsumerProducerCPP8Producer3runEv:0000000000000044 .L0 
     /tmp/cc4XBM2x.s:1129   .text._ZN19ConsumerProducerCPP8Producer3runEv:0000000000000044 .L0 
     /tmp/cc4XBM2x.s:1133   .text._ZN19ConsumerProducerCPP8Producer3runEv:000000000000004c .L0 
     /tmp/cc4XBM2x.s:1134   .text._ZN19ConsumerProducerCPP8Producer3runEv:000000000000004c .L0 
GAS LISTING /tmp/cc4XBM2x.s 			page 94


     /tmp/cc4XBM2x.s:1136   .text._ZN19ConsumerProducerCPP8Producer3runEv:0000000000000050 .L0 
     /tmp/cc4XBM2x.s:1138   .text._ZN19ConsumerProducerCPP8Producer3runEv:0000000000000054 .L0 
     /tmp/cc4XBM2x.s:1140   .text._ZN19ConsumerProducerCPP8Producer3runEv:0000000000000058 .L0 
     /tmp/cc4XBM2x.s:1145   .text._ZN19ConsumerProducerCPP8Producer3runEv:0000000000000068 .L0 
     /tmp/cc4XBM2x.s:1148   .text._ZN19ConsumerProducerCPP8Producer3runEv:000000000000006c .L0 
     /tmp/cc4XBM2x.s:1150   .text._ZN19ConsumerProducerCPP8Producer3runEv:0000000000000070 .L0 
     /tmp/cc4XBM2x.s:1154   .text._ZN19ConsumerProducerCPP8Producer3runEv:000000000000007c .L0 
     /tmp/cc4XBM2x.s:1155   .text._ZN19ConsumerProducerCPP8Producer3runEv:0000000000000080 .L0 
     /tmp/cc4XBM2x.s:1157   .text._ZN19ConsumerProducerCPP8Producer3runEv:0000000000000084 .L0 
     /tmp/cc4XBM2x.s:1158   .text._ZN19ConsumerProducerCPP8Producer3runEv:0000000000000084 .L0 
     /tmp/cc4XBM2x.s:1160   .text._ZN19ConsumerProducerCPP8Producer3runEv:0000000000000088 .L0 
     /tmp/cc4XBM2x.s:1163   .text._ZN19ConsumerProducerCPP8Producer3runEv:000000000000008c .L0 
     /tmp/cc4XBM2x.s:1166   .text._ZN19ConsumerProducerCPP8Producer3runEv:0000000000000090 .L0 
     /tmp/cc4XBM2x.s:1168   .text._ZN19ConsumerProducerCPP8Producer3runEv:0000000000000094 .L0 
     /tmp/cc4XBM2x.s:1175   .text:0000000000000244 _Z9fibonaccim
     /tmp/cc4XBM2x.s:1178   .text:0000000000000244 .L0 
     /tmp/cc4XBM2x.s:1180   .text:0000000000000244 .L0 
     /tmp/cc4XBM2x.s:1181   .text:0000000000000248 .L0 
     /tmp/cc4XBM2x.s:1186   .text:0000000000000258 .L0 
     /tmp/cc4XBM2x.s:1187   .text:0000000000000258 .L0 
     /tmp/cc4XBM2x.s:1188   .text:0000000000000258 .L0 
     /tmp/cc4XBM2x.s:1189   .text:0000000000000258 .L0 
     /tmp/cc4XBM2x.s:1191   .text:000000000000025c .L0 
     /tmp/cc4XBM2x.s:1194   .text:0000000000000260 .L0 
     /tmp/cc4XBM2x.s:1197   .text:0000000000000268 .L0 
     /tmp/cc4XBM2x.s:1198   .text:0000000000000268 .L0 
     /tmp/cc4XBM2x.s:1201   .text:0000000000000270 .L0 
     /tmp/cc4XBM2x.s:1205   .text:0000000000000274 .L0 
     /tmp/cc4XBM2x.s:1206   .text:0000000000000274 .L0 
     /tmp/cc4XBM2x.s:1211   .text:0000000000000284 .L0 
     /tmp/cc4XBM2x.s:1215   .text:0000000000000290 .L0 
     /tmp/cc4XBM2x.s:1218   .text:0000000000000294 .L0 
     /tmp/cc4XBM2x.s:1219   .text:0000000000000298 .L0 
     /tmp/cc4XBM2x.s:1220   .text:0000000000000298 .L0 
     /tmp/cc4XBM2x.s:1222   .text:000000000000029c .L0 
     /tmp/cc4XBM2x.s:1223   .text:000000000000029c .L0 
     /tmp/cc4XBM2x.s:1225   .text:00000000000002a0 .L0 
     /tmp/cc4XBM2x.s:1228   .text:00000000000002a4 .L0 
     /tmp/cc4XBM2x.s:1230   .text:00000000000002a8 .L0 
     /tmp/cc4XBM2x.s:1234   .text:00000000000002ac .L0 
     /tmp/cc4XBM2x.s:1236   .text:00000000000002ac .L0 
     /tmp/cc4XBM2x.s:1237   .text:00000000000002ac .L0 
     /tmp/cc4XBM2x.s:1240   .text:00000000000002b8 .L0 
     /tmp/cc4XBM2x.s:1260   .text:00000000000002b8 _Z11workerBodyCPv
     /tmp/cc4XBM2x.s:1263   .text:00000000000002b8 .L0 
     /tmp/cc4XBM2x.s:1265   .text:00000000000002b8 .L0 
     /tmp/cc4XBM2x.s:1266   .text:00000000000002bc .L0 
     /tmp/cc4XBM2x.s:1271   .text:00000000000002cc .L0 
     /tmp/cc4XBM2x.s:1272   .text:00000000000002cc .L0 
     /tmp/cc4XBM2x.s:1273   .text:00000000000002cc .L0 
     /tmp/cc4XBM2x.s:1274   .text:00000000000002cc .L0 
     /tmp/cc4XBM2x.s:1276   .text:00000000000002d0 .L0 
     /tmp/cc4XBM2x.s:1279   .text:00000000000002d0 .L0 
     /tmp/cc4XBM2x.s:1280   .text:00000000000002d0 .L0 
     /tmp/cc4XBM2x.s:1285   .text:00000000000002d8 .L0 
     /tmp/cc4XBM2x.s:1286   .text:00000000000002d8 .L0 
     /tmp/cc4XBM2x.s:1290   .text:00000000000002e8 .L0 
GAS LISTING /tmp/cc4XBM2x.s 			page 95


     /tmp/cc4XBM2x.s:1291   .text:00000000000002e8 .L0 
     /tmp/cc4XBM2x.s:1297   .text:00000000000002fc .L0 
     /tmp/cc4XBM2x.s:1298   .text:00000000000002fc .L0 
     /tmp/cc4XBM2x.s:1302   .text:000000000000030c .L0 
     /tmp/cc4XBM2x.s:1308   .text:0000000000000314 .L0 
     /tmp/cc4XBM2x.s:1309   .text:0000000000000314 .L0 
     /tmp/cc4XBM2x.s:1312   .text:000000000000031c .L0 
     /tmp/cc4XBM2x.s:1313   .text:000000000000031c .L0 
     /tmp/cc4XBM2x.s:1317   .text:000000000000032c .L0 
tests/Threads_C_API_test.hpp:51     .text:000000000000032c .L0 
     /tmp/cc4XBM2x.s:1323   .text:0000000000000330 .L0 
     /tmp/cc4XBM2x.s:1325   .text:0000000000000330 .L0 
     /tmp/cc4XBM2x.s:1328   .text:0000000000000338 .L0 
     /tmp/cc4XBM2x.s:1329   .text:0000000000000338 .L0 
tests/Threads_C_API_test.hpp:55     .text:0000000000000338 .L0 
     /tmp/cc4XBM2x.s:1336   .text:000000000000033c .L0 
     /tmp/cc4XBM2x.s:1338   .text:000000000000033c .L0 
     /tmp/cc4XBM2x.s:1342   .text:000000000000034c .L0 
     /tmp/cc4XBM2x.s:1343   .text:000000000000034c .L0 
     /tmp/cc4XBM2x.s:1349   .text:0000000000000360 .L0 
     /tmp/cc4XBM2x.s:1350   .text:0000000000000360 .L0 
     /tmp/cc4XBM2x.s:1354   .text:0000000000000370 .L0 
     /tmp/cc4XBM2x.s:1355   .text:0000000000000370 .L0 
     /tmp/cc4XBM2x.s:1361   .text:0000000000000380 .L0 
     /tmp/cc4XBM2x.s:1362   .text:0000000000000380 .L0 
     /tmp/cc4XBM2x.s:1367   .text:0000000000000390 .L0 
     /tmp/cc4XBM2x.s:1368   .text:0000000000000390 .L0 
     /tmp/cc4XBM2x.s:1374   .text:00000000000003a4 .L0 
     /tmp/cc4XBM2x.s:1375   .text:00000000000003a4 .L0 
     /tmp/cc4XBM2x.s:1381   .text:00000000000003b8 .L0 
     /tmp/cc4XBM2x.s:1382   .text:00000000000003b8 .L0 
     /tmp/cc4XBM2x.s:1386   .text:00000000000003c8 .L0 
     /tmp/cc4XBM2x.s:1387   .text:00000000000003c8 .L0 
     /tmp/cc4XBM2x.s:1393   .text:00000000000003dc .L0 
     /tmp/cc4XBM2x.s:1394   .text:00000000000003dc .L0 
     /tmp/cc4XBM2x.s:1398   .text:00000000000003ec .L0 
     /tmp/cc4XBM2x.s:1404   .text:00000000000003f4 .L0 
     /tmp/cc4XBM2x.s:1405   .text:00000000000003f4 .L0 
     /tmp/cc4XBM2x.s:1408   .text:00000000000003fc .L0 
     /tmp/cc4XBM2x.s:1409   .text:00000000000003fc .L0 
     /tmp/cc4XBM2x.s:1413   .text:000000000000040c .L0 
     /tmp/cc4XBM2x.s:1414   .text:000000000000040c .L0 
     /tmp/cc4XBM2x.s:1417   .text:0000000000000418 .L0 
     /tmp/cc4XBM2x.s:1418   .text:0000000000000418 .L0 
     /tmp/cc4XBM2x.s:1421   .text:0000000000000420 .L0 
     /tmp/cc4XBM2x.s:1422   .text:0000000000000424 .L0 
     /tmp/cc4XBM2x.s:1424   .text:0000000000000428 .L0 
     /tmp/cc4XBM2x.s:1425   .text:0000000000000428 .L0 
     /tmp/cc4XBM2x.s:1427   .text:000000000000042c .L0 
     /tmp/cc4XBM2x.s:1430   .text:0000000000000430 .L0 
     /tmp/cc4XBM2x.s:1433   .text:0000000000000434 .L0 
     /tmp/cc4XBM2x.s:1435   .text:0000000000000438 .L0 
     /tmp/cc4XBM2x.s:1455   .text:0000000000000438 _Z11workerBodyDPv
     /tmp/cc4XBM2x.s:1458   .text:0000000000000438 .L0 
     /tmp/cc4XBM2x.s:1460   .text:0000000000000438 .L0 
     /tmp/cc4XBM2x.s:1461   .text:000000000000043c .L0 
     /tmp/cc4XBM2x.s:1466   .text:000000000000044c .L0 
GAS LISTING /tmp/cc4XBM2x.s 			page 96


     /tmp/cc4XBM2x.s:1467   .text:000000000000044c .L0 
     /tmp/cc4XBM2x.s:1468   .text:000000000000044c .L0 
     /tmp/cc4XBM2x.s:1469   .text:000000000000044c .L0 
     /tmp/cc4XBM2x.s:1471   .text:0000000000000450 .L0 
     /tmp/cc4XBM2x.s:1474   .text:0000000000000450 .L0 
     /tmp/cc4XBM2x.s:1475   .text:0000000000000450 .L0 
     /tmp/cc4XBM2x.s:1480   .text:0000000000000458 .L0 
     /tmp/cc4XBM2x.s:1481   .text:0000000000000458 .L0 
     /tmp/cc4XBM2x.s:1485   .text:0000000000000468 .L0 
     /tmp/cc4XBM2x.s:1486   .text:0000000000000468 .L0 
     /tmp/cc4XBM2x.s:1492   .text:000000000000047c .L0 
     /tmp/cc4XBM2x.s:1493   .text:000000000000047c .L0 
     /tmp/cc4XBM2x.s:1497   .text:000000000000048c .L0 
     /tmp/cc4XBM2x.s:1503   .text:0000000000000494 .L0 
     /tmp/cc4XBM2x.s:1504   .text:0000000000000494 .L0 
     /tmp/cc4XBM2x.s:1507   .text:000000000000049c .L0 
     /tmp/cc4XBM2x.s:1508   .text:000000000000049c .L0 
     /tmp/cc4XBM2x.s:1512   .text:00000000000004ac .L0 
tests/Threads_C_API_test.hpp:78     .text:00000000000004ac .L0 
     /tmp/cc4XBM2x.s:1518   .text:00000000000004b0 .L0 
     /tmp/cc4XBM2x.s:1520   .text:00000000000004b0 .L0 
     /tmp/cc4XBM2x.s:1523   .text:00000000000004b8 .L0 
     /tmp/cc4XBM2x.s:1524   .text:00000000000004b8 .L0 
     /tmp/cc4XBM2x.s:1530   .text:00000000000004c8 .L0 
     /tmp/cc4XBM2x.s:1531   .text:00000000000004c8 .L0 
     /tmp/cc4XBM2x.s:1536   .text:00000000000004d8 .L0 
     /tmp/cc4XBM2x.s:1537   .text:00000000000004d8 .L0 
     /tmp/cc4XBM2x.s:1543   .text:00000000000004ec .L0 
     /tmp/cc4XBM2x.s:1544   .text:00000000000004ec .L0 
     /tmp/cc4XBM2x.s:1550   .text:0000000000000500 .L0 
     /tmp/cc4XBM2x.s:1551   .text:0000000000000500 .L0 
     /tmp/cc4XBM2x.s:1555   .text:0000000000000510 .L0 
     /tmp/cc4XBM2x.s:1556   .text:0000000000000510 .L0 
     /tmp/cc4XBM2x.s:1562   .text:0000000000000524 .L0 
     /tmp/cc4XBM2x.s:1563   .text:0000000000000524 .L0 
     /tmp/cc4XBM2x.s:1567   .text:0000000000000534 .L0 
     /tmp/cc4XBM2x.s:1573   .text:000000000000053c .L0 
     /tmp/cc4XBM2x.s:1574   .text:000000000000053c .L0 
     /tmp/cc4XBM2x.s:1577   .text:0000000000000544 .L0 
     /tmp/cc4XBM2x.s:1578   .text:0000000000000544 .L0 
     /tmp/cc4XBM2x.s:1582   .text:0000000000000554 .L0 
     /tmp/cc4XBM2x.s:1583   .text:0000000000000554 .L0 
     /tmp/cc4XBM2x.s:1586   .text:0000000000000560 .L0 
     /tmp/cc4XBM2x.s:1587   .text:0000000000000560 .L0 
     /tmp/cc4XBM2x.s:1590   .text:0000000000000568 .L0 
     /tmp/cc4XBM2x.s:1591   .text:000000000000056c .L0 
     /tmp/cc4XBM2x.s:1593   .text:0000000000000570 .L0 
     /tmp/cc4XBM2x.s:1594   .text:0000000000000570 .L0 
     /tmp/cc4XBM2x.s:1596   .text:0000000000000574 .L0 
     /tmp/cc4XBM2x.s:1599   .text:0000000000000578 .L0 
     /tmp/cc4XBM2x.s:1602   .text:000000000000057c .L0 
     /tmp/cc4XBM2x.s:1604   .text:0000000000000580 .L0 
     /tmp/cc4XBM2x.s:1624   .text:0000000000000580 _Z18Threads_C_API_testv
     /tmp/cc4XBM2x.s:1627   .text:0000000000000580 .L0 
     /tmp/cc4XBM2x.s:1628   .text:0000000000000580 .L0 
     /tmp/cc4XBM2x.s:1629   .text:0000000000000584 .L0 
     /tmp/cc4XBM2x.s:1633   .text:0000000000000590 .L0 
GAS LISTING /tmp/cc4XBM2x.s 			page 97


     /tmp/cc4XBM2x.s:1634   .text:0000000000000590 .L0 
     /tmp/cc4XBM2x.s:1635   .text:0000000000000590 .L0 
     /tmp/cc4XBM2x.s:1637   .text:0000000000000594 .L0 
     /tmp/cc4XBM2x.s:1639   .text:0000000000000594 .L0 
     /tmp/cc4XBM2x.s:1640   .text:0000000000000594 .L0 
     /tmp/cc4XBM2x.s:1641   .text:0000000000000594 .L0 
     /tmp/cc4XBM2x.s:1647   .text:00000000000005ac .L0 
     /tmp/cc4XBM2x.s:1648   .text:00000000000005ac .L0 
     /tmp/cc4XBM2x.s:1652   .text:00000000000005bc .L0 
     /tmp/cc4XBM2x.s:1653   .text:00000000000005bc .L0 
     /tmp/cc4XBM2x.s:1659   .text:00000000000005d4 .L0 
     /tmp/cc4XBM2x.s:1660   .text:00000000000005d4 .L0 
     /tmp/cc4XBM2x.s:1664   .text:00000000000005e4 .L0 
     /tmp/cc4XBM2x.s:1665   .text:00000000000005e4 .L0 
     /tmp/cc4XBM2x.s:1671   .text:00000000000005fc .L0 
     /tmp/cc4XBM2x.s:1672   .text:00000000000005fc .L0 
     /tmp/cc4XBM2x.s:1676   .text:000000000000060c .L0 
     /tmp/cc4XBM2x.s:1677   .text:000000000000060c .L0 
     /tmp/cc4XBM2x.s:1683   .text:0000000000000624 .L0 
     /tmp/cc4XBM2x.s:1684   .text:0000000000000624 .L0 
     /tmp/cc4XBM2x.s:1690   .text:0000000000000638 .L0 
     /tmp/cc4XBM2x.s:1691   .text:0000000000000638 .L0 
     /tmp/cc4XBM2x.s:1695   .text:0000000000000640 .L0 
     /tmp/cc4XBM2x.s:1696   .text:0000000000000640 .L0 
     /tmp/cc4XBM2x.s:1699   .text:000000000000064c .L0 
     /tmp/cc4XBM2x.s:1702   .text:0000000000000658 .L0 
     /tmp/cc4XBM2x.s:1705   .text:0000000000000664 .L0 
     /tmp/cc4XBM2x.s:1709   .text:0000000000000670 .L0 
     /tmp/cc4XBM2x.s:1714   .text:0000000000000678 .L0 
     /tmp/cc4XBM2x.s:1718   .text:000000000000067c .L0 
     /tmp/cc4XBM2x.s:1722   .text:0000000000000684 .L0 
     /tmp/cc4XBM2x.s:1723   .text:0000000000000684 .L0 
     /tmp/cc4XBM2x.s:1725   .text:0000000000000688 .L0 
     /tmp/cc4XBM2x.s:1727   .text:000000000000068c .L0 
     /tmp/cc4XBM2x.s:1734   .text:0000000000000698 .L0 
     /tmp/cc4XBM2x.s:1735   .text:000000000000069c .L0 
     /tmp/cc4XBM2x.s:1737   .text:00000000000006a0 .L0 
     /tmp/cc4XBM2x.s:1738   .text:00000000000006a0 .L0 
     /tmp/cc4XBM2x.s:1740   .text:00000000000006a4 .L0 
     /tmp/cc4XBM2x.s:1743   .text:00000000000006a8 .L0 
     /tmp/cc4XBM2x.s:1745   .text:00000000000006ac .L0 
     /tmp/cc4XBM2x.s:1751   .text:00000000000006ac _ZN16ProducerKeyboard16producerKeyboardEPv
     /tmp/cc4XBM2x.s:1754   .text:00000000000006ac .L0 
     /tmp/cc4XBM2x.s:1756   .text:00000000000006ac .L0 
     /tmp/cc4XBM2x.s:1757   .text:00000000000006b0 .L0 
     /tmp/cc4XBM2x.s:1763   .text:00000000000006c4 .L0 
     /tmp/cc4XBM2x.s:1764   .text:00000000000006c4 .L0 
     /tmp/cc4XBM2x.s:1765   .text:00000000000006c4 .L0 
     /tmp/cc4XBM2x.s:1766   .text:00000000000006c4 .L0 
     /tmp/cc4XBM2x.s:1767   .text:00000000000006c4 .L0 
     /tmp/cc4XBM2x.s:1769   .text:00000000000006c8 .L0 
     /tmp/cc4XBM2x.s:1774   .text:00000000000006d0 .L0 
     /tmp/cc4XBM2x.s:1775   .text:00000000000006d0 .L0 
     /tmp/cc4XBM2x.s:1776   .text:00000000000006d0 .L0 
     /tmp/cc4XBM2x.s:1777   .text:00000000000006d0 .L0 
     /tmp/cc4XBM2x.s:1782   .text:00000000000006d8 .L0 
     /tmp/cc4XBM2x.s:1783   .text:00000000000006d8 .L0 
GAS LISTING /tmp/cc4XBM2x.s 			page 98


     /tmp/cc4XBM2x.s:1787   .text:00000000000006e0 .L0 
     /tmp/cc4XBM2x.s:1788   .text:00000000000006e0 .L0 
     /tmp/cc4XBM2x.s:1789   .text:00000000000006e0 .L0 
     /tmp/cc4XBM2x.s:1792   .text:00000000000006e8 .L0 
     /tmp/cc4XBM2x.s:1795   .text:00000000000006ec .L0 
     /tmp/cc4XBM2x.s:1798   .text:00000000000006f4 .L0 
     /tmp/cc4XBM2x.s:1799   .text:00000000000006f4 .L0 
     /tmp/cc4XBM2x.s:1803   .text:0000000000000700 .L0 
     /tmp/cc4XBM2x.s:1804   .text:0000000000000700 .L0 
     /tmp/cc4XBM2x.s:1808   .text:0000000000000708 .L0 
     /tmp/cc4XBM2x.s:1809   .text:0000000000000708 .L0 
     /tmp/cc4XBM2x.s:1811   .text:000000000000070c .L0 
     /tmp/cc4XBM2x.s:1815   .text:0000000000000718 .L0 
     /tmp/cc4XBM2x.s:1817   .text:000000000000071c .L0 
     /tmp/cc4XBM2x.s:1822   .text:0000000000000724 .L0 
     /tmp/cc4XBM2x.s:1823   .text:0000000000000724 .L0 
     /tmp/cc4XBM2x.s:1826   .text:0000000000000730 .L0 
     /tmp/cc4XBM2x.s:1828   .text:0000000000000734 .L0 
     /tmp/cc4XBM2x.s:1835   .text:0000000000000744 .L0 
     /tmp/cc4XBM2x.s:1836   .text:0000000000000744 .L0 
     /tmp/cc4XBM2x.s:1840   .text:0000000000000750 .L0 
     /tmp/cc4XBM2x.s:1841   .text:0000000000000754 .L0 
     /tmp/cc4XBM2x.s:1843   .text:0000000000000758 .L0 
     /tmp/cc4XBM2x.s:1844   .text:0000000000000758 .L0 
     /tmp/cc4XBM2x.s:1846   .text:000000000000075c .L0 
     /tmp/cc4XBM2x.s:1849   .text:0000000000000760 .L0 
     /tmp/cc4XBM2x.s:1852   .text:0000000000000764 .L0 
     /tmp/cc4XBM2x.s:1855   .text:0000000000000768 .L0 
     /tmp/cc4XBM2x.s:1857   .text:000000000000076c .L0 
     /tmp/cc4XBM2x.s:1864   .text._ZN16ProducerKeyboard3runEv:0000000000000000 _ZN16ProducerKeyboard3runEv
     /tmp/cc4XBM2x.s:1867   .text._ZN16ProducerKeyboard3runEv:0000000000000000 .L0 
     /tmp/cc4XBM2x.s:1869   .text._ZN16ProducerKeyboard3runEv:0000000000000000 .L0 
     /tmp/cc4XBM2x.s:1870   .text._ZN16ProducerKeyboard3runEv:0000000000000004 .L0 
     /tmp/cc4XBM2x.s:1873   .text._ZN16ProducerKeyboard3runEv:000000000000000c .L0 
     /tmp/cc4XBM2x.s:1874   .text._ZN16ProducerKeyboard3runEv:000000000000000c .L0 
     /tmp/cc4XBM2x.s:1876   .text._ZN16ProducerKeyboard3runEv:0000000000000010 .L0 
     /tmp/cc4XBM2x.s:1878   .text._ZN16ProducerKeyboard3runEv:0000000000000010 .L0 
     /tmp/cc4XBM2x.s:1879   .text._ZN16ProducerKeyboard3runEv:0000000000000010 .L0 
     /tmp/cc4XBM2x.s:1883   .text._ZN16ProducerKeyboard3runEv:000000000000001c .L0 
     /tmp/cc4XBM2x.s:1884   .text._ZN16ProducerKeyboard3runEv:0000000000000020 .L0 
     /tmp/cc4XBM2x.s:1886   .text._ZN16ProducerKeyboard3runEv:0000000000000024 .L0 
     /tmp/cc4XBM2x.s:1887   .text._ZN16ProducerKeyboard3runEv:0000000000000024 .L0 
     /tmp/cc4XBM2x.s:1889   .text._ZN16ProducerKeyboard3runEv:0000000000000028 .L0 
     /tmp/cc4XBM2x.s:1891   .text._ZN16ProducerKeyboard3runEv:000000000000002c .L0 
     /tmp/cc4XBM2x.s:1898   .text:000000000000076c _ZN8Producer8producerEPv
     /tmp/cc4XBM2x.s:1901   .text:000000000000076c .L0 
     /tmp/cc4XBM2x.s:1903   .text:000000000000076c .L0 
     /tmp/cc4XBM2x.s:1904   .text:0000000000000770 .L0 
     /tmp/cc4XBM2x.s:1909   .text:0000000000000780 .L0 
     /tmp/cc4XBM2x.s:1910   .text:0000000000000780 .L0 
     /tmp/cc4XBM2x.s:1911   .text:0000000000000780 .L0 
     /tmp/cc4XBM2x.s:1912   .text:0000000000000780 .L0 
     /tmp/cc4XBM2x.s:1914   .text:0000000000000784 .L0 
     /tmp/cc4XBM2x.s:1918   .text:0000000000000788 .L0 
     /tmp/cc4XBM2x.s:1919   .text:0000000000000788 .L0 
     /tmp/cc4XBM2x.s:1920   .text:0000000000000788 .L0 
     /tmp/cc4XBM2x.s:1925   .text:0000000000000790 .L0 
GAS LISTING /tmp/cc4XBM2x.s 			page 99


     /tmp/cc4XBM2x.s:1926   .text:0000000000000790 .L0 
     /tmp/cc4XBM2x.s:1930   .text:0000000000000798 .L0 
     /tmp/cc4XBM2x.s:1931   .text:0000000000000798 .L0 
     /tmp/cc4XBM2x.s:1934   .text:00000000000007a4 .L0 
     /tmp/cc4XBM2x.s:1935   .text:00000000000007a4 .L0 
     /tmp/cc4XBM2x.s:1937   .text:00000000000007a8 .L0 
     /tmp/cc4XBM2x.s:1942   .text:00000000000007b8 .L0 
     /tmp/cc4XBM2x.s:1943   .text:00000000000007b8 .L0 
     /tmp/cc4XBM2x.s:1947   .text:00000000000007c0 .L0 
     /tmp/cc4XBM2x.s:1948   .text:00000000000007c0 .L0 
     /tmp/cc4XBM2x.s:1950   .text:00000000000007c4 .L0 
     /tmp/cc4XBM2x.s:1954   .text:00000000000007d0 .L0 
     /tmp/cc4XBM2x.s:1956   .text:00000000000007d4 .L0 
     /tmp/cc4XBM2x.s:1961   .text:00000000000007dc .L0 
     /tmp/cc4XBM2x.s:1962   .text:00000000000007dc .L0 
     /tmp/cc4XBM2x.s:1966   .text:00000000000007e8 .L0 
     /tmp/cc4XBM2x.s:1967   .text:00000000000007ec .L0 
     /tmp/cc4XBM2x.s:1969   .text:00000000000007f0 .L0 
     /tmp/cc4XBM2x.s:1970   .text:00000000000007f0 .L0 
     /tmp/cc4XBM2x.s:1972   .text:00000000000007f4 .L0 
     /tmp/cc4XBM2x.s:1975   .text:00000000000007f8 .L0 
     /tmp/cc4XBM2x.s:1978   .text:00000000000007fc .L0 
     /tmp/cc4XBM2x.s:1980   .text:0000000000000800 .L0 
     /tmp/cc4XBM2x.s:1987   .text._ZN8Producer3runEv:0000000000000000 _ZN8Producer3runEv
     /tmp/cc4XBM2x.s:1990   .text._ZN8Producer3runEv:0000000000000000 .L0 
     /tmp/cc4XBM2x.s:1992   .text._ZN8Producer3runEv:0000000000000000 .L0 
     /tmp/cc4XBM2x.s:1993   .text._ZN8Producer3runEv:0000000000000004 .L0 
     /tmp/cc4XBM2x.s:1996   .text._ZN8Producer3runEv:000000000000000c .L0 
     /tmp/cc4XBM2x.s:1997   .text._ZN8Producer3runEv:000000000000000c .L0 
     /tmp/cc4XBM2x.s:1999   .text._ZN8Producer3runEv:0000000000000010 .L0 
     /tmp/cc4XBM2x.s:2001   .text._ZN8Producer3runEv:0000000000000010 .L0 
     /tmp/cc4XBM2x.s:2002   .text._ZN8Producer3runEv:0000000000000010 .L0 
     /tmp/cc4XBM2x.s:2006   .text._ZN8Producer3runEv:000000000000001c .L0 
     /tmp/cc4XBM2x.s:2007   .text._ZN8Producer3runEv:0000000000000020 .L0 
     /tmp/cc4XBM2x.s:2009   .text._ZN8Producer3runEv:0000000000000024 .L0 
     /tmp/cc4XBM2x.s:2010   .text._ZN8Producer3runEv:0000000000000024 .L0 
     /tmp/cc4XBM2x.s:2012   .text._ZN8Producer3runEv:0000000000000028 .L0 
     /tmp/cc4XBM2x.s:2014   .text._ZN8Producer3runEv:000000000000002c .L0 
     /tmp/cc4XBM2x.s:2021   .text:0000000000000800 _ZN8Consumer8consumerEPv
     /tmp/cc4XBM2x.s:2024   .text:0000000000000800 .L0 
     /tmp/cc4XBM2x.s:2026   .text:0000000000000800 .L0 
     /tmp/cc4XBM2x.s:2027   .text:0000000000000804 .L0 
     /tmp/cc4XBM2x.s:2034   .text:000000000000081c .L0 
     /tmp/cc4XBM2x.s:2035   .text:000000000000081c .L0 
     /tmp/cc4XBM2x.s:2036   .text:000000000000081c .L0 
     /tmp/cc4XBM2x.s:2037   .text:000000000000081c .L0 
     /tmp/cc4XBM2x.s:2038   .text:000000000000081c .L0 
     /tmp/cc4XBM2x.s:2039   .text:000000000000081c .L0 
     /tmp/cc4XBM2x.s:2041   .text:0000000000000820 .L0 
     /tmp/cc4XBM2x.s:2046   .text:0000000000000828 .L0 
     /tmp/cc4XBM2x.s:2047   .text:0000000000000828 .L0 
     /tmp/cc4XBM2x.s:2048   .text:0000000000000828 .L0 
     /tmp/cc4XBM2x.s:2054   .text:0000000000000830 .L0 
     /tmp/cc4XBM2x.s:2055   .text:0000000000000830 .L0 
     /tmp/cc4XBM2x.s:2061   .text:000000000000083c .L0 
     /tmp/cc4XBM2x.s:2062   .text:000000000000083c .L0 
     /tmp/cc4XBM2x.s:2068   .text:0000000000000848 .L0 
GAS LISTING /tmp/cc4XBM2x.s 			page 100


     /tmp/cc4XBM2x.s:2069   .text:0000000000000848 .L0 
     /tmp/cc4XBM2x.s:2073   .text:0000000000000854 .L0 
     /tmp/cc4XBM2x.s:2074   .text:0000000000000854 .L0 
     /tmp/cc4XBM2x.s:2078   .text:0000000000000860 .L0 
     /tmp/cc4XBM2x.s:2079   .text:0000000000000860 .L0 
     /tmp/cc4XBM2x.s:2083   .text:0000000000000868 .L0 
     /tmp/cc4XBM2x.s:2084   .text:0000000000000868 .L0 
     /tmp/cc4XBM2x.s:2089   .text:0000000000000874 .L0 
     /tmp/cc4XBM2x.s:2090   .text:0000000000000874 .L0 
     /tmp/cc4XBM2x.s:2092   .text:0000000000000878 .L0 
     /tmp/cc4XBM2x.s:2095   .text:0000000000000880 .L0 
     /tmp/cc4XBM2x.s:2097   .text:0000000000000884 .L0 
     /tmp/cc4XBM2x.s:2100   .text:0000000000000888 .L0 
     /tmp/cc4XBM2x.s:2101   .text:0000000000000888 .L0 
     /tmp/cc4XBM2x.s:2105   .text:0000000000000890 .L0 
     /tmp/cc4XBM2x.s:2111   .text:0000000000000898 .L0 
     /tmp/cc4XBM2x.s:2112   .text:0000000000000898 .L0 
     /tmp/cc4XBM2x.s:2114   .text:000000000000089c .L0 
     /tmp/cc4XBM2x.s:2118   .text:00000000000008a8 .L0 
     /tmp/cc4XBM2x.s:2119   .text:00000000000008a8 .L0 
     /tmp/cc4XBM2x.s:2126   .text:00000000000008b4 .L0 
     /tmp/cc4XBM2x.s:2127   .text:00000000000008b4 .L0 
     /tmp/cc4XBM2x.s:2128   .text:00000000000008b4 .L0 
     /tmp/cc4XBM2x.s:2130   .text:00000000000008b8 .L0 
     /tmp/cc4XBM2x.s:2134   .text:00000000000008c4 .L0 
     /tmp/cc4XBM2x.s:2136   .text:00000000000008c8 .L0 
     /tmp/cc4XBM2x.s:2137   .text:00000000000008c8 .L0 
     /tmp/cc4XBM2x.s:2141   .text:00000000000008d4 .L0 
     /tmp/cc4XBM2x.s:2142   .text:00000000000008d8 .L0 
     /tmp/cc4XBM2x.s:2144   .text:00000000000008dc .L0 
     /tmp/cc4XBM2x.s:2145   .text:00000000000008dc .L0 
     /tmp/cc4XBM2x.s:2147   .text:00000000000008e0 .L0 
     /tmp/cc4XBM2x.s:2149   .text:00000000000008e4 .L0 
     /tmp/cc4XBM2x.s:2152   .text:00000000000008e8 .L0 
     /tmp/cc4XBM2x.s:2155   .text:00000000000008ec .L0 
     /tmp/cc4XBM2x.s:2158   .text:00000000000008f0 .L0 
     /tmp/cc4XBM2x.s:2160   .text:00000000000008f4 .L0 
     /tmp/cc4XBM2x.s:2167   .text._ZN8Consumer3runEv:0000000000000000 _ZN8Consumer3runEv
     /tmp/cc4XBM2x.s:2170   .text._ZN8Consumer3runEv:0000000000000000 .L0 
     /tmp/cc4XBM2x.s:2172   .text._ZN8Consumer3runEv:0000000000000000 .L0 
     /tmp/cc4XBM2x.s:2173   .text._ZN8Consumer3runEv:0000000000000004 .L0 
     /tmp/cc4XBM2x.s:2176   .text._ZN8Consumer3runEv:000000000000000c .L0 
     /tmp/cc4XBM2x.s:2177   .text._ZN8Consumer3runEv:000000000000000c .L0 
     /tmp/cc4XBM2x.s:2179   .text._ZN8Consumer3runEv:0000000000000010 .L0 
     /tmp/cc4XBM2x.s:2181   .text._ZN8Consumer3runEv:0000000000000010 .L0 
     /tmp/cc4XBM2x.s:2182   .text._ZN8Consumer3runEv:0000000000000010 .L0 
     /tmp/cc4XBM2x.s:2186   .text._ZN8Consumer3runEv:000000000000001c .L0 
     /tmp/cc4XBM2x.s:2187   .text._ZN8Consumer3runEv:0000000000000020 .L0 
     /tmp/cc4XBM2x.s:2189   .text._ZN8Consumer3runEv:0000000000000024 .L0 
     /tmp/cc4XBM2x.s:2190   .text._ZN8Consumer3runEv:0000000000000024 .L0 
     /tmp/cc4XBM2x.s:2192   .text._ZN8Consumer3runEv:0000000000000028 .L0 
     /tmp/cc4XBM2x.s:2194   .text._ZN8Consumer3runEv:000000000000002c .L0 
     /tmp/cc4XBM2x.s:2223   .text:00000000000008f4 _Z29producerConsumer_CPP_Sync_APIv
     /tmp/cc4XBM2x.s:2226   .text:00000000000008f4 .L0 
     /tmp/cc4XBM2x.s:11545  .data.rel.local.DW.ref.__gxx_personality_v0:0000000000000000 DW.ref.__gxx_personality_v0
     /tmp/cc4XBM2x.s:2229   .text:00000000000008f4 .L0 
     /tmp/cc4XBM2x.s:2230   .text:00000000000008f8 .L0 
GAS LISTING /tmp/cc4XBM2x.s 			page 101


     /tmp/cc4XBM2x.s:2242   .text:0000000000000924 .L0 
     /tmp/cc4XBM2x.s:2243   .text:0000000000000924 .L0 
     /tmp/cc4XBM2x.s:2244   .text:0000000000000924 .L0 
     /tmp/cc4XBM2x.s:2245   .text:0000000000000924 .L0 
     /tmp/cc4XBM2x.s:2246   .text:0000000000000924 .L0 
     /tmp/cc4XBM2x.s:2247   .text:0000000000000924 .L0 
     /tmp/cc4XBM2x.s:2248   .text:0000000000000924 .L0 
     /tmp/cc4XBM2x.s:2249   .text:0000000000000924 .L0 
     /tmp/cc4XBM2x.s:2250   .text:0000000000000924 .L0 
     /tmp/cc4XBM2x.s:2251   .text:0000000000000924 .L0 
     /tmp/cc4XBM2x.s:2252   .text:0000000000000924 .L0 
     /tmp/cc4XBM2x.s:2254   .text:0000000000000928 .L0 
     /tmp/cc4XBM2x.s:2256   .text:0000000000000928 .L0 
     /tmp/cc4XBM2x.s:2258   .text:000000000000092c .L0 
     /tmp/cc4XBM2x.s:2259   .text:000000000000092c .L0 
     /tmp/cc4XBM2x.s:2260   .text:000000000000092c .L0 
     /tmp/cc4XBM2x.s:2261   .text:000000000000092c .L0 
     /tmp/cc4XBM2x.s:2266   .text:000000000000093c .L0 
     /tmp/cc4XBM2x.s:2267   .text:000000000000093c .L0 
     /tmp/cc4XBM2x.s:2273   .text:0000000000000950 .L0 
     /tmp/cc4XBM2x.s:2274   .text:0000000000000950 .L0 
     /tmp/cc4XBM2x.s:2280   .text:0000000000000960 .L0 
     /tmp/cc4XBM2x.s:2281   .text:0000000000000960 .L0 
     /tmp/cc4XBM2x.s:2285   .text:0000000000000970 .L0 
     /tmp/cc4XBM2x.s:2286   .text:0000000000000970 .L0 
     /tmp/cc4XBM2x.s:2291   .text:0000000000000980 .L0 
     /tmp/cc4XBM2x.s:2292   .text:0000000000000980 .L0 
     /tmp/cc4XBM2x.s:2298   .text:0000000000000990 .L0 
     /tmp/cc4XBM2x.s:2299   .text:0000000000000990 .L0 
     /tmp/cc4XBM2x.s:2303   .text:00000000000009a0 .L0 
     /tmp/cc4XBM2x.s:2304   .text:00000000000009a0 .L0 
     /tmp/cc4XBM2x.s:2310   .text:00000000000009b4 .L0 
     /tmp/cc4XBM2x.s:2311   .text:00000000000009b4 .L0 
     /tmp/cc4XBM2x.s:2315   .text:00000000000009c4 .L0 
     /tmp/cc4XBM2x.s:2316   .text:00000000000009c4 .L0 
     /tmp/cc4XBM2x.s:2322   .text:00000000000009d8 .L0 
     /tmp/cc4XBM2x.s:2323   .text:00000000000009d8 .L0 
     /tmp/cc4XBM2x.s:2327   .text:00000000000009e8 .L0 
     /tmp/cc4XBM2x.s:2329   .text:00000000000009ec .L0 
     /tmp/cc4XBM2x.s:2331   .text:00000000000009f0 .L0 
     /tmp/cc4XBM2x.s:2332   .text:00000000000009f0 .L0 
     /tmp/cc4XBM2x.s:2345   .text:0000000000000a10 .L0 
     /tmp/cc4XBM2x.s:2346   .text:0000000000000a10 .L0 
     /tmp/cc4XBM2x.s:2351   .text:0000000000000a20 .L0 
     /tmp/cc4XBM2x.s:2354   .text:0000000000000a24 .L0 
     /tmp/cc4XBM2x.s:2355   .text:0000000000000a24 .L0 
     /tmp/cc4XBM2x.s:2360   .text:0000000000000a34 .L0 
     /tmp/cc4XBM2x.s:2365   .text:0000000000000a3c .L0 
     /tmp/cc4XBM2x.s:2366   .text:0000000000000a3c .L0 
     /tmp/cc4XBM2x.s:2378   .text:0000000000000a58 .L0 
     /tmp/cc4XBM2x.s:2382   .text:0000000000000a64 .L0 
     /tmp/cc4XBM2x.s:2383   .text:0000000000000a64 .L0 
     /tmp/cc4XBM2x.s:2390   .text:0000000000000a78 .L0 
     /tmp/cc4XBM2x.s:2391   .text:0000000000000a78 .L0 
     /tmp/cc4XBM2x.s:2392   .text:0000000000000a78 .L0 
     /tmp/cc4XBM2x.s:2395   .text:0000000000000a7c .L0 
     /tmp/cc4XBM2x.s:2405   .text:0000000000000a98 .L0 
GAS LISTING /tmp/cc4XBM2x.s 			page 102


     /tmp/cc4XBM2x.s:2406   .text:0000000000000a98 .L0 
     /tmp/cc4XBM2x.s:2412   .text:0000000000000aac .L0 
     /tmp/cc4XBM2x.s:2413   .text:0000000000000aac .L0 
     /tmp/cc4XBM2x.s:2415   .text:0000000000000ab0 .L0 
     /tmp/cc4XBM2x.s:2416   .text:0000000000000ab0 .L0 
     /tmp/cc4XBM2x.s:2419   .text:0000000000000ab8 .L0 
     /tmp/cc4XBM2x.s:2420   .text:0000000000000ab8 .L0 
     /tmp/cc4XBM2x.s:2427   .text:0000000000000ac8 .L0 
     /tmp/cc4XBM2x.s:2430   .text:0000000000000ad0 .L0 
     /tmp/cc4XBM2x.s:2436   .text:0000000000000ad4 .L0 
     /tmp/cc4XBM2x.s:2440   .text:0000000000000adc .L0 
     /tmp/cc4XBM2x.s:2447   .text:0000000000000aec .L0 
     /tmp/cc4XBM2x.s:2448   .text:0000000000000aec .L0 
     /tmp/cc4XBM2x.s:2454   .text:0000000000000af8 .L0 
     /tmp/cc4XBM2x.s:2461   .text:0000000000000b00 .L0 
     /tmp/cc4XBM2x.s:2468   .text:0000000000000b10 .L0 
     /tmp/cc4XBM2x.s:2473   .text:0000000000000b1c .L0 
     /tmp/cc4XBM2x.s:2474   .text:0000000000000b1c .L0 
     /tmp/cc4XBM2x.s:2477   .text:0000000000000b24 .L0 
     /tmp/cc4XBM2x.s:2481   .text:0000000000000b30 .L0 
     /tmp/cc4XBM2x.s:2485   .text:0000000000000b34 .L0 
     /tmp/cc4XBM2x.s:2487   .text:0000000000000b38 .L0 
     /tmp/cc4XBM2x.s:2488   .text:0000000000000b38 .L0 
     /tmp/cc4XBM2x.s:2494   .text:0000000000000b4c .L0 
     /tmp/cc4XBM2x.s:2495   .text:0000000000000b4c .L0 
     /tmp/cc4XBM2x.s:2497   .text:0000000000000b50 .L0 
     /tmp/cc4XBM2x.s:2498   .text:0000000000000b50 .L0 
     /tmp/cc4XBM2x.s:2501   .text:0000000000000b5c .L0 
     /tmp/cc4XBM2x.s:2503   .text:0000000000000b60 .L0 
     /tmp/cc4XBM2x.s:2504   .text:0000000000000b60 .L0 
     /tmp/cc4XBM2x.s:2510   .text:0000000000000b70 .L0 
     /tmp/cc4XBM2x.s:2514   .text:0000000000000b7c .L0 
     /tmp/cc4XBM2x.s:2520   .text:0000000000000b80 .L0 
     /tmp/cc4XBM2x.s:2529   .text:0000000000000b8c .L0 
     /tmp/cc4XBM2x.s:2530   .text:0000000000000b8c .L0 
     /tmp/cc4XBM2x.s:2537   .text:0000000000000b9c .L0 
     /tmp/cc4XBM2x.s:2541   .text:0000000000000ba8 .L0 
     /tmp/cc4XBM2x.s:2547   .text:0000000000000bac .L0 
     /tmp/cc4XBM2x.s:2557   .text:0000000000000bc4 .L0 
     /tmp/cc4XBM2x.s:2565   .text:0000000000000bd4 .L0 
     /tmp/cc4XBM2x.s:2566   .text:0000000000000bd4 .L0 
     /tmp/cc4XBM2x.s:2570   .text:0000000000000bdc .L0 
     /tmp/cc4XBM2x.s:2574   .text:0000000000000be0 .L0 
     /tmp/cc4XBM2x.s:2576   .text:0000000000000be4 .L0 
     /tmp/cc4XBM2x.s:2577   .text:0000000000000be4 .L0 
     /tmp/cc4XBM2x.s:2581   .text:0000000000000bf4 .L0 
     /tmp/cc4XBM2x.s:2589   .text:0000000000000bfc .L0 
     /tmp/cc4XBM2x.s:2595   .text:0000000000000c04 .L0 
     /tmp/cc4XBM2x.s:2599   .text:0000000000000c08 .L0 
     /tmp/cc4XBM2x.s:2601   .text:0000000000000c0c .L0 
     /tmp/cc4XBM2x.s:2602   .text:0000000000000c0c .L0 
     /tmp/cc4XBM2x.s:2606   .text:0000000000000c18 .L0 
     /tmp/cc4XBM2x.s:2608   .text:0000000000000c1c .L0 
     /tmp/cc4XBM2x.s:2616   .text:0000000000000c2c .L0 
     /tmp/cc4XBM2x.s:2617   .text:0000000000000c2c .L0 
     /tmp/cc4XBM2x.s:2619   .text:0000000000000c30 .L0 
     /tmp/cc4XBM2x.s:2626   .text:0000000000000c40 .L0 
GAS LISTING /tmp/cc4XBM2x.s 			page 103


     /tmp/cc4XBM2x.s:2627   .text:0000000000000c40 .L0 
     /tmp/cc4XBM2x.s:2629   .text:0000000000000c48 .L0 
     /tmp/cc4XBM2x.s:2631   .text:0000000000000c4c .L0 
     /tmp/cc4XBM2x.s:2637   .text:0000000000000c58 .L0 
     /tmp/cc4XBM2x.s:2638   .text:0000000000000c58 .L0 
     /tmp/cc4XBM2x.s:2640   .text:0000000000000c5c .L0 
     /tmp/cc4XBM2x.s:2652   .text:0000000000000c78 .L0 
     /tmp/cc4XBM2x.s:2653   .text:0000000000000c7c .L0 
     /tmp/cc4XBM2x.s:2654   .text:0000000000000c7c .L0 
     /tmp/cc4XBM2x.s:2656   .text:0000000000000c80 .L0 
     /tmp/cc4XBM2x.s:2658   .text:0000000000000c84 .L0 
     /tmp/cc4XBM2x.s:2660   .text:0000000000000c88 .L0 
     /tmp/cc4XBM2x.s:2662   .text:0000000000000c8c .L0 
     /tmp/cc4XBM2x.s:2665   .text:0000000000000c90 .L0 
     /tmp/cc4XBM2x.s:2667   .text:0000000000000c94 .L0 
     /tmp/cc4XBM2x.s:2669   .text:0000000000000c98 .L0 
     /tmp/cc4XBM2x.s:2671   .text:0000000000000c9c .L0 
     /tmp/cc4XBM2x.s:2673   .text:0000000000000ca0 .L0 
     /tmp/cc4XBM2x.s:2675   .text:0000000000000ca4 .L0 
     /tmp/cc4XBM2x.s:2677   .text:0000000000000ca8 .L0 
     /tmp/cc4XBM2x.s:2679   .text:0000000000000cac .L0 
     /tmp/cc4XBM2x.s:2683   .text:0000000000000cb0 .L0 
     /tmp/cc4XBM2x.s:2687   .text:0000000000000cb4 .L0 
     /tmp/cc4XBM2x.s:2699   .text:0000000000000cd0 .L0 
     /tmp/cc4XBM2x.s:2711   .text:0000000000000cec .L0 
     /tmp/cc4XBM2x.s:2724   .text:0000000000000d08 .L0 
     /tmp/cc4XBM2x.s:2736   .text:0000000000000d24 .L0 
     /tmp/cc4XBM2x.s:2745   .text:0000000000000d3c .L0 
     /tmp/cc4XBM2x.s:2823   .text:0000000000000d3c _Z12testSleepingv
     /tmp/cc4XBM2x.s:2826   .text:0000000000000d3c .L0 
     /tmp/cc4XBM2x.s:2827   .text:0000000000000d3c .L0 
     /tmp/cc4XBM2x.s:2828   .text:0000000000000d40 .L0 
     /tmp/cc4XBM2x.s:2832   .text:0000000000000d4c .L0 
     /tmp/cc4XBM2x.s:2833   .text:0000000000000d4c .L0 
     /tmp/cc4XBM2x.s:2834   .text:0000000000000d4c .L0 
     /tmp/cc4XBM2x.s:2836   .text:0000000000000d50 .L0 
     /tmp/cc4XBM2x.s:2839   .text:0000000000000d50 .L0 
     /tmp/cc4XBM2x.s:2840   .text:0000000000000d50 .L0 
     /tmp/cc4XBM2x.s:2841   .text:0000000000000d50 .L0 
     /tmp/cc4XBM2x.s:2846   .text:0000000000000d60 .L0 
     /tmp/cc4XBM2x.s:2849   .text:0000000000000d60 .L0 
     /tmp/cc4XBM2x.s:2850   .text:0000000000000d60 .L0 
     /tmp/cc4XBM2x.s:2855   .text:0000000000000d68 .L0 
     /tmp/cc4XBM2x.s:2856   .text:0000000000000d68 .L0 
     /tmp/cc4XBM2x.s:2858   .text:0000000000000d6c .L0 
     /tmp/cc4XBM2x.s:2866   .text:0000000000000d8c .L0 
     /tmp/cc4XBM2x.s:2870   .text:0000000000000d90 .L0 
     /tmp/cc4XBM2x.s:2875   .text:0000000000000d98 .L0 
     /tmp/cc4XBM2x.s:2876   .text:0000000000000d98 .L0 
     /tmp/cc4XBM2x.s:2877   .text:0000000000000d98 .L0 
     /tmp/cc4XBM2x.s:2879   .text:0000000000000da0 .L0 
     /tmp/cc4XBM2x.s:2881   .text:0000000000000da4 .L0 
     /tmp/cc4XBM2x.s:2883   .text:0000000000000dac .L0 
     /tmp/cc4XBM2x.s:2885   .text:0000000000000db0 .L0 
     /tmp/cc4XBM2x.s:2886   .text:0000000000000db4 .L0 
     /tmp/cc4XBM2x.s:2888   .text:0000000000000db8 .L0 
     /tmp/cc4XBM2x.s:2889   .text:0000000000000db8 .L0 
GAS LISTING /tmp/cc4XBM2x.s 			page 104


     /tmp/cc4XBM2x.s:2891   .text:0000000000000dbc .L0 
     /tmp/cc4XBM2x.s:2894   .text:0000000000000dc0 .L0 
     /tmp/cc4XBM2x.s:2896   .text:0000000000000dc4 .L0 
     /tmp/cc4XBM2x.s:2902   .text:0000000000000dc4 _ZN19ConsumerProducerCPP20testConsumerProducerEv
     /tmp/cc4XBM2x.s:2905   .text:0000000000000dc4 .L0 
     /tmp/cc4XBM2x.s:2908   .text:0000000000000dc4 .L0 
     /tmp/cc4XBM2x.s:2909   .text:0000000000000dc8 .L0 
     /tmp/cc4XBM2x.s:2921   .text:0000000000000df4 .L0 
     /tmp/cc4XBM2x.s:2922   .text:0000000000000df4 .L0 
     /tmp/cc4XBM2x.s:2923   .text:0000000000000df4 .L0 
     /tmp/cc4XBM2x.s:2924   .text:0000000000000df4 .L0 
     /tmp/cc4XBM2x.s:2925   .text:0000000000000df4 .L0 
     /tmp/cc4XBM2x.s:2926   .text:0000000000000df4 .L0 
     /tmp/cc4XBM2x.s:2927   .text:0000000000000df4 .L0 
     /tmp/cc4XBM2x.s:2928   .text:0000000000000df4 .L0 
     /tmp/cc4XBM2x.s:2929   .text:0000000000000df4 .L0 
     /tmp/cc4XBM2x.s:2930   .text:0000000000000df4 .L0 
     /tmp/cc4XBM2x.s:2931   .text:0000000000000df4 .L0 
     /tmp/cc4XBM2x.s:2933   .text:0000000000000df8 .L0 
     /tmp/cc4XBM2x.s:2935   .text:0000000000000df8 .L0 
     /tmp/cc4XBM2x.s:2937   .text:0000000000000dfc .L0 
     /tmp/cc4XBM2x.s:2938   .text:0000000000000dfc .L0 
     /tmp/cc4XBM2x.s:2939   .text:0000000000000dfc .L0 
     /tmp/cc4XBM2x.s:2940   .text:0000000000000dfc .L0 
     /tmp/cc4XBM2x.s:2945   .text:0000000000000e0c .L0 
     /tmp/cc4XBM2x.s:2946   .text:0000000000000e0c .L0 
     /tmp/cc4XBM2x.s:2952   .text:0000000000000e20 .L0 
     /tmp/cc4XBM2x.s:2953   .text:0000000000000e20 .L0 
     /tmp/cc4XBM2x.s:2959   .text:0000000000000e30 .L0 
     /tmp/cc4XBM2x.s:2960   .text:0000000000000e30 .L0 
     /tmp/cc4XBM2x.s:2964   .text:0000000000000e40 .L0 
     /tmp/cc4XBM2x.s:2965   .text:0000000000000e40 .L0 
     /tmp/cc4XBM2x.s:2970   .text:0000000000000e50 .L0 
     /tmp/cc4XBM2x.s:2971   .text:0000000000000e50 .L0 
     /tmp/cc4XBM2x.s:2977   .text:0000000000000e60 .L0 
     /tmp/cc4XBM2x.s:2978   .text:0000000000000e60 .L0 
     /tmp/cc4XBM2x.s:2982   .text:0000000000000e70 .L0 
     /tmp/cc4XBM2x.s:2983   .text:0000000000000e70 .L0 
     /tmp/cc4XBM2x.s:2989   .text:0000000000000e84 .L0 
     /tmp/cc4XBM2x.s:2990   .text:0000000000000e84 .L0 
     /tmp/cc4XBM2x.s:2994   .text:0000000000000e94 .L0 
     /tmp/cc4XBM2x.s:2995   .text:0000000000000e94 .L0 
     /tmp/cc4XBM2x.s:3001   .text:0000000000000ea8 .L0 
     /tmp/cc4XBM2x.s:3002   .text:0000000000000ea8 .L0 
     /tmp/cc4XBM2x.s:3006   .text:0000000000000eb8 .L0 
     /tmp/cc4XBM2x.s:3008   .text:0000000000000ebc .L0 
     /tmp/cc4XBM2x.s:3010   .text:0000000000000ec0 .L0 
     /tmp/cc4XBM2x.s:3011   .text:0000000000000ec0 .L0 
     /tmp/cc4XBM2x.s:3024   .text:0000000000000ee0 .L0 
     /tmp/cc4XBM2x.s:3025   .text:0000000000000ee0 .L0 
     /tmp/cc4XBM2x.s:3030   .text:0000000000000ef0 .L0 
     /tmp/cc4XBM2x.s:3033   .text:0000000000000ef4 .L0 
     /tmp/cc4XBM2x.s:3034   .text:0000000000000ef4 .L0 
     /tmp/cc4XBM2x.s:3039   .text:0000000000000f04 .L0 
     /tmp/cc4XBM2x.s:3044   .text:0000000000000f0c .L0 
     /tmp/cc4XBM2x.s:3045   .text:0000000000000f0c .L0 
     /tmp/cc4XBM2x.s:3057   .text:0000000000000f28 .L0 
GAS LISTING /tmp/cc4XBM2x.s 			page 105


     /tmp/cc4XBM2x.s:3061   .text:0000000000000f34 .L0 
     /tmp/cc4XBM2x.s:3062   .text:0000000000000f34 .L0 
     /tmp/cc4XBM2x.s:3069   .text:0000000000000f48 .L0 
     /tmp/cc4XBM2x.s:3070   .text:0000000000000f48 .L0 
     /tmp/cc4XBM2x.s:3073   .text:0000000000000f4c .L0 
     /tmp/cc4XBM2x.s:3083   .text:0000000000000f68 .L0 
     /tmp/cc4XBM2x.s:3084   .text:0000000000000f68 .L0 
     /tmp/cc4XBM2x.s:3090   .text:0000000000000f7c .L0 
     /tmp/cc4XBM2x.s:3091   .text:0000000000000f7c .L0 
     /tmp/cc4XBM2x.s:3093   .text:0000000000000f80 .L0 
     /tmp/cc4XBM2x.s:3094   .text:0000000000000f80 .L0 
     /tmp/cc4XBM2x.s:3097   .text:0000000000000f88 .L0 
     /tmp/cc4XBM2x.s:3098   .text:0000000000000f88 .L0 
     /tmp/cc4XBM2x.s:3109   .text:0000000000000f98 .L0 
     /tmp/cc4XBM2x.s:3113   .text:0000000000000fa0 .L0 
     /tmp/cc4XBM2x.s:3120   .text:0000000000000fb0 .L0 
     /tmp/cc4XBM2x.s:3121   .text:0000000000000fb0 .L0 
     /tmp/cc4XBM2x.s:3126   .text:0000000000000fbc .L0 
     /tmp/cc4XBM2x.s:3127   .text:0000000000000fbc .L0 
     /tmp/cc4XBM2x.s:3129   .text:0000000000000fc0 .L0 
     /tmp/cc4XBM2x.s:3130   .text:0000000000000fc0 .L0 
     /tmp/cc4XBM2x.s:3132   .text:0000000000000fc4 .L0 
     /tmp/cc4XBM2x.s:3133   .text:0000000000000fc4 .L0 
     /tmp/cc4XBM2x.s:3136   .text:0000000000000fd0 .L0 
     /tmp/cc4XBM2x.s:3137   .text:0000000000000fd0 .L0 
     /tmp/cc4XBM2x.s:3147   .text:0000000000000fe0 .L0 
     /tmp/cc4XBM2x.s:3157   .text:0000000000000ff8 .L0 
     /tmp/cc4XBM2x.s:3159   .text:0000000000000ffc .L0 
     /tmp/cc4XBM2x.s:3160   .text:0000000000000ffc .L0 
     /tmp/cc4XBM2x.s:3166   .text:0000000000001008 .L0 
     /tmp/cc4XBM2x.s:3173   .text:0000000000001010 .L0 
     /tmp/cc4XBM2x.s:3180   .text:0000000000001020 .L0 
     /tmp/cc4XBM2x.s:3184   .text:000000000000102c .L0 
     /tmp/cc4XBM2x.s:3185   .text:000000000000102c .L0 
     /tmp/cc4XBM2x.s:3189   .text:0000000000001038 .L0 
     /tmp/cc4XBM2x.s:3193   .text:000000000000103c .L0 
     /tmp/cc4XBM2x.s:3195   .text:0000000000001040 .L0 
     /tmp/cc4XBM2x.s:3196   .text:0000000000001040 .L0 
     /tmp/cc4XBM2x.s:3202   .text:0000000000001054 .L0 
     /tmp/cc4XBM2x.s:3203   .text:0000000000001054 .L0 
     /tmp/cc4XBM2x.s:3205   .text:0000000000001058 .L0 
     /tmp/cc4XBM2x.s:3206   .text:0000000000001058 .L0 
     /tmp/cc4XBM2x.s:3209   .text:0000000000001064 .L0 
     /tmp/cc4XBM2x.s:3210   .text:0000000000001064 .L0 
     /tmp/cc4XBM2x.s:3220   .text:0000000000001074 .L0 
     /tmp/cc4XBM2x.s:3231   .text:0000000000001080 .L0 
     /tmp/cc4XBM2x.s:3232   .text:0000000000001080 .L0 
     /tmp/cc4XBM2x.s:3236   .text:0000000000001088 .L0 
     /tmp/cc4XBM2x.s:3240   .text:000000000000108c .L0 
     /tmp/cc4XBM2x.s:3242   .text:0000000000001090 .L0 
     /tmp/cc4XBM2x.s:3243   .text:0000000000001090 .L0 
     /tmp/cc4XBM2x.s:3247   .text:00000000000010a0 .L0 
     /tmp/cc4XBM2x.s:3254   .text:00000000000010a8 .L0 
     /tmp/cc4XBM2x.s:3255   .text:00000000000010a8 .L0 
     /tmp/cc4XBM2x.s:3257   .text:00000000000010b0 .L0 
     /tmp/cc4XBM2x.s:3259   .text:00000000000010b4 .L0 
     /tmp/cc4XBM2x.s:3266   .text:00000000000010c0 .L0 
GAS LISTING /tmp/cc4XBM2x.s 			page 106


     /tmp/cc4XBM2x.s:3274   .text:00000000000010c8 .L0 
     /tmp/cc4XBM2x.s:3278   .text:00000000000010cc .L0 
     /tmp/cc4XBM2x.s:3280   .text:00000000000010d0 .L0 
     /tmp/cc4XBM2x.s:3281   .text:00000000000010d0 .L0 
     /tmp/cc4XBM2x.s:3285   .text:00000000000010dc .L0 
     /tmp/cc4XBM2x.s:3287   .text:00000000000010e0 .L0 
     /tmp/cc4XBM2x.s:3295   .text:00000000000010f0 .L0 
     /tmp/cc4XBM2x.s:3296   .text:00000000000010f0 .L0 
     /tmp/cc4XBM2x.s:3298   .text:00000000000010f4 .L0 
     /tmp/cc4XBM2x.s:3305   .text:0000000000001104 .L0 
     /tmp/cc4XBM2x.s:3306   .text:0000000000001104 .L0 
     /tmp/cc4XBM2x.s:3308   .text:0000000000001108 .L0 
     /tmp/cc4XBM2x.s:3320   .text:0000000000001124 .L0 
     /tmp/cc4XBM2x.s:3321   .text:0000000000001128 .L0 
     /tmp/cc4XBM2x.s:3322   .text:0000000000001128 .L0 
     /tmp/cc4XBM2x.s:3324   .text:000000000000112c .L0 
     /tmp/cc4XBM2x.s:3326   .text:0000000000001130 .L0 
     /tmp/cc4XBM2x.s:3328   .text:0000000000001134 .L0 
     /tmp/cc4XBM2x.s:3330   .text:0000000000001138 .L0 
     /tmp/cc4XBM2x.s:3332   .text:000000000000113c .L0 
     /tmp/cc4XBM2x.s:3335   .text:0000000000001140 .L0 
     /tmp/cc4XBM2x.s:3337   .text:0000000000001144 .L0 
     /tmp/cc4XBM2x.s:3339   .text:0000000000001148 .L0 
     /tmp/cc4XBM2x.s:3341   .text:000000000000114c .L0 
     /tmp/cc4XBM2x.s:3343   .text:0000000000001150 .L0 
     /tmp/cc4XBM2x.s:3345   .text:0000000000001154 .L0 
     /tmp/cc4XBM2x.s:3347   .text:0000000000001158 .L0 
     /tmp/cc4XBM2x.s:3351   .text:000000000000115c .L0 
     /tmp/cc4XBM2x.s:3355   .text:0000000000001160 .L0 
     /tmp/cc4XBM2x.s:3366   .text:000000000000117c .L0 
     /tmp/cc4XBM2x.s:3378   .text:0000000000001198 .L0 
     /tmp/cc4XBM2x.s:3389   .text:00000000000011b4 .L0 
     /tmp/cc4XBM2x.s:3402   .text:00000000000011d0 .L0 
     /tmp/cc4XBM2x.s:3411   .text:00000000000011e8 .L0 
     /tmp/cc4XBM2x.s:3488   .text:00000000000011e8 _Z8userMainv
     /tmp/cc4XBM2x.s:3492   .text:00000000000011e8 .L0 
     /tmp/cc4XBM2x.s:3493   .text:00000000000011e8 .L0 
     /tmp/cc4XBM2x.s:3494   .text:00000000000011ec .L0 
     /tmp/cc4XBM2x.s:3497   .text:00000000000011f4 .L0 
     /tmp/cc4XBM2x.s:3498   .text:00000000000011f4 .L0 
     /tmp/cc4XBM2x.s:3500   .text:00000000000011f8 .L0 
     /tmp/cc4XBM2x.s:3502   .text:00000000000011f8 .L0 
     /tmp/cc4XBM2x.s:3503   .text:00000000000011f8 .L0 
     /tmp/cc4XBM2x.s:3506   .text:0000000000001200 .L0 
     /tmp/cc4XBM2x.s:3507   .text:0000000000001204 .L0 
     /tmp/cc4XBM2x.s:3509   .text:0000000000001208 .L0 
     /tmp/cc4XBM2x.s:3510   .text:0000000000001208 .L0 
     /tmp/cc4XBM2x.s:3512   .text:000000000000120c .L0 
     /tmp/cc4XBM2x.s:3514   .text:0000000000001210 .L0 
     /tmp/cc4XBM2x.s:3606   .bss:0000000000000004 _ZN19ConsumerProducerCPP9threadEndE
     /tmp/cc4XBM2x.s:3630   .bss:0000000000000018 _ZN19ConsumerProducerCPP10waitForAllE
     /tmp/cc4XBM2x.s:3610   .bss:0000000000000008 finished
     /tmp/cc4XBM2x.s:3622   .bss:000000000000000c threadEnd
     /tmp/cc4XBM2x.s:3626   .bss:0000000000000010 waitForAll
     /tmp/cc4XBM2x.s:3618   .bss:000000000000000b finishedD
     /tmp/cc4XBM2x.s:3614   .bss:000000000000000a finishedC
     /tmp/cc4XBM2x.s:3601   .bss:0000000000000001 finishedB
GAS LISTING /tmp/cc4XBM2x.s 			page 107


     /tmp/cc4XBM2x.s:3597   .bss:0000000000000000 finishedA
     /tmp/cc4XBM2x.s:3594   .bss:0000000000000000 .LANCHOR0
     /tmp/cc4XBM2x.s:3640   .text:0000000000001210 .L0 
     /tmp/cc4XBM2x.s:361    .text._ZN19ConsumerProducerCPP16ProducerKeyborad3runEv:0000000000000084 .L0 
     /tmp/cc4XBM2x.s:485    .text._ZN19ConsumerProducerCPP8Consumer3runEv:00000000000000d0 .L0 
     /tmp/cc4XBM2x.s:523    .text._ZN8ConsumerD2Ev:0000000000000034 .L0 
     /tmp/cc4XBM2x.s:570    .text._ZN8ConsumerD0Ev:000000000000004c .L0 
     /tmp/cc4XBM2x.s:607    .text._ZN8ProducerD2Ev:0000000000000034 .L0 
     /tmp/cc4XBM2x.s:654    .text._ZN8ProducerD0Ev:000000000000004c .L0 
     /tmp/cc4XBM2x.s:691    .text._ZN16ProducerKeyboardD2Ev:0000000000000034 .L0 
     /tmp/cc4XBM2x.s:738    .text._ZN16ProducerKeyboardD0Ev:000000000000004c .L0 
     /tmp/cc4XBM2x.s:775    .text._ZN19ConsumerProducerCPP8ConsumerD2Ev:0000000000000034 .L0 
     /tmp/cc4XBM2x.s:822    .text._ZN19ConsumerProducerCPP8ConsumerD0Ev:000000000000004c .L0 
     /tmp/cc4XBM2x.s:859    .text._ZN19ConsumerProducerCPP16ProducerKeyboradD2Ev:0000000000000034 .L0 
     /tmp/cc4XBM2x.s:906    .text._ZN19ConsumerProducerCPP16ProducerKeyboradD0Ev:000000000000004c .L0 
     /tmp/cc4XBM2x.s:943    .text._ZN19ConsumerProducerCPP8ProducerD2Ev:0000000000000034 .L0 
     /tmp/cc4XBM2x.s:990    .text._ZN19ConsumerProducerCPP8ProducerD0Ev:000000000000004c .L0 
     /tmp/cc4XBM2x.s:1171   .text._ZN19ConsumerProducerCPP8Producer3runEv:0000000000000094 .L0 
     /tmp/cc4XBM2x.s:1894   .text._ZN16ProducerKeyboard3runEv:000000000000002c .L0 
     /tmp/cc4XBM2x.s:2017   .text._ZN8Producer3runEv:000000000000002c .L0 
     /tmp/cc4XBM2x.s:2197   .text._ZN8Consumer3runEv:000000000000002c .L0 
     /tmp/cc4XBM2x.s:8      .rodata.str1.8:0000000000000000 .LC0
     /tmp/cc4XBM2x.s:92     .text:000000000000005c .L0 
     /tmp/cc4XBM2x.s:11     .rodata.str1.8:0000000000000008 .LC1
     /tmp/cc4XBM2x.s:104    .text:0000000000000080 .L0 
     /tmp/cc4XBM2x.s:14     .rodata.str1.8:0000000000000010 .LC2
     /tmp/cc4XBM2x.s:119    .text:0000000000000098 .L0 
     /tmp/cc4XBM2x.s:125    .text:00000000000000ac .L0 
     /tmp/cc4XBM2x.s:145    .rodata.str1.8:0000000000000020 .LC3
     /tmp/cc4XBM2x.s:225    .text:0000000000000128 .L0 
     /tmp/cc4XBM2x.s:237    .text:000000000000014c .L0 
     /tmp/cc4XBM2x.s:148    .rodata.str1.8:0000000000000028 .LC4
     /tmp/cc4XBM2x.s:252    .text:0000000000000164 .L0 
     /tmp/cc4XBM2x.s:258    .text:0000000000000178 .L0 
     /tmp/cc4XBM2x.s:992    .rodata.str1.8:0000000000000038 .LC5
     /tmp/cc4XBM2x.s:1035   .text:00000000000001c8 .L0 
     /tmp/cc4XBM2x.s:995    .rodata.str1.8:0000000000000040 .LC6
     /tmp/cc4XBM2x.s:1047   .text:00000000000001ec .L0 
     /tmp/cc4XBM2x.s:1066   .text:0000000000000218 .L0 
     /tmp/cc4XBM2x.s:1245   .rodata.str1.8:0000000000000048 .LC7
     /tmp/cc4XBM2x.s:1286   .text:00000000000002d8 .L0 
     /tmp/cc4XBM2x.s:1298   .text:00000000000002fc .L0 
     /tmp/cc4XBM2x.s:1248   .rodata.str1.8:0000000000000050 .LC8
     /tmp/cc4XBM2x.s:1313   .text:000000000000031c .L0 
     /tmp/cc4XBM2x.s:1251   .rodata.str1.8:0000000000000060 .LC9
     /tmp/cc4XBM2x.s:1338   .text:000000000000033c .L0 
     /tmp/cc4XBM2x.s:1350   .text:0000000000000360 .L0 
     /tmp/cc4XBM2x.s:1254   .rodata.str1.8:0000000000000068 .LC10
     /tmp/cc4XBM2x.s:1362   .text:0000000000000380 .L0 
     /tmp/cc4XBM2x.s:1375   .text:00000000000003a4 .L0 
     /tmp/cc4XBM2x.s:1382   .text:00000000000003b8 .L0 
     /tmp/cc4XBM2x.s:1394   .text:00000000000003dc .L0 
     /tmp/cc4XBM2x.s:1409   .text:00000000000003fc .L0 
     /tmp/cc4XBM2x.s:1415   .text:0000000000000410 .L0 
     /tmp/cc4XBM2x.s:1440   .rodata.str1.8:0000000000000078 .LC11
     /tmp/cc4XBM2x.s:1481   .text:0000000000000458 .L0 
     /tmp/cc4XBM2x.s:1493   .text:000000000000047c .L0 
GAS LISTING /tmp/cc4XBM2x.s 			page 108


     /tmp/cc4XBM2x.s:1443   .rodata.str1.8:0000000000000080 .LC12
     /tmp/cc4XBM2x.s:1508   .text:000000000000049c .L0 
     /tmp/cc4XBM2x.s:1446   .rodata.str1.8:0000000000000090 .LC13
     /tmp/cc4XBM2x.s:1531   .text:00000000000004c8 .L0 
     /tmp/cc4XBM2x.s:1544   .text:00000000000004ec .L0 
     /tmp/cc4XBM2x.s:1551   .text:0000000000000500 .L0 
     /tmp/cc4XBM2x.s:1563   .text:0000000000000524 .L0 
     /tmp/cc4XBM2x.s:1449   .rodata.str1.8:00000000000000a0 .LC14
     /tmp/cc4XBM2x.s:1578   .text:0000000000000544 .L0 
     /tmp/cc4XBM2x.s:1584   .text:0000000000000558 .L0 
     /tmp/cc4XBM2x.s:1642   .text:0000000000000598 .L0 
     /tmp/cc4XBM2x.s:1609   .rodata.str1.8:00000000000000b0 .LC15
     /tmp/cc4XBM2x.s:1648   .text:00000000000005ac .L0 
     /tmp/cc4XBM2x.s:1654   .text:00000000000005c0 .L0 
     /tmp/cc4XBM2x.s:1612   .rodata.str1.8:00000000000000c8 .LC16
     /tmp/cc4XBM2x.s:1660   .text:00000000000005d4 .L0 
     /tmp/cc4XBM2x.s:1666   .text:00000000000005e8 .L0 
     /tmp/cc4XBM2x.s:1615   .rodata.str1.8:00000000000000e0 .LC17
     /tmp/cc4XBM2x.s:1672   .text:00000000000005fc .L0 
     /tmp/cc4XBM2x.s:1678   .text:0000000000000610 .L0 
     /tmp/cc4XBM2x.s:1618   .rodata.str1.8:00000000000000f8 .LC18
     /tmp/cc4XBM2x.s:1684   .text:0000000000000624 .L0 
     /tmp/cc4XBM2x.s:1696   .text:0000000000000640 .L0 
     /tmp/cc4XBM2x.s:1699   .text:000000000000064c .L0 
     /tmp/cc4XBM2x.s:1702   .text:0000000000000658 .L0 
     /tmp/cc4XBM2x.s:1705   .text:0000000000000664 .L0 
     /tmp/cc4XBM2x.s:1824   .text:0000000000000728 .L0 
     /tmp/cc4XBM2x.s:1931   .text:0000000000000798 .L0 
     /tmp/cc4XBM2x.s:2069   .text:0000000000000848 .L0 
     /tmp/cc4XBM2x.s:2199   .rodata.str1.8:0000000000000110 .LC19
     /tmp/cc4XBM2x.s:2261   .text:000000000000092c .L0 
     /tmp/cc4XBM2x.s:2202   .rodata.str1.8:0000000000000130 .LC20
     /tmp/cc4XBM2x.s:2281   .text:0000000000000960 .L0 
     /tmp/cc4XBM2x.s:2205   .rodata.str1.8:0000000000000150 .LC21
     /tmp/cc4XBM2x.s:2299   .text:0000000000000990 .L0 
     /tmp/cc4XBM2x.s:2208   .rodata.str1.8:0000000000000168 .LC22
     /tmp/cc4XBM2x.s:2311   .text:00000000000009b4 .L0 
     /tmp/cc4XBM2x.s:2211   .rodata.str1.8:0000000000000180 .LC23
     /tmp/cc4XBM2x.s:2323   .text:00000000000009d8 .L0 
     /tmp/cc4XBM2x.s:2214   .rodata.str1.8:0000000000000188 .LC24
     /tmp/cc4XBM2x.s:2346   .text:0000000000000a10 .L0 
     /tmp/cc4XBM2x.s:2217   .rodata.str1.8:00000000000001c8 .LC25
     /tmp/cc4XBM2x.s:2355   .text:0000000000000a24 .L0 
     /tmp/cc4XBM2x.s:2378   .text:0000000000000a58 .L0 
     /tmp/cc4XBM2x.s:2440   .text:0000000000000adc .L0 
     /tmp/cc4XBM2x.s:2461   .text:0000000000000b00 .L0 
     /tmp/cc4XBM2x.s:2498   .text:0000000000000b50 .L0 
     /tmp/cc4XBM2x.s:2550   .text:0000000000000bb4 .L0 
     /tmp/cc4XBM2x.s:2577   .text:0000000000000be4 .L0 
     /tmp/cc4XBM2x.s:2627   .text:0000000000000c40 .L0 
     /tmp/cc4XBM2x.s:2860   .text:0000000000000d74 .L0 
     /tmp/cc4XBM2x.s:2877   .text:0000000000000d98 .L0 
     /tmp/cc4XBM2x.s:2881   .text:0000000000000da4 .L0 
     /tmp/cc4XBM2x.s:2940   .text:0000000000000dfc .L0 
     /tmp/cc4XBM2x.s:2960   .text:0000000000000e30 .L0 
     /tmp/cc4XBM2x.s:2978   .text:0000000000000e60 .L0 
     /tmp/cc4XBM2x.s:2990   .text:0000000000000e84 .L0 
GAS LISTING /tmp/cc4XBM2x.s 			page 109


     /tmp/cc4XBM2x.s:3002   .text:0000000000000ea8 .L0 
     /tmp/cc4XBM2x.s:3025   .text:0000000000000ee0 .L0 
     /tmp/cc4XBM2x.s:3034   .text:0000000000000ef4 .L0 
     /tmp/cc4XBM2x.s:3057   .text:0000000000000f28 .L0 
     /tmp/cc4XBM2x.s:3113   .text:0000000000000fa0 .L0 
     /tmp/cc4XBM2x.s:3133   .text:0000000000000fc4 .L0 
     /tmp/cc4XBM2x.s:3150   .text:0000000000000fe8 .L0 
     /tmp/cc4XBM2x.s:3173   .text:0000000000001010 .L0 
     /tmp/cc4XBM2x.s:3206   .text:0000000000001058 .L0 
     /tmp/cc4XBM2x.s:3243   .text:0000000000001090 .L0 
     /tmp/cc4XBM2x.s:3255   .text:00000000000010a8 .L0 
     /tmp/cc4XBM2x.s:85     .text:0000000000000054 .L7
     /tmp/cc4XBM2x.s:77     .text:0000000000000050 .L3
     /tmp/cc4XBM2x.s:45     .text:0000000000000020 .L4
     /tmp/cc4XBM2x.s:66     .text:000000000000003c .L5
     /tmp/cc4XBM2x.s:113    .text:0000000000000098 .L2
     /tmp/cc4XBM2x.s:57     .text:000000000000002c .L6
     /tmp/cc4XBM2x.s:218    .text:0000000000000120 .L15
     /tmp/cc4XBM2x.s:210    .text:000000000000011c .L11
     /tmp/cc4XBM2x.s:178    .text:00000000000000ec .L12
     /tmp/cc4XBM2x.s:199    .text:0000000000000108 .L13
     /tmp/cc4XBM2x.s:246    .text:0000000000000164 .L10
     /tmp/cc4XBM2x.s:190    .text:00000000000000f8 .L14
     /tmp/cc4XBM2x.s:1057   .text:000000000000020c .L54
     /tmp/cc4XBM2x.s:1027   .text:00000000000001c0 .L55
     /tmp/cc4XBM2x.s:1216   .text:0000000000000294 .L61
     /tmp/cc4XBM2x.s:1233   .text:00000000000002ac .L66
     /tmp/cc4XBM2x.s:1203   .text:0000000000000274 .L63
     /tmp/cc4XBM2x.s:1306   .text:0000000000000314 .L69
     /tmp/cc4XBM2x.s:1283   .text:00000000000002d8 .L73
     /tmp/cc4XBM2x.s:1402   .text:00000000000003f4 .L71
     /tmp/cc4XBM2x.s:1379   .text:00000000000003b8 .L74
     /tmp/cc4XBM2x.s:1501   .text:0000000000000494 .L77
     /tmp/cc4XBM2x.s:1478   .text:0000000000000458 .L81
     /tmp/cc4XBM2x.s:1571   .text:000000000000053c .L79
     /tmp/cc4XBM2x.s:1548   .text:0000000000000500 .L82
     /tmp/cc4XBM2x.s:1693   .text:0000000000000640 .L86
     /tmp/cc4XBM2x.s:1688   .text:0000000000000638 .L84
     /tmp/cc4XBM2x.s:1716   .text:000000000000067c .L85
     /tmp/cc4XBM2x.s:1731   .text:0000000000000698 .L83
     /tmp/cc4XBM2x.s:1712   .text:0000000000000678 .L88
     /tmp/cc4XBM2x.s:1785   .text:00000000000006e0 .L92
     /tmp/cc4XBM2x.s:1820   .text:0000000000000724 .L93
     /tmp/cc4XBM2x.s:1780   .text:00000000000006d8 .L96
     /tmp/cc4XBM2x.s:1928   .text:0000000000000798 .L100
     /tmp/cc4XBM2x.s:1959   .text:00000000000007dc .L101
     /tmp/cc4XBM2x.s:1923   .text:0000000000000790 .L104
     /tmp/cc4XBM2x.s:2065   .text:0000000000000848 .L108
     /tmp/cc4XBM2x.s:2098   .text:0000000000000888 .L110
     /tmp/cc4XBM2x.s:2123   .text:00000000000008b4 .L109
     /tmp/cc4XBM2x.s:2051   .text:0000000000000830 .L114
     /tmp/cc4XBM2x.s:2059   .text:000000000000083c .L115
     /tmp/cc4XBM2x.s:2107   .text:0000000000000898 .L116
     /tmp/cc4XBM2x.s:2343   .text:0000000000000a10 .L147
     /tmp/cc4XBM2x.s:2352   .text:0000000000000a24 .L148
     /tmp/cc4XBM2x.s:2362   .text:0000000000000a3c .L149
     /tmp/cc4XBM2x.s:2359   .text:0000000000000a34 .L121
GAS LISTING /tmp/cc4XBM2x.s 			page 110


     /tmp/cc4XBM2x.s:2650   .text:0000000000000c78 .L119
     /tmp/cc4XBM2x.s:2483   .text:0000000000000b34 .L126
     /tmp/cc4XBM2x.s:2561   .text:0000000000000bd4 .L123
     /tmp/cc4XBM2x.s:2525   .text:0000000000000b8c .L124
     /tmp/cc4XBM2x.s:2457   .text:0000000000000b00 .L150
     /tmp/cc4XBM2x.s:2471   .text:0000000000000b1c .L125
     /tmp/cc4XBM2x.s:2585   .text:0000000000000bfc .L140
     /tmp/cc4XBM2x.s:2572   .text:0000000000000be0 .L128
     /tmp/cc4XBM2x.s:2597   .text:0000000000000c08 .L127
     /tmp/cc4XBM2x.s:2613   .text:0000000000000c2c .L129
     /tmp/cc4XBM2x.s:2593   .text:0000000000000c04 .L130
     /tmp/cc4XBM2x.s:2624   .text:0000000000000c40 .L131
     /tmp/cc4XBM2x.s:2635   .text:0000000000000c58 .L132
     /tmp/cc4XBM2x.s:2647   .text:0000000000000c74 .L133
     /tmp/cc4XBM2x.s:2868   .text:0000000000000d90 .L153
     /tmp/cc4XBM2x.s:2853   .text:0000000000000d68 .L156
     /tmp/cc4XBM2x.s:2872   .text:0000000000000d98 .L154
     /tmp/cc4XBM2x.s:3022   .text:0000000000000ee0 .L183
     /tmp/cc4XBM2x.s:3031   .text:0000000000000ef4 .L184
     /tmp/cc4XBM2x.s:3041   .text:0000000000000f0c .L185
     /tmp/cc4XBM2x.s:3038   .text:0000000000000f04 .L159
     /tmp/cc4XBM2x.s:3318   .text:0000000000001124 .L157
     /tmp/cc4XBM2x.s:3191   .text:000000000000103c .L162
     /tmp/cc4XBM2x.s:3225   .text:0000000000001080 .L161
     /tmp/cc4XBM2x.s:3169   .text:0000000000001010 .L186
     /tmp/cc4XBM2x.s:3251   .text:00000000000010a8 .L163
     /tmp/cc4XBM2x.s:3237   .text:000000000000108c .L164
     /tmp/cc4XBM2x.s:3263   .text:00000000000010c0 .L165
     /tmp/cc4XBM2x.s:3276   .text:00000000000010cc .L168
     /tmp/cc4XBM2x.s:3292   .text:00000000000010f0 .L166
     /tmp/cc4XBM2x.s:3270   .text:00000000000010c8 .L167
     /tmp/cc4XBM2x.s:3303   .text:0000000000001104 .L169
     /tmp/cc4XBM2x.s:3315   .text:0000000000001120 .L170
     /tmp/cc4XBM2x.s:330    .text._ZN19ConsumerProducerCPP16ProducerKeyborad3runEv:0000000000000044 .L0 
     /tmp/cc4XBM2x.s:326    .text._ZN19ConsumerProducerCPP16ProducerKeyborad3runEv:0000000000000040 .L18
     /tmp/cc4XBM2x.s:304    .text._ZN19ConsumerProducerCPP16ProducerKeyborad3runEv:0000000000000018 .L19
     /tmp/cc4XBM2x.s:402    .text._ZN19ConsumerProducerCPP8Consumer3runEv:0000000000000034 .L0 
     /tmp/cc4XBM2x.s:398    .text._ZN19ConsumerProducerCPP8Consumer3runEv:0000000000000034 .L22
     /tmp/cc4XBM2x.s:447    .text._ZN19ConsumerProducerCPP8Consumer3runEv:0000000000000090 .L23
     /tmp/cc4XBM2x.s:391    .text._ZN19ConsumerProducerCPP8Consumer3runEv:0000000000000028 .L27
     /tmp/cc4XBM2x.s:431    .text._ZN19ConsumerProducerCPP8Consumer3runEv:0000000000000074 .L28
     /tmp/cc4XBM2x.s:505    .text._ZN8ConsumerD2Ev:0000000000000010 .L0 
     /tmp/cc4XBM2x.s:547    .text._ZN8ConsumerD0Ev:0000000000000018 .L0 
     /tmp/cc4XBM2x.s:589    .text._ZN8ProducerD2Ev:0000000000000010 .L0 
     /tmp/cc4XBM2x.s:631    .text._ZN8ProducerD0Ev:0000000000000018 .L0 
     /tmp/cc4XBM2x.s:673    .text._ZN16ProducerKeyboardD2Ev:0000000000000010 .L0 
     /tmp/cc4XBM2x.s:715    .text._ZN16ProducerKeyboardD0Ev:0000000000000018 .L0 
     /tmp/cc4XBM2x.s:757    .text._ZN19ConsumerProducerCPP8ConsumerD2Ev:0000000000000010 .L0 
     /tmp/cc4XBM2x.s:799    .text._ZN19ConsumerProducerCPP8ConsumerD0Ev:0000000000000018 .L0 
     /tmp/cc4XBM2x.s:841    .text._ZN19ConsumerProducerCPP16ProducerKeyboradD2Ev:0000000000000010 .L0 
     /tmp/cc4XBM2x.s:883    .text._ZN19ConsumerProducerCPP16ProducerKeyboradD0Ev:0000000000000018 .L0 
     /tmp/cc4XBM2x.s:925    .text._ZN19ConsumerProducerCPP8ProducerD2Ev:0000000000000010 .L0 
     /tmp/cc4XBM2x.s:967    .text._ZN19ConsumerProducerCPP8ProducerD0Ev:0000000000000018 .L0 
     /tmp/cc4XBM2x.s:1116   .text._ZN19ConsumerProducerCPP8Producer3runEv:0000000000000020 .L0 
     /tmp/cc4XBM2x.s:1146   .text._ZN19ConsumerProducerCPP8Producer3runEv:000000000000006c .L58
     /tmp/cc4XBM2x.s:1113   .text._ZN19ConsumerProducerCPP8Producer3runEv:0000000000000020 .L59
     /tmp/cc4XBM2x.s:2262   .text:0000000000000934 .LEHB0
GAS LISTING /tmp/cc4XBM2x.s 			page 111


     /tmp/cc4XBM2x.s:2224   .text:00000000000008f4 .LFB35
     /tmp/cc4XBM2x.s:2335   .text:00000000000009fc .LEHE0
     /tmp/cc4XBM2x.s:2338   .text:0000000000000a04 .LEHB1
     /tmp/cc4XBM2x.s:2341   .text:0000000000000a0c .LEHE1
     /tmp/cc4XBM2x.s:2682   .text:0000000000000cb0 .L141
     /tmp/cc4XBM2x.s:2347   .text:0000000000000a18 .LEHB2
     /tmp/cc4XBM2x.s:2369   .text:0000000000000a48 .LEHE2
     /tmp/cc4XBM2x.s:2373   .text:0000000000000a50 .LEHB3
     /tmp/cc4XBM2x.s:2376   .text:0000000000000a58 .LEHE3
     /tmp/cc4XBM2x.s:2695   .text:0000000000000ccc .L142
     /tmp/cc4XBM2x.s:2421   .text:0000000000000abc .LEHB4
     /tmp/cc4XBM2x.s:2424   .text:0000000000000ac4 .LEHE4
     /tmp/cc4XBM2x.s:2432   .text:0000000000000ad4 .LEHB5
     /tmp/cc4XBM2x.s:2438   .text:0000000000000adc .LEHE5
     /tmp/cc4XBM2x.s:2707   .text:0000000000000ce8 .L143
     /tmp/cc4XBM2x.s:2449   .text:0000000000000af0 .LEHB6
     /tmp/cc4XBM2x.s:2507   .text:0000000000000b6c .LEHE6
     /tmp/cc4XBM2x.s:2516   .text:0000000000000b80 .LEHB7
     /tmp/cc4XBM2x.s:2522   .text:0000000000000b88 .LEHE7
     /tmp/cc4XBM2x.s:2719   .text:0000000000000d04 .L144
     /tmp/cc4XBM2x.s:2531   .text:0000000000000b90 .LEHB8
     /tmp/cc4XBM2x.s:2534   .text:0000000000000b98 .LEHE8
     /tmp/cc4XBM2x.s:2543   .text:0000000000000bac .LEHB9
     /tmp/cc4XBM2x.s:2549   .text:0000000000000bb4 .LEHE9
     /tmp/cc4XBM2x.s:2732   .text:0000000000000d20 .L145
     /tmp/cc4XBM2x.s:2564   .text:0000000000000bd4 .LEHB10
     /tmp/cc4XBM2x.s:2646   .text:0000000000000c74 .LEHE10
     /tmp/cc4XBM2x.s:2691   .text:0000000000000cc4 .LEHB11
     /tmp/cc4XBM2x.s:2694   .text:0000000000000ccc .LEHE11
     /tmp/cc4XBM2x.s:2703   .text:0000000000000ce0 .LEHB12
     /tmp/cc4XBM2x.s:2706   .text:0000000000000ce8 .LEHE12
     /tmp/cc4XBM2x.s:2715   .text:0000000000000cfc .LEHB13
     /tmp/cc4XBM2x.s:2718   .text:0000000000000d04 .LEHE13
     /tmp/cc4XBM2x.s:2728   .text:0000000000000d18 .LEHB14
     /tmp/cc4XBM2x.s:2731   .text:0000000000000d20 .LEHE14
     /tmp/cc4XBM2x.s:2740   .text:0000000000000d34 .LEHB15
     /tmp/cc4XBM2x.s:2743   .text:0000000000000d3c .LEHE15
     /tmp/cc4XBM2x.s:2941   .text:0000000000000e04 .LEHB16
     /tmp/cc4XBM2x.s:2903   .text:0000000000000dc4 .LFB50
     /tmp/cc4XBM2x.s:3014   .text:0000000000000ecc .LEHE16
     /tmp/cc4XBM2x.s:3017   .text:0000000000000ed4 .LEHB17
     /tmp/cc4XBM2x.s:3020   .text:0000000000000edc .LEHE17
     /tmp/cc4XBM2x.s:3350   .text:000000000000115c .L177
     /tmp/cc4XBM2x.s:3026   .text:0000000000000ee8 .LEHB18
     /tmp/cc4XBM2x.s:3048   .text:0000000000000f18 .LEHE18
     /tmp/cc4XBM2x.s:3052   .text:0000000000000f20 .LEHB19
     /tmp/cc4XBM2x.s:3055   .text:0000000000000f28 .LEHE19
     /tmp/cc4XBM2x.s:3363   .text:0000000000001178 .L178
     /tmp/cc4XBM2x.s:3099   .text:0000000000000f8c .LEHB20
     /tmp/cc4XBM2x.s:3102   .text:0000000000000f94 .LEHE20
     /tmp/cc4XBM2x.s:3105   .text:0000000000000f98 .LEHB21
     /tmp/cc4XBM2x.s:3111   .text:0000000000000fa0 .LEHE21
     /tmp/cc4XBM2x.s:3374   .text:0000000000001194 .L179
     /tmp/cc4XBM2x.s:3122   .text:0000000000000fb4 .LEHB22
     /tmp/cc4XBM2x.s:3140   .text:0000000000000fdc .LEHE22
     /tmp/cc4XBM2x.s:3143   .text:0000000000000fe0 .LEHB23
     /tmp/cc4XBM2x.s:3149   .text:0000000000000fe8 .LEHE23
GAS LISTING /tmp/cc4XBM2x.s 			page 112


     /tmp/cc4XBM2x.s:3386   .text:00000000000011b0 .L180
     /tmp/cc4XBM2x.s:3161   .text:0000000000001000 .LEHB24
     /tmp/cc4XBM2x.s:3213   .text:0000000000001070 .LEHE24
     /tmp/cc4XBM2x.s:3216   .text:0000000000001074 .LEHB25
     /tmp/cc4XBM2x.s:3222   .text:000000000000107c .LEHE25
     /tmp/cc4XBM2x.s:3397   .text:00000000000011cc .L181
     /tmp/cc4XBM2x.s:3230   .text:0000000000001080 .LEHB26
     /tmp/cc4XBM2x.s:3314   .text:0000000000001120 .LEHE26
     /tmp/cc4XBM2x.s:3359   .text:0000000000001170 .LEHB27
     /tmp/cc4XBM2x.s:3362   .text:0000000000001178 .LEHE27
     /tmp/cc4XBM2x.s:3370   .text:000000000000118c .LEHB28
     /tmp/cc4XBM2x.s:3373   .text:0000000000001194 .LEHE28
     /tmp/cc4XBM2x.s:3382   .text:00000000000011a8 .LEHB29
     /tmp/cc4XBM2x.s:3385   .text:00000000000011b0 .LEHE29
     /tmp/cc4XBM2x.s:3393   .text:00000000000011c4 .LEHB30
     /tmp/cc4XBM2x.s:3396   .text:00000000000011cc .LEHE30
     /tmp/cc4XBM2x.s:3406   .text:00000000000011e0 .LEHB31
     /tmp/cc4XBM2x.s:3409   .text:00000000000011e8 .LEHE31
     /tmp/cc4XBM2x.s:8325   .debug_abbrev:0000000000000000 .Ldebug_abbrev0
     /tmp/cc4XBM2x.s:11435  .debug_str:0000000000000aef .LASF182
     /tmp/cc4XBM2x.s:11421  .debug_str:0000000000000a40 .LASF183
     /tmp/cc4XBM2x.s:11175  .debug_str:0000000000000114 .LASF184
     /tmp/cc4XBM2x.s:11049  .debug_ranges:0000000000000000 .Ldebug_ranges0
     /tmp/cc4XBM2x.s:11145  .debug_line:0000000000000000 .Ldebug_line0
     /tmp/cc4XBM2x.s:11271  .debug_str:0000000000000485 .LASF0
     /tmp/cc4XBM2x.s:11295  .debug_str:0000000000000573 .LASF1
     /tmp/cc4XBM2x.s:11401  .debug_str:00000000000009ae .LASF2
     /tmp/cc4XBM2x.s:11225  .debug_str:0000000000000303 .LASF3
     /tmp/cc4XBM2x.s:11411  .debug_str:0000000000000a10 .LASF4
     /tmp/cc4XBM2x.s:11281  .debug_str:00000000000004eb .LASF5
     /tmp/cc4XBM2x.s:11161  .debug_str:0000000000000088 .LASF6
     /tmp/cc4XBM2x.s:11377  .debug_str:00000000000008af .LASF7
     /tmp/cc4XBM2x.s:11363  .debug_str:0000000000000854 .LASF8
     /tmp/cc4XBM2x.s:11287  .debug_str:0000000000000521 .LASF9
     /tmp/cc4XBM2x.s:11247  .debug_str:0000000000000397 .LASF10
     /tmp/cc4XBM2x.s:11255  .debug_str:00000000000003f8 .LASF11
     /tmp/cc4XBM2x.s:11189  .debug_str:00000000000001ac .LASF12
     /tmp/cc4XBM2x.s:11237  .debug_str:0000000000000341 .LASF13
     /tmp/cc4XBM2x.s:11203  .debug_str:0000000000000235 .LASF14
     /tmp/cc4XBM2x.s:11187  .debug_str:000000000000019c .LASF15
     /tmp/cc4XBM2x.s:11443  .debug_str:0000000000000bff .LASF16
     /tmp/cc4XBM2x.s:11219  .debug_str:00000000000002c3 .LASF17
     /tmp/cc4XBM2x.s:11429  .debug_str:0000000000000a96 .LASF18
     /tmp/cc4XBM2x.s:11171  .debug_str:00000000000000e6 .LASF19
     /tmp/cc4XBM2x.s:11333  .debug_str:0000000000000744 .LASF20
     /tmp/cc4XBM2x.s:11285  .debug_str:000000000000050f .LASF21
     /tmp/cc4XBM2x.s:11153  .debug_str:0000000000000051 .LASF29
     /tmp/cc4XBM2x.s:11463  .debug_str:0000000000000c6f .LASF31
     /tmp/cc4XBM2x.s:11457  .debug_str:0000000000000c40 .LASF22
     /tmp/cc4XBM2x.s:11409  .debug_str:0000000000000a06 .LASF23
     /tmp/cc4XBM2x.s:11307  .debug_str:0000000000000652 .LASF24
     /tmp/cc4XBM2x.s:11335  .debug_str:0000000000000754 .LASF25
     /tmp/cc4XBM2x.s:11413  .debug_str:0000000000000a17 .LASF26
     /tmp/cc4XBM2x.s:11415  .debug_str:0000000000000a21 .LASF27
     /tmp/cc4XBM2x.s:11311  .debug_str:0000000000000673 .LASF28
     /tmp/cc4XBM2x.s:11277  .debug_str:00000000000004b3 .LASF174
     /tmp/cc4XBM2x.s:11207  .debug_str:0000000000000250 .LASF185
GAS LISTING /tmp/cc4XBM2x.s 			page 113


     /tmp/cc4XBM2x.s:11315  .debug_str:0000000000000688 .LASF30
     /tmp/cc4XBM2x.s:11215  .debug_str:000000000000029c .LASF32
     /tmp/cc4XBM2x.s:11451  .debug_str:0000000000000c25 .LASF33
     /tmp/cc4XBM2x.s:11477  .debug_str:0000000000000d08 .LASF34
     /tmp/cc4XBM2x.s:11467  .debug_str:0000000000000cb1 .LASF35
     /tmp/cc4XBM2x.s:11235  .debug_str:000000000000033c .LASF36
     /tmp/cc4XBM2x.s:11339  .debug_str:0000000000000784 .LASF37
     /tmp/cc4XBM2x.s:11483  .debug_str:0000000000000d5e .LASF38
     /tmp/cc4XBM2x.s:11317  .debug_str:000000000000068d .LASF39
     /tmp/cc4XBM2x.s:11151  .debug_str:0000000000000047 .LASF40
     /tmp/cc4XBM2x.s:11329  .debug_str:00000000000006fa .LASF41
     /tmp/cc4XBM2x.s:11283  .debug_str:00000000000004fd .LASF43
     /tmp/cc4XBM2x.s:11365  .debug_str:0000000000000867 .LASF42
     /tmp/cc4XBM2x.s:11527  .debug_str:0000000000000f26 .LASF44
     /tmp/cc4XBM2x.s:11439  .debug_str:0000000000000bdd .LASF186
     /tmp/cc4XBM2x.s:11243  .debug_str:0000000000000375 .LASF187
     /tmp/cc4XBM2x.s:11393  .debug_str:000000000000094f .LASF45
     /tmp/cc4XBM2x.s:11397  .debug_str:0000000000000985 .LASF46
     /tmp/cc4XBM2x.s:11491  .debug_str:0000000000000dc6 .LASF78
     /tmp/cc4XBM2x.s:11193  .debug_str:00000000000001c7 .LASF47
     /tmp/cc4XBM2x.s:11213  .debug_str:0000000000000297 .LASF49
     /tmp/cc4XBM2x.s:11475  .debug_str:0000000000000cf1 .LASF48
     /tmp/cc4XBM2x.s:11447  .debug_str:0000000000000c14 .LASF50
     /tmp/cc4XBM2x.s:11321  .debug_str:00000000000006a6 .LASF51
     /tmp/cc4XBM2x.s:11191  .debug_str:00000000000001bb .LASF54
     /tmp/cc4XBM2x.s:11391  .debug_str:0000000000000945 .LASF52
     /tmp/cc4XBM2x.s:11427  .debug_str:0000000000000a8d .LASF53
     /tmp/cc4XBM2x.s:11359  .debug_str:000000000000082a .LASF188
     /tmp/cc4XBM2x.s:11425  .debug_str:0000000000000a67 .LASF55
     /tmp/cc4XBM2x.s:11221  .debug_str:00000000000002d9 .LASF56
     /tmp/cc4XBM2x.s:11229  .debug_str:000000000000031a .LASF57
     /tmp/cc4XBM2x.s:11293  .debug_str:000000000000054a .LASF58
     /tmp/cc4XBM2x.s:11169  .debug_str:00000000000000bc .LASF59
     /tmp/cc4XBM2x.s:11529  .debug_str:0000000000000f38 .LASF60
     /tmp/cc4XBM2x.s:11305  .debug_str:000000000000062a .LASF66
     /tmp/cc4XBM2x.s:11265  .debug_str:000000000000045d .LASF61
     /tmp/cc4XBM2x.s:11195  .debug_str:00000000000001dc .LASF69
     /tmp/cc4XBM2x.s:11177  .debug_str:0000000000000145 .LASF62
     /tmp/cc4XBM2x.s:11487  .debug_str:0000000000000d7f .LASF63
     /tmp/cc4XBM2x.s:11437  .debug_str:0000000000000bb3 .LASF64
     /tmp/cc4XBM2x.s:11297  .debug_str:0000000000000586 .LASF65
     /tmp/cc4XBM2x.s:11303  .debug_str:0000000000000602 .LASF67
     /tmp/cc4XBM2x.s:11157  .debug_str:0000000000000074 .LASF68
     /tmp/cc4XBM2x.s:11517  .debug_str:0000000000000eca .LASF70
     /tmp/cc4XBM2x.s:11227  .debug_str:0000000000000309 .LASF71
     /tmp/cc4XBM2x.s:11299  .debug_str:00000000000005bd .LASF72
     /tmp/cc4XBM2x.s:11279  .debug_str:00000000000004b8 .LASF73
     /tmp/cc4XBM2x.s:11331  .debug_str:0000000000000704 .LASF74
     /tmp/cc4XBM2x.s:11465  .debug_str:0000000000000c80 .LASF75
     /tmp/cc4XBM2x.s:11273  .debug_str:0000000000000492 .LASF76
     /tmp/cc4XBM2x.s:11251  .debug_str:00000000000003b1 .LASF77
     /tmp/cc4XBM2x.s:11535  .debug_str:0000000000000f80 .LASF189
     /tmp/cc4XBM2x.s:11493  .debug_str:0000000000000dd0 .LASF190
     /tmp/cc4XBM2x.s:11261  .debug_str:0000000000000430 .LASF79
     /tmp/cc4XBM2x.s:11155  .debug_str:0000000000000061 .LASF80
     /tmp/cc4XBM2x.s:11523  .debug_str:0000000000000f0f .LASF81
     /tmp/cc4XBM2x.s:11361  .debug_str:000000000000083e .LASF82
GAS LISTING /tmp/cc4XBM2x.s 			page 114


     /tmp/cc4XBM2x.s:11211  .debug_str:000000000000028e .LASF83
     /tmp/cc4XBM2x.s:11345  .debug_str:00000000000007a4 .LASF84
     /tmp/cc4XBM2x.s:11167  .debug_str:00000000000000b6 .LASF85
     /tmp/cc4XBM2x.s:11323  .debug_str:00000000000006b1 .LASF86
     /tmp/cc4XBM2x.s:11239  .debug_str:0000000000000350 .LASF87
     /tmp/cc4XBM2x.s:11507  .debug_str:0000000000000e77 .LASF88
     /tmp/cc4XBM2x.s:11497  .debug_str:0000000000000e10 .LASF89
     /tmp/cc4XBM2x.s:11505  .debug_str:0000000000000e59 .LASF90
     /tmp/cc4XBM2x.s:11231  .debug_str:0000000000000323 .LASF91
     /tmp/cc4XBM2x.s:11197  .debug_str:0000000000000202 .LASF92
     /tmp/cc4XBM2x.s:11347  .debug_str:00000000000007b7 .LASF93
     /tmp/cc4XBM2x.s:11423  .debug_str:0000000000000a53 .LASF94
     /tmp/cc4XBM2x.s:11389  .debug_str:000000000000093c .LASF95
     /tmp/cc4XBM2x.s:11407  .debug_str:00000000000009ed .LASF96
     /tmp/cc4XBM2x.s:11489  .debug_str:0000000000000da8 .LASF97
     /tmp/cc4XBM2x.s:11405  .debug_str:00000000000009da .LASF98
     /tmp/cc4XBM2x.s:11241  .debug_str:0000000000000364 .LASF99
     /tmp/cc4XBM2x.s:11349  .debug_str:00000000000007ca .LASF100
     /tmp/cc4XBM2x.s:11385  .debug_str:000000000000090f .LASF101
     /tmp/cc4XBM2x.s:11381  .debug_str:00000000000008d4 .LASF102
     /tmp/cc4XBM2x.s:11289  .debug_str:0000000000000534 .LASF103
     /tmp/cc4XBM2x.s:11209  .debug_str:0000000000000263 .LASF104
     /tmp/cc4XBM2x.s:11181  .debug_str:0000000000000153 .LASF105
     /tmp/cc4XBM2x.s:11309  .debug_str:0000000000000657 .LASF106
     /tmp/cc4XBM2x.s:11399  .debug_str:000000000000099c .LASF107
     /tmp/cc4XBM2x.s:11461  .debug_str:0000000000000c55 .LASF108
     /tmp/cc4XBM2x.s:11179  .debug_str:000000000000014e .LASF109
     /tmp/cc4XBM2x.s:11159  .debug_str:000000000000007e .LASF110
     /tmp/cc4XBM2x.s:11351  .debug_str:00000000000007db .LASF111
     /tmp/cc4XBM2x.s:696    .text._ZN16ProducerKeyboardD0Ev:0000000000000000 .LFB75
     /tmp/cc4XBM2x.s:736    .text._ZN16ProducerKeyboardD0Ev:000000000000004c .LFE75
     /tmp/cc4XBM2x.s:9481   .debug_loc:0000000000000000 .LLST21
     /tmp/cc4XBM2x.s:712    .text._ZN16ProducerKeyboardD0Ev:0000000000000018 .LBB70
     /tmp/cc4XBM2x.s:720    .text._ZN16ProducerKeyboardD0Ev:000000000000002c .LBE70
     /tmp/cc4XBM2x.s:9499   .debug_loc:000000000000004c .LLST22
     /tmp/cc4XBM2x.s:718    .text._ZN16ProducerKeyboardD0Ev:000000000000002c .LVL76
     /tmp/cc4XBM2x.s:723    .text._ZN16ProducerKeyboardD0Ev:0000000000000038 .LVL77
     /tmp/cc4XBM2x.s:11499  .debug_str:0000000000000e29 .LASF112
     /tmp/cc4XBM2x.s:659    .text._ZN16ProducerKeyboardD2Ev:0000000000000000 .LFB73
     /tmp/cc4XBM2x.s:687    .text._ZN16ProducerKeyboardD2Ev:0000000000000034 .LFE73
     /tmp/cc4XBM2x.s:9510   .debug_loc:0000000000000082 .LLST20
     /tmp/cc4XBM2x.s:676    .text._ZN16ProducerKeyboardD2Ev:0000000000000024 .LVL73
     /tmp/cc4XBM2x.s:11525  .debug_str:0000000000000f15 .LASF113
     /tmp/cc4XBM2x.s:612    .text._ZN8ProducerD0Ev:0000000000000000 .LFB71
     /tmp/cc4XBM2x.s:652    .text._ZN8ProducerD0Ev:000000000000004c .LFE71
     /tmp/cc4XBM2x.s:9524   .debug_loc:00000000000000bb .LLST18
     /tmp/cc4XBM2x.s:628    .text._ZN8ProducerD0Ev:0000000000000018 .LBB67
     /tmp/cc4XBM2x.s:636    .text._ZN8ProducerD0Ev:000000000000002c .LBE67
     /tmp/cc4XBM2x.s:9542   .debug_loc:0000000000000107 .LLST19
     /tmp/cc4XBM2x.s:634    .text._ZN8ProducerD0Ev:000000000000002c .LVL69
     /tmp/cc4XBM2x.s:639    .text._ZN8ProducerD0Ev:0000000000000038 .LVL70
     /tmp/cc4XBM2x.s:11387  .debug_str:000000000000092b .LASF114
     /tmp/cc4XBM2x.s:575    .text._ZN8ProducerD2Ev:0000000000000000 .LFB69
     /tmp/cc4XBM2x.s:603    .text._ZN8ProducerD2Ev:0000000000000034 .LFE69
     /tmp/cc4XBM2x.s:9553   .debug_loc:000000000000013d .LLST17
     /tmp/cc4XBM2x.s:592    .text._ZN8ProducerD2Ev:0000000000000024 .LVL66
     /tmp/cc4XBM2x.s:11267  .debug_str:0000000000000467 .LASF115
GAS LISTING /tmp/cc4XBM2x.s 			page 115


     /tmp/cc4XBM2x.s:528    .text._ZN8ConsumerD0Ev:0000000000000000 .LFB67
     /tmp/cc4XBM2x.s:568    .text._ZN8ConsumerD0Ev:000000000000004c .LFE67
     /tmp/cc4XBM2x.s:9567   .debug_loc:0000000000000176 .LLST15
     /tmp/cc4XBM2x.s:544    .text._ZN8ConsumerD0Ev:0000000000000018 .LBB64
     /tmp/cc4XBM2x.s:552    .text._ZN8ConsumerD0Ev:000000000000002c .LBE64
     /tmp/cc4XBM2x.s:9585   .debug_loc:00000000000001c2 .LLST16
     /tmp/cc4XBM2x.s:550    .text._ZN8ConsumerD0Ev:000000000000002c .LVL62
     /tmp/cc4XBM2x.s:555    .text._ZN8ConsumerD0Ev:0000000000000038 .LVL63
     /tmp/cc4XBM2x.s:11341  .debug_str:0000000000000789 .LASF116
     /tmp/cc4XBM2x.s:490    .text._ZN8ConsumerD2Ev:0000000000000000 .LFB65
     /tmp/cc4XBM2x.s:519    .text._ZN8ConsumerD2Ev:0000000000000034 .LFE65
     /tmp/cc4XBM2x.s:9596   .debug_loc:00000000000001f8 .LLST14
     /tmp/cc4XBM2x.s:508    .text._ZN8ConsumerD2Ev:0000000000000024 .LVL59
     /tmp/cc4XBM2x.s:11537  .debug_str:0000000000000f95 .LASF117
     /tmp/cc4XBM2x.s:864    .text._ZN19ConsumerProducerCPP16ProducerKeyboradD0Ev:0000000000000000 .LFB63
     /tmp/cc4XBM2x.s:904    .text._ZN19ConsumerProducerCPP16ProducerKeyboradD0Ev:000000000000004c .LFE63
     /tmp/cc4XBM2x.s:9610   .debug_loc:0000000000000231 .LLST27
     /tmp/cc4XBM2x.s:880    .text._ZN19ConsumerProducerCPP16ProducerKeyboradD0Ev:0000000000000018 .LBB76
     /tmp/cc4XBM2x.s:888    .text._ZN19ConsumerProducerCPP16ProducerKeyboradD0Ev:000000000000002c .LBE76
     /tmp/cc4XBM2x.s:9628   .debug_loc:000000000000027d .LLST28
     /tmp/cc4XBM2x.s:886    .text._ZN19ConsumerProducerCPP16ProducerKeyboradD0Ev:000000000000002c .LVL90
     /tmp/cc4XBM2x.s:891    .text._ZN19ConsumerProducerCPP16ProducerKeyboradD0Ev:0000000000000038 .LVL91
     /tmp/cc4XBM2x.s:11395  .debug_str:0000000000000956 .LASF118
     /tmp/cc4XBM2x.s:827    .text._ZN19ConsumerProducerCPP16ProducerKeyboradD2Ev:0000000000000000 .LFB61
     /tmp/cc4XBM2x.s:855    .text._ZN19ConsumerProducerCPP16ProducerKeyboradD2Ev:0000000000000034 .LFE61
     /tmp/cc4XBM2x.s:9639   .debug_loc:00000000000002b3 .LLST26
     /tmp/cc4XBM2x.s:844    .text._ZN19ConsumerProducerCPP16ProducerKeyboradD2Ev:0000000000000024 .LVL87
     /tmp/cc4XBM2x.s:11173  .debug_str:00000000000000ee .LASF119
     /tmp/cc4XBM2x.s:948    .text._ZN19ConsumerProducerCPP8ProducerD0Ev:0000000000000000 .LFB59
     /tmp/cc4XBM2x.s:988    .text._ZN19ConsumerProducerCPP8ProducerD0Ev:000000000000004c .LFE59
     /tmp/cc4XBM2x.s:9653   .debug_loc:00000000000002ec .LLST30
     /tmp/cc4XBM2x.s:964    .text._ZN19ConsumerProducerCPP8ProducerD0Ev:0000000000000018 .LBB79
     /tmp/cc4XBM2x.s:972    .text._ZN19ConsumerProducerCPP8ProducerD0Ev:000000000000002c .LBE79
     /tmp/cc4XBM2x.s:9671   .debug_loc:0000000000000338 .LLST31
     /tmp/cc4XBM2x.s:970    .text._ZN19ConsumerProducerCPP8ProducerD0Ev:000000000000002c .LVL97
     /tmp/cc4XBM2x.s:975    .text._ZN19ConsumerProducerCPP8ProducerD0Ev:0000000000000038 .LVL98
     /tmp/cc4XBM2x.s:11263  .debug_str:0000000000000437 .LASF120
     /tmp/cc4XBM2x.s:911    .text._ZN19ConsumerProducerCPP8ProducerD2Ev:0000000000000000 .LFB57
     /tmp/cc4XBM2x.s:939    .text._ZN19ConsumerProducerCPP8ProducerD2Ev:0000000000000034 .LFE57
     /tmp/cc4XBM2x.s:9682   .debug_loc:000000000000036e .LLST29
     /tmp/cc4XBM2x.s:928    .text._ZN19ConsumerProducerCPP8ProducerD2Ev:0000000000000024 .LVL94
     /tmp/cc4XBM2x.s:11469  .debug_str:0000000000000cb8 .LASF121
     /tmp/cc4XBM2x.s:780    .text._ZN19ConsumerProducerCPP8ConsumerD0Ev:0000000000000000 .LFB55
     /tmp/cc4XBM2x.s:820    .text._ZN19ConsumerProducerCPP8ConsumerD0Ev:000000000000004c .LFE55
     /tmp/cc4XBM2x.s:9696   .debug_loc:00000000000003a7 .LLST24
     /tmp/cc4XBM2x.s:796    .text._ZN19ConsumerProducerCPP8ConsumerD0Ev:0000000000000018 .LBB73
     /tmp/cc4XBM2x.s:804    .text._ZN19ConsumerProducerCPP8ConsumerD0Ev:000000000000002c .LBE73
     /tmp/cc4XBM2x.s:9714   .debug_loc:00000000000003f3 .LLST25
     /tmp/cc4XBM2x.s:802    .text._ZN19ConsumerProducerCPP8ConsumerD0Ev:000000000000002c .LVL83
     /tmp/cc4XBM2x.s:807    .text._ZN19ConsumerProducerCPP8ConsumerD0Ev:0000000000000038 .LVL84
     /tmp/cc4XBM2x.s:11337  .debug_str:000000000000075e .LASF122
     /tmp/cc4XBM2x.s:743    .text._ZN19ConsumerProducerCPP8ConsumerD2Ev:0000000000000000 .LFB53
     /tmp/cc4XBM2x.s:771    .text._ZN19ConsumerProducerCPP8ConsumerD2Ev:0000000000000034 .LFE53
     /tmp/cc4XBM2x.s:9725   .debug_loc:0000000000000429 .LLST23
     /tmp/cc4XBM2x.s:760    .text._ZN19ConsumerProducerCPP8ConsumerD2Ev:0000000000000024 .LVL80
     /tmp/cc4XBM2x.s:11367  .debug_str:0000000000000872 .LASF123
     /tmp/cc4XBM2x.s:11269  .debug_str:0000000000000478 .LASF132
GAS LISTING /tmp/cc4XBM2x.s 			page 116


     /tmp/cc4XBM2x.s:3489   .text:00000000000011e8 .LFB51
     /tmp/cc4XBM2x.s:3515   .text:0000000000001210 .LFE51
     /tmp/cc4XBM2x.s:3504   .text:0000000000001200 .LVL398
     /tmp/cc4XBM2x.s:3412   .text:00000000000011e8 .LFE50
     /tmp/cc4XBM2x.s:11223  .debug_str:00000000000002fd .LASF124
     /tmp/cc4XBM2x.s:9739   .debug_loc:0000000000000462 .LLST89
     /tmp/cc4XBM2x.s:11513  .debug_str:0000000000000eae .LASF125
     /tmp/cc4XBM2x.s:9750   .debug_loc:0000000000000498 .LLST90
     /tmp/cc4XBM2x.s:9761   .debug_loc:00000000000004ce .LLST91
     /tmp/cc4XBM2x.s:11455  .debug_str:0000000000000c36 .LASF126
     /tmp/cc4XBM2x.s:9772   .debug_loc:0000000000000504 .LLST92
     /tmp/cc4XBM2x.s:11319  .debug_str:000000000000069b .LASF127
     /tmp/cc4XBM2x.s:9790   .debug_loc:0000000000000550 .LLST93
     /tmp/cc4XBM2x.s:9803   .debug_loc:0000000000000588 .LLST94
     /tmp/cc4XBM2x.s:9814   .debug_loc:00000000000005be .LLST99
     /tmp/cc4XBM2x.s:3170   .text:0000000000001010 .LBB103
     /tmp/cc4XBM2x.s:9825   .debug_loc:00000000000005f4 .LLST100
     /tmp/cc4XBM2x.s:9856   .debug_loc:000000000000065c .LLST101
     /tmp/cc4XBM2x.s:3221   .text:000000000000107c .LVL367
     /tmp/cc4XBM2x.s:3187   .text:0000000000001038 .LVL363
     /tmp/cc4XBM2x.s:3212   .text:0000000000001070 .LVL365
     /tmp/cc4XBM2x.s:3404   .text:00000000000011dc .LVL396
     /tmp/cc4XBM2x.s:9875   .debug_loc:00000000000006b8 .LLST102
     /tmp/cc4XBM2x.s:3245   .text:00000000000010a0 .LVL371
     /tmp/cc4XBM2x.s:3272   .text:00000000000010c8 .LBB109
     /tmp/cc4XBM2x.s:3293   .text:00000000000010f0 .LBE109
     /tmp/cc4XBM2x.s:9886   .debug_loc:00000000000006ee .LLST103
     /tmp/cc4XBM2x.s:9893   .debug_loc:0000000000000711 .LLST86
     /tmp/cc4XBM2x.s:9924   .debug_loc:000000000000075b .LLST88
     /tmp/cc4XBM2x.s:3106   .text:0000000000000f98 .LBB98
     /tmp/cc4XBM2x.s:3118   .text:0000000000000fb0 .LBE98
     /tmp/cc4XBM2x.s:9955   .debug_loc:00000000000007a5 .LLST95
     /tmp/cc4XBM2x.s:9982   .debug_loc:00000000000007fa .LLST96
     /tmp/cc4XBM2x.s:3110   .text:0000000000000fa0 .LVL353
     /tmp/cc4XBM2x.s:3144   .text:0000000000000fe0 .LBB100
     /tmp/cc4XBM2x.s:3155   .text:0000000000000ff8 .LBE100
     /tmp/cc4XBM2x.s:9997   .debug_loc:0000000000000843 .LLST97
     /tmp/cc4XBM2x.s:10008  .debug_loc:0000000000000879 .LLST98
     /tmp/cc4XBM2x.s:3148   .text:0000000000000fe8 .LVL358
     /tmp/cc4XBM2x.s:2943   .text:0000000000000e0c .LVL325
     /tmp/cc4XBM2x.s:2950   .text:0000000000000e20 .LVL326
     /tmp/cc4XBM2x.s:2955   .text:0000000000000e2c .LVL327
     /tmp/cc4XBM2x.s:2962   .text:0000000000000e40 .LVL329
     /tmp/cc4XBM2x.s:2968   .text:0000000000000e50 .LVL330
     /tmp/cc4XBM2x.s:2973   .text:0000000000000e5c .LVL331
     /tmp/cc4XBM2x.s:2980   .text:0000000000000e70 .LVL333
     /tmp/cc4XBM2x.s:2987   .text:0000000000000e84 .LVL334
     /tmp/cc4XBM2x.s:2992   .text:0000000000000e94 .LVL335
     /tmp/cc4XBM2x.s:2999   .text:0000000000000ea8 .LVL336
     /tmp/cc4XBM2x.s:3004   .text:0000000000000eb8 .LVL337
     /tmp/cc4XBM2x.s:3013   .text:0000000000000ecc .LVL338
     /tmp/cc4XBM2x.s:3019   .text:0000000000000edc .LVL339
     /tmp/cc4XBM2x.s:3028   .text:0000000000000ef0 .LVL340
     /tmp/cc4XBM2x.s:3036   .text:0000000000000f04 .LVL341
     /tmp/cc4XBM2x.s:3047   .text:0000000000000f18 .LVL343
     /tmp/cc4XBM2x.s:3054   .text:0000000000000f28 .LVL345
     /tmp/cc4XBM2x.s:3101   .text:0000000000000f94 .LVL351
GAS LISTING /tmp/cc4XBM2x.s 			page 117


     /tmp/cc4XBM2x.s:3124   .text:0000000000000fbc .LVL355
     /tmp/cc4XBM2x.s:3139   .text:0000000000000fdc .LVL356
     /tmp/cc4XBM2x.s:3163   .text:0000000000001008 .LVL360
     /tmp/cc4XBM2x.s:3233   .text:0000000000001088 .LVL369
     /tmp/cc4XBM2x.s:3302   .text:0000000000001104 .LVL379
     /tmp/cc4XBM2x.s:3310   .text:0000000000001114 .LVL380
     /tmp/cc4XBM2x.s:3313   .text:0000000000001120 .LVL381
     /tmp/cc4XBM2x.s:3357   .text:000000000000116c .LVL386
     /tmp/cc4XBM2x.s:3361   .text:0000000000001178 .LVL387
     /tmp/cc4XBM2x.s:3368   .text:0000000000001188 .LVL388
     /tmp/cc4XBM2x.s:3372   .text:0000000000001194 .LVL389
     /tmp/cc4XBM2x.s:3380   .text:00000000000011a4 .LVL391
     /tmp/cc4XBM2x.s:3384   .text:00000000000011b0 .LVL392
     /tmp/cc4XBM2x.s:3391   .text:00000000000011c0 .LVL393
     /tmp/cc4XBM2x.s:3395   .text:00000000000011cc .LVL394
     /tmp/cc4XBM2x.s:3408   .text:00000000000011e8 .LVL397
     /tmp/cc4XBM2x.s:366    .text._ZN19ConsumerProducerCPP8Consumer3runEv:0000000000000000 .LFB49
     /tmp/cc4XBM2x.s:483    .text._ZN19ConsumerProducerCPP8Consumer3runEv:00000000000000d0 .LFE49
     /tmp/cc4XBM2x.s:10019  .debug_loc:00000000000008af .LLST10
     /tmp/cc4XBM2x.s:10037  .debug_loc:00000000000008fb .LLST11
     /tmp/cc4XBM2x.s:10057  .debug_loc:0000000000000958 .LLST12
     /tmp/cc4XBM2x.s:397    .text._ZN19ConsumerProducerCPP8Consumer3runEv:0000000000000034 .LVL45
     /tmp/cc4XBM2x.s:411    .text._ZN19ConsumerProducerCPP8Consumer3runEv:0000000000000050 .LVL46
     /tmp/cc4XBM2x.s:422    .text._ZN19ConsumerProducerCPP8Consumer3runEv:0000000000000064 .LVL49
     /tmp/cc4XBM2x.s:433    .text._ZN19ConsumerProducerCPP8Consumer3runEv:0000000000000074 .LBB62
     /tmp/cc4XBM2x.s:448    .text._ZN19ConsumerProducerCPP8Consumer3runEv:0000000000000090 .LBE62
     /tmp/cc4XBM2x.s:10064  .debug_loc:000000000000097b .LLST13
     /tmp/cc4XBM2x.s:440    .text._ZN19ConsumerProducerCPP8Consumer3runEv:0000000000000084 .LVL51
     /tmp/cc4XBM2x.s:446    .text._ZN19ConsumerProducerCPP8Consumer3runEv:0000000000000090 .LVL53
     /tmp/cc4XBM2x.s:456    .text._ZN19ConsumerProducerCPP8Consumer3runEv:00000000000000a0 .LVL54
     /tmp/cc4XBM2x.s:464    .text._ZN19ConsumerProducerCPP8Consumer3runEv:00000000000000b4 .LVL55
     /tmp/cc4XBM2x.s:11147  .debug_str:0000000000000000 .LASF128
     /tmp/cc4XBM2x.s:1091   .text._ZN19ConsumerProducerCPP8Producer3runEv:0000000000000000 .LFB45
     /tmp/cc4XBM2x.s:1169   .text._ZN19ConsumerProducerCPP8Producer3runEv:0000000000000094 .LFE45
     /tmp/cc4XBM2x.s:10071  .debug_loc:000000000000099e .LLST35
     /tmp/cc4XBM2x.s:10089  .debug_loc:00000000000009ea .LLST36
     /tmp/cc4XBM2x.s:1126   .text._ZN19ConsumerProducerCPP8Producer3runEv:0000000000000044 .LVL112
     /tmp/cc4XBM2x.s:1143   .text._ZN19ConsumerProducerCPP8Producer3runEv:0000000000000068 .LVL114
     /tmp/cc4XBM2x.s:1152   .text._ZN19ConsumerProducerCPP8Producer3runEv:000000000000007c .LVL115
     /tmp/cc4XBM2x.s:11433  .debug_str:0000000000000ab8 .LASF129
     /tmp/cc4XBM2x.s:285    .text._ZN19ConsumerProducerCPP16ProducerKeyborad3runEv:0000000000000000 .LFB41
     /tmp/cc4XBM2x.s:359    .text._ZN19ConsumerProducerCPP16ProducerKeyborad3runEv:0000000000000084 .LFE41
     /tmp/cc4XBM2x.s:10109  .debug_loc:0000000000000a47 .LLST8
     /tmp/cc4XBM2x.s:10127  .debug_loc:0000000000000a93 .LLST9
     /tmp/cc4XBM2x.s:309    .text._ZN19ConsumerProducerCPP16ProducerKeyborad3runEv:0000000000000020 .LVL33
     /tmp/cc4XBM2x.s:321    .text._ZN19ConsumerProducerCPP16ProducerKeyborad3runEv:000000000000003c .LVL35
     /tmp/cc4XBM2x.s:339    .text._ZN19ConsumerProducerCPP16ProducerKeyborad3runEv:0000000000000060 .LVL39
     /tmp/cc4XBM2x.s:345    .text._ZN19ConsumerProducerCPP16ProducerKeyborad3runEv:0000000000000070 .LVL40
     /tmp/cc4XBM2x.s:11479  .debug_str:0000000000000d12 .LASF130
     /tmp/cc4XBM2x.s:11503  .debug_str:0000000000000e4c .LASF131
     /tmp/cc4XBM2x.s:11485  .debug_str:0000000000000d6d .LASF133
     /tmp/cc4XBM2x.s:2824   .text:0000000000000d3c .LFB37
     /tmp/cc4XBM2x.s:2897   .text:0000000000000dc4 .LFE37
     /tmp/cc4XBM2x.s:11217  .debug_str:00000000000002af .LASF134
     /tmp/cc4XBM2x.s:11473  .debug_str:0000000000000ce5 .LASF135
     /tmp/cc4XBM2x.s:11417  .debug_str:0000000000000a2b .LASF136
     /tmp/cc4XBM2x.s:2848   .text:0000000000000d60 .LBB97
GAS LISTING /tmp/cc4XBM2x.s 			page 118


     /tmp/cc4XBM2x.s:2873   .text:0000000000000d98 .LBE97
     /tmp/cc4XBM2x.s:10142  .debug_loc:0000000000000adc .LLST84
     /tmp/cc4XBM2x.s:2864   .text:0000000000000d8c .LVL322
     /tmp/cc4XBM2x.s:11533  .debug_str:0000000000000f76 .LASF137
     /tmp/cc4XBM2x.s:11325  .debug_str:00000000000006c4 .LASF138
     /tmp/cc4XBM2x.s:1002   .text:00000000000001a0 .LFB36
     /tmp/cc4XBM2x.s:1084   .text:0000000000000244 .LFE36
     /tmp/cc4XBM2x.s:10154  .debug_loc:0000000000000b13 .LLST32
     /tmp/cc4XBM2x.s:11355  .debug_str:0000000000000818 .LASF139
     /tmp/cc4XBM2x.s:10168  .debug_loc:0000000000000b4c .LLST33
     /tmp/cc4XBM2x.s:10175  .debug_loc:0000000000000b6f .LLST34
     /tmp/cc4XBM2x.s:1037   .text:00000000000001d8 .LVL104
     /tmp/cc4XBM2x.s:1044   .text:00000000000001ec .LVL105
     /tmp/cc4XBM2x.s:1049   .text:00000000000001fc .LVL106
     /tmp/cc4XBM2x.s:1054   .text:0000000000000208 .LVL107
     /tmp/cc4XBM2x.s:11379  .debug_str:00000000000008b6 .LASF140
     /tmp/cc4XBM2x.s:11353  .debug_str:00000000000007f5 .LASF141
     /tmp/cc4XBM2x.s:2746   .text:0000000000000d3c .LFE35
     /tmp/cc4XBM2x.s:10187  .debug_loc:0000000000000ba6 .LLST69
     /tmp/cc4XBM2x.s:10198  .debug_loc:0000000000000bdc .LLST70
     /tmp/cc4XBM2x.s:10213  .debug_loc:0000000000000c25 .LLST71
     /tmp/cc4XBM2x.s:11419  .debug_str:0000000000000a38 .LASF142
     /tmp/cc4XBM2x.s:10224  .debug_loc:0000000000000c5b .LLST72
     /tmp/cc4XBM2x.s:11275  .debug_str:00000000000004a4 .LASF143
     /tmp/cc4XBM2x.s:10242  .debug_loc:0000000000000ca7 .LLST73
     /tmp/cc4XBM2x.s:11291  .debug_str:0000000000000545 .LASF144
     /tmp/cc4XBM2x.s:10253  .debug_loc:0000000000000cdd .LLST74
     /tmp/cc4XBM2x.s:10266  .debug_loc:0000000000000d15 .LLST77
     /tmp/cc4XBM2x.s:2458   .text:0000000000000b00 .LBB88
     /tmp/cc4XBM2x.s:10281  .debug_loc:0000000000000d5e .LLST78
     /tmp/cc4XBM2x.s:10296  .debug_loc:0000000000000da7 .LLST79
     /tmp/cc4XBM2x.s:2521   .text:0000000000000b88 .LVL282
     /tmp/cc4XBM2x.s:2544   .text:0000000000000bac .LBB92
     /tmp/cc4XBM2x.s:2555   .text:0000000000000bc4 .LBE92
     /tmp/cc4XBM2x.s:10315  .debug_loc:0000000000000e03 .LLST80
     /tmp/cc4XBM2x.s:10326  .debug_loc:0000000000000e39 .LLST81
     /tmp/cc4XBM2x.s:2548   .text:0000000000000bb4 .LVL286
     /tmp/cc4XBM2x.s:2479   .text:0000000000000b30 .LVL278
     /tmp/cc4XBM2x.s:2506   .text:0000000000000b6c .LVL280
     /tmp/cc4XBM2x.s:2533   .text:0000000000000b98 .LVL284
     /tmp/cc4XBM2x.s:2726   .text:0000000000000d14 .LVL314
     /tmp/cc4XBM2x.s:2738   .text:0000000000000d30 .LVL317
     /tmp/cc4XBM2x.s:2568   .text:0000000000000bdc .LBB94
     /tmp/cc4XBM2x.s:2586   .text:0000000000000bfc .LBE94
     /tmp/cc4XBM2x.s:10341  .debug_loc:0000000000000e82 .LLST82
     /tmp/cc4XBM2x.s:2579   .text:0000000000000bf4 .LVL290
     /tmp/cc4XBM2x.s:2587   .text:0000000000000bfc .LBB95
     /tmp/cc4XBM2x.s:2614   .text:0000000000000c2c .LBE95
     /tmp/cc4XBM2x.s:10352  .debug_loc:0000000000000eb8 .LLST83
     /tmp/cc4XBM2x.s:10359  .debug_loc:0000000000000edb .LLST66
     /tmp/cc4XBM2x.s:10390  .debug_loc:0000000000000f25 .LLST68
     /tmp/cc4XBM2x.s:2433   .text:0000000000000ad4 .LBB85
     /tmp/cc4XBM2x.s:2445   .text:0000000000000aec .LBE85
     /tmp/cc4XBM2x.s:10421  .debug_loc:0000000000000f6f .LLST75
     /tmp/cc4XBM2x.s:10448  .debug_loc:0000000000000fc4 .LLST76
     /tmp/cc4XBM2x.s:2437   .text:0000000000000adc .LVL273
     /tmp/cc4XBM2x.s:2264   .text:000000000000093c .LVL245
GAS LISTING /tmp/cc4XBM2x.s 			page 119


     /tmp/cc4XBM2x.s:2271   .text:0000000000000950 .LVL246
     /tmp/cc4XBM2x.s:2276   .text:000000000000095c .LVL247
     /tmp/cc4XBM2x.s:2283   .text:0000000000000970 .LVL249
     /tmp/cc4XBM2x.s:2289   .text:0000000000000980 .LVL250
     /tmp/cc4XBM2x.s:2294   .text:000000000000098c .LVL251
     /tmp/cc4XBM2x.s:2301   .text:00000000000009a0 .LVL253
     /tmp/cc4XBM2x.s:2308   .text:00000000000009b4 .LVL254
     /tmp/cc4XBM2x.s:2313   .text:00000000000009c4 .LVL255
     /tmp/cc4XBM2x.s:2320   .text:00000000000009d8 .LVL256
     /tmp/cc4XBM2x.s:2325   .text:00000000000009e8 .LVL257
     /tmp/cc4XBM2x.s:2334   .text:00000000000009fc .LVL258
     /tmp/cc4XBM2x.s:2340   .text:0000000000000a0c .LVL259
     /tmp/cc4XBM2x.s:2349   .text:0000000000000a20 .LVL260
     /tmp/cc4XBM2x.s:2357   .text:0000000000000a34 .LVL261
     /tmp/cc4XBM2x.s:2368   .text:0000000000000a48 .LVL263
     /tmp/cc4XBM2x.s:2375   .text:0000000000000a58 .LVL265
     /tmp/cc4XBM2x.s:2423   .text:0000000000000ac4 .LVL271
     /tmp/cc4XBM2x.s:2451   .text:0000000000000af8 .LVL275
     /tmp/cc4XBM2x.s:2567   .text:0000000000000bdc .LVL288
     /tmp/cc4XBM2x.s:2623   .text:0000000000000c40 .LVL297
     /tmp/cc4XBM2x.s:2642   .text:0000000000000c68 .LVL299
     /tmp/cc4XBM2x.s:2645   .text:0000000000000c74 .LVL300
     /tmp/cc4XBM2x.s:2689   .text:0000000000000cc0 .LVL305
     /tmp/cc4XBM2x.s:2693   .text:0000000000000ccc .LVL306
     /tmp/cc4XBM2x.s:2701   .text:0000000000000cdc .LVL308
     /tmp/cc4XBM2x.s:2705   .text:0000000000000ce8 .LVL309
     /tmp/cc4XBM2x.s:2713   .text:0000000000000cf8 .LVL311
     /tmp/cc4XBM2x.s:2717   .text:0000000000000d04 .LVL312
     /tmp/cc4XBM2x.s:2730   .text:0000000000000d20 .LVL315
     /tmp/cc4XBM2x.s:2742   .text:0000000000000d3c .LVL318
     /tmp/cc4XBM2x.s:2022   .text:0000000000000800 .LFB34
     /tmp/cc4XBM2x.s:2161   .text:00000000000008f4 .LFE34
     /tmp/cc4XBM2x.s:10463  .debug_loc:000000000000100d .LLST58
     /tmp/cc4XBM2x.s:10481  .debug_loc:0000000000001059 .LLST59
     /tmp/cc4XBM2x.s:10499  .debug_loc:00000000000010a5 .LLST60
     /tmp/cc4XBM2x.s:10517  .debug_loc:00000000000010f1 .LLST61
     /tmp/cc4XBM2x.s:10541  .debug_loc:0000000000001161 .LLST62
     /tmp/cc4XBM2x.s:2056   .text:0000000000000838 .LVL227
     /tmp/cc4XBM2x.s:2064   .text:0000000000000848 .LVL229
     /tmp/cc4XBM2x.s:2076   .text:0000000000000860 .LVL230
     /tmp/cc4XBM2x.s:2087   .text:0000000000000874 .LVL233
     /tmp/cc4XBM2x.s:2109   .text:0000000000000898 .LBB84
     /tmp/cc4XBM2x.s:2124   .text:00000000000008b4 .LBE84
     /tmp/cc4XBM2x.s:10548  .debug_loc:0000000000001184 .LLST63
     /tmp/cc4XBM2x.s:2116   .text:00000000000008a8 .LVL235
     /tmp/cc4XBM2x.s:2122   .text:00000000000008b4 .LVL237
     /tmp/cc4XBM2x.s:2132   .text:00000000000008c4 .LVL238
     /tmp/cc4XBM2x.s:2139   .text:00000000000008d4 .LVL239
     /tmp/cc4XBM2x.s:2168   .text._ZN8Consumer3runEv:0000000000000000 .LFB33
     /tmp/cc4XBM2x.s:2195   .text._ZN8Consumer3runEv:000000000000002c .LFE33
     /tmp/cc4XBM2x.s:10555  .debug_loc:00000000000011a7 .LLST64
     /tmp/cc4XBM2x.s:2184   .text._ZN8Consumer3runEv:000000000000001c .LVL244
     /tmp/cc4XBM2x.s:11403  .debug_str:00000000000009bc .LASF145
     /tmp/cc4XBM2x.s:1899   .text:000000000000076c .LFB29
     /tmp/cc4XBM2x.s:1981   .text:0000000000000800 .LFE29
     /tmp/cc4XBM2x.s:10569  .debug_loc:00000000000011e0 .LLST53
     /tmp/cc4XBM2x.s:10583  .debug_loc:0000000000001219 .LLST54
GAS LISTING /tmp/cc4XBM2x.s 			page 120


     /tmp/cc4XBM2x.s:10601  .debug_loc:0000000000001265 .LLST55
     /tmp/cc4XBM2x.s:10619  .debug_loc:00000000000012b1 .LLST56
     /tmp/cc4XBM2x.s:1927   .text:0000000000000798 .LVL215
     /tmp/cc4XBM2x.s:1940   .text:00000000000007b8 .LVL216
     /tmp/cc4XBM2x.s:1964   .text:00000000000007e8 .LVL219
     /tmp/cc4XBM2x.s:1988   .text._ZN8Producer3runEv:0000000000000000 .LFB28
     /tmp/cc4XBM2x.s:2015   .text._ZN8Producer3runEv:000000000000002c .LFE28
     /tmp/cc4XBM2x.s:10643  .debug_loc:0000000000001321 .LLST57
     /tmp/cc4XBM2x.s:2004   .text._ZN8Producer3runEv:000000000000001c .LVL223
     /tmp/cc4XBM2x.s:11383  .debug_str:00000000000008f1 .LASF146
     /tmp/cc4XBM2x.s:1752   .text:00000000000006ac .LFB24
     /tmp/cc4XBM2x.s:1858   .text:000000000000076c .LFE24
     /tmp/cc4XBM2x.s:10657  .debug_loc:000000000000135a .LLST47
     /tmp/cc4XBM2x.s:10675  .debug_loc:00000000000013a6 .LLST48
     /tmp/cc4XBM2x.s:10693  .debug_loc:00000000000013f2 .LLST49
     /tmp/cc4XBM2x.s:10711  .debug_loc:000000000000143e .LLST50
     /tmp/cc4XBM2x.s:10726  .debug_loc:0000000000001487 .LLST51
     /tmp/cc4XBM2x.s:1784   .text:00000000000006e0 .LVL197
     /tmp/cc4XBM2x.s:1790   .text:00000000000006e8 .LVL198
     /tmp/cc4XBM2x.s:1801   .text:0000000000000700 .LVL200
     /tmp/cc4XBM2x.s:1833   .text:0000000000000744 .LVL205
     /tmp/cc4XBM2x.s:1838   .text:0000000000000750 .LVL206
     /tmp/cc4XBM2x.s:1865   .text._ZN16ProducerKeyboard3runEv:0000000000000000 .LFB23
     /tmp/cc4XBM2x.s:1892   .text._ZN16ProducerKeyboard3runEv:000000000000002c .LFE23
     /tmp/cc4XBM2x.s:10750  .debug_loc:00000000000014f7 .LLST52
     /tmp/cc4XBM2x.s:1881   .text._ZN16ProducerKeyboard3runEv:000000000000001c .LVL211
     /tmp/cc4XBM2x.s:11327  .debug_str:00000000000006d3 .LASF147
     /tmp/cc4XBM2x.s:11301  .debug_str:00000000000005ef .LASF148
     /tmp/cc4XBM2x.s:11259  .debug_str:0000000000000418 .LASF149
     /tmp/cc4XBM2x.s:1625   .text:0000000000000580 .LFB17
     /tmp/cc4XBM2x.s:1746   .text:00000000000006ac .LFE17
     /tmp/cc4XBM2x.s:1707   .text:0000000000000670 .LBB81
     /tmp/cc4XBM2x.s:1732   .text:0000000000000698 .LBE81
     /tmp/cc4XBM2x.s:11471  .debug_str:0000000000000cde .LASF150
     /tmp/cc4XBM2x.s:10764  .debug_loc:0000000000001530 .LLST45
     /tmp/cc4XBM2x.s:11431  .debug_str:0000000000000aac .LASF151
     /tmp/cc4XBM2x.s:11453  .debug_str:0000000000000c2a .LASF191
     /tmp/cc4XBM2x.s:10775  .debug_loc:0000000000001566 .LLST46
     /tmp/cc4XBM2x.s:11449  .debug_str:0000000000000c1b .LASF152
     /tmp/cc4XBM2x.s:1728   .text:0000000000000694 .LVL191
     /tmp/cc4XBM2x.s:1645   .text:00000000000005ac .LVL179
     /tmp/cc4XBM2x.s:1650   .text:00000000000005bc .LVL180
     /tmp/cc4XBM2x.s:1657   .text:00000000000005d4 .LVL181
     /tmp/cc4XBM2x.s:1662   .text:00000000000005e4 .LVL182
     /tmp/cc4XBM2x.s:1669   .text:00000000000005fc .LVL183
     /tmp/cc4XBM2x.s:1674   .text:000000000000060c .LVL184
     /tmp/cc4XBM2x.s:1681   .text:0000000000000624 .LVL185
     /tmp/cc4XBM2x.s:1686   .text:0000000000000634 .LVL186
     /tmp/cc4XBM2x.s:1692   .text:0000000000000640 .LVL187
     /tmp/cc4XBM2x.s:11373  .debug_str:0000000000000893 .LASF153
     /tmp/cc4XBM2x.s:11515  .debug_str:0000000000000eb8 .LASF154
     /tmp/cc4XBM2x.s:1456   .text:0000000000000438 .LFB16
     /tmp/cc4XBM2x.s:1605   .text:0000000000000580 .LFE16
     /tmp/cc4XBM2x.s:10782  .debug_loc:0000000000001589 .LLST42
     /tmp/cc4XBM2x.s:10796  .debug_loc:00000000000015c2 .LLST43
     /tmp/cc4XBM2x.s:11531  .debug_str:0000000000000f6f .LASF155
     /tmp/cc4XBM2x.s:10816  .debug_loc:000000000000161f .LLST44
GAS LISTING /tmp/cc4XBM2x.s 			page 121


     /tmp/cc4XBM2x.s:1483   .text:0000000000000468 .LVL157
     /tmp/cc4XBM2x.s:1490   .text:000000000000047c .LVL158
     /tmp/cc4XBM2x.s:1495   .text:000000000000048c .LVL159
     /tmp/cc4XBM2x.s:1510   .text:00000000000004ac .LVL162
     /tmp/cc4XBM2x.s:1521   .text:00000000000004b8 .LVL163
     /tmp/cc4XBM2x.s:1526   .text:00000000000004c4 .LVL164
     /tmp/cc4XBM2x.s:1534   .text:00000000000004d8 .LVL167
     /tmp/cc4XBM2x.s:1541   .text:00000000000004ec .LVL168
     /tmp/cc4XBM2x.s:1546   .text:00000000000004fc .LVL169
     /tmp/cc4XBM2x.s:1553   .text:0000000000000510 .LVL170
     /tmp/cc4XBM2x.s:1560   .text:0000000000000524 .LVL171
     /tmp/cc4XBM2x.s:1565   .text:0000000000000534 .LVL172
     /tmp/cc4XBM2x.s:1580   .text:0000000000000554 .LVL175
     /tmp/cc4XBM2x.s:1588   .text:0000000000000568 .LVL176
     /tmp/cc4XBM2x.s:11371  .debug_str:0000000000000887 .LASF156
     /tmp/cc4XBM2x.s:11183  .debug_str:000000000000017a .LASF157
     /tmp/cc4XBM2x.s:1261   .text:00000000000002b8 .LFB15
     /tmp/cc4XBM2x.s:1436   .text:0000000000000438 .LFE15
     /tmp/cc4XBM2x.s:10827  .debug_loc:0000000000001655 .LLST38
     /tmp/cc4XBM2x.s:10841  .debug_loc:000000000000168e .LLST39
     /tmp/cc4XBM2x.s:10861  .debug_loc:00000000000016eb .LLST40
     /tmp/cc4XBM2x.s:10869  .debug_loc:000000000000170f .LLST41
     /tmp/cc4XBM2x.s:1288   .text:00000000000002e8 .LVL128
     /tmp/cc4XBM2x.s:1295   .text:00000000000002fc .LVL129
     /tmp/cc4XBM2x.s:1300   .text:000000000000030c .LVL130
     /tmp/cc4XBM2x.s:1315   .text:000000000000032c .LVL133
     /tmp/cc4XBM2x.s:1326   .text:0000000000000338 .LVL134
     /tmp/cc4XBM2x.s:1340   .text:000000000000034c .LVL136
     /tmp/cc4XBM2x.s:1347   .text:0000000000000360 .LVL137
     /tmp/cc4XBM2x.s:1352   .text:0000000000000370 .LVL138
     /tmp/cc4XBM2x.s:1357   .text:000000000000037c .LVL139
     /tmp/cc4XBM2x.s:1365   .text:0000000000000390 .LVL142
     /tmp/cc4XBM2x.s:1372   .text:00000000000003a4 .LVL143
     /tmp/cc4XBM2x.s:1377   .text:00000000000003b4 .LVL144
     /tmp/cc4XBM2x.s:1384   .text:00000000000003c8 .LVL145
     /tmp/cc4XBM2x.s:1391   .text:00000000000003dc .LVL146
     /tmp/cc4XBM2x.s:1396   .text:00000000000003ec .LVL147
     /tmp/cc4XBM2x.s:1411   .text:000000000000040c .LVL150
     /tmp/cc4XBM2x.s:1419   .text:0000000000000420 .LVL151
     /tmp/cc4XBM2x.s:11369  .debug_str:000000000000087b .LASF158
     /tmp/cc4XBM2x.s:11257  .debug_str:0000000000000406 .LASF159
     /tmp/cc4XBM2x.s:155    .text:00000000000000cc .LFB14
     /tmp/cc4XBM2x.s:278    .text:00000000000001a0 .LFE14
     /tmp/cc4XBM2x.s:10880  .debug_loc:0000000000001745 .LLST4
     /tmp/cc4XBM2x.s:173    .text:00000000000000e4 .LBB52
     /tmp/cc4XBM2x.s:249    .text:0000000000000164 .LBE52
     /tmp/cc4XBM2x.s:10894  .debug_loc:000000000000177e .LLST5
     /tmp/cc4XBM2x.s:10906  .debug_loc:00000000000017b5 .LLST6
     /tmp/cc4XBM2x.s:196    .text:0000000000000104 .LBB56
     /tmp/cc4XBM2x.s:211    .text:000000000000011c .LBE56
     /tmp/cc4XBM2x.s:10918  .debug_loc:00000000000017ec .LLST7
     /tmp/cc4XBM2x.s:185    .text:00000000000000f4 .LVL18
     /tmp/cc4XBM2x.s:227    .text:0000000000000138 .LVL24
     /tmp/cc4XBM2x.s:234    .text:000000000000014c .LVL25
     /tmp/cc4XBM2x.s:239    .text:000000000000015c .LVL26
     /tmp/cc4XBM2x.s:254    .text:0000000000000174 .LVL28
     /tmp/cc4XBM2x.s:262    .text:0000000000000188 .LVL29
GAS LISTING /tmp/cc4XBM2x.s 			page 122


     /tmp/cc4XBM2x.s:11481  .debug_str:0000000000000d52 .LASF160
     /tmp/cc4XBM2x.s:11163  .debug_str:000000000000008f .LASF161
     /tmp/cc4XBM2x.s:21     .text:0000000000000000 .LFB13
     /tmp/cc4XBM2x.s:141    .text:00000000000000cc .LFE13
     /tmp/cc4XBM2x.s:10929  .debug_loc:0000000000001822 .LLST0
     /tmp/cc4XBM2x.s:40     .text:0000000000000018 .LBB44
     /tmp/cc4XBM2x.s:116    .text:0000000000000098 .LBE44
     /tmp/cc4XBM2x.s:10943  .debug_loc:000000000000185b .LLST1
     /tmp/cc4XBM2x.s:10955  .debug_loc:0000000000001892 .LLST2
     /tmp/cc4XBM2x.s:63     .text:0000000000000038 .LBB48
     /tmp/cc4XBM2x.s:78     .text:0000000000000050 .LBE48
     /tmp/cc4XBM2x.s:10967  .debug_loc:00000000000018c9 .LLST3
     /tmp/cc4XBM2x.s:52     .text:0000000000000028 .LVL3
     /tmp/cc4XBM2x.s:94     .text:000000000000006c .LVL9
     /tmp/cc4XBM2x.s:101    .text:0000000000000080 .LVL10
     /tmp/cc4XBM2x.s:106    .text:0000000000000090 .LVL11
     /tmp/cc4XBM2x.s:121    .text:00000000000000a8 .LVL13
     /tmp/cc4XBM2x.s:11249  .debug_str:00000000000003a7 .LASF192
     /tmp/cc4XBM2x.s:11245  .debug_str:0000000000000389 .LASF193
     /tmp/cc4XBM2x.s:1176   .text:0000000000000244 .LFB12
     /tmp/cc4XBM2x.s:1241   .text:00000000000002b8 .LFE12
     /tmp/cc4XBM2x.s:10978  .debug_loc:00000000000018ff .LLST37
     /tmp/cc4XBM2x.s:1208   .text:0000000000000280 .LVL120
     /tmp/cc4XBM2x.s:1213   .text:0000000000000290 .LVL121
     /tmp/cc4XBM2x.s:1238   .text:00000000000002b4 .LVL124
     /tmp/cc4XBM2x.s:11357  .debug_str:0000000000000823 .LASF162
     /tmp/cc4XBM2x.s:11233  .debug_str:0000000000000336 .LASF163
     /tmp/cc4XBM2x.s:11313  .debug_str:000000000000067b .LASF164
     /tmp/cc4XBM2x.s:11199  .debug_str:0000000000000213 .LASF165
     /tmp/cc4XBM2x.s:11519  .debug_str:0000000000000ef0 .LASF166
     /tmp/cc4XBM2x.s:11149  .debug_str:0000000000000037 .LASF167
     /tmp/cc4XBM2x.s:11343  .debug_str:000000000000079a .LASF168
     /tmp/cc4XBM2x.s:11521  .debug_str:0000000000000efc .LASF169
     /tmp/cc4XBM2x.s:11459  .debug_str:0000000000000c49 .LASF170
     /tmp/cc4XBM2x.s:11201  .debug_str:0000000000000226 .LASF171
     /tmp/cc4XBM2x.s:11509  .debug_str:0000000000000e80 .LASF172
     /tmp/cc4XBM2x.s:11495  .debug_str:0000000000000e01 .LASF194
     /tmp/cc4XBM2x.s:11253  .debug_str:00000000000003e0 .LASF195
     /tmp/cc4XBM2x.s:11501  .debug_str:0000000000000e43 .LASF173
     /tmp/cc4XBM2x.s:11511  .debug_str:0000000000000e89 .LASF175
     /tmp/cc4XBM2x.s:11441  .debug_str:0000000000000bf1 .LASF176
     /tmp/cc4XBM2x.s:11375  .debug_str:000000000000089f .LASF177
     /tmp/cc4XBM2x.s:11205  .debug_str:0000000000000245 .LASF178
     /tmp/cc4XBM2x.s:11445  .debug_str:0000000000000c0b .LASF179
     /tmp/cc4XBM2x.s:11165  .debug_str:00000000000000a1 .LASF180
     /tmp/cc4XBM2x.s:11185  .debug_str:000000000000018c .LASF181
     /tmp/cc4XBM2x.s:699    .text._ZN16ProducerKeyboardD0Ev:0000000000000000 .LVL74
     /tmp/cc4XBM2x.s:731    .text._ZN16ProducerKeyboardD0Ev:0000000000000044 .LVL78
     /tmp/cc4XBM2x.s:711    .text._ZN16ProducerKeyboardD0Ev:0000000000000018 .LVL75
     /tmp/cc4XBM2x.s:662    .text._ZN16ProducerKeyboardD2Ev:0000000000000000 .LVL72
     /tmp/cc4XBM2x.s:615    .text._ZN8ProducerD0Ev:0000000000000000 .LVL67
     /tmp/cc4XBM2x.s:647    .text._ZN8ProducerD0Ev:0000000000000044 .LVL71
     /tmp/cc4XBM2x.s:627    .text._ZN8ProducerD0Ev:0000000000000018 .LVL68
     /tmp/cc4XBM2x.s:578    .text._ZN8ProducerD2Ev:0000000000000000 .LVL65
     /tmp/cc4XBM2x.s:531    .text._ZN8ConsumerD0Ev:0000000000000000 .LVL60
     /tmp/cc4XBM2x.s:563    .text._ZN8ConsumerD0Ev:0000000000000044 .LVL64
     /tmp/cc4XBM2x.s:543    .text._ZN8ConsumerD0Ev:0000000000000018 .LVL61
GAS LISTING /tmp/cc4XBM2x.s 			page 123


     /tmp/cc4XBM2x.s:494    .text._ZN8ConsumerD2Ev:0000000000000000 .LVL58
     /tmp/cc4XBM2x.s:867    .text._ZN19ConsumerProducerCPP16ProducerKeyboradD0Ev:0000000000000000 .LVL88
     /tmp/cc4XBM2x.s:899    .text._ZN19ConsumerProducerCPP16ProducerKeyboradD0Ev:0000000000000044 .LVL92
     /tmp/cc4XBM2x.s:879    .text._ZN19ConsumerProducerCPP16ProducerKeyboradD0Ev:0000000000000018 .LVL89
     /tmp/cc4XBM2x.s:830    .text._ZN19ConsumerProducerCPP16ProducerKeyboradD2Ev:0000000000000000 .LVL86
     /tmp/cc4XBM2x.s:951    .text._ZN19ConsumerProducerCPP8ProducerD0Ev:0000000000000000 .LVL95
     /tmp/cc4XBM2x.s:983    .text._ZN19ConsumerProducerCPP8ProducerD0Ev:0000000000000044 .LVL99
     /tmp/cc4XBM2x.s:963    .text._ZN19ConsumerProducerCPP8ProducerD0Ev:0000000000000018 .LVL96
     /tmp/cc4XBM2x.s:914    .text._ZN19ConsumerProducerCPP8ProducerD2Ev:0000000000000000 .LVL93
     /tmp/cc4XBM2x.s:783    .text._ZN19ConsumerProducerCPP8ConsumerD0Ev:0000000000000000 .LVL81
     /tmp/cc4XBM2x.s:815    .text._ZN19ConsumerProducerCPP8ConsumerD0Ev:0000000000000044 .LVL85
     /tmp/cc4XBM2x.s:795    .text._ZN19ConsumerProducerCPP8ConsumerD0Ev:0000000000000018 .LVL82
     /tmp/cc4XBM2x.s:746    .text._ZN19ConsumerProducerCPP8ConsumerD2Ev:0000000000000000 .LVL79
     /tmp/cc4XBM2x.s:2975   .text:0000000000000e60 .LVL332
     /tmp/cc4XBM2x.s:3050   .text:0000000000000f1c .LVL344
     /tmp/cc4XBM2x.s:3349   .text:000000000000115c .LVL384
     /tmp/cc4XBM2x.s:3353   .text:0000000000001160 .LVL385
     /tmp/cc4XBM2x.s:2957   .text:0000000000000e30 .LVL328
     /tmp/cc4XBM2x.s:3333   .text:000000000000113c .LVL383
     /tmp/cc4XBM2x.s:3042   .text:0000000000000f0c .LVL342
     /tmp/cc4XBM2x.s:3317   .text:0000000000001124 .LVL382
     /tmp/cc4XBM2x.s:3067   .text:0000000000000f48 .LVL347
     /tmp/cc4XBM2x.s:3079   .text:0000000000000f64 .LVL349
     /tmp/cc4XBM2x.s:3081   .text:0000000000000f68 .LVL350
     /tmp/cc4XBM2x.s:3116   .text:0000000000000fb0 .LVL354
     /tmp/cc4XBM2x.s:3168   .text:0000000000001010 .LVL361
     /tmp/cc4XBM2x.s:3176   .text:0000000000001020 .LVL362
     /tmp/cc4XBM2x.s:3215   .text:0000000000001074 .LVL366
     /tmp/cc4XBM2x.s:3224   .text:0000000000001080 .LVL368
     /tmp/cc4XBM2x.s:3399   .text:00000000000011d0 .LVL395
     /tmp/cc4XBM2x.s:3238   .text:000000000000108c .LVL370
     /tmp/cc4XBM2x.s:3248   .text:00000000000010a4 .LVL372
     /tmp/cc4XBM2x.s:3250   .text:00000000000010a8 .LVL373
     /tmp/cc4XBM2x.s:3267   .text:00000000000010c4 .LVL375
     /tmp/cc4XBM2x.s:3269   .text:00000000000010c8 .LVL376
     /tmp/cc4XBM2x.s:3060   .text:0000000000000f34 .LVL346
     /tmp/cc4XBM2x.s:3071   .text:0000000000000f4c .LVL348
     /tmp/cc4XBM2x.s:3104   .text:0000000000000f98 .LVL352
     /tmp/cc4XBM2x.s:3376   .text:0000000000001198 .LVL390
     /tmp/cc4XBM2x.s:3142   .text:0000000000000fe0 .LVL357
     /tmp/cc4XBM2x.s:3153   .text:0000000000000ff8 .LVL359
     /tmp/cc4XBM2x.s:369    .text._ZN19ConsumerProducerCPP8Consumer3runEv:0000000000000000 .LVL42
     /tmp/cc4XBM2x.s:390    .text._ZN19ConsumerProducerCPP8Consumer3runEv:0000000000000028 .LVL44
     /tmp/cc4XBM2x.s:475    .text._ZN19ConsumerProducerCPP8Consumer3runEv:00000000000000c4 .LVL56
     /tmp/cc4XBM2x.s:386    .text._ZN19ConsumerProducerCPP8Consumer3runEv:0000000000000020 .LVL43
     /tmp/cc4XBM2x.s:416    .text._ZN19ConsumerProducerCPP8Consumer3runEv:0000000000000058 .LVL47
     /tmp/cc4XBM2x.s:427    .text._ZN19ConsumerProducerCPP8Consumer3runEv:000000000000006c .LVL50
     /tmp/cc4XBM2x.s:478    .text._ZN19ConsumerProducerCPP8Consumer3runEv:00000000000000c8 .LVL57
     /tmp/cc4XBM2x.s:420    .text._ZN19ConsumerProducerCPP8Consumer3runEv:000000000000005c .LVL48
     /tmp/cc4XBM2x.s:444    .text._ZN19ConsumerProducerCPP8Consumer3runEv:0000000000000088 .LVL52
     /tmp/cc4XBM2x.s:1094   .text._ZN19ConsumerProducerCPP8Producer3runEv:0000000000000000 .LVL109
     /tmp/cc4XBM2x.s:1112   .text._ZN19ConsumerProducerCPP8Producer3runEv:0000000000000020 .LVL111
     /tmp/cc4XBM2x.s:1161   .text._ZN19ConsumerProducerCPP8Producer3runEv:0000000000000088 .LVL116
     /tmp/cc4XBM2x.s:1109   .text._ZN19ConsumerProducerCPP8Producer3runEv:000000000000001c .LVL110
     /tmp/cc4XBM2x.s:1131   .text._ZN19ConsumerProducerCPP8Producer3runEv:000000000000004c .LVL113
     /tmp/cc4XBM2x.s:1164   .text._ZN19ConsumerProducerCPP8Producer3runEv:000000000000008c .LVL117
     /tmp/cc4XBM2x.s:289    .text._ZN19ConsumerProducerCPP16ProducerKeyborad3runEv:0000000000000000 .LVL31
GAS LISTING /tmp/cc4XBM2x.s 			page 124


     /tmp/cc4XBM2x.s:303    .text._ZN19ConsumerProducerCPP16ProducerKeyborad3runEv:0000000000000018 .LVL32
     /tmp/cc4XBM2x.s:354    .text._ZN19ConsumerProducerCPP16ProducerKeyborad3runEv:000000000000007c .LVL41
     /tmp/cc4XBM2x.s:312    .text._ZN19ConsumerProducerCPP16ProducerKeyborad3runEv:0000000000000024 .LVL34
     /tmp/cc4XBM2x.s:325    .text._ZN19ConsumerProducerCPP16ProducerKeyborad3runEv:0000000000000040 .LVL36
     /tmp/cc4XBM2x.s:335    .text._ZN19ConsumerProducerCPP16ProducerKeyborad3runEv:0000000000000054 .LVL37
     /tmp/cc4XBM2x.s:337    .text._ZN19ConsumerProducerCPP16ProducerKeyborad3runEv:0000000000000058 .LVL38
     /tmp/cc4XBM2x.s:2847   .text:0000000000000d60 .LVL320
     /tmp/cc4XBM2x.s:2852   .text:0000000000000d68 .LVL321
     /tmp/cc4XBM2x.s:2892   .text:0000000000000dbc .LVL324
     /tmp/cc4XBM2x.s:1006   .text:00000000000001a0 .LVL100
     /tmp/cc4XBM2x.s:1026   .text:00000000000001c0 .LVL102
     /tmp/cc4XBM2x.s:1022   .text:00000000000001bc .LVL101
     /tmp/cc4XBM2x.s:1062   .text:0000000000000214 .LVL108
     /tmp/cc4XBM2x.s:1031   .text:00000000000001c4 .LVL103
     /tmp/cc4XBM2x.s:2296   .text:0000000000000990 .LVL252
     /tmp/cc4XBM2x.s:2371   .text:0000000000000a4c .LVL264
     /tmp/cc4XBM2x.s:2681   .text:0000000000000cb0 .LVL303
     /tmp/cc4XBM2x.s:2685   .text:0000000000000cb4 .LVL304
     /tmp/cc4XBM2x.s:2278   .text:0000000000000960 .LVL248
     /tmp/cc4XBM2x.s:2663   .text:0000000000000c8c .LVL302
     /tmp/cc4XBM2x.s:2697   .text:0000000000000cd0 .LVL307
     /tmp/cc4XBM2x.s:2363   .text:0000000000000a3c .LVL262
     /tmp/cc4XBM2x.s:2649   .text:0000000000000c78 .LVL301
     /tmp/cc4XBM2x.s:2388   .text:0000000000000a78 .LVL267
     /tmp/cc4XBM2x.s:2401   .text:0000000000000a94 .LVL269
     /tmp/cc4XBM2x.s:2443   .text:0000000000000aec .LVL274
     /tmp/cc4XBM2x.s:2403   .text:0000000000000a98 .LVL270
     /tmp/cc4XBM2x.s:2456   .text:0000000000000b00 .LVL276
     /tmp/cc4XBM2x.s:2571   .text:0000000000000be0 .LVL289
     /tmp/cc4XBM2x.s:2721   .text:0000000000000d08 .LVL313
     /tmp/cc4XBM2x.s:2734   .text:0000000000000d24 .LVL316
     /tmp/cc4XBM2x.s:2464   .text:0000000000000b10 .LVL277
     /tmp/cc4XBM2x.s:2515   .text:0000000000000b80 .LVL281
     /tmp/cc4XBM2x.s:2524   .text:0000000000000b8c .LVL283
     /tmp/cc4XBM2x.s:2542   .text:0000000000000bac .LVL285
     /tmp/cc4XBM2x.s:2553   .text:0000000000000bc4 .LVL287
     /tmp/cc4XBM2x.s:2582   .text:0000000000000bf8 .LVL291
     /tmp/cc4XBM2x.s:2584   .text:0000000000000bfc .LVL292
     /tmp/cc4XBM2x.s:2590   .text:0000000000000c00 .LVL293
     /tmp/cc4XBM2x.s:2592   .text:0000000000000c04 .LVL294
     /tmp/cc4XBM2x.s:2381   .text:0000000000000a64 .LVL266
     /tmp/cc4XBM2x.s:2393   .text:0000000000000a7c .LVL268
     /tmp/cc4XBM2x.s:2431   .text:0000000000000ad4 .LVL272
     /tmp/cc4XBM2x.s:2709   .text:0000000000000cec .LVL310
     /tmp/cc4XBM2x.s:2025   .text:0000000000000800 .LVL224
     /tmp/cc4XBM2x.s:2050   .text:0000000000000830 .LVL226
     /tmp/cc4XBM2x.s:2153   .text:00000000000008e8 .LVL241
     /tmp/cc4XBM2x.s:2150   .text:00000000000008e4 .LVL240
     /tmp/cc4XBM2x.s:2045   .text:0000000000000828 .LVL225
     /tmp/cc4XBM2x.s:2058   .text:000000000000083c .LVL228
     /tmp/cc4XBM2x.s:2081   .text:0000000000000868 .LVL231
     /tmp/cc4XBM2x.s:2103   .text:0000000000000890 .LVL234
     /tmp/cc4XBM2x.s:2156   .text:00000000000008ec .LVL242
     /tmp/cc4XBM2x.s:2085   .text:000000000000086c .LVL232
     /tmp/cc4XBM2x.s:2120   .text:00000000000008ac .LVL236
     /tmp/cc4XBM2x.s:2171   .text._ZN8Consumer3runEv:0000000000000000 .LVL243
     /tmp/cc4XBM2x.s:1902   .text:000000000000076c .LVL212
GAS LISTING /tmp/cc4XBM2x.s 			page 125


     /tmp/cc4XBM2x.s:1922   .text:0000000000000790 .LVL214
     /tmp/cc4XBM2x.s:1973   .text:00000000000007f4 .LVL220
     /tmp/cc4XBM2x.s:1917   .text:0000000000000788 .LVL213
     /tmp/cc4XBM2x.s:1945   .text:00000000000007c0 .LVL217
     /tmp/cc4XBM2x.s:1958   .text:00000000000007dc .LVL218
     /tmp/cc4XBM2x.s:1976   .text:00000000000007f8 .LVL221
     /tmp/cc4XBM2x.s:1991   .text._ZN8Producer3runEv:0000000000000000 .LVL222
     /tmp/cc4XBM2x.s:1755   .text:00000000000006ac .LVL194
     /tmp/cc4XBM2x.s:1779   .text:00000000000006d8 .LVL196
     /tmp/cc4XBM2x.s:1853   .text:0000000000000764 .LVL209
     /tmp/cc4XBM2x.s:1847   .text:000000000000075c .LVL207
     /tmp/cc4XBM2x.s:1773   .text:00000000000006d0 .LVL195
     /tmp/cc4XBM2x.s:1793   .text:00000000000006ec .LVL199
     /tmp/cc4XBM2x.s:1819   .text:0000000000000724 .LVL202
     /tmp/cc4XBM2x.s:1829   .text:0000000000000738 .LVL203
     /tmp/cc4XBM2x.s:1831   .text:000000000000073c .LVL204
     /tmp/cc4XBM2x.s:1806   .text:0000000000000708 .LVL201
     /tmp/cc4XBM2x.s:1850   .text:0000000000000760 .LVL208
     /tmp/cc4XBM2x.s:1868   .text._ZN16ProducerKeyboard3runEv:0000000000000000 .LVL210
     /tmp/cc4XBM2x.s:1711   .text:0000000000000678 .LVL188
     /tmp/cc4XBM2x.s:1715   .text:000000000000067c .LVL189
     /tmp/cc4XBM2x.s:1720   .text:0000000000000684 .LVL190
     /tmp/cc4XBM2x.s:1730   .text:0000000000000698 .LVL192
     /tmp/cc4XBM2x.s:1741   .text:00000000000006a4 .LVL193
     /tmp/cc4XBM2x.s:1459   .text:0000000000000438 .LVL154
     /tmp/cc4XBM2x.s:1477   .text:0000000000000458 .LVL156
     /tmp/cc4XBM2x.s:1473   .text:0000000000000450 .LVL155
     /tmp/cc4XBM2x.s:1498   .text:0000000000000490 .LVL160
     /tmp/cc4XBM2x.s:1500   .text:0000000000000494 .LVL161
     /tmp/cc4XBM2x.s:1568   .text:0000000000000538 .LVL173
     /tmp/cc4XBM2x.s:1570   .text:000000000000053c .LVL174
     /tmp/cc4XBM2x.s:1597   .text:0000000000000574 .LVL177
     /tmp/cc4XBM2x.s:1528   .text:00000000000004c8 .LVL165
     /tmp/cc4XBM2x.s:1532   .text:00000000000004d0 .LVL166
     /tmp/cc4XBM2x.s:1600   .text:0000000000000578 .LVL178
     /tmp/cc4XBM2x.s:1264   .text:00000000000002b8 .LVL125
     /tmp/cc4XBM2x.s:1282   .text:00000000000002d8 .LVL127
     /tmp/cc4XBM2x.s:1278   .text:00000000000002d0 .LVL126
     /tmp/cc4XBM2x.s:1303   .text:0000000000000310 .LVL131
     /tmp/cc4XBM2x.s:1305   .text:0000000000000314 .LVL132
     /tmp/cc4XBM2x.s:1399   .text:00000000000003f0 .LVL148
     /tmp/cc4XBM2x.s:1401   .text:00000000000003f4 .LVL149
     /tmp/cc4XBM2x.s:1428   .text:000000000000042c .LVL152
     /tmp/cc4XBM2x.s:1334   .text:000000000000033c .LVL135
     /tmp/cc4XBM2x.s:1359   .text:0000000000000380 .LVL140
     /tmp/cc4XBM2x.s:1363   .text:0000000000000388 .LVL141
     /tmp/cc4XBM2x.s:1431   .text:0000000000000430 .LVL153
     /tmp/cc4XBM2x.s:158    .text:00000000000000cc .LVL15
     /tmp/cc4XBM2x.s:177    .text:00000000000000ec .LVL17
     /tmp/cc4XBM2x.s:172    .text:00000000000000e4 .LVL16
     /tmp/cc4XBM2x.s:273    .text:0000000000000198 .LVL30
     /tmp/cc4XBM2x.s:217    .text:0000000000000120 .LVL23
     /tmp/cc4XBM2x.s:245    .text:0000000000000164 .LVL27
     /tmp/cc4XBM2x.s:200    .text:0000000000000108 .LVL20
     /tmp/cc4XBM2x.s:209    .text:000000000000011c .LVL22
     /tmp/cc4XBM2x.s:25     .text:0000000000000000 .LVL0
     /tmp/cc4XBM2x.s:44     .text:0000000000000020 .LVL2
GAS LISTING /tmp/cc4XBM2x.s 			page 126


     /tmp/cc4XBM2x.s:39     .text:0000000000000018 .LVL1
     /tmp/cc4XBM2x.s:136    .text:00000000000000c4 .LVL14
     /tmp/cc4XBM2x.s:84     .text:0000000000000054 .LVL8
     /tmp/cc4XBM2x.s:112    .text:0000000000000098 .LVL12
     /tmp/cc4XBM2x.s:67     .text:000000000000003c .LVL5
     /tmp/cc4XBM2x.s:76     .text:0000000000000050 .LVL7
     /tmp/cc4XBM2x.s:1179   .text:0000000000000244 .LVL118
     /tmp/cc4XBM2x.s:1202   .text:0000000000000274 .LVL119
     /tmp/cc4XBM2x.s:1226   .text:00000000000002a0 .LVL122
     /tmp/cc4XBM2x.s:1232   .text:00000000000002ac .LVL123
     /tmp/cc4XBM2x.s:3641   .debug_info:0000000000000000 .Ldebug_info0
     /tmp/cc4XBM2x.s:5      .text:0000000000000000 .Ltext0
     /tmp/cc4XBM2x.s:3633   .text:0000000000001210 .Letext0
     /tmp/cc4XBM2x.s:47     .text:0000000000000020 .LBB46
     /tmp/cc4XBM2x.s:80     .text:0000000000000050 .LBE46
     /tmp/cc4XBM2x.s:108    .text:0000000000000090 .LBB50
     /tmp/cc4XBM2x.s:114    .text:0000000000000098 .LBE50
     /tmp/cc4XBM2x.s:180    .text:00000000000000ec .LBB54
     /tmp/cc4XBM2x.s:213    .text:000000000000011c .LBE54
     /tmp/cc4XBM2x.s:241    .text:000000000000015c .LBB58
     /tmp/cc4XBM2x.s:247    .text:0000000000000164 .LBE58
     /tmp/cc4XBM2x.s:392    .text._ZN19ConsumerProducerCPP8Consumer3runEv:0000000000000028 .LBB60
     /tmp/cc4XBM2x.s:399    .text._ZN19ConsumerProducerCPP8Consumer3runEv:0000000000000034 .LBE60
     /tmp/cc4XBM2x.s:404    .text._ZN19ConsumerProducerCPP8Consumer3runEv:0000000000000040 .LBB61
     /tmp/cc4XBM2x.s:432    .text._ZN19ConsumerProducerCPP8Consumer3runEv:0000000000000074 .LBE61
     /tmp/cc4XBM2x.s:2052   .text:0000000000000830 .LBB82
     /tmp/cc4XBM2x.s:2066   .text:0000000000000848 .LBE82
     /tmp/cc4XBM2x.s:2071   .text:0000000000000854 .LBB83
     /tmp/cc4XBM2x.s:2108   .text:0000000000000898 .LBE83
     /tmp/cc4XBM2x.s:2452   .text:0000000000000af8 .LBB87
     /tmp/cc4XBM2x.s:2562   .text:0000000000000bd4 .LBE87
     /tmp/cc4XBM2x.s:2722   .text:0000000000000d08 .LBB96
     /tmp/cc4XBM2x.s:2744   .text:0000000000000d3c .LBE96
     /tmp/cc4XBM2x.s:2466   .text:0000000000000b10 .LBE88
     /tmp/cc4XBM2x.s:2517   .text:0000000000000b80 .LBB91
     /tmp/cc4XBM2x.s:2527   .text:0000000000000b8c .LBE91
     /tmp/cc4XBM2x.s:3164   .text:0000000000001008 .LBB102
     /tmp/cc4XBM2x.s:3228   .text:0000000000001080 .LBE102
     /tmp/cc4XBM2x.s:3400   .text:00000000000011d0 .LBB110
     /tmp/cc4XBM2x.s:3410   .text:00000000000011e8 .LBE110
     /tmp/cc4XBM2x.s:3178   .text:0000000000001020 .LBE103
     /tmp/cc4XBM2x.s:3217   .text:0000000000001074 .LBB106
     /tmp/cc4XBM2x.s:3227   .text:0000000000001080 .LBE106
     /tmp/cc4XBM2x.s:3234   .text:0000000000001088 .LBB107
     /tmp/cc4XBM2x.s:3252   .text:00000000000010a8 .LBE107
     /tmp/cc4XBM2x.s:3264   .text:00000000000010c0 .LBB108
     /tmp/cc4XBM2x.s:3271   .text:00000000000010c8 .LBE108
     /tmp/cc4XBM2x.s:2749   .gcc_except_table:0000000000000000 .LLSDA35
     /tmp/cc4XBM2x.s:3414   .gcc_except_table:00000000000000d5 .LLSDA50
                           .group:0000000000000000 _ZN8ConsumerD5Ev
                           .group:0000000000000000 _ZN8ProducerD5Ev
                           .group:0000000000000000 _ZN16ProducerKeyboardD5Ev
                           .group:0000000000000000 _ZN19ConsumerProducerCPP8ConsumerD5Ev
                           .group:0000000000000000 _ZN19ConsumerProducerCPP16ProducerKeyboradD5Ev
                           .group:0000000000000000 _ZN19ConsumerProducerCPP8ProducerD5Ev

UNDEFINED SYMBOLS
GAS LISTING /tmp/cc4XBM2x.s 			page 127


_Z15thread_dispatchv
_Z11printStringPKc
_Z8printIntiii
_Z4getcv
_ZN9BufferCPP3putEi
_ZN9Semaphore6signalEv
_ZN7Console4putcEc
_ZN9BufferCPP3getEv
_ZN9BufferCPP6getCntEv
_ZN6ThreadD2Ev
_ZdlPv
_Z10time_sleepm
_ZN6Thread5sleepEm
_Z13thread_createPP7_threadPFvPvES2_
_ZN7_threaddlEPv
_ZN6Thread8dispatchEv
_Z4putcc
_Z9getStringPci
_Z11stringToIntPKc
_Znwm
_ZN9BufferCPPC1Ei
_ZN9SemaphoreC1Ej
_ZN6ThreadC2Ev
_ZN6Thread5startEv
_ZN9Semaphore4waitEv
_ZN9BufferCPPD1Ev
_Unwind_Resume
__gxx_personality_v0
