GAS LISTING /tmp/ccYWmO80.s 			page 1


   1              		.file	"userMain.cpp"
   2              		.option pic
   3              		.option norelax
   4              		.text
   5              	.Ltext0:
   6              		.section	.rodata.str1.8,"aMS",@progbits,1
   7              		.align	3
   8              	.LC0:
   9 0000 413A2069 		.string	"A: i="
   9      3D00
  10 0006 0000     		.align	3
  11              	.LC1:
  12 0008 0A00     		.string	"\n"
  13 000a 00000000 		.align	3
  13      0000
  14              	.LC2:
  15 0010 41206669 		.string	"A finished!\n"
  15      6E697368 
  15      6564210A 
  15      00
  16              		.text
  17              		.align	2
  18              		.globl	_Z11workerBodyAPv
  20              	_Z11workerBodyAPv:
  21              	.LFB13:
  22              		.file 1 "tests/Threads_C_API_test.hpp"
   1:tests/Threads_C_API_test.hpp **** #ifndef XV6_THREADS_C_API_TEST_HPP
   2:tests/Threads_C_API_test.hpp **** #define XV6_THREADS_C_API_TEST_HPP
   3:tests/Threads_C_API_test.hpp **** 
   4:tests/Threads_C_API_test.hpp **** #include "../h/syscall_c.h"
   5:tests/Threads_C_API_test.hpp **** 
   6:tests/Threads_C_API_test.hpp **** #include "../h/printing.hpp"
   7:tests/Threads_C_API_test.hpp **** 
   8:tests/Threads_C_API_test.hpp **** bool finishedA = false;
   9:tests/Threads_C_API_test.hpp **** bool finishedB = false;
  10:tests/Threads_C_API_test.hpp **** bool finishedC = false;
  11:tests/Threads_C_API_test.hpp **** bool finishedD = false;
  12:tests/Threads_C_API_test.hpp **** 
  13:tests/Threads_C_API_test.hpp **** uint64 fibonacci(uint64 n) {
  14:tests/Threads_C_API_test.hpp ****     if (n == 0 || n == 1) { return n; }
  15:tests/Threads_C_API_test.hpp ****     if (n % 10 == 0) { thread_dispatch(); }
  16:tests/Threads_C_API_test.hpp ****     return fibonacci(n - 1) + fibonacci(n - 2);
  17:tests/Threads_C_API_test.hpp **** }
  18:tests/Threads_C_API_test.hpp **** 
  19:tests/Threads_C_API_test.hpp **** void workerBodyA(void* arg) {
  23              		.loc 1 19 29
  24              		.cfi_startproc
  25              	.LVL0:
  26 0000 130101FE 		addi	sp,sp,-32
  27              		.cfi_def_cfa_offset 32
  28 0004 233C1100 		sd	ra,24(sp)
  29 0008 23388100 		sd	s0,16(sp)
  30 000c 23349100 		sd	s1,8(sp)
  31 0010 23302101 		sd	s2,0(sp)
  32              		.cfi_offset 1, -8
  33              		.cfi_offset 8, -16
  34              		.cfi_offset 9, -24
GAS LISTING /tmp/ccYWmO80.s 			page 2


  35              		.cfi_offset 18, -32
  36 0014 13040102 		addi	s0,sp,32
  37              		.cfi_def_cfa 8, 0
  20:tests/Threads_C_API_test.hpp ****     for (uint64 i = 0; i < 10; i++) {
  38              		.loc 1 20 5
  39              	.LVL1:
  40              	.LBB23:
  41              		.loc 1 20 17 is_stmt 0
  42 0018 13090000 		li	s2,0
  43 001c 6F008003 		j	.L7
  44              	.LVL2:
  45              	.L4:
  46              	.LBB24:
  47              	.LBB25:
  48              	.LBB26:
  21:tests/Threads_C_API_test.hpp ****         printString("A: i="); printInt(i); printString("\n");
  22:tests/Threads_C_API_test.hpp ****         for (uint64 j = 0; j < 10000; j++) {
  23:tests/Threads_C_API_test.hpp ****             for (uint64 k = 0; k < 30000; k++) { /* busy wait */ }
  24:tests/Threads_C_API_test.hpp ****             thread_dispatch();
  49              		.loc 1 24 13 is_stmt 1 discriminator 2
  50              		.loc 1 24 28 is_stmt 0 discriminator 2
  51 0020 97000000 		call	_Z15thread_dispatchv@plt
  51      E7800000 
  52              	.LVL3:
  53              	.LBE26:
  22:tests/Threads_C_API_test.hpp ****             for (uint64 k = 0; k < 30000; k++) { /* busy wait */ }
  54              		.loc 1 22 9 is_stmt 1 discriminator 2
  55 0028 93841400 		addi	s1,s1,1
  56              	.LVL4:
  57              	.L6:
  22:tests/Threads_C_API_test.hpp ****             for (uint64 k = 0; k < 30000; k++) { /* busy wait */ }
  58              		.loc 1 22 30 discriminator 1
  59 002c B7270000 		li	a5,8192
  60 0030 9387F770 		addi	a5,a5,1807
  61 0034 63EE9700 		bgtu	s1,a5,.L3
  62              	.LBB28:
  63              	.LBB27:
  23:tests/Threads_C_API_test.hpp ****             thread_dispatch();
  64              		.loc 1 23 25 is_stmt 0
  65 0038 13070000 		li	a4,0
  66              	.L5:
  67              	.LVL5:
  23:tests/Threads_C_API_test.hpp ****             thread_dispatch();
  68              		.loc 1 23 34 is_stmt 1 discriminator 3
  69 003c B7770000 		li	a5,28672
  70 0040 9387F752 		addi	a5,a5,1327
  71 0044 E3EEE7FC 		bgtu	a4,a5,.L4
  23:tests/Threads_C_API_test.hpp ****             thread_dispatch();
  72              		.loc 1 23 13 discriminator 2
  73 0048 13071700 		addi	a4,a4,1
  74              	.LVL6:
  75 004c 6FF01FFF 		j	.L5
  76              	.LVL7:
  77              	.L3:
  78              	.LBE27:
  79              	.LBE28:
  80              	.LBE25:
GAS LISTING /tmp/ccYWmO80.s 			page 3


  81              	.LBE24:
  20:tests/Threads_C_API_test.hpp ****         printString("A: i="); printInt(i); printString("\n");
  82              		.loc 1 20 5 discriminator 2
  83 0050 13091900 		addi	s2,s2,1
  84              	.LVL8:
  85              	.L7:
  20:tests/Threads_C_API_test.hpp ****         printString("A: i="); printInt(i); printString("\n");
  86              		.loc 1 20 26 discriminator 1
  87 0054 93079000 		li	a5,9
  88 0058 63E02705 		bgtu	s2,a5,.L2
  89              	.LBB30:
  21:tests/Threads_C_API_test.hpp ****         for (uint64 j = 0; j < 10000; j++) {
  90              		.loc 1 21 9
  21:tests/Threads_C_API_test.hpp ****         for (uint64 j = 0; j < 10000; j++) {
  91              		.loc 1 21 20 is_stmt 0
  92 005c 17050000 		lla	a0,.LC0
  92      13050500 
  93 0064 97000000 		call	_Z11printStringPKc@plt
  93      E7800000 
  94              	.LVL9:
  21:tests/Threads_C_API_test.hpp ****         for (uint64 j = 0; j < 10000; j++) {
  95              		.loc 1 21 31 is_stmt 1
  21:tests/Threads_C_API_test.hpp ****         for (uint64 j = 0; j < 10000; j++) {
  96              		.loc 1 21 39 is_stmt 0
  97 006c 13060000 		li	a2,0
  98 0070 9305A000 		li	a1,10
  99 0074 1B050900 		sext.w	a0,s2
 100 0078 97000000 		call	_Z8printIntiii@plt
 100      E7800000 
 101              	.LVL10:
  21:tests/Threads_C_API_test.hpp ****         for (uint64 j = 0; j < 10000; j++) {
 102              		.loc 1 21 44 is_stmt 1
  21:tests/Threads_C_API_test.hpp ****         for (uint64 j = 0; j < 10000; j++) {
 103              		.loc 1 21 55 is_stmt 0
 104 0080 17050000 		lla	a0,.LC1
 104      13050500 
 105 0088 97000000 		call	_Z11printStringPKc@plt
 105      E7800000 
 106              	.LVL11:
  22:tests/Threads_C_API_test.hpp ****             for (uint64 k = 0; k < 30000; k++) { /* busy wait */ }
 107              		.loc 1 22 9 is_stmt 1
 108              	.LBB29:
  22:tests/Threads_C_API_test.hpp ****             for (uint64 k = 0; k < 30000; k++) { /* busy wait */ }
 109              		.loc 1 22 21 is_stmt 0
 110 0090 93040000 		li	s1,0
 111 0094 6FF09FF9 		j	.L6
 112              	.LVL12:
 113              	.L2:
 114              	.LBE29:
 115              	.LBE30:
 116              	.LBE23:
  25:tests/Threads_C_API_test.hpp ****         }
  26:tests/Threads_C_API_test.hpp ****     }
  27:tests/Threads_C_API_test.hpp ****     printString("A finished!\n");
 117              		.loc 1 27 5 is_stmt 1
 118              		.loc 1 27 16 is_stmt 0
 119 0098 17050000 		lla	a0,.LC2
GAS LISTING /tmp/ccYWmO80.s 			page 4


 119      13050500 
 120 00a0 97000000 		call	_Z11printStringPKc@plt
 120      E7800000 
 121              	.LVL13:
  28:tests/Threads_C_API_test.hpp ****     finishedA = true;
 122              		.loc 1 28 5 is_stmt 1
 123              		.loc 1 28 15 is_stmt 0
 124 00a8 93071000 		li	a5,1
 125 00ac 17070000 		sb	a5,.LANCHOR0,a4
 125      2300F700 
  29:tests/Threads_C_API_test.hpp **** }
 126              		.loc 1 29 1
 127 00b4 83308101 		ld	ra,24(sp)
 128              		.cfi_restore 1
 129 00b8 03340101 		ld	s0,16(sp)
 130              		.cfi_restore 8
 131              		.cfi_def_cfa 2, 32
 132 00bc 83348100 		ld	s1,8(sp)
 133              		.cfi_restore 9
 134 00c0 03390100 		ld	s2,0(sp)
 135              		.cfi_restore 18
 136              	.LVL14:
 137 00c4 13010102 		addi	sp,sp,32
 138              		.cfi_def_cfa_offset 0
 139 00c8 67800000 		jr	ra
 140              		.cfi_endproc
 141              	.LFE13:
 143              		.section	.rodata.str1.8
 144 001d 000000   		.align	3
 145              	.LC3:
 146 0020 423A2069 		.string	"B: i="
 146      3D00
 147 0026 0000     		.align	3
 148              	.LC4:
 149 0028 42206669 		.string	"B finished!\n"
 149      6E697368 
 149      6564210A 
 149      00
 150              		.text
 151              		.align	2
 152              		.globl	_Z11workerBodyBPv
 154              	_Z11workerBodyBPv:
 155              	.LFB14:
  30:tests/Threads_C_API_test.hpp **** 
  31:tests/Threads_C_API_test.hpp **** void workerBodyB(void* arg) {
 156              		.loc 1 31 29 is_stmt 1
 157              		.cfi_startproc
 158              	.LVL15:
 159 00cc 130101FE 		addi	sp,sp,-32
 160              		.cfi_def_cfa_offset 32
 161 00d0 233C1100 		sd	ra,24(sp)
 162 00d4 23388100 		sd	s0,16(sp)
 163 00d8 23349100 		sd	s1,8(sp)
 164 00dc 23302101 		sd	s2,0(sp)
 165              		.cfi_offset 1, -8
 166              		.cfi_offset 8, -16
 167              		.cfi_offset 9, -24
GAS LISTING /tmp/ccYWmO80.s 			page 5


 168              		.cfi_offset 18, -32
 169 00e0 13040102 		addi	s0,sp,32
 170              		.cfi_def_cfa 8, 0
  32:tests/Threads_C_API_test.hpp ****     for (uint64 i = 0; i < 16; i++) {
 171              		.loc 1 32 5
 172              	.LVL16:
 173              	.LBB31:
 174              		.loc 1 32 17 is_stmt 0
 175 00e4 13090000 		li	s2,0
 176 00e8 6F008003 		j	.L15
 177              	.LVL17:
 178              	.L12:
 179              	.LBB32:
 180              	.LBB33:
 181              	.LBB34:
  33:tests/Threads_C_API_test.hpp ****         printString("B: i="); printInt(i); printString("\n");
  34:tests/Threads_C_API_test.hpp ****         for (uint64 j = 0; j < 10000; j++) {
  35:tests/Threads_C_API_test.hpp ****             for (uint64 k = 0; k < 30000; k++) { /* busy wait */ }
  36:tests/Threads_C_API_test.hpp ****             thread_dispatch();
 182              		.loc 1 36 13 is_stmt 1 discriminator 2
 183              		.loc 1 36 28 is_stmt 0 discriminator 2
 184 00ec 97000000 		call	_Z15thread_dispatchv@plt
 184      E7800000 
 185              	.LVL18:
 186              	.LBE34:
  34:tests/Threads_C_API_test.hpp ****             for (uint64 k = 0; k < 30000; k++) { /* busy wait */ }
 187              		.loc 1 34 9 is_stmt 1 discriminator 2
 188 00f4 93841400 		addi	s1,s1,1
 189              	.LVL19:
 190              	.L14:
  34:tests/Threads_C_API_test.hpp ****             for (uint64 k = 0; k < 30000; k++) { /* busy wait */ }
 191              		.loc 1 34 30 discriminator 1
 192 00f8 B7270000 		li	a5,8192
 193 00fc 9387F770 		addi	a5,a5,1807
 194 0100 63EE9700 		bgtu	s1,a5,.L11
 195              	.LBB36:
 196              	.LBB35:
  35:tests/Threads_C_API_test.hpp ****             thread_dispatch();
 197              		.loc 1 35 25 is_stmt 0
 198 0104 13070000 		li	a4,0
 199              	.L13:
 200              	.LVL20:
  35:tests/Threads_C_API_test.hpp ****             thread_dispatch();
 201              		.loc 1 35 34 is_stmt 1 discriminator 3
 202 0108 B7770000 		li	a5,28672
 203 010c 9387F752 		addi	a5,a5,1327
 204 0110 E3EEE7FC 		bgtu	a4,a5,.L12
  35:tests/Threads_C_API_test.hpp ****             thread_dispatch();
 205              		.loc 1 35 13 discriminator 2
 206 0114 13071700 		addi	a4,a4,1
 207              	.LVL21:
 208 0118 6FF01FFF 		j	.L13
 209              	.LVL22:
 210              	.L11:
 211              	.LBE35:
 212              	.LBE36:
 213              	.LBE33:
GAS LISTING /tmp/ccYWmO80.s 			page 6


 214              	.LBE32:
  32:tests/Threads_C_API_test.hpp ****         printString("B: i="); printInt(i); printString("\n");
 215              		.loc 1 32 5 discriminator 2
 216 011c 13091900 		addi	s2,s2,1
 217              	.LVL23:
 218              	.L15:
  32:tests/Threads_C_API_test.hpp ****         printString("B: i="); printInt(i); printString("\n");
 219              		.loc 1 32 26 discriminator 1
 220 0120 9307F000 		li	a5,15
 221 0124 63E02705 		bgtu	s2,a5,.L10
 222              	.LBB38:
  33:tests/Threads_C_API_test.hpp ****         for (uint64 j = 0; j < 10000; j++) {
 223              		.loc 1 33 9
  33:tests/Threads_C_API_test.hpp ****         for (uint64 j = 0; j < 10000; j++) {
 224              		.loc 1 33 20 is_stmt 0
 225 0128 17050000 		lla	a0,.LC3
 225      13050500 
 226 0130 97000000 		call	_Z11printStringPKc@plt
 226      E7800000 
 227              	.LVL24:
  33:tests/Threads_C_API_test.hpp ****         for (uint64 j = 0; j < 10000; j++) {
 228              		.loc 1 33 31 is_stmt 1
  33:tests/Threads_C_API_test.hpp ****         for (uint64 j = 0; j < 10000; j++) {
 229              		.loc 1 33 39 is_stmt 0
 230 0138 13060000 		li	a2,0
 231 013c 9305A000 		li	a1,10
 232 0140 1B050900 		sext.w	a0,s2
 233 0144 97000000 		call	_Z8printIntiii@plt
 233      E7800000 
 234              	.LVL25:
  33:tests/Threads_C_API_test.hpp ****         for (uint64 j = 0; j < 10000; j++) {
 235              		.loc 1 33 44 is_stmt 1
  33:tests/Threads_C_API_test.hpp ****         for (uint64 j = 0; j < 10000; j++) {
 236              		.loc 1 33 55 is_stmt 0
 237 014c 17050000 		lla	a0,.LC1
 237      13050500 
 238 0154 97000000 		call	_Z11printStringPKc@plt
 238      E7800000 
 239              	.LVL26:
  34:tests/Threads_C_API_test.hpp ****             for (uint64 k = 0; k < 30000; k++) { /* busy wait */ }
 240              		.loc 1 34 9 is_stmt 1
 241              	.LBB37:
  34:tests/Threads_C_API_test.hpp ****             for (uint64 k = 0; k < 30000; k++) { /* busy wait */ }
 242              		.loc 1 34 21 is_stmt 0
 243 015c 93040000 		li	s1,0
 244 0160 6FF09FF9 		j	.L14
 245              	.LVL27:
 246              	.L10:
 247              	.LBE37:
 248              	.LBE38:
 249              	.LBE31:
  37:tests/Threads_C_API_test.hpp ****         }
  38:tests/Threads_C_API_test.hpp ****     }
  39:tests/Threads_C_API_test.hpp ****     printString("B finished!\n");
 250              		.loc 1 39 5 is_stmt 1
 251              		.loc 1 39 16 is_stmt 0
 252 0164 17050000 		lla	a0,.LC4
GAS LISTING /tmp/ccYWmO80.s 			page 7


 252      13050500 
 253 016c 97000000 		call	_Z11printStringPKc@plt
 253      E7800000 
 254              	.LVL28:
  40:tests/Threads_C_API_test.hpp ****     finishedB = true;
 255              		.loc 1 40 5 is_stmt 1
 256              		.loc 1 40 15 is_stmt 0
 257 0174 93071000 		li	a5,1
 258 0178 17070000 		sb	a5,.LANCHOR0+1,a4
 258      2300F700 
  41:tests/Threads_C_API_test.hpp ****     thread_dispatch();
 259              		.loc 1 41 5 is_stmt 1
 260              		.loc 1 41 20 is_stmt 0
 261 0180 97000000 		call	_Z15thread_dispatchv@plt
 261      E7800000 
 262              	.LVL29:
  42:tests/Threads_C_API_test.hpp **** }
 263              		.loc 1 42 1
 264 0188 83308101 		ld	ra,24(sp)
 265              		.cfi_restore 1
 266 018c 03340101 		ld	s0,16(sp)
 267              		.cfi_restore 8
 268              		.cfi_def_cfa 2, 32
 269 0190 83348100 		ld	s1,8(sp)
 270              		.cfi_restore 9
 271 0194 03390100 		ld	s2,0(sp)
 272              		.cfi_restore 18
 273              	.LVL30:
 274 0198 13010102 		addi	sp,sp,32
 275              		.cfi_def_cfa_offset 0
 276 019c 67800000 		jr	ra
 277              		.cfi_endproc
 278              	.LFE14:
 280              		.section	.rodata.str1.8
 281 0035 000000   		.align	3
 282              	.LC5:
 283 0038 48656C6C 		.string	"Hello "
 283      6F2000
 284 003f 00       		.align	3
 285              	.LC6:
 286 0040 20210A00 		.string	" !\n"
 287              		.text
 288              		.align	2
 289              		.globl	_Z9sleepyRunPv
 291              	_Z9sleepyRunPv:
 292              	.LFB18:
 293              		.file 2 "tests/ThreadSleep_C_API_test.hpp"
   1:tests/ThreadSleep_C_API_test.hpp **** //
   2:tests/ThreadSleep_C_API_test.hpp **** // Created by os on 4/17/22.
   3:tests/ThreadSleep_C_API_test.hpp **** //
   4:tests/ThreadSleep_C_API_test.hpp **** 
   5:tests/ThreadSleep_C_API_test.hpp **** #ifndef XV6_THREADSLEEP_C_API_TEST_HPP
   6:tests/ThreadSleep_C_API_test.hpp **** #define XV6_THREADSLEEP_C_API_TEST_HPP
   7:tests/ThreadSleep_C_API_test.hpp **** 
   8:tests/ThreadSleep_C_API_test.hpp **** #include "../h/syscall_c.h"
   9:tests/ThreadSleep_C_API_test.hpp **** 
  10:tests/ThreadSleep_C_API_test.hpp **** #include "../h/printing.hpp"
GAS LISTING /tmp/ccYWmO80.s 			page 8


  11:tests/ThreadSleep_C_API_test.hpp **** 
  12:tests/ThreadSleep_C_API_test.hpp **** bool finished[2];
  13:tests/ThreadSleep_C_API_test.hpp **** 
  14:tests/ThreadSleep_C_API_test.hpp **** void sleepyRun(void *arg) {
 294              		.loc 2 14 27 is_stmt 1
 295              		.cfi_startproc
 296              	.LVL31:
 297 01a0 130101FE 		addi	sp,sp,-32
 298              		.cfi_def_cfa_offset 32
 299 01a4 233C1100 		sd	ra,24(sp)
 300 01a8 23388100 		sd	s0,16(sp)
 301 01ac 23349100 		sd	s1,8(sp)
 302 01b0 23302101 		sd	s2,0(sp)
 303              		.cfi_offset 1, -8
 304              		.cfi_offset 8, -16
 305              		.cfi_offset 9, -24
 306              		.cfi_offset 18, -32
 307 01b4 13040102 		addi	s0,sp,32
 308              		.cfi_def_cfa 8, 0
  15:tests/ThreadSleep_C_API_test.hpp ****     time_t sleep_time = *((time_t *) arg);
 309              		.loc 2 15 5
 310              		.loc 2 15 12 is_stmt 0
 311 01b8 03390500 		ld	s2,0(a0)
 312              	.LVL32:
  16:tests/ThreadSleep_C_API_test.hpp ****     int i = 6;
 313              		.loc 2 16 5 is_stmt 1
 314              		.loc 2 16 9 is_stmt 0
 315 01bc 93046000 		li	s1,6
 316              	.LVL33:
 317              	.L19:
  17:tests/ThreadSleep_C_API_test.hpp ****     while (--i > 0) {
 318              		.loc 2 17 5 is_stmt 1
 319              		.loc 2 17 16
 320 01c0 9B84F4FF 		addiw	s1,s1,-1
 321              	.LVL34:
 322 01c4 63549004 		blez	s1,.L18
  18:tests/ThreadSleep_C_API_test.hpp **** 
  19:tests/ThreadSleep_C_API_test.hpp ****         printString("Hello ");
 323              		.loc 2 19 9
 324              		.loc 2 19 20 is_stmt 0
 325 01c8 17050000 		lla	a0,.LC5
 325      13050500 
 326 01d0 97000000 		call	_Z11printStringPKc@plt
 326      E7800000 
 327              	.LVL35:
  20:tests/ThreadSleep_C_API_test.hpp ****         printInt(sleep_time);
 328              		.loc 2 20 9 is_stmt 1
 329              		.loc 2 20 17 is_stmt 0
 330 01d8 13060000 		li	a2,0
 331 01dc 9305A000 		li	a1,10
 332 01e0 1B050900 		sext.w	a0,s2
 333 01e4 97000000 		call	_Z8printIntiii@plt
 333      E7800000 
 334              	.LVL36:
  21:tests/ThreadSleep_C_API_test.hpp ****         printString(" !\n");
 335              		.loc 2 21 9 is_stmt 1
 336              		.loc 2 21 20 is_stmt 0
GAS LISTING /tmp/ccYWmO80.s 			page 9


 337 01ec 17050000 		lla	a0,.LC6
 337      13050500 
 338 01f4 97000000 		call	_Z11printStringPKc@plt
 338      E7800000 
 339              	.LVL37:
  22:tests/ThreadSleep_C_API_test.hpp ****         time_sleep(sleep_time);
 340              		.loc 2 22 9 is_stmt 1
 341              		.loc 2 22 19 is_stmt 0
 342 01fc 13050900 		mv	a0,s2
 343 0200 97000000 		call	_Z10time_sleepm@plt
 343      E7800000 
 344              	.LVL38:
  17:tests/ThreadSleep_C_API_test.hpp **** 
 345              		.loc 2 17 5
 346 0208 6FF09FFB 		j	.L19
 347              	.L18:
  23:tests/ThreadSleep_C_API_test.hpp ****     }
  24:tests/ThreadSleep_C_API_test.hpp ****     finished[sleep_time/10-1] = true;
 348              		.loc 2 24 5 is_stmt 1
 349              		.loc 2 24 24 is_stmt 0
 350 020c 9307A000 		li	a5,10
 351 0210 3359F902 		divu	s2,s2,a5
 352              	.LVL39:
 353              		.loc 2 24 27
 354 0214 1309F9FF 		addi	s2,s2,-1
 355              		.loc 2 24 31
 356 0218 97070000 		lla	a5,.LANCHOR0
 356      93870700 
 357 0220 33892701 		add	s2,a5,s2
 358 0224 93071000 		li	a5,1
 359 0228 2304F900 		sb	a5,8(s2)
  25:tests/ThreadSleep_C_API_test.hpp **** }
 360              		.loc 2 25 1
 361 022c 83308101 		ld	ra,24(sp)
 362              		.cfi_restore 1
 363 0230 03340101 		ld	s0,16(sp)
 364              		.cfi_restore 8
 365              		.cfi_def_cfa 2, 32
 366 0234 83348100 		ld	s1,8(sp)
 367              		.cfi_restore 9
 368 0238 03390100 		ld	s2,0(sp)
 369              		.cfi_restore 18
 370 023c 13010102 		addi	sp,sp,32
 371              		.cfi_def_cfa_offset 0
 372 0240 67800000 		jr	ra
 373              		.cfi_endproc
 374              	.LFE18:
 376              		.section	.text._ZN19ConsumerProducerCPP8Consumer3runEv,"axG",@progbits,_ZN19ConsumerProducerCPP8Co
 377              		.align	2
 378              		.weak	_ZN19ConsumerProducerCPP8Consumer3runEv
 380              	_ZN19ConsumerProducerCPP8Consumer3runEv:
 381              	.LFB33:
 382              		.file 3 "tests/ConsumerProducer_CPP_API_test.hpp"
   1:tests/ConsumerProducer_CPP_API_test.hpp **** //
   2:tests/ConsumerProducer_CPP_API_test.hpp **** // Created by os on 4/17/22.
   3:tests/ConsumerProducer_CPP_API_test.hpp **** //
   4:tests/ConsumerProducer_CPP_API_test.hpp **** 
GAS LISTING /tmp/ccYWmO80.s 			page 10


   5:tests/ConsumerProducer_CPP_API_test.hpp **** #ifndef XV6_CONSUMERPRODUCER_CPP_API_TEST_HPP
   6:tests/ConsumerProducer_CPP_API_test.hpp **** #define XV6_CONSUMERPRODUCER_CPP_API_TEST_HPP
   7:tests/ConsumerProducer_CPP_API_test.hpp **** 
   8:tests/ConsumerProducer_CPP_API_test.hpp **** #include "../h/syscall_cpp.hpp"
   9:tests/ConsumerProducer_CPP_API_test.hpp **** 
  10:tests/ConsumerProducer_CPP_API_test.hpp **** #include "buffer_CPP_API.hpp"
  11:tests/ConsumerProducer_CPP_API_test.hpp **** #include "../h/printing.hpp"
  12:tests/ConsumerProducer_CPP_API_test.hpp **** 
  13:tests/ConsumerProducer_CPP_API_test.hpp **** namespace ConsumerProducerCPP {
  14:tests/ConsumerProducer_CPP_API_test.hpp **** 
  15:tests/ConsumerProducer_CPP_API_test.hpp ****     Semaphore *waitForAll;
  16:tests/ConsumerProducer_CPP_API_test.hpp **** 
  17:tests/ConsumerProducer_CPP_API_test.hpp ****     struct thread_data {
  18:tests/ConsumerProducer_CPP_API_test.hpp ****         int id;
  19:tests/ConsumerProducer_CPP_API_test.hpp ****         BufferCPP *buffer;
  20:tests/ConsumerProducer_CPP_API_test.hpp ****         Semaphore *sem;
  21:tests/ConsumerProducer_CPP_API_test.hpp ****     };
  22:tests/ConsumerProducer_CPP_API_test.hpp **** 
  23:tests/ConsumerProducer_CPP_API_test.hpp ****     volatile int threadEnd = 0;
  24:tests/ConsumerProducer_CPP_API_test.hpp **** 
  25:tests/ConsumerProducer_CPP_API_test.hpp ****     class ProducerKeyborad : public Thread {
  26:tests/ConsumerProducer_CPP_API_test.hpp ****         thread_data *td;
  27:tests/ConsumerProducer_CPP_API_test.hpp ****     public:
  28:tests/ConsumerProducer_CPP_API_test.hpp ****         ProducerKeyborad(thread_data *_td) : Thread(), td(_td) {}
  29:tests/ConsumerProducer_CPP_API_test.hpp **** 
  30:tests/ConsumerProducer_CPP_API_test.hpp ****         void run() override {
  31:tests/ConsumerProducer_CPP_API_test.hpp ****             int key;
  32:tests/ConsumerProducer_CPP_API_test.hpp ****             int i = 0;
  33:tests/ConsumerProducer_CPP_API_test.hpp ****             while ((key = getc()) != 0x1b) {
  34:tests/ConsumerProducer_CPP_API_test.hpp ****                 td->buffer->put(key);
  35:tests/ConsumerProducer_CPP_API_test.hpp ****                 i++;
  36:tests/ConsumerProducer_CPP_API_test.hpp ****             }
  37:tests/ConsumerProducer_CPP_API_test.hpp **** 
  38:tests/ConsumerProducer_CPP_API_test.hpp ****             threadEnd = 1;
  39:tests/ConsumerProducer_CPP_API_test.hpp ****             td->buffer->put('!');
  40:tests/ConsumerProducer_CPP_API_test.hpp **** 
  41:tests/ConsumerProducer_CPP_API_test.hpp ****             td->sem->signal();
  42:tests/ConsumerProducer_CPP_API_test.hpp ****         }
  43:tests/ConsumerProducer_CPP_API_test.hpp ****     };
  44:tests/ConsumerProducer_CPP_API_test.hpp **** 
  45:tests/ConsumerProducer_CPP_API_test.hpp ****     class Producer : public Thread {
  46:tests/ConsumerProducer_CPP_API_test.hpp ****         thread_data *td;
  47:tests/ConsumerProducer_CPP_API_test.hpp ****     public:
  48:tests/ConsumerProducer_CPP_API_test.hpp ****         Producer(thread_data *_td) : Thread(), td(_td) {}
  49:tests/ConsumerProducer_CPP_API_test.hpp **** 
  50:tests/ConsumerProducer_CPP_API_test.hpp ****         void run() override {
  51:tests/ConsumerProducer_CPP_API_test.hpp ****             int i = 0;
  52:tests/ConsumerProducer_CPP_API_test.hpp ****             while (!threadEnd) {
  53:tests/ConsumerProducer_CPP_API_test.hpp ****                 td->buffer->put(td->id + '0');
  54:tests/ConsumerProducer_CPP_API_test.hpp ****                 i++;
  55:tests/ConsumerProducer_CPP_API_test.hpp ****                 Thread::sleep((i+td->id)%5);
  56:tests/ConsumerProducer_CPP_API_test.hpp ****             }
  57:tests/ConsumerProducer_CPP_API_test.hpp **** 
  58:tests/ConsumerProducer_CPP_API_test.hpp ****             td->sem->signal();
  59:tests/ConsumerProducer_CPP_API_test.hpp ****         }
  60:tests/ConsumerProducer_CPP_API_test.hpp ****     };
  61:tests/ConsumerProducer_CPP_API_test.hpp **** 
GAS LISTING /tmp/ccYWmO80.s 			page 11


  62:tests/ConsumerProducer_CPP_API_test.hpp ****     class Consumer : public Thread {
  63:tests/ConsumerProducer_CPP_API_test.hpp ****         thread_data *td;
  64:tests/ConsumerProducer_CPP_API_test.hpp ****     public:
  65:tests/ConsumerProducer_CPP_API_test.hpp ****         Consumer(thread_data *_td) : Thread(), td(_td) {}
  66:tests/ConsumerProducer_CPP_API_test.hpp **** 
  67:tests/ConsumerProducer_CPP_API_test.hpp ****         void run() override {
 383              		.loc 3 67 14 is_stmt 1
 384              		.cfi_startproc
 385              	.LVL40:
 386 0000 130101FD 		addi	sp,sp,-48
 387              		.cfi_def_cfa_offset 48
 388 0004 23341102 		sd	ra,40(sp)
 389 0008 23308102 		sd	s0,32(sp)
 390 000c 233C9100 		sd	s1,24(sp)
 391 0010 23382101 		sd	s2,16(sp)
 392 0014 23343101 		sd	s3,8(sp)
 393              		.cfi_offset 1, -8
 394              		.cfi_offset 8, -16
 395              		.cfi_offset 9, -24
 396              		.cfi_offset 18, -32
 397              		.cfi_offset 19, -40
 398 0018 13040103 		addi	s0,sp,48
 399              		.cfi_def_cfa 8, 0
 400 001c 13090500 		mv	s2,a0
  68:tests/ConsumerProducer_CPP_API_test.hpp ****             int i = 0;
 401              		.loc 3 68 13
 402              	.LVL41:
 403              		.loc 3 68 17 is_stmt 0
 404 0020 93090000 		li	s3,0
 405 0024 6F000001 		j	.L22
 406              	.LVL42:
 407              	.L27:
 408              	.LBB39:
  69:tests/ConsumerProducer_CPP_API_test.hpp ****             while (!threadEnd) {
  70:tests/ConsumerProducer_CPP_API_test.hpp ****                 int key = td->buffer->get();
  71:tests/ConsumerProducer_CPP_API_test.hpp ****                 i++;
  72:tests/ConsumerProducer_CPP_API_test.hpp **** 
  73:tests/ConsumerProducer_CPP_API_test.hpp ****                 Console::putc(key);
  74:tests/ConsumerProducer_CPP_API_test.hpp **** 
  75:tests/ConsumerProducer_CPP_API_test.hpp ****                 if (i % 80 == 0) {
  76:tests/ConsumerProducer_CPP_API_test.hpp ****                     Console::putc('\n');
 409              		.loc 3 76 21 is_stmt 1
 410              		.loc 3 76 34 is_stmt 0
 411 0028 1305A000 		li	a0,10
 412 002c 97000000 		call	_ZN7Console4putcEc@plt
 412      E7800000 
 413              	.LVL43:
 414              	.L22:
 415              	.LBE39:
  69:tests/ConsumerProducer_CPP_API_test.hpp ****             while (!threadEnd) {
 416              		.loc 3 69 13 is_stmt 1
  69:tests/ConsumerProducer_CPP_API_test.hpp ****             while (!threadEnd) {
 417              		.loc 3 69 20
 418 0034 97070000 		lw	a5,.LANCHOR0+12
 418      83A70700 
 419 003c 639A0704 		bnez	a5,.L23
 420              	.LBB40:
GAS LISTING /tmp/ccYWmO80.s 			page 12


  70:tests/ConsumerProducer_CPP_API_test.hpp ****                 i++;
 421              		.loc 3 70 17
  70:tests/ConsumerProducer_CPP_API_test.hpp ****                 i++;
 422              		.loc 3 70 27 is_stmt 0
 423 0040 83370901 		ld	a5,16(s2)
  70:tests/ConsumerProducer_CPP_API_test.hpp ****                 i++;
 424              		.loc 3 70 42
 425 0044 03B58700 		ld	a0,8(a5)
 426 0048 97000000 		call	_ZN9BufferCPP3getEv@plt
 426      E7800000 
 427              	.LVL44:
  71:tests/ConsumerProducer_CPP_API_test.hpp **** 
 428              		.loc 3 71 17 is_stmt 1
  71:tests/ConsumerProducer_CPP_API_test.hpp **** 
 429              		.loc 3 71 18 is_stmt 0
 430 0050 9B841900 		addiw	s1,s3,1
 431 0054 9B890400 		sext.w	s3,s1
 432              	.LVL45:
  73:tests/ConsumerProducer_CPP_API_test.hpp **** 
 433              		.loc 3 73 17 is_stmt 1
  73:tests/ConsumerProducer_CPP_API_test.hpp **** 
 434              		.loc 3 73 30 is_stmt 0
 435 0058 1375F50F 		andi	a0,a0,0xff
 436              	.LVL46:
 437 005c 97000000 		call	_ZN7Console4putcEc@plt
 437      E7800000 
 438              	.LVL47:
  75:tests/ConsumerProducer_CPP_API_test.hpp ****                     Console::putc('\n');
 439              		.loc 3 75 17 is_stmt 1
  75:tests/ConsumerProducer_CPP_API_test.hpp ****                     Console::putc('\n');
 440              		.loc 3 75 23 is_stmt 0
 441 0064 93070005 		li	a5,80
 442 0068 BBE4F402 		remw	s1,s1,a5
 443              	.LVL48:
  75:tests/ConsumerProducer_CPP_API_test.hpp ****                     Console::putc('\n');
 444              		.loc 3 75 17
 445 006c E39404FC 		bnez	s1,.L22
 446 0070 6FF09FFB 		j	.L27
 447              	.L28:
 448              	.LBE40:
 449              	.LBB41:
  77:tests/ConsumerProducer_CPP_API_test.hpp ****                 }
  78:tests/ConsumerProducer_CPP_API_test.hpp ****             }
  79:tests/ConsumerProducer_CPP_API_test.hpp **** 
  80:tests/ConsumerProducer_CPP_API_test.hpp ****             while (td->buffer->getCnt() > 0) {
  81:tests/ConsumerProducer_CPP_API_test.hpp ****                 int key = td->buffer->get();
 450              		.loc 3 81 17 is_stmt 1
 451              		.loc 3 81 27 is_stmt 0
 452 0074 83370901 		ld	a5,16(s2)
 453              		.loc 3 81 42
 454 0078 03B58700 		ld	a0,8(a5)
 455 007c 97000000 		call	_ZN9BufferCPP3getEv@plt
 455      E7800000 
 456              	.LVL49:
  82:tests/ConsumerProducer_CPP_API_test.hpp ****                 Console::putc(key);
 457              		.loc 3 82 17 is_stmt 1
 458              		.loc 3 82 30 is_stmt 0
GAS LISTING /tmp/ccYWmO80.s 			page 13


 459 0084 1375F50F 		andi	a0,a0,0xff
 460              	.LVL50:
 461 0088 97000000 		call	_ZN7Console4putcEc@plt
 461      E7800000 
 462              	.LVL51:
 463              	.L23:
 464              	.LBE41:
  80:tests/ConsumerProducer_CPP_API_test.hpp ****                 int key = td->buffer->get();
 465              		.loc 3 80 13 is_stmt 1
  80:tests/ConsumerProducer_CPP_API_test.hpp ****                 int key = td->buffer->get();
 466              		.loc 3 80 41
  80:tests/ConsumerProducer_CPP_API_test.hpp ****                 int key = td->buffer->get();
 467              		.loc 3 80 20 is_stmt 0
 468 0090 83370901 		ld	a5,16(s2)
  80:tests/ConsumerProducer_CPP_API_test.hpp ****                 int key = td->buffer->get();
 469              		.loc 3 80 38
 470 0094 03B58700 		ld	a0,8(a5)
 471 0098 97000000 		call	_ZN9BufferCPP6getCntEv@plt
 471      E7800000 
 472              	.LVL52:
  80:tests/ConsumerProducer_CPP_API_test.hpp ****                 int key = td->buffer->get();
 473              		.loc 3 80 41
 474 00a0 E34AA0FC 		bgtz	a0,.L28
  83:tests/ConsumerProducer_CPP_API_test.hpp ****             }
  84:tests/ConsumerProducer_CPP_API_test.hpp **** 
  85:tests/ConsumerProducer_CPP_API_test.hpp ****             td->sem->signal();
 475              		.loc 3 85 13 is_stmt 1
 476 00a4 83370901 		ld	a5,16(s2)
 477              		.loc 3 85 28 is_stmt 0
 478 00a8 03B50701 		ld	a0,16(a5)
 479 00ac 97000000 		call	_ZN9Semaphore6signalEv@plt
 479      E7800000 
 480              	.LVL53:
  86:tests/ConsumerProducer_CPP_API_test.hpp ****         }
 481              		.loc 3 86 9
 482 00b4 83308102 		ld	ra,40(sp)
 483              		.cfi_restore 1
 484 00b8 03340102 		ld	s0,32(sp)
 485              		.cfi_restore 8
 486              		.cfi_def_cfa 2, 48
 487 00bc 83348101 		ld	s1,24(sp)
 488              		.cfi_restore 9
 489 00c0 03390101 		ld	s2,16(sp)
 490              		.cfi_restore 18
 491              	.LVL54:
 492 00c4 83398100 		ld	s3,8(sp)
 493              		.cfi_restore 19
 494              	.LVL55:
 495 00c8 13010103 		addi	sp,sp,48
 496              		.cfi_def_cfa_offset 0
 497 00cc 67800000 		jr	ra
 498              		.cfi_endproc
 499              	.LFE33:
 501              		.section	.text._ZN19ConsumerProducerCPP8ConsumerD2Ev,"axG",@progbits,_ZN19ConsumerProducerCPP8Cons
 502              		.align	2
 503              		.weak	_ZN19ConsumerProducerCPP8ConsumerD2Ev
 505              	_ZN19ConsumerProducerCPP8ConsumerD2Ev:
GAS LISTING /tmp/ccYWmO80.s 			page 14


 506              	.LFB37:
  62:tests/ConsumerProducer_CPP_API_test.hpp ****         thread_data *td;
 507              		.loc 3 62 11 is_stmt 1
 508              		.cfi_startproc
 509              	.LVL56:
 510 0000 130101FF 		addi	sp,sp,-16
 511              		.cfi_def_cfa_offset 16
 512 0004 23341100 		sd	ra,8(sp)
 513 0008 23308100 		sd	s0,0(sp)
 514              		.cfi_offset 1, -8
 515              		.cfi_offset 8, -16
 516 000c 13040101 		addi	s0,sp,16
 517              		.cfi_def_cfa 8, 0
 518              	.LBB42:
  62:tests/ConsumerProducer_CPP_API_test.hpp ****         thread_data *td;
 519              		.loc 3 62 11 is_stmt 0
 520 0010 97070000 		lla	a5,_ZTVN19ConsumerProducerCPP8ConsumerE+16
 520      93870700 
 521 0018 2330F500 		sd	a5,0(a0)
 522 001c 97000000 		call	_ZN6ThreadD2Ev@plt
 522      E7800000 
 523              	.LVL57:
 524              	.LBE42:
 525 0024 83308100 		ld	ra,8(sp)
 526              		.cfi_restore 1
 527 0028 03340100 		ld	s0,0(sp)
 528              		.cfi_restore 8
 529              		.cfi_def_cfa 2, 16
 530 002c 13010101 		addi	sp,sp,16
 531              		.cfi_def_cfa_offset 0
 532 0030 67800000 		jr	ra
 533              		.cfi_endproc
 534              	.LFE37:
 536              		.weak	_ZN19ConsumerProducerCPP8ConsumerD1Ev
 537              		.set	_ZN19ConsumerProducerCPP8ConsumerD1Ev,_ZN19ConsumerProducerCPP8ConsumerD2Ev
 538              		.section	.text._ZN19ConsumerProducerCPP8ConsumerD0Ev,"axG",@progbits,_ZN19ConsumerProducerCPP8Cons
 539              		.align	2
 540              		.weak	_ZN19ConsumerProducerCPP8ConsumerD0Ev
 542              	_ZN19ConsumerProducerCPP8ConsumerD0Ev:
 543              	.LFB39:
  62:tests/ConsumerProducer_CPP_API_test.hpp ****         thread_data *td;
 544              		.loc 3 62 11 is_stmt 1
 545              		.cfi_startproc
 546              	.LVL58:
 547 0000 130101FE 		addi	sp,sp,-32
 548              		.cfi_def_cfa_offset 32
 549 0004 233C1100 		sd	ra,24(sp)
 550 0008 23388100 		sd	s0,16(sp)
 551 000c 23349100 		sd	s1,8(sp)
 552              		.cfi_offset 1, -8
 553              		.cfi_offset 8, -16
 554              		.cfi_offset 9, -24
 555 0010 13040102 		addi	s0,sp,32
 556              		.cfi_def_cfa 8, 0
 557 0014 93040500 		mv	s1,a0
 558              	.LVL59:
 559              	.LBB43:
GAS LISTING /tmp/ccYWmO80.s 			page 15


 560              	.LBB44:
  62:tests/ConsumerProducer_CPP_API_test.hpp ****         thread_data *td;
 561              		.loc 3 62 11 is_stmt 0
 562 0018 97070000 		lla	a5,_ZTVN19ConsumerProducerCPP8ConsumerE+16
 562      93870700 
 563 0020 2330F500 		sd	a5,0(a0)
 564 0024 97000000 		call	_ZN6ThreadD2Ev@plt
 564      E7800000 
 565              	.LVL60:
 566              	.LBE44:
 567              	.LBE43:
 568 002c 13850400 		mv	a0,s1
 569 0030 97000000 		call	_ZdlPv@plt
 569      E7800000 
 570              	.LVL61:
 571 0038 83308101 		ld	ra,24(sp)
 572              		.cfi_restore 1
 573 003c 03340101 		ld	s0,16(sp)
 574              		.cfi_restore 8
 575              		.cfi_def_cfa 2, 32
 576 0040 83348100 		ld	s1,8(sp)
 577              		.cfi_restore 9
 578              	.LVL62:
 579 0044 13010102 		addi	sp,sp,32
 580              		.cfi_def_cfa_offset 0
 581 0048 67800000 		jr	ra
 582              		.cfi_endproc
 583              	.LFE39:
 585              		.section	.text._ZN19ConsumerProducerCPP16ProducerKeyboradD2Ev,"axG",@progbits,_ZN19ConsumerProduce
 586              		.align	2
 587              		.weak	_ZN19ConsumerProducerCPP16ProducerKeyboradD2Ev
 589              	_ZN19ConsumerProducerCPP16ProducerKeyboradD2Ev:
 590              	.LFB45:
  25:tests/ConsumerProducer_CPP_API_test.hpp ****         thread_data *td;
 591              		.loc 3 25 11 is_stmt 1
 592              		.cfi_startproc
 593              	.LVL63:
 594 0000 130101FF 		addi	sp,sp,-16
 595              		.cfi_def_cfa_offset 16
 596 0004 23341100 		sd	ra,8(sp)
 597 0008 23308100 		sd	s0,0(sp)
 598              		.cfi_offset 1, -8
 599              		.cfi_offset 8, -16
 600 000c 13040101 		addi	s0,sp,16
 601              		.cfi_def_cfa 8, 0
 602              	.LBB45:
  25:tests/ConsumerProducer_CPP_API_test.hpp ****         thread_data *td;
 603              		.loc 3 25 11 is_stmt 0
 604 0010 97070000 		lla	a5,_ZTVN19ConsumerProducerCPP16ProducerKeyboradE+16
 604      93870700 
 605 0018 2330F500 		sd	a5,0(a0)
 606 001c 97000000 		call	_ZN6ThreadD2Ev@plt
 606      E7800000 
 607              	.LVL64:
 608              	.LBE45:
 609 0024 83308100 		ld	ra,8(sp)
 610              		.cfi_restore 1
GAS LISTING /tmp/ccYWmO80.s 			page 16


 611 0028 03340100 		ld	s0,0(sp)
 612              		.cfi_restore 8
 613              		.cfi_def_cfa 2, 16
 614 002c 13010101 		addi	sp,sp,16
 615              		.cfi_def_cfa_offset 0
 616 0030 67800000 		jr	ra
 617              		.cfi_endproc
 618              	.LFE45:
 620              		.weak	_ZN19ConsumerProducerCPP16ProducerKeyboradD1Ev
 621              		.set	_ZN19ConsumerProducerCPP16ProducerKeyboradD1Ev,_ZN19ConsumerProducerCPP16ProducerKeyboradD2Ev
 622              		.section	.text._ZN19ConsumerProducerCPP16ProducerKeyboradD0Ev,"axG",@progbits,_ZN19ConsumerProduce
 623              		.align	2
 624              		.weak	_ZN19ConsumerProducerCPP16ProducerKeyboradD0Ev
 626              	_ZN19ConsumerProducerCPP16ProducerKeyboradD0Ev:
 627              	.LFB47:
  25:tests/ConsumerProducer_CPP_API_test.hpp ****         thread_data *td;
 628              		.loc 3 25 11 is_stmt 1
 629              		.cfi_startproc
 630              	.LVL65:
 631 0000 130101FE 		addi	sp,sp,-32
 632              		.cfi_def_cfa_offset 32
 633 0004 233C1100 		sd	ra,24(sp)
 634 0008 23388100 		sd	s0,16(sp)
 635 000c 23349100 		sd	s1,8(sp)
 636              		.cfi_offset 1, -8
 637              		.cfi_offset 8, -16
 638              		.cfi_offset 9, -24
 639 0010 13040102 		addi	s0,sp,32
 640              		.cfi_def_cfa 8, 0
 641 0014 93040500 		mv	s1,a0
 642              	.LVL66:
 643              	.LBB46:
 644              	.LBB47:
  25:tests/ConsumerProducer_CPP_API_test.hpp ****         thread_data *td;
 645              		.loc 3 25 11 is_stmt 0
 646 0018 97070000 		lla	a5,_ZTVN19ConsumerProducerCPP16ProducerKeyboradE+16
 646      93870700 
 647 0020 2330F500 		sd	a5,0(a0)
 648 0024 97000000 		call	_ZN6ThreadD2Ev@plt
 648      E7800000 
 649              	.LVL67:
 650              	.LBE47:
 651              	.LBE46:
 652 002c 13850400 		mv	a0,s1
 653 0030 97000000 		call	_ZdlPv@plt
 653      E7800000 
 654              	.LVL68:
 655 0038 83308101 		ld	ra,24(sp)
 656              		.cfi_restore 1
 657 003c 03340101 		ld	s0,16(sp)
 658              		.cfi_restore 8
 659              		.cfi_def_cfa 2, 32
 660 0040 83348100 		ld	s1,8(sp)
 661              		.cfi_restore 9
 662              	.LVL69:
 663 0044 13010102 		addi	sp,sp,32
 664              		.cfi_def_cfa_offset 0
GAS LISTING /tmp/ccYWmO80.s 			page 17


 665 0048 67800000 		jr	ra
 666              		.cfi_endproc
 667              	.LFE47:
 669              		.section	.text._ZN19ConsumerProducerCPP8ProducerD2Ev,"axG",@progbits,_ZN19ConsumerProducerCPP8Prod
 670              		.align	2
 671              		.weak	_ZN19ConsumerProducerCPP8ProducerD2Ev
 673              	_ZN19ConsumerProducerCPP8ProducerD2Ev:
 674              	.LFB41:
  45:tests/ConsumerProducer_CPP_API_test.hpp ****         thread_data *td;
 675              		.loc 3 45 11 is_stmt 1
 676              		.cfi_startproc
 677              	.LVL70:
 678 0000 130101FF 		addi	sp,sp,-16
 679              		.cfi_def_cfa_offset 16
 680 0004 23341100 		sd	ra,8(sp)
 681 0008 23308100 		sd	s0,0(sp)
 682              		.cfi_offset 1, -8
 683              		.cfi_offset 8, -16
 684 000c 13040101 		addi	s0,sp,16
 685              		.cfi_def_cfa 8, 0
 686              	.LBB48:
  45:tests/ConsumerProducer_CPP_API_test.hpp ****         thread_data *td;
 687              		.loc 3 45 11 is_stmt 0
 688 0010 97070000 		lla	a5,_ZTVN19ConsumerProducerCPP8ProducerE+16
 688      93870700 
 689 0018 2330F500 		sd	a5,0(a0)
 690 001c 97000000 		call	_ZN6ThreadD2Ev@plt
 690      E7800000 
 691              	.LVL71:
 692              	.LBE48:
 693 0024 83308100 		ld	ra,8(sp)
 694              		.cfi_restore 1
 695 0028 03340100 		ld	s0,0(sp)
 696              		.cfi_restore 8
 697              		.cfi_def_cfa 2, 16
 698 002c 13010101 		addi	sp,sp,16
 699              		.cfi_def_cfa_offset 0
 700 0030 67800000 		jr	ra
 701              		.cfi_endproc
 702              	.LFE41:
 704              		.weak	_ZN19ConsumerProducerCPP8ProducerD1Ev
 705              		.set	_ZN19ConsumerProducerCPP8ProducerD1Ev,_ZN19ConsumerProducerCPP8ProducerD2Ev
 706              		.section	.text._ZN19ConsumerProducerCPP8ProducerD0Ev,"axG",@progbits,_ZN19ConsumerProducerCPP8Prod
 707              		.align	2
 708              		.weak	_ZN19ConsumerProducerCPP8ProducerD0Ev
 710              	_ZN19ConsumerProducerCPP8ProducerD0Ev:
 711              	.LFB43:
  45:tests/ConsumerProducer_CPP_API_test.hpp ****         thread_data *td;
 712              		.loc 3 45 11 is_stmt 1
 713              		.cfi_startproc
 714              	.LVL72:
 715 0000 130101FE 		addi	sp,sp,-32
 716              		.cfi_def_cfa_offset 32
 717 0004 233C1100 		sd	ra,24(sp)
 718 0008 23388100 		sd	s0,16(sp)
 719 000c 23349100 		sd	s1,8(sp)
 720              		.cfi_offset 1, -8
GAS LISTING /tmp/ccYWmO80.s 			page 18


 721              		.cfi_offset 8, -16
 722              		.cfi_offset 9, -24
 723 0010 13040102 		addi	s0,sp,32
 724              		.cfi_def_cfa 8, 0
 725 0014 93040500 		mv	s1,a0
 726              	.LVL73:
 727              	.LBB49:
 728              	.LBB50:
  45:tests/ConsumerProducer_CPP_API_test.hpp ****         thread_data *td;
 729              		.loc 3 45 11 is_stmt 0
 730 0018 97070000 		lla	a5,_ZTVN19ConsumerProducerCPP8ProducerE+16
 730      93870700 
 731 0020 2330F500 		sd	a5,0(a0)
 732 0024 97000000 		call	_ZN6ThreadD2Ev@plt
 732      E7800000 
 733              	.LVL74:
 734              	.LBE50:
 735              	.LBE49:
 736 002c 13850400 		mv	a0,s1
 737 0030 97000000 		call	_ZdlPv@plt
 737      E7800000 
 738              	.LVL75:
 739 0038 83308101 		ld	ra,24(sp)
 740              		.cfi_restore 1
 741 003c 03340101 		ld	s0,16(sp)
 742              		.cfi_restore 8
 743              		.cfi_def_cfa 2, 32
 744 0040 83348100 		ld	s1,8(sp)
 745              		.cfi_restore 9
 746              	.LVL76:
 747 0044 13010102 		addi	sp,sp,32
 748              		.cfi_def_cfa_offset 0
 749 0048 67800000 		jr	ra
 750              		.cfi_endproc
 751              	.LFE43:
 753              		.section	.text._ZN19ConsumerProducerCPP16ProducerKeyborad3runEv,"axG",@progbits,_ZN19ConsumerProdu
 754              		.align	2
 755              		.weak	_ZN19ConsumerProducerCPP16ProducerKeyborad3runEv
 757              	_ZN19ConsumerProducerCPP16ProducerKeyborad3runEv:
 758              	.LFB25:
  30:tests/ConsumerProducer_CPP_API_test.hpp ****             int key;
 759              		.loc 3 30 14 is_stmt 1
 760              		.cfi_startproc
 761              	.LVL77:
 762 0000 130101FE 		addi	sp,sp,-32
 763              		.cfi_def_cfa_offset 32
 764 0004 233C1100 		sd	ra,24(sp)
 765 0008 23388100 		sd	s0,16(sp)
 766 000c 23349100 		sd	s1,8(sp)
 767              		.cfi_offset 1, -8
 768              		.cfi_offset 8, -16
 769              		.cfi_offset 9, -24
 770 0010 13040102 		addi	s0,sp,32
 771              		.cfi_def_cfa 8, 0
 772 0014 93040500 		mv	s1,a0
  31:tests/ConsumerProducer_CPP_API_test.hpp ****             int i = 0;
 773              		.loc 3 31 13
GAS LISTING /tmp/ccYWmO80.s 			page 19


  32:tests/ConsumerProducer_CPP_API_test.hpp ****             while ((key = getc()) != 0x1b) {
 774              		.loc 3 32 13
 775              	.LVL78:
 776              	.L43:
  33:tests/ConsumerProducer_CPP_API_test.hpp ****                 td->buffer->put(key);
 777              		.loc 3 33 13
  33:tests/ConsumerProducer_CPP_API_test.hpp ****                 td->buffer->put(key);
 778              		.loc 3 33 35
  33:tests/ConsumerProducer_CPP_API_test.hpp ****                 td->buffer->put(key);
 779              		.loc 3 33 31 is_stmt 0
 780 0018 97000000 		call	_Z4getcv@plt
 780      E7800000 
 781              	.LVL79:
  33:tests/ConsumerProducer_CPP_API_test.hpp ****                 td->buffer->put(key);
 782              		.loc 3 33 25
 783 0020 9B050500 		sext.w	a1,a0
 784              	.LVL80:
  33:tests/ConsumerProducer_CPP_API_test.hpp ****                 td->buffer->put(key);
 785              		.loc 3 33 35
 786 0024 9307B001 		li	a5,27
 787 0028 638CF500 		beq	a1,a5,.L42
  34:tests/ConsumerProducer_CPP_API_test.hpp ****                 i++;
 788              		.loc 3 34 17 is_stmt 1
 789 002c 83B70401 		ld	a5,16(s1)
  34:tests/ConsumerProducer_CPP_API_test.hpp ****                 i++;
 790              		.loc 3 34 32 is_stmt 0
 791 0030 03B58700 		ld	a0,8(a5)
 792 0034 97000000 		call	_ZN9BufferCPP3putEi@plt
 792      E7800000 
 793              	.LVL81:
  35:tests/ConsumerProducer_CPP_API_test.hpp ****             }
 794              		.loc 3 35 17 is_stmt 1
  33:tests/ConsumerProducer_CPP_API_test.hpp ****                 td->buffer->put(key);
 795              		.loc 3 33 13 is_stmt 0
 796 003c 6FF0DFFD 		j	.L43
 797              	.LVL82:
 798              	.L42:
  38:tests/ConsumerProducer_CPP_API_test.hpp ****             td->buffer->put('!');
 799              		.loc 3 38 13 is_stmt 1
  38:tests/ConsumerProducer_CPP_API_test.hpp ****             td->buffer->put('!');
 800              		.loc 3 38 23 is_stmt 0
 801 0040 93071000 		li	a5,1
 802 0044 17070000 		sw	a5,.LANCHOR0+12,a4
 802      2320F700 
  39:tests/ConsumerProducer_CPP_API_test.hpp **** 
 803              		.loc 3 39 13 is_stmt 1
 804 004c 83B70401 		ld	a5,16(s1)
  39:tests/ConsumerProducer_CPP_API_test.hpp **** 
 805              		.loc 3 39 28 is_stmt 0
 806 0050 93051002 		li	a1,33
 807              	.LVL83:
 808 0054 03B58700 		ld	a0,8(a5)
 809              	.LVL84:
 810 0058 97000000 		call	_ZN9BufferCPP3putEi@plt
 810      E7800000 
 811              	.LVL85:
  41:tests/ConsumerProducer_CPP_API_test.hpp ****         }
GAS LISTING /tmp/ccYWmO80.s 			page 20


 812              		.loc 3 41 13 is_stmt 1
 813 0060 83B70401 		ld	a5,16(s1)
  41:tests/ConsumerProducer_CPP_API_test.hpp ****         }
 814              		.loc 3 41 28 is_stmt 0
 815 0064 03B50701 		ld	a0,16(a5)
 816 0068 97000000 		call	_ZN9Semaphore6signalEv@plt
 816      E7800000 
 817              	.LVL86:
  42:tests/ConsumerProducer_CPP_API_test.hpp ****     };
 818              		.loc 3 42 9
 819 0070 83308101 		ld	ra,24(sp)
 820              		.cfi_restore 1
 821 0074 03340101 		ld	s0,16(sp)
 822              		.cfi_restore 8
 823              		.cfi_def_cfa 2, 32
 824 0078 83348100 		ld	s1,8(sp)
 825              		.cfi_restore 9
 826              	.LVL87:
 827 007c 13010102 		addi	sp,sp,32
 828              		.cfi_def_cfa_offset 0
 829 0080 67800000 		jr	ra
 830              		.cfi_endproc
 831              	.LFE25:
 833              		.section	.text._ZN19ConsumerProducerCPP8Producer3runEv,"axG",@progbits,_ZN19ConsumerProducerCPP8Pr
 834              		.align	2
 835              		.weak	_ZN19ConsumerProducerCPP8Producer3runEv
 837              	_ZN19ConsumerProducerCPP8Producer3runEv:
 838              	.LFB29:
  50:tests/ConsumerProducer_CPP_API_test.hpp ****             int i = 0;
 839              		.loc 3 50 14 is_stmt 1
 840              		.cfi_startproc
 841              	.LVL88:
 842 0000 130101FE 		addi	sp,sp,-32
 843              		.cfi_def_cfa_offset 32
 844 0004 233C1100 		sd	ra,24(sp)
 845 0008 23388100 		sd	s0,16(sp)
 846 000c 23349100 		sd	s1,8(sp)
 847 0010 23302101 		sd	s2,0(sp)
 848              		.cfi_offset 1, -8
 849              		.cfi_offset 8, -16
 850              		.cfi_offset 9, -24
 851              		.cfi_offset 18, -32
 852 0014 13040102 		addi	s0,sp,32
 853              		.cfi_def_cfa 8, 0
 854 0018 93040500 		mv	s1,a0
  51:tests/ConsumerProducer_CPP_API_test.hpp ****             while (!threadEnd) {
 855              		.loc 3 51 13
 856              	.LVL89:
  51:tests/ConsumerProducer_CPP_API_test.hpp ****             while (!threadEnd) {
 857              		.loc 3 51 17 is_stmt 0
 858 001c 13090000 		li	s2,0
 859              	.LVL90:
 860              	.L47:
  52:tests/ConsumerProducer_CPP_API_test.hpp ****                 td->buffer->put(td->id + '0');
 861              		.loc 3 52 13 is_stmt 1
  52:tests/ConsumerProducer_CPP_API_test.hpp ****                 td->buffer->put(td->id + '0');
 862              		.loc 3 52 20
GAS LISTING /tmp/ccYWmO80.s 			page 21


 863 0020 97070000 		lw	a5,.LANCHOR0+12
 863      83A70700 
 864 0028 63920704 		bnez	a5,.L46
  53:tests/ConsumerProducer_CPP_API_test.hpp ****                 i++;
 865              		.loc 3 53 17
 866 002c 83B70401 		ld	a5,16(s1)
  53:tests/ConsumerProducer_CPP_API_test.hpp ****                 i++;
 867              		.loc 3 53 37 is_stmt 0
 868 0030 83A50700 		lw	a1,0(a5)
  53:tests/ConsumerProducer_CPP_API_test.hpp ****                 i++;
 869              		.loc 3 53 32
 870 0034 9B850503 		addiw	a1,a1,48
 871 0038 03B58700 		ld	a0,8(a5)
 872 003c 97000000 		call	_ZN9BufferCPP3putEi@plt
 872      E7800000 
 873              	.LVL91:
  54:tests/ConsumerProducer_CPP_API_test.hpp ****                 Thread::sleep((i+td->id)%5);
 874              		.loc 3 54 17 is_stmt 1
  54:tests/ConsumerProducer_CPP_API_test.hpp ****                 Thread::sleep((i+td->id)%5);
 875              		.loc 3 54 18 is_stmt 0
 876 0044 1B071900 		addiw	a4,s2,1
 877 0048 1B090700 		sext.w	s2,a4
 878              	.LVL92:
  55:tests/ConsumerProducer_CPP_API_test.hpp ****             }
 879              		.loc 3 55 17 is_stmt 1
  55:tests/ConsumerProducer_CPP_API_test.hpp ****             }
 880              		.loc 3 55 34 is_stmt 0
 881 004c 83B70401 		ld	a5,16(s1)
  55:tests/ConsumerProducer_CPP_API_test.hpp ****             }
 882              		.loc 3 55 38
 883 0050 83A70700 		lw	a5,0(a5)
  55:tests/ConsumerProducer_CPP_API_test.hpp ****             }
 884              		.loc 3 55 33
 885 0054 BB87E700 		addw	a5,a5,a4
  55:tests/ConsumerProducer_CPP_API_test.hpp ****             }
 886              		.loc 3 55 30
 887 0058 13055000 		li	a0,5
 888 005c 3BE5A702 		remw	a0,a5,a0
 889 0060 97000000 		call	_ZN6Thread5sleepEm@plt
 889      E7800000 
 890              	.LVL93:
  52:tests/ConsumerProducer_CPP_API_test.hpp ****                 td->buffer->put(td->id + '0');
 891              		.loc 3 52 13
 892 0068 6FF09FFB 		j	.L47
 893              	.L46:
  58:tests/ConsumerProducer_CPP_API_test.hpp ****         }
 894              		.loc 3 58 13 is_stmt 1
 895 006c 83B70401 		ld	a5,16(s1)
  58:tests/ConsumerProducer_CPP_API_test.hpp ****         }
 896              		.loc 3 58 28 is_stmt 0
 897 0070 03B50701 		ld	a0,16(a5)
 898 0074 97000000 		call	_ZN9Semaphore6signalEv@plt
 898      E7800000 
 899              	.LVL94:
  59:tests/ConsumerProducer_CPP_API_test.hpp ****     };
 900              		.loc 3 59 9
 901 007c 83308101 		ld	ra,24(sp)
GAS LISTING /tmp/ccYWmO80.s 			page 22


 902              		.cfi_restore 1
 903 0080 03340101 		ld	s0,16(sp)
 904              		.cfi_restore 8
 905              		.cfi_def_cfa 2, 32
 906 0084 83348100 		ld	s1,8(sp)
 907              		.cfi_restore 9
 908              	.LVL95:
 909 0088 03390100 		ld	s2,0(sp)
 910              		.cfi_restore 18
 911              	.LVL96:
 912 008c 13010102 		addi	sp,sp,32
 913              		.cfi_def_cfa_offset 0
 914 0090 67800000 		jr	ra
 915              		.cfi_endproc
 916              	.LFE29:
 918              		.text
 919              		.align	2
 920              		.globl	_Z9fibonaccim
 922              	_Z9fibonaccim:
 923              	.LFB12:
  13:tests/Threads_C_API_test.hpp ****     if (n == 0 || n == 1) { return n; }
 924              		.loc 1 13 28 is_stmt 1
 925              		.cfi_startproc
 926              	.LVL97:
 927 0244 130101FE 		addi	sp,sp,-32
 928              		.cfi_def_cfa_offset 32
 929 0248 233C1100 		sd	ra,24(sp)
 930 024c 23388100 		sd	s0,16(sp)
 931 0250 23349100 		sd	s1,8(sp)
 932 0254 23302101 		sd	s2,0(sp)
 933              		.cfi_offset 1, -8
 934              		.cfi_offset 8, -16
 935              		.cfi_offset 9, -24
 936              		.cfi_offset 18, -32
 937 0258 13040102 		addi	s0,sp,32
 938              		.cfi_def_cfa 8, 0
 939 025c 93040500 		mv	s1,a0
  14:tests/Threads_C_API_test.hpp ****     if (n % 10 == 0) { thread_dispatch(); }
 940              		.loc 1 14 5
 941 0260 93071000 		li	a5,1
 942 0264 63F8A702 		bleu	a0,a5,.L49
  15:tests/Threads_C_API_test.hpp ****     return fibonacci(n - 1) + fibonacci(n - 2);
 943              		.loc 1 15 5
  15:tests/Threads_C_API_test.hpp ****     return fibonacci(n - 1) + fibonacci(n - 2);
 944              		.loc 1 15 11 is_stmt 0
 945 0268 9307A000 		li	a5,10
 946 026c B377F502 		remu	a5,a0,a5
  15:tests/Threads_C_API_test.hpp ****     return fibonacci(n - 1) + fibonacci(n - 2);
 947              		.loc 1 15 5
 948 0270 638E0702 		beqz	a5,.L54
 949              	.LVL98:
 950              	.L51:
  16:tests/Threads_C_API_test.hpp **** }
 951              		.loc 1 16 5 is_stmt 1
  16:tests/Threads_C_API_test.hpp **** }
 952              		.loc 1 16 21 is_stmt 0
 953 0274 1385F4FF 		addi	a0,s1,-1
GAS LISTING /tmp/ccYWmO80.s 			page 23


 954 0278 97000000 		call	_Z9fibonaccim
 954      E7800000 
 955              	.LVL99:
 956 0280 13090500 		mv	s2,a0
  16:tests/Threads_C_API_test.hpp **** }
 957              		.loc 1 16 40
 958 0284 1385E4FF 		addi	a0,s1,-2
 959 0288 97000000 		call	_Z9fibonaccim
 959      E7800000 
 960              	.LVL100:
  16:tests/Threads_C_API_test.hpp **** }
 961              		.loc 1 16 46
 962 0290 3305A900 		add	a0,s2,a0
 963              	.L49:
  17:tests/Threads_C_API_test.hpp **** 
 964              		.loc 1 17 1
 965 0294 83308101 		ld	ra,24(sp)
 966              		.cfi_remember_state
 967              		.cfi_restore 1
 968 0298 03340101 		ld	s0,16(sp)
 969              		.cfi_restore 8
 970              		.cfi_def_cfa 2, 32
 971 029c 83348100 		ld	s1,8(sp)
 972              		.cfi_restore 9
 973              	.LVL101:
 974 02a0 03390100 		ld	s2,0(sp)
 975              		.cfi_restore 18
 976 02a4 13010102 		addi	sp,sp,32
 977              		.cfi_def_cfa_offset 0
 978 02a8 67800000 		jr	ra
 979              	.LVL102:
 980              	.L54:
 981              		.cfi_restore_state
  15:tests/Threads_C_API_test.hpp ****     return fibonacci(n - 1) + fibonacci(n - 2);
 982              		.loc 1 15 24 is_stmt 1 discriminator 1
  15:tests/Threads_C_API_test.hpp ****     return fibonacci(n - 1) + fibonacci(n - 2);
 983              		.loc 1 15 39 is_stmt 0 discriminator 1
 984 02ac 97000000 		call	_Z15thread_dispatchv@plt
 984      E7800000 
 985              	.LVL103:
 986 02b4 6FF01FFC 		j	.L51
 987              		.cfi_endproc
 988              	.LFE12:
 990              		.section	.rodata.str1.8
 991 0044 00000000 		.align	3
 992              	.LC7:
 993 0048 433A2069 		.string	"C: i="
 993      3D00
 994 004e 0000     		.align	3
 995              	.LC8:
 996 0050 433A2064 		.string	"C: dispatch\n"
 996      69737061 
 996      7463680A 
 996      00
 997 005d 000000   		.align	3
 998              	.LC9:
 999 0060 433A2074 		.string	"C: t1="
GAS LISTING /tmp/ccYWmO80.s 			page 24


 999      313D00
 1000 0067 00       		.align	3
 1001              	.LC10:
 1002 0068 433A2066 		.string	"C: fibonaci="
 1002      69626F6E 
 1002      6163693D 
 1002      00
 1003              		.text
 1004              		.align	2
 1005              		.globl	_Z11workerBodyCPv
 1007              	_Z11workerBodyCPv:
 1008              	.LFB15:
  43:tests/Threads_C_API_test.hpp **** 
  44:tests/Threads_C_API_test.hpp **** void workerBodyC(void* arg) {
 1009              		.loc 1 44 29 is_stmt 1
 1010              		.cfi_startproc
 1011              	.LVL104:
 1012 02b8 130101FE 		addi	sp,sp,-32
 1013              		.cfi_def_cfa_offset 32
 1014 02bc 233C1100 		sd	ra,24(sp)
 1015 02c0 23388100 		sd	s0,16(sp)
 1016 02c4 23349100 		sd	s1,8(sp)
 1017 02c8 23302101 		sd	s2,0(sp)
 1018              		.cfi_offset 1, -8
 1019              		.cfi_offset 8, -16
 1020              		.cfi_offset 9, -24
 1021              		.cfi_offset 18, -32
 1022 02cc 13040102 		addi	s0,sp,32
 1023              		.cfi_def_cfa 8, 0
  45:tests/Threads_C_API_test.hpp ****     uint8 i = 0;
 1024              		.loc 1 45 5
 1025              	.LVL105:
 1026              		.loc 1 45 11 is_stmt 0
 1027 02d0 93040000 		li	s1,0
 1028 02d4 6F000004 		j	.L57
 1029              	.LVL106:
 1030              	.L61:
  46:tests/Threads_C_API_test.hpp ****     for (; i < 3; i++) {
  47:tests/Threads_C_API_test.hpp ****         printString("C: i="); printInt(i); printString("\n");
 1031              		.loc 1 47 9 is_stmt 1 discriminator 1
 1032              		.loc 1 47 20 is_stmt 0 discriminator 1
 1033 02d8 17050000 		lla	a0,.LC7
 1033      13050500 
 1034 02e0 97000000 		call	_Z11printStringPKc@plt
 1034      E7800000 
 1035              	.LVL107:
 1036              		.loc 1 47 31 is_stmt 1 discriminator 1
 1037              		.loc 1 47 39 is_stmt 0 discriminator 1
 1038 02e8 13060000 		li	a2,0
 1039 02ec 9305A000 		li	a1,10
 1040 02f0 13850400 		mv	a0,s1
 1041 02f4 97000000 		call	_Z8printIntiii@plt
 1041      E7800000 
 1042              	.LVL108:
 1043              		.loc 1 47 44 is_stmt 1 discriminator 1
 1044              		.loc 1 47 55 is_stmt 0 discriminator 1
 1045 02fc 17050000 		lla	a0,.LC1
GAS LISTING /tmp/ccYWmO80.s 			page 25


 1045      13050500 
 1046 0304 97000000 		call	_Z11printStringPKc@plt
 1046      E7800000 
 1047              	.LVL109:
  46:tests/Threads_C_API_test.hpp ****     for (; i < 3; i++) {
 1048              		.loc 1 46 5 is_stmt 1 discriminator 1
 1049 030c 9B841400 		addiw	s1,s1,1
 1050              	.LVL110:
 1051 0310 93F4F40F 		andi	s1,s1,0xff
 1052              	.LVL111:
 1053              	.L57:
  46:tests/Threads_C_API_test.hpp ****     for (; i < 3; i++) {
 1054              		.loc 1 46 5 discriminator 2
  46:tests/Threads_C_API_test.hpp ****     for (; i < 3; i++) {
 1055              		.loc 1 46 14 discriminator 2
 1056 0314 93072000 		li	a5,2
 1057 0318 E3F097FC 		bleu	s1,a5,.L61
  48:tests/Threads_C_API_test.hpp ****     }
  49:tests/Threads_C_API_test.hpp **** 
  50:tests/Threads_C_API_test.hpp ****     printString("C: dispatch\n");
 1058              		.loc 1 50 5
 1059              		.loc 1 50 16 is_stmt 0
 1060 031c 17050000 		lla	a0,.LC8
 1060      13050500 
 1061 0324 97000000 		call	_Z11printStringPKc@plt
 1061      E7800000 
 1062              	.LVL112:
  51:tests/Threads_C_API_test.hpp ****     __asm__ ("li t1, 7");
 1063              		.loc 1 51 5 is_stmt 1
 1064              		.loc 1 51 25 is_stmt 0
 1065              	#APP
 1066              	# 51 "tests/Threads_C_API_test.hpp" 1
  52              	    thread_dispatch();
 1067              		li t1, 7
 1068              	# 0 "" 2
 1069              		.loc 1 52 5 is_stmt 1
 1070              		.loc 1 52 20 is_stmt 0
 1071              	#NO_APP
 1072 0330 97000000 		call	_Z15thread_dispatchv@plt
 1072      E7800000 
 1073              	.LVL113:
  53:tests/Threads_C_API_test.hpp **** 
  54:tests/Threads_C_API_test.hpp ****     uint64 t1 = 0;
 1074              		.loc 1 54 5 is_stmt 1
  55:tests/Threads_C_API_test.hpp ****     __asm__ ("mv %[t1], t1" : [t1] "=r"(t1));
 1075              		.loc 1 55 5
 1076              		.loc 1 55 45 is_stmt 0
 1077              	#APP
 1078              	# 55 "tests/Threads_C_API_test.hpp" 1
  56              	
 1079              		mv s2, t1
 1080              	# 0 "" 2
 1081              	.LVL114:
  57:tests/Threads_C_API_test.hpp ****     printString("C: t1="); printInt(t1); printString("\n");
 1082              		.loc 1 57 5 is_stmt 1
 1083              		.loc 1 57 16 is_stmt 0
 1084              	#NO_APP
GAS LISTING /tmp/ccYWmO80.s 			page 26


 1085 033c 17050000 		lla	a0,.LC9
 1085      13050500 
 1086 0344 97000000 		call	_Z11printStringPKc@plt
 1086      E7800000 
 1087              	.LVL115:
 1088              		.loc 1 57 28 is_stmt 1
 1089              		.loc 1 57 36 is_stmt 0
 1090 034c 13060000 		li	a2,0
 1091 0350 9305A000 		li	a1,10
 1092 0354 1B050900 		sext.w	a0,s2
 1093 0358 97000000 		call	_Z8printIntiii@plt
 1093      E7800000 
 1094              	.LVL116:
 1095              		.loc 1 57 42 is_stmt 1
 1096              		.loc 1 57 53 is_stmt 0
 1097 0360 17050000 		lla	a0,.LC1
 1097      13050500 
 1098 0368 97000000 		call	_Z11printStringPKc@plt
 1098      E7800000 
 1099              	.LVL117:
  58:tests/Threads_C_API_test.hpp **** 
  59:tests/Threads_C_API_test.hpp ****     uint64 result = fibonacci(12);
 1100              		.loc 1 59 5 is_stmt 1
 1101              		.loc 1 59 30 is_stmt 0
 1102 0370 1305C000 		li	a0,12
 1103 0374 97000000 		call	_Z9fibonaccim
 1103      E7800000 
 1104              	.LVL118:
 1105 037c 13090500 		mv	s2,a0
 1106              	.LVL119:
  60:tests/Threads_C_API_test.hpp ****     printString("C: fibonaci="); printInt(result); printString("\n");
 1107              		.loc 1 60 5 is_stmt 1
 1108              		.loc 1 60 16 is_stmt 0
 1109 0380 17050000 		lla	a0,.LC10
 1109      13050500 
 1110              	.LVL120:
 1111 0388 97000000 		call	_Z11printStringPKc@plt
 1111      E7800000 
 1112              	.LVL121:
 1113              		.loc 1 60 34 is_stmt 1
 1114              		.loc 1 60 42 is_stmt 0
 1115 0390 13060000 		li	a2,0
 1116 0394 9305A000 		li	a1,10
 1117 0398 1B050900 		sext.w	a0,s2
 1118 039c 97000000 		call	_Z8printIntiii@plt
 1118      E7800000 
 1119              	.LVL122:
 1120              		.loc 1 60 52 is_stmt 1
 1121              		.loc 1 60 63 is_stmt 0
 1122 03a4 17050000 		lla	a0,.LC1
 1122      13050500 
 1123 03ac 97000000 		call	_Z11printStringPKc@plt
 1123      E7800000 
 1124              	.LVL123:
 1125 03b4 6F000004 		j	.L59
 1126              	.L62:
  61:tests/Threads_C_API_test.hpp **** 
GAS LISTING /tmp/ccYWmO80.s 			page 27


  62:tests/Threads_C_API_test.hpp ****     for (; i < 6; i++) {
  63:tests/Threads_C_API_test.hpp ****         printString("C: i="); printInt(i); printString("\n");
 1127              		.loc 1 63 9 is_stmt 1 discriminator 1
 1128              		.loc 1 63 20 is_stmt 0 discriminator 1
 1129 03b8 17050000 		lla	a0,.LC7
 1129      13050500 
 1130 03c0 97000000 		call	_Z11printStringPKc@plt
 1130      E7800000 
 1131              	.LVL124:
 1132              		.loc 1 63 31 is_stmt 1 discriminator 1
 1133              		.loc 1 63 39 is_stmt 0 discriminator 1
 1134 03c8 13060000 		li	a2,0
 1135 03cc 9305A000 		li	a1,10
 1136 03d0 13850400 		mv	a0,s1
 1137 03d4 97000000 		call	_Z8printIntiii@plt
 1137      E7800000 
 1138              	.LVL125:
 1139              		.loc 1 63 44 is_stmt 1 discriminator 1
 1140              		.loc 1 63 55 is_stmt 0 discriminator 1
 1141 03dc 17050000 		lla	a0,.LC1
 1141      13050500 
 1142 03e4 97000000 		call	_Z11printStringPKc@plt
 1142      E7800000 
 1143              	.LVL126:
  62:tests/Threads_C_API_test.hpp ****         printString("C: i="); printInt(i); printString("\n");
 1144              		.loc 1 62 5 is_stmt 1 discriminator 1
 1145 03ec 9B841400 		addiw	s1,s1,1
 1146              	.LVL127:
 1147 03f0 93F4F40F 		andi	s1,s1,0xff
 1148              	.LVL128:
 1149              	.L59:
  62:tests/Threads_C_API_test.hpp ****         printString("C: i="); printInt(i); printString("\n");
 1150              		.loc 1 62 5 discriminator 2
  62:tests/Threads_C_API_test.hpp ****         printString("C: i="); printInt(i); printString("\n");
 1151              		.loc 1 62 14 discriminator 2
 1152 03f4 93075000 		li	a5,5
 1153 03f8 E3F097FC 		bleu	s1,a5,.L62
  64:tests/Threads_C_API_test.hpp ****     }
  65:tests/Threads_C_API_test.hpp **** 
  66:tests/Threads_C_API_test.hpp ****     printString("A finished!\n");
 1154              		.loc 1 66 5
 1155              		.loc 1 66 16 is_stmt 0
 1156 03fc 17050000 		lla	a0,.LC2
 1156      13050500 
 1157 0404 97000000 		call	_Z11printStringPKc@plt
 1157      E7800000 
 1158              	.LVL129:
  67:tests/Threads_C_API_test.hpp ****     finishedC = true;
 1159              		.loc 1 67 5 is_stmt 1
 1160              		.loc 1 67 15 is_stmt 0
 1161 040c 93071000 		li	a5,1
 1162 0410 17070000 		sb	a5,.LANCHOR0+16,a4
 1162      2300F700 
  68:tests/Threads_C_API_test.hpp ****     thread_dispatch();
 1163              		.loc 1 68 5 is_stmt 1
 1164              		.loc 1 68 20 is_stmt 0
 1165 0418 97000000 		call	_Z15thread_dispatchv@plt
GAS LISTING /tmp/ccYWmO80.s 			page 28


 1165      E7800000 
 1166              	.LVL130:
  69:tests/Threads_C_API_test.hpp **** }
 1167              		.loc 1 69 1
 1168 0420 83308101 		ld	ra,24(sp)
 1169              		.cfi_restore 1
 1170 0424 03340101 		ld	s0,16(sp)
 1171              		.cfi_restore 8
 1172              		.cfi_def_cfa 2, 32
 1173 0428 83348100 		ld	s1,8(sp)
 1174              		.cfi_restore 9
 1175              	.LVL131:
 1176 042c 03390100 		ld	s2,0(sp)
 1177              		.cfi_restore 18
 1178              	.LVL132:
 1179 0430 13010102 		addi	sp,sp,32
 1180              		.cfi_def_cfa_offset 0
 1181 0434 67800000 		jr	ra
 1182              		.cfi_endproc
 1183              	.LFE15:
 1185              		.section	.rodata.str1.8
 1186 0075 000000   		.align	3
 1187              	.LC11:
 1188 0078 443A2069 		.string	"D: i="
 1188      3D00
 1189 007e 0000     		.align	3
 1190              	.LC12:
 1191 0080 443A2064 		.string	"D: dispatch\n"
 1191      69737061 
 1191      7463680A 
 1191      00
 1192 008d 000000   		.align	3
 1193              	.LC13:
 1194 0090 443A2066 		.string	"D: fibonaci="
 1194      69626F6E 
 1194      6163693D 
 1194      00
 1195 009d 000000   		.align	3
 1196              	.LC14:
 1197 00a0 44206669 		.string	"D finished!\n"
 1197      6E697368 
 1197      6564210A 
 1197      00
 1198              		.text
 1199              		.align	2
 1200              		.globl	_Z11workerBodyDPv
 1202              	_Z11workerBodyDPv:
 1203              	.LFB16:
  70:tests/Threads_C_API_test.hpp **** 
  71:tests/Threads_C_API_test.hpp **** void workerBodyD(void* arg) {
 1204              		.loc 1 71 29 is_stmt 1
 1205              		.cfi_startproc
 1206              	.LVL133:
 1207 0438 130101FE 		addi	sp,sp,-32
 1208              		.cfi_def_cfa_offset 32
 1209 043c 233C1100 		sd	ra,24(sp)
 1210 0440 23388100 		sd	s0,16(sp)
GAS LISTING /tmp/ccYWmO80.s 			page 29


 1211 0444 23349100 		sd	s1,8(sp)
 1212 0448 23302101 		sd	s2,0(sp)
 1213              		.cfi_offset 1, -8
 1214              		.cfi_offset 8, -16
 1215              		.cfi_offset 9, -24
 1216              		.cfi_offset 18, -32
 1217 044c 13040102 		addi	s0,sp,32
 1218              		.cfi_def_cfa 8, 0
  72:tests/Threads_C_API_test.hpp ****     uint8 i = 10;
 1219              		.loc 1 72 5
 1220              	.LVL134:
 1221              		.loc 1 72 11 is_stmt 0
 1222 0450 9304A000 		li	s1,10
 1223 0454 6F000004 		j	.L65
 1224              	.LVL135:
 1225              	.L69:
  73:tests/Threads_C_API_test.hpp ****     for (; i < 13; i++) {
  74:tests/Threads_C_API_test.hpp ****         printString("D: i="); printInt(i); printString("\n");
 1226              		.loc 1 74 9 is_stmt 1 discriminator 1
 1227              		.loc 1 74 20 is_stmt 0 discriminator 1
 1228 0458 17050000 		lla	a0,.LC11
 1228      13050500 
 1229 0460 97000000 		call	_Z11printStringPKc@plt
 1229      E7800000 
 1230              	.LVL136:
 1231              		.loc 1 74 31 is_stmt 1 discriminator 1
 1232              		.loc 1 74 39 is_stmt 0 discriminator 1
 1233 0468 13060000 		li	a2,0
 1234 046c 9305A000 		li	a1,10
 1235 0470 13850400 		mv	a0,s1
 1236 0474 97000000 		call	_Z8printIntiii@plt
 1236      E7800000 
 1237              	.LVL137:
 1238              		.loc 1 74 44 is_stmt 1 discriminator 1
 1239              		.loc 1 74 55 is_stmt 0 discriminator 1
 1240 047c 17050000 		lla	a0,.LC1
 1240      13050500 
 1241 0484 97000000 		call	_Z11printStringPKc@plt
 1241      E7800000 
 1242              	.LVL138:
  73:tests/Threads_C_API_test.hpp ****     for (; i < 13; i++) {
 1243              		.loc 1 73 5 is_stmt 1 discriminator 1
 1244 048c 9B841400 		addiw	s1,s1,1
 1245              	.LVL139:
 1246 0490 93F4F40F 		andi	s1,s1,0xff
 1247              	.LVL140:
 1248              	.L65:
  73:tests/Threads_C_API_test.hpp ****     for (; i < 13; i++) {
 1249              		.loc 1 73 5 discriminator 2
  73:tests/Threads_C_API_test.hpp ****     for (; i < 13; i++) {
 1250              		.loc 1 73 14 discriminator 2
 1251 0494 9307C000 		li	a5,12
 1252 0498 E3F097FC 		bleu	s1,a5,.L69
  75:tests/Threads_C_API_test.hpp ****     }
  76:tests/Threads_C_API_test.hpp **** 
  77:tests/Threads_C_API_test.hpp ****     printString("D: dispatch\n");
 1253              		.loc 1 77 5
GAS LISTING /tmp/ccYWmO80.s 			page 30


 1254              		.loc 1 77 16 is_stmt 0
 1255 049c 17050000 		lla	a0,.LC12
 1255      13050500 
 1256 04a4 97000000 		call	_Z11printStringPKc@plt
 1256      E7800000 
 1257              	.LVL141:
  78:tests/Threads_C_API_test.hpp ****     __asm__ ("li t1, 5");
 1258              		.loc 1 78 5 is_stmt 1
 1259              		.loc 1 78 25 is_stmt 0
 1260              	#APP
 1261              	# 78 "tests/Threads_C_API_test.hpp" 1
  79              	    thread_dispatch();
 1262              		li t1, 5
 1263              	# 0 "" 2
 1264              		.loc 1 79 5 is_stmt 1
 1265              		.loc 1 79 20 is_stmt 0
 1266              	#NO_APP
 1267 04b0 97000000 		call	_Z15thread_dispatchv@plt
 1267      E7800000 
 1268              	.LVL142:
  80:tests/Threads_C_API_test.hpp **** 
  81:tests/Threads_C_API_test.hpp ****     uint64 result = fibonacci(16);
 1269              		.loc 1 81 5 is_stmt 1
 1270              		.loc 1 81 30 is_stmt 0
 1271 04b8 13050001 		li	a0,16
 1272 04bc 97000000 		call	_Z9fibonaccim
 1272      E7800000 
 1273              	.LVL143:
 1274 04c4 13090500 		mv	s2,a0
 1275              	.LVL144:
  82:tests/Threads_C_API_test.hpp ****     printString("D: fibonaci="); printInt(result); printString("\n");
 1276              		.loc 1 82 5 is_stmt 1
 1277              		.loc 1 82 16 is_stmt 0
 1278 04c8 17050000 		lla	a0,.LC13
 1278      13050500 
 1279              	.LVL145:
 1280 04d0 97000000 		call	_Z11printStringPKc@plt
 1280      E7800000 
 1281              	.LVL146:
 1282              		.loc 1 82 34 is_stmt 1
 1283              		.loc 1 82 42 is_stmt 0
 1284 04d8 13060000 		li	a2,0
 1285 04dc 9305A000 		li	a1,10
 1286 04e0 1B050900 		sext.w	a0,s2
 1287 04e4 97000000 		call	_Z8printIntiii@plt
 1287      E7800000 
 1288              	.LVL147:
 1289              		.loc 1 82 52 is_stmt 1
 1290              		.loc 1 82 63 is_stmt 0
 1291 04ec 17050000 		lla	a0,.LC1
 1291      13050500 
 1292 04f4 97000000 		call	_Z11printStringPKc@plt
 1292      E7800000 
 1293              	.LVL148:
 1294 04fc 6F000004 		j	.L67
 1295              	.L70:
  83:tests/Threads_C_API_test.hpp **** 
GAS LISTING /tmp/ccYWmO80.s 			page 31


  84:tests/Threads_C_API_test.hpp ****     for (; i < 16; i++) {
  85:tests/Threads_C_API_test.hpp ****         printString("D: i="); printInt(i); printString("\n");
 1296              		.loc 1 85 9 is_stmt 1 discriminator 1
 1297              		.loc 1 85 20 is_stmt 0 discriminator 1
 1298 0500 17050000 		lla	a0,.LC11
 1298      13050500 
 1299 0508 97000000 		call	_Z11printStringPKc@plt
 1299      E7800000 
 1300              	.LVL149:
 1301              		.loc 1 85 31 is_stmt 1 discriminator 1
 1302              		.loc 1 85 39 is_stmt 0 discriminator 1
 1303 0510 13060000 		li	a2,0
 1304 0514 9305A000 		li	a1,10
 1305 0518 13850400 		mv	a0,s1
 1306 051c 97000000 		call	_Z8printIntiii@plt
 1306      E7800000 
 1307              	.LVL150:
 1308              		.loc 1 85 44 is_stmt 1 discriminator 1
 1309              		.loc 1 85 55 is_stmt 0 discriminator 1
 1310 0524 17050000 		lla	a0,.LC1
 1310      13050500 
 1311 052c 97000000 		call	_Z11printStringPKc@plt
 1311      E7800000 
 1312              	.LVL151:
  84:tests/Threads_C_API_test.hpp ****         printString("D: i="); printInt(i); printString("\n");
 1313              		.loc 1 84 5 is_stmt 1 discriminator 1
 1314 0534 9B841400 		addiw	s1,s1,1
 1315              	.LVL152:
 1316 0538 93F4F40F 		andi	s1,s1,0xff
 1317              	.LVL153:
 1318              	.L67:
  84:tests/Threads_C_API_test.hpp ****         printString("D: i="); printInt(i); printString("\n");
 1319              		.loc 1 84 5 discriminator 2
  84:tests/Threads_C_API_test.hpp ****         printString("D: i="); printInt(i); printString("\n");
 1320              		.loc 1 84 14 discriminator 2
 1321 053c 9307F000 		li	a5,15
 1322 0540 E3F097FC 		bleu	s1,a5,.L70
  86:tests/Threads_C_API_test.hpp ****     }
  87:tests/Threads_C_API_test.hpp **** 
  88:tests/Threads_C_API_test.hpp ****     printString("D finished!\n");
 1323              		.loc 1 88 5
 1324              		.loc 1 88 16 is_stmt 0
 1325 0544 17050000 		lla	a0,.LC14
 1325      13050500 
 1326 054c 97000000 		call	_Z11printStringPKc@plt
 1326      E7800000 
 1327              	.LVL154:
  89:tests/Threads_C_API_test.hpp ****     finishedD = true;
 1328              		.loc 1 89 5 is_stmt 1
 1329              		.loc 1 89 15 is_stmt 0
 1330 0554 93071000 		li	a5,1
 1331 0558 17070000 		sb	a5,.LANCHOR0+17,a4
 1331      2300F700 
  90:tests/Threads_C_API_test.hpp ****     thread_dispatch();
 1332              		.loc 1 90 5 is_stmt 1
 1333              		.loc 1 90 20 is_stmt 0
 1334 0560 97000000 		call	_Z15thread_dispatchv@plt
GAS LISTING /tmp/ccYWmO80.s 			page 32


 1334      E7800000 
 1335              	.LVL155:
  91:tests/Threads_C_API_test.hpp **** }
 1336              		.loc 1 91 1
 1337 0568 83308101 		ld	ra,24(sp)
 1338              		.cfi_restore 1
 1339 056c 03340101 		ld	s0,16(sp)
 1340              		.cfi_restore 8
 1341              		.cfi_def_cfa 2, 32
 1342 0570 83348100 		ld	s1,8(sp)
 1343              		.cfi_restore 9
 1344              	.LVL156:
 1345 0574 03390100 		ld	s2,0(sp)
 1346              		.cfi_restore 18
 1347              	.LVL157:
 1348 0578 13010102 		addi	sp,sp,32
 1349              		.cfi_def_cfa_offset 0
 1350 057c 67800000 		jr	ra
 1351              		.cfi_endproc
 1352              	.LFE16:
 1354              		.section	.rodata.str1.8
 1355 00ad 000000   		.align	3
 1356              	.LC15:
 1357 00b0 54687265 		.string	"ThreadA created\n"
 1357      61644120 
 1357      63726561 
 1357      7465640A 
 1357      00
 1358 00c1 00000000 		.align	3
 1358      000000
 1359              	.LC16:
 1360 00c8 54687265 		.string	"ThreadB created\n"
 1360      61644220 
 1360      63726561 
 1360      7465640A 
 1360      00
 1361 00d9 00000000 		.align	3
 1361      000000
 1362              	.LC17:
 1363 00e0 54687265 		.string	"ThreadC created\n"
 1363      61644320 
 1363      63726561 
 1363      7465640A 
 1363      00
 1364 00f1 00000000 		.align	3
 1364      000000
 1365              	.LC18:
 1366 00f8 54687265 		.string	"ThreadD created\n"
 1366      61644420 
 1366      63726561 
 1366      7465640A 
 1366      00
 1367              		.text
 1368              		.align	2
 1369              		.globl	_Z18Threads_C_API_testv
 1371              	_Z18Threads_C_API_testv:
 1372              	.LFB17:
GAS LISTING /tmp/ccYWmO80.s 			page 33


  92:tests/Threads_C_API_test.hpp **** 
  93:tests/Threads_C_API_test.hpp **** 
  94:tests/Threads_C_API_test.hpp **** void Threads_C_API_test() {
 1373              		.loc 1 94 27 is_stmt 1
 1374              		.cfi_startproc
 1375 0580 130101FC 		addi	sp,sp,-64
 1376              		.cfi_def_cfa_offset 64
 1377 0584 233C1102 		sd	ra,56(sp)
 1378 0588 23388102 		sd	s0,48(sp)
 1379 058c 23349102 		sd	s1,40(sp)
 1380              		.cfi_offset 1, -8
 1381              		.cfi_offset 8, -16
 1382              		.cfi_offset 9, -24
 1383 0590 13040104 		addi	s0,sp,64
 1384              		.cfi_def_cfa 8, 0
  95:tests/Threads_C_API_test.hpp ****     thread_t threads[4];
 1385              		.loc 1 95 5
  96:tests/Threads_C_API_test.hpp ****     thread_create(&threads[0], workerBodyA, nullptr);
 1386              		.loc 1 96 5
 1387              		.loc 1 96 18 is_stmt 0
 1388 0594 13060000 		li	a2,0
 1389 0598 97050000 		lla	a1,_Z11workerBodyAPv
 1389      93850500 
 1390 05a0 130504FC 		addi	a0,s0,-64
 1391 05a4 97000000 		call	_Z13thread_createPP7_threadPFvPvES2_@plt
 1391      E7800000 
 1392              	.LVL158:
  97:tests/Threads_C_API_test.hpp ****     printString("ThreadA created\n");
 1393              		.loc 1 97 5 is_stmt 1
 1394              		.loc 1 97 16 is_stmt 0
 1395 05ac 17050000 		lla	a0,.LC15
 1395      13050500 
 1396 05b4 97000000 		call	_Z11printStringPKc@plt
 1396      E7800000 
 1397              	.LVL159:
  98:tests/Threads_C_API_test.hpp **** 
  99:tests/Threads_C_API_test.hpp ****     thread_create(&threads[1], workerBodyB, nullptr);
 1398              		.loc 1 99 5 is_stmt 1
 1399              		.loc 1 99 18 is_stmt 0
 1400 05bc 13060000 		li	a2,0
 1401 05c0 97050000 		lla	a1,_Z11workerBodyBPv
 1401      93850500 
 1402 05c8 130584FC 		addi	a0,s0,-56
 1403 05cc 97000000 		call	_Z13thread_createPP7_threadPFvPvES2_@plt
 1403      E7800000 
 1404              	.LVL160:
 100:tests/Threads_C_API_test.hpp ****     printString("ThreadB created\n");
 1405              		.loc 1 100 5 is_stmt 1
 1406              		.loc 1 100 16 is_stmt 0
 1407 05d4 17050000 		lla	a0,.LC16
 1407      13050500 
 1408 05dc 97000000 		call	_Z11printStringPKc@plt
 1408      E7800000 
 1409              	.LVL161:
 101:tests/Threads_C_API_test.hpp **** 
 102:tests/Threads_C_API_test.hpp ****     thread_create(&threads[2], workerBodyC, nullptr);
 1410              		.loc 1 102 5 is_stmt 1
GAS LISTING /tmp/ccYWmO80.s 			page 34


 1411              		.loc 1 102 18 is_stmt 0
 1412 05e4 13060000 		li	a2,0
 1413 05e8 97050000 		lla	a1,_Z11workerBodyCPv
 1413      93850500 
 1414 05f0 130504FD 		addi	a0,s0,-48
 1415 05f4 97000000 		call	_Z13thread_createPP7_threadPFvPvES2_@plt
 1415      E7800000 
 1416              	.LVL162:
 103:tests/Threads_C_API_test.hpp ****     printString("ThreadC created\n");
 1417              		.loc 1 103 5 is_stmt 1
 1418              		.loc 1 103 16 is_stmt 0
 1419 05fc 17050000 		lla	a0,.LC17
 1419      13050500 
 1420 0604 97000000 		call	_Z11printStringPKc@plt
 1420      E7800000 
 1421              	.LVL163:
 104:tests/Threads_C_API_test.hpp **** 
 105:tests/Threads_C_API_test.hpp ****     thread_create(&threads[3], workerBodyD, nullptr);
 1422              		.loc 1 105 5 is_stmt 1
 1423              		.loc 1 105 18 is_stmt 0
 1424 060c 13060000 		li	a2,0
 1425 0610 97050000 		lla	a1,_Z11workerBodyDPv
 1425      93850500 
 1426 0618 130584FD 		addi	a0,s0,-40
 1427 061c 97000000 		call	_Z13thread_createPP7_threadPFvPvES2_@plt
 1427      E7800000 
 1428              	.LVL164:
 106:tests/Threads_C_API_test.hpp ****     printString("ThreadD created\n");
 1429              		.loc 1 106 5 is_stmt 1
 1430              		.loc 1 106 16 is_stmt 0
 1431 0624 17050000 		lla	a0,.LC18
 1431      13050500 
 1432 062c 97000000 		call	_Z11printStringPKc@plt
 1432      E7800000 
 1433              	.LVL165:
 1434 0634 6F00C000 		j	.L74
 1435              	.L72:
 107:tests/Threads_C_API_test.hpp **** 
 108:tests/Threads_C_API_test.hpp ****     while (!(finishedA && finishedB && finishedC && finishedD)) {
 109:tests/Threads_C_API_test.hpp ****         thread_dispatch();
 1436              		.loc 1 109 9 is_stmt 1
 1437              		.loc 1 109 24 is_stmt 0
 1438 0638 97000000 		call	_Z15thread_dispatchv@plt
 1438      E7800000 
 1439              	.LVL166:
 1440              	.L74:
 108:tests/Threads_C_API_test.hpp ****         thread_dispatch();
 1441              		.loc 1 108 5 is_stmt 1
 108:tests/Threads_C_API_test.hpp ****         thread_dispatch();
 1442              		.loc 1 108 12
 1443 0640 97070000 		lbu	a5,.LANCHOR0
 1443      83C70700 
 1444 0648 E38807FE 		beqz	a5,.L72
 108:tests/Threads_C_API_test.hpp ****         thread_dispatch();
 1445              		.loc 1 108 24 is_stmt 0 discriminator 1
 1446 064c 97070000 		lbu	a5,.LANCHOR0+1
 1446      83C70700 
GAS LISTING /tmp/ccYWmO80.s 			page 35


 1447 0654 E38207FE 		beqz	a5,.L72
 108:tests/Threads_C_API_test.hpp ****         thread_dispatch();
 1448              		.loc 1 108 37 discriminator 2
 1449 0658 97070000 		lbu	a5,.LANCHOR0+16
 1449      83C70700 
 1450 0660 E38C07FC 		beqz	a5,.L72
 108:tests/Threads_C_API_test.hpp ****         thread_dispatch();
 1451              		.loc 1 108 12 discriminator 3
 1452 0664 97070000 		lbu	a5,.LANCHOR0+17
 1452      83C70700 
 1453 066c E38607FC 		beqz	a5,.L72
 1454              	.LBB51:
 110:tests/Threads_C_API_test.hpp ****     }
 111:tests/Threads_C_API_test.hpp **** 
 112:tests/Threads_C_API_test.hpp ****     for (auto &thread: threads) { delete thread; }
 1455              		.loc 1 112 24
 1456 0670 930404FC 		addi	s1,s0,-64
 1457 0674 6F008000 		j	.L73
 1458              	.LVL167:
 1459              	.L76:
 1460              		.loc 1 112 5 is_stmt 1 discriminator 4
 1461 0678 93848400 		addi	s1,s1,8
 1462              	.LVL168:
 1463              	.L73:
 1464              		.loc 1 112 24 discriminator 5
 1465 067c 930704FE 		addi	a5,s0,-32
 1466 0680 638CF400 		beq	s1,a5,.L71
 1467              	.LVL169:
 1468              		.loc 1 112 35 discriminator 2
 1469              		.loc 1 112 42 is_stmt 0 discriminator 2
 1470 0684 03B50400 		ld	a0,0(s1)
 1471              		.loc 1 112 48 discriminator 2
 1472 0688 E30805FE 		beqz	a0,.L76
 1473              		.loc 1 112 42 discriminator 3
 1474 068c 97000000 		call	_ZN7_threaddlEPv@plt
 1474      E7800000 
 1475              	.LVL170:
 1476 0694 6FF05FFE 		j	.L76
 1477              	.LVL171:
 1478              	.L71:
 1479              	.LBE51:
 113:tests/Threads_C_API_test.hpp **** }
 1480              		.loc 1 113 1
 1481 0698 83308103 		ld	ra,56(sp)
 1482              		.cfi_restore 1
 1483 069c 03340103 		ld	s0,48(sp)
 1484              		.cfi_restore 8
 1485              		.cfi_def_cfa 2, 64
 1486 06a0 83348102 		ld	s1,40(sp)
 1487              		.cfi_restore 9
 1488              	.LVL172:
 1489 06a4 13010104 		addi	sp,sp,64
 1490              		.cfi_def_cfa_offset 0
 1491 06a8 67800000 		jr	ra
 1492              		.cfi_endproc
 1493              	.LFE17:
 1495              		.align	2
GAS LISTING /tmp/ccYWmO80.s 			page 36


 1496              		.globl	_Z12testSleepingv
 1498              	_Z12testSleepingv:
 1499              	.LFB19:
  26:tests/ThreadSleep_C_API_test.hpp **** 
  27:tests/ThreadSleep_C_API_test.hpp **** void testSleeping() {
 1500              		.loc 2 27 21 is_stmt 1
 1501              		.cfi_startproc
 1502 06ac 130101FC 		addi	sp,sp,-64
 1503              		.cfi_def_cfa_offset 64
 1504 06b0 233C1102 		sd	ra,56(sp)
 1505 06b4 23388102 		sd	s0,48(sp)
 1506 06b8 23349102 		sd	s1,40(sp)
 1507              		.cfi_offset 1, -8
 1508              		.cfi_offset 8, -16
 1509              		.cfi_offset 9, -24
 1510 06bc 13040104 		addi	s0,sp,64
 1511              		.cfi_def_cfa 8, 0
  28:tests/ThreadSleep_C_API_test.hpp ****     const int sleepy_thread_count = 2;
 1512              		.loc 2 28 5
 1513              	.LVL173:
  29:tests/ThreadSleep_C_API_test.hpp ****     time_t sleep_times[sleepy_thread_count] = {10, 20};
 1514              		.loc 2 29 5
 1515              		.loc 2 29 12 is_stmt 0
 1516 06c0 9307A000 		li	a5,10
 1517 06c4 2338F4FC 		sd	a5,-48(s0)
 1518 06c8 93074001 		li	a5,20
 1519 06cc 233CF4FC 		sd	a5,-40(s0)
  30:tests/ThreadSleep_C_API_test.hpp ****     thread_t sleepyThread[sleepy_thread_count];
 1520              		.loc 2 30 5 is_stmt 1
  31:tests/ThreadSleep_C_API_test.hpp **** 
  32:tests/ThreadSleep_C_API_test.hpp ****     for (int i = 0; i < sleepy_thread_count; i++) {
 1521              		.loc 2 32 5
 1522              	.LVL174:
 1523              	.LBB52:
 1524              		.loc 2 32 14 is_stmt 0
 1525 06d0 93040000 		li	s1,0
 1526 06d4 6F00C002 		j	.L81
 1527              	.LVL175:
 1528              	.L84:
  33:tests/ThreadSleep_C_API_test.hpp ****         thread_create(&sleepyThread[i], sleepyRun, sleep_times + i);
 1529              		.loc 2 33 9 is_stmt 1
 1530              		.loc 2 33 64 is_stmt 0
 1531 06d8 93973400 		slli	a5,s1,3
 1532              		.loc 2 33 22
 1533 06dc 130604FD 		addi	a2,s0,-48
 1534 06e0 3306F600 		add	a2,a2,a5
 1535 06e4 97050000 		lla	a1,_Z9sleepyRunPv
 1535      93850500 
 1536 06ec 130504FC 		addi	a0,s0,-64
 1537 06f0 3305F500 		add	a0,a0,a5
 1538 06f4 97000000 		call	_Z13thread_createPP7_threadPFvPvES2_@plt
 1538      E7800000 
 1539              	.LVL176:
  32:tests/ThreadSleep_C_API_test.hpp ****         thread_create(&sleepyThread[i], sleepyRun, sleep_times + i);
 1540              		.loc 2 32 5 is_stmt 1
 1541 06fc 9B841400 		addiw	s1,s1,1
 1542              	.LVL177:
GAS LISTING /tmp/ccYWmO80.s 			page 37


 1543              	.L81:
  32:tests/ThreadSleep_C_API_test.hpp ****         thread_create(&sleepyThread[i], sleepyRun, sleep_times + i);
 1544              		.loc 2 32 23 discriminator 1
 1545 0700 93071000 		li	a5,1
 1546 0704 E3DA97FC 		ble	s1,a5,.L84
 1547              	.L82:
 1548              	.LBE52:
  34:tests/ThreadSleep_C_API_test.hpp ****     }
  35:tests/ThreadSleep_C_API_test.hpp **** 
  36:tests/ThreadSleep_C_API_test.hpp ****     while (!(finished[0] && finished[1])) {}
 1549              		.loc 2 36 5
 1550              		.loc 2 36 12
 1551              		.loc 2 36 24 is_stmt 0
 1552 0708 97070000 		lbu	a5,.LANCHOR0+8
 1552      83C70700 
 1553              		.loc 2 36 12
 1554 0710 E38C07FE 		beqz	a5,.L82
 1555              		.loc 2 36 39 discriminator 1
 1556 0714 97070000 		lbu	a5,.LANCHOR0+9
 1556      83C70700 
 1557              		.loc 2 36 12 discriminator 1
 1558 071c E38607FE 		beqz	a5,.L82
  37:tests/ThreadSleep_C_API_test.hpp **** }
 1559              		.loc 2 37 1
 1560 0720 83308103 		ld	ra,56(sp)
 1561              		.cfi_restore 1
 1562 0724 03340103 		ld	s0,48(sp)
 1563              		.cfi_restore 8
 1564              		.cfi_def_cfa 2, 64
 1565 0728 83348102 		ld	s1,40(sp)
 1566              		.cfi_restore 9
 1567              	.LVL178:
 1568 072c 13010104 		addi	sp,sp,64
 1569              		.cfi_def_cfa_offset 0
 1570 0730 67800000 		jr	ra
 1571              		.cfi_endproc
 1572              	.LFE19:
 1574              		.section	.rodata.str1.8
 1575 0109 00000000 		.align	3
 1575      000000
 1576              	.LC19:
 1577 0110 556E6573 		.string	"Unesite broj proizvodjaca?\n"
 1577      69746520 
 1577      62726F6A 
 1577      2070726F 
 1577      697A766F 
 1578 012c 00000000 		.align	3
 1579              	.LC20:
 1580 0130 556E6573 		.string	"Unesite velicinu bafera?\n"
 1580      69746520 
 1580      76656C69 
 1580      63696E75 
 1580      20626166 
 1581 014a 00000000 		.align	3
 1581      0000
 1582              	.LC21:
 1583 0150 42726F6A 		.string	"Broj proizvodjaca "
GAS LISTING /tmp/ccYWmO80.s 			page 38


 1583      2070726F 
 1583      697A766F 
 1583      646A6163 
 1583      612000
 1584 0163 00000000 		.align	3
 1584      00
 1585              	.LC22:
 1586 0168 20692076 		.string	" i velicina bafera "
 1586      656C6963 
 1586      696E6120 
 1586      62616665 
 1586      72612000 
 1587 017c 00000000 		.align	3
 1588              	.LC23:
 1589 0180 2E0A00   		.string	".\n"
 1590 0183 00000000 		.align	3
 1590      00
 1591              	.LC24:
 1592 0188 42726F6A 		.string	"Broj proizvodjaca ne sme biti manji od velicine bafera!\n"
 1592      2070726F 
 1592      697A766F 
 1592      646A6163 
 1592      61206E65 
 1593 01c1 00000000 		.align	3
 1593      000000
 1594              	.LC25:
 1595 01c8 42726F6A 		.string	"Broj proizvodjaca mora biti veci od nula!\n"
 1595      2070726F 
 1595      697A766F 
 1595      646A6163 
 1595      61206D6F 
 1596              		.text
 1597              		.align	2
 1598              		.globl	_ZN19ConsumerProducerCPP20testConsumerProducerEv
 1600              	_ZN19ConsumerProducerCPP20testConsumerProducerEv:
 1601              	.LFB34:
  87:tests/ConsumerProducer_CPP_API_test.hpp ****     };
  88:tests/ConsumerProducer_CPP_API_test.hpp **** 
  89:tests/ConsumerProducer_CPP_API_test.hpp ****     void testConsumerProducer() {
 1602              		.loc 3 89 33 is_stmt 1
 1603              		.cfi_startproc
 1604              		.cfi_personality 0x9b,DW.ref.__gxx_personality_v0
 1605              		.cfi_lsda 0x1b,.LLSDA34
 1606 0734 130101F8 		addi	sp,sp,-128
 1607              		.cfi_def_cfa_offset 128
 1608 0738 233C1106 		sd	ra,120(sp)
 1609 073c 23388106 		sd	s0,112(sp)
 1610 0740 23349106 		sd	s1,104(sp)
 1611 0744 23302107 		sd	s2,96(sp)
 1612 0748 233C3105 		sd	s3,88(sp)
 1613 074c 23384105 		sd	s4,80(sp)
 1614 0750 23345105 		sd	s5,72(sp)
 1615 0754 23306105 		sd	s6,64(sp)
 1616 0758 233C7103 		sd	s7,56(sp)
 1617 075c 23388103 		sd	s8,48(sp)
 1618 0760 23349103 		sd	s9,40(sp)
 1619              		.cfi_offset 1, -8
GAS LISTING /tmp/ccYWmO80.s 			page 39


 1620              		.cfi_offset 8, -16
 1621              		.cfi_offset 9, -24
 1622              		.cfi_offset 18, -32
 1623              		.cfi_offset 19, -40
 1624              		.cfi_offset 20, -48
 1625              		.cfi_offset 21, -56
 1626              		.cfi_offset 22, -64
 1627              		.cfi_offset 23, -72
 1628              		.cfi_offset 24, -80
 1629              		.cfi_offset 25, -88
 1630 0764 13040108 		addi	s0,sp,128
 1631              		.cfi_def_cfa 8, 0
  90:tests/ConsumerProducer_CPP_API_test.hpp ****         char input[30];
  91:tests/ConsumerProducer_CPP_API_test.hpp ****         int n, threadNum;
  92:tests/ConsumerProducer_CPP_API_test.hpp **** 
  93:tests/ConsumerProducer_CPP_API_test.hpp ****         printString("Unesite broj proizvodjaca?\n");
  94:tests/ConsumerProducer_CPP_API_test.hpp ****         getString(input, 30);
  95:tests/ConsumerProducer_CPP_API_test.hpp ****         threadNum = stringToInt(input);
  96:tests/ConsumerProducer_CPP_API_test.hpp **** 
  97:tests/ConsumerProducer_CPP_API_test.hpp ****         printString("Unesite velicinu bafera?\n");
  98:tests/ConsumerProducer_CPP_API_test.hpp ****         getString(input, 30);
  99:tests/ConsumerProducer_CPP_API_test.hpp ****         n = stringToInt(input);
 100:tests/ConsumerProducer_CPP_API_test.hpp **** 
 101:tests/ConsumerProducer_CPP_API_test.hpp ****         printString("Broj proizvodjaca "); printInt(threadNum);
 102:tests/ConsumerProducer_CPP_API_test.hpp ****         printString(" i velicina bafera "); printInt(n);
 103:tests/ConsumerProducer_CPP_API_test.hpp ****         printString(".\n");
 104:tests/ConsumerProducer_CPP_API_test.hpp **** 
 105:tests/ConsumerProducer_CPP_API_test.hpp ****         if(threadNum > n) {
 106:tests/ConsumerProducer_CPP_API_test.hpp ****             printString("Broj proizvodjaca ne sme biti manji od velicine bafera!\n");
 107:tests/ConsumerProducer_CPP_API_test.hpp ****             return;
 108:tests/ConsumerProducer_CPP_API_test.hpp ****         } else if (threadNum < 1) {
 109:tests/ConsumerProducer_CPP_API_test.hpp ****             printString("Broj proizvodjaca mora biti veci od nula!\n");
 110:tests/ConsumerProducer_CPP_API_test.hpp ****             return;
 111:tests/ConsumerProducer_CPP_API_test.hpp ****         }
 112:tests/ConsumerProducer_CPP_API_test.hpp **** 
 113:tests/ConsumerProducer_CPP_API_test.hpp ****         BufferCPP *buffer = new BufferCPP(n);
 114:tests/ConsumerProducer_CPP_API_test.hpp **** 
 115:tests/ConsumerProducer_CPP_API_test.hpp ****         waitForAll = new Semaphore(0);
 116:tests/ConsumerProducer_CPP_API_test.hpp ****         Thread *producers[threadNum];
 117:tests/ConsumerProducer_CPP_API_test.hpp ****         thread_data threadData[threadNum + 1];
 118:tests/ConsumerProducer_CPP_API_test.hpp **** 
 119:tests/ConsumerProducer_CPP_API_test.hpp ****         threadData[threadNum].id = threadNum;
 120:tests/ConsumerProducer_CPP_API_test.hpp ****         threadData[threadNum].buffer = buffer;
 121:tests/ConsumerProducer_CPP_API_test.hpp ****         threadData[threadNum].sem = waitForAll;
 122:tests/ConsumerProducer_CPP_API_test.hpp ****         Thread *consumer = new Consumer(&threadData[threadNum]);
 123:tests/ConsumerProducer_CPP_API_test.hpp ****         consumer->start();
 124:tests/ConsumerProducer_CPP_API_test.hpp **** 
 125:tests/ConsumerProducer_CPP_API_test.hpp ****         threadData[0].id = 0;
 126:tests/ConsumerProducer_CPP_API_test.hpp ****         threadData[0].buffer = buffer;
 127:tests/ConsumerProducer_CPP_API_test.hpp ****         threadData[0].sem = waitForAll;
 128:tests/ConsumerProducer_CPP_API_test.hpp ****         producers[0] = new ProducerKeyborad(&threadData[0]);
 129:tests/ConsumerProducer_CPP_API_test.hpp ****         producers[0]->start();
 130:tests/ConsumerProducer_CPP_API_test.hpp **** 
 131:tests/ConsumerProducer_CPP_API_test.hpp ****         for (int i = 1; i < threadNum; i++) {
 132:tests/ConsumerProducer_CPP_API_test.hpp ****             threadData[i].id = i;
 133:tests/ConsumerProducer_CPP_API_test.hpp ****             threadData[i].buffer = buffer;
 134:tests/ConsumerProducer_CPP_API_test.hpp ****             threadData[i].sem = waitForAll;
GAS LISTING /tmp/ccYWmO80.s 			page 40


 135:tests/ConsumerProducer_CPP_API_test.hpp **** 
 136:tests/ConsumerProducer_CPP_API_test.hpp ****             producers[i] = new Producer(&threadData[i]);
 137:tests/ConsumerProducer_CPP_API_test.hpp ****             producers[i]->start();
 138:tests/ConsumerProducer_CPP_API_test.hpp **** 
 139:tests/ConsumerProducer_CPP_API_test.hpp ****         }
 140:tests/ConsumerProducer_CPP_API_test.hpp **** 
 141:tests/ConsumerProducer_CPP_API_test.hpp ****         Thread::dispatch();
 142:tests/ConsumerProducer_CPP_API_test.hpp **** 
 143:tests/ConsumerProducer_CPP_API_test.hpp ****         for (int i = 0; i <= threadNum; i++) {
 144:tests/ConsumerProducer_CPP_API_test.hpp ****             waitForAll->wait();
 145:tests/ConsumerProducer_CPP_API_test.hpp ****         }
 146:tests/ConsumerProducer_CPP_API_test.hpp **** 
 147:tests/ConsumerProducer_CPP_API_test.hpp ****         delete waitForAll;
 148:tests/ConsumerProducer_CPP_API_test.hpp ****         for (int i = 0; i < threadNum; i++) {
 149:tests/ConsumerProducer_CPP_API_test.hpp ****             delete producers[i];
 150:tests/ConsumerProducer_CPP_API_test.hpp ****         }
 151:tests/ConsumerProducer_CPP_API_test.hpp ****         delete consumer;
 152:tests/ConsumerProducer_CPP_API_test.hpp ****         delete buffer;
 1632              		.loc 3 152 22 is_stmt 0
 1633 0768 930B0100 		mv	s7,sp
  90:tests/ConsumerProducer_CPP_API_test.hpp ****         char input[30];
 1634              		.loc 3 90 9 is_stmt 1
  91:tests/ConsumerProducer_CPP_API_test.hpp **** 
 1635              		.loc 3 91 9
  93:tests/ConsumerProducer_CPP_API_test.hpp ****         getString(input, 30);
 1636              		.loc 3 93 9
  93:tests/ConsumerProducer_CPP_API_test.hpp ****         getString(input, 30);
 1637              		.loc 3 93 20 is_stmt 0
 1638 076c 17050000 		lla	a0,.LC19
 1638      13050500 
 1639              	.LEHB0:
 1640 0774 97000000 		call	_Z11printStringPKc@plt
 1640      E7800000 
 1641              	.LVL179:
  94:tests/ConsumerProducer_CPP_API_test.hpp ****         threadNum = stringToInt(input);
 1642              		.loc 3 94 9 is_stmt 1
  94:tests/ConsumerProducer_CPP_API_test.hpp ****         threadNum = stringToInt(input);
 1643              		.loc 3 94 18 is_stmt 0
 1644 077c 9305E001 		li	a1,30
 1645 0780 930404F8 		addi	s1,s0,-128
 1646 0784 13850400 		mv	a0,s1
 1647 0788 97000000 		call	_Z9getStringPci@plt
 1647      E7800000 
 1648              	.LVL180:
  95:tests/ConsumerProducer_CPP_API_test.hpp **** 
 1649              		.loc 3 95 9 is_stmt 1
  95:tests/ConsumerProducer_CPP_API_test.hpp **** 
 1650              		.loc 3 95 32 is_stmt 0
 1651 0790 13850400 		mv	a0,s1
 1652 0794 97000000 		call	_Z11stringToIntPKc@plt
 1652      E7800000 
 1653              	.LVL181:
 1654 079c 13090500 		mv	s2,a0
 1655              	.LVL182:
  97:tests/ConsumerProducer_CPP_API_test.hpp ****         getString(input, 30);
 1656              		.loc 3 97 9 is_stmt 1
  97:tests/ConsumerProducer_CPP_API_test.hpp ****         getString(input, 30);
GAS LISTING /tmp/ccYWmO80.s 			page 41


 1657              		.loc 3 97 20 is_stmt 0
 1658 07a0 17050000 		lla	a0,.LC20
 1658      13050500 
 1659 07a8 97000000 		call	_Z11printStringPKc@plt
 1659      E7800000 
 1660              	.LVL183:
  98:tests/ConsumerProducer_CPP_API_test.hpp ****         n = stringToInt(input);
 1661              		.loc 3 98 9 is_stmt 1
  98:tests/ConsumerProducer_CPP_API_test.hpp ****         n = stringToInt(input);
 1662              		.loc 3 98 18 is_stmt 0
 1663 07b0 9305E001 		li	a1,30
 1664 07b4 13850400 		mv	a0,s1
 1665 07b8 97000000 		call	_Z9getStringPci@plt
 1665      E7800000 
 1666              	.LVL184:
  99:tests/ConsumerProducer_CPP_API_test.hpp **** 
 1667              		.loc 3 99 9 is_stmt 1
  99:tests/ConsumerProducer_CPP_API_test.hpp **** 
 1668              		.loc 3 99 24 is_stmt 0
 1669 07c0 13850400 		mv	a0,s1
 1670 07c4 97000000 		call	_Z11stringToIntPKc@plt
 1670      E7800000 
 1671              	.LVL185:
 1672 07cc 93040500 		mv	s1,a0
 1673              	.LVL186:
 101:tests/ConsumerProducer_CPP_API_test.hpp ****         printString(" i velicina bafera "); printInt(n);
 1674              		.loc 3 101 9 is_stmt 1
 101:tests/ConsumerProducer_CPP_API_test.hpp ****         printString(" i velicina bafera "); printInt(n);
 1675              		.loc 3 101 20 is_stmt 0
 1676 07d0 17050000 		lla	a0,.LC21
 1676      13050500 
 1677 07d8 97000000 		call	_Z11printStringPKc@plt
 1677      E7800000 
 1678              	.LVL187:
 101:tests/ConsumerProducer_CPP_API_test.hpp ****         printString(" i velicina bafera "); printInt(n);
 1679              		.loc 3 101 44 is_stmt 1
 101:tests/ConsumerProducer_CPP_API_test.hpp ****         printString(" i velicina bafera "); printInt(n);
 1680              		.loc 3 101 52 is_stmt 0
 1681 07e0 13060000 		li	a2,0
 1682 07e4 9305A000 		li	a1,10
 1683 07e8 13050900 		mv	a0,s2
 1684 07ec 97000000 		call	_Z8printIntiii@plt
 1684      E7800000 
 1685              	.LVL188:
 102:tests/ConsumerProducer_CPP_API_test.hpp ****         printString(".\n");
 1686              		.loc 3 102 9 is_stmt 1
 102:tests/ConsumerProducer_CPP_API_test.hpp ****         printString(".\n");
 1687              		.loc 3 102 20 is_stmt 0
 1688 07f4 17050000 		lla	a0,.LC22
 1688      13050500 
 1689 07fc 97000000 		call	_Z11printStringPKc@plt
 1689      E7800000 
 1690              	.LVL189:
 102:tests/ConsumerProducer_CPP_API_test.hpp ****         printString(".\n");
 1691              		.loc 3 102 45 is_stmt 1
 102:tests/ConsumerProducer_CPP_API_test.hpp ****         printString(".\n");
 1692              		.loc 3 102 53 is_stmt 0
GAS LISTING /tmp/ccYWmO80.s 			page 42


 1693 0804 13060000 		li	a2,0
 1694 0808 9305A000 		li	a1,10
 1695 080c 13850400 		mv	a0,s1
 1696 0810 97000000 		call	_Z8printIntiii@plt
 1696      E7800000 
 1697              	.LVL190:
 103:tests/ConsumerProducer_CPP_API_test.hpp **** 
 1698              		.loc 3 103 9 is_stmt 1
 103:tests/ConsumerProducer_CPP_API_test.hpp **** 
 1699              		.loc 3 103 20 is_stmt 0
 1700 0818 17050000 		lla	a0,.LC23
 1700      13050500 
 1701 0820 97000000 		call	_Z11printStringPKc@plt
 1701      E7800000 
 1702              	.LVL191:
 105:tests/ConsumerProducer_CPP_API_test.hpp ****             printString("Broj proizvodjaca ne sme biti manji od velicine bafera!\n");
 1703              		.loc 3 105 9 is_stmt 1
 1704 0828 63C62403 		bgt	s2,s1,.L116
 108:tests/ConsumerProducer_CPP_API_test.hpp ****             printString("Broj proizvodjaca mora biti veci od nula!\n");
 1705              		.loc 3 108 16
 1706 082c 635E2003 		blez	s2,.L117
 113:tests/ConsumerProducer_CPP_API_test.hpp **** 
 1707              		.loc 3 113 9
 113:tests/ConsumerProducer_CPP_API_test.hpp **** 
 1708              		.loc 3 113 44 is_stmt 0
 1709 0830 13058003 		li	a0,56
 1710 0834 97000000 		call	_Znwm@plt
 1710      E7800000 
 1711              	.LVL192:
 1712              	.LEHE0:
 1713 083c 930A0500 		mv	s5,a0
 1714 0840 63000504 		beqz	a0,.L89
 113:tests/ConsumerProducer_CPP_API_test.hpp **** 
 1715              		.loc 3 113 44 discriminator 2
 1716 0844 93850400 		mv	a1,s1
 1717              	.LEHB1:
 1718 0848 97000000 		call	_ZN9BufferCPPC1Ei@plt
 1718      E7800000 
 1719              	.LVL193:
 1720              	.LEHE1:
 1721 0850 6F000003 		j	.L89
 1722              	.L116:
 106:tests/ConsumerProducer_CPP_API_test.hpp ****             return;
 1723              		.loc 3 106 13 is_stmt 1
 106:tests/ConsumerProducer_CPP_API_test.hpp ****             return;
 1724              		.loc 3 106 24 is_stmt 0
 1725 0854 17050000 		lla	a0,.LC24
 1725      13050500 
 1726              	.LEHB2:
 1727 085c 97000000 		call	_Z11printStringPKc@plt
 1727      E7800000 
 1728              	.LVL194:
 107:tests/ConsumerProducer_CPP_API_test.hpp ****         } else if (threadNum < 1) {
 1729              		.loc 3 107 13 is_stmt 1
 1730 0864 6F004001 		j	.L87
 1731              	.L117:
 109:tests/ConsumerProducer_CPP_API_test.hpp ****             return;
GAS LISTING /tmp/ccYWmO80.s 			page 43


 1732              		.loc 3 109 13
 109:tests/ConsumerProducer_CPP_API_test.hpp ****             return;
 1733              		.loc 3 109 24 is_stmt 0
 1734 0868 17050000 		lla	a0,.LC25
 1734      13050500 
 1735 0870 97000000 		call	_Z11printStringPKc@plt
 1735      E7800000 
 1736              	.LVL195:
 110:tests/ConsumerProducer_CPP_API_test.hpp ****         }
 1737              		.loc 3 110 13 is_stmt 1
 1738              	.L87:
 1739 0878 13810B00 		mv	sp,s7
 1740 087c 6F00C024 		j	.L85
 1741              	.L89:
 1742              	.LVL196:
 115:tests/ConsumerProducer_CPP_API_test.hpp ****         Thread *producers[threadNum];
 1743              		.loc 3 115 9 discriminator 7
 115:tests/ConsumerProducer_CPP_API_test.hpp ****         Thread *producers[threadNum];
 1744              		.loc 3 115 37 is_stmt 0 discriminator 7
 1745 0880 13050001 		li	a0,16
 1746 0884 97000000 		call	_Znwm@plt
 1746      E7800000 
 1747              	.LVL197:
 1748              	.LEHE2:
 1749 088c 93040500 		mv	s1,a0
 1750              	.LVL198:
 1751 0890 63080500 		beqz	a0,.L90
 115:tests/ConsumerProducer_CPP_API_test.hpp ****         Thread *producers[threadNum];
 1752              		.loc 3 115 37 discriminator 2
 1753 0894 93050000 		li	a1,0
 1754              	.LEHB3:
 1755 0898 97000000 		call	_ZN9SemaphoreC1Ej@plt
 1755      E7800000 
 1756              	.LVL199:
 1757              	.LEHE3:
 1758              	.L90:
 115:tests/ConsumerProducer_CPP_API_test.hpp ****         Thread *producers[threadNum];
 1759              		.loc 3 115 20 discriminator 7
 1760 08a0 17070000 		lla	a4,.LANCHOR0
 1760      13070700 
 1761 08a8 233C9700 		sd	s1,24(a4)
 116:tests/ConsumerProducer_CPP_API_test.hpp ****         thread_data threadData[threadNum + 1];
 1762              		.loc 3 116 9 is_stmt 1 discriminator 7
 1763              	.LVL200:
 116:tests/ConsumerProducer_CPP_API_test.hpp ****         thread_data threadData[threadNum + 1];
 1764              		.loc 3 116 17 is_stmt 0 discriminator 7
 1765 08ac 93173900 		slli	a5,s2,3
 1766 08b0 9387F700 		addi	a5,a5,15
 1767 08b4 93F707FF 		andi	a5,a5,-16
 1768 08b8 3301F140 		sub	sp,sp,a5
 1769 08bc 130A0100 		mv	s4,sp
 1770              	.LVL201:
 117:tests/ConsumerProducer_CPP_API_test.hpp **** 
 1771              		.loc 3 117 9 is_stmt 1 discriminator 7
 117:tests/ConsumerProducer_CPP_API_test.hpp **** 
 1772              		.loc 3 117 42 is_stmt 0 discriminator 7
 1773 08c0 9B061900 		addiw	a3,s2,1
GAS LISTING /tmp/ccYWmO80.s 			page 44


 1774              	.LVL202:
 117:tests/ConsumerProducer_CPP_API_test.hpp **** 
 1775              		.loc 3 117 21 discriminator 7
 1776 08c4 93971600 		slli	a5,a3,1
 1777 08c8 B387D700 		add	a5,a5,a3
 1778 08cc 93973700 		slli	a5,a5,3
 1779 08d0 9387F700 		addi	a5,a5,15
 1780 08d4 93F707FF 		andi	a5,a5,-16
 1781 08d8 3301F140 		sub	sp,sp,a5
 1782              	.LVL203:
 1783 08dc 93090100 		mv	s3,sp
 1784              	.LVL204:
 119:tests/ConsumerProducer_CPP_API_test.hpp ****         threadData[threadNum].buffer = buffer;
 1785              		.loc 3 119 9 is_stmt 1 discriminator 7
 119:tests/ConsumerProducer_CPP_API_test.hpp ****         threadData[threadNum].buffer = buffer;
 1786              		.loc 3 119 34 is_stmt 0 discriminator 7
 1787 08e0 93171900 		slli	a5,s2,1
 1788 08e4 B3872701 		add	a5,a5,s2
 1789 08e8 93973700 		slli	a5,a5,3
 1790 08ec B387F900 		add	a5,s3,a5
 1791 08f0 23A02701 		sw	s2,0(a5)
 120:tests/ConsumerProducer_CPP_API_test.hpp ****         threadData[threadNum].sem = waitForAll;
 1792              		.loc 3 120 9 is_stmt 1 discriminator 7
 120:tests/ConsumerProducer_CPP_API_test.hpp ****         threadData[threadNum].sem = waitForAll;
 1793              		.loc 3 120 38 is_stmt 0 discriminator 7
 1794 08f4 23B45701 		sd	s5,8(a5)
 121:tests/ConsumerProducer_CPP_API_test.hpp ****         Thread *consumer = new Consumer(&threadData[threadNum]);
 1795              		.loc 3 121 9 is_stmt 1 discriminator 7
 121:tests/ConsumerProducer_CPP_API_test.hpp ****         Thread *consumer = new Consumer(&threadData[threadNum]);
 1796              		.loc 3 121 35 is_stmt 0 discriminator 7
 1797 08f8 03378701 		ld	a4,24(a4)
 1798 08fc 23B8E700 		sd	a4,16(a5)
 122:tests/ConsumerProducer_CPP_API_test.hpp ****         consumer->start();
 1799              		.loc 3 122 9 is_stmt 1 discriminator 7
 122:tests/ConsumerProducer_CPP_API_test.hpp ****         consumer->start();
 1800              		.loc 3 122 63 is_stmt 0 discriminator 7
 1801 0900 13058001 		li	a0,24
 1802              	.LEHB4:
 1803 0904 97000000 		call	_Znwm@plt
 1803      E7800000 
 1804              	.LVL205:
 1805              	.LEHE4:
 1806 090c 130B0500 		mv	s6,a0
 1807 0910 63060502 		beqz	a0,.L91
 122:tests/ConsumerProducer_CPP_API_test.hpp ****         consumer->start();
 1808              		.loc 3 122 63 discriminator 2
 1809 0914 93141900 		slli	s1,s2,1
 1810 0918 B3842401 		add	s1,s1,s2
 1811 091c 93943400 		slli	s1,s1,3
 1812 0920 B3849900 		add	s1,s3,s1
 1813              	.LVL206:
 1814              	.LEHB5:
 1815              	.LBB53:
 1816              	.LBB54:
  65:tests/ConsumerProducer_CPP_API_test.hpp **** 
 1817              		.loc 3 65 54 discriminator 2
 1818 0924 97000000 		call	_ZN6ThreadC2Ev@plt
GAS LISTING /tmp/ccYWmO80.s 			page 45


 1818      E7800000 
 1819              	.LVL207:
 1820              	.LEHE5:
  65:tests/ConsumerProducer_CPP_API_test.hpp **** 
 1821              		.loc 3 65 54
 1822 092c 97070000 		lla	a5,_ZTVN19ConsumerProducerCPP8ConsumerE+16
 1822      93870700 
 1823 0934 2330FB00 		sd	a5,0(s6)
 1824 0938 23389B00 		sd	s1,16(s6)
 1825              	.LVL208:
 1826              	.L91:
 1827              	.LBE54:
 1828              	.LBE53:
 123:tests/ConsumerProducer_CPP_API_test.hpp **** 
 1829              		.loc 3 123 9 is_stmt 1 discriminator 7
 123:tests/ConsumerProducer_CPP_API_test.hpp **** 
 1830              		.loc 3 123 24 is_stmt 0 discriminator 7
 1831 093c 13050B00 		mv	a0,s6
 1832              	.LEHB6:
 1833 0940 97000000 		call	_ZN6Thread5startEv@plt
 1833      E7800000 
 1834              	.LVL209:
 125:tests/ConsumerProducer_CPP_API_test.hpp ****         threadData[0].buffer = buffer;
 1835              		.loc 3 125 9 is_stmt 1 discriminator 7
 125:tests/ConsumerProducer_CPP_API_test.hpp ****         threadData[0].buffer = buffer;
 1836              		.loc 3 125 26 is_stmt 0 discriminator 7
 1837 0948 23A00900 		sw	zero,0(s3)
 126:tests/ConsumerProducer_CPP_API_test.hpp ****         threadData[0].sem = waitForAll;
 1838              		.loc 3 126 9 is_stmt 1 discriminator 7
 126:tests/ConsumerProducer_CPP_API_test.hpp ****         threadData[0].sem = waitForAll;
 1839              		.loc 3 126 30 is_stmt 0 discriminator 7
 1840 094c 23B45901 		sd	s5,8(s3)
 127:tests/ConsumerProducer_CPP_API_test.hpp ****         producers[0] = new ProducerKeyborad(&threadData[0]);
 1841              		.loc 3 127 9 is_stmt 1 discriminator 7
 127:tests/ConsumerProducer_CPP_API_test.hpp ****         producers[0] = new ProducerKeyborad(&threadData[0]);
 1842              		.loc 3 127 27 is_stmt 0 discriminator 7
 1843 0950 97070000 		ld	a5,.LANCHOR0+24
 1843      83B70700 
 1844 0958 23B8F900 		sd	a5,16(s3)
 128:tests/ConsumerProducer_CPP_API_test.hpp ****         producers[0]->start();
 1845              		.loc 3 128 9 is_stmt 1 discriminator 7
 128:tests/ConsumerProducer_CPP_API_test.hpp ****         producers[0]->start();
 1846              		.loc 3 128 59 is_stmt 0 discriminator 7
 1847 095c 13058001 		li	a0,24
 1848 0960 97000000 		call	_Znwm@plt
 1848      E7800000 
 1849              	.LVL210:
 1850              	.LEHE6:
 1851 0968 93040500 		mv	s1,a0
 128:tests/ConsumerProducer_CPP_API_test.hpp ****         producers[0]->start();
 1852              		.loc 3 128 24 discriminator 7
 1853 096c 630E0500 		beqz	a0,.L92
 1854              	.LVL211:
 1855              	.LEHB7:
 1856              	.LBB55:
 1857              	.LBB56:
  28:tests/ConsumerProducer_CPP_API_test.hpp **** 
GAS LISTING /tmp/ccYWmO80.s 			page 46


 1858              		.loc 3 28 62 discriminator 2
 1859 0970 97000000 		call	_ZN6ThreadC2Ev@plt
 1859      E7800000 
 1860              	.LVL212:
 1861              	.LEHE7:
  28:tests/ConsumerProducer_CPP_API_test.hpp **** 
 1862              		.loc 3 28 62
 1863 0978 97070000 		lla	a5,_ZTVN19ConsumerProducerCPP16ProducerKeyboradE+16
 1863      93870700 
 1864 0980 23B0F400 		sd	a5,0(s1)
 1865 0984 23B83401 		sd	s3,16(s1)
 1866              	.LVL213:
 1867              	.L92:
 1868              	.LBE56:
 1869              	.LBE55:
 128:tests/ConsumerProducer_CPP_API_test.hpp ****         producers[0]->start();
 1870              		.loc 3 128 22 discriminator 7
 1871 0988 23309A00 		sd	s1,0(s4)
 129:tests/ConsumerProducer_CPP_API_test.hpp **** 
 1872              		.loc 3 129 9 is_stmt 1 discriminator 7
 129:tests/ConsumerProducer_CPP_API_test.hpp **** 
 1873              		.loc 3 129 28 is_stmt 0 discriminator 7
 1874 098c 13850400 		mv	a0,s1
 1875              	.LEHB8:
 1876 0990 97000000 		call	_ZN6Thread5startEv@plt
 1876      E7800000 
 1877              	.LVL214:
 1878              	.LBB57:
 131:tests/ConsumerProducer_CPP_API_test.hpp ****             threadData[i].id = i;
 1879              		.loc 3 131 18 discriminator 7
 1880 0998 93041000 		li	s1,1
 1881 099c 6F000003 		j	.L95
 1882              	.LVL215:
 1883              	.L118:
 1884              	.LBB58:
 1885              	.LBB59:
  48:tests/ConsumerProducer_CPP_API_test.hpp **** 
 1886              		.loc 3 48 54
 1887 09a0 97070000 		lla	a5,_ZTVN19ConsumerProducerCPP8ProducerE+16
 1887      93870700 
 1888 09a8 2330FC00 		sd	a5,0(s8)
 1889 09ac 23389C01 		sd	s9,16(s8)
 1890              	.LVL216:
 1891              	.L94:
 1892              	.LBE59:
 1893              	.LBE58:
 136:tests/ConsumerProducer_CPP_API_test.hpp ****             producers[i]->start();
 1894              		.loc 3 136 26 discriminator 7
 1895 09b0 93973400 		slli	a5,s1,3
 1896 09b4 B307FA00 		add	a5,s4,a5
 1897 09b8 23B08701 		sd	s8,0(a5)
 137:tests/ConsumerProducer_CPP_API_test.hpp **** 
 1898              		.loc 3 137 13 is_stmt 1 discriminator 7
 137:tests/ConsumerProducer_CPP_API_test.hpp **** 
 1899              		.loc 3 137 32 is_stmt 0 discriminator 7
 1900 09bc 13050C00 		mv	a0,s8
 1901 09c0 97000000 		call	_ZN6Thread5startEv@plt
GAS LISTING /tmp/ccYWmO80.s 			page 47


 1901      E7800000 
 1902              	.LVL217:
 131:tests/ConsumerProducer_CPP_API_test.hpp ****             threadData[i].id = i;
 1903              		.loc 3 131 9 is_stmt 1 discriminator 7
 1904 09c8 9B841400 		addiw	s1,s1,1
 1905              	.LVL218:
 1906              	.L95:
 131:tests/ConsumerProducer_CPP_API_test.hpp ****             threadData[i].id = i;
 1907              		.loc 3 131 27 discriminator 1
 1908 09cc 63DC2405 		bge	s1,s2,.L93
 132:tests/ConsumerProducer_CPP_API_test.hpp ****             threadData[i].buffer = buffer;
 1909              		.loc 3 132 13
 132:tests/ConsumerProducer_CPP_API_test.hpp ****             threadData[i].buffer = buffer;
 1910              		.loc 3 132 30 is_stmt 0
 1911 09d0 93971400 		slli	a5,s1,1
 1912 09d4 B3879700 		add	a5,a5,s1
 1913 09d8 93973700 		slli	a5,a5,3
 1914 09dc B387F900 		add	a5,s3,a5
 1915 09e0 23A09700 		sw	s1,0(a5)
 133:tests/ConsumerProducer_CPP_API_test.hpp ****             threadData[i].sem = waitForAll;
 1916              		.loc 3 133 13 is_stmt 1
 133:tests/ConsumerProducer_CPP_API_test.hpp ****             threadData[i].sem = waitForAll;
 1917              		.loc 3 133 34 is_stmt 0
 1918 09e4 23B45701 		sd	s5,8(a5)
 134:tests/ConsumerProducer_CPP_API_test.hpp **** 
 1919              		.loc 3 134 13 is_stmt 1
 134:tests/ConsumerProducer_CPP_API_test.hpp **** 
 1920              		.loc 3 134 31 is_stmt 0
 1921 09e8 17070000 		ld	a4,.LANCHOR0+24
 1921      03370700 
 1922 09f0 23B8E700 		sd	a4,16(a5)
 136:tests/ConsumerProducer_CPP_API_test.hpp ****             producers[i]->start();
 1923              		.loc 3 136 13 is_stmt 1
 136:tests/ConsumerProducer_CPP_API_test.hpp ****             producers[i]->start();
 1924              		.loc 3 136 55 is_stmt 0
 1925 09f4 13058001 		li	a0,24
 1926 09f8 97000000 		call	_Znwm@plt
 1926      E7800000 
 1927              	.LVL219:
 1928              	.LEHE8:
 1929 0a00 130C0500 		mv	s8,a0
 136:tests/ConsumerProducer_CPP_API_test.hpp ****             producers[i]->start();
 1930              		.loc 3 136 28
 1931 0a04 E30605FA 		beqz	a0,.L94
 136:tests/ConsumerProducer_CPP_API_test.hpp ****             producers[i]->start();
 1932              		.loc 3 136 55 discriminator 2
 1933 0a08 939C1400 		slli	s9,s1,1
 1934 0a0c B38C9C00 		add	s9,s9,s1
 1935 0a10 939C3C00 		slli	s9,s9,3
 1936 0a14 B38C9901 		add	s9,s3,s9
 1937              	.LVL220:
 1938              	.LEHB9:
 1939              	.LBB61:
 1940              	.LBB60:
  48:tests/ConsumerProducer_CPP_API_test.hpp **** 
 1941              		.loc 3 48 54 discriminator 2
 1942 0a18 97000000 		call	_ZN6ThreadC2Ev@plt
GAS LISTING /tmp/ccYWmO80.s 			page 48


 1942      E7800000 
 1943              	.LVL221:
 1944              	.LEHE9:
 1945 0a20 6FF01FF8 		j	.L118
 1946              	.LVL222:
 1947              	.L93:
 1948              	.LBE60:
 1949              	.LBE61:
 1950              	.LBE57:
 141:tests/ConsumerProducer_CPP_API_test.hpp **** 
 1951              		.loc 3 141 9 is_stmt 1
 1952              	.LEHB10:
 141:tests/ConsumerProducer_CPP_API_test.hpp **** 
 1953              		.loc 3 141 25 is_stmt 0
 1954 0a24 97000000 		call	_ZN6Thread8dispatchEv@plt
 1954      E7800000 
 1955              	.LVL223:
 1956              	.LBB62:
 143:tests/ConsumerProducer_CPP_API_test.hpp ****             waitForAll->wait();
 1957              		.loc 3 143 18
 1958 0a2c 93040000 		li	s1,0
 1959              	.LVL224:
 1960              	.L97:
 143:tests/ConsumerProducer_CPP_API_test.hpp ****             waitForAll->wait();
 1961              		.loc 3 143 27 is_stmt 1 discriminator 1
 1962 0a30 634E9900 		bgt	s1,s2,.L96
 144:tests/ConsumerProducer_CPP_API_test.hpp ****         }
 1963              		.loc 3 144 13
 144:tests/ConsumerProducer_CPP_API_test.hpp ****         }
 1964              		.loc 3 144 29 is_stmt 0
 1965 0a34 17050000 		ld	a0,.LANCHOR0+24
 1965      03350500 
 1966 0a3c 97000000 		call	_ZN9Semaphore4waitEv@plt
 1966      E7800000 
 1967              	.LVL225:
 143:tests/ConsumerProducer_CPP_API_test.hpp ****             waitForAll->wait();
 1968              		.loc 3 143 9 is_stmt 1
 1969 0a44 9B841400 		addiw	s1,s1,1
 1970              	.LVL226:
 1971 0a48 6FF09FFE 		j	.L97
 1972              	.LVL227:
 1973              	.L96:
 1974              	.LBE62:
 147:tests/ConsumerProducer_CPP_API_test.hpp ****         for (int i = 0; i < threadNum; i++) {
 1975              		.loc 3 147 9
 147:tests/ConsumerProducer_CPP_API_test.hpp ****         for (int i = 0; i < threadNum; i++) {
 1976              		.loc 3 147 16 is_stmt 0
 1977 0a4c 17050000 		ld	a0,.LANCHOR0+24
 1977      03350500 
 147:tests/ConsumerProducer_CPP_API_test.hpp ****         for (int i = 0; i < threadNum; i++) {
 1978              		.loc 3 147 26
 1979 0a54 63080500 		beqz	a0,.L98
 147:tests/ConsumerProducer_CPP_API_test.hpp ****         for (int i = 0; i < threadNum; i++) {
 1980              		.loc 3 147 16 discriminator 1
 1981 0a58 83370500 		ld	a5,0(a0)
 1982 0a5c 83B78700 		ld	a5,8(a5)
 1983 0a60 E7800700 		jalr	a5
GAS LISTING /tmp/ccYWmO80.s 			page 49


 1984              	.LVL228:
 1985              	.L98:
 1986              	.LBB63:
 143:tests/ConsumerProducer_CPP_API_test.hpp ****             waitForAll->wait();
 1987              		.loc 3 143 18 discriminator 1
 1988 0a64 93040000 		li	s1,0
 1989              	.LVL229:
 1990 0a68 6F008000 		j	.L101
 1991              	.LVL230:
 1992              	.L100:
 1993              	.LBE63:
 1994              	.LBB64:
 148:tests/ConsumerProducer_CPP_API_test.hpp ****             delete producers[i];
 1995              		.loc 3 148 9 is_stmt 1 discriminator 2
 1996 0a6c 9B841400 		addiw	s1,s1,1
 1997              	.LVL231:
 1998              	.L101:
 148:tests/ConsumerProducer_CPP_API_test.hpp ****             delete producers[i];
 1999              		.loc 3 148 27 discriminator 1
 2000 0a70 63D22403 		bge	s1,s2,.L99
 149:tests/ConsumerProducer_CPP_API_test.hpp ****         }
 2001              		.loc 3 149 13
 149:tests/ConsumerProducer_CPP_API_test.hpp ****         }
 2002              		.loc 3 149 31 is_stmt 0
 2003 0a74 93973400 		slli	a5,s1,3
 2004 0a78 B307FA00 		add	a5,s4,a5
 2005 0a7c 03B50700 		ld	a0,0(a5)
 149:tests/ConsumerProducer_CPP_API_test.hpp ****         }
 2006              		.loc 3 149 32
 2007 0a80 E30605FE 		beqz	a0,.L100
 149:tests/ConsumerProducer_CPP_API_test.hpp ****         }
 2008              		.loc 3 149 31 discriminator 1
 2009 0a84 83370500 		ld	a5,0(a0)
 2010 0a88 83B78700 		ld	a5,8(a5)
 2011 0a8c E7800700 		jalr	a5
 2012              	.LVL232:
 2013 0a90 6FF0DFFD 		j	.L100
 2014              	.L99:
 2015              	.LBE64:
 151:tests/ConsumerProducer_CPP_API_test.hpp ****         delete buffer;
 2016              		.loc 3 151 9 is_stmt 1
 151:tests/ConsumerProducer_CPP_API_test.hpp ****         delete buffer;
 2017              		.loc 3 151 24 is_stmt 0
 2018 0a94 630A0B00 		beqz	s6,.L102
 151:tests/ConsumerProducer_CPP_API_test.hpp ****         delete buffer;
 2019              		.loc 3 151 16 discriminator 1
 2020 0a98 83370B00 		ld	a5,0(s6)
 2021 0a9c 83B78700 		ld	a5,8(a5)
 2022 0aa0 13050B00 		mv	a0,s6
 2023 0aa4 E7800700 		jalr	a5
 2024              	.LVL233:
 2025              	.L102:
 2026              		.loc 3 152 9 is_stmt 1
 2027              		.loc 3 152 22 is_stmt 0
 2028 0aa8 638E0A00 		beqz	s5,.L103
 2029              		.loc 3 152 16 discriminator 1
 2030 0aac 13850A00 		mv	a0,s5
GAS LISTING /tmp/ccYWmO80.s 			page 50


 2031 0ab0 97000000 		call	_ZN9BufferCPPD1Ev@plt
 2031      E7800000 
 2032              	.LVL234:
 2033 0ab8 13850A00 		mv	a0,s5
 2034 0abc 97000000 		call	_ZdlPv@plt
 2034      E7800000 
 2035              	.LVL235:
 2036              	.LEHE10:
 2037              	.L103:
 2038 0ac4 13810B00 		mv	sp,s7
 2039              	.LVL236:
 2040              	.L85:
 153:tests/ConsumerProducer_CPP_API_test.hpp ****     }
 2041              		.loc 3 153 5
 2042 0ac8 130104F8 		addi	sp,s0,-128
 2043              		.cfi_remember_state
 2044              		.cfi_def_cfa 2, 128
 2045 0acc 83308107 		ld	ra,120(sp)
 2046              		.cfi_restore 1
 2047 0ad0 03340107 		ld	s0,112(sp)
 2048              		.cfi_restore 8
 2049 0ad4 83348106 		ld	s1,104(sp)
 2050              		.cfi_restore 9
 2051 0ad8 03390106 		ld	s2,96(sp)
 2052              		.cfi_restore 18
 2053              	.LVL237:
 2054 0adc 83398105 		ld	s3,88(sp)
 2055              		.cfi_restore 19
 2056 0ae0 033A0105 		ld	s4,80(sp)
 2057              		.cfi_restore 20
 2058 0ae4 833A8104 		ld	s5,72(sp)
 2059              		.cfi_restore 21
 2060 0ae8 033B0104 		ld	s6,64(sp)
 2061              		.cfi_restore 22
 2062 0aec 833B8103 		ld	s7,56(sp)
 2063              		.cfi_restore 23
 2064 0af0 033C0103 		ld	s8,48(sp)
 2065              		.cfi_restore 24
 2066 0af4 833C8102 		ld	s9,40(sp)
 2067              		.cfi_restore 25
 2068 0af8 13010108 		addi	sp,sp,128
 2069              		.cfi_def_cfa_offset 0
 2070 0afc 67800000 		jr	ra
 2071              	.LVL238:
 2072              	.L110:
 2073              		.cfi_restore_state
 2074 0b00 93040500 		mv	s1,a0
 2075              	.LVL239:
 113:tests/ConsumerProducer_CPP_API_test.hpp **** 
 2076              		.loc 3 113 44
 2077 0b04 13850A00 		mv	a0,s5
 2078 0b08 97000000 		call	_ZdlPv@plt
 2078      E7800000 
 2079              	.LVL240:
 2080 0b10 13850400 		mv	a0,s1
 2081              	.LEHB11:
 2082 0b14 97000000 		call	_Unwind_Resume@plt
GAS LISTING /tmp/ccYWmO80.s 			page 51


 2082      E7800000 
 2083              	.LVL241:
 2084              	.LEHE11:
 2085              	.L111:
 2086 0b1c 13090500 		mv	s2,a0
 2087              	.LVL242:
 115:tests/ConsumerProducer_CPP_API_test.hpp ****         Thread *producers[threadNum];
 2088              		.loc 3 115 37
 2089 0b20 13850400 		mv	a0,s1
 2090 0b24 97000000 		call	_ZdlPv@plt
 2090      E7800000 
 2091              	.LVL243:
 2092 0b2c 13050900 		mv	a0,s2
 2093              	.LEHB12:
 2094 0b30 97000000 		call	_Unwind_Resume@plt
 2094      E7800000 
 2095              	.LVL244:
 2096              	.LEHE12:
 2097              	.L112:
 2098 0b38 93040500 		mv	s1,a0
 2099              	.LVL245:
 122:tests/ConsumerProducer_CPP_API_test.hpp ****         consumer->start();
 2100              		.loc 3 122 63
 2101 0b3c 13050B00 		mv	a0,s6
 2102 0b40 97000000 		call	_ZdlPv@plt
 2102      E7800000 
 2103              	.LVL246:
 2104 0b48 13850400 		mv	a0,s1
 2105              	.LEHB13:
 2106 0b4c 97000000 		call	_Unwind_Resume@plt
 2106      E7800000 
 2107              	.LVL247:
 2108              	.LEHE13:
 2109              	.L113:
 2110 0b54 13090500 		mv	s2,a0
 2111              	.LVL248:
 128:tests/ConsumerProducer_CPP_API_test.hpp ****         producers[0]->start();
 2112              		.loc 3 128 59
 2113 0b58 13850400 		mv	a0,s1
 2114 0b5c 97000000 		call	_ZdlPv@plt
 2114      E7800000 
 2115              	.LVL249:
 2116 0b64 13050900 		mv	a0,s2
 2117              	.LEHB14:
 2118 0b68 97000000 		call	_Unwind_Resume@plt
 2118      E7800000 
 2119              	.LVL250:
 2120              	.LEHE14:
 2121              	.L114:
 2122 0b70 93040500 		mv	s1,a0
 2123              	.LVL251:
 2124              	.LBB65:
 136:tests/ConsumerProducer_CPP_API_test.hpp ****             producers[i]->start();
 2125              		.loc 3 136 55
 2126 0b74 13050C00 		mv	a0,s8
 2127 0b78 97000000 		call	_ZdlPv@plt
 2127      E7800000 
GAS LISTING /tmp/ccYWmO80.s 			page 52


 2128              	.LVL252:
 2129 0b80 13850400 		mv	a0,s1
 2130              	.LEHB15:
 2131 0b84 97000000 		call	_Unwind_Resume@plt
 2131      E7800000 
 2132              	.LVL253:
 2133              	.LEHE15:
 2134              	.LBE65:
 2135              		.cfi_endproc
 2136              	.LFE34:
 2137              		.globl	__gxx_personality_v0
 2138              		.section	.gcc_except_table,"a",@progbits
 2139              	.LLSDA34:
 2140 0000 FF       		.byte	0xff
 2141 0001 FF       		.byte	0xff
 2142 0002 03       		.byte	0x3
 2143 0003 D001     		.byte	0xd0,0x1
 2144 0005 00000000 		.4byte	.LEHB0-.LFB34
 2145 0009 00000000 		.4byte	.LEHE0-.LEHB0
 2146 000d 00000000 		.4byte	0
 2147 0011 00       		.byte	0
 2148 0012 00000000 		.4byte	.LEHB1-.LFB34
 2149 0016 00000000 		.4byte	.LEHE1-.LEHB1
 2150 001a 00000000 		.4byte	.L110-.LFB34
 2151 001e 00       		.byte	0
 2152 001f 00000000 		.4byte	.LEHB2-.LFB34
 2153 0023 00000000 		.4byte	.LEHE2-.LEHB2
 2154 0027 00000000 		.4byte	0
 2155 002b 00       		.byte	0
 2156 002c 00000000 		.4byte	.LEHB3-.LFB34
 2157 0030 00000000 		.4byte	.LEHE3-.LEHB3
 2158 0034 00000000 		.4byte	.L111-.LFB34
 2159 0038 00       		.byte	0
 2160 0039 00000000 		.4byte	.LEHB4-.LFB34
 2161 003d 00000000 		.4byte	.LEHE4-.LEHB4
 2162 0041 00000000 		.4byte	0
 2163 0045 00       		.byte	0
 2164 0046 00000000 		.4byte	.LEHB5-.LFB34
 2165 004a 00000000 		.4byte	.LEHE5-.LEHB5
 2166 004e 00000000 		.4byte	.L112-.LFB34
 2167 0052 00       		.byte	0
 2168 0053 00000000 		.4byte	.LEHB6-.LFB34
 2169 0057 00000000 		.4byte	.LEHE6-.LEHB6
 2170 005b 00000000 		.4byte	0
 2171 005f 00       		.byte	0
 2172 0060 00000000 		.4byte	.LEHB7-.LFB34
 2173 0064 00000000 		.4byte	.LEHE7-.LEHB7
 2174 0068 00000000 		.4byte	.L113-.LFB34
 2175 006c 00       		.byte	0
 2176 006d 00000000 		.4byte	.LEHB8-.LFB34
 2177 0071 00000000 		.4byte	.LEHE8-.LEHB8
 2178 0075 00000000 		.4byte	0
 2179 0079 00       		.byte	0
 2180 007a 00000000 		.4byte	.LEHB9-.LFB34
 2181 007e 00000000 		.4byte	.LEHE9-.LEHB9
 2182 0082 00000000 		.4byte	.L114-.LFB34
 2183 0086 00       		.byte	0
GAS LISTING /tmp/ccYWmO80.s 			page 53


 2184 0087 00000000 		.4byte	.LEHB10-.LFB34
 2185 008b 00000000 		.4byte	.LEHE10-.LEHB10
 2186 008f 00000000 		.4byte	0
 2187 0093 00       		.byte	0
 2188 0094 00000000 		.4byte	.LEHB11-.LFB34
 2189 0098 00000000 		.4byte	.LEHE11-.LEHB11
 2190 009c 00000000 		.4byte	0
 2191 00a0 00       		.byte	0
 2192 00a1 00000000 		.4byte	.LEHB12-.LFB34
 2193 00a5 00000000 		.4byte	.LEHE12-.LEHB12
 2194 00a9 00000000 		.4byte	0
 2195 00ad 00       		.byte	0
 2196 00ae 00000000 		.4byte	.LEHB13-.LFB34
 2197 00b2 00000000 		.4byte	.LEHE13-.LEHB13
 2198 00b6 00000000 		.4byte	0
 2199 00ba 00       		.byte	0
 2200 00bb 00000000 		.4byte	.LEHB14-.LFB34
 2201 00bf 00000000 		.4byte	.LEHE14-.LEHB14
 2202 00c3 00000000 		.4byte	0
 2203 00c7 00       		.byte	0
 2204 00c8 00000000 		.4byte	.LEHB15-.LFB34
 2205 00cc 00000000 		.4byte	.LEHE15-.LEHB15
 2206 00d0 00000000 		.4byte	0
 2207 00d4 00       		.byte	0
 2208              		.text
 2210              		.align	2
 2211              		.globl	_Z8userMainv
 2213              	_Z8userMainv:
 2214              	.LFB35:
 2215              		.file 4 "tests/userMain.cpp"
   1:tests/userMain.cpp **** #include "Threads_C_API_test.hpp" // zadatak 2, niti C API i sinhrona promena konteksta
   2:tests/userMain.cpp **** //#include "Threads_CPP_API_test.hpp" // zadatak 2., niti CPP API i sinhrona promena konteksta
   3:tests/userMain.cpp **** //
   4:tests/userMain.cpp **** //#include "ConsumerProducer_C_API_test.h" // zadatak 3., kompletan C API sa semaforima, sinhrona p
   5:tests/userMain.cpp **** //#include "ConsumerProducer_CPP_Sync_API_test.hpp" // zadatak 3., kompletan CPP API sa semaforima,
   6:tests/userMain.cpp **** 
   7:tests/userMain.cpp **** #include "ThreadSleep_C_API_test.hpp" // thread_sleep test C API
   8:tests/userMain.cpp **** #include "ConsumerProducer_CPP_API_test.hpp" // zadatak 4. CPP API i asinhrona promena konteksta
   9:tests/userMain.cpp **** 
  10:tests/userMain.cpp **** 
  11:tests/userMain.cpp **** void userMain() {
 2216              		.loc 4 11 17 is_stmt 1
 2217              		.cfi_startproc
 2218 0b8c 130101FF 		addi	sp,sp,-16
 2219              		.cfi_def_cfa_offset 16
 2220 0b90 23341100 		sd	ra,8(sp)
 2221 0b94 23308100 		sd	s0,0(sp)
 2222              		.cfi_offset 1, -8
 2223              		.cfi_offset 8, -16
 2224 0b98 13040101 		addi	s0,sp,16
 2225              		.cfi_def_cfa 8, 0
  12:tests/userMain.cpp ****     Threads_C_API_test(); // zadatak 2., niti C API i sinhrona promena konteksta
 2226              		.loc 4 12 5
 2227              		.loc 4 12 23 is_stmt 0
 2228 0b9c 97000000 		call	_Z18Threads_C_API_testv
 2228      E7800000 
 2229              	.LVL254:
GAS LISTING /tmp/ccYWmO80.s 			page 54


  13:tests/userMain.cpp **** //    Threads_CPP_API_test(); // zadatak 2., niti CPP API i sinhrona promena konteksta
  14:tests/userMain.cpp **** 
  15:tests/userMain.cpp **** //    producerConsumer_C_API(); // zadatak 3., kompletan C API sa semaforima, sinhrona promena kont
  16:tests/userMain.cpp **** //    producerConsumer_CPP_Sync_API(); // zadatak 3., kompletan CPP API sa semaforima, sinhrona pro
  17:tests/userMain.cpp **** 
  18:tests/userMain.cpp **** //    testSleeping(); // thread_sleep test C API
  19:tests/userMain.cpp **** //    ConsumerProducerCPP::testConsumerProducer(); // zadatak 4. CPP API i asinhrona promena kontek
  20:tests/userMain.cpp **** 
  21:tests/userMain.cpp **** }...
 2230              		.loc 4 21 1
 2231 0ba4 83308100 		ld	ra,8(sp)
 2232              		.cfi_restore 1
 2233 0ba8 03340100 		ld	s0,0(sp)
 2234              		.cfi_restore 8
 2235              		.cfi_def_cfa 2, 16
 2236 0bac 13010101 		addi	sp,sp,16
 2237              		.cfi_def_cfa_offset 0
 2238 0bb0 67800000 		jr	ra
 2239              		.cfi_endproc
 2240              	.LFE35:
 2242              		.weak	_ZTVN19ConsumerProducerCPP16ProducerKeyboradE
 2243              		.section	.data.rel.ro.local._ZTVN19ConsumerProducerCPP16ProducerKeyboradE,"awG",@progbits,_ZTVN19C
 2244              		.align	3
 2247              	_ZTVN19ConsumerProducerCPP16ProducerKeyboradE:
 2248 0000 00000000 		.dword	0
 2248      00000000 
 2249 0008 00000000 		.dword	0
 2249      00000000 
 2250 0010 00000000 		.dword	_ZN19ConsumerProducerCPP16ProducerKeyboradD1Ev
 2250      00000000 
 2251 0018 00000000 		.dword	_ZN19ConsumerProducerCPP16ProducerKeyboradD0Ev
 2251      00000000 
 2252 0020 00000000 		.dword	_ZN19ConsumerProducerCPP16ProducerKeyborad3runEv
 2252      00000000 
 2253              		.weak	_ZTVN19ConsumerProducerCPP8ProducerE
 2254              		.section	.data.rel.ro.local._ZTVN19ConsumerProducerCPP8ProducerE,"awG",@progbits,_ZTVN19ConsumerPr
 2255              		.align	3
 2258              	_ZTVN19ConsumerProducerCPP8ProducerE:
 2259 0000 00000000 		.dword	0
 2259      00000000 
 2260 0008 00000000 		.dword	0
 2260      00000000 
 2261 0010 00000000 		.dword	_ZN19ConsumerProducerCPP8ProducerD1Ev
 2261      00000000 
 2262 0018 00000000 		.dword	_ZN19ConsumerProducerCPP8ProducerD0Ev
 2262      00000000 
 2263 0020 00000000 		.dword	_ZN19ConsumerProducerCPP8Producer3runEv
 2263      00000000 
 2264              		.weak	_ZTVN19ConsumerProducerCPP8ConsumerE
 2265              		.section	.data.rel.ro.local._ZTVN19ConsumerProducerCPP8ConsumerE,"awG",@progbits,_ZTVN19ConsumerPr
 2266              		.align	3
 2269              	_ZTVN19ConsumerProducerCPP8ConsumerE:
 2270 0000 00000000 		.dword	0
 2270      00000000 
 2271 0008 00000000 		.dword	0
 2271      00000000 
 2272 0010 00000000 		.dword	_ZN19ConsumerProducerCPP8ConsumerD1Ev
GAS LISTING /tmp/ccYWmO80.s 			page 55


 2272      00000000 
 2273 0018 00000000 		.dword	_ZN19ConsumerProducerCPP8ConsumerD0Ev
 2273      00000000 
 2274 0020 00000000 		.dword	_ZN19ConsumerProducerCPP8Consumer3runEv
 2274      00000000 
 2275              		.globl	_ZN19ConsumerProducerCPP9threadEndE
 2276              		.globl	_ZN19ConsumerProducerCPP10waitForAllE
 2277              		.globl	finished
 2278              		.globl	finishedD
 2279              		.globl	finishedC
 2280              		.globl	finishedB
 2281              		.globl	finishedA
 2282              		.bss
 2283              		.align	3
 2284              		.set	.LANCHOR0,. + 0
 2287              	finishedA:
 2288 0000 00       		.zero	1
 2291              	finishedB:
 2292 0001 00       		.zero	1
 2293 0002 00000000 		.zero	6
 2293      0000
 2296              	finished:
 2297 0008 0000     		.zero	2
 2298 000a 0000     		.zero	2
 2301              	_ZN19ConsumerProducerCPP9threadEndE:
 2302 000c 00000000 		.zero	4
 2305              	finishedC:
 2306 0010 00       		.zero	1
 2309              	finishedD:
 2310 0011 00       		.zero	1
 2311 0012 00000000 		.zero	6
 2311      0000
 2314              	_ZN19ConsumerProducerCPP10waitForAllE:
 2315 0018 00000000 		.zero	8
 2315      00000000 
 2316              		.text
 2317              	.Letext0:
 2318              		.file 5 "tests/../h/../lib/hw.h"
 2319              		.file 6 "tests/../h/../h/_thread.hpp"
 2320              		.file 7 "tests/../h/syscall_cpp.hpp"
 2321              		.file 8 "tests/buffer_CPP_API.hpp"
 2322              		.file 9 "tests/../h/printing.hpp"
 2323              		.file 10 "tests/../h/syscall_c.h"
 7806              		.align	3
 7809              	DW.ref.__gxx_personality_v0:
 7810 0000 00000000 		.dword	__gxx_personality_v0
 7810      00000000 
 7811              		.ident	"GCC: (Ubuntu 9.4.0-1ubuntu1~20.04) 9.4.0"
 7812              		.section	.note.GNU-stack,"",@progbits
GAS LISTING /tmp/ccYWmO80.s 			page 56


DEFINED SYMBOLS
                            *ABS*:0000000000000000 userMain.cpp
     /tmp/ccYWmO80.s:20     .text:0000000000000000 _Z11workerBodyAPv
     /tmp/ccYWmO80.s:24     .text:0000000000000000 .L0 
     /tmp/ccYWmO80.s:26     .text:0000000000000000 .L0 
     /tmp/ccYWmO80.s:27     .text:0000000000000004 .L0 
     /tmp/ccYWmO80.s:32     .text:0000000000000014 .L0 
     /tmp/ccYWmO80.s:33     .text:0000000000000014 .L0 
     /tmp/ccYWmO80.s:34     .text:0000000000000014 .L0 
     /tmp/ccYWmO80.s:35     .text:0000000000000014 .L0 
     /tmp/ccYWmO80.s:37     .text:0000000000000018 .L0 
     /tmp/ccYWmO80.s:41     .text:0000000000000018 .L0 
     /tmp/ccYWmO80.s:42     .text:0000000000000018 .L0 
     /tmp/ccYWmO80.s:50     .text:0000000000000020 .L0 
     /tmp/ccYWmO80.s:51     .text:0000000000000020 .L0 
     /tmp/ccYWmO80.s:55     .text:0000000000000028 .L0 
     /tmp/ccYWmO80.s:59     .text:000000000000002c .L0 
     /tmp/ccYWmO80.s:65     .text:0000000000000038 .L0 
     /tmp/ccYWmO80.s:69     .text:000000000000003c .L0 
     /tmp/ccYWmO80.s:73     .text:0000000000000048 .L0 
     /tmp/ccYWmO80.s:83     .text:0000000000000050 .L0 
     /tmp/ccYWmO80.s:87     .text:0000000000000054 .L0 
     /tmp/ccYWmO80.s:91     .text:000000000000005c .L0 
     /tmp/ccYWmO80.s:92     .text:000000000000005c .L0 
     /tmp/ccYWmO80.s:96     .text:000000000000006c .L0 
     /tmp/ccYWmO80.s:97     .text:000000000000006c .L0 
     /tmp/ccYWmO80.s:103    .text:0000000000000080 .L0 
     /tmp/ccYWmO80.s:104    .text:0000000000000080 .L0 
     /tmp/ccYWmO80.s:109    .text:0000000000000090 .L0 
     /tmp/ccYWmO80.s:110    .text:0000000000000090 .L0 
     /tmp/ccYWmO80.s:118    .text:0000000000000098 .L0 
     /tmp/ccYWmO80.s:119    .text:0000000000000098 .L0 
     /tmp/ccYWmO80.s:123    .text:00000000000000a8 .L0 
     /tmp/ccYWmO80.s:124    .text:00000000000000a8 .L0 
     /tmp/ccYWmO80.s:127    .text:00000000000000b4 .L0 
     /tmp/ccYWmO80.s:128    .text:00000000000000b8 .L0 
     /tmp/ccYWmO80.s:130    .text:00000000000000bc .L0 
     /tmp/ccYWmO80.s:131    .text:00000000000000bc .L0 
     /tmp/ccYWmO80.s:133    .text:00000000000000c0 .L0 
     /tmp/ccYWmO80.s:135    .text:00000000000000c4 .L0 
     /tmp/ccYWmO80.s:138    .text:00000000000000c8 .L0 
     /tmp/ccYWmO80.s:140    .text:00000000000000cc .L0 
     /tmp/ccYWmO80.s:154    .text:00000000000000cc _Z11workerBodyBPv
     /tmp/ccYWmO80.s:157    .text:00000000000000cc .L0 
     /tmp/ccYWmO80.s:159    .text:00000000000000cc .L0 
     /tmp/ccYWmO80.s:160    .text:00000000000000d0 .L0 
     /tmp/ccYWmO80.s:165    .text:00000000000000e0 .L0 
     /tmp/ccYWmO80.s:166    .text:00000000000000e0 .L0 
     /tmp/ccYWmO80.s:167    .text:00000000000000e0 .L0 
     /tmp/ccYWmO80.s:168    .text:00000000000000e0 .L0 
     /tmp/ccYWmO80.s:170    .text:00000000000000e4 .L0 
     /tmp/ccYWmO80.s:174    .text:00000000000000e4 .L0 
     /tmp/ccYWmO80.s:175    .text:00000000000000e4 .L0 
     /tmp/ccYWmO80.s:183    .text:00000000000000ec .L0 
     /tmp/ccYWmO80.s:184    .text:00000000000000ec .L0 
     /tmp/ccYWmO80.s:188    .text:00000000000000f4 .L0 
     /tmp/ccYWmO80.s:192    .text:00000000000000f8 .L0 
GAS LISTING /tmp/ccYWmO80.s 			page 57


     /tmp/ccYWmO80.s:198    .text:0000000000000104 .L0 
     /tmp/ccYWmO80.s:202    .text:0000000000000108 .L0 
     /tmp/ccYWmO80.s:206    .text:0000000000000114 .L0 
     /tmp/ccYWmO80.s:216    .text:000000000000011c .L0 
     /tmp/ccYWmO80.s:220    .text:0000000000000120 .L0 
     /tmp/ccYWmO80.s:224    .text:0000000000000128 .L0 
     /tmp/ccYWmO80.s:225    .text:0000000000000128 .L0 
     /tmp/ccYWmO80.s:229    .text:0000000000000138 .L0 
     /tmp/ccYWmO80.s:230    .text:0000000000000138 .L0 
     /tmp/ccYWmO80.s:236    .text:000000000000014c .L0 
     /tmp/ccYWmO80.s:237    .text:000000000000014c .L0 
     /tmp/ccYWmO80.s:242    .text:000000000000015c .L0 
     /tmp/ccYWmO80.s:243    .text:000000000000015c .L0 
     /tmp/ccYWmO80.s:251    .text:0000000000000164 .L0 
     /tmp/ccYWmO80.s:252    .text:0000000000000164 .L0 
     /tmp/ccYWmO80.s:256    .text:0000000000000174 .L0 
     /tmp/ccYWmO80.s:257    .text:0000000000000174 .L0 
     /tmp/ccYWmO80.s:260    .text:0000000000000180 .L0 
     /tmp/ccYWmO80.s:261    .text:0000000000000180 .L0 
     /tmp/ccYWmO80.s:264    .text:0000000000000188 .L0 
     /tmp/ccYWmO80.s:265    .text:000000000000018c .L0 
     /tmp/ccYWmO80.s:267    .text:0000000000000190 .L0 
     /tmp/ccYWmO80.s:268    .text:0000000000000190 .L0 
     /tmp/ccYWmO80.s:270    .text:0000000000000194 .L0 
     /tmp/ccYWmO80.s:272    .text:0000000000000198 .L0 
     /tmp/ccYWmO80.s:275    .text:000000000000019c .L0 
     /tmp/ccYWmO80.s:277    .text:00000000000001a0 .L0 
     /tmp/ccYWmO80.s:291    .text:00000000000001a0 _Z9sleepyRunPv
     /tmp/ccYWmO80.s:295    .text:00000000000001a0 .L0 
     /tmp/ccYWmO80.s:297    .text:00000000000001a0 .L0 
     /tmp/ccYWmO80.s:298    .text:00000000000001a4 .L0 
     /tmp/ccYWmO80.s:303    .text:00000000000001b4 .L0 
     /tmp/ccYWmO80.s:304    .text:00000000000001b4 .L0 
     /tmp/ccYWmO80.s:305    .text:00000000000001b4 .L0 
     /tmp/ccYWmO80.s:306    .text:00000000000001b4 .L0 
     /tmp/ccYWmO80.s:308    .text:00000000000001b8 .L0 
     /tmp/ccYWmO80.s:310    .text:00000000000001b8 .L0 
     /tmp/ccYWmO80.s:311    .text:00000000000001b8 .L0 
     /tmp/ccYWmO80.s:314    .text:00000000000001bc .L0 
     /tmp/ccYWmO80.s:315    .text:00000000000001bc .L0 
     /tmp/ccYWmO80.s:319    .text:00000000000001c0 .L0 
     /tmp/ccYWmO80.s:320    .text:00000000000001c0 .L0 
     /tmp/ccYWmO80.s:324    .text:00000000000001c8 .L0 
     /tmp/ccYWmO80.s:325    .text:00000000000001c8 .L0 
     /tmp/ccYWmO80.s:329    .text:00000000000001d8 .L0 
     /tmp/ccYWmO80.s:330    .text:00000000000001d8 .L0 
     /tmp/ccYWmO80.s:336    .text:00000000000001ec .L0 
     /tmp/ccYWmO80.s:337    .text:00000000000001ec .L0 
     /tmp/ccYWmO80.s:341    .text:00000000000001fc .L0 
     /tmp/ccYWmO80.s:342    .text:00000000000001fc .L0 
     /tmp/ccYWmO80.s:346    .text:0000000000000208 .L0 
     /tmp/ccYWmO80.s:349    .text:000000000000020c .L0 
     /tmp/ccYWmO80.s:350    .text:000000000000020c .L0 
     /tmp/ccYWmO80.s:354    .text:0000000000000214 .L0 
     /tmp/ccYWmO80.s:356    .text:0000000000000218 .L0 
     /tmp/ccYWmO80.s:361    .text:000000000000022c .L0 
     /tmp/ccYWmO80.s:362    .text:0000000000000230 .L0 
GAS LISTING /tmp/ccYWmO80.s 			page 58


     /tmp/ccYWmO80.s:364    .text:0000000000000234 .L0 
     /tmp/ccYWmO80.s:365    .text:0000000000000234 .L0 
     /tmp/ccYWmO80.s:367    .text:0000000000000238 .L0 
     /tmp/ccYWmO80.s:369    .text:000000000000023c .L0 
     /tmp/ccYWmO80.s:371    .text:0000000000000240 .L0 
     /tmp/ccYWmO80.s:373    .text:0000000000000244 .L0 
     /tmp/ccYWmO80.s:380    .text._ZN19ConsumerProducerCPP8Consumer3runEv:0000000000000000 _ZN19ConsumerProducerCPP8Consumer3runEv
     /tmp/ccYWmO80.s:384    .text._ZN19ConsumerProducerCPP8Consumer3runEv:0000000000000000 .L0 
     /tmp/ccYWmO80.s:386    .text._ZN19ConsumerProducerCPP8Consumer3runEv:0000000000000000 .L0 
     /tmp/ccYWmO80.s:387    .text._ZN19ConsumerProducerCPP8Consumer3runEv:0000000000000004 .L0 
     /tmp/ccYWmO80.s:393    .text._ZN19ConsumerProducerCPP8Consumer3runEv:0000000000000018 .L0 
     /tmp/ccYWmO80.s:394    .text._ZN19ConsumerProducerCPP8Consumer3runEv:0000000000000018 .L0 
     /tmp/ccYWmO80.s:395    .text._ZN19ConsumerProducerCPP8Consumer3runEv:0000000000000018 .L0 
     /tmp/ccYWmO80.s:396    .text._ZN19ConsumerProducerCPP8Consumer3runEv:0000000000000018 .L0 
     /tmp/ccYWmO80.s:397    .text._ZN19ConsumerProducerCPP8Consumer3runEv:0000000000000018 .L0 
     /tmp/ccYWmO80.s:399    .text._ZN19ConsumerProducerCPP8Consumer3runEv:000000000000001c .L0 
     /tmp/ccYWmO80.s:403    .text._ZN19ConsumerProducerCPP8Consumer3runEv:0000000000000020 .L0 
     /tmp/ccYWmO80.s:404    .text._ZN19ConsumerProducerCPP8Consumer3runEv:0000000000000020 .L0 
     /tmp/ccYWmO80.s:410    .text._ZN19ConsumerProducerCPP8Consumer3runEv:0000000000000028 .L0 
     /tmp/ccYWmO80.s:411    .text._ZN19ConsumerProducerCPP8Consumer3runEv:0000000000000028 .L0 
     /tmp/ccYWmO80.s:417    .text._ZN19ConsumerProducerCPP8Consumer3runEv:0000000000000034 .L0 
     /tmp/ccYWmO80.s:418    .text._ZN19ConsumerProducerCPP8Consumer3runEv:0000000000000034 .L0 
     /tmp/ccYWmO80.s:422    .text._ZN19ConsumerProducerCPP8Consumer3runEv:0000000000000040 .L0 
     /tmp/ccYWmO80.s:423    .text._ZN19ConsumerProducerCPP8Consumer3runEv:0000000000000040 .L0 
     /tmp/ccYWmO80.s:425    .text._ZN19ConsumerProducerCPP8Consumer3runEv:0000000000000044 .L0 
     /tmp/ccYWmO80.s:429    .text._ZN19ConsumerProducerCPP8Consumer3runEv:0000000000000050 .L0 
     /tmp/ccYWmO80.s:430    .text._ZN19ConsumerProducerCPP8Consumer3runEv:0000000000000050 .L0 
     /tmp/ccYWmO80.s:434    .text._ZN19ConsumerProducerCPP8Consumer3runEv:0000000000000058 .L0 
     /tmp/ccYWmO80.s:435    .text._ZN19ConsumerProducerCPP8Consumer3runEv:0000000000000058 .L0 
     /tmp/ccYWmO80.s:440    .text._ZN19ConsumerProducerCPP8Consumer3runEv:0000000000000064 .L0 
     /tmp/ccYWmO80.s:441    .text._ZN19ConsumerProducerCPP8Consumer3runEv:0000000000000064 .L0 
     /tmp/ccYWmO80.s:445    .text._ZN19ConsumerProducerCPP8Consumer3runEv:000000000000006c .L0 
     /tmp/ccYWmO80.s:451    .text._ZN19ConsumerProducerCPP8Consumer3runEv:0000000000000074 .L0 
     /tmp/ccYWmO80.s:452    .text._ZN19ConsumerProducerCPP8Consumer3runEv:0000000000000074 .L0 
     /tmp/ccYWmO80.s:454    .text._ZN19ConsumerProducerCPP8Consumer3runEv:0000000000000078 .L0 
     /tmp/ccYWmO80.s:458    .text._ZN19ConsumerProducerCPP8Consumer3runEv:0000000000000084 .L0 
     /tmp/ccYWmO80.s:459    .text._ZN19ConsumerProducerCPP8Consumer3runEv:0000000000000084 .L0 
     /tmp/ccYWmO80.s:466    .text._ZN19ConsumerProducerCPP8Consumer3runEv:0000000000000090 .L0 
     /tmp/ccYWmO80.s:467    .text._ZN19ConsumerProducerCPP8Consumer3runEv:0000000000000090 .L0 
     /tmp/ccYWmO80.s:468    .text._ZN19ConsumerProducerCPP8Consumer3runEv:0000000000000090 .L0 
     /tmp/ccYWmO80.s:470    .text._ZN19ConsumerProducerCPP8Consumer3runEv:0000000000000094 .L0 
     /tmp/ccYWmO80.s:474    .text._ZN19ConsumerProducerCPP8Consumer3runEv:00000000000000a0 .L0 
     /tmp/ccYWmO80.s:476    .text._ZN19ConsumerProducerCPP8Consumer3runEv:00000000000000a4 .L0 
     /tmp/ccYWmO80.s:478    .text._ZN19ConsumerProducerCPP8Consumer3runEv:00000000000000a8 .L0 
     /tmp/ccYWmO80.s:482    .text._ZN19ConsumerProducerCPP8Consumer3runEv:00000000000000b4 .L0 
     /tmp/ccYWmO80.s:483    .text._ZN19ConsumerProducerCPP8Consumer3runEv:00000000000000b8 .L0 
     /tmp/ccYWmO80.s:485    .text._ZN19ConsumerProducerCPP8Consumer3runEv:00000000000000bc .L0 
     /tmp/ccYWmO80.s:486    .text._ZN19ConsumerProducerCPP8Consumer3runEv:00000000000000bc .L0 
     /tmp/ccYWmO80.s:488    .text._ZN19ConsumerProducerCPP8Consumer3runEv:00000000000000c0 .L0 
     /tmp/ccYWmO80.s:490    .text._ZN19ConsumerProducerCPP8Consumer3runEv:00000000000000c4 .L0 
     /tmp/ccYWmO80.s:493    .text._ZN19ConsumerProducerCPP8Consumer3runEv:00000000000000c8 .L0 
     /tmp/ccYWmO80.s:496    .text._ZN19ConsumerProducerCPP8Consumer3runEv:00000000000000cc .L0 
     /tmp/ccYWmO80.s:498    .text._ZN19ConsumerProducerCPP8Consumer3runEv:00000000000000d0 .L0 
     /tmp/ccYWmO80.s:505    .text._ZN19ConsumerProducerCPP8ConsumerD2Ev:0000000000000000 _ZN19ConsumerProducerCPP8ConsumerD2Ev
     /tmp/ccYWmO80.s:508    .text._ZN19ConsumerProducerCPP8ConsumerD2Ev:0000000000000000 .L0 
     /tmp/ccYWmO80.s:510    .text._ZN19ConsumerProducerCPP8ConsumerD2Ev:0000000000000000 .L0 
     /tmp/ccYWmO80.s:511    .text._ZN19ConsumerProducerCPP8ConsumerD2Ev:0000000000000004 .L0 
GAS LISTING /tmp/ccYWmO80.s 			page 59


     /tmp/ccYWmO80.s:514    .text._ZN19ConsumerProducerCPP8ConsumerD2Ev:000000000000000c .L0 
     /tmp/ccYWmO80.s:515    .text._ZN19ConsumerProducerCPP8ConsumerD2Ev:000000000000000c .L0 
     /tmp/ccYWmO80.s:517    .text._ZN19ConsumerProducerCPP8ConsumerD2Ev:0000000000000010 .L0 
     /tmp/ccYWmO80.s:2269   .data.rel.ro.local._ZTVN19ConsumerProducerCPP8ConsumerE:0000000000000000 _ZTVN19ConsumerProducerCPP8ConsumerE
     /tmp/ccYWmO80.s:520    .text._ZN19ConsumerProducerCPP8ConsumerD2Ev:0000000000000010 .L0 
     /tmp/ccYWmO80.s:526    .text._ZN19ConsumerProducerCPP8ConsumerD2Ev:0000000000000028 .L0 
     /tmp/ccYWmO80.s:528    .text._ZN19ConsumerProducerCPP8ConsumerD2Ev:000000000000002c .L0 
     /tmp/ccYWmO80.s:529    .text._ZN19ConsumerProducerCPP8ConsumerD2Ev:000000000000002c .L0 
     /tmp/ccYWmO80.s:531    .text._ZN19ConsumerProducerCPP8ConsumerD2Ev:0000000000000030 .L0 
     /tmp/ccYWmO80.s:533    .text._ZN19ConsumerProducerCPP8ConsumerD2Ev:0000000000000034 .L0 
     /tmp/ccYWmO80.s:505    .text._ZN19ConsumerProducerCPP8ConsumerD2Ev:0000000000000000 _ZN19ConsumerProducerCPP8ConsumerD1Ev
     /tmp/ccYWmO80.s:542    .text._ZN19ConsumerProducerCPP8ConsumerD0Ev:0000000000000000 _ZN19ConsumerProducerCPP8ConsumerD0Ev
     /tmp/ccYWmO80.s:545    .text._ZN19ConsumerProducerCPP8ConsumerD0Ev:0000000000000000 .L0 
     /tmp/ccYWmO80.s:547    .text._ZN19ConsumerProducerCPP8ConsumerD0Ev:0000000000000000 .L0 
     /tmp/ccYWmO80.s:548    .text._ZN19ConsumerProducerCPP8ConsumerD0Ev:0000000000000004 .L0 
     /tmp/ccYWmO80.s:552    .text._ZN19ConsumerProducerCPP8ConsumerD0Ev:0000000000000010 .L0 
     /tmp/ccYWmO80.s:553    .text._ZN19ConsumerProducerCPP8ConsumerD0Ev:0000000000000010 .L0 
     /tmp/ccYWmO80.s:554    .text._ZN19ConsumerProducerCPP8ConsumerD0Ev:0000000000000010 .L0 
     /tmp/ccYWmO80.s:556    .text._ZN19ConsumerProducerCPP8ConsumerD0Ev:0000000000000014 .L0 
     /tmp/ccYWmO80.s:562    .text._ZN19ConsumerProducerCPP8ConsumerD0Ev:0000000000000018 .L0 
     /tmp/ccYWmO80.s:572    .text._ZN19ConsumerProducerCPP8ConsumerD0Ev:000000000000003c .L0 
     /tmp/ccYWmO80.s:574    .text._ZN19ConsumerProducerCPP8ConsumerD0Ev:0000000000000040 .L0 
     /tmp/ccYWmO80.s:575    .text._ZN19ConsumerProducerCPP8ConsumerD0Ev:0000000000000040 .L0 
     /tmp/ccYWmO80.s:577    .text._ZN19ConsumerProducerCPP8ConsumerD0Ev:0000000000000044 .L0 
     /tmp/ccYWmO80.s:580    .text._ZN19ConsumerProducerCPP8ConsumerD0Ev:0000000000000048 .L0 
     /tmp/ccYWmO80.s:582    .text._ZN19ConsumerProducerCPP8ConsumerD0Ev:000000000000004c .L0 
     /tmp/ccYWmO80.s:589    .text._ZN19ConsumerProducerCPP16ProducerKeyboradD2Ev:0000000000000000 _ZN19ConsumerProducerCPP16ProducerKeyboradD2Ev
     /tmp/ccYWmO80.s:592    .text._ZN19ConsumerProducerCPP16ProducerKeyboradD2Ev:0000000000000000 .L0 
     /tmp/ccYWmO80.s:594    .text._ZN19ConsumerProducerCPP16ProducerKeyboradD2Ev:0000000000000000 .L0 
     /tmp/ccYWmO80.s:595    .text._ZN19ConsumerProducerCPP16ProducerKeyboradD2Ev:0000000000000004 .L0 
     /tmp/ccYWmO80.s:598    .text._ZN19ConsumerProducerCPP16ProducerKeyboradD2Ev:000000000000000c .L0 
     /tmp/ccYWmO80.s:599    .text._ZN19ConsumerProducerCPP16ProducerKeyboradD2Ev:000000000000000c .L0 
     /tmp/ccYWmO80.s:601    .text._ZN19ConsumerProducerCPP16ProducerKeyboradD2Ev:0000000000000010 .L0 
     /tmp/ccYWmO80.s:2247   .data.rel.ro.local._ZTVN19ConsumerProducerCPP16ProducerKeyboradE:0000000000000000 _ZTVN19ConsumerProducerCPP16ProducerKeyboradE
     /tmp/ccYWmO80.s:604    .text._ZN19ConsumerProducerCPP16ProducerKeyboradD2Ev:0000000000000010 .L0 
     /tmp/ccYWmO80.s:610    .text._ZN19ConsumerProducerCPP16ProducerKeyboradD2Ev:0000000000000028 .L0 
     /tmp/ccYWmO80.s:612    .text._ZN19ConsumerProducerCPP16ProducerKeyboradD2Ev:000000000000002c .L0 
     /tmp/ccYWmO80.s:613    .text._ZN19ConsumerProducerCPP16ProducerKeyboradD2Ev:000000000000002c .L0 
     /tmp/ccYWmO80.s:615    .text._ZN19ConsumerProducerCPP16ProducerKeyboradD2Ev:0000000000000030 .L0 
     /tmp/ccYWmO80.s:617    .text._ZN19ConsumerProducerCPP16ProducerKeyboradD2Ev:0000000000000034 .L0 
     /tmp/ccYWmO80.s:589    .text._ZN19ConsumerProducerCPP16ProducerKeyboradD2Ev:0000000000000000 _ZN19ConsumerProducerCPP16ProducerKeyboradD1Ev
     /tmp/ccYWmO80.s:626    .text._ZN19ConsumerProducerCPP16ProducerKeyboradD0Ev:0000000000000000 _ZN19ConsumerProducerCPP16ProducerKeyboradD0Ev
     /tmp/ccYWmO80.s:629    .text._ZN19ConsumerProducerCPP16ProducerKeyboradD0Ev:0000000000000000 .L0 
     /tmp/ccYWmO80.s:631    .text._ZN19ConsumerProducerCPP16ProducerKeyboradD0Ev:0000000000000000 .L0 
     /tmp/ccYWmO80.s:632    .text._ZN19ConsumerProducerCPP16ProducerKeyboradD0Ev:0000000000000004 .L0 
     /tmp/ccYWmO80.s:636    .text._ZN19ConsumerProducerCPP16ProducerKeyboradD0Ev:0000000000000010 .L0 
     /tmp/ccYWmO80.s:637    .text._ZN19ConsumerProducerCPP16ProducerKeyboradD0Ev:0000000000000010 .L0 
     /tmp/ccYWmO80.s:638    .text._ZN19ConsumerProducerCPP16ProducerKeyboradD0Ev:0000000000000010 .L0 
     /tmp/ccYWmO80.s:640    .text._ZN19ConsumerProducerCPP16ProducerKeyboradD0Ev:0000000000000014 .L0 
     /tmp/ccYWmO80.s:646    .text._ZN19ConsumerProducerCPP16ProducerKeyboradD0Ev:0000000000000018 .L0 
     /tmp/ccYWmO80.s:656    .text._ZN19ConsumerProducerCPP16ProducerKeyboradD0Ev:000000000000003c .L0 
     /tmp/ccYWmO80.s:658    .text._ZN19ConsumerProducerCPP16ProducerKeyboradD0Ev:0000000000000040 .L0 
     /tmp/ccYWmO80.s:659    .text._ZN19ConsumerProducerCPP16ProducerKeyboradD0Ev:0000000000000040 .L0 
     /tmp/ccYWmO80.s:661    .text._ZN19ConsumerProducerCPP16ProducerKeyboradD0Ev:0000000000000044 .L0 
     /tmp/ccYWmO80.s:664    .text._ZN19ConsumerProducerCPP16ProducerKeyboradD0Ev:0000000000000048 .L0 
     /tmp/ccYWmO80.s:666    .text._ZN19ConsumerProducerCPP16ProducerKeyboradD0Ev:000000000000004c .L0 
     /tmp/ccYWmO80.s:673    .text._ZN19ConsumerProducerCPP8ProducerD2Ev:0000000000000000 _ZN19ConsumerProducerCPP8ProducerD2Ev
GAS LISTING /tmp/ccYWmO80.s 			page 60


     /tmp/ccYWmO80.s:676    .text._ZN19ConsumerProducerCPP8ProducerD2Ev:0000000000000000 .L0 
     /tmp/ccYWmO80.s:678    .text._ZN19ConsumerProducerCPP8ProducerD2Ev:0000000000000000 .L0 
     /tmp/ccYWmO80.s:679    .text._ZN19ConsumerProducerCPP8ProducerD2Ev:0000000000000004 .L0 
     /tmp/ccYWmO80.s:682    .text._ZN19ConsumerProducerCPP8ProducerD2Ev:000000000000000c .L0 
     /tmp/ccYWmO80.s:683    .text._ZN19ConsumerProducerCPP8ProducerD2Ev:000000000000000c .L0 
     /tmp/ccYWmO80.s:685    .text._ZN19ConsumerProducerCPP8ProducerD2Ev:0000000000000010 .L0 
     /tmp/ccYWmO80.s:2258   .data.rel.ro.local._ZTVN19ConsumerProducerCPP8ProducerE:0000000000000000 _ZTVN19ConsumerProducerCPP8ProducerE
     /tmp/ccYWmO80.s:688    .text._ZN19ConsumerProducerCPP8ProducerD2Ev:0000000000000010 .L0 
     /tmp/ccYWmO80.s:694    .text._ZN19ConsumerProducerCPP8ProducerD2Ev:0000000000000028 .L0 
     /tmp/ccYWmO80.s:696    .text._ZN19ConsumerProducerCPP8ProducerD2Ev:000000000000002c .L0 
     /tmp/ccYWmO80.s:697    .text._ZN19ConsumerProducerCPP8ProducerD2Ev:000000000000002c .L0 
     /tmp/ccYWmO80.s:699    .text._ZN19ConsumerProducerCPP8ProducerD2Ev:0000000000000030 .L0 
     /tmp/ccYWmO80.s:701    .text._ZN19ConsumerProducerCPP8ProducerD2Ev:0000000000000034 .L0 
     /tmp/ccYWmO80.s:673    .text._ZN19ConsumerProducerCPP8ProducerD2Ev:0000000000000000 _ZN19ConsumerProducerCPP8ProducerD1Ev
     /tmp/ccYWmO80.s:710    .text._ZN19ConsumerProducerCPP8ProducerD0Ev:0000000000000000 _ZN19ConsumerProducerCPP8ProducerD0Ev
     /tmp/ccYWmO80.s:713    .text._ZN19ConsumerProducerCPP8ProducerD0Ev:0000000000000000 .L0 
     /tmp/ccYWmO80.s:715    .text._ZN19ConsumerProducerCPP8ProducerD0Ev:0000000000000000 .L0 
     /tmp/ccYWmO80.s:716    .text._ZN19ConsumerProducerCPP8ProducerD0Ev:0000000000000004 .L0 
     /tmp/ccYWmO80.s:720    .text._ZN19ConsumerProducerCPP8ProducerD0Ev:0000000000000010 .L0 
     /tmp/ccYWmO80.s:721    .text._ZN19ConsumerProducerCPP8ProducerD0Ev:0000000000000010 .L0 
     /tmp/ccYWmO80.s:722    .text._ZN19ConsumerProducerCPP8ProducerD0Ev:0000000000000010 .L0 
     /tmp/ccYWmO80.s:724    .text._ZN19ConsumerProducerCPP8ProducerD0Ev:0000000000000014 .L0 
     /tmp/ccYWmO80.s:730    .text._ZN19ConsumerProducerCPP8ProducerD0Ev:0000000000000018 .L0 
     /tmp/ccYWmO80.s:740    .text._ZN19ConsumerProducerCPP8ProducerD0Ev:000000000000003c .L0 
     /tmp/ccYWmO80.s:742    .text._ZN19ConsumerProducerCPP8ProducerD0Ev:0000000000000040 .L0 
     /tmp/ccYWmO80.s:743    .text._ZN19ConsumerProducerCPP8ProducerD0Ev:0000000000000040 .L0 
     /tmp/ccYWmO80.s:745    .text._ZN19ConsumerProducerCPP8ProducerD0Ev:0000000000000044 .L0 
     /tmp/ccYWmO80.s:748    .text._ZN19ConsumerProducerCPP8ProducerD0Ev:0000000000000048 .L0 
     /tmp/ccYWmO80.s:750    .text._ZN19ConsumerProducerCPP8ProducerD0Ev:000000000000004c .L0 
     /tmp/ccYWmO80.s:757    .text._ZN19ConsumerProducerCPP16ProducerKeyborad3runEv:0000000000000000 _ZN19ConsumerProducerCPP16ProducerKeyborad3runEv
     /tmp/ccYWmO80.s:760    .text._ZN19ConsumerProducerCPP16ProducerKeyborad3runEv:0000000000000000 .L0 
     /tmp/ccYWmO80.s:762    .text._ZN19ConsumerProducerCPP16ProducerKeyborad3runEv:0000000000000000 .L0 
     /tmp/ccYWmO80.s:763    .text._ZN19ConsumerProducerCPP16ProducerKeyborad3runEv:0000000000000004 .L0 
     /tmp/ccYWmO80.s:767    .text._ZN19ConsumerProducerCPP16ProducerKeyborad3runEv:0000000000000010 .L0 
     /tmp/ccYWmO80.s:768    .text._ZN19ConsumerProducerCPP16ProducerKeyborad3runEv:0000000000000010 .L0 
     /tmp/ccYWmO80.s:769    .text._ZN19ConsumerProducerCPP16ProducerKeyborad3runEv:0000000000000010 .L0 
     /tmp/ccYWmO80.s:771    .text._ZN19ConsumerProducerCPP16ProducerKeyborad3runEv:0000000000000014 .L0 
     /tmp/ccYWmO80.s:774    .text._ZN19ConsumerProducerCPP16ProducerKeyborad3runEv:0000000000000018 .L0 
     /tmp/ccYWmO80.s:777    .text._ZN19ConsumerProducerCPP16ProducerKeyborad3runEv:0000000000000018 .L0 
     /tmp/ccYWmO80.s:778    .text._ZN19ConsumerProducerCPP16ProducerKeyborad3runEv:0000000000000018 .L0 
     /tmp/ccYWmO80.s:779    .text._ZN19ConsumerProducerCPP16ProducerKeyborad3runEv:0000000000000018 .L0 
     /tmp/ccYWmO80.s:780    .text._ZN19ConsumerProducerCPP16ProducerKeyborad3runEv:0000000000000018 .L0 
     /tmp/ccYWmO80.s:783    .text._ZN19ConsumerProducerCPP16ProducerKeyborad3runEv:0000000000000020 .L0 
     /tmp/ccYWmO80.s:786    .text._ZN19ConsumerProducerCPP16ProducerKeyborad3runEv:0000000000000024 .L0 
     /tmp/ccYWmO80.s:789    .text._ZN19ConsumerProducerCPP16ProducerKeyborad3runEv:000000000000002c .L0 
     /tmp/ccYWmO80.s:791    .text._ZN19ConsumerProducerCPP16ProducerKeyborad3runEv:0000000000000030 .L0 
     /tmp/ccYWmO80.s:795    .text._ZN19ConsumerProducerCPP16ProducerKeyborad3runEv:000000000000003c .L0 
     /tmp/ccYWmO80.s:796    .text._ZN19ConsumerProducerCPP16ProducerKeyborad3runEv:000000000000003c .L0 
     /tmp/ccYWmO80.s:800    .text._ZN19ConsumerProducerCPP16ProducerKeyborad3runEv:0000000000000040 .L0 
     /tmp/ccYWmO80.s:801    .text._ZN19ConsumerProducerCPP16ProducerKeyborad3runEv:0000000000000040 .L0 
     /tmp/ccYWmO80.s:804    .text._ZN19ConsumerProducerCPP16ProducerKeyborad3runEv:000000000000004c .L0 
     /tmp/ccYWmO80.s:806    .text._ZN19ConsumerProducerCPP16ProducerKeyborad3runEv:0000000000000050 .L0 
     /tmp/ccYWmO80.s:813    .text._ZN19ConsumerProducerCPP16ProducerKeyborad3runEv:0000000000000060 .L0 
     /tmp/ccYWmO80.s:815    .text._ZN19ConsumerProducerCPP16ProducerKeyborad3runEv:0000000000000064 .L0 
     /tmp/ccYWmO80.s:819    .text._ZN19ConsumerProducerCPP16ProducerKeyborad3runEv:0000000000000070 .L0 
     /tmp/ccYWmO80.s:820    .text._ZN19ConsumerProducerCPP16ProducerKeyborad3runEv:0000000000000074 .L0 
     /tmp/ccYWmO80.s:822    .text._ZN19ConsumerProducerCPP16ProducerKeyborad3runEv:0000000000000078 .L0 
GAS LISTING /tmp/ccYWmO80.s 			page 61


     /tmp/ccYWmO80.s:823    .text._ZN19ConsumerProducerCPP16ProducerKeyborad3runEv:0000000000000078 .L0 
     /tmp/ccYWmO80.s:825    .text._ZN19ConsumerProducerCPP16ProducerKeyborad3runEv:000000000000007c .L0 
     /tmp/ccYWmO80.s:828    .text._ZN19ConsumerProducerCPP16ProducerKeyborad3runEv:0000000000000080 .L0 
     /tmp/ccYWmO80.s:830    .text._ZN19ConsumerProducerCPP16ProducerKeyborad3runEv:0000000000000084 .L0 
     /tmp/ccYWmO80.s:837    .text._ZN19ConsumerProducerCPP8Producer3runEv:0000000000000000 _ZN19ConsumerProducerCPP8Producer3runEv
     /tmp/ccYWmO80.s:840    .text._ZN19ConsumerProducerCPP8Producer3runEv:0000000000000000 .L0 
     /tmp/ccYWmO80.s:842    .text._ZN19ConsumerProducerCPP8Producer3runEv:0000000000000000 .L0 
     /tmp/ccYWmO80.s:843    .text._ZN19ConsumerProducerCPP8Producer3runEv:0000000000000004 .L0 
     /tmp/ccYWmO80.s:848    .text._ZN19ConsumerProducerCPP8Producer3runEv:0000000000000014 .L0 
     /tmp/ccYWmO80.s:849    .text._ZN19ConsumerProducerCPP8Producer3runEv:0000000000000014 .L0 
     /tmp/ccYWmO80.s:850    .text._ZN19ConsumerProducerCPP8Producer3runEv:0000000000000014 .L0 
     /tmp/ccYWmO80.s:851    .text._ZN19ConsumerProducerCPP8Producer3runEv:0000000000000014 .L0 
     /tmp/ccYWmO80.s:853    .text._ZN19ConsumerProducerCPP8Producer3runEv:0000000000000018 .L0 
     /tmp/ccYWmO80.s:857    .text._ZN19ConsumerProducerCPP8Producer3runEv:000000000000001c .L0 
     /tmp/ccYWmO80.s:858    .text._ZN19ConsumerProducerCPP8Producer3runEv:000000000000001c .L0 
     /tmp/ccYWmO80.s:862    .text._ZN19ConsumerProducerCPP8Producer3runEv:0000000000000020 .L0 
     /tmp/ccYWmO80.s:863    .text._ZN19ConsumerProducerCPP8Producer3runEv:0000000000000020 .L0 
     /tmp/ccYWmO80.s:866    .text._ZN19ConsumerProducerCPP8Producer3runEv:000000000000002c .L0 
     /tmp/ccYWmO80.s:868    .text._ZN19ConsumerProducerCPP8Producer3runEv:0000000000000030 .L0 
     /tmp/ccYWmO80.s:870    .text._ZN19ConsumerProducerCPP8Producer3runEv:0000000000000034 .L0 
     /tmp/ccYWmO80.s:875    .text._ZN19ConsumerProducerCPP8Producer3runEv:0000000000000044 .L0 
     /tmp/ccYWmO80.s:876    .text._ZN19ConsumerProducerCPP8Producer3runEv:0000000000000044 .L0 
     /tmp/ccYWmO80.s:880    .text._ZN19ConsumerProducerCPP8Producer3runEv:000000000000004c .L0 
     /tmp/ccYWmO80.s:881    .text._ZN19ConsumerProducerCPP8Producer3runEv:000000000000004c .L0 
     /tmp/ccYWmO80.s:883    .text._ZN19ConsumerProducerCPP8Producer3runEv:0000000000000050 .L0 
     /tmp/ccYWmO80.s:885    .text._ZN19ConsumerProducerCPP8Producer3runEv:0000000000000054 .L0 
     /tmp/ccYWmO80.s:887    .text._ZN19ConsumerProducerCPP8Producer3runEv:0000000000000058 .L0 
     /tmp/ccYWmO80.s:892    .text._ZN19ConsumerProducerCPP8Producer3runEv:0000000000000068 .L0 
     /tmp/ccYWmO80.s:895    .text._ZN19ConsumerProducerCPP8Producer3runEv:000000000000006c .L0 
     /tmp/ccYWmO80.s:897    .text._ZN19ConsumerProducerCPP8Producer3runEv:0000000000000070 .L0 
     /tmp/ccYWmO80.s:901    .text._ZN19ConsumerProducerCPP8Producer3runEv:000000000000007c .L0 
     /tmp/ccYWmO80.s:902    .text._ZN19ConsumerProducerCPP8Producer3runEv:0000000000000080 .L0 
     /tmp/ccYWmO80.s:904    .text._ZN19ConsumerProducerCPP8Producer3runEv:0000000000000084 .L0 
     /tmp/ccYWmO80.s:905    .text._ZN19ConsumerProducerCPP8Producer3runEv:0000000000000084 .L0 
     /tmp/ccYWmO80.s:907    .text._ZN19ConsumerProducerCPP8Producer3runEv:0000000000000088 .L0 
     /tmp/ccYWmO80.s:910    .text._ZN19ConsumerProducerCPP8Producer3runEv:000000000000008c .L0 
     /tmp/ccYWmO80.s:913    .text._ZN19ConsumerProducerCPP8Producer3runEv:0000000000000090 .L0 
     /tmp/ccYWmO80.s:915    .text._ZN19ConsumerProducerCPP8Producer3runEv:0000000000000094 .L0 
     /tmp/ccYWmO80.s:922    .text:0000000000000244 _Z9fibonaccim
     /tmp/ccYWmO80.s:925    .text:0000000000000244 .L0 
     /tmp/ccYWmO80.s:927    .text:0000000000000244 .L0 
     /tmp/ccYWmO80.s:928    .text:0000000000000248 .L0 
     /tmp/ccYWmO80.s:933    .text:0000000000000258 .L0 
     /tmp/ccYWmO80.s:934    .text:0000000000000258 .L0 
     /tmp/ccYWmO80.s:935    .text:0000000000000258 .L0 
     /tmp/ccYWmO80.s:936    .text:0000000000000258 .L0 
     /tmp/ccYWmO80.s:938    .text:000000000000025c .L0 
     /tmp/ccYWmO80.s:941    .text:0000000000000260 .L0 
     /tmp/ccYWmO80.s:944    .text:0000000000000268 .L0 
     /tmp/ccYWmO80.s:945    .text:0000000000000268 .L0 
     /tmp/ccYWmO80.s:948    .text:0000000000000270 .L0 
     /tmp/ccYWmO80.s:952    .text:0000000000000274 .L0 
     /tmp/ccYWmO80.s:953    .text:0000000000000274 .L0 
     /tmp/ccYWmO80.s:958    .text:0000000000000284 .L0 
     /tmp/ccYWmO80.s:962    .text:0000000000000290 .L0 
     /tmp/ccYWmO80.s:965    .text:0000000000000294 .L0 
     /tmp/ccYWmO80.s:966    .text:0000000000000298 .L0 
GAS LISTING /tmp/ccYWmO80.s 			page 62


     /tmp/ccYWmO80.s:967    .text:0000000000000298 .L0 
     /tmp/ccYWmO80.s:969    .text:000000000000029c .L0 
     /tmp/ccYWmO80.s:970    .text:000000000000029c .L0 
     /tmp/ccYWmO80.s:972    .text:00000000000002a0 .L0 
     /tmp/ccYWmO80.s:975    .text:00000000000002a4 .L0 
     /tmp/ccYWmO80.s:977    .text:00000000000002a8 .L0 
     /tmp/ccYWmO80.s:981    .text:00000000000002ac .L0 
     /tmp/ccYWmO80.s:983    .text:00000000000002ac .L0 
     /tmp/ccYWmO80.s:984    .text:00000000000002ac .L0 
     /tmp/ccYWmO80.s:987    .text:00000000000002b8 .L0 
     /tmp/ccYWmO80.s:1007   .text:00000000000002b8 _Z11workerBodyCPv
     /tmp/ccYWmO80.s:1010   .text:00000000000002b8 .L0 
     /tmp/ccYWmO80.s:1012   .text:00000000000002b8 .L0 
     /tmp/ccYWmO80.s:1013   .text:00000000000002bc .L0 
     /tmp/ccYWmO80.s:1018   .text:00000000000002cc .L0 
     /tmp/ccYWmO80.s:1019   .text:00000000000002cc .L0 
     /tmp/ccYWmO80.s:1020   .text:00000000000002cc .L0 
     /tmp/ccYWmO80.s:1021   .text:00000000000002cc .L0 
     /tmp/ccYWmO80.s:1023   .text:00000000000002d0 .L0 
     /tmp/ccYWmO80.s:1026   .text:00000000000002d0 .L0 
     /tmp/ccYWmO80.s:1027   .text:00000000000002d0 .L0 
     /tmp/ccYWmO80.s:1032   .text:00000000000002d8 .L0 
     /tmp/ccYWmO80.s:1033   .text:00000000000002d8 .L0 
     /tmp/ccYWmO80.s:1037   .text:00000000000002e8 .L0 
     /tmp/ccYWmO80.s:1038   .text:00000000000002e8 .L0 
     /tmp/ccYWmO80.s:1044   .text:00000000000002fc .L0 
     /tmp/ccYWmO80.s:1045   .text:00000000000002fc .L0 
     /tmp/ccYWmO80.s:1049   .text:000000000000030c .L0 
     /tmp/ccYWmO80.s:1055   .text:0000000000000314 .L0 
     /tmp/ccYWmO80.s:1056   .text:0000000000000314 .L0 
     /tmp/ccYWmO80.s:1059   .text:000000000000031c .L0 
     /tmp/ccYWmO80.s:1060   .text:000000000000031c .L0 
     /tmp/ccYWmO80.s:1064   .text:000000000000032c .L0 
tests/Threads_C_API_test.hpp:51     .text:000000000000032c .L0 
     /tmp/ccYWmO80.s:1070   .text:0000000000000330 .L0 
     /tmp/ccYWmO80.s:1072   .text:0000000000000330 .L0 
     /tmp/ccYWmO80.s:1075   .text:0000000000000338 .L0 
     /tmp/ccYWmO80.s:1076   .text:0000000000000338 .L0 
tests/Threads_C_API_test.hpp:55     .text:0000000000000338 .L0 
     /tmp/ccYWmO80.s:1083   .text:000000000000033c .L0 
     /tmp/ccYWmO80.s:1085   .text:000000000000033c .L0 
     /tmp/ccYWmO80.s:1089   .text:000000000000034c .L0 
     /tmp/ccYWmO80.s:1090   .text:000000000000034c .L0 
     /tmp/ccYWmO80.s:1096   .text:0000000000000360 .L0 
     /tmp/ccYWmO80.s:1097   .text:0000000000000360 .L0 
     /tmp/ccYWmO80.s:1101   .text:0000000000000370 .L0 
     /tmp/ccYWmO80.s:1102   .text:0000000000000370 .L0 
     /tmp/ccYWmO80.s:1108   .text:0000000000000380 .L0 
     /tmp/ccYWmO80.s:1109   .text:0000000000000380 .L0 
     /tmp/ccYWmO80.s:1114   .text:0000000000000390 .L0 
     /tmp/ccYWmO80.s:1115   .text:0000000000000390 .L0 
     /tmp/ccYWmO80.s:1121   .text:00000000000003a4 .L0 
     /tmp/ccYWmO80.s:1122   .text:00000000000003a4 .L0 
     /tmp/ccYWmO80.s:1128   .text:00000000000003b8 .L0 
     /tmp/ccYWmO80.s:1129   .text:00000000000003b8 .L0 
     /tmp/ccYWmO80.s:1133   .text:00000000000003c8 .L0 
     /tmp/ccYWmO80.s:1134   .text:00000000000003c8 .L0 
GAS LISTING /tmp/ccYWmO80.s 			page 63


     /tmp/ccYWmO80.s:1140   .text:00000000000003dc .L0 
     /tmp/ccYWmO80.s:1141   .text:00000000000003dc .L0 
     /tmp/ccYWmO80.s:1145   .text:00000000000003ec .L0 
     /tmp/ccYWmO80.s:1151   .text:00000000000003f4 .L0 
     /tmp/ccYWmO80.s:1152   .text:00000000000003f4 .L0 
     /tmp/ccYWmO80.s:1155   .text:00000000000003fc .L0 
     /tmp/ccYWmO80.s:1156   .text:00000000000003fc .L0 
     /tmp/ccYWmO80.s:1160   .text:000000000000040c .L0 
     /tmp/ccYWmO80.s:1161   .text:000000000000040c .L0 
     /tmp/ccYWmO80.s:1164   .text:0000000000000418 .L0 
     /tmp/ccYWmO80.s:1165   .text:0000000000000418 .L0 
     /tmp/ccYWmO80.s:1168   .text:0000000000000420 .L0 
     /tmp/ccYWmO80.s:1169   .text:0000000000000424 .L0 
     /tmp/ccYWmO80.s:1171   .text:0000000000000428 .L0 
     /tmp/ccYWmO80.s:1172   .text:0000000000000428 .L0 
     /tmp/ccYWmO80.s:1174   .text:000000000000042c .L0 
     /tmp/ccYWmO80.s:1177   .text:0000000000000430 .L0 
     /tmp/ccYWmO80.s:1180   .text:0000000000000434 .L0 
     /tmp/ccYWmO80.s:1182   .text:0000000000000438 .L0 
     /tmp/ccYWmO80.s:1202   .text:0000000000000438 _Z11workerBodyDPv
     /tmp/ccYWmO80.s:1205   .text:0000000000000438 .L0 
     /tmp/ccYWmO80.s:1207   .text:0000000000000438 .L0 
     /tmp/ccYWmO80.s:1208   .text:000000000000043c .L0 
     /tmp/ccYWmO80.s:1213   .text:000000000000044c .L0 
     /tmp/ccYWmO80.s:1214   .text:000000000000044c .L0 
     /tmp/ccYWmO80.s:1215   .text:000000000000044c .L0 
     /tmp/ccYWmO80.s:1216   .text:000000000000044c .L0 
     /tmp/ccYWmO80.s:1218   .text:0000000000000450 .L0 
     /tmp/ccYWmO80.s:1221   .text:0000000000000450 .L0 
     /tmp/ccYWmO80.s:1222   .text:0000000000000450 .L0 
     /tmp/ccYWmO80.s:1227   .text:0000000000000458 .L0 
     /tmp/ccYWmO80.s:1228   .text:0000000000000458 .L0 
     /tmp/ccYWmO80.s:1232   .text:0000000000000468 .L0 
     /tmp/ccYWmO80.s:1233   .text:0000000000000468 .L0 
     /tmp/ccYWmO80.s:1239   .text:000000000000047c .L0 
     /tmp/ccYWmO80.s:1240   .text:000000000000047c .L0 
     /tmp/ccYWmO80.s:1244   .text:000000000000048c .L0 
     /tmp/ccYWmO80.s:1250   .text:0000000000000494 .L0 
     /tmp/ccYWmO80.s:1251   .text:0000000000000494 .L0 
     /tmp/ccYWmO80.s:1254   .text:000000000000049c .L0 
     /tmp/ccYWmO80.s:1255   .text:000000000000049c .L0 
     /tmp/ccYWmO80.s:1259   .text:00000000000004ac .L0 
tests/Threads_C_API_test.hpp:78     .text:00000000000004ac .L0 
     /tmp/ccYWmO80.s:1265   .text:00000000000004b0 .L0 
     /tmp/ccYWmO80.s:1267   .text:00000000000004b0 .L0 
     /tmp/ccYWmO80.s:1270   .text:00000000000004b8 .L0 
     /tmp/ccYWmO80.s:1271   .text:00000000000004b8 .L0 
     /tmp/ccYWmO80.s:1277   .text:00000000000004c8 .L0 
     /tmp/ccYWmO80.s:1278   .text:00000000000004c8 .L0 
     /tmp/ccYWmO80.s:1283   .text:00000000000004d8 .L0 
     /tmp/ccYWmO80.s:1284   .text:00000000000004d8 .L0 
     /tmp/ccYWmO80.s:1290   .text:00000000000004ec .L0 
     /tmp/ccYWmO80.s:1291   .text:00000000000004ec .L0 
     /tmp/ccYWmO80.s:1297   .text:0000000000000500 .L0 
     /tmp/ccYWmO80.s:1298   .text:0000000000000500 .L0 
     /tmp/ccYWmO80.s:1302   .text:0000000000000510 .L0 
     /tmp/ccYWmO80.s:1303   .text:0000000000000510 .L0 
GAS LISTING /tmp/ccYWmO80.s 			page 64


     /tmp/ccYWmO80.s:1309   .text:0000000000000524 .L0 
     /tmp/ccYWmO80.s:1310   .text:0000000000000524 .L0 
     /tmp/ccYWmO80.s:1314   .text:0000000000000534 .L0 
     /tmp/ccYWmO80.s:1320   .text:000000000000053c .L0 
     /tmp/ccYWmO80.s:1321   .text:000000000000053c .L0 
     /tmp/ccYWmO80.s:1324   .text:0000000000000544 .L0 
     /tmp/ccYWmO80.s:1325   .text:0000000000000544 .L0 
     /tmp/ccYWmO80.s:1329   .text:0000000000000554 .L0 
     /tmp/ccYWmO80.s:1330   .text:0000000000000554 .L0 
     /tmp/ccYWmO80.s:1333   .text:0000000000000560 .L0 
     /tmp/ccYWmO80.s:1334   .text:0000000000000560 .L0 
     /tmp/ccYWmO80.s:1337   .text:0000000000000568 .L0 
     /tmp/ccYWmO80.s:1338   .text:000000000000056c .L0 
     /tmp/ccYWmO80.s:1340   .text:0000000000000570 .L0 
     /tmp/ccYWmO80.s:1341   .text:0000000000000570 .L0 
     /tmp/ccYWmO80.s:1343   .text:0000000000000574 .L0 
     /tmp/ccYWmO80.s:1346   .text:0000000000000578 .L0 
     /tmp/ccYWmO80.s:1349   .text:000000000000057c .L0 
     /tmp/ccYWmO80.s:1351   .text:0000000000000580 .L0 
     /tmp/ccYWmO80.s:1371   .text:0000000000000580 _Z18Threads_C_API_testv
     /tmp/ccYWmO80.s:1374   .text:0000000000000580 .L0 
     /tmp/ccYWmO80.s:1375   .text:0000000000000580 .L0 
     /tmp/ccYWmO80.s:1376   .text:0000000000000584 .L0 
     /tmp/ccYWmO80.s:1380   .text:0000000000000590 .L0 
     /tmp/ccYWmO80.s:1381   .text:0000000000000590 .L0 
     /tmp/ccYWmO80.s:1382   .text:0000000000000590 .L0 
     /tmp/ccYWmO80.s:1384   .text:0000000000000594 .L0 
     /tmp/ccYWmO80.s:1386   .text:0000000000000594 .L0 
     /tmp/ccYWmO80.s:1387   .text:0000000000000594 .L0 
     /tmp/ccYWmO80.s:1388   .text:0000000000000594 .L0 
     /tmp/ccYWmO80.s:1394   .text:00000000000005ac .L0 
     /tmp/ccYWmO80.s:1395   .text:00000000000005ac .L0 
     /tmp/ccYWmO80.s:1399   .text:00000000000005bc .L0 
     /tmp/ccYWmO80.s:1400   .text:00000000000005bc .L0 
     /tmp/ccYWmO80.s:1406   .text:00000000000005d4 .L0 
     /tmp/ccYWmO80.s:1407   .text:00000000000005d4 .L0 
     /tmp/ccYWmO80.s:1411   .text:00000000000005e4 .L0 
     /tmp/ccYWmO80.s:1412   .text:00000000000005e4 .L0 
     /tmp/ccYWmO80.s:1418   .text:00000000000005fc .L0 
     /tmp/ccYWmO80.s:1419   .text:00000000000005fc .L0 
     /tmp/ccYWmO80.s:1423   .text:000000000000060c .L0 
     /tmp/ccYWmO80.s:1424   .text:000000000000060c .L0 
     /tmp/ccYWmO80.s:1430   .text:0000000000000624 .L0 
     /tmp/ccYWmO80.s:1431   .text:0000000000000624 .L0 
     /tmp/ccYWmO80.s:1437   .text:0000000000000638 .L0 
     /tmp/ccYWmO80.s:1438   .text:0000000000000638 .L0 
     /tmp/ccYWmO80.s:1442   .text:0000000000000640 .L0 
     /tmp/ccYWmO80.s:1443   .text:0000000000000640 .L0 
     /tmp/ccYWmO80.s:1446   .text:000000000000064c .L0 
     /tmp/ccYWmO80.s:1449   .text:0000000000000658 .L0 
     /tmp/ccYWmO80.s:1452   .text:0000000000000664 .L0 
     /tmp/ccYWmO80.s:1456   .text:0000000000000670 .L0 
     /tmp/ccYWmO80.s:1461   .text:0000000000000678 .L0 
     /tmp/ccYWmO80.s:1465   .text:000000000000067c .L0 
     /tmp/ccYWmO80.s:1469   .text:0000000000000684 .L0 
     /tmp/ccYWmO80.s:1470   .text:0000000000000684 .L0 
     /tmp/ccYWmO80.s:1472   .text:0000000000000688 .L0 
GAS LISTING /tmp/ccYWmO80.s 			page 65


     /tmp/ccYWmO80.s:1474   .text:000000000000068c .L0 
     /tmp/ccYWmO80.s:1481   .text:0000000000000698 .L0 
     /tmp/ccYWmO80.s:1482   .text:000000000000069c .L0 
     /tmp/ccYWmO80.s:1484   .text:00000000000006a0 .L0 
     /tmp/ccYWmO80.s:1485   .text:00000000000006a0 .L0 
     /tmp/ccYWmO80.s:1487   .text:00000000000006a4 .L0 
     /tmp/ccYWmO80.s:1490   .text:00000000000006a8 .L0 
     /tmp/ccYWmO80.s:1492   .text:00000000000006ac .L0 
     /tmp/ccYWmO80.s:1498   .text:00000000000006ac _Z12testSleepingv
     /tmp/ccYWmO80.s:1501   .text:00000000000006ac .L0 
     /tmp/ccYWmO80.s:1502   .text:00000000000006ac .L0 
     /tmp/ccYWmO80.s:1503   .text:00000000000006b0 .L0 
     /tmp/ccYWmO80.s:1507   .text:00000000000006bc .L0 
     /tmp/ccYWmO80.s:1508   .text:00000000000006bc .L0 
     /tmp/ccYWmO80.s:1509   .text:00000000000006bc .L0 
     /tmp/ccYWmO80.s:1511   .text:00000000000006c0 .L0 
     /tmp/ccYWmO80.s:1514   .text:00000000000006c0 .L0 
     /tmp/ccYWmO80.s:1515   .text:00000000000006c0 .L0 
     /tmp/ccYWmO80.s:1516   .text:00000000000006c0 .L0 
     /tmp/ccYWmO80.s:1521   .text:00000000000006d0 .L0 
     /tmp/ccYWmO80.s:1524   .text:00000000000006d0 .L0 
     /tmp/ccYWmO80.s:1525   .text:00000000000006d0 .L0 
     /tmp/ccYWmO80.s:1530   .text:00000000000006d8 .L0 
     /tmp/ccYWmO80.s:1531   .text:00000000000006d8 .L0 
     /tmp/ccYWmO80.s:1533   .text:00000000000006dc .L0 
     /tmp/ccYWmO80.s:1541   .text:00000000000006fc .L0 
     /tmp/ccYWmO80.s:1545   .text:0000000000000700 .L0 
     /tmp/ccYWmO80.s:1550   .text:0000000000000708 .L0 
     /tmp/ccYWmO80.s:1551   .text:0000000000000708 .L0 
     /tmp/ccYWmO80.s:1552   .text:0000000000000708 .L0 
     /tmp/ccYWmO80.s:1554   .text:0000000000000710 .L0 
     /tmp/ccYWmO80.s:1556   .text:0000000000000714 .L0 
     /tmp/ccYWmO80.s:1558   .text:000000000000071c .L0 
     /tmp/ccYWmO80.s:1560   .text:0000000000000720 .L0 
     /tmp/ccYWmO80.s:1561   .text:0000000000000724 .L0 
     /tmp/ccYWmO80.s:1563   .text:0000000000000728 .L0 
     /tmp/ccYWmO80.s:1564   .text:0000000000000728 .L0 
     /tmp/ccYWmO80.s:1566   .text:000000000000072c .L0 
     /tmp/ccYWmO80.s:1569   .text:0000000000000730 .L0 
     /tmp/ccYWmO80.s:1571   .text:0000000000000734 .L0 
     /tmp/ccYWmO80.s:1600   .text:0000000000000734 _ZN19ConsumerProducerCPP20testConsumerProducerEv
     /tmp/ccYWmO80.s:1603   .text:0000000000000734 .L0 
     /tmp/ccYWmO80.s:7809   .data.rel.local.DW.ref.__gxx_personality_v0:0000000000000000 DW.ref.__gxx_personality_v0
     /tmp/ccYWmO80.s:1606   .text:0000000000000734 .L0 
     /tmp/ccYWmO80.s:1607   .text:0000000000000738 .L0 
     /tmp/ccYWmO80.s:1619   .text:0000000000000764 .L0 
     /tmp/ccYWmO80.s:1620   .text:0000000000000764 .L0 
     /tmp/ccYWmO80.s:1621   .text:0000000000000764 .L0 
     /tmp/ccYWmO80.s:1622   .text:0000000000000764 .L0 
     /tmp/ccYWmO80.s:1623   .text:0000000000000764 .L0 
     /tmp/ccYWmO80.s:1624   .text:0000000000000764 .L0 
     /tmp/ccYWmO80.s:1625   .text:0000000000000764 .L0 
     /tmp/ccYWmO80.s:1626   .text:0000000000000764 .L0 
     /tmp/ccYWmO80.s:1627   .text:0000000000000764 .L0 
     /tmp/ccYWmO80.s:1628   .text:0000000000000764 .L0 
     /tmp/ccYWmO80.s:1629   .text:0000000000000764 .L0 
     /tmp/ccYWmO80.s:1631   .text:0000000000000768 .L0 
GAS LISTING /tmp/ccYWmO80.s 			page 66


     /tmp/ccYWmO80.s:1633   .text:0000000000000768 .L0 
     /tmp/ccYWmO80.s:1635   .text:000000000000076c .L0 
     /tmp/ccYWmO80.s:1636   .text:000000000000076c .L0 
     /tmp/ccYWmO80.s:1637   .text:000000000000076c .L0 
     /tmp/ccYWmO80.s:1638   .text:000000000000076c .L0 
     /tmp/ccYWmO80.s:1643   .text:000000000000077c .L0 
     /tmp/ccYWmO80.s:1644   .text:000000000000077c .L0 
     /tmp/ccYWmO80.s:1650   .text:0000000000000790 .L0 
     /tmp/ccYWmO80.s:1651   .text:0000000000000790 .L0 
     /tmp/ccYWmO80.s:1657   .text:00000000000007a0 .L0 
     /tmp/ccYWmO80.s:1658   .text:00000000000007a0 .L0 
     /tmp/ccYWmO80.s:1662   .text:00000000000007b0 .L0 
     /tmp/ccYWmO80.s:1663   .text:00000000000007b0 .L0 
     /tmp/ccYWmO80.s:1668   .text:00000000000007c0 .L0 
     /tmp/ccYWmO80.s:1669   .text:00000000000007c0 .L0 
     /tmp/ccYWmO80.s:1675   .text:00000000000007d0 .L0 
     /tmp/ccYWmO80.s:1676   .text:00000000000007d0 .L0 
     /tmp/ccYWmO80.s:1680   .text:00000000000007e0 .L0 
     /tmp/ccYWmO80.s:1681   .text:00000000000007e0 .L0 
     /tmp/ccYWmO80.s:1687   .text:00000000000007f4 .L0 
     /tmp/ccYWmO80.s:1688   .text:00000000000007f4 .L0 
     /tmp/ccYWmO80.s:1692   .text:0000000000000804 .L0 
     /tmp/ccYWmO80.s:1693   .text:0000000000000804 .L0 
     /tmp/ccYWmO80.s:1699   .text:0000000000000818 .L0 
     /tmp/ccYWmO80.s:1700   .text:0000000000000818 .L0 
     /tmp/ccYWmO80.s:1704   .text:0000000000000828 .L0 
     /tmp/ccYWmO80.s:1706   .text:000000000000082c .L0 
     /tmp/ccYWmO80.s:1708   .text:0000000000000830 .L0 
     /tmp/ccYWmO80.s:1709   .text:0000000000000830 .L0 
     /tmp/ccYWmO80.s:1716   .text:0000000000000844 .L0 
     /tmp/ccYWmO80.s:1724   .text:0000000000000854 .L0 
     /tmp/ccYWmO80.s:1725   .text:0000000000000854 .L0 
     /tmp/ccYWmO80.s:1730   .text:0000000000000864 .L0 
     /tmp/ccYWmO80.s:1733   .text:0000000000000868 .L0 
     /tmp/ccYWmO80.s:1734   .text:0000000000000868 .L0 
     /tmp/ccYWmO80.s:1739   .text:0000000000000878 .L0 
     /tmp/ccYWmO80.s:1744   .text:0000000000000880 .L0 
     /tmp/ccYWmO80.s:1745   .text:0000000000000880 .L0 
     /tmp/ccYWmO80.s:1753   .text:0000000000000894 .L0 
     /tmp/ccYWmO80.s:1760   .text:00000000000008a0 .L0 
     /tmp/ccYWmO80.s:1764   .text:00000000000008ac .L0 
     /tmp/ccYWmO80.s:1765   .text:00000000000008ac .L0 
     /tmp/ccYWmO80.s:1772   .text:00000000000008c0 .L0 
     /tmp/ccYWmO80.s:1773   .text:00000000000008c0 .L0 
     /tmp/ccYWmO80.s:1776   .text:00000000000008c4 .L0 
     /tmp/ccYWmO80.s:1786   .text:00000000000008e0 .L0 
     /tmp/ccYWmO80.s:1787   .text:00000000000008e0 .L0 
     /tmp/ccYWmO80.s:1793   .text:00000000000008f4 .L0 
     /tmp/ccYWmO80.s:1794   .text:00000000000008f4 .L0 
     /tmp/ccYWmO80.s:1796   .text:00000000000008f8 .L0 
     /tmp/ccYWmO80.s:1797   .text:00000000000008f8 .L0 
     /tmp/ccYWmO80.s:1800   .text:0000000000000900 .L0 
     /tmp/ccYWmO80.s:1801   .text:0000000000000900 .L0 
     /tmp/ccYWmO80.s:1809   .text:0000000000000914 .L0 
     /tmp/ccYWmO80.s:1818   .text:0000000000000924 .L0 
     /tmp/ccYWmO80.s:1822   .text:000000000000092c .L0 
     /tmp/ccYWmO80.s:1830   .text:000000000000093c .L0 
GAS LISTING /tmp/ccYWmO80.s 			page 67


     /tmp/ccYWmO80.s:1831   .text:000000000000093c .L0 
     /tmp/ccYWmO80.s:1836   .text:0000000000000948 .L0 
     /tmp/ccYWmO80.s:1837   .text:0000000000000948 .L0 
     /tmp/ccYWmO80.s:1839   .text:000000000000094c .L0 
     /tmp/ccYWmO80.s:1840   .text:000000000000094c .L0 
     /tmp/ccYWmO80.s:1842   .text:0000000000000950 .L0 
     /tmp/ccYWmO80.s:1843   .text:0000000000000950 .L0 
     /tmp/ccYWmO80.s:1846   .text:000000000000095c .L0 
     /tmp/ccYWmO80.s:1847   .text:000000000000095c .L0 
     /tmp/ccYWmO80.s:1853   .text:000000000000096c .L0 
     /tmp/ccYWmO80.s:1859   .text:0000000000000970 .L0 
     /tmp/ccYWmO80.s:1863   .text:0000000000000978 .L0 
     /tmp/ccYWmO80.s:1871   .text:0000000000000988 .L0 
     /tmp/ccYWmO80.s:1873   .text:000000000000098c .L0 
     /tmp/ccYWmO80.s:1874   .text:000000000000098c .L0 
     /tmp/ccYWmO80.s:1880   .text:0000000000000998 .L0 
     /tmp/ccYWmO80.s:1887   .text:00000000000009a0 .L0 
     /tmp/ccYWmO80.s:1895   .text:00000000000009b0 .L0 
     /tmp/ccYWmO80.s:1899   .text:00000000000009bc .L0 
     /tmp/ccYWmO80.s:1900   .text:00000000000009bc .L0 
     /tmp/ccYWmO80.s:1904   .text:00000000000009c8 .L0 
     /tmp/ccYWmO80.s:1908   .text:00000000000009cc .L0 
     /tmp/ccYWmO80.s:1910   .text:00000000000009d0 .L0 
     /tmp/ccYWmO80.s:1911   .text:00000000000009d0 .L0 
     /tmp/ccYWmO80.s:1917   .text:00000000000009e4 .L0 
     /tmp/ccYWmO80.s:1918   .text:00000000000009e4 .L0 
     /tmp/ccYWmO80.s:1920   .text:00000000000009e8 .L0 
     /tmp/ccYWmO80.s:1921   .text:00000000000009e8 .L0 
     /tmp/ccYWmO80.s:1924   .text:00000000000009f4 .L0 
     /tmp/ccYWmO80.s:1925   .text:00000000000009f4 .L0 
     /tmp/ccYWmO80.s:1931   .text:0000000000000a04 .L0 
     /tmp/ccYWmO80.s:1933   .text:0000000000000a08 .L0 
     /tmp/ccYWmO80.s:1942   .text:0000000000000a18 .L0 
     /tmp/ccYWmO80.s:1953   .text:0000000000000a24 .L0 
     /tmp/ccYWmO80.s:1954   .text:0000000000000a24 .L0 
     /tmp/ccYWmO80.s:1958   .text:0000000000000a2c .L0 
     /tmp/ccYWmO80.s:1962   .text:0000000000000a30 .L0 
     /tmp/ccYWmO80.s:1964   .text:0000000000000a34 .L0 
     /tmp/ccYWmO80.s:1965   .text:0000000000000a34 .L0 
     /tmp/ccYWmO80.s:1969   .text:0000000000000a44 .L0 
     /tmp/ccYWmO80.s:1976   .text:0000000000000a4c .L0 
     /tmp/ccYWmO80.s:1977   .text:0000000000000a4c .L0 
     /tmp/ccYWmO80.s:1979   .text:0000000000000a54 .L0 
     /tmp/ccYWmO80.s:1981   .text:0000000000000a58 .L0 
     /tmp/ccYWmO80.s:1988   .text:0000000000000a64 .L0 
     /tmp/ccYWmO80.s:1996   .text:0000000000000a6c .L0 
     /tmp/ccYWmO80.s:2000   .text:0000000000000a70 .L0 
     /tmp/ccYWmO80.s:2002   .text:0000000000000a74 .L0 
     /tmp/ccYWmO80.s:2003   .text:0000000000000a74 .L0 
     /tmp/ccYWmO80.s:2007   .text:0000000000000a80 .L0 
     /tmp/ccYWmO80.s:2009   .text:0000000000000a84 .L0 
     /tmp/ccYWmO80.s:2017   .text:0000000000000a94 .L0 
     /tmp/ccYWmO80.s:2018   .text:0000000000000a94 .L0 
     /tmp/ccYWmO80.s:2020   .text:0000000000000a98 .L0 
     /tmp/ccYWmO80.s:2027   .text:0000000000000aa8 .L0 
     /tmp/ccYWmO80.s:2028   .text:0000000000000aa8 .L0 
     /tmp/ccYWmO80.s:2030   .text:0000000000000aac .L0 
GAS LISTING /tmp/ccYWmO80.s 			page 68


     /tmp/ccYWmO80.s:2042   .text:0000000000000ac8 .L0 
     /tmp/ccYWmO80.s:2043   .text:0000000000000acc .L0 
     /tmp/ccYWmO80.s:2044   .text:0000000000000acc .L0 
     /tmp/ccYWmO80.s:2046   .text:0000000000000ad0 .L0 
     /tmp/ccYWmO80.s:2048   .text:0000000000000ad4 .L0 
     /tmp/ccYWmO80.s:2050   .text:0000000000000ad8 .L0 
     /tmp/ccYWmO80.s:2052   .text:0000000000000adc .L0 
     /tmp/ccYWmO80.s:2055   .text:0000000000000ae0 .L0 
     /tmp/ccYWmO80.s:2057   .text:0000000000000ae4 .L0 
     /tmp/ccYWmO80.s:2059   .text:0000000000000ae8 .L0 
     /tmp/ccYWmO80.s:2061   .text:0000000000000aec .L0 
     /tmp/ccYWmO80.s:2063   .text:0000000000000af0 .L0 
     /tmp/ccYWmO80.s:2065   .text:0000000000000af4 .L0 
     /tmp/ccYWmO80.s:2067   .text:0000000000000af8 .L0 
     /tmp/ccYWmO80.s:2069   .text:0000000000000afc .L0 
     /tmp/ccYWmO80.s:2073   .text:0000000000000b00 .L0 
     /tmp/ccYWmO80.s:2077   .text:0000000000000b04 .L0 
     /tmp/ccYWmO80.s:2089   .text:0000000000000b20 .L0 
     /tmp/ccYWmO80.s:2101   .text:0000000000000b3c .L0 
     /tmp/ccYWmO80.s:2113   .text:0000000000000b58 .L0 
     /tmp/ccYWmO80.s:2126   .text:0000000000000b74 .L0 
     /tmp/ccYWmO80.s:2135   .text:0000000000000b8c .L0 
     /tmp/ccYWmO80.s:2213   .text:0000000000000b8c _Z8userMainv
     /tmp/ccYWmO80.s:2217   .text:0000000000000b8c .L0 
     /tmp/ccYWmO80.s:2218   .text:0000000000000b8c .L0 
     /tmp/ccYWmO80.s:2219   .text:0000000000000b90 .L0 
     /tmp/ccYWmO80.s:2222   .text:0000000000000b98 .L0 
     /tmp/ccYWmO80.s:2223   .text:0000000000000b98 .L0 
     /tmp/ccYWmO80.s:2225   .text:0000000000000b9c .L0 
     /tmp/ccYWmO80.s:2227   .text:0000000000000b9c .L0 
     /tmp/ccYWmO80.s:2228   .text:0000000000000b9c .L0 
     /tmp/ccYWmO80.s:2231   .text:0000000000000ba4 .L0 
     /tmp/ccYWmO80.s:2232   .text:0000000000000ba8 .L0 
     /tmp/ccYWmO80.s:2234   .text:0000000000000bac .L0 
     /tmp/ccYWmO80.s:2235   .text:0000000000000bac .L0 
     /tmp/ccYWmO80.s:2237   .text:0000000000000bb0 .L0 
     /tmp/ccYWmO80.s:2239   .text:0000000000000bb4 .L0 
     /tmp/ccYWmO80.s:2301   .bss:000000000000000c _ZN19ConsumerProducerCPP9threadEndE
     /tmp/ccYWmO80.s:2314   .bss:0000000000000018 _ZN19ConsumerProducerCPP10waitForAllE
     /tmp/ccYWmO80.s:2296   .bss:0000000000000008 finished
     /tmp/ccYWmO80.s:2309   .bss:0000000000000011 finishedD
     /tmp/ccYWmO80.s:2305   .bss:0000000000000010 finishedC
     /tmp/ccYWmO80.s:2291   .bss:0000000000000001 finishedB
     /tmp/ccYWmO80.s:2287   .bss:0000000000000000 finishedA
     /tmp/ccYWmO80.s:2284   .bss:0000000000000000 .LANCHOR0
     /tmp/ccYWmO80.s:2324   .text:0000000000000bb4 .L0 
     /tmp/ccYWmO80.s:501    .text._ZN19ConsumerProducerCPP8Consumer3runEv:00000000000000d0 .L0 
     /tmp/ccYWmO80.s:538    .text._ZN19ConsumerProducerCPP8ConsumerD2Ev:0000000000000034 .L0 
     /tmp/ccYWmO80.s:585    .text._ZN19ConsumerProducerCPP8ConsumerD0Ev:000000000000004c .L0 
     /tmp/ccYWmO80.s:622    .text._ZN19ConsumerProducerCPP16ProducerKeyboradD2Ev:0000000000000034 .L0 
     /tmp/ccYWmO80.s:669    .text._ZN19ConsumerProducerCPP16ProducerKeyboradD0Ev:000000000000004c .L0 
     /tmp/ccYWmO80.s:706    .text._ZN19ConsumerProducerCPP8ProducerD2Ev:0000000000000034 .L0 
     /tmp/ccYWmO80.s:753    .text._ZN19ConsumerProducerCPP8ProducerD0Ev:000000000000004c .L0 
     /tmp/ccYWmO80.s:833    .text._ZN19ConsumerProducerCPP16ProducerKeyborad3runEv:0000000000000084 .L0 
     /tmp/ccYWmO80.s:918    .text._ZN19ConsumerProducerCPP8Producer3runEv:0000000000000094 .L0 
     /tmp/ccYWmO80.s:8      .rodata.str1.8:0000000000000000 .LC0
     /tmp/ccYWmO80.s:92     .text:000000000000005c .L0 
GAS LISTING /tmp/ccYWmO80.s 			page 69


     /tmp/ccYWmO80.s:11     .rodata.str1.8:0000000000000008 .LC1
     /tmp/ccYWmO80.s:104    .text:0000000000000080 .L0 
     /tmp/ccYWmO80.s:14     .rodata.str1.8:0000000000000010 .LC2
     /tmp/ccYWmO80.s:119    .text:0000000000000098 .L0 
     /tmp/ccYWmO80.s:125    .text:00000000000000ac .L0 
     /tmp/ccYWmO80.s:145    .rodata.str1.8:0000000000000020 .LC3
     /tmp/ccYWmO80.s:225    .text:0000000000000128 .L0 
     /tmp/ccYWmO80.s:237    .text:000000000000014c .L0 
     /tmp/ccYWmO80.s:148    .rodata.str1.8:0000000000000028 .LC4
     /tmp/ccYWmO80.s:252    .text:0000000000000164 .L0 
     /tmp/ccYWmO80.s:258    .text:0000000000000178 .L0 
     /tmp/ccYWmO80.s:282    .rodata.str1.8:0000000000000038 .LC5
     /tmp/ccYWmO80.s:325    .text:00000000000001c8 .L0 
     /tmp/ccYWmO80.s:285    .rodata.str1.8:0000000000000040 .LC6
     /tmp/ccYWmO80.s:337    .text:00000000000001ec .L0 
     /tmp/ccYWmO80.s:356    .text:0000000000000218 .L0 
     /tmp/ccYWmO80.s:992    .rodata.str1.8:0000000000000048 .LC7
     /tmp/ccYWmO80.s:1033   .text:00000000000002d8 .L0 
     /tmp/ccYWmO80.s:1045   .text:00000000000002fc .L0 
     /tmp/ccYWmO80.s:995    .rodata.str1.8:0000000000000050 .LC8
     /tmp/ccYWmO80.s:1060   .text:000000000000031c .L0 
     /tmp/ccYWmO80.s:998    .rodata.str1.8:0000000000000060 .LC9
     /tmp/ccYWmO80.s:1085   .text:000000000000033c .L0 
     /tmp/ccYWmO80.s:1097   .text:0000000000000360 .L0 
     /tmp/ccYWmO80.s:1001   .rodata.str1.8:0000000000000068 .LC10
     /tmp/ccYWmO80.s:1109   .text:0000000000000380 .L0 
     /tmp/ccYWmO80.s:1122   .text:00000000000003a4 .L0 
     /tmp/ccYWmO80.s:1129   .text:00000000000003b8 .L0 
     /tmp/ccYWmO80.s:1141   .text:00000000000003dc .L0 
     /tmp/ccYWmO80.s:1156   .text:00000000000003fc .L0 
     /tmp/ccYWmO80.s:1162   .text:0000000000000410 .L0 
     /tmp/ccYWmO80.s:1187   .rodata.str1.8:0000000000000078 .LC11
     /tmp/ccYWmO80.s:1228   .text:0000000000000458 .L0 
     /tmp/ccYWmO80.s:1240   .text:000000000000047c .L0 
     /tmp/ccYWmO80.s:1190   .rodata.str1.8:0000000000000080 .LC12
     /tmp/ccYWmO80.s:1255   .text:000000000000049c .L0 
     /tmp/ccYWmO80.s:1193   .rodata.str1.8:0000000000000090 .LC13
     /tmp/ccYWmO80.s:1278   .text:00000000000004c8 .L0 
     /tmp/ccYWmO80.s:1291   .text:00000000000004ec .L0 
     /tmp/ccYWmO80.s:1298   .text:0000000000000500 .L0 
     /tmp/ccYWmO80.s:1310   .text:0000000000000524 .L0 
     /tmp/ccYWmO80.s:1196   .rodata.str1.8:00000000000000a0 .LC14
     /tmp/ccYWmO80.s:1325   .text:0000000000000544 .L0 
     /tmp/ccYWmO80.s:1331   .text:0000000000000558 .L0 
     /tmp/ccYWmO80.s:1389   .text:0000000000000598 .L0 
     /tmp/ccYWmO80.s:1356   .rodata.str1.8:00000000000000b0 .LC15
     /tmp/ccYWmO80.s:1395   .text:00000000000005ac .L0 
     /tmp/ccYWmO80.s:1401   .text:00000000000005c0 .L0 
     /tmp/ccYWmO80.s:1359   .rodata.str1.8:00000000000000c8 .LC16
     /tmp/ccYWmO80.s:1407   .text:00000000000005d4 .L0 
     /tmp/ccYWmO80.s:1413   .text:00000000000005e8 .L0 
     /tmp/ccYWmO80.s:1362   .rodata.str1.8:00000000000000e0 .LC17
     /tmp/ccYWmO80.s:1419   .text:00000000000005fc .L0 
     /tmp/ccYWmO80.s:1425   .text:0000000000000610 .L0 
     /tmp/ccYWmO80.s:1365   .rodata.str1.8:00000000000000f8 .LC18
     /tmp/ccYWmO80.s:1431   .text:0000000000000624 .L0 
     /tmp/ccYWmO80.s:1443   .text:0000000000000640 .L0 
GAS LISTING /tmp/ccYWmO80.s 			page 70


     /tmp/ccYWmO80.s:1446   .text:000000000000064c .L0 
     /tmp/ccYWmO80.s:1449   .text:0000000000000658 .L0 
     /tmp/ccYWmO80.s:1452   .text:0000000000000664 .L0 
     /tmp/ccYWmO80.s:1535   .text:00000000000006e4 .L0 
     /tmp/ccYWmO80.s:1552   .text:0000000000000708 .L0 
     /tmp/ccYWmO80.s:1556   .text:0000000000000714 .L0 
     /tmp/ccYWmO80.s:1576   .rodata.str1.8:0000000000000110 .LC19
     /tmp/ccYWmO80.s:1638   .text:000000000000076c .L0 
     /tmp/ccYWmO80.s:1579   .rodata.str1.8:0000000000000130 .LC20
     /tmp/ccYWmO80.s:1658   .text:00000000000007a0 .L0 
     /tmp/ccYWmO80.s:1582   .rodata.str1.8:0000000000000150 .LC21
     /tmp/ccYWmO80.s:1676   .text:00000000000007d0 .L0 
     /tmp/ccYWmO80.s:1585   .rodata.str1.8:0000000000000168 .LC22
     /tmp/ccYWmO80.s:1688   .text:00000000000007f4 .L0 
     /tmp/ccYWmO80.s:1588   .rodata.str1.8:0000000000000180 .LC23
     /tmp/ccYWmO80.s:1700   .text:0000000000000818 .L0 
     /tmp/ccYWmO80.s:1591   .rodata.str1.8:0000000000000188 .LC24
     /tmp/ccYWmO80.s:1725   .text:0000000000000854 .L0 
     /tmp/ccYWmO80.s:1594   .rodata.str1.8:00000000000001c8 .LC25
     /tmp/ccYWmO80.s:1734   .text:0000000000000868 .L0 
     /tmp/ccYWmO80.s:1760   .text:00000000000008a0 .L0 
     /tmp/ccYWmO80.s:1822   .text:000000000000092c .L0 
     /tmp/ccYWmO80.s:1843   .text:0000000000000950 .L0 
     /tmp/ccYWmO80.s:1863   .text:0000000000000978 .L0 
     /tmp/ccYWmO80.s:1887   .text:00000000000009a0 .L0 
     /tmp/ccYWmO80.s:1921   .text:00000000000009e8 .L0 
     /tmp/ccYWmO80.s:1965   .text:0000000000000a34 .L0 
     /tmp/ccYWmO80.s:1977   .text:0000000000000a4c .L0 
     /tmp/ccYWmO80.s:85     .text:0000000000000054 .L7
     /tmp/ccYWmO80.s:77     .text:0000000000000050 .L3
     /tmp/ccYWmO80.s:45     .text:0000000000000020 .L4
     /tmp/ccYWmO80.s:66     .text:000000000000003c .L5
     /tmp/ccYWmO80.s:113    .text:0000000000000098 .L2
     /tmp/ccYWmO80.s:57     .text:000000000000002c .L6
     /tmp/ccYWmO80.s:218    .text:0000000000000120 .L15
     /tmp/ccYWmO80.s:210    .text:000000000000011c .L11
     /tmp/ccYWmO80.s:178    .text:00000000000000ec .L12
     /tmp/ccYWmO80.s:199    .text:0000000000000108 .L13
     /tmp/ccYWmO80.s:246    .text:0000000000000164 .L10
     /tmp/ccYWmO80.s:190    .text:00000000000000f8 .L14
     /tmp/ccYWmO80.s:347    .text:000000000000020c .L18
     /tmp/ccYWmO80.s:317    .text:00000000000001c0 .L19
     /tmp/ccYWmO80.s:963    .text:0000000000000294 .L49
     /tmp/ccYWmO80.s:980    .text:00000000000002ac .L54
     /tmp/ccYWmO80.s:950    .text:0000000000000274 .L51
     /tmp/ccYWmO80.s:1053   .text:0000000000000314 .L57
     /tmp/ccYWmO80.s:1030   .text:00000000000002d8 .L61
     /tmp/ccYWmO80.s:1149   .text:00000000000003f4 .L59
     /tmp/ccYWmO80.s:1126   .text:00000000000003b8 .L62
     /tmp/ccYWmO80.s:1248   .text:0000000000000494 .L65
     /tmp/ccYWmO80.s:1225   .text:0000000000000458 .L69
     /tmp/ccYWmO80.s:1318   .text:000000000000053c .L67
     /tmp/ccYWmO80.s:1295   .text:0000000000000500 .L70
     /tmp/ccYWmO80.s:1440   .text:0000000000000640 .L74
     /tmp/ccYWmO80.s:1435   .text:0000000000000638 .L72
     /tmp/ccYWmO80.s:1463   .text:000000000000067c .L73
     /tmp/ccYWmO80.s:1478   .text:0000000000000698 .L71
GAS LISTING /tmp/ccYWmO80.s 			page 71


     /tmp/ccYWmO80.s:1459   .text:0000000000000678 .L76
     /tmp/ccYWmO80.s:1543   .text:0000000000000700 .L81
     /tmp/ccYWmO80.s:1528   .text:00000000000006d8 .L84
     /tmp/ccYWmO80.s:1547   .text:0000000000000708 .L82
     /tmp/ccYWmO80.s:1722   .text:0000000000000854 .L116
     /tmp/ccYWmO80.s:1731   .text:0000000000000868 .L117
     /tmp/ccYWmO80.s:1741   .text:0000000000000880 .L89
     /tmp/ccYWmO80.s:1738   .text:0000000000000878 .L87
     /tmp/ccYWmO80.s:2040   .text:0000000000000ac8 .L85
     /tmp/ccYWmO80.s:1758   .text:00000000000008a0 .L90
     /tmp/ccYWmO80.s:1826   .text:000000000000093c .L91
     /tmp/ccYWmO80.s:1867   .text:0000000000000988 .L92
     /tmp/ccYWmO80.s:1906   .text:00000000000009cc .L95
     /tmp/ccYWmO80.s:1947   .text:0000000000000a24 .L93
     /tmp/ccYWmO80.s:1891   .text:00000000000009b0 .L94
     /tmp/ccYWmO80.s:1883   .text:00000000000009a0 .L118
     /tmp/ccYWmO80.s:1973   .text:0000000000000a4c .L96
     /tmp/ccYWmO80.s:1960   .text:0000000000000a30 .L97
     /tmp/ccYWmO80.s:1985   .text:0000000000000a64 .L98
     /tmp/ccYWmO80.s:1998   .text:0000000000000a70 .L101
     /tmp/ccYWmO80.s:2014   .text:0000000000000a94 .L99
     /tmp/ccYWmO80.s:1992   .text:0000000000000a6c .L100
     /tmp/ccYWmO80.s:2025   .text:0000000000000aa8 .L102
     /tmp/ccYWmO80.s:2037   .text:0000000000000ac4 .L103
     /tmp/ccYWmO80.s:418    .text._ZN19ConsumerProducerCPP8Consumer3runEv:0000000000000034 .L0 
     /tmp/ccYWmO80.s:414    .text._ZN19ConsumerProducerCPP8Consumer3runEv:0000000000000034 .L22
     /tmp/ccYWmO80.s:463    .text._ZN19ConsumerProducerCPP8Consumer3runEv:0000000000000090 .L23
     /tmp/ccYWmO80.s:407    .text._ZN19ConsumerProducerCPP8Consumer3runEv:0000000000000028 .L27
     /tmp/ccYWmO80.s:447    .text._ZN19ConsumerProducerCPP8Consumer3runEv:0000000000000074 .L28
     /tmp/ccYWmO80.s:520    .text._ZN19ConsumerProducerCPP8ConsumerD2Ev:0000000000000010 .L0 
     /tmp/ccYWmO80.s:562    .text._ZN19ConsumerProducerCPP8ConsumerD0Ev:0000000000000018 .L0 
     /tmp/ccYWmO80.s:604    .text._ZN19ConsumerProducerCPP16ProducerKeyboradD2Ev:0000000000000010 .L0 
     /tmp/ccYWmO80.s:646    .text._ZN19ConsumerProducerCPP16ProducerKeyboradD0Ev:0000000000000018 .L0 
     /tmp/ccYWmO80.s:688    .text._ZN19ConsumerProducerCPP8ProducerD2Ev:0000000000000010 .L0 
     /tmp/ccYWmO80.s:730    .text._ZN19ConsumerProducerCPP8ProducerD0Ev:0000000000000018 .L0 
     /tmp/ccYWmO80.s:802    .text._ZN19ConsumerProducerCPP16ProducerKeyborad3runEv:0000000000000044 .L0 
     /tmp/ccYWmO80.s:798    .text._ZN19ConsumerProducerCPP16ProducerKeyborad3runEv:0000000000000040 .L42
     /tmp/ccYWmO80.s:776    .text._ZN19ConsumerProducerCPP16ProducerKeyborad3runEv:0000000000000018 .L43
     /tmp/ccYWmO80.s:863    .text._ZN19ConsumerProducerCPP8Producer3runEv:0000000000000020 .L0 
     /tmp/ccYWmO80.s:893    .text._ZN19ConsumerProducerCPP8Producer3runEv:000000000000006c .L46
     /tmp/ccYWmO80.s:860    .text._ZN19ConsumerProducerCPP8Producer3runEv:0000000000000020 .L47
     /tmp/ccYWmO80.s:1639   .text:0000000000000774 .LEHB0
     /tmp/ccYWmO80.s:1601   .text:0000000000000734 .LFB34
     /tmp/ccYWmO80.s:1712   .text:000000000000083c .LEHE0
     /tmp/ccYWmO80.s:1717   .text:0000000000000848 .LEHB1
     /tmp/ccYWmO80.s:1720   .text:0000000000000850 .LEHE1
     /tmp/ccYWmO80.s:2072   .text:0000000000000b00 .L110
     /tmp/ccYWmO80.s:1726   .text:000000000000085c .LEHB2
     /tmp/ccYWmO80.s:1748   .text:000000000000088c .LEHE2
     /tmp/ccYWmO80.s:1754   .text:0000000000000898 .LEHB3
     /tmp/ccYWmO80.s:1757   .text:00000000000008a0 .LEHE3
     /tmp/ccYWmO80.s:2085   .text:0000000000000b1c .L111
     /tmp/ccYWmO80.s:1802   .text:0000000000000904 .LEHB4
     /tmp/ccYWmO80.s:1805   .text:000000000000090c .LEHE4
     /tmp/ccYWmO80.s:1814   .text:0000000000000924 .LEHB5
     /tmp/ccYWmO80.s:1820   .text:000000000000092c .LEHE5
     /tmp/ccYWmO80.s:2097   .text:0000000000000b38 .L112
GAS LISTING /tmp/ccYWmO80.s 			page 72


     /tmp/ccYWmO80.s:1832   .text:0000000000000940 .LEHB6
     /tmp/ccYWmO80.s:1850   .text:0000000000000968 .LEHE6
     /tmp/ccYWmO80.s:1855   .text:0000000000000970 .LEHB7
     /tmp/ccYWmO80.s:1861   .text:0000000000000978 .LEHE7
     /tmp/ccYWmO80.s:2109   .text:0000000000000b54 .L113
     /tmp/ccYWmO80.s:1875   .text:0000000000000990 .LEHB8
     /tmp/ccYWmO80.s:1928   .text:0000000000000a00 .LEHE8
     /tmp/ccYWmO80.s:1938   .text:0000000000000a18 .LEHB9
     /tmp/ccYWmO80.s:1944   .text:0000000000000a20 .LEHE9
     /tmp/ccYWmO80.s:2121   .text:0000000000000b70 .L114
     /tmp/ccYWmO80.s:1952   .text:0000000000000a24 .LEHB10
     /tmp/ccYWmO80.s:2036   .text:0000000000000ac4 .LEHE10
     /tmp/ccYWmO80.s:2081   .text:0000000000000b14 .LEHB11
     /tmp/ccYWmO80.s:2084   .text:0000000000000b1c .LEHE11
     /tmp/ccYWmO80.s:2093   .text:0000000000000b30 .LEHB12
     /tmp/ccYWmO80.s:2096   .text:0000000000000b38 .LEHE12
     /tmp/ccYWmO80.s:2105   .text:0000000000000b4c .LEHB13
     /tmp/ccYWmO80.s:2108   .text:0000000000000b54 .LEHE13
     /tmp/ccYWmO80.s:2117   .text:0000000000000b68 .LEHB14
     /tmp/ccYWmO80.s:2120   .text:0000000000000b70 .LEHE14
     /tmp/ccYWmO80.s:2130   .text:0000000000000b84 .LEHB15
     /tmp/ccYWmO80.s:2133   .text:0000000000000b8c .LEHE15
     /tmp/ccYWmO80.s:5428   .debug_abbrev:0000000000000000 .Ldebug_abbrev0
     /tmp/ccYWmO80.s:7563   .debug_str:00000000000002b0 .LASF145
     /tmp/ccYWmO80.s:7797   .debug_str:0000000000000c4a .LASF146
     /tmp/ccYWmO80.s:7799   .debug_str:0000000000000c5d .LASF147
     /tmp/ccYWmO80.s:7421   .debug_ranges:0000000000000000 .Ldebug_ranges0
     /tmp/ccYWmO80.s:7481   .debug_line:0000000000000000 .Ldebug_line0
     /tmp/ccYWmO80.s:7665   .debug_str:00000000000006c0 .LASF0
     /tmp/ccYWmO80.s:7689   .debug_str:00000000000007be .LASF1
     /tmp/ccYWmO80.s:7647   .debug_str:0000000000000602 .LASF2
     /tmp/ccYWmO80.s:7569   .debug_str:00000000000003bb .LASF3
     /tmp/ccYWmO80.s:7617   .debug_str:000000000000053c .LASF4
     /tmp/ccYWmO80.s:7729   .debug_str:000000000000095b .LASF5
     /tmp/ccYWmO80.s:7519   .debug_str:00000000000000da .LASF6
     /tmp/ccYWmO80.s:7561   .debug_str:00000000000002a9 .LASF7
     /tmp/ccYWmO80.s:7695   .debug_str:000000000000080a .LASF8
     /tmp/ccYWmO80.s:7663   .debug_str:00000000000006ad .LASF9
     /tmp/ccYWmO80.s:7763   .debug_str:0000000000000b09 .LASF10
     /tmp/ccYWmO80.s:7601   .debug_str:00000000000004d0 .LASF11
     /tmp/ccYWmO80.s:7705   .debug_str:000000000000083e .LASF12
     /tmp/ccYWmO80.s:7751   .debug_str:0000000000000a79 .LASF13
     /tmp/ccYWmO80.s:7523   .debug_str:00000000000000f5 .LASF14
     /tmp/ccYWmO80.s:7495   .debug_str:0000000000000058 .LASF15
     /tmp/ccYWmO80.s:7539   .debug_str:000000000000018b .LASF16
     /tmp/ccYWmO80.s:7725   .debug_str:000000000000091b .LASF17
     /tmp/ccYWmO80.s:7553   .debug_str:0000000000000268 .LASF18
     /tmp/ccYWmO80.s:7613   .debug_str:0000000000000524 .LASF19
     /tmp/ccYWmO80.s:7615   .debug_str:000000000000052c .LASF20
     /tmp/ccYWmO80.s:7731   .debug_str:000000000000096d .LASF21
     /tmp/ccYWmO80.s:7735   .debug_str:0000000000000989 .LASF30
     /tmp/ccYWmO80.s:7619   .debug_str:0000000000000543 .LASF32
     /tmp/ccYWmO80.s:7483   .debug_str:0000000000000000 .LASF22
     /tmp/ccYWmO80.s:7709   .debug_str:0000000000000880 .LASF23
     /tmp/ccYWmO80.s:7583   .debug_str:00000000000003fd .LASF24
     /tmp/ccYWmO80.s:7499   .debug_str:000000000000006d .LASF25
     /tmp/ccYWmO80.s:7501   .debug_str:0000000000000077 .LASF26
GAS LISTING /tmp/ccYWmO80.s 			page 73


     /tmp/ccYWmO80.s:7503   .debug_str:0000000000000081 .LASF27
     /tmp/ccYWmO80.s:7623   .debug_str:000000000000055e .LASF28
     /tmp/ccYWmO80.s:7611   .debug_str:000000000000051c .LASF29
     /tmp/ccYWmO80.s:7497   .debug_str:0000000000000068 .LASF138
     /tmp/ccYWmO80.s:7533   .debug_str:000000000000015a .LASF148
     /tmp/ccYWmO80.s:7655   .debug_str:000000000000067e .LASF31
     /tmp/ccYWmO80.s:7691   .debug_str:00000000000007d1 .LASF33
     /tmp/ccYWmO80.s:7699   .debug_str:0000000000000828 .LASF34
     /tmp/ccYWmO80.s:7721   .debug_str:000000000000090a .LASF35
     /tmp/ccYWmO80.s:7723   .debug_str:0000000000000914 .LASF36
     /tmp/ccYWmO80.s:7557   .debug_str:000000000000028c .LASF37
     /tmp/ccYWmO80.s:7643   .debug_str:00000000000005d3 .LASF38
     /tmp/ccYWmO80.s:7573   .debug_str:00000000000003cb .LASF39
     /tmp/ccYWmO80.s:7605   .debug_str:00000000000004eb .LASF40
     /tmp/ccYWmO80.s:7639   .debug_str:00000000000005b8 .LASF41
     /tmp/ccYWmO80.s:7673   .debug_str:0000000000000749 .LASF42
     /tmp/ccYWmO80.s:7677   .debug_str:000000000000075a .LASF44
     /tmp/ccYWmO80.s:7635   .debug_str:00000000000005a7 .LASF43
     /tmp/ccYWmO80.s:7767   .debug_str:0000000000000b23 .LASF45
     /tmp/ccYWmO80.s:7607   .debug_str:00000000000004f9 .LASF149
     /tmp/ccYWmO80.s:7521   .debug_str:00000000000000e1 .LASF150
     /tmp/ccYWmO80.s:7513   .debug_str:00000000000000b0 .LASF46
     /tmp/ccYWmO80.s:7517   .debug_str:00000000000000c3 .LASF47
     /tmp/ccYWmO80.s:7485   .debug_str:0000000000000009 .LASF77
     /tmp/ccYWmO80.s:7567   .debug_str:00000000000003a6 .LASF48
     /tmp/ccYWmO80.s:7581   .debug_str:00000000000003f8 .LASF50
     /tmp/ccYWmO80.s:7719   .debug_str:00000000000008f3 .LASF49
     /tmp/ccYWmO80.s:7701   .debug_str:000000000000082d .LASF51
     /tmp/ccYWmO80.s:7739   .debug_str:00000000000009c2 .LASF151
     /tmp/ccYWmO80.s:7591   .debug_str:0000000000000489 .LASF52
     /tmp/ccYWmO80.s:7549   .debug_str:000000000000020b .LASF54
     /tmp/ccYWmO80.s:7597   .debug_str:00000000000004ac .LASF152
     /tmp/ccYWmO80.s:7621   .debug_str:0000000000000554 .LASF53
     /tmp/ccYWmO80.s:7667   .debug_str:00000000000006cd .LASF55
     /tmp/ccYWmO80.s:7525   .debug_str:0000000000000105 .LASF56
     /tmp/ccYWmO80.s:7737   .debug_str:0000000000000999 .LASF57
     /tmp/ccYWmO80.s:7645   .debug_str:00000000000005d8 .LASF58
     /tmp/ccYWmO80.s:7649   .debug_str:0000000000000610 .LASF59
     /tmp/ccYWmO80.s:7547   .debug_str:00000000000001e3 .LASF65
     /tmp/ccYWmO80.s:7679   .debug_str:000000000000076c .LASF60
     /tmp/ccYWmO80.s:7693   .debug_str:00000000000007e4 .LASF68
     /tmp/ccYWmO80.s:7685   .debug_str:000000000000078f .LASF61
     /tmp/ccYWmO80.s:7671   .debug_str:0000000000000720 .LASF62
     /tmp/ccYWmO80.s:7727   .debug_str:0000000000000931 .LASF63
     /tmp/ccYWmO80.s:7551   .debug_str:0000000000000231 .LASF64
     /tmp/ccYWmO80.s:7717   .debug_str:00000000000008cb .LASF66
     /tmp/ccYWmO80.s:7509   .debug_str:000000000000009d .LASF67
     /tmp/ccYWmO80.s:7565   .debug_str:0000000000000380 .LASF69
     /tmp/ccYWmO80.s:7641   .debug_str:00000000000005c2 .LASF70
     /tmp/ccYWmO80.s:7585   .debug_str:0000000000000402 .LASF71
     /tmp/ccYWmO80.s:7707   .debug_str:000000000000084d .LASF72
     /tmp/ccYWmO80.s:7741   .debug_str:00000000000009d6 .LASF73
     /tmp/ccYWmO80.s:7761   .debug_str:0000000000000ad8 .LASF74
     /tmp/ccYWmO80.s:7659   .debug_str:000000000000068c .LASF75
     /tmp/ccYWmO80.s:7669   .debug_str:00000000000006f1 .LASF76
     /tmp/ccYWmO80.s:7769   .debug_str:0000000000000b35 .LASF153
     /tmp/ccYWmO80.s:7757   .debug_str:0000000000000aa0 .LASF154
GAS LISTING /tmp/ccYWmO80.s 			page 74


     /tmp/ccYWmO80.s:7759   .debug_str:0000000000000ad1 .LASF78
     /tmp/ccYWmO80.s:7777   .debug_str:0000000000000b76 .LASF79
     /tmp/ccYWmO80.s:7753   .debug_str:0000000000000a88 .LASF80
     /tmp/ccYWmO80.s:7715   .debug_str:00000000000008b5 .LASF81
     /tmp/ccYWmO80.s:7783   .debug_str:0000000000000bc2 .LASF82
     /tmp/ccYWmO80.s:7795   .debug_str:0000000000000c37 .LASF83
     /tmp/ccYWmO80.s:7681   .debug_str:0000000000000776 .LASF84
     /tmp/ccYWmO80.s:7711   .debug_str:000000000000088a .LASF85
     /tmp/ccYWmO80.s:7733   .debug_str:000000000000097f .LASF86
     /tmp/ccYWmO80.s:7545   .debug_str:00000000000001b4 .LASF87
     /tmp/ccYWmO80.s:627    .text._ZN19ConsumerProducerCPP16ProducerKeyboradD0Ev:0000000000000000 .LFB47
     /tmp/ccYWmO80.s:667    .text._ZN19ConsumerProducerCPP16ProducerKeyboradD0Ev:000000000000004c .LFE47
     /tmp/ccYWmO80.s:6557   .debug_loc:0000000000000000 .LLST19
     /tmp/ccYWmO80.s:643    .text._ZN19ConsumerProducerCPP16ProducerKeyboradD0Ev:0000000000000018 .LBB46
     /tmp/ccYWmO80.s:651    .text._ZN19ConsumerProducerCPP16ProducerKeyboradD0Ev:000000000000002c .LBE46
     /tmp/ccYWmO80.s:6575   .debug_loc:000000000000004c .LLST20
     /tmp/ccYWmO80.s:649    .text._ZN19ConsumerProducerCPP16ProducerKeyboradD0Ev:000000000000002c .LVL67
     /tmp/ccYWmO80.s:654    .text._ZN19ConsumerProducerCPP16ProducerKeyboradD0Ev:0000000000000038 .LVL68
     /tmp/ccYWmO80.s:7781   .debug_str:0000000000000b93 .LASF88
     /tmp/ccYWmO80.s:590    .text._ZN19ConsumerProducerCPP16ProducerKeyboradD2Ev:0000000000000000 .LFB45
     /tmp/ccYWmO80.s:618    .text._ZN19ConsumerProducerCPP16ProducerKeyboradD2Ev:0000000000000034 .LFE45
     /tmp/ccYWmO80.s:6586   .debug_loc:0000000000000082 .LLST18
     /tmp/ccYWmO80.s:607    .text._ZN19ConsumerProducerCPP16ProducerKeyboradD2Ev:0000000000000024 .LVL64
     /tmp/ccYWmO80.s:7713   .debug_str:000000000000088f .LASF89
     /tmp/ccYWmO80.s:711    .text._ZN19ConsumerProducerCPP8ProducerD0Ev:0000000000000000 .LFB43
     /tmp/ccYWmO80.s:751    .text._ZN19ConsumerProducerCPP8ProducerD0Ev:000000000000004c .LFE43
     /tmp/ccYWmO80.s:6600   .debug_loc:00000000000000bb .LLST22
     /tmp/ccYWmO80.s:727    .text._ZN19ConsumerProducerCPP8ProducerD0Ev:0000000000000018 .LBB49
     /tmp/ccYWmO80.s:735    .text._ZN19ConsumerProducerCPP8ProducerD0Ev:000000000000002c .LBE49
     /tmp/ccYWmO80.s:6618   .debug_loc:0000000000000107 .LLST23
     /tmp/ccYWmO80.s:733    .text._ZN19ConsumerProducerCPP8ProducerD0Ev:000000000000002c .LVL74
     /tmp/ccYWmO80.s:738    .text._ZN19ConsumerProducerCPP8ProducerD0Ev:0000000000000038 .LVL75
     /tmp/ccYWmO80.s:7487   .debug_str:0000000000000013 .LASF90
     /tmp/ccYWmO80.s:674    .text._ZN19ConsumerProducerCPP8ProducerD2Ev:0000000000000000 .LFB41
     /tmp/ccYWmO80.s:702    .text._ZN19ConsumerProducerCPP8ProducerD2Ev:0000000000000034 .LFE41
     /tmp/ccYWmO80.s:6629   .debug_loc:000000000000013d .LLST21
     /tmp/ccYWmO80.s:691    .text._ZN19ConsumerProducerCPP8ProducerD2Ev:0000000000000024 .LVL71
     /tmp/ccYWmO80.s:7791   .debug_str:0000000000000bfd .LASF91
     /tmp/ccYWmO80.s:543    .text._ZN19ConsumerProducerCPP8ConsumerD0Ev:0000000000000000 .LFB39
     /tmp/ccYWmO80.s:583    .text._ZN19ConsumerProducerCPP8ConsumerD0Ev:000000000000004c .LFE39
     /tmp/ccYWmO80.s:6643   .debug_loc:0000000000000176 .LLST16
     /tmp/ccYWmO80.s:559    .text._ZN19ConsumerProducerCPP8ConsumerD0Ev:0000000000000018 .LBB43
     /tmp/ccYWmO80.s:567    .text._ZN19ConsumerProducerCPP8ConsumerD0Ev:000000000000002c .LBE43
     /tmp/ccYWmO80.s:6661   .debug_loc:00000000000001c2 .LLST17
     /tmp/ccYWmO80.s:565    .text._ZN19ConsumerProducerCPP8ConsumerD0Ev:000000000000002c .LVL60
     /tmp/ccYWmO80.s:570    .text._ZN19ConsumerProducerCPP8ConsumerD0Ev:0000000000000038 .LVL61
     /tmp/ccYWmO80.s:7687   .debug_str:0000000000000798 .LASF92
     /tmp/ccYWmO80.s:506    .text._ZN19ConsumerProducerCPP8ConsumerD2Ev:0000000000000000 .LFB37
     /tmp/ccYWmO80.s:534    .text._ZN19ConsumerProducerCPP8ConsumerD2Ev:0000000000000034 .LFE37
     /tmp/ccYWmO80.s:6672   .debug_loc:00000000000001f8 .LLST15
     /tmp/ccYWmO80.s:523    .text._ZN19ConsumerProducerCPP8ConsumerD2Ev:0000000000000024 .LVL57
     /tmp/ccYWmO80.s:7575   .debug_str:00000000000003da .LASF93
     /tmp/ccYWmO80.s:7629   .debug_str:000000000000057e .LASF103
     /tmp/ccYWmO80.s:2214   .text:0000000000000b8c .LFB35
     /tmp/ccYWmO80.s:2240   .text:0000000000000bb4 .LFE35
     /tmp/ccYWmO80.s:2229   .text:0000000000000ba4 .LVL254
     /tmp/ccYWmO80.s:2136   .text:0000000000000b8c .LFE34
GAS LISTING /tmp/ccYWmO80.s 			page 75


     /tmp/ccYWmO80.s:7505   .debug_str:000000000000008b .LASF94
     /tmp/ccYWmO80.s:6686   .debug_loc:0000000000000231 .LLST43
     /tmp/ccYWmO80.s:7571   .debug_str:00000000000003c1 .LASF95
     /tmp/ccYWmO80.s:6697   .debug_loc:0000000000000267 .LLST44
     /tmp/ccYWmO80.s:6716   .debug_loc:00000000000002c3 .LLST45
     /tmp/ccYWmO80.s:7779   .debug_str:0000000000000b89 .LASF96
     /tmp/ccYWmO80.s:6727   .debug_loc:00000000000002f9 .LLST46
     /tmp/ccYWmO80.s:7697   .debug_str:000000000000081d .LASF97
     /tmp/ccYWmO80.s:6745   .debug_loc:0000000000000345 .LLST47
     /tmp/ccYWmO80.s:7527   .debug_str:000000000000010e .LASF98
     /tmp/ccYWmO80.s:6758   .debug_loc:000000000000037d .LLST48
     /tmp/ccYWmO80.s:6769   .debug_loc:00000000000003b3 .LLST53
     /tmp/ccYWmO80.s:1884   .text:00000000000009a0 .LBB58
     /tmp/ccYWmO80.s:6780   .debug_loc:00000000000003e9 .LLST54
     /tmp/ccYWmO80.s:6795   .debug_loc:0000000000000432 .LLST55
     /tmp/ccYWmO80.s:1943   .text:0000000000000a20 .LVL221
     /tmp/ccYWmO80.s:1902   .text:00000000000009c8 .LVL217
     /tmp/ccYWmO80.s:1927   .text:0000000000000a00 .LVL219
     /tmp/ccYWmO80.s:2128   .text:0000000000000b80 .LVL252
     /tmp/ccYWmO80.s:6814   .debug_loc:000000000000048e .LLST56
     /tmp/ccYWmO80.s:1967   .text:0000000000000a44 .LVL225
     /tmp/ccYWmO80.s:1994   .text:0000000000000a6c .LBB64
     /tmp/ccYWmO80.s:2015   .text:0000000000000a94 .LBE64
     /tmp/ccYWmO80.s:6825   .debug_loc:00000000000004c4 .LLST57
     /tmp/ccYWmO80.s:6832   .debug_loc:00000000000004e7 .LLST40
     /tmp/ccYWmO80.s:6877   .debug_loc:000000000000054e .LLST42
     /tmp/ccYWmO80.s:1815   .text:0000000000000924 .LBB53
     /tmp/ccYWmO80.s:1828   .text:000000000000093c .LBE53
     /tmp/ccYWmO80.s:6922   .debug_loc:00000000000005b5 .LLST49
     /tmp/ccYWmO80.s:6949   .debug_loc:000000000000060a .LLST50
     /tmp/ccYWmO80.s:1819   .text:000000000000092c .LVL207
     /tmp/ccYWmO80.s:1856   .text:0000000000000970 .LBB55
     /tmp/ccYWmO80.s:1869   .text:0000000000000988 .LBE55
     /tmp/ccYWmO80.s:6964   .debug_loc:0000000000000653 .LLST51
     /tmp/ccYWmO80.s:6975   .debug_loc:0000000000000689 .LLST52
     /tmp/ccYWmO80.s:1860   .text:0000000000000978 .LVL212
     /tmp/ccYWmO80.s:1641   .text:000000000000077c .LVL179
     /tmp/ccYWmO80.s:1648   .text:0000000000000790 .LVL180
     /tmp/ccYWmO80.s:1653   .text:000000000000079c .LVL181
     /tmp/ccYWmO80.s:1660   .text:00000000000007b0 .LVL183
     /tmp/ccYWmO80.s:1666   .text:00000000000007c0 .LVL184
     /tmp/ccYWmO80.s:1671   .text:00000000000007cc .LVL185
     /tmp/ccYWmO80.s:1678   .text:00000000000007e0 .LVL187
     /tmp/ccYWmO80.s:1685   .text:00000000000007f4 .LVL188
     /tmp/ccYWmO80.s:1690   .text:0000000000000804 .LVL189
     /tmp/ccYWmO80.s:1697   .text:0000000000000818 .LVL190
     /tmp/ccYWmO80.s:1702   .text:0000000000000828 .LVL191
     /tmp/ccYWmO80.s:1711   .text:000000000000083c .LVL192
     /tmp/ccYWmO80.s:1719   .text:0000000000000850 .LVL193
     /tmp/ccYWmO80.s:1728   .text:0000000000000864 .LVL194
     /tmp/ccYWmO80.s:1736   .text:0000000000000878 .LVL195
     /tmp/ccYWmO80.s:1747   .text:000000000000088c .LVL197
     /tmp/ccYWmO80.s:1756   .text:00000000000008a0 .LVL199
     /tmp/ccYWmO80.s:1804   .text:000000000000090c .LVL205
     /tmp/ccYWmO80.s:1834   .text:0000000000000948 .LVL209
     /tmp/ccYWmO80.s:1849   .text:0000000000000968 .LVL210
     /tmp/ccYWmO80.s:1877   .text:0000000000000998 .LVL214
GAS LISTING /tmp/ccYWmO80.s 			page 76


     /tmp/ccYWmO80.s:1955   .text:0000000000000a2c .LVL223
     /tmp/ccYWmO80.s:2024   .text:0000000000000aa8 .LVL233
     /tmp/ccYWmO80.s:2032   .text:0000000000000ab8 .LVL234
     /tmp/ccYWmO80.s:2035   .text:0000000000000ac4 .LVL235
     /tmp/ccYWmO80.s:2079   .text:0000000000000b10 .LVL240
     /tmp/ccYWmO80.s:2083   .text:0000000000000b1c .LVL241
     /tmp/ccYWmO80.s:2091   .text:0000000000000b2c .LVL243
     /tmp/ccYWmO80.s:2095   .text:0000000000000b38 .LVL244
     /tmp/ccYWmO80.s:2103   .text:0000000000000b48 .LVL246
     /tmp/ccYWmO80.s:2107   .text:0000000000000b54 .LVL247
     /tmp/ccYWmO80.s:2115   .text:0000000000000b64 .LVL249
     /tmp/ccYWmO80.s:2119   .text:0000000000000b70 .LVL250
     /tmp/ccYWmO80.s:2132   .text:0000000000000b8c .LVL253
     /tmp/ccYWmO80.s:381    .text._ZN19ConsumerProducerCPP8Consumer3runEv:0000000000000000 .LFB33
     /tmp/ccYWmO80.s:499    .text._ZN19ConsumerProducerCPP8Consumer3runEv:00000000000000d0 .LFE33
     /tmp/ccYWmO80.s:6986   .debug_loc:00000000000006bf .LLST11
     /tmp/ccYWmO80.s:7004   .debug_loc:000000000000070b .LLST12
     /tmp/ccYWmO80.s:7024   .debug_loc:0000000000000768 .LLST13
     /tmp/ccYWmO80.s:413    .text._ZN19ConsumerProducerCPP8Consumer3runEv:0000000000000034 .LVL43
     /tmp/ccYWmO80.s:427    .text._ZN19ConsumerProducerCPP8Consumer3runEv:0000000000000050 .LVL44
     /tmp/ccYWmO80.s:438    .text._ZN19ConsumerProducerCPP8Consumer3runEv:0000000000000064 .LVL47
     /tmp/ccYWmO80.s:449    .text._ZN19ConsumerProducerCPP8Consumer3runEv:0000000000000074 .LBB41
     /tmp/ccYWmO80.s:464    .text._ZN19ConsumerProducerCPP8Consumer3runEv:0000000000000090 .LBE41
     /tmp/ccYWmO80.s:7031   .debug_loc:000000000000078b .LLST14
     /tmp/ccYWmO80.s:456    .text._ZN19ConsumerProducerCPP8Consumer3runEv:0000000000000084 .LVL49
     /tmp/ccYWmO80.s:462    .text._ZN19ConsumerProducerCPP8Consumer3runEv:0000000000000090 .LVL51
     /tmp/ccYWmO80.s:472    .text._ZN19ConsumerProducerCPP8Consumer3runEv:00000000000000a0 .LVL52
     /tmp/ccYWmO80.s:480    .text._ZN19ConsumerProducerCPP8Consumer3runEv:00000000000000b4 .LVL53
     /tmp/ccYWmO80.s:7531   .debug_str:0000000000000123 .LASF99
     /tmp/ccYWmO80.s:838    .text._ZN19ConsumerProducerCPP8Producer3runEv:0000000000000000 .LFB29
     /tmp/ccYWmO80.s:916    .text._ZN19ConsumerProducerCPP8Producer3runEv:0000000000000094 .LFE29
     /tmp/ccYWmO80.s:7038   .debug_loc:00000000000007ae .LLST26
     /tmp/ccYWmO80.s:7056   .debug_loc:00000000000007fa .LLST27
     /tmp/ccYWmO80.s:873    .text._ZN19ConsumerProducerCPP8Producer3runEv:0000000000000044 .LVL91
     /tmp/ccYWmO80.s:890    .text._ZN19ConsumerProducerCPP8Producer3runEv:0000000000000068 .LVL93
     /tmp/ccYWmO80.s:899    .text._ZN19ConsumerProducerCPP8Producer3runEv:000000000000007c .LVL94
     /tmp/ccYWmO80.s:7747   .debug_str:0000000000000a36 .LASF100
     /tmp/ccYWmO80.s:758    .text._ZN19ConsumerProducerCPP16ProducerKeyborad3runEv:0000000000000000 .LFB25
     /tmp/ccYWmO80.s:831    .text._ZN19ConsumerProducerCPP16ProducerKeyborad3runEv:0000000000000084 .LFE25
     /tmp/ccYWmO80.s:7076   .debug_loc:0000000000000857 .LLST24
     /tmp/ccYWmO80.s:7094   .debug_loc:00000000000008a3 .LLST25
     /tmp/ccYWmO80.s:781    .text._ZN19ConsumerProducerCPP16ProducerKeyborad3runEv:0000000000000020 .LVL79
     /tmp/ccYWmO80.s:793    .text._ZN19ConsumerProducerCPP16ProducerKeyborad3runEv:000000000000003c .LVL81
     /tmp/ccYWmO80.s:811    .text._ZN19ConsumerProducerCPP16ProducerKeyborad3runEv:0000000000000060 .LVL85
     /tmp/ccYWmO80.s:817    .text._ZN19ConsumerProducerCPP16ProducerKeyborad3runEv:0000000000000070 .LVL86
     /tmp/ccYWmO80.s:7587   .debug_str:0000000000000434 .LASF101
     /tmp/ccYWmO80.s:7603   .debug_str:00000000000004de .LASF102
     /tmp/ccYWmO80.s:7631   .debug_str:000000000000058b .LASF104
     /tmp/ccYWmO80.s:1499   .text:00000000000006ac .LFB19
     /tmp/ccYWmO80.s:1572   .text:0000000000000734 .LFE19
     /tmp/ccYWmO80.s:7793   .debug_str:0000000000000c23 .LASF105
     /tmp/ccYWmO80.s:7507   .debug_str:0000000000000091 .LASF106
     /tmp/ccYWmO80.s:7541   .debug_str:0000000000000197 .LASF107
     /tmp/ccYWmO80.s:1523   .text:00000000000006d0 .LBB52
     /tmp/ccYWmO80.s:1548   .text:0000000000000708 .LBE52
     /tmp/ccYWmO80.s:7109   .debug_loc:00000000000008ec .LLST38
     /tmp/ccYWmO80.s:1539   .text:00000000000006fc .LVL176
GAS LISTING /tmp/ccYWmO80.s 			page 77


     /tmp/ccYWmO80.s:7579   .debug_str:00000000000003ee .LASF108
     /tmp/ccYWmO80.s:7787   .debug_str:0000000000000bde .LASF109
     /tmp/ccYWmO80.s:292    .text:00000000000001a0 .LFB18
     /tmp/ccYWmO80.s:374    .text:0000000000000244 .LFE18
     /tmp/ccYWmO80.s:7121   .debug_loc:0000000000000923 .LLST8
     /tmp/ccYWmO80.s:7577   .debug_str:00000000000003e3 .LASF110
     /tmp/ccYWmO80.s:7135   .debug_loc:000000000000095c .LLST9
     /tmp/ccYWmO80.s:7142   .debug_loc:000000000000097f .LLST10
     /tmp/ccYWmO80.s:327    .text:00000000000001d8 .LVL35
     /tmp/ccYWmO80.s:334    .text:00000000000001ec .LVL36
     /tmp/ccYWmO80.s:339    .text:00000000000001fc .LVL37
     /tmp/ccYWmO80.s:344    .text:0000000000000208 .LVL38
     /tmp/ccYWmO80.s:7771   .debug_str:0000000000000b4a .LASF111
     /tmp/ccYWmO80.s:7559   .debug_str:0000000000000291 .LASF112
     /tmp/ccYWmO80.s:1372   .text:0000000000000580 .LFB17
     /tmp/ccYWmO80.s:1493   .text:00000000000006ac .LFE17
     /tmp/ccYWmO80.s:7595   .debug_str:00000000000004a4 .LASF113
     /tmp/ccYWmO80.s:1454   .text:0000000000000670 .LBB51
     /tmp/ccYWmO80.s:1479   .text:0000000000000698 .LBE51
     /tmp/ccYWmO80.s:7675   .debug_str:0000000000000753 .LASF114
     /tmp/ccYWmO80.s:7154   .debug_loc:00000000000009b6 .LLST36
     /tmp/ccYWmO80.s:7775   .debug_str:0000000000000b6a .LASF115
     /tmp/ccYWmO80.s:7535   .debug_str:000000000000016d .LASF155
     /tmp/ccYWmO80.s:7165   .debug_loc:00000000000009ec .LLST37
     /tmp/ccYWmO80.s:7633   .debug_str:000000000000059d .LASF116
     /tmp/ccYWmO80.s:1475   .text:0000000000000694 .LVL170
     /tmp/ccYWmO80.s:1392   .text:00000000000005ac .LVL158
     /tmp/ccYWmO80.s:1397   .text:00000000000005bc .LVL159
     /tmp/ccYWmO80.s:1404   .text:00000000000005d4 .LVL160
     /tmp/ccYWmO80.s:1409   .text:00000000000005e4 .LVL161
     /tmp/ccYWmO80.s:1416   .text:00000000000005fc .LVL162
     /tmp/ccYWmO80.s:1421   .text:000000000000060c .LVL163
     /tmp/ccYWmO80.s:1428   .text:0000000000000624 .LVL164
     /tmp/ccYWmO80.s:1433   .text:0000000000000634 .LVL165
     /tmp/ccYWmO80.s:1439   .text:0000000000000640 .LVL166
     /tmp/ccYWmO80.s:7515   .debug_str:00000000000000b7 .LASF117
     /tmp/ccYWmO80.s:7651   .debug_str:0000000000000647 .LASF118
     /tmp/ccYWmO80.s:1203   .text:0000000000000438 .LFB16
     /tmp/ccYWmO80.s:1352   .text:0000000000000580 .LFE16
     /tmp/ccYWmO80.s:7172   .debug_loc:0000000000000a0f .LLST33
     /tmp/ccYWmO80.s:7186   .debug_loc:0000000000000a48 .LLST34
     /tmp/ccYWmO80.s:7489   .debug_str:0000000000000039 .LASF119
     /tmp/ccYWmO80.s:7206   .debug_loc:0000000000000aa5 .LLST35
     /tmp/ccYWmO80.s:1230   .text:0000000000000468 .LVL136
     /tmp/ccYWmO80.s:1237   .text:000000000000047c .LVL137
     /tmp/ccYWmO80.s:1242   .text:000000000000048c .LVL138
     /tmp/ccYWmO80.s:1257   .text:00000000000004ac .LVL141
     /tmp/ccYWmO80.s:1268   .text:00000000000004b8 .LVL142
     /tmp/ccYWmO80.s:1273   .text:00000000000004c4 .LVL143
     /tmp/ccYWmO80.s:1281   .text:00000000000004d8 .LVL146
     /tmp/ccYWmO80.s:1288   .text:00000000000004ec .LVL147
     /tmp/ccYWmO80.s:1293   .text:00000000000004fc .LVL148
     /tmp/ccYWmO80.s:1300   .text:0000000000000510 .LVL149
     /tmp/ccYWmO80.s:1307   .text:0000000000000524 .LVL150
     /tmp/ccYWmO80.s:1312   .text:0000000000000534 .LVL151
     /tmp/ccYWmO80.s:1327   .text:0000000000000554 .LVL154
     /tmp/ccYWmO80.s:1335   .text:0000000000000568 .LVL155
GAS LISTING /tmp/ccYWmO80.s 			page 78


     /tmp/ccYWmO80.s:7493   .debug_str:000000000000004c .LASF120
     /tmp/ccYWmO80.s:7745   .debug_str:0000000000000a24 .LASF121
     /tmp/ccYWmO80.s:1008   .text:00000000000002b8 .LFB15
     /tmp/ccYWmO80.s:1183   .text:0000000000000438 .LFE15
     /tmp/ccYWmO80.s:7217   .debug_loc:0000000000000adb .LLST29
     /tmp/ccYWmO80.s:7231   .debug_loc:0000000000000b14 .LLST30
     /tmp/ccYWmO80.s:7251   .debug_loc:0000000000000b71 .LLST31
     /tmp/ccYWmO80.s:7259   .debug_loc:0000000000000b95 .LLST32
     /tmp/ccYWmO80.s:1035   .text:00000000000002e8 .LVL107
     /tmp/ccYWmO80.s:1042   .text:00000000000002fc .LVL108
     /tmp/ccYWmO80.s:1047   .text:000000000000030c .LVL109
     /tmp/ccYWmO80.s:1062   .text:000000000000032c .LVL112
     /tmp/ccYWmO80.s:1073   .text:0000000000000338 .LVL113
     /tmp/ccYWmO80.s:1087   .text:000000000000034c .LVL115
     /tmp/ccYWmO80.s:1094   .text:0000000000000360 .LVL116
     /tmp/ccYWmO80.s:1099   .text:0000000000000370 .LVL117
     /tmp/ccYWmO80.s:1104   .text:000000000000037c .LVL118
     /tmp/ccYWmO80.s:1112   .text:0000000000000390 .LVL121
     /tmp/ccYWmO80.s:1119   .text:00000000000003a4 .LVL122
     /tmp/ccYWmO80.s:1124   .text:00000000000003b4 .LVL123
     /tmp/ccYWmO80.s:1131   .text:00000000000003c8 .LVL124
     /tmp/ccYWmO80.s:1138   .text:00000000000003dc .LVL125
     /tmp/ccYWmO80.s:1143   .text:00000000000003ec .LVL126
     /tmp/ccYWmO80.s:1158   .text:000000000000040c .LVL129
     /tmp/ccYWmO80.s:1166   .text:0000000000000420 .LVL130
     /tmp/ccYWmO80.s:7491   .debug_str:0000000000000040 .LASF122
     /tmp/ccYWmO80.s:7537   .debug_str:0000000000000179 .LASF123
     /tmp/ccYWmO80.s:155    .text:00000000000000cc .LFB14
     /tmp/ccYWmO80.s:278    .text:00000000000001a0 .LFE14
     /tmp/ccYWmO80.s:7270   .debug_loc:0000000000000bcb .LLST4
     /tmp/ccYWmO80.s:173    .text:00000000000000e4 .LBB31
     /tmp/ccYWmO80.s:249    .text:0000000000000164 .LBE31
     /tmp/ccYWmO80.s:7284   .debug_loc:0000000000000c04 .LLST5
     /tmp/ccYWmO80.s:7296   .debug_loc:0000000000000c3b .LLST6
     /tmp/ccYWmO80.s:196    .text:0000000000000104 .LBB35
     /tmp/ccYWmO80.s:211    .text:000000000000011c .LBE35
     /tmp/ccYWmO80.s:7308   .debug_loc:0000000000000c72 .LLST7
     /tmp/ccYWmO80.s:185    .text:00000000000000f4 .LVL18
     /tmp/ccYWmO80.s:227    .text:0000000000000138 .LVL24
     /tmp/ccYWmO80.s:234    .text:000000000000014c .LVL25
     /tmp/ccYWmO80.s:239    .text:000000000000015c .LVL26
     /tmp/ccYWmO80.s:254    .text:0000000000000174 .LVL28
     /tmp/ccYWmO80.s:262    .text:0000000000000188 .LVL29
     /tmp/ccYWmO80.s:7529   .debug_str:0000000000000117 .LASF124
     /tmp/ccYWmO80.s:7755   .debug_str:0000000000000a8e .LASF125
     /tmp/ccYWmO80.s:21     .text:0000000000000000 .LFB13
     /tmp/ccYWmO80.s:141    .text:00000000000000cc .LFE13
     /tmp/ccYWmO80.s:7319   .debug_loc:0000000000000ca8 .LLST0
     /tmp/ccYWmO80.s:40     .text:0000000000000018 .LBB23
     /tmp/ccYWmO80.s:116    .text:0000000000000098 .LBE23
     /tmp/ccYWmO80.s:7333   .debug_loc:0000000000000ce1 .LLST1
     /tmp/ccYWmO80.s:7345   .debug_loc:0000000000000d18 .LLST2
     /tmp/ccYWmO80.s:63     .text:0000000000000038 .LBB27
     /tmp/ccYWmO80.s:78     .text:0000000000000050 .LBE27
     /tmp/ccYWmO80.s:7357   .debug_loc:0000000000000d4f .LLST3
     /tmp/ccYWmO80.s:52     .text:0000000000000028 .LVL3
     /tmp/ccYWmO80.s:94     .text:000000000000006c .LVL9
GAS LISTING /tmp/ccYWmO80.s 			page 79


     /tmp/ccYWmO80.s:101    .text:0000000000000080 .LVL10
     /tmp/ccYWmO80.s:106    .text:0000000000000090 .LVL11
     /tmp/ccYWmO80.s:121    .text:00000000000000a8 .LVL13
     /tmp/ccYWmO80.s:7765   .debug_str:0000000000000b19 .LASF156
     /tmp/ccYWmO80.s:7743   .debug_str:0000000000000a16 .LASF157
     /tmp/ccYWmO80.s:923    .text:0000000000000244 .LFB12
     /tmp/ccYWmO80.s:988    .text:00000000000002b8 .LFE12
     /tmp/ccYWmO80.s:7368   .debug_loc:0000000000000d85 .LLST28
     /tmp/ccYWmO80.s:955    .text:0000000000000280 .LVL99
     /tmp/ccYWmO80.s:960    .text:0000000000000290 .LVL100
     /tmp/ccYWmO80.s:985    .text:00000000000002b4 .LVL103
     /tmp/ccYWmO80.s:7801   .debug_str:0000000000000c8e .LASF126
     /tmp/ccYWmO80.s:7637   .debug_str:00000000000005b2 .LASF127
     /tmp/ccYWmO80.s:7773   .debug_str:0000000000000b5d .LASF128
     /tmp/ccYWmO80.s:7785   .debug_str:0000000000000bcb .LASF129
     /tmp/ccYWmO80.s:7627   .debug_str:0000000000000572 .LASF130
     /tmp/ccYWmO80.s:7593   .debug_str:0000000000000494 .LASF131
     /tmp/ccYWmO80.s:7703   .debug_str:0000000000000834 .LASF132
     /tmp/ccYWmO80.s:7683   .debug_str:000000000000077c .LASF133
     /tmp/ccYWmO80.s:7749   .debug_str:0000000000000a6d .LASF134
     /tmp/ccYWmO80.s:7661   .debug_str:000000000000069e .LASF135
     /tmp/ccYWmO80.s:7657   .debug_str:0000000000000683 .LASF136
     /tmp/ccYWmO80.s:7609   .debug_str:000000000000050d .LASF158
     /tmp/ccYWmO80.s:7599   .debug_str:00000000000004b8 .LASF159
     /tmp/ccYWmO80.s:7511   .debug_str:00000000000000a7 .LASF137
     /tmp/ccYWmO80.s:7653   .debug_str:0000000000000659 .LASF139
     /tmp/ccYWmO80.s:7555   .debug_str:000000000000027e .LASF140
     /tmp/ccYWmO80.s:7789   .debug_str:0000000000000bed .LASF141
     /tmp/ccYWmO80.s:7625   .debug_str:0000000000000567 .LASF142
     /tmp/ccYWmO80.s:7589   .debug_str:0000000000000474 .LASF143
     /tmp/ccYWmO80.s:7543   .debug_str:00000000000001a4 .LASF144
     /tmp/ccYWmO80.s:630    .text._ZN19ConsumerProducerCPP16ProducerKeyboradD0Ev:0000000000000000 .LVL65
     /tmp/ccYWmO80.s:662    .text._ZN19ConsumerProducerCPP16ProducerKeyboradD0Ev:0000000000000044 .LVL69
     /tmp/ccYWmO80.s:642    .text._ZN19ConsumerProducerCPP16ProducerKeyboradD0Ev:0000000000000018 .LVL66
     /tmp/ccYWmO80.s:593    .text._ZN19ConsumerProducerCPP16ProducerKeyboradD2Ev:0000000000000000 .LVL63
     /tmp/ccYWmO80.s:714    .text._ZN19ConsumerProducerCPP8ProducerD0Ev:0000000000000000 .LVL72
     /tmp/ccYWmO80.s:746    .text._ZN19ConsumerProducerCPP8ProducerD0Ev:0000000000000044 .LVL76
     /tmp/ccYWmO80.s:726    .text._ZN19ConsumerProducerCPP8ProducerD0Ev:0000000000000018 .LVL73
     /tmp/ccYWmO80.s:677    .text._ZN19ConsumerProducerCPP8ProducerD2Ev:0000000000000000 .LVL70
     /tmp/ccYWmO80.s:546    .text._ZN19ConsumerProducerCPP8ConsumerD0Ev:0000000000000000 .LVL58
     /tmp/ccYWmO80.s:578    .text._ZN19ConsumerProducerCPP8ConsumerD0Ev:0000000000000044 .LVL62
     /tmp/ccYWmO80.s:558    .text._ZN19ConsumerProducerCPP8ConsumerD0Ev:0000000000000018 .LVL59
     /tmp/ccYWmO80.s:509    .text._ZN19ConsumerProducerCPP8ConsumerD2Ev:0000000000000000 .LVL56
     /tmp/ccYWmO80.s:1673   .text:00000000000007d0 .LVL186
     /tmp/ccYWmO80.s:1750   .text:0000000000000890 .LVL198
     /tmp/ccYWmO80.s:2071   .text:0000000000000b00 .LVL238
     /tmp/ccYWmO80.s:2075   .text:0000000000000b04 .LVL239
     /tmp/ccYWmO80.s:1655   .text:00000000000007a0 .LVL182
     /tmp/ccYWmO80.s:2053   .text:0000000000000adc .LVL237
     /tmp/ccYWmO80.s:2087   .text:0000000000000b20 .LVL242
     /tmp/ccYWmO80.s:2111   .text:0000000000000b58 .LVL248
     /tmp/ccYWmO80.s:1742   .text:0000000000000880 .LVL196
     /tmp/ccYWmO80.s:2039   .text:0000000000000ac8 .LVL236
     /tmp/ccYWmO80.s:1770   .text:00000000000008c0 .LVL201
     /tmp/ccYWmO80.s:1782   .text:00000000000008dc .LVL203
     /tmp/ccYWmO80.s:1784   .text:00000000000008e0 .LVL204
     /tmp/ccYWmO80.s:1825   .text:000000000000093c .LVL208
GAS LISTING /tmp/ccYWmO80.s 			page 80


     /tmp/ccYWmO80.s:1882   .text:00000000000009a0 .LVL215
     /tmp/ccYWmO80.s:1959   .text:0000000000000a30 .LVL224
     /tmp/ccYWmO80.s:2123   .text:0000000000000b74 .LVL251
     /tmp/ccYWmO80.s:1890   .text:00000000000009b0 .LVL216
     /tmp/ccYWmO80.s:1937   .text:0000000000000a18 .LVL220
     /tmp/ccYWmO80.s:1946   .text:0000000000000a24 .LVL222
     /tmp/ccYWmO80.s:1970   .text:0000000000000a48 .LVL226
     /tmp/ccYWmO80.s:1972   .text:0000000000000a4c .LVL227
     /tmp/ccYWmO80.s:1989   .text:0000000000000a68 .LVL229
     /tmp/ccYWmO80.s:1991   .text:0000000000000a6c .LVL230
     /tmp/ccYWmO80.s:1763   .text:00000000000008ac .LVL200
     /tmp/ccYWmO80.s:1774   .text:00000000000008c4 .LVL202
     /tmp/ccYWmO80.s:1813   .text:0000000000000924 .LVL206
     /tmp/ccYWmO80.s:2099   .text:0000000000000b3c .LVL245
     /tmp/ccYWmO80.s:1854   .text:0000000000000970 .LVL211
     /tmp/ccYWmO80.s:1866   .text:0000000000000988 .LVL213
     /tmp/ccYWmO80.s:385    .text._ZN19ConsumerProducerCPP8Consumer3runEv:0000000000000000 .LVL40
     /tmp/ccYWmO80.s:406    .text._ZN19ConsumerProducerCPP8Consumer3runEv:0000000000000028 .LVL42
     /tmp/ccYWmO80.s:491    .text._ZN19ConsumerProducerCPP8Consumer3runEv:00000000000000c4 .LVL54
     /tmp/ccYWmO80.s:402    .text._ZN19ConsumerProducerCPP8Consumer3runEv:0000000000000020 .LVL41
     /tmp/ccYWmO80.s:432    .text._ZN19ConsumerProducerCPP8Consumer3runEv:0000000000000058 .LVL45
     /tmp/ccYWmO80.s:443    .text._ZN19ConsumerProducerCPP8Consumer3runEv:000000000000006c .LVL48
     /tmp/ccYWmO80.s:494    .text._ZN19ConsumerProducerCPP8Consumer3runEv:00000000000000c8 .LVL55
     /tmp/ccYWmO80.s:436    .text._ZN19ConsumerProducerCPP8Consumer3runEv:000000000000005c .LVL46
     /tmp/ccYWmO80.s:460    .text._ZN19ConsumerProducerCPP8Consumer3runEv:0000000000000088 .LVL50
     /tmp/ccYWmO80.s:841    .text._ZN19ConsumerProducerCPP8Producer3runEv:0000000000000000 .LVL88
     /tmp/ccYWmO80.s:859    .text._ZN19ConsumerProducerCPP8Producer3runEv:0000000000000020 .LVL90
     /tmp/ccYWmO80.s:908    .text._ZN19ConsumerProducerCPP8Producer3runEv:0000000000000088 .LVL95
     /tmp/ccYWmO80.s:856    .text._ZN19ConsumerProducerCPP8Producer3runEv:000000000000001c .LVL89
     /tmp/ccYWmO80.s:878    .text._ZN19ConsumerProducerCPP8Producer3runEv:000000000000004c .LVL92
     /tmp/ccYWmO80.s:911    .text._ZN19ConsumerProducerCPP8Producer3runEv:000000000000008c .LVL96
     /tmp/ccYWmO80.s:761    .text._ZN19ConsumerProducerCPP16ProducerKeyborad3runEv:0000000000000000 .LVL77
     /tmp/ccYWmO80.s:775    .text._ZN19ConsumerProducerCPP16ProducerKeyborad3runEv:0000000000000018 .LVL78
     /tmp/ccYWmO80.s:826    .text._ZN19ConsumerProducerCPP16ProducerKeyborad3runEv:000000000000007c .LVL87
     /tmp/ccYWmO80.s:784    .text._ZN19ConsumerProducerCPP16ProducerKeyborad3runEv:0000000000000024 .LVL80
     /tmp/ccYWmO80.s:797    .text._ZN19ConsumerProducerCPP16ProducerKeyborad3runEv:0000000000000040 .LVL82
     /tmp/ccYWmO80.s:807    .text._ZN19ConsumerProducerCPP16ProducerKeyborad3runEv:0000000000000054 .LVL83
     /tmp/ccYWmO80.s:809    .text._ZN19ConsumerProducerCPP16ProducerKeyborad3runEv:0000000000000058 .LVL84
     /tmp/ccYWmO80.s:1522   .text:00000000000006d0 .LVL174
     /tmp/ccYWmO80.s:1527   .text:00000000000006d8 .LVL175
     /tmp/ccYWmO80.s:1567   .text:000000000000072c .LVL178
     /tmp/ccYWmO80.s:296    .text:00000000000001a0 .LVL31
     /tmp/ccYWmO80.s:316    .text:00000000000001c0 .LVL33
     /tmp/ccYWmO80.s:312    .text:00000000000001bc .LVL32
     /tmp/ccYWmO80.s:352    .text:0000000000000214 .LVL39
     /tmp/ccYWmO80.s:321    .text:00000000000001c4 .LVL34
     /tmp/ccYWmO80.s:1458   .text:0000000000000678 .LVL167
     /tmp/ccYWmO80.s:1462   .text:000000000000067c .LVL168
     /tmp/ccYWmO80.s:1467   .text:0000000000000684 .LVL169
     /tmp/ccYWmO80.s:1477   .text:0000000000000698 .LVL171
     /tmp/ccYWmO80.s:1488   .text:00000000000006a4 .LVL172
     /tmp/ccYWmO80.s:1206   .text:0000000000000438 .LVL133
     /tmp/ccYWmO80.s:1224   .text:0000000000000458 .LVL135
     /tmp/ccYWmO80.s:1220   .text:0000000000000450 .LVL134
     /tmp/ccYWmO80.s:1245   .text:0000000000000490 .LVL139
     /tmp/ccYWmO80.s:1247   .text:0000000000000494 .LVL140
     /tmp/ccYWmO80.s:1315   .text:0000000000000538 .LVL152
GAS LISTING /tmp/ccYWmO80.s 			page 81


     /tmp/ccYWmO80.s:1317   .text:000000000000053c .LVL153
     /tmp/ccYWmO80.s:1344   .text:0000000000000574 .LVL156
     /tmp/ccYWmO80.s:1275   .text:00000000000004c8 .LVL144
     /tmp/ccYWmO80.s:1279   .text:00000000000004d0 .LVL145
     /tmp/ccYWmO80.s:1347   .text:0000000000000578 .LVL157
     /tmp/ccYWmO80.s:1011   .text:00000000000002b8 .LVL104
     /tmp/ccYWmO80.s:1029   .text:00000000000002d8 .LVL106
     /tmp/ccYWmO80.s:1025   .text:00000000000002d0 .LVL105
     /tmp/ccYWmO80.s:1050   .text:0000000000000310 .LVL110
     /tmp/ccYWmO80.s:1052   .text:0000000000000314 .LVL111
     /tmp/ccYWmO80.s:1146   .text:00000000000003f0 .LVL127
     /tmp/ccYWmO80.s:1148   .text:00000000000003f4 .LVL128
     /tmp/ccYWmO80.s:1175   .text:000000000000042c .LVL131
     /tmp/ccYWmO80.s:1081   .text:000000000000033c .LVL114
     /tmp/ccYWmO80.s:1106   .text:0000000000000380 .LVL119
     /tmp/ccYWmO80.s:1110   .text:0000000000000388 .LVL120
     /tmp/ccYWmO80.s:1178   .text:0000000000000430 .LVL132
     /tmp/ccYWmO80.s:158    .text:00000000000000cc .LVL15
     /tmp/ccYWmO80.s:177    .text:00000000000000ec .LVL17
     /tmp/ccYWmO80.s:172    .text:00000000000000e4 .LVL16
     /tmp/ccYWmO80.s:273    .text:0000000000000198 .LVL30
     /tmp/ccYWmO80.s:217    .text:0000000000000120 .LVL23
     /tmp/ccYWmO80.s:245    .text:0000000000000164 .LVL27
     /tmp/ccYWmO80.s:200    .text:0000000000000108 .LVL20
     /tmp/ccYWmO80.s:209    .text:000000000000011c .LVL22
     /tmp/ccYWmO80.s:25     .text:0000000000000000 .LVL0
     /tmp/ccYWmO80.s:44     .text:0000000000000020 .LVL2
     /tmp/ccYWmO80.s:39     .text:0000000000000018 .LVL1
     /tmp/ccYWmO80.s:136    .text:00000000000000c4 .LVL14
     /tmp/ccYWmO80.s:84     .text:0000000000000054 .LVL8
     /tmp/ccYWmO80.s:112    .text:0000000000000098 .LVL12
     /tmp/ccYWmO80.s:67     .text:000000000000003c .LVL5
     /tmp/ccYWmO80.s:76     .text:0000000000000050 .LVL7
     /tmp/ccYWmO80.s:926    .text:0000000000000244 .LVL97
     /tmp/ccYWmO80.s:949    .text:0000000000000274 .LVL98
     /tmp/ccYWmO80.s:973    .text:00000000000002a0 .LVL101
     /tmp/ccYWmO80.s:979    .text:00000000000002ac .LVL102
     /tmp/ccYWmO80.s:2325   .debug_info:0000000000000000 .Ldebug_info0
     /tmp/ccYWmO80.s:5      .text:0000000000000000 .Ltext0
     /tmp/ccYWmO80.s:2317   .text:0000000000000bb4 .Letext0
     /tmp/ccYWmO80.s:47     .text:0000000000000020 .LBB25
     /tmp/ccYWmO80.s:80     .text:0000000000000050 .LBE25
     /tmp/ccYWmO80.s:108    .text:0000000000000090 .LBB29
     /tmp/ccYWmO80.s:114    .text:0000000000000098 .LBE29
     /tmp/ccYWmO80.s:180    .text:00000000000000ec .LBB33
     /tmp/ccYWmO80.s:213    .text:000000000000011c .LBE33
     /tmp/ccYWmO80.s:241    .text:000000000000015c .LBB37
     /tmp/ccYWmO80.s:247    .text:0000000000000164 .LBE37
     /tmp/ccYWmO80.s:408    .text._ZN19ConsumerProducerCPP8Consumer3runEv:0000000000000028 .LBB39
     /tmp/ccYWmO80.s:415    .text._ZN19ConsumerProducerCPP8Consumer3runEv:0000000000000034 .LBE39
     /tmp/ccYWmO80.s:420    .text._ZN19ConsumerProducerCPP8Consumer3runEv:0000000000000040 .LBB40
     /tmp/ccYWmO80.s:448    .text._ZN19ConsumerProducerCPP8Consumer3runEv:0000000000000074 .LBE40
     /tmp/ccYWmO80.s:1878   .text:0000000000000998 .LBB57
     /tmp/ccYWmO80.s:1950   .text:0000000000000a24 .LBE57
     /tmp/ccYWmO80.s:2124   .text:0000000000000b74 .LBB65
     /tmp/ccYWmO80.s:2134   .text:0000000000000b8c .LBE65
     /tmp/ccYWmO80.s:1893   .text:00000000000009b0 .LBE58
GAS LISTING /tmp/ccYWmO80.s 			page 82


     /tmp/ccYWmO80.s:1939   .text:0000000000000a18 .LBB61
     /tmp/ccYWmO80.s:1949   .text:0000000000000a24 .LBE61
     /tmp/ccYWmO80.s:1956   .text:0000000000000a2c .LBB62
     /tmp/ccYWmO80.s:1974   .text:0000000000000a4c .LBE62
     /tmp/ccYWmO80.s:1986   .text:0000000000000a64 .LBB63
     /tmp/ccYWmO80.s:1993   .text:0000000000000a6c .LBE63
     /tmp/ccYWmO80.s:2139   .gcc_except_table:0000000000000000 .LLSDA34
                           .group:0000000000000000 _ZN19ConsumerProducerCPP8ConsumerD5Ev
                           .group:0000000000000000 _ZN19ConsumerProducerCPP16ProducerKeyboradD5Ev
                           .group:0000000000000000 _ZN19ConsumerProducerCPP8ProducerD5Ev

UNDEFINED SYMBOLS
_Z15thread_dispatchv
_Z11printStringPKc
_Z8printIntiii
_Z10time_sleepm
_ZN7Console4putcEc
_ZN9BufferCPP3getEv
_ZN9BufferCPP6getCntEv
_ZN9Semaphore6signalEv
_ZN6ThreadD2Ev
_ZdlPv
_Z4getcv
_ZN9BufferCPP3putEi
_ZN6Thread5sleepEm
_Z13thread_createPP7_threadPFvPvES2_
_ZN7_threaddlEPv
_Z9getStringPci
_Z11stringToIntPKc
_Znwm
_ZN9BufferCPPC1Ei
_ZN9SemaphoreC1Ej
_ZN6ThreadC2Ev
_ZN6Thread5startEv
_ZN6Thread8dispatchEv
_ZN9Semaphore4waitEv
_ZN9BufferCPPD1Ev
_Unwind_Resume
__gxx_personality_v0
