GAS LISTING /tmp/cckqcdzN.s 			page 1


   1              		.file	"userMain.cpp"
   2              		.option pic
   3              		.option norelax
   4              		.text
   5              	.Ltext0:
   6              		.section	.rodata.str1.8,"aMS",@progbits,1
   7              		.align	3
   8              	.LC0:
   9 0000 413A2069 		.string	"A: i="
   9      3D00
  10 0006 0000     		.align	3
  11              	.LC1:
  12 0008 0A00     		.string	"\n"
  13 000a 00000000 		.align	3
  13      0000
  14              	.LC2:
  15 0010 41206669 		.string	"A finished!\n"
  15      6E697368 
  15      6564210A 
  15      00
  16              		.text
  17              		.align	2
  18              		.globl	_Z11workerBodyAPv
  20              	_Z11workerBodyAPv:
  21              	.LFB13:
  22              		.file 1 "tests/Threads_C_API_test.hpp"
   1:tests/Threads_C_API_test.hpp **** #ifndef XV6_THREADS_C_API_TEST_HPP
   2:tests/Threads_C_API_test.hpp **** #define XV6_THREADS_C_API_TEST_HPP
   3:tests/Threads_C_API_test.hpp **** 
   4:tests/Threads_C_API_test.hpp **** #include "../h/syscall_c.h"
   5:tests/Threads_C_API_test.hpp **** 
   6:tests/Threads_C_API_test.hpp **** #include "../h/printing.hpp"
   7:tests/Threads_C_API_test.hpp **** 
   8:tests/Threads_C_API_test.hpp **** bool finishedA = false;
   9:tests/Threads_C_API_test.hpp **** bool finishedB = false;
  10:tests/Threads_C_API_test.hpp **** bool finishedC = false;
  11:tests/Threads_C_API_test.hpp **** bool finishedD = false;
  12:tests/Threads_C_API_test.hpp **** 
  13:tests/Threads_C_API_test.hpp **** uint64 fibonacci(uint64 n) {
  14:tests/Threads_C_API_test.hpp ****     if (n == 0 || n == 1) { return n; }
  15:tests/Threads_C_API_test.hpp ****     if (n % 10 == 0) { thread_dispatch(); }
  16:tests/Threads_C_API_test.hpp ****     return fibonacci(n - 1) + fibonacci(n - 2);
  17:tests/Threads_C_API_test.hpp **** }
  18:tests/Threads_C_API_test.hpp **** 
  19:tests/Threads_C_API_test.hpp **** void workerBodyA(void* arg) {
  23              		.loc 1 19 29
  24              		.cfi_startproc
  25              	.LVL0:
  26 0000 130101FE 		addi	sp,sp,-32
  27              		.cfi_def_cfa_offset 32
  28 0004 233C1100 		sd	ra,24(sp)
  29 0008 23388100 		sd	s0,16(sp)
  30 000c 23349100 		sd	s1,8(sp)
  31 0010 23302101 		sd	s2,0(sp)
  32              		.cfi_offset 1, -8
  33              		.cfi_offset 8, -16
  34              		.cfi_offset 9, -24
GAS LISTING /tmp/cckqcdzN.s 			page 2


  35              		.cfi_offset 18, -32
  36 0014 13040102 		addi	s0,sp,32
  37              		.cfi_def_cfa 8, 0
  20:tests/Threads_C_API_test.hpp ****     for (uint64 i = 0; i < 10; i++) {
  38              		.loc 1 20 5
  39              	.LVL1:
  40              	.LBB23:
  41              		.loc 1 20 17 is_stmt 0
  42 0018 13090000 		li	s2,0
  43 001c 6F008003 		j	.L7
  44              	.LVL2:
  45              	.L4:
  46              	.LBB24:
  47              	.LBB25:
  48              	.LBB26:
  21:tests/Threads_C_API_test.hpp ****         printString("A: i="); printInt(i); printString("\n");
  22:tests/Threads_C_API_test.hpp ****         for (uint64 j = 0; j < 10000; j++) {
  23:tests/Threads_C_API_test.hpp ****             for (uint64 k = 0; k < 30000; k++) { /* busy wait */ }
  24:tests/Threads_C_API_test.hpp ****             thread_dispatch();
  49              		.loc 1 24 13 is_stmt 1 discriminator 2
  50              		.loc 1 24 28 is_stmt 0 discriminator 2
  51 0020 97000000 		call	_Z15thread_dispatchv@plt
  51      E7800000 
  52              	.LVL3:
  53              	.LBE26:
  22:tests/Threads_C_API_test.hpp ****             for (uint64 k = 0; k < 30000; k++) { /* busy wait */ }
  54              		.loc 1 22 9 is_stmt 1 discriminator 2
  55 0028 93841400 		addi	s1,s1,1
  56              	.LVL4:
  57              	.L6:
  22:tests/Threads_C_API_test.hpp ****             for (uint64 k = 0; k < 30000; k++) { /* busy wait */ }
  58              		.loc 1 22 30 discriminator 1
  59 002c B7270000 		li	a5,8192
  60 0030 9387F770 		addi	a5,a5,1807
  61 0034 63EE9700 		bgtu	s1,a5,.L3
  62              	.LBB28:
  63              	.LBB27:
  23:tests/Threads_C_API_test.hpp ****             thread_dispatch();
  64              		.loc 1 23 25 is_stmt 0
  65 0038 13070000 		li	a4,0
  66              	.L5:
  67              	.LVL5:
  23:tests/Threads_C_API_test.hpp ****             thread_dispatch();
  68              		.loc 1 23 34 is_stmt 1 discriminator 3
  69 003c B7770000 		li	a5,28672
  70 0040 9387F752 		addi	a5,a5,1327
  71 0044 E3EEE7FC 		bgtu	a4,a5,.L4
  23:tests/Threads_C_API_test.hpp ****             thread_dispatch();
  72              		.loc 1 23 13 discriminator 2
  73 0048 13071700 		addi	a4,a4,1
  74              	.LVL6:
  75 004c 6FF01FFF 		j	.L5
  76              	.LVL7:
  77              	.L3:
  78              	.LBE27:
  79              	.LBE28:
  80              	.LBE25:
GAS LISTING /tmp/cckqcdzN.s 			page 3


  81              	.LBE24:
  20:tests/Threads_C_API_test.hpp ****         printString("A: i="); printInt(i); printString("\n");
  82              		.loc 1 20 5 discriminator 2
  83 0050 13091900 		addi	s2,s2,1
  84              	.LVL8:
  85              	.L7:
  20:tests/Threads_C_API_test.hpp ****         printString("A: i="); printInt(i); printString("\n");
  86              		.loc 1 20 26 discriminator 1
  87 0054 93079000 		li	a5,9
  88 0058 63E02705 		bgtu	s2,a5,.L2
  89              	.LBB30:
  21:tests/Threads_C_API_test.hpp ****         for (uint64 j = 0; j < 10000; j++) {
  90              		.loc 1 21 9
  21:tests/Threads_C_API_test.hpp ****         for (uint64 j = 0; j < 10000; j++) {
  91              		.loc 1 21 20 is_stmt 0
  92 005c 17050000 		lla	a0,.LC0
  92      13050500 
  93 0064 97000000 		call	_Z11printStringPKc@plt
  93      E7800000 
  94              	.LVL9:
  21:tests/Threads_C_API_test.hpp ****         for (uint64 j = 0; j < 10000; j++) {
  95              		.loc 1 21 31 is_stmt 1
  21:tests/Threads_C_API_test.hpp ****         for (uint64 j = 0; j < 10000; j++) {
  96              		.loc 1 21 39 is_stmt 0
  97 006c 13060000 		li	a2,0
  98 0070 9305A000 		li	a1,10
  99 0074 1B050900 		sext.w	a0,s2
 100 0078 97000000 		call	_Z8printIntiii@plt
 100      E7800000 
 101              	.LVL10:
  21:tests/Threads_C_API_test.hpp ****         for (uint64 j = 0; j < 10000; j++) {
 102              		.loc 1 21 44 is_stmt 1
  21:tests/Threads_C_API_test.hpp ****         for (uint64 j = 0; j < 10000; j++) {
 103              		.loc 1 21 55 is_stmt 0
 104 0080 17050000 		lla	a0,.LC1
 104      13050500 
 105 0088 97000000 		call	_Z11printStringPKc@plt
 105      E7800000 
 106              	.LVL11:
  22:tests/Threads_C_API_test.hpp ****             for (uint64 k = 0; k < 30000; k++) { /* busy wait */ }
 107              		.loc 1 22 9 is_stmt 1
 108              	.LBB29:
  22:tests/Threads_C_API_test.hpp ****             for (uint64 k = 0; k < 30000; k++) { /* busy wait */ }
 109              		.loc 1 22 21 is_stmt 0
 110 0090 93040000 		li	s1,0
 111 0094 6FF09FF9 		j	.L6
 112              	.LVL12:
 113              	.L2:
 114              	.LBE29:
 115              	.LBE30:
 116              	.LBE23:
  25:tests/Threads_C_API_test.hpp ****         }
  26:tests/Threads_C_API_test.hpp ****     }
  27:tests/Threads_C_API_test.hpp ****     printString("A finished!\n");
 117              		.loc 1 27 5 is_stmt 1
 118              		.loc 1 27 16 is_stmt 0
 119 0098 17050000 		lla	a0,.LC2
GAS LISTING /tmp/cckqcdzN.s 			page 4


 119      13050500 
 120 00a0 97000000 		call	_Z11printStringPKc@plt
 120      E7800000 
 121              	.LVL13:
  28:tests/Threads_C_API_test.hpp ****     finishedA = true;
 122              		.loc 1 28 5 is_stmt 1
 123              		.loc 1 28 15 is_stmt 0
 124 00a8 93071000 		li	a5,1
 125 00ac 17070000 		sb	a5,.LANCHOR0,a4
 125      2300F700 
  29:tests/Threads_C_API_test.hpp **** }
 126              		.loc 1 29 1
 127 00b4 83308101 		ld	ra,24(sp)
 128              		.cfi_restore 1
 129 00b8 03340101 		ld	s0,16(sp)
 130              		.cfi_restore 8
 131              		.cfi_def_cfa 2, 32
 132 00bc 83348100 		ld	s1,8(sp)
 133              		.cfi_restore 9
 134 00c0 03390100 		ld	s2,0(sp)
 135              		.cfi_restore 18
 136              	.LVL14:
 137 00c4 13010102 		addi	sp,sp,32
 138              		.cfi_def_cfa_offset 0
 139 00c8 67800000 		jr	ra
 140              		.cfi_endproc
 141              	.LFE13:
 143              		.section	.rodata.str1.8
 144 001d 000000   		.align	3
 145              	.LC3:
 146 0020 423A2069 		.string	"B: i="
 146      3D00
 147 0026 0000     		.align	3
 148              	.LC4:
 149 0028 42206669 		.string	"B finished!\n"
 149      6E697368 
 149      6564210A 
 149      00
 150              		.text
 151              		.align	2
 152              		.globl	_Z11workerBodyBPv
 154              	_Z11workerBodyBPv:
 155              	.LFB14:
  30:tests/Threads_C_API_test.hpp **** 
  31:tests/Threads_C_API_test.hpp **** void workerBodyB(void* arg) {
 156              		.loc 1 31 29 is_stmt 1
 157              		.cfi_startproc
 158              	.LVL15:
 159 00cc 130101FE 		addi	sp,sp,-32
 160              		.cfi_def_cfa_offset 32
 161 00d0 233C1100 		sd	ra,24(sp)
 162 00d4 23388100 		sd	s0,16(sp)
 163 00d8 23349100 		sd	s1,8(sp)
 164 00dc 23302101 		sd	s2,0(sp)
 165              		.cfi_offset 1, -8
 166              		.cfi_offset 8, -16
 167              		.cfi_offset 9, -24
GAS LISTING /tmp/cckqcdzN.s 			page 5


 168              		.cfi_offset 18, -32
 169 00e0 13040102 		addi	s0,sp,32
 170              		.cfi_def_cfa 8, 0
  32:tests/Threads_C_API_test.hpp ****     for (uint64 i = 0; i < 16; i++) {
 171              		.loc 1 32 5
 172              	.LVL16:
 173              	.LBB31:
 174              		.loc 1 32 17 is_stmt 0
 175 00e4 13090000 		li	s2,0
 176 00e8 6F008003 		j	.L15
 177              	.LVL17:
 178              	.L12:
 179              	.LBB32:
 180              	.LBB33:
 181              	.LBB34:
  33:tests/Threads_C_API_test.hpp ****         printString("B: i="); printInt(i); printString("\n");
  34:tests/Threads_C_API_test.hpp ****         for (uint64 j = 0; j < 10000; j++) {
  35:tests/Threads_C_API_test.hpp ****             for (uint64 k = 0; k < 30000; k++) { /* busy wait */ }
  36:tests/Threads_C_API_test.hpp ****             thread_dispatch();
 182              		.loc 1 36 13 is_stmt 1 discriminator 2
 183              		.loc 1 36 28 is_stmt 0 discriminator 2
 184 00ec 97000000 		call	_Z15thread_dispatchv@plt
 184      E7800000 
 185              	.LVL18:
 186              	.LBE34:
  34:tests/Threads_C_API_test.hpp ****             for (uint64 k = 0; k < 30000; k++) { /* busy wait */ }
 187              		.loc 1 34 9 is_stmt 1 discriminator 2
 188 00f4 93841400 		addi	s1,s1,1
 189              	.LVL19:
 190              	.L14:
  34:tests/Threads_C_API_test.hpp ****             for (uint64 k = 0; k < 30000; k++) { /* busy wait */ }
 191              		.loc 1 34 30 discriminator 1
 192 00f8 B7270000 		li	a5,8192
 193 00fc 9387F770 		addi	a5,a5,1807
 194 0100 63EE9700 		bgtu	s1,a5,.L11
 195              	.LBB36:
 196              	.LBB35:
  35:tests/Threads_C_API_test.hpp ****             thread_dispatch();
 197              		.loc 1 35 25 is_stmt 0
 198 0104 13070000 		li	a4,0
 199              	.L13:
 200              	.LVL20:
  35:tests/Threads_C_API_test.hpp ****             thread_dispatch();
 201              		.loc 1 35 34 is_stmt 1 discriminator 3
 202 0108 B7770000 		li	a5,28672
 203 010c 9387F752 		addi	a5,a5,1327
 204 0110 E3EEE7FC 		bgtu	a4,a5,.L12
  35:tests/Threads_C_API_test.hpp ****             thread_dispatch();
 205              		.loc 1 35 13 discriminator 2
 206 0114 13071700 		addi	a4,a4,1
 207              	.LVL21:
 208 0118 6FF01FFF 		j	.L13
 209              	.LVL22:
 210              	.L11:
 211              	.LBE35:
 212              	.LBE36:
 213              	.LBE33:
GAS LISTING /tmp/cckqcdzN.s 			page 6


 214              	.LBE32:
  32:tests/Threads_C_API_test.hpp ****         printString("B: i="); printInt(i); printString("\n");
 215              		.loc 1 32 5 discriminator 2
 216 011c 13091900 		addi	s2,s2,1
 217              	.LVL23:
 218              	.L15:
  32:tests/Threads_C_API_test.hpp ****         printString("B: i="); printInt(i); printString("\n");
 219              		.loc 1 32 26 discriminator 1
 220 0120 9307F000 		li	a5,15
 221 0124 63E02705 		bgtu	s2,a5,.L10
 222              	.LBB38:
  33:tests/Threads_C_API_test.hpp ****         for (uint64 j = 0; j < 10000; j++) {
 223              		.loc 1 33 9
  33:tests/Threads_C_API_test.hpp ****         for (uint64 j = 0; j < 10000; j++) {
 224              		.loc 1 33 20 is_stmt 0
 225 0128 17050000 		lla	a0,.LC3
 225      13050500 
 226 0130 97000000 		call	_Z11printStringPKc@plt
 226      E7800000 
 227              	.LVL24:
  33:tests/Threads_C_API_test.hpp ****         for (uint64 j = 0; j < 10000; j++) {
 228              		.loc 1 33 31 is_stmt 1
  33:tests/Threads_C_API_test.hpp ****         for (uint64 j = 0; j < 10000; j++) {
 229              		.loc 1 33 39 is_stmt 0
 230 0138 13060000 		li	a2,0
 231 013c 9305A000 		li	a1,10
 232 0140 1B050900 		sext.w	a0,s2
 233 0144 97000000 		call	_Z8printIntiii@plt
 233      E7800000 
 234              	.LVL25:
  33:tests/Threads_C_API_test.hpp ****         for (uint64 j = 0; j < 10000; j++) {
 235              		.loc 1 33 44 is_stmt 1
  33:tests/Threads_C_API_test.hpp ****         for (uint64 j = 0; j < 10000; j++) {
 236              		.loc 1 33 55 is_stmt 0
 237 014c 17050000 		lla	a0,.LC1
 237      13050500 
 238 0154 97000000 		call	_Z11printStringPKc@plt
 238      E7800000 
 239              	.LVL26:
  34:tests/Threads_C_API_test.hpp ****             for (uint64 k = 0; k < 30000; k++) { /* busy wait */ }
 240              		.loc 1 34 9 is_stmt 1
 241              	.LBB37:
  34:tests/Threads_C_API_test.hpp ****             for (uint64 k = 0; k < 30000; k++) { /* busy wait */ }
 242              		.loc 1 34 21 is_stmt 0
 243 015c 93040000 		li	s1,0
 244 0160 6FF09FF9 		j	.L14
 245              	.LVL27:
 246              	.L10:
 247              	.LBE37:
 248              	.LBE38:
 249              	.LBE31:
  37:tests/Threads_C_API_test.hpp ****         }
  38:tests/Threads_C_API_test.hpp ****     }
  39:tests/Threads_C_API_test.hpp ****     printString("B finished!\n");
 250              		.loc 1 39 5 is_stmt 1
 251              		.loc 1 39 16 is_stmt 0
 252 0164 17050000 		lla	a0,.LC4
GAS LISTING /tmp/cckqcdzN.s 			page 7


 252      13050500 
 253 016c 97000000 		call	_Z11printStringPKc@plt
 253      E7800000 
 254              	.LVL28:
  40:tests/Threads_C_API_test.hpp ****     finishedB = true;
 255              		.loc 1 40 5 is_stmt 1
 256              		.loc 1 40 15 is_stmt 0
 257 0174 93071000 		li	a5,1
 258 0178 17070000 		sb	a5,.LANCHOR0+1,a4
 258      2300F700 
  41:tests/Threads_C_API_test.hpp ****     thread_dispatch();
 259              		.loc 1 41 5 is_stmt 1
 260              		.loc 1 41 20 is_stmt 0
 261 0180 97000000 		call	_Z15thread_dispatchv@plt
 261      E7800000 
 262              	.LVL29:
  42:tests/Threads_C_API_test.hpp **** }
 263              		.loc 1 42 1
 264 0188 83308101 		ld	ra,24(sp)
 265              		.cfi_restore 1
 266 018c 03340101 		ld	s0,16(sp)
 267              		.cfi_restore 8
 268              		.cfi_def_cfa 2, 32
 269 0190 83348100 		ld	s1,8(sp)
 270              		.cfi_restore 9
 271 0194 03390100 		ld	s2,0(sp)
 272              		.cfi_restore 18
 273              	.LVL30:
 274 0198 13010102 		addi	sp,sp,32
 275              		.cfi_def_cfa_offset 0
 276 019c 67800000 		jr	ra
 277              		.cfi_endproc
 278              	.LFE14:
 280              		.section	.text._ZN19ConsumerProducerCPP8Consumer3runEv,"axG",@progbits,_ZN19ConsumerProducerCPP8Co
 281              		.align	2
 282              		.weak	_ZN19ConsumerProducerCPP8Consumer3runEv
 284              	_ZN19ConsumerProducerCPP8Consumer3runEv:
 285              	.LFB31:
 286              		.file 2 "tests/ConsumerProducer_CPP_API_test.hpp"
   1:tests/ConsumerProducer_CPP_API_test.hpp **** //
   2:tests/ConsumerProducer_CPP_API_test.hpp **** // Created by os on 4/17/22.
   3:tests/ConsumerProducer_CPP_API_test.hpp **** //
   4:tests/ConsumerProducer_CPP_API_test.hpp **** 
   5:tests/ConsumerProducer_CPP_API_test.hpp **** #ifndef XV6_CONSUMERPRODUCER_CPP_API_TEST_HPP
   6:tests/ConsumerProducer_CPP_API_test.hpp **** #define XV6_CONSUMERPRODUCER_CPP_API_TEST_HPP
   7:tests/ConsumerProducer_CPP_API_test.hpp **** 
   8:tests/ConsumerProducer_CPP_API_test.hpp **** #include "../h/syscall_cpp.hpp"
   9:tests/ConsumerProducer_CPP_API_test.hpp **** 
  10:tests/ConsumerProducer_CPP_API_test.hpp **** #include "buffer_CPP_API.hpp"
  11:tests/ConsumerProducer_CPP_API_test.hpp **** #include "../h/printing.hpp"
  12:tests/ConsumerProducer_CPP_API_test.hpp **** 
  13:tests/ConsumerProducer_CPP_API_test.hpp **** namespace ConsumerProducerCPP {
  14:tests/ConsumerProducer_CPP_API_test.hpp **** 
  15:tests/ConsumerProducer_CPP_API_test.hpp ****     Semaphore *waitForAll;
  16:tests/ConsumerProducer_CPP_API_test.hpp **** 
  17:tests/ConsumerProducer_CPP_API_test.hpp ****     struct thread_data {
  18:tests/ConsumerProducer_CPP_API_test.hpp ****         int id;
GAS LISTING /tmp/cckqcdzN.s 			page 8


  19:tests/ConsumerProducer_CPP_API_test.hpp ****         BufferCPP *buffer;
  20:tests/ConsumerProducer_CPP_API_test.hpp ****         Semaphore *sem;
  21:tests/ConsumerProducer_CPP_API_test.hpp ****     };
  22:tests/ConsumerProducer_CPP_API_test.hpp **** 
  23:tests/ConsumerProducer_CPP_API_test.hpp ****     volatile int threadEnd = 0;
  24:tests/ConsumerProducer_CPP_API_test.hpp **** 
  25:tests/ConsumerProducer_CPP_API_test.hpp ****     class ProducerKeyborad : public Thread {
  26:tests/ConsumerProducer_CPP_API_test.hpp ****         thread_data *td;
  27:tests/ConsumerProducer_CPP_API_test.hpp ****     public:
  28:tests/ConsumerProducer_CPP_API_test.hpp ****         ProducerKeyborad(thread_data *_td) : Thread(), td(_td) {}
  29:tests/ConsumerProducer_CPP_API_test.hpp **** 
  30:tests/ConsumerProducer_CPP_API_test.hpp ****         void run() override {
  31:tests/ConsumerProducer_CPP_API_test.hpp ****             int key;
  32:tests/ConsumerProducer_CPP_API_test.hpp ****             int i = 0;
  33:tests/ConsumerProducer_CPP_API_test.hpp ****             while ((key = getc()) != 0x1b) {
  34:tests/ConsumerProducer_CPP_API_test.hpp ****                 td->buffer->put(key);
  35:tests/ConsumerProducer_CPP_API_test.hpp ****                 i++;
  36:tests/ConsumerProducer_CPP_API_test.hpp ****             }
  37:tests/ConsumerProducer_CPP_API_test.hpp **** 
  38:tests/ConsumerProducer_CPP_API_test.hpp ****             threadEnd = 1;
  39:tests/ConsumerProducer_CPP_API_test.hpp ****             td->buffer->put('!');
  40:tests/ConsumerProducer_CPP_API_test.hpp **** 
  41:tests/ConsumerProducer_CPP_API_test.hpp ****             td->sem->signal();
  42:tests/ConsumerProducer_CPP_API_test.hpp ****         }
  43:tests/ConsumerProducer_CPP_API_test.hpp ****     };
  44:tests/ConsumerProducer_CPP_API_test.hpp **** 
  45:tests/ConsumerProducer_CPP_API_test.hpp ****     class Producer : public Thread {
  46:tests/ConsumerProducer_CPP_API_test.hpp ****         thread_data *td;
  47:tests/ConsumerProducer_CPP_API_test.hpp ****     public:
  48:tests/ConsumerProducer_CPP_API_test.hpp ****         Producer(thread_data *_td) : Thread(), td(_td) {}
  49:tests/ConsumerProducer_CPP_API_test.hpp **** 
  50:tests/ConsumerProducer_CPP_API_test.hpp ****         void run() override {
  51:tests/ConsumerProducer_CPP_API_test.hpp ****             int i = 0;
  52:tests/ConsumerProducer_CPP_API_test.hpp ****             while (!threadEnd) {
  53:tests/ConsumerProducer_CPP_API_test.hpp ****                 td->buffer->put(td->id + '0');
  54:tests/ConsumerProducer_CPP_API_test.hpp ****                 i++;
  55:tests/ConsumerProducer_CPP_API_test.hpp ****                 Thread::sleep((i+td->id)%5);
  56:tests/ConsumerProducer_CPP_API_test.hpp ****             }
  57:tests/ConsumerProducer_CPP_API_test.hpp **** 
  58:tests/ConsumerProducer_CPP_API_test.hpp ****             td->sem->signal();
  59:tests/ConsumerProducer_CPP_API_test.hpp ****         }
  60:tests/ConsumerProducer_CPP_API_test.hpp ****     };
  61:tests/ConsumerProducer_CPP_API_test.hpp **** 
  62:tests/ConsumerProducer_CPP_API_test.hpp ****     class Consumer : public Thread {
  63:tests/ConsumerProducer_CPP_API_test.hpp ****         thread_data *td;
  64:tests/ConsumerProducer_CPP_API_test.hpp ****     public:
  65:tests/ConsumerProducer_CPP_API_test.hpp ****         Consumer(thread_data *_td) : Thread(), td(_td) {}
  66:tests/ConsumerProducer_CPP_API_test.hpp **** 
  67:tests/ConsumerProducer_CPP_API_test.hpp ****         void run() override {
 287              		.loc 2 67 14 is_stmt 1
 288              		.cfi_startproc
 289              	.LVL31:
 290 0000 130101FD 		addi	sp,sp,-48
 291              		.cfi_def_cfa_offset 48
 292 0004 23341102 		sd	ra,40(sp)
 293 0008 23308102 		sd	s0,32(sp)
 294 000c 233C9100 		sd	s1,24(sp)
GAS LISTING /tmp/cckqcdzN.s 			page 9


 295 0010 23382101 		sd	s2,16(sp)
 296 0014 23343101 		sd	s3,8(sp)
 297              		.cfi_offset 1, -8
 298              		.cfi_offset 8, -16
 299              		.cfi_offset 9, -24
 300              		.cfi_offset 18, -32
 301              		.cfi_offset 19, -40
 302 0018 13040103 		addi	s0,sp,48
 303              		.cfi_def_cfa 8, 0
 304 001c 13090500 		mv	s2,a0
  68:tests/ConsumerProducer_CPP_API_test.hpp ****             int i = 0;
 305              		.loc 2 68 13
 306              	.LVL32:
 307              		.loc 2 68 17 is_stmt 0
 308 0020 93090000 		li	s3,0
 309 0024 6F000001 		j	.L18
 310              	.LVL33:
 311              	.L23:
 312              	.LBB39:
  69:tests/ConsumerProducer_CPP_API_test.hpp ****             while (!threadEnd) {
  70:tests/ConsumerProducer_CPP_API_test.hpp ****                 int key = td->buffer->get();
  71:tests/ConsumerProducer_CPP_API_test.hpp ****                 i++;
  72:tests/ConsumerProducer_CPP_API_test.hpp **** 
  73:tests/ConsumerProducer_CPP_API_test.hpp ****                 Console::putc(key);
  74:tests/ConsumerProducer_CPP_API_test.hpp **** 
  75:tests/ConsumerProducer_CPP_API_test.hpp ****                 if (i % 80 == 0) {
  76:tests/ConsumerProducer_CPP_API_test.hpp ****                     Console::putc('\n');
 313              		.loc 2 76 21 is_stmt 1
 314              		.loc 2 76 34 is_stmt 0
 315 0028 1305A000 		li	a0,10
 316 002c 97000000 		call	_ZN7Console4putcEc@plt
 316      E7800000 
 317              	.LVL34:
 318              	.L18:
 319              	.LBE39:
  69:tests/ConsumerProducer_CPP_API_test.hpp ****             while (!threadEnd) {
 320              		.loc 2 69 13 is_stmt 1
  69:tests/ConsumerProducer_CPP_API_test.hpp ****             while (!threadEnd) {
 321              		.loc 2 69 20
 322 0034 97070000 		lw	a5,.LANCHOR0+4
 322      83A70700 
 323 003c 639A0704 		bnez	a5,.L19
 324              	.LBB40:
  70:tests/ConsumerProducer_CPP_API_test.hpp ****                 i++;
 325              		.loc 2 70 17
  70:tests/ConsumerProducer_CPP_API_test.hpp ****                 i++;
 326              		.loc 2 70 27 is_stmt 0
 327 0040 83370901 		ld	a5,16(s2)
  70:tests/ConsumerProducer_CPP_API_test.hpp ****                 i++;
 328              		.loc 2 70 42
 329 0044 03B58700 		ld	a0,8(a5)
 330 0048 97000000 		call	_ZN9BufferCPP3getEv@plt
 330      E7800000 
 331              	.LVL35:
  71:tests/ConsumerProducer_CPP_API_test.hpp **** 
 332              		.loc 2 71 17 is_stmt 1
  71:tests/ConsumerProducer_CPP_API_test.hpp **** 
GAS LISTING /tmp/cckqcdzN.s 			page 10


 333              		.loc 2 71 18 is_stmt 0
 334 0050 9B841900 		addiw	s1,s3,1
 335 0054 9B890400 		sext.w	s3,s1
 336              	.LVL36:
  73:tests/ConsumerProducer_CPP_API_test.hpp **** 
 337              		.loc 2 73 17 is_stmt 1
  73:tests/ConsumerProducer_CPP_API_test.hpp **** 
 338              		.loc 2 73 30 is_stmt 0
 339 0058 1375F50F 		andi	a0,a0,0xff
 340              	.LVL37:
 341 005c 97000000 		call	_ZN7Console4putcEc@plt
 341      E7800000 
 342              	.LVL38:
  75:tests/ConsumerProducer_CPP_API_test.hpp ****                     Console::putc('\n');
 343              		.loc 2 75 17 is_stmt 1
  75:tests/ConsumerProducer_CPP_API_test.hpp ****                     Console::putc('\n');
 344              		.loc 2 75 23 is_stmt 0
 345 0064 93070005 		li	a5,80
 346 0068 BBE4F402 		remw	s1,s1,a5
 347              	.LVL39:
  75:tests/ConsumerProducer_CPP_API_test.hpp ****                     Console::putc('\n');
 348              		.loc 2 75 17
 349 006c E39404FC 		bnez	s1,.L18
 350 0070 6FF09FFB 		j	.L23
 351              	.L24:
 352              	.LBE40:
 353              	.LBB41:
  77:tests/ConsumerProducer_CPP_API_test.hpp ****                 }
  78:tests/ConsumerProducer_CPP_API_test.hpp ****             }
  79:tests/ConsumerProducer_CPP_API_test.hpp **** 
  80:tests/ConsumerProducer_CPP_API_test.hpp ****             while (td->buffer->getCnt() > 0) {
  81:tests/ConsumerProducer_CPP_API_test.hpp ****                 int key = td->buffer->get();
 354              		.loc 2 81 17 is_stmt 1
 355              		.loc 2 81 27 is_stmt 0
 356 0074 83370901 		ld	a5,16(s2)
 357              		.loc 2 81 42
 358 0078 03B58700 		ld	a0,8(a5)
 359 007c 97000000 		call	_ZN9BufferCPP3getEv@plt
 359      E7800000 
 360              	.LVL40:
  82:tests/ConsumerProducer_CPP_API_test.hpp ****                 Console::putc(key);
 361              		.loc 2 82 17 is_stmt 1
 362              		.loc 2 82 30 is_stmt 0
 363 0084 1375F50F 		andi	a0,a0,0xff
 364              	.LVL41:
 365 0088 97000000 		call	_ZN7Console4putcEc@plt
 365      E7800000 
 366              	.LVL42:
 367              	.L19:
 368              	.LBE41:
  80:tests/ConsumerProducer_CPP_API_test.hpp ****                 int key = td->buffer->get();
 369              		.loc 2 80 13 is_stmt 1
  80:tests/ConsumerProducer_CPP_API_test.hpp ****                 int key = td->buffer->get();
 370              		.loc 2 80 41
  80:tests/ConsumerProducer_CPP_API_test.hpp ****                 int key = td->buffer->get();
 371              		.loc 2 80 20 is_stmt 0
 372 0090 83370901 		ld	a5,16(s2)
GAS LISTING /tmp/cckqcdzN.s 			page 11


  80:tests/ConsumerProducer_CPP_API_test.hpp ****                 int key = td->buffer->get();
 373              		.loc 2 80 38
 374 0094 03B58700 		ld	a0,8(a5)
 375 0098 97000000 		call	_ZN9BufferCPP6getCntEv@plt
 375      E7800000 
 376              	.LVL43:
  80:tests/ConsumerProducer_CPP_API_test.hpp ****                 int key = td->buffer->get();
 377              		.loc 2 80 41
 378 00a0 E34AA0FC 		bgtz	a0,.L24
  83:tests/ConsumerProducer_CPP_API_test.hpp ****             }
  84:tests/ConsumerProducer_CPP_API_test.hpp **** 
  85:tests/ConsumerProducer_CPP_API_test.hpp ****             td->sem->signal();
 379              		.loc 2 85 13 is_stmt 1
 380 00a4 83370901 		ld	a5,16(s2)
 381              		.loc 2 85 28 is_stmt 0
 382 00a8 03B50701 		ld	a0,16(a5)
 383 00ac 97000000 		call	_ZN9Semaphore6signalEv@plt
 383      E7800000 
 384              	.LVL44:
  86:tests/ConsumerProducer_CPP_API_test.hpp ****         }
 385              		.loc 2 86 9
 386 00b4 83308102 		ld	ra,40(sp)
 387              		.cfi_restore 1
 388 00b8 03340102 		ld	s0,32(sp)
 389              		.cfi_restore 8
 390              		.cfi_def_cfa 2, 48
 391 00bc 83348101 		ld	s1,24(sp)
 392              		.cfi_restore 9
 393 00c0 03390101 		ld	s2,16(sp)
 394              		.cfi_restore 18
 395              	.LVL45:
 396 00c4 83398100 		ld	s3,8(sp)
 397              		.cfi_restore 19
 398              	.LVL46:
 399 00c8 13010103 		addi	sp,sp,48
 400              		.cfi_def_cfa_offset 0
 401 00cc 67800000 		jr	ra
 402              		.cfi_endproc
 403              	.LFE31:
 405              		.section	.text._ZN19ConsumerProducerCPP8ConsumerD2Ev,"axG",@progbits,_ZN19ConsumerProducerCPP8Cons
 406              		.align	2
 407              		.weak	_ZN19ConsumerProducerCPP8ConsumerD2Ev
 409              	_ZN19ConsumerProducerCPP8ConsumerD2Ev:
 410              	.LFB35:
  62:tests/ConsumerProducer_CPP_API_test.hpp ****         thread_data *td;
 411              		.loc 2 62 11 is_stmt 1
 412              		.cfi_startproc
 413              	.LVL47:
 414 0000 130101FF 		addi	sp,sp,-16
 415              		.cfi_def_cfa_offset 16
 416 0004 23341100 		sd	ra,8(sp)
 417 0008 23308100 		sd	s0,0(sp)
 418              		.cfi_offset 1, -8
 419              		.cfi_offset 8, -16
 420 000c 13040101 		addi	s0,sp,16
 421              		.cfi_def_cfa 8, 0
 422              	.LBB42:
GAS LISTING /tmp/cckqcdzN.s 			page 12


  62:tests/ConsumerProducer_CPP_API_test.hpp ****         thread_data *td;
 423              		.loc 2 62 11 is_stmt 0
 424 0010 97070000 		lla	a5,_ZTVN19ConsumerProducerCPP8ConsumerE+16
 424      93870700 
 425 0018 2330F500 		sd	a5,0(a0)
 426 001c 97000000 		call	_ZN6ThreadD2Ev@plt
 426      E7800000 
 427              	.LVL48:
 428              	.LBE42:
 429 0024 83308100 		ld	ra,8(sp)
 430              		.cfi_restore 1
 431 0028 03340100 		ld	s0,0(sp)
 432              		.cfi_restore 8
 433              		.cfi_def_cfa 2, 16
 434 002c 13010101 		addi	sp,sp,16
 435              		.cfi_def_cfa_offset 0
 436 0030 67800000 		jr	ra
 437              		.cfi_endproc
 438              	.LFE35:
 440              		.weak	_ZN19ConsumerProducerCPP8ConsumerD1Ev
 441              		.set	_ZN19ConsumerProducerCPP8ConsumerD1Ev,_ZN19ConsumerProducerCPP8ConsumerD2Ev
 442              		.section	.text._ZN19ConsumerProducerCPP8ConsumerD0Ev,"axG",@progbits,_ZN19ConsumerProducerCPP8Cons
 443              		.align	2
 444              		.weak	_ZN19ConsumerProducerCPP8ConsumerD0Ev
 446              	_ZN19ConsumerProducerCPP8ConsumerD0Ev:
 447              	.LFB37:
  62:tests/ConsumerProducer_CPP_API_test.hpp ****         thread_data *td;
 448              		.loc 2 62 11 is_stmt 1
 449              		.cfi_startproc
 450              	.LVL49:
 451 0000 130101FE 		addi	sp,sp,-32
 452              		.cfi_def_cfa_offset 32
 453 0004 233C1100 		sd	ra,24(sp)
 454 0008 23388100 		sd	s0,16(sp)
 455 000c 23349100 		sd	s1,8(sp)
 456              		.cfi_offset 1, -8
 457              		.cfi_offset 8, -16
 458              		.cfi_offset 9, -24
 459 0010 13040102 		addi	s0,sp,32
 460              		.cfi_def_cfa 8, 0
 461 0014 93040500 		mv	s1,a0
 462              	.LVL50:
 463              	.LBB43:
 464              	.LBB44:
  62:tests/ConsumerProducer_CPP_API_test.hpp ****         thread_data *td;
 465              		.loc 2 62 11 is_stmt 0
 466 0018 97070000 		lla	a5,_ZTVN19ConsumerProducerCPP8ConsumerE+16
 466      93870700 
 467 0020 2330F500 		sd	a5,0(a0)
 468 0024 97000000 		call	_ZN6ThreadD2Ev@plt
 468      E7800000 
 469              	.LVL51:
 470              	.LBE44:
 471              	.LBE43:
 472 002c 13850400 		mv	a0,s1
 473 0030 97000000 		call	_ZdlPv@plt
 473      E7800000 
GAS LISTING /tmp/cckqcdzN.s 			page 13


 474              	.LVL52:
 475 0038 83308101 		ld	ra,24(sp)
 476              		.cfi_restore 1
 477 003c 03340101 		ld	s0,16(sp)
 478              		.cfi_restore 8
 479              		.cfi_def_cfa 2, 32
 480 0040 83348100 		ld	s1,8(sp)
 481              		.cfi_restore 9
 482              	.LVL53:
 483 0044 13010102 		addi	sp,sp,32
 484              		.cfi_def_cfa_offset 0
 485 0048 67800000 		jr	ra
 486              		.cfi_endproc
 487              	.LFE37:
 489              		.section	.text._ZN19ConsumerProducerCPP16ProducerKeyboradD2Ev,"axG",@progbits,_ZN19ConsumerProduce
 490              		.align	2
 491              		.weak	_ZN19ConsumerProducerCPP16ProducerKeyboradD2Ev
 493              	_ZN19ConsumerProducerCPP16ProducerKeyboradD2Ev:
 494              	.LFB43:
  25:tests/ConsumerProducer_CPP_API_test.hpp ****         thread_data *td;
 495              		.loc 2 25 11 is_stmt 1
 496              		.cfi_startproc
 497              	.LVL54:
 498 0000 130101FF 		addi	sp,sp,-16
 499              		.cfi_def_cfa_offset 16
 500 0004 23341100 		sd	ra,8(sp)
 501 0008 23308100 		sd	s0,0(sp)
 502              		.cfi_offset 1, -8
 503              		.cfi_offset 8, -16
 504 000c 13040101 		addi	s0,sp,16
 505              		.cfi_def_cfa 8, 0
 506              	.LBB45:
  25:tests/ConsumerProducer_CPP_API_test.hpp ****         thread_data *td;
 507              		.loc 2 25 11 is_stmt 0
 508 0010 97070000 		lla	a5,_ZTVN19ConsumerProducerCPP16ProducerKeyboradE+16
 508      93870700 
 509 0018 2330F500 		sd	a5,0(a0)
 510 001c 97000000 		call	_ZN6ThreadD2Ev@plt
 510      E7800000 
 511              	.LVL55:
 512              	.LBE45:
 513 0024 83308100 		ld	ra,8(sp)
 514              		.cfi_restore 1
 515 0028 03340100 		ld	s0,0(sp)
 516              		.cfi_restore 8
 517              		.cfi_def_cfa 2, 16
 518 002c 13010101 		addi	sp,sp,16
 519              		.cfi_def_cfa_offset 0
 520 0030 67800000 		jr	ra
 521              		.cfi_endproc
 522              	.LFE43:
 524              		.weak	_ZN19ConsumerProducerCPP16ProducerKeyboradD1Ev
 525              		.set	_ZN19ConsumerProducerCPP16ProducerKeyboradD1Ev,_ZN19ConsumerProducerCPP16ProducerKeyboradD2Ev
 526              		.section	.text._ZN19ConsumerProducerCPP16ProducerKeyboradD0Ev,"axG",@progbits,_ZN19ConsumerProduce
 527              		.align	2
 528              		.weak	_ZN19ConsumerProducerCPP16ProducerKeyboradD0Ev
 530              	_ZN19ConsumerProducerCPP16ProducerKeyboradD0Ev:
GAS LISTING /tmp/cckqcdzN.s 			page 14


 531              	.LFB45:
  25:tests/ConsumerProducer_CPP_API_test.hpp ****         thread_data *td;
 532              		.loc 2 25 11 is_stmt 1
 533              		.cfi_startproc
 534              	.LVL56:
 535 0000 130101FE 		addi	sp,sp,-32
 536              		.cfi_def_cfa_offset 32
 537 0004 233C1100 		sd	ra,24(sp)
 538 0008 23388100 		sd	s0,16(sp)
 539 000c 23349100 		sd	s1,8(sp)
 540              		.cfi_offset 1, -8
 541              		.cfi_offset 8, -16
 542              		.cfi_offset 9, -24
 543 0010 13040102 		addi	s0,sp,32
 544              		.cfi_def_cfa 8, 0
 545 0014 93040500 		mv	s1,a0
 546              	.LVL57:
 547              	.LBB46:
 548              	.LBB47:
  25:tests/ConsumerProducer_CPP_API_test.hpp ****         thread_data *td;
 549              		.loc 2 25 11 is_stmt 0
 550 0018 97070000 		lla	a5,_ZTVN19ConsumerProducerCPP16ProducerKeyboradE+16
 550      93870700 
 551 0020 2330F500 		sd	a5,0(a0)
 552 0024 97000000 		call	_ZN6ThreadD2Ev@plt
 552      E7800000 
 553              	.LVL58:
 554              	.LBE47:
 555              	.LBE46:
 556 002c 13850400 		mv	a0,s1
 557 0030 97000000 		call	_ZdlPv@plt
 557      E7800000 
 558              	.LVL59:
 559 0038 83308101 		ld	ra,24(sp)
 560              		.cfi_restore 1
 561 003c 03340101 		ld	s0,16(sp)
 562              		.cfi_restore 8
 563              		.cfi_def_cfa 2, 32
 564 0040 83348100 		ld	s1,8(sp)
 565              		.cfi_restore 9
 566              	.LVL60:
 567 0044 13010102 		addi	sp,sp,32
 568              		.cfi_def_cfa_offset 0
 569 0048 67800000 		jr	ra
 570              		.cfi_endproc
 571              	.LFE45:
 573              		.section	.text._ZN19ConsumerProducerCPP8ProducerD2Ev,"axG",@progbits,_ZN19ConsumerProducerCPP8Prod
 574              		.align	2
 575              		.weak	_ZN19ConsumerProducerCPP8ProducerD2Ev
 577              	_ZN19ConsumerProducerCPP8ProducerD2Ev:
 578              	.LFB39:
  45:tests/ConsumerProducer_CPP_API_test.hpp ****         thread_data *td;
 579              		.loc 2 45 11 is_stmt 1
 580              		.cfi_startproc
 581              	.LVL61:
 582 0000 130101FF 		addi	sp,sp,-16
 583              		.cfi_def_cfa_offset 16
GAS LISTING /tmp/cckqcdzN.s 			page 15


 584 0004 23341100 		sd	ra,8(sp)
 585 0008 23308100 		sd	s0,0(sp)
 586              		.cfi_offset 1, -8
 587              		.cfi_offset 8, -16
 588 000c 13040101 		addi	s0,sp,16
 589              		.cfi_def_cfa 8, 0
 590              	.LBB48:
  45:tests/ConsumerProducer_CPP_API_test.hpp ****         thread_data *td;
 591              		.loc 2 45 11 is_stmt 0
 592 0010 97070000 		lla	a5,_ZTVN19ConsumerProducerCPP8ProducerE+16
 592      93870700 
 593 0018 2330F500 		sd	a5,0(a0)
 594 001c 97000000 		call	_ZN6ThreadD2Ev@plt
 594      E7800000 
 595              	.LVL62:
 596              	.LBE48:
 597 0024 83308100 		ld	ra,8(sp)
 598              		.cfi_restore 1
 599 0028 03340100 		ld	s0,0(sp)
 600              		.cfi_restore 8
 601              		.cfi_def_cfa 2, 16
 602 002c 13010101 		addi	sp,sp,16
 603              		.cfi_def_cfa_offset 0
 604 0030 67800000 		jr	ra
 605              		.cfi_endproc
 606              	.LFE39:
 608              		.weak	_ZN19ConsumerProducerCPP8ProducerD1Ev
 609              		.set	_ZN19ConsumerProducerCPP8ProducerD1Ev,_ZN19ConsumerProducerCPP8ProducerD2Ev
 610              		.section	.text._ZN19ConsumerProducerCPP8ProducerD0Ev,"axG",@progbits,_ZN19ConsumerProducerCPP8Prod
 611              		.align	2
 612              		.weak	_ZN19ConsumerProducerCPP8ProducerD0Ev
 614              	_ZN19ConsumerProducerCPP8ProducerD0Ev:
 615              	.LFB41:
  45:tests/ConsumerProducer_CPP_API_test.hpp ****         thread_data *td;
 616              		.loc 2 45 11 is_stmt 1
 617              		.cfi_startproc
 618              	.LVL63:
 619 0000 130101FE 		addi	sp,sp,-32
 620              		.cfi_def_cfa_offset 32
 621 0004 233C1100 		sd	ra,24(sp)
 622 0008 23388100 		sd	s0,16(sp)
 623 000c 23349100 		sd	s1,8(sp)
 624              		.cfi_offset 1, -8
 625              		.cfi_offset 8, -16
 626              		.cfi_offset 9, -24
 627 0010 13040102 		addi	s0,sp,32
 628              		.cfi_def_cfa 8, 0
 629 0014 93040500 		mv	s1,a0
 630              	.LVL64:
 631              	.LBB49:
 632              	.LBB50:
  45:tests/ConsumerProducer_CPP_API_test.hpp ****         thread_data *td;
 633              		.loc 2 45 11 is_stmt 0
 634 0018 97070000 		lla	a5,_ZTVN19ConsumerProducerCPP8ProducerE+16
 634      93870700 
 635 0020 2330F500 		sd	a5,0(a0)
 636 0024 97000000 		call	_ZN6ThreadD2Ev@plt
GAS LISTING /tmp/cckqcdzN.s 			page 16


 636      E7800000 
 637              	.LVL65:
 638              	.LBE50:
 639              	.LBE49:
 640 002c 13850400 		mv	a0,s1
 641 0030 97000000 		call	_ZdlPv@plt
 641      E7800000 
 642              	.LVL66:
 643 0038 83308101 		ld	ra,24(sp)
 644              		.cfi_restore 1
 645 003c 03340101 		ld	s0,16(sp)
 646              		.cfi_restore 8
 647              		.cfi_def_cfa 2, 32
 648 0040 83348100 		ld	s1,8(sp)
 649              		.cfi_restore 9
 650              	.LVL67:
 651 0044 13010102 		addi	sp,sp,32
 652              		.cfi_def_cfa_offset 0
 653 0048 67800000 		jr	ra
 654              		.cfi_endproc
 655              	.LFE41:
 657              		.section	.text._ZN19ConsumerProducerCPP16ProducerKeyborad3runEv,"axG",@progbits,_ZN19ConsumerProdu
 658              		.align	2
 659              		.weak	_ZN19ConsumerProducerCPP16ProducerKeyborad3runEv
 661              	_ZN19ConsumerProducerCPP16ProducerKeyborad3runEv:
 662              	.LFB23:
  30:tests/ConsumerProducer_CPP_API_test.hpp ****             int key;
 663              		.loc 2 30 14 is_stmt 1
 664              		.cfi_startproc
 665              	.LVL68:
 666 0000 130101FE 		addi	sp,sp,-32
 667              		.cfi_def_cfa_offset 32
 668 0004 233C1100 		sd	ra,24(sp)
 669 0008 23388100 		sd	s0,16(sp)
 670 000c 23349100 		sd	s1,8(sp)
 671              		.cfi_offset 1, -8
 672              		.cfi_offset 8, -16
 673              		.cfi_offset 9, -24
 674 0010 13040102 		addi	s0,sp,32
 675              		.cfi_def_cfa 8, 0
 676 0014 93040500 		mv	s1,a0
  31:tests/ConsumerProducer_CPP_API_test.hpp ****             int i = 0;
 677              		.loc 2 31 13
  32:tests/ConsumerProducer_CPP_API_test.hpp ****             while ((key = getc()) != 0x1b) {
 678              		.loc 2 32 13
 679              	.LVL69:
 680              	.L39:
  33:tests/ConsumerProducer_CPP_API_test.hpp ****                 td->buffer->put(key);
 681              		.loc 2 33 13
  33:tests/ConsumerProducer_CPP_API_test.hpp ****                 td->buffer->put(key);
 682              		.loc 2 33 35
  33:tests/ConsumerProducer_CPP_API_test.hpp ****                 td->buffer->put(key);
 683              		.loc 2 33 31 is_stmt 0
 684 0018 97000000 		call	_Z4getcv@plt
 684      E7800000 
 685              	.LVL70:
  33:tests/ConsumerProducer_CPP_API_test.hpp ****                 td->buffer->put(key);
GAS LISTING /tmp/cckqcdzN.s 			page 17


 686              		.loc 2 33 25
 687 0020 9B050500 		sext.w	a1,a0
 688              	.LVL71:
  33:tests/ConsumerProducer_CPP_API_test.hpp ****                 td->buffer->put(key);
 689              		.loc 2 33 35
 690 0024 9307B001 		li	a5,27
 691 0028 638CF500 		beq	a1,a5,.L38
  34:tests/ConsumerProducer_CPP_API_test.hpp ****                 i++;
 692              		.loc 2 34 17 is_stmt 1
 693 002c 83B70401 		ld	a5,16(s1)
  34:tests/ConsumerProducer_CPP_API_test.hpp ****                 i++;
 694              		.loc 2 34 32 is_stmt 0
 695 0030 03B58700 		ld	a0,8(a5)
 696 0034 97000000 		call	_ZN9BufferCPP3putEi@plt
 696      E7800000 
 697              	.LVL72:
  35:tests/ConsumerProducer_CPP_API_test.hpp ****             }
 698              		.loc 2 35 17 is_stmt 1
  33:tests/ConsumerProducer_CPP_API_test.hpp ****                 td->buffer->put(key);
 699              		.loc 2 33 13 is_stmt 0
 700 003c 6FF0DFFD 		j	.L39
 701              	.LVL73:
 702              	.L38:
  38:tests/ConsumerProducer_CPP_API_test.hpp ****             td->buffer->put('!');
 703              		.loc 2 38 13 is_stmt 1
  38:tests/ConsumerProducer_CPP_API_test.hpp ****             td->buffer->put('!');
 704              		.loc 2 38 23 is_stmt 0
 705 0040 93071000 		li	a5,1
 706 0044 17070000 		sw	a5,.LANCHOR0+4,a4
 706      2320F700 
  39:tests/ConsumerProducer_CPP_API_test.hpp **** 
 707              		.loc 2 39 13 is_stmt 1
 708 004c 83B70401 		ld	a5,16(s1)
  39:tests/ConsumerProducer_CPP_API_test.hpp **** 
 709              		.loc 2 39 28 is_stmt 0
 710 0050 93051002 		li	a1,33
 711              	.LVL74:
 712 0054 03B58700 		ld	a0,8(a5)
 713              	.LVL75:
 714 0058 97000000 		call	_ZN9BufferCPP3putEi@plt
 714      E7800000 
 715              	.LVL76:
  41:tests/ConsumerProducer_CPP_API_test.hpp ****         }
 716              		.loc 2 41 13 is_stmt 1
 717 0060 83B70401 		ld	a5,16(s1)
  41:tests/ConsumerProducer_CPP_API_test.hpp ****         }
 718              		.loc 2 41 28 is_stmt 0
 719 0064 03B50701 		ld	a0,16(a5)
 720 0068 97000000 		call	_ZN9Semaphore6signalEv@plt
 720      E7800000 
 721              	.LVL77:
  42:tests/ConsumerProducer_CPP_API_test.hpp ****     };
 722              		.loc 2 42 9
 723 0070 83308101 		ld	ra,24(sp)
 724              		.cfi_restore 1
 725 0074 03340101 		ld	s0,16(sp)
 726              		.cfi_restore 8
GAS LISTING /tmp/cckqcdzN.s 			page 18


 727              		.cfi_def_cfa 2, 32
 728 0078 83348100 		ld	s1,8(sp)
 729              		.cfi_restore 9
 730              	.LVL78:
 731 007c 13010102 		addi	sp,sp,32
 732              		.cfi_def_cfa_offset 0
 733 0080 67800000 		jr	ra
 734              		.cfi_endproc
 735              	.LFE23:
 737              		.section	.text._ZN19ConsumerProducerCPP8Producer3runEv,"axG",@progbits,_ZN19ConsumerProducerCPP8Pr
 738              		.align	2
 739              		.weak	_ZN19ConsumerProducerCPP8Producer3runEv
 741              	_ZN19ConsumerProducerCPP8Producer3runEv:
 742              	.LFB27:
  50:tests/ConsumerProducer_CPP_API_test.hpp ****             int i = 0;
 743              		.loc 2 50 14 is_stmt 1
 744              		.cfi_startproc
 745              	.LVL79:
 746 0000 130101FE 		addi	sp,sp,-32
 747              		.cfi_def_cfa_offset 32
 748 0004 233C1100 		sd	ra,24(sp)
 749 0008 23388100 		sd	s0,16(sp)
 750 000c 23349100 		sd	s1,8(sp)
 751 0010 23302101 		sd	s2,0(sp)
 752              		.cfi_offset 1, -8
 753              		.cfi_offset 8, -16
 754              		.cfi_offset 9, -24
 755              		.cfi_offset 18, -32
 756 0014 13040102 		addi	s0,sp,32
 757              		.cfi_def_cfa 8, 0
 758 0018 93040500 		mv	s1,a0
  51:tests/ConsumerProducer_CPP_API_test.hpp ****             while (!threadEnd) {
 759              		.loc 2 51 13
 760              	.LVL80:
  51:tests/ConsumerProducer_CPP_API_test.hpp ****             while (!threadEnd) {
 761              		.loc 2 51 17 is_stmt 0
 762 001c 13090000 		li	s2,0
 763              	.LVL81:
 764              	.L43:
  52:tests/ConsumerProducer_CPP_API_test.hpp ****                 td->buffer->put(td->id + '0');
 765              		.loc 2 52 13 is_stmt 1
  52:tests/ConsumerProducer_CPP_API_test.hpp ****                 td->buffer->put(td->id + '0');
 766              		.loc 2 52 20
 767 0020 97070000 		lw	a5,.LANCHOR0+4
 767      83A70700 
 768 0028 63920704 		bnez	a5,.L42
  53:tests/ConsumerProducer_CPP_API_test.hpp ****                 i++;
 769              		.loc 2 53 17
 770 002c 83B70401 		ld	a5,16(s1)
  53:tests/ConsumerProducer_CPP_API_test.hpp ****                 i++;
 771              		.loc 2 53 37 is_stmt 0
 772 0030 83A50700 		lw	a1,0(a5)
  53:tests/ConsumerProducer_CPP_API_test.hpp ****                 i++;
 773              		.loc 2 53 32
 774 0034 9B850503 		addiw	a1,a1,48
 775 0038 03B58700 		ld	a0,8(a5)
 776 003c 97000000 		call	_ZN9BufferCPP3putEi@plt
GAS LISTING /tmp/cckqcdzN.s 			page 19


 776      E7800000 
 777              	.LVL82:
  54:tests/ConsumerProducer_CPP_API_test.hpp ****                 Thread::sleep((i+td->id)%5);
 778              		.loc 2 54 17 is_stmt 1
  54:tests/ConsumerProducer_CPP_API_test.hpp ****                 Thread::sleep((i+td->id)%5);
 779              		.loc 2 54 18 is_stmt 0
 780 0044 1B071900 		addiw	a4,s2,1
 781 0048 1B090700 		sext.w	s2,a4
 782              	.LVL83:
  55:tests/ConsumerProducer_CPP_API_test.hpp ****             }
 783              		.loc 2 55 17 is_stmt 1
  55:tests/ConsumerProducer_CPP_API_test.hpp ****             }
 784              		.loc 2 55 34 is_stmt 0
 785 004c 83B70401 		ld	a5,16(s1)
  55:tests/ConsumerProducer_CPP_API_test.hpp ****             }
 786              		.loc 2 55 38
 787 0050 83A70700 		lw	a5,0(a5)
  55:tests/ConsumerProducer_CPP_API_test.hpp ****             }
 788              		.loc 2 55 33
 789 0054 BB87E700 		addw	a5,a5,a4
  55:tests/ConsumerProducer_CPP_API_test.hpp ****             }
 790              		.loc 2 55 30
 791 0058 13055000 		li	a0,5
 792 005c 3BE5A702 		remw	a0,a5,a0
 793 0060 97000000 		call	_ZN6Thread5sleepEm@plt
 793      E7800000 
 794              	.LVL84:
  52:tests/ConsumerProducer_CPP_API_test.hpp ****                 td->buffer->put(td->id + '0');
 795              		.loc 2 52 13
 796 0068 6FF09FFB 		j	.L43
 797              	.L42:
  58:tests/ConsumerProducer_CPP_API_test.hpp ****         }
 798              		.loc 2 58 13 is_stmt 1
 799 006c 83B70401 		ld	a5,16(s1)
  58:tests/ConsumerProducer_CPP_API_test.hpp ****         }
 800              		.loc 2 58 28 is_stmt 0
 801 0070 03B50701 		ld	a0,16(a5)
 802 0074 97000000 		call	_ZN9Semaphore6signalEv@plt
 802      E7800000 
 803              	.LVL85:
  59:tests/ConsumerProducer_CPP_API_test.hpp ****     };
 804              		.loc 2 59 9
 805 007c 83308101 		ld	ra,24(sp)
 806              		.cfi_restore 1
 807 0080 03340101 		ld	s0,16(sp)
 808              		.cfi_restore 8
 809              		.cfi_def_cfa 2, 32
 810 0084 83348100 		ld	s1,8(sp)
 811              		.cfi_restore 9
 812              	.LVL86:
 813 0088 03390100 		ld	s2,0(sp)
 814              		.cfi_restore 18
 815              	.LVL87:
 816 008c 13010102 		addi	sp,sp,32
 817              		.cfi_def_cfa_offset 0
 818 0090 67800000 		jr	ra
 819              		.cfi_endproc
GAS LISTING /tmp/cckqcdzN.s 			page 20


 820              	.LFE27:
 822              		.text
 823              		.align	2
 824              		.globl	_Z9fibonaccim
 826              	_Z9fibonaccim:
 827              	.LFB12:
  13:tests/Threads_C_API_test.hpp ****     if (n == 0 || n == 1) { return n; }
 828              		.loc 1 13 28 is_stmt 1
 829              		.cfi_startproc
 830              	.LVL88:
 831 01a0 130101FE 		addi	sp,sp,-32
 832              		.cfi_def_cfa_offset 32
 833 01a4 233C1100 		sd	ra,24(sp)
 834 01a8 23388100 		sd	s0,16(sp)
 835 01ac 23349100 		sd	s1,8(sp)
 836 01b0 23302101 		sd	s2,0(sp)
 837              		.cfi_offset 1, -8
 838              		.cfi_offset 8, -16
 839              		.cfi_offset 9, -24
 840              		.cfi_offset 18, -32
 841 01b4 13040102 		addi	s0,sp,32
 842              		.cfi_def_cfa 8, 0
 843 01b8 93040500 		mv	s1,a0
  14:tests/Threads_C_API_test.hpp ****     if (n % 10 == 0) { thread_dispatch(); }
 844              		.loc 1 14 5
 845 01bc 93071000 		li	a5,1
 846 01c0 63F8A702 		bleu	a0,a5,.L45
  15:tests/Threads_C_API_test.hpp ****     return fibonacci(n - 1) + fibonacci(n - 2);
 847              		.loc 1 15 5
  15:tests/Threads_C_API_test.hpp ****     return fibonacci(n - 1) + fibonacci(n - 2);
 848              		.loc 1 15 11 is_stmt 0
 849 01c4 9307A000 		li	a5,10
 850 01c8 B377F502 		remu	a5,a0,a5
  15:tests/Threads_C_API_test.hpp ****     return fibonacci(n - 1) + fibonacci(n - 2);
 851              		.loc 1 15 5
 852 01cc 638E0702 		beqz	a5,.L50
 853              	.LVL89:
 854              	.L47:
  16:tests/Threads_C_API_test.hpp **** }
 855              		.loc 1 16 5 is_stmt 1
  16:tests/Threads_C_API_test.hpp **** }
 856              		.loc 1 16 21 is_stmt 0
 857 01d0 1385F4FF 		addi	a0,s1,-1
 858 01d4 97000000 		call	_Z9fibonaccim
 858      E7800000 
 859              	.LVL90:
 860 01dc 13090500 		mv	s2,a0
  16:tests/Threads_C_API_test.hpp **** }
 861              		.loc 1 16 40
 862 01e0 1385E4FF 		addi	a0,s1,-2
 863 01e4 97000000 		call	_Z9fibonaccim
 863      E7800000 
 864              	.LVL91:
  16:tests/Threads_C_API_test.hpp **** }
 865              		.loc 1 16 46
 866 01ec 3305A900 		add	a0,s2,a0
 867              	.L45:
GAS LISTING /tmp/cckqcdzN.s 			page 21


  17:tests/Threads_C_API_test.hpp **** 
 868              		.loc 1 17 1
 869 01f0 83308101 		ld	ra,24(sp)
 870              		.cfi_remember_state
 871              		.cfi_restore 1
 872 01f4 03340101 		ld	s0,16(sp)
 873              		.cfi_restore 8
 874              		.cfi_def_cfa 2, 32
 875 01f8 83348100 		ld	s1,8(sp)
 876              		.cfi_restore 9
 877              	.LVL92:
 878 01fc 03390100 		ld	s2,0(sp)
 879              		.cfi_restore 18
 880 0200 13010102 		addi	sp,sp,32
 881              		.cfi_def_cfa_offset 0
 882 0204 67800000 		jr	ra
 883              	.LVL93:
 884              	.L50:
 885              		.cfi_restore_state
  15:tests/Threads_C_API_test.hpp ****     return fibonacci(n - 1) + fibonacci(n - 2);
 886              		.loc 1 15 24 is_stmt 1 discriminator 1
  15:tests/Threads_C_API_test.hpp ****     return fibonacci(n - 1) + fibonacci(n - 2);
 887              		.loc 1 15 39 is_stmt 0 discriminator 1
 888 0208 97000000 		call	_Z15thread_dispatchv@plt
 888      E7800000 
 889              	.LVL94:
 890 0210 6FF01FFC 		j	.L47
 891              		.cfi_endproc
 892              	.LFE12:
 894              		.section	.rodata.str1.8
 895 0035 000000   		.align	3
 896              	.LC5:
 897 0038 433A2069 		.string	"C: i="
 897      3D00
 898 003e 0000     		.align	3
 899              	.LC6:
 900 0040 433A2064 		.string	"C: dispatch\n"
 900      69737061 
 900      7463680A 
 900      00
 901 004d 000000   		.align	3
 902              	.LC7:
 903 0050 433A2074 		.string	"C: t1="
 903      313D00
 904 0057 00       		.align	3
 905              	.LC8:
 906 0058 433A2066 		.string	"C: fibonaci="
 906      69626F6E 
 906      6163693D 
 906      00
 907              		.text
 908              		.align	2
 909              		.globl	_Z11workerBodyCPv
 911              	_Z11workerBodyCPv:
 912              	.LFB15:
  43:tests/Threads_C_API_test.hpp **** 
  44:tests/Threads_C_API_test.hpp **** void workerBodyC(void* arg) {
GAS LISTING /tmp/cckqcdzN.s 			page 22


 913              		.loc 1 44 29 is_stmt 1
 914              		.cfi_startproc
 915              	.LVL95:
 916 0214 130101FE 		addi	sp,sp,-32
 917              		.cfi_def_cfa_offset 32
 918 0218 233C1100 		sd	ra,24(sp)
 919 021c 23388100 		sd	s0,16(sp)
 920 0220 23349100 		sd	s1,8(sp)
 921 0224 23302101 		sd	s2,0(sp)
 922              		.cfi_offset 1, -8
 923              		.cfi_offset 8, -16
 924              		.cfi_offset 9, -24
 925              		.cfi_offset 18, -32
 926 0228 13040102 		addi	s0,sp,32
 927              		.cfi_def_cfa 8, 0
  45:tests/Threads_C_API_test.hpp ****     uint8 i = 0;
 928              		.loc 1 45 5
 929              	.LVL96:
 930              		.loc 1 45 11 is_stmt 0
 931 022c 93040000 		li	s1,0
 932 0230 6F000004 		j	.L53
 933              	.LVL97:
 934              	.L57:
  46:tests/Threads_C_API_test.hpp ****     for (; i < 3; i++) {
  47:tests/Threads_C_API_test.hpp ****         printString("C: i="); printInt(i); printString("\n");
 935              		.loc 1 47 9 is_stmt 1 discriminator 1
 936              		.loc 1 47 20 is_stmt 0 discriminator 1
 937 0234 17050000 		lla	a0,.LC5
 937      13050500 
 938 023c 97000000 		call	_Z11printStringPKc@plt
 938      E7800000 
 939              	.LVL98:
 940              		.loc 1 47 31 is_stmt 1 discriminator 1
 941              		.loc 1 47 39 is_stmt 0 discriminator 1
 942 0244 13060000 		li	a2,0
 943 0248 9305A000 		li	a1,10
 944 024c 13850400 		mv	a0,s1
 945 0250 97000000 		call	_Z8printIntiii@plt
 945      E7800000 
 946              	.LVL99:
 947              		.loc 1 47 44 is_stmt 1 discriminator 1
 948              		.loc 1 47 55 is_stmt 0 discriminator 1
 949 0258 17050000 		lla	a0,.LC1
 949      13050500 
 950 0260 97000000 		call	_Z11printStringPKc@plt
 950      E7800000 
 951              	.LVL100:
  46:tests/Threads_C_API_test.hpp ****     for (; i < 3; i++) {
 952              		.loc 1 46 5 is_stmt 1 discriminator 1
 953 0268 9B841400 		addiw	s1,s1,1
 954              	.LVL101:
 955 026c 93F4F40F 		andi	s1,s1,0xff
 956              	.LVL102:
 957              	.L53:
  46:tests/Threads_C_API_test.hpp ****     for (; i < 3; i++) {
 958              		.loc 1 46 5 discriminator 2
  46:tests/Threads_C_API_test.hpp ****     for (; i < 3; i++) {
GAS LISTING /tmp/cckqcdzN.s 			page 23


 959              		.loc 1 46 14 discriminator 2
 960 0270 93072000 		li	a5,2
 961 0274 E3F097FC 		bleu	s1,a5,.L57
  48:tests/Threads_C_API_test.hpp ****     }
  49:tests/Threads_C_API_test.hpp **** 
  50:tests/Threads_C_API_test.hpp ****     printString("C: dispatch\n");
 962              		.loc 1 50 5
 963              		.loc 1 50 16 is_stmt 0
 964 0278 17050000 		lla	a0,.LC6
 964      13050500 
 965 0280 97000000 		call	_Z11printStringPKc@plt
 965      E7800000 
 966              	.LVL103:
  51:tests/Threads_C_API_test.hpp ****     __asm__ ("li t1, 7");
 967              		.loc 1 51 5 is_stmt 1
 968              		.loc 1 51 25 is_stmt 0
 969              	#APP
 970              	# 51 "tests/Threads_C_API_test.hpp" 1
  52              	    thread_dispatch();
 971              		li t1, 7
 972              	# 0 "" 2
 973              		.loc 1 52 5 is_stmt 1
 974              		.loc 1 52 20 is_stmt 0
 975              	#NO_APP
 976 028c 97000000 		call	_Z15thread_dispatchv@plt
 976      E7800000 
 977              	.LVL104:
  53:tests/Threads_C_API_test.hpp **** 
  54:tests/Threads_C_API_test.hpp ****     uint64 t1 = 0;
 978              		.loc 1 54 5 is_stmt 1
  55:tests/Threads_C_API_test.hpp ****     __asm__ ("mv %[t1], t1" : [t1] "=r"(t1));
 979              		.loc 1 55 5
 980              		.loc 1 55 45 is_stmt 0
 981              	#APP
 982              	# 55 "tests/Threads_C_API_test.hpp" 1
  56              	
 983              		mv s2, t1
 984              	# 0 "" 2
 985              	.LVL105:
  57:tests/Threads_C_API_test.hpp ****     printString("C: t1="); printInt(t1); printString("\n");
 986              		.loc 1 57 5 is_stmt 1
 987              		.loc 1 57 16 is_stmt 0
 988              	#NO_APP
 989 0298 17050000 		lla	a0,.LC7
 989      13050500 
 990 02a0 97000000 		call	_Z11printStringPKc@plt
 990      E7800000 
 991              	.LVL106:
 992              		.loc 1 57 28 is_stmt 1
 993              		.loc 1 57 36 is_stmt 0
 994 02a8 13060000 		li	a2,0
 995 02ac 9305A000 		li	a1,10
 996 02b0 1B050900 		sext.w	a0,s2
 997 02b4 97000000 		call	_Z8printIntiii@plt
 997      E7800000 
 998              	.LVL107:
 999              		.loc 1 57 42 is_stmt 1
GAS LISTING /tmp/cckqcdzN.s 			page 24


 1000              		.loc 1 57 53 is_stmt 0
 1001 02bc 17050000 		lla	a0,.LC1
 1001      13050500 
 1002 02c4 97000000 		call	_Z11printStringPKc@plt
 1002      E7800000 
 1003              	.LVL108:
  58:tests/Threads_C_API_test.hpp **** 
  59:tests/Threads_C_API_test.hpp ****     uint64 result = fibonacci(12);
 1004              		.loc 1 59 5 is_stmt 1
 1005              		.loc 1 59 30 is_stmt 0
 1006 02cc 1305C000 		li	a0,12
 1007 02d0 97000000 		call	_Z9fibonaccim
 1007      E7800000 
 1008              	.LVL109:
 1009 02d8 13090500 		mv	s2,a0
 1010              	.LVL110:
  60:tests/Threads_C_API_test.hpp ****     printString("C: fibonaci="); printInt(result); printString("\n");
 1011              		.loc 1 60 5 is_stmt 1
 1012              		.loc 1 60 16 is_stmt 0
 1013 02dc 17050000 		lla	a0,.LC8
 1013      13050500 
 1014              	.LVL111:
 1015 02e4 97000000 		call	_Z11printStringPKc@plt
 1015      E7800000 
 1016              	.LVL112:
 1017              		.loc 1 60 34 is_stmt 1
 1018              		.loc 1 60 42 is_stmt 0
 1019 02ec 13060000 		li	a2,0
 1020 02f0 9305A000 		li	a1,10
 1021 02f4 1B050900 		sext.w	a0,s2
 1022 02f8 97000000 		call	_Z8printIntiii@plt
 1022      E7800000 
 1023              	.LVL113:
 1024              		.loc 1 60 52 is_stmt 1
 1025              		.loc 1 60 63 is_stmt 0
 1026 0300 17050000 		lla	a0,.LC1
 1026      13050500 
 1027 0308 97000000 		call	_Z11printStringPKc@plt
 1027      E7800000 
 1028              	.LVL114:
 1029 0310 6F000004 		j	.L55
 1030              	.L58:
  61:tests/Threads_C_API_test.hpp **** 
  62:tests/Threads_C_API_test.hpp ****     for (; i < 6; i++) {
  63:tests/Threads_C_API_test.hpp ****         printString("C: i="); printInt(i); printString("\n");
 1031              		.loc 1 63 9 is_stmt 1 discriminator 1
 1032              		.loc 1 63 20 is_stmt 0 discriminator 1
 1033 0314 17050000 		lla	a0,.LC5
 1033      13050500 
 1034 031c 97000000 		call	_Z11printStringPKc@plt
 1034      E7800000 
 1035              	.LVL115:
 1036              		.loc 1 63 31 is_stmt 1 discriminator 1
 1037              		.loc 1 63 39 is_stmt 0 discriminator 1
 1038 0324 13060000 		li	a2,0
 1039 0328 9305A000 		li	a1,10
 1040 032c 13850400 		mv	a0,s1
GAS LISTING /tmp/cckqcdzN.s 			page 25


 1041 0330 97000000 		call	_Z8printIntiii@plt
 1041      E7800000 
 1042              	.LVL116:
 1043              		.loc 1 63 44 is_stmt 1 discriminator 1
 1044              		.loc 1 63 55 is_stmt 0 discriminator 1
 1045 0338 17050000 		lla	a0,.LC1
 1045      13050500 
 1046 0340 97000000 		call	_Z11printStringPKc@plt
 1046      E7800000 
 1047              	.LVL117:
  62:tests/Threads_C_API_test.hpp ****         printString("C: i="); printInt(i); printString("\n");
 1048              		.loc 1 62 5 is_stmt 1 discriminator 1
 1049 0348 9B841400 		addiw	s1,s1,1
 1050              	.LVL118:
 1051 034c 93F4F40F 		andi	s1,s1,0xff
 1052              	.LVL119:
 1053              	.L55:
  62:tests/Threads_C_API_test.hpp ****         printString("C: i="); printInt(i); printString("\n");
 1054              		.loc 1 62 5 discriminator 2
  62:tests/Threads_C_API_test.hpp ****         printString("C: i="); printInt(i); printString("\n");
 1055              		.loc 1 62 14 discriminator 2
 1056 0350 93075000 		li	a5,5
 1057 0354 E3F097FC 		bleu	s1,a5,.L58
  64:tests/Threads_C_API_test.hpp ****     }
  65:tests/Threads_C_API_test.hpp **** 
  66:tests/Threads_C_API_test.hpp ****     printString("A finished!\n");
 1058              		.loc 1 66 5
 1059              		.loc 1 66 16 is_stmt 0
 1060 0358 17050000 		lla	a0,.LC2
 1060      13050500 
 1061 0360 97000000 		call	_Z11printStringPKc@plt
 1061      E7800000 
 1062              	.LVL120:
  67:tests/Threads_C_API_test.hpp ****     finishedC = true;
 1063              		.loc 1 67 5 is_stmt 1
 1064              		.loc 1 67 15 is_stmt 0
 1065 0368 93071000 		li	a5,1
 1066 036c 17070000 		sb	a5,.LANCHOR0+8,a4
 1066      2300F700 
  68:tests/Threads_C_API_test.hpp ****     thread_dispatch();
 1067              		.loc 1 68 5 is_stmt 1
 1068              		.loc 1 68 20 is_stmt 0
 1069 0374 97000000 		call	_Z15thread_dispatchv@plt
 1069      E7800000 
 1070              	.LVL121:
  69:tests/Threads_C_API_test.hpp **** }
 1071              		.loc 1 69 1
 1072 037c 83308101 		ld	ra,24(sp)
 1073              		.cfi_restore 1
 1074 0380 03340101 		ld	s0,16(sp)
 1075              		.cfi_restore 8
 1076              		.cfi_def_cfa 2, 32
 1077 0384 83348100 		ld	s1,8(sp)
 1078              		.cfi_restore 9
 1079              	.LVL122:
 1080 0388 03390100 		ld	s2,0(sp)
 1081              		.cfi_restore 18
GAS LISTING /tmp/cckqcdzN.s 			page 26


 1082              	.LVL123:
 1083 038c 13010102 		addi	sp,sp,32
 1084              		.cfi_def_cfa_offset 0
 1085 0390 67800000 		jr	ra
 1086              		.cfi_endproc
 1087              	.LFE15:
 1089              		.section	.rodata.str1.8
 1090 0065 000000   		.align	3
 1091              	.LC9:
 1092 0068 443A2069 		.string	"D: i="
 1092      3D00
 1093 006e 0000     		.align	3
 1094              	.LC10:
 1095 0070 443A2064 		.string	"D: dispatch\n"
 1095      69737061 
 1095      7463680A 
 1095      00
 1096 007d 000000   		.align	3
 1097              	.LC11:
 1098 0080 443A2066 		.string	"D: fibonaci="
 1098      69626F6E 
 1098      6163693D 
 1098      00
 1099 008d 000000   		.align	3
 1100              	.LC12:
 1101 0090 44206669 		.string	"D finished!\n"
 1101      6E697368 
 1101      6564210A 
 1101      00
 1102              		.text
 1103              		.align	2
 1104              		.globl	_Z11workerBodyDPv
 1106              	_Z11workerBodyDPv:
 1107              	.LFB16:
  70:tests/Threads_C_API_test.hpp **** 
  71:tests/Threads_C_API_test.hpp **** void workerBodyD(void* arg) {
 1108              		.loc 1 71 29 is_stmt 1
 1109              		.cfi_startproc
 1110              	.LVL124:
 1111 0394 130101FE 		addi	sp,sp,-32
 1112              		.cfi_def_cfa_offset 32
 1113 0398 233C1100 		sd	ra,24(sp)
 1114 039c 23388100 		sd	s0,16(sp)
 1115 03a0 23349100 		sd	s1,8(sp)
 1116 03a4 23302101 		sd	s2,0(sp)
 1117              		.cfi_offset 1, -8
 1118              		.cfi_offset 8, -16
 1119              		.cfi_offset 9, -24
 1120              		.cfi_offset 18, -32
 1121 03a8 13040102 		addi	s0,sp,32
 1122              		.cfi_def_cfa 8, 0
  72:tests/Threads_C_API_test.hpp ****     uint8 i = 10;
 1123              		.loc 1 72 5
 1124              	.LVL125:
 1125              		.loc 1 72 11 is_stmt 0
 1126 03ac 9304A000 		li	s1,10
 1127 03b0 6F000004 		j	.L61
GAS LISTING /tmp/cckqcdzN.s 			page 27


 1128              	.LVL126:
 1129              	.L65:
  73:tests/Threads_C_API_test.hpp ****     for (; i < 13; i++) {
  74:tests/Threads_C_API_test.hpp ****         printString("D: i="); printInt(i); printString("\n");
 1130              		.loc 1 74 9 is_stmt 1 discriminator 1
 1131              		.loc 1 74 20 is_stmt 0 discriminator 1
 1132 03b4 17050000 		lla	a0,.LC9
 1132      13050500 
 1133 03bc 97000000 		call	_Z11printStringPKc@plt
 1133      E7800000 
 1134              	.LVL127:
 1135              		.loc 1 74 31 is_stmt 1 discriminator 1
 1136              		.loc 1 74 39 is_stmt 0 discriminator 1
 1137 03c4 13060000 		li	a2,0
 1138 03c8 9305A000 		li	a1,10
 1139 03cc 13850400 		mv	a0,s1
 1140 03d0 97000000 		call	_Z8printIntiii@plt
 1140      E7800000 
 1141              	.LVL128:
 1142              		.loc 1 74 44 is_stmt 1 discriminator 1
 1143              		.loc 1 74 55 is_stmt 0 discriminator 1
 1144 03d8 17050000 		lla	a0,.LC1
 1144      13050500 
 1145 03e0 97000000 		call	_Z11printStringPKc@plt
 1145      E7800000 
 1146              	.LVL129:
  73:tests/Threads_C_API_test.hpp ****     for (; i < 13; i++) {
 1147              		.loc 1 73 5 is_stmt 1 discriminator 1
 1148 03e8 9B841400 		addiw	s1,s1,1
 1149              	.LVL130:
 1150 03ec 93F4F40F 		andi	s1,s1,0xff
 1151              	.LVL131:
 1152              	.L61:
  73:tests/Threads_C_API_test.hpp ****     for (; i < 13; i++) {
 1153              		.loc 1 73 5 discriminator 2
  73:tests/Threads_C_API_test.hpp ****     for (; i < 13; i++) {
 1154              		.loc 1 73 14 discriminator 2
 1155 03f0 9307C000 		li	a5,12
 1156 03f4 E3F097FC 		bleu	s1,a5,.L65
  75:tests/Threads_C_API_test.hpp ****     }
  76:tests/Threads_C_API_test.hpp **** 
  77:tests/Threads_C_API_test.hpp ****     printString("D: dispatch\n");
 1157              		.loc 1 77 5
 1158              		.loc 1 77 16 is_stmt 0
 1159 03f8 17050000 		lla	a0,.LC10
 1159      13050500 
 1160 0400 97000000 		call	_Z11printStringPKc@plt
 1160      E7800000 
 1161              	.LVL132:
  78:tests/Threads_C_API_test.hpp ****     __asm__ ("li t1, 5");
 1162              		.loc 1 78 5 is_stmt 1
 1163              		.loc 1 78 25 is_stmt 0
 1164              	#APP
 1165              	# 78 "tests/Threads_C_API_test.hpp" 1
  79              	    thread_dispatch();
 1166              		li t1, 5
 1167              	# 0 "" 2
GAS LISTING /tmp/cckqcdzN.s 			page 28


 1168              		.loc 1 79 5 is_stmt 1
 1169              		.loc 1 79 20 is_stmt 0
 1170              	#NO_APP
 1171 040c 97000000 		call	_Z15thread_dispatchv@plt
 1171      E7800000 
 1172              	.LVL133:
  80:tests/Threads_C_API_test.hpp **** 
  81:tests/Threads_C_API_test.hpp ****     uint64 result = fibonacci(16);
 1173              		.loc 1 81 5 is_stmt 1
 1174              		.loc 1 81 30 is_stmt 0
 1175 0414 13050001 		li	a0,16
 1176 0418 97000000 		call	_Z9fibonaccim
 1176      E7800000 
 1177              	.LVL134:
 1178 0420 13090500 		mv	s2,a0
 1179              	.LVL135:
  82:tests/Threads_C_API_test.hpp ****     printString("D: fibonaci="); printInt(result); printString("\n");
 1180              		.loc 1 82 5 is_stmt 1
 1181              		.loc 1 82 16 is_stmt 0
 1182 0424 17050000 		lla	a0,.LC11
 1182      13050500 
 1183              	.LVL136:
 1184 042c 97000000 		call	_Z11printStringPKc@plt
 1184      E7800000 
 1185              	.LVL137:
 1186              		.loc 1 82 34 is_stmt 1
 1187              		.loc 1 82 42 is_stmt 0
 1188 0434 13060000 		li	a2,0
 1189 0438 9305A000 		li	a1,10
 1190 043c 1B050900 		sext.w	a0,s2
 1191 0440 97000000 		call	_Z8printIntiii@plt
 1191      E7800000 
 1192              	.LVL138:
 1193              		.loc 1 82 52 is_stmt 1
 1194              		.loc 1 82 63 is_stmt 0
 1195 0448 17050000 		lla	a0,.LC1
 1195      13050500 
 1196 0450 97000000 		call	_Z11printStringPKc@plt
 1196      E7800000 
 1197              	.LVL139:
 1198 0458 6F000004 		j	.L63
 1199              	.L66:
  83:tests/Threads_C_API_test.hpp **** 
  84:tests/Threads_C_API_test.hpp ****     for (; i < 16; i++) {
  85:tests/Threads_C_API_test.hpp ****         printString("D: i="); printInt(i); printString("\n");
 1200              		.loc 1 85 9 is_stmt 1 discriminator 1
 1201              		.loc 1 85 20 is_stmt 0 discriminator 1
 1202 045c 17050000 		lla	a0,.LC9
 1202      13050500 
 1203 0464 97000000 		call	_Z11printStringPKc@plt
 1203      E7800000 
 1204              	.LVL140:
 1205              		.loc 1 85 31 is_stmt 1 discriminator 1
 1206              		.loc 1 85 39 is_stmt 0 discriminator 1
 1207 046c 13060000 		li	a2,0
 1208 0470 9305A000 		li	a1,10
 1209 0474 13850400 		mv	a0,s1
GAS LISTING /tmp/cckqcdzN.s 			page 29


 1210 0478 97000000 		call	_Z8printIntiii@plt
 1210      E7800000 
 1211              	.LVL141:
 1212              		.loc 1 85 44 is_stmt 1 discriminator 1
 1213              		.loc 1 85 55 is_stmt 0 discriminator 1
 1214 0480 17050000 		lla	a0,.LC1
 1214      13050500 
 1215 0488 97000000 		call	_Z11printStringPKc@plt
 1215      E7800000 
 1216              	.LVL142:
  84:tests/Threads_C_API_test.hpp ****         printString("D: i="); printInt(i); printString("\n");
 1217              		.loc 1 84 5 is_stmt 1 discriminator 1
 1218 0490 9B841400 		addiw	s1,s1,1
 1219              	.LVL143:
 1220 0494 93F4F40F 		andi	s1,s1,0xff
 1221              	.LVL144:
 1222              	.L63:
  84:tests/Threads_C_API_test.hpp ****         printString("D: i="); printInt(i); printString("\n");
 1223              		.loc 1 84 5 discriminator 2
  84:tests/Threads_C_API_test.hpp ****         printString("D: i="); printInt(i); printString("\n");
 1224              		.loc 1 84 14 discriminator 2
 1225 0498 9307F000 		li	a5,15
 1226 049c E3F097FC 		bleu	s1,a5,.L66
  86:tests/Threads_C_API_test.hpp ****     }
  87:tests/Threads_C_API_test.hpp **** 
  88:tests/Threads_C_API_test.hpp ****     printString("D finished!\n");
 1227              		.loc 1 88 5
 1228              		.loc 1 88 16 is_stmt 0
 1229 04a0 17050000 		lla	a0,.LC12
 1229      13050500 
 1230 04a8 97000000 		call	_Z11printStringPKc@plt
 1230      E7800000 
 1231              	.LVL145:
  89:tests/Threads_C_API_test.hpp ****     finishedD = true;
 1232              		.loc 1 89 5 is_stmt 1
 1233              		.loc 1 89 15 is_stmt 0
 1234 04b0 93071000 		li	a5,1
 1235 04b4 17070000 		sb	a5,.LANCHOR0+9,a4
 1235      2300F700 
  90:tests/Threads_C_API_test.hpp ****     thread_dispatch();
 1236              		.loc 1 90 5 is_stmt 1
 1237              		.loc 1 90 20 is_stmt 0
 1238 04bc 97000000 		call	_Z15thread_dispatchv@plt
 1238      E7800000 
 1239              	.LVL146:
  91:tests/Threads_C_API_test.hpp **** }
 1240              		.loc 1 91 1
 1241 04c4 83308101 		ld	ra,24(sp)
 1242              		.cfi_restore 1
 1243 04c8 03340101 		ld	s0,16(sp)
 1244              		.cfi_restore 8
 1245              		.cfi_def_cfa 2, 32
 1246 04cc 83348100 		ld	s1,8(sp)
 1247              		.cfi_restore 9
 1248              	.LVL147:
 1249 04d0 03390100 		ld	s2,0(sp)
 1250              		.cfi_restore 18
GAS LISTING /tmp/cckqcdzN.s 			page 30


 1251              	.LVL148:
 1252 04d4 13010102 		addi	sp,sp,32
 1253              		.cfi_def_cfa_offset 0
 1254 04d8 67800000 		jr	ra
 1255              		.cfi_endproc
 1256              	.LFE16:
 1258              		.section	.rodata.str1.8
 1259 009d 000000   		.align	3
 1260              	.LC13:
 1261 00a0 54687265 		.string	"ThreadA created\n"
 1261      61644120 
 1261      63726561 
 1261      7465640A 
 1261      00
 1262 00b1 00000000 		.align	3
 1262      000000
 1263              	.LC14:
 1264 00b8 54687265 		.string	"ThreadB created\n"
 1264      61644220 
 1264      63726561 
 1264      7465640A 
 1264      00
 1265 00c9 00000000 		.align	3
 1265      000000
 1266              	.LC15:
 1267 00d0 54687265 		.string	"ThreadC created\n"
 1267      61644320 
 1267      63726561 
 1267      7465640A 
 1267      00
 1268 00e1 00000000 		.align	3
 1268      000000
 1269              	.LC16:
 1270 00e8 54687265 		.string	"ThreadD created\n"
 1270      61644420 
 1270      63726561 
 1270      7465640A 
 1270      00
 1271              		.text
 1272              		.align	2
 1273              		.globl	_Z18Threads_C_API_testv
 1275              	_Z18Threads_C_API_testv:
 1276              	.LFB17:
  92:tests/Threads_C_API_test.hpp **** 
  93:tests/Threads_C_API_test.hpp **** 
  94:tests/Threads_C_API_test.hpp **** void Threads_C_API_test() {
 1277              		.loc 1 94 27 is_stmt 1
 1278              		.cfi_startproc
 1279 04dc 130101FC 		addi	sp,sp,-64
 1280              		.cfi_def_cfa_offset 64
 1281 04e0 233C1102 		sd	ra,56(sp)
 1282 04e4 23388102 		sd	s0,48(sp)
 1283 04e8 23349102 		sd	s1,40(sp)
 1284              		.cfi_offset 1, -8
 1285              		.cfi_offset 8, -16
 1286              		.cfi_offset 9, -24
 1287 04ec 13040104 		addi	s0,sp,64
GAS LISTING /tmp/cckqcdzN.s 			page 31


 1288              		.cfi_def_cfa 8, 0
  95:tests/Threads_C_API_test.hpp ****     thread_t threads[4];
 1289              		.loc 1 95 5
  96:tests/Threads_C_API_test.hpp ****     thread_create(&threads[0], workerBodyA, nullptr);
 1290              		.loc 1 96 5
 1291              		.loc 1 96 18 is_stmt 0
 1292 04f0 13060000 		li	a2,0
 1293 04f4 97050000 		lla	a1,_Z11workerBodyAPv
 1293      93850500 
 1294 04fc 130504FC 		addi	a0,s0,-64
 1295 0500 97000000 		call	_Z13thread_createPP7_threadPFvPvES2_@plt
 1295      E7800000 
 1296              	.LVL149:
  97:tests/Threads_C_API_test.hpp ****     printString("ThreadA created\n");
 1297              		.loc 1 97 5 is_stmt 1
 1298              		.loc 1 97 16 is_stmt 0
 1299 0508 17050000 		lla	a0,.LC13
 1299      13050500 
 1300 0510 97000000 		call	_Z11printStringPKc@plt
 1300      E7800000 
 1301              	.LVL150:
  98:tests/Threads_C_API_test.hpp **** 
  99:tests/Threads_C_API_test.hpp ****     thread_create(&threads[1], workerBodyB, nullptr);
 1302              		.loc 1 99 5 is_stmt 1
 1303              		.loc 1 99 18 is_stmt 0
 1304 0518 13060000 		li	a2,0
 1305 051c 97050000 		lla	a1,_Z11workerBodyBPv
 1305      93850500 
 1306 0524 130584FC 		addi	a0,s0,-56
 1307 0528 97000000 		call	_Z13thread_createPP7_threadPFvPvES2_@plt
 1307      E7800000 
 1308              	.LVL151:
 100:tests/Threads_C_API_test.hpp ****     printString("ThreadB created\n");
 1309              		.loc 1 100 5 is_stmt 1
 1310              		.loc 1 100 16 is_stmt 0
 1311 0530 17050000 		lla	a0,.LC14
 1311      13050500 
 1312 0538 97000000 		call	_Z11printStringPKc@plt
 1312      E7800000 
 1313              	.LVL152:
 101:tests/Threads_C_API_test.hpp **** 
 102:tests/Threads_C_API_test.hpp ****     thread_create(&threads[2], workerBodyC, nullptr);
 1314              		.loc 1 102 5 is_stmt 1
 1315              		.loc 1 102 18 is_stmt 0
 1316 0540 13060000 		li	a2,0
 1317 0544 97050000 		lla	a1,_Z11workerBodyCPv
 1317      93850500 
 1318 054c 130504FD 		addi	a0,s0,-48
 1319 0550 97000000 		call	_Z13thread_createPP7_threadPFvPvES2_@plt
 1319      E7800000 
 1320              	.LVL153:
 103:tests/Threads_C_API_test.hpp ****     printString("ThreadC created\n");
 1321              		.loc 1 103 5 is_stmt 1
 1322              		.loc 1 103 16 is_stmt 0
 1323 0558 17050000 		lla	a0,.LC15
 1323      13050500 
 1324 0560 97000000 		call	_Z11printStringPKc@plt
GAS LISTING /tmp/cckqcdzN.s 			page 32


 1324      E7800000 
 1325              	.LVL154:
 104:tests/Threads_C_API_test.hpp **** 
 105:tests/Threads_C_API_test.hpp ****     thread_create(&threads[3], workerBodyD, nullptr);
 1326              		.loc 1 105 5 is_stmt 1
 1327              		.loc 1 105 18 is_stmt 0
 1328 0568 13060000 		li	a2,0
 1329 056c 97050000 		lla	a1,_Z11workerBodyDPv
 1329      93850500 
 1330 0574 130584FD 		addi	a0,s0,-40
 1331 0578 97000000 		call	_Z13thread_createPP7_threadPFvPvES2_@plt
 1331      E7800000 
 1332              	.LVL155:
 106:tests/Threads_C_API_test.hpp ****     printString("ThreadD created\n");
 1333              		.loc 1 106 5 is_stmt 1
 1334              		.loc 1 106 16 is_stmt 0
 1335 0580 17050000 		lla	a0,.LC16
 1335      13050500 
 1336 0588 97000000 		call	_Z11printStringPKc@plt
 1336      E7800000 
 1337              	.LVL156:
 1338 0590 6F00C000 		j	.L70
 1339              	.L68:
 107:tests/Threads_C_API_test.hpp **** 
 108:tests/Threads_C_API_test.hpp ****     while (!(finishedA && finishedB && finishedC && finishedD)) {
 109:tests/Threads_C_API_test.hpp ****         thread_dispatch();
 1340              		.loc 1 109 9 is_stmt 1
 1341              		.loc 1 109 24 is_stmt 0
 1342 0594 97000000 		call	_Z15thread_dispatchv@plt
 1342      E7800000 
 1343              	.LVL157:
 1344              	.L70:
 108:tests/Threads_C_API_test.hpp ****         thread_dispatch();
 1345              		.loc 1 108 5 is_stmt 1
 108:tests/Threads_C_API_test.hpp ****         thread_dispatch();
 1346              		.loc 1 108 12
 1347 059c 97070000 		lbu	a5,.LANCHOR0
 1347      83C70700 
 1348 05a4 E38807FE 		beqz	a5,.L68
 108:tests/Threads_C_API_test.hpp ****         thread_dispatch();
 1349              		.loc 1 108 24 is_stmt 0 discriminator 1
 1350 05a8 97070000 		lbu	a5,.LANCHOR0+1
 1350      83C70700 
 1351 05b0 E38207FE 		beqz	a5,.L68
 108:tests/Threads_C_API_test.hpp ****         thread_dispatch();
 1352              		.loc 1 108 37 discriminator 2
 1353 05b4 97070000 		lbu	a5,.LANCHOR0+8
 1353      83C70700 
 1354 05bc E38C07FC 		beqz	a5,.L68
 108:tests/Threads_C_API_test.hpp ****         thread_dispatch();
 1355              		.loc 1 108 12 discriminator 3
 1356 05c0 97070000 		lbu	a5,.LANCHOR0+9
 1356      83C70700 
 1357 05c8 E38607FC 		beqz	a5,.L68
 1358              	.LBB51:
 110:tests/Threads_C_API_test.hpp ****     }
 111:tests/Threads_C_API_test.hpp **** 
GAS LISTING /tmp/cckqcdzN.s 			page 33


 112:tests/Threads_C_API_test.hpp ****     for (auto &thread: threads) { delete thread; }
 1359              		.loc 1 112 24
 1360 05cc 930404FC 		addi	s1,s0,-64
 1361 05d0 6F008000 		j	.L69
 1362              	.LVL158:
 1363              	.L72:
 1364              		.loc 1 112 5 is_stmt 1 discriminator 4
 1365 05d4 93848400 		addi	s1,s1,8
 1366              	.LVL159:
 1367              	.L69:
 1368              		.loc 1 112 24 discriminator 5
 1369 05d8 930704FE 		addi	a5,s0,-32
 1370 05dc 638CF400 		beq	s1,a5,.L67
 1371              	.LVL160:
 1372              		.loc 1 112 35 discriminator 2
 1373              		.loc 1 112 42 is_stmt 0 discriminator 2
 1374 05e0 03B50400 		ld	a0,0(s1)
 1375              		.loc 1 112 48 discriminator 2
 1376 05e4 E30805FE 		beqz	a0,.L72
 1377              		.loc 1 112 42 discriminator 3
 1378 05e8 97000000 		call	_ZN7_threaddlEPv@plt
 1378      E7800000 
 1379              	.LVL161:
 1380 05f0 6FF05FFE 		j	.L72
 1381              	.LVL162:
 1382              	.L67:
 1383              	.LBE51:
 113:tests/Threads_C_API_test.hpp **** }
 1384              		.loc 1 113 1
 1385 05f4 83308103 		ld	ra,56(sp)
 1386              		.cfi_restore 1
 1387 05f8 03340103 		ld	s0,48(sp)
 1388              		.cfi_restore 8
 1389              		.cfi_def_cfa 2, 64
 1390 05fc 83348102 		ld	s1,40(sp)
 1391              		.cfi_restore 9
 1392              	.LVL163:
 1393 0600 13010104 		addi	sp,sp,64
 1394              		.cfi_def_cfa_offset 0
 1395 0604 67800000 		jr	ra
 1396              		.cfi_endproc
 1397              	.LFE17:
 1399              		.section	.rodata.str1.8
 1400 00f9 00000000 		.align	3
 1400      000000
 1401              	.LC17:
 1402 0100 556E6573 		.string	"Unesite broj proizvodjaca?\n"
 1402      69746520 
 1402      62726F6A 
 1402      2070726F 
 1402      697A766F 
 1403 011c 00000000 		.align	3
 1404              	.LC18:
 1405 0120 556E6573 		.string	"Unesite velicinu bafera?\n"
 1405      69746520 
 1405      76656C69 
 1405      63696E75 
GAS LISTING /tmp/cckqcdzN.s 			page 34


 1405      20626166 
 1406 013a 00000000 		.align	3
 1406      0000
 1407              	.LC19:
 1408 0140 42726F6A 		.string	"Broj proizvodjaca "
 1408      2070726F 
 1408      697A766F 
 1408      646A6163 
 1408      612000
 1409 0153 00000000 		.align	3
 1409      00
 1410              	.LC20:
 1411 0158 20692076 		.string	" i velicina bafera "
 1411      656C6963 
 1411      696E6120 
 1411      62616665 
 1411      72612000 
 1412 016c 00000000 		.align	3
 1413              	.LC21:
 1414 0170 2E0A00   		.string	".\n"
 1415 0173 00000000 		.align	3
 1415      00
 1416              	.LC22:
 1417 0178 42726F6A 		.string	"Broj proizvodjaca ne sme biti manji od velicine bafera!\n"
 1417      2070726F 
 1417      697A766F 
 1417      646A6163 
 1417      61206E65 
 1418 01b1 00000000 		.align	3
 1418      000000
 1419              	.LC23:
 1420 01b8 42726F6A 		.string	"Broj proizvodjaca mora biti veci od nula!\n"
 1420      2070726F 
 1420      697A766F 
 1420      646A6163 
 1420      61206D6F 
 1421              		.text
 1422              		.align	2
 1423              		.globl	_ZN19ConsumerProducerCPP20testConsumerProducerEv
 1425              	_ZN19ConsumerProducerCPP20testConsumerProducerEv:
 1426              	.LFB32:
  87:tests/ConsumerProducer_CPP_API_test.hpp ****     };
  88:tests/ConsumerProducer_CPP_API_test.hpp **** 
  89:tests/ConsumerProducer_CPP_API_test.hpp ****     void testConsumerProducer() {
 1427              		.loc 2 89 33 is_stmt 1
 1428              		.cfi_startproc
 1429              		.cfi_personality 0x9b,DW.ref.__gxx_personality_v0
 1430              		.cfi_lsda 0x1b,.LLSDA32
 1431 0608 130101F8 		addi	sp,sp,-128
 1432              		.cfi_def_cfa_offset 128
 1433 060c 233C1106 		sd	ra,120(sp)
 1434 0610 23388106 		sd	s0,112(sp)
 1435 0614 23349106 		sd	s1,104(sp)
 1436 0618 23302107 		sd	s2,96(sp)
 1437 061c 233C3105 		sd	s3,88(sp)
 1438 0620 23384105 		sd	s4,80(sp)
 1439 0624 23345105 		sd	s5,72(sp)
GAS LISTING /tmp/cckqcdzN.s 			page 35


 1440 0628 23306105 		sd	s6,64(sp)
 1441 062c 233C7103 		sd	s7,56(sp)
 1442 0630 23388103 		sd	s8,48(sp)
 1443 0634 23349103 		sd	s9,40(sp)
 1444              		.cfi_offset 1, -8
 1445              		.cfi_offset 8, -16
 1446              		.cfi_offset 9, -24
 1447              		.cfi_offset 18, -32
 1448              		.cfi_offset 19, -40
 1449              		.cfi_offset 20, -48
 1450              		.cfi_offset 21, -56
 1451              		.cfi_offset 22, -64
 1452              		.cfi_offset 23, -72
 1453              		.cfi_offset 24, -80
 1454              		.cfi_offset 25, -88
 1455 0638 13040108 		addi	s0,sp,128
 1456              		.cfi_def_cfa 8, 0
  90:tests/ConsumerProducer_CPP_API_test.hpp ****         char input[30];
  91:tests/ConsumerProducer_CPP_API_test.hpp ****         int n, threadNum;
  92:tests/ConsumerProducer_CPP_API_test.hpp **** 
  93:tests/ConsumerProducer_CPP_API_test.hpp ****         printString("Unesite broj proizvodjaca?\n");
  94:tests/ConsumerProducer_CPP_API_test.hpp ****         getString(input, 30);
  95:tests/ConsumerProducer_CPP_API_test.hpp ****         threadNum = stringToInt(input);
  96:tests/ConsumerProducer_CPP_API_test.hpp **** 
  97:tests/ConsumerProducer_CPP_API_test.hpp ****         printString("Unesite velicinu bafera?\n");
  98:tests/ConsumerProducer_CPP_API_test.hpp ****         getString(input, 30);
  99:tests/ConsumerProducer_CPP_API_test.hpp ****         n = stringToInt(input);
 100:tests/ConsumerProducer_CPP_API_test.hpp **** 
 101:tests/ConsumerProducer_CPP_API_test.hpp ****         printString("Broj proizvodjaca "); printInt(threadNum);
 102:tests/ConsumerProducer_CPP_API_test.hpp ****         printString(" i velicina bafera "); printInt(n);
 103:tests/ConsumerProducer_CPP_API_test.hpp ****         printString(".\n");
 104:tests/ConsumerProducer_CPP_API_test.hpp **** 
 105:tests/ConsumerProducer_CPP_API_test.hpp ****         if(threadNum > n) {
 106:tests/ConsumerProducer_CPP_API_test.hpp ****             printString("Broj proizvodjaca ne sme biti manji od velicine bafera!\n");
 107:tests/ConsumerProducer_CPP_API_test.hpp ****             return;
 108:tests/ConsumerProducer_CPP_API_test.hpp ****         } else if (threadNum < 1) {
 109:tests/ConsumerProducer_CPP_API_test.hpp ****             printString("Broj proizvodjaca mora biti veci od nula!\n");
 110:tests/ConsumerProducer_CPP_API_test.hpp ****             return;
 111:tests/ConsumerProducer_CPP_API_test.hpp ****         }
 112:tests/ConsumerProducer_CPP_API_test.hpp **** 
 113:tests/ConsumerProducer_CPP_API_test.hpp ****         BufferCPP *buffer = new BufferCPP(n);
 114:tests/ConsumerProducer_CPP_API_test.hpp **** 
 115:tests/ConsumerProducer_CPP_API_test.hpp ****         waitForAll = new Semaphore(0);
 116:tests/ConsumerProducer_CPP_API_test.hpp ****         Thread *producers[threadNum];
 117:tests/ConsumerProducer_CPP_API_test.hpp ****         thread_data threadData[threadNum + 1];
 118:tests/ConsumerProducer_CPP_API_test.hpp **** 
 119:tests/ConsumerProducer_CPP_API_test.hpp ****         threadData[threadNum].id = threadNum;
 120:tests/ConsumerProducer_CPP_API_test.hpp ****         threadData[threadNum].buffer = buffer;
 121:tests/ConsumerProducer_CPP_API_test.hpp ****         threadData[threadNum].sem = waitForAll;
 122:tests/ConsumerProducer_CPP_API_test.hpp ****         Thread *consumer = new Consumer(&threadData[threadNum]);
 123:tests/ConsumerProducer_CPP_API_test.hpp ****         consumer->start();
 124:tests/ConsumerProducer_CPP_API_test.hpp **** 
 125:tests/ConsumerProducer_CPP_API_test.hpp ****         threadData[0].id = 0;
 126:tests/ConsumerProducer_CPP_API_test.hpp ****         threadData[0].buffer = buffer;
 127:tests/ConsumerProducer_CPP_API_test.hpp ****         threadData[0].sem = waitForAll;
 128:tests/ConsumerProducer_CPP_API_test.hpp ****         producers[0] = new ProducerKeyborad(&threadData[0]);
 129:tests/ConsumerProducer_CPP_API_test.hpp ****         producers[0]->start();
GAS LISTING /tmp/cckqcdzN.s 			page 36


 130:tests/ConsumerProducer_CPP_API_test.hpp **** 
 131:tests/ConsumerProducer_CPP_API_test.hpp ****         for (int i = 1; i < threadNum; i++) {
 132:tests/ConsumerProducer_CPP_API_test.hpp ****             threadData[i].id = i;
 133:tests/ConsumerProducer_CPP_API_test.hpp ****             threadData[i].buffer = buffer;
 134:tests/ConsumerProducer_CPP_API_test.hpp ****             threadData[i].sem = waitForAll;
 135:tests/ConsumerProducer_CPP_API_test.hpp **** 
 136:tests/ConsumerProducer_CPP_API_test.hpp ****             producers[i] = new Producer(&threadData[i]);
 137:tests/ConsumerProducer_CPP_API_test.hpp ****             producers[i]->start();
 138:tests/ConsumerProducer_CPP_API_test.hpp **** 
 139:tests/ConsumerProducer_CPP_API_test.hpp ****         }
 140:tests/ConsumerProducer_CPP_API_test.hpp **** 
 141:tests/ConsumerProducer_CPP_API_test.hpp ****         Thread::dispatch();
 142:tests/ConsumerProducer_CPP_API_test.hpp **** 
 143:tests/ConsumerProducer_CPP_API_test.hpp ****         for (int i = 0; i <= threadNum; i++) {
 144:tests/ConsumerProducer_CPP_API_test.hpp ****             waitForAll->wait();
 145:tests/ConsumerProducer_CPP_API_test.hpp ****         }
 146:tests/ConsumerProducer_CPP_API_test.hpp **** 
 147:tests/ConsumerProducer_CPP_API_test.hpp ****         delete waitForAll;
 148:tests/ConsumerProducer_CPP_API_test.hpp ****         for (int i = 0; i < threadNum; i++) {
 149:tests/ConsumerProducer_CPP_API_test.hpp ****             delete producers[i];
 150:tests/ConsumerProducer_CPP_API_test.hpp ****         }
 151:tests/ConsumerProducer_CPP_API_test.hpp ****         delete consumer;
 152:tests/ConsumerProducer_CPP_API_test.hpp ****         delete buffer;
 1457              		.loc 2 152 22 is_stmt 0
 1458 063c 130C0100 		mv	s8,sp
  90:tests/ConsumerProducer_CPP_API_test.hpp ****         char input[30];
 1459              		.loc 2 90 9 is_stmt 1
  91:tests/ConsumerProducer_CPP_API_test.hpp **** 
 1460              		.loc 2 91 9
  93:tests/ConsumerProducer_CPP_API_test.hpp ****         getString(input, 30);
 1461              		.loc 2 93 9
  93:tests/ConsumerProducer_CPP_API_test.hpp ****         getString(input, 30);
 1462              		.loc 2 93 20 is_stmt 0
 1463 0640 17050000 		lla	a0,.LC17
 1463      13050500 
 1464              	.LEHB0:
 1465 0648 97000000 		call	_Z11printStringPKc@plt
 1465      E7800000 
 1466              	.LVL164:
  94:tests/ConsumerProducer_CPP_API_test.hpp ****         threadNum = stringToInt(input);
 1467              		.loc 2 94 9 is_stmt 1
  94:tests/ConsumerProducer_CPP_API_test.hpp ****         threadNum = stringToInt(input);
 1468              		.loc 2 94 18 is_stmt 0
 1469 0650 9305E001 		li	a1,30
 1470 0654 930404F8 		addi	s1,s0,-128
 1471 0658 13850400 		mv	a0,s1
 1472 065c 97000000 		call	_Z9getStringPci@plt
 1472      E7800000 
 1473              	.LVL165:
  95:tests/ConsumerProducer_CPP_API_test.hpp **** 
 1474              		.loc 2 95 9 is_stmt 1
  95:tests/ConsumerProducer_CPP_API_test.hpp **** 
 1475              		.loc 2 95 32 is_stmt 0
 1476 0664 13850400 		mv	a0,s1
 1477 0668 97000000 		call	_Z11stringToIntPKc@plt
 1477      E7800000 
 1478              	.LVL166:
GAS LISTING /tmp/cckqcdzN.s 			page 37


 1479 0670 93090500 		mv	s3,a0
 1480              	.LVL167:
  97:tests/ConsumerProducer_CPP_API_test.hpp ****         getString(input, 30);
 1481              		.loc 2 97 9 is_stmt 1
  97:tests/ConsumerProducer_CPP_API_test.hpp ****         getString(input, 30);
 1482              		.loc 2 97 20 is_stmt 0
 1483 0674 17050000 		lla	a0,.LC18
 1483      13050500 
 1484 067c 97000000 		call	_Z11printStringPKc@plt
 1484      E7800000 
 1485              	.LVL168:
  98:tests/ConsumerProducer_CPP_API_test.hpp ****         n = stringToInt(input);
 1486              		.loc 2 98 9 is_stmt 1
  98:tests/ConsumerProducer_CPP_API_test.hpp ****         n = stringToInt(input);
 1487              		.loc 2 98 18 is_stmt 0
 1488 0684 9305E001 		li	a1,30
 1489 0688 13850400 		mv	a0,s1
 1490 068c 97000000 		call	_Z9getStringPci@plt
 1490      E7800000 
 1491              	.LVL169:
  99:tests/ConsumerProducer_CPP_API_test.hpp **** 
 1492              		.loc 2 99 9 is_stmt 1
  99:tests/ConsumerProducer_CPP_API_test.hpp **** 
 1493              		.loc 2 99 24 is_stmt 0
 1494 0694 13850400 		mv	a0,s1
 1495 0698 97000000 		call	_Z11stringToIntPKc@plt
 1495      E7800000 
 1496              	.LVL170:
 1497 06a0 93040500 		mv	s1,a0
 1498              	.LVL171:
 101:tests/ConsumerProducer_CPP_API_test.hpp ****         printString(" i velicina bafera "); printInt(n);
 1499              		.loc 2 101 9 is_stmt 1
 101:tests/ConsumerProducer_CPP_API_test.hpp ****         printString(" i velicina bafera "); printInt(n);
 1500              		.loc 2 101 20 is_stmt 0
 1501 06a4 17050000 		lla	a0,.LC19
 1501      13050500 
 1502 06ac 97000000 		call	_Z11printStringPKc@plt
 1502      E7800000 
 1503              	.LVL172:
 101:tests/ConsumerProducer_CPP_API_test.hpp ****         printString(" i velicina bafera "); printInt(n);
 1504              		.loc 2 101 44 is_stmt 1
 101:tests/ConsumerProducer_CPP_API_test.hpp ****         printString(" i velicina bafera "); printInt(n);
 1505              		.loc 2 101 52 is_stmt 0
 1506 06b4 13060000 		li	a2,0
 1507 06b8 9305A000 		li	a1,10
 1508 06bc 13850900 		mv	a0,s3
 1509 06c0 97000000 		call	_Z8printIntiii@plt
 1509      E7800000 
 1510              	.LVL173:
 102:tests/ConsumerProducer_CPP_API_test.hpp ****         printString(".\n");
 1511              		.loc 2 102 9 is_stmt 1
 102:tests/ConsumerProducer_CPP_API_test.hpp ****         printString(".\n");
 1512              		.loc 2 102 20 is_stmt 0
 1513 06c8 17050000 		lla	a0,.LC20
 1513      13050500 
 1514 06d0 97000000 		call	_Z11printStringPKc@plt
 1514      E7800000 
GAS LISTING /tmp/cckqcdzN.s 			page 38


 1515              	.LVL174:
 102:tests/ConsumerProducer_CPP_API_test.hpp ****         printString(".\n");
 1516              		.loc 2 102 45 is_stmt 1
 102:tests/ConsumerProducer_CPP_API_test.hpp ****         printString(".\n");
 1517              		.loc 2 102 53 is_stmt 0
 1518 06d8 13060000 		li	a2,0
 1519 06dc 9305A000 		li	a1,10
 1520 06e0 13850400 		mv	a0,s1
 1521 06e4 97000000 		call	_Z8printIntiii@plt
 1521      E7800000 
 1522              	.LVL175:
 103:tests/ConsumerProducer_CPP_API_test.hpp **** 
 1523              		.loc 2 103 9 is_stmt 1
 103:tests/ConsumerProducer_CPP_API_test.hpp **** 
 1524              		.loc 2 103 20 is_stmt 0
 1525 06ec 17050000 		lla	a0,.LC21
 1525      13050500 
 1526 06f4 97000000 		call	_Z11printStringPKc@plt
 1526      E7800000 
 1527              	.LVL176:
 105:tests/ConsumerProducer_CPP_API_test.hpp ****             printString("Broj proizvodjaca ne sme biti manji od velicine bafera!\n");
 1528              		.loc 2 105 9 is_stmt 1
 1529 06fc 63C43403 		bgt	s3,s1,.L101
 108:tests/ConsumerProducer_CPP_API_test.hpp ****             printString("Broj proizvodjaca mora biti veci od nula!\n");
 1530              		.loc 2 108 16
 1531 0700 635C3003 		blez	s3,.L102
 113:tests/ConsumerProducer_CPP_API_test.hpp **** 
 1532              		.loc 2 113 9
 113:tests/ConsumerProducer_CPP_API_test.hpp **** 
 1533              		.loc 2 113 44 is_stmt 0
 1534 0704 13058003 		li	a0,56
 1535 0708 97000000 		call	_Znwm@plt
 1535      E7800000 
 1536              	.LVL177:
 1537              	.LEHE0:
 1538 0710 930A0500 		mv	s5,a0
 1539 0714 93850400 		mv	a1,s1
 1540              	.LEHB1:
 1541 0718 97000000 		call	_ZN9BufferCPPC1Ei@plt
 1541      E7800000 
 1542              	.LVL178:
 1543              	.LEHE1:
 1544 0720 6F000003 		j	.L103
 1545              	.L101:
 106:tests/ConsumerProducer_CPP_API_test.hpp ****             return;
 1546              		.loc 2 106 13 is_stmt 1
 106:tests/ConsumerProducer_CPP_API_test.hpp ****             return;
 1547              		.loc 2 106 24 is_stmt 0
 1548 0724 17050000 		lla	a0,.LC22
 1548      13050500 
 1549              	.LEHB2:
 1550 072c 97000000 		call	_Z11printStringPKc@plt
 1550      E7800000 
 1551              	.LVL179:
 107:tests/ConsumerProducer_CPP_API_test.hpp ****         } else if (threadNum < 1) {
 1552              		.loc 2 107 13 is_stmt 1
 1553 0734 6F004001 		j	.L77
GAS LISTING /tmp/cckqcdzN.s 			page 39


 1554              	.L102:
 109:tests/ConsumerProducer_CPP_API_test.hpp ****             return;
 1555              		.loc 2 109 13
 109:tests/ConsumerProducer_CPP_API_test.hpp ****             return;
 1556              		.loc 2 109 24 is_stmt 0
 1557 0738 17050000 		lla	a0,.LC23
 1557      13050500 
 1558 0740 97000000 		call	_Z11printStringPKc@plt
 1558      E7800000 
 1559              	.LVL180:
 110:tests/ConsumerProducer_CPP_API_test.hpp ****         }
 1560              		.loc 2 110 13 is_stmt 1
 1561              	.L77:
 1562 0748 13010C00 		mv	sp,s8
 1563 074c 6F00C021 		j	.L75
 1564              	.L103:
 1565              	.LVL181:
 115:tests/ConsumerProducer_CPP_API_test.hpp ****         Thread *producers[threadNum];
 1566              		.loc 2 115 9 discriminator 3
 115:tests/ConsumerProducer_CPP_API_test.hpp ****         Thread *producers[threadNum];
 1567              		.loc 2 115 37 is_stmt 0 discriminator 3
 1568 0750 13050001 		li	a0,16
 1569 0754 97000000 		call	_Znwm@plt
 1569      E7800000 
 1570              	.LVL182:
 1571              	.LEHE2:
 1572 075c 93040500 		mv	s1,a0
 1573              	.LVL183:
 1574 0760 93050000 		li	a1,0
 1575              	.LEHB3:
 1576 0764 97000000 		call	_ZN9SemaphoreC1Ej@plt
 1576      E7800000 
 1577              	.LVL184:
 1578              	.LEHE3:
 115:tests/ConsumerProducer_CPP_API_test.hpp ****         Thread *producers[threadNum];
 1579              		.loc 2 115 20 discriminator 3
 1580 076c 17070000 		lla	a4,.LANCHOR0
 1580      13070700 
 1581 0774 23389700 		sd	s1,16(a4)
 116:tests/ConsumerProducer_CPP_API_test.hpp ****         thread_data threadData[threadNum + 1];
 1582              		.loc 2 116 9 is_stmt 1 discriminator 3
 1583              	.LVL185:
 116:tests/ConsumerProducer_CPP_API_test.hpp ****         thread_data threadData[threadNum + 1];
 1584              		.loc 2 116 17 is_stmt 0 discriminator 3
 1585 0778 93973900 		slli	a5,s3,3
 1586 077c 9387F700 		addi	a5,a5,15
 1587 0780 93F707FF 		andi	a5,a5,-16
 1588 0784 3301F140 		sub	sp,sp,a5
 1589 0788 130A0100 		mv	s4,sp
 1590              	.LVL186:
 117:tests/ConsumerProducer_CPP_API_test.hpp **** 
 1591              		.loc 2 117 9 is_stmt 1 discriminator 3
 117:tests/ConsumerProducer_CPP_API_test.hpp **** 
 1592              		.loc 2 117 42 is_stmt 0 discriminator 3
 1593 078c 9B861900 		addiw	a3,s3,1
 1594              	.LVL187:
 117:tests/ConsumerProducer_CPP_API_test.hpp **** 
GAS LISTING /tmp/cckqcdzN.s 			page 40


 1595              		.loc 2 117 21 discriminator 3
 1596 0790 93971600 		slli	a5,a3,1
 1597 0794 B387D700 		add	a5,a5,a3
 1598 0798 93973700 		slli	a5,a5,3
 1599 079c 9387F700 		addi	a5,a5,15
 1600 07a0 93F707FF 		andi	a5,a5,-16
 1601 07a4 3301F140 		sub	sp,sp,a5
 1602              	.LVL188:
 1603 07a8 130B0100 		mv	s6,sp
 1604              	.LVL189:
 119:tests/ConsumerProducer_CPP_API_test.hpp ****         threadData[threadNum].buffer = buffer;
 1605              		.loc 2 119 9 is_stmt 1 discriminator 3
 119:tests/ConsumerProducer_CPP_API_test.hpp ****         threadData[threadNum].buffer = buffer;
 1606              		.loc 2 119 34 is_stmt 0 discriminator 3
 1607 07ac 93941900 		slli	s1,s3,1
 1608 07b0 B3843401 		add	s1,s1,s3
 1609 07b4 93943400 		slli	s1,s1,3
 1610 07b8 B3049B00 		add	s1,s6,s1
 1611 07bc 23A03401 		sw	s3,0(s1)
 120:tests/ConsumerProducer_CPP_API_test.hpp ****         threadData[threadNum].sem = waitForAll;
 1612              		.loc 2 120 9 is_stmt 1 discriminator 3
 120:tests/ConsumerProducer_CPP_API_test.hpp ****         threadData[threadNum].sem = waitForAll;
 1613              		.loc 2 120 38 is_stmt 0 discriminator 3
 1614 07c0 23B45401 		sd	s5,8(s1)
 121:tests/ConsumerProducer_CPP_API_test.hpp ****         Thread *consumer = new Consumer(&threadData[threadNum]);
 1615              		.loc 2 121 9 is_stmt 1 discriminator 3
 121:tests/ConsumerProducer_CPP_API_test.hpp ****         Thread *consumer = new Consumer(&threadData[threadNum]);
 1616              		.loc 2 121 35 is_stmt 0 discriminator 3
 1617 07c4 83370701 		ld	a5,16(a4)
 1618 07c8 23B8F400 		sd	a5,16(s1)
 122:tests/ConsumerProducer_CPP_API_test.hpp ****         consumer->start();
 1619              		.loc 2 122 9 is_stmt 1 discriminator 3
 122:tests/ConsumerProducer_CPP_API_test.hpp ****         consumer->start();
 1620              		.loc 2 122 63 is_stmt 0 discriminator 3
 1621 07cc 13058001 		li	a0,24
 1622              	.LEHB4:
 1623 07d0 97000000 		call	_Znwm@plt
 1623      E7800000 
 1624              	.LVL190:
 1625              	.LEHE4:
 1626 07d8 930B0500 		mv	s7,a0
 1627              	.LVL191:
 1628              	.LEHB5:
 1629              	.LBB52:
 1630              	.LBB53:
  65:tests/ConsumerProducer_CPP_API_test.hpp **** 
 1631              		.loc 2 65 54 discriminator 3
 1632 07dc 97000000 		call	_ZN6ThreadC2Ev@plt
 1632      E7800000 
 1633              	.LVL192:
 1634              	.LEHE5:
  65:tests/ConsumerProducer_CPP_API_test.hpp **** 
 1635              		.loc 2 65 54
 1636 07e4 97070000 		lla	a5,_ZTVN19ConsumerProducerCPP8ConsumerE+16
 1636      93870700 
 1637 07ec 23B0FB00 		sd	a5,0(s7)
 1638 07f0 23B89B00 		sd	s1,16(s7)
GAS LISTING /tmp/cckqcdzN.s 			page 41


 1639              	.LVL193:
 1640              	.LBE53:
 1641              	.LBE52:
 123:tests/ConsumerProducer_CPP_API_test.hpp **** 
 1642              		.loc 2 123 9 is_stmt 1
 123:tests/ConsumerProducer_CPP_API_test.hpp **** 
 1643              		.loc 2 123 24 is_stmt 0
 1644 07f4 13850B00 		mv	a0,s7
 1645              	.LEHB6:
 1646 07f8 97000000 		call	_ZN6Thread5startEv@plt
 1646      E7800000 
 1647              	.LVL194:
 125:tests/ConsumerProducer_CPP_API_test.hpp ****         threadData[0].buffer = buffer;
 1648              		.loc 2 125 9 is_stmt 1
 125:tests/ConsumerProducer_CPP_API_test.hpp ****         threadData[0].buffer = buffer;
 1649              		.loc 2 125 26 is_stmt 0
 1650 0800 23200B00 		sw	zero,0(s6)
 126:tests/ConsumerProducer_CPP_API_test.hpp ****         threadData[0].sem = waitForAll;
 1651              		.loc 2 126 9 is_stmt 1
 126:tests/ConsumerProducer_CPP_API_test.hpp ****         threadData[0].sem = waitForAll;
 1652              		.loc 2 126 30 is_stmt 0
 1653 0804 23345B01 		sd	s5,8(s6)
 127:tests/ConsumerProducer_CPP_API_test.hpp ****         producers[0] = new ProducerKeyborad(&threadData[0]);
 1654              		.loc 2 127 9 is_stmt 1
 127:tests/ConsumerProducer_CPP_API_test.hpp ****         producers[0] = new ProducerKeyborad(&threadData[0]);
 1655              		.loc 2 127 27 is_stmt 0
 1656 0808 97070000 		ld	a5,.LANCHOR0+16
 1656      83B70700 
 1657 0810 2338FB00 		sd	a5,16(s6)
 128:tests/ConsumerProducer_CPP_API_test.hpp ****         producers[0]->start();
 1658              		.loc 2 128 9 is_stmt 1
 128:tests/ConsumerProducer_CPP_API_test.hpp ****         producers[0]->start();
 1659              		.loc 2 128 59 is_stmt 0
 1660 0814 13058001 		li	a0,24
 1661 0818 97000000 		call	_Znwm@plt
 1661      E7800000 
 1662              	.LVL195:
 1663              	.LEHE6:
 1664 0820 93040500 		mv	s1,a0
 1665              	.LVL196:
 1666              	.LEHB7:
 1667              	.LBB54:
 1668              	.LBB55:
  28:tests/ConsumerProducer_CPP_API_test.hpp **** 
 1669              		.loc 2 28 62
 1670 0824 97000000 		call	_ZN6ThreadC2Ev@plt
 1670      E7800000 
 1671              	.LVL197:
 1672              	.LEHE7:
 1673 082c 97070000 		lla	a5,_ZTVN19ConsumerProducerCPP16ProducerKeyboradE+16
 1673      93870700 
 1674 0834 23B0F400 		sd	a5,0(s1)
 1675 0838 23B86401 		sd	s6,16(s1)
 1676              	.LVL198:
 1677              	.LBE55:
 1678              	.LBE54:
 128:tests/ConsumerProducer_CPP_API_test.hpp ****         producers[0]->start();
GAS LISTING /tmp/cckqcdzN.s 			page 42


 1679              		.loc 2 128 22
 1680 083c 23309A00 		sd	s1,0(s4)
 129:tests/ConsumerProducer_CPP_API_test.hpp **** 
 1681              		.loc 2 129 9 is_stmt 1
 129:tests/ConsumerProducer_CPP_API_test.hpp **** 
 1682              		.loc 2 129 28 is_stmt 0
 1683 0840 13850400 		mv	a0,s1
 1684              	.LEHB8:
 1685 0844 97000000 		call	_ZN6Thread5startEv@plt
 1685      E7800000 
 1686              	.LVL199:
 1687              	.LBB56:
 131:tests/ConsumerProducer_CPP_API_test.hpp ****             threadData[i].id = i;
 1688              		.loc 2 131 18
 1689 084c 13091000 		li	s2,1
 1690 0850 6F000003 		j	.L80
 1691              	.LVL200:
 1692              	.L104:
 1693              	.LBB57:
 1694              	.LBB58:
  48:tests/ConsumerProducer_CPP_API_test.hpp **** 
 1695              		.loc 2 48 54
 1696 0854 97070000 		lla	a5,_ZTVN19ConsumerProducerCPP8ProducerE+16
 1696      93870700 
 1697 085c 23B0FC00 		sd	a5,0(s9)
 1698 0860 23B89C00 		sd	s1,16(s9)
 1699              	.LVL201:
 1700              	.LBE58:
 1701              	.LBE57:
 136:tests/ConsumerProducer_CPP_API_test.hpp ****             producers[i]->start();
 1702              		.loc 2 136 26
 1703 0864 93173900 		slli	a5,s2,3
 1704 0868 B307FA00 		add	a5,s4,a5
 1705 086c 23B09701 		sd	s9,0(a5)
 137:tests/ConsumerProducer_CPP_API_test.hpp **** 
 1706              		.loc 2 137 13 is_stmt 1
 137:tests/ConsumerProducer_CPP_API_test.hpp **** 
 1707              		.loc 2 137 32 is_stmt 0
 1708 0870 13850C00 		mv	a0,s9
 1709 0874 97000000 		call	_ZN6Thread5startEv@plt
 1709      E7800000 
 1710              	.LVL202:
 131:tests/ConsumerProducer_CPP_API_test.hpp ****             threadData[i].id = i;
 1711              		.loc 2 131 9 is_stmt 1
 1712 087c 1B091900 		addiw	s2,s2,1
 1713              	.LVL203:
 1714              	.L80:
 131:tests/ConsumerProducer_CPP_API_test.hpp ****             threadData[i].id = i;
 1715              		.loc 2 131 27 discriminator 1
 1716 0880 63523905 		bge	s2,s3,.L79
 132:tests/ConsumerProducer_CPP_API_test.hpp ****             threadData[i].buffer = buffer;
 1717              		.loc 2 132 13
 132:tests/ConsumerProducer_CPP_API_test.hpp ****             threadData[i].buffer = buffer;
 1718              		.loc 2 132 30 is_stmt 0
 1719 0884 93141900 		slli	s1,s2,1
 1720 0888 B3842401 		add	s1,s1,s2
 1721 088c 93943400 		slli	s1,s1,3
GAS LISTING /tmp/cckqcdzN.s 			page 43


 1722 0890 B3049B00 		add	s1,s6,s1
 1723 0894 23A02401 		sw	s2,0(s1)
 133:tests/ConsumerProducer_CPP_API_test.hpp ****             threadData[i].sem = waitForAll;
 1724              		.loc 2 133 13 is_stmt 1
 133:tests/ConsumerProducer_CPP_API_test.hpp ****             threadData[i].sem = waitForAll;
 1725              		.loc 2 133 34 is_stmt 0
 1726 0898 23B45401 		sd	s5,8(s1)
 134:tests/ConsumerProducer_CPP_API_test.hpp **** 
 1727              		.loc 2 134 13 is_stmt 1
 134:tests/ConsumerProducer_CPP_API_test.hpp **** 
 1728              		.loc 2 134 31 is_stmt 0
 1729 089c 97070000 		ld	a5,.LANCHOR0+16
 1729      83B70700 
 1730 08a4 23B8F400 		sd	a5,16(s1)
 136:tests/ConsumerProducer_CPP_API_test.hpp ****             producers[i]->start();
 1731              		.loc 2 136 13 is_stmt 1
 136:tests/ConsumerProducer_CPP_API_test.hpp ****             producers[i]->start();
 1732              		.loc 2 136 55 is_stmt 0
 1733 08a8 13058001 		li	a0,24
 1734 08ac 97000000 		call	_Znwm@plt
 1734      E7800000 
 1735              	.LVL204:
 1736              	.LEHE8:
 1737 08b4 930C0500 		mv	s9,a0
 1738              	.LVL205:
 1739              	.LEHB9:
 1740              	.LBB60:
 1741              	.LBB59:
  48:tests/ConsumerProducer_CPP_API_test.hpp **** 
 1742              		.loc 2 48 54
 1743 08b8 97000000 		call	_ZN6ThreadC2Ev@plt
 1743      E7800000 
 1744              	.LVL206:
 1745              	.LEHE9:
 1746 08c0 6FF05FF9 		j	.L104
 1747              	.LVL207:
 1748              	.L79:
 1749              	.LBE59:
 1750              	.LBE60:
 1751              	.LBE56:
 141:tests/ConsumerProducer_CPP_API_test.hpp **** 
 1752              		.loc 2 141 9 is_stmt 1
 1753              	.LEHB10:
 141:tests/ConsumerProducer_CPP_API_test.hpp **** 
 1754              		.loc 2 141 25 is_stmt 0
 1755 08c4 97000000 		call	_ZN6Thread8dispatchEv@plt
 1755      E7800000 
 1756              	.LVL208:
 1757              	.LBB61:
 143:tests/ConsumerProducer_CPP_API_test.hpp ****             waitForAll->wait();
 1758              		.loc 2 143 18
 1759 08cc 93040000 		li	s1,0
 1760              	.L82:
 1761              	.LVL209:
 143:tests/ConsumerProducer_CPP_API_test.hpp ****             waitForAll->wait();
 1762              		.loc 2 143 27 is_stmt 1 discriminator 1
 1763 08d0 63CE9900 		bgt	s1,s3,.L81
GAS LISTING /tmp/cckqcdzN.s 			page 44


 144:tests/ConsumerProducer_CPP_API_test.hpp ****         }
 1764              		.loc 2 144 13
 144:tests/ConsumerProducer_CPP_API_test.hpp ****         }
 1765              		.loc 2 144 29 is_stmt 0
 1766 08d4 17050000 		ld	a0,.LANCHOR0+16
 1766      03350500 
 1767 08dc 97000000 		call	_ZN9Semaphore4waitEv@plt
 1767      E7800000 
 1768              	.LVL210:
 143:tests/ConsumerProducer_CPP_API_test.hpp ****             waitForAll->wait();
 1769              		.loc 2 143 9 is_stmt 1
 1770 08e4 9B841400 		addiw	s1,s1,1
 1771              	.LVL211:
 1772 08e8 6FF09FFE 		j	.L82
 1773              	.LVL212:
 1774              	.L81:
 1775              	.LBE61:
 147:tests/ConsumerProducer_CPP_API_test.hpp ****         for (int i = 0; i < threadNum; i++) {
 1776              		.loc 2 147 9
 147:tests/ConsumerProducer_CPP_API_test.hpp ****         for (int i = 0; i < threadNum; i++) {
 1777              		.loc 2 147 16 is_stmt 0
 1778 08ec 17050000 		ld	a0,.LANCHOR0+16
 1778      03350500 
 147:tests/ConsumerProducer_CPP_API_test.hpp ****         for (int i = 0; i < threadNum; i++) {
 1779              		.loc 2 147 26
 1780 08f4 63080500 		beqz	a0,.L83
 147:tests/ConsumerProducer_CPP_API_test.hpp ****         for (int i = 0; i < threadNum; i++) {
 1781              		.loc 2 147 16 discriminator 1
 1782 08f8 83370500 		ld	a5,0(a0)
 1783 08fc 83B78700 		ld	a5,8(a5)
 1784 0900 E7800700 		jalr	a5
 1785              	.LVL213:
 1786              	.L83:
 1787              	.LBB62:
 143:tests/ConsumerProducer_CPP_API_test.hpp ****             waitForAll->wait();
 1788              		.loc 2 143 18 discriminator 1
 1789 0904 93040000 		li	s1,0
 1790              	.LVL214:
 1791 0908 6F008000 		j	.L86
 1792              	.LVL215:
 1793              	.L85:
 1794              	.LBE62:
 1795              	.LBB63:
 148:tests/ConsumerProducer_CPP_API_test.hpp ****             delete producers[i];
 1796              		.loc 2 148 9 is_stmt 1 discriminator 2
 1797 090c 9B841400 		addiw	s1,s1,1
 1798              	.LVL216:
 1799              	.L86:
 148:tests/ConsumerProducer_CPP_API_test.hpp ****             delete producers[i];
 1800              		.loc 2 148 27 discriminator 1
 1801 0910 63D23403 		bge	s1,s3,.L84
 149:tests/ConsumerProducer_CPP_API_test.hpp ****         }
 1802              		.loc 2 149 13
 149:tests/ConsumerProducer_CPP_API_test.hpp ****         }
 1803              		.loc 2 149 31 is_stmt 0
 1804 0914 93973400 		slli	a5,s1,3
 1805 0918 B307FA00 		add	a5,s4,a5
GAS LISTING /tmp/cckqcdzN.s 			page 45


 1806 091c 03B50700 		ld	a0,0(a5)
 149:tests/ConsumerProducer_CPP_API_test.hpp ****         }
 1807              		.loc 2 149 32
 1808 0920 E30605FE 		beqz	a0,.L85
 149:tests/ConsumerProducer_CPP_API_test.hpp ****         }
 1809              		.loc 2 149 31 discriminator 1
 1810 0924 83370500 		ld	a5,0(a0)
 1811 0928 83B78700 		ld	a5,8(a5)
 1812 092c E7800700 		jalr	a5
 1813              	.LVL217:
 1814 0930 6FF0DFFD 		j	.L85
 1815              	.L84:
 1816              	.LBE63:
 151:tests/ConsumerProducer_CPP_API_test.hpp ****         delete buffer;
 1817              		.loc 2 151 9 is_stmt 1
 151:tests/ConsumerProducer_CPP_API_test.hpp ****         delete buffer;
 1818              		.loc 2 151 24 is_stmt 0
 1819 0934 638A0B00 		beqz	s7,.L87
 151:tests/ConsumerProducer_CPP_API_test.hpp ****         delete buffer;
 1820              		.loc 2 151 16 discriminator 1
 1821 0938 83B70B00 		ld	a5,0(s7)
 1822 093c 83B78700 		ld	a5,8(a5)
 1823 0940 13850B00 		mv	a0,s7
 1824 0944 E7800700 		jalr	a5
 1825              	.LVL218:
 1826              	.L87:
 1827              		.loc 2 152 9 is_stmt 1
 1828              		.loc 2 152 22 is_stmt 0
 1829 0948 638E0A00 		beqz	s5,.L88
 1830              		.loc 2 152 16 discriminator 1
 1831 094c 13850A00 		mv	a0,s5
 1832 0950 97000000 		call	_ZN9BufferCPPD1Ev@plt
 1832      E7800000 
 1833              	.LVL219:
 1834 0958 13850A00 		mv	a0,s5
 1835 095c 97000000 		call	_ZdlPv@plt
 1835      E7800000 
 1836              	.LVL220:
 1837              	.LEHE10:
 1838              	.L88:
 1839 0964 13010C00 		mv	sp,s8
 1840              	.LVL221:
 1841              	.L75:
 153:tests/ConsumerProducer_CPP_API_test.hpp ****     }
 1842              		.loc 2 153 5
 1843 0968 130104F8 		addi	sp,s0,-128
 1844              		.cfi_remember_state
 1845              		.cfi_def_cfa 2, 128
 1846 096c 83308107 		ld	ra,120(sp)
 1847              		.cfi_restore 1
 1848 0970 03340107 		ld	s0,112(sp)
 1849              		.cfi_restore 8
 1850 0974 83348106 		ld	s1,104(sp)
 1851              		.cfi_restore 9
 1852 0978 03390106 		ld	s2,96(sp)
 1853              		.cfi_restore 18
 1854 097c 83398105 		ld	s3,88(sp)
GAS LISTING /tmp/cckqcdzN.s 			page 46


 1855              		.cfi_restore 19
 1856              	.LVL222:
 1857 0980 033A0105 		ld	s4,80(sp)
 1858              		.cfi_restore 20
 1859 0984 833A8104 		ld	s5,72(sp)
 1860              		.cfi_restore 21
 1861 0988 033B0104 		ld	s6,64(sp)
 1862              		.cfi_restore 22
 1863 098c 833B8103 		ld	s7,56(sp)
 1864              		.cfi_restore 23
 1865 0990 033C0103 		ld	s8,48(sp)
 1866              		.cfi_restore 24
 1867 0994 833C8102 		ld	s9,40(sp)
 1868              		.cfi_restore 25
 1869 0998 13010108 		addi	sp,sp,128
 1870              		.cfi_def_cfa_offset 0
 1871 099c 67800000 		jr	ra
 1872              	.LVL223:
 1873              	.L95:
 1874              		.cfi_restore_state
 1875 09a0 93040500 		mv	s1,a0
 1876              	.LVL224:
 113:tests/ConsumerProducer_CPP_API_test.hpp **** 
 1877              		.loc 2 113 44
 1878 09a4 13850A00 		mv	a0,s5
 1879 09a8 97000000 		call	_ZdlPv@plt
 1879      E7800000 
 1880              	.LVL225:
 1881 09b0 13850400 		mv	a0,s1
 1882              	.LEHB11:
 1883 09b4 97000000 		call	_Unwind_Resume@plt
 1883      E7800000 
 1884              	.LVL226:
 1885              	.LEHE11:
 1886              	.L96:
 1887 09bc 13090500 		mv	s2,a0
 115:tests/ConsumerProducer_CPP_API_test.hpp ****         Thread *producers[threadNum];
 1888              		.loc 2 115 37
 1889 09c0 13850400 		mv	a0,s1
 1890 09c4 97000000 		call	_ZdlPv@plt
 1890      E7800000 
 1891              	.LVL227:
 1892 09cc 13050900 		mv	a0,s2
 1893              	.LEHB12:
 1894 09d0 97000000 		call	_Unwind_Resume@plt
 1894      E7800000 
 1895              	.LVL228:
 1896              	.LEHE12:
 1897              	.L97:
 1898 09d8 93040500 		mv	s1,a0
 1899              	.LVL229:
 122:tests/ConsumerProducer_CPP_API_test.hpp ****         consumer->start();
 1900              		.loc 2 122 63
 1901 09dc 13850B00 		mv	a0,s7
 1902 09e0 97000000 		call	_ZdlPv@plt
 1902      E7800000 
 1903              	.LVL230:
GAS LISTING /tmp/cckqcdzN.s 			page 47


 1904 09e8 13850400 		mv	a0,s1
 1905              	.LEHB13:
 1906 09ec 97000000 		call	_Unwind_Resume@plt
 1906      E7800000 
 1907              	.LVL231:
 1908              	.LEHE13:
 1909              	.L98:
 1910 09f4 13090500 		mv	s2,a0
 128:tests/ConsumerProducer_CPP_API_test.hpp ****         producers[0]->start();
 1911              		.loc 2 128 59
 1912 09f8 13850400 		mv	a0,s1
 1913 09fc 97000000 		call	_ZdlPv@plt
 1913      E7800000 
 1914              	.LVL232:
 1915 0a04 13050900 		mv	a0,s2
 1916              	.LEHB14:
 1917 0a08 97000000 		call	_Unwind_Resume@plt
 1917      E7800000 
 1918              	.LVL233:
 1919              	.LEHE14:
 1920              	.L99:
 1921 0a10 93040500 		mv	s1,a0
 1922              	.LVL234:
 1923              	.LBB64:
 136:tests/ConsumerProducer_CPP_API_test.hpp ****             producers[i]->start();
 1924              		.loc 2 136 55
 1925 0a14 13850C00 		mv	a0,s9
 1926 0a18 97000000 		call	_ZdlPv@plt
 1926      E7800000 
 1927              	.LVL235:
 1928 0a20 13850400 		mv	a0,s1
 1929              	.LEHB15:
 1930 0a24 97000000 		call	_Unwind_Resume@plt
 1930      E7800000 
 1931              	.LVL236:
 1932              	.LEHE15:
 1933              	.LBE64:
 1934              		.cfi_endproc
 1935              	.LFE32:
 1936              		.globl	__gxx_personality_v0
 1937              		.section	.gcc_except_table,"a",@progbits
 1938              	.LLSDA32:
 1939 0000 FF       		.byte	0xff
 1940 0001 FF       		.byte	0xff
 1941 0002 03       		.byte	0x3
 1942 0003 D001     		.byte	0xd0,0x1
 1943 0005 00000000 		.4byte	.LEHB0-.LFB32
 1944 0009 00000000 		.4byte	.LEHE0-.LEHB0
 1945 000d 00000000 		.4byte	0
 1946 0011 00       		.byte	0
 1947 0012 00000000 		.4byte	.LEHB1-.LFB32
 1948 0016 00000000 		.4byte	.LEHE1-.LEHB1
 1949 001a 00000000 		.4byte	.L95-.LFB32
 1950 001e 00       		.byte	0
 1951 001f 00000000 		.4byte	.LEHB2-.LFB32
 1952 0023 00000000 		.4byte	.LEHE2-.LEHB2
 1953 0027 00000000 		.4byte	0
GAS LISTING /tmp/cckqcdzN.s 			page 48


 1954 002b 00       		.byte	0
 1955 002c 00000000 		.4byte	.LEHB3-.LFB32
 1956 0030 00000000 		.4byte	.LEHE3-.LEHB3
 1957 0034 00000000 		.4byte	.L96-.LFB32
 1958 0038 00       		.byte	0
 1959 0039 00000000 		.4byte	.LEHB4-.LFB32
 1960 003d 00000000 		.4byte	.LEHE4-.LEHB4
 1961 0041 00000000 		.4byte	0
 1962 0045 00       		.byte	0
 1963 0046 00000000 		.4byte	.LEHB5-.LFB32
 1964 004a 00000000 		.4byte	.LEHE5-.LEHB5
 1965 004e 00000000 		.4byte	.L97-.LFB32
 1966 0052 00       		.byte	0
 1967 0053 00000000 		.4byte	.LEHB6-.LFB32
 1968 0057 00000000 		.4byte	.LEHE6-.LEHB6
 1969 005b 00000000 		.4byte	0
 1970 005f 00       		.byte	0
 1971 0060 00000000 		.4byte	.LEHB7-.LFB32
 1972 0064 00000000 		.4byte	.LEHE7-.LEHB7
 1973 0068 00000000 		.4byte	.L98-.LFB32
 1974 006c 00       		.byte	0
 1975 006d 00000000 		.4byte	.LEHB8-.LFB32
 1976 0071 00000000 		.4byte	.LEHE8-.LEHB8
 1977 0075 00000000 		.4byte	0
 1978 0079 00       		.byte	0
 1979 007a 00000000 		.4byte	.LEHB9-.LFB32
 1980 007e 00000000 		.4byte	.LEHE9-.LEHB9
 1981 0082 00000000 		.4byte	.L99-.LFB32
 1982 0086 00       		.byte	0
 1983 0087 00000000 		.4byte	.LEHB10-.LFB32
 1984 008b 00000000 		.4byte	.LEHE10-.LEHB10
 1985 008f 00000000 		.4byte	0
 1986 0093 00       		.byte	0
 1987 0094 00000000 		.4byte	.LEHB11-.LFB32
 1988 0098 00000000 		.4byte	.LEHE11-.LEHB11
 1989 009c 00000000 		.4byte	0
 1990 00a0 00       		.byte	0
 1991 00a1 00000000 		.4byte	.LEHB12-.LFB32
 1992 00a5 00000000 		.4byte	.LEHE12-.LEHB12
 1993 00a9 00000000 		.4byte	0
 1994 00ad 00       		.byte	0
 1995 00ae 00000000 		.4byte	.LEHB13-.LFB32
 1996 00b2 00000000 		.4byte	.LEHE13-.LEHB13
 1997 00b6 00000000 		.4byte	0
 1998 00ba 00       		.byte	0
 1999 00bb 00000000 		.4byte	.LEHB14-.LFB32
 2000 00bf 00000000 		.4byte	.LEHE14-.LEHB14
 2001 00c3 00000000 		.4byte	0
 2002 00c7 00       		.byte	0
 2003 00c8 00000000 		.4byte	.LEHB15-.LFB32
 2004 00cc 00000000 		.4byte	.LEHE15-.LEHB15
 2005 00d0 00000000 		.4byte	0
 2006 00d4 00       		.byte	0
 2007              		.text
 2009              		.align	2
 2010              		.globl	_Z8userMainv
 2012              	_Z8userMainv:
GAS LISTING /tmp/cckqcdzN.s 			page 49


 2013              	.LFB33:
 2014              		.file 3 "tests/userMain.cpp"
   1:tests/userMain.cpp **** #include "Threads_C_API_test.hpp" // zadatak 2, niti C API i sinhrona promena konteksta
   2:tests/userMain.cpp **** //#include "Threads_CPP_API_test.hpp" // zadatak 2., niti CPP API i sinhrona promena konteksta
   3:tests/userMain.cpp **** //
   4:tests/userMain.cpp **** //#include "ConsumerProducer_C_API_test.h" // zadatak 3., kompletan C API sa semaforima, sinhrona p
   5:tests/userMain.cpp **** //#include "ConsumerProducer_CPP_Sync_API_test.hpp" // zadatak 3., kompletan CPP API sa semaforima,
   6:tests/userMain.cpp **** 
   7:tests/userMain.cpp **** //#include "ThreadSleep_C_API_test.hpp" // thread_sleep test C API
   8:tests/userMain.cpp **** #include "ConsumerProducer_CPP_API_test.hpp" // zadatak 4. CPP API i asinhrona promena konteksta
   9:tests/userMain.cpp **** 
  10:tests/userMain.cpp **** 
  11:tests/userMain.cpp **** void userMain() {
 2015              		.loc 3 11 17 is_stmt 1
 2016              		.cfi_startproc
 2017 0a2c 130101FF 		addi	sp,sp,-16
 2018              		.cfi_def_cfa_offset 16
 2019 0a30 23341100 		sd	ra,8(sp)
 2020 0a34 23308100 		sd	s0,0(sp)
 2021              		.cfi_offset 1, -8
 2022              		.cfi_offset 8, -16
 2023 0a38 13040101 		addi	s0,sp,16
 2024              		.cfi_def_cfa 8, 0
  12:tests/userMain.cpp ****     Threads_C_API_test(); // zadatak 2., niti C API i sinhrona promena konteksta
 2025              		.loc 3 12 5
 2026              		.loc 3 12 23 is_stmt 0
 2027 0a3c 97000000 		call	_Z18Threads_C_API_testv
 2027      E7800000 
 2028              	.LVL237:
  13:tests/userMain.cpp **** //    Threads_CPP_API_test(); // zadatak 2., niti CPP API i sinhrona promena konteksta
  14:tests/userMain.cpp **** 
  15:tests/userMain.cpp **** //    producerConsumer_C_API(); // zadatak 3., kompletan C API sa semaforima, sinhrona promena kont
  16:tests/userMain.cpp **** //    producerConsumer_CPP_Sync_API(); // zadatak 3., kompletan CPP API sa semaforima, sinhrona pro
  17:tests/userMain.cpp **** 
  18:tests/userMain.cpp **** //    testSleeping(); // thread_sleep test C API
  19:tests/userMain.cpp ****     ConsumerProducerCPP::testConsumerProducer(); // zadatak 4. CPP API i asinhrona promena kontekst
 2029              		.loc 3 19 5 is_stmt 1
 2030              		.loc 3 19 46 is_stmt 0
 2031 0a44 97000000 		call	_ZN19ConsumerProducerCPP20testConsumerProducerEv
 2031      E7800000 
 2032              	.LVL238:
  20:tests/userMain.cpp **** 
  21:tests/userMain.cpp **** }...
 2033              		.loc 3 21 1
 2034 0a4c 83308100 		ld	ra,8(sp)
 2035              		.cfi_restore 1
 2036 0a50 03340100 		ld	s0,0(sp)
 2037              		.cfi_restore 8
 2038              		.cfi_def_cfa 2, 16
 2039 0a54 13010101 		addi	sp,sp,16
 2040              		.cfi_def_cfa_offset 0
 2041 0a58 67800000 		jr	ra
 2042              		.cfi_endproc
 2043              	.LFE33:
 2045              		.weak	_ZTVN19ConsumerProducerCPP16ProducerKeyboradE
 2046              		.section	.data.rel.ro.local._ZTVN19ConsumerProducerCPP16ProducerKeyboradE,"awG",@progbits,_ZTVN19C
 2047              		.align	3
GAS LISTING /tmp/cckqcdzN.s 			page 50


 2050              	_ZTVN19ConsumerProducerCPP16ProducerKeyboradE:
 2051 0000 00000000 		.dword	0
 2051      00000000 
 2052 0008 00000000 		.dword	0
 2052      00000000 
 2053 0010 00000000 		.dword	_ZN19ConsumerProducerCPP16ProducerKeyboradD1Ev
 2053      00000000 
 2054 0018 00000000 		.dword	_ZN19ConsumerProducerCPP16ProducerKeyboradD0Ev
 2054      00000000 
 2055 0020 00000000 		.dword	_ZN19ConsumerProducerCPP16ProducerKeyborad3runEv
 2055      00000000 
 2056              		.weak	_ZTVN19ConsumerProducerCPP8ProducerE
 2057              		.section	.data.rel.ro.local._ZTVN19ConsumerProducerCPP8ProducerE,"awG",@progbits,_ZTVN19ConsumerPr
 2058              		.align	3
 2061              	_ZTVN19ConsumerProducerCPP8ProducerE:
 2062 0000 00000000 		.dword	0
 2062      00000000 
 2063 0008 00000000 		.dword	0
 2063      00000000 
 2064 0010 00000000 		.dword	_ZN19ConsumerProducerCPP8ProducerD1Ev
 2064      00000000 
 2065 0018 00000000 		.dword	_ZN19ConsumerProducerCPP8ProducerD0Ev
 2065      00000000 
 2066 0020 00000000 		.dword	_ZN19ConsumerProducerCPP8Producer3runEv
 2066      00000000 
 2067              		.weak	_ZTVN19ConsumerProducerCPP8ConsumerE
 2068              		.section	.data.rel.ro.local._ZTVN19ConsumerProducerCPP8ConsumerE,"awG",@progbits,_ZTVN19ConsumerPr
 2069              		.align	3
 2072              	_ZTVN19ConsumerProducerCPP8ConsumerE:
 2073 0000 00000000 		.dword	0
 2073      00000000 
 2074 0008 00000000 		.dword	0
 2074      00000000 
 2075 0010 00000000 		.dword	_ZN19ConsumerProducerCPP8ConsumerD1Ev
 2075      00000000 
 2076 0018 00000000 		.dword	_ZN19ConsumerProducerCPP8ConsumerD0Ev
 2076      00000000 
 2077 0020 00000000 		.dword	_ZN19ConsumerProducerCPP8Consumer3runEv
 2077      00000000 
 2078              		.globl	_ZN19ConsumerProducerCPP9threadEndE
 2079              		.globl	_ZN19ConsumerProducerCPP10waitForAllE
 2080              		.globl	finishedD
 2081              		.globl	finishedC
 2082              		.globl	finishedB
 2083              		.globl	finishedA
 2084              		.bss
 2085              		.align	3
 2086              		.set	.LANCHOR0,. + 0
 2089              	finishedA:
 2090 0000 00       		.zero	1
 2093              	finishedB:
 2094 0001 00       		.zero	1
 2095 0002 0000     		.zero	2
 2098              	_ZN19ConsumerProducerCPP9threadEndE:
 2099 0004 00000000 		.zero	4
 2102              	finishedC:
 2103 0008 00       		.zero	1
GAS LISTING /tmp/cckqcdzN.s 			page 51


 2106              	finishedD:
 2107 0009 00       		.zero	1
 2108 000a 00000000 		.zero	6
 2108      0000
 2111              	_ZN19ConsumerProducerCPP10waitForAllE:
 2112 0010 00000000 		.zero	8
 2112      00000000 
 2113              		.text
 2114              	.Letext0:
 2115              		.file 4 "tests/../h/../lib/hw.h"
 2116              		.file 5 "tests/../h/../h/_thread.hpp"
 2117              		.file 6 "tests/../h/syscall_cpp.hpp"
 2118              		.file 7 "tests/buffer_CPP_API.hpp"
 2119              		.file 8 "tests/../h/printing.hpp"
 2120              		.file 9 "tests/../h/syscall_c.h"
 7297              		.align	3
 7300              	DW.ref.__gxx_personality_v0:
 7301 0000 00000000 		.dword	__gxx_personality_v0
 7301      00000000 
 7302              		.ident	"GCC: (Ubuntu 9.4.0-1ubuntu1~20.04) 9.4.0"
 7303              		.section	.note.GNU-stack,"",@progbits
GAS LISTING /tmp/cckqcdzN.s 			page 52


DEFINED SYMBOLS
                            *ABS*:0000000000000000 userMain.cpp
     /tmp/cckqcdzN.s:20     .text:0000000000000000 _Z11workerBodyAPv
     /tmp/cckqcdzN.s:24     .text:0000000000000000 .L0 
     /tmp/cckqcdzN.s:26     .text:0000000000000000 .L0 
     /tmp/cckqcdzN.s:27     .text:0000000000000004 .L0 
     /tmp/cckqcdzN.s:32     .text:0000000000000014 .L0 
     /tmp/cckqcdzN.s:33     .text:0000000000000014 .L0 
     /tmp/cckqcdzN.s:34     .text:0000000000000014 .L0 
     /tmp/cckqcdzN.s:35     .text:0000000000000014 .L0 
     /tmp/cckqcdzN.s:37     .text:0000000000000018 .L0 
     /tmp/cckqcdzN.s:41     .text:0000000000000018 .L0 
     /tmp/cckqcdzN.s:42     .text:0000000000000018 .L0 
     /tmp/cckqcdzN.s:50     .text:0000000000000020 .L0 
     /tmp/cckqcdzN.s:51     .text:0000000000000020 .L0 
     /tmp/cckqcdzN.s:55     .text:0000000000000028 .L0 
     /tmp/cckqcdzN.s:59     .text:000000000000002c .L0 
     /tmp/cckqcdzN.s:65     .text:0000000000000038 .L0 
     /tmp/cckqcdzN.s:69     .text:000000000000003c .L0 
     /tmp/cckqcdzN.s:73     .text:0000000000000048 .L0 
     /tmp/cckqcdzN.s:83     .text:0000000000000050 .L0 
     /tmp/cckqcdzN.s:87     .text:0000000000000054 .L0 
     /tmp/cckqcdzN.s:91     .text:000000000000005c .L0 
     /tmp/cckqcdzN.s:92     .text:000000000000005c .L0 
     /tmp/cckqcdzN.s:96     .text:000000000000006c .L0 
     /tmp/cckqcdzN.s:97     .text:000000000000006c .L0 
     /tmp/cckqcdzN.s:103    .text:0000000000000080 .L0 
     /tmp/cckqcdzN.s:104    .text:0000000000000080 .L0 
     /tmp/cckqcdzN.s:109    .text:0000000000000090 .L0 
     /tmp/cckqcdzN.s:110    .text:0000000000000090 .L0 
     /tmp/cckqcdzN.s:118    .text:0000000000000098 .L0 
     /tmp/cckqcdzN.s:119    .text:0000000000000098 .L0 
     /tmp/cckqcdzN.s:123    .text:00000000000000a8 .L0 
     /tmp/cckqcdzN.s:124    .text:00000000000000a8 .L0 
     /tmp/cckqcdzN.s:127    .text:00000000000000b4 .L0 
     /tmp/cckqcdzN.s:128    .text:00000000000000b8 .L0 
     /tmp/cckqcdzN.s:130    .text:00000000000000bc .L0 
     /tmp/cckqcdzN.s:131    .text:00000000000000bc .L0 
     /tmp/cckqcdzN.s:133    .text:00000000000000c0 .L0 
     /tmp/cckqcdzN.s:135    .text:00000000000000c4 .L0 
     /tmp/cckqcdzN.s:138    .text:00000000000000c8 .L0 
     /tmp/cckqcdzN.s:140    .text:00000000000000cc .L0 
     /tmp/cckqcdzN.s:154    .text:00000000000000cc _Z11workerBodyBPv
     /tmp/cckqcdzN.s:157    .text:00000000000000cc .L0 
     /tmp/cckqcdzN.s:159    .text:00000000000000cc .L0 
     /tmp/cckqcdzN.s:160    .text:00000000000000d0 .L0 
     /tmp/cckqcdzN.s:165    .text:00000000000000e0 .L0 
     /tmp/cckqcdzN.s:166    .text:00000000000000e0 .L0 
     /tmp/cckqcdzN.s:167    .text:00000000000000e0 .L0 
     /tmp/cckqcdzN.s:168    .text:00000000000000e0 .L0 
     /tmp/cckqcdzN.s:170    .text:00000000000000e4 .L0 
     /tmp/cckqcdzN.s:174    .text:00000000000000e4 .L0 
     /tmp/cckqcdzN.s:175    .text:00000000000000e4 .L0 
     /tmp/cckqcdzN.s:183    .text:00000000000000ec .L0 
     /tmp/cckqcdzN.s:184    .text:00000000000000ec .L0 
     /tmp/cckqcdzN.s:188    .text:00000000000000f4 .L0 
     /tmp/cckqcdzN.s:192    .text:00000000000000f8 .L0 
GAS LISTING /tmp/cckqcdzN.s 			page 53


     /tmp/cckqcdzN.s:198    .text:0000000000000104 .L0 
     /tmp/cckqcdzN.s:202    .text:0000000000000108 .L0 
     /tmp/cckqcdzN.s:206    .text:0000000000000114 .L0 
     /tmp/cckqcdzN.s:216    .text:000000000000011c .L0 
     /tmp/cckqcdzN.s:220    .text:0000000000000120 .L0 
     /tmp/cckqcdzN.s:224    .text:0000000000000128 .L0 
     /tmp/cckqcdzN.s:225    .text:0000000000000128 .L0 
     /tmp/cckqcdzN.s:229    .text:0000000000000138 .L0 
     /tmp/cckqcdzN.s:230    .text:0000000000000138 .L0 
     /tmp/cckqcdzN.s:236    .text:000000000000014c .L0 
     /tmp/cckqcdzN.s:237    .text:000000000000014c .L0 
     /tmp/cckqcdzN.s:242    .text:000000000000015c .L0 
     /tmp/cckqcdzN.s:243    .text:000000000000015c .L0 
     /tmp/cckqcdzN.s:251    .text:0000000000000164 .L0 
     /tmp/cckqcdzN.s:252    .text:0000000000000164 .L0 
     /tmp/cckqcdzN.s:256    .text:0000000000000174 .L0 
     /tmp/cckqcdzN.s:257    .text:0000000000000174 .L0 
     /tmp/cckqcdzN.s:260    .text:0000000000000180 .L0 
     /tmp/cckqcdzN.s:261    .text:0000000000000180 .L0 
     /tmp/cckqcdzN.s:264    .text:0000000000000188 .L0 
     /tmp/cckqcdzN.s:265    .text:000000000000018c .L0 
     /tmp/cckqcdzN.s:267    .text:0000000000000190 .L0 
     /tmp/cckqcdzN.s:268    .text:0000000000000190 .L0 
     /tmp/cckqcdzN.s:270    .text:0000000000000194 .L0 
     /tmp/cckqcdzN.s:272    .text:0000000000000198 .L0 
     /tmp/cckqcdzN.s:275    .text:000000000000019c .L0 
     /tmp/cckqcdzN.s:277    .text:00000000000001a0 .L0 
     /tmp/cckqcdzN.s:284    .text._ZN19ConsumerProducerCPP8Consumer3runEv:0000000000000000 _ZN19ConsumerProducerCPP8Consumer3runEv
     /tmp/cckqcdzN.s:288    .text._ZN19ConsumerProducerCPP8Consumer3runEv:0000000000000000 .L0 
     /tmp/cckqcdzN.s:290    .text._ZN19ConsumerProducerCPP8Consumer3runEv:0000000000000000 .L0 
     /tmp/cckqcdzN.s:291    .text._ZN19ConsumerProducerCPP8Consumer3runEv:0000000000000004 .L0 
     /tmp/cckqcdzN.s:297    .text._ZN19ConsumerProducerCPP8Consumer3runEv:0000000000000018 .L0 
     /tmp/cckqcdzN.s:298    .text._ZN19ConsumerProducerCPP8Consumer3runEv:0000000000000018 .L0 
     /tmp/cckqcdzN.s:299    .text._ZN19ConsumerProducerCPP8Consumer3runEv:0000000000000018 .L0 
     /tmp/cckqcdzN.s:300    .text._ZN19ConsumerProducerCPP8Consumer3runEv:0000000000000018 .L0 
     /tmp/cckqcdzN.s:301    .text._ZN19ConsumerProducerCPP8Consumer3runEv:0000000000000018 .L0 
     /tmp/cckqcdzN.s:303    .text._ZN19ConsumerProducerCPP8Consumer3runEv:000000000000001c .L0 
     /tmp/cckqcdzN.s:307    .text._ZN19ConsumerProducerCPP8Consumer3runEv:0000000000000020 .L0 
     /tmp/cckqcdzN.s:308    .text._ZN19ConsumerProducerCPP8Consumer3runEv:0000000000000020 .L0 
     /tmp/cckqcdzN.s:314    .text._ZN19ConsumerProducerCPP8Consumer3runEv:0000000000000028 .L0 
     /tmp/cckqcdzN.s:315    .text._ZN19ConsumerProducerCPP8Consumer3runEv:0000000000000028 .L0 
     /tmp/cckqcdzN.s:321    .text._ZN19ConsumerProducerCPP8Consumer3runEv:0000000000000034 .L0 
     /tmp/cckqcdzN.s:322    .text._ZN19ConsumerProducerCPP8Consumer3runEv:0000000000000034 .L0 
     /tmp/cckqcdzN.s:326    .text._ZN19ConsumerProducerCPP8Consumer3runEv:0000000000000040 .L0 
     /tmp/cckqcdzN.s:327    .text._ZN19ConsumerProducerCPP8Consumer3runEv:0000000000000040 .L0 
     /tmp/cckqcdzN.s:329    .text._ZN19ConsumerProducerCPP8Consumer3runEv:0000000000000044 .L0 
     /tmp/cckqcdzN.s:333    .text._ZN19ConsumerProducerCPP8Consumer3runEv:0000000000000050 .L0 
     /tmp/cckqcdzN.s:334    .text._ZN19ConsumerProducerCPP8Consumer3runEv:0000000000000050 .L0 
     /tmp/cckqcdzN.s:338    .text._ZN19ConsumerProducerCPP8Consumer3runEv:0000000000000058 .L0 
     /tmp/cckqcdzN.s:339    .text._ZN19ConsumerProducerCPP8Consumer3runEv:0000000000000058 .L0 
     /tmp/cckqcdzN.s:344    .text._ZN19ConsumerProducerCPP8Consumer3runEv:0000000000000064 .L0 
     /tmp/cckqcdzN.s:345    .text._ZN19ConsumerProducerCPP8Consumer3runEv:0000000000000064 .L0 
     /tmp/cckqcdzN.s:349    .text._ZN19ConsumerProducerCPP8Consumer3runEv:000000000000006c .L0 
     /tmp/cckqcdzN.s:355    .text._ZN19ConsumerProducerCPP8Consumer3runEv:0000000000000074 .L0 
     /tmp/cckqcdzN.s:356    .text._ZN19ConsumerProducerCPP8Consumer3runEv:0000000000000074 .L0 
     /tmp/cckqcdzN.s:358    .text._ZN19ConsumerProducerCPP8Consumer3runEv:0000000000000078 .L0 
     /tmp/cckqcdzN.s:362    .text._ZN19ConsumerProducerCPP8Consumer3runEv:0000000000000084 .L0 
GAS LISTING /tmp/cckqcdzN.s 			page 54


     /tmp/cckqcdzN.s:363    .text._ZN19ConsumerProducerCPP8Consumer3runEv:0000000000000084 .L0 
     /tmp/cckqcdzN.s:370    .text._ZN19ConsumerProducerCPP8Consumer3runEv:0000000000000090 .L0 
     /tmp/cckqcdzN.s:371    .text._ZN19ConsumerProducerCPP8Consumer3runEv:0000000000000090 .L0 
     /tmp/cckqcdzN.s:372    .text._ZN19ConsumerProducerCPP8Consumer3runEv:0000000000000090 .L0 
     /tmp/cckqcdzN.s:374    .text._ZN19ConsumerProducerCPP8Consumer3runEv:0000000000000094 .L0 
     /tmp/cckqcdzN.s:378    .text._ZN19ConsumerProducerCPP8Consumer3runEv:00000000000000a0 .L0 
     /tmp/cckqcdzN.s:380    .text._ZN19ConsumerProducerCPP8Consumer3runEv:00000000000000a4 .L0 
     /tmp/cckqcdzN.s:382    .text._ZN19ConsumerProducerCPP8Consumer3runEv:00000000000000a8 .L0 
     /tmp/cckqcdzN.s:386    .text._ZN19ConsumerProducerCPP8Consumer3runEv:00000000000000b4 .L0 
     /tmp/cckqcdzN.s:387    .text._ZN19ConsumerProducerCPP8Consumer3runEv:00000000000000b8 .L0 
     /tmp/cckqcdzN.s:389    .text._ZN19ConsumerProducerCPP8Consumer3runEv:00000000000000bc .L0 
     /tmp/cckqcdzN.s:390    .text._ZN19ConsumerProducerCPP8Consumer3runEv:00000000000000bc .L0 
     /tmp/cckqcdzN.s:392    .text._ZN19ConsumerProducerCPP8Consumer3runEv:00000000000000c0 .L0 
     /tmp/cckqcdzN.s:394    .text._ZN19ConsumerProducerCPP8Consumer3runEv:00000000000000c4 .L0 
     /tmp/cckqcdzN.s:397    .text._ZN19ConsumerProducerCPP8Consumer3runEv:00000000000000c8 .L0 
     /tmp/cckqcdzN.s:400    .text._ZN19ConsumerProducerCPP8Consumer3runEv:00000000000000cc .L0 
     /tmp/cckqcdzN.s:402    .text._ZN19ConsumerProducerCPP8Consumer3runEv:00000000000000d0 .L0 
     /tmp/cckqcdzN.s:409    .text._ZN19ConsumerProducerCPP8ConsumerD2Ev:0000000000000000 _ZN19ConsumerProducerCPP8ConsumerD2Ev
     /tmp/cckqcdzN.s:412    .text._ZN19ConsumerProducerCPP8ConsumerD2Ev:0000000000000000 .L0 
     /tmp/cckqcdzN.s:414    .text._ZN19ConsumerProducerCPP8ConsumerD2Ev:0000000000000000 .L0 
     /tmp/cckqcdzN.s:415    .text._ZN19ConsumerProducerCPP8ConsumerD2Ev:0000000000000004 .L0 
     /tmp/cckqcdzN.s:418    .text._ZN19ConsumerProducerCPP8ConsumerD2Ev:000000000000000c .L0 
     /tmp/cckqcdzN.s:419    .text._ZN19ConsumerProducerCPP8ConsumerD2Ev:000000000000000c .L0 
     /tmp/cckqcdzN.s:421    .text._ZN19ConsumerProducerCPP8ConsumerD2Ev:0000000000000010 .L0 
     /tmp/cckqcdzN.s:2072   .data.rel.ro.local._ZTVN19ConsumerProducerCPP8ConsumerE:0000000000000000 _ZTVN19ConsumerProducerCPP8ConsumerE
     /tmp/cckqcdzN.s:424    .text._ZN19ConsumerProducerCPP8ConsumerD2Ev:0000000000000010 .L0 
     /tmp/cckqcdzN.s:430    .text._ZN19ConsumerProducerCPP8ConsumerD2Ev:0000000000000028 .L0 
     /tmp/cckqcdzN.s:432    .text._ZN19ConsumerProducerCPP8ConsumerD2Ev:000000000000002c .L0 
     /tmp/cckqcdzN.s:433    .text._ZN19ConsumerProducerCPP8ConsumerD2Ev:000000000000002c .L0 
     /tmp/cckqcdzN.s:435    .text._ZN19ConsumerProducerCPP8ConsumerD2Ev:0000000000000030 .L0 
     /tmp/cckqcdzN.s:437    .text._ZN19ConsumerProducerCPP8ConsumerD2Ev:0000000000000034 .L0 
     /tmp/cckqcdzN.s:409    .text._ZN19ConsumerProducerCPP8ConsumerD2Ev:0000000000000000 _ZN19ConsumerProducerCPP8ConsumerD1Ev
     /tmp/cckqcdzN.s:446    .text._ZN19ConsumerProducerCPP8ConsumerD0Ev:0000000000000000 _ZN19ConsumerProducerCPP8ConsumerD0Ev
     /tmp/cckqcdzN.s:449    .text._ZN19ConsumerProducerCPP8ConsumerD0Ev:0000000000000000 .L0 
     /tmp/cckqcdzN.s:451    .text._ZN19ConsumerProducerCPP8ConsumerD0Ev:0000000000000000 .L0 
     /tmp/cckqcdzN.s:452    .text._ZN19ConsumerProducerCPP8ConsumerD0Ev:0000000000000004 .L0 
     /tmp/cckqcdzN.s:456    .text._ZN19ConsumerProducerCPP8ConsumerD0Ev:0000000000000010 .L0 
     /tmp/cckqcdzN.s:457    .text._ZN19ConsumerProducerCPP8ConsumerD0Ev:0000000000000010 .L0 
     /tmp/cckqcdzN.s:458    .text._ZN19ConsumerProducerCPP8ConsumerD0Ev:0000000000000010 .L0 
     /tmp/cckqcdzN.s:460    .text._ZN19ConsumerProducerCPP8ConsumerD0Ev:0000000000000014 .L0 
     /tmp/cckqcdzN.s:466    .text._ZN19ConsumerProducerCPP8ConsumerD0Ev:0000000000000018 .L0 
     /tmp/cckqcdzN.s:476    .text._ZN19ConsumerProducerCPP8ConsumerD0Ev:000000000000003c .L0 
     /tmp/cckqcdzN.s:478    .text._ZN19ConsumerProducerCPP8ConsumerD0Ev:0000000000000040 .L0 
     /tmp/cckqcdzN.s:479    .text._ZN19ConsumerProducerCPP8ConsumerD0Ev:0000000000000040 .L0 
     /tmp/cckqcdzN.s:481    .text._ZN19ConsumerProducerCPP8ConsumerD0Ev:0000000000000044 .L0 
     /tmp/cckqcdzN.s:484    .text._ZN19ConsumerProducerCPP8ConsumerD0Ev:0000000000000048 .L0 
     /tmp/cckqcdzN.s:486    .text._ZN19ConsumerProducerCPP8ConsumerD0Ev:000000000000004c .L0 
     /tmp/cckqcdzN.s:493    .text._ZN19ConsumerProducerCPP16ProducerKeyboradD2Ev:0000000000000000 _ZN19ConsumerProducerCPP16ProducerKeyboradD2Ev
     /tmp/cckqcdzN.s:496    .text._ZN19ConsumerProducerCPP16ProducerKeyboradD2Ev:0000000000000000 .L0 
     /tmp/cckqcdzN.s:498    .text._ZN19ConsumerProducerCPP16ProducerKeyboradD2Ev:0000000000000000 .L0 
     /tmp/cckqcdzN.s:499    .text._ZN19ConsumerProducerCPP16ProducerKeyboradD2Ev:0000000000000004 .L0 
     /tmp/cckqcdzN.s:502    .text._ZN19ConsumerProducerCPP16ProducerKeyboradD2Ev:000000000000000c .L0 
     /tmp/cckqcdzN.s:503    .text._ZN19ConsumerProducerCPP16ProducerKeyboradD2Ev:000000000000000c .L0 
     /tmp/cckqcdzN.s:505    .text._ZN19ConsumerProducerCPP16ProducerKeyboradD2Ev:0000000000000010 .L0 
     /tmp/cckqcdzN.s:2050   .data.rel.ro.local._ZTVN19ConsumerProducerCPP16ProducerKeyboradE:0000000000000000 _ZTVN19ConsumerProducerCPP16ProducerKeyboradE
     /tmp/cckqcdzN.s:508    .text._ZN19ConsumerProducerCPP16ProducerKeyboradD2Ev:0000000000000010 .L0 
     /tmp/cckqcdzN.s:514    .text._ZN19ConsumerProducerCPP16ProducerKeyboradD2Ev:0000000000000028 .L0 
GAS LISTING /tmp/cckqcdzN.s 			page 55


     /tmp/cckqcdzN.s:516    .text._ZN19ConsumerProducerCPP16ProducerKeyboradD2Ev:000000000000002c .L0 
     /tmp/cckqcdzN.s:517    .text._ZN19ConsumerProducerCPP16ProducerKeyboradD2Ev:000000000000002c .L0 
     /tmp/cckqcdzN.s:519    .text._ZN19ConsumerProducerCPP16ProducerKeyboradD2Ev:0000000000000030 .L0 
     /tmp/cckqcdzN.s:521    .text._ZN19ConsumerProducerCPP16ProducerKeyboradD2Ev:0000000000000034 .L0 
     /tmp/cckqcdzN.s:493    .text._ZN19ConsumerProducerCPP16ProducerKeyboradD2Ev:0000000000000000 _ZN19ConsumerProducerCPP16ProducerKeyboradD1Ev
     /tmp/cckqcdzN.s:530    .text._ZN19ConsumerProducerCPP16ProducerKeyboradD0Ev:0000000000000000 _ZN19ConsumerProducerCPP16ProducerKeyboradD0Ev
     /tmp/cckqcdzN.s:533    .text._ZN19ConsumerProducerCPP16ProducerKeyboradD0Ev:0000000000000000 .L0 
     /tmp/cckqcdzN.s:535    .text._ZN19ConsumerProducerCPP16ProducerKeyboradD0Ev:0000000000000000 .L0 
     /tmp/cckqcdzN.s:536    .text._ZN19ConsumerProducerCPP16ProducerKeyboradD0Ev:0000000000000004 .L0 
     /tmp/cckqcdzN.s:540    .text._ZN19ConsumerProducerCPP16ProducerKeyboradD0Ev:0000000000000010 .L0 
     /tmp/cckqcdzN.s:541    .text._ZN19ConsumerProducerCPP16ProducerKeyboradD0Ev:0000000000000010 .L0 
     /tmp/cckqcdzN.s:542    .text._ZN19ConsumerProducerCPP16ProducerKeyboradD0Ev:0000000000000010 .L0 
     /tmp/cckqcdzN.s:544    .text._ZN19ConsumerProducerCPP16ProducerKeyboradD0Ev:0000000000000014 .L0 
     /tmp/cckqcdzN.s:550    .text._ZN19ConsumerProducerCPP16ProducerKeyboradD0Ev:0000000000000018 .L0 
     /tmp/cckqcdzN.s:560    .text._ZN19ConsumerProducerCPP16ProducerKeyboradD0Ev:000000000000003c .L0 
     /tmp/cckqcdzN.s:562    .text._ZN19ConsumerProducerCPP16ProducerKeyboradD0Ev:0000000000000040 .L0 
     /tmp/cckqcdzN.s:563    .text._ZN19ConsumerProducerCPP16ProducerKeyboradD0Ev:0000000000000040 .L0 
     /tmp/cckqcdzN.s:565    .text._ZN19ConsumerProducerCPP16ProducerKeyboradD0Ev:0000000000000044 .L0 
     /tmp/cckqcdzN.s:568    .text._ZN19ConsumerProducerCPP16ProducerKeyboradD0Ev:0000000000000048 .L0 
     /tmp/cckqcdzN.s:570    .text._ZN19ConsumerProducerCPP16ProducerKeyboradD0Ev:000000000000004c .L0 
     /tmp/cckqcdzN.s:577    .text._ZN19ConsumerProducerCPP8ProducerD2Ev:0000000000000000 _ZN19ConsumerProducerCPP8ProducerD2Ev
     /tmp/cckqcdzN.s:580    .text._ZN19ConsumerProducerCPP8ProducerD2Ev:0000000000000000 .L0 
     /tmp/cckqcdzN.s:582    .text._ZN19ConsumerProducerCPP8ProducerD2Ev:0000000000000000 .L0 
     /tmp/cckqcdzN.s:583    .text._ZN19ConsumerProducerCPP8ProducerD2Ev:0000000000000004 .L0 
     /tmp/cckqcdzN.s:586    .text._ZN19ConsumerProducerCPP8ProducerD2Ev:000000000000000c .L0 
     /tmp/cckqcdzN.s:587    .text._ZN19ConsumerProducerCPP8ProducerD2Ev:000000000000000c .L0 
     /tmp/cckqcdzN.s:589    .text._ZN19ConsumerProducerCPP8ProducerD2Ev:0000000000000010 .L0 
     /tmp/cckqcdzN.s:2061   .data.rel.ro.local._ZTVN19ConsumerProducerCPP8ProducerE:0000000000000000 _ZTVN19ConsumerProducerCPP8ProducerE
     /tmp/cckqcdzN.s:592    .text._ZN19ConsumerProducerCPP8ProducerD2Ev:0000000000000010 .L0 
     /tmp/cckqcdzN.s:598    .text._ZN19ConsumerProducerCPP8ProducerD2Ev:0000000000000028 .L0 
     /tmp/cckqcdzN.s:600    .text._ZN19ConsumerProducerCPP8ProducerD2Ev:000000000000002c .L0 
     /tmp/cckqcdzN.s:601    .text._ZN19ConsumerProducerCPP8ProducerD2Ev:000000000000002c .L0 
     /tmp/cckqcdzN.s:603    .text._ZN19ConsumerProducerCPP8ProducerD2Ev:0000000000000030 .L0 
     /tmp/cckqcdzN.s:605    .text._ZN19ConsumerProducerCPP8ProducerD2Ev:0000000000000034 .L0 
     /tmp/cckqcdzN.s:577    .text._ZN19ConsumerProducerCPP8ProducerD2Ev:0000000000000000 _ZN19ConsumerProducerCPP8ProducerD1Ev
     /tmp/cckqcdzN.s:614    .text._ZN19ConsumerProducerCPP8ProducerD0Ev:0000000000000000 _ZN19ConsumerProducerCPP8ProducerD0Ev
     /tmp/cckqcdzN.s:617    .text._ZN19ConsumerProducerCPP8ProducerD0Ev:0000000000000000 .L0 
     /tmp/cckqcdzN.s:619    .text._ZN19ConsumerProducerCPP8ProducerD0Ev:0000000000000000 .L0 
     /tmp/cckqcdzN.s:620    .text._ZN19ConsumerProducerCPP8ProducerD0Ev:0000000000000004 .L0 
     /tmp/cckqcdzN.s:624    .text._ZN19ConsumerProducerCPP8ProducerD0Ev:0000000000000010 .L0 
     /tmp/cckqcdzN.s:625    .text._ZN19ConsumerProducerCPP8ProducerD0Ev:0000000000000010 .L0 
     /tmp/cckqcdzN.s:626    .text._ZN19ConsumerProducerCPP8ProducerD0Ev:0000000000000010 .L0 
     /tmp/cckqcdzN.s:628    .text._ZN19ConsumerProducerCPP8ProducerD0Ev:0000000000000014 .L0 
     /tmp/cckqcdzN.s:634    .text._ZN19ConsumerProducerCPP8ProducerD0Ev:0000000000000018 .L0 
     /tmp/cckqcdzN.s:644    .text._ZN19ConsumerProducerCPP8ProducerD0Ev:000000000000003c .L0 
     /tmp/cckqcdzN.s:646    .text._ZN19ConsumerProducerCPP8ProducerD0Ev:0000000000000040 .L0 
     /tmp/cckqcdzN.s:647    .text._ZN19ConsumerProducerCPP8ProducerD0Ev:0000000000000040 .L0 
     /tmp/cckqcdzN.s:649    .text._ZN19ConsumerProducerCPP8ProducerD0Ev:0000000000000044 .L0 
     /tmp/cckqcdzN.s:652    .text._ZN19ConsumerProducerCPP8ProducerD0Ev:0000000000000048 .L0 
     /tmp/cckqcdzN.s:654    .text._ZN19ConsumerProducerCPP8ProducerD0Ev:000000000000004c .L0 
     /tmp/cckqcdzN.s:661    .text._ZN19ConsumerProducerCPP16ProducerKeyborad3runEv:0000000000000000 _ZN19ConsumerProducerCPP16ProducerKeyborad3runEv
     /tmp/cckqcdzN.s:664    .text._ZN19ConsumerProducerCPP16ProducerKeyborad3runEv:0000000000000000 .L0 
     /tmp/cckqcdzN.s:666    .text._ZN19ConsumerProducerCPP16ProducerKeyborad3runEv:0000000000000000 .L0 
     /tmp/cckqcdzN.s:667    .text._ZN19ConsumerProducerCPP16ProducerKeyborad3runEv:0000000000000004 .L0 
     /tmp/cckqcdzN.s:671    .text._ZN19ConsumerProducerCPP16ProducerKeyborad3runEv:0000000000000010 .L0 
     /tmp/cckqcdzN.s:672    .text._ZN19ConsumerProducerCPP16ProducerKeyborad3runEv:0000000000000010 .L0 
     /tmp/cckqcdzN.s:673    .text._ZN19ConsumerProducerCPP16ProducerKeyborad3runEv:0000000000000010 .L0 
GAS LISTING /tmp/cckqcdzN.s 			page 56


     /tmp/cckqcdzN.s:675    .text._ZN19ConsumerProducerCPP16ProducerKeyborad3runEv:0000000000000014 .L0 
     /tmp/cckqcdzN.s:678    .text._ZN19ConsumerProducerCPP16ProducerKeyborad3runEv:0000000000000018 .L0 
     /tmp/cckqcdzN.s:681    .text._ZN19ConsumerProducerCPP16ProducerKeyborad3runEv:0000000000000018 .L0 
     /tmp/cckqcdzN.s:682    .text._ZN19ConsumerProducerCPP16ProducerKeyborad3runEv:0000000000000018 .L0 
     /tmp/cckqcdzN.s:683    .text._ZN19ConsumerProducerCPP16ProducerKeyborad3runEv:0000000000000018 .L0 
     /tmp/cckqcdzN.s:684    .text._ZN19ConsumerProducerCPP16ProducerKeyborad3runEv:0000000000000018 .L0 
     /tmp/cckqcdzN.s:687    .text._ZN19ConsumerProducerCPP16ProducerKeyborad3runEv:0000000000000020 .L0 
     /tmp/cckqcdzN.s:690    .text._ZN19ConsumerProducerCPP16ProducerKeyborad3runEv:0000000000000024 .L0 
     /tmp/cckqcdzN.s:693    .text._ZN19ConsumerProducerCPP16ProducerKeyborad3runEv:000000000000002c .L0 
     /tmp/cckqcdzN.s:695    .text._ZN19ConsumerProducerCPP16ProducerKeyborad3runEv:0000000000000030 .L0 
     /tmp/cckqcdzN.s:699    .text._ZN19ConsumerProducerCPP16ProducerKeyborad3runEv:000000000000003c .L0 
     /tmp/cckqcdzN.s:700    .text._ZN19ConsumerProducerCPP16ProducerKeyborad3runEv:000000000000003c .L0 
     /tmp/cckqcdzN.s:704    .text._ZN19ConsumerProducerCPP16ProducerKeyborad3runEv:0000000000000040 .L0 
     /tmp/cckqcdzN.s:705    .text._ZN19ConsumerProducerCPP16ProducerKeyborad3runEv:0000000000000040 .L0 
     /tmp/cckqcdzN.s:708    .text._ZN19ConsumerProducerCPP16ProducerKeyborad3runEv:000000000000004c .L0 
     /tmp/cckqcdzN.s:710    .text._ZN19ConsumerProducerCPP16ProducerKeyborad3runEv:0000000000000050 .L0 
     /tmp/cckqcdzN.s:717    .text._ZN19ConsumerProducerCPP16ProducerKeyborad3runEv:0000000000000060 .L0 
     /tmp/cckqcdzN.s:719    .text._ZN19ConsumerProducerCPP16ProducerKeyborad3runEv:0000000000000064 .L0 
     /tmp/cckqcdzN.s:723    .text._ZN19ConsumerProducerCPP16ProducerKeyborad3runEv:0000000000000070 .L0 
     /tmp/cckqcdzN.s:724    .text._ZN19ConsumerProducerCPP16ProducerKeyborad3runEv:0000000000000074 .L0 
     /tmp/cckqcdzN.s:726    .text._ZN19ConsumerProducerCPP16ProducerKeyborad3runEv:0000000000000078 .L0 
     /tmp/cckqcdzN.s:727    .text._ZN19ConsumerProducerCPP16ProducerKeyborad3runEv:0000000000000078 .L0 
     /tmp/cckqcdzN.s:729    .text._ZN19ConsumerProducerCPP16ProducerKeyborad3runEv:000000000000007c .L0 
     /tmp/cckqcdzN.s:732    .text._ZN19ConsumerProducerCPP16ProducerKeyborad3runEv:0000000000000080 .L0 
     /tmp/cckqcdzN.s:734    .text._ZN19ConsumerProducerCPP16ProducerKeyborad3runEv:0000000000000084 .L0 
     /tmp/cckqcdzN.s:741    .text._ZN19ConsumerProducerCPP8Producer3runEv:0000000000000000 _ZN19ConsumerProducerCPP8Producer3runEv
     /tmp/cckqcdzN.s:744    .text._ZN19ConsumerProducerCPP8Producer3runEv:0000000000000000 .L0 
     /tmp/cckqcdzN.s:746    .text._ZN19ConsumerProducerCPP8Producer3runEv:0000000000000000 .L0 
     /tmp/cckqcdzN.s:747    .text._ZN19ConsumerProducerCPP8Producer3runEv:0000000000000004 .L0 
     /tmp/cckqcdzN.s:752    .text._ZN19ConsumerProducerCPP8Producer3runEv:0000000000000014 .L0 
     /tmp/cckqcdzN.s:753    .text._ZN19ConsumerProducerCPP8Producer3runEv:0000000000000014 .L0 
     /tmp/cckqcdzN.s:754    .text._ZN19ConsumerProducerCPP8Producer3runEv:0000000000000014 .L0 
     /tmp/cckqcdzN.s:755    .text._ZN19ConsumerProducerCPP8Producer3runEv:0000000000000014 .L0 
     /tmp/cckqcdzN.s:757    .text._ZN19ConsumerProducerCPP8Producer3runEv:0000000000000018 .L0 
     /tmp/cckqcdzN.s:761    .text._ZN19ConsumerProducerCPP8Producer3runEv:000000000000001c .L0 
     /tmp/cckqcdzN.s:762    .text._ZN19ConsumerProducerCPP8Producer3runEv:000000000000001c .L0 
     /tmp/cckqcdzN.s:766    .text._ZN19ConsumerProducerCPP8Producer3runEv:0000000000000020 .L0 
     /tmp/cckqcdzN.s:767    .text._ZN19ConsumerProducerCPP8Producer3runEv:0000000000000020 .L0 
     /tmp/cckqcdzN.s:770    .text._ZN19ConsumerProducerCPP8Producer3runEv:000000000000002c .L0 
     /tmp/cckqcdzN.s:772    .text._ZN19ConsumerProducerCPP8Producer3runEv:0000000000000030 .L0 
     /tmp/cckqcdzN.s:774    .text._ZN19ConsumerProducerCPP8Producer3runEv:0000000000000034 .L0 
     /tmp/cckqcdzN.s:779    .text._ZN19ConsumerProducerCPP8Producer3runEv:0000000000000044 .L0 
     /tmp/cckqcdzN.s:780    .text._ZN19ConsumerProducerCPP8Producer3runEv:0000000000000044 .L0 
     /tmp/cckqcdzN.s:784    .text._ZN19ConsumerProducerCPP8Producer3runEv:000000000000004c .L0 
     /tmp/cckqcdzN.s:785    .text._ZN19ConsumerProducerCPP8Producer3runEv:000000000000004c .L0 
     /tmp/cckqcdzN.s:787    .text._ZN19ConsumerProducerCPP8Producer3runEv:0000000000000050 .L0 
     /tmp/cckqcdzN.s:789    .text._ZN19ConsumerProducerCPP8Producer3runEv:0000000000000054 .L0 
     /tmp/cckqcdzN.s:791    .text._ZN19ConsumerProducerCPP8Producer3runEv:0000000000000058 .L0 
     /tmp/cckqcdzN.s:796    .text._ZN19ConsumerProducerCPP8Producer3runEv:0000000000000068 .L0 
     /tmp/cckqcdzN.s:799    .text._ZN19ConsumerProducerCPP8Producer3runEv:000000000000006c .L0 
     /tmp/cckqcdzN.s:801    .text._ZN19ConsumerProducerCPP8Producer3runEv:0000000000000070 .L0 
     /tmp/cckqcdzN.s:805    .text._ZN19ConsumerProducerCPP8Producer3runEv:000000000000007c .L0 
     /tmp/cckqcdzN.s:806    .text._ZN19ConsumerProducerCPP8Producer3runEv:0000000000000080 .L0 
     /tmp/cckqcdzN.s:808    .text._ZN19ConsumerProducerCPP8Producer3runEv:0000000000000084 .L0 
     /tmp/cckqcdzN.s:809    .text._ZN19ConsumerProducerCPP8Producer3runEv:0000000000000084 .L0 
     /tmp/cckqcdzN.s:811    .text._ZN19ConsumerProducerCPP8Producer3runEv:0000000000000088 .L0 
     /tmp/cckqcdzN.s:814    .text._ZN19ConsumerProducerCPP8Producer3runEv:000000000000008c .L0 
GAS LISTING /tmp/cckqcdzN.s 			page 57


     /tmp/cckqcdzN.s:817    .text._ZN19ConsumerProducerCPP8Producer3runEv:0000000000000090 .L0 
     /tmp/cckqcdzN.s:819    .text._ZN19ConsumerProducerCPP8Producer3runEv:0000000000000094 .L0 
     /tmp/cckqcdzN.s:826    .text:00000000000001a0 _Z9fibonaccim
     /tmp/cckqcdzN.s:829    .text:00000000000001a0 .L0 
     /tmp/cckqcdzN.s:831    .text:00000000000001a0 .L0 
     /tmp/cckqcdzN.s:832    .text:00000000000001a4 .L0 
     /tmp/cckqcdzN.s:837    .text:00000000000001b4 .L0 
     /tmp/cckqcdzN.s:838    .text:00000000000001b4 .L0 
     /tmp/cckqcdzN.s:839    .text:00000000000001b4 .L0 
     /tmp/cckqcdzN.s:840    .text:00000000000001b4 .L0 
     /tmp/cckqcdzN.s:842    .text:00000000000001b8 .L0 
     /tmp/cckqcdzN.s:845    .text:00000000000001bc .L0 
     /tmp/cckqcdzN.s:848    .text:00000000000001c4 .L0 
     /tmp/cckqcdzN.s:849    .text:00000000000001c4 .L0 
     /tmp/cckqcdzN.s:852    .text:00000000000001cc .L0 
     /tmp/cckqcdzN.s:856    .text:00000000000001d0 .L0 
     /tmp/cckqcdzN.s:857    .text:00000000000001d0 .L0 
     /tmp/cckqcdzN.s:862    .text:00000000000001e0 .L0 
     /tmp/cckqcdzN.s:866    .text:00000000000001ec .L0 
     /tmp/cckqcdzN.s:869    .text:00000000000001f0 .L0 
     /tmp/cckqcdzN.s:870    .text:00000000000001f4 .L0 
     /tmp/cckqcdzN.s:871    .text:00000000000001f4 .L0 
     /tmp/cckqcdzN.s:873    .text:00000000000001f8 .L0 
     /tmp/cckqcdzN.s:874    .text:00000000000001f8 .L0 
     /tmp/cckqcdzN.s:876    .text:00000000000001fc .L0 
     /tmp/cckqcdzN.s:879    .text:0000000000000200 .L0 
     /tmp/cckqcdzN.s:881    .text:0000000000000204 .L0 
     /tmp/cckqcdzN.s:885    .text:0000000000000208 .L0 
     /tmp/cckqcdzN.s:887    .text:0000000000000208 .L0 
     /tmp/cckqcdzN.s:888    .text:0000000000000208 .L0 
     /tmp/cckqcdzN.s:891    .text:0000000000000214 .L0 
     /tmp/cckqcdzN.s:911    .text:0000000000000214 _Z11workerBodyCPv
     /tmp/cckqcdzN.s:914    .text:0000000000000214 .L0 
     /tmp/cckqcdzN.s:916    .text:0000000000000214 .L0 
     /tmp/cckqcdzN.s:917    .text:0000000000000218 .L0 
     /tmp/cckqcdzN.s:922    .text:0000000000000228 .L0 
     /tmp/cckqcdzN.s:923    .text:0000000000000228 .L0 
     /tmp/cckqcdzN.s:924    .text:0000000000000228 .L0 
     /tmp/cckqcdzN.s:925    .text:0000000000000228 .L0 
     /tmp/cckqcdzN.s:927    .text:000000000000022c .L0 
     /tmp/cckqcdzN.s:930    .text:000000000000022c .L0 
     /tmp/cckqcdzN.s:931    .text:000000000000022c .L0 
     /tmp/cckqcdzN.s:936    .text:0000000000000234 .L0 
     /tmp/cckqcdzN.s:937    .text:0000000000000234 .L0 
     /tmp/cckqcdzN.s:941    .text:0000000000000244 .L0 
     /tmp/cckqcdzN.s:942    .text:0000000000000244 .L0 
     /tmp/cckqcdzN.s:948    .text:0000000000000258 .L0 
     /tmp/cckqcdzN.s:949    .text:0000000000000258 .L0 
     /tmp/cckqcdzN.s:953    .text:0000000000000268 .L0 
     /tmp/cckqcdzN.s:959    .text:0000000000000270 .L0 
     /tmp/cckqcdzN.s:960    .text:0000000000000270 .L0 
     /tmp/cckqcdzN.s:963    .text:0000000000000278 .L0 
     /tmp/cckqcdzN.s:964    .text:0000000000000278 .L0 
     /tmp/cckqcdzN.s:968    .text:0000000000000288 .L0 
tests/Threads_C_API_test.hpp:51     .text:0000000000000288 .L0 
     /tmp/cckqcdzN.s:974    .text:000000000000028c .L0 
     /tmp/cckqcdzN.s:976    .text:000000000000028c .L0 
GAS LISTING /tmp/cckqcdzN.s 			page 58


     /tmp/cckqcdzN.s:979    .text:0000000000000294 .L0 
     /tmp/cckqcdzN.s:980    .text:0000000000000294 .L0 
tests/Threads_C_API_test.hpp:55     .text:0000000000000294 .L0 
     /tmp/cckqcdzN.s:987    .text:0000000000000298 .L0 
     /tmp/cckqcdzN.s:989    .text:0000000000000298 .L0 
     /tmp/cckqcdzN.s:993    .text:00000000000002a8 .L0 
     /tmp/cckqcdzN.s:994    .text:00000000000002a8 .L0 
     /tmp/cckqcdzN.s:1000   .text:00000000000002bc .L0 
     /tmp/cckqcdzN.s:1001   .text:00000000000002bc .L0 
     /tmp/cckqcdzN.s:1005   .text:00000000000002cc .L0 
     /tmp/cckqcdzN.s:1006   .text:00000000000002cc .L0 
     /tmp/cckqcdzN.s:1012   .text:00000000000002dc .L0 
     /tmp/cckqcdzN.s:1013   .text:00000000000002dc .L0 
     /tmp/cckqcdzN.s:1018   .text:00000000000002ec .L0 
     /tmp/cckqcdzN.s:1019   .text:00000000000002ec .L0 
     /tmp/cckqcdzN.s:1025   .text:0000000000000300 .L0 
     /tmp/cckqcdzN.s:1026   .text:0000000000000300 .L0 
     /tmp/cckqcdzN.s:1032   .text:0000000000000314 .L0 
     /tmp/cckqcdzN.s:1033   .text:0000000000000314 .L0 
     /tmp/cckqcdzN.s:1037   .text:0000000000000324 .L0 
     /tmp/cckqcdzN.s:1038   .text:0000000000000324 .L0 
     /tmp/cckqcdzN.s:1044   .text:0000000000000338 .L0 
     /tmp/cckqcdzN.s:1045   .text:0000000000000338 .L0 
     /tmp/cckqcdzN.s:1049   .text:0000000000000348 .L0 
     /tmp/cckqcdzN.s:1055   .text:0000000000000350 .L0 
     /tmp/cckqcdzN.s:1056   .text:0000000000000350 .L0 
     /tmp/cckqcdzN.s:1059   .text:0000000000000358 .L0 
     /tmp/cckqcdzN.s:1060   .text:0000000000000358 .L0 
     /tmp/cckqcdzN.s:1064   .text:0000000000000368 .L0 
     /tmp/cckqcdzN.s:1065   .text:0000000000000368 .L0 
     /tmp/cckqcdzN.s:1068   .text:0000000000000374 .L0 
     /tmp/cckqcdzN.s:1069   .text:0000000000000374 .L0 
     /tmp/cckqcdzN.s:1072   .text:000000000000037c .L0 
     /tmp/cckqcdzN.s:1073   .text:0000000000000380 .L0 
     /tmp/cckqcdzN.s:1075   .text:0000000000000384 .L0 
     /tmp/cckqcdzN.s:1076   .text:0000000000000384 .L0 
     /tmp/cckqcdzN.s:1078   .text:0000000000000388 .L0 
     /tmp/cckqcdzN.s:1081   .text:000000000000038c .L0 
     /tmp/cckqcdzN.s:1084   .text:0000000000000390 .L0 
     /tmp/cckqcdzN.s:1086   .text:0000000000000394 .L0 
     /tmp/cckqcdzN.s:1106   .text:0000000000000394 _Z11workerBodyDPv
     /tmp/cckqcdzN.s:1109   .text:0000000000000394 .L0 
     /tmp/cckqcdzN.s:1111   .text:0000000000000394 .L0 
     /tmp/cckqcdzN.s:1112   .text:0000000000000398 .L0 
     /tmp/cckqcdzN.s:1117   .text:00000000000003a8 .L0 
     /tmp/cckqcdzN.s:1118   .text:00000000000003a8 .L0 
     /tmp/cckqcdzN.s:1119   .text:00000000000003a8 .L0 
     /tmp/cckqcdzN.s:1120   .text:00000000000003a8 .L0 
     /tmp/cckqcdzN.s:1122   .text:00000000000003ac .L0 
     /tmp/cckqcdzN.s:1125   .text:00000000000003ac .L0 
     /tmp/cckqcdzN.s:1126   .text:00000000000003ac .L0 
     /tmp/cckqcdzN.s:1131   .text:00000000000003b4 .L0 
     /tmp/cckqcdzN.s:1132   .text:00000000000003b4 .L0 
     /tmp/cckqcdzN.s:1136   .text:00000000000003c4 .L0 
     /tmp/cckqcdzN.s:1137   .text:00000000000003c4 .L0 
     /tmp/cckqcdzN.s:1143   .text:00000000000003d8 .L0 
     /tmp/cckqcdzN.s:1144   .text:00000000000003d8 .L0 
GAS LISTING /tmp/cckqcdzN.s 			page 59


     /tmp/cckqcdzN.s:1148   .text:00000000000003e8 .L0 
     /tmp/cckqcdzN.s:1154   .text:00000000000003f0 .L0 
     /tmp/cckqcdzN.s:1155   .text:00000000000003f0 .L0 
     /tmp/cckqcdzN.s:1158   .text:00000000000003f8 .L0 
     /tmp/cckqcdzN.s:1159   .text:00000000000003f8 .L0 
     /tmp/cckqcdzN.s:1163   .text:0000000000000408 .L0 
tests/Threads_C_API_test.hpp:78     .text:0000000000000408 .L0 
     /tmp/cckqcdzN.s:1169   .text:000000000000040c .L0 
     /tmp/cckqcdzN.s:1171   .text:000000000000040c .L0 
     /tmp/cckqcdzN.s:1174   .text:0000000000000414 .L0 
     /tmp/cckqcdzN.s:1175   .text:0000000000000414 .L0 
     /tmp/cckqcdzN.s:1181   .text:0000000000000424 .L0 
     /tmp/cckqcdzN.s:1182   .text:0000000000000424 .L0 
     /tmp/cckqcdzN.s:1187   .text:0000000000000434 .L0 
     /tmp/cckqcdzN.s:1188   .text:0000000000000434 .L0 
     /tmp/cckqcdzN.s:1194   .text:0000000000000448 .L0 
     /tmp/cckqcdzN.s:1195   .text:0000000000000448 .L0 
     /tmp/cckqcdzN.s:1201   .text:000000000000045c .L0 
     /tmp/cckqcdzN.s:1202   .text:000000000000045c .L0 
     /tmp/cckqcdzN.s:1206   .text:000000000000046c .L0 
     /tmp/cckqcdzN.s:1207   .text:000000000000046c .L0 
     /tmp/cckqcdzN.s:1213   .text:0000000000000480 .L0 
     /tmp/cckqcdzN.s:1214   .text:0000000000000480 .L0 
     /tmp/cckqcdzN.s:1218   .text:0000000000000490 .L0 
     /tmp/cckqcdzN.s:1224   .text:0000000000000498 .L0 
     /tmp/cckqcdzN.s:1225   .text:0000000000000498 .L0 
     /tmp/cckqcdzN.s:1228   .text:00000000000004a0 .L0 
     /tmp/cckqcdzN.s:1229   .text:00000000000004a0 .L0 
     /tmp/cckqcdzN.s:1233   .text:00000000000004b0 .L0 
     /tmp/cckqcdzN.s:1234   .text:00000000000004b0 .L0 
     /tmp/cckqcdzN.s:1237   .text:00000000000004bc .L0 
     /tmp/cckqcdzN.s:1238   .text:00000000000004bc .L0 
     /tmp/cckqcdzN.s:1241   .text:00000000000004c4 .L0 
     /tmp/cckqcdzN.s:1242   .text:00000000000004c8 .L0 
     /tmp/cckqcdzN.s:1244   .text:00000000000004cc .L0 
     /tmp/cckqcdzN.s:1245   .text:00000000000004cc .L0 
     /tmp/cckqcdzN.s:1247   .text:00000000000004d0 .L0 
     /tmp/cckqcdzN.s:1250   .text:00000000000004d4 .L0 
     /tmp/cckqcdzN.s:1253   .text:00000000000004d8 .L0 
     /tmp/cckqcdzN.s:1255   .text:00000000000004dc .L0 
     /tmp/cckqcdzN.s:1275   .text:00000000000004dc _Z18Threads_C_API_testv
     /tmp/cckqcdzN.s:1278   .text:00000000000004dc .L0 
     /tmp/cckqcdzN.s:1279   .text:00000000000004dc .L0 
     /tmp/cckqcdzN.s:1280   .text:00000000000004e0 .L0 
     /tmp/cckqcdzN.s:1284   .text:00000000000004ec .L0 
     /tmp/cckqcdzN.s:1285   .text:00000000000004ec .L0 
     /tmp/cckqcdzN.s:1286   .text:00000000000004ec .L0 
     /tmp/cckqcdzN.s:1288   .text:00000000000004f0 .L0 
     /tmp/cckqcdzN.s:1290   .text:00000000000004f0 .L0 
     /tmp/cckqcdzN.s:1291   .text:00000000000004f0 .L0 
     /tmp/cckqcdzN.s:1292   .text:00000000000004f0 .L0 
     /tmp/cckqcdzN.s:1298   .text:0000000000000508 .L0 
     /tmp/cckqcdzN.s:1299   .text:0000000000000508 .L0 
     /tmp/cckqcdzN.s:1303   .text:0000000000000518 .L0 
     /tmp/cckqcdzN.s:1304   .text:0000000000000518 .L0 
     /tmp/cckqcdzN.s:1310   .text:0000000000000530 .L0 
     /tmp/cckqcdzN.s:1311   .text:0000000000000530 .L0 
GAS LISTING /tmp/cckqcdzN.s 			page 60


     /tmp/cckqcdzN.s:1315   .text:0000000000000540 .L0 
     /tmp/cckqcdzN.s:1316   .text:0000000000000540 .L0 
     /tmp/cckqcdzN.s:1322   .text:0000000000000558 .L0 
     /tmp/cckqcdzN.s:1323   .text:0000000000000558 .L0 
     /tmp/cckqcdzN.s:1327   .text:0000000000000568 .L0 
     /tmp/cckqcdzN.s:1328   .text:0000000000000568 .L0 
     /tmp/cckqcdzN.s:1334   .text:0000000000000580 .L0 
     /tmp/cckqcdzN.s:1335   .text:0000000000000580 .L0 
     /tmp/cckqcdzN.s:1341   .text:0000000000000594 .L0 
     /tmp/cckqcdzN.s:1342   .text:0000000000000594 .L0 
     /tmp/cckqcdzN.s:1346   .text:000000000000059c .L0 
     /tmp/cckqcdzN.s:1347   .text:000000000000059c .L0 
     /tmp/cckqcdzN.s:1350   .text:00000000000005a8 .L0 
     /tmp/cckqcdzN.s:1353   .text:00000000000005b4 .L0 
     /tmp/cckqcdzN.s:1356   .text:00000000000005c0 .L0 
     /tmp/cckqcdzN.s:1360   .text:00000000000005cc .L0 
     /tmp/cckqcdzN.s:1365   .text:00000000000005d4 .L0 
     /tmp/cckqcdzN.s:1369   .text:00000000000005d8 .L0 
     /tmp/cckqcdzN.s:1373   .text:00000000000005e0 .L0 
     /tmp/cckqcdzN.s:1374   .text:00000000000005e0 .L0 
     /tmp/cckqcdzN.s:1376   .text:00000000000005e4 .L0 
     /tmp/cckqcdzN.s:1378   .text:00000000000005e8 .L0 
     /tmp/cckqcdzN.s:1385   .text:00000000000005f4 .L0 
     /tmp/cckqcdzN.s:1386   .text:00000000000005f8 .L0 
     /tmp/cckqcdzN.s:1388   .text:00000000000005fc .L0 
     /tmp/cckqcdzN.s:1389   .text:00000000000005fc .L0 
     /tmp/cckqcdzN.s:1391   .text:0000000000000600 .L0 
     /tmp/cckqcdzN.s:1394   .text:0000000000000604 .L0 
     /tmp/cckqcdzN.s:1396   .text:0000000000000608 .L0 
     /tmp/cckqcdzN.s:1425   .text:0000000000000608 _ZN19ConsumerProducerCPP20testConsumerProducerEv
     /tmp/cckqcdzN.s:1428   .text:0000000000000608 .L0 
     /tmp/cckqcdzN.s:7300   .data.rel.local.DW.ref.__gxx_personality_v0:0000000000000000 DW.ref.__gxx_personality_v0
     /tmp/cckqcdzN.s:1431   .text:0000000000000608 .L0 
     /tmp/cckqcdzN.s:1432   .text:000000000000060c .L0 
     /tmp/cckqcdzN.s:1444   .text:0000000000000638 .L0 
     /tmp/cckqcdzN.s:1445   .text:0000000000000638 .L0 
     /tmp/cckqcdzN.s:1446   .text:0000000000000638 .L0 
     /tmp/cckqcdzN.s:1447   .text:0000000000000638 .L0 
     /tmp/cckqcdzN.s:1448   .text:0000000000000638 .L0 
     /tmp/cckqcdzN.s:1449   .text:0000000000000638 .L0 
     /tmp/cckqcdzN.s:1450   .text:0000000000000638 .L0 
     /tmp/cckqcdzN.s:1451   .text:0000000000000638 .L0 
     /tmp/cckqcdzN.s:1452   .text:0000000000000638 .L0 
     /tmp/cckqcdzN.s:1453   .text:0000000000000638 .L0 
     /tmp/cckqcdzN.s:1454   .text:0000000000000638 .L0 
     /tmp/cckqcdzN.s:1456   .text:000000000000063c .L0 
     /tmp/cckqcdzN.s:1458   .text:000000000000063c .L0 
     /tmp/cckqcdzN.s:1460   .text:0000000000000640 .L0 
     /tmp/cckqcdzN.s:1461   .text:0000000000000640 .L0 
     /tmp/cckqcdzN.s:1462   .text:0000000000000640 .L0 
     /tmp/cckqcdzN.s:1463   .text:0000000000000640 .L0 
     /tmp/cckqcdzN.s:1468   .text:0000000000000650 .L0 
     /tmp/cckqcdzN.s:1469   .text:0000000000000650 .L0 
     /tmp/cckqcdzN.s:1475   .text:0000000000000664 .L0 
     /tmp/cckqcdzN.s:1476   .text:0000000000000664 .L0 
     /tmp/cckqcdzN.s:1482   .text:0000000000000674 .L0 
     /tmp/cckqcdzN.s:1483   .text:0000000000000674 .L0 
GAS LISTING /tmp/cckqcdzN.s 			page 61


     /tmp/cckqcdzN.s:1487   .text:0000000000000684 .L0 
     /tmp/cckqcdzN.s:1488   .text:0000000000000684 .L0 
     /tmp/cckqcdzN.s:1493   .text:0000000000000694 .L0 
     /tmp/cckqcdzN.s:1494   .text:0000000000000694 .L0 
     /tmp/cckqcdzN.s:1500   .text:00000000000006a4 .L0 
     /tmp/cckqcdzN.s:1501   .text:00000000000006a4 .L0 
     /tmp/cckqcdzN.s:1505   .text:00000000000006b4 .L0 
     /tmp/cckqcdzN.s:1506   .text:00000000000006b4 .L0 
     /tmp/cckqcdzN.s:1512   .text:00000000000006c8 .L0 
     /tmp/cckqcdzN.s:1513   .text:00000000000006c8 .L0 
     /tmp/cckqcdzN.s:1517   .text:00000000000006d8 .L0 
     /tmp/cckqcdzN.s:1518   .text:00000000000006d8 .L0 
     /tmp/cckqcdzN.s:1524   .text:00000000000006ec .L0 
     /tmp/cckqcdzN.s:1525   .text:00000000000006ec .L0 
     /tmp/cckqcdzN.s:1529   .text:00000000000006fc .L0 
     /tmp/cckqcdzN.s:1531   .text:0000000000000700 .L0 
     /tmp/cckqcdzN.s:1533   .text:0000000000000704 .L0 
     /tmp/cckqcdzN.s:1534   .text:0000000000000704 .L0 
     /tmp/cckqcdzN.s:1547   .text:0000000000000724 .L0 
     /tmp/cckqcdzN.s:1548   .text:0000000000000724 .L0 
     /tmp/cckqcdzN.s:1553   .text:0000000000000734 .L0 
     /tmp/cckqcdzN.s:1556   .text:0000000000000738 .L0 
     /tmp/cckqcdzN.s:1557   .text:0000000000000738 .L0 
     /tmp/cckqcdzN.s:1562   .text:0000000000000748 .L0 
     /tmp/cckqcdzN.s:1567   .text:0000000000000750 .L0 
     /tmp/cckqcdzN.s:1568   .text:0000000000000750 .L0 
     /tmp/cckqcdzN.s:1580   .text:000000000000076c .L0 
     /tmp/cckqcdzN.s:1584   .text:0000000000000778 .L0 
     /tmp/cckqcdzN.s:1585   .text:0000000000000778 .L0 
     /tmp/cckqcdzN.s:1592   .text:000000000000078c .L0 
     /tmp/cckqcdzN.s:1593   .text:000000000000078c .L0 
     /tmp/cckqcdzN.s:1596   .text:0000000000000790 .L0 
     /tmp/cckqcdzN.s:1606   .text:00000000000007ac .L0 
     /tmp/cckqcdzN.s:1607   .text:00000000000007ac .L0 
     /tmp/cckqcdzN.s:1613   .text:00000000000007c0 .L0 
     /tmp/cckqcdzN.s:1614   .text:00000000000007c0 .L0 
     /tmp/cckqcdzN.s:1616   .text:00000000000007c4 .L0 
     /tmp/cckqcdzN.s:1617   .text:00000000000007c4 .L0 
     /tmp/cckqcdzN.s:1620   .text:00000000000007cc .L0 
     /tmp/cckqcdzN.s:1621   .text:00000000000007cc .L0 
     /tmp/cckqcdzN.s:1632   .text:00000000000007dc .L0 
     /tmp/cckqcdzN.s:1636   .text:00000000000007e4 .L0 
     /tmp/cckqcdzN.s:1643   .text:00000000000007f4 .L0 
     /tmp/cckqcdzN.s:1644   .text:00000000000007f4 .L0 
     /tmp/cckqcdzN.s:1649   .text:0000000000000800 .L0 
     /tmp/cckqcdzN.s:1650   .text:0000000000000800 .L0 
     /tmp/cckqcdzN.s:1652   .text:0000000000000804 .L0 
     /tmp/cckqcdzN.s:1653   .text:0000000000000804 .L0 
     /tmp/cckqcdzN.s:1655   .text:0000000000000808 .L0 
     /tmp/cckqcdzN.s:1656   .text:0000000000000808 .L0 
     /tmp/cckqcdzN.s:1659   .text:0000000000000814 .L0 
     /tmp/cckqcdzN.s:1660   .text:0000000000000814 .L0 
     /tmp/cckqcdzN.s:1670   .text:0000000000000824 .L0 
     /tmp/cckqcdzN.s:1680   .text:000000000000083c .L0 
     /tmp/cckqcdzN.s:1682   .text:0000000000000840 .L0 
     /tmp/cckqcdzN.s:1683   .text:0000000000000840 .L0 
     /tmp/cckqcdzN.s:1689   .text:000000000000084c .L0 
GAS LISTING /tmp/cckqcdzN.s 			page 62


     /tmp/cckqcdzN.s:1696   .text:0000000000000854 .L0 
     /tmp/cckqcdzN.s:1703   .text:0000000000000864 .L0 
     /tmp/cckqcdzN.s:1707   .text:0000000000000870 .L0 
     /tmp/cckqcdzN.s:1708   .text:0000000000000870 .L0 
     /tmp/cckqcdzN.s:1712   .text:000000000000087c .L0 
     /tmp/cckqcdzN.s:1716   .text:0000000000000880 .L0 
     /tmp/cckqcdzN.s:1718   .text:0000000000000884 .L0 
     /tmp/cckqcdzN.s:1719   .text:0000000000000884 .L0 
     /tmp/cckqcdzN.s:1725   .text:0000000000000898 .L0 
     /tmp/cckqcdzN.s:1726   .text:0000000000000898 .L0 
     /tmp/cckqcdzN.s:1728   .text:000000000000089c .L0 
     /tmp/cckqcdzN.s:1729   .text:000000000000089c .L0 
     /tmp/cckqcdzN.s:1732   .text:00000000000008a8 .L0 
     /tmp/cckqcdzN.s:1733   .text:00000000000008a8 .L0 
     /tmp/cckqcdzN.s:1743   .text:00000000000008b8 .L0 
     /tmp/cckqcdzN.s:1754   .text:00000000000008c4 .L0 
     /tmp/cckqcdzN.s:1755   .text:00000000000008c4 .L0 
     /tmp/cckqcdzN.s:1759   .text:00000000000008cc .L0 
     /tmp/cckqcdzN.s:1763   .text:00000000000008d0 .L0 
     /tmp/cckqcdzN.s:1765   .text:00000000000008d4 .L0 
     /tmp/cckqcdzN.s:1766   .text:00000000000008d4 .L0 
     /tmp/cckqcdzN.s:1770   .text:00000000000008e4 .L0 
     /tmp/cckqcdzN.s:1777   .text:00000000000008ec .L0 
     /tmp/cckqcdzN.s:1778   .text:00000000000008ec .L0 
     /tmp/cckqcdzN.s:1780   .text:00000000000008f4 .L0 
     /tmp/cckqcdzN.s:1782   .text:00000000000008f8 .L0 
     /tmp/cckqcdzN.s:1789   .text:0000000000000904 .L0 
     /tmp/cckqcdzN.s:1797   .text:000000000000090c .L0 
     /tmp/cckqcdzN.s:1801   .text:0000000000000910 .L0 
     /tmp/cckqcdzN.s:1803   .text:0000000000000914 .L0 
     /tmp/cckqcdzN.s:1804   .text:0000000000000914 .L0 
     /tmp/cckqcdzN.s:1808   .text:0000000000000920 .L0 
     /tmp/cckqcdzN.s:1810   .text:0000000000000924 .L0 
     /tmp/cckqcdzN.s:1818   .text:0000000000000934 .L0 
     /tmp/cckqcdzN.s:1819   .text:0000000000000934 .L0 
     /tmp/cckqcdzN.s:1821   .text:0000000000000938 .L0 
     /tmp/cckqcdzN.s:1828   .text:0000000000000948 .L0 
     /tmp/cckqcdzN.s:1829   .text:0000000000000948 .L0 
     /tmp/cckqcdzN.s:1831   .text:000000000000094c .L0 
     /tmp/cckqcdzN.s:1843   .text:0000000000000968 .L0 
     /tmp/cckqcdzN.s:1844   .text:000000000000096c .L0 
     /tmp/cckqcdzN.s:1845   .text:000000000000096c .L0 
     /tmp/cckqcdzN.s:1847   .text:0000000000000970 .L0 
     /tmp/cckqcdzN.s:1849   .text:0000000000000974 .L0 
     /tmp/cckqcdzN.s:1851   .text:0000000000000978 .L0 
     /tmp/cckqcdzN.s:1853   .text:000000000000097c .L0 
     /tmp/cckqcdzN.s:1855   .text:0000000000000980 .L0 
     /tmp/cckqcdzN.s:1858   .text:0000000000000984 .L0 
     /tmp/cckqcdzN.s:1860   .text:0000000000000988 .L0 
     /tmp/cckqcdzN.s:1862   .text:000000000000098c .L0 
     /tmp/cckqcdzN.s:1864   .text:0000000000000990 .L0 
     /tmp/cckqcdzN.s:1866   .text:0000000000000994 .L0 
     /tmp/cckqcdzN.s:1868   .text:0000000000000998 .L0 
     /tmp/cckqcdzN.s:1870   .text:000000000000099c .L0 
     /tmp/cckqcdzN.s:1874   .text:00000000000009a0 .L0 
     /tmp/cckqcdzN.s:1878   .text:00000000000009a4 .L0 
     /tmp/cckqcdzN.s:1889   .text:00000000000009c0 .L0 
GAS LISTING /tmp/cckqcdzN.s 			page 63


     /tmp/cckqcdzN.s:1901   .text:00000000000009dc .L0 
     /tmp/cckqcdzN.s:1912   .text:00000000000009f8 .L0 
     /tmp/cckqcdzN.s:1925   .text:0000000000000a14 .L0 
     /tmp/cckqcdzN.s:1934   .text:0000000000000a2c .L0 
     /tmp/cckqcdzN.s:2012   .text:0000000000000a2c _Z8userMainv
     /tmp/cckqcdzN.s:2016   .text:0000000000000a2c .L0 
     /tmp/cckqcdzN.s:2017   .text:0000000000000a2c .L0 
     /tmp/cckqcdzN.s:2018   .text:0000000000000a30 .L0 
     /tmp/cckqcdzN.s:2021   .text:0000000000000a38 .L0 
     /tmp/cckqcdzN.s:2022   .text:0000000000000a38 .L0 
     /tmp/cckqcdzN.s:2024   .text:0000000000000a3c .L0 
     /tmp/cckqcdzN.s:2026   .text:0000000000000a3c .L0 
     /tmp/cckqcdzN.s:2027   .text:0000000000000a3c .L0 
     /tmp/cckqcdzN.s:2030   .text:0000000000000a44 .L0 
     /tmp/cckqcdzN.s:2031   .text:0000000000000a44 .L0 
     /tmp/cckqcdzN.s:2034   .text:0000000000000a4c .L0 
     /tmp/cckqcdzN.s:2035   .text:0000000000000a50 .L0 
     /tmp/cckqcdzN.s:2037   .text:0000000000000a54 .L0 
     /tmp/cckqcdzN.s:2038   .text:0000000000000a54 .L0 
     /tmp/cckqcdzN.s:2040   .text:0000000000000a58 .L0 
     /tmp/cckqcdzN.s:2042   .text:0000000000000a5c .L0 
     /tmp/cckqcdzN.s:2098   .bss:0000000000000004 _ZN19ConsumerProducerCPP9threadEndE
     /tmp/cckqcdzN.s:2111   .bss:0000000000000010 _ZN19ConsumerProducerCPP10waitForAllE
     /tmp/cckqcdzN.s:2106   .bss:0000000000000009 finishedD
     /tmp/cckqcdzN.s:2102   .bss:0000000000000008 finishedC
     /tmp/cckqcdzN.s:2093   .bss:0000000000000001 finishedB
     /tmp/cckqcdzN.s:2089   .bss:0000000000000000 finishedA
     /tmp/cckqcdzN.s:2086   .bss:0000000000000000 .LANCHOR0
     /tmp/cckqcdzN.s:2121   .text:0000000000000a5c .L0 
     /tmp/cckqcdzN.s:405    .text._ZN19ConsumerProducerCPP8Consumer3runEv:00000000000000d0 .L0 
     /tmp/cckqcdzN.s:442    .text._ZN19ConsumerProducerCPP8ConsumerD2Ev:0000000000000034 .L0 
     /tmp/cckqcdzN.s:489    .text._ZN19ConsumerProducerCPP8ConsumerD0Ev:000000000000004c .L0 
     /tmp/cckqcdzN.s:526    .text._ZN19ConsumerProducerCPP16ProducerKeyboradD2Ev:0000000000000034 .L0 
     /tmp/cckqcdzN.s:573    .text._ZN19ConsumerProducerCPP16ProducerKeyboradD0Ev:000000000000004c .L0 
     /tmp/cckqcdzN.s:610    .text._ZN19ConsumerProducerCPP8ProducerD2Ev:0000000000000034 .L0 
     /tmp/cckqcdzN.s:657    .text._ZN19ConsumerProducerCPP8ProducerD0Ev:000000000000004c .L0 
     /tmp/cckqcdzN.s:737    .text._ZN19ConsumerProducerCPP16ProducerKeyborad3runEv:0000000000000084 .L0 
     /tmp/cckqcdzN.s:822    .text._ZN19ConsumerProducerCPP8Producer3runEv:0000000000000094 .L0 
     /tmp/cckqcdzN.s:8      .rodata.str1.8:0000000000000000 .LC0
     /tmp/cckqcdzN.s:92     .text:000000000000005c .L0 
     /tmp/cckqcdzN.s:11     .rodata.str1.8:0000000000000008 .LC1
     /tmp/cckqcdzN.s:104    .text:0000000000000080 .L0 
     /tmp/cckqcdzN.s:14     .rodata.str1.8:0000000000000010 .LC2
     /tmp/cckqcdzN.s:119    .text:0000000000000098 .L0 
     /tmp/cckqcdzN.s:125    .text:00000000000000ac .L0 
     /tmp/cckqcdzN.s:145    .rodata.str1.8:0000000000000020 .LC3
     /tmp/cckqcdzN.s:225    .text:0000000000000128 .L0 
     /tmp/cckqcdzN.s:237    .text:000000000000014c .L0 
     /tmp/cckqcdzN.s:148    .rodata.str1.8:0000000000000028 .LC4
     /tmp/cckqcdzN.s:252    .text:0000000000000164 .L0 
     /tmp/cckqcdzN.s:258    .text:0000000000000178 .L0 
     /tmp/cckqcdzN.s:896    .rodata.str1.8:0000000000000038 .LC5
     /tmp/cckqcdzN.s:937    .text:0000000000000234 .L0 
     /tmp/cckqcdzN.s:949    .text:0000000000000258 .L0 
     /tmp/cckqcdzN.s:899    .rodata.str1.8:0000000000000040 .LC6
     /tmp/cckqcdzN.s:964    .text:0000000000000278 .L0 
     /tmp/cckqcdzN.s:902    .rodata.str1.8:0000000000000050 .LC7
GAS LISTING /tmp/cckqcdzN.s 			page 64


     /tmp/cckqcdzN.s:989    .text:0000000000000298 .L0 
     /tmp/cckqcdzN.s:1001   .text:00000000000002bc .L0 
     /tmp/cckqcdzN.s:905    .rodata.str1.8:0000000000000058 .LC8
     /tmp/cckqcdzN.s:1013   .text:00000000000002dc .L0 
     /tmp/cckqcdzN.s:1026   .text:0000000000000300 .L0 
     /tmp/cckqcdzN.s:1033   .text:0000000000000314 .L0 
     /tmp/cckqcdzN.s:1045   .text:0000000000000338 .L0 
     /tmp/cckqcdzN.s:1060   .text:0000000000000358 .L0 
     /tmp/cckqcdzN.s:1066   .text:000000000000036c .L0 
     /tmp/cckqcdzN.s:1091   .rodata.str1.8:0000000000000068 .LC9
     /tmp/cckqcdzN.s:1132   .text:00000000000003b4 .L0 
     /tmp/cckqcdzN.s:1144   .text:00000000000003d8 .L0 
     /tmp/cckqcdzN.s:1094   .rodata.str1.8:0000000000000070 .LC10
     /tmp/cckqcdzN.s:1159   .text:00000000000003f8 .L0 
     /tmp/cckqcdzN.s:1097   .rodata.str1.8:0000000000000080 .LC11
     /tmp/cckqcdzN.s:1182   .text:0000000000000424 .L0 
     /tmp/cckqcdzN.s:1195   .text:0000000000000448 .L0 
     /tmp/cckqcdzN.s:1202   .text:000000000000045c .L0 
     /tmp/cckqcdzN.s:1214   .text:0000000000000480 .L0 
     /tmp/cckqcdzN.s:1100   .rodata.str1.8:0000000000000090 .LC12
     /tmp/cckqcdzN.s:1229   .text:00000000000004a0 .L0 
     /tmp/cckqcdzN.s:1235   .text:00000000000004b4 .L0 
     /tmp/cckqcdzN.s:1293   .text:00000000000004f4 .L0 
     /tmp/cckqcdzN.s:1260   .rodata.str1.8:00000000000000a0 .LC13
     /tmp/cckqcdzN.s:1299   .text:0000000000000508 .L0 
     /tmp/cckqcdzN.s:1305   .text:000000000000051c .L0 
     /tmp/cckqcdzN.s:1263   .rodata.str1.8:00000000000000b8 .LC14
     /tmp/cckqcdzN.s:1311   .text:0000000000000530 .L0 
     /tmp/cckqcdzN.s:1317   .text:0000000000000544 .L0 
     /tmp/cckqcdzN.s:1266   .rodata.str1.8:00000000000000d0 .LC15
     /tmp/cckqcdzN.s:1323   .text:0000000000000558 .L0 
     /tmp/cckqcdzN.s:1329   .text:000000000000056c .L0 
     /tmp/cckqcdzN.s:1269   .rodata.str1.8:00000000000000e8 .LC16
     /tmp/cckqcdzN.s:1335   .text:0000000000000580 .L0 
     /tmp/cckqcdzN.s:1347   .text:000000000000059c .L0 
     /tmp/cckqcdzN.s:1350   .text:00000000000005a8 .L0 
     /tmp/cckqcdzN.s:1353   .text:00000000000005b4 .L0 
     /tmp/cckqcdzN.s:1356   .text:00000000000005c0 .L0 
     /tmp/cckqcdzN.s:1401   .rodata.str1.8:0000000000000100 .LC17
     /tmp/cckqcdzN.s:1463   .text:0000000000000640 .L0 
     /tmp/cckqcdzN.s:1404   .rodata.str1.8:0000000000000120 .LC18
     /tmp/cckqcdzN.s:1483   .text:0000000000000674 .L0 
     /tmp/cckqcdzN.s:1407   .rodata.str1.8:0000000000000140 .LC19
     /tmp/cckqcdzN.s:1501   .text:00000000000006a4 .L0 
     /tmp/cckqcdzN.s:1410   .rodata.str1.8:0000000000000158 .LC20
     /tmp/cckqcdzN.s:1513   .text:00000000000006c8 .L0 
     /tmp/cckqcdzN.s:1413   .rodata.str1.8:0000000000000170 .LC21
     /tmp/cckqcdzN.s:1525   .text:00000000000006ec .L0 
     /tmp/cckqcdzN.s:1416   .rodata.str1.8:0000000000000178 .LC22
     /tmp/cckqcdzN.s:1548   .text:0000000000000724 .L0 
     /tmp/cckqcdzN.s:1419   .rodata.str1.8:00000000000001b8 .LC23
     /tmp/cckqcdzN.s:1557   .text:0000000000000738 .L0 
     /tmp/cckqcdzN.s:1580   .text:000000000000076c .L0 
     /tmp/cckqcdzN.s:1636   .text:00000000000007e4 .L0 
     /tmp/cckqcdzN.s:1656   .text:0000000000000808 .L0 
     /tmp/cckqcdzN.s:1673   .text:000000000000082c .L0 
     /tmp/cckqcdzN.s:1696   .text:0000000000000854 .L0 
GAS LISTING /tmp/cckqcdzN.s 			page 65


     /tmp/cckqcdzN.s:1729   .text:000000000000089c .L0 
     /tmp/cckqcdzN.s:1766   .text:00000000000008d4 .L0 
     /tmp/cckqcdzN.s:1778   .text:00000000000008ec .L0 
     /tmp/cckqcdzN.s:85     .text:0000000000000054 .L7
     /tmp/cckqcdzN.s:77     .text:0000000000000050 .L3
     /tmp/cckqcdzN.s:45     .text:0000000000000020 .L4
     /tmp/cckqcdzN.s:66     .text:000000000000003c .L5
     /tmp/cckqcdzN.s:113    .text:0000000000000098 .L2
     /tmp/cckqcdzN.s:57     .text:000000000000002c .L6
     /tmp/cckqcdzN.s:218    .text:0000000000000120 .L15
     /tmp/cckqcdzN.s:210    .text:000000000000011c .L11
     /tmp/cckqcdzN.s:178    .text:00000000000000ec .L12
     /tmp/cckqcdzN.s:199    .text:0000000000000108 .L13
     /tmp/cckqcdzN.s:246    .text:0000000000000164 .L10
     /tmp/cckqcdzN.s:190    .text:00000000000000f8 .L14
     /tmp/cckqcdzN.s:867    .text:00000000000001f0 .L45
     /tmp/cckqcdzN.s:884    .text:0000000000000208 .L50
     /tmp/cckqcdzN.s:854    .text:00000000000001d0 .L47
     /tmp/cckqcdzN.s:957    .text:0000000000000270 .L53
     /tmp/cckqcdzN.s:934    .text:0000000000000234 .L57
     /tmp/cckqcdzN.s:1053   .text:0000000000000350 .L55
     /tmp/cckqcdzN.s:1030   .text:0000000000000314 .L58
     /tmp/cckqcdzN.s:1152   .text:00000000000003f0 .L61
     /tmp/cckqcdzN.s:1129   .text:00000000000003b4 .L65
     /tmp/cckqcdzN.s:1222   .text:0000000000000498 .L63
     /tmp/cckqcdzN.s:1199   .text:000000000000045c .L66
     /tmp/cckqcdzN.s:1344   .text:000000000000059c .L70
     /tmp/cckqcdzN.s:1339   .text:0000000000000594 .L68
     /tmp/cckqcdzN.s:1367   .text:00000000000005d8 .L69
     /tmp/cckqcdzN.s:1382   .text:00000000000005f4 .L67
     /tmp/cckqcdzN.s:1363   .text:00000000000005d4 .L72
     /tmp/cckqcdzN.s:1545   .text:0000000000000724 .L101
     /tmp/cckqcdzN.s:1554   .text:0000000000000738 .L102
     /tmp/cckqcdzN.s:1564   .text:0000000000000750 .L103
     /tmp/cckqcdzN.s:1561   .text:0000000000000748 .L77
     /tmp/cckqcdzN.s:1841   .text:0000000000000968 .L75
     /tmp/cckqcdzN.s:1714   .text:0000000000000880 .L80
     /tmp/cckqcdzN.s:1748   .text:00000000000008c4 .L79
     /tmp/cckqcdzN.s:1692   .text:0000000000000854 .L104
     /tmp/cckqcdzN.s:1774   .text:00000000000008ec .L81
     /tmp/cckqcdzN.s:1760   .text:00000000000008d0 .L82
     /tmp/cckqcdzN.s:1786   .text:0000000000000904 .L83
     /tmp/cckqcdzN.s:1799   .text:0000000000000910 .L86
     /tmp/cckqcdzN.s:1815   .text:0000000000000934 .L84
     /tmp/cckqcdzN.s:1793   .text:000000000000090c .L85
     /tmp/cckqcdzN.s:1826   .text:0000000000000948 .L87
     /tmp/cckqcdzN.s:1838   .text:0000000000000964 .L88
     /tmp/cckqcdzN.s:322    .text._ZN19ConsumerProducerCPP8Consumer3runEv:0000000000000034 .L0 
     /tmp/cckqcdzN.s:318    .text._ZN19ConsumerProducerCPP8Consumer3runEv:0000000000000034 .L18
     /tmp/cckqcdzN.s:367    .text._ZN19ConsumerProducerCPP8Consumer3runEv:0000000000000090 .L19
     /tmp/cckqcdzN.s:311    .text._ZN19ConsumerProducerCPP8Consumer3runEv:0000000000000028 .L23
     /tmp/cckqcdzN.s:351    .text._ZN19ConsumerProducerCPP8Consumer3runEv:0000000000000074 .L24
     /tmp/cckqcdzN.s:424    .text._ZN19ConsumerProducerCPP8ConsumerD2Ev:0000000000000010 .L0 
     /tmp/cckqcdzN.s:466    .text._ZN19ConsumerProducerCPP8ConsumerD0Ev:0000000000000018 .L0 
     /tmp/cckqcdzN.s:508    .text._ZN19ConsumerProducerCPP16ProducerKeyboradD2Ev:0000000000000010 .L0 
     /tmp/cckqcdzN.s:550    .text._ZN19ConsumerProducerCPP16ProducerKeyboradD0Ev:0000000000000018 .L0 
     /tmp/cckqcdzN.s:592    .text._ZN19ConsumerProducerCPP8ProducerD2Ev:0000000000000010 .L0 
GAS LISTING /tmp/cckqcdzN.s 			page 66


     /tmp/cckqcdzN.s:634    .text._ZN19ConsumerProducerCPP8ProducerD0Ev:0000000000000018 .L0 
     /tmp/cckqcdzN.s:706    .text._ZN19ConsumerProducerCPP16ProducerKeyborad3runEv:0000000000000044 .L0 
     /tmp/cckqcdzN.s:702    .text._ZN19ConsumerProducerCPP16ProducerKeyborad3runEv:0000000000000040 .L38
     /tmp/cckqcdzN.s:680    .text._ZN19ConsumerProducerCPP16ProducerKeyborad3runEv:0000000000000018 .L39
     /tmp/cckqcdzN.s:767    .text._ZN19ConsumerProducerCPP8Producer3runEv:0000000000000020 .L0 
     /tmp/cckqcdzN.s:797    .text._ZN19ConsumerProducerCPP8Producer3runEv:000000000000006c .L42
     /tmp/cckqcdzN.s:764    .text._ZN19ConsumerProducerCPP8Producer3runEv:0000000000000020 .L43
     /tmp/cckqcdzN.s:1464   .text:0000000000000648 .LEHB0
     /tmp/cckqcdzN.s:1426   .text:0000000000000608 .LFB32
     /tmp/cckqcdzN.s:1537   .text:0000000000000710 .LEHE0
     /tmp/cckqcdzN.s:1540   .text:0000000000000718 .LEHB1
     /tmp/cckqcdzN.s:1543   .text:0000000000000720 .LEHE1
     /tmp/cckqcdzN.s:1873   .text:00000000000009a0 .L95
     /tmp/cckqcdzN.s:1549   .text:000000000000072c .LEHB2
     /tmp/cckqcdzN.s:1571   .text:000000000000075c .LEHE2
     /tmp/cckqcdzN.s:1575   .text:0000000000000764 .LEHB3
     /tmp/cckqcdzN.s:1578   .text:000000000000076c .LEHE3
     /tmp/cckqcdzN.s:1886   .text:00000000000009bc .L96
     /tmp/cckqcdzN.s:1622   .text:00000000000007d0 .LEHB4
     /tmp/cckqcdzN.s:1625   .text:00000000000007d8 .LEHE4
     /tmp/cckqcdzN.s:1628   .text:00000000000007dc .LEHB5
     /tmp/cckqcdzN.s:1634   .text:00000000000007e4 .LEHE5
     /tmp/cckqcdzN.s:1897   .text:00000000000009d8 .L97
     /tmp/cckqcdzN.s:1645   .text:00000000000007f8 .LEHB6
     /tmp/cckqcdzN.s:1663   .text:0000000000000820 .LEHE6
     /tmp/cckqcdzN.s:1666   .text:0000000000000824 .LEHB7
     /tmp/cckqcdzN.s:1672   .text:000000000000082c .LEHE7
     /tmp/cckqcdzN.s:1909   .text:00000000000009f4 .L98
     /tmp/cckqcdzN.s:1684   .text:0000000000000844 .LEHB8
     /tmp/cckqcdzN.s:1736   .text:00000000000008b4 .LEHE8
     /tmp/cckqcdzN.s:1739   .text:00000000000008b8 .LEHB9
     /tmp/cckqcdzN.s:1745   .text:00000000000008c0 .LEHE9
     /tmp/cckqcdzN.s:1920   .text:0000000000000a10 .L99
     /tmp/cckqcdzN.s:1753   .text:00000000000008c4 .LEHB10
     /tmp/cckqcdzN.s:1837   .text:0000000000000964 .LEHE10
     /tmp/cckqcdzN.s:1882   .text:00000000000009b4 .LEHB11
     /tmp/cckqcdzN.s:1885   .text:00000000000009bc .LEHE11
     /tmp/cckqcdzN.s:1893   .text:00000000000009d0 .LEHB12
     /tmp/cckqcdzN.s:1896   .text:00000000000009d8 .LEHE12
     /tmp/cckqcdzN.s:1905   .text:00000000000009ec .LEHB13
     /tmp/cckqcdzN.s:1908   .text:00000000000009f4 .LEHE13
     /tmp/cckqcdzN.s:1916   .text:0000000000000a08 .LEHB14
     /tmp/cckqcdzN.s:1919   .text:0000000000000a10 .LEHE14
     /tmp/cckqcdzN.s:1929   .text:0000000000000a24 .LEHB15
     /tmp/cckqcdzN.s:1932   .text:0000000000000a2c .LEHE15
     /tmp/cckqcdzN.s:5017   .debug_abbrev:0000000000000000 .Ldebug_abbrev0
     /tmp/cckqcdzN.s:7244   .debug_str:0000000000000923 .LASF133
     /tmp/cckqcdzN.s:7288   .debug_str:0000000000000ba3 .LASF134
     /tmp/cckqcdzN.s:7290   .debug_str:0000000000000bb6 .LASF135
     /tmp/cckqcdzN.s:6936   .debug_ranges:0000000000000000 .Ldebug_ranges0
     /tmp/cckqcdzN.s:6996   .debug_line:0000000000000000 .Ldebug_line0
     /tmp/cckqcdzN.s:7160   .debug_str:0000000000000576 .LASF0
     /tmp/cckqcdzN.s:7184   .debug_str:0000000000000674 .LASF1
     /tmp/cckqcdzN.s:7144   .debug_str:00000000000004dd .LASF2
     /tmp/cckqcdzN.s:7076   .debug_str:00000000000002cb .LASF3
     /tmp/cckqcdzN.s:7120   .debug_str:000000000000043d .LASF4
     /tmp/cckqcdzN.s:7224   .debug_str:0000000000000811 .LASF5
GAS LISTING /tmp/cckqcdzN.s 			page 67


     /tmp/cckqcdzN.s:7032   .debug_str:00000000000000ce .LASF6
     /tmp/cckqcdzN.s:7190   .debug_str:00000000000006c0 .LASF7
     /tmp/cckqcdzN.s:7158   .debug_str:0000000000000563 .LASF8
     /tmp/cckqcdzN.s:7260   .debug_str:0000000000000a83 .LASF9
     /tmp/cckqcdzN.s:7104   .debug_str:00000000000003cb .LASF10
     /tmp/cckqcdzN.s:7200   .debug_str:00000000000006f4 .LASF11
     /tmp/cckqcdzN.s:7248   .debug_str:00000000000009f3 .LASF12
     /tmp/cckqcdzN.s:7036   .debug_str:00000000000000e9 .LASF13
     /tmp/cckqcdzN.s:7010   .debug_str:0000000000000058 .LASF14
     /tmp/cckqcdzN.s:7052   .debug_str:000000000000017f .LASF15
     /tmp/cckqcdzN.s:7220   .debug_str:00000000000007d1 .LASF16
     /tmp/cckqcdzN.s:7064   .debug_str:000000000000024f .LASF17
     /tmp/cckqcdzN.s:7116   .debug_str:0000000000000425 .LASF18
     /tmp/cckqcdzN.s:7118   .debug_str:000000000000042d .LASF19
     /tmp/cckqcdzN.s:7226   .debug_str:0000000000000823 .LASF20
     /tmp/cckqcdzN.s:7230   .debug_str:000000000000083f .LASF28
     /tmp/cckqcdzN.s:7122   .debug_str:0000000000000444 .LASF30
     /tmp/cckqcdzN.s:6998   .debug_str:0000000000000000 .LASF21
     /tmp/cckqcdzN.s:7204   .debug_str:0000000000000736 .LASF22
     /tmp/cckqcdzN.s:7086   .debug_str:00000000000002f8 .LASF23
     /tmp/cckqcdzN.s:7014   .debug_str:000000000000006d .LASF24
     /tmp/cckqcdzN.s:7016   .debug_str:0000000000000077 .LASF25
     /tmp/cckqcdzN.s:7018   .debug_str:0000000000000081 .LASF26
     /tmp/cckqcdzN.s:7114   .debug_str:000000000000041d .LASF27
     /tmp/cckqcdzN.s:7012   .debug_str:0000000000000068 .LASF128
     /tmp/cckqcdzN.s:7046   .debug_str:000000000000014e .LASF136
     /tmp/cckqcdzN.s:7150   .debug_str:0000000000000534 .LASF29
     /tmp/cckqcdzN.s:7186   .debug_str:0000000000000687 .LASF31
     /tmp/cckqcdzN.s:7194   .debug_str:00000000000006de .LASF32
     /tmp/cckqcdzN.s:7216   .debug_str:00000000000007c0 .LASF33
     /tmp/cckqcdzN.s:7218   .debug_str:00000000000007ca .LASF34
     /tmp/cckqcdzN.s:7070   .debug_str:000000000000028b .LASF35
     /tmp/cckqcdzN.s:7140   .debug_str:00000000000004ae .LASF36
     /tmp/cckqcdzN.s:7080   .debug_str:00000000000002db .LASF37
     /tmp/cckqcdzN.s:7108   .debug_str:00000000000003ec .LASF38
     /tmp/cckqcdzN.s:7136   .debug_str:0000000000000493 .LASF39
     /tmp/cckqcdzN.s:7168   .debug_str:00000000000005ff .LASF40
     /tmp/cckqcdzN.s:7172   .debug_str:0000000000000610 .LASF42
     /tmp/cckqcdzN.s:7132   .debug_str:0000000000000482 .LASF41
     /tmp/cckqcdzN.s:7264   .debug_str:0000000000000a9d .LASF43
     /tmp/cckqcdzN.s:7110   .debug_str:00000000000003fa .LASF137
     /tmp/cckqcdzN.s:7034   .debug_str:00000000000000d5 .LASF138
     /tmp/cckqcdzN.s:7026   .debug_str:00000000000000a4 .LASF44
     /tmp/cckqcdzN.s:7030   .debug_str:00000000000000b7 .LASF45
     /tmp/cckqcdzN.s:7000   .debug_str:0000000000000009 .LASF75
     /tmp/cckqcdzN.s:7074   .debug_str:00000000000002b6 .LASF46
     /tmp/cckqcdzN.s:7084   .debug_str:00000000000002f3 .LASF48
     /tmp/cckqcdzN.s:7214   .debug_str:00000000000007a9 .LASF47
     /tmp/cckqcdzN.s:7196   .debug_str:00000000000006e3 .LASF49
     /tmp/cckqcdzN.s:7234   .debug_str:0000000000000878 .LASF139
     /tmp/cckqcdzN.s:7094   .debug_str:0000000000000384 .LASF50
     /tmp/cckqcdzN.s:7060   .debug_str:00000000000001f2 .LASF52
     /tmp/cckqcdzN.s:7100   .debug_str:00000000000003a7 .LASF140
     /tmp/cckqcdzN.s:7124   .debug_str:0000000000000455 .LASF51
     /tmp/cckqcdzN.s:7162   .debug_str:0000000000000583 .LASF53
     /tmp/cckqcdzN.s:7038   .debug_str:00000000000000f9 .LASF54
     /tmp/cckqcdzN.s:7232   .debug_str:000000000000084f .LASF55
GAS LISTING /tmp/cckqcdzN.s 			page 68


     /tmp/cckqcdzN.s:7142   .debug_str:00000000000004b3 .LASF56
     /tmp/cckqcdzN.s:7146   .debug_str:00000000000004eb .LASF57
     /tmp/cckqcdzN.s:7058   .debug_str:00000000000001ca .LASF63
     /tmp/cckqcdzN.s:7174   .debug_str:0000000000000622 .LASF58
     /tmp/cckqcdzN.s:7188   .debug_str:000000000000069a .LASF66
     /tmp/cckqcdzN.s:7180   .debug_str:0000000000000645 .LASF59
     /tmp/cckqcdzN.s:7166   .debug_str:00000000000005d6 .LASF60
     /tmp/cckqcdzN.s:7222   .debug_str:00000000000007e7 .LASF61
     /tmp/cckqcdzN.s:7062   .debug_str:0000000000000218 .LASF62
     /tmp/cckqcdzN.s:7212   .debug_str:0000000000000781 .LASF64
     /tmp/cckqcdzN.s:7022   .debug_str:0000000000000091 .LASF65
     /tmp/cckqcdzN.s:7072   .debug_str:0000000000000290 .LASF67
     /tmp/cckqcdzN.s:7138   .debug_str:000000000000049d .LASF68
     /tmp/cckqcdzN.s:7088   .debug_str:00000000000002fd .LASF69
     /tmp/cckqcdzN.s:7202   .debug_str:0000000000000703 .LASF70
     /tmp/cckqcdzN.s:7236   .debug_str:000000000000088c .LASF71
     /tmp/cckqcdzN.s:7258   .debug_str:0000000000000a52 .LASF72
     /tmp/cckqcdzN.s:7154   .debug_str:0000000000000542 .LASF73
     /tmp/cckqcdzN.s:7164   .debug_str:00000000000005a7 .LASF74
     /tmp/cckqcdzN.s:7266   .debug_str:0000000000000aaf .LASF141
     /tmp/cckqcdzN.s:7254   .debug_str:0000000000000a1a .LASF142
     /tmp/cckqcdzN.s:7256   .debug_str:0000000000000a4b .LASF76
     /tmp/cckqcdzN.s:7274   .debug_str:0000000000000af0 .LASF77
     /tmp/cckqcdzN.s:7250   .debug_str:0000000000000a02 .LASF78
     /tmp/cckqcdzN.s:7210   .debug_str:000000000000076b .LASF79
     /tmp/cckqcdzN.s:7280   .debug_str:0000000000000b3c .LASF80
     /tmp/cckqcdzN.s:7106   .debug_str:00000000000003d9 .LASF81
     /tmp/cckqcdzN.s:7176   .debug_str:000000000000062c .LASF82
     /tmp/cckqcdzN.s:7206   .debug_str:0000000000000740 .LASF83
     /tmp/cckqcdzN.s:7228   .debug_str:0000000000000835 .LASF84
     /tmp/cckqcdzN.s:7056   .debug_str:000000000000019b .LASF85
     /tmp/cckqcdzN.s:531    .text._ZN19ConsumerProducerCPP16ProducerKeyboradD0Ev:0000000000000000 .LFB45
     /tmp/cckqcdzN.s:571    .text._ZN19ConsumerProducerCPP16ProducerKeyboradD0Ev:000000000000004c .LFE45
     /tmp/cckqcdzN.s:6137   .debug_loc:0000000000000000 .LLST16
     /tmp/cckqcdzN.s:547    .text._ZN19ConsumerProducerCPP16ProducerKeyboradD0Ev:0000000000000018 .LBB46
     /tmp/cckqcdzN.s:555    .text._ZN19ConsumerProducerCPP16ProducerKeyboradD0Ev:000000000000002c .LBE46
     /tmp/cckqcdzN.s:6155   .debug_loc:000000000000004c .LLST17
     /tmp/cckqcdzN.s:553    .text._ZN19ConsumerProducerCPP16ProducerKeyboradD0Ev:000000000000002c .LVL58
     /tmp/cckqcdzN.s:558    .text._ZN19ConsumerProducerCPP16ProducerKeyboradD0Ev:0000000000000038 .LVL59
     /tmp/cckqcdzN.s:7278   .debug_str:0000000000000b0d .LASF86
     /tmp/cckqcdzN.s:494    .text._ZN19ConsumerProducerCPP16ProducerKeyboradD2Ev:0000000000000000 .LFB43
     /tmp/cckqcdzN.s:522    .text._ZN19ConsumerProducerCPP16ProducerKeyboradD2Ev:0000000000000034 .LFE43
     /tmp/cckqcdzN.s:6166   .debug_loc:0000000000000082 .LLST15
     /tmp/cckqcdzN.s:511    .text._ZN19ConsumerProducerCPP16ProducerKeyboradD2Ev:0000000000000024 .LVL55
     /tmp/cckqcdzN.s:7208   .debug_str:0000000000000745 .LASF87
     /tmp/cckqcdzN.s:615    .text._ZN19ConsumerProducerCPP8ProducerD0Ev:0000000000000000 .LFB41
     /tmp/cckqcdzN.s:655    .text._ZN19ConsumerProducerCPP8ProducerD0Ev:000000000000004c .LFE41
     /tmp/cckqcdzN.s:6180   .debug_loc:00000000000000bb .LLST19
     /tmp/cckqcdzN.s:631    .text._ZN19ConsumerProducerCPP8ProducerD0Ev:0000000000000018 .LBB49
     /tmp/cckqcdzN.s:639    .text._ZN19ConsumerProducerCPP8ProducerD0Ev:000000000000002c .LBE49
     /tmp/cckqcdzN.s:6198   .debug_loc:0000000000000107 .LLST20
     /tmp/cckqcdzN.s:637    .text._ZN19ConsumerProducerCPP8ProducerD0Ev:000000000000002c .LVL65
     /tmp/cckqcdzN.s:642    .text._ZN19ConsumerProducerCPP8ProducerD0Ev:0000000000000038 .LVL66
     /tmp/cckqcdzN.s:7002   .debug_str:0000000000000013 .LASF88
     /tmp/cckqcdzN.s:578    .text._ZN19ConsumerProducerCPP8ProducerD2Ev:0000000000000000 .LFB39
     /tmp/cckqcdzN.s:606    .text._ZN19ConsumerProducerCPP8ProducerD2Ev:0000000000000034 .LFE39
     /tmp/cckqcdzN.s:6209   .debug_loc:000000000000013d .LLST18
GAS LISTING /tmp/cckqcdzN.s 			page 69


     /tmp/cckqcdzN.s:595    .text._ZN19ConsumerProducerCPP8ProducerD2Ev:0000000000000024 .LVL62
     /tmp/cckqcdzN.s:7284   .debug_str:0000000000000b58 .LASF89
     /tmp/cckqcdzN.s:447    .text._ZN19ConsumerProducerCPP8ConsumerD0Ev:0000000000000000 .LFB37
     /tmp/cckqcdzN.s:487    .text._ZN19ConsumerProducerCPP8ConsumerD0Ev:000000000000004c .LFE37
     /tmp/cckqcdzN.s:6223   .debug_loc:0000000000000176 .LLST13
     /tmp/cckqcdzN.s:463    .text._ZN19ConsumerProducerCPP8ConsumerD0Ev:0000000000000018 .LBB43
     /tmp/cckqcdzN.s:471    .text._ZN19ConsumerProducerCPP8ConsumerD0Ev:000000000000002c .LBE43
     /tmp/cckqcdzN.s:6241   .debug_loc:00000000000001c2 .LLST14
     /tmp/cckqcdzN.s:469    .text._ZN19ConsumerProducerCPP8ConsumerD0Ev:000000000000002c .LVL51
     /tmp/cckqcdzN.s:474    .text._ZN19ConsumerProducerCPP8ConsumerD0Ev:0000000000000038 .LVL52
     /tmp/cckqcdzN.s:7182   .debug_str:000000000000064e .LASF90
     /tmp/cckqcdzN.s:410    .text._ZN19ConsumerProducerCPP8ConsumerD2Ev:0000000000000000 .LFB35
     /tmp/cckqcdzN.s:438    .text._ZN19ConsumerProducerCPP8ConsumerD2Ev:0000000000000034 .LFE35
     /tmp/cckqcdzN.s:6252   .debug_loc:00000000000001f8 .LLST12
     /tmp/cckqcdzN.s:427    .text._ZN19ConsumerProducerCPP8ConsumerD2Ev:0000000000000024 .LVL48
     /tmp/cckqcdzN.s:7082   .debug_str:00000000000002ea .LASF91
     /tmp/cckqcdzN.s:7128   .debug_str:000000000000046b .LASF101
     /tmp/cckqcdzN.s:2013   .text:0000000000000a2c .LFB33
     /tmp/cckqcdzN.s:2043   .text:0000000000000a5c .LFE33
     /tmp/cckqcdzN.s:2028   .text:0000000000000a44 .LVL237
     /tmp/cckqcdzN.s:2032   .text:0000000000000a4c .LVL238
     /tmp/cckqcdzN.s:1935   .text:0000000000000a2c .LFE32
     /tmp/cckqcdzN.s:7020   .debug_str:000000000000008b .LASF92
     /tmp/cckqcdzN.s:6266   .debug_loc:0000000000000231 .LLST39
     /tmp/cckqcdzN.s:7078   .debug_str:00000000000002d1 .LASF93
     /tmp/cckqcdzN.s:6277   .debug_loc:0000000000000267 .LLST40
     /tmp/cckqcdzN.s:6288   .debug_loc:000000000000029d .LLST41
     /tmp/cckqcdzN.s:7276   .debug_str:0000000000000b03 .LASF94
     /tmp/cckqcdzN.s:6299   .debug_loc:00000000000002d3 .LLST42
     /tmp/cckqcdzN.s:7192   .debug_str:00000000000006d3 .LASF95
     /tmp/cckqcdzN.s:6317   .debug_loc:000000000000031f .LLST43
     /tmp/cckqcdzN.s:7040   .debug_str:0000000000000102 .LASF96
     /tmp/cckqcdzN.s:6330   .debug_loc:0000000000000357 .LLST44
     /tmp/cckqcdzN.s:6341   .debug_loc:000000000000038d .LLST49
     /tmp/cckqcdzN.s:1693   .text:0000000000000854 .LBB57
     /tmp/cckqcdzN.s:6352   .debug_loc:00000000000003c3 .LLST50
     /tmp/cckqcdzN.s:6383   .debug_loc:000000000000042b .LLST51
     /tmp/cckqcdzN.s:1744   .text:00000000000008c0 .LVL206
     /tmp/cckqcdzN.s:1710   .text:000000000000087c .LVL202
     /tmp/cckqcdzN.s:1735   .text:00000000000008b4 .LVL204
     /tmp/cckqcdzN.s:1927   .text:0000000000000a20 .LVL235
     /tmp/cckqcdzN.s:6402   .debug_loc:0000000000000487 .LLST52
     /tmp/cckqcdzN.s:1768   .text:00000000000008e4 .LVL210
     /tmp/cckqcdzN.s:1795   .text:000000000000090c .LBB63
     /tmp/cckqcdzN.s:1816   .text:0000000000000934 .LBE63
     /tmp/cckqcdzN.s:6413   .debug_loc:00000000000004bd .LLST53
     /tmp/cckqcdzN.s:6420   .debug_loc:00000000000004e0 .LLST36
     /tmp/cckqcdzN.s:6451   .debug_loc:000000000000052a .LLST38
     /tmp/cckqcdzN.s:1629   .text:00000000000007dc .LBB52
     /tmp/cckqcdzN.s:1641   .text:00000000000007f4 .LBE52
     /tmp/cckqcdzN.s:6482   .debug_loc:0000000000000574 .LLST45
     /tmp/cckqcdzN.s:6509   .debug_loc:00000000000005c9 .LLST46
     /tmp/cckqcdzN.s:1633   .text:00000000000007e4 .LVL192
     /tmp/cckqcdzN.s:1667   .text:0000000000000824 .LBB54
     /tmp/cckqcdzN.s:1678   .text:000000000000083c .LBE54
     /tmp/cckqcdzN.s:6524   .debug_loc:0000000000000612 .LLST47
     /tmp/cckqcdzN.s:6535   .debug_loc:0000000000000648 .LLST48
GAS LISTING /tmp/cckqcdzN.s 			page 70


     /tmp/cckqcdzN.s:1671   .text:000000000000082c .LVL197
     /tmp/cckqcdzN.s:1466   .text:0000000000000650 .LVL164
     /tmp/cckqcdzN.s:1473   .text:0000000000000664 .LVL165
     /tmp/cckqcdzN.s:1478   .text:0000000000000670 .LVL166
     /tmp/cckqcdzN.s:1485   .text:0000000000000684 .LVL168
     /tmp/cckqcdzN.s:1491   .text:0000000000000694 .LVL169
     /tmp/cckqcdzN.s:1496   .text:00000000000006a0 .LVL170
     /tmp/cckqcdzN.s:1503   .text:00000000000006b4 .LVL172
     /tmp/cckqcdzN.s:1510   .text:00000000000006c8 .LVL173
     /tmp/cckqcdzN.s:1515   .text:00000000000006d8 .LVL174
     /tmp/cckqcdzN.s:1522   .text:00000000000006ec .LVL175
     /tmp/cckqcdzN.s:1527   .text:00000000000006fc .LVL176
     /tmp/cckqcdzN.s:1536   .text:0000000000000710 .LVL177
     /tmp/cckqcdzN.s:1542   .text:0000000000000720 .LVL178
     /tmp/cckqcdzN.s:1551   .text:0000000000000734 .LVL179
     /tmp/cckqcdzN.s:1559   .text:0000000000000748 .LVL180
     /tmp/cckqcdzN.s:1570   .text:000000000000075c .LVL182
     /tmp/cckqcdzN.s:1577   .text:000000000000076c .LVL184
     /tmp/cckqcdzN.s:1624   .text:00000000000007d8 .LVL190
     /tmp/cckqcdzN.s:1647   .text:0000000000000800 .LVL194
     /tmp/cckqcdzN.s:1662   .text:0000000000000820 .LVL195
     /tmp/cckqcdzN.s:1686   .text:000000000000084c .LVL199
     /tmp/cckqcdzN.s:1756   .text:00000000000008cc .LVL208
     /tmp/cckqcdzN.s:1825   .text:0000000000000948 .LVL218
     /tmp/cckqcdzN.s:1833   .text:0000000000000958 .LVL219
     /tmp/cckqcdzN.s:1836   .text:0000000000000964 .LVL220
     /tmp/cckqcdzN.s:1880   .text:00000000000009b0 .LVL225
     /tmp/cckqcdzN.s:1884   .text:00000000000009bc .LVL226
     /tmp/cckqcdzN.s:1891   .text:00000000000009cc .LVL227
     /tmp/cckqcdzN.s:1895   .text:00000000000009d8 .LVL228
     /tmp/cckqcdzN.s:1903   .text:00000000000009e8 .LVL230
     /tmp/cckqcdzN.s:1907   .text:00000000000009f4 .LVL231
     /tmp/cckqcdzN.s:1914   .text:0000000000000a04 .LVL232
     /tmp/cckqcdzN.s:1918   .text:0000000000000a10 .LVL233
     /tmp/cckqcdzN.s:1931   .text:0000000000000a2c .LVL236
     /tmp/cckqcdzN.s:285    .text._ZN19ConsumerProducerCPP8Consumer3runEv:0000000000000000 .LFB31
     /tmp/cckqcdzN.s:403    .text._ZN19ConsumerProducerCPP8Consumer3runEv:00000000000000d0 .LFE31
     /tmp/cckqcdzN.s:6546   .debug_loc:000000000000067e .LLST8
     /tmp/cckqcdzN.s:6564   .debug_loc:00000000000006ca .LLST9
     /tmp/cckqcdzN.s:6584   .debug_loc:0000000000000727 .LLST10
     /tmp/cckqcdzN.s:317    .text._ZN19ConsumerProducerCPP8Consumer3runEv:0000000000000034 .LVL34
     /tmp/cckqcdzN.s:331    .text._ZN19ConsumerProducerCPP8Consumer3runEv:0000000000000050 .LVL35
     /tmp/cckqcdzN.s:342    .text._ZN19ConsumerProducerCPP8Consumer3runEv:0000000000000064 .LVL38
     /tmp/cckqcdzN.s:353    .text._ZN19ConsumerProducerCPP8Consumer3runEv:0000000000000074 .LBB41
     /tmp/cckqcdzN.s:368    .text._ZN19ConsumerProducerCPP8Consumer3runEv:0000000000000090 .LBE41
     /tmp/cckqcdzN.s:6591   .debug_loc:000000000000074a .LLST11
     /tmp/cckqcdzN.s:360    .text._ZN19ConsumerProducerCPP8Consumer3runEv:0000000000000084 .LVL40
     /tmp/cckqcdzN.s:366    .text._ZN19ConsumerProducerCPP8Consumer3runEv:0000000000000090 .LVL42
     /tmp/cckqcdzN.s:376    .text._ZN19ConsumerProducerCPP8Consumer3runEv:00000000000000a0 .LVL43
     /tmp/cckqcdzN.s:384    .text._ZN19ConsumerProducerCPP8Consumer3runEv:00000000000000b4 .LVL44
     /tmp/cckqcdzN.s:7044   .debug_str:0000000000000117 .LASF97
     /tmp/cckqcdzN.s:742    .text._ZN19ConsumerProducerCPP8Producer3runEv:0000000000000000 .LFB27
     /tmp/cckqcdzN.s:820    .text._ZN19ConsumerProducerCPP8Producer3runEv:0000000000000094 .LFE27
     /tmp/cckqcdzN.s:6598   .debug_loc:000000000000076d .LLST23
     /tmp/cckqcdzN.s:6616   .debug_loc:00000000000007b9 .LLST24
     /tmp/cckqcdzN.s:777    .text._ZN19ConsumerProducerCPP8Producer3runEv:0000000000000044 .LVL82
     /tmp/cckqcdzN.s:794    .text._ZN19ConsumerProducerCPP8Producer3runEv:0000000000000068 .LVL84
GAS LISTING /tmp/cckqcdzN.s 			page 71


     /tmp/cckqcdzN.s:803    .text._ZN19ConsumerProducerCPP8Producer3runEv:000000000000007c .LVL85
     /tmp/cckqcdzN.s:7242   .debug_str:00000000000008ec .LASF98
     /tmp/cckqcdzN.s:662    .text._ZN19ConsumerProducerCPP16ProducerKeyborad3runEv:0000000000000000 .LFB23
     /tmp/cckqcdzN.s:735    .text._ZN19ConsumerProducerCPP16ProducerKeyborad3runEv:0000000000000084 .LFE23
     /tmp/cckqcdzN.s:6636   .debug_loc:0000000000000816 .LLST21
     /tmp/cckqcdzN.s:6654   .debug_loc:0000000000000862 .LLST22
     /tmp/cckqcdzN.s:685    .text._ZN19ConsumerProducerCPP16ProducerKeyborad3runEv:0000000000000020 .LVL70
     /tmp/cckqcdzN.s:697    .text._ZN19ConsumerProducerCPP16ProducerKeyborad3runEv:000000000000003c .LVL72
     /tmp/cckqcdzN.s:715    .text._ZN19ConsumerProducerCPP16ProducerKeyborad3runEv:0000000000000060 .LVL76
     /tmp/cckqcdzN.s:721    .text._ZN19ConsumerProducerCPP16ProducerKeyborad3runEv:0000000000000070 .LVL77
     /tmp/cckqcdzN.s:7090   .debug_str:000000000000032f .LASF99
     /tmp/cckqcdzN.s:7268   .debug_str:0000000000000ac4 .LASF100
     /tmp/cckqcdzN.s:7068   .debug_str:0000000000000273 .LASF102
     /tmp/cckqcdzN.s:1276   .text:00000000000004dc .LFB17
     /tmp/cckqcdzN.s:1397   .text:0000000000000608 .LFE17
     /tmp/cckqcdzN.s:7098   .debug_str:000000000000039f .LASF103
     /tmp/cckqcdzN.s:1358   .text:00000000000005cc .LBB51
     /tmp/cckqcdzN.s:1383   .text:00000000000005f4 .LBE51
     /tmp/cckqcdzN.s:7170   .debug_str:0000000000000609 .LASF104
     /tmp/cckqcdzN.s:6669   .debug_loc:00000000000008ab .LLST33
     /tmp/cckqcdzN.s:7272   .debug_str:0000000000000ae4 .LASF105
     /tmp/cckqcdzN.s:7048   .debug_str:0000000000000161 .LASF143
     /tmp/cckqcdzN.s:6680   .debug_loc:00000000000008e1 .LLST34
     /tmp/cckqcdzN.s:7130   .debug_str:0000000000000478 .LASF106
     /tmp/cckqcdzN.s:1379   .text:00000000000005f0 .LVL161
     /tmp/cckqcdzN.s:1296   .text:0000000000000508 .LVL149
     /tmp/cckqcdzN.s:1301   .text:0000000000000518 .LVL150
     /tmp/cckqcdzN.s:1308   .text:0000000000000530 .LVL151
     /tmp/cckqcdzN.s:1313   .text:0000000000000540 .LVL152
     /tmp/cckqcdzN.s:1320   .text:0000000000000558 .LVL153
     /tmp/cckqcdzN.s:1325   .text:0000000000000568 .LVL154
     /tmp/cckqcdzN.s:1332   .text:0000000000000580 .LVL155
     /tmp/cckqcdzN.s:1337   .text:0000000000000590 .LVL156
     /tmp/cckqcdzN.s:1343   .text:000000000000059c .LVL157
     /tmp/cckqcdzN.s:7028   .debug_str:00000000000000ab .LASF107
     /tmp/cckqcdzN.s:7148   .debug_str:0000000000000522 .LASF108
     /tmp/cckqcdzN.s:1107   .text:0000000000000394 .LFB16
     /tmp/cckqcdzN.s:1256   .text:00000000000004dc .LFE16
     /tmp/cckqcdzN.s:6687   .debug_loc:0000000000000904 .LLST30
     /tmp/cckqcdzN.s:6701   .debug_loc:000000000000093d .LLST31
     /tmp/cckqcdzN.s:7004   .debug_str:0000000000000039 .LASF109
     /tmp/cckqcdzN.s:6721   .debug_loc:000000000000099a .LLST32
     /tmp/cckqcdzN.s:1134   .text:00000000000003c4 .LVL127
     /tmp/cckqcdzN.s:1141   .text:00000000000003d8 .LVL128
     /tmp/cckqcdzN.s:1146   .text:00000000000003e8 .LVL129
     /tmp/cckqcdzN.s:1161   .text:0000000000000408 .LVL132
     /tmp/cckqcdzN.s:1172   .text:0000000000000414 .LVL133
     /tmp/cckqcdzN.s:1177   .text:0000000000000420 .LVL134
     /tmp/cckqcdzN.s:1185   .text:0000000000000434 .LVL137
     /tmp/cckqcdzN.s:1192   .text:0000000000000448 .LVL138
     /tmp/cckqcdzN.s:1197   .text:0000000000000458 .LVL139
     /tmp/cckqcdzN.s:1204   .text:000000000000046c .LVL140
     /tmp/cckqcdzN.s:1211   .text:0000000000000480 .LVL141
     /tmp/cckqcdzN.s:1216   .text:0000000000000490 .LVL142
     /tmp/cckqcdzN.s:1231   .text:00000000000004b0 .LVL145
     /tmp/cckqcdzN.s:1239   .text:00000000000004c4 .LVL146
     /tmp/cckqcdzN.s:7008   .debug_str:000000000000004c .LASF110
GAS LISTING /tmp/cckqcdzN.s 			page 72


     /tmp/cckqcdzN.s:7240   .debug_str:00000000000008da .LASF111
     /tmp/cckqcdzN.s:912    .text:0000000000000214 .LFB15
     /tmp/cckqcdzN.s:1087   .text:0000000000000394 .LFE15
     /tmp/cckqcdzN.s:6732   .debug_loc:00000000000009d0 .LLST26
     /tmp/cckqcdzN.s:6746   .debug_loc:0000000000000a09 .LLST27
     /tmp/cckqcdzN.s:6766   .debug_loc:0000000000000a66 .LLST28
     /tmp/cckqcdzN.s:6774   .debug_loc:0000000000000a8a .LLST29
     /tmp/cckqcdzN.s:939    .text:0000000000000244 .LVL98
     /tmp/cckqcdzN.s:946    .text:0000000000000258 .LVL99
     /tmp/cckqcdzN.s:951    .text:0000000000000268 .LVL100
     /tmp/cckqcdzN.s:966    .text:0000000000000288 .LVL103
     /tmp/cckqcdzN.s:977    .text:0000000000000294 .LVL104
     /tmp/cckqcdzN.s:991    .text:00000000000002a8 .LVL106
     /tmp/cckqcdzN.s:998    .text:00000000000002bc .LVL107
     /tmp/cckqcdzN.s:1003   .text:00000000000002cc .LVL108
     /tmp/cckqcdzN.s:1008   .text:00000000000002d8 .LVL109
     /tmp/cckqcdzN.s:1016   .text:00000000000002ec .LVL112
     /tmp/cckqcdzN.s:1023   .text:0000000000000300 .LVL113
     /tmp/cckqcdzN.s:1028   .text:0000000000000310 .LVL114
     /tmp/cckqcdzN.s:1035   .text:0000000000000324 .LVL115
     /tmp/cckqcdzN.s:1042   .text:0000000000000338 .LVL116
     /tmp/cckqcdzN.s:1047   .text:0000000000000348 .LVL117
     /tmp/cckqcdzN.s:1062   .text:0000000000000368 .LVL120
     /tmp/cckqcdzN.s:1070   .text:000000000000037c .LVL121
     /tmp/cckqcdzN.s:7006   .debug_str:0000000000000040 .LASF112
     /tmp/cckqcdzN.s:7050   .debug_str:000000000000016d .LASF113
     /tmp/cckqcdzN.s:155    .text:00000000000000cc .LFB14
     /tmp/cckqcdzN.s:278    .text:00000000000001a0 .LFE14
     /tmp/cckqcdzN.s:6785   .debug_loc:0000000000000ac0 .LLST4
     /tmp/cckqcdzN.s:173    .text:00000000000000e4 .LBB31
     /tmp/cckqcdzN.s:249    .text:0000000000000164 .LBE31
     /tmp/cckqcdzN.s:6799   .debug_loc:0000000000000af9 .LLST5
     /tmp/cckqcdzN.s:6811   .debug_loc:0000000000000b30 .LLST6
     /tmp/cckqcdzN.s:196    .text:0000000000000104 .LBB35
     /tmp/cckqcdzN.s:211    .text:000000000000011c .LBE35
     /tmp/cckqcdzN.s:6823   .debug_loc:0000000000000b67 .LLST7
     /tmp/cckqcdzN.s:185    .text:00000000000000f4 .LVL18
     /tmp/cckqcdzN.s:227    .text:0000000000000138 .LVL24
     /tmp/cckqcdzN.s:234    .text:000000000000014c .LVL25
     /tmp/cckqcdzN.s:239    .text:000000000000015c .LVL26
     /tmp/cckqcdzN.s:254    .text:0000000000000174 .LVL28
     /tmp/cckqcdzN.s:262    .text:0000000000000188 .LVL29
     /tmp/cckqcdzN.s:7042   .debug_str:000000000000010b .LASF114
     /tmp/cckqcdzN.s:7252   .debug_str:0000000000000a08 .LASF115
     /tmp/cckqcdzN.s:21     .text:0000000000000000 .LFB13
     /tmp/cckqcdzN.s:141    .text:00000000000000cc .LFE13
     /tmp/cckqcdzN.s:6834   .debug_loc:0000000000000b9d .LLST0
     /tmp/cckqcdzN.s:40     .text:0000000000000018 .LBB23
     /tmp/cckqcdzN.s:116    .text:0000000000000098 .LBE23
     /tmp/cckqcdzN.s:6848   .debug_loc:0000000000000bd6 .LLST1
     /tmp/cckqcdzN.s:6860   .debug_loc:0000000000000c0d .LLST2
     /tmp/cckqcdzN.s:63     .text:0000000000000038 .LBB27
     /tmp/cckqcdzN.s:78     .text:0000000000000050 .LBE27
     /tmp/cckqcdzN.s:6872   .debug_loc:0000000000000c44 .LLST3
     /tmp/cckqcdzN.s:52     .text:0000000000000028 .LVL3
     /tmp/cckqcdzN.s:94     .text:000000000000006c .LVL9
     /tmp/cckqcdzN.s:101    .text:0000000000000080 .LVL10
GAS LISTING /tmp/cckqcdzN.s 			page 73


     /tmp/cckqcdzN.s:106    .text:0000000000000090 .LVL11
     /tmp/cckqcdzN.s:121    .text:00000000000000a8 .LVL13
     /tmp/cckqcdzN.s:7262   .debug_str:0000000000000a93 .LASF144
     /tmp/cckqcdzN.s:7238   .debug_str:00000000000008cc .LASF145
     /tmp/cckqcdzN.s:827    .text:00000000000001a0 .LFB12
     /tmp/cckqcdzN.s:892    .text:0000000000000214 .LFE12
     /tmp/cckqcdzN.s:6883   .debug_loc:0000000000000c7a .LLST25
     /tmp/cckqcdzN.s:859    .text:00000000000001dc .LVL90
     /tmp/cckqcdzN.s:864    .text:00000000000001ec .LVL91
     /tmp/cckqcdzN.s:889    .text:0000000000000210 .LVL94
     /tmp/cckqcdzN.s:7292   .debug_str:0000000000000be7 .LASF116
     /tmp/cckqcdzN.s:7134   .debug_str:000000000000048d .LASF117
     /tmp/cckqcdzN.s:7270   .debug_str:0000000000000ad7 .LASF118
     /tmp/cckqcdzN.s:7282   .debug_str:0000000000000b45 .LASF119
     /tmp/cckqcdzN.s:7126   .debug_str:000000000000045f .LASF120
     /tmp/cckqcdzN.s:7096   .debug_str:000000000000038f .LASF121
     /tmp/cckqcdzN.s:7198   .debug_str:00000000000006ea .LASF122
     /tmp/cckqcdzN.s:7178   .debug_str:0000000000000632 .LASF123
     /tmp/cckqcdzN.s:7246   .debug_str:00000000000009e7 .LASF124
     /tmp/cckqcdzN.s:7156   .debug_str:0000000000000554 .LASF125
     /tmp/cckqcdzN.s:7152   .debug_str:0000000000000539 .LASF126
     /tmp/cckqcdzN.s:7112   .debug_str:000000000000040e .LASF146
     /tmp/cckqcdzN.s:7102   .debug_str:00000000000003b3 .LASF147
     /tmp/cckqcdzN.s:7024   .debug_str:000000000000009b .LASF127
     /tmp/cckqcdzN.s:7286   .debug_str:0000000000000b7e .LASF129
     /tmp/cckqcdzN.s:7066   .debug_str:0000000000000265 .LASF130
     /tmp/cckqcdzN.s:7092   .debug_str:000000000000036f .LASF131
     /tmp/cckqcdzN.s:7054   .debug_str:000000000000018b .LASF132
     /tmp/cckqcdzN.s:534    .text._ZN19ConsumerProducerCPP16ProducerKeyboradD0Ev:0000000000000000 .LVL56
     /tmp/cckqcdzN.s:566    .text._ZN19ConsumerProducerCPP16ProducerKeyboradD0Ev:0000000000000044 .LVL60
     /tmp/cckqcdzN.s:546    .text._ZN19ConsumerProducerCPP16ProducerKeyboradD0Ev:0000000000000018 .LVL57
     /tmp/cckqcdzN.s:497    .text._ZN19ConsumerProducerCPP16ProducerKeyboradD2Ev:0000000000000000 .LVL54
     /tmp/cckqcdzN.s:618    .text._ZN19ConsumerProducerCPP8ProducerD0Ev:0000000000000000 .LVL63
     /tmp/cckqcdzN.s:650    .text._ZN19ConsumerProducerCPP8ProducerD0Ev:0000000000000044 .LVL67
     /tmp/cckqcdzN.s:630    .text._ZN19ConsumerProducerCPP8ProducerD0Ev:0000000000000018 .LVL64
     /tmp/cckqcdzN.s:581    .text._ZN19ConsumerProducerCPP8ProducerD2Ev:0000000000000000 .LVL61
     /tmp/cckqcdzN.s:450    .text._ZN19ConsumerProducerCPP8ConsumerD0Ev:0000000000000000 .LVL49
     /tmp/cckqcdzN.s:482    .text._ZN19ConsumerProducerCPP8ConsumerD0Ev:0000000000000044 .LVL53
     /tmp/cckqcdzN.s:462    .text._ZN19ConsumerProducerCPP8ConsumerD0Ev:0000000000000018 .LVL50
     /tmp/cckqcdzN.s:413    .text._ZN19ConsumerProducerCPP8ConsumerD2Ev:0000000000000000 .LVL47
     /tmp/cckqcdzN.s:1498   .text:00000000000006a4 .LVL171
     /tmp/cckqcdzN.s:1573   .text:0000000000000760 .LVL183
     /tmp/cckqcdzN.s:1872   .text:00000000000009a0 .LVL223
     /tmp/cckqcdzN.s:1876   .text:00000000000009a4 .LVL224
     /tmp/cckqcdzN.s:1480   .text:0000000000000674 .LVL167
     /tmp/cckqcdzN.s:1856   .text:0000000000000980 .LVL222
     /tmp/cckqcdzN.s:1565   .text:0000000000000750 .LVL181
     /tmp/cckqcdzN.s:1840   .text:0000000000000968 .LVL221
     /tmp/cckqcdzN.s:1590   .text:000000000000078c .LVL186
     /tmp/cckqcdzN.s:1602   .text:00000000000007a8 .LVL188
     /tmp/cckqcdzN.s:1604   .text:00000000000007ac .LVL189
     /tmp/cckqcdzN.s:1639   .text:00000000000007f4 .LVL193
     /tmp/cckqcdzN.s:1691   .text:0000000000000854 .LVL200
     /tmp/cckqcdzN.s:1699   .text:0000000000000864 .LVL201
     /tmp/cckqcdzN.s:1738   .text:00000000000008b8 .LVL205
     /tmp/cckqcdzN.s:1747   .text:00000000000008c4 .LVL207
     /tmp/cckqcdzN.s:1922   .text:0000000000000a14 .LVL234
GAS LISTING /tmp/cckqcdzN.s 			page 74


     /tmp/cckqcdzN.s:1761   .text:00000000000008d0 .LVL209
     /tmp/cckqcdzN.s:1771   .text:00000000000008e8 .LVL211
     /tmp/cckqcdzN.s:1773   .text:00000000000008ec .LVL212
     /tmp/cckqcdzN.s:1790   .text:0000000000000908 .LVL214
     /tmp/cckqcdzN.s:1792   .text:000000000000090c .LVL215
     /tmp/cckqcdzN.s:1583   .text:0000000000000778 .LVL185
     /tmp/cckqcdzN.s:1594   .text:0000000000000790 .LVL187
     /tmp/cckqcdzN.s:1627   .text:00000000000007dc .LVL191
     /tmp/cckqcdzN.s:1899   .text:00000000000009dc .LVL229
     /tmp/cckqcdzN.s:1665   .text:0000000000000824 .LVL196
     /tmp/cckqcdzN.s:1676   .text:000000000000083c .LVL198
     /tmp/cckqcdzN.s:289    .text._ZN19ConsumerProducerCPP8Consumer3runEv:0000000000000000 .LVL31
     /tmp/cckqcdzN.s:310    .text._ZN19ConsumerProducerCPP8Consumer3runEv:0000000000000028 .LVL33
     /tmp/cckqcdzN.s:395    .text._ZN19ConsumerProducerCPP8Consumer3runEv:00000000000000c4 .LVL45
     /tmp/cckqcdzN.s:306    .text._ZN19ConsumerProducerCPP8Consumer3runEv:0000000000000020 .LVL32
     /tmp/cckqcdzN.s:336    .text._ZN19ConsumerProducerCPP8Consumer3runEv:0000000000000058 .LVL36
     /tmp/cckqcdzN.s:347    .text._ZN19ConsumerProducerCPP8Consumer3runEv:000000000000006c .LVL39
     /tmp/cckqcdzN.s:398    .text._ZN19ConsumerProducerCPP8Consumer3runEv:00000000000000c8 .LVL46
     /tmp/cckqcdzN.s:340    .text._ZN19ConsumerProducerCPP8Consumer3runEv:000000000000005c .LVL37
     /tmp/cckqcdzN.s:364    .text._ZN19ConsumerProducerCPP8Consumer3runEv:0000000000000088 .LVL41
     /tmp/cckqcdzN.s:745    .text._ZN19ConsumerProducerCPP8Producer3runEv:0000000000000000 .LVL79
     /tmp/cckqcdzN.s:763    .text._ZN19ConsumerProducerCPP8Producer3runEv:0000000000000020 .LVL81
     /tmp/cckqcdzN.s:812    .text._ZN19ConsumerProducerCPP8Producer3runEv:0000000000000088 .LVL86
     /tmp/cckqcdzN.s:760    .text._ZN19ConsumerProducerCPP8Producer3runEv:000000000000001c .LVL80
     /tmp/cckqcdzN.s:782    .text._ZN19ConsumerProducerCPP8Producer3runEv:000000000000004c .LVL83
     /tmp/cckqcdzN.s:815    .text._ZN19ConsumerProducerCPP8Producer3runEv:000000000000008c .LVL87
     /tmp/cckqcdzN.s:665    .text._ZN19ConsumerProducerCPP16ProducerKeyborad3runEv:0000000000000000 .LVL68
     /tmp/cckqcdzN.s:679    .text._ZN19ConsumerProducerCPP16ProducerKeyborad3runEv:0000000000000018 .LVL69
     /tmp/cckqcdzN.s:730    .text._ZN19ConsumerProducerCPP16ProducerKeyborad3runEv:000000000000007c .LVL78
     /tmp/cckqcdzN.s:688    .text._ZN19ConsumerProducerCPP16ProducerKeyborad3runEv:0000000000000024 .LVL71
     /tmp/cckqcdzN.s:701    .text._ZN19ConsumerProducerCPP16ProducerKeyborad3runEv:0000000000000040 .LVL73
     /tmp/cckqcdzN.s:711    .text._ZN19ConsumerProducerCPP16ProducerKeyborad3runEv:0000000000000054 .LVL74
     /tmp/cckqcdzN.s:713    .text._ZN19ConsumerProducerCPP16ProducerKeyborad3runEv:0000000000000058 .LVL75
     /tmp/cckqcdzN.s:1362   .text:00000000000005d4 .LVL158
     /tmp/cckqcdzN.s:1366   .text:00000000000005d8 .LVL159
     /tmp/cckqcdzN.s:1371   .text:00000000000005e0 .LVL160
     /tmp/cckqcdzN.s:1381   .text:00000000000005f4 .LVL162
     /tmp/cckqcdzN.s:1392   .text:0000000000000600 .LVL163
     /tmp/cckqcdzN.s:1110   .text:0000000000000394 .LVL124
     /tmp/cckqcdzN.s:1128   .text:00000000000003b4 .LVL126
     /tmp/cckqcdzN.s:1124   .text:00000000000003ac .LVL125
     /tmp/cckqcdzN.s:1149   .text:00000000000003ec .LVL130
     /tmp/cckqcdzN.s:1151   .text:00000000000003f0 .LVL131
     /tmp/cckqcdzN.s:1219   .text:0000000000000494 .LVL143
     /tmp/cckqcdzN.s:1221   .text:0000000000000498 .LVL144
     /tmp/cckqcdzN.s:1248   .text:00000000000004d0 .LVL147
     /tmp/cckqcdzN.s:1179   .text:0000000000000424 .LVL135
     /tmp/cckqcdzN.s:1183   .text:000000000000042c .LVL136
     /tmp/cckqcdzN.s:1251   .text:00000000000004d4 .LVL148
     /tmp/cckqcdzN.s:915    .text:0000000000000214 .LVL95
     /tmp/cckqcdzN.s:933    .text:0000000000000234 .LVL97
     /tmp/cckqcdzN.s:929    .text:000000000000022c .LVL96
     /tmp/cckqcdzN.s:954    .text:000000000000026c .LVL101
     /tmp/cckqcdzN.s:956    .text:0000000000000270 .LVL102
     /tmp/cckqcdzN.s:1050   .text:000000000000034c .LVL118
     /tmp/cckqcdzN.s:1052   .text:0000000000000350 .LVL119
     /tmp/cckqcdzN.s:1079   .text:0000000000000388 .LVL122
GAS LISTING /tmp/cckqcdzN.s 			page 75


     /tmp/cckqcdzN.s:985    .text:0000000000000298 .LVL105
     /tmp/cckqcdzN.s:1010   .text:00000000000002dc .LVL110
     /tmp/cckqcdzN.s:1014   .text:00000000000002e4 .LVL111
     /tmp/cckqcdzN.s:1082   .text:000000000000038c .LVL123
     /tmp/cckqcdzN.s:158    .text:00000000000000cc .LVL15
     /tmp/cckqcdzN.s:177    .text:00000000000000ec .LVL17
     /tmp/cckqcdzN.s:172    .text:00000000000000e4 .LVL16
     /tmp/cckqcdzN.s:273    .text:0000000000000198 .LVL30
     /tmp/cckqcdzN.s:217    .text:0000000000000120 .LVL23
     /tmp/cckqcdzN.s:245    .text:0000000000000164 .LVL27
     /tmp/cckqcdzN.s:200    .text:0000000000000108 .LVL20
     /tmp/cckqcdzN.s:209    .text:000000000000011c .LVL22
     /tmp/cckqcdzN.s:25     .text:0000000000000000 .LVL0
     /tmp/cckqcdzN.s:44     .text:0000000000000020 .LVL2
     /tmp/cckqcdzN.s:39     .text:0000000000000018 .LVL1
     /tmp/cckqcdzN.s:136    .text:00000000000000c4 .LVL14
     /tmp/cckqcdzN.s:84     .text:0000000000000054 .LVL8
     /tmp/cckqcdzN.s:112    .text:0000000000000098 .LVL12
     /tmp/cckqcdzN.s:67     .text:000000000000003c .LVL5
     /tmp/cckqcdzN.s:76     .text:0000000000000050 .LVL7
     /tmp/cckqcdzN.s:830    .text:00000000000001a0 .LVL88
     /tmp/cckqcdzN.s:853    .text:00000000000001d0 .LVL89
     /tmp/cckqcdzN.s:877    .text:00000000000001fc .LVL92
     /tmp/cckqcdzN.s:883    .text:0000000000000208 .LVL93
     /tmp/cckqcdzN.s:2122   .debug_info:0000000000000000 .Ldebug_info0
     /tmp/cckqcdzN.s:5      .text:0000000000000000 .Ltext0
     /tmp/cckqcdzN.s:2114   .text:0000000000000a5c .Letext0
     /tmp/cckqcdzN.s:47     .text:0000000000000020 .LBB25
     /tmp/cckqcdzN.s:80     .text:0000000000000050 .LBE25
     /tmp/cckqcdzN.s:108    .text:0000000000000090 .LBB29
     /tmp/cckqcdzN.s:114    .text:0000000000000098 .LBE29
     /tmp/cckqcdzN.s:180    .text:00000000000000ec .LBB33
     /tmp/cckqcdzN.s:213    .text:000000000000011c .LBE33
     /tmp/cckqcdzN.s:241    .text:000000000000015c .LBB37
     /tmp/cckqcdzN.s:247    .text:0000000000000164 .LBE37
     /tmp/cckqcdzN.s:312    .text._ZN19ConsumerProducerCPP8Consumer3runEv:0000000000000028 .LBB39
     /tmp/cckqcdzN.s:319    .text._ZN19ConsumerProducerCPP8Consumer3runEv:0000000000000034 .LBE39
     /tmp/cckqcdzN.s:324    .text._ZN19ConsumerProducerCPP8Consumer3runEv:0000000000000040 .LBB40
     /tmp/cckqcdzN.s:352    .text._ZN19ConsumerProducerCPP8Consumer3runEv:0000000000000074 .LBE40
     /tmp/cckqcdzN.s:1687   .text:000000000000084c .LBB56
     /tmp/cckqcdzN.s:1751   .text:00000000000008c4 .LBE56
     /tmp/cckqcdzN.s:1923   .text:0000000000000a14 .LBB64
     /tmp/cckqcdzN.s:1933   .text:0000000000000a2c .LBE64
     /tmp/cckqcdzN.s:1701   .text:0000000000000864 .LBE57
     /tmp/cckqcdzN.s:1740   .text:00000000000008b8 .LBB60
     /tmp/cckqcdzN.s:1750   .text:00000000000008c4 .LBE60
     /tmp/cckqcdzN.s:1757   .text:00000000000008cc .LBB61
     /tmp/cckqcdzN.s:1775   .text:00000000000008ec .LBE61
     /tmp/cckqcdzN.s:1787   .text:0000000000000904 .LBB62
     /tmp/cckqcdzN.s:1794   .text:000000000000090c .LBE62
     /tmp/cckqcdzN.s:1938   .gcc_except_table:0000000000000000 .LLSDA32
                           .group:0000000000000000 _ZN19ConsumerProducerCPP8ConsumerD5Ev
                           .group:0000000000000000 _ZN19ConsumerProducerCPP16ProducerKeyboradD5Ev
                           .group:0000000000000000 _ZN19ConsumerProducerCPP8ProducerD5Ev

UNDEFINED SYMBOLS
_Z15thread_dispatchv
GAS LISTING /tmp/cckqcdzN.s 			page 76


_Z11printStringPKc
_Z8printIntiii
_ZN7Console4putcEc
_ZN9BufferCPP3getEv
_ZN9BufferCPP6getCntEv
_ZN9Semaphore6signalEv
_ZN6ThreadD2Ev
_ZdlPv
_Z4getcv
_ZN9BufferCPP3putEi
_ZN6Thread5sleepEm
_Z13thread_createPP7_threadPFvPvES2_
_ZN7_threaddlEPv
_Z9getStringPci
_Z11stringToIntPKc
_Znwm
_ZN9BufferCPPC1Ei
_ZN9SemaphoreC1Ej
_ZN6ThreadC2Ev
_ZN6Thread5startEv
_ZN6Thread8dispatchEv
_ZN9Semaphore4waitEv
_ZN9BufferCPPD1Ev
_Unwind_Resume
__gxx_personality_v0
