
kernel:     file format elf64-littleriscv


Disassembly of section .text:

0000000080000000 <_entry>:
    80000000:	0000c117          	auipc	sp,0xc
    80000004:	ad813103          	ld	sp,-1320(sp) # 8000bad8 <_GLOBAL_OFFSET_TABLE_+0x48>
    80000008:	00001537          	lui	a0,0x1
    8000000c:	f14025f3          	csrr	a1,mhartid
    80000010:	00158593          	addi	a1,a1,1
    80000014:	02b50533          	mul	a0,a0,a1
    80000018:	00a10133          	add	sp,sp,a0
    8000001c:	5c4060ef          	jal	ra,800065e0 <start>

0000000080000020 <spin>:
    80000020:	0000006f          	j	80000020 <spin>
	...

0000000080001000 <copy_and_swap>:
# a1 holds expected value
# a2 holds desired value
# a0 holds return value, 0 if successful, !0 otherwise
.global copy_and_swap
copy_and_swap:
    lr.w t0, (a0)          # Load original value.
    80001000:	100522af          	lr.w	t0,(a0)
    bne t0, a1, fail       # Doesn’t match, so fail.
    80001004:	00b29a63          	bne	t0,a1,80001018 <fail>
    sc.w t0, a2, (a0)      # Try to update.
    80001008:	18c522af          	sc.w	t0,a2,(a0)
    bnez t0, copy_and_swap # Retry if store-conditional failed.
    8000100c:	fe029ae3          	bnez	t0,80001000 <copy_and_swap>
    li a0, 0               # Set return to success.
    80001010:	00000513          	li	a0,0
    jr ra                  # Return.
    80001014:	00008067          	ret

0000000080001018 <fail>:
    fail:
    li a0, 1               # Set return to failure.
    80001018:	00100513          	li	a0,1
    8000101c:	00008067          	ret

0000000080001020 <_ZN5RiscV14supervisorTrapEv>:
.global _ZN5RiscV14supervisorTrapEv
_ZN5RiscV14supervisorTrapEv:

    #push all registers to stack

    addi sp, sp, -256
    80001020:	f0010113          	addi	sp,sp,-256
    csrw sscratch, sp
    80001024:	14011073          	csrw	sscratch,sp
    .irp index 0,1,2,3,4,5,6,7,8,9,10,11,12,13,14,15,16,17,18,19,20,21,22,23,24,25,26,27,28,29,30,31 //ommit x10 as it is reserved for return values from function
    sd x\index, \index * 8(sp)
    .endr
    80001028:	00013023          	sd	zero,0(sp)
    8000102c:	00113423          	sd	ra,8(sp)
    80001030:	00213823          	sd	sp,16(sp)
    80001034:	00313c23          	sd	gp,24(sp)
    80001038:	02413023          	sd	tp,32(sp)
    8000103c:	02513423          	sd	t0,40(sp)
    80001040:	02613823          	sd	t1,48(sp)
    80001044:	02713c23          	sd	t2,56(sp)
    80001048:	04813023          	sd	s0,64(sp)
    8000104c:	04913423          	sd	s1,72(sp)
    80001050:	04a13823          	sd	a0,80(sp)
    80001054:	04b13c23          	sd	a1,88(sp)
    80001058:	06c13023          	sd	a2,96(sp)
    8000105c:	06d13423          	sd	a3,104(sp)
    80001060:	06e13823          	sd	a4,112(sp)
    80001064:	06f13c23          	sd	a5,120(sp)
    80001068:	09013023          	sd	a6,128(sp)
    8000106c:	09113423          	sd	a7,136(sp)
    80001070:	09213823          	sd	s2,144(sp)
    80001074:	09313c23          	sd	s3,152(sp)
    80001078:	0b413023          	sd	s4,160(sp)
    8000107c:	0b513423          	sd	s5,168(sp)
    80001080:	0b613823          	sd	s6,176(sp)
    80001084:	0b713c23          	sd	s7,184(sp)
    80001088:	0d813023          	sd	s8,192(sp)
    8000108c:	0d913423          	sd	s9,200(sp)
    80001090:	0da13823          	sd	s10,208(sp)
    80001094:	0db13c23          	sd	s11,216(sp)
    80001098:	0fc13023          	sd	t3,224(sp)
    8000109c:	0fd13423          	sd	t4,232(sp)
    800010a0:	0fe13823          	sd	t5,240(sp)
    800010a4:	0ff13c23          	sd	t6,248(sp)

    #call trap handler
    call _ZN5RiscV20handleSupervisorTrapEv // call handleSupervisorTrap()
    800010a8:	415020ef          	jal	ra,80003cbc <_ZN5RiscV20handleSupervisorTrapEv>

    #pop all registers from stack

    .irp index 0,1,2,3,4,5,6,7,8,9,10,11,12,13,14,15,16,17,18,19,20,21,22,23,24,25,26,27,28,29,30,31
    ld x\index, \index * 8(sp)
    .endr
    800010ac:	00013003          	ld	zero,0(sp)
    800010b0:	00813083          	ld	ra,8(sp)
    800010b4:	01013103          	ld	sp,16(sp)
    800010b8:	01813183          	ld	gp,24(sp)
    800010bc:	02013203          	ld	tp,32(sp)
    800010c0:	02813283          	ld	t0,40(sp)
    800010c4:	03013303          	ld	t1,48(sp)
    800010c8:	03813383          	ld	t2,56(sp)
    800010cc:	04013403          	ld	s0,64(sp)
    800010d0:	04813483          	ld	s1,72(sp)
    800010d4:	05013503          	ld	a0,80(sp)
    800010d8:	05813583          	ld	a1,88(sp)
    800010dc:	06013603          	ld	a2,96(sp)
    800010e0:	06813683          	ld	a3,104(sp)
    800010e4:	07013703          	ld	a4,112(sp)
    800010e8:	07813783          	ld	a5,120(sp)
    800010ec:	08013803          	ld	a6,128(sp)
    800010f0:	08813883          	ld	a7,136(sp)
    800010f4:	09013903          	ld	s2,144(sp)
    800010f8:	09813983          	ld	s3,152(sp)
    800010fc:	0a013a03          	ld	s4,160(sp)
    80001100:	0a813a83          	ld	s5,168(sp)
    80001104:	0b013b03          	ld	s6,176(sp)
    80001108:	0b813b83          	ld	s7,184(sp)
    8000110c:	0c013c03          	ld	s8,192(sp)
    80001110:	0c813c83          	ld	s9,200(sp)
    80001114:	0d013d03          	ld	s10,208(sp)
    80001118:	0d813d83          	ld	s11,216(sp)
    8000111c:	0e013e03          	ld	t3,224(sp)
    80001120:	0e813e83          	ld	t4,232(sp)
    80001124:	0f013f03          	ld	t5,240(sp)
    80001128:	0f813f83          	ld	t6,248(sp)
    addi sp, sp, 256
    8000112c:	10010113          	addi	sp,sp,256

    80001130:	10200073          	sret
	...

0000000080001140 <_ZN3TCB13contextSwitchEPNS_7ContextES1_>:
.global _ZN3TCB13contextSwitchEPNS_7ContextES1_
.type _ZN3TCB13contextSwitchEPNS_7ContextES1_, @function
_ZN3TCB13contextSwitchEPNS_7ContextES1_:
    sd sp, 0*8(a0)
    80001140:	00253023          	sd	sp,0(a0) # 1000 <_entry-0x7ffff000>
    sd ra, 1*8(a0)
    80001144:	00153423          	sd	ra,8(a0)

    ld sp, 0*8(a1)
    80001148:	0005b103          	ld	sp,0(a1)
    ld ra, 1*8(a1)
    8000114c:	0085b083          	ld	ra,8(a1)

    80001150:	00008067          	ret

0000000080001154 <_ZN13SlabAllocator12allocateSlotEPNS_4SlabE>:
    slab->allocated = (bool*)((uint64)slab + sizeof(Slab));
    for(uint64 i=0;i<slab->totalNumOfSlots;i++)
        slab->allocated[i] = false;
}

void* SlabAllocator::allocateSlot(Slab *slab) {
    80001154:	ff010113          	addi	sp,sp,-16
    80001158:	00813423          	sd	s0,8(sp)
    8000115c:	01010413          	addi	s0,sp,16
    for(uint64 i=0; i<slab->totalNumOfSlots; i++){
    80001160:	00000793          	li	a5,0
    80001164:	01853703          	ld	a4,24(a0)
    80001168:	04e7f263          	bgeu	a5,a4,800011ac <_ZN13SlabAllocator12allocateSlotEPNS_4SlabE+0x58>
        if(!slab->allocated[i]){
    8000116c:	02853703          	ld	a4,40(a0)
    80001170:	00f70733          	add	a4,a4,a5
    80001174:	00074683          	lbu	a3,0(a4)
    80001178:	00068663          	beqz	a3,80001184 <_ZN13SlabAllocator12allocateSlotEPNS_4SlabE+0x30>
    for(uint64 i=0; i<slab->totalNumOfSlots; i++){
    8000117c:	00178793          	addi	a5,a5,1
    80001180:	fe5ff06f          	j	80001164 <_ZN13SlabAllocator12allocateSlotEPNS_4SlabE+0x10>
            slab->allocated[i] = true;
    80001184:	00100693          	li	a3,1
    80001188:	00d70023          	sb	a3,0(a4)
            slab->numOfFreeSlots--;
    8000118c:	01053703          	ld	a4,16(a0)
    80001190:	fff70713          	addi	a4,a4,-1
    80001194:	00e53823          	sd	a4,16(a0)
            return (void*)((uint64)slab->objectOffset + i*slab->objectSize);
    80001198:	03053703          	ld	a4,48(a0)
    8000119c:	02053503          	ld	a0,32(a0)
    800011a0:	02f507b3          	mul	a5,a0,a5
    800011a4:	00f70533          	add	a0,a4,a5
    800011a8:	0080006f          	j	800011b0 <_ZN13SlabAllocator12allocateSlotEPNS_4SlabE+0x5c>
        }
    }
    return nullptr;
    800011ac:	00000513          	li	a0,0
}
    800011b0:	00813403          	ld	s0,8(sp)
    800011b4:	01010113          	addi	sp,sp,16
    800011b8:	00008067          	ret

00000000800011bc <_ZN13SlabAllocator11createCacheEPKcmPFvPvES4_>:

SlabAllocator::Cache* SlabAllocator::createCache(const char *name, size_t size, void (*ctor)(void *), void (*dtor)(void *)) {
    800011bc:	ff010113          	addi	sp,sp,-16
    800011c0:	00813423          	sd	s0,8(sp)
    800011c4:	01010413          	addi	s0,sp,16
    return nullptr;
}
    800011c8:	00000513          	li	a0,0
    800011cc:	00813403          	ld	s0,8(sp)
    800011d0:	01010113          	addi	sp,sp,16
    800011d4:	00008067          	ret

00000000800011d8 <_ZN13SlabAllocator9printSlabEPNS_4SlabE>:

void SlabAllocator::printSlab(Slab *slab) {
    800011d8:	fe010113          	addi	sp,sp,-32
    800011dc:	00113c23          	sd	ra,24(sp)
    800011e0:	00813823          	sd	s0,16(sp)
    800011e4:	00913423          	sd	s1,8(sp)
    800011e8:	01213023          	sd	s2,0(sp)
    800011ec:	02010413          	addi	s0,sp,32
    800011f0:	00050913          	mv	s2,a0
    ConsoleUtil::print("Slab address:", (uint64)slab, "\n");
    800011f4:	00008617          	auipc	a2,0x8
    800011f8:	fac60613          	addi	a2,a2,-84 # 800091a0 <CONSOLE_STATUS+0x190>
    800011fc:	0005059b          	sext.w	a1,a0
    80001200:	00008517          	auipc	a0,0x8
    80001204:	e2050513          	addi	a0,a0,-480 # 80009020 <CONSOLE_STATUS+0x10>
    80001208:	00003097          	auipc	ra,0x3
    8000120c:	4a4080e7          	jalr	1188(ra) # 800046ac <_ZN11ConsoleUtil5printEPKciS1_>
    ConsoleUtil::print("Number of slots:", (uint64)slab->totalNumOfSlots, "\n");
    80001210:	00008617          	auipc	a2,0x8
    80001214:	f9060613          	addi	a2,a2,-112 # 800091a0 <CONSOLE_STATUS+0x190>
    80001218:	01892583          	lw	a1,24(s2)
    8000121c:	00008517          	auipc	a0,0x8
    80001220:	e1450513          	addi	a0,a0,-492 # 80009030 <CONSOLE_STATUS+0x20>
    80001224:	00003097          	auipc	ra,0x3
    80001228:	488080e7          	jalr	1160(ra) # 800046ac <_ZN11ConsoleUtil5printEPKciS1_>
    ConsoleUtil::print("Slab object size:", (uint64)sizeof(Slab), "\n");
    8000122c:	00008617          	auipc	a2,0x8
    80001230:	f7460613          	addi	a2,a2,-140 # 800091a0 <CONSOLE_STATUS+0x190>
    80001234:	03800593          	li	a1,56
    80001238:	00008517          	auipc	a0,0x8
    8000123c:	e1050513          	addi	a0,a0,-496 # 80009048 <CONSOLE_STATUS+0x38>
    80001240:	00003097          	auipc	ra,0x3
    80001244:	46c080e7          	jalr	1132(ra) # 800046ac <_ZN11ConsoleUtil5printEPKciS1_>
    ConsoleUtil::print("Object offset:", (uint64)slab->objectOffset, "\n");
    80001248:	00008617          	auipc	a2,0x8
    8000124c:	f5860613          	addi	a2,a2,-168 # 800091a0 <CONSOLE_STATUS+0x190>
    80001250:	03092583          	lw	a1,48(s2)
    80001254:	00008517          	auipc	a0,0x8
    80001258:	e0c50513          	addi	a0,a0,-500 # 80009060 <CONSOLE_STATUS+0x50>
    8000125c:	00003097          	auipc	ra,0x3
    80001260:	450080e7          	jalr	1104(ra) # 800046ac <_ZN11ConsoleUtil5printEPKciS1_>
    ConsoleUtil::print("Slab allocated array address:", (uint64)slab->allocated, "\n");
    80001264:	00008617          	auipc	a2,0x8
    80001268:	f3c60613          	addi	a2,a2,-196 # 800091a0 <CONSOLE_STATUS+0x190>
    8000126c:	02892583          	lw	a1,40(s2)
    80001270:	00008517          	auipc	a0,0x8
    80001274:	e0050513          	addi	a0,a0,-512 # 80009070 <CONSOLE_STATUS+0x60>
    80001278:	00003097          	auipc	ra,0x3
    8000127c:	434080e7          	jalr	1076(ra) # 800046ac <_ZN11ConsoleUtil5printEPKciS1_>
    ConsoleUtil::printString("Allocated status array:\n");
    80001280:	00008517          	auipc	a0,0x8
    80001284:	e1050513          	addi	a0,a0,-496 # 80009090 <CONSOLE_STATUS+0x80>
    80001288:	00003097          	auipc	ra,0x3
    8000128c:	304080e7          	jalr	772(ra) # 8000458c <_ZN11ConsoleUtil11printStringEPKc>
    for(uint64 i=0;i<slab->totalNumOfSlots;i++){
    80001290:	00000493          	li	s1,0
    80001294:	01893783          	ld	a5,24(s2)
    80001298:	02f4f863          	bgeu	s1,a5,800012c8 <_ZN13SlabAllocator9printSlabEPNS_4SlabE+0xf0>
        ConsoleUtil::print("", (uint8)slab->allocated[i], " ");
    8000129c:	02893783          	ld	a5,40(s2)
    800012a0:	009787b3          	add	a5,a5,s1
    800012a4:	00008617          	auipc	a2,0x8
    800012a8:	e1c60613          	addi	a2,a2,-484 # 800090c0 <CONSOLE_STATUS+0xb0>
    800012ac:	0007c583          	lbu	a1,0(a5)
    800012b0:	00008517          	auipc	a0,0x8
    800012b4:	f3050513          	addi	a0,a0,-208 # 800091e0 <CONSOLE_STATUS+0x1d0>
    800012b8:	00003097          	auipc	ra,0x3
    800012bc:	3f4080e7          	jalr	1012(ra) # 800046ac <_ZN11ConsoleUtil5printEPKciS1_>
    for(uint64 i=0;i<slab->totalNumOfSlots;i++){
    800012c0:	00148493          	addi	s1,s1,1
    800012c4:	fd1ff06f          	j	80001294 <_ZN13SlabAllocator9printSlabEPNS_4SlabE+0xbc>
    }
    ConsoleUtil::printString("\n");
    800012c8:	00008517          	auipc	a0,0x8
    800012cc:	ed850513          	addi	a0,a0,-296 # 800091a0 <CONSOLE_STATUS+0x190>
    800012d0:	00003097          	auipc	ra,0x3
    800012d4:	2bc080e7          	jalr	700(ra) # 8000458c <_ZN11ConsoleUtil11printStringEPKc>
}
    800012d8:	01813083          	ld	ra,24(sp)
    800012dc:	01013403          	ld	s0,16(sp)
    800012e0:	00813483          	ld	s1,8(sp)
    800012e4:	00013903          	ld	s2,0(sp)
    800012e8:	02010113          	addi	sp,sp,32
    800012ec:	00008067          	ret

00000000800012f0 <_ZN13SlabAllocator10printCacheEPNS_5CacheE>:

void SlabAllocator::printCache(Cache *cache) {
    800012f0:	fe010113          	addi	sp,sp,-32
    800012f4:	00113c23          	sd	ra,24(sp)
    800012f8:	00813823          	sd	s0,16(sp)
    800012fc:	00913423          	sd	s1,8(sp)
    80001300:	01213023          	sd	s2,0(sp)
    80001304:	02010413          	addi	s0,sp,32
    80001308:	00050913          	mv	s2,a0
    ConsoleUtil::print("HEAP_START_ADDR: ", (uint64)HEAP_START_ADDR, "\n");
    8000130c:	00008617          	auipc	a2,0x8
    80001310:	e9460613          	addi	a2,a2,-364 # 800091a0 <CONSOLE_STATUS+0x190>
    80001314:	0000a797          	auipc	a5,0xa
    80001318:	7947b783          	ld	a5,1940(a5) # 8000baa8 <_GLOBAL_OFFSET_TABLE_+0x18>
    8000131c:	0007a583          	lw	a1,0(a5)
    80001320:	00008517          	auipc	a0,0x8
    80001324:	d9050513          	addi	a0,a0,-624 # 800090b0 <CONSOLE_STATUS+0xa0>
    80001328:	00003097          	auipc	ra,0x3
    8000132c:	384080e7          	jalr	900(ra) # 800046ac <_ZN11ConsoleUtil5printEPKciS1_>
    ConsoleUtil::print("Cache address: ", (uint64)cache, "\n");
    80001330:	00008617          	auipc	a2,0x8
    80001334:	e7060613          	addi	a2,a2,-400 # 800091a0 <CONSOLE_STATUS+0x190>
    80001338:	0009059b          	sext.w	a1,s2
    8000133c:	00008517          	auipc	a0,0x8
    80001340:	d8c50513          	addi	a0,a0,-628 # 800090c8 <CONSOLE_STATUS+0xb8>
    80001344:	00003097          	auipc	ra,0x3
    80001348:	368080e7          	jalr	872(ra) # 800046ac <_ZN11ConsoleUtil5printEPKciS1_>
    ConsoleUtil::print("Empty head: ", (uint64)cache->emptyHead, "\n");
    8000134c:	00008617          	auipc	a2,0x8
    80001350:	e5460613          	addi	a2,a2,-428 # 800091a0 <CONSOLE_STATUS+0x190>
    80001354:	06092583          	lw	a1,96(s2)
    80001358:	00008517          	auipc	a0,0x8
    8000135c:	d8050513          	addi	a0,a0,-640 # 800090d8 <CONSOLE_STATUS+0xc8>
    80001360:	00003097          	auipc	ra,0x3
    80001364:	34c080e7          	jalr	844(ra) # 800046ac <_ZN11ConsoleUtil5printEPKciS1_>

    Slab* iter = cache->emptyHead;
    80001368:	06093483          	ld	s1,96(s2)
    while(iter){
    8000136c:	02048463          	beqz	s1,80001394 <_ZN13SlabAllocator10printCacheEPNS_5CacheE+0xa4>
        ConsoleUtil::print("", (uint64)iter, " ");
    80001370:	00008617          	auipc	a2,0x8
    80001374:	d5060613          	addi	a2,a2,-688 # 800090c0 <CONSOLE_STATUS+0xb0>
    80001378:	0004859b          	sext.w	a1,s1
    8000137c:	00008517          	auipc	a0,0x8
    80001380:	e6450513          	addi	a0,a0,-412 # 800091e0 <CONSOLE_STATUS+0x1d0>
    80001384:	00003097          	auipc	ra,0x3
    80001388:	328080e7          	jalr	808(ra) # 800046ac <_ZN11ConsoleUtil5printEPKciS1_>
        iter = iter->next;
    8000138c:	0084b483          	ld	s1,8(s1)
    while(iter){
    80001390:	fddff06f          	j	8000136c <_ZN13SlabAllocator10printCacheEPNS_5CacheE+0x7c>
    }
    ConsoleUtil::printString("\n");
    80001394:	00008517          	auipc	a0,0x8
    80001398:	e0c50513          	addi	a0,a0,-500 # 800091a0 <CONSOLE_STATUS+0x190>
    8000139c:	00003097          	auipc	ra,0x3
    800013a0:	1f0080e7          	jalr	496(ra) # 8000458c <_ZN11ConsoleUtil11printStringEPKc>

    ConsoleUtil::print("Partial head: ", (uint64)cache->partialHead, "\n");
    800013a4:	00008617          	auipc	a2,0x8
    800013a8:	dfc60613          	addi	a2,a2,-516 # 800091a0 <CONSOLE_STATUS+0x190>
    800013ac:	06892583          	lw	a1,104(s2)
    800013b0:	00008517          	auipc	a0,0x8
    800013b4:	d3850513          	addi	a0,a0,-712 # 800090e8 <CONSOLE_STATUS+0xd8>
    800013b8:	00003097          	auipc	ra,0x3
    800013bc:	2f4080e7          	jalr	756(ra) # 800046ac <_ZN11ConsoleUtil5printEPKciS1_>

    iter = cache->partialHead;
    800013c0:	06893483          	ld	s1,104(s2)
    while(iter){
    800013c4:	02048463          	beqz	s1,800013ec <_ZN13SlabAllocator10printCacheEPNS_5CacheE+0xfc>
        ConsoleUtil::print("", (uint64)iter, " ");
    800013c8:	00008617          	auipc	a2,0x8
    800013cc:	cf860613          	addi	a2,a2,-776 # 800090c0 <CONSOLE_STATUS+0xb0>
    800013d0:	0004859b          	sext.w	a1,s1
    800013d4:	00008517          	auipc	a0,0x8
    800013d8:	e0c50513          	addi	a0,a0,-500 # 800091e0 <CONSOLE_STATUS+0x1d0>
    800013dc:	00003097          	auipc	ra,0x3
    800013e0:	2d0080e7          	jalr	720(ra) # 800046ac <_ZN11ConsoleUtil5printEPKciS1_>
        iter = iter->next;
    800013e4:	0084b483          	ld	s1,8(s1)
    while(iter){
    800013e8:	fddff06f          	j	800013c4 <_ZN13SlabAllocator10printCacheEPNS_5CacheE+0xd4>
    }
    ConsoleUtil::printString("\n");
    800013ec:	00008517          	auipc	a0,0x8
    800013f0:	db450513          	addi	a0,a0,-588 # 800091a0 <CONSOLE_STATUS+0x190>
    800013f4:	00003097          	auipc	ra,0x3
    800013f8:	198080e7          	jalr	408(ra) # 8000458c <_ZN11ConsoleUtil11printStringEPKc>

    ConsoleUtil::print("Full head: ", (uint64)cache->fullHead, "\n");
    800013fc:	00008617          	auipc	a2,0x8
    80001400:	da460613          	addi	a2,a2,-604 # 800091a0 <CONSOLE_STATUS+0x190>
    80001404:	07092583          	lw	a1,112(s2)
    80001408:	00008517          	auipc	a0,0x8
    8000140c:	cf050513          	addi	a0,a0,-784 # 800090f8 <CONSOLE_STATUS+0xe8>
    80001410:	00003097          	auipc	ra,0x3
    80001414:	29c080e7          	jalr	668(ra) # 800046ac <_ZN11ConsoleUtil5printEPKciS1_>

    iter = cache->fullHead;
    80001418:	07093483          	ld	s1,112(s2)
    while(iter){
    8000141c:	02048463          	beqz	s1,80001444 <_ZN13SlabAllocator10printCacheEPNS_5CacheE+0x154>
        ConsoleUtil::print("", (uint64)iter, " ");
    80001420:	00008617          	auipc	a2,0x8
    80001424:	ca060613          	addi	a2,a2,-864 # 800090c0 <CONSOLE_STATUS+0xb0>
    80001428:	0004859b          	sext.w	a1,s1
    8000142c:	00008517          	auipc	a0,0x8
    80001430:	db450513          	addi	a0,a0,-588 # 800091e0 <CONSOLE_STATUS+0x1d0>
    80001434:	00003097          	auipc	ra,0x3
    80001438:	278080e7          	jalr	632(ra) # 800046ac <_ZN11ConsoleUtil5printEPKciS1_>
        iter = iter->next;
    8000143c:	0084b483          	ld	s1,8(s1)
    while(iter){
    80001440:	fddff06f          	j	8000141c <_ZN13SlabAllocator10printCacheEPNS_5CacheE+0x12c>
    }
    ConsoleUtil::printString("\n");
    80001444:	00008517          	auipc	a0,0x8
    80001448:	d5c50513          	addi	a0,a0,-676 # 800091a0 <CONSOLE_STATUS+0x190>
    8000144c:	00003097          	auipc	ra,0x3
    80001450:	140080e7          	jalr	320(ra) # 8000458c <_ZN11ConsoleUtil11printStringEPKc>

    ConsoleUtil::print("Object size: ", (uint64)cache->objectSize, "\n");
    80001454:	00008617          	auipc	a2,0x8
    80001458:	d4c60613          	addi	a2,a2,-692 # 800091a0 <CONSOLE_STATUS+0x190>
    8000145c:	04092583          	lw	a1,64(s2)
    80001460:	00008517          	auipc	a0,0x8
    80001464:	ca850513          	addi	a0,a0,-856 # 80009108 <CONSOLE_STATUS+0xf8>
    80001468:	00003097          	auipc	ra,0x3
    8000146c:	244080e7          	jalr	580(ra) # 800046ac <_ZN11ConsoleUtil5printEPKciS1_>
}
    80001470:	01813083          	ld	ra,24(sp)
    80001474:	01013403          	ld	s0,16(sp)
    80001478:	00813483          	ld	s1,8(sp)
    8000147c:	00013903          	ld	s2,0(sp)
    80001480:	02010113          	addi	sp,sp,32
    80001484:	00008067          	ret

0000000080001488 <_ZN13SlabAllocator14insertIntoListEPPNS_4SlabES1_>:

void SlabAllocator::insertIntoList(Slab **head, Slab *slab) {
    80001488:	ff010113          	addi	sp,sp,-16
    8000148c:	00813423          	sd	s0,8(sp)
    80001490:	01010413          	addi	s0,sp,16
    slab->next = *head;
    80001494:	00053783          	ld	a5,0(a0)
    80001498:	00f5b423          	sd	a5,8(a1)
    if(*head)
    8000149c:	00078463          	beqz	a5,800014a4 <_ZN13SlabAllocator14insertIntoListEPPNS_4SlabES1_+0x1c>
        (*head)->prev = slab;
    800014a0:	00b7b023          	sd	a1,0(a5)
    slab->prev = nullptr;
    800014a4:	0005b023          	sd	zero,0(a1)
    *head = slab;
    800014a8:	00b53023          	sd	a1,0(a0)
    800014ac:	00813403          	ld	s0,8(sp)
    800014b0:	01010113          	addi	sp,sp,16
    800014b4:	00008067          	ret

00000000800014b8 <_ZN13SlabAllocator12allocateSlabEPNS_5CacheE>:
void SlabAllocator::allocateSlab(Cache *cache) {
    800014b8:	fe010113          	addi	sp,sp,-32
    800014bc:	00113c23          	sd	ra,24(sp)
    800014c0:	00813823          	sd	s0,16(sp)
    800014c4:	00913423          	sd	s1,8(sp)
    800014c8:	01213023          	sd	s2,0(sp)
    800014cc:	02010413          	addi	s0,sp,32
    800014d0:	00050913          	mv	s2,a0
    Slab* slab = (Slab*)Buddy::alloc(cache->slabSize);
    800014d4:	04853503          	ld	a0,72(a0)
    800014d8:	00001097          	auipc	ra,0x1
    800014dc:	a00080e7          	jalr	-1536(ra) # 80001ed8 <_ZN5Buddy5allocEm>
    800014e0:	00050493          	mv	s1,a0
    SlabAllocator::insertIntoList(&cache->emptyHead, slab);
    800014e4:	00050593          	mv	a1,a0
    800014e8:	06090513          	addi	a0,s2,96
    800014ec:	00000097          	auipc	ra,0x0
    800014f0:	f9c080e7          	jalr	-100(ra) # 80001488 <_ZN13SlabAllocator14insertIntoListEPPNS_4SlabES1_>
    slab->objectSize = cache->objectSize;
    800014f4:	04093703          	ld	a4,64(s2)
    800014f8:	02e4b023          	sd	a4,32(s1)
    slab->totalNumOfSlots = slab->numOfFreeSlots = ((cache->slabSize << BLOCK_SIZE_BITS) - sizeof(Slab)) / cache->objectSize;
    800014fc:	04893783          	ld	a5,72(s2)
    80001500:	00c79793          	slli	a5,a5,0xc
    80001504:	fc878793          	addi	a5,a5,-56
    80001508:	02e7d7b3          	divu	a5,a5,a4
    8000150c:	00f4b823          	sd	a5,16(s1)
    80001510:	00f4bc23          	sd	a5,24(s1)
    slab->objectOffset = (void*)((uint64)slab + sizeof(Slab) + (slab->totalNumOfSlots>>3) + 1);
    80001514:	0037d793          	srli	a5,a5,0x3
    80001518:	009787b3          	add	a5,a5,s1
    8000151c:	03978793          	addi	a5,a5,57
    80001520:	02f4b823          	sd	a5,48(s1)
    slab->allocated = (bool*)((uint64)slab + sizeof(Slab));
    80001524:	03848793          	addi	a5,s1,56
    80001528:	02f4b423          	sd	a5,40(s1)
    for(uint64 i=0;i<slab->totalNumOfSlots;i++)
    8000152c:	00000793          	li	a5,0
    80001530:	0184b703          	ld	a4,24(s1)
    80001534:	00e7fc63          	bgeu	a5,a4,8000154c <_ZN13SlabAllocator12allocateSlabEPNS_5CacheE+0x94>
        slab->allocated[i] = false;
    80001538:	0284b703          	ld	a4,40(s1)
    8000153c:	00f70733          	add	a4,a4,a5
    80001540:	00070023          	sb	zero,0(a4)
    for(uint64 i=0;i<slab->totalNumOfSlots;i++)
    80001544:	00178793          	addi	a5,a5,1
    80001548:	fe9ff06f          	j	80001530 <_ZN13SlabAllocator12allocateSlabEPNS_5CacheE+0x78>
}
    8000154c:	01813083          	ld	ra,24(sp)
    80001550:	01013403          	ld	s0,16(sp)
    80001554:	00813483          	ld	s1,8(sp)
    80001558:	00013903          	ld	s2,0(sp)
    8000155c:	02010113          	addi	sp,sp,32
    80001560:	00008067          	ret

0000000080001564 <_ZN13SlabAllocator10initializeEPvm>:
void SlabAllocator::initialize(void* space, uint64 blockNum) {
    80001564:	fe010113          	addi	sp,sp,-32
    80001568:	00113c23          	sd	ra,24(sp)
    8000156c:	00813823          	sd	s0,16(sp)
    80001570:	00913423          	sd	s1,8(sp)
    80001574:	01213023          	sd	s2,0(sp)
    80001578:	02010413          	addi	s0,sp,32
    8000157c:	00050913          	mv	s2,a0
    80001580:	00058493          	mv	s1,a1
    Buddy::initialize(space, blockNum);
    80001584:	00000097          	auipc	ra,0x0
    80001588:	59c080e7          	jalr	1436(ra) # 80001b20 <_ZN5Buddy10initializeEPvm>
    startAddr = space;
    8000158c:	0000a797          	auipc	a5,0xa
    80001590:	60478793          	addi	a5,a5,1540 # 8000bb90 <_ZN13SlabAllocator9startAddrE>
    80001594:	0127b023          	sd	s2,0(a5)
    blocksResponsibleFor = blockNum;
    80001598:	0097b423          	sd	s1,8(a5)
    cache = (Cache*)SLAB_META_ADDR_CONST;
    8000159c:	0000a717          	auipc	a4,0xa
    800015a0:	50c73703          	ld	a4,1292(a4) # 8000baa8 <_GLOBAL_OFFSET_TABLE_+0x18>
    800015a4:	00073503          	ld	a0,0(a4)
    800015a8:	00c55513          	srli	a0,a0,0xc
    800015ac:	00150513          	addi	a0,a0,1
    800015b0:	00c51513          	slli	a0,a0,0xc
    800015b4:	00a7b823          	sd	a0,16(a5)
    cache->ctor = nullptr;
    800015b8:	04053823          	sd	zero,80(a0)
    cache->dtor = nullptr;
    800015bc:	04053c23          	sd	zero,88(a0)
    cache->emptyHead = nullptr;
    800015c0:	06053023          	sd	zero,96(a0)
    cache->partialHead = nullptr;
    800015c4:	06053423          	sd	zero,104(a0)
    cache->fullHead = nullptr;
    800015c8:	06053823          	sd	zero,112(a0)
    cache->objectSize = sizeof(Cache);
    800015cc:	07800793          	li	a5,120
    800015d0:	04f53023          	sd	a5,64(a0)
    cache->slabSize = DEFAULT_SLAB_SIZE;
    800015d4:	00200793          	li	a5,2
    800015d8:	04f53423          	sd	a5,72(a0)
    allocateSlab(cache);
    800015dc:	00000097          	auipc	ra,0x0
    800015e0:	edc080e7          	jalr	-292(ra) # 800014b8 <_ZN13SlabAllocator12allocateSlabEPNS_5CacheE>
}
    800015e4:	01813083          	ld	ra,24(sp)
    800015e8:	01013403          	ld	s0,16(sp)
    800015ec:	00813483          	ld	s1,8(sp)
    800015f0:	00013903          	ld	s2,0(sp)
    800015f4:	02010113          	addi	sp,sp,32
    800015f8:	00008067          	ret

00000000800015fc <_Z9mem_allocm>:
//syscall parameters (if has any) are put into registers a1-a7
//syscall ID is put into a0
//"ecall" is called to jump into supervisor mode trap handler
//return value for syscall is returned by a0 register

void *mem_alloc(size_t size){
    800015fc:	ff010113          	addi	sp,sp,-16
    80001600:	00813423          	sd	s0,8(sp)
    80001604:	01010413          	addi	s0,sp,16
    size_t sz = (size + MEM_BLOCK_SIZE -1) / MEM_BLOCK_SIZE;
    80001608:	03f50513          	addi	a0,a0,63
    8000160c:	00655513          	srli	a0,a0,0x6

    asm("mv a1, %[sz]" : : [sz] "r" (sz));  //put number of blocks required in a1
    80001610:	00050593          	mv	a1,a0
    asm("li a0, 0x01");  //put number of syscall in a0
    80001614:	00100513          	li	a0,1
    asm("ecall");
    80001618:	00000073          	ecall

    uint64 addr = 0;    //return address of block allocated

    asm("mv %[addr], a0" : [addr] "=r" (addr));
    8000161c:	00050513          	mv	a0,a0

    return (void*)addr;
}
    80001620:	00813403          	ld	s0,8(sp)
    80001624:	01010113          	addi	sp,sp,16
    80001628:	00008067          	ret

000000008000162c <_Z8mem_freePv>:

int mem_free(void *ptr){
    8000162c:	ff010113          	addi	sp,sp,-16
    80001630:	00813423          	sd	s0,8(sp)
    80001634:	01010413          	addi	s0,sp,16
    uint64 iptr = (uint64)ptr;

    asm("mv a1, %[iptr]" : : [iptr] "r" (iptr));  //put address in a1
    80001638:	00050593          	mv	a1,a0
    asm("li a0, 0x02");  //put number of syscall in a0
    8000163c:	00200513          	li	a0,2
    asm("ecall");
    80001640:	00000073          	ecall

    uint64 status; //return status of mem_free

    asm("mv %[status], a0" : [status] "=r" (status));
    80001644:	00050513          	mv	a0,a0
    return status;
}
    80001648:	0005051b          	sext.w	a0,a0
    8000164c:	00813403          	ld	s0,8(sp)
    80001650:	01010113          	addi	sp,sp,16
    80001654:	00008067          	ret

0000000080001658 <_Z13thread_createPP7_threadPFvPvES2_>:

int thread_create(thread_t* handle, void(*start_routine)(void*), void *arg){
    80001658:	fd010113          	addi	sp,sp,-48
    8000165c:	02113423          	sd	ra,40(sp)
    80001660:	02813023          	sd	s0,32(sp)
    80001664:	00913c23          	sd	s1,24(sp)
    80001668:	01213823          	sd	s2,16(sp)
    8000166c:	01313423          	sd	s3,8(sp)
    80001670:	03010413          	addi	s0,sp,48
    80001674:	00050913          	mv	s2,a0
    80001678:	00058493          	mv	s1,a1
    8000167c:	00060993          	mv	s3,a2
    uint64 ihandle = (uint64)handle;
    uint64 iroutine = (uint64)start_routine;
    uint64 iarg = (uint64)arg;
    uint64 istack = 0;

    if(start_routine)
    80001680:	04058663          	beqz	a1,800016cc <_Z13thread_createPP7_threadPFvPvES2_+0x74>
        istack = (uint64) mem_alloc(DEFAULT_STACK_SIZE);
    80001684:	00001537          	lui	a0,0x1
    80001688:	00000097          	auipc	ra,0x0
    8000168c:	f74080e7          	jalr	-140(ra) # 800015fc <_Z9mem_allocm>

    asm("mv a7, %[istack]" : : [istack] "r" (istack));
    80001690:	00050893          	mv	a7,a0
    asm("mv a3, %[iarg]" : : [iarg] "r" (iarg));
    80001694:	00098693          	mv	a3,s3
    asm("mv a2, %[iroutine]" : : [iroutine] "r" (iroutine));
    80001698:	00048613          	mv	a2,s1
    asm("mv a1, %[ihandle]" : : [ihandle] "r" (ihandle));
    8000169c:	00090593          	mv	a1,s2
    asm("li a0, 0x11");
    800016a0:	01100513          	li	a0,17

    asm("ecall");
    800016a4:	00000073          	ecall

    uint64 status;

    asm("mv %[status], a0" : [status] "=r" (status));
    800016a8:	00050513          	mv	a0,a0

    return status;
}
    800016ac:	0005051b          	sext.w	a0,a0
    800016b0:	02813083          	ld	ra,40(sp)
    800016b4:	02013403          	ld	s0,32(sp)
    800016b8:	01813483          	ld	s1,24(sp)
    800016bc:	01013903          	ld	s2,16(sp)
    800016c0:	00813983          	ld	s3,8(sp)
    800016c4:	03010113          	addi	sp,sp,48
    800016c8:	00008067          	ret
    uint64 istack = 0;
    800016cc:	00000513          	li	a0,0
    800016d0:	fc1ff06f          	j	80001690 <_Z13thread_createPP7_threadPFvPvES2_+0x38>

00000000800016d4 <_Z11thread_exitv>:

int thread_exit(){
    800016d4:	ff010113          	addi	sp,sp,-16
    800016d8:	00813423          	sd	s0,8(sp)
    800016dc:	01010413          	addi	s0,sp,16
    asm("li a0, 0x12");
    800016e0:	01200513          	li	a0,18

    asm("ecall");
    800016e4:	00000073          	ecall

    uint64 status;

    asm("mv %[status], a0" : [status] "=r" (status));
    800016e8:	00050513          	mv	a0,a0

    return status;
}
    800016ec:	0005051b          	sext.w	a0,a0
    800016f0:	00813403          	ld	s0,8(sp)
    800016f4:	01010113          	addi	sp,sp,16
    800016f8:	00008067          	ret

00000000800016fc <_Z15thread_dispatchv>:

void thread_dispatch(){
    800016fc:	ff010113          	addi	sp,sp,-16
    80001700:	00813423          	sd	s0,8(sp)
    80001704:	01010413          	addi	s0,sp,16
    asm("li a0, 0x13");
    80001708:	01300513          	li	a0,19

    asm("ecall");
    8000170c:	00000073          	ecall
}
    80001710:	00813403          	ld	s0,8(sp)
    80001714:	01010113          	addi	sp,sp,16
    80001718:	00008067          	ret

000000008000171c <_Z18thread_attach_bodyPP7_threadPFvPvES2_>:

int thread_attach_body(thread_t *handle, void(*start_routine)(void*), void *arg){
    8000171c:	fd010113          	addi	sp,sp,-48
    80001720:	02113423          	sd	ra,40(sp)
    80001724:	02813023          	sd	s0,32(sp)
    80001728:	00913c23          	sd	s1,24(sp)
    8000172c:	01213823          	sd	s2,16(sp)
    80001730:	01313423          	sd	s3,8(sp)
    80001734:	03010413          	addi	s0,sp,48
    80001738:	00050913          	mv	s2,a0
    8000173c:	00058493          	mv	s1,a1
    80001740:	00060993          	mv	s3,a2
    uint64 ihandle = (uint64)handle;
    uint64 iroutine = (uint64)start_routine;
    uint64 iarg = (uint64)arg;
    uint64 istack = 0;

    if(start_routine)
    80001744:	04058663          	beqz	a1,80001790 <_Z18thread_attach_bodyPP7_threadPFvPvES2_+0x74>
        istack = (uint64) mem_alloc(DEFAULT_STACK_SIZE);
    80001748:	00001537          	lui	a0,0x1
    8000174c:	00000097          	auipc	ra,0x0
    80001750:	eb0080e7          	jalr	-336(ra) # 800015fc <_Z9mem_allocm>

    asm("mv a7, %[istack]" : : [istack] "r" (istack));
    80001754:	00050893          	mv	a7,a0
    asm("mv a3, %[iarg]" : : [iarg] "r" (iarg));
    80001758:	00098693          	mv	a3,s3
    asm("mv a2, %[iroutine]" : : [iroutine] "r" (iroutine));
    8000175c:	00048613          	mv	a2,s1
    asm("mv a1, %[ihandle]" : : [ihandle] "r" (ihandle));
    80001760:	00090593          	mv	a1,s2
    asm("li a0, 0x14");
    80001764:	01400513          	li	a0,20

    asm("ecall");
    80001768:	00000073          	ecall

    uint64 status;

    asm("mv %[status], a0" : [status] "=r" (status));
    8000176c:	00050513          	mv	a0,a0

    return status;
}
    80001770:	0005051b          	sext.w	a0,a0
    80001774:	02813083          	ld	ra,40(sp)
    80001778:	02013403          	ld	s0,32(sp)
    8000177c:	01813483          	ld	s1,24(sp)
    80001780:	01013903          	ld	s2,16(sp)
    80001784:	00813983          	ld	s3,8(sp)
    80001788:	03010113          	addi	sp,sp,48
    8000178c:	00008067          	ret
    uint64 istack = 0;
    80001790:	00000513          	li	a0,0
    80001794:	fc1ff06f          	j	80001754 <_Z18thread_attach_bodyPP7_threadPFvPvES2_+0x38>

0000000080001798 <_Z12thread_startP7_thread>:

int thread_start(thread_t handle){
    80001798:	ff010113          	addi	sp,sp,-16
    8000179c:	00813423          	sd	s0,8(sp)
    800017a0:	01010413          	addi	s0,sp,16
    uint64 ihandle = (uint64)handle;

    asm("mv a1, %[ihandle]" : : [ihandle] "r" (ihandle));
    800017a4:	00050593          	mv	a1,a0
    asm("li a0, 0x15");
    800017a8:	01500513          	li	a0,21

    asm("ecall");
    800017ac:	00000073          	ecall

    uint64 status;

    asm("mv %[status], a0" : [status] "=r" (status));
    800017b0:	00050513          	mv	a0,a0

    return status;
}
    800017b4:	0005051b          	sext.w	a0,a0
    800017b8:	00813403          	ld	s0,8(sp)
    800017bc:	01010113          	addi	sp,sp,16
    800017c0:	00008067          	ret

00000000800017c4 <_Z8sem_openPP10_semaphorej>:

int sem_open(sem_t *handle, unsigned init){
    800017c4:	ff010113          	addi	sp,sp,-16
    800017c8:	00813423          	sd	s0,8(sp)
    800017cc:	01010413          	addi	s0,sp,16

    uint64 ihandle = (uint64)handle;
    uint64 iinit = (uint64)init;
    800017d0:	02059593          	slli	a1,a1,0x20
    800017d4:	0205d593          	srli	a1,a1,0x20

    asm("mv a2, %[iinit]" : : [iinit] "r" (iinit));
    800017d8:	00058613          	mv	a2,a1
    asm("mv a1, %[ihandle]" : : [ihandle] "r" (ihandle));
    800017dc:	00050593          	mv	a1,a0
    asm("li a0, 0x21");
    800017e0:	02100513          	li	a0,33


    asm("ecall");
    800017e4:	00000073          	ecall

    uint64 status;

    asm("mv %[status], a0" : [status] "=r" (status));
    800017e8:	00050513          	mv	a0,a0

    return status;

}
    800017ec:	0005051b          	sext.w	a0,a0
    800017f0:	00813403          	ld	s0,8(sp)
    800017f4:	01010113          	addi	sp,sp,16
    800017f8:	00008067          	ret

00000000800017fc <_Z9sem_closeP10_semaphore>:

int sem_close(sem_t handle){
    800017fc:	ff010113          	addi	sp,sp,-16
    80001800:	00813423          	sd	s0,8(sp)
    80001804:	01010413          	addi	s0,sp,16

    uint64 ihandle = (uint64)handle;

    asm("mv a1, %[ihandle]" : : [ihandle] "r" (ihandle));
    80001808:	00050593          	mv	a1,a0
    asm("li a0, 0x22");
    8000180c:	02200513          	li	a0,34


    asm("ecall");
    80001810:	00000073          	ecall

    uint64 status;

    asm("mv %[status], a0" : [status] "=r" (status));
    80001814:	00050513          	mv	a0,a0

    return status;
}
    80001818:	0005051b          	sext.w	a0,a0
    8000181c:	00813403          	ld	s0,8(sp)
    80001820:	01010113          	addi	sp,sp,16
    80001824:	00008067          	ret

0000000080001828 <_Z8sem_waitP10_semaphore>:

int sem_wait(sem_t handle){
    80001828:	ff010113          	addi	sp,sp,-16
    8000182c:	00813423          	sd	s0,8(sp)
    80001830:	01010413          	addi	s0,sp,16
    uint64 ihandle = (uint64)handle;

    asm("mv a1, %[ihandle]" : : [ihandle] "r" (ihandle));
    80001834:	00050593          	mv	a1,a0
    asm("li a0, 0x23");
    80001838:	02300513          	li	a0,35


    asm("ecall");
    8000183c:	00000073          	ecall

    uint64 status;

    asm("mv %[status], a0" : [status] "=r" (status));
    80001840:	00050513          	mv	a0,a0

    return status;
}
    80001844:	0005051b          	sext.w	a0,a0
    80001848:	00813403          	ld	s0,8(sp)
    8000184c:	01010113          	addi	sp,sp,16
    80001850:	00008067          	ret

0000000080001854 <_Z10sem_signalP10_semaphore>:

int sem_signal(sem_t handle){
    80001854:	ff010113          	addi	sp,sp,-16
    80001858:	00813423          	sd	s0,8(sp)
    8000185c:	01010413          	addi	s0,sp,16
    uint64 ihandle = (uint64)handle;

    asm("mv a1, %[ihandle]" : : [ihandle] "r" (ihandle));
    80001860:	00050593          	mv	a1,a0
    asm("li a0, 0x24");
    80001864:	02400513          	li	a0,36


    asm("ecall");
    80001868:	00000073          	ecall

    uint64 status;

    asm("mv %[status], a0" : [status] "=r" (status));
    8000186c:	00050513          	mv	a0,a0

    return status;
}
    80001870:	0005051b          	sext.w	a0,a0
    80001874:	00813403          	ld	s0,8(sp)
    80001878:	01010113          	addi	sp,sp,16
    8000187c:	00008067          	ret

0000000080001880 <_Z10time_sleepm>:

int time_sleep(time_t time){
    80001880:	ff010113          	addi	sp,sp,-16
    80001884:	00813423          	sd	s0,8(sp)
    80001888:	01010413          	addi	s0,sp,16
    uint64 itime = (uint64)time;

    asm("mv a1, %[itime]" : : [itime] "r" (itime));
    8000188c:	00050593          	mv	a1,a0
    asm("li a0, 0x31");
    80001890:	03100513          	li	a0,49


    asm("ecall");
    80001894:	00000073          	ecall

    uint64 status;

    asm("mv %[status], a0" : [status] "=r" (status));
    80001898:	00050513          	mv	a0,a0

    return status;
}
    8000189c:	0005051b          	sext.w	a0,a0
    800018a0:	00813403          	ld	s0,8(sp)
    800018a4:	01010113          	addi	sp,sp,16
    800018a8:	00008067          	ret

00000000800018ac <_Z4getcv>:

char getc(){
    800018ac:	ff010113          	addi	sp,sp,-16
    800018b0:	00813423          	sd	s0,8(sp)
    800018b4:	01010413          	addi	s0,sp,16
    asm("li a0, 0x41");
    800018b8:	04100513          	li	a0,65

    asm("ecall");
    800018bc:	00000073          	ecall

    char c;

    asm("mv %[c], a0" : [c] "=r" (c));
    800018c0:	00050513          	mv	a0,a0

    return c;
}
    800018c4:	0ff57513          	andi	a0,a0,255
    800018c8:	00813403          	ld	s0,8(sp)
    800018cc:	01010113          	addi	sp,sp,16
    800018d0:	00008067          	ret

00000000800018d4 <_Z4putcc>:

void putc(char c){
    800018d4:	ff010113          	addi	sp,sp,-16
    800018d8:	00813423          	sd	s0,8(sp)
    800018dc:	01010413          	addi	s0,sp,16
    asm("mv a1, %[c]" : : [c] "r" ((uint64)c));
    800018e0:	00050593          	mv	a1,a0

    asm("li a0, 0x42");
    800018e4:	04200513          	li	a0,66

    asm("ecall");
    800018e8:	00000073          	ecall
}
    800018ec:	00813403          	ld	s0,8(sp)
    800018f0:	01010113          	addi	sp,sp,16
    800018f4:	00008067          	ret

00000000800018f8 <_Z4forkv>:


int fork(){
    800018f8:	ff010113          	addi	sp,sp,-16
    800018fc:	00813423          	sd	s0,8(sp)
    80001900:	01010413          	addi	s0,sp,16
    asm("li a0, 0x61");
    80001904:	06100513          	li	a0,97

    asm("ecall");
    80001908:	00000073          	ecall

    uint64 status;

    asm("mv %[status], a0" : [status] "=r" (status));
    8000190c:	00050513          	mv	a0,a0

    return status;
}
    80001910:	0005051b          	sext.w	a0,a0
    80001914:	00813403          	ld	s0,8(sp)
    80001918:	01010113          	addi	sp,sp,16
    8000191c:	00008067          	ret

0000000080001920 <_ZN10_semaphoredlEPv>:
#include "../h/_semaphore.hpp"
#include "../h/printing.hpp"

//operator delete will now call sem_close instead of just deallocating the space
//sem_close will take care of any remaining threads that are blocked and release allocated memory
void _semaphore::operator delete(void *addr){
    80001920:	ff010113          	addi	sp,sp,-16
    80001924:	00113423          	sd	ra,8(sp)
    80001928:	00813023          	sd	s0,0(sp)
    8000192c:	01010413          	addi	s0,sp,16
    sem_close((sem_t)addr);
    80001930:	00000097          	auipc	ra,0x0
    80001934:	ecc080e7          	jalr	-308(ra) # 800017fc <_Z9sem_closeP10_semaphore>
}
    80001938:	00813083          	ld	ra,8(sp)
    8000193c:	00013403          	ld	s0,0(sp)
    80001940:	01010113          	addi	sp,sp,16
    80001944:	00008067          	ret

0000000080001948 <_ZN7_threaddlEPv>:

#include "../h/_thread.hpp"
#include "../h/tcb.hpp"

//operator delete will now call thread_free to safely release all allocated memory
void _thread::operator delete(void *addr){
    80001948:	ff010113          	addi	sp,sp,-16
    8000194c:	00113423          	sd	ra,8(sp)
    80001950:	00813023          	sd	s0,0(sp)
    80001954:	01010413          	addi	s0,sp,16
    TCB::thread_free(addr);
    80001958:	00001097          	auipc	ra,0x1
    8000195c:	ee4080e7          	jalr	-284(ra) # 8000283c <_ZN3TCB11thread_freeEPv>
    80001960:	00813083          	ld	ra,8(sp)
    80001964:	00013403          	ld	s0,0(sp)
    80001968:	01010113          	addi	sp,sp,16
    8000196c:	00008067          	ret

0000000080001970 <_ZN6System15userMainWrapperEPv>:
        RiscV::finalize();
    }
}

//wrapper function for userMain as per POSIX threads
void System::userMainWrapper(void *arg){
    80001970:	ff010113          	addi	sp,sp,-16
    80001974:	00113423          	sd	ra,8(sp)
    80001978:	00813023          	sd	s0,0(sp)
    8000197c:	01010413          	addi	s0,sp,16
//    else {
//        printString("otac\n");
//        thread_dispatch();
//    }
//    MemoryAllocator::showMemory();
    userMain();
    80001980:	00004097          	auipc	ra,0x4
    80001984:	3bc080e7          	jalr	956(ra) # 80005d3c <_Z8userMainv>
    80001988:	00813083          	ld	ra,8(sp)
    8000198c:	00013403          	ld	s0,0(sp)
    80001990:	01010113          	addi	sp,sp,16
    80001994:	00008067          	ret

0000000080001998 <_ZN6SystemC1Ev>:
    if (!initialized) {
    80001998:	0000a797          	auipc	a5,0xa
    8000199c:	2787c783          	lbu	a5,632(a5) # 8000bc10 <_ZN6System11initializedE>
    800019a0:	00078463          	beqz	a5,800019a8 <_ZN6SystemC1Ev+0x10>
    800019a4:	00008067          	ret
System::System() {
    800019a8:	fc010113          	addi	sp,sp,-64
    800019ac:	02113c23          	sd	ra,56(sp)
    800019b0:	02813823          	sd	s0,48(sp)
    800019b4:	02913423          	sd	s1,40(sp)
    800019b8:	03213023          	sd	s2,32(sp)
    800019bc:	01313c23          	sd	s3,24(sp)
    800019c0:	04010413          	addi	s0,sp,64
        initialized = true;
    800019c4:	00100793          	li	a5,1
    800019c8:	0000a717          	auipc	a4,0xa
    800019cc:	24f70423          	sb	a5,584(a4) # 8000bc10 <_ZN6System11initializedE>
        RiscV::initialize();
    800019d0:	00002097          	auipc	ra,0x2
    800019d4:	808080e7          	jalr	-2040(ra) # 800031d8 <_ZN5RiscV10initializeEv>
        SlabAllocator::Cache *cache = SlabAllocator::cache;
    800019d8:	0000a497          	auipc	s1,0xa
    800019dc:	1084b483          	ld	s1,264(s1) # 8000bae0 <_GLOBAL_OFFSET_TABLE_+0x50>
    800019e0:	0004b903          	ld	s2,0(s1)
        SlabAllocator::printCache(cache);
    800019e4:	00090513          	mv	a0,s2
    800019e8:	00000097          	auipc	ra,0x0
    800019ec:	908080e7          	jalr	-1784(ra) # 800012f0 <_ZN13SlabAllocator10printCacheEPNS_5CacheE>
        SlabAllocator::Slab *slab = cache->emptyHead;
    800019f0:	06093983          	ld	s3,96(s2)
        SlabAllocator::printSlab(SlabAllocator::cache->emptyHead);
    800019f4:	0004b783          	ld	a5,0(s1)
    800019f8:	0607b503          	ld	a0,96(a5)
    800019fc:	fffff097          	auipc	ra,0xfffff
    80001a00:	7dc080e7          	jalr	2012(ra) # 800011d8 <_ZN13SlabAllocator9printSlabEPNS_4SlabE>
        void* all1 = SlabAllocator::allocateSlot(slab);
    80001a04:	00098513          	mv	a0,s3
    80001a08:	fffff097          	auipc	ra,0xfffff
    80001a0c:	74c080e7          	jalr	1868(ra) # 80001154 <_ZN13SlabAllocator12allocateSlotEPNS_4SlabE>
    80001a10:	00050913          	mv	s2,a0
        void* all2 = SlabAllocator::allocateSlot(slab);
    80001a14:	00098513          	mv	a0,s3
    80001a18:	fffff097          	auipc	ra,0xfffff
    80001a1c:	73c080e7          	jalr	1852(ra) # 80001154 <_ZN13SlabAllocator12allocateSlotEPNS_4SlabE>
    80001a20:	00050493          	mv	s1,a0
        SlabAllocator::printSlab(slab);
    80001a24:	00098513          	mv	a0,s3
    80001a28:	fffff097          	auipc	ra,0xfffff
    80001a2c:	7b0080e7          	jalr	1968(ra) # 800011d8 <_ZN13SlabAllocator9printSlabEPNS_4SlabE>
        ConsoleUtil::print("",(uint64)all1,"\n");
    80001a30:	00007617          	auipc	a2,0x7
    80001a34:	77060613          	addi	a2,a2,1904 # 800091a0 <CONSOLE_STATUS+0x190>
    80001a38:	0009059b          	sext.w	a1,s2
    80001a3c:	00007517          	auipc	a0,0x7
    80001a40:	7a450513          	addi	a0,a0,1956 # 800091e0 <CONSOLE_STATUS+0x1d0>
    80001a44:	00003097          	auipc	ra,0x3
    80001a48:	c68080e7          	jalr	-920(ra) # 800046ac <_ZN11ConsoleUtil5printEPKciS1_>
        ConsoleUtil::print("",(uint64)all2,"\n");
    80001a4c:	00007617          	auipc	a2,0x7
    80001a50:	75460613          	addi	a2,a2,1876 # 800091a0 <CONSOLE_STATUS+0x190>
    80001a54:	0004859b          	sext.w	a1,s1
    80001a58:	00007517          	auipc	a0,0x7
    80001a5c:	78850513          	addi	a0,a0,1928 # 800091e0 <CONSOLE_STATUS+0x1d0>
    80001a60:	00003097          	auipc	ra,0x3
    80001a64:	c4c080e7          	jalr	-948(ra) # 800046ac <_ZN11ConsoleUtil5printEPKciS1_>
        thread_create(&userMainThread, userMainWrapper, nullptr);
    80001a68:	00000613          	li	a2,0
    80001a6c:	00000597          	auipc	a1,0x0
    80001a70:	f0458593          	addi	a1,a1,-252 # 80001970 <_ZN6System15userMainWrapperEPv>
    80001a74:	fc840513          	addi	a0,s0,-56
    80001a78:	00000097          	auipc	ra,0x0
    80001a7c:	be0080e7          	jalr	-1056(ra) # 80001658 <_Z13thread_createPP7_threadPFvPvES2_>
        while (( (TCB*)userMainThread)->status != TCB::Status::FINISHED) {
    80001a80:	fc843783          	ld	a5,-56(s0)
    80001a84:	0107a703          	lw	a4,16(a5)
    80001a88:	00200793          	li	a5,2
    80001a8c:	00f70863          	beq	a4,a5,80001a9c <_ZN6SystemC1Ev+0x104>
            thread_dispatch();
    80001a90:	00000097          	auipc	ra,0x0
    80001a94:	c6c080e7          	jalr	-916(ra) # 800016fc <_Z15thread_dispatchv>
    80001a98:	fe9ff06f          	j	80001a80 <_ZN6SystemC1Ev+0xe8>
        RiscV::finalize();
    80001a9c:	00002097          	auipc	ra,0x2
    80001aa0:	938080e7          	jalr	-1736(ra) # 800033d4 <_ZN5RiscV8finalizeEv>
}
    80001aa4:	03813083          	ld	ra,56(sp)
    80001aa8:	03013403          	ld	s0,48(sp)
    80001aac:	02813483          	ld	s1,40(sp)
    80001ab0:	02013903          	ld	s2,32(sp)
    80001ab4:	01813983          	ld	s3,24(sp)
    80001ab8:	04010113          	addi	sp,sp,64
    80001abc:	00008067          	ret

0000000080001ac0 <_Z41__static_initialization_and_destruction_0ii>:
            ConsoleUtil::printString(" ");
            tmp = tmp->next;
        }
        ConsoleUtil::printString("\n");
    }
    80001ac0:	ff010113          	addi	sp,sp,-16
    80001ac4:	00813423          	sd	s0,8(sp)
    80001ac8:	01010413          	addi	s0,sp,16
    80001acc:	00100793          	li	a5,1
    80001ad0:	00f50863          	beq	a0,a5,80001ae0 <_Z41__static_initialization_and_destruction_0ii+0x20>
    80001ad4:	00813403          	ld	s0,8(sp)
    80001ad8:	01010113          	addi	sp,sp,16
    80001adc:	00008067          	ret
    80001ae0:	000107b7          	lui	a5,0x10
    80001ae4:	fff78793          	addi	a5,a5,-1 # ffff <_entry-0x7fff0001>
    80001ae8:	fef596e3          	bne	a1,a5,80001ad4 <_Z41__static_initialization_and_destruction_0ii+0x14>
void* Buddy::BUDDY_START_ADDR = BUDDY_START_ADDR_CONST;
    80001aec:	0000a797          	auipc	a5,0xa
    80001af0:	fbc7b783          	ld	a5,-68(a5) # 8000baa8 <_GLOBAL_OFFSET_TABLE_+0x18>
    80001af4:	0007b703          	ld	a4,0(a5)
    80001af8:	00c75793          	srli	a5,a4,0xc
    80001afc:	00278793          	addi	a5,a5,2
    80001b00:	00c79793          	slli	a5,a5,0xc
    80001b04:	0000a697          	auipc	a3,0xa
    80001b08:	11468693          	addi	a3,a3,276 # 8000bc18 <_ZN5Buddy16BUDDY_START_ADDRE>
    80001b0c:	00f6b023          	sd	a5,0(a3)
void* Buddy::BUDDY_META_DATA_ADDR = BUDDY_META_ADDR_CONST;
    80001b10:	fffff7b7          	lui	a5,0xfffff
    80001b14:	00f77733          	and	a4,a4,a5
    80001b18:	00e6b423          	sd	a4,8(a3)
    80001b1c:	fb9ff06f          	j	80001ad4 <_Z41__static_initialization_and_destruction_0ii+0x14>

0000000080001b20 <_ZN5Buddy10initializeEPvm>:
void Buddy::initialize(void* addr, uint64 block_num){
    80001b20:	ff010113          	addi	sp,sp,-16
    80001b24:	00813423          	sd	s0,8(sp)
    80001b28:	01010413          	addi	s0,sp,16
    Buddy::BUDDY_START_ADDR = addr;
    80001b2c:	0000a717          	auipc	a4,0xa
    80001b30:	0ec70713          	addi	a4,a4,236 # 8000bc18 <_ZN5Buddy16BUDDY_START_ADDRE>
    80001b34:	00a73023          	sd	a0,0(a4)
    Buddy::BUDDY_META_DATA_ADDR = BUDDY_META_ADDR_CONST;
    80001b38:	0000a797          	auipc	a5,0xa
    80001b3c:	f707b783          	ld	a5,-144(a5) # 8000baa8 <_GLOBAL_OFFSET_TABLE_+0x18>
    80001b40:	0007b783          	ld	a5,0(a5)
    80001b44:	fffff6b7          	lui	a3,0xfffff
    80001b48:	00d7f7b3          	and	a5,a5,a3
    80001b4c:	00f73423          	sd	a5,8(a4)
    Buddy::BLOCKS_AVAILABLE = block_num;
    80001b50:	0000a797          	auipc	a5,0xa
    80001b54:	dab7b823          	sd	a1,-592(a5) # 8000b900 <_ZN5Buddy16BLOCKS_AVAILABLEE>
    80001b58:	00058793          	mv	a5,a1
        num |= num>>32;
        return ++num;
    }

    static inline uint64 getDeg(uint64 num){
        uint64 deg = 0;
    80001b5c:	00000713          	li	a4,0
        while(num>1){
    80001b60:	00100693          	li	a3,1
    80001b64:	00f6f863          	bgeu	a3,a5,80001b74 <_ZN5Buddy10initializeEPvm+0x54>
            num/=2;
    80001b68:	0017d793          	srli	a5,a5,0x1
            deg++;
    80001b6c:	00170713          	addi	a4,a4,1
        while(num>1){
    80001b70:	ff1ff06f          	j	80001b60 <_ZN5Buddy10initializeEPvm+0x40>
    head[getDeg(block_num)] = tail[getDeg(block_num)] = (Block*)BUDDY_START_ADDR;
    80001b74:	00371713          	slli	a4,a4,0x3
    80001b78:	0000a797          	auipc	a5,0xa
    80001b7c:	0a078793          	addi	a5,a5,160 # 8000bc18 <_ZN5Buddy16BUDDY_START_ADDRE>
    80001b80:	00e78733          	add	a4,a5,a4
    80001b84:	00a73823          	sd	a0,16(a4)
    80001b88:	00058793          	mv	a5,a1
        uint64 deg = 0;
    80001b8c:	00000713          	li	a4,0
        while(num>1){
    80001b90:	00100693          	li	a3,1
    80001b94:	00f6f863          	bgeu	a3,a5,80001ba4 <_ZN5Buddy10initializeEPvm+0x84>
            num/=2;
    80001b98:	0017d793          	srli	a5,a5,0x1
            deg++;
    80001b9c:	00170713          	addi	a4,a4,1
        while(num>1){
    80001ba0:	ff1ff06f          	j	80001b90 <_ZN5Buddy10initializeEPvm+0x70>
    80001ba4:	00371713          	slli	a4,a4,0x3
    80001ba8:	0000a797          	auipc	a5,0xa
    80001bac:	07078793          	addi	a5,a5,112 # 8000bc18 <_ZN5Buddy16BUDDY_START_ADDRE>
    80001bb0:	00e78733          	add	a4,a5,a4
    80001bb4:	06a73c23          	sd	a0,120(a4)
    80001bb8:	00058793          	mv	a5,a1
        uint64 deg = 0;
    80001bbc:	00000713          	li	a4,0
        while(num>1){
    80001bc0:	00100693          	li	a3,1
    80001bc4:	00f6f863          	bgeu	a3,a5,80001bd4 <_ZN5Buddy10initializeEPvm+0xb4>
            num/=2;
    80001bc8:	0017d793          	srli	a5,a5,0x1
            deg++;
    80001bcc:	00170713          	addi	a4,a4,1
        while(num>1){
    80001bd0:	ff1ff06f          	j	80001bc0 <_ZN5Buddy10initializeEPvm+0xa0>
    head[getDeg(block_num)]->next = tail[getDeg(block_num)]->next = nullptr;
    80001bd4:	00371713          	slli	a4,a4,0x3
    80001bd8:	0000a797          	auipc	a5,0xa
    80001bdc:	04078793          	addi	a5,a5,64 # 8000bc18 <_ZN5Buddy16BUDDY_START_ADDRE>
    80001be0:	00e78733          	add	a4,a5,a4
    80001be4:	01073783          	ld	a5,16(a4)
    80001be8:	0007b023          	sd	zero,0(a5)
        uint64 deg = 0;
    80001bec:	00000793          	li	a5,0
    80001bf0:	00c0006f          	j	80001bfc <_ZN5Buddy10initializeEPvm+0xdc>
            num/=2;
    80001bf4:	0015d593          	srli	a1,a1,0x1
            deg++;
    80001bf8:	00178793          	addi	a5,a5,1
        while(num>1){
    80001bfc:	00100713          	li	a4,1
    80001c00:	feb76ae3          	bltu	a4,a1,80001bf4 <_ZN5Buddy10initializeEPvm+0xd4>
    80001c04:	00379793          	slli	a5,a5,0x3
    80001c08:	0000a717          	auipc	a4,0xa
    80001c0c:	01070713          	addi	a4,a4,16 # 8000bc18 <_ZN5Buddy16BUDDY_START_ADDRE>
    80001c10:	00f707b3          	add	a5,a4,a5
    80001c14:	0787b783          	ld	a5,120(a5)
    80001c18:	0007b023          	sd	zero,0(a5)
}
    80001c1c:	00813403          	ld	s0,8(sp)
    80001c20:	01010113          	addi	sp,sp,16
    80001c24:	00008067          	ret

0000000080001c28 <_ZN5Buddy8compressEm>:
    if(size == BUCKET_SIZE-1)
    80001c28:	00c00793          	li	a5,12
    80001c2c:	0ef50863          	beq	a0,a5,80001d1c <_ZN5Buddy8compressEm+0xf4>
void Buddy::compress(uint64 size) {
    80001c30:	fd010113          	addi	sp,sp,-48
    80001c34:	02113423          	sd	ra,40(sp)
    80001c38:	02813023          	sd	s0,32(sp)
    80001c3c:	00913c23          	sd	s1,24(sp)
    80001c40:	01213823          	sd	s2,16(sp)
    80001c44:	01313423          	sd	s3,8(sp)
    80001c48:	03010413          	addi	s0,sp,48
    80001c4c:	00050913          	mv	s2,a0
    Block *curr = head[size];
    80001c50:	00351713          	slli	a4,a0,0x3
    80001c54:	0000a797          	auipc	a5,0xa
    80001c58:	fc478793          	addi	a5,a5,-60 # 8000bc18 <_ZN5Buddy16BUDDY_START_ADDRE>
    80001c5c:	00e787b3          	add	a5,a5,a4
    80001c60:	0787b483          	ld	s1,120(a5)
    Block *prev = nullptr;
    80001c64:	00000993          	li	s3,0
    80001c68:	0180006f          	j	80001c80 <_ZN5Buddy8compressEm+0x58>
        uint64 pair = (blkNoCurr % (1<<size) == 0) ? blkNoCurr + (1<<size) : blkNoCurr - (1<<size);
    80001c6c:	40d70733          	sub	a4,a4,a3
        if(blkNoNext == pair){
    80001c70:	04f70663          	beq	a4,a5,80001cbc <_ZN5Buddy8compressEm+0x94>
            prev = curr;
    80001c74:	00048993          	mv	s3,s1
        if(blkNoNext == pair){
    80001c78:	06f70863          	beq	a4,a5,80001ce8 <_ZN5Buddy8compressEm+0xc0>
        curr = curr->next;
    80001c7c:	0004b483          	ld	s1,0(s1)
    while(curr && curr->next != nullptr){
    80001c80:	08048063          	beqz	s1,80001d00 <_ZN5Buddy8compressEm+0xd8>
    80001c84:	0004b603          	ld	a2,0(s1)
    80001c88:	06060c63          	beqz	a2,80001d00 <_ZN5Buddy8compressEm+0xd8>
        uint64 blkNoCurr = ((uint64)(curr) - (uint64)BUDDY_START_ADDR) >> BUDDY_BLOCK_BITS;
    80001c8c:	0000a797          	auipc	a5,0xa
    80001c90:	f8c7b783          	ld	a5,-116(a5) # 8000bc18 <_ZN5Buddy16BUDDY_START_ADDRE>
    80001c94:	40f48733          	sub	a4,s1,a5
    80001c98:	00c75713          	srli	a4,a4,0xc
        uint64 blkNoNext = ((uint64)(curr->next) - (uint64)BUDDY_START_ADDR) >> BUDDY_BLOCK_BITS;
    80001c9c:	40f607b3          	sub	a5,a2,a5
    80001ca0:	00c7d793          	srli	a5,a5,0xc
        uint64 pair = (blkNoCurr % (1<<size) == 0) ? blkNoCurr + (1<<size) : blkNoCurr - (1<<size);
    80001ca4:	00100693          	li	a3,1
    80001ca8:	012696bb          	sllw	a3,a3,s2
    80001cac:	02d775b3          	remu	a1,a4,a3
    80001cb0:	fa059ee3          	bnez	a1,80001c6c <_ZN5Buddy8compressEm+0x44>
    80001cb4:	00e68733          	add	a4,a3,a4
    80001cb8:	fb9ff06f          	j	80001c70 <_ZN5Buddy8compressEm+0x48>
            if(prev){
    80001cbc:	00098863          	beqz	s3,80001ccc <_ZN5Buddy8compressEm+0xa4>
                prev->next = curr->next->next;
    80001cc0:	00063683          	ld	a3,0(a2)
    80001cc4:	00d9b023          	sd	a3,0(s3)
    80001cc8:	fb1ff06f          	j	80001c78 <_ZN5Buddy8compressEm+0x50>
                head[size] = curr->next->next;
    80001ccc:	00063603          	ld	a2,0(a2)
    80001cd0:	00391593          	slli	a1,s2,0x3
    80001cd4:	0000a697          	auipc	a3,0xa
    80001cd8:	f4468693          	addi	a3,a3,-188 # 8000bc18 <_ZN5Buddy16BUDDY_START_ADDRE>
    80001cdc:	00b686b3          	add	a3,a3,a1
    80001ce0:	06c6bc23          	sd	a2,120(a3)
    80001ce4:	f95ff06f          	j	80001c78 <_ZN5Buddy8compressEm+0x50>
            blk->next = nullptr;
    80001ce8:	0004b023          	sd	zero,0(s1)
            insert(blk, size+1);
    80001cec:	00190593          	addi	a1,s2,1
    80001cf0:	00048513          	mv	a0,s1
    80001cf4:	00000097          	auipc	ra,0x0
    80001cf8:	02c080e7          	jalr	44(ra) # 80001d20 <_ZN5Buddy6insertEPvm>
    80001cfc:	f81ff06f          	j	80001c7c <_ZN5Buddy8compressEm+0x54>
}
    80001d00:	02813083          	ld	ra,40(sp)
    80001d04:	02013403          	ld	s0,32(sp)
    80001d08:	01813483          	ld	s1,24(sp)
    80001d0c:	01013903          	ld	s2,16(sp)
    80001d10:	00813983          	ld	s3,8(sp)
    80001d14:	03010113          	addi	sp,sp,48
    80001d18:	00008067          	ret
    80001d1c:	00008067          	ret

0000000080001d20 <_ZN5Buddy6insertEPvm>:
void Buddy::insert(void *addr, uint64 size) {
    80001d20:	00050693          	mv	a3,a0
    if(!head[size]){
    80001d24:	00359713          	slli	a4,a1,0x3
    80001d28:	0000a797          	auipc	a5,0xa
    80001d2c:	ef078793          	addi	a5,a5,-272 # 8000bc18 <_ZN5Buddy16BUDDY_START_ADDRE>
    80001d30:	00e787b3          	add	a5,a5,a4
    80001d34:	0787b783          	ld	a5,120(a5)
    80001d38:	02078863          	beqz	a5,80001d68 <_ZN5Buddy6insertEPvm+0x48>
void Buddy::insert(void *addr, uint64 size) {
    80001d3c:	ff010113          	addi	sp,sp,-16
    80001d40:	00113423          	sd	ra,8(sp)
    80001d44:	00813023          	sd	s0,0(sp)
    80001d48:	01010413          	addi	s0,sp,16
    80001d4c:	00058513          	mv	a0,a1
        if((uint64)addr < (uint64)head[size]){
    80001d50:	00068713          	mv	a4,a3
    80001d54:	02f6ec63          	bltu	a3,a5,80001d8c <_ZN5Buddy6insertEPvm+0x6c>
            while(iter != nullptr){
    80001d58:	06078663          	beqz	a5,80001dc4 <_ZN5Buddy6insertEPvm+0xa4>
                if((uint64)addr < (uint64)iter) {
    80001d5c:	04f76a63          	bltu	a4,a5,80001db0 <_ZN5Buddy6insertEPvm+0x90>
                    iter = iter->next;
    80001d60:	0007b783          	ld	a5,0(a5)
            while(iter != nullptr){
    80001d64:	ff5ff06f          	j	80001d58 <_ZN5Buddy6insertEPvm+0x38>
        head[size] = tail[size] = (Block*)addr;
    80001d68:	0000a797          	auipc	a5,0xa
    80001d6c:	eb078793          	addi	a5,a5,-336 # 8000bc18 <_ZN5Buddy16BUDDY_START_ADDRE>
    80001d70:	00e78533          	add	a0,a5,a4
    80001d74:	00d53823          	sd	a3,16(a0)
    80001d78:	06d53c23          	sd	a3,120(a0)
        head[size]->next = tail[size]->next = nullptr;
    80001d7c:	0006b023          	sd	zero,0(a3)
    80001d80:	07853783          	ld	a5,120(a0)
    80001d84:	0007b023          	sd	zero,0(a5)
        return;
    80001d88:	00008067          	ret
            newHead->next = head[size];
    80001d8c:	00f6b023          	sd	a5,0(a3)
            head[size] = newHead;
    80001d90:	00359713          	slli	a4,a1,0x3
    80001d94:	0000a797          	auipc	a5,0xa
    80001d98:	e8478793          	addi	a5,a5,-380 # 8000bc18 <_ZN5Buddy16BUDDY_START_ADDRE>
    80001d9c:	00e787b3          	add	a5,a5,a4
    80001da0:	06d7bc23          	sd	a3,120(a5)
            compress(size);
    80001da4:	00000097          	auipc	ra,0x0
    80001da8:	e84080e7          	jalr	-380(ra) # 80001c28 <_ZN5Buddy8compressEm>
            return;
    80001dac:	0440006f          	j	80001df0 <_ZN5Buddy6insertEPvm+0xd0>
                    newBlock->next = iter;
    80001db0:	00f6b023          	sd	a5,0(a3)
                    prev->next = newBlock;
    80001db4:	00d03023          	sd	a3,0(zero) # 0 <_entry-0x80000000>
                    compress(size);
    80001db8:	00000097          	auipc	ra,0x0
    80001dbc:	e70080e7          	jalr	-400(ra) # 80001c28 <_ZN5Buddy8compressEm>
                    return;
    80001dc0:	0300006f          	j	80001df0 <_ZN5Buddy6insertEPvm+0xd0>
    tail[size]->next = (Block*)addr;
    80001dc4:	00351713          	slli	a4,a0,0x3
    80001dc8:	0000a797          	auipc	a5,0xa
    80001dcc:	e5078793          	addi	a5,a5,-432 # 8000bc18 <_ZN5Buddy16BUDDY_START_ADDRE>
    80001dd0:	00e787b3          	add	a5,a5,a4
    80001dd4:	0107b703          	ld	a4,16(a5)
    80001dd8:	00d73023          	sd	a3,0(a4)
    tail[size] = tail[size]->next;
    80001ddc:	0107b703          	ld	a4,16(a5)
    80001de0:	00073703          	ld	a4,0(a4)
    80001de4:	00e7b823          	sd	a4,16(a5)
    compress(size);
    80001de8:	00000097          	auipc	ra,0x0
    80001dec:	e40080e7          	jalr	-448(ra) # 80001c28 <_ZN5Buddy8compressEm>
}
    80001df0:	00813083          	ld	ra,8(sp)
    80001df4:	00013403          	ld	s0,0(sp)
    80001df8:	01010113          	addi	sp,sp,16
    80001dfc:	00008067          	ret

0000000080001e00 <_ZN5Buddy4freeEPvm>:
    if(addr == nullptr)
    80001e00:	02050663          	beqz	a0,80001e2c <_ZN5Buddy4freeEPvm+0x2c>
void Buddy::free(void *addr, uint64 size) {
    80001e04:	ff010113          	addi	sp,sp,-16
    80001e08:	00113423          	sd	ra,8(sp)
    80001e0c:	00813023          	sd	s0,0(sp)
    80001e10:	01010413          	addi	s0,sp,16
    insert(addr,size);
    80001e14:	00000097          	auipc	ra,0x0
    80001e18:	f0c080e7          	jalr	-244(ra) # 80001d20 <_ZN5Buddy6insertEPvm>
}
    80001e1c:	00813083          	ld	ra,8(sp)
    80001e20:	00013403          	ld	s0,0(sp)
    80001e24:	01010113          	addi	sp,sp,16
    80001e28:	00008067          	ret
    80001e2c:	00008067          	ret

0000000080001e30 <_ZN5Buddy5splitEPNS_5BlockEii>:
void Buddy::split(Block *block, int currentBucket, int startBucket) {
    80001e30:	ff010113          	addi	sp,sp,-16
    80001e34:	00813423          	sd	s0,8(sp)
    80001e38:	01010413          	addi	s0,sp,16
    80001e3c:	03c0006f          	j	80001e78 <_ZN5Buddy5splitEPNS_5BlockEii+0x48>
            head[currentBucket] = tail[currentBucket] = (Block *) ((uint64) block + (1 << (currentBucket + BUDDY_BLOCK_BITS)));
    80001e40:	00b5859b          	addiw	a1,a1,11
    80001e44:	00100713          	li	a4,1
    80001e48:	00b715bb          	sllw	a1,a4,a1
    80001e4c:	00b505b3          	add	a1,a0,a1
    80001e50:	00379693          	slli	a3,a5,0x3
    80001e54:	0000a717          	auipc	a4,0xa
    80001e58:	dc470713          	addi	a4,a4,-572 # 8000bc18 <_ZN5Buddy16BUDDY_START_ADDRE>
    80001e5c:	00d70733          	add	a4,a4,a3
    80001e60:	00b73823          	sd	a1,16(a4)
    80001e64:	06b73c23          	sd	a1,120(a4)
            head[currentBucket]->next = tail[currentBucket]->next = nullptr;
    80001e68:	0005b023          	sd	zero,0(a1)
    80001e6c:	07873703          	ld	a4,120(a4)
    80001e70:	00073023          	sd	zero,0(a4)
void Buddy::split(Block *block, int currentBucket, int startBucket) {
    80001e74:	00078593          	mv	a1,a5
    while(--currentBucket>=startBucket){
    80001e78:	fff5879b          	addiw	a5,a1,-1
    80001e7c:	04c7c863          	blt	a5,a2,80001ecc <_ZN5Buddy5splitEPNS_5BlockEii+0x9c>
        if(tail[currentBucket]) {
    80001e80:	00379693          	slli	a3,a5,0x3
    80001e84:	0000a717          	auipc	a4,0xa
    80001e88:	d9470713          	addi	a4,a4,-620 # 8000bc18 <_ZN5Buddy16BUDDY_START_ADDRE>
    80001e8c:	00d70733          	add	a4,a4,a3
    80001e90:	01073683          	ld	a3,16(a4)
    80001e94:	fa0686e3          	beqz	a3,80001e40 <_ZN5Buddy5splitEPNS_5BlockEii+0x10>
            tail[currentBucket]->next = (Block *) ((uint64) block + (1 << (currentBucket + BUDDY_BLOCK_BITS)));
    80001e98:	00b5859b          	addiw	a1,a1,11
    80001e9c:	00100713          	li	a4,1
    80001ea0:	00b715bb          	sllw	a1,a4,a1
    80001ea4:	00b505b3          	add	a1,a0,a1
    80001ea8:	00b6b023          	sd	a1,0(a3)
            tail[currentBucket] = tail[currentBucket]->next;
    80001eac:	00379693          	slli	a3,a5,0x3
    80001eb0:	0000a717          	auipc	a4,0xa
    80001eb4:	d6870713          	addi	a4,a4,-664 # 8000bc18 <_ZN5Buddy16BUDDY_START_ADDRE>
    80001eb8:	00d70733          	add	a4,a4,a3
    80001ebc:	01073683          	ld	a3,16(a4)
    80001ec0:	0006b683          	ld	a3,0(a3)
    80001ec4:	00d73823          	sd	a3,16(a4)
    80001ec8:	fadff06f          	j	80001e74 <_ZN5Buddy5splitEPNS_5BlockEii+0x44>
}
    80001ecc:	00813403          	ld	s0,8(sp)
    80001ed0:	01010113          	addi	sp,sp,16
    80001ed4:	00008067          	ret

0000000080001ed8 <_ZN5Buddy5allocEm>:
void* Buddy::alloc(uint64 size) {
    80001ed8:	fe010113          	addi	sp,sp,-32
    80001edc:	00113c23          	sd	ra,24(sp)
    80001ee0:	00813823          	sd	s0,16(sp)
    80001ee4:	00913423          	sd	s1,8(sp)
    80001ee8:	02010413          	addi	s0,sp,32
    if(size<0 || size>=BUCKET_SIZE)
    80001eec:	00c00793          	li	a5,12
    80001ef0:	06a7ec63          	bltu	a5,a0,80001f68 <_ZN5Buddy5allocEm+0x90>
    for(uint64 i=size;i<BUCKET_SIZE;i++){
    80001ef4:	00050593          	mv	a1,a0
    80001ef8:	00c00793          	li	a5,12
    80001efc:	06b7ea63          	bltu	a5,a1,80001f70 <_ZN5Buddy5allocEm+0x98>
        if(head[i] != nullptr){
    80001f00:	00359713          	slli	a4,a1,0x3
    80001f04:	0000a797          	auipc	a5,0xa
    80001f08:	d1478793          	addi	a5,a5,-748 # 8000bc18 <_ZN5Buddy16BUDDY_START_ADDRE>
    80001f0c:	00e787b3          	add	a5,a5,a4
    80001f10:	0787b483          	ld	s1,120(a5)
    80001f14:	00049663          	bnez	s1,80001f20 <_ZN5Buddy5allocEm+0x48>
    for(uint64 i=size;i<BUCKET_SIZE;i++){
    80001f18:	00158593          	addi	a1,a1,1
    80001f1c:	fddff06f          	j	80001ef8 <_ZN5Buddy5allocEm+0x20>
            head[i] = head[i]->next;
    80001f20:	0004b703          	ld	a4,0(s1)
    80001f24:	00359693          	slli	a3,a1,0x3
    80001f28:	0000a797          	auipc	a5,0xa
    80001f2c:	cf078793          	addi	a5,a5,-784 # 8000bc18 <_ZN5Buddy16BUDDY_START_ADDRE>
    80001f30:	00d787b3          	add	a5,a5,a3
    80001f34:	06e7bc23          	sd	a4,120(a5)
            if(!head[i])
    80001f38:	00070e63          	beqz	a4,80001f54 <_ZN5Buddy5allocEm+0x7c>
            split(blk, i, size);
    80001f3c:	0005061b          	sext.w	a2,a0
    80001f40:	0005859b          	sext.w	a1,a1
    80001f44:	00048513          	mv	a0,s1
    80001f48:	00000097          	auipc	ra,0x0
    80001f4c:	ee8080e7          	jalr	-280(ra) # 80001e30 <_ZN5Buddy5splitEPNS_5BlockEii>
            break;
    80001f50:	0240006f          	j	80001f74 <_ZN5Buddy5allocEm+0x9c>
                tail[i] = nullptr;
    80001f54:	0000a797          	auipc	a5,0xa
    80001f58:	cc478793          	addi	a5,a5,-828 # 8000bc18 <_ZN5Buddy16BUDDY_START_ADDRE>
    80001f5c:	00d787b3          	add	a5,a5,a3
    80001f60:	0007b823          	sd	zero,16(a5)
    80001f64:	fd9ff06f          	j	80001f3c <_ZN5Buddy5allocEm+0x64>
        return nullptr;
    80001f68:	00000493          	li	s1,0
    80001f6c:	0080006f          	j	80001f74 <_ZN5Buddy5allocEm+0x9c>
    Block* blk = nullptr;
    80001f70:	00000493          	li	s1,0
}
    80001f74:	00048513          	mv	a0,s1
    80001f78:	01813083          	ld	ra,24(sp)
    80001f7c:	01013403          	ld	s0,16(sp)
    80001f80:	00813483          	ld	s1,8(sp)
    80001f84:	02010113          	addi	sp,sp,32
    80001f88:	00008067          	ret

0000000080001f8c <_ZN5Buddy9printListEv>:
void Buddy::printList() {
    80001f8c:	fe010113          	addi	sp,sp,-32
    80001f90:	00113c23          	sd	ra,24(sp)
    80001f94:	00813823          	sd	s0,16(sp)
    80001f98:	00913423          	sd	s1,8(sp)
    80001f9c:	01213023          	sd	s2,0(sp)
    80001fa0:	02010413          	addi	s0,sp,32
    for(int i=0;i<BUCKET_SIZE;i++){
    80001fa4:	00000913          	li	s2,0
    80001fa8:	0180006f          	j	80001fc0 <_ZN5Buddy9printListEv+0x34>
        ConsoleUtil::printString("\n");
    80001fac:	00007517          	auipc	a0,0x7
    80001fb0:	1f450513          	addi	a0,a0,500 # 800091a0 <CONSOLE_STATUS+0x190>
    80001fb4:	00002097          	auipc	ra,0x2
    80001fb8:	5d8080e7          	jalr	1496(ra) # 8000458c <_ZN11ConsoleUtil11printStringEPKc>
    for(int i=0;i<BUCKET_SIZE;i++){
    80001fbc:	0019091b          	addiw	s2,s2,1
    80001fc0:	00c00793          	li	a5,12
    80001fc4:	0727c663          	blt	a5,s2,80002030 <_ZN5Buddy9printListEv+0xa4>
        ConsoleUtil::printInt(i,10);
    80001fc8:	00000613          	li	a2,0
    80001fcc:	00a00593          	li	a1,10
    80001fd0:	00090513          	mv	a0,s2
    80001fd4:	00002097          	auipc	ra,0x2
    80001fd8:	5fc080e7          	jalr	1532(ra) # 800045d0 <_ZN11ConsoleUtil8printIntEiii>
        ConsoleUtil::printString(": ");
    80001fdc:	00007517          	auipc	a0,0x7
    80001fe0:	13c50513          	addi	a0,a0,316 # 80009118 <CONSOLE_STATUS+0x108>
    80001fe4:	00002097          	auipc	ra,0x2
    80001fe8:	5a8080e7          	jalr	1448(ra) # 8000458c <_ZN11ConsoleUtil11printStringEPKc>
        Bucket *tmp = head[i];
    80001fec:	00391713          	slli	a4,s2,0x3
    80001ff0:	0000a797          	auipc	a5,0xa
    80001ff4:	c2878793          	addi	a5,a5,-984 # 8000bc18 <_ZN5Buddy16BUDDY_START_ADDRE>
    80001ff8:	00e787b3          	add	a5,a5,a4
    80001ffc:	0787b483          	ld	s1,120(a5)
        while(tmp != nullptr){
    80002000:	fa0486e3          	beqz	s1,80001fac <_ZN5Buddy9printListEv+0x20>
            ConsoleUtil::printInt((uint64)tmp,10);
    80002004:	00000613          	li	a2,0
    80002008:	00a00593          	li	a1,10
    8000200c:	0004851b          	sext.w	a0,s1
    80002010:	00002097          	auipc	ra,0x2
    80002014:	5c0080e7          	jalr	1472(ra) # 800045d0 <_ZN11ConsoleUtil8printIntEiii>
            ConsoleUtil::printString(" ");
    80002018:	00007517          	auipc	a0,0x7
    8000201c:	0a850513          	addi	a0,a0,168 # 800090c0 <CONSOLE_STATUS+0xb0>
    80002020:	00002097          	auipc	ra,0x2
    80002024:	56c080e7          	jalr	1388(ra) # 8000458c <_ZN11ConsoleUtil11printStringEPKc>
            tmp = tmp->next;
    80002028:	0004b483          	ld	s1,0(s1)
        while(tmp != nullptr){
    8000202c:	fd5ff06f          	j	80002000 <_ZN5Buddy9printListEv+0x74>
    80002030:	01813083          	ld	ra,24(sp)
    80002034:	01013403          	ld	s0,16(sp)
    80002038:	00813483          	ld	s1,8(sp)
    8000203c:	00013903          	ld	s2,0(sp)
    80002040:	02010113          	addi	sp,sp,32
    80002044:	00008067          	ret

0000000080002048 <_GLOBAL__sub_I__ZN5Buddy16BUDDY_START_ADDRE>:
    80002048:	ff010113          	addi	sp,sp,-16
    8000204c:	00113423          	sd	ra,8(sp)
    80002050:	00813023          	sd	s0,0(sp)
    80002054:	01010413          	addi	s0,sp,16
    80002058:	000105b7          	lui	a1,0x10
    8000205c:	fff58593          	addi	a1,a1,-1 # ffff <_entry-0x7fff0001>
    80002060:	00100513          	li	a0,1
    80002064:	00000097          	auipc	ra,0x0
    80002068:	a5c080e7          	jalr	-1444(ra) # 80001ac0 <_Z41__static_initialization_and_destruction_0ii>
    8000206c:	00813083          	ld	ra,8(sp)
    80002070:	00013403          	ld	s0,0(sp)
    80002074:	01010113          	addi	sp,sp,16
    80002078:	00008067          	ret

000000008000207c <_Z11printStringPKc>:

#define LOCK() while(copy_and_swap(lockPrint, 0, 1))
#define UNLOCK() while(copy_and_swap(lockPrint, 1, 0))

void printString(char const *string)
{
    8000207c:	fe010113          	addi	sp,sp,-32
    80002080:	00113c23          	sd	ra,24(sp)
    80002084:	00813823          	sd	s0,16(sp)
    80002088:	00913423          	sd	s1,8(sp)
    8000208c:	02010413          	addi	s0,sp,32
    80002090:	00050493          	mv	s1,a0
    LOCK();
    80002094:	00100613          	li	a2,1
    80002098:	00000593          	li	a1,0
    8000209c:	0000a517          	auipc	a0,0xa
    800020a0:	c5c50513          	addi	a0,a0,-932 # 8000bcf8 <lockPrint>
    800020a4:	fffff097          	auipc	ra,0xfffff
    800020a8:	f5c080e7          	jalr	-164(ra) # 80001000 <copy_and_swap>
    800020ac:	fe0514e3          	bnez	a0,80002094 <_Z11printStringPKc+0x18>
    while (*string != '\0')
    800020b0:	0004c503          	lbu	a0,0(s1)
    800020b4:	00050a63          	beqz	a0,800020c8 <_Z11printStringPKc+0x4c>
    {
        putc(*string);
    800020b8:	00000097          	auipc	ra,0x0
    800020bc:	81c080e7          	jalr	-2020(ra) # 800018d4 <_Z4putcc>
        string++;
    800020c0:	00148493          	addi	s1,s1,1
    while (*string != '\0')
    800020c4:	fedff06f          	j	800020b0 <_Z11printStringPKc+0x34>
    }
    UNLOCK();
    800020c8:	00000613          	li	a2,0
    800020cc:	00100593          	li	a1,1
    800020d0:	0000a517          	auipc	a0,0xa
    800020d4:	c2850513          	addi	a0,a0,-984 # 8000bcf8 <lockPrint>
    800020d8:	fffff097          	auipc	ra,0xfffff
    800020dc:	f28080e7          	jalr	-216(ra) # 80001000 <copy_and_swap>
    800020e0:	fe0514e3          	bnez	a0,800020c8 <_Z11printStringPKc+0x4c>
}
    800020e4:	01813083          	ld	ra,24(sp)
    800020e8:	01013403          	ld	s0,16(sp)
    800020ec:	00813483          	ld	s1,8(sp)
    800020f0:	02010113          	addi	sp,sp,32
    800020f4:	00008067          	ret

00000000800020f8 <_Z9getStringPci>:

char* getString(char *buf, int max) {
    800020f8:	fd010113          	addi	sp,sp,-48
    800020fc:	02113423          	sd	ra,40(sp)
    80002100:	02813023          	sd	s0,32(sp)
    80002104:	00913c23          	sd	s1,24(sp)
    80002108:	01213823          	sd	s2,16(sp)
    8000210c:	01313423          	sd	s3,8(sp)
    80002110:	01413023          	sd	s4,0(sp)
    80002114:	03010413          	addi	s0,sp,48
    80002118:	00050993          	mv	s3,a0
    8000211c:	00058a13          	mv	s4,a1
    LOCK();
    80002120:	00100613          	li	a2,1
    80002124:	00000593          	li	a1,0
    80002128:	0000a517          	auipc	a0,0xa
    8000212c:	bd050513          	addi	a0,a0,-1072 # 8000bcf8 <lockPrint>
    80002130:	fffff097          	auipc	ra,0xfffff
    80002134:	ed0080e7          	jalr	-304(ra) # 80001000 <copy_and_swap>
    80002138:	fe0514e3          	bnez	a0,80002120 <_Z9getStringPci+0x28>
    int i, cc;
    char c;

    for(i=0; i+1 < max; ){
    8000213c:	00000913          	li	s2,0
    80002140:	00090493          	mv	s1,s2
    80002144:	0019091b          	addiw	s2,s2,1
    80002148:	03495a63          	bge	s2,s4,8000217c <_Z9getStringPci+0x84>
        cc = getc();
    8000214c:	fffff097          	auipc	ra,0xfffff
    80002150:	760080e7          	jalr	1888(ra) # 800018ac <_Z4getcv>
        if(cc < 1)
    80002154:	02050463          	beqz	a0,8000217c <_Z9getStringPci+0x84>
            break;
        c = cc;
        buf[i++] = c;
    80002158:	009984b3          	add	s1,s3,s1
    8000215c:	00a48023          	sb	a0,0(s1)
        if(c == '\n' || c == '\r')
    80002160:	00a00793          	li	a5,10
    80002164:	00f50a63          	beq	a0,a5,80002178 <_Z9getStringPci+0x80>
    80002168:	00d00793          	li	a5,13
    8000216c:	fcf51ae3          	bne	a0,a5,80002140 <_Z9getStringPci+0x48>
        buf[i++] = c;
    80002170:	00090493          	mv	s1,s2
    80002174:	0080006f          	j	8000217c <_Z9getStringPci+0x84>
    80002178:	00090493          	mv	s1,s2
            break;
    }
    buf[i] = '\0';
    8000217c:	009984b3          	add	s1,s3,s1
    80002180:	00048023          	sb	zero,0(s1)

    UNLOCK();
    80002184:	00000613          	li	a2,0
    80002188:	00100593          	li	a1,1
    8000218c:	0000a517          	auipc	a0,0xa
    80002190:	b6c50513          	addi	a0,a0,-1172 # 8000bcf8 <lockPrint>
    80002194:	fffff097          	auipc	ra,0xfffff
    80002198:	e6c080e7          	jalr	-404(ra) # 80001000 <copy_and_swap>
    8000219c:	fe0514e3          	bnez	a0,80002184 <_Z9getStringPci+0x8c>
    return buf;
}
    800021a0:	00098513          	mv	a0,s3
    800021a4:	02813083          	ld	ra,40(sp)
    800021a8:	02013403          	ld	s0,32(sp)
    800021ac:	01813483          	ld	s1,24(sp)
    800021b0:	01013903          	ld	s2,16(sp)
    800021b4:	00813983          	ld	s3,8(sp)
    800021b8:	00013a03          	ld	s4,0(sp)
    800021bc:	03010113          	addi	sp,sp,48
    800021c0:	00008067          	ret

00000000800021c4 <_Z11stringToIntPKc>:

int stringToInt(const char *s) {
    800021c4:	ff010113          	addi	sp,sp,-16
    800021c8:	00813423          	sd	s0,8(sp)
    800021cc:	01010413          	addi	s0,sp,16
    800021d0:	00050693          	mv	a3,a0
    int n;

    n = 0;
    800021d4:	00000513          	li	a0,0
    while ('0' <= *s && *s <= '9')
    800021d8:	0006c603          	lbu	a2,0(a3)
    800021dc:	fd06071b          	addiw	a4,a2,-48
    800021e0:	0ff77713          	andi	a4,a4,255
    800021e4:	00900793          	li	a5,9
    800021e8:	02e7e063          	bltu	a5,a4,80002208 <_Z11stringToIntPKc+0x44>
        n = n * 10 + *s++ - '0';
    800021ec:	0025179b          	slliw	a5,a0,0x2
    800021f0:	00a787bb          	addw	a5,a5,a0
    800021f4:	0017979b          	slliw	a5,a5,0x1
    800021f8:	00168693          	addi	a3,a3,1
    800021fc:	00c787bb          	addw	a5,a5,a2
    80002200:	fd07851b          	addiw	a0,a5,-48
    while ('0' <= *s && *s <= '9')
    80002204:	fd5ff06f          	j	800021d8 <_Z11stringToIntPKc+0x14>
    return n;
}
    80002208:	00813403          	ld	s0,8(sp)
    8000220c:	01010113          	addi	sp,sp,16
    80002210:	00008067          	ret

0000000080002214 <_Z8printIntiii>:

char digits[] = "0123456789ABCDEF";

void printInt(int xx, int base, int sgn)
{
    80002214:	fc010113          	addi	sp,sp,-64
    80002218:	02113c23          	sd	ra,56(sp)
    8000221c:	02813823          	sd	s0,48(sp)
    80002220:	02913423          	sd	s1,40(sp)
    80002224:	03213023          	sd	s2,32(sp)
    80002228:	01313c23          	sd	s3,24(sp)
    8000222c:	04010413          	addi	s0,sp,64
    80002230:	00050493          	mv	s1,a0
    80002234:	00058913          	mv	s2,a1
    80002238:	00060993          	mv	s3,a2
    LOCK();
    8000223c:	00100613          	li	a2,1
    80002240:	00000593          	li	a1,0
    80002244:	0000a517          	auipc	a0,0xa
    80002248:	ab450513          	addi	a0,a0,-1356 # 8000bcf8 <lockPrint>
    8000224c:	fffff097          	auipc	ra,0xfffff
    80002250:	db4080e7          	jalr	-588(ra) # 80001000 <copy_and_swap>
    80002254:	fe0514e3          	bnez	a0,8000223c <_Z8printIntiii+0x28>
    char buf[16];
    int i, neg;
    uint x;

    neg = 0;
    if(sgn && xx < 0){
    80002258:	00098463          	beqz	s3,80002260 <_Z8printIntiii+0x4c>
    8000225c:	0804c463          	bltz	s1,800022e4 <_Z8printIntiii+0xd0>
        neg = 1;
        x = -xx;
    } else {
        x = xx;
    80002260:	0004851b          	sext.w	a0,s1
    neg = 0;
    80002264:	00000593          	li	a1,0
    }

    i = 0;
    80002268:	00000493          	li	s1,0
    do{
        buf[i++] = digits[x % base];
    8000226c:	0009079b          	sext.w	a5,s2
    80002270:	0325773b          	remuw	a4,a0,s2
    80002274:	00048613          	mv	a2,s1
    80002278:	0014849b          	addiw	s1,s1,1
    8000227c:	02071693          	slli	a3,a4,0x20
    80002280:	0206d693          	srli	a3,a3,0x20
    80002284:	00009717          	auipc	a4,0x9
    80002288:	68470713          	addi	a4,a4,1668 # 8000b908 <digits>
    8000228c:	00d70733          	add	a4,a4,a3
    80002290:	00074683          	lbu	a3,0(a4)
    80002294:	fd040713          	addi	a4,s0,-48
    80002298:	00c70733          	add	a4,a4,a2
    8000229c:	fed70823          	sb	a3,-16(a4)
    }while((x /= base) != 0);
    800022a0:	0005071b          	sext.w	a4,a0
    800022a4:	0325553b          	divuw	a0,a0,s2
    800022a8:	fcf772e3          	bgeu	a4,a5,8000226c <_Z8printIntiii+0x58>
    if(neg)
    800022ac:	00058c63          	beqz	a1,800022c4 <_Z8printIntiii+0xb0>
        buf[i++] = '-';
    800022b0:	fd040793          	addi	a5,s0,-48
    800022b4:	009784b3          	add	s1,a5,s1
    800022b8:	02d00793          	li	a5,45
    800022bc:	fef48823          	sb	a5,-16(s1)
    800022c0:	0026049b          	addiw	s1,a2,2

    while(--i >= 0)
    800022c4:	fff4849b          	addiw	s1,s1,-1
    800022c8:	0204c463          	bltz	s1,800022f0 <_Z8printIntiii+0xdc>
        putc(buf[i]);
    800022cc:	fd040793          	addi	a5,s0,-48
    800022d0:	009787b3          	add	a5,a5,s1
    800022d4:	ff07c503          	lbu	a0,-16(a5)
    800022d8:	fffff097          	auipc	ra,0xfffff
    800022dc:	5fc080e7          	jalr	1532(ra) # 800018d4 <_Z4putcc>
    800022e0:	fe5ff06f          	j	800022c4 <_Z8printIntiii+0xb0>
        x = -xx;
    800022e4:	4090053b          	negw	a0,s1
        neg = 1;
    800022e8:	00100593          	li	a1,1
        x = -xx;
    800022ec:	f7dff06f          	j	80002268 <_Z8printIntiii+0x54>

    UNLOCK();
    800022f0:	00000613          	li	a2,0
    800022f4:	00100593          	li	a1,1
    800022f8:	0000a517          	auipc	a0,0xa
    800022fc:	a0050513          	addi	a0,a0,-1536 # 8000bcf8 <lockPrint>
    80002300:	fffff097          	auipc	ra,0xfffff
    80002304:	d00080e7          	jalr	-768(ra) # 80001000 <copy_and_swap>
    80002308:	fe0514e3          	bnez	a0,800022f0 <_Z8printIntiii+0xdc>
    8000230c:	03813083          	ld	ra,56(sp)
    80002310:	03013403          	ld	s0,48(sp)
    80002314:	02813483          	ld	s1,40(sp)
    80002318:	02013903          	ld	s2,32(sp)
    8000231c:	01813983          	ld	s3,24(sp)
    80002320:	04010113          	addi	sp,sp,64
    80002324:	00008067          	ret

0000000080002328 <_ZN3SCBC1Em>:
#include "../h/memoryAllocator.hpp"
#include "../h/printing.hpp"
#include "../h/consoleUtil.hpp"


SCB::SCB(uint64 init){
    80002328:	ff010113          	addi	sp,sp,-16
    8000232c:	00813423          	sd	s0,8(sp)
    80002330:	01010413          	addi	s0,sp,16
    val = init;
    80002334:	00b52023          	sw	a1,0(a0)
    blockedHead = nullptr;
    80002338:	00053423          	sd	zero,8(a0)
    blockedTail = nullptr;
    8000233c:	00053823          	sd	zero,16(a0)
}
    80002340:	00813403          	ld	s0,8(sp)
    80002344:	01010113          	addi	sp,sp,16
    80002348:	00008067          	ret

000000008000234c <_ZN3SCBD1Ev>:

//if there are any threads that are still blocked on semaphore when it is being deleted
//free those threads and set their semError field to point to this semaphore
SCB::~SCB(){
    8000234c:	fe010113          	addi	sp,sp,-32
    80002350:	00113c23          	sd	ra,24(sp)
    80002354:	00813823          	sd	s0,16(sp)
    80002358:	00913423          	sd	s1,8(sp)
    8000235c:	01213023          	sd	s2,0(sp)
    80002360:	02010413          	addi	s0,sp,32
    80002364:	00050913          	mv	s2,a0
    TCB* iter = blockedHead;
    80002368:	00853503          	ld	a0,8(a0)
    while(iter !=nullptr) {
    8000236c:	02050063          	beqz	a0,8000238c <_ZN3SCBD1Ev+0x40>
        TCB* tmp = iter;
        iter = iter->next;
    80002370:	04853483          	ld	s1,72(a0)
        tmp->next = 0;
    80002374:	04053423          	sd	zero,72(a0)
        tmp->semError = this;
    80002378:	07253023          	sd	s2,96(a0)
        Scheduler::put(tmp);
    8000237c:	00002097          	auipc	ra,0x2
    80002380:	d8c080e7          	jalr	-628(ra) # 80004108 <_ZN9Scheduler3putEP3TCB>
        iter = iter->next;
    80002384:	00048513          	mv	a0,s1
    while(iter !=nullptr) {
    80002388:	fe5ff06f          	j	8000236c <_ZN3SCBD1Ev+0x20>
    }
}
    8000238c:	01813083          	ld	ra,24(sp)
    80002390:	01013403          	ld	s0,16(sp)
    80002394:	00813483          	ld	s1,8(sp)
    80002398:	00013903          	ld	s2,0(sp)
    8000239c:	02010113          	addi	sp,sp,32
    800023a0:	00008067          	ret

00000000800023a4 <_ZN3SCB5blockEv>:

//block a thread by putting running thread at the end of blocked queue
void SCB::block() {
    800023a4:	ff010113          	addi	sp,sp,-16
    800023a8:	00113423          	sd	ra,8(sp)
    800023ac:	00813023          	sd	s0,0(sp)
    800023b0:	01010413          	addi	s0,sp,16
    blockedTail = (!blockedHead ? blockedHead : blockedTail->next) = TCB::running;
    800023b4:	00853783          	ld	a5,8(a0)
    800023b8:	04078063          	beqz	a5,800023f8 <_ZN3SCB5blockEv+0x54>
    800023bc:	01053703          	ld	a4,16(a0)
    800023c0:	00009797          	auipc	a5,0x9
    800023c4:	7607b783          	ld	a5,1888(a5) # 8000bb20 <_GLOBAL_OFFSET_TABLE_+0x90>
    800023c8:	0007b783          	ld	a5,0(a5)
    800023cc:	04f73423          	sd	a5,72(a4)
    800023d0:	00f53823          	sd	a5,16(a0)
    TCB::running->next = nullptr;
    800023d4:	0407b423          	sd	zero,72(a5)
    TCB::running->status = TCB::BLOCKED;
    800023d8:	00300713          	li	a4,3
    800023dc:	00e7a823          	sw	a4,16(a5)
    TCB::dispatch();
    800023e0:	00000097          	auipc	ra,0x0
    800023e4:	2c0080e7          	jalr	704(ra) # 800026a0 <_ZN3TCB8dispatchEv>
}
    800023e8:	00813083          	ld	ra,8(sp)
    800023ec:	00013403          	ld	s0,0(sp)
    800023f0:	01010113          	addi	sp,sp,16
    800023f4:	00008067          	ret
    blockedTail = (!blockedHead ? blockedHead : blockedTail->next) = TCB::running;
    800023f8:	00009797          	auipc	a5,0x9
    800023fc:	7287b783          	ld	a5,1832(a5) # 8000bb20 <_GLOBAL_OFFSET_TABLE_+0x90>
    80002400:	0007b783          	ld	a5,0(a5)
    80002404:	00f53423          	sd	a5,8(a0)
    80002408:	fc9ff06f          	j	800023d0 <_ZN3SCB5blockEv+0x2c>

000000008000240c <_ZN3SCB7deblockEv>:

//unblock a thread by fetching first from the blocked queue and putting it in scheduler
void SCB::deblock(){
    8000240c:	00050793          	mv	a5,a0
    TCB* tcb = blockedHead;
    80002410:	00853503          	ld	a0,8(a0)
    blockedHead = blockedHead->next;
    80002414:	04853703          	ld	a4,72(a0)
    80002418:	00e7b423          	sd	a4,8(a5)
    tcb->next = nullptr;
    8000241c:	04053423          	sd	zero,72(a0)
    if(tcb) {
    80002420:	02050a63          	beqz	a0,80002454 <_ZN3SCB7deblockEv+0x48>
void SCB::deblock(){
    80002424:	ff010113          	addi	sp,sp,-16
    80002428:	00113423          	sd	ra,8(sp)
    8000242c:	00813023          	sd	s0,0(sp)
    80002430:	01010413          	addi	s0,sp,16
        tcb->status = TCB::READY;
    80002434:	00100793          	li	a5,1
    80002438:	00f52823          	sw	a5,16(a0)
        Scheduler::put(tcb);
    8000243c:	00002097          	auipc	ra,0x2
    80002440:	ccc080e7          	jalr	-820(ra) # 80004108 <_ZN9Scheduler3putEP3TCB>
    }
}
    80002444:	00813083          	ld	ra,8(sp)
    80002448:	00013403          	ld	s0,0(sp)
    8000244c:	01010113          	addi	sp,sp,16
    80002450:	00008067          	ret
    80002454:	00008067          	ret

0000000080002458 <_ZN3SCB4waitEv>:

void SCB::wait() {
    TCB::running->semError = nullptr;
    80002458:	00009797          	auipc	a5,0x9
    8000245c:	6c87b783          	ld	a5,1736(a5) # 8000bb20 <_GLOBAL_OFFSET_TABLE_+0x90>
    80002460:	0007b783          	ld	a5,0(a5)
    80002464:	0607b023          	sd	zero,96(a5)
    if (--val < 0)
    80002468:	00052783          	lw	a5,0(a0)
    8000246c:	fff7879b          	addiw	a5,a5,-1
    80002470:	00f52023          	sw	a5,0(a0)
    80002474:	02079713          	slli	a4,a5,0x20
    80002478:	00074463          	bltz	a4,80002480 <_ZN3SCB4waitEv+0x28>
    8000247c:	00008067          	ret
void SCB::wait() {
    80002480:	ff010113          	addi	sp,sp,-16
    80002484:	00113423          	sd	ra,8(sp)
    80002488:	00813023          	sd	s0,0(sp)
    8000248c:	01010413          	addi	s0,sp,16
        block();
    80002490:	00000097          	auipc	ra,0x0
    80002494:	f14080e7          	jalr	-236(ra) # 800023a4 <_ZN3SCB5blockEv>
}
    80002498:	00813083          	ld	ra,8(sp)
    8000249c:	00013403          	ld	s0,0(sp)
    800024a0:	01010113          	addi	sp,sp,16
    800024a4:	00008067          	ret

00000000800024a8 <_ZN3SCB6signalEv>:

void SCB::signal(){
    if(val++<0)
    800024a8:	00052783          	lw	a5,0(a0)
    800024ac:	0017871b          	addiw	a4,a5,1
    800024b0:	00e52023          	sw	a4,0(a0)
    800024b4:	0007c463          	bltz	a5,800024bc <_ZN3SCB6signalEv+0x14>
    800024b8:	00008067          	ret
void SCB::signal(){
    800024bc:	ff010113          	addi	sp,sp,-16
    800024c0:	00113423          	sd	ra,8(sp)
    800024c4:	00813023          	sd	s0,0(sp)
    800024c8:	01010413          	addi	s0,sp,16
        deblock();
    800024cc:	00000097          	auipc	ra,0x0
    800024d0:	f40080e7          	jalr	-192(ra) # 8000240c <_ZN3SCB7deblockEv>
}
    800024d4:	00813083          	ld	ra,8(sp)
    800024d8:	00013403          	ld	s0,0(sp)
    800024dc:	01010113          	addi	sp,sp,16
    800024e0:	00008067          	ret

00000000800024e4 <_ZN3SCBnwEm>:

//overload operator new, to not use system call for every kernel object that is being allocated
void* SCB::operator new(size_t size){
    800024e4:	ff010113          	addi	sp,sp,-16
    800024e8:	00113423          	sd	ra,8(sp)
    800024ec:	00813023          	sd	s0,0(sp)
    800024f0:	01010413          	addi	s0,sp,16
    return MemoryAllocator::kmalloc(size);
    800024f4:	00000097          	auipc	ra,0x0
    800024f8:	3f4080e7          	jalr	1012(ra) # 800028e8 <_ZN15MemoryAllocator7kmallocEm>
}
    800024fc:	00813083          	ld	ra,8(sp)
    80002500:	00013403          	ld	s0,0(sp)
    80002504:	01010113          	addi	sp,sp,16
    80002508:	00008067          	ret

000000008000250c <_ZN3SCBdlEPv>:

//overload operator delete, to not use system call for every kernel object that is being deallocated
void SCB::operator delete(void *addr){
    8000250c:	ff010113          	addi	sp,sp,-16
    80002510:	00113423          	sd	ra,8(sp)
    80002514:	00813023          	sd	s0,0(sp)
    80002518:	01010413          	addi	s0,sp,16
    MemoryAllocator::kfree(addr);
    8000251c:	00000097          	auipc	ra,0x0
    80002520:	5f4080e7          	jalr	1524(ra) # 80002b10 <_ZN15MemoryAllocator5kfreeEPv>
}
    80002524:	00813083          	ld	ra,8(sp)
    80002528:	00013403          	ld	s0,0(sp)
    8000252c:	01010113          	addi	sp,sp,16
    80002530:	00008067          	ret

0000000080002534 <_ZN3SCB14semaphore_freeEPv>:

//syscall to free space that is taken up by semaphore
int SCB::semaphore_free(void *addr) {
    80002534:	ff010113          	addi	sp,sp,-16
    80002538:	00813423          	sd	s0,8(sp)
    8000253c:	01010413          	addi	s0,sp,16
    uint64 iptr = (uint64)addr;

    asm("mv a1, %[iptr]" : : [iptr] "r" (iptr));  //put address in a1
    80002540:	00050593          	mv	a1,a0
    asm("li a0, 0x52");  //put number of syscall in a0
    80002544:	05200513          	li	a0,82
    asm("ecall");
    80002548:	00000073          	ecall

    uint64 status; //return status of mem_free

    asm("mv %[status], a0" : [status] "=r" (status));
    8000254c:	00050513          	mv	a0,a0
    return status;
}
    80002550:	0005051b          	sext.w	a0,a0
    80002554:	00813403          	ld	s0,8(sp)
    80002558:	01010113          	addi	sp,sp,16
    8000255c:	00008067          	ret

0000000080002560 <main>:
//
// Created by os on 4/28/22.
//
#include "../h/system.hpp"

int main() {
    80002560:	fe010113          	addi	sp,sp,-32
    80002564:	00113c23          	sd	ra,24(sp)
    80002568:	00813823          	sd	s0,16(sp)
    8000256c:	02010413          	addi	s0,sp,32

    //entry point for user code
    System();
    80002570:	fe840513          	addi	a0,s0,-24
    80002574:	fffff097          	auipc	ra,0xfffff
    80002578:	424080e7          	jalr	1060(ra) # 80001998 <_ZN6SystemC1Ev>

    return 0;
    8000257c:	00000513          	li	a0,0
    80002580:	01813083          	ld	ra,24(sp)
    80002584:	01013403          	ld	s0,16(sp)
    80002588:	02010113          	addi	sp,sp,32
    8000258c:	00008067          	ret

0000000080002590 <_ZN3TCB7wrapperEPv>:
        contextSwitch(&old->context, &running->context);
    }
}

//wrapper function to run body function
void TCB::wrapper(void *args) {
    80002590:	ff010113          	addi	sp,sp,-16
    80002594:	00113423          	sd	ra,8(sp)
    80002598:	00813023          	sd	s0,0(sp)
    8000259c:	01010413          	addi	s0,sp,16
    RiscV::popSppSpie();
    800025a0:	00001097          	auipc	ra,0x1
    800025a4:	cbc080e7          	jalr	-836(ra) # 8000325c <_ZN5RiscV10popSppSpieEv>

    running->body(running->args);
    800025a8:	00009797          	auipc	a5,0x9
    800025ac:	7587b783          	ld	a5,1880(a5) # 8000bd00 <_ZN3TCB7runningE>
    800025b0:	0187b703          	ld	a4,24(a5)
    800025b4:	0207b503          	ld	a0,32(a5)
    800025b8:	000700e7          	jalr	a4

    thread_exit();
    800025bc:	fffff097          	auipc	ra,0xfffff
    800025c0:	118080e7          	jalr	280(ra) # 800016d4 <_Z11thread_exitv>
}
    800025c4:	00813083          	ld	ra,8(sp)
    800025c8:	00013403          	ld	s0,0(sp)
    800025cc:	01010113          	addi	sp,sp,16
    800025d0:	00008067          	ret

00000000800025d4 <_ZN3TCBC1EPFvPvES0_Pmm>:
TCB::TCB(Body body, void* args, uint64* stack, uint64 timeSlice){
    800025d4:	ff010113          	addi	sp,sp,-16
    800025d8:	00813423          	sd	s0,8(sp)
    800025dc:	01010413          	addi	s0,sp,16
    800025e0:	04053823          	sd	zero,80(a0)
    800025e4:	04053c23          	sd	zero,88(a0)
    800025e8:	06053023          	sd	zero,96(a0)
    this->body = body;
    800025ec:	00b53c23          	sd	a1,24(a0)
    this->args = args;
    800025f0:	02c53023          	sd	a2,32(a0)
    this->timeSlice = timeSlice;
    800025f4:	02e53823          	sd	a4,48(a0)
    this->stack = (body == nullptr) ? nullptr : stack;
    800025f8:	04058263          	beqz	a1,8000263c <_ZN3TCBC1EPFvPvES0_Pmm+0x68>
    800025fc:	00068793          	mv	a5,a3
    80002600:	02f53423          	sd	a5,40(a0)
    this->status = Status::READY;
    80002604:	00100793          	li	a5,1
    80002608:	00f52823          	sw	a5,16(a0)
    this->next = nullptr;
    8000260c:	04053423          	sd	zero,72(a0)
    this->context = {(body == nullptr) ? 0 : (uint64)((char*)stack + DEFAULT_STACK_SIZE),
    80002610:	02058a63          	beqz	a1,80002644 <_ZN3TCBC1EPFvPvES0_Pmm+0x70>
    80002614:	000017b7          	lui	a5,0x1
    80002618:	00f686b3          	add	a3,a3,a5
    8000261c:	00d53023          	sd	a3,0(a0)
    80002620:	00000797          	auipc	a5,0x0
    80002624:	f7078793          	addi	a5,a5,-144 # 80002590 <_ZN3TCB7wrapperEPv>
    80002628:	00f53423          	sd	a5,8(a0)
    this->mode = Mode::USER;
    8000262c:	00052a23          	sw	zero,20(a0)
}
    80002630:	00813403          	ld	s0,8(sp)
    80002634:	01010113          	addi	sp,sp,16
    80002638:	00008067          	ret
    this->stack = (body == nullptr) ? nullptr : stack;
    8000263c:	00000793          	li	a5,0
    80002640:	fc1ff06f          	j	80002600 <_ZN3TCBC1EPFvPvES0_Pmm+0x2c>
    this->context = {(body == nullptr) ? 0 : (uint64)((char*)stack + DEFAULT_STACK_SIZE),
    80002644:	00000693          	li	a3,0
    80002648:	fd5ff06f          	j	8000261c <_ZN3TCBC1EPFvPvES0_Pmm+0x48>

000000008000264c <_ZN3TCB4freeEv>:
void TCB::free(){
    8000264c:	ff010113          	addi	sp,sp,-16
    80002650:	00113423          	sd	ra,8(sp)
    80002654:	00813023          	sd	s0,0(sp)
    80002658:	01010413          	addi	s0,sp,16
    MemoryAllocator::kfree(stack);
    8000265c:	02853503          	ld	a0,40(a0)
    80002660:	00000097          	auipc	ra,0x0
    80002664:	4b0080e7          	jalr	1200(ra) # 80002b10 <_ZN15MemoryAllocator5kfreeEPv>
}
    80002668:	00813083          	ld	ra,8(sp)
    8000266c:	00013403          	ld	s0,0(sp)
    80002670:	01010113          	addi	sp,sp,16
    80002674:	00008067          	ret

0000000080002678 <_ZN3TCBD1Ev>:
TCB::~TCB(){
    80002678:	ff010113          	addi	sp,sp,-16
    8000267c:	00113423          	sd	ra,8(sp)
    80002680:	00813023          	sd	s0,0(sp)
    80002684:	01010413          	addi	s0,sp,16
    free();
    80002688:	00000097          	auipc	ra,0x0
    8000268c:	fc4080e7          	jalr	-60(ra) # 8000264c <_ZN3TCB4freeEv>
}
    80002690:	00813083          	ld	ra,8(sp)
    80002694:	00013403          	ld	s0,0(sp)
    80002698:	01010113          	addi	sp,sp,16
    8000269c:	00008067          	ret

00000000800026a0 <_ZN3TCB8dispatchEv>:
void TCB::dispatch() {
    800026a0:	fe010113          	addi	sp,sp,-32
    800026a4:	00113c23          	sd	ra,24(sp)
    800026a8:	00813823          	sd	s0,16(sp)
    800026ac:	00913423          	sd	s1,8(sp)
    800026b0:	02010413          	addi	s0,sp,32
    TCB* old = running;
    800026b4:	00009497          	auipc	s1,0x9
    800026b8:	64c4b483          	ld	s1,1612(s1) # 8000bd00 <_ZN3TCB7runningE>
    if(old->status == Status::READY || old->status == Status::RUNNING) {
    800026bc:	0104a703          	lw	a4,16(s1)
    800026c0:	00100793          	li	a5,1
    800026c4:	04e7f663          	bgeu	a5,a4,80002710 <_ZN3TCB8dispatchEv+0x70>
    running = Scheduler::get();
    800026c8:	00002097          	auipc	ra,0x2
    800026cc:	a88080e7          	jalr	-1400(ra) # 80004150 <_ZN9Scheduler3getEv>
    800026d0:	00009797          	auipc	a5,0x9
    800026d4:	62a7b823          	sd	a0,1584(a5) # 8000bd00 <_ZN3TCB7runningE>
    if(running) {
    800026d8:	02050263          	beqz	a0,800026fc <_ZN3TCB8dispatchEv+0x5c>
        running->status = Status::RUNNING;
    800026dc:	00052823          	sw	zero,16(a0)
        RiscV::jumpToDesignatedPrivilegeMode();
    800026e0:	00001097          	auipc	ra,0x1
    800026e4:	cb0080e7          	jalr	-848(ra) # 80003390 <_ZN5RiscV29jumpToDesignatedPrivilegeModeEv>
        contextSwitch(&old->context, &running->context);
    800026e8:	00009597          	auipc	a1,0x9
    800026ec:	6185b583          	ld	a1,1560(a1) # 8000bd00 <_ZN3TCB7runningE>
    800026f0:	00048513          	mv	a0,s1
    800026f4:	fffff097          	auipc	ra,0xfffff
    800026f8:	a4c080e7          	jalr	-1460(ra) # 80001140 <_ZN3TCB13contextSwitchEPNS_7ContextES1_>
}
    800026fc:	01813083          	ld	ra,24(sp)
    80002700:	01013403          	ld	s0,16(sp)
    80002704:	00813483          	ld	s1,8(sp)
    80002708:	02010113          	addi	sp,sp,32
    8000270c:	00008067          	ret
        Scheduler::put(old);
    80002710:	00048513          	mv	a0,s1
    80002714:	00002097          	auipc	ra,0x2
    80002718:	9f4080e7          	jalr	-1548(ra) # 80004108 <_ZN9Scheduler3putEP3TCB>
    8000271c:	fadff06f          	j	800026c8 <_ZN3TCB8dispatchEv+0x28>

0000000080002720 <_ZN3TCBnwEm>:

//overload operator new, to not use system call for every kernel object that is being allocated
void* TCB::operator new(size_t size){
    80002720:	ff010113          	addi	sp,sp,-16
    80002724:	00113423          	sd	ra,8(sp)
    80002728:	00813023          	sd	s0,0(sp)
    8000272c:	01010413          	addi	s0,sp,16
    return MemoryAllocator::kmalloc(size);
    80002730:	00000097          	auipc	ra,0x0
    80002734:	1b8080e7          	jalr	440(ra) # 800028e8 <_ZN15MemoryAllocator7kmallocEm>
}
    80002738:	00813083          	ld	ra,8(sp)
    8000273c:	00013403          	ld	s0,0(sp)
    80002740:	01010113          	addi	sp,sp,16
    80002744:	00008067          	ret

0000000080002748 <_ZN3TCB10initializeEv>:
void TCB::initialize() {
    80002748:	fd010113          	addi	sp,sp,-48
    8000274c:	02113423          	sd	ra,40(sp)
    80002750:	02813023          	sd	s0,32(sp)
    80002754:	00913c23          	sd	s1,24(sp)
    80002758:	01213823          	sd	s2,16(sp)
    8000275c:	01313423          	sd	s3,8(sp)
    80002760:	01413023          	sd	s4,0(sp)
    80002764:	03010413          	addi	s0,sp,48
    TCB::running = new TCB(nullptr, nullptr, nullptr, DEFAULT_TIME_SLICE);
    80002768:	07000513          	li	a0,112
    8000276c:	00000097          	auipc	ra,0x0
    80002770:	fb4080e7          	jalr	-76(ra) # 80002720 <_ZN3TCBnwEm>
    80002774:	00050493          	mv	s1,a0
    80002778:	00200713          	li	a4,2
    8000277c:	00000693          	li	a3,0
    80002780:	00000613          	li	a2,0
    80002784:	00000593          	li	a1,0
    80002788:	00000097          	auipc	ra,0x0
    8000278c:	e4c080e7          	jalr	-436(ra) # 800025d4 <_ZN3TCBC1EPFvPvES0_Pmm>
    80002790:	00009a17          	auipc	s4,0x9
    80002794:	570a0a13          	addi	s4,s4,1392 # 8000bd00 <_ZN3TCB7runningE>
    80002798:	009a3023          	sd	s1,0(s4)
    TCB::running->mode = Mode::SUPERVISOR;
    8000279c:	00100993          	li	s3,1
    800027a0:	0134aa23          	sw	s3,20(s1)
    uint64 *putcStack = (uint64*)MemoryAllocator::kmalloc((DEFAULT_STACK_SIZE+MEM_BLOCK_SIZE-1)/MEM_BLOCK_SIZE);
    800027a4:	04000513          	li	a0,64
    800027a8:	00000097          	auipc	ra,0x0
    800027ac:	140080e7          	jalr	320(ra) # 800028e8 <_ZN15MemoryAllocator7kmallocEm>
    800027b0:	00050913          	mv	s2,a0
    putcThread = new TCB(RiscV::putcWrapper, nullptr, putcStack, DEFAULT_TIME_SLICE);
    800027b4:	07000513          	li	a0,112
    800027b8:	00000097          	auipc	ra,0x0
    800027bc:	f68080e7          	jalr	-152(ra) # 80002720 <_ZN3TCBnwEm>
    800027c0:	00050493          	mv	s1,a0
    800027c4:	00200713          	li	a4,2
    800027c8:	00090693          	mv	a3,s2
    800027cc:	00000613          	li	a2,0
    800027d0:	00009597          	auipc	a1,0x9
    800027d4:	2e85b583          	ld	a1,744(a1) # 8000bab8 <_GLOBAL_OFFSET_TABLE_+0x28>
    800027d8:	00000097          	auipc	ra,0x0
    800027dc:	dfc080e7          	jalr	-516(ra) # 800025d4 <_ZN3TCBC1EPFvPvES0_Pmm>
    800027e0:	009a3423          	sd	s1,8(s4)
    putcThread->mode = Mode::SUPERVISOR;
    800027e4:	0134aa23          	sw	s3,20(s1)
    Scheduler::put(putcThread);
    800027e8:	00048513          	mv	a0,s1
    800027ec:	00002097          	auipc	ra,0x2
    800027f0:	91c080e7          	jalr	-1764(ra) # 80004108 <_ZN9Scheduler3putEP3TCB>
}
    800027f4:	02813083          	ld	ra,40(sp)
    800027f8:	02013403          	ld	s0,32(sp)
    800027fc:	01813483          	ld	s1,24(sp)
    80002800:	01013903          	ld	s2,16(sp)
    80002804:	00813983          	ld	s3,8(sp)
    80002808:	00013a03          	ld	s4,0(sp)
    8000280c:	03010113          	addi	sp,sp,48
    80002810:	00008067          	ret

0000000080002814 <_ZN3TCBdlEPv>:

//overload operator delete, to not use system call for every kernel object that is being deallocated
void TCB::operator delete(void *addr){
    80002814:	ff010113          	addi	sp,sp,-16
    80002818:	00113423          	sd	ra,8(sp)
    8000281c:	00813023          	sd	s0,0(sp)
    80002820:	01010413          	addi	s0,sp,16
    MemoryAllocator::kfree(addr);
    80002824:	00000097          	auipc	ra,0x0
    80002828:	2ec080e7          	jalr	748(ra) # 80002b10 <_ZN15MemoryAllocator5kfreeEPv>
}
    8000282c:	00813083          	ld	ra,8(sp)
    80002830:	00013403          	ld	s0,0(sp)
    80002834:	01010113          	addi	sp,sp,16
    80002838:	00008067          	ret

000000008000283c <_ZN3TCB11thread_freeEPv>:

//internal syscall to free space allocated to a thread
int TCB::thread_free(void *addr) {
    8000283c:	ff010113          	addi	sp,sp,-16
    80002840:	00813423          	sd	s0,8(sp)
    80002844:	01010413          	addi	s0,sp,16
    uint64 iptr = (uint64)addr;

    asm("mv a1, %[iptr]" : : [iptr] "r" (iptr));
    80002848:	00050593          	mv	a1,a0
    asm("li a0, 0x51");
    8000284c:	05100513          	li	a0,81
    asm("ecall");
    80002850:	00000073          	ecall

    uint64 status;

    asm("mv %[status], a0" : [status] "=r" (status));
    80002854:	00050513          	mv	a0,a0
    return status;
    80002858:	0005051b          	sext.w	a0,a0
    8000285c:	00813403          	ld	s0,8(sp)
    80002860:	01010113          	addi	sp,sp,16
    80002864:	00008067          	ret

0000000080002868 <_ZN15MemoryAllocator10initializeEv>:
bool MemoryAllocator::initialized = false;

//initialize MemoryAllocator class
//forbid multiple initializations
//initial size of free memory is freeMemHead->size
void MemoryAllocator::initialize() {
    80002868:	ff010113          	addi	sp,sp,-16
    8000286c:	00813423          	sd	s0,8(sp)
    80002870:	01010413          	addi	s0,sp,16
    freeMemHead = freeMemTail = (BlockHeader*)FREE_MEMORY_START_CONST;
    80002874:	00009797          	auipc	a5,0x9
    80002878:	2347b783          	ld	a5,564(a5) # 8000baa8 <_GLOBAL_OFFSET_TABLE_+0x18>
    8000287c:	0007b603          	ld	a2,0(a5)
    80002880:	00c65793          	srli	a5,a2,0xc
    80002884:	00278793          	addi	a5,a5,2
    80002888:	00c79793          	slli	a5,a5,0xc
    8000288c:	01000737          	lui	a4,0x1000
    80002890:	00e787b3          	add	a5,a5,a4
    80002894:	00009717          	auipc	a4,0x9
    80002898:	49470713          	addi	a4,a4,1172 # 8000bd28 <_ZN15MemoryAllocator11freeMemTailE>
    8000289c:	00f73023          	sd	a5,0(a4)
    800028a0:	00f73423          	sd	a5,8(a4)

    freeMemHead->prev = freeMemHead->next = freeMemTail->prev = freeMemTail->next = nullptr;
    800028a4:	0007b823          	sd	zero,16(a5)
    800028a8:	0007b423          	sd	zero,8(a5)

    allocMemHead = allocMemTail = nullptr;
    800028ac:	00073823          	sd	zero,16(a4)
    800028b0:	00073c23          	sd	zero,24(a4)

    freeMemHead->size = (char*)HEAP_END_ADDR - (char*)HEAP_START_ADDR - sizeof(BlockHeader);
    800028b4:	00009697          	auipc	a3,0x9
    800028b8:	27c6b683          	ld	a3,636(a3) # 8000bb30 <_GLOBAL_OFFSET_TABLE_+0xa0>
    800028bc:	0006b683          	ld	a3,0(a3)
    800028c0:	40c686b3          	sub	a3,a3,a2
    800028c4:	fe868693          	addi	a3,a3,-24
    800028c8:	00d7b023          	sd	a3,0(a5)

    freeMemHead->next = nullptr;
    800028cc:	00873783          	ld	a5,8(a4)
    800028d0:	0007b823          	sd	zero,16(a5)

    initialized = true;
    800028d4:	00100793          	li	a5,1
    800028d8:	02f70023          	sb	a5,32(a4)
}
    800028dc:	00813403          	ld	s0,8(sp)
    800028e0:	01010113          	addi	sp,sp,16
    800028e4:	00008067          	ret

00000000800028e8 <_ZN15MemoryAllocator7kmallocEm>:

void* MemoryAllocator::kmalloc(size_t size){
    800028e8:	ff010113          	addi	sp,sp,-16
    800028ec:	00813423          	sd	s0,8(sp)
    800028f0:	01010413          	addi	s0,sp,16
    if(size<=0 || freeMemHead == nullptr)
    800028f4:	14050263          	beqz	a0,80002a38 <_ZN15MemoryAllocator7kmallocEm+0x150>
    800028f8:	00050793          	mv	a5,a0
    800028fc:	00009517          	auipc	a0,0x9
    80002900:	43453503          	ld	a0,1076(a0) # 8000bd30 <_ZN15MemoryAllocator11freeMemHeadE>
    80002904:	0a050a63          	beqz	a0,800029b8 <_ZN15MemoryAllocator7kmallocEm+0xd0>
        return nullptr;

    size_t byteSize = size * MEM_BLOCK_SIZE; //size of requested chunk in bytes   //NOTE: argument of kmalloc is number of blocks requested
    80002908:	00679793          	slli	a5,a5,0x6

    BlockHeader* blk = freeMemHead, *prev = nullptr;
    8000290c:	00000613          	li	a2,0
    80002910:	00c0006f          	j	8000291c <_ZN15MemoryAllocator7kmallocEm+0x34>

    for(; blk!=nullptr; prev = blk, blk = blk->next) {
    80002914:	00050613          	mv	a2,a0
    80002918:	01053503          	ld	a0,16(a0)
    8000291c:	00050863          	beqz	a0,8000292c <_ZN15MemoryAllocator7kmallocEm+0x44>
        if (blk->size >= byteSize + sizeof(BlockHeader))
    80002920:	00053683          	ld	a3,0(a0)
    80002924:	01878713          	addi	a4,a5,24
    80002928:	fee6e6e3          	bltu	a3,a4,80002914 <_ZN15MemoryAllocator7kmallocEm+0x2c>
            break;            //iterate through the list and find the first fitting block of free memory
    }

    if(blk != nullptr){
    8000292c:	08050663          	beqz	a0,800029b8 <_ZN15MemoryAllocator7kmallocEm+0xd0>
        BlockHeader* newBlk;
        BlockHeader *nextAllocated;

        if((char*)blk + blk->size + sizeof(BlockHeader) <HEAP_END_ADDR)
    80002930:	00053683          	ld	a3,0(a0)
    80002934:	01868713          	addi	a4,a3,24
    80002938:	00e50733          	add	a4,a0,a4
    8000293c:	00009597          	auipc	a1,0x9
    80002940:	1f45b583          	ld	a1,500(a1) # 8000bb30 <_GLOBAL_OFFSET_TABLE_+0xa0>
    80002944:	0005b583          	ld	a1,0(a1)
    80002948:	00b76463          	bltu	a4,a1,80002950 <_ZN15MemoryAllocator7kmallocEm+0x68>
            nextAllocated = (BlockHeader*)((char*)blk + blk->size + sizeof(BlockHeader));
        else
            nextAllocated = nullptr;
    8000294c:	00000713          	li	a4,0

        size_t remainingSize = blk->size - byteSize;
    80002950:	40f686b3          	sub	a3,a3,a5

        if(remainingSize >= sizeof(BlockHeader) + MEM_BLOCK_SIZE){    //check whether a large enough fragment will remain
    80002954:	05700593          	li	a1,87
    80002958:	08d5f063          	bgeu	a1,a3,800029d8 <_ZN15MemoryAllocator7kmallocEm+0xf0>

            blk->size = byteSize;
    8000295c:	00f53023          	sd	a5,0(a0)
            size_t offset = sizeof(BlockHeader) + byteSize;   //offset for new freeMem chunk
    80002960:	01878793          	addi	a5,a5,24
            newBlk = (BlockHeader*)((char*)blk + offset);
    80002964:	00f507b3          	add	a5,a0,a5
            newBlk->next = blk->next;
    80002968:	01053583          	ld	a1,16(a0)
    8000296c:	00b7b823          	sd	a1,16(a5)
            newBlk->prev = blk->prev;
    80002970:	00853583          	ld	a1,8(a0)
    80002974:	00b7b423          	sd	a1,8(a5)
            newBlk->size = remainingSize - sizeof(BlockHeader);
    80002978:	fe868693          	addi	a3,a3,-24
    8000297c:	00d7b023          	sd	a3,0(a5)

            if(prev)
    80002980:	04060263          	beqz	a2,800029c4 <_ZN15MemoryAllocator7kmallocEm+0xdc>
                prev->next = newBlk;
    80002984:	00f63823          	sd	a5,16(a2)
            // No remaining fragment, allocate the entire block
            if (prev) prev->next = blk->next;
            else freeMemHead = blk->next;
        }

        if(allocMemHead == nullptr){
    80002988:	00009797          	auipc	a5,0x9
    8000298c:	3b87b783          	ld	a5,952(a5) # 8000bd40 <_ZN15MemoryAllocator12allocMemHeadE>
    80002990:	06078463          	beqz	a5,800029f8 <_ZN15MemoryAllocator7kmallocEm+0x110>
            allocMemHead = allocMemTail = blk;
        }
        else{

            blk->next = nextAllocated;
    80002994:	00e53823          	sd	a4,16(a0)

            if(nextAllocated){
    80002998:	08070063          	beqz	a4,80002a18 <_ZN15MemoryAllocator7kmallocEm+0x130>
                blk->prev = nextAllocated->prev;
    8000299c:	00873783          	ld	a5,8(a4)
    800029a0:	00f53423          	sd	a5,8(a0)
                blk->prev->next = blk;
    800029a4:	00a7b823          	sd	a0,16(a5)
                if(nextAllocated->prev)
    800029a8:	00873783          	ld	a5,8(a4)
    800029ac:	06078063          	beqz	a5,80002a0c <_ZN15MemoryAllocator7kmallocEm+0x124>
                    nextAllocated->prev = blk;
    800029b0:	00a73423          	sd	a0,8(a4)
                blk->next = nullptr;
                allocMemTail = blk;
            }
        }

        return (char*)blk + sizeof(BlockHeader);    //return address of start of the data block, not start of the header
    800029b4:	01850513          	addi	a0,a0,24
    }

    return nullptr;
}
    800029b8:	00813403          	ld	s0,8(sp)
    800029bc:	01010113          	addi	sp,sp,16
    800029c0:	00008067          	ret
                freeMemHead = freeMemTail = newBlk;
    800029c4:	00009697          	auipc	a3,0x9
    800029c8:	36468693          	addi	a3,a3,868 # 8000bd28 <_ZN15MemoryAllocator11freeMemTailE>
    800029cc:	00f6b023          	sd	a5,0(a3)
    800029d0:	00f6b423          	sd	a5,8(a3)
    800029d4:	fb5ff06f          	j	80002988 <_ZN15MemoryAllocator7kmallocEm+0xa0>
            if (prev) prev->next = blk->next;
    800029d8:	00060863          	beqz	a2,800029e8 <_ZN15MemoryAllocator7kmallocEm+0x100>
    800029dc:	01053783          	ld	a5,16(a0)
    800029e0:	00f63823          	sd	a5,16(a2)
    800029e4:	fa5ff06f          	j	80002988 <_ZN15MemoryAllocator7kmallocEm+0xa0>
            else freeMemHead = blk->next;
    800029e8:	01053783          	ld	a5,16(a0)
    800029ec:	00009697          	auipc	a3,0x9
    800029f0:	34f6b223          	sd	a5,836(a3) # 8000bd30 <_ZN15MemoryAllocator11freeMemHeadE>
    800029f4:	f95ff06f          	j	80002988 <_ZN15MemoryAllocator7kmallocEm+0xa0>
            allocMemHead = allocMemTail = blk;
    800029f8:	00009797          	auipc	a5,0x9
    800029fc:	33078793          	addi	a5,a5,816 # 8000bd28 <_ZN15MemoryAllocator11freeMemTailE>
    80002a00:	00a7b823          	sd	a0,16(a5)
    80002a04:	00a7bc23          	sd	a0,24(a5)
    80002a08:	fadff06f          	j	800029b4 <_ZN15MemoryAllocator7kmallocEm+0xcc>
                    allocMemHead = blk;
    80002a0c:	00009797          	auipc	a5,0x9
    80002a10:	32a7ba23          	sd	a0,820(a5) # 8000bd40 <_ZN15MemoryAllocator12allocMemHeadE>
    80002a14:	fa1ff06f          	j	800029b4 <_ZN15MemoryAllocator7kmallocEm+0xcc>
                allocMemTail->next = blk;
    80002a18:	00009797          	auipc	a5,0x9
    80002a1c:	31078793          	addi	a5,a5,784 # 8000bd28 <_ZN15MemoryAllocator11freeMemTailE>
    80002a20:	0107b703          	ld	a4,16(a5)
    80002a24:	00a73823          	sd	a0,16(a4)
                blk->prev = allocMemTail;
    80002a28:	00e53423          	sd	a4,8(a0)
                blk->next = nullptr;
    80002a2c:	00053823          	sd	zero,16(a0)
                allocMemTail = blk;
    80002a30:	00a7b823          	sd	a0,16(a5)
    80002a34:	f81ff06f          	j	800029b4 <_ZN15MemoryAllocator7kmallocEm+0xcc>
        return nullptr;
    80002a38:	00000513          	li	a0,0
    80002a3c:	f7dff06f          	j	800029b8 <_ZN15MemoryAllocator7kmallocEm+0xd0>

0000000080002a40 <_ZN15MemoryAllocator14insertAndMergeEPvPPNS_11BlockHeaderE>:
        insertAndMerge(blk, &freeMemHead);
    }
    return 0;
}

void MemoryAllocator::insertAndMerge(void *addr, BlockHeader **head) {   //insert a fragment from given address and if the fragment is being freed, try to merge with other fragments
    80002a40:	ff010113          	addi	sp,sp,-16
    80002a44:	00813423          	sd	s0,8(sp)
    80002a48:	01010413          	addi	s0,sp,16
    BlockHeader* blk = (BlockHeader*)addr;
    BlockHeader* iter = *head, *prev=nullptr;
    80002a4c:	0005b783          	ld	a5,0(a1)

    for(prev = nullptr; iter != nullptr; prev = iter, iter = iter->next)
    80002a50:	00000713          	li	a4,0
    80002a54:	00078a63          	beqz	a5,80002a68 <_ZN15MemoryAllocator14insertAndMergeEPvPPNS_11BlockHeaderE+0x28>
        if((uint64)iter >= (uint64)blk) break;
    80002a58:	00a7f863          	bgeu	a5,a0,80002a68 <_ZN15MemoryAllocator14insertAndMergeEPvPPNS_11BlockHeaderE+0x28>
    for(prev = nullptr; iter != nullptr; prev = iter, iter = iter->next)
    80002a5c:	00078713          	mv	a4,a5
    80002a60:	0107b783          	ld	a5,16(a5)
    80002a64:	ff1ff06f          	j	80002a54 <_ZN15MemoryAllocator14insertAndMergeEPvPPNS_11BlockHeaderE+0x14>

    blk->next = iter;
    80002a68:	00f53823          	sd	a5,16(a0)
    blk->prev = prev;
    80002a6c:	00e53423          	sd	a4,8(a0)

    if(iter != nullptr)
    80002a70:	00078463          	beqz	a5,80002a78 <_ZN15MemoryAllocator14insertAndMergeEPvPPNS_11BlockHeaderE+0x38>
        iter->prev = blk;
    80002a74:	00a7b423          	sd	a0,8(a5)

    if(prev == nullptr)
    80002a78:	02070263          	beqz	a4,80002a9c <_ZN15MemoryAllocator14insertAndMergeEPvPPNS_11BlockHeaderE+0x5c>
        *head = blk;
    else
        prev->next = blk;
    80002a7c:	00a73823          	sd	a0,16(a4)

    if(*head == freeMemHead){
    80002a80:	0005b703          	ld	a4,0(a1)
    80002a84:	00009797          	auipc	a5,0x9
    80002a88:	2ac7b783          	ld	a5,684(a5) # 8000bd30 <_ZN15MemoryAllocator11freeMemHeadE>
    80002a8c:	00f70c63          	beq	a4,a5,80002aa4 <_ZN15MemoryAllocator14insertAndMergeEPvPPNS_11BlockHeaderE+0x64>
            if(((uint64)blk->prev + sizeof(BlockHeader) + blk->prev->size) == (uint64)blk){
                blk->prev->size += (size_t)blk->size + sizeof(BlockHeader);
                blk->prev->next = blk->next;
            }
    }
}
    80002a90:	00813403          	ld	s0,8(sp)
    80002a94:	01010113          	addi	sp,sp,16
    80002a98:	00008067          	ret
        *head = blk;
    80002a9c:	00a5b023          	sd	a0,0(a1)
    80002aa0:	fe1ff06f          	j	80002a80 <_ZN15MemoryAllocator14insertAndMergeEPvPPNS_11BlockHeaderE+0x40>
        if(blk->next)   //try to merge with next
    80002aa4:	01053783          	ld	a5,16(a0)
    80002aa8:	00078a63          	beqz	a5,80002abc <_ZN15MemoryAllocator14insertAndMergeEPvPPNS_11BlockHeaderE+0x7c>
            if(((uint64)blk + blk->size + sizeof(BlockHeader)) == (uint64)blk->next){
    80002aac:	00053683          	ld	a3,0(a0)
    80002ab0:	00d50733          	add	a4,a0,a3
    80002ab4:	01870713          	addi	a4,a4,24
    80002ab8:	02f70e63          	beq	a4,a5,80002af4 <_ZN15MemoryAllocator14insertAndMergeEPvPPNS_11BlockHeaderE+0xb4>
        if(blk->prev)   //try to merge with previous
    80002abc:	00853783          	ld	a5,8(a0)
    80002ac0:	fc0788e3          	beqz	a5,80002a90 <_ZN15MemoryAllocator14insertAndMergeEPvPPNS_11BlockHeaderE+0x50>
            if(((uint64)blk->prev + sizeof(BlockHeader) + blk->prev->size) == (uint64)blk){
    80002ac4:	0007b683          	ld	a3,0(a5)
    80002ac8:	00d78733          	add	a4,a5,a3
    80002acc:	01870713          	addi	a4,a4,24
    80002ad0:	fca710e3          	bne	a4,a0,80002a90 <_ZN15MemoryAllocator14insertAndMergeEPvPPNS_11BlockHeaderE+0x50>
                blk->prev->size += (size_t)blk->size + sizeof(BlockHeader);
    80002ad4:	00053703          	ld	a4,0(a0)
    80002ad8:	00e68733          	add	a4,a3,a4
    80002adc:	01870713          	addi	a4,a4,24
    80002ae0:	00e7b023          	sd	a4,0(a5)
                blk->prev->next = blk->next;
    80002ae4:	00853783          	ld	a5,8(a0)
    80002ae8:	01053703          	ld	a4,16(a0)
    80002aec:	00e7b823          	sd	a4,16(a5)
}
    80002af0:	fa1ff06f          	j	80002a90 <_ZN15MemoryAllocator14insertAndMergeEPvPPNS_11BlockHeaderE+0x50>
                blk->size += (uint64)blk->next->size + sizeof(BlockHeader);
    80002af4:	0007b703          	ld	a4,0(a5)
    80002af8:	00e68733          	add	a4,a3,a4
    80002afc:	01870713          	addi	a4,a4,24
    80002b00:	00e53023          	sd	a4,0(a0)
                blk->next = blk->next->next;
    80002b04:	0107b783          	ld	a5,16(a5)
    80002b08:	00f53823          	sd	a5,16(a0)
    80002b0c:	fb1ff06f          	j	80002abc <_ZN15MemoryAllocator14insertAndMergeEPvPPNS_11BlockHeaderE+0x7c>

0000000080002b10 <_ZN15MemoryAllocator5kfreeEPv>:
uint64 MemoryAllocator::kfree(void* ptr){
    80002b10:	00050713          	mv	a4,a0
    BlockHeader *blk = allocMemHead;
    80002b14:	00009697          	auipc	a3,0x9
    80002b18:	22c6b683          	ld	a3,556(a3) # 8000bd40 <_ZN15MemoryAllocator12allocMemHeadE>
    80002b1c:	00068513          	mv	a0,a3
    for(; blk != nullptr;blk = blk->next)
    80002b20:	00050a63          	beqz	a0,80002b34 <_ZN15MemoryAllocator5kfreeEPv+0x24>
        if((uint64)ptr - sizeof(BlockHeader) == (uint64)blk) break;
    80002b24:	fe870793          	addi	a5,a4,-24
    80002b28:	00a78663          	beq	a5,a0,80002b34 <_ZN15MemoryAllocator5kfreeEPv+0x24>
    for(; blk != nullptr;blk = blk->next)
    80002b2c:	01053503          	ld	a0,16(a0)
    80002b30:	ff1ff06f          	j	80002b20 <_ZN15MemoryAllocator5kfreeEPv+0x10>
    if(blk == nullptr)
    80002b34:	08050463          	beqz	a0,80002bbc <_ZN15MemoryAllocator5kfreeEPv+0xac>
uint64 MemoryAllocator::kfree(void* ptr){
    80002b38:	ff010113          	addi	sp,sp,-16
    80002b3c:	00113423          	sd	ra,8(sp)
    80002b40:	00813023          	sd	s0,0(sp)
    80002b44:	01010413          	addi	s0,sp,16
        if(blk == allocMemTail)
    80002b48:	00009797          	auipc	a5,0x9
    80002b4c:	1f07b783          	ld	a5,496(a5) # 8000bd38 <_ZN15MemoryAllocator12allocMemTailE>
    80002b50:	04a78663          	beq	a5,a0,80002b9c <_ZN15MemoryAllocator5kfreeEPv+0x8c>
        if(blk == allocMemHead)
    80002b54:	04d50c63          	beq	a0,a3,80002bac <_ZN15MemoryAllocator5kfreeEPv+0x9c>
        if(blk->next)
    80002b58:	01053783          	ld	a5,16(a0)
    80002b5c:	00078663          	beqz	a5,80002b68 <_ZN15MemoryAllocator5kfreeEPv+0x58>
            blk->next->prev = blk->prev;
    80002b60:	00853703          	ld	a4,8(a0)
    80002b64:	00e7b423          	sd	a4,8(a5)
        if(blk->prev)
    80002b68:	00853783          	ld	a5,8(a0)
    80002b6c:	00078663          	beqz	a5,80002b78 <_ZN15MemoryAllocator5kfreeEPv+0x68>
            blk->prev->next = blk->next;
    80002b70:	01053703          	ld	a4,16(a0)
    80002b74:	00e7b823          	sd	a4,16(a5)
        insertAndMerge(blk, &freeMemHead);
    80002b78:	00009597          	auipc	a1,0x9
    80002b7c:	1b858593          	addi	a1,a1,440 # 8000bd30 <_ZN15MemoryAllocator11freeMemHeadE>
    80002b80:	00000097          	auipc	ra,0x0
    80002b84:	ec0080e7          	jalr	-320(ra) # 80002a40 <_ZN15MemoryAllocator14insertAndMergeEPvPPNS_11BlockHeaderE>
    return 0;
    80002b88:	00000513          	li	a0,0
}
    80002b8c:	00813083          	ld	ra,8(sp)
    80002b90:	00013403          	ld	s0,0(sp)
    80002b94:	01010113          	addi	sp,sp,16
    80002b98:	00008067          	ret
            allocMemTail = blk->prev;
    80002b9c:	00853783          	ld	a5,8(a0)
    80002ba0:	00009717          	auipc	a4,0x9
    80002ba4:	18f73c23          	sd	a5,408(a4) # 8000bd38 <_ZN15MemoryAllocator12allocMemTailE>
    80002ba8:	fadff06f          	j	80002b54 <_ZN15MemoryAllocator5kfreeEPv+0x44>
            allocMemHead = blk->next;
    80002bac:	01053783          	ld	a5,16(a0)
    80002bb0:	00009717          	auipc	a4,0x9
    80002bb4:	18f73823          	sd	a5,400(a4) # 8000bd40 <_ZN15MemoryAllocator12allocMemHeadE>
    80002bb8:	fa1ff06f          	j	80002b58 <_ZN15MemoryAllocator5kfreeEPv+0x48>
        return -1;
    80002bbc:	fff00513          	li	a0,-1
}
    80002bc0:	00008067          	ret

0000000080002bc4 <_ZN15MemoryAllocator10showMemoryEv>:

void MemoryAllocator::showMemory() {
    80002bc4:	fe010113          	addi	sp,sp,-32
    80002bc8:	00113c23          	sd	ra,24(sp)
    80002bcc:	00813823          	sd	s0,16(sp)
    80002bd0:	00913423          	sd	s1,8(sp)
    80002bd4:	02010413          	addi	s0,sp,32
    BlockHeader *iter = allocMemHead;
    80002bd8:	00009497          	auipc	s1,0x9
    80002bdc:	1684b483          	ld	s1,360(s1) # 8000bd40 <_ZN15MemoryAllocator12allocMemHeadE>
    printString("NOW SHOWING ALLOCATED MEMORY\n");
    80002be0:	00006517          	auipc	a0,0x6
    80002be4:	54050513          	addi	a0,a0,1344 # 80009120 <CONSOLE_STATUS+0x110>
    80002be8:	fffff097          	auipc	ra,0xfffff
    80002bec:	494080e7          	jalr	1172(ra) # 8000207c <_Z11printStringPKc>
    while(iter!=nullptr){
    80002bf0:	04048663          	beqz	s1,80002c3c <_ZN15MemoryAllocator10showMemoryEv+0x78>
        printInt((uint64)iter);
    80002bf4:	00000613          	li	a2,0
    80002bf8:	00a00593          	li	a1,10
    80002bfc:	0004851b          	sext.w	a0,s1
    80002c00:	fffff097          	auipc	ra,0xfffff
    80002c04:	614080e7          	jalr	1556(ra) # 80002214 <_Z8printIntiii>
        putc(' ');
    80002c08:	02000513          	li	a0,32
    80002c0c:	fffff097          	auipc	ra,0xfffff
    80002c10:	cc8080e7          	jalr	-824(ra) # 800018d4 <_Z4putcc>
        printInt(iter->size);
    80002c14:	00000613          	li	a2,0
    80002c18:	00a00593          	li	a1,10
    80002c1c:	0004a503          	lw	a0,0(s1)
    80002c20:	fffff097          	auipc	ra,0xfffff
    80002c24:	5f4080e7          	jalr	1524(ra) # 80002214 <_Z8printIntiii>
        putc('\n');
    80002c28:	00a00513          	li	a0,10
    80002c2c:	fffff097          	auipc	ra,0xfffff
    80002c30:	ca8080e7          	jalr	-856(ra) # 800018d4 <_Z4putcc>
        iter=iter->next;
    80002c34:	0104b483          	ld	s1,16(s1)
    while(iter!=nullptr){
    80002c38:	fb9ff06f          	j	80002bf0 <_ZN15MemoryAllocator10showMemoryEv+0x2c>
    }

    printString("NOW SHOWING FREE MEMORY\n");
    80002c3c:	00006517          	auipc	a0,0x6
    80002c40:	50450513          	addi	a0,a0,1284 # 80009140 <CONSOLE_STATUS+0x130>
    80002c44:	fffff097          	auipc	ra,0xfffff
    80002c48:	438080e7          	jalr	1080(ra) # 8000207c <_Z11printStringPKc>
    iter = freeMemHead;
    80002c4c:	00009497          	auipc	s1,0x9
    80002c50:	0e44b483          	ld	s1,228(s1) # 8000bd30 <_ZN15MemoryAllocator11freeMemHeadE>
    while(iter!=nullptr){
    80002c54:	04048663          	beqz	s1,80002ca0 <_ZN15MemoryAllocator10showMemoryEv+0xdc>
        printInt((uint64)iter);
    80002c58:	00000613          	li	a2,0
    80002c5c:	00a00593          	li	a1,10
    80002c60:	0004851b          	sext.w	a0,s1
    80002c64:	fffff097          	auipc	ra,0xfffff
    80002c68:	5b0080e7          	jalr	1456(ra) # 80002214 <_Z8printIntiii>
        putc(' ');
    80002c6c:	02000513          	li	a0,32
    80002c70:	fffff097          	auipc	ra,0xfffff
    80002c74:	c64080e7          	jalr	-924(ra) # 800018d4 <_Z4putcc>
        printInt(iter->size);
    80002c78:	00000613          	li	a2,0
    80002c7c:	00a00593          	li	a1,10
    80002c80:	0004a503          	lw	a0,0(s1)
    80002c84:	fffff097          	auipc	ra,0xfffff
    80002c88:	590080e7          	jalr	1424(ra) # 80002214 <_Z8printIntiii>
        putc('\n');
    80002c8c:	00a00513          	li	a0,10
    80002c90:	fffff097          	auipc	ra,0xfffff
    80002c94:	c44080e7          	jalr	-956(ra) # 800018d4 <_Z4putcc>
        iter=iter->next;
    80002c98:	0104b483          	ld	s1,16(s1)
    while(iter!=nullptr){
    80002c9c:	fb9ff06f          	j	80002c54 <_ZN15MemoryAllocator10showMemoryEv+0x90>
    }
    printString("================================================================\n");
    80002ca0:	00006517          	auipc	a0,0x6
    80002ca4:	4c050513          	addi	a0,a0,1216 # 80009160 <CONSOLE_STATUS+0x150>
    80002ca8:	fffff097          	auipc	ra,0xfffff
    80002cac:	3d4080e7          	jalr	980(ra) # 8000207c <_Z11printStringPKc>
}
    80002cb0:	01813083          	ld	ra,24(sp)
    80002cb4:	01013403          	ld	s0,16(sp)
    80002cb8:	00813483          	ld	s1,8(sp)
    80002cbc:	02010113          	addi	sp,sp,32
    80002cc0:	00008067          	ret

0000000080002cc4 <_ZN15MemoryAllocator6memcpyEPvS0_m>:


void* MemoryAllocator::memcpy(void *src, void *dst, uint64 len) {
    80002cc4:	ff010113          	addi	sp,sp,-16
    80002cc8:	00813423          	sd	s0,8(sp)
    80002ccc:	01010413          	addi	s0,sp,16
    80002cd0:	00050813          	mv	a6,a0
    80002cd4:	00058513          	mv	a0,a1
    char *csrc = (char*)src;
    char *cdst = (char*)dst;

    for(uint64 i=0;i<len;i++)
    80002cd8:	00000793          	li	a5,0
    80002cdc:	00c7fe63          	bgeu	a5,a2,80002cf8 <_ZN15MemoryAllocator6memcpyEPvS0_m+0x34>
        cdst[i] = csrc[i];
    80002ce0:	00f50733          	add	a4,a0,a5
    80002ce4:	00f806b3          	add	a3,a6,a5
    80002ce8:	0006c683          	lbu	a3,0(a3)
    80002cec:	00d70023          	sb	a3,0(a4)
    for(uint64 i=0;i<len;i++)
    80002cf0:	00178793          	addi	a5,a5,1
    80002cf4:	fe9ff06f          	j	80002cdc <_ZN15MemoryAllocator6memcpyEPvS0_m+0x18>

    return dst;
    80002cf8:	00813403          	ld	s0,8(sp)
    80002cfc:	01010113          	addi	sp,sp,16
    80002d00:	00008067          	ret

0000000080002d04 <_ZN6Thread7wrapperEPv>:

Thread::Thread(void (*body)(void*), void *arg) {
    thread_attach_body(&myHandle, body, arg);
}

void Thread::wrapper(void *arg) {
    80002d04:	ff010113          	addi	sp,sp,-16
    80002d08:	00113423          	sd	ra,8(sp)
    80002d0c:	00813023          	sd	s0,0(sp)
    80002d10:	01010413          	addi	s0,sp,16
    Thread* thr = (Thread*)arg;
    thr->run();
    80002d14:	00053783          	ld	a5,0(a0)
    80002d18:	0107b783          	ld	a5,16(a5)
    80002d1c:	000780e7          	jalr	a5
}
    80002d20:	00813083          	ld	ra,8(sp)
    80002d24:	00013403          	ld	s0,0(sp)
    80002d28:	01010113          	addi	sp,sp,16
    80002d2c:	00008067          	ret

0000000080002d30 <_ZN9SemaphoreD1Ev>:
Semaphore::~Semaphore(){
    80002d30:	ff010113          	addi	sp,sp,-16
    80002d34:	00113423          	sd	ra,8(sp)
    80002d38:	00813023          	sd	s0,0(sp)
    80002d3c:	01010413          	addi	s0,sp,16
    80002d40:	00009797          	auipc	a5,0x9
    80002d44:	c2878793          	addi	a5,a5,-984 # 8000b968 <_ZTV9Semaphore+0x10>
    80002d48:	00f53023          	sd	a5,0(a0)
    sem_close(myHandle);
    80002d4c:	00853503          	ld	a0,8(a0)
    80002d50:	fffff097          	auipc	ra,0xfffff
    80002d54:	aac080e7          	jalr	-1364(ra) # 800017fc <_Z9sem_closeP10_semaphore>
};
    80002d58:	00813083          	ld	ra,8(sp)
    80002d5c:	00013403          	ld	s0,0(sp)
    80002d60:	01010113          	addi	sp,sp,16
    80002d64:	00008067          	ret

0000000080002d68 <_ZN6ThreadD1Ev>:

int Thread::start() {
    return thread_start(myHandle);
}

Thread::~Thread() {
    80002d68:	00009797          	auipc	a5,0x9
    80002d6c:	c2078793          	addi	a5,a5,-992 # 8000b988 <_ZTV6Thread+0x10>
    80002d70:	00f53023          	sd	a5,0(a0)
    delete myHandle;
    80002d74:	00853503          	ld	a0,8(a0)
    80002d78:	02050663          	beqz	a0,80002da4 <_ZN6ThreadD1Ev+0x3c>
Thread::~Thread() {
    80002d7c:	ff010113          	addi	sp,sp,-16
    80002d80:	00113423          	sd	ra,8(sp)
    80002d84:	00813023          	sd	s0,0(sp)
    80002d88:	01010413          	addi	s0,sp,16
    delete myHandle;
    80002d8c:	fffff097          	auipc	ra,0xfffff
    80002d90:	bbc080e7          	jalr	-1092(ra) # 80001948 <_ZN7_threaddlEPv>
}
    80002d94:	00813083          	ld	ra,8(sp)
    80002d98:	00013403          	ld	s0,0(sp)
    80002d9c:	01010113          	addi	sp,sp,16
    80002da0:	00008067          	ret
    80002da4:	00008067          	ret

0000000080002da8 <_Znwm>:
void* operator new(size_t sz){
    80002da8:	ff010113          	addi	sp,sp,-16
    80002dac:	00113423          	sd	ra,8(sp)
    80002db0:	00813023          	sd	s0,0(sp)
    80002db4:	01010413          	addi	s0,sp,16
    return mem_alloc(sz);
    80002db8:	fffff097          	auipc	ra,0xfffff
    80002dbc:	844080e7          	jalr	-1980(ra) # 800015fc <_Z9mem_allocm>
}
    80002dc0:	00813083          	ld	ra,8(sp)
    80002dc4:	00013403          	ld	s0,0(sp)
    80002dc8:	01010113          	addi	sp,sp,16
    80002dcc:	00008067          	ret

0000000080002dd0 <_Znam>:
void* operator new[](size_t sz){
    80002dd0:	ff010113          	addi	sp,sp,-16
    80002dd4:	00113423          	sd	ra,8(sp)
    80002dd8:	00813023          	sd	s0,0(sp)
    80002ddc:	01010413          	addi	s0,sp,16
    return mem_alloc(sz);
    80002de0:	fffff097          	auipc	ra,0xfffff
    80002de4:	81c080e7          	jalr	-2020(ra) # 800015fc <_Z9mem_allocm>
}
    80002de8:	00813083          	ld	ra,8(sp)
    80002dec:	00013403          	ld	s0,0(sp)
    80002df0:	01010113          	addi	sp,sp,16
    80002df4:	00008067          	ret

0000000080002df8 <_ZdlPv>:
void operator delete(void *ptr){
    80002df8:	ff010113          	addi	sp,sp,-16
    80002dfc:	00113423          	sd	ra,8(sp)
    80002e00:	00813023          	sd	s0,0(sp)
    80002e04:	01010413          	addi	s0,sp,16
    mem_free(ptr);
    80002e08:	fffff097          	auipc	ra,0xfffff
    80002e0c:	824080e7          	jalr	-2012(ra) # 8000162c <_Z8mem_freePv>
}
    80002e10:	00813083          	ld	ra,8(sp)
    80002e14:	00013403          	ld	s0,0(sp)
    80002e18:	01010113          	addi	sp,sp,16
    80002e1c:	00008067          	ret

0000000080002e20 <_ZN9SemaphoreD0Ev>:
Semaphore::~Semaphore(){
    80002e20:	fe010113          	addi	sp,sp,-32
    80002e24:	00113c23          	sd	ra,24(sp)
    80002e28:	00813823          	sd	s0,16(sp)
    80002e2c:	00913423          	sd	s1,8(sp)
    80002e30:	02010413          	addi	s0,sp,32
    80002e34:	00050493          	mv	s1,a0
};
    80002e38:	00000097          	auipc	ra,0x0
    80002e3c:	ef8080e7          	jalr	-264(ra) # 80002d30 <_ZN9SemaphoreD1Ev>
    80002e40:	00048513          	mv	a0,s1
    80002e44:	00000097          	auipc	ra,0x0
    80002e48:	fb4080e7          	jalr	-76(ra) # 80002df8 <_ZdlPv>
    80002e4c:	01813083          	ld	ra,24(sp)
    80002e50:	01013403          	ld	s0,16(sp)
    80002e54:	00813483          	ld	s1,8(sp)
    80002e58:	02010113          	addi	sp,sp,32
    80002e5c:	00008067          	ret

0000000080002e60 <_ZN6ThreadD0Ev>:
Thread::~Thread() {
    80002e60:	fe010113          	addi	sp,sp,-32
    80002e64:	00113c23          	sd	ra,24(sp)
    80002e68:	00813823          	sd	s0,16(sp)
    80002e6c:	00913423          	sd	s1,8(sp)
    80002e70:	02010413          	addi	s0,sp,32
    80002e74:	00050493          	mv	s1,a0
}
    80002e78:	00000097          	auipc	ra,0x0
    80002e7c:	ef0080e7          	jalr	-272(ra) # 80002d68 <_ZN6ThreadD1Ev>
    80002e80:	00048513          	mv	a0,s1
    80002e84:	00000097          	auipc	ra,0x0
    80002e88:	f74080e7          	jalr	-140(ra) # 80002df8 <_ZdlPv>
    80002e8c:	01813083          	ld	ra,24(sp)
    80002e90:	01013403          	ld	s0,16(sp)
    80002e94:	00813483          	ld	s1,8(sp)
    80002e98:	02010113          	addi	sp,sp,32
    80002e9c:	00008067          	ret

0000000080002ea0 <_ZN9SemaphoreC1Ej>:
Semaphore::Semaphore(unsigned int init) {
    80002ea0:	ff010113          	addi	sp,sp,-16
    80002ea4:	00113423          	sd	ra,8(sp)
    80002ea8:	00813023          	sd	s0,0(sp)
    80002eac:	01010413          	addi	s0,sp,16
    80002eb0:	00009797          	auipc	a5,0x9
    80002eb4:	ab878793          	addi	a5,a5,-1352 # 8000b968 <_ZTV9Semaphore+0x10>
    80002eb8:	00f53023          	sd	a5,0(a0)
    sem_open(&myHandle, init);
    80002ebc:	00850513          	addi	a0,a0,8
    80002ec0:	fffff097          	auipc	ra,0xfffff
    80002ec4:	904080e7          	jalr	-1788(ra) # 800017c4 <_Z8sem_openPP10_semaphorej>
}
    80002ec8:	00813083          	ld	ra,8(sp)
    80002ecc:	00013403          	ld	s0,0(sp)
    80002ed0:	01010113          	addi	sp,sp,16
    80002ed4:	00008067          	ret

0000000080002ed8 <_ZN9Semaphore4waitEv>:
int Semaphore::wait(){
    80002ed8:	ff010113          	addi	sp,sp,-16
    80002edc:	00113423          	sd	ra,8(sp)
    80002ee0:	00813023          	sd	s0,0(sp)
    80002ee4:	01010413          	addi	s0,sp,16
    return sem_wait(myHandle);
    80002ee8:	00853503          	ld	a0,8(a0)
    80002eec:	fffff097          	auipc	ra,0xfffff
    80002ef0:	93c080e7          	jalr	-1732(ra) # 80001828 <_Z8sem_waitP10_semaphore>
}
    80002ef4:	00813083          	ld	ra,8(sp)
    80002ef8:	00013403          	ld	s0,0(sp)
    80002efc:	01010113          	addi	sp,sp,16
    80002f00:	00008067          	ret

0000000080002f04 <_ZN9Semaphore6signalEv>:
int Semaphore::signal() {
    80002f04:	ff010113          	addi	sp,sp,-16
    80002f08:	00113423          	sd	ra,8(sp)
    80002f0c:	00813023          	sd	s0,0(sp)
    80002f10:	01010413          	addi	s0,sp,16
    return sem_signal(myHandle);
    80002f14:	00853503          	ld	a0,8(a0)
    80002f18:	fffff097          	auipc	ra,0xfffff
    80002f1c:	93c080e7          	jalr	-1732(ra) # 80001854 <_Z10sem_signalP10_semaphore>
}
    80002f20:	00813083          	ld	ra,8(sp)
    80002f24:	00013403          	ld	s0,0(sp)
    80002f28:	01010113          	addi	sp,sp,16
    80002f2c:	00008067          	ret

0000000080002f30 <_ZN6ThreadC1EPFvPvES0_>:
Thread::Thread(void (*body)(void*), void *arg) {
    80002f30:	ff010113          	addi	sp,sp,-16
    80002f34:	00113423          	sd	ra,8(sp)
    80002f38:	00813023          	sd	s0,0(sp)
    80002f3c:	01010413          	addi	s0,sp,16
    80002f40:	00009797          	auipc	a5,0x9
    80002f44:	a4878793          	addi	a5,a5,-1464 # 8000b988 <_ZTV6Thread+0x10>
    80002f48:	00f53023          	sd	a5,0(a0)
    thread_attach_body(&myHandle, body, arg);
    80002f4c:	00850513          	addi	a0,a0,8
    80002f50:	ffffe097          	auipc	ra,0xffffe
    80002f54:	7cc080e7          	jalr	1996(ra) # 8000171c <_Z18thread_attach_bodyPP7_threadPFvPvES2_>
}
    80002f58:	00813083          	ld	ra,8(sp)
    80002f5c:	00013403          	ld	s0,0(sp)
    80002f60:	01010113          	addi	sp,sp,16
    80002f64:	00008067          	ret

0000000080002f68 <_ZN6ThreadC1Ev>:
Thread::Thread() {
    80002f68:	ff010113          	addi	sp,sp,-16
    80002f6c:	00113423          	sd	ra,8(sp)
    80002f70:	00813023          	sd	s0,0(sp)
    80002f74:	01010413          	addi	s0,sp,16
    80002f78:	00009797          	auipc	a5,0x9
    80002f7c:	a1078793          	addi	a5,a5,-1520 # 8000b988 <_ZTV6Thread+0x10>
    80002f80:	00f53023          	sd	a5,0(a0)
    thread_attach_body(&myHandle, &Thread::wrapper, this);
    80002f84:	00050613          	mv	a2,a0
    80002f88:	00000597          	auipc	a1,0x0
    80002f8c:	d7c58593          	addi	a1,a1,-644 # 80002d04 <_ZN6Thread7wrapperEPv>
    80002f90:	00850513          	addi	a0,a0,8
    80002f94:	ffffe097          	auipc	ra,0xffffe
    80002f98:	788080e7          	jalr	1928(ra) # 8000171c <_Z18thread_attach_bodyPP7_threadPFvPvES2_>
}
    80002f9c:	00813083          	ld	ra,8(sp)
    80002fa0:	00013403          	ld	s0,0(sp)
    80002fa4:	01010113          	addi	sp,sp,16
    80002fa8:	00008067          	ret

0000000080002fac <_ZN6Thread5sleepEm>:
int Thread::sleep(time_t time) {
    80002fac:	ff010113          	addi	sp,sp,-16
    80002fb0:	00113423          	sd	ra,8(sp)
    80002fb4:	00813023          	sd	s0,0(sp)
    80002fb8:	01010413          	addi	s0,sp,16
    return time_sleep(time);
    80002fbc:	fffff097          	auipc	ra,0xfffff
    80002fc0:	8c4080e7          	jalr	-1852(ra) # 80001880 <_Z10time_sleepm>
}
    80002fc4:	00813083          	ld	ra,8(sp)
    80002fc8:	00013403          	ld	s0,0(sp)
    80002fcc:	01010113          	addi	sp,sp,16
    80002fd0:	00008067          	ret

0000000080002fd4 <_ZN14PeriodicThread7wrapperEPv>:

PeriodicThread::PeriodicThread(time_t period) : Thread(&PeriodicThread::wrapper, new Args((void*)this, period)){}

void PeriodicThread::wrapper(void *arg) {
    80002fd4:	fe010113          	addi	sp,sp,-32
    80002fd8:	00113c23          	sd	ra,24(sp)
    80002fdc:	00813823          	sd	s0,16(sp)
    80002fe0:	00913423          	sd	s1,8(sp)
    80002fe4:	01213023          	sd	s2,0(sp)
    80002fe8:	02010413          	addi	s0,sp,32
    PeriodicThread *pt =(PeriodicThread*) ((Args*)arg)->pt;
    80002fec:	00053483          	ld	s1,0(a0)
    uint64 time = ((Args*)arg)->time;
    80002ff0:	00853903          	ld	s2,8(a0)

    while(true){
        pt->periodicActivation();
    80002ff4:	0004b783          	ld	a5,0(s1)
    80002ff8:	0187b783          	ld	a5,24(a5)
    80002ffc:	00048513          	mv	a0,s1
    80003000:	000780e7          	jalr	a5
        pt->sleep(time);
    80003004:	00090513          	mv	a0,s2
    80003008:	00000097          	auipc	ra,0x0
    8000300c:	fa4080e7          	jalr	-92(ra) # 80002fac <_ZN6Thread5sleepEm>
    while(true){
    80003010:	fe5ff06f          	j	80002ff4 <_ZN14PeriodicThread7wrapperEPv+0x20>

0000000080003014 <_ZN6Thread8dispatchEv>:
void Thread::dispatch() {
    80003014:	ff010113          	addi	sp,sp,-16
    80003018:	00113423          	sd	ra,8(sp)
    8000301c:	00813023          	sd	s0,0(sp)
    80003020:	01010413          	addi	s0,sp,16
    thread_dispatch();
    80003024:	ffffe097          	auipc	ra,0xffffe
    80003028:	6d8080e7          	jalr	1752(ra) # 800016fc <_Z15thread_dispatchv>
}
    8000302c:	00813083          	ld	ra,8(sp)
    80003030:	00013403          	ld	s0,0(sp)
    80003034:	01010113          	addi	sp,sp,16
    80003038:	00008067          	ret

000000008000303c <_ZN6Thread5startEv>:
int Thread::start() {
    8000303c:	ff010113          	addi	sp,sp,-16
    80003040:	00113423          	sd	ra,8(sp)
    80003044:	00813023          	sd	s0,0(sp)
    80003048:	01010413          	addi	s0,sp,16
    return thread_start(myHandle);
    8000304c:	00853503          	ld	a0,8(a0)
    80003050:	ffffe097          	auipc	ra,0xffffe
    80003054:	748080e7          	jalr	1864(ra) # 80001798 <_Z12thread_startP7_thread>
}
    80003058:	00813083          	ld	ra,8(sp)
    8000305c:	00013403          	ld	s0,0(sp)
    80003060:	01010113          	addi	sp,sp,16
    80003064:	00008067          	ret

0000000080003068 <_ZN14PeriodicThreadC1Em>:
PeriodicThread::PeriodicThread(time_t period) : Thread(&PeriodicThread::wrapper, new Args((void*)this, period)){}
    80003068:	fe010113          	addi	sp,sp,-32
    8000306c:	00113c23          	sd	ra,24(sp)
    80003070:	00813823          	sd	s0,16(sp)
    80003074:	00913423          	sd	s1,8(sp)
    80003078:	01213023          	sd	s2,0(sp)
    8000307c:	02010413          	addi	s0,sp,32
    80003080:	00050493          	mv	s1,a0
    80003084:	00058913          	mv	s2,a1
    80003088:	01000513          	li	a0,16
    8000308c:	00000097          	auipc	ra,0x0
    80003090:	d1c080e7          	jalr	-740(ra) # 80002da8 <_Znwm>
    80003094:	00050613          	mv	a2,a0
    Args(void *p, uint64 t) : pt(p), time(t){}
    80003098:	00953023          	sd	s1,0(a0)
    8000309c:	01253423          	sd	s2,8(a0)
PeriodicThread::PeriodicThread(time_t period) : Thread(&PeriodicThread::wrapper, new Args((void*)this, period)){}
    800030a0:	00000597          	auipc	a1,0x0
    800030a4:	f3458593          	addi	a1,a1,-204 # 80002fd4 <_ZN14PeriodicThread7wrapperEPv>
    800030a8:	00048513          	mv	a0,s1
    800030ac:	00000097          	auipc	ra,0x0
    800030b0:	e84080e7          	jalr	-380(ra) # 80002f30 <_ZN6ThreadC1EPFvPvES0_>
    800030b4:	00009797          	auipc	a5,0x9
    800030b8:	88478793          	addi	a5,a5,-1916 # 8000b938 <_ZTV14PeriodicThread+0x10>
    800030bc:	00f4b023          	sd	a5,0(s1)
    800030c0:	01813083          	ld	ra,24(sp)
    800030c4:	01013403          	ld	s0,16(sp)
    800030c8:	00813483          	ld	s1,8(sp)
    800030cc:	00013903          	ld	s2,0(sp)
    800030d0:	02010113          	addi	sp,sp,32
    800030d4:	00008067          	ret

00000000800030d8 <_ZN7Console4getcEv>:
    }
}

char Console::getc() {
    800030d8:	ff010113          	addi	sp,sp,-16
    800030dc:	00113423          	sd	ra,8(sp)
    800030e0:	00813023          	sd	s0,0(sp)
    800030e4:	01010413          	addi	s0,sp,16
    return ::getc();
    800030e8:	ffffe097          	auipc	ra,0xffffe
    800030ec:	7c4080e7          	jalr	1988(ra) # 800018ac <_Z4getcv>
}
    800030f0:	00813083          	ld	ra,8(sp)
    800030f4:	00013403          	ld	s0,0(sp)
    800030f8:	01010113          	addi	sp,sp,16
    800030fc:	00008067          	ret

0000000080003100 <_ZN7Console4putcEc>:

void Console::putc(char c) {
    80003100:	ff010113          	addi	sp,sp,-16
    80003104:	00113423          	sd	ra,8(sp)
    80003108:	00813023          	sd	s0,0(sp)
    8000310c:	01010413          	addi	s0,sp,16
    ::putc(c);
    80003110:	ffffe097          	auipc	ra,0xffffe
    80003114:	7c4080e7          	jalr	1988(ra) # 800018d4 <_Z4putcc>
}
    80003118:	00813083          	ld	ra,8(sp)
    8000311c:	00013403          	ld	s0,0(sp)
    80003120:	01010113          	addi	sp,sp,16
    80003124:	00008067          	ret

0000000080003128 <_ZN6Thread3runEv>:
    static void dispatch();
    static int sleep(time_t time);

protected:
    Thread();
    virtual void run(){}
    80003128:	ff010113          	addi	sp,sp,-16
    8000312c:	00813423          	sd	s0,8(sp)
    80003130:	01010413          	addi	s0,sp,16
    80003134:	00813403          	ld	s0,8(sp)
    80003138:	01010113          	addi	sp,sp,16
    8000313c:	00008067          	ret

0000000080003140 <_ZN14PeriodicThread18periodicActivationEv>:

class PeriodicThread : public Thread{
    static void wrapper(void *arg);
protected:
    PeriodicThread(time_t period);
    virtual void periodicActivation(){}
    80003140:	ff010113          	addi	sp,sp,-16
    80003144:	00813423          	sd	s0,8(sp)
    80003148:	01010413          	addi	s0,sp,16
    8000314c:	00813403          	ld	s0,8(sp)
    80003150:	01010113          	addi	sp,sp,16
    80003154:	00008067          	ret

0000000080003158 <_ZN14PeriodicThreadD1Ev>:
class PeriodicThread : public Thread{
    80003158:	ff010113          	addi	sp,sp,-16
    8000315c:	00113423          	sd	ra,8(sp)
    80003160:	00813023          	sd	s0,0(sp)
    80003164:	01010413          	addi	s0,sp,16
    80003168:	00008797          	auipc	a5,0x8
    8000316c:	7d078793          	addi	a5,a5,2000 # 8000b938 <_ZTV14PeriodicThread+0x10>
    80003170:	00f53023          	sd	a5,0(a0)
    80003174:	00000097          	auipc	ra,0x0
    80003178:	bf4080e7          	jalr	-1036(ra) # 80002d68 <_ZN6ThreadD1Ev>
    8000317c:	00813083          	ld	ra,8(sp)
    80003180:	00013403          	ld	s0,0(sp)
    80003184:	01010113          	addi	sp,sp,16
    80003188:	00008067          	ret

000000008000318c <_ZN14PeriodicThreadD0Ev>:
    8000318c:	fe010113          	addi	sp,sp,-32
    80003190:	00113c23          	sd	ra,24(sp)
    80003194:	00813823          	sd	s0,16(sp)
    80003198:	00913423          	sd	s1,8(sp)
    8000319c:	02010413          	addi	s0,sp,32
    800031a0:	00050493          	mv	s1,a0
    800031a4:	00008797          	auipc	a5,0x8
    800031a8:	79478793          	addi	a5,a5,1940 # 8000b938 <_ZTV14PeriodicThread+0x10>
    800031ac:	00f53023          	sd	a5,0(a0)
    800031b0:	00000097          	auipc	ra,0x0
    800031b4:	bb8080e7          	jalr	-1096(ra) # 80002d68 <_ZN6ThreadD1Ev>
    800031b8:	00048513          	mv	a0,s1
    800031bc:	00000097          	auipc	ra,0x0
    800031c0:	c3c080e7          	jalr	-964(ra) # 80002df8 <_ZdlPv>
    800031c4:	01813083          	ld	ra,24(sp)
    800031c8:	01013403          	ld	s0,16(sp)
    800031cc:	00813483          	ld	s1,8(sp)
    800031d0:	02010113          	addi	sp,sp,32
    800031d4:	00008067          	ret

00000000800031d8 <_ZN5RiscV10initializeEv>:

uint64 RiscV::globalTime = 0;
bool RiscV::userMainFinished = false;

//initailize each of the key components and switch to user mode for user code execution
void RiscV::initialize(){
    800031d8:	ff010113          	addi	sp,sp,-16
    800031dc:	00113423          	sd	ra,8(sp)
    800031e0:	00813023          	sd	s0,0(sp)
    800031e4:	01010413          	addi	s0,sp,16
    RiscV::w_stvec((uint64) &RiscV::supervisorTrap);
    800031e8:	00009797          	auipc	a5,0x9
    800031ec:	9187b783          	ld	a5,-1768(a5) # 8000bb00 <_GLOBAL_OFFSET_TABLE_+0x70>
    asm("csrr %[sstatus], sstatus" : [sstatus] "=r" (sstatus));
    return sstatus;
}

inline void RiscV::w_stvec(uint64 stvec){
    asm("csrw stvec, %[stvec]" : : [stvec] "r" (stvec));
    800031f0:	10579073          	csrw	stvec,a5
    MemoryAllocator::initialize();
    800031f4:	fffff097          	auipc	ra,0xfffff
    800031f8:	674080e7          	jalr	1652(ra) # 80002868 <_ZN15MemoryAllocator10initializeEv>
    Scheduler::initialize();
    800031fc:	00001097          	auipc	ra,0x1
    80003200:	ef4080e7          	jalr	-268(ra) # 800040f0 <_ZN9Scheduler10initializeEv>
    TCB::initialize();
    80003204:	fffff097          	auipc	ra,0xfffff
    80003208:	544080e7          	jalr	1348(ra) # 80002748 <_ZN3TCB10initializeEv>
    ConsoleUtil::initialize();
    8000320c:	00001097          	auipc	ra,0x1
    80003210:	0f8080e7          	jalr	248(ra) # 80004304 <_ZN11ConsoleUtil10initializeEv>
    SlabAllocator::initialize(BUDDY_START_ADDR_CONST, 4096);
    80003214:	00009797          	auipc	a5,0x9
    80003218:	8947b783          	ld	a5,-1900(a5) # 8000baa8 <_GLOBAL_OFFSET_TABLE_+0x18>
    8000321c:	0007b503          	ld	a0,0(a5)
    80003220:	00c55513          	srli	a0,a0,0xc
    80003224:	00250513          	addi	a0,a0,2
    80003228:	000015b7          	lui	a1,0x1
    8000322c:	00c51513          	slli	a0,a0,0xc
    80003230:	ffffe097          	auipc	ra,0xffffe
    80003234:	334080e7          	jalr	820(ra) # 80001564 <_ZN13SlabAllocator10initializeEPvm>
inline void  RiscV::mc_sip(uint64 mask) {
    asm("csrc sip, %[mask]" : : [mask] "r" (mask));
}

inline void  RiscV::ms_sie(uint64 mask) {
    asm("csrs sie, %[mask]" : : [mask] "r" (mask));
    80003238:	00200793          	li	a5,2
    8000323c:	1047a073          	csrs	sie,a5
    80003240:	20000713          	li	a4,512
    80003244:	10472073          	csrs	sie,a4
    asm("csrs sstatus, %[mask]" : : [mask] "r" (mask));
    80003248:	1007a073          	csrs	sstatus,a5
    RiscV::enableInterrupts();
//    RiscV::enableHardwareInterrupts();
}
    8000324c:	00813083          	ld	ra,8(sp)
    80003250:	00013403          	ld	s0,0(sp)
    80003254:	01010113          	addi	sp,sp,16
    80003258:	00008067          	ret

000000008000325c <_ZN5RiscV10popSppSpieEv>:

//get previous privilege and previous interrupt status
void RiscV::popSppSpie() {
    8000325c:	ff010113          	addi	sp,sp,-16
    80003260:	00813423          	sd	s0,8(sp)
    80003264:	01010413          	addi	s0,sp,16
    asm("csrw sepc, ra");
    80003268:	14109073          	csrw	sepc,ra
    asm("sret");
    8000326c:	10200073          	sret
}
    80003270:	00813403          	ld	s0,8(sp)
    80003274:	01010113          	addi	sp,sp,16
    80003278:	00008067          	ret

000000008000327c <_ZN5RiscV28executeThreadDispatchSyscallEv>:
    asm("mv a0, %[status]" : : [status] "r" (status));

    RiscV::saveA0toSscratch();
}

void RiscV::executeThreadDispatchSyscall(){
    8000327c:	ff010113          	addi	sp,sp,-16
    80003280:	00113423          	sd	ra,8(sp)
    80003284:	00813023          	sd	s0,0(sp)
    80003288:	01010413          	addi	s0,sp,16

    //dispatch current running thread
    TCB* old = TCB::running;
    8000328c:	00009797          	auipc	a5,0x9
    80003290:	8947b783          	ld	a5,-1900(a5) # 8000bb20 <_GLOBAL_OFFSET_TABLE_+0x90>
    80003294:	0007b783          	ld	a5,0(a5)
    old->status = TCB::Status::READY;
    80003298:	00100713          	li	a4,1
    8000329c:	00e7a823          	sw	a4,16(a5)
    TCB::dispatch();
    800032a0:	fffff097          	auipc	ra,0xfffff
    800032a4:	400080e7          	jalr	1024(ra) # 800026a0 <_ZN3TCB8dispatchEv>
}
    800032a8:	00813083          	ld	ra,8(sp)
    800032ac:	00013403          	ld	s0,0(sp)
    800032b0:	01010113          	addi	sp,sp,16
    800032b4:	00008067          	ret

00000000800032b8 <_ZN5RiscV18executePutcSyscallEv>:
    asm("mv a0, %[c]" : : [c] "r" (c));

    RiscV::saveA0toSscratch();
}

void RiscV::executePutcSyscall() {
    800032b8:	ff010113          	addi	sp,sp,-16
    800032bc:	00113423          	sd	ra,8(sp)
    800032c0:	00813023          	sd	s0,0(sp)
    800032c4:	01010413          	addi	s0,sp,16

    //register a pending putc call
    if(!userMainFinished)
    800032c8:	00009797          	auipc	a5,0x9
    800032cc:	a887c783          	lbu	a5,-1400(a5) # 8000bd50 <_ZN5RiscV16userMainFinishedE>
    800032d0:	00079c63          	bnez	a5,800032e8 <_ZN5RiscV18executePutcSyscallEv+0x30>
        ConsoleUtil::pendingPutc++;
    800032d4:	00009717          	auipc	a4,0x9
    800032d8:	84473703          	ld	a4,-1980(a4) # 8000bb18 <_GLOBAL_OFFSET_TABLE_+0x88>
    800032dc:	00073783          	ld	a5,0(a4)
    800032e0:	00178793          	addi	a5,a5,1
    800032e4:	00f73023          	sd	a5,0(a4)

    char c;

    asm("mv %[c], a1" : [c] "=r"(c));
    800032e8:	00058513          	mv	a0,a1

    //put character in output buffer
    ConsoleUtil::putOutput(c);
    800032ec:	0ff57513          	andi	a0,a0,255
    800032f0:	00001097          	auipc	ra,0x1
    800032f4:	1a4080e7          	jalr	420(ra) # 80004494 <_ZN11ConsoleUtil9putOutputEc>
}
    800032f8:	00813083          	ld	ra,8(sp)
    800032fc:	00013403          	ld	s0,0(sp)
    80003300:	01010113          	addi	sp,sp,16
    80003304:	00008067          	ret

0000000080003308 <_ZN5RiscV11putcWrapperEPv>:

//wrapper function for putcThread
//spins in a while loop and checks whether console is ready to take output
//if ready read data from output buffer
void RiscV::putcWrapper(void* arg)
{
    80003308:	fe010113          	addi	sp,sp,-32
    8000330c:	00113c23          	sd	ra,24(sp)
    80003310:	00813823          	sd	s0,16(sp)
    80003314:	02010413          	addi	s0,sp,32
    80003318:	00c0006f          	j	80003324 <_ZN5RiscV11putcWrapperEPv+0x1c>
            //decrement number of pending putc requests
            if(ConsoleUtil::pendingPutc>0)
                ConsoleUtil::pendingPutc--;
        }
        else
            thread_dispatch();
    8000331c:	ffffe097          	auipc	ra,0xffffe
    80003320:	3e0080e7          	jalr	992(ra) # 800016fc <_Z15thread_dispatchv>
        uint64 status = CONSOLE_STATUS;
    80003324:	00008797          	auipc	a5,0x8
    80003328:	77c7b783          	ld	a5,1916(a5) # 8000baa0 <_GLOBAL_OFFSET_TABLE_+0x10>
    8000332c:	0007b783          	ld	a5,0(a5)
        asm("mv a0, %[status]" : : [status] "r" (status));
    80003330:	00078513          	mv	a0,a5
        asm("lb a1, 0(a0)");
    80003334:	00050583          	lb	a1,0(a0)
        asm("mv %[status], a1" : [status] "=r" (status));
    80003338:	00058793          	mv	a5,a1
        if(status & 1UL<<5){
    8000333c:	0207f793          	andi	a5,a5,32
    80003340:	fc078ee3          	beqz	a5,8000331c <_ZN5RiscV11putcWrapperEPv+0x14>
                char volatile c = ConsoleUtil::putcUtilSyscall();
    80003344:	00001097          	auipc	ra,0x1
    80003348:	3c8080e7          	jalr	968(ra) # 8000470c <_ZN11ConsoleUtil15putcUtilSyscallEv>
    8000334c:	fea407a3          	sb	a0,-17(s0)
                uint64 data = CONSOLE_RX_DATA;
    80003350:	00008797          	auipc	a5,0x8
    80003354:	7487b783          	ld	a5,1864(a5) # 8000ba98 <_GLOBAL_OFFSET_TABLE_+0x8>
    80003358:	0007b783          	ld	a5,0(a5)
                asm("mv a0, %[data]" : : [data] "r"(data));
    8000335c:	00078513          	mv	a0,a5
                asm("mv a1, %[c]" : : [c] "r"(c));
    80003360:	fef44783          	lbu	a5,-17(s0)
    80003364:	00078593          	mv	a1,a5
                asm("sb a1,0(a0)");
    80003368:	00b50023          	sb	a1,0(a0)
            if(ConsoleUtil::pendingPutc>0)
    8000336c:	00008797          	auipc	a5,0x8
    80003370:	7ac7b783          	ld	a5,1964(a5) # 8000bb18 <_GLOBAL_OFFSET_TABLE_+0x88>
    80003374:	0007b783          	ld	a5,0(a5)
    80003378:	fa0786e3          	beqz	a5,80003324 <_ZN5RiscV11putcWrapperEPv+0x1c>
                ConsoleUtil::pendingPutc--;
    8000337c:	fff78793          	addi	a5,a5,-1
    80003380:	00008717          	auipc	a4,0x8
    80003384:	79873703          	ld	a4,1944(a4) # 8000bb18 <_GLOBAL_OFFSET_TABLE_+0x88>
    80003388:	00f73023          	sd	a5,0(a4)
    8000338c:	f99ff06f          	j	80003324 <_ZN5RiscV11putcWrapperEPv+0x1c>

0000000080003390 <_ZN5RiscV29jumpToDesignatedPrivilegeModeEv>:

    RiscV::saveA0toSscratch();
}

//return to privilege that was given at creation
void RiscV::jumpToDesignatedPrivilegeMode() {
    80003390:	ff010113          	addi	sp,sp,-16
    80003394:	00813423          	sd	s0,8(sp)
    80003398:	01010413          	addi	s0,sp,16
    if(TCB::running->mode == TCB::Mode::SUPERVISOR)
    8000339c:	00008797          	auipc	a5,0x8
    800033a0:	7847b783          	ld	a5,1924(a5) # 8000bb20 <_GLOBAL_OFFSET_TABLE_+0x90>
    800033a4:	0007b783          	ld	a5,0(a5)
    800033a8:	0147a703          	lw	a4,20(a5)
    800033ac:	00100793          	li	a5,1
    800033b0:	00f70c63          	beq	a4,a5,800033c8 <_ZN5RiscV29jumpToDesignatedPrivilegeModeEv+0x38>
    asm("csrc sstatus, %[mask]" : : [mask] "r" (mask));
    800033b4:	10000793          	li	a5,256
    800033b8:	1007b073          	csrc	sstatus,a5
        RiscV::ms_sstatus(RiscV::SSTATUS_SPP);
    else
        RiscV::mc_sstatus(RiscV::SSTATUS_SPP);
}
    800033bc:	00813403          	ld	s0,8(sp)
    800033c0:	01010113          	addi	sp,sp,16
    800033c4:	00008067          	ret
    asm("csrs sstatus, %[mask]" : : [mask] "r" (mask));
    800033c8:	10000793          	li	a5,256
    800033cc:	1007a073          	csrs	sstatus,a5
}
    800033d0:	fedff06f          	j	800033bc <_ZN5RiscV29jumpToDesignatedPrivilegeModeEv+0x2c>

00000000800033d4 <_ZN5RiscV8finalizeEv>:


//clear out the scheduler and let console finish remaining outputs if there are any
void RiscV::finalize() {
    800033d4:	ff010113          	addi	sp,sp,-16
    800033d8:	00113423          	sd	ra,8(sp)
    800033dc:	00813023          	sd	s0,0(sp)
    800033e0:	01010413          	addi	s0,sp,16
    userMainFinished = true;
    800033e4:	00100793          	li	a5,1
    800033e8:	00009717          	auipc	a4,0x9
    800033ec:	96f70423          	sb	a5,-1688(a4) # 8000bd50 <_ZN5RiscV16userMainFinishedE>

    ConsoleUtil::pendingPutc = 0;
    800033f0:	00008797          	auipc	a5,0x8
    800033f4:	7287b783          	ld	a5,1832(a5) # 8000bb18 <_GLOBAL_OFFSET_TABLE_+0x88>
    800033f8:	0007b023          	sd	zero,0(a5)
    ConsoleUtil::pendingGetc = 0;
    800033fc:	00008797          	auipc	a5,0x8
    80003400:	6cc7b783          	ld	a5,1740(a5) # 8000bac8 <_GLOBAL_OFFSET_TABLE_+0x38>
    80003404:	0007b023          	sd	zero,0(a5)
}

inline void  RiscV::mc_sie(uint64 mask){
    asm("csrc sie, %[mask]" : : [mask] "r" (mask));
    80003408:	00200793          	li	a5,2
    8000340c:	1047b073          	csrc	sie,a5
    80003410:	20000793          	li	a5,512
    80003414:	1047b073          	csrc	sie,a5

    RiscV::disableInterrupts();

    while(Scheduler::readyHead != nullptr)
    80003418:	00008797          	auipc	a5,0x8
    8000341c:	6d87b783          	ld	a5,1752(a5) # 8000baf0 <_GLOBAL_OFFSET_TABLE_+0x60>
    80003420:	0007b783          	ld	a5,0(a5)
    80003424:	00078c63          	beqz	a5,8000343c <_ZN5RiscV8finalizeEv+0x68>
        Scheduler::readyHead = Scheduler::readyHead->next;
    80003428:	0487b703          	ld	a4,72(a5)
    8000342c:	00008797          	auipc	a5,0x8
    80003430:	6c47b783          	ld	a5,1732(a5) # 8000baf0 <_GLOBAL_OFFSET_TABLE_+0x60>
    80003434:	00e7b023          	sd	a4,0(a5)
    while(Scheduler::readyHead != nullptr)
    80003438:	fe1ff06f          	j	80003418 <_ZN5RiscV8finalizeEv+0x44>

    Scheduler::put(TCB::putcThread);
    8000343c:	00008797          	auipc	a5,0x8
    80003440:	6bc7b783          	ld	a5,1724(a5) # 8000baf8 <_GLOBAL_OFFSET_TABLE_+0x68>
    80003444:	0007b503          	ld	a0,0(a5)
    80003448:	00001097          	auipc	ra,0x1
    8000344c:	cc0080e7          	jalr	-832(ra) # 80004108 <_ZN9Scheduler3putEP3TCB>

    while(ConsoleUtil::outputHead != ConsoleUtil::outputTail)
    80003450:	00008797          	auipc	a5,0x8
    80003454:	6b87b783          	ld	a5,1720(a5) # 8000bb08 <_GLOBAL_OFFSET_TABLE_+0x78>
    80003458:	0007b703          	ld	a4,0(a5)
    8000345c:	00008797          	auipc	a5,0x8
    80003460:	6b47b783          	ld	a5,1716(a5) # 8000bb10 <_GLOBAL_OFFSET_TABLE_+0x80>
    80003464:	0007b783          	ld	a5,0(a5)
    80003468:	00f70863          	beq	a4,a5,80003478 <_ZN5RiscV8finalizeEv+0xa4>
        thread_dispatch();
    8000346c:	ffffe097          	auipc	ra,0xffffe
    80003470:	290080e7          	jalr	656(ra) # 800016fc <_Z15thread_dispatchv>
    while(ConsoleUtil::outputHead != ConsoleUtil::outputTail)
    80003474:	fddff06f          	j	80003450 <_ZN5RiscV8finalizeEv+0x7c>
}
    80003478:	00813083          	ld	ra,8(sp)
    8000347c:	00013403          	ld	s0,0(sp)
    80003480:	01010113          	addi	sp,sp,16
    80003484:	00008067          	ret

0000000080003488 <_ZN5RiscV16saveA0toSscratchEv>:

//write value in a0 to a memory location where a0 is store on stack for currently running thread
void RiscV::saveA0toSscratch()
{
    80003488:	ff010113          	addi	sp,sp,-16
    8000348c:	00813423          	sd	s0,8(sp)
    80003490:	01010413          	addi	s0,sp,16
    uint64 a1;
    asm("mv %[a1], a1": [a1] "=r"(a1));
    80003494:	00058793          	mv	a5,a1
    asm("mv a1, %[a0]" : :  [a0] "r"(TCB::running->a0Location));
    80003498:	00008717          	auipc	a4,0x8
    8000349c:	68873703          	ld	a4,1672(a4) # 8000bb20 <_GLOBAL_OFFSET_TABLE_+0x90>
    800034a0:	00073703          	ld	a4,0(a4)
    800034a4:	06873703          	ld	a4,104(a4)
    800034a8:	00070593          	mv	a1,a4
    asm("sd a0, 80(a1)");
    800034ac:	04a5b823          	sd	a0,80(a1) # 1050 <_entry-0x7fffefb0>
    asm("mv a1,%[a1]"::  [a1]"r"(a1));
    800034b0:	00078593          	mv	a1,a5
}
    800034b4:	00813403          	ld	s0,8(sp)
    800034b8:	01010113          	addi	sp,sp,16
    800034bc:	00008067          	ret

00000000800034c0 <_ZN5RiscV22executeMemAllocSyscallEv>:
void RiscV::executeMemAllocSyscall(){
    800034c0:	ff010113          	addi	sp,sp,-16
    800034c4:	00113423          	sd	ra,8(sp)
    800034c8:	00813023          	sd	s0,0(sp)
    800034cc:	01010413          	addi	s0,sp,16
    asm("mv %[size], a1" : [size] "=r" (size));
    800034d0:	00058513          	mv	a0,a1
    uint64 addr =(uint64)MemoryAllocator::kmalloc(size);
    800034d4:	fffff097          	auipc	ra,0xfffff
    800034d8:	414080e7          	jalr	1044(ra) # 800028e8 <_ZN15MemoryAllocator7kmallocEm>
    asm("mv a0, %[addr]" : : [addr] "r" (addr));
    800034dc:	00050513          	mv	a0,a0
    RiscV::saveA0toSscratch();
    800034e0:	00000097          	auipc	ra,0x0
    800034e4:	fa8080e7          	jalr	-88(ra) # 80003488 <_ZN5RiscV16saveA0toSscratchEv>
}
    800034e8:	00813083          	ld	ra,8(sp)
    800034ec:	00013403          	ld	s0,0(sp)
    800034f0:	01010113          	addi	sp,sp,16
    800034f4:	00008067          	ret

00000000800034f8 <_ZN5RiscV21executeMemFreeSyscallEv>:
void RiscV::executeMemFreeSyscall() {
    800034f8:	ff010113          	addi	sp,sp,-16
    800034fc:	00113423          	sd	ra,8(sp)
    80003500:	00813023          	sd	s0,0(sp)
    80003504:	01010413          	addi	s0,sp,16
    if(MemoryAllocator::initialized) {
    80003508:	00008797          	auipc	a5,0x8
    8000350c:	6207b783          	ld	a5,1568(a5) # 8000bb28 <_GLOBAL_OFFSET_TABLE_+0x98>
    80003510:	0007c783          	lbu	a5,0(a5)
    80003514:	02079263          	bnez	a5,80003538 <_ZN5RiscV21executeMemFreeSyscallEv+0x40>
        status = -1;
    80003518:	fff00513          	li	a0,-1
    asm("mv a0, %[status]" : : [status] "r" (status));
    8000351c:	00050513          	mv	a0,a0
    RiscV::saveA0toSscratch();
    80003520:	00000097          	auipc	ra,0x0
    80003524:	f68080e7          	jalr	-152(ra) # 80003488 <_ZN5RiscV16saveA0toSscratchEv>
}
    80003528:	00813083          	ld	ra,8(sp)
    8000352c:	00013403          	ld	s0,0(sp)
    80003530:	01010113          	addi	sp,sp,16
    80003534:	00008067          	ret
        asm("mv %[iaddr], a1" : [iaddr] "=r"(iaddr));
    80003538:	00058513          	mv	a0,a1
        status = MemoryAllocator::kfree((void *) iaddr);;
    8000353c:	fffff097          	auipc	ra,0xfffff
    80003540:	5d4080e7          	jalr	1492(ra) # 80002b10 <_ZN15MemoryAllocator5kfreeEPv>
    80003544:	fd9ff06f          	j	8000351c <_ZN5RiscV21executeMemFreeSyscallEv+0x24>

0000000080003548 <_ZN5RiscV26executeThreadCreateSyscallEv>:
void RiscV::executeThreadCreateSyscall(){
    80003548:	fc010113          	addi	sp,sp,-64
    8000354c:	02113c23          	sd	ra,56(sp)
    80003550:	02813823          	sd	s0,48(sp)
    80003554:	02913423          	sd	s1,40(sp)
    80003558:	03213023          	sd	s2,32(sp)
    8000355c:	01313c23          	sd	s3,24(sp)
    80003560:	01413823          	sd	s4,16(sp)
    80003564:	01513423          	sd	s5,8(sp)
    80003568:	04010413          	addi	s0,sp,64
    asm("mv %[istack], a7" : [istack] "=r"(istack));
    8000356c:	00088a13          	mv	s4,a7
    asm("mv %[ihandle], a1" : [ihandle] "=r"(ihandle));
    80003570:	00058a93          	mv	s5,a1
    asm("mv %[iroutine], a2" : [iroutine] "=r"(iroutine));
    80003574:	00060913          	mv	s2,a2
    asm("mv %[iargs], a3" : [iargs] "=r"(iargs));
    80003578:	00068993          	mv	s3,a3
    TCB *tcb = new TCB((TCB::Body)iroutine, (void*)iargs, (uint64*)istack, DEFAULT_TIME_SLICE);
    8000357c:	07000513          	li	a0,112
    80003580:	fffff097          	auipc	ra,0xfffff
    80003584:	1a0080e7          	jalr	416(ra) # 80002720 <_ZN3TCBnwEm>
    80003588:	00050493          	mv	s1,a0
    8000358c:	00200713          	li	a4,2
    80003590:	000a0693          	mv	a3,s4
    80003594:	00098613          	mv	a2,s3
    80003598:	00090593          	mv	a1,s2
    8000359c:	fffff097          	auipc	ra,0xfffff
    800035a0:	038080e7          	jalr	56(ra) # 800025d4 <_ZN3TCBC1EPFvPvES0_Pmm>
    if(tcb == nullptr){
    800035a4:	04048863          	beqz	s1,800035f4 <_ZN5RiscV26executeThreadCreateSyscallEv+0xac>
        if(tcb->body)
    800035a8:	0184b783          	ld	a5,24(s1)
    800035ac:	00078863          	beqz	a5,800035bc <_ZN5RiscV26executeThreadCreateSyscallEv+0x74>
            Scheduler::put(tcb);
    800035b0:	00048513          	mv	a0,s1
    800035b4:	00001097          	auipc	ra,0x1
    800035b8:	b54080e7          	jalr	-1196(ra) # 80004108 <_ZN9Scheduler3putEP3TCB>
        *((TCB**)ihandle) = tcb;
    800035bc:	009ab023          	sd	s1,0(s5)
    uint64 status = 0;
    800035c0:	00000793          	li	a5,0
    asm("mv a0, %[status]" : : [status] "r" (status));
    800035c4:	00078513          	mv	a0,a5
    RiscV::saveA0toSscratch();
    800035c8:	00000097          	auipc	ra,0x0
    800035cc:	ec0080e7          	jalr	-320(ra) # 80003488 <_ZN5RiscV16saveA0toSscratchEv>
}
    800035d0:	03813083          	ld	ra,56(sp)
    800035d4:	03013403          	ld	s0,48(sp)
    800035d8:	02813483          	ld	s1,40(sp)
    800035dc:	02013903          	ld	s2,32(sp)
    800035e0:	01813983          	ld	s3,24(sp)
    800035e4:	01013a03          	ld	s4,16(sp)
    800035e8:	00813a83          	ld	s5,8(sp)
    800035ec:	04010113          	addi	sp,sp,64
    800035f0:	00008067          	ret
        status = -1;
    800035f4:	fff00793          	li	a5,-1
    800035f8:	fcdff06f          	j	800035c4 <_ZN5RiscV26executeThreadCreateSyscallEv+0x7c>
    800035fc:	00050913          	mv	s2,a0
    TCB *tcb = new TCB((TCB::Body)iroutine, (void*)iargs, (uint64*)istack, DEFAULT_TIME_SLICE);
    80003600:	00048513          	mv	a0,s1
    80003604:	fffff097          	auipc	ra,0xfffff
    80003608:	210080e7          	jalr	528(ra) # 80002814 <_ZN3TCBdlEPv>
    8000360c:	00090513          	mv	a0,s2
    80003610:	0000e097          	auipc	ra,0xe
    80003614:	898080e7          	jalr	-1896(ra) # 80010ea8 <_Unwind_Resume>

0000000080003618 <_ZN5RiscV30executeThreadAttachBodySyscallEv>:
void RiscV::executeThreadAttachBodySyscall(){
    80003618:	fc010113          	addi	sp,sp,-64
    8000361c:	02113c23          	sd	ra,56(sp)
    80003620:	02813823          	sd	s0,48(sp)
    80003624:	02913423          	sd	s1,40(sp)
    80003628:	03213023          	sd	s2,32(sp)
    8000362c:	01313c23          	sd	s3,24(sp)
    80003630:	01413823          	sd	s4,16(sp)
    80003634:	01513423          	sd	s5,8(sp)
    80003638:	04010413          	addi	s0,sp,64
    asm("mv %[istack], a7" : [istack] "=r"(istack));
    8000363c:	00088913          	mv	s2,a7
    asm("mv %[ihandle], a1" : [ihandle] "=r"(ihandle));
    80003640:	00058a93          	mv	s5,a1
    asm("mv %[iroutine], a2" : [iroutine] "=r"(iroutine));
    80003644:	00060a13          	mv	s4,a2
    asm("mv %[iargs], a3" : [iargs] "=r"(iargs));
    80003648:	00068993          	mv	s3,a3
    TCB *tcb = new TCB((TCB::Body)iroutine, (void*)iargs, (uint64*)istack, DEFAULT_TIME_SLICE);
    8000364c:	07000513          	li	a0,112
    80003650:	fffff097          	auipc	ra,0xfffff
    80003654:	0d0080e7          	jalr	208(ra) # 80002720 <_ZN3TCBnwEm>
    80003658:	00050493          	mv	s1,a0
    8000365c:	00200713          	li	a4,2
    80003660:	00090693          	mv	a3,s2
    80003664:	00098613          	mv	a2,s3
    80003668:	000a0593          	mv	a1,s4
    8000366c:	fffff097          	auipc	ra,0xfffff
    80003670:	f68080e7          	jalr	-152(ra) # 800025d4 <_ZN3TCBC1EPFvPvES0_Pmm>
    if(tcb == nullptr){
    80003674:	04048263          	beqz	s1,800036b8 <_ZN5RiscV30executeThreadAttachBodySyscallEv+0xa0>
        tcb->body = (TCB::Body)iroutine;
    80003678:	0144bc23          	sd	s4,24(s1)
        tcb->args = (void*)iargs;
    8000367c:	0334b023          	sd	s3,32(s1)
        *((TCB**)ihandle) = tcb;
    80003680:	009ab023          	sd	s1,0(s5)
    uint64 status = 0;
    80003684:	00000793          	li	a5,0
    asm("mv a0, %[status]" : : [status] "r" (status));
    80003688:	00078513          	mv	a0,a5
    RiscV::saveA0toSscratch();
    8000368c:	00000097          	auipc	ra,0x0
    80003690:	dfc080e7          	jalr	-516(ra) # 80003488 <_ZN5RiscV16saveA0toSscratchEv>
}
    80003694:	03813083          	ld	ra,56(sp)
    80003698:	03013403          	ld	s0,48(sp)
    8000369c:	02813483          	ld	s1,40(sp)
    800036a0:	02013903          	ld	s2,32(sp)
    800036a4:	01813983          	ld	s3,24(sp)
    800036a8:	01013a03          	ld	s4,16(sp)
    800036ac:	00813a83          	ld	s5,8(sp)
    800036b0:	04010113          	addi	sp,sp,64
    800036b4:	00008067          	ret
        status = -1;
    800036b8:	fff00793          	li	a5,-1
    800036bc:	fcdff06f          	j	80003688 <_ZN5RiscV30executeThreadAttachBodySyscallEv+0x70>
    800036c0:	00050913          	mv	s2,a0
    TCB *tcb = new TCB((TCB::Body)iroutine, (void*)iargs, (uint64*)istack, DEFAULT_TIME_SLICE);
    800036c4:	00048513          	mv	a0,s1
    800036c8:	fffff097          	auipc	ra,0xfffff
    800036cc:	14c080e7          	jalr	332(ra) # 80002814 <_ZN3TCBdlEPv>
    800036d0:	00090513          	mv	a0,s2
    800036d4:	0000d097          	auipc	ra,0xd
    800036d8:	7d4080e7          	jalr	2004(ra) # 80010ea8 <_Unwind_Resume>

00000000800036dc <_ZN5RiscV25executeThreadStartSyscallEv>:
void RiscV::executeThreadStartSyscall(){
    800036dc:	ff010113          	addi	sp,sp,-16
    800036e0:	00113423          	sd	ra,8(sp)
    800036e4:	00813023          	sd	s0,0(sp)
    800036e8:	01010413          	addi	s0,sp,16
    asm("mv %[ihandle], a1" : [ihandle] "=r"(ihandle));
    800036ec:	00058513          	mv	a0,a1
    if(tcb == nullptr){
    800036f0:	02051263          	bnez	a0,80003714 <_ZN5RiscV25executeThreadStartSyscallEv+0x38>
        status = -1;
    800036f4:	fff00793          	li	a5,-1
    asm("mv a0, %[status]" : : [status] "r" (status));
    800036f8:	00078513          	mv	a0,a5
    RiscV::saveA0toSscratch();
    800036fc:	00000097          	auipc	ra,0x0
    80003700:	d8c080e7          	jalr	-628(ra) # 80003488 <_ZN5RiscV16saveA0toSscratchEv>
}
    80003704:	00813083          	ld	ra,8(sp)
    80003708:	00013403          	ld	s0,0(sp)
    8000370c:	01010113          	addi	sp,sp,16
    80003710:	00008067          	ret
        tcb->status = TCB::Status::READY;
    80003714:	00100793          	li	a5,1
    80003718:	00f52823          	sw	a5,16(a0)
        Scheduler::put(tcb);
    8000371c:	00001097          	auipc	ra,0x1
    80003720:	9ec080e7          	jalr	-1556(ra) # 80004108 <_ZN9Scheduler3putEP3TCB>
        TCB::dispatch();
    80003724:	fffff097          	auipc	ra,0xfffff
    80003728:	f7c080e7          	jalr	-132(ra) # 800026a0 <_ZN3TCB8dispatchEv>
    uint64 status = 0;
    8000372c:	00000793          	li	a5,0
    80003730:	fc9ff06f          	j	800036f8 <_ZN5RiscV25executeThreadStartSyscallEv+0x1c>

0000000080003734 <_ZN5RiscV24executeThreadExitSyscallEv>:
void RiscV::executeThreadExitSyscall() {
    80003734:	ff010113          	addi	sp,sp,-16
    80003738:	00113423          	sd	ra,8(sp)
    8000373c:	00813023          	sd	s0,0(sp)
    80003740:	01010413          	addi	s0,sp,16
    if(TCB::running == nullptr){
    80003744:	00008797          	auipc	a5,0x8
    80003748:	3dc7b783          	ld	a5,988(a5) # 8000bb20 <_GLOBAL_OFFSET_TABLE_+0x90>
    8000374c:	0007b783          	ld	a5,0(a5)
    80003750:	02078a63          	beqz	a5,80003784 <_ZN5RiscV24executeThreadExitSyscallEv+0x50>
        old->status = TCB::Status::FINISHED;
    80003754:	00200713          	li	a4,2
    80003758:	00e7a823          	sw	a4,16(a5)
        TCB::dispatch();
    8000375c:	fffff097          	auipc	ra,0xfffff
    80003760:	f44080e7          	jalr	-188(ra) # 800026a0 <_ZN3TCB8dispatchEv>
    uint64 status = 0;
    80003764:	00000793          	li	a5,0
    asm("mv a0, %[status]" : : [status] "r" (status));
    80003768:	00078513          	mv	a0,a5
    RiscV::saveA0toSscratch();
    8000376c:	00000097          	auipc	ra,0x0
    80003770:	d1c080e7          	jalr	-740(ra) # 80003488 <_ZN5RiscV16saveA0toSscratchEv>
}
    80003774:	00813083          	ld	ra,8(sp)
    80003778:	00013403          	ld	s0,0(sp)
    8000377c:	01010113          	addi	sp,sp,16
    80003780:	00008067          	ret
        status = -1;
    80003784:	fff00793          	li	a5,-1
    80003788:	fe1ff06f          	j	80003768 <_ZN5RiscV24executeThreadExitSyscallEv+0x34>

000000008000378c <_ZN5RiscV21executeSemOpenSyscallEv>:
void RiscV::executeSemOpenSyscall() {
    8000378c:	fd010113          	addi	sp,sp,-48
    80003790:	02113423          	sd	ra,40(sp)
    80003794:	02813023          	sd	s0,32(sp)
    80003798:	00913c23          	sd	s1,24(sp)
    8000379c:	01213823          	sd	s2,16(sp)
    800037a0:	01313423          	sd	s3,8(sp)
    800037a4:	03010413          	addi	s0,sp,48
    asm("mv %[ihandle], a1" : [ihandle] "=r"(ihandle));
    800037a8:	00058993          	mv	s3,a1
    asm("mv %[iinit], a2" : [iinit] "=r"(iinit));
    800037ac:	00060913          	mv	s2,a2
    SCB *scb = new SCB(iinit);
    800037b0:	01800513          	li	a0,24
    800037b4:	fffff097          	auipc	ra,0xfffff
    800037b8:	d30080e7          	jalr	-720(ra) # 800024e4 <_ZN3SCBnwEm>
    800037bc:	00050493          	mv	s1,a0
    800037c0:	00090593          	mv	a1,s2
    800037c4:	fffff097          	auipc	ra,0xfffff
    800037c8:	b64080e7          	jalr	-1180(ra) # 80002328 <_ZN3SCBC1Em>
    if(scb == nullptr){
    800037cc:	02048a63          	beqz	s1,80003800 <_ZN5RiscV21executeSemOpenSyscallEv+0x74>
        *((SCB**)ihandle) = scb;
    800037d0:	0099b023          	sd	s1,0(s3)
    uint64 status = 0;
    800037d4:	00000793          	li	a5,0
    asm("mv a0, %[status]" : : [status] "r" (status));
    800037d8:	00078513          	mv	a0,a5
    RiscV::saveA0toSscratch();
    800037dc:	00000097          	auipc	ra,0x0
    800037e0:	cac080e7          	jalr	-852(ra) # 80003488 <_ZN5RiscV16saveA0toSscratchEv>
}
    800037e4:	02813083          	ld	ra,40(sp)
    800037e8:	02013403          	ld	s0,32(sp)
    800037ec:	01813483          	ld	s1,24(sp)
    800037f0:	01013903          	ld	s2,16(sp)
    800037f4:	00813983          	ld	s3,8(sp)
    800037f8:	03010113          	addi	sp,sp,48
    800037fc:	00008067          	ret
        status = -1;
    80003800:	fff00793          	li	a5,-1
    80003804:	fd5ff06f          	j	800037d8 <_ZN5RiscV21executeSemOpenSyscallEv+0x4c>
    80003808:	00050913          	mv	s2,a0
    SCB *scb = new SCB(iinit);
    8000380c:	00048513          	mv	a0,s1
    80003810:	fffff097          	auipc	ra,0xfffff
    80003814:	cfc080e7          	jalr	-772(ra) # 8000250c <_ZN3SCBdlEPv>
    80003818:	00090513          	mv	a0,s2
    8000381c:	0000d097          	auipc	ra,0xd
    80003820:	68c080e7          	jalr	1676(ra) # 80010ea8 <_Unwind_Resume>

0000000080003824 <_ZN5RiscV22executeSemCloseSyscallEv>:
void RiscV::executeSemCloseSyscall() {
    80003824:	fe010113          	addi	sp,sp,-32
    80003828:	00113c23          	sd	ra,24(sp)
    8000382c:	00813823          	sd	s0,16(sp)
    80003830:	00913423          	sd	s1,8(sp)
    80003834:	02010413          	addi	s0,sp,32
    asm("mv %[ihandle], a1" : [ihandle] "=r"(ihandle));
    80003838:	00058493          	mv	s1,a1
    if(scb == nullptr){
    8000383c:	02049463          	bnez	s1,80003864 <_ZN5RiscV22executeSemCloseSyscallEv+0x40>
        status = -1;
    80003840:	fff00793          	li	a5,-1
    asm("mv a0, %[status]" : : [status] "r" (status));
    80003844:	00078513          	mv	a0,a5
    RiscV::saveA0toSscratch();
    80003848:	00000097          	auipc	ra,0x0
    8000384c:	c40080e7          	jalr	-960(ra) # 80003488 <_ZN5RiscV16saveA0toSscratchEv>
}
    80003850:	01813083          	ld	ra,24(sp)
    80003854:	01013403          	ld	s0,16(sp)
    80003858:	00813483          	ld	s1,8(sp)
    8000385c:	02010113          	addi	sp,sp,32
    80003860:	00008067          	ret
        delete (SCB*)ihandle;
    80003864:	00048513          	mv	a0,s1
    80003868:	fffff097          	auipc	ra,0xfffff
    8000386c:	ae4080e7          	jalr	-1308(ra) # 8000234c <_ZN3SCBD1Ev>
    80003870:	00048513          	mv	a0,s1
    80003874:	fffff097          	auipc	ra,0xfffff
    80003878:	c98080e7          	jalr	-872(ra) # 8000250c <_ZN3SCBdlEPv>
    uint64 status = 0;
    8000387c:	00000793          	li	a5,0
    80003880:	fc5ff06f          	j	80003844 <_ZN5RiscV22executeSemCloseSyscallEv+0x20>

0000000080003884 <_ZN5RiscV21executeSemWaitSyscallEv>:
void RiscV::executeSemWaitSyscall() {
    80003884:	ff010113          	addi	sp,sp,-16
    80003888:	00113423          	sd	ra,8(sp)
    8000388c:	00813023          	sd	s0,0(sp)
    80003890:	01010413          	addi	s0,sp,16
    asm("mv %[ihandle], a1" : [ihandle] "=r"(ihandle));
    80003894:	00058513          	mv	a0,a1
    if(((SCB*)ihandle) != nullptr)
    80003898:	02051c63          	bnez	a0,800038d0 <_ZN5RiscV21executeSemWaitSyscallEv+0x4c>
    if(TCB::running->semError != nullptr)
    8000389c:	00008797          	auipc	a5,0x8
    800038a0:	2847b783          	ld	a5,644(a5) # 8000bb20 <_GLOBAL_OFFSET_TABLE_+0x90>
    800038a4:	0007b783          	ld	a5,0(a5)
    800038a8:	0607b783          	ld	a5,96(a5)
    800038ac:	02078863          	beqz	a5,800038dc <_ZN5RiscV21executeSemWaitSyscallEv+0x58>
        status = -1;
    800038b0:	fff00793          	li	a5,-1
    asm("mv a0, %[status]" : : [status] "r" (status));
    800038b4:	00078513          	mv	a0,a5
    RiscV::saveA0toSscratch();
    800038b8:	00000097          	auipc	ra,0x0
    800038bc:	bd0080e7          	jalr	-1072(ra) # 80003488 <_ZN5RiscV16saveA0toSscratchEv>
}
    800038c0:	00813083          	ld	ra,8(sp)
    800038c4:	00013403          	ld	s0,0(sp)
    800038c8:	01010113          	addi	sp,sp,16
    800038cc:	00008067          	ret
        ((SCB*)ihandle)->wait();
    800038d0:	fffff097          	auipc	ra,0xfffff
    800038d4:	b88080e7          	jalr	-1144(ra) # 80002458 <_ZN3SCB4waitEv>
    800038d8:	fc5ff06f          	j	8000389c <_ZN5RiscV21executeSemWaitSyscallEv+0x18>
        status = 0;
    800038dc:	00000793          	li	a5,0
    800038e0:	fd5ff06f          	j	800038b4 <_ZN5RiscV21executeSemWaitSyscallEv+0x30>

00000000800038e4 <_ZN5RiscV23executeSemSignalSyscallEv>:
void RiscV::executeSemSignalSyscall() {
    800038e4:	ff010113          	addi	sp,sp,-16
    800038e8:	00113423          	sd	ra,8(sp)
    800038ec:	00813023          	sd	s0,0(sp)
    800038f0:	01010413          	addi	s0,sp,16
    asm("mv %[ihandle], a1" : [ihandle] "=r"(ihandle));
    800038f4:	00058513          	mv	a0,a1
    if(((SCB*)ihandle) != nullptr)
    800038f8:	02051263          	bnez	a0,8000391c <_ZN5RiscV23executeSemSignalSyscallEv+0x38>
        status = -1;
    800038fc:	fff00793          	li	a5,-1
    asm("mv a0, %[status]" : : [status] "r" (status));
    80003900:	00078513          	mv	a0,a5
    RiscV::saveA0toSscratch();
    80003904:	00000097          	auipc	ra,0x0
    80003908:	b84080e7          	jalr	-1148(ra) # 80003488 <_ZN5RiscV16saveA0toSscratchEv>
}
    8000390c:	00813083          	ld	ra,8(sp)
    80003910:	00013403          	ld	s0,0(sp)
    80003914:	01010113          	addi	sp,sp,16
    80003918:	00008067          	ret
        ((SCB*)ihandle)->signal();
    8000391c:	fffff097          	auipc	ra,0xfffff
    80003920:	b8c080e7          	jalr	-1140(ra) # 800024a8 <_ZN3SCB6signalEv>
    uint64 status = 0;
    80003924:	00000793          	li	a5,0
    80003928:	fd9ff06f          	j	80003900 <_ZN5RiscV23executeSemSignalSyscallEv+0x1c>

000000008000392c <_ZN5RiscV23executeTimeSleepSyscallEv>:
void RiscV::executeTimeSleepSyscall() {
    8000392c:	fe010113          	addi	sp,sp,-32
    80003930:	00113c23          	sd	ra,24(sp)
    80003934:	00813823          	sd	s0,16(sp)
    80003938:	00913423          	sd	s1,8(sp)
    8000393c:	02010413          	addi	s0,sp,32
    asm("mv %[itime], a1" : [itime] "=r"(itime));
    80003940:	00058713          	mv	a4,a1
    TCB* tcb = TCB::running;
    80003944:	00008797          	auipc	a5,0x8
    80003948:	1dc7b783          	ld	a5,476(a5) # 8000bb20 <_GLOBAL_OFFSET_TABLE_+0x90>
    8000394c:	0007b483          	ld	s1,0(a5)
    tcb->sleepTime = globalTime;
    80003950:	00008797          	auipc	a5,0x8
    80003954:	4087b783          	ld	a5,1032(a5) # 8000bd58 <_ZN5RiscV10globalTimeE>
    80003958:	04f4b823          	sd	a5,80(s1)
    tcb->wakeTime = globalTime + itime;
    8000395c:	00e787b3          	add	a5,a5,a4
    80003960:	04f4bc23          	sd	a5,88(s1)
    Scheduler::sleep(tcb);
    80003964:	00048513          	mv	a0,s1
    80003968:	00001097          	auipc	ra,0x1
    8000396c:	81c080e7          	jalr	-2020(ra) # 80004184 <_ZN9Scheduler5sleepEP3TCB>
    tcb->status = TCB::Status::BLOCKED;
    80003970:	00300793          	li	a5,3
    80003974:	00f4a823          	sw	a5,16(s1)
    TCB::dispatch();
    80003978:	fffff097          	auipc	ra,0xfffff
    8000397c:	d28080e7          	jalr	-728(ra) # 800026a0 <_ZN3TCB8dispatchEv>
    asm("mv a0, %[status]" : : [status] "r" (status));
    80003980:	00000793          	li	a5,0
    80003984:	00078513          	mv	a0,a5
    RiscV::saveA0toSscratch();
    80003988:	00000097          	auipc	ra,0x0
    8000398c:	b00080e7          	jalr	-1280(ra) # 80003488 <_ZN5RiscV16saveA0toSscratchEv>
}
    80003990:	01813083          	ld	ra,24(sp)
    80003994:	01013403          	ld	s0,16(sp)
    80003998:	00813483          	ld	s1,8(sp)
    8000399c:	02010113          	addi	sp,sp,32
    800039a0:	00008067          	ret

00000000800039a4 <_ZN5RiscV18executeGetcSyscallEv>:
void RiscV::executeGetcSyscall() {
    800039a4:	fe010113          	addi	sp,sp,-32
    800039a8:	00113c23          	sd	ra,24(sp)
    800039ac:	00813823          	sd	s0,16(sp)
    800039b0:	00913423          	sd	s1,8(sp)
    800039b4:	02010413          	addi	s0,sp,32
    if(!userMainFinished)
    800039b8:	00008797          	auipc	a5,0x8
    800039bc:	3987c783          	lbu	a5,920(a5) # 8000bd50 <_ZN5RiscV16userMainFinishedE>
    800039c0:	00079c63          	bnez	a5,800039d8 <_ZN5RiscV18executeGetcSyscallEv+0x34>
        ConsoleUtil::pendingGetc++;
    800039c4:	00008717          	auipc	a4,0x8
    800039c8:	10473703          	ld	a4,260(a4) # 8000bac8 <_GLOBAL_OFFSET_TABLE_+0x38>
    800039cc:	00073783          	ld	a5,0(a4)
    800039d0:	00178793          	addi	a5,a5,1
    800039d4:	00f73023          	sd	a5,0(a4)
    char c = ConsoleUtil::getInput();
    800039d8:	00001097          	auipc	ra,0x1
    800039dc:	a44080e7          	jalr	-1468(ra) # 8000441c <_ZN11ConsoleUtil8getInputEv>
    800039e0:	00050493          	mv	s1,a0
    if(c==13) {
    800039e4:	00d00793          	li	a5,13
    800039e8:	02f50663          	beq	a0,a5,80003a14 <_ZN5RiscV18executeGetcSyscallEv+0x70>
    else if(c!=0x01b)
    800039ec:	01b00793          	li	a5,27
    800039f0:	04f51063          	bne	a0,a5,80003a30 <_ZN5RiscV18executeGetcSyscallEv+0x8c>
    asm("mv a0, %[c]" : : [c] "r" (c));
    800039f4:	00048513          	mv	a0,s1
    RiscV::saveA0toSscratch();
    800039f8:	00000097          	auipc	ra,0x0
    800039fc:	a90080e7          	jalr	-1392(ra) # 80003488 <_ZN5RiscV16saveA0toSscratchEv>
}
    80003a00:	01813083          	ld	ra,24(sp)
    80003a04:	01013403          	ld	s0,16(sp)
    80003a08:	00813483          	ld	s1,8(sp)
    80003a0c:	02010113          	addi	sp,sp,32
    80003a10:	00008067          	ret
        ConsoleUtil::putOutput(13);
    80003a14:	00d00513          	li	a0,13
    80003a18:	00001097          	auipc	ra,0x1
    80003a1c:	a7c080e7          	jalr	-1412(ra) # 80004494 <_ZN11ConsoleUtil9putOutputEc>
        ConsoleUtil::putOutput(10);
    80003a20:	00a00513          	li	a0,10
    80003a24:	00001097          	auipc	ra,0x1
    80003a28:	a70080e7          	jalr	-1424(ra) # 80004494 <_ZN11ConsoleUtil9putOutputEc>
    80003a2c:	fc9ff06f          	j	800039f4 <_ZN5RiscV18executeGetcSyscallEv+0x50>
        ConsoleUtil::putOutput(c);
    80003a30:	00001097          	auipc	ra,0x1
    80003a34:	a64080e7          	jalr	-1436(ra) # 80004494 <_ZN11ConsoleUtil9putOutputEc>
    80003a38:	fbdff06f          	j	800039f4 <_ZN5RiscV18executeGetcSyscallEv+0x50>

0000000080003a3c <_ZN5RiscV22executePutcUtilSyscallEv>:
void RiscV::executePutcUtilSyscall() {
    80003a3c:	ff010113          	addi	sp,sp,-16
    80003a40:	00113423          	sd	ra,8(sp)
    80003a44:	00813023          	sd	s0,0(sp)
    80003a48:	01010413          	addi	s0,sp,16
    char c = ConsoleUtil::getOutput();
    80003a4c:	00001097          	auipc	ra,0x1
    80003a50:	ac8080e7          	jalr	-1336(ra) # 80004514 <_ZN11ConsoleUtil9getOutputEv>
    asm("mv a0, %[c]" : : [c] "r" ((uint64)(c)) );
    80003a54:	00050513          	mv	a0,a0
    RiscV::saveA0toSscratch();
    80003a58:	00000097          	auipc	ra,0x0
    80003a5c:	a30080e7          	jalr	-1488(ra) # 80003488 <_ZN5RiscV16saveA0toSscratchEv>
}
    80003a60:	00813083          	ld	ra,8(sp)
    80003a64:	00013403          	ld	s0,0(sp)
    80003a68:	01010113          	addi	sp,sp,16
    80003a6c:	00008067          	ret

0000000080003a70 <_ZN5RiscV24executeThreadFreeSyscallEv>:

//syscall to free the space that is allocated for thread
void RiscV::executeThreadFreeSyscall() {
    80003a70:	fe010113          	addi	sp,sp,-32
    80003a74:	00113c23          	sd	ra,24(sp)
    80003a78:	00813823          	sd	s0,16(sp)
    80003a7c:	00913423          	sd	s1,8(sp)
    80003a80:	01213023          	sd	s2,0(sp)
    80003a84:	02010413          	addi	s0,sp,32
    uint64 iaddr, status;

    asm("mv %[iaddr], a1" : [iaddr] "=r"(iaddr));
    80003a88:	00058493          	mv	s1,a1

    TCB *thr = (TCB*)iaddr;

    if(thr == nullptr)
    80003a8c:	02049663          	bnez	s1,80003ab8 <_ZN5RiscV24executeThreadFreeSyscallEv+0x48>
        status = -1;
    80003a90:	fff00913          	li	s2,-1
        status = MemoryAllocator::kfree(thr->stack);
        delete thr;
    }

    //return status
    asm("mv a0, %[status]" : : [status] "r" (status));
    80003a94:	00090513          	mv	a0,s2

    RiscV::saveA0toSscratch();
    80003a98:	00000097          	auipc	ra,0x0
    80003a9c:	9f0080e7          	jalr	-1552(ra) # 80003488 <_ZN5RiscV16saveA0toSscratchEv>
}
    80003aa0:	01813083          	ld	ra,24(sp)
    80003aa4:	01013403          	ld	s0,16(sp)
    80003aa8:	00813483          	ld	s1,8(sp)
    80003aac:	00013903          	ld	s2,0(sp)
    80003ab0:	02010113          	addi	sp,sp,32
    80003ab4:	00008067          	ret
        status = MemoryAllocator::kfree(thr->stack);
    80003ab8:	0284b503          	ld	a0,40(s1)
    80003abc:	fffff097          	auipc	ra,0xfffff
    80003ac0:	054080e7          	jalr	84(ra) # 80002b10 <_ZN15MemoryAllocator5kfreeEPv>
    80003ac4:	00050913          	mv	s2,a0
        delete thr;
    80003ac8:	00048513          	mv	a0,s1
    80003acc:	fffff097          	auipc	ra,0xfffff
    80003ad0:	bac080e7          	jalr	-1108(ra) # 80002678 <_ZN3TCBD1Ev>
    80003ad4:	00048513          	mv	a0,s1
    80003ad8:	fffff097          	auipc	ra,0xfffff
    80003adc:	d3c080e7          	jalr	-708(ra) # 80002814 <_ZN3TCBdlEPv>
    80003ae0:	fb5ff06f          	j	80003a94 <_ZN5RiscV24executeThreadFreeSyscallEv+0x24>

0000000080003ae4 <_ZN5RiscV27executeSemaphoreFreeSyscallEv>:

//syscall to free the space that is allocated for semaphore
void RiscV::executeSemaphoreFreeSyscall() {
    80003ae4:	fe010113          	addi	sp,sp,-32
    80003ae8:	00113c23          	sd	ra,24(sp)
    80003aec:	00813823          	sd	s0,16(sp)
    80003af0:	00913423          	sd	s1,8(sp)
    80003af4:	02010413          	addi	s0,sp,32
    uint64 iaddr, status;

    //call internal allocator and free memory which iaddr points to
    asm("mv %[iaddr], a1" : [iaddr] "=r"(iaddr));
    80003af8:	00058493          	mv	s1,a1

    SCB *scb = (SCB*)iaddr;

    if(scb == nullptr){
    80003afc:	02049463          	bnez	s1,80003b24 <_ZN5RiscV27executeSemaphoreFreeSyscallEv+0x40>
    }
    else
        delete scb;

    //return status
    asm("mv a0, %[status]" : : [status] "r" (status));
    80003b00:	fff00793          	li	a5,-1
    80003b04:	00078513          	mv	a0,a5

    RiscV::saveA0toSscratch();
    80003b08:	00000097          	auipc	ra,0x0
    80003b0c:	980080e7          	jalr	-1664(ra) # 80003488 <_ZN5RiscV16saveA0toSscratchEv>
}
    80003b10:	01813083          	ld	ra,24(sp)
    80003b14:	01013403          	ld	s0,16(sp)
    80003b18:	00813483          	ld	s1,8(sp)
    80003b1c:	02010113          	addi	sp,sp,32
    80003b20:	00008067          	ret
        delete scb;
    80003b24:	00048513          	mv	a0,s1
    80003b28:	fffff097          	auipc	ra,0xfffff
    80003b2c:	824080e7          	jalr	-2012(ra) # 8000234c <_ZN3SCBD1Ev>
    80003b30:	00048513          	mv	a0,s1
    80003b34:	fffff097          	auipc	ra,0xfffff
    80003b38:	9d8080e7          	jalr	-1576(ra) # 8000250c <_ZN3SCBdlEPv>
    80003b3c:	fc5ff06f          	j	80003b00 <_ZN5RiscV27executeSemaphoreFreeSyscallEv+0x1c>

0000000080003b40 <_ZN5RiscV18executeForkSyscallEv>:

//fork syscall
void RiscV::executeForkSyscall() {
    80003b40:	fe010113          	addi	sp,sp,-32
    80003b44:	00113c23          	sd	ra,24(sp)
    80003b48:	00813823          	sd	s0,16(sp)
    80003b4c:	00913423          	sd	s1,8(sp)
    80003b50:	01213023          	sd	s2,0(sp)
    80003b54:	02010413          	addi	s0,sp,32

    //create new stack and copy stack from currently running stack into the new one
    uint64 *stack = (uint64*)MemoryAllocator::kmalloc((DEFAULT_STACK_SIZE+MEM_BLOCK_SIZE-1)/MEM_BLOCK_SIZE);
    80003b58:	04000513          	li	a0,64
    80003b5c:	fffff097          	auipc	ra,0xfffff
    80003b60:	d8c080e7          	jalr	-628(ra) # 800028e8 <_ZN15MemoryAllocator7kmallocEm>
    80003b64:	00050913          	mv	s2,a0

    MemoryAllocator::memcpy((void*)TCB::running->stack,(void*)stack,DEFAULT_STACK_SIZE);
    80003b68:	00008797          	auipc	a5,0x8
    80003b6c:	fb87b783          	ld	a5,-72(a5) # 8000bb20 <_GLOBAL_OFFSET_TABLE_+0x90>
    80003b70:	0007b783          	ld	a5,0(a5)
    80003b74:	00001637          	lui	a2,0x1
    80003b78:	00050593          	mv	a1,a0
    80003b7c:	0287b503          	ld	a0,40(a5)
    80003b80:	fffff097          	auipc	ra,0xfffff
    80003b84:	144080e7          	jalr	324(ra) # 80002cc4 <_ZN15MemoryAllocator6memcpyEPvS0_m>

    //create new TCB for new thread
    TCB *forked = new TCB(nullptr, nullptr, stack, DEFAULT_TIME_SLICE);
    80003b88:	07000513          	li	a0,112
    80003b8c:	fffff097          	auipc	ra,0xfffff
    80003b90:	b94080e7          	jalr	-1132(ra) # 80002720 <_ZN3TCBnwEm>
    80003b94:	00050493          	mv	s1,a0
    80003b98:	00200713          	li	a4,2
    80003b9c:	00090693          	mv	a3,s2
    80003ba0:	00000613          	li	a2,0
    80003ba4:	00000593          	li	a1,0
    80003ba8:	fffff097          	auipc	ra,0xfffff
    80003bac:	a2c080e7          	jalr	-1492(ra) # 800025d4 <_ZN3TCBC1EPFvPvES0_Pmm>

    uint64 status = 0;

    if(forked) {
    80003bb0:	0a048e63          	beqz	s1,80003c6c <_ZN5RiscV18executeForkSyscallEv+0x12c>

        //set return address where forked thread should return
        forked->context.ra = TCB::currentPC;
    80003bb4:	00008797          	auipc	a5,0x8
    80003bb8:	f347b783          	ld	a5,-204(a5) # 8000bae8 <_GLOBAL_OFFSET_TABLE_+0x58>
    80003bbc:	0007b783          	ld	a5,0(a5)
    80003bc0:	00f4b423          	sd	a5,8(s1)

        //set SP value where forked thread's stack starts
        forked->context.sp = (uint64)((char*)stack + TCB::currentSP - (char*)TCB::running->stack);
    80003bc4:	00008797          	auipc	a5,0x8
    80003bc8:	f0c7b783          	ld	a5,-244(a5) # 8000bad0 <_GLOBAL_OFFSET_TABLE_+0x40>
    80003bcc:	0007b783          	ld	a5,0(a5)
    80003bd0:	00f907b3          	add	a5,s2,a5
    80003bd4:	00008717          	auipc	a4,0x8
    80003bd8:	f4c73703          	ld	a4,-180(a4) # 8000bb20 <_GLOBAL_OFFSET_TABLE_+0x90>
    80003bdc:	00073683          	ld	a3,0(a4)
    80003be0:	0286b683          	ld	a3,40(a3)
    80003be4:	40d787b3          	sub	a5,a5,a3
    80003be8:	00f4b023          	sd	a5,0(s1)

        //get memory location of where registers are stored from previous context switch
        uint64 registerStartSP = (uint64)((char*)TCB::running->a0Location - (char*)TCB::running->stack + (char*)stack);
    80003bec:	00073783          	ld	a5,0(a4)
    80003bf0:	0687b503          	ld	a0,104(a5)
    80003bf4:	0287b783          	ld	a5,40(a5)
    80003bf8:	40f50533          	sub	a0,a0,a5
    80003bfc:	00a90933          	add	s2,s2,a0

        forked->a0Location = registerStartSP;
    80003c00:	0724b423          	sd	s2,104(s1)

        uint64 a1,a0;

        //write address of stored registers in SP of forked thread so that it can return regularly
        asm("mv %[a1], a1": [a1] "=r"(a1));
    80003c04:	00058693          	mv	a3,a1

        asm("mv %[a0], a0": [a0] "=r"(a0));
    80003c08:	00050793          	mv	a5,a0

        asm("mv a0,%[a0]"::  [a0]"r"(registerStartSP));
    80003c0c:	00090513          	mv	a0,s2

        asm("mv a1, %[a0]" : :  [a0] "r"(registerStartSP));
    80003c10:	00090593          	mv	a1,s2

        asm("sd a0, 16(a1)");
    80003c14:	00a5b823          	sd	a0,16(a1)

        //write 0 in a0 register of forked thread because fork should return 0 in context of child, and thread ID othrewise
        asm("li a0, 0");
    80003c18:	00000513          	li	a0,0

        asm("sd a0, 80(a1)");
    80003c1c:	04a5b823          	sd	a0,80(a1)

        asm("mv a1,%[a1]"::  [a1]"r"(a1));
    80003c20:	00068593          	mv	a1,a3

        asm("mv a0,%[a0]"::  [a0]"r"(a0));
    80003c24:	00078513          	mv	a0,a5

        forked->sepc = TCB::running->sepc;
    80003c28:	00073783          	ld	a5,0(a4)
    80003c2c:	0387b703          	ld	a4,56(a5)
    80003c30:	02e4bc23          	sd	a4,56(s1)

        forked->sstatus = TCB::running->sstatus;
    80003c34:	0407b783          	ld	a5,64(a5)
    80003c38:	04f4b023          	sd	a5,64(s1)

        //put forked in scheduler
        Scheduler::put(forked);
    80003c3c:	00048513          	mv	a0,s1
    80003c40:	00000097          	auipc	ra,0x0
    80003c44:	4c8080e7          	jalr	1224(ra) # 80004108 <_ZN9Scheduler3putEP3TCB>
        //return address of forked as thread ID
        status = (uint64)forked;
    }else
        status = -1;

    asm("mv a0, %[status]" : : [status] "r" (status));
    80003c48:	00048513          	mv	a0,s1

    RiscV::saveA0toSscratch();
    80003c4c:	00000097          	auipc	ra,0x0
    80003c50:	83c080e7          	jalr	-1988(ra) # 80003488 <_ZN5RiscV16saveA0toSscratchEv>

}
    80003c54:	01813083          	ld	ra,24(sp)
    80003c58:	01013403          	ld	s0,16(sp)
    80003c5c:	00813483          	ld	s1,8(sp)
    80003c60:	00013903          	ld	s2,0(sp)
    80003c64:	02010113          	addi	sp,sp,32
    80003c68:	00008067          	ret
        status = -1;
    80003c6c:	fff00493          	li	s1,-1
    80003c70:	fd9ff06f          	j	80003c48 <_ZN5RiscV18executeForkSyscallEv+0x108>
    80003c74:	00050913          	mv	s2,a0
    TCB *forked = new TCB(nullptr, nullptr, stack, DEFAULT_TIME_SLICE);
    80003c78:	00048513          	mv	a0,s1
    80003c7c:	fffff097          	auipc	ra,0xfffff
    80003c80:	b98080e7          	jalr	-1128(ra) # 80002814 <_ZN3TCBdlEPv>
    80003c84:	00090513          	mv	a0,s2
    80003c88:	0000d097          	auipc	ra,0xd
    80003c8c:	220080e7          	jalr	544(ra) # 80010ea8 <_Unwind_Resume>

0000000080003c90 <_ZN5RiscV5getPCEv>:

void RiscV::getPC(){
    80003c90:	ff010113          	addi	sp,sp,-16
    80003c94:	00813423          	sd	s0,8(sp)
    80003c98:	01010413          	addi	s0,sp,16
    uint64 ra;

    asm("mv %[ra], ra" : [ra] "=r"(ra));
    80003c9c:	00008793          	mv	a5,ra

    TCB::currentPC = ra + 8;
    80003ca0:	00878793          	addi	a5,a5,8
    80003ca4:	00008717          	auipc	a4,0x8
    80003ca8:	e4473703          	ld	a4,-444(a4) # 8000bae8 <_GLOBAL_OFFSET_TABLE_+0x58>
    80003cac:	00f73023          	sd	a5,0(a4)
}
    80003cb0:	00813403          	ld	s0,8(sp)
    80003cb4:	01010113          	addi	sp,sp,16
    80003cb8:	00008067          	ret

0000000080003cbc <_ZN5RiscV20handleSupervisorTrapEv>:
void RiscV::handleSupervisorTrap() {
    80003cbc:	fa010113          	addi	sp,sp,-96
    80003cc0:	04113c23          	sd	ra,88(sp)
    80003cc4:	04813823          	sd	s0,80(sp)
    80003cc8:	06010413          	addi	s0,sp,96
    asm("csrr %[scause], scause" : [scause] "=r" (scause));
    80003ccc:	142027f3          	csrr	a5,scause
    80003cd0:	fcf43c23          	sd	a5,-40(s0)
    return scause;
    80003cd4:	fd843783          	ld	a5,-40(s0)
    uint64 volatile scause = RiscV::r_scause();
    80003cd8:	fef43423          	sd	a5,-24(s0)
    asm("csrr %[sscratch], sscratch" : [sscratch] "=r" (TCB::running->a0Location));
    80003cdc:	00008797          	auipc	a5,0x8
    80003ce0:	e447b783          	ld	a5,-444(a5) # 8000bb20 <_GLOBAL_OFFSET_TABLE_+0x90>
    80003ce4:	0007b783          	ld	a5,0(a5)
    80003ce8:	14002773          	csrr	a4,sscratch
    80003cec:	06e7b423          	sd	a4,104(a5)
    if(scause == 0x09 || scause == 0x08) {
    80003cf0:	fe843703          	ld	a4,-24(s0)
    80003cf4:	00900793          	li	a5,9
    80003cf8:	0ef70663          	beq	a4,a5,80003de4 <_ZN5RiscV20handleSupervisorTrapEv+0x128>
    80003cfc:	fe843703          	ld	a4,-24(s0)
    80003d00:	00800793          	li	a5,8
    80003d04:	0ef70063          	beq	a4,a5,80003de4 <_ZN5RiscV20handleSupervisorTrapEv+0x128>
    else if(scause == (0x01UL<<63 | 0x1)){
    80003d08:	fe843703          	ld	a4,-24(s0)
    80003d0c:	fff00793          	li	a5,-1
    80003d10:	03f79793          	slli	a5,a5,0x3f
    80003d14:	00178793          	addi	a5,a5,1
    80003d18:	24f70263          	beq	a4,a5,80003f5c <_ZN5RiscV20handleSupervisorTrapEv+0x2a0>
    else if(scause == (0x01UL<<63 | 0x9)){
    80003d1c:	fe843703          	ld	a4,-24(s0)
    80003d20:	fff00793          	li	a5,-1
    80003d24:	03f79793          	slli	a5,a5,0x3f
    80003d28:	00978793          	addi	a5,a5,9
    80003d2c:	2cf70063          	beq	a4,a5,80003fec <_ZN5RiscV20handleSupervisorTrapEv+0x330>
    else if(scause == 0x02){
    80003d30:	fe843703          	ld	a4,-24(s0)
    80003d34:	00200793          	li	a5,2
    80003d38:	34f70863          	beq	a4,a5,80004088 <_ZN5RiscV20handleSupervisorTrapEv+0x3cc>
        ConsoleUtil::printString("Error: \n");
    80003d3c:	00005517          	auipc	a0,0x5
    80003d40:	49c50513          	addi	a0,a0,1180 # 800091d8 <CONSOLE_STATUS+0x1c8>
    80003d44:	00001097          	auipc	ra,0x1
    80003d48:	848080e7          	jalr	-1976(ra) # 8000458c <_ZN11ConsoleUtil11printStringEPKc>
        ConsoleUtil::printString("scause: ");
    80003d4c:	00005517          	auipc	a0,0x5
    80003d50:	49c50513          	addi	a0,a0,1180 # 800091e8 <CONSOLE_STATUS+0x1d8>
    80003d54:	00001097          	auipc	ra,0x1
    80003d58:	838080e7          	jalr	-1992(ra) # 8000458c <_ZN11ConsoleUtil11printStringEPKc>
    asm("csrr %[scause], scause" : [scause] "=r" (scause));
    80003d5c:	142027f3          	csrr	a5,scause
    80003d60:	fef43023          	sd	a5,-32(s0)
    return scause;
    80003d64:	fe043503          	ld	a0,-32(s0)
        ConsoleUtil::printInt(scause);
    80003d68:	00000613          	li	a2,0
    80003d6c:	00a00593          	li	a1,10
    80003d70:	0005051b          	sext.w	a0,a0
    80003d74:	00001097          	auipc	ra,0x1
    80003d78:	85c080e7          	jalr	-1956(ra) # 800045d0 <_ZN11ConsoleUtil8printIntEiii>
        ConsoleUtil::printString("sepc: ");
    80003d7c:	00005517          	auipc	a0,0x5
    80003d80:	42c50513          	addi	a0,a0,1068 # 800091a8 <CONSOLE_STATUS+0x198>
    80003d84:	00001097          	auipc	ra,0x1
    80003d88:	808080e7          	jalr	-2040(ra) # 8000458c <_ZN11ConsoleUtil11printStringEPKc>
    asm("csrr %[sepc], sepc" : [sepc] "=r" (sepc));
    80003d8c:	14102573          	csrr	a0,sepc
        ConsoleUtil::printInt(sepc,16);
    80003d90:	00000613          	li	a2,0
    80003d94:	01000593          	li	a1,16
    80003d98:	0005051b          	sext.w	a0,a0
    80003d9c:	00001097          	auipc	ra,0x1
    80003da0:	834080e7          	jalr	-1996(ra) # 800045d0 <_ZN11ConsoleUtil8printIntEiii>
        ConsoleUtil::printString("\n");
    80003da4:	00005517          	auipc	a0,0x5
    80003da8:	3fc50513          	addi	a0,a0,1020 # 800091a0 <CONSOLE_STATUS+0x190>
    80003dac:	00000097          	auipc	ra,0x0
    80003db0:	7e0080e7          	jalr	2016(ra) # 8000458c <_ZN11ConsoleUtil11printStringEPKc>
        TCB* old = TCB::running;
    80003db4:	00008797          	auipc	a5,0x8
    80003db8:	d6c7b783          	ld	a5,-660(a5) # 8000bb20 <_GLOBAL_OFFSET_TABLE_+0x90>
    80003dbc:	0007b783          	ld	a5,0(a5)
        old->status = TCB::Status::FINISHED;
    80003dc0:	00200713          	li	a4,2
    80003dc4:	00e7a823          	sw	a4,16(a5)
        ConsoleUtil::printString("Exiting thread...\n");
    80003dc8:	00005517          	auipc	a0,0x5
    80003dcc:	43050513          	addi	a0,a0,1072 # 800091f8 <CONSOLE_STATUS+0x1e8>
    80003dd0:	00000097          	auipc	ra,0x0
    80003dd4:	7bc080e7          	jalr	1980(ra) # 8000458c <_ZN11ConsoleUtil11printStringEPKc>
        TCB::dispatch();
    80003dd8:	fffff097          	auipc	ra,0xfffff
    80003ddc:	8c8080e7          	jalr	-1848(ra) # 800026a0 <_ZN3TCB8dispatchEv>
    80003de0:	0800006f          	j	80003e60 <_ZN5RiscV20handleSupervisorTrapEv+0x1a4>
    asm("csrr %[sstatus], sstatus" : [sstatus] "=r" (sstatus));
    80003de4:	100027f3          	csrr	a5,sstatus
        uint64 volatile sstatus = RiscV::r_sstatus();
    80003de8:	faf43423          	sd	a5,-88(s0)
    asm("csrr %[sepc], sepc" : [sepc] "=r" (sepc));
    80003dec:	141027f3          	csrr	a5,sepc
        uint64 volatile sepc = RiscV::r_sepc()+4;
    80003df0:	00478793          	addi	a5,a5,4
    80003df4:	faf43823          	sd	a5,-80(s0)
        TCB::running->sepc = sepc;
    80003df8:	00008797          	auipc	a5,0x8
    80003dfc:	d287b783          	ld	a5,-728(a5) # 8000bb20 <_GLOBAL_OFFSET_TABLE_+0x90>
    80003e00:	0007b783          	ld	a5,0(a5)
    80003e04:	fb043703          	ld	a4,-80(s0)
    80003e08:	02e7bc23          	sd	a4,56(a5)
        TCB::running->sstatus = sstatus;
    80003e0c:	fa843703          	ld	a4,-88(s0)
    80003e10:	04e7b023          	sd	a4,64(a5)
        asm("mv %[syscallID], a0" : [syscallID] "=r" (syscallID));
    80003e14:	00050793          	mv	a5,a0
        switch(syscallID){
    80003e18:	06100713          	li	a4,97
    80003e1c:	02f76463          	bltu	a4,a5,80003e44 <_ZN5RiscV20handleSupervisorTrapEv+0x188>
    80003e20:	00279793          	slli	a5,a5,0x2
    80003e24:	00005717          	auipc	a4,0x5
    80003e28:	3e870713          	addi	a4,a4,1000 # 8000920c <CONSOLE_STATUS+0x1fc>
    80003e2c:	00e787b3          	add	a5,a5,a4
    80003e30:	0007a783          	lw	a5,0(a5)
    80003e34:	00e787b3          	add	a5,a5,a4
    80003e38:	00078067          	jr	a5
            case 0x01 : executeMemAllocSyscall();break;
    80003e3c:	fffff097          	auipc	ra,0xfffff
    80003e40:	684080e7          	jalr	1668(ra) # 800034c0 <_ZN5RiscV22executeMemAllocSyscallEv>
        RiscV::w_sstatus(TCB::running->sstatus);
    80003e44:	00008797          	auipc	a5,0x8
    80003e48:	cdc7b783          	ld	a5,-804(a5) # 8000bb20 <_GLOBAL_OFFSET_TABLE_+0x90>
    80003e4c:	0007b783          	ld	a5,0(a5)
    80003e50:	0407b703          	ld	a4,64(a5)
    asm("csrw sstatus, %[sstatus]" : : [sstatus] "r" (sstatus));
    80003e54:	10071073          	csrw	sstatus,a4
        RiscV::w_sepc(TCB::running->sepc);
    80003e58:	0387b783          	ld	a5,56(a5)
    asm("csrw sepc, %[sepc]" : : [sepc] "r" (sepc));
    80003e5c:	14179073          	csrw	sepc,a5
    RiscV::jumpToDesignatedPrivilegeMode();
    80003e60:	fffff097          	auipc	ra,0xfffff
    80003e64:	530080e7          	jalr	1328(ra) # 80003390 <_ZN5RiscV29jumpToDesignatedPrivilegeModeEv>
}
    80003e68:	05813083          	ld	ra,88(sp)
    80003e6c:	05013403          	ld	s0,80(sp)
    80003e70:	06010113          	addi	sp,sp,96
    80003e74:	00008067          	ret
            case 0x02 : executeMemFreeSyscall();break;
    80003e78:	fffff097          	auipc	ra,0xfffff
    80003e7c:	680080e7          	jalr	1664(ra) # 800034f8 <_ZN5RiscV21executeMemFreeSyscallEv>
    80003e80:	fc5ff06f          	j	80003e44 <_ZN5RiscV20handleSupervisorTrapEv+0x188>
            case 0x11 : executeThreadCreateSyscall();break;
    80003e84:	fffff097          	auipc	ra,0xfffff
    80003e88:	6c4080e7          	jalr	1732(ra) # 80003548 <_ZN5RiscV26executeThreadCreateSyscallEv>
    80003e8c:	fb9ff06f          	j	80003e44 <_ZN5RiscV20handleSupervisorTrapEv+0x188>
            case 0x12 : executeThreadExitSyscall();break;
    80003e90:	00000097          	auipc	ra,0x0
    80003e94:	8a4080e7          	jalr	-1884(ra) # 80003734 <_ZN5RiscV24executeThreadExitSyscallEv>
    80003e98:	fadff06f          	j	80003e44 <_ZN5RiscV20handleSupervisorTrapEv+0x188>
            case 0x13 : executeThreadDispatchSyscall();break;
    80003e9c:	fffff097          	auipc	ra,0xfffff
    80003ea0:	3e0080e7          	jalr	992(ra) # 8000327c <_ZN5RiscV28executeThreadDispatchSyscallEv>
    80003ea4:	fa1ff06f          	j	80003e44 <_ZN5RiscV20handleSupervisorTrapEv+0x188>
            case 0x14 : executeThreadAttachBodySyscall();break;
    80003ea8:	fffff097          	auipc	ra,0xfffff
    80003eac:	770080e7          	jalr	1904(ra) # 80003618 <_ZN5RiscV30executeThreadAttachBodySyscallEv>
    80003eb0:	f95ff06f          	j	80003e44 <_ZN5RiscV20handleSupervisorTrapEv+0x188>
            case 0x15 : executeThreadStartSyscall();break;
    80003eb4:	00000097          	auipc	ra,0x0
    80003eb8:	828080e7          	jalr	-2008(ra) # 800036dc <_ZN5RiscV25executeThreadStartSyscallEv>
    80003ebc:	f89ff06f          	j	80003e44 <_ZN5RiscV20handleSupervisorTrapEv+0x188>
            case 0x21 : executeSemOpenSyscall();break;
    80003ec0:	00000097          	auipc	ra,0x0
    80003ec4:	8cc080e7          	jalr	-1844(ra) # 8000378c <_ZN5RiscV21executeSemOpenSyscallEv>
    80003ec8:	f7dff06f          	j	80003e44 <_ZN5RiscV20handleSupervisorTrapEv+0x188>
            case 0x22 : executeSemCloseSyscall();break;
    80003ecc:	00000097          	auipc	ra,0x0
    80003ed0:	958080e7          	jalr	-1704(ra) # 80003824 <_ZN5RiscV22executeSemCloseSyscallEv>
    80003ed4:	f71ff06f          	j	80003e44 <_ZN5RiscV20handleSupervisorTrapEv+0x188>
            case 0x23 : executeSemWaitSyscall();break;
    80003ed8:	00000097          	auipc	ra,0x0
    80003edc:	9ac080e7          	jalr	-1620(ra) # 80003884 <_ZN5RiscV21executeSemWaitSyscallEv>
    80003ee0:	f65ff06f          	j	80003e44 <_ZN5RiscV20handleSupervisorTrapEv+0x188>
            case 0x24 : executeSemSignalSyscall();break;
    80003ee4:	00000097          	auipc	ra,0x0
    80003ee8:	a00080e7          	jalr	-1536(ra) # 800038e4 <_ZN5RiscV23executeSemSignalSyscallEv>
    80003eec:	f59ff06f          	j	80003e44 <_ZN5RiscV20handleSupervisorTrapEv+0x188>
            case 0x31 : executeTimeSleepSyscall();break;
    80003ef0:	00000097          	auipc	ra,0x0
    80003ef4:	a3c080e7          	jalr	-1476(ra) # 8000392c <_ZN5RiscV23executeTimeSleepSyscallEv>
    80003ef8:	f4dff06f          	j	80003e44 <_ZN5RiscV20handleSupervisorTrapEv+0x188>
            case 0x41 : executeGetcSyscall();break;
    80003efc:	00000097          	auipc	ra,0x0
    80003f00:	aa8080e7          	jalr	-1368(ra) # 800039a4 <_ZN5RiscV18executeGetcSyscallEv>
    80003f04:	f41ff06f          	j	80003e44 <_ZN5RiscV20handleSupervisorTrapEv+0x188>
            case 0x42 : executePutcSyscall();break;
    80003f08:	fffff097          	auipc	ra,0xfffff
    80003f0c:	3b0080e7          	jalr	944(ra) # 800032b8 <_ZN5RiscV18executePutcSyscallEv>
    80003f10:	f35ff06f          	j	80003e44 <_ZN5RiscV20handleSupervisorTrapEv+0x188>
            case 0x43 : executePutcUtilSyscall();break;
    80003f14:	00000097          	auipc	ra,0x0
    80003f18:	b28080e7          	jalr	-1240(ra) # 80003a3c <_ZN5RiscV22executePutcUtilSyscallEv>
    80003f1c:	f29ff06f          	j	80003e44 <_ZN5RiscV20handleSupervisorTrapEv+0x188>
            case 0x51 : executeThreadFreeSyscall();break;
    80003f20:	00000097          	auipc	ra,0x0
    80003f24:	b50080e7          	jalr	-1200(ra) # 80003a70 <_ZN5RiscV24executeThreadFreeSyscallEv>
    80003f28:	f1dff06f          	j	80003e44 <_ZN5RiscV20handleSupervisorTrapEv+0x188>
            case 0x52 : executeSemaphoreFreeSyscall();break;
    80003f2c:	00000097          	auipc	ra,0x0
    80003f30:	bb8080e7          	jalr	-1096(ra) # 80003ae4 <_ZN5RiscV27executeSemaphoreFreeSyscallEv>
    80003f34:	f11ff06f          	j	80003e44 <_ZN5RiscV20handleSupervisorTrapEv+0x188>
            case 0x61 : asm("mv %[sp], sp" : [sp] "=r"(TCB::currentSP));
    80003f38:	00010793          	mv	a5,sp
    80003f3c:	00008717          	auipc	a4,0x8
    80003f40:	b9473703          	ld	a4,-1132(a4) # 8000bad0 <_GLOBAL_OFFSET_TABLE_+0x40>
    80003f44:	00f73023          	sd	a5,0(a4)
                        RiscV::getPC();
    80003f48:	00000097          	auipc	ra,0x0
    80003f4c:	d48080e7          	jalr	-696(ra) # 80003c90 <_ZN5RiscV5getPCEv>
                        executeForkSyscall();
    80003f50:	00000097          	auipc	ra,0x0
    80003f54:	bf0080e7          	jalr	-1040(ra) # 80003b40 <_ZN5RiscV18executeForkSyscallEv>
                        break;
    80003f58:	eedff06f          	j	80003e44 <_ZN5RiscV20handleSupervisorTrapEv+0x188>
    asm("csrr %[sstatus], sstatus" : [sstatus] "=r" (sstatus));
    80003f5c:	100027f3          	csrr	a5,sstatus
        uint64 volatile sstatus = RiscV::r_sstatus();
    80003f60:	faf43c23          	sd	a5,-72(s0)
    asm("csrr %[sepc], sepc" : [sepc] "=r" (sepc));
    80003f64:	141027f3          	csrr	a5,sepc
        uint64 volatile sepc = RiscV::r_sepc();
    80003f68:	fcf43023          	sd	a5,-64(s0)
    asm("csrc sip, %[mask]" : : [mask] "r" (mask));
    80003f6c:	00200793          	li	a5,2
    80003f70:	1447b073          	csrc	sip,a5
        globalTime += 1;
    80003f74:	00008717          	auipc	a4,0x8
    80003f78:	ddc70713          	addi	a4,a4,-548 # 8000bd50 <_ZN5RiscV16userMainFinishedE>
    80003f7c:	00873783          	ld	a5,8(a4)
    80003f80:	00178793          	addi	a5,a5,1
    80003f84:	00f73423          	sd	a5,8(a4)
        Scheduler::awake();
    80003f88:	00000097          	auipc	ra,0x0
    80003f8c:	254080e7          	jalr	596(ra) # 800041dc <_ZN9Scheduler5awakeEv>
        TCB::timeSliceCounter++;
    80003f90:	00008717          	auipc	a4,0x8
    80003f94:	b2073703          	ld	a4,-1248(a4) # 8000bab0 <_GLOBAL_OFFSET_TABLE_+0x20>
    80003f98:	00073783          	ld	a5,0(a4)
    80003f9c:	00178793          	addi	a5,a5,1
    80003fa0:	00f73023          	sd	a5,0(a4)
        if(TCB::timeSliceCounter >= TCB::running->timeSlice) {
    80003fa4:	00008717          	auipc	a4,0x8
    80003fa8:	b7c73703          	ld	a4,-1156(a4) # 8000bb20 <_GLOBAL_OFFSET_TABLE_+0x90>
    80003fac:	00073703          	ld	a4,0(a4)
    80003fb0:	03073683          	ld	a3,48(a4)
    80003fb4:	00d7fc63          	bgeu	a5,a3,80003fcc <_ZN5RiscV20handleSupervisorTrapEv+0x310>
        RiscV::w_sstatus(sstatus);
    80003fb8:	fb843783          	ld	a5,-72(s0)
    asm("csrw sstatus, %[sstatus]" : : [sstatus] "r" (sstatus));
    80003fbc:	10079073          	csrw	sstatus,a5
        RiscV::w_sepc(sepc);
    80003fc0:	fc043783          	ld	a5,-64(s0)
    asm("csrw sepc, %[sepc]" : : [sepc] "r" (sepc));
    80003fc4:	14179073          	csrw	sepc,a5
}
    80003fc8:	e99ff06f          	j	80003e60 <_ZN5RiscV20handleSupervisorTrapEv+0x1a4>
            TCB::timeSliceCounter = 0;
    80003fcc:	00008797          	auipc	a5,0x8
    80003fd0:	ae47b783          	ld	a5,-1308(a5) # 8000bab0 <_GLOBAL_OFFSET_TABLE_+0x20>
    80003fd4:	0007b023          	sd	zero,0(a5)
            old->status = TCB::Status::READY;
    80003fd8:	00100793          	li	a5,1
    80003fdc:	00f72823          	sw	a5,16(a4)
            TCB::dispatch();
    80003fe0:	ffffe097          	auipc	ra,0xffffe
    80003fe4:	6c0080e7          	jalr	1728(ra) # 800026a0 <_ZN3TCB8dispatchEv>
    80003fe8:	fd1ff06f          	j	80003fb8 <_ZN5RiscV20handleSupervisorTrapEv+0x2fc>
    asm("csrr %[sstatus], sstatus" : [sstatus] "=r" (sstatus));
    80003fec:	100027f3          	csrr	a5,sstatus
        uint64 volatile sstatus = RiscV::r_sstatus();
    80003ff0:	fcf43423          	sd	a5,-56(s0)
    asm("csrr %[sepc], sepc" : [sepc] "=r" (sepc));
    80003ff4:	141027f3          	csrr	a5,sepc
        uint64 volatile sepc = RiscV::r_sepc();
    80003ff8:	fcf43823          	sd	a5,-48(s0)
        uint64 status = CONSOLE_STATUS;
    80003ffc:	00008797          	auipc	a5,0x8
    80004000:	aa47b783          	ld	a5,-1372(a5) # 8000baa0 <_GLOBAL_OFFSET_TABLE_+0x10>
    80004004:	0007b783          	ld	a5,0(a5)
        asm("mv a0, %[status]" : : [status] "r" (status));
    80004008:	00078513          	mv	a0,a5
        asm("lb a1, 0(a0)");
    8000400c:	00050583          	lb	a1,0(a0)
        asm("mv %[status], a1" : [status] "=r" (status));
    80004010:	00058793          	mv	a5,a1
        if(status & 1UL)
    80004014:	0017f793          	andi	a5,a5,1
    80004018:	02078863          	beqz	a5,80004048 <_ZN5RiscV20handleSupervisorTrapEv+0x38c>
            data = CONSOLE_TX_DATA;
    8000401c:	00008797          	auipc	a5,0x8
    80004020:	aa47b783          	ld	a5,-1372(a5) # 8000bac0 <_GLOBAL_OFFSET_TABLE_+0x30>
    80004024:	0007b783          	ld	a5,0(a5)
            asm("mv a0, %[data]" : : [data] "r" (data));
    80004028:	00078513          	mv	a0,a5
            asm("lb a1, 0(a0)");
    8000402c:	00050583          	lb	a1,0(a0)
            asm("mv %[c], a1" : [c] "=r" (c));
    80004030:	00058513          	mv	a0,a1
    80004034:	0ff57513          	andi	a0,a0,255
            if(ConsoleUtil::pendingGetc!=0) {
    80004038:	00008797          	auipc	a5,0x8
    8000403c:	a907b783          	ld	a5,-1392(a5) # 8000bac8 <_GLOBAL_OFFSET_TABLE_+0x38>
    80004040:	0007b783          	ld	a5,0(a5)
    80004044:	02079463          	bnez	a5,8000406c <_ZN5RiscV20handleSupervisorTrapEv+0x3b0>
        plic_complete(plic_claim());
    80004048:	00003097          	auipc	ra,0x3
    8000404c:	dec080e7          	jalr	-532(ra) # 80006e34 <plic_claim>
    80004050:	00003097          	auipc	ra,0x3
    80004054:	e1c080e7          	jalr	-484(ra) # 80006e6c <plic_complete>
        RiscV::w_sstatus(sstatus);
    80004058:	fc843783          	ld	a5,-56(s0)
    asm("csrw sstatus, %[sstatus]" : : [sstatus] "r" (sstatus));
    8000405c:	10079073          	csrw	sstatus,a5
        RiscV::w_sepc(sepc);
    80004060:	fd043783          	ld	a5,-48(s0)
    asm("csrw sepc, %[sepc]" : : [sepc] "r" (sepc));
    80004064:	14179073          	csrw	sepc,a5
}
    80004068:	df9ff06f          	j	80003e60 <_ZN5RiscV20handleSupervisorTrapEv+0x1a4>
                ConsoleUtil::pendingGetc--;
    8000406c:	fff78793          	addi	a5,a5,-1
    80004070:	00008717          	auipc	a4,0x8
    80004074:	a5873703          	ld	a4,-1448(a4) # 8000bac8 <_GLOBAL_OFFSET_TABLE_+0x38>
    80004078:	00f73023          	sd	a5,0(a4)
                ConsoleUtil::putInput(c);
    8000407c:	00000097          	auipc	ra,0x0
    80004080:	338080e7          	jalr	824(ra) # 800043b4 <_ZN11ConsoleUtil8putInputEc>
    80004084:	fc5ff06f          	j	80004048 <_ZN5RiscV20handleSupervisorTrapEv+0x38c>
        TCB* old = TCB::running;
    80004088:	00008797          	auipc	a5,0x8
    8000408c:	a987b783          	ld	a5,-1384(a5) # 8000bb20 <_GLOBAL_OFFSET_TABLE_+0x90>
    80004090:	0007b783          	ld	a5,0(a5)
        old->status = TCB::Status::FINISHED;
    80004094:	00200713          	li	a4,2
    80004098:	00e7a823          	sw	a4,16(a5)
        ConsoleUtil::printString("sepc: ");
    8000409c:	00005517          	auipc	a0,0x5
    800040a0:	10c50513          	addi	a0,a0,268 # 800091a8 <CONSOLE_STATUS+0x198>
    800040a4:	00000097          	auipc	ra,0x0
    800040a8:	4e8080e7          	jalr	1256(ra) # 8000458c <_ZN11ConsoleUtil11printStringEPKc>
    asm("csrr %[sepc], sepc" : [sepc] "=r" (sepc));
    800040ac:	14102573          	csrr	a0,sepc
        ConsoleUtil::printInt(sepc,16);
    800040b0:	00000613          	li	a2,0
    800040b4:	01000593          	li	a1,16
    800040b8:	0005051b          	sext.w	a0,a0
    800040bc:	00000097          	auipc	ra,0x0
    800040c0:	514080e7          	jalr	1300(ra) # 800045d0 <_ZN11ConsoleUtil8printIntEiii>
        ConsoleUtil::printString("\n");
    800040c4:	00005517          	auipc	a0,0x5
    800040c8:	0dc50513          	addi	a0,a0,220 # 800091a0 <CONSOLE_STATUS+0x190>
    800040cc:	00000097          	auipc	ra,0x0
    800040d0:	4c0080e7          	jalr	1216(ra) # 8000458c <_ZN11ConsoleUtil11printStringEPKc>
        ConsoleUtil::printString("Illegal instruction\nExiting thread...\n");
    800040d4:	00005517          	auipc	a0,0x5
    800040d8:	0dc50513          	addi	a0,a0,220 # 800091b0 <CONSOLE_STATUS+0x1a0>
    800040dc:	00000097          	auipc	ra,0x0
    800040e0:	4b0080e7          	jalr	1200(ra) # 8000458c <_ZN11ConsoleUtil11printStringEPKc>
        TCB::dispatch();
    800040e4:	ffffe097          	auipc	ra,0xffffe
    800040e8:	5bc080e7          	jalr	1468(ra) # 800026a0 <_ZN3TCB8dispatchEv>
    800040ec:	d75ff06f          	j	80003e60 <_ZN5RiscV20handleSupervisorTrapEv+0x1a4>

00000000800040f0 <_ZN9Scheduler10initializeEv>:
TCB* Scheduler::readyHead = nullptr;
TCB* Scheduler::readyTail = nullptr;
TCB* Scheduler::sleepingHead = nullptr;


void Scheduler::initialize(){
    800040f0:	ff010113          	addi	sp,sp,-16
    800040f4:	00813423          	sd	s0,8(sp)
    800040f8:	01010413          	addi	s0,sp,16
}
    800040fc:	00813403          	ld	s0,8(sp)
    80004100:	01010113          	addi	sp,sp,16
    80004104:	00008067          	ret

0000000080004108 <_ZN9Scheduler3putEP3TCB>:

//put a TCB in scheduler
//each TCB has a pointer to next TCB, so no external list/queue structures needed
void Scheduler::put(TCB *tcb) {
    80004108:	ff010113          	addi	sp,sp,-16
    8000410c:	00813423          	sd	s0,8(sp)
    80004110:	01010413          	addi	s0,sp,16
    tcb->next = nullptr;
    80004114:	04053423          	sd	zero,72(a0)
    readyTail = (!readyHead ? readyHead : readyTail->next) = tcb;
    80004118:	00008797          	auipc	a5,0x8
    8000411c:	c487b783          	ld	a5,-952(a5) # 8000bd60 <_ZN9Scheduler9readyHeadE>
    80004120:	02078263          	beqz	a5,80004144 <_ZN9Scheduler3putEP3TCB+0x3c>
    80004124:	00008797          	auipc	a5,0x8
    80004128:	c447b783          	ld	a5,-956(a5) # 8000bd68 <_ZN9Scheduler9readyTailE>
    8000412c:	04a7b423          	sd	a0,72(a5)
    80004130:	00008797          	auipc	a5,0x8
    80004134:	c2a7bc23          	sd	a0,-968(a5) # 8000bd68 <_ZN9Scheduler9readyTailE>
}
    80004138:	00813403          	ld	s0,8(sp)
    8000413c:	01010113          	addi	sp,sp,16
    80004140:	00008067          	ret
    readyTail = (!readyHead ? readyHead : readyTail->next) = tcb;
    80004144:	00008797          	auipc	a5,0x8
    80004148:	c0a7be23          	sd	a0,-996(a5) # 8000bd60 <_ZN9Scheduler9readyHeadE>
    8000414c:	fe5ff06f          	j	80004130 <_ZN9Scheduler3putEP3TCB+0x28>

0000000080004150 <_ZN9Scheduler3getEv>:


//get new TCB from scheduler
TCB* Scheduler::get(){
    80004150:	ff010113          	addi	sp,sp,-16
    80004154:	00813423          	sd	s0,8(sp)
    80004158:	01010413          	addi	s0,sp,16
    if(readyHead == nullptr)
    8000415c:	00008517          	auipc	a0,0x8
    80004160:	c0453503          	ld	a0,-1020(a0) # 8000bd60 <_ZN9Scheduler9readyHeadE>
    80004164:	00050a63          	beqz	a0,80004178 <_ZN9Scheduler3getEv+0x28>
        return nullptr;
    TCB* tmp = readyHead;
    readyHead = readyHead->next;
    80004168:	04853783          	ld	a5,72(a0)
    8000416c:	00008717          	auipc	a4,0x8
    80004170:	bef73a23          	sd	a5,-1036(a4) # 8000bd60 <_ZN9Scheduler9readyHeadE>
    tmp->next = nullptr;
    80004174:	04053423          	sd	zero,72(a0)
    return tmp;
}
    80004178:	00813403          	ld	s0,8(sp)
    8000417c:	01010113          	addi	sp,sp,16
    80004180:	00008067          	ret

0000000080004184 <_ZN9Scheduler5sleepEP3TCB>:

//put a thread to sleep by linking it in sleeping queue (same thing as with ready threads, link by TCB->next field, no "real" queue needed)
void Scheduler::sleep(TCB *t) {
    80004184:	ff010113          	addi	sp,sp,-16
    80004188:	00813423          	sd	s0,8(sp)
    8000418c:	01010413          	addi	s0,sp,16
    TCB* iter = sleepingHead, *prev = nullptr;
    80004190:	00008797          	auipc	a5,0x8
    80004194:	be07b783          	ld	a5,-1056(a5) # 8000bd70 <_ZN9Scheduler12sleepingHeadE>
    80004198:	00000613          	li	a2,0
    for(; iter!= nullptr; prev = iter, iter=iter->next)
    8000419c:	00078e63          	beqz	a5,800041b8 <_ZN9Scheduler5sleepEP3TCB+0x34>
        if(iter->wakeTime>t->wakeTime)
    800041a0:	0587b683          	ld	a3,88(a5)
    800041a4:	05853703          	ld	a4,88(a0)
    800041a8:	00d76863          	bltu	a4,a3,800041b8 <_ZN9Scheduler5sleepEP3TCB+0x34>
    for(; iter!= nullptr; prev = iter, iter=iter->next)
    800041ac:	00078613          	mv	a2,a5
    800041b0:	0487b783          	ld	a5,72(a5)
    800041b4:	fe9ff06f          	j	8000419c <_ZN9Scheduler5sleepEP3TCB+0x18>
            break;
    t->next = iter;
    800041b8:	04f53423          	sd	a5,72(a0)
    if(prev)
    800041bc:	00060a63          	beqz	a2,800041d0 <_ZN9Scheduler5sleepEP3TCB+0x4c>
        prev->next = t;
    800041c0:	04a63423          	sd	a0,72(a2) # 1048 <_entry-0x7fffefb8>
    else
        sleepingHead = t;
}
    800041c4:	00813403          	ld	s0,8(sp)
    800041c8:	01010113          	addi	sp,sp,16
    800041cc:	00008067          	ret
        sleepingHead = t;
    800041d0:	00008797          	auipc	a5,0x8
    800041d4:	baa7b023          	sd	a0,-1120(a5) # 8000bd70 <_ZN9Scheduler12sleepingHeadE>
}
    800041d8:	fedff06f          	j	800041c4 <_ZN9Scheduler5sleepEP3TCB+0x40>

00000000800041dc <_ZN9Scheduler5awakeEv>:

//try and awake all threads whose awake time is less than global time
void Scheduler::awake(){
    800041dc:	fe010113          	addi	sp,sp,-32
    800041e0:	00113c23          	sd	ra,24(sp)
    800041e4:	00813823          	sd	s0,16(sp)
    800041e8:	00913423          	sd	s1,8(sp)
    800041ec:	02010413          	addi	s0,sp,32
    while(sleepingHead){
    800041f0:	00008497          	auipc	s1,0x8
    800041f4:	b804b483          	ld	s1,-1152(s1) # 8000bd70 <_ZN9Scheduler12sleepingHeadE>
    800041f8:	02048c63          	beqz	s1,80004230 <_ZN9Scheduler5awakeEv+0x54>
        TCB* tmp = sleepingHead;

        if(tmp->wakeTime <= RiscV::globalTime){
    800041fc:	0584b703          	ld	a4,88(s1)
    80004200:	00008797          	auipc	a5,0x8
    80004204:	9387b783          	ld	a5,-1736(a5) # 8000bb38 <_GLOBAL_OFFSET_TABLE_+0xa8>
    80004208:	0007b783          	ld	a5,0(a5)
    8000420c:	02e7e263          	bltu	a5,a4,80004230 <_ZN9Scheduler5awakeEv+0x54>
            sleepingHead = sleepingHead->next;
    80004210:	0484b783          	ld	a5,72(s1)
    80004214:	00008717          	auipc	a4,0x8
    80004218:	b4f73e23          	sd	a5,-1188(a4) # 8000bd70 <_ZN9Scheduler12sleepingHeadE>
            put(tmp);
    8000421c:	00048513          	mv	a0,s1
    80004220:	00000097          	auipc	ra,0x0
    80004224:	ee8080e7          	jalr	-280(ra) # 80004108 <_ZN9Scheduler3putEP3TCB>
            tmp->next = nullptr;
    80004228:	0404b423          	sd	zero,72(s1)
    while(sleepingHead){
    8000422c:	fc5ff06f          	j	800041f0 <_ZN9Scheduler5awakeEv+0x14>
        }
        else{
            break;
        }
    }
}
    80004230:	01813083          	ld	ra,24(sp)
    80004234:	01013403          	ld	s0,16(sp)
    80004238:	00813483          	ld	s1,8(sp)
    8000423c:	02010113          	addi	sp,sp,32
    80004240:	00008067          	ret

0000000080004244 <_ZN9Scheduler13showSchedulerEv>:

//utility function to print all threads currently in scheduler
void Scheduler::showScheduler() {
    80004244:	fe010113          	addi	sp,sp,-32
    80004248:	00113c23          	sd	ra,24(sp)
    8000424c:	00813823          	sd	s0,16(sp)
    80004250:	00913423          	sd	s1,8(sp)
    80004254:	02010413          	addi	s0,sp,32
    TCB* iter = readyHead;
    80004258:	00008497          	auipc	s1,0x8
    8000425c:	b084b483          	ld	s1,-1272(s1) # 8000bd60 <_ZN9Scheduler9readyHeadE>
    while(iter){
    80004260:	02048863          	beqz	s1,80004290 <_ZN9Scheduler13showSchedulerEv+0x4c>
        ConsoleUtil::printInt((uint64)iter, 16);
    80004264:	00000613          	li	a2,0
    80004268:	01000593          	li	a1,16
    8000426c:	0004851b          	sext.w	a0,s1
    80004270:	00000097          	auipc	ra,0x0
    80004274:	360080e7          	jalr	864(ra) # 800045d0 <_ZN11ConsoleUtil8printIntEiii>
        ConsoleUtil::printString("\n");
    80004278:	00005517          	auipc	a0,0x5
    8000427c:	f2850513          	addi	a0,a0,-216 # 800091a0 <CONSOLE_STATUS+0x190>
    80004280:	00000097          	auipc	ra,0x0
    80004284:	30c080e7          	jalr	780(ra) # 8000458c <_ZN11ConsoleUtil11printStringEPKc>
        iter = iter->next;
    80004288:	0484b483          	ld	s1,72(s1)
    while(iter){
    8000428c:	fd5ff06f          	j	80004260 <_ZN9Scheduler13showSchedulerEv+0x1c>
    }
}
    80004290:	01813083          	ld	ra,24(sp)
    80004294:	01013403          	ld	s0,16(sp)
    80004298:	00813483          	ld	s1,8(sp)
    8000429c:	02010113          	addi	sp,sp,32
    800042a0:	00008067          	ret

00000000800042a4 <_ZN9Scheduler12showSleepingEv>:

//utility function to print all threads currently in sleep
void Scheduler::showSleeping(){
    800042a4:	fe010113          	addi	sp,sp,-32
    800042a8:	00113c23          	sd	ra,24(sp)
    800042ac:	00813823          	sd	s0,16(sp)
    800042b0:	00913423          	sd	s1,8(sp)
    800042b4:	02010413          	addi	s0,sp,32
    TCB* iter = sleepingHead;
    800042b8:	00008497          	auipc	s1,0x8
    800042bc:	ab84b483          	ld	s1,-1352(s1) # 8000bd70 <_ZN9Scheduler12sleepingHeadE>
    while(iter){
    800042c0:	02048863          	beqz	s1,800042f0 <_ZN9Scheduler12showSleepingEv+0x4c>
        printInt((uint64)iter, 16);
    800042c4:	00000613          	li	a2,0
    800042c8:	01000593          	li	a1,16
    800042cc:	0004851b          	sext.w	a0,s1
    800042d0:	ffffe097          	auipc	ra,0xffffe
    800042d4:	f44080e7          	jalr	-188(ra) # 80002214 <_Z8printIntiii>
        printString("\n");
    800042d8:	00005517          	auipc	a0,0x5
    800042dc:	ec850513          	addi	a0,a0,-312 # 800091a0 <CONSOLE_STATUS+0x190>
    800042e0:	ffffe097          	auipc	ra,0xffffe
    800042e4:	d9c080e7          	jalr	-612(ra) # 8000207c <_Z11printStringPKc>
        iter = iter->next;
    800042e8:	0484b483          	ld	s1,72(s1)
    while(iter){
    800042ec:	fd5ff06f          	j	800042c0 <_ZN9Scheduler12showSleepingEv+0x1c>
    }
    800042f0:	01813083          	ld	ra,24(sp)
    800042f4:	01013403          	ld	s0,16(sp)
    800042f8:	00813483          	ld	s1,8(sp)
    800042fc:	02010113          	addi	sp,sp,32
    80004300:	00008067          	ret

0000000080004304 <_ZN11ConsoleUtil10initializeEv>:
SCB* ConsoleUtil::inputSem = nullptr;

char ConsoleUtil::inputBuffer[bufferSize];
char ConsoleUtil::outputBuffer[bufferSize];

void ConsoleUtil::initialize() {
    80004304:	fe010113          	addi	sp,sp,-32
    80004308:	00113c23          	sd	ra,24(sp)
    8000430c:	00813823          	sd	s0,16(sp)
    80004310:	00913423          	sd	s1,8(sp)
    80004314:	01213023          	sd	s2,0(sp)
    80004318:	02010413          	addi	s0,sp,32
    inputSem = new SCB(0);
    8000431c:	01800513          	li	a0,24
    80004320:	ffffe097          	auipc	ra,0xffffe
    80004324:	1c4080e7          	jalr	452(ra) # 800024e4 <_ZN3SCBnwEm>
    80004328:	00050493          	mv	s1,a0
    8000432c:	00000593          	li	a1,0
    80004330:	ffffe097          	auipc	ra,0xffffe
    80004334:	ff8080e7          	jalr	-8(ra) # 80002328 <_ZN3SCBC1Em>
    80004338:	00008797          	auipc	a5,0x8
    8000433c:	a497b023          	sd	s1,-1472(a5) # 8000bd78 <_ZN11ConsoleUtil8inputSemE>
    outputSem = new SCB(0);
    80004340:	01800513          	li	a0,24
    80004344:	ffffe097          	auipc	ra,0xffffe
    80004348:	1a0080e7          	jalr	416(ra) # 800024e4 <_ZN3SCBnwEm>
    8000434c:	00050493          	mv	s1,a0
    80004350:	00000593          	li	a1,0
    80004354:	ffffe097          	auipc	ra,0xffffe
    80004358:	fd4080e7          	jalr	-44(ra) # 80002328 <_ZN3SCBC1Em>
    8000435c:	00008797          	auipc	a5,0x8
    80004360:	a297b223          	sd	s1,-1500(a5) # 8000bd80 <_ZN11ConsoleUtil9outputSemE>
}
    80004364:	01813083          	ld	ra,24(sp)
    80004368:	01013403          	ld	s0,16(sp)
    8000436c:	00813483          	ld	s1,8(sp)
    80004370:	00013903          	ld	s2,0(sp)
    80004374:	02010113          	addi	sp,sp,32
    80004378:	00008067          	ret
    8000437c:	00050913          	mv	s2,a0
    inputSem = new SCB(0);
    80004380:	00048513          	mv	a0,s1
    80004384:	ffffe097          	auipc	ra,0xffffe
    80004388:	188080e7          	jalr	392(ra) # 8000250c <_ZN3SCBdlEPv>
    8000438c:	00090513          	mv	a0,s2
    80004390:	0000d097          	auipc	ra,0xd
    80004394:	b18080e7          	jalr	-1256(ra) # 80010ea8 <_Unwind_Resume>
    80004398:	00050913          	mv	s2,a0
    outputSem = new SCB(0);
    8000439c:	00048513          	mv	a0,s1
    800043a0:	ffffe097          	auipc	ra,0xffffe
    800043a4:	16c080e7          	jalr	364(ra) # 8000250c <_ZN3SCBdlEPv>
    800043a8:	00090513          	mv	a0,s2
    800043ac:	0000d097          	auipc	ra,0xd
    800043b0:	afc080e7          	jalr	-1284(ra) # 80010ea8 <_Unwind_Resume>

00000000800043b4 <_ZN11ConsoleUtil8putInputEc>:

void ConsoleUtil::putInput(char c) {
    if((inputTail+1)%bufferSize == inputHead)
    800043b4:	00008697          	auipc	a3,0x8
    800043b8:	9c468693          	addi	a3,a3,-1596 # 8000bd78 <_ZN11ConsoleUtil8inputSemE>
    800043bc:	0106b603          	ld	a2,16(a3)
    800043c0:	00160793          	addi	a5,a2,1
    800043c4:	00002737          	lui	a4,0x2
    800043c8:	fff70713          	addi	a4,a4,-1 # 1fff <_entry-0x7fffe001>
    800043cc:	00e7f7b3          	and	a5,a5,a4
    800043d0:	0186b703          	ld	a4,24(a3)
    800043d4:	04e78263          	beq	a5,a4,80004418 <_ZN11ConsoleUtil8putInputEc+0x64>
void ConsoleUtil::putInput(char c) {
    800043d8:	ff010113          	addi	sp,sp,-16
    800043dc:	00113423          	sd	ra,8(sp)
    800043e0:	00813023          	sd	s0,0(sp)
    800043e4:	01010413          	addi	s0,sp,16
        return;
    inputBuffer[inputTail] = c;
    800043e8:	0000a717          	auipc	a4,0xa
    800043ec:	9c870713          	addi	a4,a4,-1592 # 8000ddb0 <_ZN11ConsoleUtil11inputBufferE>
    800043f0:	00c70633          	add	a2,a4,a2
    800043f4:	00a60023          	sb	a0,0(a2)
    inputTail = (inputTail+1)%bufferSize;
    800043f8:	00f6b823          	sd	a5,16(a3)
    inputSem->signal();
    800043fc:	0006b503          	ld	a0,0(a3)
    80004400:	ffffe097          	auipc	ra,0xffffe
    80004404:	0a8080e7          	jalr	168(ra) # 800024a8 <_ZN3SCB6signalEv>
}
    80004408:	00813083          	ld	ra,8(sp)
    8000440c:	00013403          	ld	s0,0(sp)
    80004410:	01010113          	addi	sp,sp,16
    80004414:	00008067          	ret
    80004418:	00008067          	ret

000000008000441c <_ZN11ConsoleUtil8getInputEv>:

char ConsoleUtil::getInput() {
    8000441c:	fe010113          	addi	sp,sp,-32
    80004420:	00113c23          	sd	ra,24(sp)
    80004424:	00813823          	sd	s0,16(sp)
    80004428:	00913423          	sd	s1,8(sp)
    8000442c:	02010413          	addi	s0,sp,32
    inputSem->wait();
    80004430:	00008497          	auipc	s1,0x8
    80004434:	94848493          	addi	s1,s1,-1720 # 8000bd78 <_ZN11ConsoleUtil8inputSemE>
    80004438:	0004b503          	ld	a0,0(s1)
    8000443c:	ffffe097          	auipc	ra,0xffffe
    80004440:	01c080e7          	jalr	28(ra) # 80002458 <_ZN3SCB4waitEv>

    if(inputHead == inputTail)
    80004444:	0184b783          	ld	a5,24(s1)
    80004448:	0104b703          	ld	a4,16(s1)
    8000444c:	04e78063          	beq	a5,a4,8000448c <_ZN11ConsoleUtil8getInputEv+0x70>
        return -1;
    char c = inputBuffer[inputHead];
    80004450:	0000a717          	auipc	a4,0xa
    80004454:	96070713          	addi	a4,a4,-1696 # 8000ddb0 <_ZN11ConsoleUtil11inputBufferE>
    80004458:	00f70733          	add	a4,a4,a5
    8000445c:	00074503          	lbu	a0,0(a4)

    inputHead = (inputHead+1)%bufferSize;
    80004460:	00178793          	addi	a5,a5,1
    80004464:	00002737          	lui	a4,0x2
    80004468:	fff70713          	addi	a4,a4,-1 # 1fff <_entry-0x7fffe001>
    8000446c:	00e7f7b3          	and	a5,a5,a4
    80004470:	00008717          	auipc	a4,0x8
    80004474:	92f73023          	sd	a5,-1760(a4) # 8000bd90 <_ZN11ConsoleUtil9inputHeadE>

    return c;
}
    80004478:	01813083          	ld	ra,24(sp)
    8000447c:	01013403          	ld	s0,16(sp)
    80004480:	00813483          	ld	s1,8(sp)
    80004484:	02010113          	addi	sp,sp,32
    80004488:	00008067          	ret
        return -1;
    8000448c:	0ff00513          	li	a0,255
    80004490:	fe9ff06f          	j	80004478 <_ZN11ConsoleUtil8getInputEv+0x5c>

0000000080004494 <_ZN11ConsoleUtil9putOutputEc>:

void ConsoleUtil::putOutput(char c) {
    pendingPutc++;
    80004494:	00008797          	auipc	a5,0x8
    80004498:	8e478793          	addi	a5,a5,-1820 # 8000bd78 <_ZN11ConsoleUtil8inputSemE>
    8000449c:	0207b603          	ld	a2,32(a5)
    800044a0:	00160713          	addi	a4,a2,1
    800044a4:	02e7b023          	sd	a4,32(a5)

    if((outputTail+1)%bufferSize == outputHead)
    800044a8:	0287b583          	ld	a1,40(a5)
    800044ac:	00158713          	addi	a4,a1,1
    800044b0:	000026b7          	lui	a3,0x2
    800044b4:	fff68693          	addi	a3,a3,-1 # 1fff <_entry-0x7fffe001>
    800044b8:	00d77733          	and	a4,a4,a3
    800044bc:	0307b783          	ld	a5,48(a5)
    800044c0:	04f70863          	beq	a4,a5,80004510 <_ZN11ConsoleUtil9putOutputEc+0x7c>
void ConsoleUtil::putOutput(char c) {
    800044c4:	ff010113          	addi	sp,sp,-16
    800044c8:	00113423          	sd	ra,8(sp)
    800044cc:	00813023          	sd	s0,0(sp)
    800044d0:	01010413          	addi	s0,sp,16
        return;

    outputBuffer[outputTail] = c;
    800044d4:	00008797          	auipc	a5,0x8
    800044d8:	8dc78793          	addi	a5,a5,-1828 # 8000bdb0 <_ZN11ConsoleUtil12outputBufferE>
    800044dc:	00b785b3          	add	a1,a5,a1
    800044e0:	00a58023          	sb	a0,0(a1)

    outputTail = (outputTail+1)%bufferSize;
    800044e4:	00008797          	auipc	a5,0x8
    800044e8:	89478793          	addi	a5,a5,-1900 # 8000bd78 <_ZN11ConsoleUtil8inputSemE>
    800044ec:	02e7b423          	sd	a4,40(a5)

    pendingPutc--;
    800044f0:	02c7b023          	sd	a2,32(a5)

    outputSem->signal();
    800044f4:	0087b503          	ld	a0,8(a5)
    800044f8:	ffffe097          	auipc	ra,0xffffe
    800044fc:	fb0080e7          	jalr	-80(ra) # 800024a8 <_ZN3SCB6signalEv>
}
    80004500:	00813083          	ld	ra,8(sp)
    80004504:	00013403          	ld	s0,0(sp)
    80004508:	01010113          	addi	sp,sp,16
    8000450c:	00008067          	ret
    80004510:	00008067          	ret

0000000080004514 <_ZN11ConsoleUtil9getOutputEv>:

char ConsoleUtil::getOutput() {
    80004514:	fe010113          	addi	sp,sp,-32
    80004518:	00113c23          	sd	ra,24(sp)
    8000451c:	00813823          	sd	s0,16(sp)
    80004520:	00913423          	sd	s1,8(sp)
    80004524:	02010413          	addi	s0,sp,32
    outputSem->wait();
    80004528:	00008497          	auipc	s1,0x8
    8000452c:	85048493          	addi	s1,s1,-1968 # 8000bd78 <_ZN11ConsoleUtil8inputSemE>
    80004530:	0084b503          	ld	a0,8(s1)
    80004534:	ffffe097          	auipc	ra,0xffffe
    80004538:	f24080e7          	jalr	-220(ra) # 80002458 <_ZN3SCB4waitEv>
    if(outputHead == outputTail)
    8000453c:	0304b783          	ld	a5,48(s1)
    80004540:	0284b703          	ld	a4,40(s1)
    80004544:	04e78063          	beq	a5,a4,80004584 <_ZN11ConsoleUtil9getOutputEv+0x70>
        return -1;

    char c = outputBuffer[outputHead];
    80004548:	00008717          	auipc	a4,0x8
    8000454c:	86870713          	addi	a4,a4,-1944 # 8000bdb0 <_ZN11ConsoleUtil12outputBufferE>
    80004550:	00f70733          	add	a4,a4,a5
    80004554:	00074503          	lbu	a0,0(a4)

    outputHead = (outputHead+1)%bufferSize;
    80004558:	00178793          	addi	a5,a5,1
    8000455c:	00002737          	lui	a4,0x2
    80004560:	fff70713          	addi	a4,a4,-1 # 1fff <_entry-0x7fffe001>
    80004564:	00e7f7b3          	and	a5,a5,a4
    80004568:	00008717          	auipc	a4,0x8
    8000456c:	84f73023          	sd	a5,-1984(a4) # 8000bda8 <_ZN11ConsoleUtil10outputHeadE>

    return c;
}
    80004570:	01813083          	ld	ra,24(sp)
    80004574:	01013403          	ld	s0,16(sp)
    80004578:	00813483          	ld	s1,8(sp)
    8000457c:	02010113          	addi	sp,sp,32
    80004580:	00008067          	ret
        return -1;
    80004584:	0ff00513          	li	a0,255
    80004588:	fe9ff06f          	j	80004570 <_ZN11ConsoleUtil9getOutputEv+0x5c>

000000008000458c <_ZN11ConsoleUtil11printStringEPKc>:

void ConsoleUtil::printString(const char *string) {
    8000458c:	fe010113          	addi	sp,sp,-32
    80004590:	00113c23          	sd	ra,24(sp)
    80004594:	00813823          	sd	s0,16(sp)
    80004598:	00913423          	sd	s1,8(sp)
    8000459c:	02010413          	addi	s0,sp,32
    800045a0:	00050493          	mv	s1,a0
    while (*string != '\0')
    800045a4:	0004c503          	lbu	a0,0(s1)
    800045a8:	00050a63          	beqz	a0,800045bc <_ZN11ConsoleUtil11printStringEPKc+0x30>
    {
        ConsoleUtil::putOutput(*string);
    800045ac:	00000097          	auipc	ra,0x0
    800045b0:	ee8080e7          	jalr	-280(ra) # 80004494 <_ZN11ConsoleUtil9putOutputEc>
        string++;
    800045b4:	00148493          	addi	s1,s1,1
    while (*string != '\0')
    800045b8:	fedff06f          	j	800045a4 <_ZN11ConsoleUtil11printStringEPKc+0x18>
    }
}
    800045bc:	01813083          	ld	ra,24(sp)
    800045c0:	01013403          	ld	s0,16(sp)
    800045c4:	00813483          	ld	s1,8(sp)
    800045c8:	02010113          	addi	sp,sp,32
    800045cc:	00008067          	ret

00000000800045d0 <_ZN11ConsoleUtil8printIntEiii>:

void ConsoleUtil::printInt(int xx, int base, int sgn)
{
    800045d0:	fb010113          	addi	sp,sp,-80
    800045d4:	04113423          	sd	ra,72(sp)
    800045d8:	04813023          	sd	s0,64(sp)
    800045dc:	02913c23          	sd	s1,56(sp)
    800045e0:	05010413          	addi	s0,sp,80
    char digits[] = "0123456789ABCDEF";
    800045e4:	00005797          	auipc	a5,0x5
    800045e8:	db478793          	addi	a5,a5,-588 # 80009398 <CONSOLE_STATUS+0x388>
    800045ec:	0007b703          	ld	a4,0(a5)
    800045f0:	fce43423          	sd	a4,-56(s0)
    800045f4:	0087b703          	ld	a4,8(a5)
    800045f8:	fce43823          	sd	a4,-48(s0)
    800045fc:	0107c783          	lbu	a5,16(a5)
    80004600:	fcf40c23          	sb	a5,-40(s0)
    char buf[16];
    int i, neg;
    uint x;

    neg = 0;
    if(sgn && xx < 0){
    80004604:	00060463          	beqz	a2,8000460c <_ZN11ConsoleUtil8printIntEiii+0x3c>
    80004608:	08054263          	bltz	a0,8000468c <_ZN11ConsoleUtil8printIntEiii+0xbc>
        neg = 1;
        x = -xx;
    } else {
        x = xx;
    8000460c:	0005051b          	sext.w	a0,a0
    neg = 0;
    80004610:	00000813          	li	a6,0
    }

    i = 0;
    80004614:	00000493          	li	s1,0
    do{
        buf[i++] = digits[x % base];
    80004618:	0005871b          	sext.w	a4,a1
    8000461c:	02b577bb          	remuw	a5,a0,a1
    80004620:	00048693          	mv	a3,s1
    80004624:	0014849b          	addiw	s1,s1,1
    80004628:	02079793          	slli	a5,a5,0x20
    8000462c:	0207d793          	srli	a5,a5,0x20
    80004630:	fe040613          	addi	a2,s0,-32
    80004634:	00f607b3          	add	a5,a2,a5
    80004638:	fe87c603          	lbu	a2,-24(a5)
    8000463c:	fe040793          	addi	a5,s0,-32
    80004640:	00d787b3          	add	a5,a5,a3
    80004644:	fcc78c23          	sb	a2,-40(a5)
    }while((x /= base) != 0);
    80004648:	0005061b          	sext.w	a2,a0
    8000464c:	02b5553b          	divuw	a0,a0,a1
    80004650:	fce674e3          	bgeu	a2,a4,80004618 <_ZN11ConsoleUtil8printIntEiii+0x48>
    if(neg)
    80004654:	00080c63          	beqz	a6,8000466c <_ZN11ConsoleUtil8printIntEiii+0x9c>
        buf[i++] = '-';
    80004658:	fe040793          	addi	a5,s0,-32
    8000465c:	009784b3          	add	s1,a5,s1
    80004660:	02d00793          	li	a5,45
    80004664:	fcf48c23          	sb	a5,-40(s1)
    80004668:	0026849b          	addiw	s1,a3,2

    while(--i >= 0)
    8000466c:	fff4849b          	addiw	s1,s1,-1
    80004670:	0204c463          	bltz	s1,80004698 <_ZN11ConsoleUtil8printIntEiii+0xc8>
        ConsoleUtil::putOutput(buf[i]);
    80004674:	fe040793          	addi	a5,s0,-32
    80004678:	009787b3          	add	a5,a5,s1
    8000467c:	fd87c503          	lbu	a0,-40(a5)
    80004680:	00000097          	auipc	ra,0x0
    80004684:	e14080e7          	jalr	-492(ra) # 80004494 <_ZN11ConsoleUtil9putOutputEc>
    80004688:	fe5ff06f          	j	8000466c <_ZN11ConsoleUtil8printIntEiii+0x9c>
        x = -xx;
    8000468c:	40a0053b          	negw	a0,a0
        neg = 1;
    80004690:	00100813          	li	a6,1
        x = -xx;
    80004694:	f81ff06f          	j	80004614 <_ZN11ConsoleUtil8printIntEiii+0x44>

}
    80004698:	04813083          	ld	ra,72(sp)
    8000469c:	04013403          	ld	s0,64(sp)
    800046a0:	03813483          	ld	s1,56(sp)
    800046a4:	05010113          	addi	sp,sp,80
    800046a8:	00008067          	ret

00000000800046ac <_ZN11ConsoleUtil5printEPKciS1_>:

void ConsoleUtil::print(const char *string, int xx, const char *sep) {
    800046ac:	fe010113          	addi	sp,sp,-32
    800046b0:	00113c23          	sd	ra,24(sp)
    800046b4:	00813823          	sd	s0,16(sp)
    800046b8:	00913423          	sd	s1,8(sp)
    800046bc:	01213023          	sd	s2,0(sp)
    800046c0:	02010413          	addi	s0,sp,32
    800046c4:	00058913          	mv	s2,a1
    800046c8:	00060493          	mv	s1,a2
    ConsoleUtil::printString(string);
    800046cc:	00000097          	auipc	ra,0x0
    800046d0:	ec0080e7          	jalr	-320(ra) # 8000458c <_ZN11ConsoleUtil11printStringEPKc>
    ConsoleUtil::printInt(xx);
    800046d4:	00000613          	li	a2,0
    800046d8:	00a00593          	li	a1,10
    800046dc:	00090513          	mv	a0,s2
    800046e0:	00000097          	auipc	ra,0x0
    800046e4:	ef0080e7          	jalr	-272(ra) # 800045d0 <_ZN11ConsoleUtil8printIntEiii>
    ConsoleUtil::printString(sep);
    800046e8:	00048513          	mv	a0,s1
    800046ec:	00000097          	auipc	ra,0x0
    800046f0:	ea0080e7          	jalr	-352(ra) # 8000458c <_ZN11ConsoleUtil11printStringEPKc>
}
    800046f4:	01813083          	ld	ra,24(sp)
    800046f8:	01013403          	ld	s0,16(sp)
    800046fc:	00813483          	ld	s1,8(sp)
    80004700:	00013903          	ld	s2,0(sp)
    80004704:	02010113          	addi	sp,sp,32
    80004708:	00008067          	ret

000000008000470c <_ZN11ConsoleUtil15putcUtilSyscallEv>:

char ConsoleUtil::putcUtilSyscall()
{
    8000470c:	ff010113          	addi	sp,sp,-16
    80004710:	00813423          	sd	s0,8(sp)
    80004714:	01010413          	addi	s0,sp,16
    asm("li a0, 0x43");
    80004718:	04300513          	li	a0,67

    asm("ecall");
    8000471c:	00000073          	ecall

    uint64 status;

    asm("mv %0, a0" : [status] "=r" (status));
    80004720:	00050513          	mv	a0,a0

    return (char)status;
}
    80004724:	0ff57513          	andi	a0,a0,255
    80004728:	00813403          	ld	s0,8(sp)
    8000472c:	01010113          	addi	sp,sp,16
    80004730:	00008067          	ret

0000000080004734 <_Z9kmem_initPvi>:
//
// Created by os on 1/2/23.
//
#include "../h/slab.hpp"

void kmem_init(void* space, int block_num){
    80004734:	ff010113          	addi	sp,sp,-16
    80004738:	00113423          	sd	ra,8(sp)
    8000473c:	00813023          	sd	s0,0(sp)
    80004740:	01010413          	addi	s0,sp,16
    SlabAllocator::initialize(space, block_num);
    80004744:	ffffd097          	auipc	ra,0xffffd
    80004748:	e20080e7          	jalr	-480(ra) # 80001564 <_ZN13SlabAllocator10initializeEPvm>
    8000474c:	00813083          	ld	ra,8(sp)
    80004750:	00013403          	ld	s0,0(sp)
    80004754:	01010113          	addi	sp,sp,16
    80004758:	00008067          	ret

000000008000475c <_ZN9BufferCPPC1Ei>:
#include "buffer_CPP_API.hpp"

BufferCPP::BufferCPP(int _cap) : cap(_cap + 1), head(0), tail(0) {
    8000475c:	fd010113          	addi	sp,sp,-48
    80004760:	02113423          	sd	ra,40(sp)
    80004764:	02813023          	sd	s0,32(sp)
    80004768:	00913c23          	sd	s1,24(sp)
    8000476c:	01213823          	sd	s2,16(sp)
    80004770:	01313423          	sd	s3,8(sp)
    80004774:	03010413          	addi	s0,sp,48
    80004778:	00050493          	mv	s1,a0
    8000477c:	00058913          	mv	s2,a1
    80004780:	0015879b          	addiw	a5,a1,1
    80004784:	0007851b          	sext.w	a0,a5
    80004788:	00f4a023          	sw	a5,0(s1)
    8000478c:	0004a823          	sw	zero,16(s1)
    80004790:	0004aa23          	sw	zero,20(s1)
    buffer = (int *)mem_alloc(sizeof(int) * cap);
    80004794:	00251513          	slli	a0,a0,0x2
    80004798:	ffffd097          	auipc	ra,0xffffd
    8000479c:	e64080e7          	jalr	-412(ra) # 800015fc <_Z9mem_allocm>
    800047a0:	00a4b423          	sd	a0,8(s1)
    itemAvailable = new Semaphore(0);
    800047a4:	01000513          	li	a0,16
    800047a8:	ffffe097          	auipc	ra,0xffffe
    800047ac:	600080e7          	jalr	1536(ra) # 80002da8 <_Znwm>
    800047b0:	00050993          	mv	s3,a0
    800047b4:	00000593          	li	a1,0
    800047b8:	ffffe097          	auipc	ra,0xffffe
    800047bc:	6e8080e7          	jalr	1768(ra) # 80002ea0 <_ZN9SemaphoreC1Ej>
    800047c0:	0334b023          	sd	s3,32(s1)
    spaceAvailable = new Semaphore(_cap);
    800047c4:	01000513          	li	a0,16
    800047c8:	ffffe097          	auipc	ra,0xffffe
    800047cc:	5e0080e7          	jalr	1504(ra) # 80002da8 <_Znwm>
    800047d0:	00050993          	mv	s3,a0
    800047d4:	00090593          	mv	a1,s2
    800047d8:	ffffe097          	auipc	ra,0xffffe
    800047dc:	6c8080e7          	jalr	1736(ra) # 80002ea0 <_ZN9SemaphoreC1Ej>
    800047e0:	0134bc23          	sd	s3,24(s1)
    mutexHead = new Semaphore(1);
    800047e4:	01000513          	li	a0,16
    800047e8:	ffffe097          	auipc	ra,0xffffe
    800047ec:	5c0080e7          	jalr	1472(ra) # 80002da8 <_Znwm>
    800047f0:	00050913          	mv	s2,a0
    800047f4:	00100593          	li	a1,1
    800047f8:	ffffe097          	auipc	ra,0xffffe
    800047fc:	6a8080e7          	jalr	1704(ra) # 80002ea0 <_ZN9SemaphoreC1Ej>
    80004800:	0324b423          	sd	s2,40(s1)
    mutexTail = new Semaphore(1);
    80004804:	01000513          	li	a0,16
    80004808:	ffffe097          	auipc	ra,0xffffe
    8000480c:	5a0080e7          	jalr	1440(ra) # 80002da8 <_Znwm>
    80004810:	00050913          	mv	s2,a0
    80004814:	00100593          	li	a1,1
    80004818:	ffffe097          	auipc	ra,0xffffe
    8000481c:	688080e7          	jalr	1672(ra) # 80002ea0 <_ZN9SemaphoreC1Ej>
    80004820:	0324b823          	sd	s2,48(s1)
}
    80004824:	02813083          	ld	ra,40(sp)
    80004828:	02013403          	ld	s0,32(sp)
    8000482c:	01813483          	ld	s1,24(sp)
