GAS LISTING /tmp/ccx7oCm9.s 			page 1


   1              		.file	"userMain.cpp"
   2              		.option pic
   3              		.option norelax
   4              		.text
   5              	.Ltext0:
   6              		.section	.rodata.str1.8,"aMS",@progbits,1
   7              		.align	3
   8              	.LC0:
   9 0000 413A2069 		.string	"A: i="
   9      3D00
  10 0006 0000     		.align	3
  11              	.LC1:
  12 0008 0A00     		.string	"\n"
  13 000a 00000000 		.align	3
  13      0000
  14              	.LC2:
  15 0010 41206669 		.string	"A finished!\n"
  15      6E697368 
  15      6564210A 
  15      00
  16              		.text
  17              		.align	2
  18              		.globl	_Z11workerBodyAPv
  20              	_Z11workerBodyAPv:
  21              	.LFB13:
  22              		.file 1 "src/user/tests/Threads_C_API_test.hpp"
   1:src/user/tests/Threads_C_API_test.hpp **** #ifndef XV6_THREADS_C_API_TEST_HPP
   2:src/user/tests/Threads_C_API_test.hpp **** #define XV6_THREADS_C_API_TEST_HPP
   3:src/user/tests/Threads_C_API_test.hpp **** 
   4:src/user/tests/Threads_C_API_test.hpp **** #include "../../../h/syscall_c.h"
   5:src/user/tests/Threads_C_API_test.hpp **** 
   6:src/user/tests/Threads_C_API_test.hpp **** #include "../../../h/printing.hpp"
   7:src/user/tests/Threads_C_API_test.hpp **** 
   8:src/user/tests/Threads_C_API_test.hpp **** bool finishedA = false;
   9:src/user/tests/Threads_C_API_test.hpp **** bool finishedB = false;
  10:src/user/tests/Threads_C_API_test.hpp **** bool finishedC = false;
  11:src/user/tests/Threads_C_API_test.hpp **** bool finishedD = false;
  12:src/user/tests/Threads_C_API_test.hpp **** 
  13:src/user/tests/Threads_C_API_test.hpp **** uint64 fibonacci(uint64 n) {
  14:src/user/tests/Threads_C_API_test.hpp ****     if (n == 0 || n == 1) { return n; }
  15:src/user/tests/Threads_C_API_test.hpp ****     if (n % 10 == 0) { thread_dispatch(); }
  16:src/user/tests/Threads_C_API_test.hpp ****     return fibonacci(n - 1) + fibonacci(n - 2);
  17:src/user/tests/Threads_C_API_test.hpp **** }
  18:src/user/tests/Threads_C_API_test.hpp **** 
  19:src/user/tests/Threads_C_API_test.hpp **** void workerBodyA(void* arg) {
  23              		.loc 1 19 29
  24              		.cfi_startproc
  25              	.LVL0:
  26 0000 130101FE 		addi	sp,sp,-32
  27              		.cfi_def_cfa_offset 32
  28 0004 233C1100 		sd	ra,24(sp)
  29 0008 23388100 		sd	s0,16(sp)
  30 000c 23349100 		sd	s1,8(sp)
  31 0010 23302101 		sd	s2,0(sp)
  32              		.cfi_offset 1, -8
  33              		.cfi_offset 8, -16
  34              		.cfi_offset 9, -24
GAS LISTING /tmp/ccx7oCm9.s 			page 2


  35              		.cfi_offset 18, -32
  36 0014 13040102 		addi	s0,sp,32
  37              		.cfi_def_cfa 8, 0
  20:src/user/tests/Threads_C_API_test.hpp ****     for (uint64 i = 0; i < 10; i++) {
  38              		.loc 1 20 5
  39              	.LVL1:
  40              	.LBB23:
  41              		.loc 1 20 17 is_stmt 0
  42 0018 13090000 		li	s2,0
  43 001c 6F008003 		j	.L7
  44              	.LVL2:
  45              	.L4:
  46              	.LBB24:
  47              	.LBB25:
  48              	.LBB26:
  21:src/user/tests/Threads_C_API_test.hpp ****         printString("A: i="); printInt(i); printString("\n");
  22:src/user/tests/Threads_C_API_test.hpp ****         for (uint64 j = 0; j < 10000; j++) {
  23:src/user/tests/Threads_C_API_test.hpp ****             for (uint64 k = 0; k < 30000; k++) { /* busy wait */ }
  24:src/user/tests/Threads_C_API_test.hpp ****             thread_dispatch();
  49              		.loc 1 24 13 is_stmt 1 discriminator 2
  50              		.loc 1 24 28 is_stmt 0 discriminator 2
  51 0020 97000000 		call	_Z15thread_dispatchv@plt
  51      E7800000 
  52              	.LVL3:
  53              	.LBE26:
  22:src/user/tests/Threads_C_API_test.hpp ****             for (uint64 k = 0; k < 30000; k++) { /* busy wait */ }
  54              		.loc 1 22 9 is_stmt 1 discriminator 2
  55 0028 93841400 		addi	s1,s1,1
  56              	.LVL4:
  57              	.L6:
  22:src/user/tests/Threads_C_API_test.hpp ****             for (uint64 k = 0; k < 30000; k++) { /* busy wait */ }
  58              		.loc 1 22 30 discriminator 1
  59 002c B7270000 		li	a5,8192
  60 0030 9387F770 		addi	a5,a5,1807
  61 0034 63EE9700 		bgtu	s1,a5,.L3
  62              	.LBB28:
  63              	.LBB27:
  23:src/user/tests/Threads_C_API_test.hpp ****             thread_dispatch();
  64              		.loc 1 23 25 is_stmt 0
  65 0038 13070000 		li	a4,0
  66              	.L5:
  67              	.LVL5:
  23:src/user/tests/Threads_C_API_test.hpp ****             thread_dispatch();
  68              		.loc 1 23 34 is_stmt 1 discriminator 3
  69 003c B7770000 		li	a5,28672
  70 0040 9387F752 		addi	a5,a5,1327
  71 0044 E3EEE7FC 		bgtu	a4,a5,.L4
  23:src/user/tests/Threads_C_API_test.hpp ****             thread_dispatch();
  72              		.loc 1 23 13 discriminator 2
  73 0048 13071700 		addi	a4,a4,1
  74              	.LVL6:
  75 004c 6FF01FFF 		j	.L5
  76              	.LVL7:
  77              	.L3:
  78              	.LBE27:
  79              	.LBE28:
  80              	.LBE25:
GAS LISTING /tmp/ccx7oCm9.s 			page 3


  81              	.LBE24:
  20:src/user/tests/Threads_C_API_test.hpp ****         printString("A: i="); printInt(i); printString("\n");
  82              		.loc 1 20 5 discriminator 2
  83 0050 13091900 		addi	s2,s2,1
  84              	.LVL8:
  85              	.L7:
  20:src/user/tests/Threads_C_API_test.hpp ****         printString("A: i="); printInt(i); printString("\n");
  86              		.loc 1 20 26 discriminator 1
  87 0054 93079000 		li	a5,9
  88 0058 63E02705 		bgtu	s2,a5,.L2
  89              	.LBB30:
  21:src/user/tests/Threads_C_API_test.hpp ****         for (uint64 j = 0; j < 10000; j++) {
  90              		.loc 1 21 9
  21:src/user/tests/Threads_C_API_test.hpp ****         for (uint64 j = 0; j < 10000; j++) {
  91              		.loc 1 21 20 is_stmt 0
  92 005c 17050000 		lla	a0,.LC0
  92      13050500 
  93 0064 97000000 		call	_Z11printStringPKc@plt
  93      E7800000 
  94              	.LVL9:
  21:src/user/tests/Threads_C_API_test.hpp ****         for (uint64 j = 0; j < 10000; j++) {
  95              		.loc 1 21 31 is_stmt 1
  21:src/user/tests/Threads_C_API_test.hpp ****         for (uint64 j = 0; j < 10000; j++) {
  96              		.loc 1 21 39 is_stmt 0
  97 006c 13060000 		li	a2,0
  98 0070 9305A000 		li	a1,10
  99 0074 1B050900 		sext.w	a0,s2
 100 0078 97000000 		call	_Z8printIntiii@plt
 100      E7800000 
 101              	.LVL10:
  21:src/user/tests/Threads_C_API_test.hpp ****         for (uint64 j = 0; j < 10000; j++) {
 102              		.loc 1 21 44 is_stmt 1
  21:src/user/tests/Threads_C_API_test.hpp ****         for (uint64 j = 0; j < 10000; j++) {
 103              		.loc 1 21 55 is_stmt 0
 104 0080 17050000 		lla	a0,.LC1
 104      13050500 
 105 0088 97000000 		call	_Z11printStringPKc@plt
 105      E7800000 
 106              	.LVL11:
  22:src/user/tests/Threads_C_API_test.hpp ****             for (uint64 k = 0; k < 30000; k++) { /* busy wait */ }
 107              		.loc 1 22 9 is_stmt 1
 108              	.LBB29:
  22:src/user/tests/Threads_C_API_test.hpp ****             for (uint64 k = 0; k < 30000; k++) { /* busy wait */ }
 109              		.loc 1 22 21 is_stmt 0
 110 0090 93040000 		li	s1,0
 111 0094 6FF09FF9 		j	.L6
 112              	.LVL12:
 113              	.L2:
 114              	.LBE29:
 115              	.LBE30:
 116              	.LBE23:
  25:src/user/tests/Threads_C_API_test.hpp ****         }
  26:src/user/tests/Threads_C_API_test.hpp ****     }
  27:src/user/tests/Threads_C_API_test.hpp ****     printString("A finished!\n");
 117              		.loc 1 27 5 is_stmt 1
 118              		.loc 1 27 16 is_stmt 0
 119 0098 17050000 		lla	a0,.LC2
GAS LISTING /tmp/ccx7oCm9.s 			page 4


 119      13050500 
 120 00a0 97000000 		call	_Z11printStringPKc@plt
 120      E7800000 
 121              	.LVL13:
  28:src/user/tests/Threads_C_API_test.hpp ****     finishedA = true;
 122              		.loc 1 28 5 is_stmt 1
 123              		.loc 1 28 15 is_stmt 0
 124 00a8 93071000 		li	a5,1
 125 00ac 17070000 		sb	a5,.LANCHOR0,a4
 125      2300F700 
  29:src/user/tests/Threads_C_API_test.hpp **** }
 126              		.loc 1 29 1
 127 00b4 83308101 		ld	ra,24(sp)
 128              		.cfi_restore 1
 129 00b8 03340101 		ld	s0,16(sp)
 130              		.cfi_restore 8
 131              		.cfi_def_cfa 2, 32
 132 00bc 83348100 		ld	s1,8(sp)
 133              		.cfi_restore 9
 134 00c0 03390100 		ld	s2,0(sp)
 135              		.cfi_restore 18
 136              	.LVL14:
 137 00c4 13010102 		addi	sp,sp,32
 138              		.cfi_def_cfa_offset 0
 139 00c8 67800000 		jr	ra
 140              		.cfi_endproc
 141              	.LFE13:
 143              		.section	.rodata.str1.8
 144 001d 000000   		.align	3
 145              	.LC3:
 146 0020 423A2069 		.string	"B: i="
 146      3D00
 147 0026 0000     		.align	3
 148              	.LC4:
 149 0028 42206669 		.string	"B finished!\n"
 149      6E697368 
 149      6564210A 
 149      00
 150              		.text
 151              		.align	2
 152              		.globl	_Z11workerBodyBPv
 154              	_Z11workerBodyBPv:
 155              	.LFB14:
  30:src/user/tests/Threads_C_API_test.hpp **** 
  31:src/user/tests/Threads_C_API_test.hpp **** void workerBodyB(void* arg) {
 156              		.loc 1 31 29 is_stmt 1
 157              		.cfi_startproc
 158              	.LVL15:
 159 00cc 130101FE 		addi	sp,sp,-32
 160              		.cfi_def_cfa_offset 32
 161 00d0 233C1100 		sd	ra,24(sp)
 162 00d4 23388100 		sd	s0,16(sp)
 163 00d8 23349100 		sd	s1,8(sp)
 164 00dc 23302101 		sd	s2,0(sp)
 165              		.cfi_offset 1, -8
 166              		.cfi_offset 8, -16
 167              		.cfi_offset 9, -24
GAS LISTING /tmp/ccx7oCm9.s 			page 5


 168              		.cfi_offset 18, -32
 169 00e0 13040102 		addi	s0,sp,32
 170              		.cfi_def_cfa 8, 0
  32:src/user/tests/Threads_C_API_test.hpp ****     for (uint64 i = 0; i < 16; i++) {
 171              		.loc 1 32 5
 172              	.LVL16:
 173              	.LBB31:
 174              		.loc 1 32 17 is_stmt 0
 175 00e4 13090000 		li	s2,0
 176 00e8 6F008003 		j	.L15
 177              	.LVL17:
 178              	.L12:
 179              	.LBB32:
 180              	.LBB33:
 181              	.LBB34:
  33:src/user/tests/Threads_C_API_test.hpp ****         printString("B: i="); printInt(i); printString("\n");
  34:src/user/tests/Threads_C_API_test.hpp ****         for (uint64 j = 0; j < 10000; j++) {
  35:src/user/tests/Threads_C_API_test.hpp ****             for (uint64 k = 0; k < 30000; k++) { /* busy wait */ }
  36:src/user/tests/Threads_C_API_test.hpp ****             thread_dispatch();
 182              		.loc 1 36 13 is_stmt 1 discriminator 2
 183              		.loc 1 36 28 is_stmt 0 discriminator 2
 184 00ec 97000000 		call	_Z15thread_dispatchv@plt
 184      E7800000 
 185              	.LVL18:
 186              	.LBE34:
  34:src/user/tests/Threads_C_API_test.hpp ****             for (uint64 k = 0; k < 30000; k++) { /* busy wait */ }
 187              		.loc 1 34 9 is_stmt 1 discriminator 2
 188 00f4 93841400 		addi	s1,s1,1
 189              	.LVL19:
 190              	.L14:
  34:src/user/tests/Threads_C_API_test.hpp ****             for (uint64 k = 0; k < 30000; k++) { /* busy wait */ }
 191              		.loc 1 34 30 discriminator 1
 192 00f8 B7270000 		li	a5,8192
 193 00fc 9387F770 		addi	a5,a5,1807
 194 0100 63EE9700 		bgtu	s1,a5,.L11
 195              	.LBB36:
 196              	.LBB35:
  35:src/user/tests/Threads_C_API_test.hpp ****             thread_dispatch();
 197              		.loc 1 35 25 is_stmt 0
 198 0104 13070000 		li	a4,0
 199              	.L13:
 200              	.LVL20:
  35:src/user/tests/Threads_C_API_test.hpp ****             thread_dispatch();
 201              		.loc 1 35 34 is_stmt 1 discriminator 3
 202 0108 B7770000 		li	a5,28672
 203 010c 9387F752 		addi	a5,a5,1327
 204 0110 E3EEE7FC 		bgtu	a4,a5,.L12
  35:src/user/tests/Threads_C_API_test.hpp ****             thread_dispatch();
 205              		.loc 1 35 13 discriminator 2
 206 0114 13071700 		addi	a4,a4,1
 207              	.LVL21:
 208 0118 6FF01FFF 		j	.L13
 209              	.LVL22:
 210              	.L11:
 211              	.LBE35:
 212              	.LBE36:
 213              	.LBE33:
GAS LISTING /tmp/ccx7oCm9.s 			page 6


 214              	.LBE32:
  32:src/user/tests/Threads_C_API_test.hpp ****         printString("B: i="); printInt(i); printString("\n");
 215              		.loc 1 32 5 discriminator 2
 216 011c 13091900 		addi	s2,s2,1
 217              	.LVL23:
 218              	.L15:
  32:src/user/tests/Threads_C_API_test.hpp ****         printString("B: i="); printInt(i); printString("\n");
 219              		.loc 1 32 26 discriminator 1
 220 0120 9307F000 		li	a5,15
 221 0124 63E02705 		bgtu	s2,a5,.L10
 222              	.LBB38:
  33:src/user/tests/Threads_C_API_test.hpp ****         for (uint64 j = 0; j < 10000; j++) {
 223              		.loc 1 33 9
  33:src/user/tests/Threads_C_API_test.hpp ****         for (uint64 j = 0; j < 10000; j++) {
 224              		.loc 1 33 20 is_stmt 0
 225 0128 17050000 		lla	a0,.LC3
 225      13050500 
 226 0130 97000000 		call	_Z11printStringPKc@plt
 226      E7800000 
 227              	.LVL24:
  33:src/user/tests/Threads_C_API_test.hpp ****         for (uint64 j = 0; j < 10000; j++) {
 228              		.loc 1 33 31 is_stmt 1
  33:src/user/tests/Threads_C_API_test.hpp ****         for (uint64 j = 0; j < 10000; j++) {
 229              		.loc 1 33 39 is_stmt 0
 230 0138 13060000 		li	a2,0
 231 013c 9305A000 		li	a1,10
 232 0140 1B050900 		sext.w	a0,s2
 233 0144 97000000 		call	_Z8printIntiii@plt
 233      E7800000 
 234              	.LVL25:
  33:src/user/tests/Threads_C_API_test.hpp ****         for (uint64 j = 0; j < 10000; j++) {
 235              		.loc 1 33 44 is_stmt 1
  33:src/user/tests/Threads_C_API_test.hpp ****         for (uint64 j = 0; j < 10000; j++) {
 236              		.loc 1 33 55 is_stmt 0
 237 014c 17050000 		lla	a0,.LC1
 237      13050500 
 238 0154 97000000 		call	_Z11printStringPKc@plt
 238      E7800000 
 239              	.LVL26:
  34:src/user/tests/Threads_C_API_test.hpp ****             for (uint64 k = 0; k < 30000; k++) { /* busy wait */ }
 240              		.loc 1 34 9 is_stmt 1
 241              	.LBB37:
  34:src/user/tests/Threads_C_API_test.hpp ****             for (uint64 k = 0; k < 30000; k++) { /* busy wait */ }
 242              		.loc 1 34 21 is_stmt 0
 243 015c 93040000 		li	s1,0
 244 0160 6FF09FF9 		j	.L14
 245              	.LVL27:
 246              	.L10:
 247              	.LBE37:
 248              	.LBE38:
 249              	.LBE31:
  37:src/user/tests/Threads_C_API_test.hpp ****         }
  38:src/user/tests/Threads_C_API_test.hpp ****     }
  39:src/user/tests/Threads_C_API_test.hpp ****     printString("B finished!\n");
 250              		.loc 1 39 5 is_stmt 1
 251              		.loc 1 39 16 is_stmt 0
 252 0164 17050000 		lla	a0,.LC4
GAS LISTING /tmp/ccx7oCm9.s 			page 7


 252      13050500 
 253 016c 97000000 		call	_Z11printStringPKc@plt
 253      E7800000 
 254              	.LVL28:
  40:src/user/tests/Threads_C_API_test.hpp ****     finishedB = true;
 255              		.loc 1 40 5 is_stmt 1
 256              		.loc 1 40 15 is_stmt 0
 257 0174 93071000 		li	a5,1
 258 0178 17070000 		sb	a5,.LANCHOR0+1,a4
 258      2300F700 
  41:src/user/tests/Threads_C_API_test.hpp ****     thread_dispatch();
 259              		.loc 1 41 5 is_stmt 1
 260              		.loc 1 41 20 is_stmt 0
 261 0180 97000000 		call	_Z15thread_dispatchv@plt
 261      E7800000 
 262              	.LVL29:
  42:src/user/tests/Threads_C_API_test.hpp **** }
 263              		.loc 1 42 1
 264 0188 83308101 		ld	ra,24(sp)
 265              		.cfi_restore 1
 266 018c 03340101 		ld	s0,16(sp)
 267              		.cfi_restore 8
 268              		.cfi_def_cfa 2, 32
 269 0190 83348100 		ld	s1,8(sp)
 270              		.cfi_restore 9
 271 0194 03390100 		ld	s2,0(sp)
 272              		.cfi_restore 18
 273              	.LVL30:
 274 0198 13010102 		addi	sp,sp,32
 275              		.cfi_def_cfa_offset 0
 276 019c 67800000 		jr	ra
 277              		.cfi_endproc
 278              	.LFE14:
 280              		.section	.text._ZN19ConsumerProducerCPP8Consumer3runEv,"axG",@progbits,_ZN19ConsumerProducerCPP8Co
 281              		.align	2
 282              		.weak	_ZN19ConsumerProducerCPP8Consumer3runEv
 284              	_ZN19ConsumerProducerCPP8Consumer3runEv:
 285              	.LFB31:
 286              		.file 2 "src/user/tests/ConsumerProducer_CPP_API_test.hpp"
   1:src/user/tests/ConsumerProducer_CPP_API_test.hpp **** //
   2:src/user/tests/ConsumerProducer_CPP_API_test.hpp **** // Created by os on 4/17/22.
   3:src/user/tests/ConsumerProducer_CPP_API_test.hpp **** //
   4:src/user/tests/ConsumerProducer_CPP_API_test.hpp **** 
   5:src/user/tests/ConsumerProducer_CPP_API_test.hpp **** #ifndef XV6_CONSUMERPRODUCER_CPP_API_TEST_HPP
   6:src/user/tests/ConsumerProducer_CPP_API_test.hpp **** #define XV6_CONSUMERPRODUCER_CPP_API_TEST_HPP
   7:src/user/tests/ConsumerProducer_CPP_API_test.hpp **** 
   8:src/user/tests/ConsumerProducer_CPP_API_test.hpp **** #include "../../../h/syscall_cpp.hpp"
   9:src/user/tests/ConsumerProducer_CPP_API_test.hpp **** 
  10:src/user/tests/ConsumerProducer_CPP_API_test.hpp **** #include "buffer_CPP_API.hpp"
  11:src/user/tests/ConsumerProducer_CPP_API_test.hpp **** #include "../../../h/printing.hpp"
  12:src/user/tests/ConsumerProducer_CPP_API_test.hpp **** 
  13:src/user/tests/ConsumerProducer_CPP_API_test.hpp **** namespace ConsumerProducerCPP {
  14:src/user/tests/ConsumerProducer_CPP_API_test.hpp **** 
  15:src/user/tests/ConsumerProducer_CPP_API_test.hpp ****     Semaphore *waitForAll;
  16:src/user/tests/ConsumerProducer_CPP_API_test.hpp **** 
  17:src/user/tests/ConsumerProducer_CPP_API_test.hpp ****     struct thread_data {
  18:src/user/tests/ConsumerProducer_CPP_API_test.hpp ****         int id;
GAS LISTING /tmp/ccx7oCm9.s 			page 8


  19:src/user/tests/ConsumerProducer_CPP_API_test.hpp ****         BufferCPP *buffer;
  20:src/user/tests/ConsumerProducer_CPP_API_test.hpp ****         Semaphore *sem;
  21:src/user/tests/ConsumerProducer_CPP_API_test.hpp ****     };
  22:src/user/tests/ConsumerProducer_CPP_API_test.hpp **** 
  23:src/user/tests/ConsumerProducer_CPP_API_test.hpp ****     volatile int threadEnd = 0;
  24:src/user/tests/ConsumerProducer_CPP_API_test.hpp **** 
  25:src/user/tests/ConsumerProducer_CPP_API_test.hpp ****     class ProducerKeyborad : public Thread {
  26:src/user/tests/ConsumerProducer_CPP_API_test.hpp ****         thread_data *td;
  27:src/user/tests/ConsumerProducer_CPP_API_test.hpp ****     public:
  28:src/user/tests/ConsumerProducer_CPP_API_test.hpp ****         ProducerKeyborad(thread_data *_td) : Thread(), td(_td) {}
  29:src/user/tests/ConsumerProducer_CPP_API_test.hpp **** 
  30:src/user/tests/ConsumerProducer_CPP_API_test.hpp ****         void run() override {
  31:src/user/tests/ConsumerProducer_CPP_API_test.hpp ****             int key;
  32:src/user/tests/ConsumerProducer_CPP_API_test.hpp ****             int i = 0;
  33:src/user/tests/ConsumerProducer_CPP_API_test.hpp ****             while ((key = getc()) != 0x1b) {
  34:src/user/tests/ConsumerProducer_CPP_API_test.hpp ****                 td->buffer->put(key);
  35:src/user/tests/ConsumerProducer_CPP_API_test.hpp ****                 i++;
  36:src/user/tests/ConsumerProducer_CPP_API_test.hpp ****             }
  37:src/user/tests/ConsumerProducer_CPP_API_test.hpp **** 
  38:src/user/tests/ConsumerProducer_CPP_API_test.hpp ****             threadEnd = 1;
  39:src/user/tests/ConsumerProducer_CPP_API_test.hpp ****             td->buffer->put('!');
  40:src/user/tests/ConsumerProducer_CPP_API_test.hpp **** 
  41:src/user/tests/ConsumerProducer_CPP_API_test.hpp ****             td->sem->signal();
  42:src/user/tests/ConsumerProducer_CPP_API_test.hpp ****         }
  43:src/user/tests/ConsumerProducer_CPP_API_test.hpp ****     };
  44:src/user/tests/ConsumerProducer_CPP_API_test.hpp **** 
  45:src/user/tests/ConsumerProducer_CPP_API_test.hpp ****     class Producer : public Thread {
  46:src/user/tests/ConsumerProducer_CPP_API_test.hpp ****         thread_data *td;
  47:src/user/tests/ConsumerProducer_CPP_API_test.hpp ****     public:
  48:src/user/tests/ConsumerProducer_CPP_API_test.hpp ****         Producer(thread_data *_td) : Thread(), td(_td) {}
  49:src/user/tests/ConsumerProducer_CPP_API_test.hpp **** 
  50:src/user/tests/ConsumerProducer_CPP_API_test.hpp ****         void run() override {
  51:src/user/tests/ConsumerProducer_CPP_API_test.hpp ****             int i = 0;
  52:src/user/tests/ConsumerProducer_CPP_API_test.hpp ****             while (!threadEnd) {
  53:src/user/tests/ConsumerProducer_CPP_API_test.hpp ****                 td->buffer->put(td->id + '0');
  54:src/user/tests/ConsumerProducer_CPP_API_test.hpp ****                 i++;
  55:src/user/tests/ConsumerProducer_CPP_API_test.hpp ****                 Thread::sleep((i+td->id)%5);
  56:src/user/tests/ConsumerProducer_CPP_API_test.hpp ****             }
  57:src/user/tests/ConsumerProducer_CPP_API_test.hpp **** 
  58:src/user/tests/ConsumerProducer_CPP_API_test.hpp ****             td->sem->signal();
  59:src/user/tests/ConsumerProducer_CPP_API_test.hpp ****         }
  60:src/user/tests/ConsumerProducer_CPP_API_test.hpp ****     };
  61:src/user/tests/ConsumerProducer_CPP_API_test.hpp **** 
  62:src/user/tests/ConsumerProducer_CPP_API_test.hpp ****     class Consumer : public Thread {
  63:src/user/tests/ConsumerProducer_CPP_API_test.hpp ****         thread_data *td;
  64:src/user/tests/ConsumerProducer_CPP_API_test.hpp ****     public:
  65:src/user/tests/ConsumerProducer_CPP_API_test.hpp ****         Consumer(thread_data *_td) : Thread(), td(_td) {}
  66:src/user/tests/ConsumerProducer_CPP_API_test.hpp **** 
  67:src/user/tests/ConsumerProducer_CPP_API_test.hpp ****         void run() override {
 287              		.loc 2 67 14 is_stmt 1
 288              		.cfi_startproc
 289              	.LVL31:
 290 0000 130101FD 		addi	sp,sp,-48
 291              		.cfi_def_cfa_offset 48
 292 0004 23341102 		sd	ra,40(sp)
 293 0008 23308102 		sd	s0,32(sp)
 294 000c 233C9100 		sd	s1,24(sp)
GAS LISTING /tmp/ccx7oCm9.s 			page 9


 295 0010 23382101 		sd	s2,16(sp)
 296 0014 23343101 		sd	s3,8(sp)
 297              		.cfi_offset 1, -8
 298              		.cfi_offset 8, -16
 299              		.cfi_offset 9, -24
 300              		.cfi_offset 18, -32
 301              		.cfi_offset 19, -40
 302 0018 13040103 		addi	s0,sp,48
 303              		.cfi_def_cfa 8, 0
 304 001c 13090500 		mv	s2,a0
  68:src/user/tests/ConsumerProducer_CPP_API_test.hpp ****             int i = 0;
 305              		.loc 2 68 13
 306              	.LVL32:
 307              		.loc 2 68 17 is_stmt 0
 308 0020 93090000 		li	s3,0
 309 0024 6F000001 		j	.L18
 310              	.LVL33:
 311              	.L23:
 312              	.LBB39:
  69:src/user/tests/ConsumerProducer_CPP_API_test.hpp ****             while (!threadEnd) {
  70:src/user/tests/ConsumerProducer_CPP_API_test.hpp ****                 int key = td->buffer->get();
  71:src/user/tests/ConsumerProducer_CPP_API_test.hpp ****                 i++;
  72:src/user/tests/ConsumerProducer_CPP_API_test.hpp **** 
  73:src/user/tests/ConsumerProducer_CPP_API_test.hpp ****                 Console::putc(key);
  74:src/user/tests/ConsumerProducer_CPP_API_test.hpp **** 
  75:src/user/tests/ConsumerProducer_CPP_API_test.hpp ****                 if (i % 80 == 0) {
  76:src/user/tests/ConsumerProducer_CPP_API_test.hpp ****                     Console::putc('\n');
 313              		.loc 2 76 21 is_stmt 1
 314              		.loc 2 76 34 is_stmt 0
 315 0028 1305A000 		li	a0,10
 316 002c 97000000 		call	_ZN7Console4putcEc@plt
 316      E7800000 
 317              	.LVL34:
 318              	.L18:
 319              	.LBE39:
  69:src/user/tests/ConsumerProducer_CPP_API_test.hpp ****             while (!threadEnd) {
 320              		.loc 2 69 13 is_stmt 1
  69:src/user/tests/ConsumerProducer_CPP_API_test.hpp ****             while (!threadEnd) {
 321              		.loc 2 69 20
 322 0034 97070000 		lw	a5,.LANCHOR0+4
 322      83A70700 
 323 003c 639A0704 		bnez	a5,.L19
 324              	.LBB40:
  70:src/user/tests/ConsumerProducer_CPP_API_test.hpp ****                 i++;
 325              		.loc 2 70 17
  70:src/user/tests/ConsumerProducer_CPP_API_test.hpp ****                 i++;
 326              		.loc 2 70 27 is_stmt 0
 327 0040 83370901 		ld	a5,16(s2)
  70:src/user/tests/ConsumerProducer_CPP_API_test.hpp ****                 i++;
 328              		.loc 2 70 42
 329 0044 03B58700 		ld	a0,8(a5)
 330 0048 97000000 		call	_ZN9BufferCPP3getEv@plt
 330      E7800000 
 331              	.LVL35:
  71:src/user/tests/ConsumerProducer_CPP_API_test.hpp **** 
 332              		.loc 2 71 17 is_stmt 1
  71:src/user/tests/ConsumerProducer_CPP_API_test.hpp **** 
GAS LISTING /tmp/ccx7oCm9.s 			page 10


 333              		.loc 2 71 18 is_stmt 0
 334 0050 9B841900 		addiw	s1,s3,1
 335 0054 9B890400 		sext.w	s3,s1
 336              	.LVL36:
  73:src/user/tests/ConsumerProducer_CPP_API_test.hpp **** 
 337              		.loc 2 73 17 is_stmt 1
  73:src/user/tests/ConsumerProducer_CPP_API_test.hpp **** 
 338              		.loc 2 73 30 is_stmt 0
 339 0058 1375F50F 		andi	a0,a0,0xff
 340              	.LVL37:
 341 005c 97000000 		call	_ZN7Console4putcEc@plt
 341      E7800000 
 342              	.LVL38:
  75:src/user/tests/ConsumerProducer_CPP_API_test.hpp ****                     Console::putc('\n');
 343              		.loc 2 75 17 is_stmt 1
  75:src/user/tests/ConsumerProducer_CPP_API_test.hpp ****                     Console::putc('\n');
 344              		.loc 2 75 23 is_stmt 0
 345 0064 93070005 		li	a5,80
 346 0068 BBE4F402 		remw	s1,s1,a5
 347              	.LVL39:
  75:src/user/tests/ConsumerProducer_CPP_API_test.hpp ****                     Console::putc('\n');
 348              		.loc 2 75 17
 349 006c E39404FC 		bnez	s1,.L18
 350 0070 6FF09FFB 		j	.L23
 351              	.L24:
 352              	.LBE40:
 353              	.LBB41:
  77:src/user/tests/ConsumerProducer_CPP_API_test.hpp ****                 }
  78:src/user/tests/ConsumerProducer_CPP_API_test.hpp ****             }
  79:src/user/tests/ConsumerProducer_CPP_API_test.hpp **** 
  80:src/user/tests/ConsumerProducer_CPP_API_test.hpp ****             while (td->buffer->getCnt() > 0) {
  81:src/user/tests/ConsumerProducer_CPP_API_test.hpp ****                 int key = td->buffer->get();
 354              		.loc 2 81 17 is_stmt 1
 355              		.loc 2 81 27 is_stmt 0
 356 0074 83370901 		ld	a5,16(s2)
 357              		.loc 2 81 42
 358 0078 03B58700 		ld	a0,8(a5)
 359 007c 97000000 		call	_ZN9BufferCPP3getEv@plt
 359      E7800000 
 360              	.LVL40:
  82:src/user/tests/ConsumerProducer_CPP_API_test.hpp ****                 Console::putc(key);
 361              		.loc 2 82 17 is_stmt 1
 362              		.loc 2 82 30 is_stmt 0
 363 0084 1375F50F 		andi	a0,a0,0xff
 364              	.LVL41:
 365 0088 97000000 		call	_ZN7Console4putcEc@plt
 365      E7800000 
 366              	.LVL42:
 367              	.L19:
 368              	.LBE41:
  80:src/user/tests/ConsumerProducer_CPP_API_test.hpp ****                 int key = td->buffer->get();
 369              		.loc 2 80 13 is_stmt 1
  80:src/user/tests/ConsumerProducer_CPP_API_test.hpp ****                 int key = td->buffer->get();
 370              		.loc 2 80 41
  80:src/user/tests/ConsumerProducer_CPP_API_test.hpp ****                 int key = td->buffer->get();
 371              		.loc 2 80 20 is_stmt 0
 372 0090 83370901 		ld	a5,16(s2)
GAS LISTING /tmp/ccx7oCm9.s 			page 11


  80:src/user/tests/ConsumerProducer_CPP_API_test.hpp ****                 int key = td->buffer->get();
 373              		.loc 2 80 38
 374 0094 03B58700 		ld	a0,8(a5)
 375 0098 97000000 		call	_ZN9BufferCPP6getCntEv@plt
 375      E7800000 
 376              	.LVL43:
  80:src/user/tests/ConsumerProducer_CPP_API_test.hpp ****                 int key = td->buffer->get();
 377              		.loc 2 80 41
 378 00a0 E34AA0FC 		bgtz	a0,.L24
  83:src/user/tests/ConsumerProducer_CPP_API_test.hpp ****             }
  84:src/user/tests/ConsumerProducer_CPP_API_test.hpp **** 
  85:src/user/tests/ConsumerProducer_CPP_API_test.hpp ****             td->sem->signal();
 379              		.loc 2 85 13 is_stmt 1
 380 00a4 83370901 		ld	a5,16(s2)
 381              		.loc 2 85 28 is_stmt 0
 382 00a8 03B50701 		ld	a0,16(a5)
 383 00ac 97000000 		call	_ZN9Semaphore6signalEv@plt
 383      E7800000 
 384              	.LVL44:
  86:src/user/tests/ConsumerProducer_CPP_API_test.hpp ****         }
 385              		.loc 2 86 9
 386 00b4 83308102 		ld	ra,40(sp)
 387              		.cfi_restore 1
 388 00b8 03340102 		ld	s0,32(sp)
 389              		.cfi_restore 8
 390              		.cfi_def_cfa 2, 48
 391 00bc 83348101 		ld	s1,24(sp)
 392              		.cfi_restore 9
 393 00c0 03390101 		ld	s2,16(sp)
 394              		.cfi_restore 18
 395              	.LVL45:
 396 00c4 83398100 		ld	s3,8(sp)
 397              		.cfi_restore 19
 398              	.LVL46:
 399 00c8 13010103 		addi	sp,sp,48
 400              		.cfi_def_cfa_offset 0
 401 00cc 67800000 		jr	ra
 402              		.cfi_endproc
 403              	.LFE31:
 405              		.section	.text._ZN19ConsumerProducerCPP8ConsumerD2Ev,"axG",@progbits,_ZN19ConsumerProducerCPP8Cons
 406              		.align	2
 407              		.weak	_ZN19ConsumerProducerCPP8ConsumerD2Ev
 409              	_ZN19ConsumerProducerCPP8ConsumerD2Ev:
 410              	.LFB35:
  62:src/user/tests/ConsumerProducer_CPP_API_test.hpp ****         thread_data *td;
 411              		.loc 2 62 11 is_stmt 1
 412              		.cfi_startproc
 413              	.LVL47:
 414 0000 130101FF 		addi	sp,sp,-16
 415              		.cfi_def_cfa_offset 16
 416 0004 23341100 		sd	ra,8(sp)
 417 0008 23308100 		sd	s0,0(sp)
 418              		.cfi_offset 1, -8
 419              		.cfi_offset 8, -16
 420 000c 13040101 		addi	s0,sp,16
 421              		.cfi_def_cfa 8, 0
 422              	.LBB42:
GAS LISTING /tmp/ccx7oCm9.s 			page 12


  62:src/user/tests/ConsumerProducer_CPP_API_test.hpp ****         thread_data *td;
 423              		.loc 2 62 11 is_stmt 0
 424 0010 97070000 		lla	a5,_ZTVN19ConsumerProducerCPP8ConsumerE+16
 424      93870700 
 425 0018 2330F500 		sd	a5,0(a0)
 426 001c 97000000 		call	_ZN6ThreadD2Ev@plt
 426      E7800000 
 427              	.LVL48:
 428              	.LBE42:
 429 0024 83308100 		ld	ra,8(sp)
 430              		.cfi_restore 1
 431 0028 03340100 		ld	s0,0(sp)
 432              		.cfi_restore 8
 433              		.cfi_def_cfa 2, 16
 434 002c 13010101 		addi	sp,sp,16
 435              		.cfi_def_cfa_offset 0
 436 0030 67800000 		jr	ra
 437              		.cfi_endproc
 438              	.LFE35:
 440              		.weak	_ZN19ConsumerProducerCPP8ConsumerD1Ev
 441              		.set	_ZN19ConsumerProducerCPP8ConsumerD1Ev,_ZN19ConsumerProducerCPP8ConsumerD2Ev
 442              		.section	.text._ZN19ConsumerProducerCPP8ConsumerD0Ev,"axG",@progbits,_ZN19ConsumerProducerCPP8Cons
 443              		.align	2
 444              		.weak	_ZN19ConsumerProducerCPP8ConsumerD0Ev
 446              	_ZN19ConsumerProducerCPP8ConsumerD0Ev:
 447              	.LFB37:
  62:src/user/tests/ConsumerProducer_CPP_API_test.hpp ****         thread_data *td;
 448              		.loc 2 62 11 is_stmt 1
 449              		.cfi_startproc
 450              	.LVL49:
 451 0000 130101FE 		addi	sp,sp,-32
 452              		.cfi_def_cfa_offset 32
 453 0004 233C1100 		sd	ra,24(sp)
 454 0008 23388100 		sd	s0,16(sp)
 455 000c 23349100 		sd	s1,8(sp)
 456              		.cfi_offset 1, -8
 457              		.cfi_offset 8, -16
 458              		.cfi_offset 9, -24
 459 0010 13040102 		addi	s0,sp,32
 460              		.cfi_def_cfa 8, 0
 461 0014 93040500 		mv	s1,a0
 462              	.LVL50:
 463              	.LBB43:
 464              	.LBB44:
  62:src/user/tests/ConsumerProducer_CPP_API_test.hpp ****         thread_data *td;
 465              		.loc 2 62 11 is_stmt 0
 466 0018 97070000 		lla	a5,_ZTVN19ConsumerProducerCPP8ConsumerE+16
 466      93870700 
 467 0020 2330F500 		sd	a5,0(a0)
 468 0024 97000000 		call	_ZN6ThreadD2Ev@plt
 468      E7800000 
 469              	.LVL51:
 470              	.LBE44:
 471              	.LBE43:
 472 002c 13850400 		mv	a0,s1
 473 0030 97000000 		call	_ZdlPv@plt
 473      E7800000 
GAS LISTING /tmp/ccx7oCm9.s 			page 13


 474              	.LVL52:
 475 0038 83308101 		ld	ra,24(sp)
 476              		.cfi_restore 1
 477 003c 03340101 		ld	s0,16(sp)
 478              		.cfi_restore 8
 479              		.cfi_def_cfa 2, 32
 480 0040 83348100 		ld	s1,8(sp)
 481              		.cfi_restore 9
 482              	.LVL53:
 483 0044 13010102 		addi	sp,sp,32
 484              		.cfi_def_cfa_offset 0
 485 0048 67800000 		jr	ra
 486              		.cfi_endproc
 487              	.LFE37:
 489              		.section	.text._ZN19ConsumerProducerCPP16ProducerKeyboradD2Ev,"axG",@progbits,_ZN19ConsumerProduce
 490              		.align	2
 491              		.weak	_ZN19ConsumerProducerCPP16ProducerKeyboradD2Ev
 493              	_ZN19ConsumerProducerCPP16ProducerKeyboradD2Ev:
 494              	.LFB43:
  25:src/user/tests/ConsumerProducer_CPP_API_test.hpp ****         thread_data *td;
 495              		.loc 2 25 11 is_stmt 1
 496              		.cfi_startproc
 497              	.LVL54:
 498 0000 130101FF 		addi	sp,sp,-16
 499              		.cfi_def_cfa_offset 16
 500 0004 23341100 		sd	ra,8(sp)
 501 0008 23308100 		sd	s0,0(sp)
 502              		.cfi_offset 1, -8
 503              		.cfi_offset 8, -16
 504 000c 13040101 		addi	s0,sp,16
 505              		.cfi_def_cfa 8, 0
 506              	.LBB45:
  25:src/user/tests/ConsumerProducer_CPP_API_test.hpp ****         thread_data *td;
 507              		.loc 2 25 11 is_stmt 0
 508 0010 97070000 		lla	a5,_ZTVN19ConsumerProducerCPP16ProducerKeyboradE+16
 508      93870700 
 509 0018 2330F500 		sd	a5,0(a0)
 510 001c 97000000 		call	_ZN6ThreadD2Ev@plt
 510      E7800000 
 511              	.LVL55:
 512              	.LBE45:
 513 0024 83308100 		ld	ra,8(sp)
 514              		.cfi_restore 1
 515 0028 03340100 		ld	s0,0(sp)
 516              		.cfi_restore 8
 517              		.cfi_def_cfa 2, 16
 518 002c 13010101 		addi	sp,sp,16
 519              		.cfi_def_cfa_offset 0
 520 0030 67800000 		jr	ra
 521              		.cfi_endproc
 522              	.LFE43:
 524              		.weak	_ZN19ConsumerProducerCPP16ProducerKeyboradD1Ev
 525              		.set	_ZN19ConsumerProducerCPP16ProducerKeyboradD1Ev,_ZN19ConsumerProducerCPP16ProducerKeyboradD2Ev
 526              		.section	.text._ZN19ConsumerProducerCPP16ProducerKeyboradD0Ev,"axG",@progbits,_ZN19ConsumerProduce
 527              		.align	2
 528              		.weak	_ZN19ConsumerProducerCPP16ProducerKeyboradD0Ev
 530              	_ZN19ConsumerProducerCPP16ProducerKeyboradD0Ev:
GAS LISTING /tmp/ccx7oCm9.s 			page 14


 531              	.LFB45:
  25:src/user/tests/ConsumerProducer_CPP_API_test.hpp ****         thread_data *td;
 532              		.loc 2 25 11 is_stmt 1
 533              		.cfi_startproc
 534              	.LVL56:
 535 0000 130101FE 		addi	sp,sp,-32
 536              		.cfi_def_cfa_offset 32
 537 0004 233C1100 		sd	ra,24(sp)
 538 0008 23388100 		sd	s0,16(sp)
 539 000c 23349100 		sd	s1,8(sp)
 540              		.cfi_offset 1, -8
 541              		.cfi_offset 8, -16
 542              		.cfi_offset 9, -24
 543 0010 13040102 		addi	s0,sp,32
 544              		.cfi_def_cfa 8, 0
 545 0014 93040500 		mv	s1,a0
 546              	.LVL57:
 547              	.LBB46:
 548              	.LBB47:
  25:src/user/tests/ConsumerProducer_CPP_API_test.hpp ****         thread_data *td;
 549              		.loc 2 25 11 is_stmt 0
 550 0018 97070000 		lla	a5,_ZTVN19ConsumerProducerCPP16ProducerKeyboradE+16
 550      93870700 
 551 0020 2330F500 		sd	a5,0(a0)
 552 0024 97000000 		call	_ZN6ThreadD2Ev@plt
 552      E7800000 
 553              	.LVL58:
 554              	.LBE47:
 555              	.LBE46:
 556 002c 13850400 		mv	a0,s1
 557 0030 97000000 		call	_ZdlPv@plt
 557      E7800000 
 558              	.LVL59:
 559 0038 83308101 		ld	ra,24(sp)
 560              		.cfi_restore 1
 561 003c 03340101 		ld	s0,16(sp)
 562              		.cfi_restore 8
 563              		.cfi_def_cfa 2, 32
 564 0040 83348100 		ld	s1,8(sp)
 565              		.cfi_restore 9
 566              	.LVL60:
 567 0044 13010102 		addi	sp,sp,32
 568              		.cfi_def_cfa_offset 0
 569 0048 67800000 		jr	ra
 570              		.cfi_endproc
 571              	.LFE45:
 573              		.section	.text._ZN19ConsumerProducerCPP8ProducerD2Ev,"axG",@progbits,_ZN19ConsumerProducerCPP8Prod
 574              		.align	2
 575              		.weak	_ZN19ConsumerProducerCPP8ProducerD2Ev
 577              	_ZN19ConsumerProducerCPP8ProducerD2Ev:
 578              	.LFB39:
  45:src/user/tests/ConsumerProducer_CPP_API_test.hpp ****         thread_data *td;
 579              		.loc 2 45 11 is_stmt 1
 580              		.cfi_startproc
 581              	.LVL61:
 582 0000 130101FF 		addi	sp,sp,-16
 583              		.cfi_def_cfa_offset 16
GAS LISTING /tmp/ccx7oCm9.s 			page 15


 584 0004 23341100 		sd	ra,8(sp)
 585 0008 23308100 		sd	s0,0(sp)
 586              		.cfi_offset 1, -8
 587              		.cfi_offset 8, -16
 588 000c 13040101 		addi	s0,sp,16
 589              		.cfi_def_cfa 8, 0
 590              	.LBB48:
  45:src/user/tests/ConsumerProducer_CPP_API_test.hpp ****         thread_data *td;
 591              		.loc 2 45 11 is_stmt 0
 592 0010 97070000 		lla	a5,_ZTVN19ConsumerProducerCPP8ProducerE+16
 592      93870700 
 593 0018 2330F500 		sd	a5,0(a0)
 594 001c 97000000 		call	_ZN6ThreadD2Ev@plt
 594      E7800000 
 595              	.LVL62:
 596              	.LBE48:
 597 0024 83308100 		ld	ra,8(sp)
 598              		.cfi_restore 1
 599 0028 03340100 		ld	s0,0(sp)
 600              		.cfi_restore 8
 601              		.cfi_def_cfa 2, 16
 602 002c 13010101 		addi	sp,sp,16
 603              		.cfi_def_cfa_offset 0
 604 0030 67800000 		jr	ra
 605              		.cfi_endproc
 606              	.LFE39:
 608              		.weak	_ZN19ConsumerProducerCPP8ProducerD1Ev
 609              		.set	_ZN19ConsumerProducerCPP8ProducerD1Ev,_ZN19ConsumerProducerCPP8ProducerD2Ev
 610              		.section	.text._ZN19ConsumerProducerCPP8ProducerD0Ev,"axG",@progbits,_ZN19ConsumerProducerCPP8Prod
 611              		.align	2
 612              		.weak	_ZN19ConsumerProducerCPP8ProducerD0Ev
 614              	_ZN19ConsumerProducerCPP8ProducerD0Ev:
 615              	.LFB41:
  45:src/user/tests/ConsumerProducer_CPP_API_test.hpp ****         thread_data *td;
 616              		.loc 2 45 11 is_stmt 1
 617              		.cfi_startproc
 618              	.LVL63:
 619 0000 130101FE 		addi	sp,sp,-32
 620              		.cfi_def_cfa_offset 32
 621 0004 233C1100 		sd	ra,24(sp)
 622 0008 23388100 		sd	s0,16(sp)
 623 000c 23349100 		sd	s1,8(sp)
 624              		.cfi_offset 1, -8
 625              		.cfi_offset 8, -16
 626              		.cfi_offset 9, -24
 627 0010 13040102 		addi	s0,sp,32
 628              		.cfi_def_cfa 8, 0
 629 0014 93040500 		mv	s1,a0
 630              	.LVL64:
 631              	.LBB49:
 632              	.LBB50:
  45:src/user/tests/ConsumerProducer_CPP_API_test.hpp ****         thread_data *td;
 633              		.loc 2 45 11 is_stmt 0
 634 0018 97070000 		lla	a5,_ZTVN19ConsumerProducerCPP8ProducerE+16
 634      93870700 
 635 0020 2330F500 		sd	a5,0(a0)
 636 0024 97000000 		call	_ZN6ThreadD2Ev@plt
GAS LISTING /tmp/ccx7oCm9.s 			page 16


 636      E7800000 
 637              	.LVL65:
 638              	.LBE50:
 639              	.LBE49:
 640 002c 13850400 		mv	a0,s1
 641 0030 97000000 		call	_ZdlPv@plt
 641      E7800000 
 642              	.LVL66:
 643 0038 83308101 		ld	ra,24(sp)
 644              		.cfi_restore 1
 645 003c 03340101 		ld	s0,16(sp)
 646              		.cfi_restore 8
 647              		.cfi_def_cfa 2, 32
 648 0040 83348100 		ld	s1,8(sp)
 649              		.cfi_restore 9
 650              	.LVL67:
 651 0044 13010102 		addi	sp,sp,32
 652              		.cfi_def_cfa_offset 0
 653 0048 67800000 		jr	ra
 654              		.cfi_endproc
 655              	.LFE41:
 657              		.section	.text._ZN19ConsumerProducerCPP16ProducerKeyborad3runEv,"axG",@progbits,_ZN19ConsumerProdu
 658              		.align	2
 659              		.weak	_ZN19ConsumerProducerCPP16ProducerKeyborad3runEv
 661              	_ZN19ConsumerProducerCPP16ProducerKeyborad3runEv:
 662              	.LFB23:
  30:src/user/tests/ConsumerProducer_CPP_API_test.hpp ****             int key;
 663              		.loc 2 30 14 is_stmt 1
 664              		.cfi_startproc
 665              	.LVL68:
 666 0000 130101FE 		addi	sp,sp,-32
 667              		.cfi_def_cfa_offset 32
 668 0004 233C1100 		sd	ra,24(sp)
 669 0008 23388100 		sd	s0,16(sp)
 670 000c 23349100 		sd	s1,8(sp)
 671              		.cfi_offset 1, -8
 672              		.cfi_offset 8, -16
 673              		.cfi_offset 9, -24
 674 0010 13040102 		addi	s0,sp,32
 675              		.cfi_def_cfa 8, 0
 676 0014 93040500 		mv	s1,a0
  31:src/user/tests/ConsumerProducer_CPP_API_test.hpp ****             int i = 0;
 677              		.loc 2 31 13
  32:src/user/tests/ConsumerProducer_CPP_API_test.hpp ****             while ((key = getc()) != 0x1b) {
 678              		.loc 2 32 13
 679              	.LVL69:
 680              	.L39:
  33:src/user/tests/ConsumerProducer_CPP_API_test.hpp ****                 td->buffer->put(key);
 681              		.loc 2 33 13
  33:src/user/tests/ConsumerProducer_CPP_API_test.hpp ****                 td->buffer->put(key);
 682              		.loc 2 33 35
  33:src/user/tests/ConsumerProducer_CPP_API_test.hpp ****                 td->buffer->put(key);
 683              		.loc 2 33 31 is_stmt 0
 684 0018 97000000 		call	_Z4getcv@plt
 684      E7800000 
 685              	.LVL70:
  33:src/user/tests/ConsumerProducer_CPP_API_test.hpp ****                 td->buffer->put(key);
GAS LISTING /tmp/ccx7oCm9.s 			page 17


 686              		.loc 2 33 25
 687 0020 9B050500 		sext.w	a1,a0
 688              	.LVL71:
  33:src/user/tests/ConsumerProducer_CPP_API_test.hpp ****                 td->buffer->put(key);
 689              		.loc 2 33 35
 690 0024 9307B001 		li	a5,27
 691 0028 638CF500 		beq	a1,a5,.L38
  34:src/user/tests/ConsumerProducer_CPP_API_test.hpp ****                 i++;
 692              		.loc 2 34 17 is_stmt 1
 693 002c 83B70401 		ld	a5,16(s1)
  34:src/user/tests/ConsumerProducer_CPP_API_test.hpp ****                 i++;
 694              		.loc 2 34 32 is_stmt 0
 695 0030 03B58700 		ld	a0,8(a5)
 696 0034 97000000 		call	_ZN9BufferCPP3putEi@plt
 696      E7800000 
 697              	.LVL72:
  35:src/user/tests/ConsumerProducer_CPP_API_test.hpp ****             }
 698              		.loc 2 35 17 is_stmt 1
  33:src/user/tests/ConsumerProducer_CPP_API_test.hpp ****                 td->buffer->put(key);
 699              		.loc 2 33 13 is_stmt 0
 700 003c 6FF0DFFD 		j	.L39
 701              	.LVL73:
 702              	.L38:
  38:src/user/tests/ConsumerProducer_CPP_API_test.hpp ****             td->buffer->put('!');
 703              		.loc 2 38 13 is_stmt 1
  38:src/user/tests/ConsumerProducer_CPP_API_test.hpp ****             td->buffer->put('!');
 704              		.loc 2 38 23 is_stmt 0
 705 0040 93071000 		li	a5,1
 706 0044 17070000 		sw	a5,.LANCHOR0+4,a4
 706      2320F700 
  39:src/user/tests/ConsumerProducer_CPP_API_test.hpp **** 
 707              		.loc 2 39 13 is_stmt 1
 708 004c 83B70401 		ld	a5,16(s1)
  39:src/user/tests/ConsumerProducer_CPP_API_test.hpp **** 
 709              		.loc 2 39 28 is_stmt 0
 710 0050 93051002 		li	a1,33
 711              	.LVL74:
 712 0054 03B58700 		ld	a0,8(a5)
 713              	.LVL75:
 714 0058 97000000 		call	_ZN9BufferCPP3putEi@plt
 714      E7800000 
 715              	.LVL76:
  41:src/user/tests/ConsumerProducer_CPP_API_test.hpp ****         }
 716              		.loc 2 41 13 is_stmt 1
 717 0060 83B70401 		ld	a5,16(s1)
  41:src/user/tests/ConsumerProducer_CPP_API_test.hpp ****         }
 718              		.loc 2 41 28 is_stmt 0
 719 0064 03B50701 		ld	a0,16(a5)
 720 0068 97000000 		call	_ZN9Semaphore6signalEv@plt
 720      E7800000 
 721              	.LVL77:
  42:src/user/tests/ConsumerProducer_CPP_API_test.hpp ****     };
 722              		.loc 2 42 9
 723 0070 83308101 		ld	ra,24(sp)
 724              		.cfi_restore 1
 725 0074 03340101 		ld	s0,16(sp)
 726              		.cfi_restore 8
GAS LISTING /tmp/ccx7oCm9.s 			page 18


 727              		.cfi_def_cfa 2, 32
 728 0078 83348100 		ld	s1,8(sp)
 729              		.cfi_restore 9
 730              	.LVL78:
 731 007c 13010102 		addi	sp,sp,32
 732              		.cfi_def_cfa_offset 0
 733 0080 67800000 		jr	ra
 734              		.cfi_endproc
 735              	.LFE23:
 737              		.section	.text._ZN19ConsumerProducerCPP8Producer3runEv,"axG",@progbits,_ZN19ConsumerProducerCPP8Pr
 738              		.align	2
 739              		.weak	_ZN19ConsumerProducerCPP8Producer3runEv
 741              	_ZN19ConsumerProducerCPP8Producer3runEv:
 742              	.LFB27:
  50:src/user/tests/ConsumerProducer_CPP_API_test.hpp ****             int i = 0;
 743              		.loc 2 50 14 is_stmt 1
 744              		.cfi_startproc
 745              	.LVL79:
 746 0000 130101FE 		addi	sp,sp,-32
 747              		.cfi_def_cfa_offset 32
 748 0004 233C1100 		sd	ra,24(sp)
 749 0008 23388100 		sd	s0,16(sp)
 750 000c 23349100 		sd	s1,8(sp)
 751 0010 23302101 		sd	s2,0(sp)
 752              		.cfi_offset 1, -8
 753              		.cfi_offset 8, -16
 754              		.cfi_offset 9, -24
 755              		.cfi_offset 18, -32
 756 0014 13040102 		addi	s0,sp,32
 757              		.cfi_def_cfa 8, 0
 758 0018 93040500 		mv	s1,a0
  51:src/user/tests/ConsumerProducer_CPP_API_test.hpp ****             while (!threadEnd) {
 759              		.loc 2 51 13
 760              	.LVL80:
  51:src/user/tests/ConsumerProducer_CPP_API_test.hpp ****             while (!threadEnd) {
 761              		.loc 2 51 17 is_stmt 0
 762 001c 13090000 		li	s2,0
 763              	.LVL81:
 764              	.L43:
  52:src/user/tests/ConsumerProducer_CPP_API_test.hpp ****                 td->buffer->put(td->id + '0');
 765              		.loc 2 52 13 is_stmt 1
  52:src/user/tests/ConsumerProducer_CPP_API_test.hpp ****                 td->buffer->put(td->id + '0');
 766              		.loc 2 52 20
 767 0020 97070000 		lw	a5,.LANCHOR0+4
 767      83A70700 
 768 0028 63920704 		bnez	a5,.L42
  53:src/user/tests/ConsumerProducer_CPP_API_test.hpp ****                 i++;
 769              		.loc 2 53 17
 770 002c 83B70401 		ld	a5,16(s1)
  53:src/user/tests/ConsumerProducer_CPP_API_test.hpp ****                 i++;
 771              		.loc 2 53 37 is_stmt 0
 772 0030 83A50700 		lw	a1,0(a5)
  53:src/user/tests/ConsumerProducer_CPP_API_test.hpp ****                 i++;
 773              		.loc 2 53 32
 774 0034 9B850503 		addiw	a1,a1,48
 775 0038 03B58700 		ld	a0,8(a5)
 776 003c 97000000 		call	_ZN9BufferCPP3putEi@plt
GAS LISTING /tmp/ccx7oCm9.s 			page 19


 776      E7800000 
 777              	.LVL82:
  54:src/user/tests/ConsumerProducer_CPP_API_test.hpp ****                 Thread::sleep((i+td->id)%5);
 778              		.loc 2 54 17 is_stmt 1
  54:src/user/tests/ConsumerProducer_CPP_API_test.hpp ****                 Thread::sleep((i+td->id)%5);
 779              		.loc 2 54 18 is_stmt 0
 780 0044 1B071900 		addiw	a4,s2,1
 781 0048 1B090700 		sext.w	s2,a4
 782              	.LVL83:
  55:src/user/tests/ConsumerProducer_CPP_API_test.hpp ****             }
 783              		.loc 2 55 17 is_stmt 1
  55:src/user/tests/ConsumerProducer_CPP_API_test.hpp ****             }
 784              		.loc 2 55 34 is_stmt 0
 785 004c 83B70401 		ld	a5,16(s1)
  55:src/user/tests/ConsumerProducer_CPP_API_test.hpp ****             }
 786              		.loc 2 55 38
 787 0050 83A70700 		lw	a5,0(a5)
  55:src/user/tests/ConsumerProducer_CPP_API_test.hpp ****             }
 788              		.loc 2 55 33
 789 0054 BB87E700 		addw	a5,a5,a4
  55:src/user/tests/ConsumerProducer_CPP_API_test.hpp ****             }
 790              		.loc 2 55 30
 791 0058 13055000 		li	a0,5
 792 005c 3BE5A702 		remw	a0,a5,a0
 793 0060 97000000 		call	_ZN6Thread5sleepEm@plt
 793      E7800000 
 794              	.LVL84:
  52:src/user/tests/ConsumerProducer_CPP_API_test.hpp ****                 td->buffer->put(td->id + '0');
 795              		.loc 2 52 13
 796 0068 6FF09FFB 		j	.L43
 797              	.L42:
  58:src/user/tests/ConsumerProducer_CPP_API_test.hpp ****         }
 798              		.loc 2 58 13 is_stmt 1
 799 006c 83B70401 		ld	a5,16(s1)
  58:src/user/tests/ConsumerProducer_CPP_API_test.hpp ****         }
 800              		.loc 2 58 28 is_stmt 0
 801 0070 03B50701 		ld	a0,16(a5)
 802 0074 97000000 		call	_ZN9Semaphore6signalEv@plt
 802      E7800000 
 803              	.LVL85:
  59:src/user/tests/ConsumerProducer_CPP_API_test.hpp ****     };
 804              		.loc 2 59 9
 805 007c 83308101 		ld	ra,24(sp)
 806              		.cfi_restore 1
 807 0080 03340101 		ld	s0,16(sp)
 808              		.cfi_restore 8
 809              		.cfi_def_cfa 2, 32
 810 0084 83348100 		ld	s1,8(sp)
 811              		.cfi_restore 9
 812              	.LVL86:
 813 0088 03390100 		ld	s2,0(sp)
 814              		.cfi_restore 18
 815              	.LVL87:
 816 008c 13010102 		addi	sp,sp,32
 817              		.cfi_def_cfa_offset 0
 818 0090 67800000 		jr	ra
 819              		.cfi_endproc
GAS LISTING /tmp/ccx7oCm9.s 			page 20


 820              	.LFE27:
 822              		.text
 823              		.align	2
 824              		.globl	_Z9fibonaccim
 826              	_Z9fibonaccim:
 827              	.LFB12:
  13:src/user/tests/Threads_C_API_test.hpp ****     if (n == 0 || n == 1) { return n; }
 828              		.loc 1 13 28 is_stmt 1
 829              		.cfi_startproc
 830              	.LVL88:
 831 01a0 130101FE 		addi	sp,sp,-32
 832              		.cfi_def_cfa_offset 32
 833 01a4 233C1100 		sd	ra,24(sp)
 834 01a8 23388100 		sd	s0,16(sp)
 835 01ac 23349100 		sd	s1,8(sp)
 836 01b0 23302101 		sd	s2,0(sp)
 837              		.cfi_offset 1, -8
 838              		.cfi_offset 8, -16
 839              		.cfi_offset 9, -24
 840              		.cfi_offset 18, -32
 841 01b4 13040102 		addi	s0,sp,32
 842              		.cfi_def_cfa 8, 0
 843 01b8 93040500 		mv	s1,a0
  14:src/user/tests/Threads_C_API_test.hpp ****     if (n % 10 == 0) { thread_dispatch(); }
 844              		.loc 1 14 5
 845 01bc 93071000 		li	a5,1
 846 01c0 63F8A702 		bleu	a0,a5,.L45
  15:src/user/tests/Threads_C_API_test.hpp ****     return fibonacci(n - 1) + fibonacci(n - 2);
 847              		.loc 1 15 5
  15:src/user/tests/Threads_C_API_test.hpp ****     return fibonacci(n - 1) + fibonacci(n - 2);
 848              		.loc 1 15 11 is_stmt 0
 849 01c4 9307A000 		li	a5,10
 850 01c8 B377F502 		remu	a5,a0,a5
  15:src/user/tests/Threads_C_API_test.hpp ****     return fibonacci(n - 1) + fibonacci(n - 2);
 851              		.loc 1 15 5
 852 01cc 638E0702 		beqz	a5,.L50
 853              	.LVL89:
 854              	.L47:
  16:src/user/tests/Threads_C_API_test.hpp **** }
 855              		.loc 1 16 5 is_stmt 1
  16:src/user/tests/Threads_C_API_test.hpp **** }
 856              		.loc 1 16 21 is_stmt 0
 857 01d0 1385F4FF 		addi	a0,s1,-1
 858 01d4 97000000 		call	_Z9fibonaccim
 858      E7800000 
 859              	.LVL90:
 860 01dc 13090500 		mv	s2,a0
  16:src/user/tests/Threads_C_API_test.hpp **** }
 861              		.loc 1 16 40
 862 01e0 1385E4FF 		addi	a0,s1,-2
 863 01e4 97000000 		call	_Z9fibonaccim
 863      E7800000 
 864              	.LVL91:
  16:src/user/tests/Threads_C_API_test.hpp **** }
 865              		.loc 1 16 46
 866 01ec 3305A900 		add	a0,s2,a0
 867              	.L45:
GAS LISTING /tmp/ccx7oCm9.s 			page 21


  17:src/user/tests/Threads_C_API_test.hpp **** 
 868              		.loc 1 17 1
 869 01f0 83308101 		ld	ra,24(sp)
 870              		.cfi_remember_state
 871              		.cfi_restore 1
 872 01f4 03340101 		ld	s0,16(sp)
 873              		.cfi_restore 8
 874              		.cfi_def_cfa 2, 32
 875 01f8 83348100 		ld	s1,8(sp)
 876              		.cfi_restore 9
 877              	.LVL92:
 878 01fc 03390100 		ld	s2,0(sp)
 879              		.cfi_restore 18
 880 0200 13010102 		addi	sp,sp,32
 881              		.cfi_def_cfa_offset 0
 882 0204 67800000 		jr	ra
 883              	.LVL93:
 884              	.L50:
 885              		.cfi_restore_state
  15:src/user/tests/Threads_C_API_test.hpp ****     return fibonacci(n - 1) + fibonacci(n - 2);
 886              		.loc 1 15 24 is_stmt 1 discriminator 1
  15:src/user/tests/Threads_C_API_test.hpp ****     return fibonacci(n - 1) + fibonacci(n - 2);
 887              		.loc 1 15 39 is_stmt 0 discriminator 1
 888 0208 97000000 		call	_Z15thread_dispatchv@plt
 888      E7800000 
 889              	.LVL94:
 890 0210 6FF01FFC 		j	.L47
 891              		.cfi_endproc
 892              	.LFE12:
 894              		.section	.rodata.str1.8
 895 0035 000000   		.align	3
 896              	.LC5:
 897 0038 433A2069 		.string	"C: i="
 897      3D00
 898 003e 0000     		.align	3
 899              	.LC6:
 900 0040 433A2064 		.string	"C: dispatch\n"
 900      69737061 
 900      7463680A 
 900      00
 901 004d 000000   		.align	3
 902              	.LC7:
 903 0050 433A2074 		.string	"C: t1="
 903      313D00
 904 0057 00       		.align	3
 905              	.LC8:
 906 0058 433A2066 		.string	"C: fibonaci="
 906      69626F6E 
 906      6163693D 
 906      00
 907              		.text
 908              		.align	2
 909              		.globl	_Z11workerBodyCPv
 911              	_Z11workerBodyCPv:
 912              	.LFB15:
  43:src/user/tests/Threads_C_API_test.hpp **** 
  44:src/user/tests/Threads_C_API_test.hpp **** void workerBodyC(void* arg) {
GAS LISTING /tmp/ccx7oCm9.s 			page 22


 913              		.loc 1 44 29 is_stmt 1
 914              		.cfi_startproc
 915              	.LVL95:
 916 0214 130101FE 		addi	sp,sp,-32
 917              		.cfi_def_cfa_offset 32
 918 0218 233C1100 		sd	ra,24(sp)
 919 021c 23388100 		sd	s0,16(sp)
 920 0220 23349100 		sd	s1,8(sp)
 921 0224 23302101 		sd	s2,0(sp)
 922              		.cfi_offset 1, -8
 923              		.cfi_offset 8, -16
 924              		.cfi_offset 9, -24
 925              		.cfi_offset 18, -32
 926 0228 13040102 		addi	s0,sp,32
 927              		.cfi_def_cfa 8, 0
  45:src/user/tests/Threads_C_API_test.hpp ****     uint8 i = 0;
 928              		.loc 1 45 5
 929              	.LVL96:
 930              		.loc 1 45 11 is_stmt 0
 931 022c 93040000 		li	s1,0
 932 0230 6F000004 		j	.L53
 933              	.LVL97:
 934              	.L57:
  46:src/user/tests/Threads_C_API_test.hpp ****     for (; i < 3; i++) {
  47:src/user/tests/Threads_C_API_test.hpp ****         printString("C: i="); printInt(i); printString("\n");
 935              		.loc 1 47 9 is_stmt 1 discriminator 1
 936              		.loc 1 47 20 is_stmt 0 discriminator 1
 937 0234 17050000 		lla	a0,.LC5
 937      13050500 
 938 023c 97000000 		call	_Z11printStringPKc@plt
 938      E7800000 
 939              	.LVL98:
 940              		.loc 1 47 31 is_stmt 1 discriminator 1
 941              		.loc 1 47 39 is_stmt 0 discriminator 1
 942 0244 13060000 		li	a2,0
 943 0248 9305A000 		li	a1,10
 944 024c 13850400 		mv	a0,s1
 945 0250 97000000 		call	_Z8printIntiii@plt
 945      E7800000 
 946              	.LVL99:
 947              		.loc 1 47 44 is_stmt 1 discriminator 1
 948              		.loc 1 47 55 is_stmt 0 discriminator 1
 949 0258 17050000 		lla	a0,.LC1
 949      13050500 
 950 0260 97000000 		call	_Z11printStringPKc@plt
 950      E7800000 
 951              	.LVL100:
  46:src/user/tests/Threads_C_API_test.hpp ****     for (; i < 3; i++) {
 952              		.loc 1 46 5 is_stmt 1 discriminator 1
 953 0268 9B841400 		addiw	s1,s1,1
 954              	.LVL101:
 955 026c 93F4F40F 		andi	s1,s1,0xff
 956              	.LVL102:
 957              	.L53:
  46:src/user/tests/Threads_C_API_test.hpp ****     for (; i < 3; i++) {
 958              		.loc 1 46 5 discriminator 2
  46:src/user/tests/Threads_C_API_test.hpp ****     for (; i < 3; i++) {
GAS LISTING /tmp/ccx7oCm9.s 			page 23


 959              		.loc 1 46 14 discriminator 2
 960 0270 93072000 		li	a5,2
 961 0274 E3F097FC 		bleu	s1,a5,.L57
  48:src/user/tests/Threads_C_API_test.hpp ****     }
  49:src/user/tests/Threads_C_API_test.hpp **** 
  50:src/user/tests/Threads_C_API_test.hpp ****     printString("C: dispatch\n");
 962              		.loc 1 50 5
 963              		.loc 1 50 16 is_stmt 0
 964 0278 17050000 		lla	a0,.LC6
 964      13050500 
 965 0280 97000000 		call	_Z11printStringPKc@plt
 965      E7800000 
 966              	.LVL103:
  51:src/user/tests/Threads_C_API_test.hpp ****     __asm__ ("li t1, 7");
 967              		.loc 1 51 5 is_stmt 1
 968              		.loc 1 51 25 is_stmt 0
 969              	#APP
 970              	# 51 "src/user/tests/Threads_C_API_test.hpp" 1
  52              	    thread_dispatch();
 971              		li t1, 7
 972              	# 0 "" 2
 973              		.loc 1 52 5 is_stmt 1
 974              		.loc 1 52 20 is_stmt 0
 975              	#NO_APP
 976 028c 97000000 		call	_Z15thread_dispatchv@plt
 976      E7800000 
 977              	.LVL104:
  53:src/user/tests/Threads_C_API_test.hpp **** 
  54:src/user/tests/Threads_C_API_test.hpp ****     uint64 t1 = 0;
 978              		.loc 1 54 5 is_stmt 1
  55:src/user/tests/Threads_C_API_test.hpp ****     __asm__ ("mv %[t1], t1" : [t1] "=r"(t1));
 979              		.loc 1 55 5
 980              		.loc 1 55 45 is_stmt 0
 981              	#APP
 982              	# 55 "src/user/tests/Threads_C_API_test.hpp" 1
  56              	
 983              		mv s2, t1
 984              	# 0 "" 2
 985              	.LVL105:
  57:src/user/tests/Threads_C_API_test.hpp ****     printString("C: t1="); printInt(t1); printString("\n");
 986              		.loc 1 57 5 is_stmt 1
 987              		.loc 1 57 16 is_stmt 0
 988              	#NO_APP
 989 0298 17050000 		lla	a0,.LC7
 989      13050500 
 990 02a0 97000000 		call	_Z11printStringPKc@plt
 990      E7800000 
 991              	.LVL106:
 992              		.loc 1 57 28 is_stmt 1
 993              		.loc 1 57 36 is_stmt 0
 994 02a8 13060000 		li	a2,0
 995 02ac 9305A000 		li	a1,10
 996 02b0 1B050900 		sext.w	a0,s2
 997 02b4 97000000 		call	_Z8printIntiii@plt
 997      E7800000 
 998              	.LVL107:
 999              		.loc 1 57 42 is_stmt 1
GAS LISTING /tmp/ccx7oCm9.s 			page 24


 1000              		.loc 1 57 53 is_stmt 0
 1001 02bc 17050000 		lla	a0,.LC1
 1001      13050500 
 1002 02c4 97000000 		call	_Z11printStringPKc@plt
 1002      E7800000 
 1003              	.LVL108:
  58:src/user/tests/Threads_C_API_test.hpp **** 
  59:src/user/tests/Threads_C_API_test.hpp ****     uint64 result = fibonacci(12);
 1004              		.loc 1 59 5 is_stmt 1
 1005              		.loc 1 59 30 is_stmt 0
 1006 02cc 1305C000 		li	a0,12
 1007 02d0 97000000 		call	_Z9fibonaccim
 1007      E7800000 
 1008              	.LVL109:
 1009 02d8 13090500 		mv	s2,a0
 1010              	.LVL110:
  60:src/user/tests/Threads_C_API_test.hpp ****     printString("C: fibonaci="); printInt(result); printString("\n");
 1011              		.loc 1 60 5 is_stmt 1
 1012              		.loc 1 60 16 is_stmt 0
 1013 02dc 17050000 		lla	a0,.LC8
 1013      13050500 
 1014              	.LVL111:
 1015 02e4 97000000 		call	_Z11printStringPKc@plt
 1015      E7800000 
 1016              	.LVL112:
 1017              		.loc 1 60 34 is_stmt 1
 1018              		.loc 1 60 42 is_stmt 0
 1019 02ec 13060000 		li	a2,0
 1020 02f0 9305A000 		li	a1,10
 1021 02f4 1B050900 		sext.w	a0,s2
 1022 02f8 97000000 		call	_Z8printIntiii@plt
 1022      E7800000 
 1023              	.LVL113:
 1024              		.loc 1 60 52 is_stmt 1
 1025              		.loc 1 60 63 is_stmt 0
 1026 0300 17050000 		lla	a0,.LC1
 1026      13050500 
 1027 0308 97000000 		call	_Z11printStringPKc@plt
 1027      E7800000 
 1028              	.LVL114:
 1029 0310 6F000004 		j	.L55
 1030              	.L58:
  61:src/user/tests/Threads_C_API_test.hpp **** 
  62:src/user/tests/Threads_C_API_test.hpp ****     for (; i < 6; i++) {
  63:src/user/tests/Threads_C_API_test.hpp ****         printString("C: i="); printInt(i); printString("\n");
 1031              		.loc 1 63 9 is_stmt 1 discriminator 1
 1032              		.loc 1 63 20 is_stmt 0 discriminator 1
 1033 0314 17050000 		lla	a0,.LC5
 1033      13050500 
 1034 031c 97000000 		call	_Z11printStringPKc@plt
 1034      E7800000 
 1035              	.LVL115:
 1036              		.loc 1 63 31 is_stmt 1 discriminator 1
 1037              		.loc 1 63 39 is_stmt 0 discriminator 1
 1038 0324 13060000 		li	a2,0
 1039 0328 9305A000 		li	a1,10
 1040 032c 13850400 		mv	a0,s1
GAS LISTING /tmp/ccx7oCm9.s 			page 25


 1041 0330 97000000 		call	_Z8printIntiii@plt
 1041      E7800000 
 1042              	.LVL116:
 1043              		.loc 1 63 44 is_stmt 1 discriminator 1
 1044              		.loc 1 63 55 is_stmt 0 discriminator 1
 1045 0338 17050000 		lla	a0,.LC1
 1045      13050500 
 1046 0340 97000000 		call	_Z11printStringPKc@plt
 1046      E7800000 
 1047              	.LVL117:
  62:src/user/tests/Threads_C_API_test.hpp ****         printString("C: i="); printInt(i); printString("\n");
 1048              		.loc 1 62 5 is_stmt 1 discriminator 1
 1049 0348 9B841400 		addiw	s1,s1,1
 1050              	.LVL118:
 1051 034c 93F4F40F 		andi	s1,s1,0xff
 1052              	.LVL119:
 1053              	.L55:
  62:src/user/tests/Threads_C_API_test.hpp ****         printString("C: i="); printInt(i); printString("\n");
 1054              		.loc 1 62 5 discriminator 2
  62:src/user/tests/Threads_C_API_test.hpp ****         printString("C: i="); printInt(i); printString("\n");
 1055              		.loc 1 62 14 discriminator 2
 1056 0350 93075000 		li	a5,5
 1057 0354 E3F097FC 		bleu	s1,a5,.L58
  64:src/user/tests/Threads_C_API_test.hpp ****     }
  65:src/user/tests/Threads_C_API_test.hpp **** 
  66:src/user/tests/Threads_C_API_test.hpp ****     printString("A finished!\n");
 1058              		.loc 1 66 5
 1059              		.loc 1 66 16 is_stmt 0
 1060 0358 17050000 		lla	a0,.LC2
 1060      13050500 
 1061 0360 97000000 		call	_Z11printStringPKc@plt
 1061      E7800000 
 1062              	.LVL120:
  67:src/user/tests/Threads_C_API_test.hpp ****     finishedC = true;
 1063              		.loc 1 67 5 is_stmt 1
 1064              		.loc 1 67 15 is_stmt 0
 1065 0368 93071000 		li	a5,1
 1066 036c 17070000 		sb	a5,.LANCHOR0+8,a4
 1066      2300F700 
  68:src/user/tests/Threads_C_API_test.hpp ****     thread_dispatch();
 1067              		.loc 1 68 5 is_stmt 1
 1068              		.loc 1 68 20 is_stmt 0
 1069 0374 97000000 		call	_Z15thread_dispatchv@plt
 1069      E7800000 
 1070              	.LVL121:
  69:src/user/tests/Threads_C_API_test.hpp **** }
 1071              		.loc 1 69 1
 1072 037c 83308101 		ld	ra,24(sp)
 1073              		.cfi_restore 1
 1074 0380 03340101 		ld	s0,16(sp)
 1075              		.cfi_restore 8
 1076              		.cfi_def_cfa 2, 32
 1077 0384 83348100 		ld	s1,8(sp)
 1078              		.cfi_restore 9
 1079              	.LVL122:
 1080 0388 03390100 		ld	s2,0(sp)
 1081              		.cfi_restore 18
GAS LISTING /tmp/ccx7oCm9.s 			page 26


 1082              	.LVL123:
 1083 038c 13010102 		addi	sp,sp,32
 1084              		.cfi_def_cfa_offset 0
 1085 0390 67800000 		jr	ra
 1086              		.cfi_endproc
 1087              	.LFE15:
 1089              		.section	.rodata.str1.8
 1090 0065 000000   		.align	3
 1091              	.LC9:
 1092 0068 443A2069 		.string	"D: i="
 1092      3D00
 1093 006e 0000     		.align	3
 1094              	.LC10:
 1095 0070 443A2064 		.string	"D: dispatch\n"
 1095      69737061 
 1095      7463680A 
 1095      00
 1096 007d 000000   		.align	3
 1097              	.LC11:
 1098 0080 443A2066 		.string	"D: fibonaci="
 1098      69626F6E 
 1098      6163693D 
 1098      00
 1099 008d 000000   		.align	3
 1100              	.LC12:
 1101 0090 44206669 		.string	"D finished!\n"
 1101      6E697368 
 1101      6564210A 
 1101      00
 1102              		.text
 1103              		.align	2
 1104              		.globl	_Z11workerBodyDPv
 1106              	_Z11workerBodyDPv:
 1107              	.LFB16:
  70:src/user/tests/Threads_C_API_test.hpp **** 
  71:src/user/tests/Threads_C_API_test.hpp **** void workerBodyD(void* arg) {
 1108              		.loc 1 71 29 is_stmt 1
 1109              		.cfi_startproc
 1110              	.LVL124:
 1111 0394 130101FE 		addi	sp,sp,-32
 1112              		.cfi_def_cfa_offset 32
 1113 0398 233C1100 		sd	ra,24(sp)
 1114 039c 23388100 		sd	s0,16(sp)
 1115 03a0 23349100 		sd	s1,8(sp)
 1116 03a4 23302101 		sd	s2,0(sp)
 1117              		.cfi_offset 1, -8
 1118              		.cfi_offset 8, -16
 1119              		.cfi_offset 9, -24
 1120              		.cfi_offset 18, -32
 1121 03a8 13040102 		addi	s0,sp,32
 1122              		.cfi_def_cfa 8, 0
  72:src/user/tests/Threads_C_API_test.hpp ****     uint8 i = 10;
 1123              		.loc 1 72 5
 1124              	.LVL125:
 1125              		.loc 1 72 11 is_stmt 0
 1126 03ac 9304A000 		li	s1,10
 1127 03b0 6F000004 		j	.L61
GAS LISTING /tmp/ccx7oCm9.s 			page 27


 1128              	.LVL126:
 1129              	.L65:
  73:src/user/tests/Threads_C_API_test.hpp ****     for (; i < 13; i++) {
  74:src/user/tests/Threads_C_API_test.hpp ****         printString("D: i="); printInt(i); printString("\n");
 1130              		.loc 1 74 9 is_stmt 1 discriminator 1
 1131              		.loc 1 74 20 is_stmt 0 discriminator 1
 1132 03b4 17050000 		lla	a0,.LC9
 1132      13050500 
 1133 03bc 97000000 		call	_Z11printStringPKc@plt
 1133      E7800000 
 1134              	.LVL127:
 1135              		.loc 1 74 31 is_stmt 1 discriminator 1
 1136              		.loc 1 74 39 is_stmt 0 discriminator 1
 1137 03c4 13060000 		li	a2,0
 1138 03c8 9305A000 		li	a1,10
 1139 03cc 13850400 		mv	a0,s1
 1140 03d0 97000000 		call	_Z8printIntiii@plt
 1140      E7800000 
 1141              	.LVL128:
 1142              		.loc 1 74 44 is_stmt 1 discriminator 1
 1143              		.loc 1 74 55 is_stmt 0 discriminator 1
 1144 03d8 17050000 		lla	a0,.LC1
 1144      13050500 
 1145 03e0 97000000 		call	_Z11printStringPKc@plt
 1145      E7800000 
 1146              	.LVL129:
  73:src/user/tests/Threads_C_API_test.hpp ****     for (; i < 13; i++) {
 1147              		.loc 1 73 5 is_stmt 1 discriminator 1
 1148 03e8 9B841400 		addiw	s1,s1,1
 1149              	.LVL130:
 1150 03ec 93F4F40F 		andi	s1,s1,0xff
 1151              	.LVL131:
 1152              	.L61:
  73:src/user/tests/Threads_C_API_test.hpp ****     for (; i < 13; i++) {
 1153              		.loc 1 73 5 discriminator 2
  73:src/user/tests/Threads_C_API_test.hpp ****     for (; i < 13; i++) {
 1154              		.loc 1 73 14 discriminator 2
 1155 03f0 9307C000 		li	a5,12
 1156 03f4 E3F097FC 		bleu	s1,a5,.L65
  75:src/user/tests/Threads_C_API_test.hpp ****     }
  76:src/user/tests/Threads_C_API_test.hpp **** 
  77:src/user/tests/Threads_C_API_test.hpp ****     printString("D: dispatch\n");
 1157              		.loc 1 77 5
 1158              		.loc 1 77 16 is_stmt 0
 1159 03f8 17050000 		lla	a0,.LC10
 1159      13050500 
 1160 0400 97000000 		call	_Z11printStringPKc@plt
 1160      E7800000 
 1161              	.LVL132:
  78:src/user/tests/Threads_C_API_test.hpp ****     __asm__ ("li t1, 5");
 1162              		.loc 1 78 5 is_stmt 1
 1163              		.loc 1 78 25 is_stmt 0
 1164              	#APP
 1165              	# 78 "src/user/tests/Threads_C_API_test.hpp" 1
  79              	    thread_dispatch();
 1166              		li t1, 5
 1167              	# 0 "" 2
GAS LISTING /tmp/ccx7oCm9.s 			page 28


 1168              		.loc 1 79 5 is_stmt 1
 1169              		.loc 1 79 20 is_stmt 0
 1170              	#NO_APP
 1171 040c 97000000 		call	_Z15thread_dispatchv@plt
 1171      E7800000 
 1172              	.LVL133:
  80:src/user/tests/Threads_C_API_test.hpp **** 
  81:src/user/tests/Threads_C_API_test.hpp ****     uint64 result = fibonacci(16);
 1173              		.loc 1 81 5 is_stmt 1
 1174              		.loc 1 81 30 is_stmt 0
 1175 0414 13050001 		li	a0,16
 1176 0418 97000000 		call	_Z9fibonaccim
 1176      E7800000 
 1177              	.LVL134:
 1178 0420 13090500 		mv	s2,a0
 1179              	.LVL135:
  82:src/user/tests/Threads_C_API_test.hpp ****     printString("D: fibonaci="); printInt(result); printString("\n");
 1180              		.loc 1 82 5 is_stmt 1
 1181              		.loc 1 82 16 is_stmt 0
 1182 0424 17050000 		lla	a0,.LC11
 1182      13050500 
 1183              	.LVL136:
 1184 042c 97000000 		call	_Z11printStringPKc@plt
 1184      E7800000 
 1185              	.LVL137:
 1186              		.loc 1 82 34 is_stmt 1
 1187              		.loc 1 82 42 is_stmt 0
 1188 0434 13060000 		li	a2,0
 1189 0438 9305A000 		li	a1,10
 1190 043c 1B050900 		sext.w	a0,s2
 1191 0440 97000000 		call	_Z8printIntiii@plt
 1191      E7800000 
 1192              	.LVL138:
 1193              		.loc 1 82 52 is_stmt 1
 1194              		.loc 1 82 63 is_stmt 0
 1195 0448 17050000 		lla	a0,.LC1
 1195      13050500 
 1196 0450 97000000 		call	_Z11printStringPKc@plt
 1196      E7800000 
 1197              	.LVL139:
 1198 0458 6F000004 		j	.L63
 1199              	.L66:
  83:src/user/tests/Threads_C_API_test.hpp **** 
  84:src/user/tests/Threads_C_API_test.hpp ****     for (; i < 16; i++) {
  85:src/user/tests/Threads_C_API_test.hpp ****         printString("D: i="); printInt(i); printString("\n");
 1200              		.loc 1 85 9 is_stmt 1 discriminator 1
 1201              		.loc 1 85 20 is_stmt 0 discriminator 1
 1202 045c 17050000 		lla	a0,.LC9
 1202      13050500 
 1203 0464 97000000 		call	_Z11printStringPKc@plt
 1203      E7800000 
 1204              	.LVL140:
 1205              		.loc 1 85 31 is_stmt 1 discriminator 1
 1206              		.loc 1 85 39 is_stmt 0 discriminator 1
 1207 046c 13060000 		li	a2,0
 1208 0470 9305A000 		li	a1,10
 1209 0474 13850400 		mv	a0,s1
GAS LISTING /tmp/ccx7oCm9.s 			page 29


 1210 0478 97000000 		call	_Z8printIntiii@plt
 1210      E7800000 
 1211              	.LVL141:
 1212              		.loc 1 85 44 is_stmt 1 discriminator 1
 1213              		.loc 1 85 55 is_stmt 0 discriminator 1
 1214 0480 17050000 		lla	a0,.LC1
 1214      13050500 
 1215 0488 97000000 		call	_Z11printStringPKc@plt
 1215      E7800000 
 1216              	.LVL142:
  84:src/user/tests/Threads_C_API_test.hpp ****         printString("D: i="); printInt(i); printString("\n");
 1217              		.loc 1 84 5 is_stmt 1 discriminator 1
 1218 0490 9B841400 		addiw	s1,s1,1
 1219              	.LVL143:
 1220 0494 93F4F40F 		andi	s1,s1,0xff
 1221              	.LVL144:
 1222              	.L63:
  84:src/user/tests/Threads_C_API_test.hpp ****         printString("D: i="); printInt(i); printString("\n");
 1223              		.loc 1 84 5 discriminator 2
  84:src/user/tests/Threads_C_API_test.hpp ****         printString("D: i="); printInt(i); printString("\n");
 1224              		.loc 1 84 14 discriminator 2
 1225 0498 9307F000 		li	a5,15
 1226 049c E3F097FC 		bleu	s1,a5,.L66
  86:src/user/tests/Threads_C_API_test.hpp ****     }
  87:src/user/tests/Threads_C_API_test.hpp **** 
  88:src/user/tests/Threads_C_API_test.hpp ****     printString("D finished!\n");
 1227              		.loc 1 88 5
 1228              		.loc 1 88 16 is_stmt 0
 1229 04a0 17050000 		lla	a0,.LC12
 1229      13050500 
 1230 04a8 97000000 		call	_Z11printStringPKc@plt
 1230      E7800000 
 1231              	.LVL145:
  89:src/user/tests/Threads_C_API_test.hpp ****     finishedD = true;
 1232              		.loc 1 89 5 is_stmt 1
 1233              		.loc 1 89 15 is_stmt 0
 1234 04b0 93071000 		li	a5,1
 1235 04b4 17070000 		sb	a5,.LANCHOR0+9,a4
 1235      2300F700 
  90:src/user/tests/Threads_C_API_test.hpp ****     thread_dispatch();
 1236              		.loc 1 90 5 is_stmt 1
 1237              		.loc 1 90 20 is_stmt 0
 1238 04bc 97000000 		call	_Z15thread_dispatchv@plt
 1238      E7800000 
 1239              	.LVL146:
  91:src/user/tests/Threads_C_API_test.hpp **** }
 1240              		.loc 1 91 1
 1241 04c4 83308101 		ld	ra,24(sp)
 1242              		.cfi_restore 1
 1243 04c8 03340101 		ld	s0,16(sp)
 1244              		.cfi_restore 8
 1245              		.cfi_def_cfa 2, 32
 1246 04cc 83348100 		ld	s1,8(sp)
 1247              		.cfi_restore 9
 1248              	.LVL147:
 1249 04d0 03390100 		ld	s2,0(sp)
 1250              		.cfi_restore 18
GAS LISTING /tmp/ccx7oCm9.s 			page 30


 1251              	.LVL148:
 1252 04d4 13010102 		addi	sp,sp,32
 1253              		.cfi_def_cfa_offset 0
 1254 04d8 67800000 		jr	ra
 1255              		.cfi_endproc
 1256              	.LFE16:
 1258              		.section	.rodata.str1.8
 1259 009d 000000   		.align	3
 1260              	.LC13:
 1261 00a0 54687265 		.string	"ThreadA created\n"
 1261      61644120 
 1261      63726561 
 1261      7465640A 
 1261      00
 1262 00b1 00000000 		.align	3
 1262      000000
 1263              	.LC14:
 1264 00b8 54687265 		.string	"ThreadB created\n"
 1264      61644220 
 1264      63726561 
 1264      7465640A 
 1264      00
 1265 00c9 00000000 		.align	3
 1265      000000
 1266              	.LC15:
 1267 00d0 54687265 		.string	"ThreadC created\n"
 1267      61644320 
 1267      63726561 
 1267      7465640A 
 1267      00
 1268 00e1 00000000 		.align	3
 1268      000000
 1269              	.LC16:
 1270 00e8 54687265 		.string	"ThreadD created\n"
 1270      61644420 
 1270      63726561 
 1270      7465640A 
 1270      00
 1271              		.text
 1272              		.align	2
 1273              		.globl	_Z18Threads_C_API_testv
 1275              	_Z18Threads_C_API_testv:
 1276              	.LFB17:
  92:src/user/tests/Threads_C_API_test.hpp **** 
  93:src/user/tests/Threads_C_API_test.hpp **** 
  94:src/user/tests/Threads_C_API_test.hpp **** void Threads_C_API_test() {
 1277              		.loc 1 94 27 is_stmt 1
 1278              		.cfi_startproc
 1279 04dc 130101FC 		addi	sp,sp,-64
 1280              		.cfi_def_cfa_offset 64
 1281 04e0 233C1102 		sd	ra,56(sp)
 1282 04e4 23388102 		sd	s0,48(sp)
 1283 04e8 23349102 		sd	s1,40(sp)
 1284              		.cfi_offset 1, -8
 1285              		.cfi_offset 8, -16
 1286              		.cfi_offset 9, -24
 1287 04ec 13040104 		addi	s0,sp,64
GAS LISTING /tmp/ccx7oCm9.s 			page 31


 1288              		.cfi_def_cfa 8, 0
  95:src/user/tests/Threads_C_API_test.hpp ****     thread_t threads[4];
 1289              		.loc 1 95 5
  96:src/user/tests/Threads_C_API_test.hpp ****     thread_create(&threads[0], workerBodyA, nullptr);
 1290              		.loc 1 96 5
 1291              		.loc 1 96 18 is_stmt 0
 1292 04f0 13060000 		li	a2,0
 1293 04f4 97050000 		lla	a1,_Z11workerBodyAPv
 1293      93850500 
 1294 04fc 130504FC 		addi	a0,s0,-64
 1295 0500 97000000 		call	_Z13thread_createPP7_threadPFvPvES2_@plt
 1295      E7800000 
 1296              	.LVL149:
  97:src/user/tests/Threads_C_API_test.hpp ****     printString("ThreadA created\n");
 1297              		.loc 1 97 5 is_stmt 1
 1298              		.loc 1 97 16 is_stmt 0
 1299 0508 17050000 		lla	a0,.LC13
 1299      13050500 
 1300 0510 97000000 		call	_Z11printStringPKc@plt
 1300      E7800000 
 1301              	.LVL150:
  98:src/user/tests/Threads_C_API_test.hpp **** 
  99:src/user/tests/Threads_C_API_test.hpp ****     thread_create(&threads[1], workerBodyB, nullptr);
 1302              		.loc 1 99 5 is_stmt 1
 1303              		.loc 1 99 18 is_stmt 0
 1304 0518 13060000 		li	a2,0
 1305 051c 97050000 		lla	a1,_Z11workerBodyBPv
 1305      93850500 
 1306 0524 130584FC 		addi	a0,s0,-56
 1307 0528 97000000 		call	_Z13thread_createPP7_threadPFvPvES2_@plt
 1307      E7800000 
 1308              	.LVL151:
 100:src/user/tests/Threads_C_API_test.hpp ****     printString("ThreadB created\n");
 1309              		.loc 1 100 5 is_stmt 1
 1310              		.loc 1 100 16 is_stmt 0
 1311 0530 17050000 		lla	a0,.LC14
 1311      13050500 
 1312 0538 97000000 		call	_Z11printStringPKc@plt
 1312      E7800000 
 1313              	.LVL152:
 101:src/user/tests/Threads_C_API_test.hpp **** 
 102:src/user/tests/Threads_C_API_test.hpp ****     thread_create(&threads[2], workerBodyC, nullptr);
 1314              		.loc 1 102 5 is_stmt 1
 1315              		.loc 1 102 18 is_stmt 0
 1316 0540 13060000 		li	a2,0
 1317 0544 97050000 		lla	a1,_Z11workerBodyCPv
 1317      93850500 
 1318 054c 130504FD 		addi	a0,s0,-48
 1319 0550 97000000 		call	_Z13thread_createPP7_threadPFvPvES2_@plt
 1319      E7800000 
 1320              	.LVL153:
 103:src/user/tests/Threads_C_API_test.hpp ****     printString("ThreadC created\n");
 1321              		.loc 1 103 5 is_stmt 1
 1322              		.loc 1 103 16 is_stmt 0
 1323 0558 17050000 		lla	a0,.LC15
 1323      13050500 
 1324 0560 97000000 		call	_Z11printStringPKc@plt
GAS LISTING /tmp/ccx7oCm9.s 			page 32


 1324      E7800000 
 1325              	.LVL154:
 104:src/user/tests/Threads_C_API_test.hpp **** 
 105:src/user/tests/Threads_C_API_test.hpp ****     thread_create(&threads[3], workerBodyD, nullptr);
 1326              		.loc 1 105 5 is_stmt 1
 1327              		.loc 1 105 18 is_stmt 0
 1328 0568 13060000 		li	a2,0
 1329 056c 97050000 		lla	a1,_Z11workerBodyDPv
 1329      93850500 
 1330 0574 130584FD 		addi	a0,s0,-40
 1331 0578 97000000 		call	_Z13thread_createPP7_threadPFvPvES2_@plt
 1331      E7800000 
 1332              	.LVL155:
 106:src/user/tests/Threads_C_API_test.hpp ****     printString("ThreadD created\n");
 1333              		.loc 1 106 5 is_stmt 1
 1334              		.loc 1 106 16 is_stmt 0
 1335 0580 17050000 		lla	a0,.LC16
 1335      13050500 
 1336 0588 97000000 		call	_Z11printStringPKc@plt
 1336      E7800000 
 1337              	.LVL156:
 1338 0590 6F00C000 		j	.L70
 1339              	.L68:
 107:src/user/tests/Threads_C_API_test.hpp **** 
 108:src/user/tests/Threads_C_API_test.hpp ****     while (!(finishedA && finishedB && finishedC && finishedD)) {
 109:src/user/tests/Threads_C_API_test.hpp ****         thread_dispatch();
 1340              		.loc 1 109 9 is_stmt 1
 1341              		.loc 1 109 24 is_stmt 0
 1342 0594 97000000 		call	_Z15thread_dispatchv@plt
 1342      E7800000 
 1343              	.LVL157:
 1344              	.L70:
 108:src/user/tests/Threads_C_API_test.hpp ****         thread_dispatch();
 1345              		.loc 1 108 5 is_stmt 1
 108:src/user/tests/Threads_C_API_test.hpp ****         thread_dispatch();
 1346              		.loc 1 108 12
 1347 059c 97070000 		lbu	a5,.LANCHOR0
 1347      83C70700 
 1348 05a4 E38807FE 		beqz	a5,.L68
 108:src/user/tests/Threads_C_API_test.hpp ****         thread_dispatch();
 1349              		.loc 1 108 24 is_stmt 0 discriminator 1
 1350 05a8 97070000 		lbu	a5,.LANCHOR0+1
 1350      83C70700 
 1351 05b0 E38207FE 		beqz	a5,.L68
 108:src/user/tests/Threads_C_API_test.hpp ****         thread_dispatch();
 1352              		.loc 1 108 37 discriminator 2
 1353 05b4 97070000 		lbu	a5,.LANCHOR0+8
 1353      83C70700 
 1354 05bc E38C07FC 		beqz	a5,.L68
 108:src/user/tests/Threads_C_API_test.hpp ****         thread_dispatch();
 1355              		.loc 1 108 12 discriminator 3
 1356 05c0 97070000 		lbu	a5,.LANCHOR0+9
 1356      83C70700 
 1357 05c8 E38607FC 		beqz	a5,.L68
 1358              	.LBB51:
 110:src/user/tests/Threads_C_API_test.hpp ****     }
 111:src/user/tests/Threads_C_API_test.hpp **** 
GAS LISTING /tmp/ccx7oCm9.s 			page 33


 112:src/user/tests/Threads_C_API_test.hpp ****     for (auto &thread: threads) { delete thread; }
 1359              		.loc 1 112 24
 1360 05cc 930404FC 		addi	s1,s0,-64
 1361 05d0 6F008000 		j	.L69
 1362              	.LVL158:
 1363              	.L72:
 1364              		.loc 1 112 5 is_stmt 1 discriminator 4
 1365 05d4 93848400 		addi	s1,s1,8
 1366              	.LVL159:
 1367              	.L69:
 1368              		.loc 1 112 24 discriminator 5
 1369 05d8 930704FE 		addi	a5,s0,-32
 1370 05dc 638CF400 		beq	s1,a5,.L67
 1371              	.LVL160:
 1372              		.loc 1 112 35 discriminator 2
 1373              		.loc 1 112 42 is_stmt 0 discriminator 2
 1374 05e0 03B50400 		ld	a0,0(s1)
 1375              		.loc 1 112 48 discriminator 2
 1376 05e4 E30805FE 		beqz	a0,.L72
 1377              		.loc 1 112 42 discriminator 3
 1378 05e8 97000000 		call	_ZN7_threaddlEPv@plt
 1378      E7800000 
 1379              	.LVL161:
 1380 05f0 6FF05FFE 		j	.L72
 1381              	.LVL162:
 1382              	.L67:
 1383              	.LBE51:
 113:src/user/tests/Threads_C_API_test.hpp **** }
 1384              		.loc 1 113 1
 1385 05f4 83308103 		ld	ra,56(sp)
 1386              		.cfi_restore 1
 1387 05f8 03340103 		ld	s0,48(sp)
 1388              		.cfi_restore 8
 1389              		.cfi_def_cfa 2, 64
 1390 05fc 83348102 		ld	s1,40(sp)
 1391              		.cfi_restore 9
 1392              	.LVL163:
 1393 0600 13010104 		addi	sp,sp,64
 1394              		.cfi_def_cfa_offset 0
 1395 0604 67800000 		jr	ra
 1396              		.cfi_endproc
 1397              	.LFE17:
 1399              		.section	.rodata.str1.8
 1400 00f9 00000000 		.align	3
 1400      000000
 1401              	.LC17:
 1402 0100 556E6573 		.string	"Unesite broj proizvodjaca?\n"
 1402      69746520 
 1402      62726F6A 
 1402      2070726F 
 1402      697A766F 
 1403 011c 00000000 		.align	3
 1404              	.LC18:
 1405 0120 556E6573 		.string	"Unesite velicinu bafera?\n"
 1405      69746520 
 1405      76656C69 
 1405      63696E75 
GAS LISTING /tmp/ccx7oCm9.s 			page 34


 1405      20626166 
 1406 013a 00000000 		.align	3
 1406      0000
 1407              	.LC19:
 1408 0140 42726F6A 		.string	"Broj proizvodjaca "
 1408      2070726F 
 1408      697A766F 
 1408      646A6163 
 1408      612000
 1409 0153 00000000 		.align	3
 1409      00
 1410              	.LC20:
 1411 0158 20692076 		.string	" i velicina bafera "
 1411      656C6963 
 1411      696E6120 
 1411      62616665 
 1411      72612000 
 1412 016c 00000000 		.align	3
 1413              	.LC21:
 1414 0170 2E0A00   		.string	".\n"
 1415 0173 00000000 		.align	3
 1415      00
 1416              	.LC22:
 1417 0178 42726F6A 		.string	"Broj proizvodjaca ne sme biti manji od velicine bafera!\n"
 1417      2070726F 
 1417      697A766F 
 1417      646A6163 
 1417      61206E65 
 1418 01b1 00000000 		.align	3
 1418      000000
 1419              	.LC23:
 1420 01b8 42726F6A 		.string	"Broj proizvodjaca mora biti veci od nula!\n"
 1420      2070726F 
 1420      697A766F 
 1420      646A6163 
 1420      61206D6F 
 1421              		.text
 1422              		.align	2
 1423              		.globl	_ZN19ConsumerProducerCPP20testConsumerProducerEv
 1425              	_ZN19ConsumerProducerCPP20testConsumerProducerEv:
 1426              	.LFB32:
  87:src/user/tests/ConsumerProducer_CPP_API_test.hpp ****     };
  88:src/user/tests/ConsumerProducer_CPP_API_test.hpp **** 
  89:src/user/tests/ConsumerProducer_CPP_API_test.hpp ****     void testConsumerProducer() {
 1427              		.loc 2 89 33 is_stmt 1
 1428              		.cfi_startproc
 1429              		.cfi_personality 0x9b,DW.ref.__gxx_personality_v0
 1430              		.cfi_lsda 0x1b,.LLSDA32
 1431 0608 130101F8 		addi	sp,sp,-128
 1432              		.cfi_def_cfa_offset 128
 1433 060c 233C1106 		sd	ra,120(sp)
 1434 0610 23388106 		sd	s0,112(sp)
 1435 0614 23349106 		sd	s1,104(sp)
 1436 0618 23302107 		sd	s2,96(sp)
 1437 061c 233C3105 		sd	s3,88(sp)
 1438 0620 23384105 		sd	s4,80(sp)
 1439 0624 23345105 		sd	s5,72(sp)
GAS LISTING /tmp/ccx7oCm9.s 			page 35


 1440 0628 23306105 		sd	s6,64(sp)
 1441 062c 233C7103 		sd	s7,56(sp)
 1442 0630 23388103 		sd	s8,48(sp)
 1443 0634 23349103 		sd	s9,40(sp)
 1444              		.cfi_offset 1, -8
 1445              		.cfi_offset 8, -16
 1446              		.cfi_offset 9, -24
 1447              		.cfi_offset 18, -32
 1448              		.cfi_offset 19, -40
 1449              		.cfi_offset 20, -48
 1450              		.cfi_offset 21, -56
 1451              		.cfi_offset 22, -64
 1452              		.cfi_offset 23, -72
 1453              		.cfi_offset 24, -80
 1454              		.cfi_offset 25, -88
 1455 0638 13040108 		addi	s0,sp,128
 1456              		.cfi_def_cfa 8, 0
  90:src/user/tests/ConsumerProducer_CPP_API_test.hpp ****         char input[30];
  91:src/user/tests/ConsumerProducer_CPP_API_test.hpp ****         int n, threadNum;
  92:src/user/tests/ConsumerProducer_CPP_API_test.hpp **** 
  93:src/user/tests/ConsumerProducer_CPP_API_test.hpp ****         printString("Unesite broj proizvodjaca?\n");
  94:src/user/tests/ConsumerProducer_CPP_API_test.hpp ****         getString(input, 30);
  95:src/user/tests/ConsumerProducer_CPP_API_test.hpp ****         threadNum = stringToInt(input);
  96:src/user/tests/ConsumerProducer_CPP_API_test.hpp **** 
  97:src/user/tests/ConsumerProducer_CPP_API_test.hpp ****         printString("Unesite velicinu bafera?\n");
  98:src/user/tests/ConsumerProducer_CPP_API_test.hpp ****         getString(input, 30);
  99:src/user/tests/ConsumerProducer_CPP_API_test.hpp ****         n = stringToInt(input);
 100:src/user/tests/ConsumerProducer_CPP_API_test.hpp **** 
 101:src/user/tests/ConsumerProducer_CPP_API_test.hpp ****         printString("Broj proizvodjaca "); printInt(threadNum);
 102:src/user/tests/ConsumerProducer_CPP_API_test.hpp ****         printString(" i velicina bafera "); printInt(n);
 103:src/user/tests/ConsumerProducer_CPP_API_test.hpp ****         printString(".\n");
 104:src/user/tests/ConsumerProducer_CPP_API_test.hpp **** 
 105:src/user/tests/ConsumerProducer_CPP_API_test.hpp ****         if(threadNum > n) {
 106:src/user/tests/ConsumerProducer_CPP_API_test.hpp ****             printString("Broj proizvodjaca ne sme biti manji od velicine bafera!\n");
 107:src/user/tests/ConsumerProducer_CPP_API_test.hpp ****             return;
 108:src/user/tests/ConsumerProducer_CPP_API_test.hpp ****         } else if (threadNum < 1) {
 109:src/user/tests/ConsumerProducer_CPP_API_test.hpp ****             printString("Broj proizvodjaca mora biti veci od nula!\n");
 110:src/user/tests/ConsumerProducer_CPP_API_test.hpp ****             return;
 111:src/user/tests/ConsumerProducer_CPP_API_test.hpp ****         }
 112:src/user/tests/ConsumerProducer_CPP_API_test.hpp **** 
 113:src/user/tests/ConsumerProducer_CPP_API_test.hpp ****         BufferCPP *buffer = new BufferCPP(n);
 114:src/user/tests/ConsumerProducer_CPP_API_test.hpp **** 
 115:src/user/tests/ConsumerProducer_CPP_API_test.hpp ****         waitForAll = new Semaphore(0);
 116:src/user/tests/ConsumerProducer_CPP_API_test.hpp ****         Thread *producers[threadNum];
 117:src/user/tests/ConsumerProducer_CPP_API_test.hpp ****         thread_data threadData[threadNum + 1];
 118:src/user/tests/ConsumerProducer_CPP_API_test.hpp **** 
 119:src/user/tests/ConsumerProducer_CPP_API_test.hpp ****         threadData[threadNum].id = threadNum;
 120:src/user/tests/ConsumerProducer_CPP_API_test.hpp ****         threadData[threadNum].buffer = buffer;
 121:src/user/tests/ConsumerProducer_CPP_API_test.hpp ****         threadData[threadNum].sem = waitForAll;
 122:src/user/tests/ConsumerProducer_CPP_API_test.hpp ****         Thread *consumer = new Consumer(&threadData[threadNum]);
 123:src/user/tests/ConsumerProducer_CPP_API_test.hpp ****         consumer->start();
 124:src/user/tests/ConsumerProducer_CPP_API_test.hpp **** 
 125:src/user/tests/ConsumerProducer_CPP_API_test.hpp ****         threadData[0].id = 0;
 126:src/user/tests/ConsumerProducer_CPP_API_test.hpp ****         threadData[0].buffer = buffer;
 127:src/user/tests/ConsumerProducer_CPP_API_test.hpp ****         threadData[0].sem = waitForAll;
 128:src/user/tests/ConsumerProducer_CPP_API_test.hpp ****         producers[0] = new ProducerKeyborad(&threadData[0]);
 129:src/user/tests/ConsumerProducer_CPP_API_test.hpp ****         producers[0]->start();
GAS LISTING /tmp/ccx7oCm9.s 			page 36


 130:src/user/tests/ConsumerProducer_CPP_API_test.hpp **** 
 131:src/user/tests/ConsumerProducer_CPP_API_test.hpp ****         for (int i = 1; i < threadNum; i++) {
 132:src/user/tests/ConsumerProducer_CPP_API_test.hpp ****             threadData[i].id = i;
 133:src/user/tests/ConsumerProducer_CPP_API_test.hpp ****             threadData[i].buffer = buffer;
 134:src/user/tests/ConsumerProducer_CPP_API_test.hpp ****             threadData[i].sem = waitForAll;
 135:src/user/tests/ConsumerProducer_CPP_API_test.hpp **** 
 136:src/user/tests/ConsumerProducer_CPP_API_test.hpp ****             producers[i] = new Producer(&threadData[i]);
 137:src/user/tests/ConsumerProducer_CPP_API_test.hpp ****             producers[i]->start();
 138:src/user/tests/ConsumerProducer_CPP_API_test.hpp **** 
 139:src/user/tests/ConsumerProducer_CPP_API_test.hpp ****         }
 140:src/user/tests/ConsumerProducer_CPP_API_test.hpp **** 
 141:src/user/tests/ConsumerProducer_CPP_API_test.hpp ****         Thread::dispatch();
 142:src/user/tests/ConsumerProducer_CPP_API_test.hpp **** 
 143:src/user/tests/ConsumerProducer_CPP_API_test.hpp ****         for (int i = 0; i <= threadNum; i++) {
 144:src/user/tests/ConsumerProducer_CPP_API_test.hpp ****             waitForAll->wait();
 145:src/user/tests/ConsumerProducer_CPP_API_test.hpp ****         }
 146:src/user/tests/ConsumerProducer_CPP_API_test.hpp **** 
 147:src/user/tests/ConsumerProducer_CPP_API_test.hpp ****         delete waitForAll;
 148:src/user/tests/ConsumerProducer_CPP_API_test.hpp ****         for (int i = 0; i < threadNum; i++) {
 149:src/user/tests/ConsumerProducer_CPP_API_test.hpp ****             delete producers[i];
 150:src/user/tests/ConsumerProducer_CPP_API_test.hpp ****         }
 151:src/user/tests/ConsumerProducer_CPP_API_test.hpp ****         delete consumer;
 152:src/user/tests/ConsumerProducer_CPP_API_test.hpp ****         delete buffer;
 1457              		.loc 2 152 22 is_stmt 0
 1458 063c 930B0100 		mv	s7,sp
  90:src/user/tests/ConsumerProducer_CPP_API_test.hpp ****         char input[30];
 1459              		.loc 2 90 9 is_stmt 1
  91:src/user/tests/ConsumerProducer_CPP_API_test.hpp **** 
 1460              		.loc 2 91 9
  93:src/user/tests/ConsumerProducer_CPP_API_test.hpp ****         getString(input, 30);
 1461              		.loc 2 93 9
  93:src/user/tests/ConsumerProducer_CPP_API_test.hpp ****         getString(input, 30);
 1462              		.loc 2 93 20 is_stmt 0
 1463 0640 17050000 		lla	a0,.LC17
 1463      13050500 
 1464              	.LEHB0:
 1465 0648 97000000 		call	_Z11printStringPKc@plt
 1465      E7800000 
 1466              	.LVL164:
  94:src/user/tests/ConsumerProducer_CPP_API_test.hpp ****         threadNum = stringToInt(input);
 1467              		.loc 2 94 9 is_stmt 1
  94:src/user/tests/ConsumerProducer_CPP_API_test.hpp ****         threadNum = stringToInt(input);
 1468              		.loc 2 94 18 is_stmt 0
 1469 0650 9305E001 		li	a1,30
 1470 0654 930404F8 		addi	s1,s0,-128
 1471 0658 13850400 		mv	a0,s1
 1472 065c 97000000 		call	_Z9getStringPci@plt
 1472      E7800000 
 1473              	.LVL165:
  95:src/user/tests/ConsumerProducer_CPP_API_test.hpp **** 
 1474              		.loc 2 95 9 is_stmt 1
  95:src/user/tests/ConsumerProducer_CPP_API_test.hpp **** 
 1475              		.loc 2 95 32 is_stmt 0
 1476 0664 13850400 		mv	a0,s1
 1477 0668 97000000 		call	_Z11stringToIntPKc@plt
 1477      E7800000 
 1478              	.LVL166:
GAS LISTING /tmp/ccx7oCm9.s 			page 37


 1479 0670 13090500 		mv	s2,a0
 1480              	.LVL167:
  97:src/user/tests/ConsumerProducer_CPP_API_test.hpp ****         getString(input, 30);
 1481              		.loc 2 97 9 is_stmt 1
  97:src/user/tests/ConsumerProducer_CPP_API_test.hpp ****         getString(input, 30);
 1482              		.loc 2 97 20 is_stmt 0
 1483 0674 17050000 		lla	a0,.LC18
 1483      13050500 
 1484 067c 97000000 		call	_Z11printStringPKc@plt
 1484      E7800000 
 1485              	.LVL168:
  98:src/user/tests/ConsumerProducer_CPP_API_test.hpp ****         n = stringToInt(input);
 1486              		.loc 2 98 9 is_stmt 1
  98:src/user/tests/ConsumerProducer_CPP_API_test.hpp ****         n = stringToInt(input);
 1487              		.loc 2 98 18 is_stmt 0
 1488 0684 9305E001 		li	a1,30
 1489 0688 13850400 		mv	a0,s1
 1490 068c 97000000 		call	_Z9getStringPci@plt
 1490      E7800000 
 1491              	.LVL169:
  99:src/user/tests/ConsumerProducer_CPP_API_test.hpp **** 
 1492              		.loc 2 99 9 is_stmt 1
  99:src/user/tests/ConsumerProducer_CPP_API_test.hpp **** 
 1493              		.loc 2 99 24 is_stmt 0
 1494 0694 13850400 		mv	a0,s1
 1495 0698 97000000 		call	_Z11stringToIntPKc@plt
 1495      E7800000 
 1496              	.LVL170:
 1497 06a0 93040500 		mv	s1,a0
 1498              	.LVL171:
 101:src/user/tests/ConsumerProducer_CPP_API_test.hpp ****         printString(" i velicina bafera "); printInt(n);
 1499              		.loc 2 101 9 is_stmt 1
 101:src/user/tests/ConsumerProducer_CPP_API_test.hpp ****         printString(" i velicina bafera "); printInt(n);
 1500              		.loc 2 101 20 is_stmt 0
 1501 06a4 17050000 		lla	a0,.LC19
 1501      13050500 
 1502 06ac 97000000 		call	_Z11printStringPKc@plt
 1502      E7800000 
 1503              	.LVL172:
 101:src/user/tests/ConsumerProducer_CPP_API_test.hpp ****         printString(" i velicina bafera "); printInt(n);
 1504              		.loc 2 101 44 is_stmt 1
 101:src/user/tests/ConsumerProducer_CPP_API_test.hpp ****         printString(" i velicina bafera "); printInt(n);
 1505              		.loc 2 101 52 is_stmt 0
 1506 06b4 13060000 		li	a2,0
 1507 06b8 9305A000 		li	a1,10
 1508 06bc 13050900 		mv	a0,s2
 1509 06c0 97000000 		call	_Z8printIntiii@plt
 1509      E7800000 
 1510              	.LVL173:
 102:src/user/tests/ConsumerProducer_CPP_API_test.hpp ****         printString(".\n");
 1511              		.loc 2 102 9 is_stmt 1
 102:src/user/tests/ConsumerProducer_CPP_API_test.hpp ****         printString(".\n");
 1512              		.loc 2 102 20 is_stmt 0
 1513 06c8 17050000 		lla	a0,.LC20
 1513      13050500 
 1514 06d0 97000000 		call	_Z11printStringPKc@plt
 1514      E7800000 
GAS LISTING /tmp/ccx7oCm9.s 			page 38


 1515              	.LVL174:
 102:src/user/tests/ConsumerProducer_CPP_API_test.hpp ****         printString(".\n");
 1516              		.loc 2 102 45 is_stmt 1
 102:src/user/tests/ConsumerProducer_CPP_API_test.hpp ****         printString(".\n");
 1517              		.loc 2 102 53 is_stmt 0
 1518 06d8 13060000 		li	a2,0
 1519 06dc 9305A000 		li	a1,10
 1520 06e0 13850400 		mv	a0,s1
 1521 06e4 97000000 		call	_Z8printIntiii@plt
 1521      E7800000 
 1522              	.LVL175:
 103:src/user/tests/ConsumerProducer_CPP_API_test.hpp **** 
 1523              		.loc 2 103 9 is_stmt 1
 103:src/user/tests/ConsumerProducer_CPP_API_test.hpp **** 
 1524              		.loc 2 103 20 is_stmt 0
 1525 06ec 17050000 		lla	a0,.LC21
 1525      13050500 
 1526 06f4 97000000 		call	_Z11printStringPKc@plt
 1526      E7800000 
 1527              	.LVL176:
 105:src/user/tests/ConsumerProducer_CPP_API_test.hpp ****             printString("Broj proizvodjaca ne sme biti manji od velicine bafera!\n");
 1528              		.loc 2 105 9 is_stmt 1
 1529 06fc 63C62403 		bgt	s2,s1,.L106
 108:src/user/tests/ConsumerProducer_CPP_API_test.hpp ****             printString("Broj proizvodjaca mora biti veci od nula!\n");
 1530              		.loc 2 108 16
 1531 0700 635E2003 		blez	s2,.L107
 113:src/user/tests/ConsumerProducer_CPP_API_test.hpp **** 
 1532              		.loc 2 113 9
 113:src/user/tests/ConsumerProducer_CPP_API_test.hpp **** 
 1533              		.loc 2 113 44 is_stmt 0
 1534 0704 13058003 		li	a0,56
 1535 0708 97000000 		call	_Znwm@plt
 1535      E7800000 
 1536              	.LVL177:
 1537              	.LEHE0:
 1538 0710 930A0500 		mv	s5,a0
 1539 0714 63000504 		beqz	a0,.L79
 113:src/user/tests/ConsumerProducer_CPP_API_test.hpp **** 
 1540              		.loc 2 113 44 discriminator 2
 1541 0718 93850400 		mv	a1,s1
 1542              	.LEHB1:
 1543 071c 97000000 		call	_ZN9BufferCPPC1Ei@plt
 1543      E7800000 
 1544              	.LVL178:
 1545              	.LEHE1:
 1546 0724 6F000003 		j	.L79
 1547              	.L106:
 106:src/user/tests/ConsumerProducer_CPP_API_test.hpp ****             return;
 1548              		.loc 2 106 13 is_stmt 1
 106:src/user/tests/ConsumerProducer_CPP_API_test.hpp ****             return;
 1549              		.loc 2 106 24 is_stmt 0
 1550 0728 17050000 		lla	a0,.LC22
 1550      13050500 
 1551              	.LEHB2:
 1552 0730 97000000 		call	_Z11printStringPKc@plt
 1552      E7800000 
 1553              	.LVL179:
GAS LISTING /tmp/ccx7oCm9.s 			page 39


 107:src/user/tests/ConsumerProducer_CPP_API_test.hpp ****         } else if (threadNum < 1) {
 1554              		.loc 2 107 13 is_stmt 1
 1555 0738 6F004001 		j	.L77
 1556              	.L107:
 109:src/user/tests/ConsumerProducer_CPP_API_test.hpp ****             return;
 1557              		.loc 2 109 13
 109:src/user/tests/ConsumerProducer_CPP_API_test.hpp ****             return;
 1558              		.loc 2 109 24 is_stmt 0
 1559 073c 17050000 		lla	a0,.LC23
 1559      13050500 
 1560 0744 97000000 		call	_Z11printStringPKc@plt
 1560      E7800000 
 1561              	.LVL180:
 110:src/user/tests/ConsumerProducer_CPP_API_test.hpp ****         }
 1562              		.loc 2 110 13 is_stmt 1
 1563              	.L77:
 1564 074c 13810B00 		mv	sp,s7
 1565 0750 6F00C024 		j	.L75
 1566              	.L79:
 1567              	.LVL181:
 115:src/user/tests/ConsumerProducer_CPP_API_test.hpp ****         Thread *producers[threadNum];
 1568              		.loc 2 115 9 discriminator 7
 115:src/user/tests/ConsumerProducer_CPP_API_test.hpp ****         Thread *producers[threadNum];
 1569              		.loc 2 115 37 is_stmt 0 discriminator 7
 1570 0754 13050001 		li	a0,16
 1571 0758 97000000 		call	_Znwm@plt
 1571      E7800000 
 1572              	.LVL182:
 1573              	.LEHE2:
 1574 0760 93040500 		mv	s1,a0
 1575              	.LVL183:
 1576 0764 63080500 		beqz	a0,.L80
 115:src/user/tests/ConsumerProducer_CPP_API_test.hpp ****         Thread *producers[threadNum];
 1577              		.loc 2 115 37 discriminator 2
 1578 0768 93050000 		li	a1,0
 1579              	.LEHB3:
 1580 076c 97000000 		call	_ZN9SemaphoreC1Ej@plt
 1580      E7800000 
 1581              	.LVL184:
 1582              	.LEHE3:
 1583              	.L80:
 115:src/user/tests/ConsumerProducer_CPP_API_test.hpp ****         Thread *producers[threadNum];
 1584              		.loc 2 115 20 discriminator 7
 1585 0774 17070000 		lla	a4,.LANCHOR0
 1585      13070700 
 1586 077c 23389700 		sd	s1,16(a4)
 116:src/user/tests/ConsumerProducer_CPP_API_test.hpp ****         thread_data threadData[threadNum + 1];
 1587              		.loc 2 116 9 is_stmt 1 discriminator 7
 1588              	.LVL185:
 116:src/user/tests/ConsumerProducer_CPP_API_test.hpp ****         thread_data threadData[threadNum + 1];
 1589              		.loc 2 116 17 is_stmt 0 discriminator 7
 1590 0780 93173900 		slli	a5,s2,3
 1591 0784 9387F700 		addi	a5,a5,15
 1592 0788 93F707FF 		andi	a5,a5,-16
 1593 078c 3301F140 		sub	sp,sp,a5
 1594 0790 130A0100 		mv	s4,sp
 1595              	.LVL186:
GAS LISTING /tmp/ccx7oCm9.s 			page 40


 117:src/user/tests/ConsumerProducer_CPP_API_test.hpp **** 
 1596              		.loc 2 117 9 is_stmt 1 discriminator 7
 117:src/user/tests/ConsumerProducer_CPP_API_test.hpp **** 
 1597              		.loc 2 117 42 is_stmt 0 discriminator 7
 1598 0794 9B061900 		addiw	a3,s2,1
 1599              	.LVL187:
 117:src/user/tests/ConsumerProducer_CPP_API_test.hpp **** 
 1600              		.loc 2 117 21 discriminator 7
 1601 0798 93971600 		slli	a5,a3,1
 1602 079c B387D700 		add	a5,a5,a3
 1603 07a0 93973700 		slli	a5,a5,3
 1604 07a4 9387F700 		addi	a5,a5,15
 1605 07a8 93F707FF 		andi	a5,a5,-16
 1606 07ac 3301F140 		sub	sp,sp,a5
 1607              	.LVL188:
 1608 07b0 93090100 		mv	s3,sp
 1609              	.LVL189:
 119:src/user/tests/ConsumerProducer_CPP_API_test.hpp ****         threadData[threadNum].buffer = buffer;
 1610              		.loc 2 119 9 is_stmt 1 discriminator 7
 119:src/user/tests/ConsumerProducer_CPP_API_test.hpp ****         threadData[threadNum].buffer = buffer;
 1611              		.loc 2 119 34 is_stmt 0 discriminator 7
 1612 07b4 93171900 		slli	a5,s2,1
 1613 07b8 B3872701 		add	a5,a5,s2
 1614 07bc 93973700 		slli	a5,a5,3
 1615 07c0 B387F900 		add	a5,s3,a5
 1616 07c4 23A02701 		sw	s2,0(a5)
 120:src/user/tests/ConsumerProducer_CPP_API_test.hpp ****         threadData[threadNum].sem = waitForAll;
 1617              		.loc 2 120 9 is_stmt 1 discriminator 7
 120:src/user/tests/ConsumerProducer_CPP_API_test.hpp ****         threadData[threadNum].sem = waitForAll;
 1618              		.loc 2 120 38 is_stmt 0 discriminator 7
 1619 07c8 23B45701 		sd	s5,8(a5)
 121:src/user/tests/ConsumerProducer_CPP_API_test.hpp ****         Thread *consumer = new Consumer(&threadData[threadNum]);
 1620              		.loc 2 121 9 is_stmt 1 discriminator 7
 121:src/user/tests/ConsumerProducer_CPP_API_test.hpp ****         Thread *consumer = new Consumer(&threadData[threadNum]);
 1621              		.loc 2 121 35 is_stmt 0 discriminator 7
 1622 07cc 03370701 		ld	a4,16(a4)
 1623 07d0 23B8E700 		sd	a4,16(a5)
 122:src/user/tests/ConsumerProducer_CPP_API_test.hpp ****         consumer->start();
 1624              		.loc 2 122 9 is_stmt 1 discriminator 7
 122:src/user/tests/ConsumerProducer_CPP_API_test.hpp ****         consumer->start();
 1625              		.loc 2 122 63 is_stmt 0 discriminator 7
 1626 07d4 13058001 		li	a0,24
 1627              	.LEHB4:
 1628 07d8 97000000 		call	_Znwm@plt
 1628      E7800000 
 1629              	.LVL190:
 1630              	.LEHE4:
 1631 07e0 130B0500 		mv	s6,a0
 1632 07e4 63060502 		beqz	a0,.L81
 122:src/user/tests/ConsumerProducer_CPP_API_test.hpp ****         consumer->start();
 1633              		.loc 2 122 63 discriminator 2
 1634 07e8 93141900 		slli	s1,s2,1
 1635 07ec B3842401 		add	s1,s1,s2
 1636 07f0 93943400 		slli	s1,s1,3
 1637 07f4 B3849900 		add	s1,s3,s1
 1638              	.LVL191:
 1639              	.LEHB5:
GAS LISTING /tmp/ccx7oCm9.s 			page 41


 1640              	.LBB52:
 1641              	.LBB53:
  65:src/user/tests/ConsumerProducer_CPP_API_test.hpp **** 
 1642              		.loc 2 65 54 discriminator 2
 1643 07f8 97000000 		call	_ZN6ThreadC2Ev@plt
 1643      E7800000 
 1644              	.LVL192:
 1645              	.LEHE5:
  65:src/user/tests/ConsumerProducer_CPP_API_test.hpp **** 
 1646              		.loc 2 65 54
 1647 0800 97070000 		lla	a5,_ZTVN19ConsumerProducerCPP8ConsumerE+16
 1647      93870700 
 1648 0808 2330FB00 		sd	a5,0(s6)
 1649 080c 23389B00 		sd	s1,16(s6)
 1650              	.LVL193:
 1651              	.L81:
 1652              	.LBE53:
 1653              	.LBE52:
 123:src/user/tests/ConsumerProducer_CPP_API_test.hpp **** 
 1654              		.loc 2 123 9 is_stmt 1 discriminator 7
 123:src/user/tests/ConsumerProducer_CPP_API_test.hpp **** 
 1655              		.loc 2 123 24 is_stmt 0 discriminator 7
 1656 0810 13050B00 		mv	a0,s6
 1657              	.LEHB6:
 1658 0814 97000000 		call	_ZN6Thread5startEv@plt
 1658      E7800000 
 1659              	.LVL194:
 125:src/user/tests/ConsumerProducer_CPP_API_test.hpp ****         threadData[0].buffer = buffer;
 1660              		.loc 2 125 9 is_stmt 1 discriminator 7
 125:src/user/tests/ConsumerProducer_CPP_API_test.hpp ****         threadData[0].buffer = buffer;
 1661              		.loc 2 125 26 is_stmt 0 discriminator 7
 1662 081c 23A00900 		sw	zero,0(s3)
 126:src/user/tests/ConsumerProducer_CPP_API_test.hpp ****         threadData[0].sem = waitForAll;
 1663              		.loc 2 126 9 is_stmt 1 discriminator 7
 126:src/user/tests/ConsumerProducer_CPP_API_test.hpp ****         threadData[0].sem = waitForAll;
 1664              		.loc 2 126 30 is_stmt 0 discriminator 7
 1665 0820 23B45901 		sd	s5,8(s3)
 127:src/user/tests/ConsumerProducer_CPP_API_test.hpp ****         producers[0] = new ProducerKeyborad(&threadData[0]);
 1666              		.loc 2 127 9 is_stmt 1 discriminator 7
 127:src/user/tests/ConsumerProducer_CPP_API_test.hpp ****         producers[0] = new ProducerKeyborad(&threadData[0]);
 1667              		.loc 2 127 27 is_stmt 0 discriminator 7
 1668 0824 97070000 		ld	a5,.LANCHOR0+16
 1668      83B70700 
 1669 082c 23B8F900 		sd	a5,16(s3)
 128:src/user/tests/ConsumerProducer_CPP_API_test.hpp ****         producers[0]->start();
 1670              		.loc 2 128 9 is_stmt 1 discriminator 7
 128:src/user/tests/ConsumerProducer_CPP_API_test.hpp ****         producers[0]->start();
 1671              		.loc 2 128 59 is_stmt 0 discriminator 7
 1672 0830 13058001 		li	a0,24
 1673 0834 97000000 		call	_Znwm@plt
 1673      E7800000 
 1674              	.LVL195:
 1675              	.LEHE6:
 1676 083c 93040500 		mv	s1,a0
 128:src/user/tests/ConsumerProducer_CPP_API_test.hpp ****         producers[0]->start();
 1677              		.loc 2 128 24 discriminator 7
 1678 0840 630E0500 		beqz	a0,.L82
GAS LISTING /tmp/ccx7oCm9.s 			page 42


 1679              	.LVL196:
 1680              	.LEHB7:
 1681              	.LBB54:
 1682              	.LBB55:
  28:src/user/tests/ConsumerProducer_CPP_API_test.hpp **** 
 1683              		.loc 2 28 62 discriminator 2
 1684 0844 97000000 		call	_ZN6ThreadC2Ev@plt
 1684      E7800000 
 1685              	.LVL197:
 1686              	.LEHE7:
  28:src/user/tests/ConsumerProducer_CPP_API_test.hpp **** 
 1687              		.loc 2 28 62
 1688 084c 97070000 		lla	a5,_ZTVN19ConsumerProducerCPP16ProducerKeyboradE+16
 1688      93870700 
 1689 0854 23B0F400 		sd	a5,0(s1)
 1690 0858 23B83401 		sd	s3,16(s1)
 1691              	.LVL198:
 1692              	.L82:
 1693              	.LBE55:
 1694              	.LBE54:
 128:src/user/tests/ConsumerProducer_CPP_API_test.hpp ****         producers[0]->start();
 1695              		.loc 2 128 22 discriminator 7
 1696 085c 23309A00 		sd	s1,0(s4)
 129:src/user/tests/ConsumerProducer_CPP_API_test.hpp **** 
 1697              		.loc 2 129 9 is_stmt 1 discriminator 7
 129:src/user/tests/ConsumerProducer_CPP_API_test.hpp **** 
 1698              		.loc 2 129 28 is_stmt 0 discriminator 7
 1699 0860 13850400 		mv	a0,s1
 1700              	.LEHB8:
 1701 0864 97000000 		call	_ZN6Thread5startEv@plt
 1701      E7800000 
 1702              	.LVL199:
 1703              	.LBB56:
 131:src/user/tests/ConsumerProducer_CPP_API_test.hpp ****             threadData[i].id = i;
 1704              		.loc 2 131 18 discriminator 7
 1705 086c 93041000 		li	s1,1
 1706 0870 6F000003 		j	.L85
 1707              	.LVL200:
 1708              	.L108:
 1709              	.LBB57:
 1710              	.LBB58:
  48:src/user/tests/ConsumerProducer_CPP_API_test.hpp **** 
 1711              		.loc 2 48 54
 1712 0874 97070000 		lla	a5,_ZTVN19ConsumerProducerCPP8ProducerE+16
 1712      93870700 
 1713 087c 2330FC00 		sd	a5,0(s8)
 1714 0880 23389C01 		sd	s9,16(s8)
 1715              	.LVL201:
 1716              	.L84:
 1717              	.LBE58:
 1718              	.LBE57:
 136:src/user/tests/ConsumerProducer_CPP_API_test.hpp ****             producers[i]->start();
 1719              		.loc 2 136 26 discriminator 7
 1720 0884 93973400 		slli	a5,s1,3
 1721 0888 B307FA00 		add	a5,s4,a5
 1722 088c 23B08701 		sd	s8,0(a5)
 137:src/user/tests/ConsumerProducer_CPP_API_test.hpp **** 
GAS LISTING /tmp/ccx7oCm9.s 			page 43


 1723              		.loc 2 137 13 is_stmt 1 discriminator 7
 137:src/user/tests/ConsumerProducer_CPP_API_test.hpp **** 
 1724              		.loc 2 137 32 is_stmt 0 discriminator 7
 1725 0890 13050C00 		mv	a0,s8
 1726 0894 97000000 		call	_ZN6Thread5startEv@plt
 1726      E7800000 
 1727              	.LVL202:
 131:src/user/tests/ConsumerProducer_CPP_API_test.hpp ****             threadData[i].id = i;
 1728              		.loc 2 131 9 is_stmt 1 discriminator 7
 1729 089c 9B841400 		addiw	s1,s1,1
 1730              	.LVL203:
 1731              	.L85:
 131:src/user/tests/ConsumerProducer_CPP_API_test.hpp ****             threadData[i].id = i;
 1732              		.loc 2 131 27 discriminator 1
 1733 08a0 63DC2405 		bge	s1,s2,.L83
 132:src/user/tests/ConsumerProducer_CPP_API_test.hpp ****             threadData[i].buffer = buffer;
 1734              		.loc 2 132 13
 132:src/user/tests/ConsumerProducer_CPP_API_test.hpp ****             threadData[i].buffer = buffer;
 1735              		.loc 2 132 30 is_stmt 0
 1736 08a4 93971400 		slli	a5,s1,1
 1737 08a8 B3879700 		add	a5,a5,s1
 1738 08ac 93973700 		slli	a5,a5,3
 1739 08b0 B387F900 		add	a5,s3,a5
 1740 08b4 23A09700 		sw	s1,0(a5)
 133:src/user/tests/ConsumerProducer_CPP_API_test.hpp ****             threadData[i].sem = waitForAll;
 1741              		.loc 2 133 13 is_stmt 1
 133:src/user/tests/ConsumerProducer_CPP_API_test.hpp ****             threadData[i].sem = waitForAll;
 1742              		.loc 2 133 34 is_stmt 0
 1743 08b8 23B45701 		sd	s5,8(a5)
 134:src/user/tests/ConsumerProducer_CPP_API_test.hpp **** 
 1744              		.loc 2 134 13 is_stmt 1
 134:src/user/tests/ConsumerProducer_CPP_API_test.hpp **** 
 1745              		.loc 2 134 31 is_stmt 0
 1746 08bc 17070000 		ld	a4,.LANCHOR0+16
 1746      03370700 
 1747 08c4 23B8E700 		sd	a4,16(a5)
 136:src/user/tests/ConsumerProducer_CPP_API_test.hpp ****             producers[i]->start();
 1748              		.loc 2 136 13 is_stmt 1
 136:src/user/tests/ConsumerProducer_CPP_API_test.hpp ****             producers[i]->start();
 1749              		.loc 2 136 55 is_stmt 0
 1750 08c8 13058001 		li	a0,24
 1751 08cc 97000000 		call	_Znwm@plt
 1751      E7800000 
 1752              	.LVL204:
 1753              	.LEHE8:
 1754 08d4 130C0500 		mv	s8,a0
 136:src/user/tests/ConsumerProducer_CPP_API_test.hpp ****             producers[i]->start();
 1755              		.loc 2 136 28
 1756 08d8 E30605FA 		beqz	a0,.L84
 136:src/user/tests/ConsumerProducer_CPP_API_test.hpp ****             producers[i]->start();
 1757              		.loc 2 136 55 discriminator 2
 1758 08dc 939C1400 		slli	s9,s1,1
 1759 08e0 B38C9C00 		add	s9,s9,s1
 1760 08e4 939C3C00 		slli	s9,s9,3
 1761 08e8 B38C9901 		add	s9,s3,s9
 1762              	.LVL205:
 1763              	.LEHB9:
GAS LISTING /tmp/ccx7oCm9.s 			page 44


 1764              	.LBB60:
 1765              	.LBB59:
  48:src/user/tests/ConsumerProducer_CPP_API_test.hpp **** 
 1766              		.loc 2 48 54 discriminator 2
 1767 08ec 97000000 		call	_ZN6ThreadC2Ev@plt
 1767      E7800000 
 1768              	.LVL206:
 1769              	.LEHE9:
 1770 08f4 6FF01FF8 		j	.L108
 1771              	.LVL207:
 1772              	.L83:
 1773              	.LBE59:
 1774              	.LBE60:
 1775              	.LBE56:
 141:src/user/tests/ConsumerProducer_CPP_API_test.hpp **** 
 1776              		.loc 2 141 9 is_stmt 1
 1777              	.LEHB10:
 141:src/user/tests/ConsumerProducer_CPP_API_test.hpp **** 
 1778              		.loc 2 141 25 is_stmt 0
 1779 08f8 97000000 		call	_ZN6Thread8dispatchEv@plt
 1779      E7800000 
 1780              	.LVL208:
 1781              	.LBB61:
 143:src/user/tests/ConsumerProducer_CPP_API_test.hpp ****             waitForAll->wait();
 1782              		.loc 2 143 18
 1783 0900 93040000 		li	s1,0
 1784              	.LVL209:
 1785              	.L87:
 143:src/user/tests/ConsumerProducer_CPP_API_test.hpp ****             waitForAll->wait();
 1786              		.loc 2 143 27 is_stmt 1 discriminator 1
 1787 0904 634E9900 		bgt	s1,s2,.L86
 144:src/user/tests/ConsumerProducer_CPP_API_test.hpp ****         }
 1788              		.loc 2 144 13
 144:src/user/tests/ConsumerProducer_CPP_API_test.hpp ****         }
 1789              		.loc 2 144 29 is_stmt 0
 1790 0908 17050000 		ld	a0,.LANCHOR0+16
 1790      03350500 
 1791 0910 97000000 		call	_ZN9Semaphore4waitEv@plt
 1791      E7800000 
 1792              	.LVL210:
 143:src/user/tests/ConsumerProducer_CPP_API_test.hpp ****             waitForAll->wait();
 1793              		.loc 2 143 9 is_stmt 1
 1794 0918 9B841400 		addiw	s1,s1,1
 1795              	.LVL211:
 1796 091c 6FF09FFE 		j	.L87
 1797              	.LVL212:
 1798              	.L86:
 1799              	.LBE61:
 147:src/user/tests/ConsumerProducer_CPP_API_test.hpp ****         for (int i = 0; i < threadNum; i++) {
 1800              		.loc 2 147 9
 147:src/user/tests/ConsumerProducer_CPP_API_test.hpp ****         for (int i = 0; i < threadNum; i++) {
 1801              		.loc 2 147 16 is_stmt 0
 1802 0920 17050000 		ld	a0,.LANCHOR0+16
 1802      03350500 
 147:src/user/tests/ConsumerProducer_CPP_API_test.hpp ****         for (int i = 0; i < threadNum; i++) {
 1803              		.loc 2 147 26
 1804 0928 63080500 		beqz	a0,.L88
GAS LISTING /tmp/ccx7oCm9.s 			page 45


 147:src/user/tests/ConsumerProducer_CPP_API_test.hpp ****         for (int i = 0; i < threadNum; i++) {
 1805              		.loc 2 147 16 discriminator 1
 1806 092c 83370500 		ld	a5,0(a0)
 1807 0930 83B78700 		ld	a5,8(a5)
 1808 0934 E7800700 		jalr	a5
 1809              	.LVL213:
 1810              	.L88:
 1811              	.LBB62:
 143:src/user/tests/ConsumerProducer_CPP_API_test.hpp ****             waitForAll->wait();
 1812              		.loc 2 143 18 discriminator 1
 1813 0938 93040000 		li	s1,0
 1814              	.LVL214:
 1815 093c 6F008000 		j	.L91
 1816              	.LVL215:
 1817              	.L90:
 1818              	.LBE62:
 1819              	.LBB63:
 148:src/user/tests/ConsumerProducer_CPP_API_test.hpp ****             delete producers[i];
 1820              		.loc 2 148 9 is_stmt 1 discriminator 2
 1821 0940 9B841400 		addiw	s1,s1,1
 1822              	.LVL216:
 1823              	.L91:
 148:src/user/tests/ConsumerProducer_CPP_API_test.hpp ****             delete producers[i];
 1824              		.loc 2 148 27 discriminator 1
 1825 0944 63D22403 		bge	s1,s2,.L89
 149:src/user/tests/ConsumerProducer_CPP_API_test.hpp ****         }
 1826              		.loc 2 149 13
 149:src/user/tests/ConsumerProducer_CPP_API_test.hpp ****         }
 1827              		.loc 2 149 31 is_stmt 0
 1828 0948 93973400 		slli	a5,s1,3
 1829 094c B307FA00 		add	a5,s4,a5
 1830 0950 03B50700 		ld	a0,0(a5)
 149:src/user/tests/ConsumerProducer_CPP_API_test.hpp ****         }
 1831              		.loc 2 149 32
 1832 0954 E30605FE 		beqz	a0,.L90
 149:src/user/tests/ConsumerProducer_CPP_API_test.hpp ****         }
 1833              		.loc 2 149 31 discriminator 1
 1834 0958 83370500 		ld	a5,0(a0)
 1835 095c 83B78700 		ld	a5,8(a5)
 1836 0960 E7800700 		jalr	a5
 1837              	.LVL217:
 1838 0964 6FF0DFFD 		j	.L90
 1839              	.L89:
 1840              	.LBE63:
 151:src/user/tests/ConsumerProducer_CPP_API_test.hpp ****         delete buffer;
 1841              		.loc 2 151 9 is_stmt 1
 151:src/user/tests/ConsumerProducer_CPP_API_test.hpp ****         delete buffer;
 1842              		.loc 2 151 24 is_stmt 0
 1843 0968 630A0B00 		beqz	s6,.L92
 151:src/user/tests/ConsumerProducer_CPP_API_test.hpp ****         delete buffer;
 1844              		.loc 2 151 16 discriminator 1
 1845 096c 83370B00 		ld	a5,0(s6)
 1846 0970 83B78700 		ld	a5,8(a5)
 1847 0974 13050B00 		mv	a0,s6
 1848 0978 E7800700 		jalr	a5
 1849              	.LVL218:
 1850              	.L92:
GAS LISTING /tmp/ccx7oCm9.s 			page 46


 1851              		.loc 2 152 9 is_stmt 1
 1852              		.loc 2 152 22 is_stmt 0
 1853 097c 638E0A00 		beqz	s5,.L93
 1854              		.loc 2 152 16 discriminator 1
 1855 0980 13850A00 		mv	a0,s5
 1856 0984 97000000 		call	_ZN9BufferCPPD1Ev@plt
 1856      E7800000 
 1857              	.LVL219:
 1858 098c 13850A00 		mv	a0,s5
 1859 0990 97000000 		call	_ZdlPv@plt
 1859      E7800000 
 1860              	.LVL220:
 1861              	.LEHE10:
 1862              	.L93:
 1863 0998 13810B00 		mv	sp,s7
 1864              	.LVL221:
 1865              	.L75:
 153:src/user/tests/ConsumerProducer_CPP_API_test.hpp ****     }
 1866              		.loc 2 153 5
 1867 099c 130104F8 		addi	sp,s0,-128
 1868              		.cfi_remember_state
 1869              		.cfi_def_cfa 2, 128
 1870 09a0 83308107 		ld	ra,120(sp)
 1871              		.cfi_restore 1
 1872 09a4 03340107 		ld	s0,112(sp)
 1873              		.cfi_restore 8
 1874 09a8 83348106 		ld	s1,104(sp)
 1875              		.cfi_restore 9
 1876 09ac 03390106 		ld	s2,96(sp)
 1877              		.cfi_restore 18
 1878              	.LVL222:
 1879 09b0 83398105 		ld	s3,88(sp)
 1880              		.cfi_restore 19
 1881 09b4 033A0105 		ld	s4,80(sp)
 1882              		.cfi_restore 20
 1883 09b8 833A8104 		ld	s5,72(sp)
 1884              		.cfi_restore 21
 1885 09bc 033B0104 		ld	s6,64(sp)
 1886              		.cfi_restore 22
 1887 09c0 833B8103 		ld	s7,56(sp)
 1888              		.cfi_restore 23
 1889 09c4 033C0103 		ld	s8,48(sp)
 1890              		.cfi_restore 24
 1891 09c8 833C8102 		ld	s9,40(sp)
 1892              		.cfi_restore 25
 1893 09cc 13010108 		addi	sp,sp,128
 1894              		.cfi_def_cfa_offset 0
 1895 09d0 67800000 		jr	ra
 1896              	.LVL223:
 1897              	.L100:
 1898              		.cfi_restore_state
 1899 09d4 93040500 		mv	s1,a0
 1900              	.LVL224:
 113:src/user/tests/ConsumerProducer_CPP_API_test.hpp **** 
 1901              		.loc 2 113 44
 1902 09d8 13850A00 		mv	a0,s5
 1903 09dc 97000000 		call	_ZdlPv@plt
GAS LISTING /tmp/ccx7oCm9.s 			page 47


 1903      E7800000 
 1904              	.LVL225:
 1905 09e4 13850400 		mv	a0,s1
 1906              	.LEHB11:
 1907 09e8 97000000 		call	_Unwind_Resume@plt
 1907      E7800000 
 1908              	.LVL226:
 1909              	.LEHE11:
 1910              	.L101:
 1911 09f0 13090500 		mv	s2,a0
 1912              	.LVL227:
 115:src/user/tests/ConsumerProducer_CPP_API_test.hpp ****         Thread *producers[threadNum];
 1913              		.loc 2 115 37
 1914 09f4 13850400 		mv	a0,s1
 1915 09f8 97000000 		call	_ZdlPv@plt
 1915      E7800000 
 1916              	.LVL228:
 1917 0a00 13050900 		mv	a0,s2
 1918              	.LEHB12:
 1919 0a04 97000000 		call	_Unwind_Resume@plt
 1919      E7800000 
 1920              	.LVL229:
 1921              	.LEHE12:
 1922              	.L102:
 1923 0a0c 93040500 		mv	s1,a0
 1924              	.LVL230:
 122:src/user/tests/ConsumerProducer_CPP_API_test.hpp ****         consumer->start();
 1925              		.loc 2 122 63
 1926 0a10 13050B00 		mv	a0,s6
 1927 0a14 97000000 		call	_ZdlPv@plt
 1927      E7800000 
 1928              	.LVL231:
 1929 0a1c 13850400 		mv	a0,s1
 1930              	.LEHB13:
 1931 0a20 97000000 		call	_Unwind_Resume@plt
 1931      E7800000 
 1932              	.LVL232:
 1933              	.LEHE13:
 1934              	.L103:
 1935 0a28 13090500 		mv	s2,a0
 1936              	.LVL233:
 128:src/user/tests/ConsumerProducer_CPP_API_test.hpp ****         producers[0]->start();
 1937              		.loc 2 128 59
 1938 0a2c 13850400 		mv	a0,s1
 1939 0a30 97000000 		call	_ZdlPv@plt
 1939      E7800000 
 1940              	.LVL234:
 1941 0a38 13050900 		mv	a0,s2
 1942              	.LEHB14:
 1943 0a3c 97000000 		call	_Unwind_Resume@plt
 1943      E7800000 
 1944              	.LVL235:
 1945              	.LEHE14:
 1946              	.L104:
 1947 0a44 93040500 		mv	s1,a0
 1948              	.LVL236:
 1949              	.LBB64:
GAS LISTING /tmp/ccx7oCm9.s 			page 48


 136:src/user/tests/ConsumerProducer_CPP_API_test.hpp ****             producers[i]->start();
 1950              		.loc 2 136 55
 1951 0a48 13050C00 		mv	a0,s8
 1952 0a4c 97000000 		call	_ZdlPv@plt
 1952      E7800000 
 1953              	.LVL237:
 1954 0a54 13850400 		mv	a0,s1
 1955              	.LEHB15:
 1956 0a58 97000000 		call	_Unwind_Resume@plt
 1956      E7800000 
 1957              	.LVL238:
 1958              	.LEHE15:
 1959              	.LBE64:
 1960              		.cfi_endproc
 1961              	.LFE32:
 1962              		.globl	__gxx_personality_v0
 1963              		.section	.gcc_except_table,"a",@progbits
 1964              	.LLSDA32:
 1965 0000 FF       		.byte	0xff
 1966 0001 FF       		.byte	0xff
 1967 0002 03       		.byte	0x3
 1968 0003 D001     		.byte	0xd0,0x1
 1969 0005 00000000 		.4byte	.LEHB0-.LFB32
 1970 0009 00000000 		.4byte	.LEHE0-.LEHB0
 1971 000d 00000000 		.4byte	0
 1972 0011 00       		.byte	0
 1973 0012 00000000 		.4byte	.LEHB1-.LFB32
 1974 0016 00000000 		.4byte	.LEHE1-.LEHB1
 1975 001a 00000000 		.4byte	.L100-.LFB32
 1976 001e 00       		.byte	0
 1977 001f 00000000 		.4byte	.LEHB2-.LFB32
 1978 0023 00000000 		.4byte	.LEHE2-.LEHB2
 1979 0027 00000000 		.4byte	0
 1980 002b 00       		.byte	0
 1981 002c 00000000 		.4byte	.LEHB3-.LFB32
 1982 0030 00000000 		.4byte	.LEHE3-.LEHB3
 1983 0034 00000000 		.4byte	.L101-.LFB32
 1984 0038 00       		.byte	0
 1985 0039 00000000 		.4byte	.LEHB4-.LFB32
 1986 003d 00000000 		.4byte	.LEHE4-.LEHB4
 1987 0041 00000000 		.4byte	0
 1988 0045 00       		.byte	0
 1989 0046 00000000 		.4byte	.LEHB5-.LFB32
 1990 004a 00000000 		.4byte	.LEHE5-.LEHB5
 1991 004e 00000000 		.4byte	.L102-.LFB32
 1992 0052 00       		.byte	0
 1993 0053 00000000 		.4byte	.LEHB6-.LFB32
 1994 0057 00000000 		.4byte	.LEHE6-.LEHB6
 1995 005b 00000000 		.4byte	0
 1996 005f 00       		.byte	0
 1997 0060 00000000 		.4byte	.LEHB7-.LFB32
 1998 0064 00000000 		.4byte	.LEHE7-.LEHB7
 1999 0068 00000000 		.4byte	.L103-.LFB32
 2000 006c 00       		.byte	0
 2001 006d 00000000 		.4byte	.LEHB8-.LFB32
 2002 0071 00000000 		.4byte	.LEHE8-.LEHB8
 2003 0075 00000000 		.4byte	0
GAS LISTING /tmp/ccx7oCm9.s 			page 49


 2004 0079 00       		.byte	0
 2005 007a 00000000 		.4byte	.LEHB9-.LFB32
 2006 007e 00000000 		.4byte	.LEHE9-.LEHB9
 2007 0082 00000000 		.4byte	.L104-.LFB32
 2008 0086 00       		.byte	0
 2009 0087 00000000 		.4byte	.LEHB10-.LFB32
 2010 008b 00000000 		.4byte	.LEHE10-.LEHB10
 2011 008f 00000000 		.4byte	0
 2012 0093 00       		.byte	0
 2013 0094 00000000 		.4byte	.LEHB11-.LFB32
 2014 0098 00000000 		.4byte	.LEHE11-.LEHB11
 2015 009c 00000000 		.4byte	0
 2016 00a0 00       		.byte	0
 2017 00a1 00000000 		.4byte	.LEHB12-.LFB32
 2018 00a5 00000000 		.4byte	.LEHE12-.LEHB12
 2019 00a9 00000000 		.4byte	0
 2020 00ad 00       		.byte	0
 2021 00ae 00000000 		.4byte	.LEHB13-.LFB32
 2022 00b2 00000000 		.4byte	.LEHE13-.LEHB13
 2023 00b6 00000000 		.4byte	0
 2024 00ba 00       		.byte	0
 2025 00bb 00000000 		.4byte	.LEHB14-.LFB32
 2026 00bf 00000000 		.4byte	.LEHE14-.LEHB14
 2027 00c3 00000000 		.4byte	0
 2028 00c7 00       		.byte	0
 2029 00c8 00000000 		.4byte	.LEHB15-.LFB32
 2030 00cc 00000000 		.4byte	.LEHE15-.LEHB15
 2031 00d0 00000000 		.4byte	0
 2032 00d4 00       		.byte	0
 2033              		.text
 2035              		.align	2
 2036              		.globl	_Z8userMainv
 2038              	_Z8userMainv:
 2039              	.LFB33:
 2040              		.file 3 "src/user/tests/userMain.cpp"
   1:src/user/tests/userMain.cpp **** #include "Threads_C_API_test.hpp" // zadatak 2, niti C API i sinhrona promena konteksta
   2:src/user/tests/userMain.cpp **** //#include "Threads_CPP_API_test.hpp" // zadatak 2., niti CPP API i sinhrona promena konteksta
   3:src/user/tests/userMain.cpp **** //
   4:src/user/tests/userMain.cpp **** //#include "ConsumerProducer_C_API_test.h" // zadatak 3., kompletan C API sa semaforima, sinhrona p
   5:src/user/tests/userMain.cpp **** //#include "ConsumerProducer_CPP_Sync_API_test.hpp" // zadatak 3., kompletan CPP API sa semaforima,
   6:src/user/tests/userMain.cpp **** 
   7:src/user/tests/userMain.cpp **** //#include "ThreadSleep_C_API_test.hpp" // thread_sleep test C API
   8:src/user/tests/userMain.cpp **** #include "ConsumerProducer_CPP_API_test.hpp" // zadatak 4. CPP API i asinhrona promena konteksta
   9:src/user/tests/userMain.cpp **** 
  10:src/user/tests/userMain.cpp **** 
  11:src/user/tests/userMain.cpp **** void userMain() {
 2041              		.loc 3 11 17 is_stmt 1
 2042              		.cfi_startproc
 2043 0a60 130101FF 		addi	sp,sp,-16
 2044              		.cfi_def_cfa_offset 16
 2045 0a64 23341100 		sd	ra,8(sp)
 2046 0a68 23308100 		sd	s0,0(sp)
 2047              		.cfi_offset 1, -8
 2048              		.cfi_offset 8, -16
 2049 0a6c 13040101 		addi	s0,sp,16
 2050              		.cfi_def_cfa 8, 0
  12:src/user/tests/userMain.cpp **** //    Threads_C_API_test(); // zadatak 2., niti C API i sinhrona promena konteksta
GAS LISTING /tmp/ccx7oCm9.s 			page 50


  13:src/user/tests/userMain.cpp **** //    Threads_CPP_API_test(); // zadatak 2., niti CPP API i sinhrona promena konteksta
  14:src/user/tests/userMain.cpp **** 
  15:src/user/tests/userMain.cpp **** //    producerConsumer_C_API(); // zadatak 3., kompletan C API sa semaforima, sinhrona promena kont
  16:src/user/tests/userMain.cpp **** //    producerConsumer_CPP_Sync_API(); // zadatak 3., kompletan CPP API sa semaforima, sinhrona pro
  17:src/user/tests/userMain.cpp **** 
  18:src/user/tests/userMain.cpp **** //    testSleeping(); // thread_sleep test C API
  19:src/user/tests/userMain.cpp ****     ConsumerProducerCPP::testConsumerProducer(); // zadatak 4. CPP API i asinhrona promena kontekst
 2051              		.loc 3 19 5
 2052              		.loc 3 19 46 is_stmt 0
 2053 0a70 97000000 		call	_ZN19ConsumerProducerCPP20testConsumerProducerEv
 2053      E7800000 
 2054              	.LVL239:
  20:src/user/tests/userMain.cpp **** 
  21:src/user/tests/userMain.cpp **** }...
 2055              		.loc 3 21 1
 2056 0a78 83308100 		ld	ra,8(sp)
 2057              		.cfi_restore 1
 2058 0a7c 03340100 		ld	s0,0(sp)
 2059              		.cfi_restore 8
 2060              		.cfi_def_cfa 2, 16
 2061 0a80 13010101 		addi	sp,sp,16
 2062              		.cfi_def_cfa_offset 0
 2063 0a84 67800000 		jr	ra
 2064              		.cfi_endproc
 2065              	.LFE33:
 2067              		.weak	_ZTVN19ConsumerProducerCPP16ProducerKeyboradE
 2068              		.section	.data.rel.ro.local._ZTVN19ConsumerProducerCPP16ProducerKeyboradE,"awG",@progbits,_ZTVN19C
 2069              		.align	3
 2072              	_ZTVN19ConsumerProducerCPP16ProducerKeyboradE:
 2073 0000 00000000 		.dword	0
 2073      00000000 
 2074 0008 00000000 		.dword	0
 2074      00000000 
 2075 0010 00000000 		.dword	_ZN19ConsumerProducerCPP16ProducerKeyboradD1Ev
 2075      00000000 
 2076 0018 00000000 		.dword	_ZN19ConsumerProducerCPP16ProducerKeyboradD0Ev
 2076      00000000 
 2077 0020 00000000 		.dword	_ZN19ConsumerProducerCPP16ProducerKeyborad3runEv
 2077      00000000 
 2078              		.weak	_ZTVN19ConsumerProducerCPP8ProducerE
 2079              		.section	.data.rel.ro.local._ZTVN19ConsumerProducerCPP8ProducerE,"awG",@progbits,_ZTVN19ConsumerPr
 2080              		.align	3
 2083              	_ZTVN19ConsumerProducerCPP8ProducerE:
 2084 0000 00000000 		.dword	0
 2084      00000000 
 2085 0008 00000000 		.dword	0
 2085      00000000 
 2086 0010 00000000 		.dword	_ZN19ConsumerProducerCPP8ProducerD1Ev
 2086      00000000 
 2087 0018 00000000 		.dword	_ZN19ConsumerProducerCPP8ProducerD0Ev
 2087      00000000 
 2088 0020 00000000 		.dword	_ZN19ConsumerProducerCPP8Producer3runEv
 2088      00000000 
 2089              		.weak	_ZTVN19ConsumerProducerCPP8ConsumerE
 2090              		.section	.data.rel.ro.local._ZTVN19ConsumerProducerCPP8ConsumerE,"awG",@progbits,_ZTVN19ConsumerPr
 2091              		.align	3
 2094              	_ZTVN19ConsumerProducerCPP8ConsumerE:
GAS LISTING /tmp/ccx7oCm9.s 			page 51


 2095 0000 00000000 		.dword	0
 2095      00000000 
 2096 0008 00000000 		.dword	0
 2096      00000000 
 2097 0010 00000000 		.dword	_ZN19ConsumerProducerCPP8ConsumerD1Ev
 2097      00000000 
 2098 0018 00000000 		.dword	_ZN19ConsumerProducerCPP8ConsumerD0Ev
 2098      00000000 
 2099 0020 00000000 		.dword	_ZN19ConsumerProducerCPP8Consumer3runEv
 2099      00000000 
 2100              		.globl	_ZN19ConsumerProducerCPP9threadEndE
 2101              		.globl	_ZN19ConsumerProducerCPP10waitForAllE
 2102              		.globl	finishedD
 2103              		.globl	finishedC
 2104              		.globl	finishedB
 2105              		.globl	finishedA
 2106              		.bss
 2107              		.align	3
 2108              		.set	.LANCHOR0,. + 0
 2111              	finishedA:
 2112 0000 00       		.zero	1
 2115              	finishedB:
 2116 0001 00       		.zero	1
 2117 0002 0000     		.zero	2
 2120              	_ZN19ConsumerProducerCPP9threadEndE:
 2121 0004 00000000 		.zero	4
 2124              	finishedC:
 2125 0008 00       		.zero	1
 2128              	finishedD:
 2129 0009 00       		.zero	1
 2130 000a 00000000 		.zero	6
 2130      0000
 2133              	_ZN19ConsumerProducerCPP10waitForAllE:
 2134 0010 00000000 		.zero	8
 2134      00000000 
 2135              		.text
 2136              	.Letext0:
 2137              		.file 4 "src/user/tests/../../../h/../lib/hw.h"
 2138              		.file 5 "src/user/tests/../../../h/../h/_thread.hpp"
 2139              		.file 6 "src/user/tests/../../../h/syscall_cpp.hpp"
 2140              		.file 7 "src/user/tests/buffer_CPP_API.hpp"
 2141              		.file 8 "src/user/tests/../../../h/printing.hpp"
 2142              		.file 9 "src/user/tests/../../../h/syscall_c.h"
 7336              		.align	3
 7339              	DW.ref.__gxx_personality_v0:
 7340 0000 00000000 		.dword	__gxx_personality_v0
 7340      00000000 
 7341              		.ident	"GCC: (Ubuntu 9.4.0-1ubuntu1~20.04) 9.4.0"
 7342              		.section	.note.GNU-stack,"",@progbits
GAS LISTING /tmp/ccx7oCm9.s 			page 52

