GAS LISTING /tmp/ccZychqD.s 			page 1


   1              		.file	"userMain.cpp"
   2              		.option pic
   3              		.option norelax
   4              		.text
   5              	.Ltext0:
   6              		.section	.rodata.str1.8,"aMS",@progbits,1
   7              		.align	3
   8              	.LC0:
   9 0000 413A2069 		.string	"A: i="
   9      3D00
  10 0006 0000     		.align	3
  11              	.LC1:
  12 0008 0A00     		.string	"\n"
  13 000a 00000000 		.align	3
  13      0000
  14              	.LC2:
  15 0010 41206669 		.string	"A finished!\n"
  15      6E697368 
  15      6564210A 
  15      00
  16              		.text
  17              		.align	2
  18              		.globl	_Z11workerBodyAPv
  20              	_Z11workerBodyAPv:
  21              	.LFB13:
  22              		.file 1 "src/user/tests/Threads_C_API_test.hpp"
   1:src/user/tests/Threads_C_API_test.hpp **** #ifndef XV6_THREADS_C_API_TEST_HPP
   2:src/user/tests/Threads_C_API_test.hpp **** #define XV6_THREADS_C_API_TEST_HPP
   3:src/user/tests/Threads_C_API_test.hpp **** 
   4:src/user/tests/Threads_C_API_test.hpp **** #include "../../../h/syscall_c.h"
   5:src/user/tests/Threads_C_API_test.hpp **** 
   6:src/user/tests/Threads_C_API_test.hpp **** #include "../../../h/printing.hpp"
   7:src/user/tests/Threads_C_API_test.hpp **** 
   8:src/user/tests/Threads_C_API_test.hpp **** bool finishedA = false;
   9:src/user/tests/Threads_C_API_test.hpp **** bool finishedB = false;
  10:src/user/tests/Threads_C_API_test.hpp **** bool finishedC = false;
  11:src/user/tests/Threads_C_API_test.hpp **** bool finishedD = false;
  12:src/user/tests/Threads_C_API_test.hpp **** 
  13:src/user/tests/Threads_C_API_test.hpp **** uint64 fibonacci(uint64 n) {
  14:src/user/tests/Threads_C_API_test.hpp ****     if (n == 0 || n == 1) { return n; }
  15:src/user/tests/Threads_C_API_test.hpp ****     if (n % 10 == 0) { thread_dispatch(); }
  16:src/user/tests/Threads_C_API_test.hpp ****     return fibonacci(n - 1) + fibonacci(n - 2);
  17:src/user/tests/Threads_C_API_test.hpp **** }
  18:src/user/tests/Threads_C_API_test.hpp **** 
  19:src/user/tests/Threads_C_API_test.hpp **** void workerBodyA(void* arg) {
  23              		.loc 1 19 29
  24              		.cfi_startproc
  25              	.LVL0:
  26 0000 130101FE 		addi	sp,sp,-32
  27              		.cfi_def_cfa_offset 32
  28 0004 233C1100 		sd	ra,24(sp)
  29 0008 23388100 		sd	s0,16(sp)
  30 000c 23349100 		sd	s1,8(sp)
  31 0010 23302101 		sd	s2,0(sp)
  32              		.cfi_offset 1, -8
  33              		.cfi_offset 8, -16
  34              		.cfi_offset 9, -24
GAS LISTING /tmp/ccZychqD.s 			page 2


  35              		.cfi_offset 18, -32
  36 0014 13040102 		addi	s0,sp,32
  37              		.cfi_def_cfa 8, 0
  20:src/user/tests/Threads_C_API_test.hpp ****     for (uint64 i = 0; i < 10; i++) {
  38              		.loc 1 20 5
  39              	.LVL1:
  40              	.LBB23:
  41              		.loc 1 20 17 is_stmt 0
  42 0018 13090000 		li	s2,0
  43 001c 6F008003 		j	.L7
  44              	.LVL2:
  45              	.L4:
  46              	.LBB24:
  47              	.LBB25:
  48              	.LBB26:
  21:src/user/tests/Threads_C_API_test.hpp ****         printString("A: i="); printInt(i); printString("\n");
  22:src/user/tests/Threads_C_API_test.hpp ****         for (uint64 j = 0; j < 10000; j++) {
  23:src/user/tests/Threads_C_API_test.hpp ****             for (uint64 k = 0; k < 30000; k++) { /* busy wait */ }
  24:src/user/tests/Threads_C_API_test.hpp ****             thread_dispatch();
  49              		.loc 1 24 13 is_stmt 1 discriminator 2
  50              		.loc 1 24 28 is_stmt 0 discriminator 2
  51 0020 97000000 		call	_Z15thread_dispatchv@plt
  51      E7800000 
  52              	.LVL3:
  53              	.LBE26:
  22:src/user/tests/Threads_C_API_test.hpp ****             for (uint64 k = 0; k < 30000; k++) { /* busy wait */ }
  54              		.loc 1 22 9 is_stmt 1 discriminator 2
  55 0028 93841400 		addi	s1,s1,1
  56              	.LVL4:
  57              	.L6:
  22:src/user/tests/Threads_C_API_test.hpp ****             for (uint64 k = 0; k < 30000; k++) { /* busy wait */ }
  58              		.loc 1 22 30 discriminator 1
  59 002c B7270000 		li	a5,8192
  60 0030 9387F770 		addi	a5,a5,1807
  61 0034 63EE9700 		bgtu	s1,a5,.L3
  62              	.LBB28:
  63              	.LBB27:
  23:src/user/tests/Threads_C_API_test.hpp ****             thread_dispatch();
  64              		.loc 1 23 25 is_stmt 0
  65 0038 13070000 		li	a4,0
  66              	.L5:
  67              	.LVL5:
  23:src/user/tests/Threads_C_API_test.hpp ****             thread_dispatch();
  68              		.loc 1 23 34 is_stmt 1 discriminator 3
  69 003c B7770000 		li	a5,28672
  70 0040 9387F752 		addi	a5,a5,1327
  71 0044 E3EEE7FC 		bgtu	a4,a5,.L4
  23:src/user/tests/Threads_C_API_test.hpp ****             thread_dispatch();
  72              		.loc 1 23 13 discriminator 2
  73 0048 13071700 		addi	a4,a4,1
  74              	.LVL6:
  75 004c 6FF01FFF 		j	.L5
  76              	.LVL7:
  77              	.L3:
  78              	.LBE27:
  79              	.LBE28:
  80              	.LBE25:
GAS LISTING /tmp/ccZychqD.s 			page 3


  81              	.LBE24:
  20:src/user/tests/Threads_C_API_test.hpp ****         printString("A: i="); printInt(i); printString("\n");
  82              		.loc 1 20 5 discriminator 2
  83 0050 13091900 		addi	s2,s2,1
  84              	.LVL8:
  85              	.L7:
  20:src/user/tests/Threads_C_API_test.hpp ****         printString("A: i="); printInt(i); printString("\n");
  86              		.loc 1 20 26 discriminator 1
  87 0054 93079000 		li	a5,9
  88 0058 63E02705 		bgtu	s2,a5,.L2
  89              	.LBB30:
  21:src/user/tests/Threads_C_API_test.hpp ****         for (uint64 j = 0; j < 10000; j++) {
  90              		.loc 1 21 9
  21:src/user/tests/Threads_C_API_test.hpp ****         for (uint64 j = 0; j < 10000; j++) {
  91              		.loc 1 21 20 is_stmt 0
  92 005c 17050000 		lla	a0,.LC0
  92      13050500 
  93 0064 97000000 		call	_Z11printStringPKc@plt
  93      E7800000 
  94              	.LVL9:
  21:src/user/tests/Threads_C_API_test.hpp ****         for (uint64 j = 0; j < 10000; j++) {
  95              		.loc 1 21 31 is_stmt 1
  21:src/user/tests/Threads_C_API_test.hpp ****         for (uint64 j = 0; j < 10000; j++) {
  96              		.loc 1 21 39 is_stmt 0
  97 006c 13060000 		li	a2,0
  98 0070 9305A000 		li	a1,10
  99 0074 1B050900 		sext.w	a0,s2
 100 0078 97000000 		call	_Z8printIntiii@plt
 100      E7800000 
 101              	.LVL10:
  21:src/user/tests/Threads_C_API_test.hpp ****         for (uint64 j = 0; j < 10000; j++) {
 102              		.loc 1 21 44 is_stmt 1
  21:src/user/tests/Threads_C_API_test.hpp ****         for (uint64 j = 0; j < 10000; j++) {
 103              		.loc 1 21 55 is_stmt 0
 104 0080 17050000 		lla	a0,.LC1
 104      13050500 
 105 0088 97000000 		call	_Z11printStringPKc@plt
 105      E7800000 
 106              	.LVL11:
  22:src/user/tests/Threads_C_API_test.hpp ****             for (uint64 k = 0; k < 30000; k++) { /* busy wait */ }
 107              		.loc 1 22 9 is_stmt 1
 108              	.LBB29:
  22:src/user/tests/Threads_C_API_test.hpp ****             for (uint64 k = 0; k < 30000; k++) { /* busy wait */ }
 109              		.loc 1 22 21 is_stmt 0
 110 0090 93040000 		li	s1,0
 111 0094 6FF09FF9 		j	.L6
 112              	.LVL12:
 113              	.L2:
 114              	.LBE29:
 115              	.LBE30:
 116              	.LBE23:
  25:src/user/tests/Threads_C_API_test.hpp ****         }
  26:src/user/tests/Threads_C_API_test.hpp ****     }
  27:src/user/tests/Threads_C_API_test.hpp ****     printString("A finished!\n");
 117              		.loc 1 27 5 is_stmt 1
 118              		.loc 1 27 16 is_stmt 0
 119 0098 17050000 		lla	a0,.LC2
GAS LISTING /tmp/ccZychqD.s 			page 4


 119      13050500 
 120 00a0 97000000 		call	_Z11printStringPKc@plt
 120      E7800000 
 121              	.LVL13:
  28:src/user/tests/Threads_C_API_test.hpp ****     finishedA = true;
 122              		.loc 1 28 5 is_stmt 1
 123              		.loc 1 28 15 is_stmt 0
 124 00a8 93071000 		li	a5,1
 125 00ac 17070000 		sb	a5,.LANCHOR0,a4
 125      2300F700 
  29:src/user/tests/Threads_C_API_test.hpp **** }
 126              		.loc 1 29 1
 127 00b4 83308101 		ld	ra,24(sp)
 128              		.cfi_restore 1
 129 00b8 03340101 		ld	s0,16(sp)
 130              		.cfi_restore 8
 131              		.cfi_def_cfa 2, 32
 132 00bc 83348100 		ld	s1,8(sp)
 133              		.cfi_restore 9
 134 00c0 03390100 		ld	s2,0(sp)
 135              		.cfi_restore 18
 136              	.LVL14:
 137 00c4 13010102 		addi	sp,sp,32
 138              		.cfi_def_cfa_offset 0
 139 00c8 67800000 		jr	ra
 140              		.cfi_endproc
 141              	.LFE13:
 143              		.section	.rodata.str1.8
 144 001d 000000   		.align	3
 145              	.LC3:
 146 0020 423A2069 		.string	"B: i="
 146      3D00
 147 0026 0000     		.align	3
 148              	.LC4:
 149 0028 42206669 		.string	"B finished!\n"
 149      6E697368 
 149      6564210A 
 149      00
 150              		.text
 151              		.align	2
 152              		.globl	_Z11workerBodyBPv
 154              	_Z11workerBodyBPv:
 155              	.LFB14:
  30:src/user/tests/Threads_C_API_test.hpp **** 
  31:src/user/tests/Threads_C_API_test.hpp **** void workerBodyB(void* arg) {
 156              		.loc 1 31 29 is_stmt 1
 157              		.cfi_startproc
 158              	.LVL15:
 159 00cc 130101FE 		addi	sp,sp,-32
 160              		.cfi_def_cfa_offset 32
 161 00d0 233C1100 		sd	ra,24(sp)
 162 00d4 23388100 		sd	s0,16(sp)
 163 00d8 23349100 		sd	s1,8(sp)
 164 00dc 23302101 		sd	s2,0(sp)
 165              		.cfi_offset 1, -8
 166              		.cfi_offset 8, -16
 167              		.cfi_offset 9, -24
GAS LISTING /tmp/ccZychqD.s 			page 5


 168              		.cfi_offset 18, -32
 169 00e0 13040102 		addi	s0,sp,32
 170              		.cfi_def_cfa 8, 0
  32:src/user/tests/Threads_C_API_test.hpp ****     for (uint64 i = 0; i < 16; i++) {
 171              		.loc 1 32 5
 172              	.LVL16:
 173              	.LBB31:
 174              		.loc 1 32 17 is_stmt 0
 175 00e4 13090000 		li	s2,0
 176 00e8 6F008003 		j	.L15
 177              	.LVL17:
 178              	.L12:
 179              	.LBB32:
 180              	.LBB33:
 181              	.LBB34:
  33:src/user/tests/Threads_C_API_test.hpp ****         printString("B: i="); printInt(i); printString("\n");
  34:src/user/tests/Threads_C_API_test.hpp ****         for (uint64 j = 0; j < 10000; j++) {
  35:src/user/tests/Threads_C_API_test.hpp ****             for (uint64 k = 0; k < 30000; k++) { /* busy wait */ }
  36:src/user/tests/Threads_C_API_test.hpp ****             thread_dispatch();
 182              		.loc 1 36 13 is_stmt 1 discriminator 2
 183              		.loc 1 36 28 is_stmt 0 discriminator 2
 184 00ec 97000000 		call	_Z15thread_dispatchv@plt
 184      E7800000 
 185              	.LVL18:
 186              	.LBE34:
  34:src/user/tests/Threads_C_API_test.hpp ****             for (uint64 k = 0; k < 30000; k++) { /* busy wait */ }
 187              		.loc 1 34 9 is_stmt 1 discriminator 2
 188 00f4 93841400 		addi	s1,s1,1
 189              	.LVL19:
 190              	.L14:
  34:src/user/tests/Threads_C_API_test.hpp ****             for (uint64 k = 0; k < 30000; k++) { /* busy wait */ }
 191              		.loc 1 34 30 discriminator 1
 192 00f8 B7270000 		li	a5,8192
 193 00fc 9387F770 		addi	a5,a5,1807
 194 0100 63EE9700 		bgtu	s1,a5,.L11
 195              	.LBB36:
 196              	.LBB35:
  35:src/user/tests/Threads_C_API_test.hpp ****             thread_dispatch();
 197              		.loc 1 35 25 is_stmt 0
 198 0104 13070000 		li	a4,0
 199              	.L13:
 200              	.LVL20:
  35:src/user/tests/Threads_C_API_test.hpp ****             thread_dispatch();
 201              		.loc 1 35 34 is_stmt 1 discriminator 3
 202 0108 B7770000 		li	a5,28672
 203 010c 9387F752 		addi	a5,a5,1327
 204 0110 E3EEE7FC 		bgtu	a4,a5,.L12
  35:src/user/tests/Threads_C_API_test.hpp ****             thread_dispatch();
 205              		.loc 1 35 13 discriminator 2
 206 0114 13071700 		addi	a4,a4,1
 207              	.LVL21:
 208 0118 6FF01FFF 		j	.L13
 209              	.LVL22:
 210              	.L11:
 211              	.LBE35:
 212              	.LBE36:
 213              	.LBE33:
GAS LISTING /tmp/ccZychqD.s 			page 6


 214              	.LBE32:
  32:src/user/tests/Threads_C_API_test.hpp ****         printString("B: i="); printInt(i); printString("\n");
 215              		.loc 1 32 5 discriminator 2
 216 011c 13091900 		addi	s2,s2,1
 217              	.LVL23:
 218              	.L15:
  32:src/user/tests/Threads_C_API_test.hpp ****         printString("B: i="); printInt(i); printString("\n");
 219              		.loc 1 32 26 discriminator 1
 220 0120 9307F000 		li	a5,15
 221 0124 63E02705 		bgtu	s2,a5,.L10
 222              	.LBB38:
  33:src/user/tests/Threads_C_API_test.hpp ****         for (uint64 j = 0; j < 10000; j++) {
 223              		.loc 1 33 9
  33:src/user/tests/Threads_C_API_test.hpp ****         for (uint64 j = 0; j < 10000; j++) {
 224              		.loc 1 33 20 is_stmt 0
 225 0128 17050000 		lla	a0,.LC3
 225      13050500 
 226 0130 97000000 		call	_Z11printStringPKc@plt
 226      E7800000 
 227              	.LVL24:
  33:src/user/tests/Threads_C_API_test.hpp ****         for (uint64 j = 0; j < 10000; j++) {
 228              		.loc 1 33 31 is_stmt 1
  33:src/user/tests/Threads_C_API_test.hpp ****         for (uint64 j = 0; j < 10000; j++) {
 229              		.loc 1 33 39 is_stmt 0
 230 0138 13060000 		li	a2,0
 231 013c 9305A000 		li	a1,10
 232 0140 1B050900 		sext.w	a0,s2
 233 0144 97000000 		call	_Z8printIntiii@plt
 233      E7800000 
 234              	.LVL25:
  33:src/user/tests/Threads_C_API_test.hpp ****         for (uint64 j = 0; j < 10000; j++) {
 235              		.loc 1 33 44 is_stmt 1
  33:src/user/tests/Threads_C_API_test.hpp ****         for (uint64 j = 0; j < 10000; j++) {
 236              		.loc 1 33 55 is_stmt 0
 237 014c 17050000 		lla	a0,.LC1
 237      13050500 
 238 0154 97000000 		call	_Z11printStringPKc@plt
 238      E7800000 
 239              	.LVL26:
  34:src/user/tests/Threads_C_API_test.hpp ****             for (uint64 k = 0; k < 30000; k++) { /* busy wait */ }
 240              		.loc 1 34 9 is_stmt 1
 241              	.LBB37:
  34:src/user/tests/Threads_C_API_test.hpp ****             for (uint64 k = 0; k < 30000; k++) { /* busy wait */ }
 242              		.loc 1 34 21 is_stmt 0
 243 015c 93040000 		li	s1,0
 244 0160 6FF09FF9 		j	.L14
 245              	.LVL27:
 246              	.L10:
 247              	.LBE37:
 248              	.LBE38:
 249              	.LBE31:
  37:src/user/tests/Threads_C_API_test.hpp ****         }
  38:src/user/tests/Threads_C_API_test.hpp ****     }
  39:src/user/tests/Threads_C_API_test.hpp ****     printString("B finished!\n");
 250              		.loc 1 39 5 is_stmt 1
 251              		.loc 1 39 16 is_stmt 0
 252 0164 17050000 		lla	a0,.LC4
GAS LISTING /tmp/ccZychqD.s 			page 7


 252      13050500 
 253 016c 97000000 		call	_Z11printStringPKc@plt
 253      E7800000 
 254              	.LVL28:
  40:src/user/tests/Threads_C_API_test.hpp ****     finishedB = true;
 255              		.loc 1 40 5 is_stmt 1
 256              		.loc 1 40 15 is_stmt 0
 257 0174 93071000 		li	a5,1
 258 0178 17070000 		sb	a5,.LANCHOR0+1,a4
 258      2300F700 
  41:src/user/tests/Threads_C_API_test.hpp ****     thread_dispatch();
 259              		.loc 1 41 5 is_stmt 1
 260              		.loc 1 41 20 is_stmt 0
 261 0180 97000000 		call	_Z15thread_dispatchv@plt
 261      E7800000 
 262              	.LVL29:
  42:src/user/tests/Threads_C_API_test.hpp **** }
 263              		.loc 1 42 1
 264 0188 83308101 		ld	ra,24(sp)
 265              		.cfi_restore 1
 266 018c 03340101 		ld	s0,16(sp)
 267              		.cfi_restore 8
 268              		.cfi_def_cfa 2, 32
 269 0190 83348100 		ld	s1,8(sp)
 270              		.cfi_restore 9
 271 0194 03390100 		ld	s2,0(sp)
 272              		.cfi_restore 18
 273              	.LVL30:
 274 0198 13010102 		addi	sp,sp,32
 275              		.cfi_def_cfa_offset 0
 276 019c 67800000 		jr	ra
 277              		.cfi_endproc
 278              	.LFE14:
 280              		.section	.text._ZN8ConsumerD2Ev,"axG",@progbits,_ZN8ConsumerD5Ev,comdat
 281              		.align	2
 282              		.weak	_ZN8ConsumerD2Ev
 284              	_ZN8ConsumerD2Ev:
 285              	.LFB40:
 286              		.file 2 "src/user/tests/ConsumerProducer_CPP_Sync_API_test.hpp"
   1:src/user/tests/ConsumerProducer_CPP_Sync_API_test.hpp **** //
   2:src/user/tests/ConsumerProducer_CPP_Sync_API_test.hpp **** // Created by os on 4/17/22.
   3:src/user/tests/ConsumerProducer_CPP_Sync_API_test.hpp **** //
   4:src/user/tests/ConsumerProducer_CPP_Sync_API_test.hpp **** 
   5:src/user/tests/ConsumerProducer_CPP_Sync_API_test.hpp **** #ifndef XV6_CONSUMERPRODUCER_CPP_Sync_API_TEST_H
   6:src/user/tests/ConsumerProducer_CPP_Sync_API_test.hpp **** #define XV6_CONSUMERPRODUCER_CPP_Sync_API_TEST_H
   7:src/user/tests/ConsumerProducer_CPP_Sync_API_test.hpp **** 
   8:src/user/tests/ConsumerProducer_CPP_Sync_API_test.hpp **** #include "../../../h/syscall_cpp.hpp"
   9:src/user/tests/ConsumerProducer_CPP_Sync_API_test.hpp **** 
  10:src/user/tests/ConsumerProducer_CPP_Sync_API_test.hpp **** #include "buffer_CPP_API.hpp"
  11:src/user/tests/ConsumerProducer_CPP_Sync_API_test.hpp **** 
  12:src/user/tests/ConsumerProducer_CPP_Sync_API_test.hpp **** Semaphore* waitForAll;
  13:src/user/tests/ConsumerProducer_CPP_Sync_API_test.hpp **** 
  14:src/user/tests/ConsumerProducer_CPP_Sync_API_test.hpp **** struct thread_data {
  15:src/user/tests/ConsumerProducer_CPP_Sync_API_test.hpp ****     int id;
  16:src/user/tests/ConsumerProducer_CPP_Sync_API_test.hpp ****     BufferCPP *buffer;
  17:src/user/tests/ConsumerProducer_CPP_Sync_API_test.hpp ****     Semaphore* wait;
  18:src/user/tests/ConsumerProducer_CPP_Sync_API_test.hpp **** };
GAS LISTING /tmp/ccZychqD.s 			page 8


  19:src/user/tests/ConsumerProducer_CPP_Sync_API_test.hpp **** 
  20:src/user/tests/ConsumerProducer_CPP_Sync_API_test.hpp **** volatile int threadEnd = 0;
  21:src/user/tests/ConsumerProducer_CPP_Sync_API_test.hpp **** 
  22:src/user/tests/ConsumerProducer_CPP_Sync_API_test.hpp **** class ProducerKeyboard:public Thread {
  23:src/user/tests/ConsumerProducer_CPP_Sync_API_test.hpp ****     thread_data* td;
  24:src/user/tests/ConsumerProducer_CPP_Sync_API_test.hpp ****     void producerKeyboard(void *arg);
  25:src/user/tests/ConsumerProducer_CPP_Sync_API_test.hpp **** public:
  26:src/user/tests/ConsumerProducer_CPP_Sync_API_test.hpp ****     ProducerKeyboard(thread_data* _td):Thread(), td(_td) {}
  27:src/user/tests/ConsumerProducer_CPP_Sync_API_test.hpp **** 
  28:src/user/tests/ConsumerProducer_CPP_Sync_API_test.hpp ****     void run() override {
  29:src/user/tests/ConsumerProducer_CPP_Sync_API_test.hpp ****         producerKeyboard(td);
  30:src/user/tests/ConsumerProducer_CPP_Sync_API_test.hpp ****     }
  31:src/user/tests/ConsumerProducer_CPP_Sync_API_test.hpp **** };
  32:src/user/tests/ConsumerProducer_CPP_Sync_API_test.hpp **** 
  33:src/user/tests/ConsumerProducer_CPP_Sync_API_test.hpp **** void ProducerKeyboard::producerKeyboard(void *arg) {
  34:src/user/tests/ConsumerProducer_CPP_Sync_API_test.hpp ****     struct thread_data *data = (struct thread_data *) arg;
  35:src/user/tests/ConsumerProducer_CPP_Sync_API_test.hpp **** 
  36:src/user/tests/ConsumerProducer_CPP_Sync_API_test.hpp ****     int key;
  37:src/user/tests/ConsumerProducer_CPP_Sync_API_test.hpp ****     int i = 0;
  38:src/user/tests/ConsumerProducer_CPP_Sync_API_test.hpp ****     while ((key = getc()) != 0x1b) {
  39:src/user/tests/ConsumerProducer_CPP_Sync_API_test.hpp ****         data->buffer->put(key);
  40:src/user/tests/ConsumerProducer_CPP_Sync_API_test.hpp ****         i++;
  41:src/user/tests/ConsumerProducer_CPP_Sync_API_test.hpp **** 
  42:src/user/tests/ConsumerProducer_CPP_Sync_API_test.hpp ****         if (i % (10 * data->id) == 0) {
  43:src/user/tests/ConsumerProducer_CPP_Sync_API_test.hpp ****             Thread::dispatch();
  44:src/user/tests/ConsumerProducer_CPP_Sync_API_test.hpp ****         }
  45:src/user/tests/ConsumerProducer_CPP_Sync_API_test.hpp ****     }
  46:src/user/tests/ConsumerProducer_CPP_Sync_API_test.hpp **** 
  47:src/user/tests/ConsumerProducer_CPP_Sync_API_test.hpp ****     threadEnd = 1;
  48:src/user/tests/ConsumerProducer_CPP_Sync_API_test.hpp ****     td->buffer->put('!');
  49:src/user/tests/ConsumerProducer_CPP_Sync_API_test.hpp **** 
  50:src/user/tests/ConsumerProducer_CPP_Sync_API_test.hpp ****     data->wait->signal();
  51:src/user/tests/ConsumerProducer_CPP_Sync_API_test.hpp **** }
  52:src/user/tests/ConsumerProducer_CPP_Sync_API_test.hpp **** 
  53:src/user/tests/ConsumerProducer_CPP_Sync_API_test.hpp **** class Producer:public Thread {
  54:src/user/tests/ConsumerProducer_CPP_Sync_API_test.hpp ****     thread_data* td;
  55:src/user/tests/ConsumerProducer_CPP_Sync_API_test.hpp ****     void producer(void *arg);
  56:src/user/tests/ConsumerProducer_CPP_Sync_API_test.hpp **** public:
  57:src/user/tests/ConsumerProducer_CPP_Sync_API_test.hpp ****     Producer(thread_data* _td):Thread(), td(_td) {}
  58:src/user/tests/ConsumerProducer_CPP_Sync_API_test.hpp **** 
  59:src/user/tests/ConsumerProducer_CPP_Sync_API_test.hpp ****     void run() override {
  60:src/user/tests/ConsumerProducer_CPP_Sync_API_test.hpp ****         producer(td);
  61:src/user/tests/ConsumerProducer_CPP_Sync_API_test.hpp ****     }
  62:src/user/tests/ConsumerProducer_CPP_Sync_API_test.hpp **** };
  63:src/user/tests/ConsumerProducer_CPP_Sync_API_test.hpp **** 
  64:src/user/tests/ConsumerProducer_CPP_Sync_API_test.hpp **** void Producer::producer(void *arg) {
  65:src/user/tests/ConsumerProducer_CPP_Sync_API_test.hpp ****     struct thread_data *data = (struct thread_data *) arg;
  66:src/user/tests/ConsumerProducer_CPP_Sync_API_test.hpp **** 
  67:src/user/tests/ConsumerProducer_CPP_Sync_API_test.hpp ****     int i = 0;
  68:src/user/tests/ConsumerProducer_CPP_Sync_API_test.hpp ****     while (!threadEnd) {
  69:src/user/tests/ConsumerProducer_CPP_Sync_API_test.hpp ****         data->buffer->put(data->id + '0');
  70:src/user/tests/ConsumerProducer_CPP_Sync_API_test.hpp ****         i++;
  71:src/user/tests/ConsumerProducer_CPP_Sync_API_test.hpp **** 
  72:src/user/tests/ConsumerProducer_CPP_Sync_API_test.hpp ****         if (i % (10 * data->id) == 0) {
  73:src/user/tests/ConsumerProducer_CPP_Sync_API_test.hpp ****             Thread::dispatch();
  74:src/user/tests/ConsumerProducer_CPP_Sync_API_test.hpp ****         }
  75:src/user/tests/ConsumerProducer_CPP_Sync_API_test.hpp ****     }
GAS LISTING /tmp/ccZychqD.s 			page 9


  76:src/user/tests/ConsumerProducer_CPP_Sync_API_test.hpp **** 
  77:src/user/tests/ConsumerProducer_CPP_Sync_API_test.hpp ****     data->wait->signal();
  78:src/user/tests/ConsumerProducer_CPP_Sync_API_test.hpp **** }
  79:src/user/tests/ConsumerProducer_CPP_Sync_API_test.hpp **** 
  80:src/user/tests/ConsumerProducer_CPP_Sync_API_test.hpp **** class Consumer:public Thread {
 287              		.loc 2 80 7 is_stmt 1
 288              		.cfi_startproc
 289              	.LVL31:
 290 0000 130101FF 		addi	sp,sp,-16
 291              		.cfi_def_cfa_offset 16
 292 0004 23341100 		sd	ra,8(sp)
 293 0008 23308100 		sd	s0,0(sp)
 294              		.cfi_offset 1, -8
 295              		.cfi_offset 8, -16
 296 000c 13040101 		addi	s0,sp,16
 297              		.cfi_def_cfa 8, 0
 298              	.LBB39:
 299              		.loc 2 80 7 is_stmt 0
 300 0010 97070000 		lla	a5,_ZTV8Consumer+16
 300      93870700 
 301 0018 2330F500 		sd	a5,0(a0)
 302 001c 97000000 		call	_ZN6ThreadD2Ev@plt
 302      E7800000 
 303              	.LVL32:
 304              	.LBE39:
 305 0024 83308100 		ld	ra,8(sp)
 306              		.cfi_restore 1
 307 0028 03340100 		ld	s0,0(sp)
 308              		.cfi_restore 8
 309              		.cfi_def_cfa 2, 16
 310 002c 13010101 		addi	sp,sp,16
 311              		.cfi_def_cfa_offset 0
 312 0030 67800000 		jr	ra
 313              		.cfi_endproc
 314              	.LFE40:
 316              		.weak	_ZN8ConsumerD1Ev
 317              		.set	_ZN8ConsumerD1Ev,_ZN8ConsumerD2Ev
 318              		.section	.text._ZN8ConsumerD0Ev,"axG",@progbits,_ZN8ConsumerD5Ev,comdat
 319              		.align	2
 320              		.weak	_ZN8ConsumerD0Ev
 322              	_ZN8ConsumerD0Ev:
 323              	.LFB42:
 324              		.loc 2 80 7 is_stmt 1
 325              		.cfi_startproc
 326              	.LVL33:
 327 0000 130101FE 		addi	sp,sp,-32
 328              		.cfi_def_cfa_offset 32
 329 0004 233C1100 		sd	ra,24(sp)
 330 0008 23388100 		sd	s0,16(sp)
 331 000c 23349100 		sd	s1,8(sp)
 332              		.cfi_offset 1, -8
 333              		.cfi_offset 8, -16
 334              		.cfi_offset 9, -24
 335 0010 13040102 		addi	s0,sp,32
 336              		.cfi_def_cfa 8, 0
 337 0014 93040500 		mv	s1,a0
 338              	.LVL34:
GAS LISTING /tmp/ccZychqD.s 			page 10


 339              	.LBB40:
 340              	.LBB41:
 341              		.loc 2 80 7 is_stmt 0
 342 0018 97070000 		lla	a5,_ZTV8Consumer+16
 342      93870700 
 343 0020 2330F500 		sd	a5,0(a0)
 344 0024 97000000 		call	_ZN6ThreadD2Ev@plt
 344      E7800000 
 345              	.LVL35:
 346              	.LBE41:
 347              	.LBE40:
 348 002c 13850400 		mv	a0,s1
 349 0030 97000000 		call	_ZdlPv@plt
 349      E7800000 
 350              	.LVL36:
 351 0038 83308101 		ld	ra,24(sp)
 352              		.cfi_restore 1
 353 003c 03340101 		ld	s0,16(sp)
 354              		.cfi_restore 8
 355              		.cfi_def_cfa 2, 32
 356 0040 83348100 		ld	s1,8(sp)
 357              		.cfi_restore 9
 358              	.LVL37:
 359 0044 13010102 		addi	sp,sp,32
 360              		.cfi_def_cfa_offset 0
 361 0048 67800000 		jr	ra
 362              		.cfi_endproc
 363              	.LFE42:
 365              		.section	.text._ZN8ProducerD2Ev,"axG",@progbits,_ZN8ProducerD5Ev,comdat
 366              		.align	2
 367              		.weak	_ZN8ProducerD2Ev
 369              	_ZN8ProducerD2Ev:
 370              	.LFB44:
  53:src/user/tests/ConsumerProducer_CPP_Sync_API_test.hpp ****     thread_data* td;
 371              		.loc 2 53 7 is_stmt 1
 372              		.cfi_startproc
 373              	.LVL38:
 374 0000 130101FF 		addi	sp,sp,-16
 375              		.cfi_def_cfa_offset 16
 376 0004 23341100 		sd	ra,8(sp)
 377 0008 23308100 		sd	s0,0(sp)
 378              		.cfi_offset 1, -8
 379              		.cfi_offset 8, -16
 380 000c 13040101 		addi	s0,sp,16
 381              		.cfi_def_cfa 8, 0
 382              	.LBB42:
  53:src/user/tests/ConsumerProducer_CPP_Sync_API_test.hpp ****     thread_data* td;
 383              		.loc 2 53 7 is_stmt 0
 384 0010 97070000 		lla	a5,_ZTV8Producer+16
 384      93870700 
 385 0018 2330F500 		sd	a5,0(a0)
 386 001c 97000000 		call	_ZN6ThreadD2Ev@plt
 386      E7800000 
 387              	.LVL39:
 388              	.LBE42:
 389 0024 83308100 		ld	ra,8(sp)
 390              		.cfi_restore 1
GAS LISTING /tmp/ccZychqD.s 			page 11


 391 0028 03340100 		ld	s0,0(sp)
 392              		.cfi_restore 8
 393              		.cfi_def_cfa 2, 16
 394 002c 13010101 		addi	sp,sp,16
 395              		.cfi_def_cfa_offset 0
 396 0030 67800000 		jr	ra
 397              		.cfi_endproc
 398              	.LFE44:
 400              		.weak	_ZN8ProducerD1Ev
 401              		.set	_ZN8ProducerD1Ev,_ZN8ProducerD2Ev
 402              		.section	.text._ZN8ProducerD0Ev,"axG",@progbits,_ZN8ProducerD5Ev,comdat
 403              		.align	2
 404              		.weak	_ZN8ProducerD0Ev
 406              	_ZN8ProducerD0Ev:
 407              	.LFB46:
  53:src/user/tests/ConsumerProducer_CPP_Sync_API_test.hpp ****     thread_data* td;
 408              		.loc 2 53 7 is_stmt 1
 409              		.cfi_startproc
 410              	.LVL40:
 411 0000 130101FE 		addi	sp,sp,-32
 412              		.cfi_def_cfa_offset 32
 413 0004 233C1100 		sd	ra,24(sp)
 414 0008 23388100 		sd	s0,16(sp)
 415 000c 23349100 		sd	s1,8(sp)
 416              		.cfi_offset 1, -8
 417              		.cfi_offset 8, -16
 418              		.cfi_offset 9, -24
 419 0010 13040102 		addi	s0,sp,32
 420              		.cfi_def_cfa 8, 0
 421 0014 93040500 		mv	s1,a0
 422              	.LVL41:
 423              	.LBB43:
 424              	.LBB44:
  53:src/user/tests/ConsumerProducer_CPP_Sync_API_test.hpp ****     thread_data* td;
 425              		.loc 2 53 7 is_stmt 0
 426 0018 97070000 		lla	a5,_ZTV8Producer+16
 426      93870700 
 427 0020 2330F500 		sd	a5,0(a0)
 428 0024 97000000 		call	_ZN6ThreadD2Ev@plt
 428      E7800000 
 429              	.LVL42:
 430              	.LBE44:
 431              	.LBE43:
 432 002c 13850400 		mv	a0,s1
 433 0030 97000000 		call	_ZdlPv@plt
 433      E7800000 
 434              	.LVL43:
 435 0038 83308101 		ld	ra,24(sp)
 436              		.cfi_restore 1
 437 003c 03340101 		ld	s0,16(sp)
 438              		.cfi_restore 8
 439              		.cfi_def_cfa 2, 32
 440 0040 83348100 		ld	s1,8(sp)
 441              		.cfi_restore 9
 442              	.LVL44:
 443 0044 13010102 		addi	sp,sp,32
 444              		.cfi_def_cfa_offset 0
GAS LISTING /tmp/ccZychqD.s 			page 12


 445 0048 67800000 		jr	ra
 446              		.cfi_endproc
 447              	.LFE46:
 449              		.section	.text._ZN16ProducerKeyboardD2Ev,"axG",@progbits,_ZN16ProducerKeyboardD5Ev,comdat
 450              		.align	2
 451              		.weak	_ZN16ProducerKeyboardD2Ev
 453              	_ZN16ProducerKeyboardD2Ev:
 454              	.LFB48:
  22:src/user/tests/ConsumerProducer_CPP_Sync_API_test.hpp ****     thread_data* td;
 455              		.loc 2 22 7 is_stmt 1
 456              		.cfi_startproc
 457              	.LVL45:
 458 0000 130101FF 		addi	sp,sp,-16
 459              		.cfi_def_cfa_offset 16
 460 0004 23341100 		sd	ra,8(sp)
 461 0008 23308100 		sd	s0,0(sp)
 462              		.cfi_offset 1, -8
 463              		.cfi_offset 8, -16
 464 000c 13040101 		addi	s0,sp,16
 465              		.cfi_def_cfa 8, 0
 466              	.LBB45:
  22:src/user/tests/ConsumerProducer_CPP_Sync_API_test.hpp ****     thread_data* td;
 467              		.loc 2 22 7 is_stmt 0
 468 0010 97070000 		lla	a5,_ZTV16ProducerKeyboard+16
 468      93870700 
 469 0018 2330F500 		sd	a5,0(a0)
 470 001c 97000000 		call	_ZN6ThreadD2Ev@plt
 470      E7800000 
 471              	.LVL46:
 472              	.LBE45:
 473 0024 83308100 		ld	ra,8(sp)
 474              		.cfi_restore 1
 475 0028 03340100 		ld	s0,0(sp)
 476              		.cfi_restore 8
 477              		.cfi_def_cfa 2, 16
 478 002c 13010101 		addi	sp,sp,16
 479              		.cfi_def_cfa_offset 0
 480 0030 67800000 		jr	ra
 481              		.cfi_endproc
 482              	.LFE48:
 484              		.weak	_ZN16ProducerKeyboardD1Ev
 485              		.set	_ZN16ProducerKeyboardD1Ev,_ZN16ProducerKeyboardD2Ev
 486              		.section	.text._ZN16ProducerKeyboardD0Ev,"axG",@progbits,_ZN16ProducerKeyboardD5Ev,comdat
 487              		.align	2
 488              		.weak	_ZN16ProducerKeyboardD0Ev
 490              	_ZN16ProducerKeyboardD0Ev:
 491              	.LFB50:
  22:src/user/tests/ConsumerProducer_CPP_Sync_API_test.hpp ****     thread_data* td;
 492              		.loc 2 22 7 is_stmt 1
 493              		.cfi_startproc
 494              	.LVL47:
 495 0000 130101FE 		addi	sp,sp,-32
 496              		.cfi_def_cfa_offset 32
 497 0004 233C1100 		sd	ra,24(sp)
 498 0008 23388100 		sd	s0,16(sp)
 499 000c 23349100 		sd	s1,8(sp)
 500              		.cfi_offset 1, -8
GAS LISTING /tmp/ccZychqD.s 			page 13


 501              		.cfi_offset 8, -16
 502              		.cfi_offset 9, -24
 503 0010 13040102 		addi	s0,sp,32
 504              		.cfi_def_cfa 8, 0
 505 0014 93040500 		mv	s1,a0
 506              	.LVL48:
 507              	.LBB46:
 508              	.LBB47:
  22:src/user/tests/ConsumerProducer_CPP_Sync_API_test.hpp ****     thread_data* td;
 509              		.loc 2 22 7 is_stmt 0
 510 0018 97070000 		lla	a5,_ZTV16ProducerKeyboard+16
 510      93870700 
 511 0020 2330F500 		sd	a5,0(a0)
 512 0024 97000000 		call	_ZN6ThreadD2Ev@plt
 512      E7800000 
 513              	.LVL49:
 514              	.LBE47:
 515              	.LBE46:
 516 002c 13850400 		mv	a0,s1
 517 0030 97000000 		call	_ZdlPv@plt
 517      E7800000 
 518              	.LVL50:
 519 0038 83308101 		ld	ra,24(sp)
 520              		.cfi_restore 1
 521 003c 03340101 		ld	s0,16(sp)
 522              		.cfi_restore 8
 523              		.cfi_def_cfa 2, 32
 524 0040 83348100 		ld	s1,8(sp)
 525              		.cfi_restore 9
 526              	.LVL51:
 527 0044 13010102 		addi	sp,sp,32
 528              		.cfi_def_cfa_offset 0
 529 0048 67800000 		jr	ra
 530              		.cfi_endproc
 531              	.LFE50:
 533              		.section	.rodata.str1.8
 534 0035 000000   		.align	3
 535              	.LC5:
 536 0038 48656C6C 		.string	"Hello "
 536      6F2000
 537 003f 00       		.align	3
 538              	.LC6:
 539 0040 20210A00 		.string	" !\n"
 540              		.text
 541              		.align	2
 542              		.globl	_Z9sleepyRunPv
 544              	_Z9sleepyRunPv:
 545              	.LFB36:
 546              		.file 3 "src/user/tests/ThreadSleep_C_API_test.hpp"
   1:src/user/tests/ThreadSleep_C_API_test.hpp **** //
   2:src/user/tests/ThreadSleep_C_API_test.hpp **** // Created by os on 4/17/22.
   3:src/user/tests/ThreadSleep_C_API_test.hpp **** //
   4:src/user/tests/ThreadSleep_C_API_test.hpp **** 
   5:src/user/tests/ThreadSleep_C_API_test.hpp **** #ifndef XV6_THREADSLEEP_C_API_TEST_HPP
   6:src/user/tests/ThreadSleep_C_API_test.hpp **** #define XV6_THREADSLEEP_C_API_TEST_HPP
   7:src/user/tests/ThreadSleep_C_API_test.hpp **** 
   8:src/user/tests/ThreadSleep_C_API_test.hpp **** #include "../../../h/syscall_c.h"
GAS LISTING /tmp/ccZychqD.s 			page 14


   9:src/user/tests/ThreadSleep_C_API_test.hpp **** 
  10:src/user/tests/ThreadSleep_C_API_test.hpp **** #include "../../../h/printing.hpp"
  11:src/user/tests/ThreadSleep_C_API_test.hpp **** 
  12:src/user/tests/ThreadSleep_C_API_test.hpp **** bool finished[2];
  13:src/user/tests/ThreadSleep_C_API_test.hpp **** 
  14:src/user/tests/ThreadSleep_C_API_test.hpp **** void sleepyRun(void *arg) {
 547              		.loc 3 14 27 is_stmt 1
 548              		.cfi_startproc
 549              	.LVL52:
 550 01a0 130101FE 		addi	sp,sp,-32
 551              		.cfi_def_cfa_offset 32
 552 01a4 233C1100 		sd	ra,24(sp)
 553 01a8 23388100 		sd	s0,16(sp)
 554 01ac 23349100 		sd	s1,8(sp)
 555 01b0 23302101 		sd	s2,0(sp)
 556              		.cfi_offset 1, -8
 557              		.cfi_offset 8, -16
 558              		.cfi_offset 9, -24
 559              		.cfi_offset 18, -32
 560 01b4 13040102 		addi	s0,sp,32
 561              		.cfi_def_cfa 8, 0
  15:src/user/tests/ThreadSleep_C_API_test.hpp ****     time_t sleep_time = *((time_t *) arg);
 562              		.loc 3 15 5
 563              		.loc 3 15 12 is_stmt 0
 564 01b8 03390500 		ld	s2,0(a0)
 565              	.LVL53:
  16:src/user/tests/ThreadSleep_C_API_test.hpp ****     int i = 6;
 566              		.loc 3 16 5 is_stmt 1
 567              		.loc 3 16 9 is_stmt 0
 568 01bc 93046000 		li	s1,6
 569              	.LVL54:
 570              	.L31:
  17:src/user/tests/ThreadSleep_C_API_test.hpp ****     while (--i > 0) {
 571              		.loc 3 17 5 is_stmt 1
 572              		.loc 3 17 16
 573 01c0 9B84F4FF 		addiw	s1,s1,-1
 574              	.LVL55:
 575 01c4 63549004 		blez	s1,.L30
  18:src/user/tests/ThreadSleep_C_API_test.hpp **** 
  19:src/user/tests/ThreadSleep_C_API_test.hpp ****         printString("Hello ");
 576              		.loc 3 19 9
 577              		.loc 3 19 20 is_stmt 0
 578 01c8 17050000 		lla	a0,.LC5
 578      13050500 
 579 01d0 97000000 		call	_Z11printStringPKc@plt
 579      E7800000 
 580              	.LVL56:
  20:src/user/tests/ThreadSleep_C_API_test.hpp ****         printInt(sleep_time);
 581              		.loc 3 20 9 is_stmt 1
 582              		.loc 3 20 17 is_stmt 0
 583 01d8 13060000 		li	a2,0
 584 01dc 9305A000 		li	a1,10
 585 01e0 1B050900 		sext.w	a0,s2
 586 01e4 97000000 		call	_Z8printIntiii@plt
 586      E7800000 
 587              	.LVL57:
  21:src/user/tests/ThreadSleep_C_API_test.hpp ****         printString(" !\n");
GAS LISTING /tmp/ccZychqD.s 			page 15


 588              		.loc 3 21 9 is_stmt 1
 589              		.loc 3 21 20 is_stmt 0
 590 01ec 17050000 		lla	a0,.LC6
 590      13050500 
 591 01f4 97000000 		call	_Z11printStringPKc@plt
 591      E7800000 
 592              	.LVL58:
  22:src/user/tests/ThreadSleep_C_API_test.hpp ****         time_sleep(sleep_time);
 593              		.loc 3 22 9 is_stmt 1
 594              		.loc 3 22 19 is_stmt 0
 595 01fc 13050900 		mv	a0,s2
 596 0200 97000000 		call	_Z10time_sleepm@plt
 596      E7800000 
 597              	.LVL59:
  17:src/user/tests/ThreadSleep_C_API_test.hpp **** 
 598              		.loc 3 17 5
 599 0208 6FF09FFB 		j	.L31
 600              	.L30:
  23:src/user/tests/ThreadSleep_C_API_test.hpp ****     }
  24:src/user/tests/ThreadSleep_C_API_test.hpp ****     finished[sleep_time/10-1] = true;
 601              		.loc 3 24 5 is_stmt 1
 602              		.loc 3 24 24 is_stmt 0
 603 020c 9307A000 		li	a5,10
 604 0210 3359F902 		divu	s2,s2,a5
 605              	.LVL60:
 606              		.loc 3 24 27
 607 0214 1309F9FF 		addi	s2,s2,-1
 608              		.loc 3 24 31
 609 0218 97070000 		lla	a5,.LANCHOR0
 609      93870700 
 610 0220 33892701 		add	s2,a5,s2
 611 0224 93071000 		li	a5,1
 612 0228 2304F900 		sb	a5,8(s2)
  25:src/user/tests/ThreadSleep_C_API_test.hpp **** }
 613              		.loc 3 25 1
 614 022c 83308101 		ld	ra,24(sp)
 615              		.cfi_restore 1
 616 0230 03340101 		ld	s0,16(sp)
 617              		.cfi_restore 8
 618              		.cfi_def_cfa 2, 32
 619 0234 83348100 		ld	s1,8(sp)
 620              		.cfi_restore 9
 621 0238 03390100 		ld	s2,0(sp)
 622              		.cfi_restore 18
 623 023c 13010102 		addi	sp,sp,32
 624              		.cfi_def_cfa_offset 0
 625 0240 67800000 		jr	ra
 626              		.cfi_endproc
 627              	.LFE36:
 629              		.align	2
 630              		.globl	_Z9fibonaccim
 632              	_Z9fibonaccim:
 633              	.LFB12:
  13:src/user/tests/Threads_C_API_test.hpp ****     if (n == 0 || n == 1) { return n; }
 634              		.loc 1 13 28 is_stmt 1
 635              		.cfi_startproc
 636              	.LVL61:
GAS LISTING /tmp/ccZychqD.s 			page 16


 637 0244 130101FE 		addi	sp,sp,-32
 638              		.cfi_def_cfa_offset 32
 639 0248 233C1100 		sd	ra,24(sp)
 640 024c 23388100 		sd	s0,16(sp)
 641 0250 23349100 		sd	s1,8(sp)
 642 0254 23302101 		sd	s2,0(sp)
 643              		.cfi_offset 1, -8
 644              		.cfi_offset 8, -16
 645              		.cfi_offset 9, -24
 646              		.cfi_offset 18, -32
 647 0258 13040102 		addi	s0,sp,32
 648              		.cfi_def_cfa 8, 0
 649 025c 93040500 		mv	s1,a0
  14:src/user/tests/Threads_C_API_test.hpp ****     if (n % 10 == 0) { thread_dispatch(); }
 650              		.loc 1 14 5
 651 0260 93071000 		li	a5,1
 652 0264 63F8A702 		bleu	a0,a5,.L33
  15:src/user/tests/Threads_C_API_test.hpp ****     return fibonacci(n - 1) + fibonacci(n - 2);
 653              		.loc 1 15 5
  15:src/user/tests/Threads_C_API_test.hpp ****     return fibonacci(n - 1) + fibonacci(n - 2);
 654              		.loc 1 15 11 is_stmt 0
 655 0268 9307A000 		li	a5,10
 656 026c B377F502 		remu	a5,a0,a5
  15:src/user/tests/Threads_C_API_test.hpp ****     return fibonacci(n - 1) + fibonacci(n - 2);
 657              		.loc 1 15 5
 658 0270 638E0702 		beqz	a5,.L38
 659              	.LVL62:
 660              	.L35:
  16:src/user/tests/Threads_C_API_test.hpp **** }
 661              		.loc 1 16 5 is_stmt 1
  16:src/user/tests/Threads_C_API_test.hpp **** }
 662              		.loc 1 16 21 is_stmt 0
 663 0274 1385F4FF 		addi	a0,s1,-1
 664 0278 97000000 		call	_Z9fibonaccim
 664      E7800000 
 665              	.LVL63:
 666 0280 13090500 		mv	s2,a0
  16:src/user/tests/Threads_C_API_test.hpp **** }
 667              		.loc 1 16 40
 668 0284 1385E4FF 		addi	a0,s1,-2
 669 0288 97000000 		call	_Z9fibonaccim
 669      E7800000 
 670              	.LVL64:
  16:src/user/tests/Threads_C_API_test.hpp **** }
 671              		.loc 1 16 46
 672 0290 3305A900 		add	a0,s2,a0
 673              	.L33:
  17:src/user/tests/Threads_C_API_test.hpp **** 
 674              		.loc 1 17 1
 675 0294 83308101 		ld	ra,24(sp)
 676              		.cfi_remember_state
 677              		.cfi_restore 1
 678 0298 03340101 		ld	s0,16(sp)
 679              		.cfi_restore 8
 680              		.cfi_def_cfa 2, 32
 681 029c 83348100 		ld	s1,8(sp)
 682              		.cfi_restore 9
GAS LISTING /tmp/ccZychqD.s 			page 17


 683              	.LVL65:
 684 02a0 03390100 		ld	s2,0(sp)
 685              		.cfi_restore 18
 686 02a4 13010102 		addi	sp,sp,32
 687              		.cfi_def_cfa_offset 0
 688 02a8 67800000 		jr	ra
 689              	.LVL66:
 690              	.L38:
 691              		.cfi_restore_state
  15:src/user/tests/Threads_C_API_test.hpp ****     return fibonacci(n - 1) + fibonacci(n - 2);
 692              		.loc 1 15 24 is_stmt 1 discriminator 1
  15:src/user/tests/Threads_C_API_test.hpp ****     return fibonacci(n - 1) + fibonacci(n - 2);
 693              		.loc 1 15 39 is_stmt 0 discriminator 1
 694 02ac 97000000 		call	_Z15thread_dispatchv@plt
 694      E7800000 
 695              	.LVL67:
 696 02b4 6FF01FFC 		j	.L35
 697              		.cfi_endproc
 698              	.LFE12:
 700              		.section	.rodata.str1.8
 701 0044 00000000 		.align	3
 702              	.LC7:
 703 0048 433A2069 		.string	"C: i="
 703      3D00
 704 004e 0000     		.align	3
 705              	.LC8:
 706 0050 433A2064 		.string	"C: dispatch\n"
 706      69737061 
 706      7463680A 
 706      00
 707 005d 000000   		.align	3
 708              	.LC9:
 709 0060 433A2074 		.string	"C: t1="
 709      313D00
 710 0067 00       		.align	3
 711              	.LC10:
 712 0068 433A2066 		.string	"C: fibonaci="
 712      69626F6E 
 712      6163693D 
 712      00
 713              		.text
 714              		.align	2
 715              		.globl	_Z11workerBodyCPv
 717              	_Z11workerBodyCPv:
 718              	.LFB15:
  43:src/user/tests/Threads_C_API_test.hpp **** 
  44:src/user/tests/Threads_C_API_test.hpp **** void workerBodyC(void* arg) {
 719              		.loc 1 44 29 is_stmt 1
 720              		.cfi_startproc
 721              	.LVL68:
 722 02b8 130101FE 		addi	sp,sp,-32
 723              		.cfi_def_cfa_offset 32
 724 02bc 233C1100 		sd	ra,24(sp)
 725 02c0 23388100 		sd	s0,16(sp)
 726 02c4 23349100 		sd	s1,8(sp)
 727 02c8 23302101 		sd	s2,0(sp)
 728              		.cfi_offset 1, -8
GAS LISTING /tmp/ccZychqD.s 			page 18


 729              		.cfi_offset 8, -16
 730              		.cfi_offset 9, -24
 731              		.cfi_offset 18, -32
 732 02cc 13040102 		addi	s0,sp,32
 733              		.cfi_def_cfa 8, 0
  45:src/user/tests/Threads_C_API_test.hpp ****     uint8 i = 0;
 734              		.loc 1 45 5
 735              	.LVL69:
 736              		.loc 1 45 11 is_stmt 0
 737 02d0 93040000 		li	s1,0
 738 02d4 6F000004 		j	.L41
 739              	.LVL70:
 740              	.L45:
  46:src/user/tests/Threads_C_API_test.hpp ****     for (; i < 3; i++) {
  47:src/user/tests/Threads_C_API_test.hpp ****         printString("C: i="); printInt(i); printString("\n");
 741              		.loc 1 47 9 is_stmt 1 discriminator 1
 742              		.loc 1 47 20 is_stmt 0 discriminator 1
 743 02d8 17050000 		lla	a0,.LC7
 743      13050500 
 744 02e0 97000000 		call	_Z11printStringPKc@plt
 744      E7800000 
 745              	.LVL71:
 746              		.loc 1 47 31 is_stmt 1 discriminator 1
 747              		.loc 1 47 39 is_stmt 0 discriminator 1
 748 02e8 13060000 		li	a2,0
 749 02ec 9305A000 		li	a1,10
 750 02f0 13850400 		mv	a0,s1
 751 02f4 97000000 		call	_Z8printIntiii@plt
 751      E7800000 
 752              	.LVL72:
 753              		.loc 1 47 44 is_stmt 1 discriminator 1
 754              		.loc 1 47 55 is_stmt 0 discriminator 1
 755 02fc 17050000 		lla	a0,.LC1
 755      13050500 
 756 0304 97000000 		call	_Z11printStringPKc@plt
 756      E7800000 
 757              	.LVL73:
  46:src/user/tests/Threads_C_API_test.hpp ****     for (; i < 3; i++) {
 758              		.loc 1 46 5 is_stmt 1 discriminator 1
 759 030c 9B841400 		addiw	s1,s1,1
 760              	.LVL74:
 761 0310 93F4F40F 		andi	s1,s1,0xff
 762              	.LVL75:
 763              	.L41:
  46:src/user/tests/Threads_C_API_test.hpp ****     for (; i < 3; i++) {
 764              		.loc 1 46 5 discriminator 2
  46:src/user/tests/Threads_C_API_test.hpp ****     for (; i < 3; i++) {
 765              		.loc 1 46 14 discriminator 2
 766 0314 93072000 		li	a5,2
 767 0318 E3F097FC 		bleu	s1,a5,.L45
  48:src/user/tests/Threads_C_API_test.hpp ****     }
  49:src/user/tests/Threads_C_API_test.hpp **** 
  50:src/user/tests/Threads_C_API_test.hpp ****     printString("C: dispatch\n");
 768              		.loc 1 50 5
 769              		.loc 1 50 16 is_stmt 0
 770 031c 17050000 		lla	a0,.LC8
 770      13050500 
GAS LISTING /tmp/ccZychqD.s 			page 19


 771 0324 97000000 		call	_Z11printStringPKc@plt
 771      E7800000 
 772              	.LVL76:
  51:src/user/tests/Threads_C_API_test.hpp ****     __asm__ ("li t1, 7");
 773              		.loc 1 51 5 is_stmt 1
 774              		.loc 1 51 25 is_stmt 0
 775              	#APP
 776              	# 51 "src/user/tests/Threads_C_API_test.hpp" 1
  52              	    thread_dispatch();
 777              		li t1, 7
 778              	# 0 "" 2
 779              		.loc 1 52 5 is_stmt 1
 780              		.loc 1 52 20 is_stmt 0
 781              	#NO_APP
 782 0330 97000000 		call	_Z15thread_dispatchv@plt
 782      E7800000 
 783              	.LVL77:
  53:src/user/tests/Threads_C_API_test.hpp **** 
  54:src/user/tests/Threads_C_API_test.hpp ****     uint64 t1 = 0;
 784              		.loc 1 54 5 is_stmt 1
  55:src/user/tests/Threads_C_API_test.hpp ****     __asm__ ("mv %[t1], t1" : [t1] "=r"(t1));
 785              		.loc 1 55 5
 786              		.loc 1 55 45 is_stmt 0
 787              	#APP
 788              	# 55 "src/user/tests/Threads_C_API_test.hpp" 1
  56              	
 789              		mv s2, t1
 790              	# 0 "" 2
 791              	.LVL78:
  57:src/user/tests/Threads_C_API_test.hpp ****     printString("C: t1="); printInt(t1); printString("\n");
 792              		.loc 1 57 5 is_stmt 1
 793              		.loc 1 57 16 is_stmt 0
 794              	#NO_APP
 795 033c 17050000 		lla	a0,.LC9
 795      13050500 
 796 0344 97000000 		call	_Z11printStringPKc@plt
 796      E7800000 
 797              	.LVL79:
 798              		.loc 1 57 28 is_stmt 1
 799              		.loc 1 57 36 is_stmt 0
 800 034c 13060000 		li	a2,0
 801 0350 9305A000 		li	a1,10
 802 0354 1B050900 		sext.w	a0,s2
 803 0358 97000000 		call	_Z8printIntiii@plt
 803      E7800000 
 804              	.LVL80:
 805              		.loc 1 57 42 is_stmt 1
 806              		.loc 1 57 53 is_stmt 0
 807 0360 17050000 		lla	a0,.LC1
 807      13050500 
 808 0368 97000000 		call	_Z11printStringPKc@plt
 808      E7800000 
 809              	.LVL81:
  58:src/user/tests/Threads_C_API_test.hpp **** 
  59:src/user/tests/Threads_C_API_test.hpp ****     uint64 result = fibonacci(12);
 810              		.loc 1 59 5 is_stmt 1
 811              		.loc 1 59 30 is_stmt 0
GAS LISTING /tmp/ccZychqD.s 			page 20


 812 0370 1305C000 		li	a0,12
 813 0374 97000000 		call	_Z9fibonaccim
 813      E7800000 
 814              	.LVL82:
 815 037c 13090500 		mv	s2,a0
 816              	.LVL83:
  60:src/user/tests/Threads_C_API_test.hpp ****     printString("C: fibonaci="); printInt(result); printString("\n");
 817              		.loc 1 60 5 is_stmt 1
 818              		.loc 1 60 16 is_stmt 0
 819 0380 17050000 		lla	a0,.LC10
 819      13050500 
 820              	.LVL84:
 821 0388 97000000 		call	_Z11printStringPKc@plt
 821      E7800000 
 822              	.LVL85:
 823              		.loc 1 60 34 is_stmt 1
 824              		.loc 1 60 42 is_stmt 0
 825 0390 13060000 		li	a2,0
 826 0394 9305A000 		li	a1,10
 827 0398 1B050900 		sext.w	a0,s2
 828 039c 97000000 		call	_Z8printIntiii@plt
 828      E7800000 
 829              	.LVL86:
 830              		.loc 1 60 52 is_stmt 1
 831              		.loc 1 60 63 is_stmt 0
 832 03a4 17050000 		lla	a0,.LC1
 832      13050500 
 833 03ac 97000000 		call	_Z11printStringPKc@plt
 833      E7800000 
 834              	.LVL87:
 835 03b4 6F000004 		j	.L43
 836              	.L46:
  61:src/user/tests/Threads_C_API_test.hpp **** 
  62:src/user/tests/Threads_C_API_test.hpp ****     for (; i < 6; i++) {
  63:src/user/tests/Threads_C_API_test.hpp ****         printString("C: i="); printInt(i); printString("\n");
 837              		.loc 1 63 9 is_stmt 1 discriminator 1
 838              		.loc 1 63 20 is_stmt 0 discriminator 1
 839 03b8 17050000 		lla	a0,.LC7
 839      13050500 
 840 03c0 97000000 		call	_Z11printStringPKc@plt
 840      E7800000 
 841              	.LVL88:
 842              		.loc 1 63 31 is_stmt 1 discriminator 1
 843              		.loc 1 63 39 is_stmt 0 discriminator 1
 844 03c8 13060000 		li	a2,0
 845 03cc 9305A000 		li	a1,10
 846 03d0 13850400 		mv	a0,s1
 847 03d4 97000000 		call	_Z8printIntiii@plt
 847      E7800000 
 848              	.LVL89:
 849              		.loc 1 63 44 is_stmt 1 discriminator 1
 850              		.loc 1 63 55 is_stmt 0 discriminator 1
 851 03dc 17050000 		lla	a0,.LC1
 851      13050500 
 852 03e4 97000000 		call	_Z11printStringPKc@plt
 852      E7800000 
 853              	.LVL90:
GAS LISTING /tmp/ccZychqD.s 			page 21


  62:src/user/tests/Threads_C_API_test.hpp ****         printString("C: i="); printInt(i); printString("\n");
 854              		.loc 1 62 5 is_stmt 1 discriminator 1
 855 03ec 9B841400 		addiw	s1,s1,1
 856              	.LVL91:
 857 03f0 93F4F40F 		andi	s1,s1,0xff
 858              	.LVL92:
 859              	.L43:
  62:src/user/tests/Threads_C_API_test.hpp ****         printString("C: i="); printInt(i); printString("\n");
 860              		.loc 1 62 5 discriminator 2
  62:src/user/tests/Threads_C_API_test.hpp ****         printString("C: i="); printInt(i); printString("\n");
 861              		.loc 1 62 14 discriminator 2
 862 03f4 93075000 		li	a5,5
 863 03f8 E3F097FC 		bleu	s1,a5,.L46
  64:src/user/tests/Threads_C_API_test.hpp ****     }
  65:src/user/tests/Threads_C_API_test.hpp **** 
  66:src/user/tests/Threads_C_API_test.hpp ****     printString("A finished!\n");
 864              		.loc 1 66 5
 865              		.loc 1 66 16 is_stmt 0
 866 03fc 17050000 		lla	a0,.LC2
 866      13050500 
 867 0404 97000000 		call	_Z11printStringPKc@plt
 867      E7800000 
 868              	.LVL93:
  67:src/user/tests/Threads_C_API_test.hpp ****     finishedC = true;
 869              		.loc 1 67 5 is_stmt 1
 870              		.loc 1 67 15 is_stmt 0
 871 040c 93071000 		li	a5,1
 872 0410 17070000 		sb	a5,.LANCHOR0+10,a4
 872      2300F700 
  68:src/user/tests/Threads_C_API_test.hpp ****     thread_dispatch();
 873              		.loc 1 68 5 is_stmt 1
 874              		.loc 1 68 20 is_stmt 0
 875 0418 97000000 		call	_Z15thread_dispatchv@plt
 875      E7800000 
 876              	.LVL94:
  69:src/user/tests/Threads_C_API_test.hpp **** }
 877              		.loc 1 69 1
 878 0420 83308101 		ld	ra,24(sp)
 879              		.cfi_restore 1
 880 0424 03340101 		ld	s0,16(sp)
 881              		.cfi_restore 8
 882              		.cfi_def_cfa 2, 32
 883 0428 83348100 		ld	s1,8(sp)
 884              		.cfi_restore 9
 885              	.LVL95:
 886 042c 03390100 		ld	s2,0(sp)
 887              		.cfi_restore 18
 888              	.LVL96:
 889 0430 13010102 		addi	sp,sp,32
 890              		.cfi_def_cfa_offset 0
 891 0434 67800000 		jr	ra
 892              		.cfi_endproc
 893              	.LFE15:
 895              		.section	.rodata.str1.8
 896 0075 000000   		.align	3
 897              	.LC11:
 898 0078 443A2069 		.string	"D: i="
GAS LISTING /tmp/ccZychqD.s 			page 22


 898      3D00
 899 007e 0000     		.align	3
 900              	.LC12:
 901 0080 443A2064 		.string	"D: dispatch\n"
 901      69737061 
 901      7463680A 
 901      00
 902 008d 000000   		.align	3
 903              	.LC13:
 904 0090 443A2066 		.string	"D: fibonaci="
 904      69626F6E 
 904      6163693D 
 904      00
 905 009d 000000   		.align	3
 906              	.LC14:
 907 00a0 44206669 		.string	"D finished!\n"
 907      6E697368 
 907      6564210A 
 907      00
 908              		.text
 909              		.align	2
 910              		.globl	_Z11workerBodyDPv
 912              	_Z11workerBodyDPv:
 913              	.LFB16:
  70:src/user/tests/Threads_C_API_test.hpp **** 
  71:src/user/tests/Threads_C_API_test.hpp **** void workerBodyD(void* arg) {
 914              		.loc 1 71 29 is_stmt 1
 915              		.cfi_startproc
 916              	.LVL97:
 917 0438 130101FE 		addi	sp,sp,-32
 918              		.cfi_def_cfa_offset 32
 919 043c 233C1100 		sd	ra,24(sp)
 920 0440 23388100 		sd	s0,16(sp)
 921 0444 23349100 		sd	s1,8(sp)
 922 0448 23302101 		sd	s2,0(sp)
 923              		.cfi_offset 1, -8
 924              		.cfi_offset 8, -16
 925              		.cfi_offset 9, -24
 926              		.cfi_offset 18, -32
 927 044c 13040102 		addi	s0,sp,32
 928              		.cfi_def_cfa 8, 0
  72:src/user/tests/Threads_C_API_test.hpp ****     uint8 i = 10;
 929              		.loc 1 72 5
 930              	.LVL98:
 931              		.loc 1 72 11 is_stmt 0
 932 0450 9304A000 		li	s1,10
 933 0454 6F000004 		j	.L49
 934              	.LVL99:
 935              	.L53:
  73:src/user/tests/Threads_C_API_test.hpp ****     for (; i < 13; i++) {
  74:src/user/tests/Threads_C_API_test.hpp ****         printString("D: i="); printInt(i); printString("\n");
 936              		.loc 1 74 9 is_stmt 1 discriminator 1
 937              		.loc 1 74 20 is_stmt 0 discriminator 1
 938 0458 17050000 		lla	a0,.LC11
 938      13050500 
 939 0460 97000000 		call	_Z11printStringPKc@plt
 939      E7800000 
GAS LISTING /tmp/ccZychqD.s 			page 23


 940              	.LVL100:
 941              		.loc 1 74 31 is_stmt 1 discriminator 1
 942              		.loc 1 74 39 is_stmt 0 discriminator 1
 943 0468 13060000 		li	a2,0
 944 046c 9305A000 		li	a1,10
 945 0470 13850400 		mv	a0,s1
 946 0474 97000000 		call	_Z8printIntiii@plt
 946      E7800000 
 947              	.LVL101:
 948              		.loc 1 74 44 is_stmt 1 discriminator 1
 949              		.loc 1 74 55 is_stmt 0 discriminator 1
 950 047c 17050000 		lla	a0,.LC1
 950      13050500 
 951 0484 97000000 		call	_Z11printStringPKc@plt
 951      E7800000 
 952              	.LVL102:
  73:src/user/tests/Threads_C_API_test.hpp ****     for (; i < 13; i++) {
 953              		.loc 1 73 5 is_stmt 1 discriminator 1
 954 048c 9B841400 		addiw	s1,s1,1
 955              	.LVL103:
 956 0490 93F4F40F 		andi	s1,s1,0xff
 957              	.LVL104:
 958              	.L49:
  73:src/user/tests/Threads_C_API_test.hpp ****     for (; i < 13; i++) {
 959              		.loc 1 73 5 discriminator 2
  73:src/user/tests/Threads_C_API_test.hpp ****     for (; i < 13; i++) {
 960              		.loc 1 73 14 discriminator 2
 961 0494 9307C000 		li	a5,12
 962 0498 E3F097FC 		bleu	s1,a5,.L53
  75:src/user/tests/Threads_C_API_test.hpp ****     }
  76:src/user/tests/Threads_C_API_test.hpp **** 
  77:src/user/tests/Threads_C_API_test.hpp ****     printString("D: dispatch\n");
 963              		.loc 1 77 5
 964              		.loc 1 77 16 is_stmt 0
 965 049c 17050000 		lla	a0,.LC12
 965      13050500 
 966 04a4 97000000 		call	_Z11printStringPKc@plt
 966      E7800000 
 967              	.LVL105:
  78:src/user/tests/Threads_C_API_test.hpp ****     __asm__ ("li t1, 5");
 968              		.loc 1 78 5 is_stmt 1
 969              		.loc 1 78 25 is_stmt 0
 970              	#APP
 971              	# 78 "src/user/tests/Threads_C_API_test.hpp" 1
  79              	    thread_dispatch();
 972              		li t1, 5
 973              	# 0 "" 2
 974              		.loc 1 79 5 is_stmt 1
 975              		.loc 1 79 20 is_stmt 0
 976              	#NO_APP
 977 04b0 97000000 		call	_Z15thread_dispatchv@plt
 977      E7800000 
 978              	.LVL106:
  80:src/user/tests/Threads_C_API_test.hpp **** 
  81:src/user/tests/Threads_C_API_test.hpp ****     uint64 result = fibonacci(16);
 979              		.loc 1 81 5 is_stmt 1
 980              		.loc 1 81 30 is_stmt 0
GAS LISTING /tmp/ccZychqD.s 			page 24


 981 04b8 13050001 		li	a0,16
 982 04bc 97000000 		call	_Z9fibonaccim
 982      E7800000 
 983              	.LVL107:
 984 04c4 13090500 		mv	s2,a0
 985              	.LVL108:
  82:src/user/tests/Threads_C_API_test.hpp ****     printString("D: fibonaci="); printInt(result); printString("\n");
 986              		.loc 1 82 5 is_stmt 1
 987              		.loc 1 82 16 is_stmt 0
 988 04c8 17050000 		lla	a0,.LC13
 988      13050500 
 989              	.LVL109:
 990 04d0 97000000 		call	_Z11printStringPKc@plt
 990      E7800000 
 991              	.LVL110:
 992              		.loc 1 82 34 is_stmt 1
 993              		.loc 1 82 42 is_stmt 0
 994 04d8 13060000 		li	a2,0
 995 04dc 9305A000 		li	a1,10
 996 04e0 1B050900 		sext.w	a0,s2
 997 04e4 97000000 		call	_Z8printIntiii@plt
 997      E7800000 
 998              	.LVL111:
 999              		.loc 1 82 52 is_stmt 1
 1000              		.loc 1 82 63 is_stmt 0
 1001 04ec 17050000 		lla	a0,.LC1
 1001      13050500 
 1002 04f4 97000000 		call	_Z11printStringPKc@plt
 1002      E7800000 
 1003              	.LVL112:
 1004 04fc 6F000004 		j	.L51
 1005              	.L54:
  83:src/user/tests/Threads_C_API_test.hpp **** 
  84:src/user/tests/Threads_C_API_test.hpp ****     for (; i < 16; i++) {
  85:src/user/tests/Threads_C_API_test.hpp ****         printString("D: i="); printInt(i); printString("\n");
 1006              		.loc 1 85 9 is_stmt 1 discriminator 1
 1007              		.loc 1 85 20 is_stmt 0 discriminator 1
 1008 0500 17050000 		lla	a0,.LC11
 1008      13050500 
 1009 0508 97000000 		call	_Z11printStringPKc@plt
 1009      E7800000 
 1010              	.LVL113:
 1011              		.loc 1 85 31 is_stmt 1 discriminator 1
 1012              		.loc 1 85 39 is_stmt 0 discriminator 1
 1013 0510 13060000 		li	a2,0
 1014 0514 9305A000 		li	a1,10
 1015 0518 13850400 		mv	a0,s1
 1016 051c 97000000 		call	_Z8printIntiii@plt
 1016      E7800000 
 1017              	.LVL114:
 1018              		.loc 1 85 44 is_stmt 1 discriminator 1
 1019              		.loc 1 85 55 is_stmt 0 discriminator 1
 1020 0524 17050000 		lla	a0,.LC1
 1020      13050500 
 1021 052c 97000000 		call	_Z11printStringPKc@plt
 1021      E7800000 
 1022              	.LVL115:
GAS LISTING /tmp/ccZychqD.s 			page 25


  84:src/user/tests/Threads_C_API_test.hpp ****         printString("D: i="); printInt(i); printString("\n");
 1023              		.loc 1 84 5 is_stmt 1 discriminator 1
 1024 0534 9B841400 		addiw	s1,s1,1
 1025              	.LVL116:
 1026 0538 93F4F40F 		andi	s1,s1,0xff
 1027              	.LVL117:
 1028              	.L51:
  84:src/user/tests/Threads_C_API_test.hpp ****         printString("D: i="); printInt(i); printString("\n");
 1029              		.loc 1 84 5 discriminator 2
  84:src/user/tests/Threads_C_API_test.hpp ****         printString("D: i="); printInt(i); printString("\n");
 1030              		.loc 1 84 14 discriminator 2
 1031 053c 9307F000 		li	a5,15
 1032 0540 E3F097FC 		bleu	s1,a5,.L54
  86:src/user/tests/Threads_C_API_test.hpp ****     }
  87:src/user/tests/Threads_C_API_test.hpp **** 
  88:src/user/tests/Threads_C_API_test.hpp ****     printString("D finished!\n");
 1033              		.loc 1 88 5
 1034              		.loc 1 88 16 is_stmt 0
 1035 0544 17050000 		lla	a0,.LC14
 1035      13050500 
 1036 054c 97000000 		call	_Z11printStringPKc@plt
 1036      E7800000 
 1037              	.LVL118:
  89:src/user/tests/Threads_C_API_test.hpp ****     finishedD = true;
 1038              		.loc 1 89 5 is_stmt 1
 1039              		.loc 1 89 15 is_stmt 0
 1040 0554 93071000 		li	a5,1
 1041 0558 17070000 		sb	a5,.LANCHOR0+11,a4
 1041      2300F700 
  90:src/user/tests/Threads_C_API_test.hpp ****     thread_dispatch();
 1042              		.loc 1 90 5 is_stmt 1
 1043              		.loc 1 90 20 is_stmt 0
 1044 0560 97000000 		call	_Z15thread_dispatchv@plt
 1044      E7800000 
 1045              	.LVL119:
  91:src/user/tests/Threads_C_API_test.hpp **** }
 1046              		.loc 1 91 1
 1047 0568 83308101 		ld	ra,24(sp)
 1048              		.cfi_restore 1
 1049 056c 03340101 		ld	s0,16(sp)
 1050              		.cfi_restore 8
 1051              		.cfi_def_cfa 2, 32
 1052 0570 83348100 		ld	s1,8(sp)
 1053              		.cfi_restore 9
 1054              	.LVL120:
 1055 0574 03390100 		ld	s2,0(sp)
 1056              		.cfi_restore 18
 1057              	.LVL121:
 1058 0578 13010102 		addi	sp,sp,32
 1059              		.cfi_def_cfa_offset 0
 1060 057c 67800000 		jr	ra
 1061              		.cfi_endproc
 1062              	.LFE16:
 1064              		.section	.rodata.str1.8
 1065 00ad 000000   		.align	3
 1066              	.LC15:
 1067 00b0 54687265 		.string	"ThreadA created\n"
GAS LISTING /tmp/ccZychqD.s 			page 26


 1067      61644120 
 1067      63726561 
 1067      7465640A 
 1067      00
 1068 00c1 00000000 		.align	3
 1068      000000
 1069              	.LC16:
 1070 00c8 54687265 		.string	"ThreadB created\n"
 1070      61644220 
 1070      63726561 
 1070      7465640A 
 1070      00
 1071 00d9 00000000 		.align	3
 1071      000000
 1072              	.LC17:
 1073 00e0 54687265 		.string	"ThreadC created\n"
 1073      61644320 
 1073      63726561 
 1073      7465640A 
 1073      00
 1074 00f1 00000000 		.align	3
 1074      000000
 1075              	.LC18:
 1076 00f8 54687265 		.string	"ThreadD created\n"
 1076      61644420 
 1076      63726561 
 1076      7465640A 
 1076      00
 1077              		.text
 1078              		.align	2
 1079              		.globl	_Z18Threads_C_API_testv
 1081              	_Z18Threads_C_API_testv:
 1082              	.LFB17:
  92:src/user/tests/Threads_C_API_test.hpp **** 
  93:src/user/tests/Threads_C_API_test.hpp **** 
  94:src/user/tests/Threads_C_API_test.hpp **** void Threads_C_API_test() {
 1083              		.loc 1 94 27 is_stmt 1
 1084              		.cfi_startproc
 1085 0580 130101FC 		addi	sp,sp,-64
 1086              		.cfi_def_cfa_offset 64
 1087 0584 233C1102 		sd	ra,56(sp)
 1088 0588 23388102 		sd	s0,48(sp)
 1089 058c 23349102 		sd	s1,40(sp)
 1090              		.cfi_offset 1, -8
 1091              		.cfi_offset 8, -16
 1092              		.cfi_offset 9, -24
 1093 0590 13040104 		addi	s0,sp,64
 1094              		.cfi_def_cfa 8, 0
  95:src/user/tests/Threads_C_API_test.hpp ****     thread_t threads[4];
 1095              		.loc 1 95 5
  96:src/user/tests/Threads_C_API_test.hpp ****     thread_create(&threads[0], workerBodyA, nullptr);
 1096              		.loc 1 96 5
 1097              		.loc 1 96 18 is_stmt 0
 1098 0594 13060000 		li	a2,0
 1099 0598 97050000 		lla	a1,_Z11workerBodyAPv
 1099      93850500 
 1100 05a0 130504FC 		addi	a0,s0,-64
GAS LISTING /tmp/ccZychqD.s 			page 27


 1101 05a4 97000000 		call	_Z13thread_createPP7_threadPFvPvES2_@plt
 1101      E7800000 
 1102              	.LVL122:
  97:src/user/tests/Threads_C_API_test.hpp ****     printString("ThreadA created\n");
 1103              		.loc 1 97 5 is_stmt 1
 1104              		.loc 1 97 16 is_stmt 0
 1105 05ac 17050000 		lla	a0,.LC15
 1105      13050500 
 1106 05b4 97000000 		call	_Z11printStringPKc@plt
 1106      E7800000 
 1107              	.LVL123:
  98:src/user/tests/Threads_C_API_test.hpp **** 
  99:src/user/tests/Threads_C_API_test.hpp ****     thread_create(&threads[1], workerBodyB, nullptr);
 1108              		.loc 1 99 5 is_stmt 1
 1109              		.loc 1 99 18 is_stmt 0
 1110 05bc 13060000 		li	a2,0
 1111 05c0 97050000 		lla	a1,_Z11workerBodyBPv
 1111      93850500 
 1112 05c8 130584FC 		addi	a0,s0,-56
 1113 05cc 97000000 		call	_Z13thread_createPP7_threadPFvPvES2_@plt
 1113      E7800000 
 1114              	.LVL124:
 100:src/user/tests/Threads_C_API_test.hpp ****     printString("ThreadB created\n");
 1115              		.loc 1 100 5 is_stmt 1
 1116              		.loc 1 100 16 is_stmt 0
 1117 05d4 17050000 		lla	a0,.LC16
 1117      13050500 
 1118 05dc 97000000 		call	_Z11printStringPKc@plt
 1118      E7800000 
 1119              	.LVL125:
 101:src/user/tests/Threads_C_API_test.hpp **** 
 102:src/user/tests/Threads_C_API_test.hpp ****     thread_create(&threads[2], workerBodyC, nullptr);
 1120              		.loc 1 102 5 is_stmt 1
 1121              		.loc 1 102 18 is_stmt 0
 1122 05e4 13060000 		li	a2,0
 1123 05e8 97050000 		lla	a1,_Z11workerBodyCPv
 1123      93850500 
 1124 05f0 130504FD 		addi	a0,s0,-48
 1125 05f4 97000000 		call	_Z13thread_createPP7_threadPFvPvES2_@plt
 1125      E7800000 
 1126              	.LVL126:
 103:src/user/tests/Threads_C_API_test.hpp ****     printString("ThreadC created\n");
 1127              		.loc 1 103 5 is_stmt 1
 1128              		.loc 1 103 16 is_stmt 0
 1129 05fc 17050000 		lla	a0,.LC17
 1129      13050500 
 1130 0604 97000000 		call	_Z11printStringPKc@plt
 1130      E7800000 
 1131              	.LVL127:
 104:src/user/tests/Threads_C_API_test.hpp **** 
 105:src/user/tests/Threads_C_API_test.hpp ****     thread_create(&threads[3], workerBodyD, nullptr);
 1132              		.loc 1 105 5 is_stmt 1
 1133              		.loc 1 105 18 is_stmt 0
 1134 060c 13060000 		li	a2,0
 1135 0610 97050000 		lla	a1,_Z11workerBodyDPv
 1135      93850500 
 1136 0618 130584FD 		addi	a0,s0,-40
GAS LISTING /tmp/ccZychqD.s 			page 28


 1137 061c 97000000 		call	_Z13thread_createPP7_threadPFvPvES2_@plt
 1137      E7800000 
 1138              	.LVL128:
 106:src/user/tests/Threads_C_API_test.hpp ****     printString("ThreadD created\n");
 1139              		.loc 1 106 5 is_stmt 1
 1140              		.loc 1 106 16 is_stmt 0
 1141 0624 17050000 		lla	a0,.LC18
 1141      13050500 
 1142 062c 97000000 		call	_Z11printStringPKc@plt
 1142      E7800000 
 1143              	.LVL129:
 1144 0634 6F00C000 		j	.L58
 1145              	.L56:
 107:src/user/tests/Threads_C_API_test.hpp **** 
 108:src/user/tests/Threads_C_API_test.hpp ****     while (!(finishedA && finishedB && finishedC && finishedD)) {
 109:src/user/tests/Threads_C_API_test.hpp ****         thread_dispatch();
 1146              		.loc 1 109 9 is_stmt 1
 1147              		.loc 1 109 24 is_stmt 0
 1148 0638 97000000 		call	_Z15thread_dispatchv@plt
 1148      E7800000 
 1149              	.LVL130:
 1150              	.L58:
 108:src/user/tests/Threads_C_API_test.hpp ****         thread_dispatch();
 1151              		.loc 1 108 5 is_stmt 1
 108:src/user/tests/Threads_C_API_test.hpp ****         thread_dispatch();
 1152              		.loc 1 108 12
 1153 0640 97070000 		lbu	a5,.LANCHOR0
 1153      83C70700 
 1154 0648 E38807FE 		beqz	a5,.L56
 108:src/user/tests/Threads_C_API_test.hpp ****         thread_dispatch();
 1155              		.loc 1 108 24 is_stmt 0 discriminator 1
 1156 064c 97070000 		lbu	a5,.LANCHOR0+1
 1156      83C70700 
 1157 0654 E38207FE 		beqz	a5,.L56
 108:src/user/tests/Threads_C_API_test.hpp ****         thread_dispatch();
 1158              		.loc 1 108 37 discriminator 2
 1159 0658 97070000 		lbu	a5,.LANCHOR0+10
 1159      83C70700 
 1160 0660 E38C07FC 		beqz	a5,.L56
 108:src/user/tests/Threads_C_API_test.hpp ****         thread_dispatch();
 1161              		.loc 1 108 12 discriminator 3
 1162 0664 97070000 		lbu	a5,.LANCHOR0+11
 1162      83C70700 
 1163 066c E38607FC 		beqz	a5,.L56
 1164              	.LBB48:
 110:src/user/tests/Threads_C_API_test.hpp ****     }
 111:src/user/tests/Threads_C_API_test.hpp **** 
 112:src/user/tests/Threads_C_API_test.hpp ****     for (auto &thread: threads) { delete thread; }
 1165              		.loc 1 112 24
 1166 0670 930404FC 		addi	s1,s0,-64
 1167 0674 6F008000 		j	.L57
 1168              	.LVL131:
 1169              	.L60:
 1170              		.loc 1 112 5 is_stmt 1 discriminator 4
 1171 0678 93848400 		addi	s1,s1,8
 1172              	.LVL132:
 1173              	.L57:
GAS LISTING /tmp/ccZychqD.s 			page 29


 1174              		.loc 1 112 24 discriminator 5
 1175 067c 930704FE 		addi	a5,s0,-32
 1176 0680 638CF400 		beq	s1,a5,.L55
 1177              	.LVL133:
 1178              		.loc 1 112 35 discriminator 2
 1179              		.loc 1 112 42 is_stmt 0 discriminator 2
 1180 0684 03B50400 		ld	a0,0(s1)
 1181              		.loc 1 112 48 discriminator 2
 1182 0688 E30805FE 		beqz	a0,.L60
 1183              		.loc 1 112 42 discriminator 3
 1184 068c 97000000 		call	_ZN7_threaddlEPv@plt
 1184      E7800000 
 1185              	.LVL134:
 1186 0694 6FF05FFE 		j	.L60
 1187              	.LVL135:
 1188              	.L55:
 1189              	.LBE48:
 113:src/user/tests/Threads_C_API_test.hpp **** }
 1190              		.loc 1 113 1
 1191 0698 83308103 		ld	ra,56(sp)
 1192              		.cfi_restore 1
 1193 069c 03340103 		ld	s0,48(sp)
 1194              		.cfi_restore 8
 1195              		.cfi_def_cfa 2, 64
 1196 06a0 83348102 		ld	s1,40(sp)
 1197              		.cfi_restore 9
 1198              	.LVL136:
 1199 06a4 13010104 		addi	sp,sp,64
 1200              		.cfi_def_cfa_offset 0
 1201 06a8 67800000 		jr	ra
 1202              		.cfi_endproc
 1203              	.LFE17:
 1205              		.align	2
 1206              		.globl	_ZN16ProducerKeyboard16producerKeyboardEPv
 1208              	_ZN16ProducerKeyboard16producerKeyboardEPv:
 1209              	.LFB24:
  33:src/user/tests/ConsumerProducer_CPP_Sync_API_test.hpp ****     struct thread_data *data = (struct thread_data *) arg;
 1210              		.loc 2 33 52 is_stmt 1
 1211              		.cfi_startproc
 1212              	.LVL137:
 1213 06ac 130101FD 		addi	sp,sp,-48
 1214              		.cfi_def_cfa_offset 48
 1215 06b0 23341102 		sd	ra,40(sp)
 1216 06b4 23308102 		sd	s0,32(sp)
 1217 06b8 233C9100 		sd	s1,24(sp)
 1218 06bc 23382101 		sd	s2,16(sp)
 1219 06c0 23343101 		sd	s3,8(sp)
 1220              		.cfi_offset 1, -8
 1221              		.cfi_offset 8, -16
 1222              		.cfi_offset 9, -24
 1223              		.cfi_offset 18, -32
 1224              		.cfi_offset 19, -40
 1225 06c4 13040103 		addi	s0,sp,48
 1226              		.cfi_def_cfa 8, 0
 1227 06c8 93090500 		mv	s3,a0
 1228 06cc 93840500 		mv	s1,a1
  34:src/user/tests/ConsumerProducer_CPP_Sync_API_test.hpp **** 
GAS LISTING /tmp/ccZychqD.s 			page 30


 1229              		.loc 2 34 5
 1230              	.LVL138:
  36:src/user/tests/ConsumerProducer_CPP_Sync_API_test.hpp ****     int i = 0;
 1231              		.loc 2 36 5
  37:src/user/tests/ConsumerProducer_CPP_Sync_API_test.hpp ****     while ((key = getc()) != 0x1b) {
 1232              		.loc 2 37 5
  37:src/user/tests/ConsumerProducer_CPP_Sync_API_test.hpp ****     while ((key = getc()) != 0x1b) {
 1233              		.loc 2 37 9 is_stmt 0
 1234 06d0 13090000 		li	s2,0
 1235 06d4 6F00C000 		j	.L64
 1236              	.LVL139:
 1237              	.L68:
  43:src/user/tests/ConsumerProducer_CPP_Sync_API_test.hpp ****         }
 1238              		.loc 2 43 13 is_stmt 1
  43:src/user/tests/ConsumerProducer_CPP_Sync_API_test.hpp ****         }
 1239              		.loc 2 43 29 is_stmt 0
 1240 06d8 97000000 		call	_ZN6Thread8dispatchEv@plt
 1240      E7800000 
 1241              	.LVL140:
 1242              	.L64:
  38:src/user/tests/ConsumerProducer_CPP_Sync_API_test.hpp ****         data->buffer->put(key);
 1243              		.loc 2 38 5 is_stmt 1
  38:src/user/tests/ConsumerProducer_CPP_Sync_API_test.hpp ****         data->buffer->put(key);
 1244              		.loc 2 38 27
  38:src/user/tests/ConsumerProducer_CPP_Sync_API_test.hpp ****         data->buffer->put(key);
 1245              		.loc 2 38 23 is_stmt 0
 1246 06e0 97000000 		call	_Z4getcv@plt
 1246      E7800000 
 1247              	.LVL141:
  38:src/user/tests/ConsumerProducer_CPP_Sync_API_test.hpp ****         data->buffer->put(key);
 1248              		.loc 2 38 17
 1249 06e8 9B050500 		sext.w	a1,a0
 1250              	.LVL142:
  38:src/user/tests/ConsumerProducer_CPP_Sync_API_test.hpp ****         data->buffer->put(key);
 1251              		.loc 2 38 27
 1252 06ec 9307B001 		li	a5,27
 1253 06f0 638AF502 		beq	a1,a5,.L65
  39:src/user/tests/ConsumerProducer_CPP_Sync_API_test.hpp ****         i++;
 1254              		.loc 2 39 9 is_stmt 1
  39:src/user/tests/ConsumerProducer_CPP_Sync_API_test.hpp ****         i++;
 1255              		.loc 2 39 26 is_stmt 0
 1256 06f4 03B58400 		ld	a0,8(s1)
 1257 06f8 97000000 		call	_ZN9BufferCPP3putEi@plt
 1257      E7800000 
 1258              	.LVL143:
  40:src/user/tests/ConsumerProducer_CPP_Sync_API_test.hpp **** 
 1259              		.loc 2 40 9 is_stmt 1
  40:src/user/tests/ConsumerProducer_CPP_Sync_API_test.hpp **** 
 1260              		.loc 2 40 10 is_stmt 0
 1261 0700 1B071900 		addiw	a4,s2,1
 1262 0704 1B090700 		sext.w	s2,a4
 1263              	.LVL144:
  42:src/user/tests/ConsumerProducer_CPP_Sync_API_test.hpp ****             Thread::dispatch();
 1264              		.loc 2 42 9 is_stmt 1
  42:src/user/tests/ConsumerProducer_CPP_Sync_API_test.hpp ****             Thread::dispatch();
 1265              		.loc 2 42 29 is_stmt 0
 1266 0708 83A60400 		lw	a3,0(s1)
GAS LISTING /tmp/ccZychqD.s 			page 31


  42:src/user/tests/ConsumerProducer_CPP_Sync_API_test.hpp ****             Thread::dispatch();
 1267              		.loc 2 42 21
 1268 070c 9B972600 		slliw	a5,a3,2
 1269 0710 BB87D700 		addw	a5,a5,a3
 1270 0714 9B971700 		slliw	a5,a5,1
  42:src/user/tests/ConsumerProducer_CPP_Sync_API_test.hpp ****             Thread::dispatch();
 1271              		.loc 2 42 15
 1272 0718 BB67F702 		remw	a5,a4,a5
  42:src/user/tests/ConsumerProducer_CPP_Sync_API_test.hpp ****             Thread::dispatch();
 1273              		.loc 2 42 9
 1274 071c E39207FC 		bnez	a5,.L64
 1275 0720 6FF09FFB 		j	.L68
 1276              	.LVL145:
 1277              	.L65:
  47:src/user/tests/ConsumerProducer_CPP_Sync_API_test.hpp ****     td->buffer->put('!');
 1278              		.loc 2 47 5 is_stmt 1
  47:src/user/tests/ConsumerProducer_CPP_Sync_API_test.hpp ****     td->buffer->put('!');
 1279              		.loc 2 47 15 is_stmt 0
 1280 0724 93071000 		li	a5,1
 1281 0728 17070000 		sw	a5,.LANCHOR0+12,a4
 1281      2320F700 
  48:src/user/tests/ConsumerProducer_CPP_Sync_API_test.hpp **** 
 1282              		.loc 2 48 5 is_stmt 1
 1283 0730 83B70901 		ld	a5,16(s3)
  48:src/user/tests/ConsumerProducer_CPP_Sync_API_test.hpp **** 
 1284              		.loc 2 48 20 is_stmt 0
 1285 0734 93051002 		li	a1,33
 1286              	.LVL146:
 1287 0738 03B58700 		ld	a0,8(a5)
 1288              	.LVL147:
 1289 073c 97000000 		call	_ZN9BufferCPP3putEi@plt
 1289      E7800000 
 1290              	.LVL148:
  50:src/user/tests/ConsumerProducer_CPP_Sync_API_test.hpp **** }
 1291              		.loc 2 50 5 is_stmt 1
  50:src/user/tests/ConsumerProducer_CPP_Sync_API_test.hpp **** }
 1292              		.loc 2 50 23 is_stmt 0
 1293 0744 03B50401 		ld	a0,16(s1)
 1294 0748 97000000 		call	_ZN9Semaphore6signalEv@plt
 1294      E7800000 
 1295              	.LVL149:
  51:src/user/tests/ConsumerProducer_CPP_Sync_API_test.hpp **** 
 1296              		.loc 2 51 1
 1297 0750 83308102 		ld	ra,40(sp)
 1298              		.cfi_restore 1
 1299 0754 03340102 		ld	s0,32(sp)
 1300              		.cfi_restore 8
 1301              		.cfi_def_cfa 2, 48
 1302 0758 83348101 		ld	s1,24(sp)
 1303              		.cfi_restore 9
 1304              	.LVL150:
 1305 075c 03390101 		ld	s2,16(sp)
 1306              		.cfi_restore 18
 1307              	.LVL151:
 1308 0760 83398100 		ld	s3,8(sp)
 1309              		.cfi_restore 19
 1310              	.LVL152:
GAS LISTING /tmp/ccZychqD.s 			page 32


 1311 0764 13010103 		addi	sp,sp,48
 1312              		.cfi_def_cfa_offset 0
 1313 0768 67800000 		jr	ra
 1314              		.cfi_endproc
 1315              	.LFE24:
 1317              		.section	.text._ZN16ProducerKeyboard3runEv,"axG",@progbits,_ZN16ProducerKeyboard3runEv,comdat
 1318              		.align	2
 1319              		.weak	_ZN16ProducerKeyboard3runEv
 1321              	_ZN16ProducerKeyboard3runEv:
 1322              	.LFB23:
  28:src/user/tests/ConsumerProducer_CPP_Sync_API_test.hpp ****         producerKeyboard(td);
 1323              		.loc 2 28 10 is_stmt 1
 1324              		.cfi_startproc
 1325              	.LVL153:
 1326 0000 130101FF 		addi	sp,sp,-16
 1327              		.cfi_def_cfa_offset 16
 1328 0004 23341100 		sd	ra,8(sp)
 1329 0008 23308100 		sd	s0,0(sp)
 1330              		.cfi_offset 1, -8
 1331              		.cfi_offset 8, -16
 1332 000c 13040101 		addi	s0,sp,16
 1333              		.cfi_def_cfa 8, 0
  29:src/user/tests/ConsumerProducer_CPP_Sync_API_test.hpp ****     }
 1334              		.loc 2 29 9
  29:src/user/tests/ConsumerProducer_CPP_Sync_API_test.hpp ****     }
 1335              		.loc 2 29 25 is_stmt 0
 1336 0010 83350501 		ld	a1,16(a0)
 1337 0014 97000000 		call	_ZN16ProducerKeyboard16producerKeyboardEPv
 1337      E7800000 
 1338              	.LVL154:
  30:src/user/tests/ConsumerProducer_CPP_Sync_API_test.hpp **** };
 1339              		.loc 2 30 5
 1340 001c 83308100 		ld	ra,8(sp)
 1341              		.cfi_restore 1
 1342 0020 03340100 		ld	s0,0(sp)
 1343              		.cfi_restore 8
 1344              		.cfi_def_cfa 2, 16
 1345 0024 13010101 		addi	sp,sp,16
 1346              		.cfi_def_cfa_offset 0
 1347 0028 67800000 		jr	ra
 1348              		.cfi_endproc
 1349              	.LFE23:
 1351              		.text
 1352              		.align	2
 1353              		.globl	_ZN8Producer8producerEPv
 1355              	_ZN8Producer8producerEPv:
 1356              	.LFB29:
  64:src/user/tests/ConsumerProducer_CPP_Sync_API_test.hpp ****     struct thread_data *data = (struct thread_data *) arg;
 1357              		.loc 2 64 36 is_stmt 1
 1358              		.cfi_startproc
 1359              	.LVL155:
 1360 076c 130101FE 		addi	sp,sp,-32
 1361              		.cfi_def_cfa_offset 32
 1362 0770 233C1100 		sd	ra,24(sp)
 1363 0774 23388100 		sd	s0,16(sp)
 1364 0778 23349100 		sd	s1,8(sp)
 1365 077c 23302101 		sd	s2,0(sp)
GAS LISTING /tmp/ccZychqD.s 			page 33


 1366              		.cfi_offset 1, -8
 1367              		.cfi_offset 8, -16
 1368              		.cfi_offset 9, -24
 1369              		.cfi_offset 18, -32
 1370 0780 13040102 		addi	s0,sp,32
 1371              		.cfi_def_cfa 8, 0
 1372 0784 93840500 		mv	s1,a1
  65:src/user/tests/ConsumerProducer_CPP_Sync_API_test.hpp **** 
 1373              		.loc 2 65 5
 1374              	.LVL156:
  67:src/user/tests/ConsumerProducer_CPP_Sync_API_test.hpp ****     while (!threadEnd) {
 1375              		.loc 2 67 5
  67:src/user/tests/ConsumerProducer_CPP_Sync_API_test.hpp ****     while (!threadEnd) {
 1376              		.loc 2 67 9 is_stmt 0
 1377 0788 13090000 		li	s2,0
 1378 078c 6F00C000 		j	.L72
 1379              	.LVL157:
 1380              	.L76:
  73:src/user/tests/ConsumerProducer_CPP_Sync_API_test.hpp ****         }
 1381              		.loc 2 73 13 is_stmt 1
  73:src/user/tests/ConsumerProducer_CPP_Sync_API_test.hpp ****         }
 1382              		.loc 2 73 29 is_stmt 0
 1383 0790 97000000 		call	_ZN6Thread8dispatchEv@plt
 1383      E7800000 
 1384              	.LVL158:
 1385              	.L72:
  68:src/user/tests/ConsumerProducer_CPP_Sync_API_test.hpp ****         data->buffer->put(data->id + '0');
 1386              		.loc 2 68 5 is_stmt 1
  68:src/user/tests/ConsumerProducer_CPP_Sync_API_test.hpp ****         data->buffer->put(data->id + '0');
 1387              		.loc 2 68 12
 1388 0798 97070000 		lw	a5,.LANCHOR0+12
 1388      83A70700 
 1389 07a0 639E0702 		bnez	a5,.L73
  69:src/user/tests/ConsumerProducer_CPP_Sync_API_test.hpp ****         i++;
 1390              		.loc 2 69 9
  69:src/user/tests/ConsumerProducer_CPP_Sync_API_test.hpp ****         i++;
 1391              		.loc 2 69 33 is_stmt 0
 1392 07a4 83A50400 		lw	a1,0(s1)
  69:src/user/tests/ConsumerProducer_CPP_Sync_API_test.hpp ****         i++;
 1393              		.loc 2 69 26
 1394 07a8 9B850503 		addiw	a1,a1,48
 1395 07ac 03B58400 		ld	a0,8(s1)
 1396 07b0 97000000 		call	_ZN9BufferCPP3putEi@plt
 1396      E7800000 
 1397              	.LVL159:
  70:src/user/tests/ConsumerProducer_CPP_Sync_API_test.hpp **** 
 1398              		.loc 2 70 9 is_stmt 1
  70:src/user/tests/ConsumerProducer_CPP_Sync_API_test.hpp **** 
 1399              		.loc 2 70 10 is_stmt 0
 1400 07b8 1B071900 		addiw	a4,s2,1
 1401 07bc 1B090700 		sext.w	s2,a4
 1402              	.LVL160:
  72:src/user/tests/ConsumerProducer_CPP_Sync_API_test.hpp ****             Thread::dispatch();
 1403              		.loc 2 72 9 is_stmt 1
  72:src/user/tests/ConsumerProducer_CPP_Sync_API_test.hpp ****             Thread::dispatch();
 1404              		.loc 2 72 29 is_stmt 0
 1405 07c0 83A60400 		lw	a3,0(s1)
GAS LISTING /tmp/ccZychqD.s 			page 34


  72:src/user/tests/ConsumerProducer_CPP_Sync_API_test.hpp ****             Thread::dispatch();
 1406              		.loc 2 72 21
 1407 07c4 9B972600 		slliw	a5,a3,2
 1408 07c8 BB87D700 		addw	a5,a5,a3
 1409 07cc 9B971700 		slliw	a5,a5,1
  72:src/user/tests/ConsumerProducer_CPP_Sync_API_test.hpp ****             Thread::dispatch();
 1410              		.loc 2 72 15
 1411 07d0 BB67F702 		remw	a5,a4,a5
  72:src/user/tests/ConsumerProducer_CPP_Sync_API_test.hpp ****             Thread::dispatch();
 1412              		.loc 2 72 9
 1413 07d4 E39207FC 		bnez	a5,.L72
 1414 07d8 6FF09FFB 		j	.L76
 1415              	.LVL161:
 1416              	.L73:
  77:src/user/tests/ConsumerProducer_CPP_Sync_API_test.hpp **** }
 1417              		.loc 2 77 5 is_stmt 1
  77:src/user/tests/ConsumerProducer_CPP_Sync_API_test.hpp **** }
 1418              		.loc 2 77 23 is_stmt 0
 1419 07dc 03B50401 		ld	a0,16(s1)
 1420 07e0 97000000 		call	_ZN9Semaphore6signalEv@plt
 1420      E7800000 
 1421              	.LVL162:
  78:src/user/tests/ConsumerProducer_CPP_Sync_API_test.hpp **** 
 1422              		.loc 2 78 1
 1423 07e8 83308101 		ld	ra,24(sp)
 1424              		.cfi_restore 1
 1425 07ec 03340101 		ld	s0,16(sp)
 1426              		.cfi_restore 8
 1427              		.cfi_def_cfa 2, 32
 1428 07f0 83348100 		ld	s1,8(sp)
 1429              		.cfi_restore 9
 1430              	.LVL163:
 1431 07f4 03390100 		ld	s2,0(sp)
 1432              		.cfi_restore 18
 1433              	.LVL164:
 1434 07f8 13010102 		addi	sp,sp,32
 1435              		.cfi_def_cfa_offset 0
 1436 07fc 67800000 		jr	ra
 1437              		.cfi_endproc
 1438              	.LFE29:
 1440              		.section	.text._ZN8Producer3runEv,"axG",@progbits,_ZN8Producer3runEv,comdat
 1441              		.align	2
 1442              		.weak	_ZN8Producer3runEv
 1444              	_ZN8Producer3runEv:
 1445              	.LFB28:
  59:src/user/tests/ConsumerProducer_CPP_Sync_API_test.hpp ****         producer(td);
 1446              		.loc 2 59 10 is_stmt 1
 1447              		.cfi_startproc
 1448              	.LVL165:
 1449 0000 130101FF 		addi	sp,sp,-16
 1450              		.cfi_def_cfa_offset 16
 1451 0004 23341100 		sd	ra,8(sp)
 1452 0008 23308100 		sd	s0,0(sp)
 1453              		.cfi_offset 1, -8
 1454              		.cfi_offset 8, -16
 1455 000c 13040101 		addi	s0,sp,16
 1456              		.cfi_def_cfa 8, 0
GAS LISTING /tmp/ccZychqD.s 			page 35


  60:src/user/tests/ConsumerProducer_CPP_Sync_API_test.hpp ****     }
 1457              		.loc 2 60 9
  60:src/user/tests/ConsumerProducer_CPP_Sync_API_test.hpp ****     }
 1458              		.loc 2 60 17 is_stmt 0
 1459 0010 83350501 		ld	a1,16(a0)
 1460 0014 97000000 		call	_ZN8Producer8producerEPv
 1460      E7800000 
 1461              	.LVL166:
  61:src/user/tests/ConsumerProducer_CPP_Sync_API_test.hpp **** };
 1462              		.loc 2 61 5
 1463 001c 83308100 		ld	ra,8(sp)
 1464              		.cfi_restore 1
 1465 0020 03340100 		ld	s0,0(sp)
 1466              		.cfi_restore 8
 1467              		.cfi_def_cfa 2, 16
 1468 0024 13010101 		addi	sp,sp,16
 1469              		.cfi_def_cfa_offset 0
 1470 0028 67800000 		jr	ra
 1471              		.cfi_endproc
 1472              	.LFE28:
 1474              		.text
 1475              		.align	2
 1476              		.globl	_ZN8Consumer8consumerEPv
 1478              	_ZN8Consumer8consumerEPv:
 1479              	.LFB34:
  81:src/user/tests/ConsumerProducer_CPP_Sync_API_test.hpp ****     thread_data* td;
  82:src/user/tests/ConsumerProducer_CPP_Sync_API_test.hpp ****     void consumer(void *arg);
  83:src/user/tests/ConsumerProducer_CPP_Sync_API_test.hpp **** public:
  84:src/user/tests/ConsumerProducer_CPP_Sync_API_test.hpp ****     Consumer(thread_data* _td):Thread(), td(_td) {}
  85:src/user/tests/ConsumerProducer_CPP_Sync_API_test.hpp **** 
  86:src/user/tests/ConsumerProducer_CPP_Sync_API_test.hpp ****     void run() override {
  87:src/user/tests/ConsumerProducer_CPP_Sync_API_test.hpp ****         consumer(td);
  88:src/user/tests/ConsumerProducer_CPP_Sync_API_test.hpp ****     }
  89:src/user/tests/ConsumerProducer_CPP_Sync_API_test.hpp **** };
  90:src/user/tests/ConsumerProducer_CPP_Sync_API_test.hpp **** 
  91:src/user/tests/ConsumerProducer_CPP_Sync_API_test.hpp **** void Consumer::consumer(void *arg) {
 1480              		.loc 2 91 36 is_stmt 1
 1481              		.cfi_startproc
 1482              	.LVL167:
 1483 0800 130101FD 		addi	sp,sp,-48
 1484              		.cfi_def_cfa_offset 48
 1485 0804 23341102 		sd	ra,40(sp)
 1486 0808 23308102 		sd	s0,32(sp)
 1487 080c 233C9100 		sd	s1,24(sp)
 1488 0810 23382101 		sd	s2,16(sp)
 1489 0814 23343101 		sd	s3,8(sp)
 1490 0818 23304101 		sd	s4,0(sp)
 1491              		.cfi_offset 1, -8
 1492              		.cfi_offset 8, -16
 1493              		.cfi_offset 9, -24
 1494              		.cfi_offset 18, -32
 1495              		.cfi_offset 19, -40
 1496              		.cfi_offset 20, -48
 1497 081c 13040103 		addi	s0,sp,48
 1498              		.cfi_def_cfa 8, 0
 1499 0820 93090500 		mv	s3,a0
 1500 0824 13890500 		mv	s2,a1
GAS LISTING /tmp/ccZychqD.s 			page 36


  92:src/user/tests/ConsumerProducer_CPP_Sync_API_test.hpp ****     struct thread_data *data = (struct thread_data *) arg;
 1501              		.loc 2 92 5
 1502              	.LVL168:
  93:src/user/tests/ConsumerProducer_CPP_Sync_API_test.hpp **** 
  94:src/user/tests/ConsumerProducer_CPP_Sync_API_test.hpp ****     int i = 0;
 1503              		.loc 2 94 5
 1504              		.loc 2 94 9 is_stmt 0
 1505 0828 130A0000 		li	s4,0
 1506 082c 6F00C001 		j	.L80
 1507              	.LVL169:
 1508              	.L86:
 1509              	.LBB49:
  95:src/user/tests/ConsumerProducer_CPP_Sync_API_test.hpp ****     while (!threadEnd) {
  96:src/user/tests/ConsumerProducer_CPP_Sync_API_test.hpp ****         int key = data->buffer->get();
  97:src/user/tests/ConsumerProducer_CPP_Sync_API_test.hpp ****         i++;
  98:src/user/tests/ConsumerProducer_CPP_Sync_API_test.hpp **** 
  99:src/user/tests/ConsumerProducer_CPP_Sync_API_test.hpp ****         putc(key);
 100:src/user/tests/ConsumerProducer_CPP_Sync_API_test.hpp **** 
 101:src/user/tests/ConsumerProducer_CPP_Sync_API_test.hpp ****         if (i % (5 * data->id) == 0) {
 102:src/user/tests/ConsumerProducer_CPP_Sync_API_test.hpp ****             Thread::dispatch();
 1510              		.loc 2 102 13 is_stmt 1
 1511              		.loc 2 102 29 is_stmt 0
 1512 0830 97000000 		call	_ZN6Thread8dispatchEv@plt
 1512      E7800000 
 1513              	.LVL170:
 1514 0838 6F000005 		j	.L82
 1515              	.LVL171:
 1516              	.L87:
 103:src/user/tests/ConsumerProducer_CPP_Sync_API_test.hpp ****         }
 104:src/user/tests/ConsumerProducer_CPP_Sync_API_test.hpp **** 
 105:src/user/tests/ConsumerProducer_CPP_Sync_API_test.hpp ****         if (i % 80 == 0) {
 106:src/user/tests/ConsumerProducer_CPP_Sync_API_test.hpp ****             putc('\n');
 1517              		.loc 2 106 13 is_stmt 1
 1518              		.loc 2 106 17 is_stmt 0
 1519 083c 1305A000 		li	a0,10
 1520 0840 97000000 		call	_Z4putcc@plt
 1520      E7800000 
 1521              	.LVL172:
 1522              	.L80:
 1523              	.LBE49:
  95:src/user/tests/ConsumerProducer_CPP_Sync_API_test.hpp ****     while (!threadEnd) {
 1524              		.loc 2 95 5 is_stmt 1
  95:src/user/tests/ConsumerProducer_CPP_Sync_API_test.hpp ****     while (!threadEnd) {
 1525              		.loc 2 95 12
 1526 0848 97070000 		lw	a5,.LANCHOR0+12
 1526      83A70700 
 1527 0850 63920706 		bnez	a5,.L81
 1528              	.LBB50:
  96:src/user/tests/ConsumerProducer_CPP_Sync_API_test.hpp ****         i++;
 1529              		.loc 2 96 9
  96:src/user/tests/ConsumerProducer_CPP_Sync_API_test.hpp ****         i++;
 1530              		.loc 2 96 36 is_stmt 0
 1531 0854 03358900 		ld	a0,8(s2)
 1532 0858 97000000 		call	_ZN9BufferCPP3getEv@plt
 1532      E7800000 
 1533              	.LVL173:
  97:src/user/tests/ConsumerProducer_CPP_Sync_API_test.hpp **** 
GAS LISTING /tmp/ccZychqD.s 			page 37


 1534              		.loc 2 97 9 is_stmt 1
  97:src/user/tests/ConsumerProducer_CPP_Sync_API_test.hpp **** 
 1535              		.loc 2 97 10 is_stmt 0
 1536 0860 9B041A00 		addiw	s1,s4,1
 1537 0864 1B8A0400 		sext.w	s4,s1
 1538              	.LVL174:
  99:src/user/tests/ConsumerProducer_CPP_Sync_API_test.hpp **** 
 1539              		.loc 2 99 9 is_stmt 1
  99:src/user/tests/ConsumerProducer_CPP_Sync_API_test.hpp **** 
 1540              		.loc 2 99 13 is_stmt 0
 1541 0868 1375F50F 		andi	a0,a0,0xff
 1542              	.LVL175:
 1543 086c 97000000 		call	_Z4putcc@plt
 1543      E7800000 
 1544              	.LVL176:
 101:src/user/tests/ConsumerProducer_CPP_Sync_API_test.hpp ****             Thread::dispatch();
 1545              		.loc 2 101 9 is_stmt 1
 101:src/user/tests/ConsumerProducer_CPP_Sync_API_test.hpp ****             Thread::dispatch();
 1546              		.loc 2 101 28 is_stmt 0
 1547 0874 03270900 		lw	a4,0(s2)
 101:src/user/tests/ConsumerProducer_CPP_Sync_API_test.hpp ****             Thread::dispatch();
 1548              		.loc 2 101 20
 1549 0878 9B172700 		slliw	a5,a4,2
 1550 087c BB87E700 		addw	a5,a5,a4
 101:src/user/tests/ConsumerProducer_CPP_Sync_API_test.hpp ****             Thread::dispatch();
 1551              		.loc 2 101 15
 1552 0880 BBE7F402 		remw	a5,s1,a5
 101:src/user/tests/ConsumerProducer_CPP_Sync_API_test.hpp ****             Thread::dispatch();
 1553              		.loc 2 101 9
 1554 0884 E38607FA 		beqz	a5,.L86
 1555              	.L82:
 105:src/user/tests/ConsumerProducer_CPP_Sync_API_test.hpp ****             putc('\n');
 1556              		.loc 2 105 9 is_stmt 1
 105:src/user/tests/ConsumerProducer_CPP_Sync_API_test.hpp ****             putc('\n');
 1557              		.loc 2 105 15 is_stmt 0
 1558 0888 93070005 		li	a5,80
 1559 088c BBE4F402 		remw	s1,s1,a5
 1560              	.LVL177:
 105:src/user/tests/ConsumerProducer_CPP_Sync_API_test.hpp ****             putc('\n');
 1561              		.loc 2 105 9
 1562 0890 E39C04FA 		bnez	s1,.L80
 1563 0894 6FF09FFA 		j	.L87
 1564              	.L88:
 1565              	.LBE50:
 1566              	.LBB51:
 107:src/user/tests/ConsumerProducer_CPP_Sync_API_test.hpp ****         }
 108:src/user/tests/ConsumerProducer_CPP_Sync_API_test.hpp ****     }
 109:src/user/tests/ConsumerProducer_CPP_Sync_API_test.hpp **** 
 110:src/user/tests/ConsumerProducer_CPP_Sync_API_test.hpp **** 
 111:src/user/tests/ConsumerProducer_CPP_Sync_API_test.hpp ****     while (td->buffer->getCnt() > 0) {
 112:src/user/tests/ConsumerProducer_CPP_Sync_API_test.hpp ****         int key = td->buffer->get();
 1567              		.loc 2 112 9 is_stmt 1
 1568              		.loc 2 112 19 is_stmt 0
 1569 0898 83B70901 		ld	a5,16(s3)
 1570              		.loc 2 112 34
 1571 089c 03B58700 		ld	a0,8(a5)
 1572 08a0 97000000 		call	_ZN9BufferCPP3getEv@plt
GAS LISTING /tmp/ccZychqD.s 			page 38


 1572      E7800000 
 1573              	.LVL178:
 113:src/user/tests/ConsumerProducer_CPP_Sync_API_test.hpp ****         Console::putc(key);
 1574              		.loc 2 113 9 is_stmt 1
 1575              		.loc 2 113 22 is_stmt 0
 1576 08a8 1375F50F 		andi	a0,a0,0xff
 1577              	.LVL179:
 1578 08ac 97000000 		call	_ZN7Console4putcEc@plt
 1578      E7800000 
 1579              	.LVL180:
 1580              	.L81:
 1581              	.LBE51:
 111:src/user/tests/ConsumerProducer_CPP_Sync_API_test.hpp ****         int key = td->buffer->get();
 1582              		.loc 2 111 5 is_stmt 1
 111:src/user/tests/ConsumerProducer_CPP_Sync_API_test.hpp ****         int key = td->buffer->get();
 1583              		.loc 2 111 33
 111:src/user/tests/ConsumerProducer_CPP_Sync_API_test.hpp ****         int key = td->buffer->get();
 1584              		.loc 2 111 12 is_stmt 0
 1585 08b4 83B70901 		ld	a5,16(s3)
 111:src/user/tests/ConsumerProducer_CPP_Sync_API_test.hpp ****         int key = td->buffer->get();
 1586              		.loc 2 111 30
 1587 08b8 03B58700 		ld	a0,8(a5)
 1588 08bc 97000000 		call	_ZN9BufferCPP6getCntEv@plt
 1588      E7800000 
 1589              	.LVL181:
 111:src/user/tests/ConsumerProducer_CPP_Sync_API_test.hpp ****         int key = td->buffer->get();
 1590              		.loc 2 111 33
 1591 08c4 E34AA0FC 		bgtz	a0,.L88
 114:src/user/tests/ConsumerProducer_CPP_Sync_API_test.hpp ****     }
 115:src/user/tests/ConsumerProducer_CPP_Sync_API_test.hpp **** 
 116:src/user/tests/ConsumerProducer_CPP_Sync_API_test.hpp ****     data->wait->signal();
 1592              		.loc 2 116 5 is_stmt 1
 1593              		.loc 2 116 23 is_stmt 0
 1594 08c8 03350901 		ld	a0,16(s2)
 1595 08cc 97000000 		call	_ZN9Semaphore6signalEv@plt
 1595      E7800000 
 1596              	.LVL182:
 117:src/user/tests/ConsumerProducer_CPP_Sync_API_test.hpp **** }
 1597              		.loc 2 117 1
 1598 08d4 83308102 		ld	ra,40(sp)
 1599              		.cfi_restore 1
 1600 08d8 03340102 		ld	s0,32(sp)
 1601              		.cfi_restore 8
 1602              		.cfi_def_cfa 2, 48
 1603 08dc 83348101 		ld	s1,24(sp)
 1604              		.cfi_restore 9
 1605 08e0 03390101 		ld	s2,16(sp)
 1606              		.cfi_restore 18
 1607              	.LVL183:
 1608 08e4 83398100 		ld	s3,8(sp)
 1609              		.cfi_restore 19
 1610              	.LVL184:
 1611 08e8 033A0100 		ld	s4,0(sp)
 1612              		.cfi_restore 20
 1613              	.LVL185:
 1614 08ec 13010103 		addi	sp,sp,48
 1615              		.cfi_def_cfa_offset 0
GAS LISTING /tmp/ccZychqD.s 			page 39


 1616 08f0 67800000 		jr	ra
 1617              		.cfi_endproc
 1618              	.LFE34:
 1620              		.section	.text._ZN8Consumer3runEv,"axG",@progbits,_ZN8Consumer3runEv,comdat
 1621              		.align	2
 1622              		.weak	_ZN8Consumer3runEv
 1624              	_ZN8Consumer3runEv:
 1625              	.LFB33:
  86:src/user/tests/ConsumerProducer_CPP_Sync_API_test.hpp ****         consumer(td);
 1626              		.loc 2 86 10 is_stmt 1
 1627              		.cfi_startproc
 1628              	.LVL186:
 1629 0000 130101FF 		addi	sp,sp,-16
 1630              		.cfi_def_cfa_offset 16
 1631 0004 23341100 		sd	ra,8(sp)
 1632 0008 23308100 		sd	s0,0(sp)
 1633              		.cfi_offset 1, -8
 1634              		.cfi_offset 8, -16
 1635 000c 13040101 		addi	s0,sp,16
 1636              		.cfi_def_cfa 8, 0
  87:src/user/tests/ConsumerProducer_CPP_Sync_API_test.hpp ****     }
 1637              		.loc 2 87 9
  87:src/user/tests/ConsumerProducer_CPP_Sync_API_test.hpp ****     }
 1638              		.loc 2 87 17 is_stmt 0
 1639 0010 83350501 		ld	a1,16(a0)
 1640 0014 97000000 		call	_ZN8Consumer8consumerEPv
 1640      E7800000 
 1641              	.LVL187:
  88:src/user/tests/ConsumerProducer_CPP_Sync_API_test.hpp **** };
 1642              		.loc 2 88 5
 1643 001c 83308100 		ld	ra,8(sp)
 1644              		.cfi_restore 1
 1645 0020 03340100 		ld	s0,0(sp)
 1646              		.cfi_restore 8
 1647              		.cfi_def_cfa 2, 16
 1648 0024 13010101 		addi	sp,sp,16
 1649              		.cfi_def_cfa_offset 0
 1650 0028 67800000 		jr	ra
 1651              		.cfi_endproc
 1652              	.LFE33:
 1654              		.section	.rodata.str1.8
 1655 0109 00000000 		.align	3
 1655      000000
 1656              	.LC19:
 1657 0110 556E6573 		.string	"Unesite broj proizvodjaca?\n"
 1657      69746520 
 1657      62726F6A 
 1657      2070726F 
 1657      697A766F 
 1658 012c 00000000 		.align	3
 1659              	.LC20:
 1660 0130 556E6573 		.string	"Unesite velicinu bafera?\n"
 1660      69746520 
 1660      76656C69 
 1660      63696E75 
 1660      20626166 
 1661 014a 00000000 		.align	3
GAS LISTING /tmp/ccZychqD.s 			page 40


 1661      0000
 1662              	.LC21:
 1663 0150 42726F6A 		.string	"Broj proizvodjaca "
 1663      2070726F 
 1663      697A766F 
 1663      646A6163 
 1663      612000
 1664 0163 00000000 		.align	3
 1664      00
 1665              	.LC22:
 1666 0168 20692076 		.string	" i velicina bafera "
 1666      656C6963 
 1666      696E6120 
 1666      62616665 
 1666      72612000 
 1667 017c 00000000 		.align	3
 1668              	.LC23:
 1669 0180 2E0A00   		.string	".\n"
 1670 0183 00000000 		.align	3
 1670      00
 1671              	.LC24:
 1672 0188 42726F6A 		.string	"Broj proizvodjaca ne sme biti manji od velicine bafera!\n"
 1672      2070726F 
 1672      697A766F 
 1672      646A6163 
 1672      61206E65 
 1673 01c1 00000000 		.align	3
 1673      000000
 1674              	.LC25:
 1675 01c8 42726F6A 		.string	"Broj proizvodjaca mora biti veci od nula!\n"
 1675      2070726F 
 1675      697A766F 
 1675      646A6163 
 1675      61206D6F 
 1676              		.text
 1677              		.align	2
 1678              		.globl	_Z29producerConsumer_CPP_Sync_APIv
 1680              	_Z29producerConsumer_CPP_Sync_APIv:
 1681              	.LFB35:
 118:src/user/tests/ConsumerProducer_CPP_Sync_API_test.hpp **** 
 119:src/user/tests/ConsumerProducer_CPP_Sync_API_test.hpp **** void producerConsumer_CPP_Sync_API() {
 1682              		.loc 2 119 38 is_stmt 1
 1683              		.cfi_startproc
 1684              		.cfi_personality 0x9b,DW.ref.__gxx_personality_v0
 1685              		.cfi_lsda 0x1b,.LLSDA35
 1686 08f4 130101F8 		addi	sp,sp,-128
 1687              		.cfi_def_cfa_offset 128
 1688 08f8 233C1106 		sd	ra,120(sp)
 1689 08fc 23388106 		sd	s0,112(sp)
 1690 0900 23349106 		sd	s1,104(sp)
 1691 0904 23302107 		sd	s2,96(sp)
 1692 0908 233C3105 		sd	s3,88(sp)
 1693 090c 23384105 		sd	s4,80(sp)
 1694 0910 23345105 		sd	s5,72(sp)
 1695 0914 23306105 		sd	s6,64(sp)
 1696 0918 233C7103 		sd	s7,56(sp)
 1697 091c 23388103 		sd	s8,48(sp)
GAS LISTING /tmp/ccZychqD.s 			page 41


 1698 0920 23349103 		sd	s9,40(sp)
 1699              		.cfi_offset 1, -8
 1700              		.cfi_offset 8, -16
 1701              		.cfi_offset 9, -24
 1702              		.cfi_offset 18, -32
 1703              		.cfi_offset 19, -40
 1704              		.cfi_offset 20, -48
 1705              		.cfi_offset 21, -56
 1706              		.cfi_offset 22, -64
 1707              		.cfi_offset 23, -72
 1708              		.cfi_offset 24, -80
 1709              		.cfi_offset 25, -88
 1710 0924 13040108 		addi	s0,sp,128
 1711              		.cfi_def_cfa 8, 0
 120:src/user/tests/ConsumerProducer_CPP_Sync_API_test.hpp ****     char input[30];
 121:src/user/tests/ConsumerProducer_CPP_Sync_API_test.hpp ****     int n, threadNum;
 122:src/user/tests/ConsumerProducer_CPP_Sync_API_test.hpp **** 
 123:src/user/tests/ConsumerProducer_CPP_Sync_API_test.hpp ****     printString("Unesite broj proizvodjaca?\n");
 124:src/user/tests/ConsumerProducer_CPP_Sync_API_test.hpp ****     getString(input, 30);
 125:src/user/tests/ConsumerProducer_CPP_Sync_API_test.hpp ****     threadNum = stringToInt(input);
 126:src/user/tests/ConsumerProducer_CPP_Sync_API_test.hpp **** 
 127:src/user/tests/ConsumerProducer_CPP_Sync_API_test.hpp ****     printString("Unesite velicinu bafera?\n");
 128:src/user/tests/ConsumerProducer_CPP_Sync_API_test.hpp ****     getString(input, 30);
 129:src/user/tests/ConsumerProducer_CPP_Sync_API_test.hpp ****     n = stringToInt(input);
 130:src/user/tests/ConsumerProducer_CPP_Sync_API_test.hpp **** 
 131:src/user/tests/ConsumerProducer_CPP_Sync_API_test.hpp ****     printString("Broj proizvodjaca "); printInt(threadNum);
 132:src/user/tests/ConsumerProducer_CPP_Sync_API_test.hpp ****     printString(" i velicina bafera "); printInt(n);
 133:src/user/tests/ConsumerProducer_CPP_Sync_API_test.hpp ****     printString(".\n");
 134:src/user/tests/ConsumerProducer_CPP_Sync_API_test.hpp **** 
 135:src/user/tests/ConsumerProducer_CPP_Sync_API_test.hpp ****     if(threadNum > n) {
 136:src/user/tests/ConsumerProducer_CPP_Sync_API_test.hpp ****         printString("Broj proizvodjaca ne sme biti manji od velicine bafera!\n");
 137:src/user/tests/ConsumerProducer_CPP_Sync_API_test.hpp ****         return;
 138:src/user/tests/ConsumerProducer_CPP_Sync_API_test.hpp ****     } else if (threadNum < 1) {
 139:src/user/tests/ConsumerProducer_CPP_Sync_API_test.hpp ****         printString("Broj proizvodjaca mora biti veci od nula!\n");
 140:src/user/tests/ConsumerProducer_CPP_Sync_API_test.hpp ****         return;
 141:src/user/tests/ConsumerProducer_CPP_Sync_API_test.hpp ****     }
 142:src/user/tests/ConsumerProducer_CPP_Sync_API_test.hpp **** 
 143:src/user/tests/ConsumerProducer_CPP_Sync_API_test.hpp ****     BufferCPP *buffer = new BufferCPP(n);
 144:src/user/tests/ConsumerProducer_CPP_Sync_API_test.hpp **** 
 145:src/user/tests/ConsumerProducer_CPP_Sync_API_test.hpp ****     waitForAll = new Semaphore(0);
 146:src/user/tests/ConsumerProducer_CPP_Sync_API_test.hpp **** 
 147:src/user/tests/ConsumerProducer_CPP_Sync_API_test.hpp ****     Thread* threads[threadNum];
 148:src/user/tests/ConsumerProducer_CPP_Sync_API_test.hpp ****     Thread* consumerThread;
 149:src/user/tests/ConsumerProducer_CPP_Sync_API_test.hpp **** 
 150:src/user/tests/ConsumerProducer_CPP_Sync_API_test.hpp ****     struct thread_data data[threadNum + 1];
 151:src/user/tests/ConsumerProducer_CPP_Sync_API_test.hpp **** 
 152:src/user/tests/ConsumerProducer_CPP_Sync_API_test.hpp ****     data[threadNum].id = threadNum;
 153:src/user/tests/ConsumerProducer_CPP_Sync_API_test.hpp ****     data[threadNum].buffer = buffer;
 154:src/user/tests/ConsumerProducer_CPP_Sync_API_test.hpp ****     data[threadNum].wait = waitForAll;
 155:src/user/tests/ConsumerProducer_CPP_Sync_API_test.hpp ****     consumerThread = new Consumer(data+threadNum);
 156:src/user/tests/ConsumerProducer_CPP_Sync_API_test.hpp ****     consumerThread->start();
 157:src/user/tests/ConsumerProducer_CPP_Sync_API_test.hpp **** 
 158:src/user/tests/ConsumerProducer_CPP_Sync_API_test.hpp ****     for (int i = 0; i < threadNum; i++) {
 159:src/user/tests/ConsumerProducer_CPP_Sync_API_test.hpp ****         data[i].id = i;
 160:src/user/tests/ConsumerProducer_CPP_Sync_API_test.hpp ****         data[i].buffer = buffer;
 161:src/user/tests/ConsumerProducer_CPP_Sync_API_test.hpp ****         data[i].wait = waitForAll;
 162:src/user/tests/ConsumerProducer_CPP_Sync_API_test.hpp **** 
GAS LISTING /tmp/ccZychqD.s 			page 42


 163:src/user/tests/ConsumerProducer_CPP_Sync_API_test.hpp ****         if(i>0) {
 164:src/user/tests/ConsumerProducer_CPP_Sync_API_test.hpp ****             threads[i] = new Producer(data+i);
 165:src/user/tests/ConsumerProducer_CPP_Sync_API_test.hpp ****         } else {
 166:src/user/tests/ConsumerProducer_CPP_Sync_API_test.hpp ****             threads[i] = new ProducerKeyboard(data+i);
 167:src/user/tests/ConsumerProducer_CPP_Sync_API_test.hpp ****         }
 168:src/user/tests/ConsumerProducer_CPP_Sync_API_test.hpp **** 
 169:src/user/tests/ConsumerProducer_CPP_Sync_API_test.hpp ****         threads[i]->start();
 170:src/user/tests/ConsumerProducer_CPP_Sync_API_test.hpp ****     }
 171:src/user/tests/ConsumerProducer_CPP_Sync_API_test.hpp **** 
 172:src/user/tests/ConsumerProducer_CPP_Sync_API_test.hpp ****     Thread::dispatch();
 173:src/user/tests/ConsumerProducer_CPP_Sync_API_test.hpp **** 
 174:src/user/tests/ConsumerProducer_CPP_Sync_API_test.hpp ****     for (int i = 0; i <= threadNum; i++) {
 175:src/user/tests/ConsumerProducer_CPP_Sync_API_test.hpp ****         waitForAll->wait();
 176:src/user/tests/ConsumerProducer_CPP_Sync_API_test.hpp ****     }
 177:src/user/tests/ConsumerProducer_CPP_Sync_API_test.hpp **** 
 178:src/user/tests/ConsumerProducer_CPP_Sync_API_test.hpp ****     for (int i = 0; i < threadNum; i++) {
 179:src/user/tests/ConsumerProducer_CPP_Sync_API_test.hpp ****         delete threads[i];
 180:src/user/tests/ConsumerProducer_CPP_Sync_API_test.hpp ****     }
 181:src/user/tests/ConsumerProducer_CPP_Sync_API_test.hpp ****     delete consumerThread;
 182:src/user/tests/ConsumerProducer_CPP_Sync_API_test.hpp ****     delete waitForAll;
 183:src/user/tests/ConsumerProducer_CPP_Sync_API_test.hpp ****     delete buffer;
 1712              		.loc 2 183 18 is_stmt 0
 1713 0928 930B0100 		mv	s7,sp
 120:src/user/tests/ConsumerProducer_CPP_Sync_API_test.hpp ****     char input[30];
 1714              		.loc 2 120 5 is_stmt 1
 121:src/user/tests/ConsumerProducer_CPP_Sync_API_test.hpp **** 
 1715              		.loc 2 121 5
 123:src/user/tests/ConsumerProducer_CPP_Sync_API_test.hpp ****     getString(input, 30);
 1716              		.loc 2 123 5
 123:src/user/tests/ConsumerProducer_CPP_Sync_API_test.hpp ****     getString(input, 30);
 1717              		.loc 2 123 16 is_stmt 0
 1718 092c 17050000 		lla	a0,.LC19
 1718      13050500 
 1719              	.LEHB0:
 1720 0934 97000000 		call	_Z11printStringPKc@plt
 1720      E7800000 
 1721              	.LVL188:
 124:src/user/tests/ConsumerProducer_CPP_Sync_API_test.hpp ****     threadNum = stringToInt(input);
 1722              		.loc 2 124 5 is_stmt 1
 124:src/user/tests/ConsumerProducer_CPP_Sync_API_test.hpp ****     threadNum = stringToInt(input);
 1723              		.loc 2 124 14 is_stmt 0
 1724 093c 9305E001 		li	a1,30
 1725 0940 930404F8 		addi	s1,s0,-128
 1726 0944 13850400 		mv	a0,s1
 1727 0948 97000000 		call	_Z9getStringPci@plt
 1727      E7800000 
 1728              	.LVL189:
 125:src/user/tests/ConsumerProducer_CPP_Sync_API_test.hpp **** 
 1729              		.loc 2 125 5 is_stmt 1
 125:src/user/tests/ConsumerProducer_CPP_Sync_API_test.hpp **** 
 1730              		.loc 2 125 28 is_stmt 0
 1731 0950 13850400 		mv	a0,s1
 1732 0954 97000000 		call	_Z11stringToIntPKc@plt
 1732      E7800000 
 1733              	.LVL190:
 1734 095c 13090500 		mv	s2,a0
 1735              	.LVL191:
GAS LISTING /tmp/ccZychqD.s 			page 43


 127:src/user/tests/ConsumerProducer_CPP_Sync_API_test.hpp ****     getString(input, 30);
 1736              		.loc 2 127 5 is_stmt 1
 127:src/user/tests/ConsumerProducer_CPP_Sync_API_test.hpp ****     getString(input, 30);
 1737              		.loc 2 127 16 is_stmt 0
 1738 0960 17050000 		lla	a0,.LC20
 1738      13050500 
 1739 0968 97000000 		call	_Z11printStringPKc@plt
 1739      E7800000 
 1740              	.LVL192:
 128:src/user/tests/ConsumerProducer_CPP_Sync_API_test.hpp ****     n = stringToInt(input);
 1741              		.loc 2 128 5 is_stmt 1
 128:src/user/tests/ConsumerProducer_CPP_Sync_API_test.hpp ****     n = stringToInt(input);
 1742              		.loc 2 128 14 is_stmt 0
 1743 0970 9305E001 		li	a1,30
 1744 0974 13850400 		mv	a0,s1
 1745 0978 97000000 		call	_Z9getStringPci@plt
 1745      E7800000 
 1746              	.LVL193:
 129:src/user/tests/ConsumerProducer_CPP_Sync_API_test.hpp **** 
 1747              		.loc 2 129 5 is_stmt 1
 129:src/user/tests/ConsumerProducer_CPP_Sync_API_test.hpp **** 
 1748              		.loc 2 129 20 is_stmt 0
 1749 0980 13850400 		mv	a0,s1
 1750 0984 97000000 		call	_Z11stringToIntPKc@plt
 1750      E7800000 
 1751              	.LVL194:
 1752 098c 93040500 		mv	s1,a0
 1753              	.LVL195:
 131:src/user/tests/ConsumerProducer_CPP_Sync_API_test.hpp ****     printString(" i velicina bafera "); printInt(n);
 1754              		.loc 2 131 5 is_stmt 1
 131:src/user/tests/ConsumerProducer_CPP_Sync_API_test.hpp ****     printString(" i velicina bafera "); printInt(n);
 1755              		.loc 2 131 16 is_stmt 0
 1756 0990 17050000 		lla	a0,.LC21
 1756      13050500 
 1757 0998 97000000 		call	_Z11printStringPKc@plt
 1757      E7800000 
 1758              	.LVL196:
 131:src/user/tests/ConsumerProducer_CPP_Sync_API_test.hpp ****     printString(" i velicina bafera "); printInt(n);
 1759              		.loc 2 131 40 is_stmt 1
 131:src/user/tests/ConsumerProducer_CPP_Sync_API_test.hpp ****     printString(" i velicina bafera "); printInt(n);
 1760              		.loc 2 131 48 is_stmt 0
 1761 09a0 13060000 		li	a2,0
 1762 09a4 9305A000 		li	a1,10
 1763 09a8 13050900 		mv	a0,s2
 1764 09ac 97000000 		call	_Z8printIntiii@plt
 1764      E7800000 
 1765              	.LVL197:
 132:src/user/tests/ConsumerProducer_CPP_Sync_API_test.hpp ****     printString(".\n");
 1766              		.loc 2 132 5 is_stmt 1
 132:src/user/tests/ConsumerProducer_CPP_Sync_API_test.hpp ****     printString(".\n");
 1767              		.loc 2 132 16 is_stmt 0
 1768 09b4 17050000 		lla	a0,.LC22
 1768      13050500 
 1769 09bc 97000000 		call	_Z11printStringPKc@plt
 1769      E7800000 
 1770              	.LVL198:
 132:src/user/tests/ConsumerProducer_CPP_Sync_API_test.hpp ****     printString(".\n");
GAS LISTING /tmp/ccZychqD.s 			page 44


 1771              		.loc 2 132 41 is_stmt 1
 132:src/user/tests/ConsumerProducer_CPP_Sync_API_test.hpp ****     printString(".\n");
 1772              		.loc 2 132 49 is_stmt 0
 1773 09c4 13060000 		li	a2,0
 1774 09c8 9305A000 		li	a1,10
 1775 09cc 13850400 		mv	a0,s1
 1776 09d0 97000000 		call	_Z8printIntiii@plt
 1776      E7800000 
 1777              	.LVL199:
 133:src/user/tests/ConsumerProducer_CPP_Sync_API_test.hpp **** 
 1778              		.loc 2 133 5 is_stmt 1
 133:src/user/tests/ConsumerProducer_CPP_Sync_API_test.hpp **** 
 1779              		.loc 2 133 16 is_stmt 0
 1780 09d8 17050000 		lla	a0,.LC23
 1780      13050500 
 1781 09e0 97000000 		call	_Z11printStringPKc@plt
 1781      E7800000 
 1782              	.LVL200:
 135:src/user/tests/ConsumerProducer_CPP_Sync_API_test.hpp ****         printString("Broj proizvodjaca ne sme biti manji od velicine bafera!\n");
 1783              		.loc 2 135 5 is_stmt 1
 1784 09e8 63C62403 		bgt	s2,s1,.L124
 138:src/user/tests/ConsumerProducer_CPP_Sync_API_test.hpp ****         printString("Broj proizvodjaca mora biti veci od nula!\n");
 1785              		.loc 2 138 12
 1786 09ec 635E2003 		blez	s2,.L125
 143:src/user/tests/ConsumerProducer_CPP_Sync_API_test.hpp **** 
 1787              		.loc 2 143 5
 143:src/user/tests/ConsumerProducer_CPP_Sync_API_test.hpp **** 
 1788              		.loc 2 143 40 is_stmt 0
 1789 09f0 13058003 		li	a0,56
 1790 09f4 97000000 		call	_Znwm@plt
 1790      E7800000 
 1791              	.LVL201:
 1792              	.LEHE0:
 1793 09fc 930A0500 		mv	s5,a0
 1794 0a00 63000504 		beqz	a0,.L95
 143:src/user/tests/ConsumerProducer_CPP_Sync_API_test.hpp **** 
 1795              		.loc 2 143 40 discriminator 2
 1796 0a04 93850400 		mv	a1,s1
 1797              	.LEHB1:
 1798 0a08 97000000 		call	_ZN9BufferCPPC1Ei@plt
 1798      E7800000 
 1799              	.LVL202:
 1800              	.LEHE1:
 1801 0a10 6F000003 		j	.L95
 1802              	.L124:
 136:src/user/tests/ConsumerProducer_CPP_Sync_API_test.hpp ****         return;
 1803              		.loc 2 136 9 is_stmt 1
 136:src/user/tests/ConsumerProducer_CPP_Sync_API_test.hpp ****         return;
 1804              		.loc 2 136 20 is_stmt 0
 1805 0a14 17050000 		lla	a0,.LC24
 1805      13050500 
 1806              	.LEHB2:
 1807 0a1c 97000000 		call	_Z11printStringPKc@plt
 1807      E7800000 
 1808              	.LVL203:
 137:src/user/tests/ConsumerProducer_CPP_Sync_API_test.hpp ****     } else if (threadNum < 1) {
 1809              		.loc 2 137 9 is_stmt 1
GAS LISTING /tmp/ccZychqD.s 			page 45


 1810 0a24 6F004001 		j	.L93
 1811              	.L125:
 139:src/user/tests/ConsumerProducer_CPP_Sync_API_test.hpp ****         return;
 1812              		.loc 2 139 9
 139:src/user/tests/ConsumerProducer_CPP_Sync_API_test.hpp ****         return;
 1813              		.loc 2 139 20 is_stmt 0
 1814 0a28 17050000 		lla	a0,.LC25
 1814      13050500 
 1815 0a30 97000000 		call	_Z11printStringPKc@plt
 1815      E7800000 
 1816              	.LVL204:
 140:src/user/tests/ConsumerProducer_CPP_Sync_API_test.hpp ****     }
 1817              		.loc 2 140 9 is_stmt 1
 1818              	.L93:
 1819 0a38 13810B00 		mv	sp,s7
 1820 0a3c 6F004025 		j	.L91
 1821              	.L95:
 1822              	.LVL205:
 145:src/user/tests/ConsumerProducer_CPP_Sync_API_test.hpp **** 
 1823              		.loc 2 145 5 discriminator 7
 145:src/user/tests/ConsumerProducer_CPP_Sync_API_test.hpp **** 
 1824              		.loc 2 145 33 is_stmt 0 discriminator 7
 1825 0a40 13050001 		li	a0,16
 1826 0a44 97000000 		call	_Znwm@plt
 1826      E7800000 
 1827              	.LVL206:
 1828              	.LEHE2:
 1829 0a4c 93040500 		mv	s1,a0
 1830              	.LVL207:
 1831 0a50 63080500 		beqz	a0,.L96
 145:src/user/tests/ConsumerProducer_CPP_Sync_API_test.hpp **** 
 1832              		.loc 2 145 33 discriminator 2
 1833 0a54 93050000 		li	a1,0
 1834              	.LEHB3:
 1835 0a58 97000000 		call	_ZN9SemaphoreC1Ej@plt
 1835      E7800000 
 1836              	.LVL208:
 1837              	.LEHE3:
 1838              	.L96:
 145:src/user/tests/ConsumerProducer_CPP_Sync_API_test.hpp **** 
 1839              		.loc 2 145 16 discriminator 7
 1840 0a60 17070000 		lla	a4,.LANCHOR0
 1840      13070700 
 1841 0a68 23389700 		sd	s1,16(a4)
 147:src/user/tests/ConsumerProducer_CPP_Sync_API_test.hpp ****     Thread* consumerThread;
 1842              		.loc 2 147 5 is_stmt 1 discriminator 7
 1843              	.LVL209:
 147:src/user/tests/ConsumerProducer_CPP_Sync_API_test.hpp ****     Thread* consumerThread;
 1844              		.loc 2 147 13 is_stmt 0 discriminator 7
 1845 0a6c 93173900 		slli	a5,s2,3
 1846 0a70 9387F700 		addi	a5,a5,15
 1847 0a74 93F707FF 		andi	a5,a5,-16
 1848 0a78 3301F140 		sub	sp,sp,a5
 1849 0a7c 93090100 		mv	s3,sp
 1850              	.LVL210:
 148:src/user/tests/ConsumerProducer_CPP_Sync_API_test.hpp **** 
 1851              		.loc 2 148 5 is_stmt 1 discriminator 7
GAS LISTING /tmp/ccZychqD.s 			page 46


 150:src/user/tests/ConsumerProducer_CPP_Sync_API_test.hpp **** 
 1852              		.loc 2 150 5 discriminator 7
 150:src/user/tests/ConsumerProducer_CPP_Sync_API_test.hpp **** 
 1853              		.loc 2 150 39 is_stmt 0 discriminator 7
 1854 0a80 9B061900 		addiw	a3,s2,1
 1855              	.LVL211:
 150:src/user/tests/ConsumerProducer_CPP_Sync_API_test.hpp **** 
 1856              		.loc 2 150 24 discriminator 7
 1857 0a84 93971600 		slli	a5,a3,1
 1858 0a88 B387D700 		add	a5,a5,a3
 1859 0a8c 93973700 		slli	a5,a5,3
 1860 0a90 9387F700 		addi	a5,a5,15
 1861 0a94 93F707FF 		andi	a5,a5,-16
 1862 0a98 3301F140 		sub	sp,sp,a5
 1863              	.LVL212:
 1864 0a9c 130A0100 		mv	s4,sp
 1865              	.LVL213:
 152:src/user/tests/ConsumerProducer_CPP_Sync_API_test.hpp ****     data[threadNum].buffer = buffer;
 1866              		.loc 2 152 5 is_stmt 1 discriminator 7
 152:src/user/tests/ConsumerProducer_CPP_Sync_API_test.hpp ****     data[threadNum].buffer = buffer;
 1867              		.loc 2 152 24 is_stmt 0 discriminator 7
 1868 0aa0 93171900 		slli	a5,s2,1
 1869 0aa4 B3872701 		add	a5,a5,s2
 1870 0aa8 93973700 		slli	a5,a5,3
 1871 0aac B307FA00 		add	a5,s4,a5
 1872 0ab0 23A02701 		sw	s2,0(a5)
 153:src/user/tests/ConsumerProducer_CPP_Sync_API_test.hpp ****     data[threadNum].wait = waitForAll;
 1873              		.loc 2 153 5 is_stmt 1 discriminator 7
 153:src/user/tests/ConsumerProducer_CPP_Sync_API_test.hpp ****     data[threadNum].wait = waitForAll;
 1874              		.loc 2 153 28 is_stmt 0 discriminator 7
 1875 0ab4 23B45701 		sd	s5,8(a5)
 154:src/user/tests/ConsumerProducer_CPP_Sync_API_test.hpp ****     consumerThread = new Consumer(data+threadNum);
 1876              		.loc 2 154 5 is_stmt 1 discriminator 7
 154:src/user/tests/ConsumerProducer_CPP_Sync_API_test.hpp ****     consumerThread = new Consumer(data+threadNum);
 1877              		.loc 2 154 26 is_stmt 0 discriminator 7
 1878 0ab8 03370701 		ld	a4,16(a4)
 1879 0abc 23B8E700 		sd	a4,16(a5)
 155:src/user/tests/ConsumerProducer_CPP_Sync_API_test.hpp ****     consumerThread->start();
 1880              		.loc 2 155 5 is_stmt 1 discriminator 7
 155:src/user/tests/ConsumerProducer_CPP_Sync_API_test.hpp ****     consumerThread->start();
 1881              		.loc 2 155 49 is_stmt 0 discriminator 7
 1882 0ac0 13058001 		li	a0,24
 1883              	.LEHB4:
 1884 0ac4 97000000 		call	_Znwm@plt
 1884      E7800000 
 1885              	.LVL214:
 1886              	.LEHE4:
 1887 0acc 130B0500 		mv	s6,a0
 155:src/user/tests/ConsumerProducer_CPP_Sync_API_test.hpp ****     consumerThread->start();
 1888              		.loc 2 155 22 discriminator 7
 1889 0ad0 63060502 		beqz	a0,.L97
 155:src/user/tests/ConsumerProducer_CPP_Sync_API_test.hpp ****     consumerThread->start();
 1890              		.loc 2 155 39 discriminator 2
 1891 0ad4 93141900 		slli	s1,s2,1
 1892 0ad8 B3842401 		add	s1,s1,s2
 1893 0adc 93943400 		slli	s1,s1,3
 155:src/user/tests/ConsumerProducer_CPP_Sync_API_test.hpp ****     consumerThread->start();
GAS LISTING /tmp/ccZychqD.s 			page 47


 1894              		.loc 2 155 49 discriminator 2
 1895 0ae0 B3049A00 		add	s1,s4,s1
 1896              	.LVL215:
 1897              	.LEHB5:
 1898              	.LBB52:
 1899              	.LBB53:
  84:src/user/tests/ConsumerProducer_CPP_Sync_API_test.hpp **** 
 1900              		.loc 2 84 48 discriminator 2
 1901 0ae4 97000000 		call	_ZN6ThreadC2Ev@plt
 1901      E7800000 
 1902              	.LVL216:
 1903              	.LEHE5:
  84:src/user/tests/ConsumerProducer_CPP_Sync_API_test.hpp **** 
 1904              		.loc 2 84 48
 1905 0aec 97070000 		lla	a5,_ZTV8Consumer+16
 1905      93870700 
 1906 0af4 2330FB00 		sd	a5,0(s6)
 1907 0af8 23389B00 		sd	s1,16(s6)
 1908              	.LVL217:
 1909              	.L97:
 1910              	.LBE53:
 1911              	.LBE52:
 156:src/user/tests/ConsumerProducer_CPP_Sync_API_test.hpp **** 
 1912              		.loc 2 156 5 is_stmt 1 discriminator 7
 156:src/user/tests/ConsumerProducer_CPP_Sync_API_test.hpp **** 
 1913              		.loc 2 156 26 is_stmt 0 discriminator 7
 1914 0afc 13050B00 		mv	a0,s6
 1915              	.LEHB6:
 1916 0b00 97000000 		call	_ZN6Thread5startEv@plt
 1916      E7800000 
 1917              	.LVL218:
 1918              	.LBB54:
 158:src/user/tests/ConsumerProducer_CPP_Sync_API_test.hpp ****         data[i].id = i;
 1919              		.loc 2 158 14 discriminator 7
 1920 0b08 93040000 		li	s1,0
 1921 0b0c 6F008003 		j	.L103
 1922              	.LVL219:
 1923              	.L126:
 1924              	.LBB55:
 1925              	.LBB56:
  57:src/user/tests/ConsumerProducer_CPP_Sync_API_test.hpp **** 
 1926              		.loc 2 57 48
 1927 0b10 97070000 		lla	a5,_ZTV8Producer+16
 1927      93870700 
 1928 0b18 2330FC00 		sd	a5,0(s8)
 1929 0b1c 23389C01 		sd	s9,16(s8)
 1930              	.LVL220:
 1931              	.L100:
 1932              	.LBE56:
 1933              	.LBE55:
 164:src/user/tests/ConsumerProducer_CPP_Sync_API_test.hpp ****         } else {
 1934              		.loc 2 164 24 discriminator 7
 1935 0b20 93973400 		slli	a5,s1,3
 1936 0b24 B387F900 		add	a5,s3,a5
 1937 0b28 23B08701 		sd	s8,0(a5)
 1938              	.L101:
 169:src/user/tests/ConsumerProducer_CPP_Sync_API_test.hpp ****     }
GAS LISTING /tmp/ccZychqD.s 			page 48


 1939              		.loc 2 169 9 is_stmt 1
 169:src/user/tests/ConsumerProducer_CPP_Sync_API_test.hpp ****     }
 1940              		.loc 2 169 18 is_stmt 0
 1941 0b2c 93973400 		slli	a5,s1,3
 1942 0b30 B387F900 		add	a5,s3,a5
 169:src/user/tests/ConsumerProducer_CPP_Sync_API_test.hpp ****     }
 1943              		.loc 2 169 26
 1944 0b34 03B50700 		ld	a0,0(a5)
 1945 0b38 97000000 		call	_ZN6Thread5startEv@plt
 1945      E7800000 
 1946              	.LVL221:
 158:src/user/tests/ConsumerProducer_CPP_Sync_API_test.hpp ****         data[i].id = i;
 1947              		.loc 2 158 5 is_stmt 1
 1948 0b40 9B841400 		addiw	s1,s1,1
 1949              	.LVL222:
 1950              	.L103:
 158:src/user/tests/ConsumerProducer_CPP_Sync_API_test.hpp ****         data[i].id = i;
 1951              		.loc 2 158 23 discriminator 1
 1952 0b44 63D4240B 		bge	s1,s2,.L98
 159:src/user/tests/ConsumerProducer_CPP_Sync_API_test.hpp ****         data[i].buffer = buffer;
 1953              		.loc 2 159 9
 159:src/user/tests/ConsumerProducer_CPP_Sync_API_test.hpp ****         data[i].buffer = buffer;
 1954              		.loc 2 159 20 is_stmt 0
 1955 0b48 93971400 		slli	a5,s1,1
 1956 0b4c B3879700 		add	a5,a5,s1
 1957 0b50 93973700 		slli	a5,a5,3
 1958 0b54 B307FA00 		add	a5,s4,a5
 1959 0b58 23A09700 		sw	s1,0(a5)
 160:src/user/tests/ConsumerProducer_CPP_Sync_API_test.hpp ****         data[i].wait = waitForAll;
 1960              		.loc 2 160 9 is_stmt 1
 160:src/user/tests/ConsumerProducer_CPP_Sync_API_test.hpp ****         data[i].wait = waitForAll;
 1961              		.loc 2 160 24 is_stmt 0
 1962 0b5c 23B45701 		sd	s5,8(a5)
 161:src/user/tests/ConsumerProducer_CPP_Sync_API_test.hpp **** 
 1963              		.loc 2 161 9 is_stmt 1
 161:src/user/tests/ConsumerProducer_CPP_Sync_API_test.hpp **** 
 1964              		.loc 2 161 22 is_stmt 0
 1965 0b60 17070000 		ld	a4,.LANCHOR0+16
 1965      03370700 
 1966 0b68 23B8E700 		sd	a4,16(a5)
 163:src/user/tests/ConsumerProducer_CPP_Sync_API_test.hpp ****             threads[i] = new Producer(data+i);
 1967              		.loc 2 163 9 is_stmt 1
 1968 0b6c 635A9002 		blez	s1,.L99
 164:src/user/tests/ConsumerProducer_CPP_Sync_API_test.hpp ****         } else {
 1969              		.loc 2 164 13
 164:src/user/tests/ConsumerProducer_CPP_Sync_API_test.hpp ****         } else {
 1970              		.loc 2 164 45 is_stmt 0
 1971 0b70 13058001 		li	a0,24
 1972 0b74 97000000 		call	_Znwm@plt
 1972      E7800000 
 1973              	.LVL223:
 1974              	.LEHE6:
 1975 0b7c 130C0500 		mv	s8,a0
 164:src/user/tests/ConsumerProducer_CPP_Sync_API_test.hpp ****         } else {
 1976              		.loc 2 164 26
 1977 0b80 E30005FA 		beqz	a0,.L100
 164:src/user/tests/ConsumerProducer_CPP_Sync_API_test.hpp ****         } else {
GAS LISTING /tmp/ccZychqD.s 			page 49


 1978              		.loc 2 164 43 discriminator 2
 1979 0b84 939C1400 		slli	s9,s1,1
 1980 0b88 B38C9C00 		add	s9,s9,s1
 1981 0b8c 939C3C00 		slli	s9,s9,3
 164:src/user/tests/ConsumerProducer_CPP_Sync_API_test.hpp ****         } else {
 1982              		.loc 2 164 45 discriminator 2
 1983 0b90 B30C9A01 		add	s9,s4,s9
 1984              	.LVL224:
 1985              	.LEHB7:
 1986              	.LBB58:
 1987              	.LBB57:
  57:src/user/tests/ConsumerProducer_CPP_Sync_API_test.hpp **** 
 1988              		.loc 2 57 48 discriminator 2
 1989 0b94 97000000 		call	_ZN6ThreadC2Ev@plt
 1989      E7800000 
 1990              	.LVL225:
 1991              	.LEHE7:
 1992 0b9c 6FF05FF7 		j	.L126
 1993              	.LVL226:
 1994              	.L99:
 1995              	.LBE57:
 1996              	.LBE58:
 166:src/user/tests/ConsumerProducer_CPP_Sync_API_test.hpp ****         }
 1997              		.loc 2 166 13 is_stmt 1
 166:src/user/tests/ConsumerProducer_CPP_Sync_API_test.hpp ****         }
 1998              		.loc 2 166 53 is_stmt 0
 1999 0ba0 13058001 		li	a0,24
 2000              	.LEHB8:
 2001 0ba4 97000000 		call	_Znwm@plt
 2001      E7800000 
 2002              	.LVL227:
 2003              	.LEHE8:
 2004 0bac 130C0500 		mv	s8,a0
 166:src/user/tests/ConsumerProducer_CPP_Sync_API_test.hpp ****         }
 2005              		.loc 2 166 26
 2006 0bb0 63060502 		beqz	a0,.L102
 166:src/user/tests/ConsumerProducer_CPP_Sync_API_test.hpp ****         }
 2007              		.loc 2 166 51 discriminator 2
 2008 0bb4 939C1400 		slli	s9,s1,1
 2009 0bb8 B38C9C00 		add	s9,s9,s1
 2010 0bbc 939C3C00 		slli	s9,s9,3
 166:src/user/tests/ConsumerProducer_CPP_Sync_API_test.hpp ****         }
 2011              		.loc 2 166 53 discriminator 2
 2012 0bc0 B30C9A01 		add	s9,s4,s9
 2013              	.LVL228:
 2014              	.LEHB9:
 2015              	.LBB59:
 2016              	.LBB60:
  26:src/user/tests/ConsumerProducer_CPP_Sync_API_test.hpp **** 
 2017              		.loc 2 26 56 discriminator 2
 2018 0bc4 97000000 		call	_ZN6ThreadC2Ev@plt
 2018      E7800000 
 2019              	.LVL229:
 2020              	.LEHE9:
  26:src/user/tests/ConsumerProducer_CPP_Sync_API_test.hpp **** 
 2021              		.loc 2 26 56
 2022 0bcc 97070000 		lla	a5,_ZTV16ProducerKeyboard+16
GAS LISTING /tmp/ccZychqD.s 			page 50


 2022      93870700 
 2023 0bd4 2330FC00 		sd	a5,0(s8)
 2024 0bd8 23389C01 		sd	s9,16(s8)
 2025              	.LVL230:
 2026              	.L102:
 2027              	.LBE60:
 2028              	.LBE59:
 166:src/user/tests/ConsumerProducer_CPP_Sync_API_test.hpp ****         }
 2029              		.loc 2 166 24 discriminator 7
 2030 0bdc 93973400 		slli	a5,s1,3
 2031 0be0 B387F900 		add	a5,s3,a5
 2032 0be4 23B08701 		sd	s8,0(a5)
 2033 0be8 6FF05FF4 		j	.L101
 2034              	.L98:
 2035              	.LBE54:
 172:src/user/tests/ConsumerProducer_CPP_Sync_API_test.hpp **** 
 2036              		.loc 2 172 5 is_stmt 1
 2037              	.LEHB10:
 172:src/user/tests/ConsumerProducer_CPP_Sync_API_test.hpp **** 
 2038              		.loc 2 172 21 is_stmt 0
 2039 0bec 97000000 		call	_ZN6Thread8dispatchEv@plt
 2039      E7800000 
 2040              	.LVL231:
 2041              	.LBB61:
 174:src/user/tests/ConsumerProducer_CPP_Sync_API_test.hpp ****         waitForAll->wait();
 2042              		.loc 2 174 14
 2043 0bf4 93040000 		li	s1,0
 2044              	.LVL232:
 2045              	.L105:
 174:src/user/tests/ConsumerProducer_CPP_Sync_API_test.hpp ****         waitForAll->wait();
 2046              		.loc 2 174 23 is_stmt 1 discriminator 1
 2047 0bf8 634E9900 		bgt	s1,s2,.L117
 175:src/user/tests/ConsumerProducer_CPP_Sync_API_test.hpp ****     }
 2048              		.loc 2 175 9
 175:src/user/tests/ConsumerProducer_CPP_Sync_API_test.hpp ****     }
 2049              		.loc 2 175 25 is_stmt 0
 2050 0bfc 17050000 		ld	a0,.LANCHOR0+16
 2050      03350500 
 2051 0c04 97000000 		call	_ZN9Semaphore4waitEv@plt
 2051      E7800000 
 2052              	.LVL233:
 174:src/user/tests/ConsumerProducer_CPP_Sync_API_test.hpp ****         waitForAll->wait();
 2053              		.loc 2 174 5 is_stmt 1
 2054 0c0c 9B841400 		addiw	s1,s1,1
 2055              	.LVL234:
 2056 0c10 6FF09FFE 		j	.L105
 2057              	.LVL235:
 2058              	.L117:
 2059              	.LBE61:
 2060              	.LBB62:
 178:src/user/tests/ConsumerProducer_CPP_Sync_API_test.hpp ****         delete threads[i];
 2061              		.loc 2 178 14 is_stmt 0
 2062 0c14 93040000 		li	s1,0
 2063              	.LVL236:
 2064 0c18 6F008000 		j	.L104
 2065              	.LVL237:
 2066              	.L107:
GAS LISTING /tmp/ccZychqD.s 			page 51


 178:src/user/tests/ConsumerProducer_CPP_Sync_API_test.hpp ****         delete threads[i];
 2067              		.loc 2 178 5 is_stmt 1 discriminator 2
 2068 0c1c 9B841400 		addiw	s1,s1,1
 2069              	.LVL238:
 2070              	.L104:
 178:src/user/tests/ConsumerProducer_CPP_Sync_API_test.hpp ****         delete threads[i];
 2071              		.loc 2 178 23 discriminator 1
 2072 0c20 63D22403 		bge	s1,s2,.L106
 179:src/user/tests/ConsumerProducer_CPP_Sync_API_test.hpp ****     }
 2073              		.loc 2 179 9
 179:src/user/tests/ConsumerProducer_CPP_Sync_API_test.hpp ****     }
 2074              		.loc 2 179 25 is_stmt 0
 2075 0c24 93973400 		slli	a5,s1,3
 2076 0c28 B387F900 		add	a5,s3,a5
 2077 0c2c 03B50700 		ld	a0,0(a5)
 179:src/user/tests/ConsumerProducer_CPP_Sync_API_test.hpp ****     }
 2078              		.loc 2 179 26
 2079 0c30 E30605FE 		beqz	a0,.L107
 179:src/user/tests/ConsumerProducer_CPP_Sync_API_test.hpp ****     }
 2080              		.loc 2 179 25 discriminator 1
 2081 0c34 83370500 		ld	a5,0(a0)
 2082 0c38 83B78700 		ld	a5,8(a5)
 2083 0c3c E7800700 		jalr	a5
 2084              	.LVL239:
 2085 0c40 6FF0DFFD 		j	.L107
 2086              	.L106:
 2087              	.LBE62:
 181:src/user/tests/ConsumerProducer_CPP_Sync_API_test.hpp ****     delete waitForAll;
 2088              		.loc 2 181 5 is_stmt 1
 181:src/user/tests/ConsumerProducer_CPP_Sync_API_test.hpp ****     delete waitForAll;
 2089              		.loc 2 181 26 is_stmt 0
 2090 0c44 630A0B00 		beqz	s6,.L108
 181:src/user/tests/ConsumerProducer_CPP_Sync_API_test.hpp ****     delete waitForAll;
 2091              		.loc 2 181 12 discriminator 1
 2092 0c48 83370B00 		ld	a5,0(s6)
 2093 0c4c 83B78700 		ld	a5,8(a5)
 2094 0c50 13050B00 		mv	a0,s6
 2095 0c54 E7800700 		jalr	a5
 2096              	.LVL240:
 2097              	.L108:
 182:src/user/tests/ConsumerProducer_CPP_Sync_API_test.hpp ****     delete buffer;
 2098              		.loc 2 182 5 is_stmt 1
 182:src/user/tests/ConsumerProducer_CPP_Sync_API_test.hpp ****     delete buffer;
 2099              		.loc 2 182 12 is_stmt 0
 2100 0c58 17050000 		ld	a0,.LANCHOR0+16
 2100      03350500 
 182:src/user/tests/ConsumerProducer_CPP_Sync_API_test.hpp ****     delete buffer;
 2101              		.loc 2 182 22
 2102 0c60 63080500 		beqz	a0,.L109
 182:src/user/tests/ConsumerProducer_CPP_Sync_API_test.hpp ****     delete buffer;
 2103              		.loc 2 182 12 discriminator 1
 2104 0c64 83370500 		ld	a5,0(a0)
 2105 0c68 83B78700 		ld	a5,8(a5)
 2106 0c6c E7800700 		jalr	a5
 2107              	.LVL241:
 2108              	.L109:
 2109              		.loc 2 183 5 is_stmt 1
GAS LISTING /tmp/ccZychqD.s 			page 52


 2110              		.loc 2 183 18 is_stmt 0
 2111 0c70 638E0A00 		beqz	s5,.L110
 2112              		.loc 2 183 12 discriminator 1
 2113 0c74 13850A00 		mv	a0,s5
 2114 0c78 97000000 		call	_ZN9BufferCPPD1Ev@plt
 2114      E7800000 
 2115              	.LVL242:
 2116 0c80 13850A00 		mv	a0,s5
 2117 0c84 97000000 		call	_ZdlPv@plt
 2117      E7800000 
 2118              	.LVL243:
 2119              	.LEHE10:
 2120              	.L110:
 2121 0c8c 13810B00 		mv	sp,s7
 2122              	.LVL244:
 2123              	.L91:
 184:src/user/tests/ConsumerProducer_CPP_Sync_API_test.hpp **** 
 185:src/user/tests/ConsumerProducer_CPP_Sync_API_test.hpp **** }
 2124              		.loc 2 185 1
 2125 0c90 130104F8 		addi	sp,s0,-128
 2126              		.cfi_remember_state
 2127              		.cfi_def_cfa 2, 128
 2128 0c94 83308107 		ld	ra,120(sp)
 2129              		.cfi_restore 1
 2130 0c98 03340107 		ld	s0,112(sp)
 2131              		.cfi_restore 8
 2132 0c9c 83348106 		ld	s1,104(sp)
 2133              		.cfi_restore 9
 2134 0ca0 03390106 		ld	s2,96(sp)
 2135              		.cfi_restore 18
 2136              	.LVL245:
 2137 0ca4 83398105 		ld	s3,88(sp)
 2138              		.cfi_restore 19
 2139 0ca8 033A0105 		ld	s4,80(sp)
 2140              		.cfi_restore 20
 2141 0cac 833A8104 		ld	s5,72(sp)
 2142              		.cfi_restore 21
 2143 0cb0 033B0104 		ld	s6,64(sp)
 2144              		.cfi_restore 22
 2145 0cb4 833B8103 		ld	s7,56(sp)
 2146              		.cfi_restore 23
 2147 0cb8 033C0103 		ld	s8,48(sp)
 2148              		.cfi_restore 24
 2149 0cbc 833C8102 		ld	s9,40(sp)
 2150              		.cfi_restore 25
 2151 0cc0 13010108 		addi	sp,sp,128
 2152              		.cfi_def_cfa_offset 0
 2153 0cc4 67800000 		jr	ra
 2154              	.LVL246:
 2155              	.L118:
 2156              		.cfi_restore_state
 2157 0cc8 93040500 		mv	s1,a0
 2158              	.LVL247:
 143:src/user/tests/ConsumerProducer_CPP_Sync_API_test.hpp **** 
 2159              		.loc 2 143 40
 2160 0ccc 13850A00 		mv	a0,s5
 2161 0cd0 97000000 		call	_ZdlPv@plt
GAS LISTING /tmp/ccZychqD.s 			page 53


 2161      E7800000 
 2162              	.LVL248:
 2163 0cd8 13850400 		mv	a0,s1
 2164              	.LEHB11:
 2165 0cdc 97000000 		call	_Unwind_Resume@plt
 2165      E7800000 
 2166              	.LVL249:
 2167              	.LEHE11:
 2168              	.L119:
 2169 0ce4 13090500 		mv	s2,a0
 2170              	.LVL250:
 145:src/user/tests/ConsumerProducer_CPP_Sync_API_test.hpp **** 
 2171              		.loc 2 145 33
 2172 0ce8 13850400 		mv	a0,s1
 2173 0cec 97000000 		call	_ZdlPv@plt
 2173      E7800000 
 2174              	.LVL251:
 2175 0cf4 13050900 		mv	a0,s2
 2176              	.LEHB12:
 2177 0cf8 97000000 		call	_Unwind_Resume@plt
 2177      E7800000 
 2178              	.LVL252:
 2179              	.LEHE12:
 2180              	.L120:
 2181 0d00 93040500 		mv	s1,a0
 2182              	.LVL253:
 155:src/user/tests/ConsumerProducer_CPP_Sync_API_test.hpp ****     consumerThread->start();
 2183              		.loc 2 155 49
 2184 0d04 13050B00 		mv	a0,s6
 2185 0d08 97000000 		call	_ZdlPv@plt
 2185      E7800000 
 2186              	.LVL254:
 2187 0d10 13850400 		mv	a0,s1
 2188              	.LEHB13:
 2189 0d14 97000000 		call	_Unwind_Resume@plt
 2189      E7800000 
 2190              	.LVL255:
 2191              	.LEHE13:
 2192              	.L121:
 2193 0d1c 93040500 		mv	s1,a0
 2194              	.LVL256:
 2195              	.LBB63:
 164:src/user/tests/ConsumerProducer_CPP_Sync_API_test.hpp ****         } else {
 2196              		.loc 2 164 45
 2197 0d20 13050C00 		mv	a0,s8
 2198 0d24 97000000 		call	_ZdlPv@plt
 2198      E7800000 
 2199              	.LVL257:
 2200 0d2c 13850400 		mv	a0,s1
 2201              	.LEHB14:
 2202 0d30 97000000 		call	_Unwind_Resume@plt
 2202      E7800000 
 2203              	.LVL258:
 2204              	.LEHE14:
 2205              	.L122:
 2206 0d38 93040500 		mv	s1,a0
 2207              	.LVL259:
GAS LISTING /tmp/ccZychqD.s 			page 54


 166:src/user/tests/ConsumerProducer_CPP_Sync_API_test.hpp ****         }
 2208              		.loc 2 166 53
 2209 0d3c 13050C00 		mv	a0,s8
 2210 0d40 97000000 		call	_ZdlPv@plt
 2210      E7800000 
 2211              	.LVL260:
 2212 0d48 13850400 		mv	a0,s1
 2213              	.LEHB15:
 2214 0d4c 97000000 		call	_Unwind_Resume@plt
 2214      E7800000 
 2215              	.LVL261:
 2216              	.LEHE15:
 2217              	.LBE63:
 2218              		.cfi_endproc
 2219              	.LFE35:
 2220              		.globl	__gxx_personality_v0
 2221              		.section	.gcc_except_table,"a",@progbits
 2222              	.LLSDA35:
 2223 0000 FF       		.byte	0xff
 2224 0001 FF       		.byte	0xff
 2225 0002 03       		.byte	0x3
 2226 0003 D001     		.byte	0xd0,0x1
 2227 0005 00000000 		.4byte	.LEHB0-.LFB35
 2228 0009 00000000 		.4byte	.LEHE0-.LEHB0
 2229 000d 00000000 		.4byte	0
 2230 0011 00       		.byte	0
 2231 0012 00000000 		.4byte	.LEHB1-.LFB35
 2232 0016 00000000 		.4byte	.LEHE1-.LEHB1
 2233 001a 00000000 		.4byte	.L118-.LFB35
 2234 001e 00       		.byte	0
 2235 001f 00000000 		.4byte	.LEHB2-.LFB35
 2236 0023 00000000 		.4byte	.LEHE2-.LEHB2
 2237 0027 00000000 		.4byte	0
 2238 002b 00       		.byte	0
 2239 002c 00000000 		.4byte	.LEHB3-.LFB35
 2240 0030 00000000 		.4byte	.LEHE3-.LEHB3
 2241 0034 00000000 		.4byte	.L119-.LFB35
 2242 0038 00       		.byte	0
 2243 0039 00000000 		.4byte	.LEHB4-.LFB35
 2244 003d 00000000 		.4byte	.LEHE4-.LEHB4
 2245 0041 00000000 		.4byte	0
 2246 0045 00       		.byte	0
 2247 0046 00000000 		.4byte	.LEHB5-.LFB35
 2248 004a 00000000 		.4byte	.LEHE5-.LEHB5
 2249 004e 00000000 		.4byte	.L120-.LFB35
 2250 0052 00       		.byte	0
 2251 0053 00000000 		.4byte	.LEHB6-.LFB35
 2252 0057 00000000 		.4byte	.LEHE6-.LEHB6
 2253 005b 00000000 		.4byte	0
 2254 005f 00       		.byte	0
 2255 0060 00000000 		.4byte	.LEHB7-.LFB35
 2256 0064 00000000 		.4byte	.LEHE7-.LEHB7
 2257 0068 00000000 		.4byte	.L121-.LFB35
 2258 006c 00       		.byte	0
 2259 006d 00000000 		.4byte	.LEHB8-.LFB35
 2260 0071 00000000 		.4byte	.LEHE8-.LEHB8
 2261 0075 00000000 		.4byte	0
GAS LISTING /tmp/ccZychqD.s 			page 55


 2262 0079 00       		.byte	0
 2263 007a 00000000 		.4byte	.LEHB9-.LFB35
 2264 007e 00000000 		.4byte	.LEHE9-.LEHB9
 2265 0082 00000000 		.4byte	.L122-.LFB35
 2266 0086 00       		.byte	0
 2267 0087 00000000 		.4byte	.LEHB10-.LFB35
 2268 008b 00000000 		.4byte	.LEHE10-.LEHB10
 2269 008f 00000000 		.4byte	0
 2270 0093 00       		.byte	0
 2271 0094 00000000 		.4byte	.LEHB11-.LFB35
 2272 0098 00000000 		.4byte	.LEHE11-.LEHB11
 2273 009c 00000000 		.4byte	0
 2274 00a0 00       		.byte	0
 2275 00a1 00000000 		.4byte	.LEHB12-.LFB35
 2276 00a5 00000000 		.4byte	.LEHE12-.LEHB12
 2277 00a9 00000000 		.4byte	0
 2278 00ad 00       		.byte	0
 2279 00ae 00000000 		.4byte	.LEHB13-.LFB35
 2280 00b2 00000000 		.4byte	.LEHE13-.LEHB13
 2281 00b6 00000000 		.4byte	0
 2282 00ba 00       		.byte	0
 2283 00bb 00000000 		.4byte	.LEHB14-.LFB35
 2284 00bf 00000000 		.4byte	.LEHE14-.LEHB14
 2285 00c3 00000000 		.4byte	0
 2286 00c7 00       		.byte	0
 2287 00c8 00000000 		.4byte	.LEHB15-.LFB35
 2288 00cc 00000000 		.4byte	.LEHE15-.LEHB15
 2289 00d0 00000000 		.4byte	0
 2290 00d4 00       		.byte	0
 2291              		.text
 2293              		.align	2
 2294              		.globl	_Z12testSleepingv
 2296              	_Z12testSleepingv:
 2297              	.LFB37:
  26:src/user/tests/ThreadSleep_C_API_test.hpp **** 
  27:src/user/tests/ThreadSleep_C_API_test.hpp **** void testSleeping() {
 2298              		.loc 3 27 21 is_stmt 1
 2299              		.cfi_startproc
 2300 0d54 130101FC 		addi	sp,sp,-64
 2301              		.cfi_def_cfa_offset 64
 2302 0d58 233C1102 		sd	ra,56(sp)
 2303 0d5c 23388102 		sd	s0,48(sp)
 2304 0d60 23349102 		sd	s1,40(sp)
 2305              		.cfi_offset 1, -8
 2306              		.cfi_offset 8, -16
 2307              		.cfi_offset 9, -24
 2308 0d64 13040104 		addi	s0,sp,64
 2309              		.cfi_def_cfa 8, 0
  28:src/user/tests/ThreadSleep_C_API_test.hpp ****     const int sleepy_thread_count = 2;
 2310              		.loc 3 28 5
 2311              	.LVL262:
  29:src/user/tests/ThreadSleep_C_API_test.hpp ****     time_t sleep_times[sleepy_thread_count] = {10, 20};
 2312              		.loc 3 29 5
 2313              		.loc 3 29 12 is_stmt 0
 2314 0d68 9307A000 		li	a5,10
 2315 0d6c 2338F4FC 		sd	a5,-48(s0)
 2316 0d70 93074001 		li	a5,20
GAS LISTING /tmp/ccZychqD.s 			page 56


 2317 0d74 233CF4FC 		sd	a5,-40(s0)
  30:src/user/tests/ThreadSleep_C_API_test.hpp ****     thread_t sleepyThread[sleepy_thread_count];
 2318              		.loc 3 30 5 is_stmt 1
  31:src/user/tests/ThreadSleep_C_API_test.hpp **** 
  32:src/user/tests/ThreadSleep_C_API_test.hpp ****     for (int i = 0; i < sleepy_thread_count; i++) {
 2319              		.loc 3 32 5
 2320              	.LVL263:
 2321              	.LBB64:
 2322              		.loc 3 32 14 is_stmt 0
 2323 0d78 93040000 		li	s1,0
 2324 0d7c 6F00C002 		j	.L129
 2325              	.LVL264:
 2326              	.L132:
  33:src/user/tests/ThreadSleep_C_API_test.hpp ****         thread_create(&sleepyThread[i], sleepyRun, sleep_times + i);
 2327              		.loc 3 33 9 is_stmt 1
 2328              		.loc 3 33 64 is_stmt 0
 2329 0d80 93973400 		slli	a5,s1,3
 2330              		.loc 3 33 22
 2331 0d84 130604FD 		addi	a2,s0,-48
 2332 0d88 3306F600 		add	a2,a2,a5
 2333 0d8c 97050000 		lla	a1,_Z9sleepyRunPv
 2333      93850500 
 2334 0d94 130504FC 		addi	a0,s0,-64
 2335 0d98 3305F500 		add	a0,a0,a5
 2336 0d9c 97000000 		call	_Z13thread_createPP7_threadPFvPvES2_@plt
 2336      E7800000 
 2337              	.LVL265:
  32:src/user/tests/ThreadSleep_C_API_test.hpp ****         thread_create(&sleepyThread[i], sleepyRun, sleep_times + i);
 2338              		.loc 3 32 5 is_stmt 1
 2339 0da4 9B841400 		addiw	s1,s1,1
 2340              	.LVL266:
 2341              	.L129:
  32:src/user/tests/ThreadSleep_C_API_test.hpp ****         thread_create(&sleepyThread[i], sleepyRun, sleep_times + i);
 2342              		.loc 3 32 23 discriminator 1
 2343 0da8 93071000 		li	a5,1
 2344 0dac E3DA97FC 		ble	s1,a5,.L132
 2345              	.L130:
 2346              	.LBE64:
  34:src/user/tests/ThreadSleep_C_API_test.hpp ****     }
  35:src/user/tests/ThreadSleep_C_API_test.hpp **** 
  36:src/user/tests/ThreadSleep_C_API_test.hpp ****     while (!(finished[0] && finished[1])) {}
 2347              		.loc 3 36 5
 2348              		.loc 3 36 12
 2349              		.loc 3 36 24 is_stmt 0
 2350 0db0 97070000 		lbu	a5,.LANCHOR0+8
 2350      83C70700 
 2351              		.loc 3 36 12
 2352 0db8 E38C07FE 		beqz	a5,.L130
 2353              		.loc 3 36 39 discriminator 1
 2354 0dbc 97070000 		lbu	a5,.LANCHOR0+9
 2354      83C70700 
 2355              		.loc 3 36 12 discriminator 1
 2356 0dc4 E38607FE 		beqz	a5,.L130
  37:src/user/tests/ThreadSleep_C_API_test.hpp **** }
 2357              		.loc 3 37 1
 2358 0dc8 83308103 		ld	ra,56(sp)
 2359              		.cfi_restore 1
GAS LISTING /tmp/ccZychqD.s 			page 57


 2360 0dcc 03340103 		ld	s0,48(sp)
 2361              		.cfi_restore 8
 2362              		.cfi_def_cfa 2, 64
 2363 0dd0 83348102 		ld	s1,40(sp)
 2364              		.cfi_restore 9
 2365              	.LVL267:
 2366 0dd4 13010104 		addi	sp,sp,64
 2367              		.cfi_def_cfa_offset 0
 2368 0dd8 67800000 		jr	ra
 2369              		.cfi_endproc
 2370              	.LFE37:
 2372              		.align	2
 2373              		.globl	_Z8userMainv
 2375              	_Z8userMainv:
 2376              	.LFB38:
 2377              		.file 4 "src/user/tests/userMain.cpp"
   1:src/user/tests/userMain.cpp **** #include "Threads_C_API_test.hpp" // zadatak 2, niti C API i sinhrona promena konteksta
   2:src/user/tests/userMain.cpp **** //#include "Threads_CPP_API_test.hpp" // zadatak 2., niti CPP API i sinhrona promena konteksta
   3:src/user/tests/userMain.cpp **** //
   4:src/user/tests/userMain.cpp **** //#include "ConsumerProducer_C_API_test.h" // zadatak 3., kompletan C API sa semaforima, sinhrona p
   5:src/user/tests/userMain.cpp **** #include "ConsumerProducer_CPP_Sync_API_test.hpp" // zadatak 3., kompletan CPP API sa semaforima, s
   6:src/user/tests/userMain.cpp **** 
   7:src/user/tests/userMain.cpp **** #include "ThreadSleep_C_API_test.hpp" // thread_sleep test C API
   8:src/user/tests/userMain.cpp **** //#include "ConsumerProducer_CPP_API_test.hpp" // zadatak 4. CPP API i asinhrona promena konteksta
   9:src/user/tests/userMain.cpp **** 
  10:src/user/tests/userMain.cpp **** 
  11:src/user/tests/userMain.cpp **** void userMain() {
 2378              		.loc 4 11 17 is_stmt 1
 2379              		.cfi_startproc
 2380 0ddc 130101FF 		addi	sp,sp,-16
 2381              		.cfi_def_cfa_offset 16
 2382 0de0 23341100 		sd	ra,8(sp)
 2383 0de4 23308100 		sd	s0,0(sp)
 2384              		.cfi_offset 1, -8
 2385              		.cfi_offset 8, -16
 2386 0de8 13040101 		addi	s0,sp,16
 2387              		.cfi_def_cfa 8, 0
  12:src/user/tests/userMain.cpp **** //    Threads_C_API_test(); // zadatak 2., niti C API i sinhrona promena konteksta
  13:src/user/tests/userMain.cpp **** //    Threads_CPP_API_test(); // zadatak 2., niti CPP API i sinhrona promena konteksta
  14:src/user/tests/userMain.cpp **** 
  15:src/user/tests/userMain.cpp **** //    producerConsumer_C_API(); // zadatak 3., kompletan C API sa semaforima, sinhrona promena kont
  16:src/user/tests/userMain.cpp ****     producerConsumer_CPP_Sync_API(); // zadatak 3., kompletan CPP API sa semaforima, sinhrona prome
 2388              		.loc 4 16 5
 2389              		.loc 4 16 34 is_stmt 0
 2390 0dec 97000000 		call	_Z29producerConsumer_CPP_Sync_APIv
 2390      E7800000 
 2391              	.LVL268:
  17:src/user/tests/userMain.cpp **** 
  18:src/user/tests/userMain.cpp **** //    testSleeping(); // thread_sleep test C API
  19:src/user/tests/userMain.cpp **** //    ConsumerProducerCPP::testConsumerProducer(); // zadatak 4. CPP API i asinhrona promena kontek
  20:src/user/tests/userMain.cpp **** 
  21:src/user/tests/userMain.cpp **** }...
 2392              		.loc 4 21 1
 2393 0df4 83308100 		ld	ra,8(sp)
 2394              		.cfi_restore 1
 2395 0df8 03340100 		ld	s0,0(sp)
 2396              		.cfi_restore 8
GAS LISTING /tmp/ccZychqD.s 			page 58


 2397              		.cfi_def_cfa 2, 16
 2398 0dfc 13010101 		addi	sp,sp,16
 2399              		.cfi_def_cfa_offset 0
 2400 0e00 67800000 		jr	ra
 2401              		.cfi_endproc
 2402              	.LFE38:
 2404              		.weak	_ZTV16ProducerKeyboard
 2405              		.section	.data.rel.ro.local._ZTV16ProducerKeyboard,"awG",@progbits,_ZTV16ProducerKeyboard,comdat
 2406              		.align	3
 2409              	_ZTV16ProducerKeyboard:
 2410 0000 00000000 		.dword	0
 2410      00000000 
 2411 0008 00000000 		.dword	0
 2411      00000000 
 2412 0010 00000000 		.dword	_ZN16ProducerKeyboardD1Ev
 2412      00000000 
 2413 0018 00000000 		.dword	_ZN16ProducerKeyboardD0Ev
 2413      00000000 
 2414 0020 00000000 		.dword	_ZN16ProducerKeyboard3runEv
 2414      00000000 
 2415              		.weak	_ZTV8Producer
 2416              		.section	.data.rel.ro.local._ZTV8Producer,"awG",@progbits,_ZTV8Producer,comdat
 2417              		.align	3
 2420              	_ZTV8Producer:
 2421 0000 00000000 		.dword	0
 2421      00000000 
 2422 0008 00000000 		.dword	0
 2422      00000000 
 2423 0010 00000000 		.dword	_ZN8ProducerD1Ev
 2423      00000000 
 2424 0018 00000000 		.dword	_ZN8ProducerD0Ev
 2424      00000000 
 2425 0020 00000000 		.dword	_ZN8Producer3runEv
 2425      00000000 
 2426              		.weak	_ZTV8Consumer
 2427              		.section	.data.rel.ro.local._ZTV8Consumer,"awG",@progbits,_ZTV8Consumer,comdat
 2428              		.align	3
 2431              	_ZTV8Consumer:
 2432 0000 00000000 		.dword	0
 2432      00000000 
 2433 0008 00000000 		.dword	0
 2433      00000000 
 2434 0010 00000000 		.dword	_ZN8ConsumerD1Ev
 2434      00000000 
 2435 0018 00000000 		.dword	_ZN8ConsumerD0Ev
 2435      00000000 
 2436 0020 00000000 		.dword	_ZN8Consumer3runEv
 2436      00000000 
 2437              		.globl	finished
 2438              		.globl	threadEnd
 2439              		.globl	waitForAll
 2440              		.globl	finishedD
 2441              		.globl	finishedC
 2442              		.globl	finishedB
 2443              		.globl	finishedA
 2444              		.bss
 2445              		.align	3
GAS LISTING /tmp/ccZychqD.s 			page 59


 2446              		.set	.LANCHOR0,. + 0
 2449              	finishedA:
 2450 0000 00       		.zero	1
 2453              	finishedB:
 2454 0001 00       		.zero	1
 2455 0002 00000000 		.zero	6
 2455      0000
 2458              	finished:
 2459 0008 0000     		.zero	2
 2462              	finishedC:
 2463 000a 00       		.zero	1
 2466              	finishedD:
 2467 000b 00       		.zero	1
 2470              	threadEnd:
 2471 000c 00000000 		.zero	4
 2474              	waitForAll:
 2475 0010 00000000 		.zero	8
 2475      00000000 
 2476              		.text
 2477              	.Letext0:
 2478              		.file 5 "src/user/tests/../../../h/../lib/hw.h"
 2479              		.file 6 "src/user/tests/../../../h/../h/_thread.hpp"
 2480              		.file 7 "src/user/tests/../../../h/syscall_cpp.hpp"
 2481              		.file 8 "src/user/tests/buffer_CPP_API.hpp"
 2482              		.file 9 "src/user/tests/../../../h/syscall_c.h"
 2483              		.file 10 "src/user/tests/../../../h/printing.hpp"
 8174              		.align	3
 8177              	DW.ref.__gxx_personality_v0:
 8178 0000 00000000 		.dword	__gxx_personality_v0
 8178      00000000 
 8179              		.ident	"GCC: (Ubuntu 9.4.0-1ubuntu1~20.04) 9.4.0"
 8180              		.section	.note.GNU-stack,"",@progbits
GAS LISTING /tmp/ccZychqD.s 			page 60


DEFINED SYMBOLS
                            *ABS*:0000000000000000 userMain.cpp
     /tmp/ccZychqD.s:20     .text:0000000000000000 _Z11workerBodyAPv
     /tmp/ccZychqD.s:24     .text:0000000000000000 .L0 
     /tmp/ccZychqD.s:26     .text:0000000000000000 .L0 
     /tmp/ccZychqD.s:27     .text:0000000000000004 .L0 
     /tmp/ccZychqD.s:32     .text:0000000000000014 .L0 
     /tmp/ccZychqD.s:33     .text:0000000000000014 .L0 
     /tmp/ccZychqD.s:34     .text:0000000000000014 .L0 
     /tmp/ccZychqD.s:35     .text:0000000000000014 .L0 
     /tmp/ccZychqD.s:37     .text:0000000000000018 .L0 
     /tmp/ccZychqD.s:41     .text:0000000000000018 .L0 
     /tmp/ccZychqD.s:42     .text:0000000000000018 .L0 
     /tmp/ccZychqD.s:50     .text:0000000000000020 .L0 
     /tmp/ccZychqD.s:51     .text:0000000000000020 .L0 
     /tmp/ccZychqD.s:55     .text:0000000000000028 .L0 
     /tmp/ccZychqD.s:59     .text:000000000000002c .L0 
     /tmp/ccZychqD.s:65     .text:0000000000000038 .L0 
     /tmp/ccZychqD.s:69     .text:000000000000003c .L0 
     /tmp/ccZychqD.s:73     .text:0000000000000048 .L0 
     /tmp/ccZychqD.s:83     .text:0000000000000050 .L0 
     /tmp/ccZychqD.s:87     .text:0000000000000054 .L0 
     /tmp/ccZychqD.s:91     .text:000000000000005c .L0 
     /tmp/ccZychqD.s:92     .text:000000000000005c .L0 
     /tmp/ccZychqD.s:96     .text:000000000000006c .L0 
     /tmp/ccZychqD.s:97     .text:000000000000006c .L0 
     /tmp/ccZychqD.s:103    .text:0000000000000080 .L0 
     /tmp/ccZychqD.s:104    .text:0000000000000080 .L0 
     /tmp/ccZychqD.s:109    .text:0000000000000090 .L0 
     /tmp/ccZychqD.s:110    .text:0000000000000090 .L0 
     /tmp/ccZychqD.s:118    .text:0000000000000098 .L0 
     /tmp/ccZychqD.s:119    .text:0000000000000098 .L0 
     /tmp/ccZychqD.s:123    .text:00000000000000a8 .L0 
     /tmp/ccZychqD.s:124    .text:00000000000000a8 .L0 
     /tmp/ccZychqD.s:127    .text:00000000000000b4 .L0 
     /tmp/ccZychqD.s:128    .text:00000000000000b8 .L0 
     /tmp/ccZychqD.s:130    .text:00000000000000bc .L0 
     /tmp/ccZychqD.s:131    .text:00000000000000bc .L0 
     /tmp/ccZychqD.s:133    .text:00000000000000c0 .L0 
     /tmp/ccZychqD.s:135    .text:00000000000000c4 .L0 
     /tmp/ccZychqD.s:138    .text:00000000000000c8 .L0 
     /tmp/ccZychqD.s:140    .text:00000000000000cc .L0 
     /tmp/ccZychqD.s:154    .text:00000000000000cc _Z11workerBodyBPv
     /tmp/ccZychqD.s:157    .text:00000000000000cc .L0 
     /tmp/ccZychqD.s:159    .text:00000000000000cc .L0 
     /tmp/ccZychqD.s:160    .text:00000000000000d0 .L0 
     /tmp/ccZychqD.s:165    .text:00000000000000e0 .L0 
     /tmp/ccZychqD.s:166    .text:00000000000000e0 .L0 
     /tmp/ccZychqD.s:167    .text:00000000000000e0 .L0 
     /tmp/ccZychqD.s:168    .text:00000000000000e0 .L0 
     /tmp/ccZychqD.s:170    .text:00000000000000e4 .L0 
     /tmp/ccZychqD.s:174    .text:00000000000000e4 .L0 
     /tmp/ccZychqD.s:175    .text:00000000000000e4 .L0 
     /tmp/ccZychqD.s:183    .text:00000000000000ec .L0 
     /tmp/ccZychqD.s:184    .text:00000000000000ec .L0 
     /tmp/ccZychqD.s:188    .text:00000000000000f4 .L0 
     /tmp/ccZychqD.s:192    .text:00000000000000f8 .L0 
GAS LISTING /tmp/ccZychqD.s 			page 61


     /tmp/ccZychqD.s:198    .text:0000000000000104 .L0 
     /tmp/ccZychqD.s:202    .text:0000000000000108 .L0 
     /tmp/ccZychqD.s:206    .text:0000000000000114 .L0 
     /tmp/ccZychqD.s:216    .text:000000000000011c .L0 
     /tmp/ccZychqD.s:220    .text:0000000000000120 .L0 
     /tmp/ccZychqD.s:224    .text:0000000000000128 .L0 
     /tmp/ccZychqD.s:225    .text:0000000000000128 .L0 
     /tmp/ccZychqD.s:229    .text:0000000000000138 .L0 
     /tmp/ccZychqD.s:230    .text:0000000000000138 .L0 
     /tmp/ccZychqD.s:236    .text:000000000000014c .L0 
     /tmp/ccZychqD.s:237    .text:000000000000014c .L0 
     /tmp/ccZychqD.s:242    .text:000000000000015c .L0 
     /tmp/ccZychqD.s:243    .text:000000000000015c .L0 
     /tmp/ccZychqD.s:251    .text:0000000000000164 .L0 
     /tmp/ccZychqD.s:252    .text:0000000000000164 .L0 
     /tmp/ccZychqD.s:256    .text:0000000000000174 .L0 
     /tmp/ccZychqD.s:257    .text:0000000000000174 .L0 
     /tmp/ccZychqD.s:260    .text:0000000000000180 .L0 
     /tmp/ccZychqD.s:261    .text:0000000000000180 .L0 
     /tmp/ccZychqD.s:264    .text:0000000000000188 .L0 
     /tmp/ccZychqD.s:265    .text:000000000000018c .L0 
     /tmp/ccZychqD.s:267    .text:0000000000000190 .L0 
     /tmp/ccZychqD.s:268    .text:0000000000000190 .L0 
     /tmp/ccZychqD.s:270    .text:0000000000000194 .L0 
     /tmp/ccZychqD.s:272    .text:0000000000000198 .L0 
     /tmp/ccZychqD.s:275    .text:000000000000019c .L0 
     /tmp/ccZychqD.s:277    .text:00000000000001a0 .L0 
     /tmp/ccZychqD.s:284    .text._ZN8ConsumerD2Ev:0000000000000000 _ZN8ConsumerD2Ev
     /tmp/ccZychqD.s:288    .text._ZN8ConsumerD2Ev:0000000000000000 .L0 
     /tmp/ccZychqD.s:290    .text._ZN8ConsumerD2Ev:0000000000000000 .L0 
     /tmp/ccZychqD.s:291    .text._ZN8ConsumerD2Ev:0000000000000004 .L0 
     /tmp/ccZychqD.s:294    .text._ZN8ConsumerD2Ev:000000000000000c .L0 
     /tmp/ccZychqD.s:295    .text._ZN8ConsumerD2Ev:000000000000000c .L0 
     /tmp/ccZychqD.s:297    .text._ZN8ConsumerD2Ev:0000000000000010 .L0 
     /tmp/ccZychqD.s:2431   .data.rel.ro.local._ZTV8Consumer:0000000000000000 _ZTV8Consumer
     /tmp/ccZychqD.s:300    .text._ZN8ConsumerD2Ev:0000000000000010 .L0 
     /tmp/ccZychqD.s:306    .text._ZN8ConsumerD2Ev:0000000000000028 .L0 
     /tmp/ccZychqD.s:308    .text._ZN8ConsumerD2Ev:000000000000002c .L0 
     /tmp/ccZychqD.s:309    .text._ZN8ConsumerD2Ev:000000000000002c .L0 
     /tmp/ccZychqD.s:311    .text._ZN8ConsumerD2Ev:0000000000000030 .L0 
     /tmp/ccZychqD.s:313    .text._ZN8ConsumerD2Ev:0000000000000034 .L0 
     /tmp/ccZychqD.s:284    .text._ZN8ConsumerD2Ev:0000000000000000 _ZN8ConsumerD1Ev
     /tmp/ccZychqD.s:322    .text._ZN8ConsumerD0Ev:0000000000000000 _ZN8ConsumerD0Ev
     /tmp/ccZychqD.s:325    .text._ZN8ConsumerD0Ev:0000000000000000 .L0 
     /tmp/ccZychqD.s:327    .text._ZN8ConsumerD0Ev:0000000000000000 .L0 
     /tmp/ccZychqD.s:328    .text._ZN8ConsumerD0Ev:0000000000000004 .L0 
     /tmp/ccZychqD.s:332    .text._ZN8ConsumerD0Ev:0000000000000010 .L0 
     /tmp/ccZychqD.s:333    .text._ZN8ConsumerD0Ev:0000000000000010 .L0 
     /tmp/ccZychqD.s:334    .text._ZN8ConsumerD0Ev:0000000000000010 .L0 
     /tmp/ccZychqD.s:336    .text._ZN8ConsumerD0Ev:0000000000000014 .L0 
     /tmp/ccZychqD.s:342    .text._ZN8ConsumerD0Ev:0000000000000018 .L0 
     /tmp/ccZychqD.s:352    .text._ZN8ConsumerD0Ev:000000000000003c .L0 
     /tmp/ccZychqD.s:354    .text._ZN8ConsumerD0Ev:0000000000000040 .L0 
     /tmp/ccZychqD.s:355    .text._ZN8ConsumerD0Ev:0000000000000040 .L0 
     /tmp/ccZychqD.s:357    .text._ZN8ConsumerD0Ev:0000000000000044 .L0 
     /tmp/ccZychqD.s:360    .text._ZN8ConsumerD0Ev:0000000000000048 .L0 
     /tmp/ccZychqD.s:362    .text._ZN8ConsumerD0Ev:000000000000004c .L0 
GAS LISTING /tmp/ccZychqD.s 			page 62


     /tmp/ccZychqD.s:369    .text._ZN8ProducerD2Ev:0000000000000000 _ZN8ProducerD2Ev
     /tmp/ccZychqD.s:372    .text._ZN8ProducerD2Ev:0000000000000000 .L0 
     /tmp/ccZychqD.s:374    .text._ZN8ProducerD2Ev:0000000000000000 .L0 
     /tmp/ccZychqD.s:375    .text._ZN8ProducerD2Ev:0000000000000004 .L0 
     /tmp/ccZychqD.s:378    .text._ZN8ProducerD2Ev:000000000000000c .L0 
     /tmp/ccZychqD.s:379    .text._ZN8ProducerD2Ev:000000000000000c .L0 
     /tmp/ccZychqD.s:381    .text._ZN8ProducerD2Ev:0000000000000010 .L0 
     /tmp/ccZychqD.s:2420   .data.rel.ro.local._ZTV8Producer:0000000000000000 _ZTV8Producer
     /tmp/ccZychqD.s:384    .text._ZN8ProducerD2Ev:0000000000000010 .L0 
     /tmp/ccZychqD.s:390    .text._ZN8ProducerD2Ev:0000000000000028 .L0 
     /tmp/ccZychqD.s:392    .text._ZN8ProducerD2Ev:000000000000002c .L0 
     /tmp/ccZychqD.s:393    .text._ZN8ProducerD2Ev:000000000000002c .L0 
     /tmp/ccZychqD.s:395    .text._ZN8ProducerD2Ev:0000000000000030 .L0 
     /tmp/ccZychqD.s:397    .text._ZN8ProducerD2Ev:0000000000000034 .L0 
     /tmp/ccZychqD.s:369    .text._ZN8ProducerD2Ev:0000000000000000 _ZN8ProducerD1Ev
     /tmp/ccZychqD.s:406    .text._ZN8ProducerD0Ev:0000000000000000 _ZN8ProducerD0Ev
     /tmp/ccZychqD.s:409    .text._ZN8ProducerD0Ev:0000000000000000 .L0 
     /tmp/ccZychqD.s:411    .text._ZN8ProducerD0Ev:0000000000000000 .L0 
     /tmp/ccZychqD.s:412    .text._ZN8ProducerD0Ev:0000000000000004 .L0 
     /tmp/ccZychqD.s:416    .text._ZN8ProducerD0Ev:0000000000000010 .L0 
     /tmp/ccZychqD.s:417    .text._ZN8ProducerD0Ev:0000000000000010 .L0 
     /tmp/ccZychqD.s:418    .text._ZN8ProducerD0Ev:0000000000000010 .L0 
     /tmp/ccZychqD.s:420    .text._ZN8ProducerD0Ev:0000000000000014 .L0 
     /tmp/ccZychqD.s:426    .text._ZN8ProducerD0Ev:0000000000000018 .L0 
     /tmp/ccZychqD.s:436    .text._ZN8ProducerD0Ev:000000000000003c .L0 
     /tmp/ccZychqD.s:438    .text._ZN8ProducerD0Ev:0000000000000040 .L0 
     /tmp/ccZychqD.s:439    .text._ZN8ProducerD0Ev:0000000000000040 .L0 
     /tmp/ccZychqD.s:441    .text._ZN8ProducerD0Ev:0000000000000044 .L0 
     /tmp/ccZychqD.s:444    .text._ZN8ProducerD0Ev:0000000000000048 .L0 
     /tmp/ccZychqD.s:446    .text._ZN8ProducerD0Ev:000000000000004c .L0 
     /tmp/ccZychqD.s:453    .text._ZN16ProducerKeyboardD2Ev:0000000000000000 _ZN16ProducerKeyboardD2Ev
     /tmp/ccZychqD.s:456    .text._ZN16ProducerKeyboardD2Ev:0000000000000000 .L0 
     /tmp/ccZychqD.s:458    .text._ZN16ProducerKeyboardD2Ev:0000000000000000 .L0 
     /tmp/ccZychqD.s:459    .text._ZN16ProducerKeyboardD2Ev:0000000000000004 .L0 
     /tmp/ccZychqD.s:462    .text._ZN16ProducerKeyboardD2Ev:000000000000000c .L0 
     /tmp/ccZychqD.s:463    .text._ZN16ProducerKeyboardD2Ev:000000000000000c .L0 
     /tmp/ccZychqD.s:465    .text._ZN16ProducerKeyboardD2Ev:0000000000000010 .L0 
     /tmp/ccZychqD.s:2409   .data.rel.ro.local._ZTV16ProducerKeyboard:0000000000000000 _ZTV16ProducerKeyboard
     /tmp/ccZychqD.s:468    .text._ZN16ProducerKeyboardD2Ev:0000000000000010 .L0 
     /tmp/ccZychqD.s:474    .text._ZN16ProducerKeyboardD2Ev:0000000000000028 .L0 
     /tmp/ccZychqD.s:476    .text._ZN16ProducerKeyboardD2Ev:000000000000002c .L0 
     /tmp/ccZychqD.s:477    .text._ZN16ProducerKeyboardD2Ev:000000000000002c .L0 
     /tmp/ccZychqD.s:479    .text._ZN16ProducerKeyboardD2Ev:0000000000000030 .L0 
     /tmp/ccZychqD.s:481    .text._ZN16ProducerKeyboardD2Ev:0000000000000034 .L0 
     /tmp/ccZychqD.s:453    .text._ZN16ProducerKeyboardD2Ev:0000000000000000 _ZN16ProducerKeyboardD1Ev
     /tmp/ccZychqD.s:490    .text._ZN16ProducerKeyboardD0Ev:0000000000000000 _ZN16ProducerKeyboardD0Ev
     /tmp/ccZychqD.s:493    .text._ZN16ProducerKeyboardD0Ev:0000000000000000 .L0 
     /tmp/ccZychqD.s:495    .text._ZN16ProducerKeyboardD0Ev:0000000000000000 .L0 
     /tmp/ccZychqD.s:496    .text._ZN16ProducerKeyboardD0Ev:0000000000000004 .L0 
     /tmp/ccZychqD.s:500    .text._ZN16ProducerKeyboardD0Ev:0000000000000010 .L0 
     /tmp/ccZychqD.s:501    .text._ZN16ProducerKeyboardD0Ev:0000000000000010 .L0 
     /tmp/ccZychqD.s:502    .text._ZN16ProducerKeyboardD0Ev:0000000000000010 .L0 
     /tmp/ccZychqD.s:504    .text._ZN16ProducerKeyboardD0Ev:0000000000000014 .L0 
     /tmp/ccZychqD.s:510    .text._ZN16ProducerKeyboardD0Ev:0000000000000018 .L0 
     /tmp/ccZychqD.s:520    .text._ZN16ProducerKeyboardD0Ev:000000000000003c .L0 
     /tmp/ccZychqD.s:522    .text._ZN16ProducerKeyboardD0Ev:0000000000000040 .L0 
     /tmp/ccZychqD.s:523    .text._ZN16ProducerKeyboardD0Ev:0000000000000040 .L0 
GAS LISTING /tmp/ccZychqD.s 			page 63


     /tmp/ccZychqD.s:525    .text._ZN16ProducerKeyboardD0Ev:0000000000000044 .L0 
     /tmp/ccZychqD.s:528    .text._ZN16ProducerKeyboardD0Ev:0000000000000048 .L0 
     /tmp/ccZychqD.s:530    .text._ZN16ProducerKeyboardD0Ev:000000000000004c .L0 
     /tmp/ccZychqD.s:544    .text:00000000000001a0 _Z9sleepyRunPv
     /tmp/ccZychqD.s:548    .text:00000000000001a0 .L0 
     /tmp/ccZychqD.s:550    .text:00000000000001a0 .L0 
     /tmp/ccZychqD.s:551    .text:00000000000001a4 .L0 
     /tmp/ccZychqD.s:556    .text:00000000000001b4 .L0 
     /tmp/ccZychqD.s:557    .text:00000000000001b4 .L0 
     /tmp/ccZychqD.s:558    .text:00000000000001b4 .L0 
     /tmp/ccZychqD.s:559    .text:00000000000001b4 .L0 
     /tmp/ccZychqD.s:561    .text:00000000000001b8 .L0 
     /tmp/ccZychqD.s:563    .text:00000000000001b8 .L0 
     /tmp/ccZychqD.s:564    .text:00000000000001b8 .L0 
     /tmp/ccZychqD.s:567    .text:00000000000001bc .L0 
     /tmp/ccZychqD.s:568    .text:00000000000001bc .L0 
     /tmp/ccZychqD.s:572    .text:00000000000001c0 .L0 
     /tmp/ccZychqD.s:573    .text:00000000000001c0 .L0 
     /tmp/ccZychqD.s:577    .text:00000000000001c8 .L0 
     /tmp/ccZychqD.s:578    .text:00000000000001c8 .L0 
     /tmp/ccZychqD.s:582    .text:00000000000001d8 .L0 
     /tmp/ccZychqD.s:583    .text:00000000000001d8 .L0 
     /tmp/ccZychqD.s:589    .text:00000000000001ec .L0 
     /tmp/ccZychqD.s:590    .text:00000000000001ec .L0 
     /tmp/ccZychqD.s:594    .text:00000000000001fc .L0 
     /tmp/ccZychqD.s:595    .text:00000000000001fc .L0 
     /tmp/ccZychqD.s:599    .text:0000000000000208 .L0 
     /tmp/ccZychqD.s:602    .text:000000000000020c .L0 
     /tmp/ccZychqD.s:603    .text:000000000000020c .L0 
     /tmp/ccZychqD.s:607    .text:0000000000000214 .L0 
     /tmp/ccZychqD.s:609    .text:0000000000000218 .L0 
     /tmp/ccZychqD.s:614    .text:000000000000022c .L0 
     /tmp/ccZychqD.s:615    .text:0000000000000230 .L0 
     /tmp/ccZychqD.s:617    .text:0000000000000234 .L0 
     /tmp/ccZychqD.s:618    .text:0000000000000234 .L0 
     /tmp/ccZychqD.s:620    .text:0000000000000238 .L0 
     /tmp/ccZychqD.s:622    .text:000000000000023c .L0 
     /tmp/ccZychqD.s:624    .text:0000000000000240 .L0 
     /tmp/ccZychqD.s:626    .text:0000000000000244 .L0 
     /tmp/ccZychqD.s:632    .text:0000000000000244 _Z9fibonaccim
     /tmp/ccZychqD.s:635    .text:0000000000000244 .L0 
     /tmp/ccZychqD.s:637    .text:0000000000000244 .L0 
     /tmp/ccZychqD.s:638    .text:0000000000000248 .L0 
     /tmp/ccZychqD.s:643    .text:0000000000000258 .L0 
     /tmp/ccZychqD.s:644    .text:0000000000000258 .L0 
     /tmp/ccZychqD.s:645    .text:0000000000000258 .L0 
     /tmp/ccZychqD.s:646    .text:0000000000000258 .L0 
     /tmp/ccZychqD.s:648    .text:000000000000025c .L0 
     /tmp/ccZychqD.s:651    .text:0000000000000260 .L0 
     /tmp/ccZychqD.s:654    .text:0000000000000268 .L0 
     /tmp/ccZychqD.s:655    .text:0000000000000268 .L0 
     /tmp/ccZychqD.s:658    .text:0000000000000270 .L0 
     /tmp/ccZychqD.s:662    .text:0000000000000274 .L0 
     /tmp/ccZychqD.s:663    .text:0000000000000274 .L0 
     /tmp/ccZychqD.s:668    .text:0000000000000284 .L0 
     /tmp/ccZychqD.s:672    .text:0000000000000290 .L0 
     /tmp/ccZychqD.s:675    .text:0000000000000294 .L0 
GAS LISTING /tmp/ccZychqD.s 			page 64


     /tmp/ccZychqD.s:676    .text:0000000000000298 .L0 
     /tmp/ccZychqD.s:677    .text:0000000000000298 .L0 
     /tmp/ccZychqD.s:679    .text:000000000000029c .L0 
     /tmp/ccZychqD.s:680    .text:000000000000029c .L0 
     /tmp/ccZychqD.s:682    .text:00000000000002a0 .L0 
     /tmp/ccZychqD.s:685    .text:00000000000002a4 .L0 
     /tmp/ccZychqD.s:687    .text:00000000000002a8 .L0 
     /tmp/ccZychqD.s:691    .text:00000000000002ac .L0 
     /tmp/ccZychqD.s:693    .text:00000000000002ac .L0 
     /tmp/ccZychqD.s:694    .text:00000000000002ac .L0 
     /tmp/ccZychqD.s:697    .text:00000000000002b8 .L0 
     /tmp/ccZychqD.s:717    .text:00000000000002b8 _Z11workerBodyCPv
     /tmp/ccZychqD.s:720    .text:00000000000002b8 .L0 
     /tmp/ccZychqD.s:722    .text:00000000000002b8 .L0 
     /tmp/ccZychqD.s:723    .text:00000000000002bc .L0 
     /tmp/ccZychqD.s:728    .text:00000000000002cc .L0 
     /tmp/ccZychqD.s:729    .text:00000000000002cc .L0 
     /tmp/ccZychqD.s:730    .text:00000000000002cc .L0 
     /tmp/ccZychqD.s:731    .text:00000000000002cc .L0 
     /tmp/ccZychqD.s:733    .text:00000000000002d0 .L0 
     /tmp/ccZychqD.s:736    .text:00000000000002d0 .L0 
     /tmp/ccZychqD.s:737    .text:00000000000002d0 .L0 
     /tmp/ccZychqD.s:742    .text:00000000000002d8 .L0 
     /tmp/ccZychqD.s:743    .text:00000000000002d8 .L0 
     /tmp/ccZychqD.s:747    .text:00000000000002e8 .L0 
     /tmp/ccZychqD.s:748    .text:00000000000002e8 .L0 
     /tmp/ccZychqD.s:754    .text:00000000000002fc .L0 
     /tmp/ccZychqD.s:755    .text:00000000000002fc .L0 
     /tmp/ccZychqD.s:759    .text:000000000000030c .L0 
     /tmp/ccZychqD.s:765    .text:0000000000000314 .L0 
     /tmp/ccZychqD.s:766    .text:0000000000000314 .L0 
     /tmp/ccZychqD.s:769    .text:000000000000031c .L0 
     /tmp/ccZychqD.s:770    .text:000000000000031c .L0 
     /tmp/ccZychqD.s:774    .text:000000000000032c .L0 
src/user/tests/Threads_C_API_test.hpp:51     .text:000000000000032c .L0 
     /tmp/ccZychqD.s:780    .text:0000000000000330 .L0 
     /tmp/ccZychqD.s:782    .text:0000000000000330 .L0 
     /tmp/ccZychqD.s:785    .text:0000000000000338 .L0 
     /tmp/ccZychqD.s:786    .text:0000000000000338 .L0 
src/user/tests/Threads_C_API_test.hpp:55     .text:0000000000000338 .L0 
     /tmp/ccZychqD.s:793    .text:000000000000033c .L0 
     /tmp/ccZychqD.s:795    .text:000000000000033c .L0 
     /tmp/ccZychqD.s:799    .text:000000000000034c .L0 
     /tmp/ccZychqD.s:800    .text:000000000000034c .L0 
     /tmp/ccZychqD.s:806    .text:0000000000000360 .L0 
     /tmp/ccZychqD.s:807    .text:0000000000000360 .L0 
     /tmp/ccZychqD.s:811    .text:0000000000000370 .L0 
     /tmp/ccZychqD.s:812    .text:0000000000000370 .L0 
     /tmp/ccZychqD.s:818    .text:0000000000000380 .L0 
     /tmp/ccZychqD.s:819    .text:0000000000000380 .L0 
     /tmp/ccZychqD.s:824    .text:0000000000000390 .L0 
     /tmp/ccZychqD.s:825    .text:0000000000000390 .L0 
     /tmp/ccZychqD.s:831    .text:00000000000003a4 .L0 
     /tmp/ccZychqD.s:832    .text:00000000000003a4 .L0 
     /tmp/ccZychqD.s:838    .text:00000000000003b8 .L0 
     /tmp/ccZychqD.s:839    .text:00000000000003b8 .L0 
     /tmp/ccZychqD.s:843    .text:00000000000003c8 .L0 
GAS LISTING /tmp/ccZychqD.s 			page 65


     /tmp/ccZychqD.s:844    .text:00000000000003c8 .L0 
     /tmp/ccZychqD.s:850    .text:00000000000003dc .L0 
     /tmp/ccZychqD.s:851    .text:00000000000003dc .L0 
     /tmp/ccZychqD.s:855    .text:00000000000003ec .L0 
     /tmp/ccZychqD.s:861    .text:00000000000003f4 .L0 
     /tmp/ccZychqD.s:862    .text:00000000000003f4 .L0 
     /tmp/ccZychqD.s:865    .text:00000000000003fc .L0 
     /tmp/ccZychqD.s:866    .text:00000000000003fc .L0 
     /tmp/ccZychqD.s:870    .text:000000000000040c .L0 
     /tmp/ccZychqD.s:871    .text:000000000000040c .L0 
     /tmp/ccZychqD.s:874    .text:0000000000000418 .L0 
     /tmp/ccZychqD.s:875    .text:0000000000000418 .L0 
     /tmp/ccZychqD.s:878    .text:0000000000000420 .L0 
     /tmp/ccZychqD.s:879    .text:0000000000000424 .L0 
     /tmp/ccZychqD.s:881    .text:0000000000000428 .L0 
     /tmp/ccZychqD.s:882    .text:0000000000000428 .L0 
     /tmp/ccZychqD.s:884    .text:000000000000042c .L0 
     /tmp/ccZychqD.s:887    .text:0000000000000430 .L0 
     /tmp/ccZychqD.s:890    .text:0000000000000434 .L0 
     /tmp/ccZychqD.s:892    .text:0000000000000438 .L0 
     /tmp/ccZychqD.s:912    .text:0000000000000438 _Z11workerBodyDPv
     /tmp/ccZychqD.s:915    .text:0000000000000438 .L0 
     /tmp/ccZychqD.s:917    .text:0000000000000438 .L0 
     /tmp/ccZychqD.s:918    .text:000000000000043c .L0 
     /tmp/ccZychqD.s:923    .text:000000000000044c .L0 
     /tmp/ccZychqD.s:924    .text:000000000000044c .L0 
     /tmp/ccZychqD.s:925    .text:000000000000044c .L0 
     /tmp/ccZychqD.s:926    .text:000000000000044c .L0 
     /tmp/ccZychqD.s:928    .text:0000000000000450 .L0 
     /tmp/ccZychqD.s:931    .text:0000000000000450 .L0 
     /tmp/ccZychqD.s:932    .text:0000000000000450 .L0 
     /tmp/ccZychqD.s:937    .text:0000000000000458 .L0 
     /tmp/ccZychqD.s:938    .text:0000000000000458 .L0 
     /tmp/ccZychqD.s:942    .text:0000000000000468 .L0 
     /tmp/ccZychqD.s:943    .text:0000000000000468 .L0 
     /tmp/ccZychqD.s:949    .text:000000000000047c .L0 
     /tmp/ccZychqD.s:950    .text:000000000000047c .L0 
     /tmp/ccZychqD.s:954    .text:000000000000048c .L0 
     /tmp/ccZychqD.s:960    .text:0000000000000494 .L0 
     /tmp/ccZychqD.s:961    .text:0000000000000494 .L0 
     /tmp/ccZychqD.s:964    .text:000000000000049c .L0 
     /tmp/ccZychqD.s:965    .text:000000000000049c .L0 
     /tmp/ccZychqD.s:969    .text:00000000000004ac .L0 
src/user/tests/Threads_C_API_test.hpp:78     .text:00000000000004ac .L0 
     /tmp/ccZychqD.s:975    .text:00000000000004b0 .L0 
     /tmp/ccZychqD.s:977    .text:00000000000004b0 .L0 
     /tmp/ccZychqD.s:980    .text:00000000000004b8 .L0 
     /tmp/ccZychqD.s:981    .text:00000000000004b8 .L0 
     /tmp/ccZychqD.s:987    .text:00000000000004c8 .L0 
     /tmp/ccZychqD.s:988    .text:00000000000004c8 .L0 
     /tmp/ccZychqD.s:993    .text:00000000000004d8 .L0 
     /tmp/ccZychqD.s:994    .text:00000000000004d8 .L0 
     /tmp/ccZychqD.s:1000   .text:00000000000004ec .L0 
     /tmp/ccZychqD.s:1001   .text:00000000000004ec .L0 
     /tmp/ccZychqD.s:1007   .text:0000000000000500 .L0 
     /tmp/ccZychqD.s:1008   .text:0000000000000500 .L0 
     /tmp/ccZychqD.s:1012   .text:0000000000000510 .L0 
GAS LISTING /tmp/ccZychqD.s 			page 66


     /tmp/ccZychqD.s:1013   .text:0000000000000510 .L0 
     /tmp/ccZychqD.s:1019   .text:0000000000000524 .L0 
     /tmp/ccZychqD.s:1020   .text:0000000000000524 .L0 
     /tmp/ccZychqD.s:1024   .text:0000000000000534 .L0 
     /tmp/ccZychqD.s:1030   .text:000000000000053c .L0 
     /tmp/ccZychqD.s:1031   .text:000000000000053c .L0 
     /tmp/ccZychqD.s:1034   .text:0000000000000544 .L0 
     /tmp/ccZychqD.s:1035   .text:0000000000000544 .L0 
     /tmp/ccZychqD.s:1039   .text:0000000000000554 .L0 
     /tmp/ccZychqD.s:1040   .text:0000000000000554 .L0 
     /tmp/ccZychqD.s:1043   .text:0000000000000560 .L0 
     /tmp/ccZychqD.s:1044   .text:0000000000000560 .L0 
     /tmp/ccZychqD.s:1047   .text:0000000000000568 .L0 
     /tmp/ccZychqD.s:1048   .text:000000000000056c .L0 
     /tmp/ccZychqD.s:1050   .text:0000000000000570 .L0 
     /tmp/ccZychqD.s:1051   .text:0000000000000570 .L0 
     /tmp/ccZychqD.s:1053   .text:0000000000000574 .L0 
     /tmp/ccZychqD.s:1056   .text:0000000000000578 .L0 
     /tmp/ccZychqD.s:1059   .text:000000000000057c .L0 
     /tmp/ccZychqD.s:1061   .text:0000000000000580 .L0 
     /tmp/ccZychqD.s:1081   .text:0000000000000580 _Z18Threads_C_API_testv
     /tmp/ccZychqD.s:1084   .text:0000000000000580 .L0 
     /tmp/ccZychqD.s:1085   .text:0000000000000580 .L0 
     /tmp/ccZychqD.s:1086   .text:0000000000000584 .L0 
     /tmp/ccZychqD.s:1090   .text:0000000000000590 .L0 
     /tmp/ccZychqD.s:1091   .text:0000000000000590 .L0 
     /tmp/ccZychqD.s:1092   .text:0000000000000590 .L0 
     /tmp/ccZychqD.s:1094   .text:0000000000000594 .L0 
     /tmp/ccZychqD.s:1096   .text:0000000000000594 .L0 
     /tmp/ccZychqD.s:1097   .text:0000000000000594 .L0 
     /tmp/ccZychqD.s:1098   .text:0000000000000594 .L0 
     /tmp/ccZychqD.s:1104   .text:00000000000005ac .L0 
     /tmp/ccZychqD.s:1105   .text:00000000000005ac .L0 
     /tmp/ccZychqD.s:1109   .text:00000000000005bc .L0 
     /tmp/ccZychqD.s:1110   .text:00000000000005bc .L0 
     /tmp/ccZychqD.s:1116   .text:00000000000005d4 .L0 
     /tmp/ccZychqD.s:1117   .text:00000000000005d4 .L0 
     /tmp/ccZychqD.s:1121   .text:00000000000005e4 .L0 
     /tmp/ccZychqD.s:1122   .text:00000000000005e4 .L0 
     /tmp/ccZychqD.s:1128   .text:00000000000005fc .L0 
     /tmp/ccZychqD.s:1129   .text:00000000000005fc .L0 
     /tmp/ccZychqD.s:1133   .text:000000000000060c .L0 
     /tmp/ccZychqD.s:1134   .text:000000000000060c .L0 
     /tmp/ccZychqD.s:1140   .text:0000000000000624 .L0 
     /tmp/ccZychqD.s:1141   .text:0000000000000624 .L0 
     /tmp/ccZychqD.s:1147   .text:0000000000000638 .L0 
     /tmp/ccZychqD.s:1148   .text:0000000000000638 .L0 
     /tmp/ccZychqD.s:1152   .text:0000000000000640 .L0 
     /tmp/ccZychqD.s:1153   .text:0000000000000640 .L0 
     /tmp/ccZychqD.s:1156   .text:000000000000064c .L0 
     /tmp/ccZychqD.s:1159   .text:0000000000000658 .L0 
     /tmp/ccZychqD.s:1162   .text:0000000000000664 .L0 
     /tmp/ccZychqD.s:1166   .text:0000000000000670 .L0 
     /tmp/ccZychqD.s:1171   .text:0000000000000678 .L0 
     /tmp/ccZychqD.s:1175   .text:000000000000067c .L0 
     /tmp/ccZychqD.s:1179   .text:0000000000000684 .L0 
     /tmp/ccZychqD.s:1180   .text:0000000000000684 .L0 
GAS LISTING /tmp/ccZychqD.s 			page 67


     /tmp/ccZychqD.s:1182   .text:0000000000000688 .L0 
     /tmp/ccZychqD.s:1184   .text:000000000000068c .L0 
     /tmp/ccZychqD.s:1191   .text:0000000000000698 .L0 
     /tmp/ccZychqD.s:1192   .text:000000000000069c .L0 
     /tmp/ccZychqD.s:1194   .text:00000000000006a0 .L0 
     /tmp/ccZychqD.s:1195   .text:00000000000006a0 .L0 
     /tmp/ccZychqD.s:1197   .text:00000000000006a4 .L0 
     /tmp/ccZychqD.s:1200   .text:00000000000006a8 .L0 
     /tmp/ccZychqD.s:1202   .text:00000000000006ac .L0 
     /tmp/ccZychqD.s:1208   .text:00000000000006ac _ZN16ProducerKeyboard16producerKeyboardEPv
     /tmp/ccZychqD.s:1211   .text:00000000000006ac .L0 
     /tmp/ccZychqD.s:1213   .text:00000000000006ac .L0 
     /tmp/ccZychqD.s:1214   .text:00000000000006b0 .L0 
     /tmp/ccZychqD.s:1220   .text:00000000000006c4 .L0 
     /tmp/ccZychqD.s:1221   .text:00000000000006c4 .L0 
     /tmp/ccZychqD.s:1222   .text:00000000000006c4 .L0 
     /tmp/ccZychqD.s:1223   .text:00000000000006c4 .L0 
     /tmp/ccZychqD.s:1224   .text:00000000000006c4 .L0 
     /tmp/ccZychqD.s:1226   .text:00000000000006c8 .L0 
     /tmp/ccZychqD.s:1231   .text:00000000000006d0 .L0 
     /tmp/ccZychqD.s:1232   .text:00000000000006d0 .L0 
     /tmp/ccZychqD.s:1233   .text:00000000000006d0 .L0 
     /tmp/ccZychqD.s:1234   .text:00000000000006d0 .L0 
     /tmp/ccZychqD.s:1239   .text:00000000000006d8 .L0 
     /tmp/ccZychqD.s:1240   .text:00000000000006d8 .L0 
     /tmp/ccZychqD.s:1244   .text:00000000000006e0 .L0 
     /tmp/ccZychqD.s:1245   .text:00000000000006e0 .L0 
     /tmp/ccZychqD.s:1246   .text:00000000000006e0 .L0 
     /tmp/ccZychqD.s:1249   .text:00000000000006e8 .L0 
     /tmp/ccZychqD.s:1252   .text:00000000000006ec .L0 
     /tmp/ccZychqD.s:1255   .text:00000000000006f4 .L0 
     /tmp/ccZychqD.s:1256   .text:00000000000006f4 .L0 
     /tmp/ccZychqD.s:1260   .text:0000000000000700 .L0 
     /tmp/ccZychqD.s:1261   .text:0000000000000700 .L0 
     /tmp/ccZychqD.s:1265   .text:0000000000000708 .L0 
     /tmp/ccZychqD.s:1266   .text:0000000000000708 .L0 
     /tmp/ccZychqD.s:1268   .text:000000000000070c .L0 
     /tmp/ccZychqD.s:1272   .text:0000000000000718 .L0 
     /tmp/ccZychqD.s:1274   .text:000000000000071c .L0 
     /tmp/ccZychqD.s:1279   .text:0000000000000724 .L0 
     /tmp/ccZychqD.s:1280   .text:0000000000000724 .L0 
     /tmp/ccZychqD.s:1283   .text:0000000000000730 .L0 
     /tmp/ccZychqD.s:1285   .text:0000000000000734 .L0 
     /tmp/ccZychqD.s:1292   .text:0000000000000744 .L0 
     /tmp/ccZychqD.s:1293   .text:0000000000000744 .L0 
     /tmp/ccZychqD.s:1297   .text:0000000000000750 .L0 
     /tmp/ccZychqD.s:1298   .text:0000000000000754 .L0 
     /tmp/ccZychqD.s:1300   .text:0000000000000758 .L0 
     /tmp/ccZychqD.s:1301   .text:0000000000000758 .L0 
     /tmp/ccZychqD.s:1303   .text:000000000000075c .L0 
     /tmp/ccZychqD.s:1306   .text:0000000000000760 .L0 
     /tmp/ccZychqD.s:1309   .text:0000000000000764 .L0 
     /tmp/ccZychqD.s:1312   .text:0000000000000768 .L0 
     /tmp/ccZychqD.s:1314   .text:000000000000076c .L0 
     /tmp/ccZychqD.s:1321   .text._ZN16ProducerKeyboard3runEv:0000000000000000 _ZN16ProducerKeyboard3runEv
     /tmp/ccZychqD.s:1324   .text._ZN16ProducerKeyboard3runEv:0000000000000000 .L0 
     /tmp/ccZychqD.s:1326   .text._ZN16ProducerKeyboard3runEv:0000000000000000 .L0 
GAS LISTING /tmp/ccZychqD.s 			page 68


     /tmp/ccZychqD.s:1327   .text._ZN16ProducerKeyboard3runEv:0000000000000004 .L0 
     /tmp/ccZychqD.s:1330   .text._ZN16ProducerKeyboard3runEv:000000000000000c .L0 
     /tmp/ccZychqD.s:1331   .text._ZN16ProducerKeyboard3runEv:000000000000000c .L0 
     /tmp/ccZychqD.s:1333   .text._ZN16ProducerKeyboard3runEv:0000000000000010 .L0 
     /tmp/ccZychqD.s:1335   .text._ZN16ProducerKeyboard3runEv:0000000000000010 .L0 
     /tmp/ccZychqD.s:1336   .text._ZN16ProducerKeyboard3runEv:0000000000000010 .L0 
     /tmp/ccZychqD.s:1340   .text._ZN16ProducerKeyboard3runEv:000000000000001c .L0 
     /tmp/ccZychqD.s:1341   .text._ZN16ProducerKeyboard3runEv:0000000000000020 .L0 
     /tmp/ccZychqD.s:1343   .text._ZN16ProducerKeyboard3runEv:0000000000000024 .L0 
     /tmp/ccZychqD.s:1344   .text._ZN16ProducerKeyboard3runEv:0000000000000024 .L0 
     /tmp/ccZychqD.s:1346   .text._ZN16ProducerKeyboard3runEv:0000000000000028 .L0 
     /tmp/ccZychqD.s:1348   .text._ZN16ProducerKeyboard3runEv:000000000000002c .L0 
     /tmp/ccZychqD.s:1355   .text:000000000000076c _ZN8Producer8producerEPv
     /tmp/ccZychqD.s:1358   .text:000000000000076c .L0 
     /tmp/ccZychqD.s:1360   .text:000000000000076c .L0 
     /tmp/ccZychqD.s:1361   .text:0000000000000770 .L0 
     /tmp/ccZychqD.s:1366   .text:0000000000000780 .L0 
     /tmp/ccZychqD.s:1367   .text:0000000000000780 .L0 
     /tmp/ccZychqD.s:1368   .text:0000000000000780 .L0 
     /tmp/ccZychqD.s:1369   .text:0000000000000780 .L0 
     /tmp/ccZychqD.s:1371   .text:0000000000000784 .L0 
     /tmp/ccZychqD.s:1375   .text:0000000000000788 .L0 
     /tmp/ccZychqD.s:1376   .text:0000000000000788 .L0 
     /tmp/ccZychqD.s:1377   .text:0000000000000788 .L0 
     /tmp/ccZychqD.s:1382   .text:0000000000000790 .L0 
     /tmp/ccZychqD.s:1383   .text:0000000000000790 .L0 
     /tmp/ccZychqD.s:1387   .text:0000000000000798 .L0 
     /tmp/ccZychqD.s:1388   .text:0000000000000798 .L0 
     /tmp/ccZychqD.s:1391   .text:00000000000007a4 .L0 
     /tmp/ccZychqD.s:1392   .text:00000000000007a4 .L0 
     /tmp/ccZychqD.s:1394   .text:00000000000007a8 .L0 
     /tmp/ccZychqD.s:1399   .text:00000000000007b8 .L0 
     /tmp/ccZychqD.s:1400   .text:00000000000007b8 .L0 
     /tmp/ccZychqD.s:1404   .text:00000000000007c0 .L0 
     /tmp/ccZychqD.s:1405   .text:00000000000007c0 .L0 
     /tmp/ccZychqD.s:1407   .text:00000000000007c4 .L0 
     /tmp/ccZychqD.s:1411   .text:00000000000007d0 .L0 
     /tmp/ccZychqD.s:1413   .text:00000000000007d4 .L0 
     /tmp/ccZychqD.s:1418   .text:00000000000007dc .L0 
     /tmp/ccZychqD.s:1419   .text:00000000000007dc .L0 
     /tmp/ccZychqD.s:1423   .text:00000000000007e8 .L0 
     /tmp/ccZychqD.s:1424   .text:00000000000007ec .L0 
     /tmp/ccZychqD.s:1426   .text:00000000000007f0 .L0 
     /tmp/ccZychqD.s:1427   .text:00000000000007f0 .L0 
     /tmp/ccZychqD.s:1429   .text:00000000000007f4 .L0 
     /tmp/ccZychqD.s:1432   .text:00000000000007f8 .L0 
     /tmp/ccZychqD.s:1435   .text:00000000000007fc .L0 
     /tmp/ccZychqD.s:1437   .text:0000000000000800 .L0 
     /tmp/ccZychqD.s:1444   .text._ZN8Producer3runEv:0000000000000000 _ZN8Producer3runEv
     /tmp/ccZychqD.s:1447   .text._ZN8Producer3runEv:0000000000000000 .L0 
     /tmp/ccZychqD.s:1449   .text._ZN8Producer3runEv:0000000000000000 .L0 
     /tmp/ccZychqD.s:1450   .text._ZN8Producer3runEv:0000000000000004 .L0 
     /tmp/ccZychqD.s:1453   .text._ZN8Producer3runEv:000000000000000c .L0 
     /tmp/ccZychqD.s:1454   .text._ZN8Producer3runEv:000000000000000c .L0 
     /tmp/ccZychqD.s:1456   .text._ZN8Producer3runEv:0000000000000010 .L0 
     /tmp/ccZychqD.s:1458   .text._ZN8Producer3runEv:0000000000000010 .L0 
     /tmp/ccZychqD.s:1459   .text._ZN8Producer3runEv:0000000000000010 .L0 
GAS LISTING /tmp/ccZychqD.s 			page 69


     /tmp/ccZychqD.s:1463   .text._ZN8Producer3runEv:000000000000001c .L0 
     /tmp/ccZychqD.s:1464   .text._ZN8Producer3runEv:0000000000000020 .L0 
     /tmp/ccZychqD.s:1466   .text._ZN8Producer3runEv:0000000000000024 .L0 
     /tmp/ccZychqD.s:1467   .text._ZN8Producer3runEv:0000000000000024 .L0 
     /tmp/ccZychqD.s:1469   .text._ZN8Producer3runEv:0000000000000028 .L0 
     /tmp/ccZychqD.s:1471   .text._ZN8Producer3runEv:000000000000002c .L0 
     /tmp/ccZychqD.s:1478   .text:0000000000000800 _ZN8Consumer8consumerEPv
     /tmp/ccZychqD.s:1481   .text:0000000000000800 .L0 
     /tmp/ccZychqD.s:1483   .text:0000000000000800 .L0 
     /tmp/ccZychqD.s:1484   .text:0000000000000804 .L0 
     /tmp/ccZychqD.s:1491   .text:000000000000081c .L0 
     /tmp/ccZychqD.s:1492   .text:000000000000081c .L0 
     /tmp/ccZychqD.s:1493   .text:000000000000081c .L0 
     /tmp/ccZychqD.s:1494   .text:000000000000081c .L0 
     /tmp/ccZychqD.s:1495   .text:000000000000081c .L0 
     /tmp/ccZychqD.s:1496   .text:000000000000081c .L0 
     /tmp/ccZychqD.s:1498   .text:0000000000000820 .L0 
     /tmp/ccZychqD.s:1503   .text:0000000000000828 .L0 
     /tmp/ccZychqD.s:1504   .text:0000000000000828 .L0 
     /tmp/ccZychqD.s:1505   .text:0000000000000828 .L0 
     /tmp/ccZychqD.s:1511   .text:0000000000000830 .L0 
     /tmp/ccZychqD.s:1512   .text:0000000000000830 .L0 
     /tmp/ccZychqD.s:1518   .text:000000000000083c .L0 
     /tmp/ccZychqD.s:1519   .text:000000000000083c .L0 
     /tmp/ccZychqD.s:1525   .text:0000000000000848 .L0 
     /tmp/ccZychqD.s:1526   .text:0000000000000848 .L0 
     /tmp/ccZychqD.s:1530   .text:0000000000000854 .L0 
     /tmp/ccZychqD.s:1531   .text:0000000000000854 .L0 
     /tmp/ccZychqD.s:1535   .text:0000000000000860 .L0 
     /tmp/ccZychqD.s:1536   .text:0000000000000860 .L0 
     /tmp/ccZychqD.s:1540   .text:0000000000000868 .L0 
     /tmp/ccZychqD.s:1541   .text:0000000000000868 .L0 
     /tmp/ccZychqD.s:1546   .text:0000000000000874 .L0 
     /tmp/ccZychqD.s:1547   .text:0000000000000874 .L0 
     /tmp/ccZychqD.s:1549   .text:0000000000000878 .L0 
     /tmp/ccZychqD.s:1552   .text:0000000000000880 .L0 
     /tmp/ccZychqD.s:1554   .text:0000000000000884 .L0 
     /tmp/ccZychqD.s:1557   .text:0000000000000888 .L0 
     /tmp/ccZychqD.s:1558   .text:0000000000000888 .L0 
     /tmp/ccZychqD.s:1562   .text:0000000000000890 .L0 
     /tmp/ccZychqD.s:1568   .text:0000000000000898 .L0 
     /tmp/ccZychqD.s:1569   .text:0000000000000898 .L0 
     /tmp/ccZychqD.s:1571   .text:000000000000089c .L0 
     /tmp/ccZychqD.s:1575   .text:00000000000008a8 .L0 
     /tmp/ccZychqD.s:1576   .text:00000000000008a8 .L0 
     /tmp/ccZychqD.s:1583   .text:00000000000008b4 .L0 
     /tmp/ccZychqD.s:1584   .text:00000000000008b4 .L0 
     /tmp/ccZychqD.s:1585   .text:00000000000008b4 .L0 
     /tmp/ccZychqD.s:1587   .text:00000000000008b8 .L0 
     /tmp/ccZychqD.s:1591   .text:00000000000008c4 .L0 
     /tmp/ccZychqD.s:1593   .text:00000000000008c8 .L0 
     /tmp/ccZychqD.s:1594   .text:00000000000008c8 .L0 
     /tmp/ccZychqD.s:1598   .text:00000000000008d4 .L0 
     /tmp/ccZychqD.s:1599   .text:00000000000008d8 .L0 
     /tmp/ccZychqD.s:1601   .text:00000000000008dc .L0 
     /tmp/ccZychqD.s:1602   .text:00000000000008dc .L0 
     /tmp/ccZychqD.s:1604   .text:00000000000008e0 .L0 
GAS LISTING /tmp/ccZychqD.s 			page 70


     /tmp/ccZychqD.s:1606   .text:00000000000008e4 .L0 
     /tmp/ccZychqD.s:1609   .text:00000000000008e8 .L0 
     /tmp/ccZychqD.s:1612   .text:00000000000008ec .L0 
     /tmp/ccZychqD.s:1615   .text:00000000000008f0 .L0 
     /tmp/ccZychqD.s:1617   .text:00000000000008f4 .L0 
     /tmp/ccZychqD.s:1624   .text._ZN8Consumer3runEv:0000000000000000 _ZN8Consumer3runEv
     /tmp/ccZychqD.s:1627   .text._ZN8Consumer3runEv:0000000000000000 .L0 
     /tmp/ccZychqD.s:1629   .text._ZN8Consumer3runEv:0000000000000000 .L0 
     /tmp/ccZychqD.s:1630   .text._ZN8Consumer3runEv:0000000000000004 .L0 
     /tmp/ccZychqD.s:1633   .text._ZN8Consumer3runEv:000000000000000c .L0 
     /tmp/ccZychqD.s:1634   .text._ZN8Consumer3runEv:000000000000000c .L0 
     /tmp/ccZychqD.s:1636   .text._ZN8Consumer3runEv:0000000000000010 .L0 
     /tmp/ccZychqD.s:1638   .text._ZN8Consumer3runEv:0000000000000010 .L0 
     /tmp/ccZychqD.s:1639   .text._ZN8Consumer3runEv:0000000000000010 .L0 
     /tmp/ccZychqD.s:1643   .text._ZN8Consumer3runEv:000000000000001c .L0 
     /tmp/ccZychqD.s:1644   .text._ZN8Consumer3runEv:0000000000000020 .L0 
     /tmp/ccZychqD.s:1646   .text._ZN8Consumer3runEv:0000000000000024 .L0 
     /tmp/ccZychqD.s:1647   .text._ZN8Consumer3runEv:0000000000000024 .L0 
     /tmp/ccZychqD.s:1649   .text._ZN8Consumer3runEv:0000000000000028 .L0 
     /tmp/ccZychqD.s:1651   .text._ZN8Consumer3runEv:000000000000002c .L0 
     /tmp/ccZychqD.s:1680   .text:00000000000008f4 _Z29producerConsumer_CPP_Sync_APIv
     /tmp/ccZychqD.s:1683   .text:00000000000008f4 .L0 
     /tmp/ccZychqD.s:8177   .data.rel.local.DW.ref.__gxx_personality_v0:0000000000000000 DW.ref.__gxx_personality_v0
     /tmp/ccZychqD.s:1686   .text:00000000000008f4 .L0 
     /tmp/ccZychqD.s:1687   .text:00000000000008f8 .L0 
     /tmp/ccZychqD.s:1699   .text:0000000000000924 .L0 
     /tmp/ccZychqD.s:1700   .text:0000000000000924 .L0 
     /tmp/ccZychqD.s:1701   .text:0000000000000924 .L0 
     /tmp/ccZychqD.s:1702   .text:0000000000000924 .L0 
     /tmp/ccZychqD.s:1703   .text:0000000000000924 .L0 
     /tmp/ccZychqD.s:1704   .text:0000000000000924 .L0 
     /tmp/ccZychqD.s:1705   .text:0000000000000924 .L0 
     /tmp/ccZychqD.s:1706   .text:0000000000000924 .L0 
     /tmp/ccZychqD.s:1707   .text:0000000000000924 .L0 
     /tmp/ccZychqD.s:1708   .text:0000000000000924 .L0 
     /tmp/ccZychqD.s:1709   .text:0000000000000924 .L0 
     /tmp/ccZychqD.s:1711   .text:0000000000000928 .L0 
     /tmp/ccZychqD.s:1713   .text:0000000000000928 .L0 
     /tmp/ccZychqD.s:1715   .text:000000000000092c .L0 
     /tmp/ccZychqD.s:1716   .text:000000000000092c .L0 
     /tmp/ccZychqD.s:1717   .text:000000000000092c .L0 
     /tmp/ccZychqD.s:1718   .text:000000000000092c .L0 
     /tmp/ccZychqD.s:1723   .text:000000000000093c .L0 
     /tmp/ccZychqD.s:1724   .text:000000000000093c .L0 
     /tmp/ccZychqD.s:1730   .text:0000000000000950 .L0 
     /tmp/ccZychqD.s:1731   .text:0000000000000950 .L0 
     /tmp/ccZychqD.s:1737   .text:0000000000000960 .L0 
     /tmp/ccZychqD.s:1738   .text:0000000000000960 .L0 
     /tmp/ccZychqD.s:1742   .text:0000000000000970 .L0 
     /tmp/ccZychqD.s:1743   .text:0000000000000970 .L0 
     /tmp/ccZychqD.s:1748   .text:0000000000000980 .L0 
     /tmp/ccZychqD.s:1749   .text:0000000000000980 .L0 
     /tmp/ccZychqD.s:1755   .text:0000000000000990 .L0 
     /tmp/ccZychqD.s:1756   .text:0000000000000990 .L0 
     /tmp/ccZychqD.s:1760   .text:00000000000009a0 .L0 
     /tmp/ccZychqD.s:1761   .text:00000000000009a0 .L0 
     /tmp/ccZychqD.s:1767   .text:00000000000009b4 .L0 
GAS LISTING /tmp/ccZychqD.s 			page 71


     /tmp/ccZychqD.s:1768   .text:00000000000009b4 .L0 
     /tmp/ccZychqD.s:1772   .text:00000000000009c4 .L0 
     /tmp/ccZychqD.s:1773   .text:00000000000009c4 .L0 
     /tmp/ccZychqD.s:1779   .text:00000000000009d8 .L0 
     /tmp/ccZychqD.s:1780   .text:00000000000009d8 .L0 
     /tmp/ccZychqD.s:1784   .text:00000000000009e8 .L0 
     /tmp/ccZychqD.s:1786   .text:00000000000009ec .L0 
     /tmp/ccZychqD.s:1788   .text:00000000000009f0 .L0 
     /tmp/ccZychqD.s:1789   .text:00000000000009f0 .L0 
     /tmp/ccZychqD.s:1796   .text:0000000000000a04 .L0 
     /tmp/ccZychqD.s:1804   .text:0000000000000a14 .L0 
     /tmp/ccZychqD.s:1805   .text:0000000000000a14 .L0 
     /tmp/ccZychqD.s:1810   .text:0000000000000a24 .L0 
     /tmp/ccZychqD.s:1813   .text:0000000000000a28 .L0 
     /tmp/ccZychqD.s:1814   .text:0000000000000a28 .L0 
     /tmp/ccZychqD.s:1819   .text:0000000000000a38 .L0 
     /tmp/ccZychqD.s:1824   .text:0000000000000a40 .L0 
     /tmp/ccZychqD.s:1825   .text:0000000000000a40 .L0 
     /tmp/ccZychqD.s:1833   .text:0000000000000a54 .L0 
     /tmp/ccZychqD.s:1840   .text:0000000000000a60 .L0 
     /tmp/ccZychqD.s:1844   .text:0000000000000a6c .L0 
     /tmp/ccZychqD.s:1845   .text:0000000000000a6c .L0 
     /tmp/ccZychqD.s:1852   .text:0000000000000a80 .L0 
     /tmp/ccZychqD.s:1853   .text:0000000000000a80 .L0 
     /tmp/ccZychqD.s:1854   .text:0000000000000a80 .L0 
     /tmp/ccZychqD.s:1857   .text:0000000000000a84 .L0 
     /tmp/ccZychqD.s:1867   .text:0000000000000aa0 .L0 
     /tmp/ccZychqD.s:1868   .text:0000000000000aa0 .L0 
     /tmp/ccZychqD.s:1874   .text:0000000000000ab4 .L0 
     /tmp/ccZychqD.s:1875   .text:0000000000000ab4 .L0 
     /tmp/ccZychqD.s:1877   .text:0000000000000ab8 .L0 
     /tmp/ccZychqD.s:1878   .text:0000000000000ab8 .L0 
     /tmp/ccZychqD.s:1881   .text:0000000000000ac0 .L0 
     /tmp/ccZychqD.s:1882   .text:0000000000000ac0 .L0 
     /tmp/ccZychqD.s:1889   .text:0000000000000ad0 .L0 
     /tmp/ccZychqD.s:1891   .text:0000000000000ad4 .L0 
     /tmp/ccZychqD.s:1895   .text:0000000000000ae0 .L0 
     /tmp/ccZychqD.s:1901   .text:0000000000000ae4 .L0 
     /tmp/ccZychqD.s:1905   .text:0000000000000aec .L0 
     /tmp/ccZychqD.s:1913   .text:0000000000000afc .L0 
     /tmp/ccZychqD.s:1914   .text:0000000000000afc .L0 
     /tmp/ccZychqD.s:1920   .text:0000000000000b08 .L0 
     /tmp/ccZychqD.s:1927   .text:0000000000000b10 .L0 
     /tmp/ccZychqD.s:1935   .text:0000000000000b20 .L0 
     /tmp/ccZychqD.s:1940   .text:0000000000000b2c .L0 
     /tmp/ccZychqD.s:1941   .text:0000000000000b2c .L0 
     /tmp/ccZychqD.s:1944   .text:0000000000000b34 .L0 
     /tmp/ccZychqD.s:1948   .text:0000000000000b40 .L0 
     /tmp/ccZychqD.s:1952   .text:0000000000000b44 .L0 
     /tmp/ccZychqD.s:1954   .text:0000000000000b48 .L0 
     /tmp/ccZychqD.s:1955   .text:0000000000000b48 .L0 
     /tmp/ccZychqD.s:1961   .text:0000000000000b5c .L0 
     /tmp/ccZychqD.s:1962   .text:0000000000000b5c .L0 
     /tmp/ccZychqD.s:1964   .text:0000000000000b60 .L0 
     /tmp/ccZychqD.s:1965   .text:0000000000000b60 .L0 
     /tmp/ccZychqD.s:1968   .text:0000000000000b6c .L0 
     /tmp/ccZychqD.s:1970   .text:0000000000000b70 .L0 
GAS LISTING /tmp/ccZychqD.s 			page 72


     /tmp/ccZychqD.s:1971   .text:0000000000000b70 .L0 
     /tmp/ccZychqD.s:1977   .text:0000000000000b80 .L0 
     /tmp/ccZychqD.s:1979   .text:0000000000000b84 .L0 
     /tmp/ccZychqD.s:1983   .text:0000000000000b90 .L0 
     /tmp/ccZychqD.s:1989   .text:0000000000000b94 .L0 
     /tmp/ccZychqD.s:1998   .text:0000000000000ba0 .L0 
     /tmp/ccZychqD.s:1999   .text:0000000000000ba0 .L0 
     /tmp/ccZychqD.s:2006   .text:0000000000000bb0 .L0 
     /tmp/ccZychqD.s:2008   .text:0000000000000bb4 .L0 
     /tmp/ccZychqD.s:2012   .text:0000000000000bc0 .L0 
     /tmp/ccZychqD.s:2018   .text:0000000000000bc4 .L0 
     /tmp/ccZychqD.s:2022   .text:0000000000000bcc .L0 
     /tmp/ccZychqD.s:2030   .text:0000000000000bdc .L0 
     /tmp/ccZychqD.s:2038   .text:0000000000000bec .L0 
     /tmp/ccZychqD.s:2039   .text:0000000000000bec .L0 
     /tmp/ccZychqD.s:2043   .text:0000000000000bf4 .L0 
     /tmp/ccZychqD.s:2047   .text:0000000000000bf8 .L0 
     /tmp/ccZychqD.s:2049   .text:0000000000000bfc .L0 
     /tmp/ccZychqD.s:2050   .text:0000000000000bfc .L0 
     /tmp/ccZychqD.s:2054   .text:0000000000000c0c .L0 
     /tmp/ccZychqD.s:2062   .text:0000000000000c14 .L0 
     /tmp/ccZychqD.s:2068   .text:0000000000000c1c .L0 
     /tmp/ccZychqD.s:2072   .text:0000000000000c20 .L0 
     /tmp/ccZychqD.s:2074   .text:0000000000000c24 .L0 
     /tmp/ccZychqD.s:2075   .text:0000000000000c24 .L0 
     /tmp/ccZychqD.s:2079   .text:0000000000000c30 .L0 
     /tmp/ccZychqD.s:2081   .text:0000000000000c34 .L0 
     /tmp/ccZychqD.s:2089   .text:0000000000000c44 .L0 
     /tmp/ccZychqD.s:2090   .text:0000000000000c44 .L0 
     /tmp/ccZychqD.s:2092   .text:0000000000000c48 .L0 
     /tmp/ccZychqD.s:2099   .text:0000000000000c58 .L0 
     /tmp/ccZychqD.s:2100   .text:0000000000000c58 .L0 
     /tmp/ccZychqD.s:2102   .text:0000000000000c60 .L0 
     /tmp/ccZychqD.s:2104   .text:0000000000000c64 .L0 
     /tmp/ccZychqD.s:2110   .text:0000000000000c70 .L0 
     /tmp/ccZychqD.s:2111   .text:0000000000000c70 .L0 
     /tmp/ccZychqD.s:2113   .text:0000000000000c74 .L0 
     /tmp/ccZychqD.s:2125   .text:0000000000000c90 .L0 
     /tmp/ccZychqD.s:2126   .text:0000000000000c94 .L0 
     /tmp/ccZychqD.s:2127   .text:0000000000000c94 .L0 
     /tmp/ccZychqD.s:2129   .text:0000000000000c98 .L0 
     /tmp/ccZychqD.s:2131   .text:0000000000000c9c .L0 
     /tmp/ccZychqD.s:2133   .text:0000000000000ca0 .L0 
     /tmp/ccZychqD.s:2135   .text:0000000000000ca4 .L0 
     /tmp/ccZychqD.s:2138   .text:0000000000000ca8 .L0 
     /tmp/ccZychqD.s:2140   .text:0000000000000cac .L0 
     /tmp/ccZychqD.s:2142   .text:0000000000000cb0 .L0 
     /tmp/ccZychqD.s:2144   .text:0000000000000cb4 .L0 
     /tmp/ccZychqD.s:2146   .text:0000000000000cb8 .L0 
     /tmp/ccZychqD.s:2148   .text:0000000000000cbc .L0 
     /tmp/ccZychqD.s:2150   .text:0000000000000cc0 .L0 
     /tmp/ccZychqD.s:2152   .text:0000000000000cc4 .L0 
     /tmp/ccZychqD.s:2156   .text:0000000000000cc8 .L0 
     /tmp/ccZychqD.s:2160   .text:0000000000000ccc .L0 
     /tmp/ccZychqD.s:2172   .text:0000000000000ce8 .L0 
     /tmp/ccZychqD.s:2184   .text:0000000000000d04 .L0 
     /tmp/ccZychqD.s:2197   .text:0000000000000d20 .L0 
GAS LISTING /tmp/ccZychqD.s 			page 73


     /tmp/ccZychqD.s:2209   .text:0000000000000d3c .L0 
     /tmp/ccZychqD.s:2218   .text:0000000000000d54 .L0 
     /tmp/ccZychqD.s:2296   .text:0000000000000d54 _Z12testSleepingv
     /tmp/ccZychqD.s:2299   .text:0000000000000d54 .L0 
     /tmp/ccZychqD.s:2300   .text:0000000000000d54 .L0 
     /tmp/ccZychqD.s:2301   .text:0000000000000d58 .L0 
     /tmp/ccZychqD.s:2305   .text:0000000000000d64 .L0 
     /tmp/ccZychqD.s:2306   .text:0000000000000d64 .L0 
     /tmp/ccZychqD.s:2307   .text:0000000000000d64 .L0 
     /tmp/ccZychqD.s:2309   .text:0000000000000d68 .L0 
     /tmp/ccZychqD.s:2312   .text:0000000000000d68 .L0 
     /tmp/ccZychqD.s:2313   .text:0000000000000d68 .L0 
     /tmp/ccZychqD.s:2314   .text:0000000000000d68 .L0 
     /tmp/ccZychqD.s:2319   .text:0000000000000d78 .L0 
     /tmp/ccZychqD.s:2322   .text:0000000000000d78 .L0 
     /tmp/ccZychqD.s:2323   .text:0000000000000d78 .L0 
     /tmp/ccZychqD.s:2328   .text:0000000000000d80 .L0 
     /tmp/ccZychqD.s:2329   .text:0000000000000d80 .L0 
     /tmp/ccZychqD.s:2331   .text:0000000000000d84 .L0 
     /tmp/ccZychqD.s:2339   .text:0000000000000da4 .L0 
     /tmp/ccZychqD.s:2343   .text:0000000000000da8 .L0 
     /tmp/ccZychqD.s:2348   .text:0000000000000db0 .L0 
     /tmp/ccZychqD.s:2349   .text:0000000000000db0 .L0 
     /tmp/ccZychqD.s:2350   .text:0000000000000db0 .L0 
     /tmp/ccZychqD.s:2352   .text:0000000000000db8 .L0 
     /tmp/ccZychqD.s:2354   .text:0000000000000dbc .L0 
     /tmp/ccZychqD.s:2356   .text:0000000000000dc4 .L0 
     /tmp/ccZychqD.s:2358   .text:0000000000000dc8 .L0 
     /tmp/ccZychqD.s:2359   .text:0000000000000dcc .L0 
     /tmp/ccZychqD.s:2361   .text:0000000000000dd0 .L0 
     /tmp/ccZychqD.s:2362   .text:0000000000000dd0 .L0 
     /tmp/ccZychqD.s:2364   .text:0000000000000dd4 .L0 
     /tmp/ccZychqD.s:2367   .text:0000000000000dd8 .L0 
     /tmp/ccZychqD.s:2369   .text:0000000000000ddc .L0 
     /tmp/ccZychqD.s:2375   .text:0000000000000ddc _Z8userMainv
     /tmp/ccZychqD.s:2379   .text:0000000000000ddc .L0 
     /tmp/ccZychqD.s:2380   .text:0000000000000ddc .L0 
     /tmp/ccZychqD.s:2381   .text:0000000000000de0 .L0 
     /tmp/ccZychqD.s:2384   .text:0000000000000de8 .L0 
     /tmp/ccZychqD.s:2385   .text:0000000000000de8 .L0 
     /tmp/ccZychqD.s:2387   .text:0000000000000dec .L0 
     /tmp/ccZychqD.s:2389   .text:0000000000000dec .L0 
     /tmp/ccZychqD.s:2390   .text:0000000000000dec .L0 
     /tmp/ccZychqD.s:2393   .text:0000000000000df4 .L0 
     /tmp/ccZychqD.s:2394   .text:0000000000000df8 .L0 
     /tmp/ccZychqD.s:2396   .text:0000000000000dfc .L0 
     /tmp/ccZychqD.s:2397   .text:0000000000000dfc .L0 
     /tmp/ccZychqD.s:2399   .text:0000000000000e00 .L0 
     /tmp/ccZychqD.s:2401   .text:0000000000000e04 .L0 
     /tmp/ccZychqD.s:2458   .bss:0000000000000008 finished
     /tmp/ccZychqD.s:2470   .bss:000000000000000c threadEnd
     /tmp/ccZychqD.s:2474   .bss:0000000000000010 waitForAll
     /tmp/ccZychqD.s:2466   .bss:000000000000000b finishedD
     /tmp/ccZychqD.s:2462   .bss:000000000000000a finishedC
     /tmp/ccZychqD.s:2453   .bss:0000000000000001 finishedB
     /tmp/ccZychqD.s:2449   .bss:0000000000000000 finishedA
     /tmp/ccZychqD.s:2446   .bss:0000000000000000 .LANCHOR0
GAS LISTING /tmp/ccZychqD.s 			page 74


     /tmp/ccZychqD.s:2484   .text:0000000000000e04 .L0 
     /tmp/ccZychqD.s:318    .text._ZN8ConsumerD2Ev:0000000000000034 .L0 
     /tmp/ccZychqD.s:365    .text._ZN8ConsumerD0Ev:000000000000004c .L0 
     /tmp/ccZychqD.s:402    .text._ZN8ProducerD2Ev:0000000000000034 .L0 
     /tmp/ccZychqD.s:449    .text._ZN8ProducerD0Ev:000000000000004c .L0 
     /tmp/ccZychqD.s:486    .text._ZN16ProducerKeyboardD2Ev:0000000000000034 .L0 
     /tmp/ccZychqD.s:533    .text._ZN16ProducerKeyboardD0Ev:000000000000004c .L0 
     /tmp/ccZychqD.s:1351   .text._ZN16ProducerKeyboard3runEv:000000000000002c .L0 
     /tmp/ccZychqD.s:1474   .text._ZN8Producer3runEv:000000000000002c .L0 
     /tmp/ccZychqD.s:1654   .text._ZN8Consumer3runEv:000000000000002c .L0 
     /tmp/ccZychqD.s:8      .rodata.str1.8:0000000000000000 .LC0
     /tmp/ccZychqD.s:92     .text:000000000000005c .L0 
     /tmp/ccZychqD.s:11     .rodata.str1.8:0000000000000008 .LC1
     /tmp/ccZychqD.s:104    .text:0000000000000080 .L0 
     /tmp/ccZychqD.s:14     .rodata.str1.8:0000000000000010 .LC2
     /tmp/ccZychqD.s:119    .text:0000000000000098 .L0 
     /tmp/ccZychqD.s:125    .text:00000000000000ac .L0 
     /tmp/ccZychqD.s:145    .rodata.str1.8:0000000000000020 .LC3
     /tmp/ccZychqD.s:225    .text:0000000000000128 .L0 
     /tmp/ccZychqD.s:237    .text:000000000000014c .L0 
     /tmp/ccZychqD.s:148    .rodata.str1.8:0000000000000028 .LC4
     /tmp/ccZychqD.s:252    .text:0000000000000164 .L0 
     /tmp/ccZychqD.s:258    .text:0000000000000178 .L0 
     /tmp/ccZychqD.s:535    .rodata.str1.8:0000000000000038 .LC5
     /tmp/ccZychqD.s:578    .text:00000000000001c8 .L0 
     /tmp/ccZychqD.s:538    .rodata.str1.8:0000000000000040 .LC6
     /tmp/ccZychqD.s:590    .text:00000000000001ec .L0 
     /tmp/ccZychqD.s:609    .text:0000000000000218 .L0 
     /tmp/ccZychqD.s:702    .rodata.str1.8:0000000000000048 .LC7
     /tmp/ccZychqD.s:743    .text:00000000000002d8 .L0 
     /tmp/ccZychqD.s:755    .text:00000000000002fc .L0 
     /tmp/ccZychqD.s:705    .rodata.str1.8:0000000000000050 .LC8
     /tmp/ccZychqD.s:770    .text:000000000000031c .L0 
     /tmp/ccZychqD.s:708    .rodata.str1.8:0000000000000060 .LC9
     /tmp/ccZychqD.s:795    .text:000000000000033c .L0 
     /tmp/ccZychqD.s:807    .text:0000000000000360 .L0 
     /tmp/ccZychqD.s:711    .rodata.str1.8:0000000000000068 .LC10
     /tmp/ccZychqD.s:819    .text:0000000000000380 .L0 
     /tmp/ccZychqD.s:832    .text:00000000000003a4 .L0 
     /tmp/ccZychqD.s:839    .text:00000000000003b8 .L0 
     /tmp/ccZychqD.s:851    .text:00000000000003dc .L0 
     /tmp/ccZychqD.s:866    .text:00000000000003fc .L0 
     /tmp/ccZychqD.s:872    .text:0000000000000410 .L0 
     /tmp/ccZychqD.s:897    .rodata.str1.8:0000000000000078 .LC11
     /tmp/ccZychqD.s:938    .text:0000000000000458 .L0 
     /tmp/ccZychqD.s:950    .text:000000000000047c .L0 
     /tmp/ccZychqD.s:900    .rodata.str1.8:0000000000000080 .LC12
     /tmp/ccZychqD.s:965    .text:000000000000049c .L0 
     /tmp/ccZychqD.s:903    .rodata.str1.8:0000000000000090 .LC13
     /tmp/ccZychqD.s:988    .text:00000000000004c8 .L0 
     /tmp/ccZychqD.s:1001   .text:00000000000004ec .L0 
     /tmp/ccZychqD.s:1008   .text:0000000000000500 .L0 
     /tmp/ccZychqD.s:1020   .text:0000000000000524 .L0 
     /tmp/ccZychqD.s:906    .rodata.str1.8:00000000000000a0 .LC14
     /tmp/ccZychqD.s:1035   .text:0000000000000544 .L0 
     /tmp/ccZychqD.s:1041   .text:0000000000000558 .L0 
     /tmp/ccZychqD.s:1099   .text:0000000000000598 .L0 
GAS LISTING /tmp/ccZychqD.s 			page 75


     /tmp/ccZychqD.s:1066   .rodata.str1.8:00000000000000b0 .LC15
     /tmp/ccZychqD.s:1105   .text:00000000000005ac .L0 
     /tmp/ccZychqD.s:1111   .text:00000000000005c0 .L0 
     /tmp/ccZychqD.s:1069   .rodata.str1.8:00000000000000c8 .LC16
     /tmp/ccZychqD.s:1117   .text:00000000000005d4 .L0 
     /tmp/ccZychqD.s:1123   .text:00000000000005e8 .L0 
     /tmp/ccZychqD.s:1072   .rodata.str1.8:00000000000000e0 .LC17
     /tmp/ccZychqD.s:1129   .text:00000000000005fc .L0 
     /tmp/ccZychqD.s:1135   .text:0000000000000610 .L0 
     /tmp/ccZychqD.s:1075   .rodata.str1.8:00000000000000f8 .LC18
     /tmp/ccZychqD.s:1141   .text:0000000000000624 .L0 
     /tmp/ccZychqD.s:1153   .text:0000000000000640 .L0 
     /tmp/ccZychqD.s:1156   .text:000000000000064c .L0 
     /tmp/ccZychqD.s:1159   .text:0000000000000658 .L0 
     /tmp/ccZychqD.s:1162   .text:0000000000000664 .L0 
     /tmp/ccZychqD.s:1281   .text:0000000000000728 .L0 
     /tmp/ccZychqD.s:1388   .text:0000000000000798 .L0 
     /tmp/ccZychqD.s:1526   .text:0000000000000848 .L0 
     /tmp/ccZychqD.s:1656   .rodata.str1.8:0000000000000110 .LC19
     /tmp/ccZychqD.s:1718   .text:000000000000092c .L0 
     /tmp/ccZychqD.s:1659   .rodata.str1.8:0000000000000130 .LC20
     /tmp/ccZychqD.s:1738   .text:0000000000000960 .L0 
     /tmp/ccZychqD.s:1662   .rodata.str1.8:0000000000000150 .LC21
     /tmp/ccZychqD.s:1756   .text:0000000000000990 .L0 
     /tmp/ccZychqD.s:1665   .rodata.str1.8:0000000000000168 .LC22
     /tmp/ccZychqD.s:1768   .text:00000000000009b4 .L0 
     /tmp/ccZychqD.s:1668   .rodata.str1.8:0000000000000180 .LC23
     /tmp/ccZychqD.s:1780   .text:00000000000009d8 .L0 
     /tmp/ccZychqD.s:1671   .rodata.str1.8:0000000000000188 .LC24
     /tmp/ccZychqD.s:1805   .text:0000000000000a14 .L0 
     /tmp/ccZychqD.s:1674   .rodata.str1.8:00000000000001c8 .LC25
     /tmp/ccZychqD.s:1814   .text:0000000000000a28 .L0 
     /tmp/ccZychqD.s:1840   .text:0000000000000a60 .L0 
     /tmp/ccZychqD.s:1905   .text:0000000000000aec .L0 
     /tmp/ccZychqD.s:1927   .text:0000000000000b10 .L0 
     /tmp/ccZychqD.s:1965   .text:0000000000000b60 .L0 
     /tmp/ccZychqD.s:2022   .text:0000000000000bcc .L0 
     /tmp/ccZychqD.s:2050   .text:0000000000000bfc .L0 
     /tmp/ccZychqD.s:2100   .text:0000000000000c58 .L0 
     /tmp/ccZychqD.s:2333   .text:0000000000000d8c .L0 
     /tmp/ccZychqD.s:2350   .text:0000000000000db0 .L0 
     /tmp/ccZychqD.s:2354   .text:0000000000000dbc .L0 
     /tmp/ccZychqD.s:85     .text:0000000000000054 .L7
     /tmp/ccZychqD.s:77     .text:0000000000000050 .L3
     /tmp/ccZychqD.s:45     .text:0000000000000020 .L4
     /tmp/ccZychqD.s:66     .text:000000000000003c .L5
     /tmp/ccZychqD.s:113    .text:0000000000000098 .L2
     /tmp/ccZychqD.s:57     .text:000000000000002c .L6
     /tmp/ccZychqD.s:218    .text:0000000000000120 .L15
     /tmp/ccZychqD.s:210    .text:000000000000011c .L11
     /tmp/ccZychqD.s:178    .text:00000000000000ec .L12
     /tmp/ccZychqD.s:199    .text:0000000000000108 .L13
     /tmp/ccZychqD.s:246    .text:0000000000000164 .L10
     /tmp/ccZychqD.s:190    .text:00000000000000f8 .L14
     /tmp/ccZychqD.s:600    .text:000000000000020c .L30
     /tmp/ccZychqD.s:570    .text:00000000000001c0 .L31
     /tmp/ccZychqD.s:673    .text:0000000000000294 .L33
GAS LISTING /tmp/ccZychqD.s 			page 76


     /tmp/ccZychqD.s:690    .text:00000000000002ac .L38
     /tmp/ccZychqD.s:660    .text:0000000000000274 .L35
     /tmp/ccZychqD.s:763    .text:0000000000000314 .L41
     /tmp/ccZychqD.s:740    .text:00000000000002d8 .L45
     /tmp/ccZychqD.s:859    .text:00000000000003f4 .L43
     /tmp/ccZychqD.s:836    .text:00000000000003b8 .L46
     /tmp/ccZychqD.s:958    .text:0000000000000494 .L49
     /tmp/ccZychqD.s:935    .text:0000000000000458 .L53
     /tmp/ccZychqD.s:1028   .text:000000000000053c .L51
     /tmp/ccZychqD.s:1005   .text:0000000000000500 .L54
     /tmp/ccZychqD.s:1150   .text:0000000000000640 .L58
     /tmp/ccZychqD.s:1145   .text:0000000000000638 .L56
     /tmp/ccZychqD.s:1173   .text:000000000000067c .L57
     /tmp/ccZychqD.s:1188   .text:0000000000000698 .L55
     /tmp/ccZychqD.s:1169   .text:0000000000000678 .L60
     /tmp/ccZychqD.s:1242   .text:00000000000006e0 .L64
     /tmp/ccZychqD.s:1277   .text:0000000000000724 .L65
     /tmp/ccZychqD.s:1237   .text:00000000000006d8 .L68
     /tmp/ccZychqD.s:1385   .text:0000000000000798 .L72
     /tmp/ccZychqD.s:1416   .text:00000000000007dc .L73
     /tmp/ccZychqD.s:1380   .text:0000000000000790 .L76
     /tmp/ccZychqD.s:1522   .text:0000000000000848 .L80
     /tmp/ccZychqD.s:1555   .text:0000000000000888 .L82
     /tmp/ccZychqD.s:1580   .text:00000000000008b4 .L81
     /tmp/ccZychqD.s:1508   .text:0000000000000830 .L86
     /tmp/ccZychqD.s:1516   .text:000000000000083c .L87
     /tmp/ccZychqD.s:1564   .text:0000000000000898 .L88
     /tmp/ccZychqD.s:1802   .text:0000000000000a14 .L124
     /tmp/ccZychqD.s:1811   .text:0000000000000a28 .L125
     /tmp/ccZychqD.s:1821   .text:0000000000000a40 .L95
     /tmp/ccZychqD.s:1818   .text:0000000000000a38 .L93
     /tmp/ccZychqD.s:2123   .text:0000000000000c90 .L91
     /tmp/ccZychqD.s:1838   .text:0000000000000a60 .L96
     /tmp/ccZychqD.s:1909   .text:0000000000000afc .L97
     /tmp/ccZychqD.s:1950   .text:0000000000000b44 .L103
     /tmp/ccZychqD.s:2034   .text:0000000000000bec .L98
     /tmp/ccZychqD.s:1994   .text:0000000000000ba0 .L99
     /tmp/ccZychqD.s:1931   .text:0000000000000b20 .L100
     /tmp/ccZychqD.s:1923   .text:0000000000000b10 .L126
     /tmp/ccZychqD.s:2026   .text:0000000000000bdc .L102
     /tmp/ccZychqD.s:1938   .text:0000000000000b2c .L101
     /tmp/ccZychqD.s:2058   .text:0000000000000c14 .L117
     /tmp/ccZychqD.s:2045   .text:0000000000000bf8 .L105
     /tmp/ccZychqD.s:2070   .text:0000000000000c20 .L104
     /tmp/ccZychqD.s:2086   .text:0000000000000c44 .L106
     /tmp/ccZychqD.s:2066   .text:0000000000000c1c .L107
     /tmp/ccZychqD.s:2097   .text:0000000000000c58 .L108
     /tmp/ccZychqD.s:2108   .text:0000000000000c70 .L109
     /tmp/ccZychqD.s:2120   .text:0000000000000c8c .L110
     /tmp/ccZychqD.s:2341   .text:0000000000000da8 .L129
     /tmp/ccZychqD.s:2326   .text:0000000000000d80 .L132
     /tmp/ccZychqD.s:2345   .text:0000000000000db0 .L130
     /tmp/ccZychqD.s:300    .text._ZN8ConsumerD2Ev:0000000000000010 .L0 
     /tmp/ccZychqD.s:342    .text._ZN8ConsumerD0Ev:0000000000000018 .L0 
     /tmp/ccZychqD.s:384    .text._ZN8ProducerD2Ev:0000000000000010 .L0 
     /tmp/ccZychqD.s:426    .text._ZN8ProducerD0Ev:0000000000000018 .L0 
     /tmp/ccZychqD.s:468    .text._ZN16ProducerKeyboardD2Ev:0000000000000010 .L0 
GAS LISTING /tmp/ccZychqD.s 			page 77


     /tmp/ccZychqD.s:510    .text._ZN16ProducerKeyboardD0Ev:0000000000000018 .L0 
     /tmp/ccZychqD.s:1719   .text:0000000000000934 .LEHB0
     /tmp/ccZychqD.s:1681   .text:00000000000008f4 .LFB35
     /tmp/ccZychqD.s:1792   .text:00000000000009fc .LEHE0
     /tmp/ccZychqD.s:1797   .text:0000000000000a08 .LEHB1
     /tmp/ccZychqD.s:1800   .text:0000000000000a10 .LEHE1
     /tmp/ccZychqD.s:2155   .text:0000000000000cc8 .L118
     /tmp/ccZychqD.s:1806   .text:0000000000000a1c .LEHB2
     /tmp/ccZychqD.s:1828   .text:0000000000000a4c .LEHE2
     /tmp/ccZychqD.s:1834   .text:0000000000000a58 .LEHB3
     /tmp/ccZychqD.s:1837   .text:0000000000000a60 .LEHE3
     /tmp/ccZychqD.s:2168   .text:0000000000000ce4 .L119
     /tmp/ccZychqD.s:1883   .text:0000000000000ac4 .LEHB4
     /tmp/ccZychqD.s:1886   .text:0000000000000acc .LEHE4
     /tmp/ccZychqD.s:1897   .text:0000000000000ae4 .LEHB5
     /tmp/ccZychqD.s:1903   .text:0000000000000aec .LEHE5
     /tmp/ccZychqD.s:2180   .text:0000000000000d00 .L120
     /tmp/ccZychqD.s:1915   .text:0000000000000b00 .LEHB6
     /tmp/ccZychqD.s:1974   .text:0000000000000b7c .LEHE6
     /tmp/ccZychqD.s:1985   .text:0000000000000b94 .LEHB7
     /tmp/ccZychqD.s:1991   .text:0000000000000b9c .LEHE7
     /tmp/ccZychqD.s:2192   .text:0000000000000d1c .L121
     /tmp/ccZychqD.s:2000   .text:0000000000000ba4 .LEHB8
     /tmp/ccZychqD.s:2003   .text:0000000000000bac .LEHE8
     /tmp/ccZychqD.s:2014   .text:0000000000000bc4 .LEHB9
     /tmp/ccZychqD.s:2020   .text:0000000000000bcc .LEHE9
     /tmp/ccZychqD.s:2205   .text:0000000000000d38 .L122
     /tmp/ccZychqD.s:2037   .text:0000000000000bec .LEHB10
     /tmp/ccZychqD.s:2119   .text:0000000000000c8c .LEHE10
     /tmp/ccZychqD.s:2164   .text:0000000000000cdc .LEHB11
     /tmp/ccZychqD.s:2167   .text:0000000000000ce4 .LEHE11
     /tmp/ccZychqD.s:2176   .text:0000000000000cf8 .LEHB12
     /tmp/ccZychqD.s:2179   .text:0000000000000d00 .LEHE12
     /tmp/ccZychqD.s:2188   .text:0000000000000d14 .LEHB13
     /tmp/ccZychqD.s:2191   .text:0000000000000d1c .LEHE13
     /tmp/ccZychqD.s:2201   .text:0000000000000d30 .LEHB14
     /tmp/ccZychqD.s:2204   .text:0000000000000d38 .LEHE14
     /tmp/ccZychqD.s:2213   .text:0000000000000d4c .LEHB15
     /tmp/ccZychqD.s:2216   .text:0000000000000d54 .LEHE15
     /tmp/ccZychqD.s:5715   .debug_abbrev:0000000000000000 .Ldebug_abbrev0
     /tmp/ccZychqD.s:7925   .debug_str:0000000000000233 .LASF149
     /tmp/ccZychqD.s:7913   .debug_str:00000000000001cc .LASF150
     /tmp/ccZychqD.s:8167   .debug_str:0000000000000a53 .LASF151
     /tmp/ccZychqD.s:7793   .debug_ranges:0000000000000000 .Ldebug_ranges0
     /tmp/ccZychqD.s:7847   .debug_line:0000000000000000 .Ldebug_line0
     /tmp/ccZychqD.s:8039   .debug_str:0000000000000617 .LASF0
     /tmp/ccZychqD.s:8061   .debug_str:00000000000006c3 .LASF1
     /tmp/ccZychqD.s:8017   .debug_str:0000000000000576 .LASF2
     /tmp/ccZychqD.s:7931   .debug_str:000000000000031b .LASF3
     /tmp/ccZychqD.s:7983   .debug_str:00000000000004ab .LASF4
     /tmp/ccZychqD.s:8103   .debug_str:000000000000081d .LASF5
     /tmp/ccZychqD.s:7885   .debug_str:00000000000000e0 .LASF6
     /tmp/ccZychqD.s:7921   .debug_str:0000000000000217 .LASF7
     /tmp/ccZychqD.s:8067   .debug_str:0000000000000705 .LASF8
     /tmp/ccZychqD.s:8037   .debug_str:0000000000000604 .LASF9
     /tmp/ccZychqD.s:8133   .debug_str:0000000000000920 .LASF10
     /tmp/ccZychqD.s:7963   .debug_str:00000000000003ed .LASF11
GAS LISTING /tmp/ccZychqD.s 			page 78


     /tmp/ccZychqD.s:8077   .debug_str:0000000000000753 .LASF12
     /tmp/ccZychqD.s:8119   .debug_str:0000000000000893 .LASF13
     /tmp/ccZychqD.s:7891   .debug_str:0000000000000111 .LASF14
     /tmp/ccZychqD.s:7859   .debug_str:0000000000000032 .LASF15
     /tmp/ccZychqD.s:7903   .debug_str:0000000000000175 .LASF16
     /tmp/ccZychqD.s:8097   .debug_str:00000000000007d8 .LASF17
     /tmp/ccZychqD.s:7911   .debug_str:00000000000001b6 .LASF18
     /tmp/ccZychqD.s:7979   .debug_str:0000000000000493 .LASF19
     /tmp/ccZychqD.s:7981   .debug_str:000000000000049b .LASF20
     /tmp/ccZychqD.s:8105   .debug_str:000000000000082f .LASF21
     /tmp/ccZychqD.s:8109   .debug_str:000000000000084b .LASF29
     /tmp/ccZychqD.s:7985   .debug_str:00000000000004b2 .LASF31
     /tmp/ccZychqD.s:7849   .debug_str:0000000000000000 .LASF22
     /tmp/ccZychqD.s:8083   .debug_str:0000000000000787 .LASF23
     /tmp/ccZychqD.s:7947   .debug_str:000000000000036e .LASF24
     /tmp/ccZychqD.s:7863   .debug_str:0000000000000047 .LASF25
     /tmp/ccZychqD.s:7867   .debug_str:0000000000000062 .LASF26
     /tmp/ccZychqD.s:7871   .debug_str:000000000000007e .LASF27
     /tmp/ccZychqD.s:7977   .debug_str:000000000000048b .LASF28
     /tmp/ccZychqD.s:7861   .debug_str:0000000000000042 .LASF146
     /tmp/ccZychqD.s:7899   .debug_str:0000000000000150 .LASF152
     /tmp/ccZychqD.s:8027   .debug_str:00000000000005c9 .LASF30
     /tmp/ccZychqD.s:8063   .debug_str:00000000000006d6 .LASF32
     /tmp/ccZychqD.s:8069   .debug_str:0000000000000718 .LASF33
     /tmp/ccZychqD.s:8093   .debug_str:00000000000007c7 .LASF34
     /tmp/ccZychqD.s:8095   .debug_str:00000000000007d1 .LASF35
     /tmp/ccZychqD.s:7917   .debug_str:00000000000001fa .LASF36
     /tmp/ccZychqD.s:8015   .debug_str:0000000000000571 .LASF37
     /tmp/ccZychqD.s:7935   .debug_str:000000000000032b .LASF38
     /tmp/ccZychqD.s:7969   .debug_str:0000000000000417 .LASF39
     /tmp/ccZychqD.s:8013   .debug_str:0000000000000567 .LASF40
     /tmp/ccZychqD.s:8045   .debug_str:0000000000000649 .LASF41
     /tmp/ccZychqD.s:8049   .debug_str:0000000000000664 .LASF43
     /tmp/ccZychqD.s:8007   .debug_str:0000000000000545 .LASF42
     /tmp/ccZychqD.s:8137   .debug_str:000000000000093a .LASF44
     /tmp/ccZychqD.s:7971   .debug_str:0000000000000425 .LASF153
     /tmp/ccZychqD.s:7887   .debug_str:00000000000000e7 .LASF154
     /tmp/ccZychqD.s:7879   .debug_str:00000000000000b6 .LASF45
     /tmp/ccZychqD.s:7883   .debug_str:00000000000000c9 .LASF46
     /tmp/ccZychqD.s:7851   .debug_str:0000000000000009 .LASF61
     /tmp/ccZychqD.s:8089   .debug_str:000000000000079b .LASF47
     /tmp/ccZychqD.s:7945   .debug_str:0000000000000369 .LASF49
     /tmp/ccZychqD.s:8091   .debug_str:00000000000007b0 .LASF48
     /tmp/ccZychqD.s:8071   .debug_str:000000000000071d .LASF50
     /tmp/ccZychqD.s:7951   .debug_str:000000000000038d .LASF51
     /tmp/ccZychqD.s:7959   .debug_str:00000000000003d1 .LASF155
     /tmp/ccZychqD.s:7987   .debug_str:00000000000004c3 .LASF52
     /tmp/ccZychqD.s:7989   .debug_str:00000000000004cd .LASF53
     /tmp/ccZychqD.s:7893   .debug_str:0000000000000121 .LASF54
     /tmp/ccZychqD.s:7957   .debug_str:00000000000003be .LASF55
     /tmp/ccZychqD.s:7995   .debug_str:00000000000004f0 .LASF56
     /tmp/ccZychqD.s:7895   .debug_str:000000000000012a .LASF57
     /tmp/ccZychqD.s:8157   .debug_str:00000000000009ea .LASF58
     /tmp/ccZychqD.s:7953   .debug_str:0000000000000398 .LASF59
     /tmp/ccZychqD.s:8131   .debug_str:000000000000090d .LASF73
     /tmp/ccZychqD.s:8051   .debug_str:0000000000000676 .LASF60
     /tmp/ccZychqD.s:8047   .debug_str:0000000000000653 .LASF76
GAS LISTING /tmp/ccZychqD.s 			page 79


     /tmp/ccZychqD.s:8127   .debug_str:00000000000008f8 .LASF62
     /tmp/ccZychqD.s:8147   .debug_str:000000000000098b .LASF63
     /tmp/ccZychqD.s:8161   .debug_str:0000000000000a14 .LASF64
     /tmp/ccZychqD.s:7889   .debug_str:00000000000000fb .LASF65
     /tmp/ccZychqD.s:8025   .debug_str:00000000000005c0 .LASF66
     /tmp/ccZychqD.s:8057   .debug_str:00000000000006b1 .LASF67
     /tmp/ccZychqD.s:8123   .debug_str:00000000000008c9 .LASF68
     /tmp/ccZychqD.s:8079   .debug_str:0000000000000762 .LASF69
     /tmp/ccZychqD.s:8059   .debug_str:00000000000006ba .LASF70
     /tmp/ccZychqD.s:8041   .debug_str:0000000000000624 .LASF71
     /tmp/ccZychqD.s:8019   .debug_str:0000000000000584 .LASF72
     /tmp/ccZychqD.s:8139   .debug_str:000000000000094c .LASF74
     /tmp/ccZychqD.s:7875   .debug_str:000000000000008e .LASF75
     /tmp/ccZychqD.s:8115   .debug_str:0000000000000876 .LASF77
     /tmp/ccZychqD.s:8159   .debug_str:0000000000000a03 .LASF78
     /tmp/ccZychqD.s:8065   .debug_str:00000000000006e9 .LASF79
     /tmp/ccZychqD.s:7897   .debug_str:0000000000000133 .LASF80
     /tmp/ccZychqD.s:8073   .debug_str:0000000000000724 .LASF81
     /tmp/ccZychqD.s:7975   .debug_str:0000000000000460 .LASF82
     /tmp/ccZychqD.s:7973   .debug_str:0000000000000439 .LASF83
     /tmp/ccZychqD.s:8125   .debug_str:00000000000008dc .LASF84
     /tmp/ccZychqD.s:8111   .debug_str:000000000000085b .LASF85
     /tmp/ccZychqD.s:8151   .debug_str:00000000000009ae .LASF86
     /tmp/ccZychqD.s:8085   .debug_str:0000000000000791 .LASF87
     /tmp/ccZychqD.s:8107   .debug_str:0000000000000841 .LASF88
     /tmp/ccZychqD.s:7949   .debug_str:0000000000000373 .LASF89
     /tmp/ccZychqD.s:491    .text._ZN16ProducerKeyboardD0Ev:0000000000000000 .LFB50
     /tmp/ccZychqD.s:531    .text._ZN16ProducerKeyboardD0Ev:000000000000004c .LFE50
     /tmp/ccZychqD.s:6775   .debug_loc:0000000000000000 .LLST15
     /tmp/ccZychqD.s:507    .text._ZN16ProducerKeyboardD0Ev:0000000000000018 .LBB46
     /tmp/ccZychqD.s:515    .text._ZN16ProducerKeyboardD0Ev:000000000000002c .LBE46
     /tmp/ccZychqD.s:6793   .debug_loc:000000000000004c .LLST16
     /tmp/ccZychqD.s:513    .text._ZN16ProducerKeyboardD0Ev:000000000000002c .LVL49
     /tmp/ccZychqD.s:518    .text._ZN16ProducerKeyboardD0Ev:0000000000000038 .LVL50
     /tmp/ccZychqD.s:8033   .debug_str:00000000000005e3 .LASF90
     /tmp/ccZychqD.s:454    .text._ZN16ProducerKeyboardD2Ev:0000000000000000 .LFB48
     /tmp/ccZychqD.s:482    .text._ZN16ProducerKeyboardD2Ev:0000000000000034 .LFE48
     /tmp/ccZychqD.s:6804   .debug_loc:0000000000000082 .LLST14
     /tmp/ccZychqD.s:471    .text._ZN16ProducerKeyboardD2Ev:0000000000000024 .LVL46
     /tmp/ccZychqD.s:7941   .debug_str:000000000000034e .LASF91
     /tmp/ccZychqD.s:407    .text._ZN8ProducerD0Ev:0000000000000000 .LFB46
     /tmp/ccZychqD.s:447    .text._ZN8ProducerD0Ev:000000000000004c .LFE46
     /tmp/ccZychqD.s:6818   .debug_loc:00000000000000bb .LLST12
     /tmp/ccZychqD.s:423    .text._ZN8ProducerD0Ev:0000000000000018 .LBB43
     /tmp/ccZychqD.s:431    .text._ZN8ProducerD0Ev:000000000000002c .LBE43
     /tmp/ccZychqD.s:6836   .debug_loc:0000000000000107 .LLST13
     /tmp/ccZychqD.s:429    .text._ZN8ProducerD0Ev:000000000000002c .LVL42
     /tmp/ccZychqD.s:434    .text._ZN8ProducerD0Ev:0000000000000038 .LVL43
     /tmp/ccZychqD.s:7865   .debug_str:0000000000000051 .LASF92
     /tmp/ccZychqD.s:370    .text._ZN8ProducerD2Ev:0000000000000000 .LFB44
     /tmp/ccZychqD.s:398    .text._ZN8ProducerD2Ev:0000000000000034 .LFE44
     /tmp/ccZychqD.s:6847   .debug_loc:000000000000013d .LLST11
     /tmp/ccZychqD.s:387    .text._ZN8ProducerD2Ev:0000000000000024 .LVL39
     /tmp/ccZychqD.s:8081   .debug_str:0000000000000776 .LASF93
     /tmp/ccZychqD.s:323    .text._ZN8ConsumerD0Ev:0000000000000000 .LFB42
     /tmp/ccZychqD.s:363    .text._ZN8ConsumerD0Ev:000000000000004c .LFE42
     /tmp/ccZychqD.s:6861   .debug_loc:0000000000000176 .LLST9
GAS LISTING /tmp/ccZychqD.s 			page 80


     /tmp/ccZychqD.s:339    .text._ZN8ConsumerD0Ev:0000000000000018 .LBB40
     /tmp/ccZychqD.s:347    .text._ZN8ConsumerD0Ev:000000000000002c .LBE40
     /tmp/ccZychqD.s:6879   .debug_loc:00000000000001c2 .LLST10
     /tmp/ccZychqD.s:345    .text._ZN8ConsumerD0Ev:000000000000002c .LVL35
     /tmp/ccZychqD.s:350    .text._ZN8ConsumerD0Ev:0000000000000038 .LVL36
     /tmp/ccZychqD.s:8009   .debug_str:0000000000000550 .LASF94
     /tmp/ccZychqD.s:285    .text._ZN8ConsumerD2Ev:0000000000000000 .LFB40
     /tmp/ccZychqD.s:314    .text._ZN8ConsumerD2Ev:0000000000000034 .LFE40
     /tmp/ccZychqD.s:6890   .debug_loc:00000000000001f8 .LLST8
     /tmp/ccZychqD.s:303    .text._ZN8ConsumerD2Ev:0000000000000024 .LVL32
     /tmp/ccZychqD.s:7937   .debug_str:000000000000033a .LASF95
     /tmp/ccZychqD.s:7997   .debug_str:0000000000000504 .LASF97
     /tmp/ccZychqD.s:2376   .text:0000000000000ddc .LFB38
     /tmp/ccZychqD.s:2402   .text:0000000000000e04 .LFE38
     /tmp/ccZychqD.s:2391   .text:0000000000000df4 .LVL268
     /tmp/ccZychqD.s:7965   .debug_str:00000000000003fb .LASF96
     /tmp/ccZychqD.s:8001   .debug_str:0000000000000520 .LASF98
     /tmp/ccZychqD.s:2297   .text:0000000000000d54 .LFB37
     /tmp/ccZychqD.s:2370   .text:0000000000000ddc .LFE37
     /tmp/ccZychqD.s:8163   .debug_str:0000000000000a1a .LASF99
     /tmp/ccZychqD.s:8043   .debug_str:000000000000063d .LASF100
     /tmp/ccZychqD.s:7905   .debug_str:0000000000000181 .LASF101
     /tmp/ccZychqD.s:2321   .text:0000000000000d78 .LBB64
     /tmp/ccZychqD.s:2346   .text:0000000000000db0 .LBE64
     /tmp/ccZychqD.s:6904   .debug_loc:0000000000000231 .LLST67
     /tmp/ccZychqD.s:2337   .text:0000000000000da4 .LVL265
     /tmp/ccZychqD.s:7943   .debug_str:000000000000035f .LASF102
     /tmp/ccZychqD.s:7967   .debug_str:0000000000000408 .LASF103
     /tmp/ccZychqD.s:545    .text:00000000000001a0 .LFB36
     /tmp/ccZychqD.s:627    .text:0000000000000244 .LFE36
     /tmp/ccZychqD.s:6916   .debug_loc:0000000000000268 .LLST17
     /tmp/ccZychqD.s:7939   .debug_str:0000000000000343 .LASF104
     /tmp/ccZychqD.s:6930   .debug_loc:00000000000002a1 .LLST18
     /tmp/ccZychqD.s:6937   .debug_loc:00000000000002c4 .LLST19
     /tmp/ccZychqD.s:580    .text:00000000000001d8 .LVL56
     /tmp/ccZychqD.s:587    .text:00000000000001ec .LVL57
     /tmp/ccZychqD.s:592    .text:00000000000001fc .LVL58
     /tmp/ccZychqD.s:597    .text:0000000000000208 .LVL59
     /tmp/ccZychqD.s:7877   .debug_str:0000000000000098 .LASF105
     /tmp/ccZychqD.s:8101   .debug_str:00000000000007fa .LASF106
     /tmp/ccZychqD.s:2219   .text:0000000000000d54 .LFE35
     /tmp/ccZychqD.s:7873   .debug_str:0000000000000088 .LASF107
     /tmp/ccZychqD.s:6949   .debug_loc:00000000000002fb .LLST52
     /tmp/ccZychqD.s:7933   .debug_str:0000000000000321 .LASF108
     /tmp/ccZychqD.s:6960   .debug_loc:0000000000000331 .LLST53
     /tmp/ccZychqD.s:6975   .debug_loc:000000000000037a .LLST54
     /tmp/ccZychqD.s:7955   .debug_str:00000000000003b6 .LASF109
     /tmp/ccZychqD.s:6986   .debug_loc:00000000000003b0 .LLST55
     /tmp/ccZychqD.s:8153   .debug_str:00000000000009c8 .LASF110
     /tmp/ccZychqD.s:7004   .debug_loc:00000000000003fc .LLST56
     /tmp/ccZychqD.s:8087   .debug_str:0000000000000796 .LASF111
     /tmp/ccZychqD.s:7015   .debug_loc:0000000000000432 .LLST57
     /tmp/ccZychqD.s:7028   .debug_loc:000000000000046a .LLST60
     /tmp/ccZychqD.s:1924   .text:0000000000000b10 .LBB55
     /tmp/ccZychqD.s:7043   .debug_loc:00000000000004b3 .LLST61
     /tmp/ccZychqD.s:7058   .debug_loc:00000000000004fc .LLST62
     /tmp/ccZychqD.s:1990   .text:0000000000000b9c .LVL225
GAS LISTING /tmp/ccZychqD.s 			page 81


     /tmp/ccZychqD.s:2015   .text:0000000000000bc4 .LBB59
     /tmp/ccZychqD.s:2028   .text:0000000000000bdc .LBE59
     /tmp/ccZychqD.s:7077   .debug_loc:0000000000000558 .LLST63
     /tmp/ccZychqD.s:7088   .debug_loc:000000000000058e .LLST64
     /tmp/ccZychqD.s:2019   .text:0000000000000bcc .LVL229
     /tmp/ccZychqD.s:1946   .text:0000000000000b40 .LVL221
     /tmp/ccZychqD.s:1973   .text:0000000000000b7c .LVL223
     /tmp/ccZychqD.s:2002   .text:0000000000000bac .LVL227
     /tmp/ccZychqD.s:2199   .text:0000000000000d2c .LVL257
     /tmp/ccZychqD.s:2211   .text:0000000000000d48 .LVL260
     /tmp/ccZychqD.s:2041   .text:0000000000000bf4 .LBB61
     /tmp/ccZychqD.s:2059   .text:0000000000000c14 .LBE61
     /tmp/ccZychqD.s:7103   .debug_loc:00000000000005d7 .LLST65
     /tmp/ccZychqD.s:2052   .text:0000000000000c0c .LVL233
     /tmp/ccZychqD.s:2060   .text:0000000000000c14 .LBB62
     /tmp/ccZychqD.s:2087   .text:0000000000000c44 .LBE62
     /tmp/ccZychqD.s:7114   .debug_loc:000000000000060d .LLST66
     /tmp/ccZychqD.s:7121   .debug_loc:0000000000000630 .LLST49
     /tmp/ccZychqD.s:7152   .debug_loc:000000000000067a .LLST51
     /tmp/ccZychqD.s:1898   .text:0000000000000ae4 .LBB52
     /tmp/ccZychqD.s:1911   .text:0000000000000afc .LBE52
     /tmp/ccZychqD.s:7183   .debug_loc:00000000000006c4 .LLST58
     /tmp/ccZychqD.s:7210   .debug_loc:0000000000000719 .LLST59
     /tmp/ccZychqD.s:1902   .text:0000000000000aec .LVL216
     /tmp/ccZychqD.s:1721   .text:000000000000093c .LVL188
     /tmp/ccZychqD.s:1728   .text:0000000000000950 .LVL189
     /tmp/ccZychqD.s:1733   .text:000000000000095c .LVL190
     /tmp/ccZychqD.s:1740   .text:0000000000000970 .LVL192
     /tmp/ccZychqD.s:1746   .text:0000000000000980 .LVL193
     /tmp/ccZychqD.s:1751   .text:000000000000098c .LVL194
     /tmp/ccZychqD.s:1758   .text:00000000000009a0 .LVL196
     /tmp/ccZychqD.s:1765   .text:00000000000009b4 .LVL197
     /tmp/ccZychqD.s:1770   .text:00000000000009c4 .LVL198
     /tmp/ccZychqD.s:1777   .text:00000000000009d8 .LVL199
     /tmp/ccZychqD.s:1782   .text:00000000000009e8 .LVL200
     /tmp/ccZychqD.s:1791   .text:00000000000009fc .LVL201
     /tmp/ccZychqD.s:1799   .text:0000000000000a10 .LVL202
     /tmp/ccZychqD.s:1808   .text:0000000000000a24 .LVL203
     /tmp/ccZychqD.s:1816   .text:0000000000000a38 .LVL204
     /tmp/ccZychqD.s:1827   .text:0000000000000a4c .LVL206
     /tmp/ccZychqD.s:1836   .text:0000000000000a60 .LVL208
     /tmp/ccZychqD.s:1885   .text:0000000000000acc .LVL214
     /tmp/ccZychqD.s:1917   .text:0000000000000b08 .LVL218
     /tmp/ccZychqD.s:2040   .text:0000000000000bf4 .LVL231
     /tmp/ccZychqD.s:2096   .text:0000000000000c58 .LVL240
     /tmp/ccZychqD.s:2115   .text:0000000000000c80 .LVL242
     /tmp/ccZychqD.s:2118   .text:0000000000000c8c .LVL243
     /tmp/ccZychqD.s:2162   .text:0000000000000cd8 .LVL248
     /tmp/ccZychqD.s:2166   .text:0000000000000ce4 .LVL249
     /tmp/ccZychqD.s:2174   .text:0000000000000cf4 .LVL251
     /tmp/ccZychqD.s:2178   .text:0000000000000d00 .LVL252
     /tmp/ccZychqD.s:2186   .text:0000000000000d10 .LVL254
     /tmp/ccZychqD.s:2190   .text:0000000000000d1c .LVL255
     /tmp/ccZychqD.s:2203   .text:0000000000000d38 .LVL258
     /tmp/ccZychqD.s:2215   .text:0000000000000d54 .LVL261
     /tmp/ccZychqD.s:1479   .text:0000000000000800 .LFB34
     /tmp/ccZychqD.s:1618   .text:00000000000008f4 .LFE34
GAS LISTING /tmp/ccZychqD.s 			page 82


     /tmp/ccZychqD.s:7225   .debug_loc:0000000000000762 .LLST41
     /tmp/ccZychqD.s:7243   .debug_loc:00000000000007ae .LLST42
     /tmp/ccZychqD.s:7261   .debug_loc:00000000000007fa .LLST43
     /tmp/ccZychqD.s:7279   .debug_loc:0000000000000846 .LLST44
     /tmp/ccZychqD.s:7303   .debug_loc:00000000000008b6 .LLST45
     /tmp/ccZychqD.s:1513   .text:0000000000000838 .LVL170
     /tmp/ccZychqD.s:1521   .text:0000000000000848 .LVL172
     /tmp/ccZychqD.s:1533   .text:0000000000000860 .LVL173
     /tmp/ccZychqD.s:1544   .text:0000000000000874 .LVL176
     /tmp/ccZychqD.s:1566   .text:0000000000000898 .LBB51
     /tmp/ccZychqD.s:1581   .text:00000000000008b4 .LBE51
     /tmp/ccZychqD.s:7310   .debug_loc:00000000000008d9 .LLST46
     /tmp/ccZychqD.s:1573   .text:00000000000008a8 .LVL178
     /tmp/ccZychqD.s:1579   .text:00000000000008b4 .LVL180
     /tmp/ccZychqD.s:1589   .text:00000000000008c4 .LVL181
     /tmp/ccZychqD.s:1596   .text:00000000000008d4 .LVL182
     /tmp/ccZychqD.s:1625   .text._ZN8Consumer3runEv:0000000000000000 .LFB33
     /tmp/ccZychqD.s:1652   .text._ZN8Consumer3runEv:000000000000002c .LFE33
     /tmp/ccZychqD.s:7317   .debug_loc:00000000000008fc .LLST47
     /tmp/ccZychqD.s:1641   .text._ZN8Consumer3runEv:000000000000001c .LVL187
     /tmp/ccZychqD.s:8075   .debug_str:0000000000000735 .LASF112
     /tmp/ccZychqD.s:1356   .text:000000000000076c .LFB29
     /tmp/ccZychqD.s:1438   .text:0000000000000800 .LFE29
     /tmp/ccZychqD.s:7331   .debug_loc:0000000000000935 .LLST36
     /tmp/ccZychqD.s:7345   .debug_loc:000000000000096e .LLST37
     /tmp/ccZychqD.s:7363   .debug_loc:00000000000009ba .LLST38
     /tmp/ccZychqD.s:7381   .debug_loc:0000000000000a06 .LLST39
     /tmp/ccZychqD.s:1384   .text:0000000000000798 .LVL158
     /tmp/ccZychqD.s:1397   .text:00000000000007b8 .LVL159
     /tmp/ccZychqD.s:1421   .text:00000000000007e8 .LVL162
     /tmp/ccZychqD.s:1445   .text._ZN8Producer3runEv:0000000000000000 .LFB28
     /tmp/ccZychqD.s:1472   .text._ZN8Producer3runEv:000000000000002c .LFE28
     /tmp/ccZychqD.s:7405   .debug_loc:0000000000000a76 .LLST40
     /tmp/ccZychqD.s:1461   .text._ZN8Producer3runEv:000000000000001c .LVL166
     /tmp/ccZychqD.s:8053   .debug_str:0000000000000680 .LASF113
     /tmp/ccZychqD.s:1209   .text:00000000000006ac .LFB24
     /tmp/ccZychqD.s:1315   .text:000000000000076c .LFE24
     /tmp/ccZychqD.s:7419   .debug_loc:0000000000000aaf .LLST30
     /tmp/ccZychqD.s:7437   .debug_loc:0000000000000afb .LLST31
     /tmp/ccZychqD.s:7455   .debug_loc:0000000000000b47 .LLST32
     /tmp/ccZychqD.s:7473   .debug_loc:0000000000000b93 .LLST33
     /tmp/ccZychqD.s:7488   .debug_loc:0000000000000bdc .LLST34
     /tmp/ccZychqD.s:1241   .text:00000000000006e0 .LVL140
     /tmp/ccZychqD.s:1247   .text:00000000000006e8 .LVL141
     /tmp/ccZychqD.s:1258   .text:0000000000000700 .LVL143
     /tmp/ccZychqD.s:1290   .text:0000000000000744 .LVL148
     /tmp/ccZychqD.s:1295   .text:0000000000000750 .LVL149
     /tmp/ccZychqD.s:1322   .text._ZN16ProducerKeyboard3runEv:0000000000000000 .LFB23
     /tmp/ccZychqD.s:1349   .text._ZN16ProducerKeyboard3runEv:000000000000002c .LFE23
     /tmp/ccZychqD.s:7512   .debug_loc:0000000000000c4c .LLST35
     /tmp/ccZychqD.s:1338   .text._ZN16ProducerKeyboard3runEv:000000000000001c .LVL154
     /tmp/ccZychqD.s:8121   .debug_str:00000000000008a2 .LASF114
     /tmp/ccZychqD.s:8141   .debug_str:000000000000095f .LASF115
     /tmp/ccZychqD.s:7919   .debug_str:00000000000001ff .LASF116
     /tmp/ccZychqD.s:1082   .text:0000000000000580 .LFB17
     /tmp/ccZychqD.s:1203   .text:00000000000006ac .LFE17
     /tmp/ccZychqD.s:1164   .text:0000000000000670 .LBB48
GAS LISTING /tmp/ccZychqD.s 			page 83


     /tmp/ccZychqD.s:1189   .text:0000000000000698 .LBE48
     /tmp/ccZychqD.s:8035   .debug_str:00000000000005fd .LASF117
     /tmp/ccZychqD.s:7526   .debug_loc:0000000000000c85 .LLST28
     /tmp/ccZychqD.s:8145   .debug_str:000000000000097f .LASF118
     /tmp/ccZychqD.s:8099   .debug_str:00000000000007ee .LASF156
     /tmp/ccZychqD.s:7537   .debug_loc:0000000000000cbb .LLST29
     /tmp/ccZychqD.s:8005   .debug_str:000000000000053b .LASF119
     /tmp/ccZychqD.s:1185   .text:0000000000000694 .LVL134
     /tmp/ccZychqD.s:1102   .text:00000000000005ac .LVL122
     /tmp/ccZychqD.s:1107   .text:00000000000005bc .LVL123
     /tmp/ccZychqD.s:1114   .text:00000000000005d4 .LVL124
     /tmp/ccZychqD.s:1119   .text:00000000000005e4 .LVL125
     /tmp/ccZychqD.s:1126   .text:00000000000005fc .LVL126
     /tmp/ccZychqD.s:1131   .text:000000000000060c .LVL127
     /tmp/ccZychqD.s:1138   .text:0000000000000624 .LVL128
     /tmp/ccZychqD.s:1143   .text:0000000000000634 .LVL129
     /tmp/ccZychqD.s:1149   .text:0000000000000640 .LVL130
     /tmp/ccZychqD.s:7881   .debug_str:00000000000000bd .LASF120
     /tmp/ccZychqD.s:8021   .debug_str:00000000000005a2 .LASF121
     /tmp/ccZychqD.s:913    .text:0000000000000438 .LFB16
     /tmp/ccZychqD.s:1062   .text:0000000000000580 .LFE16
     /tmp/ccZychqD.s:7544   .debug_loc:0000000000000cde .LLST25
     /tmp/ccZychqD.s:7558   .debug_loc:0000000000000d17 .LLST26
     /tmp/ccZychqD.s:7853   .debug_str:0000000000000013 .LASF122
     /tmp/ccZychqD.s:7578   .debug_loc:0000000000000d74 .LLST27
     /tmp/ccZychqD.s:940    .text:0000000000000468 .LVL100
     /tmp/ccZychqD.s:947    .text:000000000000047c .LVL101
     /tmp/ccZychqD.s:952    .text:000000000000048c .LVL102
     /tmp/ccZychqD.s:967    .text:00000000000004ac .LVL105
     /tmp/ccZychqD.s:978    .text:00000000000004b8 .LVL106
     /tmp/ccZychqD.s:983    .text:00000000000004c4 .LVL107
     /tmp/ccZychqD.s:991    .text:00000000000004d8 .LVL110
     /tmp/ccZychqD.s:998    .text:00000000000004ec .LVL111
     /tmp/ccZychqD.s:1003   .text:00000000000004fc .LVL112
     /tmp/ccZychqD.s:1010   .text:0000000000000510 .LVL113
     /tmp/ccZychqD.s:1017   .text:0000000000000524 .LVL114
     /tmp/ccZychqD.s:1022   .text:0000000000000534 .LVL115
     /tmp/ccZychqD.s:1037   .text:0000000000000554 .LVL118
     /tmp/ccZychqD.s:1045   .text:0000000000000568 .LVL119
     /tmp/ccZychqD.s:7857   .debug_str:0000000000000026 .LASF123
     /tmp/ccZychqD.s:7869   .debug_str:000000000000006c .LASF124
     /tmp/ccZychqD.s:718    .text:00000000000002b8 .LFB15
     /tmp/ccZychqD.s:893    .text:0000000000000438 .LFE15
     /tmp/ccZychqD.s:7589   .debug_loc:0000000000000daa .LLST21
     /tmp/ccZychqD.s:7603   .debug_loc:0000000000000de3 .LLST22
     /tmp/ccZychqD.s:7623   .debug_loc:0000000000000e40 .LLST23
     /tmp/ccZychqD.s:7631   .debug_loc:0000000000000e64 .LLST24
     /tmp/ccZychqD.s:745    .text:00000000000002e8 .LVL71
     /tmp/ccZychqD.s:752    .text:00000000000002fc .LVL72
     /tmp/ccZychqD.s:757    .text:000000000000030c .LVL73
     /tmp/ccZychqD.s:772    .text:000000000000032c .LVL76
     /tmp/ccZychqD.s:783    .text:0000000000000338 .LVL77
     /tmp/ccZychqD.s:797    .text:000000000000034c .LVL79
     /tmp/ccZychqD.s:804    .text:0000000000000360 .LVL80
     /tmp/ccZychqD.s:809    .text:0000000000000370 .LVL81
     /tmp/ccZychqD.s:814    .text:000000000000037c .LVL82
     /tmp/ccZychqD.s:822    .text:0000000000000390 .LVL85
GAS LISTING /tmp/ccZychqD.s 			page 84


     /tmp/ccZychqD.s:829    .text:00000000000003a4 .LVL86
     /tmp/ccZychqD.s:834    .text:00000000000003b4 .LVL87
     /tmp/ccZychqD.s:841    .text:00000000000003c8 .LVL88
     /tmp/ccZychqD.s:848    .text:00000000000003dc .LVL89
     /tmp/ccZychqD.s:853    .text:00000000000003ec .LVL90
     /tmp/ccZychqD.s:868    .text:000000000000040c .LVL93
     /tmp/ccZychqD.s:876    .text:0000000000000420 .LVL94
     /tmp/ccZychqD.s:7855   .debug_str:000000000000001a .LASF125
     /tmp/ccZychqD.s:7901   .debug_str:0000000000000163 .LASF126
     /tmp/ccZychqD.s:155    .text:00000000000000cc .LFB14
     /tmp/ccZychqD.s:278    .text:00000000000001a0 .LFE14
     /tmp/ccZychqD.s:7642   .debug_loc:0000000000000e9a .LLST4
     /tmp/ccZychqD.s:173    .text:00000000000000e4 .LBB31
     /tmp/ccZychqD.s:249    .text:0000000000000164 .LBE31
     /tmp/ccZychqD.s:7656   .debug_loc:0000000000000ed3 .LLST5
     /tmp/ccZychqD.s:7668   .debug_loc:0000000000000f0a .LLST6
     /tmp/ccZychqD.s:196    .text:0000000000000104 .LBB35
     /tmp/ccZychqD.s:211    .text:000000000000011c .LBE35
     /tmp/ccZychqD.s:7680   .debug_loc:0000000000000f41 .LLST7
     /tmp/ccZychqD.s:185    .text:00000000000000f4 .LVL18
     /tmp/ccZychqD.s:227    .text:0000000000000138 .LVL24
     /tmp/ccZychqD.s:234    .text:000000000000014c .LVL25
     /tmp/ccZychqD.s:239    .text:000000000000015c .LVL26
     /tmp/ccZychqD.s:254    .text:0000000000000174 .LVL28
     /tmp/ccZychqD.s:262    .text:0000000000000188 .LVL29
     /tmp/ccZychqD.s:8031   .debug_str:00000000000005d7 .LASF127
     /tmp/ccZychqD.s:7915   .debug_str:00000000000001e8 .LASF128
     /tmp/ccZychqD.s:21     .text:0000000000000000 .LFB13
     /tmp/ccZychqD.s:141    .text:00000000000000cc .LFE13
     /tmp/ccZychqD.s:7691   .debug_loc:0000000000000f77 .LLST0
     /tmp/ccZychqD.s:40     .text:0000000000000018 .LBB23
     /tmp/ccZychqD.s:116    .text:0000000000000098 .LBE23
     /tmp/ccZychqD.s:7705   .debug_loc:0000000000000fb0 .LLST1
     /tmp/ccZychqD.s:7717   .debug_loc:0000000000000fe7 .LLST2
     /tmp/ccZychqD.s:63     .text:0000000000000038 .LBB27
     /tmp/ccZychqD.s:78     .text:0000000000000050 .LBE27
     /tmp/ccZychqD.s:7729   .debug_loc:000000000000101e .LLST3
     /tmp/ccZychqD.s:52     .text:0000000000000028 .LVL3
     /tmp/ccZychqD.s:94     .text:000000000000006c .LVL9
     /tmp/ccZychqD.s:101    .text:0000000000000080 .LVL10
     /tmp/ccZychqD.s:106    .text:0000000000000090 .LVL11
     /tmp/ccZychqD.s:121    .text:00000000000000a8 .LVL13
     /tmp/ccZychqD.s:8135   .debug_str:0000000000000930 .LASF157
     /tmp/ccZychqD.s:8129   .debug_str:00000000000008ff .LASF158
     /tmp/ccZychqD.s:633    .text:0000000000000244 .LFB12
     /tmp/ccZychqD.s:698    .text:00000000000002b8 .LFE12
     /tmp/ccZychqD.s:7740   .debug_loc:0000000000001054 .LLST20
     /tmp/ccZychqD.s:665    .text:0000000000000280 .LVL63
     /tmp/ccZychqD.s:670    .text:0000000000000290 .LVL64
     /tmp/ccZychqD.s:695    .text:00000000000002b4 .LVL67
     /tmp/ccZychqD.s:8169   .debug_str:0000000000000a84 .LASF129
     /tmp/ccZychqD.s:8165   .debug_str:0000000000000a2e .LASF130
     /tmp/ccZychqD.s:7929   .debug_str:000000000000030d .LASF131
     /tmp/ccZychqD.s:8155   .debug_str:00000000000009d7 .LASF132
     /tmp/ccZychqD.s:8023   .debug_str:00000000000005b4 .LASF133
     /tmp/ccZychqD.s:7991   .debug_str:00000000000004d6 .LASF134
     /tmp/ccZychqD.s:8029   .debug_str:00000000000005ce .LASF135
GAS LISTING /tmp/ccZychqD.s 			page 85


     /tmp/ccZychqD.s:7961   .debug_str:00000000000003dd .LASF136
     /tmp/ccZychqD.s:7993   .debug_str:00000000000004e5 .LASF137
     /tmp/ccZychqD.s:8011   .debug_str:0000000000000561 .LASF138
     /tmp/ccZychqD.s:8143   .debug_str:0000000000000972 .LASF139
     /tmp/ccZychqD.s:8149   .debug_str:000000000000099e .LASF140
     /tmp/ccZychqD.s:7927   .debug_str:0000000000000303 .LASF141
     /tmp/ccZychqD.s:8055   .debug_str:000000000000069e .LASF142
     /tmp/ccZychqD.s:8117   .debug_str:0000000000000887 .LASF143
     /tmp/ccZychqD.s:7999   .debug_str:0000000000000511 .LASF159
     /tmp/ccZychqD.s:7909   .debug_str:000000000000019e .LASF160
     /tmp/ccZychqD.s:8113   .debug_str:000000000000086d .LASF144
     /tmp/ccZychqD.s:8003   .debug_str:0000000000000532 .LASF145
     /tmp/ccZychqD.s:7923   .debug_str:000000000000021e .LASF147
     /tmp/ccZychqD.s:7907   .debug_str:000000000000018e .LASF148
     /tmp/ccZychqD.s:494    .text._ZN16ProducerKeyboardD0Ev:0000000000000000 .LVL47
     /tmp/ccZychqD.s:526    .text._ZN16ProducerKeyboardD0Ev:0000000000000044 .LVL51
     /tmp/ccZychqD.s:506    .text._ZN16ProducerKeyboardD0Ev:0000000000000018 .LVL48
     /tmp/ccZychqD.s:457    .text._ZN16ProducerKeyboardD2Ev:0000000000000000 .LVL45
     /tmp/ccZychqD.s:410    .text._ZN8ProducerD0Ev:0000000000000000 .LVL40
     /tmp/ccZychqD.s:442    .text._ZN8ProducerD0Ev:0000000000000044 .LVL44
     /tmp/ccZychqD.s:422    .text._ZN8ProducerD0Ev:0000000000000018 .LVL41
     /tmp/ccZychqD.s:373    .text._ZN8ProducerD2Ev:0000000000000000 .LVL38
     /tmp/ccZychqD.s:326    .text._ZN8ConsumerD0Ev:0000000000000000 .LVL33
     /tmp/ccZychqD.s:358    .text._ZN8ConsumerD0Ev:0000000000000044 .LVL37
     /tmp/ccZychqD.s:338    .text._ZN8ConsumerD0Ev:0000000000000018 .LVL34
     /tmp/ccZychqD.s:289    .text._ZN8ConsumerD2Ev:0000000000000000 .LVL31
     /tmp/ccZychqD.s:2320   .text:0000000000000d78 .LVL263
     /tmp/ccZychqD.s:2325   .text:0000000000000d80 .LVL264
     /tmp/ccZychqD.s:2365   .text:0000000000000dd4 .LVL267
     /tmp/ccZychqD.s:549    .text:00000000000001a0 .LVL52
     /tmp/ccZychqD.s:569    .text:00000000000001c0 .LVL54
     /tmp/ccZychqD.s:565    .text:00000000000001bc .LVL53
     /tmp/ccZychqD.s:605    .text:0000000000000214 .LVL60
     /tmp/ccZychqD.s:574    .text:00000000000001c4 .LVL55
     /tmp/ccZychqD.s:1753   .text:0000000000000990 .LVL195
     /tmp/ccZychqD.s:1830   .text:0000000000000a50 .LVL207
     /tmp/ccZychqD.s:2154   .text:0000000000000cc8 .LVL246
     /tmp/ccZychqD.s:2158   .text:0000000000000ccc .LVL247
     /tmp/ccZychqD.s:1735   .text:0000000000000960 .LVL191
     /tmp/ccZychqD.s:2136   .text:0000000000000ca4 .LVL245
     /tmp/ccZychqD.s:2170   .text:0000000000000ce8 .LVL250
     /tmp/ccZychqD.s:1822   .text:0000000000000a40 .LVL205
     /tmp/ccZychqD.s:2122   .text:0000000000000c90 .LVL244
     /tmp/ccZychqD.s:1850   .text:0000000000000a80 .LVL210
     /tmp/ccZychqD.s:1863   .text:0000000000000a9c .LVL212
     /tmp/ccZychqD.s:1908   .text:0000000000000afc .LVL217
     /tmp/ccZychqD.s:1865   .text:0000000000000aa0 .LVL213
     /tmp/ccZychqD.s:1922   .text:0000000000000b10 .LVL219
     /tmp/ccZychqD.s:2044   .text:0000000000000bf8 .LVL232
     /tmp/ccZychqD.s:2194   .text:0000000000000d20 .LVL256
     /tmp/ccZychqD.s:2207   .text:0000000000000d3c .LVL259
     /tmp/ccZychqD.s:1930   .text:0000000000000b20 .LVL220
     /tmp/ccZychqD.s:1984   .text:0000000000000b94 .LVL224
     /tmp/ccZychqD.s:1993   .text:0000000000000ba0 .LVL226
     /tmp/ccZychqD.s:2013   .text:0000000000000bc4 .LVL228
     /tmp/ccZychqD.s:2025   .text:0000000000000bdc .LVL230
     /tmp/ccZychqD.s:2055   .text:0000000000000c10 .LVL234
GAS LISTING /tmp/ccZychqD.s 			page 86


     /tmp/ccZychqD.s:2057   .text:0000000000000c14 .LVL235
     /tmp/ccZychqD.s:2063   .text:0000000000000c18 .LVL236
     /tmp/ccZychqD.s:2065   .text:0000000000000c1c .LVL237
     /tmp/ccZychqD.s:1843   .text:0000000000000a6c .LVL209
     /tmp/ccZychqD.s:1855   .text:0000000000000a84 .LVL211
     /tmp/ccZychqD.s:1896   .text:0000000000000ae4 .LVL215
     /tmp/ccZychqD.s:2182   .text:0000000000000d04 .LVL253
     /tmp/ccZychqD.s:1482   .text:0000000000000800 .LVL167
     /tmp/ccZychqD.s:1507   .text:0000000000000830 .LVL169
     /tmp/ccZychqD.s:1610   .text:00000000000008e8 .LVL184
     /tmp/ccZychqD.s:1607   .text:00000000000008e4 .LVL183
     /tmp/ccZychqD.s:1502   .text:0000000000000828 .LVL168
     /tmp/ccZychqD.s:1515   .text:000000000000083c .LVL171
     /tmp/ccZychqD.s:1538   .text:0000000000000868 .LVL174
     /tmp/ccZychqD.s:1560   .text:0000000000000890 .LVL177
     /tmp/ccZychqD.s:1613   .text:00000000000008ec .LVL185
     /tmp/ccZychqD.s:1542   .text:000000000000086c .LVL175
     /tmp/ccZychqD.s:1577   .text:00000000000008ac .LVL179
     /tmp/ccZychqD.s:1628   .text._ZN8Consumer3runEv:0000000000000000 .LVL186
     /tmp/ccZychqD.s:1359   .text:000000000000076c .LVL155
     /tmp/ccZychqD.s:1379   .text:0000000000000790 .LVL157
     /tmp/ccZychqD.s:1430   .text:00000000000007f4 .LVL163
     /tmp/ccZychqD.s:1374   .text:0000000000000788 .LVL156
     /tmp/ccZychqD.s:1402   .text:00000000000007c0 .LVL160
     /tmp/ccZychqD.s:1415   .text:00000000000007dc .LVL161
     /tmp/ccZychqD.s:1433   .text:00000000000007f8 .LVL164
     /tmp/ccZychqD.s:1448   .text._ZN8Producer3runEv:0000000000000000 .LVL165
     /tmp/ccZychqD.s:1212   .text:00000000000006ac .LVL137
     /tmp/ccZychqD.s:1236   .text:00000000000006d8 .LVL139
     /tmp/ccZychqD.s:1310   .text:0000000000000764 .LVL152
     /tmp/ccZychqD.s:1304   .text:000000000000075c .LVL150
     /tmp/ccZychqD.s:1230   .text:00000000000006d0 .LVL138
     /tmp/ccZychqD.s:1250   .text:00000000000006ec .LVL142
     /tmp/ccZychqD.s:1276   .text:0000000000000724 .LVL145
     /tmp/ccZychqD.s:1286   .text:0000000000000738 .LVL146
     /tmp/ccZychqD.s:1288   .text:000000000000073c .LVL147
     /tmp/ccZychqD.s:1263   .text:0000000000000708 .LVL144
     /tmp/ccZychqD.s:1307   .text:0000000000000760 .LVL151
     /tmp/ccZychqD.s:1325   .text._ZN16ProducerKeyboard3runEv:0000000000000000 .LVL153
     /tmp/ccZychqD.s:1168   .text:0000000000000678 .LVL131
     /tmp/ccZychqD.s:1172   .text:000000000000067c .LVL132
     /tmp/ccZychqD.s:1177   .text:0000000000000684 .LVL133
     /tmp/ccZychqD.s:1187   .text:0000000000000698 .LVL135
     /tmp/ccZychqD.s:1198   .text:00000000000006a4 .LVL136
     /tmp/ccZychqD.s:916    .text:0000000000000438 .LVL97
     /tmp/ccZychqD.s:934    .text:0000000000000458 .LVL99
     /tmp/ccZychqD.s:930    .text:0000000000000450 .LVL98
     /tmp/ccZychqD.s:955    .text:0000000000000490 .LVL103
     /tmp/ccZychqD.s:957    .text:0000000000000494 .LVL104
     /tmp/ccZychqD.s:1025   .text:0000000000000538 .LVL116
     /tmp/ccZychqD.s:1027   .text:000000000000053c .LVL117
     /tmp/ccZychqD.s:1054   .text:0000000000000574 .LVL120
     /tmp/ccZychqD.s:985    .text:00000000000004c8 .LVL108
     /tmp/ccZychqD.s:989    .text:00000000000004d0 .LVL109
     /tmp/ccZychqD.s:1057   .text:0000000000000578 .LVL121
     /tmp/ccZychqD.s:721    .text:00000000000002b8 .LVL68
     /tmp/ccZychqD.s:739    .text:00000000000002d8 .LVL70
GAS LISTING /tmp/ccZychqD.s 			page 87


     /tmp/ccZychqD.s:735    .text:00000000000002d0 .LVL69
     /tmp/ccZychqD.s:760    .text:0000000000000310 .LVL74
     /tmp/ccZychqD.s:762    .text:0000000000000314 .LVL75
     /tmp/ccZychqD.s:856    .text:00000000000003f0 .LVL91
     /tmp/ccZychqD.s:858    .text:00000000000003f4 .LVL92
     /tmp/ccZychqD.s:885    .text:000000000000042c .LVL95
     /tmp/ccZychqD.s:791    .text:000000000000033c .LVL78
     /tmp/ccZychqD.s:816    .text:0000000000000380 .LVL83
     /tmp/ccZychqD.s:820    .text:0000000000000388 .LVL84
     /tmp/ccZychqD.s:888    .text:0000000000000430 .LVL96
     /tmp/ccZychqD.s:158    .text:00000000000000cc .LVL15
     /tmp/ccZychqD.s:177    .text:00000000000000ec .LVL17
     /tmp/ccZychqD.s:172    .text:00000000000000e4 .LVL16
     /tmp/ccZychqD.s:273    .text:0000000000000198 .LVL30
     /tmp/ccZychqD.s:217    .text:0000000000000120 .LVL23
     /tmp/ccZychqD.s:245    .text:0000000000000164 .LVL27
     /tmp/ccZychqD.s:200    .text:0000000000000108 .LVL20
     /tmp/ccZychqD.s:209    .text:000000000000011c .LVL22
     /tmp/ccZychqD.s:25     .text:0000000000000000 .LVL0
     /tmp/ccZychqD.s:44     .text:0000000000000020 .LVL2
     /tmp/ccZychqD.s:39     .text:0000000000000018 .LVL1
     /tmp/ccZychqD.s:136    .text:00000000000000c4 .LVL14
     /tmp/ccZychqD.s:84     .text:0000000000000054 .LVL8
     /tmp/ccZychqD.s:112    .text:0000000000000098 .LVL12
     /tmp/ccZychqD.s:67     .text:000000000000003c .LVL5
     /tmp/ccZychqD.s:76     .text:0000000000000050 .LVL7
     /tmp/ccZychqD.s:636    .text:0000000000000244 .LVL61
     /tmp/ccZychqD.s:659    .text:0000000000000274 .LVL62
     /tmp/ccZychqD.s:683    .text:00000000000002a0 .LVL65
     /tmp/ccZychqD.s:689    .text:00000000000002ac .LVL66
     /tmp/ccZychqD.s:2485   .debug_info:0000000000000000 .Ldebug_info0
     /tmp/ccZychqD.s:5      .text:0000000000000000 .Ltext0
     /tmp/ccZychqD.s:2477   .text:0000000000000e04 .Letext0
     /tmp/ccZychqD.s:47     .text:0000000000000020 .LBB25
     /tmp/ccZychqD.s:80     .text:0000000000000050 .LBE25
     /tmp/ccZychqD.s:108    .text:0000000000000090 .LBB29
     /tmp/ccZychqD.s:114    .text:0000000000000098 .LBE29
     /tmp/ccZychqD.s:180    .text:00000000000000ec .LBB33
     /tmp/ccZychqD.s:213    .text:000000000000011c .LBE33
     /tmp/ccZychqD.s:241    .text:000000000000015c .LBB37
     /tmp/ccZychqD.s:247    .text:0000000000000164 .LBE37
     /tmp/ccZychqD.s:1509   .text:0000000000000830 .LBB49
     /tmp/ccZychqD.s:1523   .text:0000000000000848 .LBE49
     /tmp/ccZychqD.s:1528   .text:0000000000000854 .LBB50
     /tmp/ccZychqD.s:1565   .text:0000000000000898 .LBE50
     /tmp/ccZychqD.s:1918   .text:0000000000000b08 .LBB54
     /tmp/ccZychqD.s:2035   .text:0000000000000bec .LBE54
     /tmp/ccZychqD.s:2195   .text:0000000000000d20 .LBB63
     /tmp/ccZychqD.s:2217   .text:0000000000000d54 .LBE63
     /tmp/ccZychqD.s:1933   .text:0000000000000b20 .LBE55
     /tmp/ccZychqD.s:1986   .text:0000000000000b94 .LBB58
     /tmp/ccZychqD.s:1996   .text:0000000000000ba0 .LBE58
     /tmp/ccZychqD.s:2222   .gcc_except_table:0000000000000000 .LLSDA35
                           .group:0000000000000000 _ZN8ConsumerD5Ev
                           .group:0000000000000000 _ZN8ProducerD5Ev
                           .group:0000000000000000 _ZN16ProducerKeyboardD5Ev

GAS LISTING /tmp/ccZychqD.s 			page 88


UNDEFINED SYMBOLS
_Z15thread_dispatchv
_Z11printStringPKc
_Z8printIntiii
_ZN6ThreadD2Ev
_ZdlPv
_Z10time_sleepm
_Z13thread_createPP7_threadPFvPvES2_
_ZN7_threaddlEPv
_ZN6Thread8dispatchEv
_Z4getcv
_ZN9BufferCPP3putEi
_ZN9Semaphore6signalEv
_Z4putcc
_ZN9BufferCPP3getEv
_ZN7Console4putcEc
_ZN9BufferCPP6getCntEv
_Z9getStringPci
_Z11stringToIntPKc
_Znwm
_ZN9BufferCPPC1Ei
_ZN9SemaphoreC1Ej
_ZN6ThreadC2Ev
_ZN6Thread5startEv
_ZN9Semaphore4waitEv
_ZN9BufferCPPD1Ev
_Unwind_Resume
__gxx_personality_v0
