GAS LISTING /tmp/ccTuhaHZ.s 			page 1


   1              		.file	"userMain.cpp"
   2              		.option pic
   3              		.option norelax
   4              		.text
   5              	.Ltext0:
   6              		.section	.rodata.str1.8,"aMS",@progbits,1
   7              		.align	3
   8              	.LC0:
   9 0000 413A2069 		.string	"A: i="
   9      3D00
  10 0006 0000     		.align	3
  11              	.LC1:
  12 0008 0A00     		.string	"\n"
  13 000a 00000000 		.align	3
  13      0000
  14              	.LC2:
  15 0010 41206669 		.string	"A finished!\n"
  15      6E697368 
  15      6564210A 
  15      00
  16              		.text
  17              		.align	2
  18              		.globl	_Z11workerBodyAPv
  20              	_Z11workerBodyAPv:
  21              	.LFB13:
  22              		.file 1 "src/user/tests/Threads_C_API_test.hpp"
   1:src/user/tests/Threads_C_API_test.hpp **** #ifndef XV6_THREADS_C_API_TEST_HPP
   2:src/user/tests/Threads_C_API_test.hpp **** #define XV6_THREADS_C_API_TEST_HPP
   3:src/user/tests/Threads_C_API_test.hpp **** 
   4:src/user/tests/Threads_C_API_test.hpp **** #include "../../../h/user/syscall_c.h"
   5:src/user/tests/Threads_C_API_test.hpp **** 
   6:src/user/tests/Threads_C_API_test.hpp **** #include "../../../h/user/printing.hpp"
   7:src/user/tests/Threads_C_API_test.hpp **** 
   8:src/user/tests/Threads_C_API_test.hpp **** bool finishedA = false;
   9:src/user/tests/Threads_C_API_test.hpp **** bool finishedB = false;
  10:src/user/tests/Threads_C_API_test.hpp **** bool finishedC = false;
  11:src/user/tests/Threads_C_API_test.hpp **** bool finishedD = false;
  12:src/user/tests/Threads_C_API_test.hpp **** 
  13:src/user/tests/Threads_C_API_test.hpp **** uint64 fibonacci(uint64 n) {
  14:src/user/tests/Threads_C_API_test.hpp ****     if (n == 0 || n == 1) { return n; }
  15:src/user/tests/Threads_C_API_test.hpp ****     if (n % 10 == 0) { thread_dispatch(); }
  16:src/user/tests/Threads_C_API_test.hpp ****     return fibonacci(n - 1) + fibonacci(n - 2);
  17:src/user/tests/Threads_C_API_test.hpp **** }
  18:src/user/tests/Threads_C_API_test.hpp **** 
  19:src/user/tests/Threads_C_API_test.hpp **** void workerBodyA(void* arg) {
  23              		.loc 1 19 29
  24              		.cfi_startproc
  25              	.LVL0:
  26 0000 130101FE 		addi	sp,sp,-32
  27              		.cfi_def_cfa_offset 32
  28 0004 233C1100 		sd	ra,24(sp)
  29 0008 23388100 		sd	s0,16(sp)
  30 000c 23349100 		sd	s1,8(sp)
  31 0010 23302101 		sd	s2,0(sp)
  32              		.cfi_offset 1, -8
  33              		.cfi_offset 8, -16
  34              		.cfi_offset 9, -24
GAS LISTING /tmp/ccTuhaHZ.s 			page 2


  35              		.cfi_offset 18, -32
  36 0014 13040102 		addi	s0,sp,32
  37              		.cfi_def_cfa 8, 0
  20:src/user/tests/Threads_C_API_test.hpp ****     for (uint64 i = 0; i < 10; i++) {
  38              		.loc 1 20 5
  39              	.LVL1:
  40              	.LBB56:
  41              		.loc 1 20 17 is_stmt 0
  42 0018 13090000 		li	s2,0
  43 001c 6F008003 		j	.L7
  44              	.LVL2:
  45              	.L4:
  46              	.LBB57:
  47              	.LBB58:
  48              	.LBB59:
  21:src/user/tests/Threads_C_API_test.hpp ****         printString("A: i="); printInt(i); printString("\n");
  22:src/user/tests/Threads_C_API_test.hpp ****         for (uint64 j = 0; j < 10000; j++) {
  23:src/user/tests/Threads_C_API_test.hpp ****             for (uint64 k = 0; k < 30000; k++) { /* busy wait */ }
  24:src/user/tests/Threads_C_API_test.hpp ****             thread_dispatch();
  49              		.loc 1 24 13 is_stmt 1 discriminator 2
  50              		.loc 1 24 28 is_stmt 0 discriminator 2
  51 0020 97000000 		call	_Z15thread_dispatchv@plt
  51      E7800000 
  52              	.LVL3:
  53              	.LBE59:
  22:src/user/tests/Threads_C_API_test.hpp ****             for (uint64 k = 0; k < 30000; k++) { /* busy wait */ }
  54              		.loc 1 22 9 is_stmt 1 discriminator 2
  55 0028 93841400 		addi	s1,s1,1
  56              	.LVL4:
  57              	.L6:
  22:src/user/tests/Threads_C_API_test.hpp ****             for (uint64 k = 0; k < 30000; k++) { /* busy wait */ }
  58              		.loc 1 22 30 discriminator 1
  59 002c B7270000 		li	a5,8192
  60 0030 9387F770 		addi	a5,a5,1807
  61 0034 63EE9700 		bgtu	s1,a5,.L3
  62              	.LBB61:
  63              	.LBB60:
  23:src/user/tests/Threads_C_API_test.hpp ****             thread_dispatch();
  64              		.loc 1 23 25 is_stmt 0
  65 0038 13070000 		li	a4,0
  66              	.L5:
  67              	.LVL5:
  23:src/user/tests/Threads_C_API_test.hpp ****             thread_dispatch();
  68              		.loc 1 23 34 is_stmt 1 discriminator 3
  69 003c B7770000 		li	a5,28672
  70 0040 9387F752 		addi	a5,a5,1327
  71 0044 E3EEE7FC 		bgtu	a4,a5,.L4
  23:src/user/tests/Threads_C_API_test.hpp ****             thread_dispatch();
  72              		.loc 1 23 13 discriminator 2
  73 0048 13071700 		addi	a4,a4,1
  74              	.LVL6:
  75 004c 6FF01FFF 		j	.L5
  76              	.LVL7:
  77              	.L3:
  78              	.LBE60:
  79              	.LBE61:
  80              	.LBE58:
GAS LISTING /tmp/ccTuhaHZ.s 			page 3


  81              	.LBE57:
  20:src/user/tests/Threads_C_API_test.hpp ****         printString("A: i="); printInt(i); printString("\n");
  82              		.loc 1 20 5 discriminator 2
  83 0050 13091900 		addi	s2,s2,1
  84              	.LVL8:
  85              	.L7:
  20:src/user/tests/Threads_C_API_test.hpp ****         printString("A: i="); printInt(i); printString("\n");
  86              		.loc 1 20 26 discriminator 1
  87 0054 93079000 		li	a5,9
  88 0058 63E02705 		bgtu	s2,a5,.L2
  89              	.LBB63:
  21:src/user/tests/Threads_C_API_test.hpp ****         for (uint64 j = 0; j < 10000; j++) {
  90              		.loc 1 21 9
  21:src/user/tests/Threads_C_API_test.hpp ****         for (uint64 j = 0; j < 10000; j++) {
  91              		.loc 1 21 20 is_stmt 0
  92 005c 17050000 		lla	a0,.LC0
  92      13050500 
  93 0064 97000000 		call	_Z11printStringPKc@plt
  93      E7800000 
  94              	.LVL9:
  21:src/user/tests/Threads_C_API_test.hpp ****         for (uint64 j = 0; j < 10000; j++) {
  95              		.loc 1 21 31 is_stmt 1
  21:src/user/tests/Threads_C_API_test.hpp ****         for (uint64 j = 0; j < 10000; j++) {
  96              		.loc 1 21 39 is_stmt 0
  97 006c 13060000 		li	a2,0
  98 0070 9305A000 		li	a1,10
  99 0074 1B050900 		sext.w	a0,s2
 100 0078 97000000 		call	_Z8printIntiii@plt
 100      E7800000 
 101              	.LVL10:
  21:src/user/tests/Threads_C_API_test.hpp ****         for (uint64 j = 0; j < 10000; j++) {
 102              		.loc 1 21 44 is_stmt 1
  21:src/user/tests/Threads_C_API_test.hpp ****         for (uint64 j = 0; j < 10000; j++) {
 103              		.loc 1 21 55 is_stmt 0
 104 0080 17050000 		lla	a0,.LC1
 104      13050500 
 105 0088 97000000 		call	_Z11printStringPKc@plt
 105      E7800000 
 106              	.LVL11:
  22:src/user/tests/Threads_C_API_test.hpp ****             for (uint64 k = 0; k < 30000; k++) { /* busy wait */ }
 107              		.loc 1 22 9 is_stmt 1
 108              	.LBB62:
  22:src/user/tests/Threads_C_API_test.hpp ****             for (uint64 k = 0; k < 30000; k++) { /* busy wait */ }
 109              		.loc 1 22 21 is_stmt 0
 110 0090 93040000 		li	s1,0
 111 0094 6FF09FF9 		j	.L6
 112              	.LVL12:
 113              	.L2:
 114              	.LBE62:
 115              	.LBE63:
 116              	.LBE56:
  25:src/user/tests/Threads_C_API_test.hpp ****         }
  26:src/user/tests/Threads_C_API_test.hpp ****     }
  27:src/user/tests/Threads_C_API_test.hpp ****     printString("A finished!\n");
 117              		.loc 1 27 5 is_stmt 1
 118              		.loc 1 27 16 is_stmt 0
 119 0098 17050000 		lla	a0,.LC2
GAS LISTING /tmp/ccTuhaHZ.s 			page 4


 119      13050500 
 120 00a0 97000000 		call	_Z11printStringPKc@plt
 120      E7800000 
 121              	.LVL13:
  28:src/user/tests/Threads_C_API_test.hpp ****     finishedA = true;
 122              		.loc 1 28 5 is_stmt 1
 123              		.loc 1 28 15 is_stmt 0
 124 00a8 93071000 		li	a5,1
 125 00ac 17070000 		sb	a5,.LANCHOR0,a4
 125      2300F700 
  29:src/user/tests/Threads_C_API_test.hpp **** }
 126              		.loc 1 29 1
 127 00b4 83308101 		ld	ra,24(sp)
 128              		.cfi_restore 1
 129 00b8 03340101 		ld	s0,16(sp)
 130              		.cfi_restore 8
 131              		.cfi_def_cfa 2, 32
 132 00bc 83348100 		ld	s1,8(sp)
 133              		.cfi_restore 9
 134 00c0 03390100 		ld	s2,0(sp)
 135              		.cfi_restore 18
 136              	.LVL14:
 137 00c4 13010102 		addi	sp,sp,32
 138              		.cfi_def_cfa_offset 0
 139 00c8 67800000 		jr	ra
 140              		.cfi_endproc
 141              	.LFE13:
 143              		.section	.rodata.str1.8
 144 001d 000000   		.align	3
 145              	.LC3:
 146 0020 423A2069 		.string	"B: i="
 146      3D00
 147 0026 0000     		.align	3
 148              	.LC4:
 149 0028 42206669 		.string	"B finished!\n"
 149      6E697368 
 149      6564210A 
 149      00
 150              		.text
 151              		.align	2
 152              		.globl	_Z11workerBodyBPv
 154              	_Z11workerBodyBPv:
 155              	.LFB14:
  30:src/user/tests/Threads_C_API_test.hpp **** 
  31:src/user/tests/Threads_C_API_test.hpp **** void workerBodyB(void* arg) {
 156              		.loc 1 31 29 is_stmt 1
 157              		.cfi_startproc
 158              	.LVL15:
 159 00cc 130101FE 		addi	sp,sp,-32
 160              		.cfi_def_cfa_offset 32
 161 00d0 233C1100 		sd	ra,24(sp)
 162 00d4 23388100 		sd	s0,16(sp)
 163 00d8 23349100 		sd	s1,8(sp)
 164 00dc 23302101 		sd	s2,0(sp)
 165              		.cfi_offset 1, -8
 166              		.cfi_offset 8, -16
 167              		.cfi_offset 9, -24
GAS LISTING /tmp/ccTuhaHZ.s 			page 5


 168              		.cfi_offset 18, -32
 169 00e0 13040102 		addi	s0,sp,32
 170              		.cfi_def_cfa 8, 0
  32:src/user/tests/Threads_C_API_test.hpp ****     for (uint64 i = 0; i < 16; i++) {
 171              		.loc 1 32 5
 172              	.LVL16:
 173              	.LBB64:
 174              		.loc 1 32 17 is_stmt 0
 175 00e4 13090000 		li	s2,0
 176 00e8 6F008003 		j	.L15
 177              	.LVL17:
 178              	.L12:
 179              	.LBB65:
 180              	.LBB66:
 181              	.LBB67:
  33:src/user/tests/Threads_C_API_test.hpp ****         printString("B: i="); printInt(i); printString("\n");
  34:src/user/tests/Threads_C_API_test.hpp ****         for (uint64 j = 0; j < 10000; j++) {
  35:src/user/tests/Threads_C_API_test.hpp ****             for (uint64 k = 0; k < 30000; k++) { /* busy wait */ }
  36:src/user/tests/Threads_C_API_test.hpp ****             thread_dispatch();
 182              		.loc 1 36 13 is_stmt 1 discriminator 2
 183              		.loc 1 36 28 is_stmt 0 discriminator 2
 184 00ec 97000000 		call	_Z15thread_dispatchv@plt
 184      E7800000 
 185              	.LVL18:
 186              	.LBE67:
  34:src/user/tests/Threads_C_API_test.hpp ****             for (uint64 k = 0; k < 30000; k++) { /* busy wait */ }
 187              		.loc 1 34 9 is_stmt 1 discriminator 2
 188 00f4 93841400 		addi	s1,s1,1
 189              	.LVL19:
 190              	.L14:
  34:src/user/tests/Threads_C_API_test.hpp ****             for (uint64 k = 0; k < 30000; k++) { /* busy wait */ }
 191              		.loc 1 34 30 discriminator 1
 192 00f8 B7270000 		li	a5,8192
 193 00fc 9387F770 		addi	a5,a5,1807
 194 0100 63EE9700 		bgtu	s1,a5,.L11
 195              	.LBB69:
 196              	.LBB68:
  35:src/user/tests/Threads_C_API_test.hpp ****             thread_dispatch();
 197              		.loc 1 35 25 is_stmt 0
 198 0104 13070000 		li	a4,0
 199              	.L13:
 200              	.LVL20:
  35:src/user/tests/Threads_C_API_test.hpp ****             thread_dispatch();
 201              		.loc 1 35 34 is_stmt 1 discriminator 3
 202 0108 B7770000 		li	a5,28672
 203 010c 9387F752 		addi	a5,a5,1327
 204 0110 E3EEE7FC 		bgtu	a4,a5,.L12
  35:src/user/tests/Threads_C_API_test.hpp ****             thread_dispatch();
 205              		.loc 1 35 13 discriminator 2
 206 0114 13071700 		addi	a4,a4,1
 207              	.LVL21:
 208 0118 6FF01FFF 		j	.L13
 209              	.LVL22:
 210              	.L11:
 211              	.LBE68:
 212              	.LBE69:
 213              	.LBE66:
GAS LISTING /tmp/ccTuhaHZ.s 			page 6


 214              	.LBE65:
  32:src/user/tests/Threads_C_API_test.hpp ****         printString("B: i="); printInt(i); printString("\n");
 215              		.loc 1 32 5 discriminator 2
 216 011c 13091900 		addi	s2,s2,1
 217              	.LVL23:
 218              	.L15:
  32:src/user/tests/Threads_C_API_test.hpp ****         printString("B: i="); printInt(i); printString("\n");
 219              		.loc 1 32 26 discriminator 1
 220 0120 9307F000 		li	a5,15
 221 0124 63E02705 		bgtu	s2,a5,.L10
 222              	.LBB71:
  33:src/user/tests/Threads_C_API_test.hpp ****         for (uint64 j = 0; j < 10000; j++) {
 223              		.loc 1 33 9
  33:src/user/tests/Threads_C_API_test.hpp ****         for (uint64 j = 0; j < 10000; j++) {
 224              		.loc 1 33 20 is_stmt 0
 225 0128 17050000 		lla	a0,.LC3
 225      13050500 
 226 0130 97000000 		call	_Z11printStringPKc@plt
 226      E7800000 
 227              	.LVL24:
  33:src/user/tests/Threads_C_API_test.hpp ****         for (uint64 j = 0; j < 10000; j++) {
 228              		.loc 1 33 31 is_stmt 1
  33:src/user/tests/Threads_C_API_test.hpp ****         for (uint64 j = 0; j < 10000; j++) {
 229              		.loc 1 33 39 is_stmt 0
 230 0138 13060000 		li	a2,0
 231 013c 9305A000 		li	a1,10
 232 0140 1B050900 		sext.w	a0,s2
 233 0144 97000000 		call	_Z8printIntiii@plt
 233      E7800000 
 234              	.LVL25:
  33:src/user/tests/Threads_C_API_test.hpp ****         for (uint64 j = 0; j < 10000; j++) {
 235              		.loc 1 33 44 is_stmt 1
  33:src/user/tests/Threads_C_API_test.hpp ****         for (uint64 j = 0; j < 10000; j++) {
 236              		.loc 1 33 55 is_stmt 0
 237 014c 17050000 		lla	a0,.LC1
 237      13050500 
 238 0154 97000000 		call	_Z11printStringPKc@plt
 238      E7800000 
 239              	.LVL26:
  34:src/user/tests/Threads_C_API_test.hpp ****             for (uint64 k = 0; k < 30000; k++) { /* busy wait */ }
 240              		.loc 1 34 9 is_stmt 1
 241              	.LBB70:
  34:src/user/tests/Threads_C_API_test.hpp ****             for (uint64 k = 0; k < 30000; k++) { /* busy wait */ }
 242              		.loc 1 34 21 is_stmt 0
 243 015c 93040000 		li	s1,0
 244 0160 6FF09FF9 		j	.L14
 245              	.LVL27:
 246              	.L10:
 247              	.LBE70:
 248              	.LBE71:
 249              	.LBE64:
  37:src/user/tests/Threads_C_API_test.hpp ****         }
  38:src/user/tests/Threads_C_API_test.hpp ****     }
  39:src/user/tests/Threads_C_API_test.hpp ****     printString("B finished!\n");
 250              		.loc 1 39 5 is_stmt 1
 251              		.loc 1 39 16 is_stmt 0
 252 0164 17050000 		lla	a0,.LC4
GAS LISTING /tmp/ccTuhaHZ.s 			page 7


 252      13050500 
 253 016c 97000000 		call	_Z11printStringPKc@plt
 253      E7800000 
 254              	.LVL28:
  40:src/user/tests/Threads_C_API_test.hpp ****     finishedB = true;
 255              		.loc 1 40 5 is_stmt 1
 256              		.loc 1 40 15 is_stmt 0
 257 0174 93071000 		li	a5,1
 258 0178 17070000 		sb	a5,.LANCHOR0+1,a4
 258      2300F700 
  41:src/user/tests/Threads_C_API_test.hpp ****     thread_dispatch();
 259              		.loc 1 41 5 is_stmt 1
 260              		.loc 1 41 20 is_stmt 0
 261 0180 97000000 		call	_Z15thread_dispatchv@plt
 261      E7800000 
 262              	.LVL29:
  42:src/user/tests/Threads_C_API_test.hpp **** }
 263              		.loc 1 42 1
 264 0188 83308101 		ld	ra,24(sp)
 265              		.cfi_restore 1
 266 018c 03340101 		ld	s0,16(sp)
 267              		.cfi_restore 8
 268              		.cfi_def_cfa 2, 32
 269 0190 83348100 		ld	s1,8(sp)
 270              		.cfi_restore 9
 271 0194 03390100 		ld	s2,0(sp)
 272              		.cfi_restore 18
 273              	.LVL30:
 274 0198 13010102 		addi	sp,sp,32
 275              		.cfi_def_cfa_offset 0
 276 019c 67800000 		jr	ra
 277              		.cfi_endproc
 278              	.LFE14:
 280              		.section	.text._ZN19ConsumerProducerCPP8Consumer3runEv,"axG",@progbits,_ZN19ConsumerProducerCPP8Co
 281              		.align	2
 282              		.weak	_ZN19ConsumerProducerCPP8Consumer3runEv
 284              	_ZN19ConsumerProducerCPP8Consumer3runEv:
 285              	.LFB31:
 286              		.file 2 "src/user/tests/ConsumerProducer_CPP_API_test.hpp"
   1:src/user/tests/ConsumerProducer_CPP_API_test.hpp **** //
   2:src/user/tests/ConsumerProducer_CPP_API_test.hpp **** // Created by os on 4/17/22.
   3:src/user/tests/ConsumerProducer_CPP_API_test.hpp **** //
   4:src/user/tests/ConsumerProducer_CPP_API_test.hpp **** 
   5:src/user/tests/ConsumerProducer_CPP_API_test.hpp **** #ifndef XV6_CONSUMERPRODUCER_CPP_API_TEST_HPP
   6:src/user/tests/ConsumerProducer_CPP_API_test.hpp **** #define XV6_CONSUMERPRODUCER_CPP_API_TEST_HPP
   7:src/user/tests/ConsumerProducer_CPP_API_test.hpp **** 
   8:src/user/tests/ConsumerProducer_CPP_API_test.hpp **** #include "../../../h/user/syscall_cpp.hpp"
   9:src/user/tests/ConsumerProducer_CPP_API_test.hpp **** 
  10:src/user/tests/ConsumerProducer_CPP_API_test.hpp **** #include "buffer_CPP_API.hpp"
  11:src/user/tests/ConsumerProducer_CPP_API_test.hpp **** #include "../../../h/user/printing.hpp"
  12:src/user/tests/ConsumerProducer_CPP_API_test.hpp **** 
  13:src/user/tests/ConsumerProducer_CPP_API_test.hpp **** namespace ConsumerProducerCPP {
  14:src/user/tests/ConsumerProducer_CPP_API_test.hpp **** 
  15:src/user/tests/ConsumerProducer_CPP_API_test.hpp ****     Semaphore *waitForAll;
  16:src/user/tests/ConsumerProducer_CPP_API_test.hpp **** 
  17:src/user/tests/ConsumerProducer_CPP_API_test.hpp ****     struct thread_data {
  18:src/user/tests/ConsumerProducer_CPP_API_test.hpp ****         int id;
GAS LISTING /tmp/ccTuhaHZ.s 			page 8


  19:src/user/tests/ConsumerProducer_CPP_API_test.hpp ****         BufferCPP *buffer;
  20:src/user/tests/ConsumerProducer_CPP_API_test.hpp ****         Semaphore *sem;
  21:src/user/tests/ConsumerProducer_CPP_API_test.hpp ****     };
  22:src/user/tests/ConsumerProducer_CPP_API_test.hpp **** 
  23:src/user/tests/ConsumerProducer_CPP_API_test.hpp ****     volatile int threadEnd = 0;
  24:src/user/tests/ConsumerProducer_CPP_API_test.hpp **** 
  25:src/user/tests/ConsumerProducer_CPP_API_test.hpp ****     class ProducerKeyborad : public Thread {
  26:src/user/tests/ConsumerProducer_CPP_API_test.hpp ****         thread_data *td;
  27:src/user/tests/ConsumerProducer_CPP_API_test.hpp ****     public:
  28:src/user/tests/ConsumerProducer_CPP_API_test.hpp ****         ProducerKeyborad(thread_data *_td) : Thread(), td(_td) {}
  29:src/user/tests/ConsumerProducer_CPP_API_test.hpp **** 
  30:src/user/tests/ConsumerProducer_CPP_API_test.hpp ****         void run() override {
  31:src/user/tests/ConsumerProducer_CPP_API_test.hpp ****             int key;
  32:src/user/tests/ConsumerProducer_CPP_API_test.hpp ****             int i = 0;
  33:src/user/tests/ConsumerProducer_CPP_API_test.hpp ****             while ((key = getc()) != 0x1b) {
  34:src/user/tests/ConsumerProducer_CPP_API_test.hpp ****                 td->buffer->put(key);
  35:src/user/tests/ConsumerProducer_CPP_API_test.hpp ****                 i++;
  36:src/user/tests/ConsumerProducer_CPP_API_test.hpp ****             }
  37:src/user/tests/ConsumerProducer_CPP_API_test.hpp **** 
  38:src/user/tests/ConsumerProducer_CPP_API_test.hpp ****             threadEnd = 1;
  39:src/user/tests/ConsumerProducer_CPP_API_test.hpp ****             td->buffer->put('!');
  40:src/user/tests/ConsumerProducer_CPP_API_test.hpp **** 
  41:src/user/tests/ConsumerProducer_CPP_API_test.hpp ****             td->sem->signal();
  42:src/user/tests/ConsumerProducer_CPP_API_test.hpp ****         }
  43:src/user/tests/ConsumerProducer_CPP_API_test.hpp ****     };
  44:src/user/tests/ConsumerProducer_CPP_API_test.hpp **** 
  45:src/user/tests/ConsumerProducer_CPP_API_test.hpp ****     class Producer : public Thread {
  46:src/user/tests/ConsumerProducer_CPP_API_test.hpp ****         thread_data *td;
  47:src/user/tests/ConsumerProducer_CPP_API_test.hpp ****     public:
  48:src/user/tests/ConsumerProducer_CPP_API_test.hpp ****         Producer(thread_data *_td) : Thread(), td(_td) {}
  49:src/user/tests/ConsumerProducer_CPP_API_test.hpp **** 
  50:src/user/tests/ConsumerProducer_CPP_API_test.hpp ****         void run() override {
  51:src/user/tests/ConsumerProducer_CPP_API_test.hpp ****             int i = 0;
  52:src/user/tests/ConsumerProducer_CPP_API_test.hpp ****             while (!threadEnd) {
  53:src/user/tests/ConsumerProducer_CPP_API_test.hpp ****                 td->buffer->put(td->id + '0');
  54:src/user/tests/ConsumerProducer_CPP_API_test.hpp ****                 i++;
  55:src/user/tests/ConsumerProducer_CPP_API_test.hpp ****                 Thread::sleep((i+td->id)%5);
  56:src/user/tests/ConsumerProducer_CPP_API_test.hpp ****             }
  57:src/user/tests/ConsumerProducer_CPP_API_test.hpp **** 
  58:src/user/tests/ConsumerProducer_CPP_API_test.hpp ****             td->sem->signal();
  59:src/user/tests/ConsumerProducer_CPP_API_test.hpp ****         }
  60:src/user/tests/ConsumerProducer_CPP_API_test.hpp ****     };
  61:src/user/tests/ConsumerProducer_CPP_API_test.hpp **** 
  62:src/user/tests/ConsumerProducer_CPP_API_test.hpp ****     class Consumer : public Thread {
  63:src/user/tests/ConsumerProducer_CPP_API_test.hpp ****         thread_data *td;
  64:src/user/tests/ConsumerProducer_CPP_API_test.hpp ****     public:
  65:src/user/tests/ConsumerProducer_CPP_API_test.hpp ****         Consumer(thread_data *_td) : Thread(), td(_td) {}
  66:src/user/tests/ConsumerProducer_CPP_API_test.hpp **** 
  67:src/user/tests/ConsumerProducer_CPP_API_test.hpp ****         void run() override {
 287              		.loc 2 67 14 is_stmt 1
 288              		.cfi_startproc
 289              	.LVL31:
 290 0000 130101FD 		addi	sp,sp,-48
 291              		.cfi_def_cfa_offset 48
 292 0004 23341102 		sd	ra,40(sp)
 293 0008 23308102 		sd	s0,32(sp)
 294 000c 233C9100 		sd	s1,24(sp)
GAS LISTING /tmp/ccTuhaHZ.s 			page 9


 295 0010 23382101 		sd	s2,16(sp)
 296 0014 23343101 		sd	s3,8(sp)
 297              		.cfi_offset 1, -8
 298              		.cfi_offset 8, -16
 299              		.cfi_offset 9, -24
 300              		.cfi_offset 18, -32
 301              		.cfi_offset 19, -40
 302 0018 13040103 		addi	s0,sp,48
 303              		.cfi_def_cfa 8, 0
 304 001c 13090500 		mv	s2,a0
  68:src/user/tests/ConsumerProducer_CPP_API_test.hpp ****             int i = 0;
 305              		.loc 2 68 13
 306              	.LVL32:
 307              		.loc 2 68 17 is_stmt 0
 308 0020 93090000 		li	s3,0
 309 0024 6F000001 		j	.L18
 310              	.LVL33:
 311              	.L23:
 312              	.LBB72:
  69:src/user/tests/ConsumerProducer_CPP_API_test.hpp ****             while (!threadEnd) {
  70:src/user/tests/ConsumerProducer_CPP_API_test.hpp ****                 int key = td->buffer->get();
  71:src/user/tests/ConsumerProducer_CPP_API_test.hpp ****                 i++;
  72:src/user/tests/ConsumerProducer_CPP_API_test.hpp **** 
  73:src/user/tests/ConsumerProducer_CPP_API_test.hpp ****                 Console::putc(key);
  74:src/user/tests/ConsumerProducer_CPP_API_test.hpp **** 
  75:src/user/tests/ConsumerProducer_CPP_API_test.hpp ****                 if (i % 80 == 0) {
  76:src/user/tests/ConsumerProducer_CPP_API_test.hpp ****                     Console::putc('\n');
 313              		.loc 2 76 21 is_stmt 1
 314              		.loc 2 76 34 is_stmt 0
 315 0028 1305A000 		li	a0,10
 316 002c 97000000 		call	_ZN7Console4putcEc@plt
 316      E7800000 
 317              	.LVL34:
 318              	.L18:
 319              	.LBE72:
  69:src/user/tests/ConsumerProducer_CPP_API_test.hpp ****             while (!threadEnd) {
 320              		.loc 2 69 13 is_stmt 1
  69:src/user/tests/ConsumerProducer_CPP_API_test.hpp ****             while (!threadEnd) {
 321              		.loc 2 69 20
 322 0034 97070000 		lw	a5,.LANCHOR0+4
 322      83A70700 
 323 003c 639A0704 		bnez	a5,.L19
 324              	.LBB73:
  70:src/user/tests/ConsumerProducer_CPP_API_test.hpp ****                 i++;
 325              		.loc 2 70 17
  70:src/user/tests/ConsumerProducer_CPP_API_test.hpp ****                 i++;
 326              		.loc 2 70 27 is_stmt 0
 327 0040 83370901 		ld	a5,16(s2)
  70:src/user/tests/ConsumerProducer_CPP_API_test.hpp ****                 i++;
 328              		.loc 2 70 42
 329 0044 03B58700 		ld	a0,8(a5)
 330 0048 97000000 		call	_ZN9BufferCPP3getEv@plt
 330      E7800000 
 331              	.LVL35:
  71:src/user/tests/ConsumerProducer_CPP_API_test.hpp **** 
 332              		.loc 2 71 17 is_stmt 1
  71:src/user/tests/ConsumerProducer_CPP_API_test.hpp **** 
GAS LISTING /tmp/ccTuhaHZ.s 			page 10


 333              		.loc 2 71 18 is_stmt 0
 334 0050 9B841900 		addiw	s1,s3,1
 335 0054 9B890400 		sext.w	s3,s1
 336              	.LVL36:
  73:src/user/tests/ConsumerProducer_CPP_API_test.hpp **** 
 337              		.loc 2 73 17 is_stmt 1
  73:src/user/tests/ConsumerProducer_CPP_API_test.hpp **** 
 338              		.loc 2 73 30 is_stmt 0
 339 0058 1375F50F 		andi	a0,a0,0xff
 340              	.LVL37:
 341 005c 97000000 		call	_ZN7Console4putcEc@plt
 341      E7800000 
 342              	.LVL38:
  75:src/user/tests/ConsumerProducer_CPP_API_test.hpp ****                     Console::putc('\n');
 343              		.loc 2 75 17 is_stmt 1
  75:src/user/tests/ConsumerProducer_CPP_API_test.hpp ****                     Console::putc('\n');
 344              		.loc 2 75 23 is_stmt 0
 345 0064 93070005 		li	a5,80
 346 0068 BBE4F402 		remw	s1,s1,a5
 347              	.LVL39:
  75:src/user/tests/ConsumerProducer_CPP_API_test.hpp ****                     Console::putc('\n');
 348              		.loc 2 75 17
 349 006c E39404FC 		bnez	s1,.L18
 350 0070 6FF09FFB 		j	.L23
 351              	.L24:
 352              	.LBE73:
 353              	.LBB74:
  77:src/user/tests/ConsumerProducer_CPP_API_test.hpp ****                 }
  78:src/user/tests/ConsumerProducer_CPP_API_test.hpp ****             }
  79:src/user/tests/ConsumerProducer_CPP_API_test.hpp **** 
  80:src/user/tests/ConsumerProducer_CPP_API_test.hpp ****             while (td->buffer->getCnt() > 0) {
  81:src/user/tests/ConsumerProducer_CPP_API_test.hpp ****                 int key = td->buffer->get();
 354              		.loc 2 81 17 is_stmt 1
 355              		.loc 2 81 27 is_stmt 0
 356 0074 83370901 		ld	a5,16(s2)
 357              		.loc 2 81 42
 358 0078 03B58700 		ld	a0,8(a5)
 359 007c 97000000 		call	_ZN9BufferCPP3getEv@plt
 359      E7800000 
 360              	.LVL40:
  82:src/user/tests/ConsumerProducer_CPP_API_test.hpp ****                 Console::putc(key);
 361              		.loc 2 82 17 is_stmt 1
 362              		.loc 2 82 30 is_stmt 0
 363 0084 1375F50F 		andi	a0,a0,0xff
 364              	.LVL41:
 365 0088 97000000 		call	_ZN7Console4putcEc@plt
 365      E7800000 
 366              	.LVL42:
 367              	.L19:
 368              	.LBE74:
  80:src/user/tests/ConsumerProducer_CPP_API_test.hpp ****                 int key = td->buffer->get();
 369              		.loc 2 80 13 is_stmt 1
  80:src/user/tests/ConsumerProducer_CPP_API_test.hpp ****                 int key = td->buffer->get();
 370              		.loc 2 80 41
  80:src/user/tests/ConsumerProducer_CPP_API_test.hpp ****                 int key = td->buffer->get();
 371              		.loc 2 80 20 is_stmt 0
 372 0090 83370901 		ld	a5,16(s2)
GAS LISTING /tmp/ccTuhaHZ.s 			page 11


  80:src/user/tests/ConsumerProducer_CPP_API_test.hpp ****                 int key = td->buffer->get();
 373              		.loc 2 80 38
 374 0094 03B58700 		ld	a0,8(a5)
 375 0098 97000000 		call	_ZN9BufferCPP6getCntEv@plt
 375      E7800000 
 376              	.LVL43:
  80:src/user/tests/ConsumerProducer_CPP_API_test.hpp ****                 int key = td->buffer->get();
 377              		.loc 2 80 41
 378 00a0 E34AA0FC 		bgtz	a0,.L24
  83:src/user/tests/ConsumerProducer_CPP_API_test.hpp ****             }
  84:src/user/tests/ConsumerProducer_CPP_API_test.hpp **** 
  85:src/user/tests/ConsumerProducer_CPP_API_test.hpp ****             td->sem->signal();
 379              		.loc 2 85 13 is_stmt 1
 380 00a4 83370901 		ld	a5,16(s2)
 381              		.loc 2 85 28 is_stmt 0
 382 00a8 03B50701 		ld	a0,16(a5)
 383 00ac 97000000 		call	_ZN9Semaphore6signalEv@plt
 383      E7800000 
 384              	.LVL44:
  86:src/user/tests/ConsumerProducer_CPP_API_test.hpp ****         }
 385              		.loc 2 86 9
 386 00b4 83308102 		ld	ra,40(sp)
 387              		.cfi_restore 1
 388 00b8 03340102 		ld	s0,32(sp)
 389              		.cfi_restore 8
 390              		.cfi_def_cfa 2, 48
 391 00bc 83348101 		ld	s1,24(sp)
 392              		.cfi_restore 9
 393 00c0 03390101 		ld	s2,16(sp)
 394              		.cfi_restore 18
 395              	.LVL45:
 396 00c4 83398100 		ld	s3,8(sp)
 397              		.cfi_restore 19
 398              	.LVL46:
 399 00c8 13010103 		addi	sp,sp,48
 400              		.cfi_def_cfa_offset 0
 401 00cc 67800000 		jr	ra
 402              		.cfi_endproc
 403              	.LFE31:
 405              		.section	.text._ZN19ConsumerProducerCPP8ConsumerD2Ev,"axG",@progbits,_ZN19ConsumerProducerCPP8Cons
 406              		.align	2
 407              		.weak	_ZN19ConsumerProducerCPP8ConsumerD2Ev
 409              	_ZN19ConsumerProducerCPP8ConsumerD2Ev:
 410              	.LFB44:
  62:src/user/tests/ConsumerProducer_CPP_API_test.hpp ****         thread_data *td;
 411              		.loc 2 62 11 is_stmt 1
 412              		.cfi_startproc
 413              	.LVL47:
 414 0000 130101FF 		addi	sp,sp,-16
 415              		.cfi_def_cfa_offset 16
 416 0004 23341100 		sd	ra,8(sp)
 417 0008 23308100 		sd	s0,0(sp)
 418              		.cfi_offset 1, -8
 419              		.cfi_offset 8, -16
 420 000c 13040101 		addi	s0,sp,16
 421              		.cfi_def_cfa 8, 0
 422              	.LBB75:
GAS LISTING /tmp/ccTuhaHZ.s 			page 12


  62:src/user/tests/ConsumerProducer_CPP_API_test.hpp ****         thread_data *td;
 423              		.loc 2 62 11 is_stmt 0
 424 0010 97070000 		lla	a5,_ZTVN19ConsumerProducerCPP8ConsumerE+16
 424      93870700 
 425 0018 2330F500 		sd	a5,0(a0)
 426 001c 97000000 		call	_ZN6ThreadD2Ev@plt
 426      E7800000 
 427              	.LVL48:
 428              	.LBE75:
 429 0024 83308100 		ld	ra,8(sp)
 430              		.cfi_restore 1
 431 0028 03340100 		ld	s0,0(sp)
 432              		.cfi_restore 8
 433              		.cfi_def_cfa 2, 16
 434 002c 13010101 		addi	sp,sp,16
 435              		.cfi_def_cfa_offset 0
 436 0030 67800000 		jr	ra
 437              		.cfi_endproc
 438              	.LFE44:
 440              		.weak	_ZN19ConsumerProducerCPP8ConsumerD1Ev
 441              		.set	_ZN19ConsumerProducerCPP8ConsumerD1Ev,_ZN19ConsumerProducerCPP8ConsumerD2Ev
 442              		.section	.text._ZN19ConsumerProducerCPP8ConsumerD0Ev,"axG",@progbits,_ZN19ConsumerProducerCPP8Cons
 443              		.align	2
 444              		.weak	_ZN19ConsumerProducerCPP8ConsumerD0Ev
 446              	_ZN19ConsumerProducerCPP8ConsumerD0Ev:
 447              	.LFB46:
  62:src/user/tests/ConsumerProducer_CPP_API_test.hpp ****         thread_data *td;
 448              		.loc 2 62 11 is_stmt 1
 449              		.cfi_startproc
 450              	.LVL49:
 451 0000 130101FE 		addi	sp,sp,-32
 452              		.cfi_def_cfa_offset 32
 453 0004 233C1100 		sd	ra,24(sp)
 454 0008 23388100 		sd	s0,16(sp)
 455 000c 23349100 		sd	s1,8(sp)
 456              		.cfi_offset 1, -8
 457              		.cfi_offset 8, -16
 458              		.cfi_offset 9, -24
 459 0010 13040102 		addi	s0,sp,32
 460              		.cfi_def_cfa 8, 0
 461 0014 93040500 		mv	s1,a0
 462              	.LVL50:
 463              	.LBB76:
 464              	.LBB77:
  62:src/user/tests/ConsumerProducer_CPP_API_test.hpp ****         thread_data *td;
 465              		.loc 2 62 11 is_stmt 0
 466 0018 97070000 		lla	a5,_ZTVN19ConsumerProducerCPP8ConsumerE+16
 466      93870700 
 467 0020 2330F500 		sd	a5,0(a0)
 468 0024 97000000 		call	_ZN6ThreadD2Ev@plt
 468      E7800000 
 469              	.LVL51:
 470              	.LBE77:
 471              	.LBE76:
 472 002c 13850400 		mv	a0,s1
 473 0030 97000000 		call	_ZdlPv@plt
 473      E7800000 
GAS LISTING /tmp/ccTuhaHZ.s 			page 13


 474              	.LVL52:
 475 0038 83308101 		ld	ra,24(sp)
 476              		.cfi_restore 1
 477 003c 03340101 		ld	s0,16(sp)
 478              		.cfi_restore 8
 479              		.cfi_def_cfa 2, 32
 480 0040 83348100 		ld	s1,8(sp)
 481              		.cfi_restore 9
 482              	.LVL53:
 483 0044 13010102 		addi	sp,sp,32
 484              		.cfi_def_cfa_offset 0
 485 0048 67800000 		jr	ra
 486              		.cfi_endproc
 487              	.LFE46:
 489              		.section	.text._ZN19ConsumerProducerCPP16ProducerKeyboradD2Ev,"axG",@progbits,_ZN19ConsumerProduce
 490              		.align	2
 491              		.weak	_ZN19ConsumerProducerCPP16ProducerKeyboradD2Ev
 493              	_ZN19ConsumerProducerCPP16ProducerKeyboradD2Ev:
 494              	.LFB52:
  25:src/user/tests/ConsumerProducer_CPP_API_test.hpp ****         thread_data *td;
 495              		.loc 2 25 11 is_stmt 1
 496              		.cfi_startproc
 497              	.LVL54:
 498 0000 130101FF 		addi	sp,sp,-16
 499              		.cfi_def_cfa_offset 16
 500 0004 23341100 		sd	ra,8(sp)
 501 0008 23308100 		sd	s0,0(sp)
 502              		.cfi_offset 1, -8
 503              		.cfi_offset 8, -16
 504 000c 13040101 		addi	s0,sp,16
 505              		.cfi_def_cfa 8, 0
 506              	.LBB78:
  25:src/user/tests/ConsumerProducer_CPP_API_test.hpp ****         thread_data *td;
 507              		.loc 2 25 11 is_stmt 0
 508 0010 97070000 		lla	a5,_ZTVN19ConsumerProducerCPP16ProducerKeyboradE+16
 508      93870700 
 509 0018 2330F500 		sd	a5,0(a0)
 510 001c 97000000 		call	_ZN6ThreadD2Ev@plt
 510      E7800000 
 511              	.LVL55:
 512              	.LBE78:
 513 0024 83308100 		ld	ra,8(sp)
 514              		.cfi_restore 1
 515 0028 03340100 		ld	s0,0(sp)
 516              		.cfi_restore 8
 517              		.cfi_def_cfa 2, 16
 518 002c 13010101 		addi	sp,sp,16
 519              		.cfi_def_cfa_offset 0
 520 0030 67800000 		jr	ra
 521              		.cfi_endproc
 522              	.LFE52:
 524              		.weak	_ZN19ConsumerProducerCPP16ProducerKeyboradD1Ev
 525              		.set	_ZN19ConsumerProducerCPP16ProducerKeyboradD1Ev,_ZN19ConsumerProducerCPP16ProducerKeyboradD2Ev
 526              		.section	.text._ZN19ConsumerProducerCPP16ProducerKeyboradD0Ev,"axG",@progbits,_ZN19ConsumerProduce
 527              		.align	2
 528              		.weak	_ZN19ConsumerProducerCPP16ProducerKeyboradD0Ev
 530              	_ZN19ConsumerProducerCPP16ProducerKeyboradD0Ev:
GAS LISTING /tmp/ccTuhaHZ.s 			page 14


 531              	.LFB54:
  25:src/user/tests/ConsumerProducer_CPP_API_test.hpp ****         thread_data *td;
 532              		.loc 2 25 11 is_stmt 1
 533              		.cfi_startproc
 534              	.LVL56:
 535 0000 130101FE 		addi	sp,sp,-32
 536              		.cfi_def_cfa_offset 32
 537 0004 233C1100 		sd	ra,24(sp)
 538 0008 23388100 		sd	s0,16(sp)
 539 000c 23349100 		sd	s1,8(sp)
 540              		.cfi_offset 1, -8
 541              		.cfi_offset 8, -16
 542              		.cfi_offset 9, -24
 543 0010 13040102 		addi	s0,sp,32
 544              		.cfi_def_cfa 8, 0
 545 0014 93040500 		mv	s1,a0
 546              	.LVL57:
 547              	.LBB79:
 548              	.LBB80:
  25:src/user/tests/ConsumerProducer_CPP_API_test.hpp ****         thread_data *td;
 549              		.loc 2 25 11 is_stmt 0
 550 0018 97070000 		lla	a5,_ZTVN19ConsumerProducerCPP16ProducerKeyboradE+16
 550      93870700 
 551 0020 2330F500 		sd	a5,0(a0)
 552 0024 97000000 		call	_ZN6ThreadD2Ev@plt
 552      E7800000 
 553              	.LVL58:
 554              	.LBE80:
 555              	.LBE79:
 556 002c 13850400 		mv	a0,s1
 557 0030 97000000 		call	_ZdlPv@plt
 557      E7800000 
 558              	.LVL59:
 559 0038 83308101 		ld	ra,24(sp)
 560              		.cfi_restore 1
 561 003c 03340101 		ld	s0,16(sp)
 562              		.cfi_restore 8
 563              		.cfi_def_cfa 2, 32
 564 0040 83348100 		ld	s1,8(sp)
 565              		.cfi_restore 9
 566              	.LVL60:
 567 0044 13010102 		addi	sp,sp,32
 568              		.cfi_def_cfa_offset 0
 569 0048 67800000 		jr	ra
 570              		.cfi_endproc
 571              	.LFE54:
 573              		.section	.text._ZN19ConsumerProducerCPP8ProducerD2Ev,"axG",@progbits,_ZN19ConsumerProducerCPP8Prod
 574              		.align	2
 575              		.weak	_ZN19ConsumerProducerCPP8ProducerD2Ev
 577              	_ZN19ConsumerProducerCPP8ProducerD2Ev:
 578              	.LFB48:
  45:src/user/tests/ConsumerProducer_CPP_API_test.hpp ****         thread_data *td;
 579              		.loc 2 45 11 is_stmt 1
 580              		.cfi_startproc
 581              	.LVL61:
 582 0000 130101FF 		addi	sp,sp,-16
 583              		.cfi_def_cfa_offset 16
GAS LISTING /tmp/ccTuhaHZ.s 			page 15


 584 0004 23341100 		sd	ra,8(sp)
 585 0008 23308100 		sd	s0,0(sp)
 586              		.cfi_offset 1, -8
 587              		.cfi_offset 8, -16
 588 000c 13040101 		addi	s0,sp,16
 589              		.cfi_def_cfa 8, 0
 590              	.LBB81:
  45:src/user/tests/ConsumerProducer_CPP_API_test.hpp ****         thread_data *td;
 591              		.loc 2 45 11 is_stmt 0
 592 0010 97070000 		lla	a5,_ZTVN19ConsumerProducerCPP8ProducerE+16
 592      93870700 
 593 0018 2330F500 		sd	a5,0(a0)
 594 001c 97000000 		call	_ZN6ThreadD2Ev@plt
 594      E7800000 
 595              	.LVL62:
 596              	.LBE81:
 597 0024 83308100 		ld	ra,8(sp)
 598              		.cfi_restore 1
 599 0028 03340100 		ld	s0,0(sp)
 600              		.cfi_restore 8
 601              		.cfi_def_cfa 2, 16
 602 002c 13010101 		addi	sp,sp,16
 603              		.cfi_def_cfa_offset 0
 604 0030 67800000 		jr	ra
 605              		.cfi_endproc
 606              	.LFE48:
 608              		.weak	_ZN19ConsumerProducerCPP8ProducerD1Ev
 609              		.set	_ZN19ConsumerProducerCPP8ProducerD1Ev,_ZN19ConsumerProducerCPP8ProducerD2Ev
 610              		.section	.text._ZN19ConsumerProducerCPP8ProducerD0Ev,"axG",@progbits,_ZN19ConsumerProducerCPP8Prod
 611              		.align	2
 612              		.weak	_ZN19ConsumerProducerCPP8ProducerD0Ev
 614              	_ZN19ConsumerProducerCPP8ProducerD0Ev:
 615              	.LFB50:
  45:src/user/tests/ConsumerProducer_CPP_API_test.hpp ****         thread_data *td;
 616              		.loc 2 45 11 is_stmt 1
 617              		.cfi_startproc
 618              	.LVL63:
 619 0000 130101FE 		addi	sp,sp,-32
 620              		.cfi_def_cfa_offset 32
 621 0004 233C1100 		sd	ra,24(sp)
 622 0008 23388100 		sd	s0,16(sp)
 623 000c 23349100 		sd	s1,8(sp)
 624              		.cfi_offset 1, -8
 625              		.cfi_offset 8, -16
 626              		.cfi_offset 9, -24
 627 0010 13040102 		addi	s0,sp,32
 628              		.cfi_def_cfa 8, 0
 629 0014 93040500 		mv	s1,a0
 630              	.LVL64:
 631              	.LBB82:
 632              	.LBB83:
  45:src/user/tests/ConsumerProducer_CPP_API_test.hpp ****         thread_data *td;
 633              		.loc 2 45 11 is_stmt 0
 634 0018 97070000 		lla	a5,_ZTVN19ConsumerProducerCPP8ProducerE+16
 634      93870700 
 635 0020 2330F500 		sd	a5,0(a0)
 636 0024 97000000 		call	_ZN6ThreadD2Ev@plt
GAS LISTING /tmp/ccTuhaHZ.s 			page 16


 636      E7800000 
 637              	.LVL65:
 638              	.LBE83:
 639              	.LBE82:
 640 002c 13850400 		mv	a0,s1
 641 0030 97000000 		call	_ZdlPv@plt
 641      E7800000 
 642              	.LVL66:
 643 0038 83308101 		ld	ra,24(sp)
 644              		.cfi_restore 1
 645 003c 03340101 		ld	s0,16(sp)
 646              		.cfi_restore 8
 647              		.cfi_def_cfa 2, 32
 648 0040 83348100 		ld	s1,8(sp)
 649              		.cfi_restore 9
 650              	.LVL67:
 651 0044 13010102 		addi	sp,sp,32
 652              		.cfi_def_cfa_offset 0
 653 0048 67800000 		jr	ra
 654              		.cfi_endproc
 655              	.LFE50:
 657              		.section	.text._ZN10ForkThreadD2Ev,"axG",@progbits,_ZN10ForkThreadD5Ev,comdat
 658              		.align	2
 659              		.weak	_ZN10ForkThreadD2Ev
 661              	_ZN10ForkThreadD2Ev:
 662              	.LFB56:
 663              		.file 3 "src/user/tests/testUser.hpp"
   1:src/user/tests/testUser.hpp **** #include "../../../h/user/syscall_c.h"
   2:src/user/tests/testUser.hpp **** #include "../../../h/user/syscall_cpp.hpp"
   3:src/user/tests/testUser.hpp **** #include "../../../h/user/printing.hpp"
   4:src/user/tests/testUser.hpp **** 
   5:src/user/tests/testUser.hpp **** 
   6:src/user/tests/testUser.hpp **** struct thread_data {
   7:src/user/tests/testUser.hpp ****     int id;
   8:src/user/tests/testUser.hpp **** };
   9:src/user/tests/testUser.hpp **** 
  10:src/user/tests/testUser.hpp **** class ForkThread : public Thread {
 664              		.loc 3 10 7 is_stmt 1
 665              		.cfi_startproc
 666              	.LVL68:
 667 0000 130101FF 		addi	sp,sp,-16
 668              		.cfi_def_cfa_offset 16
 669 0004 23341100 		sd	ra,8(sp)
 670 0008 23308100 		sd	s0,0(sp)
 671              		.cfi_offset 1, -8
 672              		.cfi_offset 8, -16
 673 000c 13040101 		addi	s0,sp,16
 674              		.cfi_def_cfa 8, 0
 675              	.LBB84:
 676              		.loc 3 10 7 is_stmt 0
 677 0010 97070000 		lla	a5,_ZTV10ForkThread+16
 677      93870700 
 678 0018 2330F500 		sd	a5,0(a0)
 679 001c 97000000 		call	_ZN6ThreadD2Ev@plt
 679      E7800000 
 680              	.LVL69:
 681              	.LBE84:
GAS LISTING /tmp/ccTuhaHZ.s 			page 17


 682 0024 83308100 		ld	ra,8(sp)
 683              		.cfi_restore 1
 684 0028 03340100 		ld	s0,0(sp)
 685              		.cfi_restore 8
 686              		.cfi_def_cfa 2, 16
 687 002c 13010101 		addi	sp,sp,16
 688              		.cfi_def_cfa_offset 0
 689 0030 67800000 		jr	ra
 690              		.cfi_endproc
 691              	.LFE56:
 693              		.weak	_ZN10ForkThreadD1Ev
 694              		.set	_ZN10ForkThreadD1Ev,_ZN10ForkThreadD2Ev
 695              		.section	.text._ZN10ForkThreadD0Ev,"axG",@progbits,_ZN10ForkThreadD5Ev,comdat
 696              		.align	2
 697              		.weak	_ZN10ForkThreadD0Ev
 699              	_ZN10ForkThreadD0Ev:
 700              	.LFB58:
 701              		.loc 3 10 7 is_stmt 1
 702              		.cfi_startproc
 703              	.LVL70:
 704 0000 130101FE 		addi	sp,sp,-32
 705              		.cfi_def_cfa_offset 32
 706 0004 233C1100 		sd	ra,24(sp)
 707 0008 23388100 		sd	s0,16(sp)
 708 000c 23349100 		sd	s1,8(sp)
 709              		.cfi_offset 1, -8
 710              		.cfi_offset 8, -16
 711              		.cfi_offset 9, -24
 712 0010 13040102 		addi	s0,sp,32
 713              		.cfi_def_cfa 8, 0
 714 0014 93040500 		mv	s1,a0
 715              	.LVL71:
 716              	.LBB85:
 717              	.LBB86:
 718              		.loc 3 10 7 is_stmt 0
 719 0018 97070000 		lla	a5,_ZTV10ForkThread+16
 719      93870700 
 720 0020 2330F500 		sd	a5,0(a0)
 721 0024 97000000 		call	_ZN6ThreadD2Ev@plt
 721      E7800000 
 722              	.LVL72:
 723              	.LBE86:
 724              	.LBE85:
 725 002c 13850400 		mv	a0,s1
 726 0030 97000000 		call	_ZdlPv@plt
 726      E7800000 
 727              	.LVL73:
 728 0038 83308101 		ld	ra,24(sp)
 729              		.cfi_restore 1
 730 003c 03340101 		ld	s0,16(sp)
 731              		.cfi_restore 8
 732              		.cfi_def_cfa 2, 32
 733 0040 83348100 		ld	s1,8(sp)
 734              		.cfi_restore 9
 735              	.LVL74:
 736 0044 13010102 		addi	sp,sp,32
 737              		.cfi_def_cfa_offset 0
GAS LISTING /tmp/ccTuhaHZ.s 			page 18


 738 0048 67800000 		jr	ra
 739              		.cfi_endproc
 740              	.LFE58:
 742              		.section	.text._ZN19ConsumerProducerCPP16ProducerKeyborad3runEv,"axG",@progbits,_ZN19ConsumerProdu
 743              		.align	2
 744              		.weak	_ZN19ConsumerProducerCPP16ProducerKeyborad3runEv
 746              	_ZN19ConsumerProducerCPP16ProducerKeyborad3runEv:
 747              	.LFB23:
  30:src/user/tests/ConsumerProducer_CPP_API_test.hpp ****             int key;
 748              		.loc 2 30 14 is_stmt 1
 749              		.cfi_startproc
 750              	.LVL75:
 751 0000 130101FE 		addi	sp,sp,-32
 752              		.cfi_def_cfa_offset 32
 753 0004 233C1100 		sd	ra,24(sp)
 754 0008 23388100 		sd	s0,16(sp)
 755 000c 23349100 		sd	s1,8(sp)
 756              		.cfi_offset 1, -8
 757              		.cfi_offset 8, -16
 758              		.cfi_offset 9, -24
 759 0010 13040102 		addi	s0,sp,32
 760              		.cfi_def_cfa 8, 0
 761 0014 93040500 		mv	s1,a0
  31:src/user/tests/ConsumerProducer_CPP_API_test.hpp ****             int i = 0;
 762              		.loc 2 31 13
  32:src/user/tests/ConsumerProducer_CPP_API_test.hpp ****             while ((key = getc()) != 0x1b) {
 763              		.loc 2 32 13
 764              	.LVL76:
 765              	.L43:
  33:src/user/tests/ConsumerProducer_CPP_API_test.hpp ****                 td->buffer->put(key);
 766              		.loc 2 33 13
  33:src/user/tests/ConsumerProducer_CPP_API_test.hpp ****                 td->buffer->put(key);
 767              		.loc 2 33 35
  33:src/user/tests/ConsumerProducer_CPP_API_test.hpp ****                 td->buffer->put(key);
 768              		.loc 2 33 31 is_stmt 0
 769 0018 97000000 		call	_Z4getcv@plt
 769      E7800000 
 770              	.LVL77:
  33:src/user/tests/ConsumerProducer_CPP_API_test.hpp ****                 td->buffer->put(key);
 771              		.loc 2 33 25
 772 0020 9B050500 		sext.w	a1,a0
 773              	.LVL78:
  33:src/user/tests/ConsumerProducer_CPP_API_test.hpp ****                 td->buffer->put(key);
 774              		.loc 2 33 35
 775 0024 9307B001 		li	a5,27
 776 0028 638CF500 		beq	a1,a5,.L42
  34:src/user/tests/ConsumerProducer_CPP_API_test.hpp ****                 i++;
 777              		.loc 2 34 17 is_stmt 1
 778 002c 83B70401 		ld	a5,16(s1)
  34:src/user/tests/ConsumerProducer_CPP_API_test.hpp ****                 i++;
 779              		.loc 2 34 32 is_stmt 0
 780 0030 03B58700 		ld	a0,8(a5)
 781 0034 97000000 		call	_ZN9BufferCPP3putEi@plt
 781      E7800000 
 782              	.LVL79:
  35:src/user/tests/ConsumerProducer_CPP_API_test.hpp ****             }
 783              		.loc 2 35 17 is_stmt 1
GAS LISTING /tmp/ccTuhaHZ.s 			page 19


  33:src/user/tests/ConsumerProducer_CPP_API_test.hpp ****                 td->buffer->put(key);
 784              		.loc 2 33 13 is_stmt 0
 785 003c 6FF0DFFD 		j	.L43
 786              	.LVL80:
 787              	.L42:
  38:src/user/tests/ConsumerProducer_CPP_API_test.hpp ****             td->buffer->put('!');
 788              		.loc 2 38 13 is_stmt 1
  38:src/user/tests/ConsumerProducer_CPP_API_test.hpp ****             td->buffer->put('!');
 789              		.loc 2 38 23 is_stmt 0
 790 0040 93071000 		li	a5,1
 791 0044 17070000 		sw	a5,.LANCHOR0+4,a4
 791      2320F700 
  39:src/user/tests/ConsumerProducer_CPP_API_test.hpp **** 
 792              		.loc 2 39 13 is_stmt 1
 793 004c 83B70401 		ld	a5,16(s1)
  39:src/user/tests/ConsumerProducer_CPP_API_test.hpp **** 
 794              		.loc 2 39 28 is_stmt 0
 795 0050 93051002 		li	a1,33
 796              	.LVL81:
 797 0054 03B58700 		ld	a0,8(a5)
 798              	.LVL82:
 799 0058 97000000 		call	_ZN9BufferCPP3putEi@plt
 799      E7800000 
 800              	.LVL83:
  41:src/user/tests/ConsumerProducer_CPP_API_test.hpp ****         }
 801              		.loc 2 41 13 is_stmt 1
 802 0060 83B70401 		ld	a5,16(s1)
  41:src/user/tests/ConsumerProducer_CPP_API_test.hpp ****         }
 803              		.loc 2 41 28 is_stmt 0
 804 0064 03B50701 		ld	a0,16(a5)
 805 0068 97000000 		call	_ZN9Semaphore6signalEv@plt
 805      E7800000 
 806              	.LVL84:
  42:src/user/tests/ConsumerProducer_CPP_API_test.hpp ****     };
 807              		.loc 2 42 9
 808 0070 83308101 		ld	ra,24(sp)
 809              		.cfi_restore 1
 810 0074 03340101 		ld	s0,16(sp)
 811              		.cfi_restore 8
 812              		.cfi_def_cfa 2, 32
 813 0078 83348100 		ld	s1,8(sp)
 814              		.cfi_restore 9
 815              	.LVL85:
 816 007c 13010102 		addi	sp,sp,32
 817              		.cfi_def_cfa_offset 0
 818 0080 67800000 		jr	ra
 819              		.cfi_endproc
 820              	.LFE23:
 822              		.section	.text._ZN19ConsumerProducerCPP8Producer3runEv,"axG",@progbits,_ZN19ConsumerProducerCPP8Pr
 823              		.align	2
 824              		.weak	_ZN19ConsumerProducerCPP8Producer3runEv
 826              	_ZN19ConsumerProducerCPP8Producer3runEv:
 827              	.LFB27:
  50:src/user/tests/ConsumerProducer_CPP_API_test.hpp ****             int i = 0;
 828              		.loc 2 50 14 is_stmt 1
 829              		.cfi_startproc
 830              	.LVL86:
GAS LISTING /tmp/ccTuhaHZ.s 			page 20


 831 0000 130101FE 		addi	sp,sp,-32
 832              		.cfi_def_cfa_offset 32
 833 0004 233C1100 		sd	ra,24(sp)
 834 0008 23388100 		sd	s0,16(sp)
 835 000c 23349100 		sd	s1,8(sp)
 836 0010 23302101 		sd	s2,0(sp)
 837              		.cfi_offset 1, -8
 838              		.cfi_offset 8, -16
 839              		.cfi_offset 9, -24
 840              		.cfi_offset 18, -32
 841 0014 13040102 		addi	s0,sp,32
 842              		.cfi_def_cfa 8, 0
 843 0018 93040500 		mv	s1,a0
  51:src/user/tests/ConsumerProducer_CPP_API_test.hpp ****             while (!threadEnd) {
 844              		.loc 2 51 13
 845              	.LVL87:
  51:src/user/tests/ConsumerProducer_CPP_API_test.hpp ****             while (!threadEnd) {
 846              		.loc 2 51 17 is_stmt 0
 847 001c 13090000 		li	s2,0
 848              	.LVL88:
 849              	.L47:
  52:src/user/tests/ConsumerProducer_CPP_API_test.hpp ****                 td->buffer->put(td->id + '0');
 850              		.loc 2 52 13 is_stmt 1
  52:src/user/tests/ConsumerProducer_CPP_API_test.hpp ****                 td->buffer->put(td->id + '0');
 851              		.loc 2 52 20
 852 0020 97070000 		lw	a5,.LANCHOR0+4
 852      83A70700 
 853 0028 63920704 		bnez	a5,.L46
  53:src/user/tests/ConsumerProducer_CPP_API_test.hpp ****                 i++;
 854              		.loc 2 53 17
 855 002c 83B70401 		ld	a5,16(s1)
  53:src/user/tests/ConsumerProducer_CPP_API_test.hpp ****                 i++;
 856              		.loc 2 53 37 is_stmt 0
 857 0030 83A50700 		lw	a1,0(a5)
  53:src/user/tests/ConsumerProducer_CPP_API_test.hpp ****                 i++;
 858              		.loc 2 53 32
 859 0034 9B850503 		addiw	a1,a1,48
 860 0038 03B58700 		ld	a0,8(a5)
 861 003c 97000000 		call	_ZN9BufferCPP3putEi@plt
 861      E7800000 
 862              	.LVL89:
  54:src/user/tests/ConsumerProducer_CPP_API_test.hpp ****                 Thread::sleep((i+td->id)%5);
 863              		.loc 2 54 17 is_stmt 1
  54:src/user/tests/ConsumerProducer_CPP_API_test.hpp ****                 Thread::sleep((i+td->id)%5);
 864              		.loc 2 54 18 is_stmt 0
 865 0044 1B071900 		addiw	a4,s2,1
 866 0048 1B090700 		sext.w	s2,a4
 867              	.LVL90:
  55:src/user/tests/ConsumerProducer_CPP_API_test.hpp ****             }
 868              		.loc 2 55 17 is_stmt 1
  55:src/user/tests/ConsumerProducer_CPP_API_test.hpp ****             }
 869              		.loc 2 55 34 is_stmt 0
 870 004c 83B70401 		ld	a5,16(s1)
  55:src/user/tests/ConsumerProducer_CPP_API_test.hpp ****             }
 871              		.loc 2 55 38
 872 0050 83A70700 		lw	a5,0(a5)
  55:src/user/tests/ConsumerProducer_CPP_API_test.hpp ****             }
GAS LISTING /tmp/ccTuhaHZ.s 			page 21


 873              		.loc 2 55 33
 874 0054 BB87E700 		addw	a5,a5,a4
  55:src/user/tests/ConsumerProducer_CPP_API_test.hpp ****             }
 875              		.loc 2 55 30
 876 0058 13055000 		li	a0,5
 877 005c 3BE5A702 		remw	a0,a5,a0
 878 0060 97000000 		call	_ZN6Thread5sleepEm@plt
 878      E7800000 
 879              	.LVL91:
  52:src/user/tests/ConsumerProducer_CPP_API_test.hpp ****                 td->buffer->put(td->id + '0');
 880              		.loc 2 52 13
 881 0068 6FF09FFB 		j	.L47
 882              	.L46:
  58:src/user/tests/ConsumerProducer_CPP_API_test.hpp ****         }
 883              		.loc 2 58 13 is_stmt 1
 884 006c 83B70401 		ld	a5,16(s1)
  58:src/user/tests/ConsumerProducer_CPP_API_test.hpp ****         }
 885              		.loc 2 58 28 is_stmt 0
 886 0070 03B50701 		ld	a0,16(a5)
 887 0074 97000000 		call	_ZN9Semaphore6signalEv@plt
 887      E7800000 
 888              	.LVL92:
  59:src/user/tests/ConsumerProducer_CPP_API_test.hpp ****     };
 889              		.loc 2 59 9
 890 007c 83308101 		ld	ra,24(sp)
 891              		.cfi_restore 1
 892 0080 03340101 		ld	s0,16(sp)
 893              		.cfi_restore 8
 894              		.cfi_def_cfa 2, 32
 895 0084 83348100 		ld	s1,8(sp)
 896              		.cfi_restore 9
 897              	.LVL93:
 898 0088 03390100 		ld	s2,0(sp)
 899              		.cfi_restore 18
 900              	.LVL94:
 901 008c 13010102 		addi	sp,sp,32
 902              		.cfi_def_cfa_offset 0
 903 0090 67800000 		jr	ra
 904              		.cfi_endproc
 905              	.LFE27:
 907              		.section	.rodata._ZN10ForkThread3runEv.str1.8,"aMS",@progbits,1
 908              		.align	3
 909              	.LC5:
 910 0000 53746172 		.string	"Started thread id: "
 910      74656420 
 910      74687265 
 910      61642069 
 910      643A2000 
 911 0014 00000000 		.align	3
 912              	.LC6:
 913 0018 46696E69 		.string	"Finished thread id: "
 913      73686564 
 913      20746872 
 913      65616420 
 913      69643A20 
 914              		.section	.text._ZN10ForkThread3runEv,"axG",@progbits,_ZN10ForkThread3runEv,comdat
 915              		.align	2
GAS LISTING /tmp/ccTuhaHZ.s 			page 22


 916              		.weak	_ZN10ForkThread3runEv
 918              	_ZN10ForkThread3runEv:
 919              	.LFB36:
  11:src/user/tests/testUser.hpp **** public:
  12:src/user/tests/testUser.hpp ****     ForkThread(long _id) noexcept : Thread(), id(_id), finished(false) {}
  13:src/user/tests/testUser.hpp ****     virtual void run() {
 920              		.loc 3 13 18 is_stmt 1
 921              		.cfi_startproc
 922              		.cfi_personality 0x9b,DW.ref.__gxx_personality_v0
 923              		.cfi_lsda 0x1b,.LLSDA36
 924              	.LVL95:
 925 0000 130101FC 		addi	sp,sp,-64
 926              		.cfi_def_cfa_offset 64
 927 0004 233C1102 		sd	ra,56(sp)
 928 0008 23388102 		sd	s0,48(sp)
 929 000c 23349102 		sd	s1,40(sp)
 930 0010 23302103 		sd	s2,32(sp)
 931 0014 233C3101 		sd	s3,24(sp)
 932 0018 23384101 		sd	s4,16(sp)
 933 001c 23345101 		sd	s5,8(sp)
 934 0020 23306101 		sd	s6,0(sp)
 935              		.cfi_offset 1, -8
 936              		.cfi_offset 8, -16
 937              		.cfi_offset 9, -24
 938              		.cfi_offset 18, -32
 939              		.cfi_offset 19, -40
 940              		.cfi_offset 20, -48
 941              		.cfi_offset 21, -56
 942              		.cfi_offset 22, -64
 943 0024 13040104 		addi	s0,sp,64
 944              		.cfi_def_cfa 8, 0
 945 0028 130A0500 		mv	s4,a0
  14:src/user/tests/testUser.hpp ****         printString("Started thread id: ");
 946              		.loc 3 14 9
 947              		.loc 3 14 20 is_stmt 0
 948 002c 17050000 		lla	a0,.LC5
 948      13050500 
 949              	.LVL96:
 950              	.LEHB0:
 951 0034 97000000 		call	_Z11printStringPKc@plt
 951      E7800000 
 952              	.LVL97:
  15:src/user/tests/testUser.hpp ****         printInt(id,10);
 953              		.loc 3 15 9 is_stmt 1
 954              		.loc 3 15 17 is_stmt 0
 955 003c 13060000 		li	a2,0
 956 0040 9305A000 		li	a1,10
 957 0044 03250A01 		lw	a0,16(s4)
 958 0048 97000000 		call	_Z8printIntiii@plt
 958      E7800000 
 959              	.LVL98:
  16:src/user/tests/testUser.hpp ****         printString("\n");
 960              		.loc 3 16 9 is_stmt 1
 961              		.loc 3 16 20 is_stmt 0
 962 0050 17050000 		lla	a0,.LC1
 962      13050500 
 963 0058 97000000 		call	_Z11printStringPKc@plt
GAS LISTING /tmp/ccTuhaHZ.s 			page 23


 963      E7800000 
 964              	.LVL99:
  17:src/user/tests/testUser.hpp **** 
  18:src/user/tests/testUser.hpp ****         ForkThread* thread = new ForkThread(id + 1);
 965              		.loc 3 18 9 is_stmt 1
 966              		.loc 3 18 51 is_stmt 0
 967 0060 13050002 		li	a0,32
 968 0064 97000000 		call	_Znwm@plt
 968      E7800000 
 969              	.LVL100:
 970              	.LEHE0:
 971 006c 93090500 		mv	s3,a0
 972 0070 63040502 		beqz	a0,.L50
 973              		.loc 3 18 45 discriminator 1
 974 0074 83340A01 		ld	s1,16(s4)
 975              		.loc 3 18 51 discriminator 1
 976 0078 93841400 		addi	s1,s1,1
 977              	.LVL101:
 978              	.LBB87:
 979              	.LBB88:
  12:src/user/tests/testUser.hpp ****     virtual void run() {
 980              		.loc 3 12 70 discriminator 1
 981 007c 97000000 		call	_ZN6ThreadC2Ev@plt
 981      E7800000 
 982              	.LVL102:
 983 0084 97070000 		lla	a5,_ZTV10ForkThread+16
 983      93870700 
 984 008c 23B0F900 		sd	a5,0(s3)
 985 0090 23B89900 		sd	s1,16(s3)
 986 0094 238C0900 		sb	zero,24(s3)
 987              	.LVL103:
 988              	.L50:
 989              	.LBE88:
 990              	.LBE87:
  19:src/user/tests/testUser.hpp ****         ForkThread** threads = (ForkThread** ) mem_alloc(sizeof(ForkThread*) * id);
 991              		.loc 3 19 9 is_stmt 1 discriminator 4
 992              		.loc 3 19 80 is_stmt 0 discriminator 4
 993 0098 03350A01 		ld	a0,16(s4)
 994              		.loc 3 19 57 discriminator 4
 995 009c 13153500 		slli	a0,a0,3
 996              	.LEHB1:
 997 00a0 97000000 		call	_Z9mem_allocm@plt
 997      E7800000 
 998              	.LVL104:
 999 00a8 930A0500 		mv	s5,a0
 1000              	.LVL105:
  20:src/user/tests/testUser.hpp **** 
  21:src/user/tests/testUser.hpp ****         if (threads != nullptr) {
 1001              		.loc 3 21 9 is_stmt 1 discriminator 4
 1002              	.LBB89:
 1003 00ac 63080510 		beqz	a0,.L51
 1004              	.LBB90:
 1005              	.LBB91:
  22:src/user/tests/testUser.hpp ****             for (long i = 0; i < id; i++) {
 1006              		.loc 3 22 23 is_stmt 0
 1007 00b0 13090000 		li	s2,0
 1008 00b4 6F004001 		j	.L54
GAS LISTING /tmp/ccTuhaHZ.s 			page 24


 1009              	.LVL106:
 1010              	.L53:
  23:src/user/tests/testUser.hpp ****                 threads[i] = new ForkThread(id);
 1011              		.loc 3 23 26 discriminator 4
 1012 00b8 93173900 		slli	a5,s2,3
 1013 00bc B387FA00 		add	a5,s5,a5
 1014              		.loc 3 23 28 discriminator 4
 1015 00c0 23B09700 		sd	s1,0(a5)
  22:src/user/tests/testUser.hpp ****             for (long i = 0; i < id; i++) {
 1016              		.loc 3 22 13 is_stmt 1 discriminator 4
 1017 00c4 13091900 		addi	s2,s2,1
 1018              	.LVL107:
 1019              	.L54:
  22:src/user/tests/testUser.hpp ****             for (long i = 0; i < id; i++) {
 1020              		.loc 3 22 32 discriminator 2
  22:src/user/tests/testUser.hpp ****             for (long i = 0; i < id; i++) {
 1021              		.loc 3 22 34 is_stmt 0 discriminator 2
 1022 00c8 83370A01 		ld	a5,16(s4)
  22:src/user/tests/testUser.hpp ****             for (long i = 0; i < id; i++) {
 1023              		.loc 3 22 32 discriminator 2
 1024 00cc 635EF902 		ble	a5,s2,.L52
 1025              		.loc 3 23 17 is_stmt 1
 1026              		.loc 3 23 47 is_stmt 0
 1027 00d0 13050002 		li	a0,32
 1028 00d4 97000000 		call	_Znwm@plt
 1028      E7800000 
 1029              	.LVL108:
 1030              	.LEHE1:
 1031 00dc 93040500 		mv	s1,a0
 1032 00e0 E30C05FC 		beqz	a0,.L53
 1033              		.loc 3 23 47 discriminator 1
 1034 00e4 033B0A01 		ld	s6,16(s4)
 1035              	.LVL109:
 1036              	.LBB92:
 1037              	.LBB93:
  12:src/user/tests/testUser.hpp ****     virtual void run() {
 1038              		.loc 3 12 70 discriminator 1
 1039 00e8 97000000 		call	_ZN6ThreadC2Ev@plt
 1039      E7800000 
 1040              	.LVL110:
 1041 00f0 97070000 		lla	a5,_ZTV10ForkThread+16
 1041      93870700 
 1042 00f8 23B0F400 		sd	a5,0(s1)
 1043 00fc 23B86401 		sd	s6,16(s1)
 1044 0100 238C0400 		sb	zero,24(s1)
 1045              	.LVL111:
 1046              	.LBE93:
 1047              	.LBE92:
 1048 0104 6FF05FFB 		j	.L53
 1049              	.L52:
 1050              	.LBE91:
  24:src/user/tests/testUser.hpp ****             }
  25:src/user/tests/testUser.hpp **** 
  26:src/user/tests/testUser.hpp ****             if (thread != nullptr) {
 1051              		.loc 3 26 13 is_stmt 1
 1052              	.LBB94:
 1053 0108 638A0906 		beqz	s3,.L55
GAS LISTING /tmp/ccTuhaHZ.s 			page 25


 1054              	.LBB95:
  27:src/user/tests/testUser.hpp ****                 if (thread->start() == 0) {
 1055              		.loc 3 27 17
 1056              	.LBB96:
 1057              		.loc 3 27 34 is_stmt 0
 1058 010c 13850900 		mv	a0,s3
 1059              	.LEHB2:
 1060 0110 97000000 		call	_ZN6Thread5startEv@plt
 1060      E7800000 
 1061              	.LVL112:
 1062 0118 13090500 		mv	s2,a0
 1063              	.LVL113:
 1064              		.loc 3 27 17
 1065 011c 63180504 		bnez	a0,.L56
 1066              	.LBB97:
 1067              	.LBB98:
  28:src/user/tests/testUser.hpp **** 
  29:src/user/tests/testUser.hpp ****                     for (int i = 0; i < 5000; i++) {
 1068              		.loc 3 29 30
 1069 0120 93040500 		mv	s1,a0
 1070 0124 6F000001 		j	.L60
 1071              	.LVL114:
 1072              	.L58:
 1073              	.LBB99:
  30:src/user/tests/testUser.hpp ****                         for (int j = 0; j < 5000; j++) {
  31:src/user/tests/testUser.hpp **** 
  32:src/user/tests/testUser.hpp ****                         }
  33:src/user/tests/testUser.hpp ****                         thread_dispatch();
 1074              		.loc 3 33 25 is_stmt 1 discriminator 2
 1075              		.loc 3 33 40 is_stmt 0 discriminator 2
 1076 0128 97000000 		call	_Z15thread_dispatchv@plt
 1076      E7800000 
 1077              	.LVL115:
 1078              	.LBE99:
  29:src/user/tests/testUser.hpp ****                         for (int j = 0; j < 5000; j++) {
 1079              		.loc 3 29 21 is_stmt 1 discriminator 2
 1080 0130 9B841400 		addiw	s1,s1,1
 1081              	.LVL116:
 1082              	.L60:
  29:src/user/tests/testUser.hpp ****                         for (int j = 0; j < 5000; j++) {
 1083              		.loc 3 29 39 discriminator 1
 1084 0134 B7170000 		li	a5,4096
 1085 0138 93877738 		addi	a5,a5,903
 1086 013c 63CE9700 		bgt	s1,a5,.L57
 1087              	.LBB102:
 1088              	.LBB100:
  30:src/user/tests/testUser.hpp ****                         for (int j = 0; j < 5000; j++) {
 1089              		.loc 3 30 34 is_stmt 0
 1090 0140 13070900 		mv	a4,s2
 1091              	.L59:
 1092              	.LVL117:
  30:src/user/tests/testUser.hpp ****                         for (int j = 0; j < 5000; j++) {
 1093              		.loc 3 30 43 is_stmt 1 discriminator 3
 1094 0144 B7170000 		li	a5,4096
 1095 0148 93877738 		addi	a5,a5,903
 1096 014c E3CEE7FC 		bgt	a4,a5,.L58
  30:src/user/tests/testUser.hpp ****                         for (int j = 0; j < 5000; j++) {
GAS LISTING /tmp/ccTuhaHZ.s 			page 26


 1097              		.loc 3 30 25 discriminator 2
 1098 0150 1B071700 		addiw	a4,a4,1
 1099              	.LVL118:
 1100 0154 6FF01FFF 		j	.L59
 1101              	.L57:
 1102              	.LBE100:
 1103              	.LBE102:
 1104              	.LBE98:
  34:src/user/tests/testUser.hpp ****                     }
  35:src/user/tests/testUser.hpp **** 
  36:src/user/tests/testUser.hpp ****                     while (!thread->isFinished()) {
 1105              		.loc 3 36 21
 1106              		.loc 3 36 28
 1107              	.LVL119:
 1108              	.LBB104:
 1109              	.LBB105:
  37:src/user/tests/testUser.hpp ****                         thread_dispatch();
  38:src/user/tests/testUser.hpp ****                     }
  39:src/user/tests/testUser.hpp ****                 }
  40:src/user/tests/testUser.hpp ****                 delete thread;
  41:src/user/tests/testUser.hpp ****             }
  42:src/user/tests/testUser.hpp **** 
  43:src/user/tests/testUser.hpp ****             for (long i = 0; i < id; i++) {
  44:src/user/tests/testUser.hpp ****                 delete threads[i];
  45:src/user/tests/testUser.hpp ****             }
  46:src/user/tests/testUser.hpp **** 
  47:src/user/tests/testUser.hpp ****             mem_free(threads);
  48:src/user/tests/testUser.hpp ****         }
  49:src/user/tests/testUser.hpp **** 
  50:src/user/tests/testUser.hpp ****         printString("Finished thread id: ");
  51:src/user/tests/testUser.hpp ****         printInt(id,10);
  52:src/user/tests/testUser.hpp ****         printString("\n");
  53:src/user/tests/testUser.hpp **** //        ConsoleUtil::print("Finished thread id:",id,"\n");
  54:src/user/tests/testUser.hpp **** 
  55:src/user/tests/testUser.hpp ****         finished = true;
  56:src/user/tests/testUser.hpp ****     }
  57:src/user/tests/testUser.hpp **** 
  58:src/user/tests/testUser.hpp ****     bool isFinished() const {
  59:src/user/tests/testUser.hpp ****         return finished;
 1110              		.loc 3 59 9
 1111              		.loc 3 59 16 is_stmt 0
 1112 0158 83C78901 		lbu	a5,24(s3)
 1113              	.LVL120:
 1114              	.LBE105:
 1115              	.LBE104:
  36:src/user/tests/testUser.hpp ****                         thread_dispatch();
 1116              		.loc 3 36 28
 1117 015c 63980700 		bnez	a5,.L56
  37:src/user/tests/testUser.hpp ****                         thread_dispatch();
 1118              		.loc 3 37 25 is_stmt 1
  37:src/user/tests/testUser.hpp ****                         thread_dispatch();
 1119              		.loc 3 37 40 is_stmt 0
 1120 0160 97000000 		call	_Z15thread_dispatchv@plt
 1120      E7800000 
 1121              	.LVL121:
  36:src/user/tests/testUser.hpp ****                         thread_dispatch();
 1122              		.loc 3 36 21
GAS LISTING /tmp/ccTuhaHZ.s 			page 27


 1123 0168 6FF01FFF 		j	.L57
 1124              	.LVL122:
 1125              	.L56:
 1126              	.LBE97:
 1127              	.LBE96:
  40:src/user/tests/testUser.hpp ****             }
 1128              		.loc 3 40 17 is_stmt 1
  40:src/user/tests/testUser.hpp ****             }
 1129              		.loc 3 40 24 is_stmt 0
 1130 016c 83B70900 		ld	a5,0(s3)
 1131 0170 83B78700 		ld	a5,8(a5)
 1132 0174 13850900 		mv	a0,s3
 1133 0178 E7800700 		jalr	a5
 1134              	.LVL123:
 1135              	.L55:
 1136              	.LBB108:
 1137              	.LBB107:
 1138              	.LBB106:
 1139              	.LBB103:
 1140              	.LBB101:
  30:src/user/tests/testUser.hpp **** 
 1141              		.loc 3 30 34 discriminator 1
 1142 017c 93040000 		li	s1,0
 1143 0180 6F008000 		j	.L63
 1144              	.LVL124:
 1145              	.L62:
 1146              	.LBE101:
 1147              	.LBE103:
 1148              	.LBE106:
 1149              	.LBE107:
 1150              	.LBE108:
 1151              	.LBE95:
 1152              	.LBE94:
 1153              	.LBB109:
  43:src/user/tests/testUser.hpp ****                 delete threads[i];
 1154              		.loc 3 43 13 is_stmt 1 discriminator 2
 1155 0184 93841400 		addi	s1,s1,1
 1156              	.LVL125:
 1157              	.L63:
  43:src/user/tests/testUser.hpp ****                 delete threads[i];
 1158              		.loc 3 43 32 discriminator 1
  43:src/user/tests/testUser.hpp ****                 delete threads[i];
 1159              		.loc 3 43 34 is_stmt 0 discriminator 1
 1160 0188 83370A01 		ld	a5,16(s4)
  43:src/user/tests/testUser.hpp ****                 delete threads[i];
 1161              		.loc 3 43 32 discriminator 1
 1162 018c 63D2F402 		ble	a5,s1,.L61
  44:src/user/tests/testUser.hpp ****             }
 1163              		.loc 3 44 17 is_stmt 1
  44:src/user/tests/testUser.hpp ****             }
 1164              		.loc 3 44 33 is_stmt 0
 1165 0190 93973400 		slli	a5,s1,3
 1166 0194 B387FA00 		add	a5,s5,a5
 1167 0198 03B50700 		ld	a0,0(a5)
  44:src/user/tests/testUser.hpp ****             }
 1168              		.loc 3 44 34
 1169 019c E30405FE 		beqz	a0,.L62
GAS LISTING /tmp/ccTuhaHZ.s 			page 28


  44:src/user/tests/testUser.hpp ****             }
 1170              		.loc 3 44 33 discriminator 1
 1171 01a0 83370500 		ld	a5,0(a0)
 1172 01a4 83B78700 		ld	a5,8(a5)
 1173 01a8 E7800700 		jalr	a5
 1174              	.LVL126:
 1175 01ac 6FF09FFD 		j	.L62
 1176              	.L61:
 1177              	.LBE109:
  47:src/user/tests/testUser.hpp ****         }
 1178              		.loc 3 47 13 is_stmt 1
  47:src/user/tests/testUser.hpp ****         }
 1179              		.loc 3 47 21 is_stmt 0
 1180 01b0 13850A00 		mv	a0,s5
 1181 01b4 97000000 		call	_Z8mem_freePv@plt
 1181      E7800000 
 1182              	.LVL127:
 1183              	.L51:
 1184              	.LBE90:
 1185              	.LBE89:
  50:src/user/tests/testUser.hpp ****         printInt(id,10);
 1186              		.loc 3 50 9 is_stmt 1
  50:src/user/tests/testUser.hpp ****         printInt(id,10);
 1187              		.loc 3 50 20 is_stmt 0
 1188 01bc 17050000 		lla	a0,.LC6
 1188      13050500 
 1189 01c4 97000000 		call	_Z11printStringPKc@plt
 1189      E7800000 
 1190              	.LVL128:
  51:src/user/tests/testUser.hpp ****         printString("\n");
 1191              		.loc 3 51 9 is_stmt 1
  51:src/user/tests/testUser.hpp ****         printString("\n");
 1192              		.loc 3 51 17 is_stmt 0
 1193 01cc 13060000 		li	a2,0
 1194 01d0 9305A000 		li	a1,10
 1195 01d4 03250A01 		lw	a0,16(s4)
 1196 01d8 97000000 		call	_Z8printIntiii@plt
 1196      E7800000 
 1197              	.LVL129:
  52:src/user/tests/testUser.hpp **** //        ConsoleUtil::print("Finished thread id:",id,"\n");
 1198              		.loc 3 52 9 is_stmt 1
  52:src/user/tests/testUser.hpp **** //        ConsoleUtil::print("Finished thread id:",id,"\n");
 1199              		.loc 3 52 20 is_stmt 0
 1200 01e0 17050000 		lla	a0,.LC1
 1200      13050500 
 1201 01e8 97000000 		call	_Z11printStringPKc@plt
 1201      E7800000 
 1202              	.LVL130:
 1203              	.LEHE2:
  55:src/user/tests/testUser.hpp ****     }
 1204              		.loc 3 55 9 is_stmt 1
  55:src/user/tests/testUser.hpp ****     }
 1205              		.loc 3 55 18 is_stmt 0
 1206 01f0 93071000 		li	a5,1
 1207 01f4 230CFA00 		sb	a5,24(s4)
  56:src/user/tests/testUser.hpp **** 
 1208              		.loc 3 56 5
GAS LISTING /tmp/ccTuhaHZ.s 			page 29


 1209 01f8 83308103 		ld	ra,56(sp)
 1210              		.cfi_restore 1
 1211 01fc 03340103 		ld	s0,48(sp)
 1212              		.cfi_restore 8
 1213              		.cfi_def_cfa 2, 64
 1214 0200 83348102 		ld	s1,40(sp)
 1215              		.cfi_restore 9
 1216 0204 03390102 		ld	s2,32(sp)
 1217              		.cfi_restore 18
 1218 0208 83398101 		ld	s3,24(sp)
 1219              		.cfi_restore 19
 1220              	.LVL131:
 1221 020c 033A0101 		ld	s4,16(sp)
 1222              		.cfi_restore 20
 1223              	.LVL132:
 1224 0210 833A8100 		ld	s5,8(sp)
 1225              		.cfi_restore 21
 1226              	.LVL133:
 1227 0214 033B0100 		ld	s6,0(sp)
 1228              		.cfi_restore 22
 1229 0218 13010104 		addi	sp,sp,64
 1230              		.cfi_def_cfa_offset 0
 1231 021c 67800000 		jr	ra
 1232              		.cfi_endproc
 1233              	.LFE36:
 1234              		.globl	__gxx_personality_v0
 1235              		.section	.gcc_except_table._ZN10ForkThread3runEv,"aG",@progbits,_ZN10ForkThread3runEv,comdat
 1236              	.LLSDA36:
 1237 0000 FF       		.byte	0xff
 1238 0001 FF       		.byte	0xff
 1239 0002 03       		.byte	0x3
 1240 0003 27       		.byte	0x27
 1241 0004 00000000 		.4byte	.LEHB0-.LFB36
 1242 0008 00000000 		.4byte	.LEHE0-.LEHB0
 1243 000c 00000000 		.4byte	0
 1244 0010 00       		.byte	0
 1245 0011 00000000 		.4byte	.LEHB1-.LFB36
 1246 0015 00000000 		.4byte	.LEHE1-.LEHB1
 1247 0019 00000000 		.4byte	0
 1248 001d 00       		.byte	0
 1249 001e 00000000 		.4byte	.LEHB2-.LFB36
 1250 0022 00000000 		.4byte	.LEHE2-.LEHB2
 1251 0026 00000000 		.4byte	0
 1252 002a 00       		.byte	0
 1253              		.section	.text._ZN10ForkThread3runEv,"axG",@progbits,_ZN10ForkThread3runEv,comdat
 1255              		.text
 1256              		.align	2
 1257              		.globl	_Z9fibonaccim
 1259              	_Z9fibonaccim:
 1260              	.LFB12:
  13:src/user/tests/Threads_C_API_test.hpp ****     if (n == 0 || n == 1) { return n; }
 1261              		.loc 1 13 28 is_stmt 1
 1262              		.cfi_startproc
 1263              	.LVL134:
 1264 01a0 130101FE 		addi	sp,sp,-32
 1265              		.cfi_def_cfa_offset 32
 1266 01a4 233C1100 		sd	ra,24(sp)
GAS LISTING /tmp/ccTuhaHZ.s 			page 30


 1267 01a8 23388100 		sd	s0,16(sp)
 1268 01ac 23349100 		sd	s1,8(sp)
 1269 01b0 23302101 		sd	s2,0(sp)
 1270              		.cfi_offset 1, -8
 1271              		.cfi_offset 8, -16
 1272              		.cfi_offset 9, -24
 1273              		.cfi_offset 18, -32
 1274 01b4 13040102 		addi	s0,sp,32
 1275              		.cfi_def_cfa 8, 0
 1276 01b8 93040500 		mv	s1,a0
  14:src/user/tests/Threads_C_API_test.hpp ****     if (n % 10 == 0) { thread_dispatch(); }
 1277              		.loc 1 14 5
 1278 01bc 93071000 		li	a5,1
 1279 01c0 63F8A702 		bleu	a0,a5,.L65
  15:src/user/tests/Threads_C_API_test.hpp ****     return fibonacci(n - 1) + fibonacci(n - 2);
 1280              		.loc 1 15 5
  15:src/user/tests/Threads_C_API_test.hpp ****     return fibonacci(n - 1) + fibonacci(n - 2);
 1281              		.loc 1 15 11 is_stmt 0
 1282 01c4 9307A000 		li	a5,10
 1283 01c8 B377F502 		remu	a5,a0,a5
  15:src/user/tests/Threads_C_API_test.hpp ****     return fibonacci(n - 1) + fibonacci(n - 2);
 1284              		.loc 1 15 5
 1285 01cc 638E0702 		beqz	a5,.L70
 1286              	.LVL135:
 1287              	.L67:
  16:src/user/tests/Threads_C_API_test.hpp **** }
 1288              		.loc 1 16 5 is_stmt 1
  16:src/user/tests/Threads_C_API_test.hpp **** }
 1289              		.loc 1 16 21 is_stmt 0
 1290 01d0 1385F4FF 		addi	a0,s1,-1
 1291 01d4 97000000 		call	_Z9fibonaccim
 1291      E7800000 
 1292              	.LVL136:
 1293 01dc 13090500 		mv	s2,a0
  16:src/user/tests/Threads_C_API_test.hpp **** }
 1294              		.loc 1 16 40
 1295 01e0 1385E4FF 		addi	a0,s1,-2
 1296 01e4 97000000 		call	_Z9fibonaccim
 1296      E7800000 
 1297              	.LVL137:
  16:src/user/tests/Threads_C_API_test.hpp **** }
 1298              		.loc 1 16 46
 1299 01ec 3305A900 		add	a0,s2,a0
 1300              	.L65:
  17:src/user/tests/Threads_C_API_test.hpp **** 
 1301              		.loc 1 17 1
 1302 01f0 83308101 		ld	ra,24(sp)
 1303              		.cfi_remember_state
 1304              		.cfi_restore 1
 1305 01f4 03340101 		ld	s0,16(sp)
 1306              		.cfi_restore 8
 1307              		.cfi_def_cfa 2, 32
 1308 01f8 83348100 		ld	s1,8(sp)
 1309              		.cfi_restore 9
 1310              	.LVL138:
 1311 01fc 03390100 		ld	s2,0(sp)
 1312              		.cfi_restore 18
GAS LISTING /tmp/ccTuhaHZ.s 			page 31


 1313 0200 13010102 		addi	sp,sp,32
 1314              		.cfi_def_cfa_offset 0
 1315 0204 67800000 		jr	ra
 1316              	.LVL139:
 1317              	.L70:
 1318              		.cfi_restore_state
  15:src/user/tests/Threads_C_API_test.hpp ****     return fibonacci(n - 1) + fibonacci(n - 2);
 1319              		.loc 1 15 24 is_stmt 1 discriminator 1
  15:src/user/tests/Threads_C_API_test.hpp ****     return fibonacci(n - 1) + fibonacci(n - 2);
 1320              		.loc 1 15 39 is_stmt 0 discriminator 1
 1321 0208 97000000 		call	_Z15thread_dispatchv@plt
 1321      E7800000 
 1322              	.LVL140:
 1323 0210 6FF01FFC 		j	.L67
 1324              		.cfi_endproc
 1325              	.LFE12:
 1327              		.section	.rodata.str1.8
 1328 0035 000000   		.align	3
 1329              	.LC7:
 1330 0038 433A2069 		.string	"C: i="
 1330      3D00
 1331 003e 0000     		.align	3
 1332              	.LC8:
 1333 0040 433A2064 		.string	"C: dispatch\n"
 1333      69737061 
 1333      7463680A 
 1333      00
 1334 004d 000000   		.align	3
 1335              	.LC9:
 1336 0050 433A2074 		.string	"C: t1="
 1336      313D00
 1337 0057 00       		.align	3
 1338              	.LC10:
 1339 0058 433A2066 		.string	"C: fibonaci="
 1339      69626F6E 
 1339      6163693D 
 1339      00
 1340              		.text
 1341              		.align	2
 1342              		.globl	_Z11workerBodyCPv
 1344              	_Z11workerBodyCPv:
 1345              	.LFB15:
  43:src/user/tests/Threads_C_API_test.hpp **** 
  44:src/user/tests/Threads_C_API_test.hpp **** void workerBodyC(void* arg) {
 1346              		.loc 1 44 29 is_stmt 1
 1347              		.cfi_startproc
 1348              	.LVL141:
 1349 0214 130101FE 		addi	sp,sp,-32
 1350              		.cfi_def_cfa_offset 32
 1351 0218 233C1100 		sd	ra,24(sp)
 1352 021c 23388100 		sd	s0,16(sp)
 1353 0220 23349100 		sd	s1,8(sp)
 1354 0224 23302101 		sd	s2,0(sp)
 1355              		.cfi_offset 1, -8
 1356              		.cfi_offset 8, -16
 1357              		.cfi_offset 9, -24
 1358              		.cfi_offset 18, -32
GAS LISTING /tmp/ccTuhaHZ.s 			page 32


 1359 0228 13040102 		addi	s0,sp,32
 1360              		.cfi_def_cfa 8, 0
  45:src/user/tests/Threads_C_API_test.hpp ****     uint8 i = 0;
 1361              		.loc 1 45 5
 1362              	.LVL142:
 1363              		.loc 1 45 11 is_stmt 0
 1364 022c 93040000 		li	s1,0
 1365 0230 6F000004 		j	.L73
 1366              	.LVL143:
 1367              	.L77:
  46:src/user/tests/Threads_C_API_test.hpp ****     for (; i < 3; i++) {
  47:src/user/tests/Threads_C_API_test.hpp ****         printString("C: i="); printInt(i); printString("\n");
 1368              		.loc 1 47 9 is_stmt 1 discriminator 1
 1369              		.loc 1 47 20 is_stmt 0 discriminator 1
 1370 0234 17050000 		lla	a0,.LC7
 1370      13050500 
 1371 023c 97000000 		call	_Z11printStringPKc@plt
 1371      E7800000 
 1372              	.LVL144:
 1373              		.loc 1 47 31 is_stmt 1 discriminator 1
 1374              		.loc 1 47 39 is_stmt 0 discriminator 1
 1375 0244 13060000 		li	a2,0
 1376 0248 9305A000 		li	a1,10
 1377 024c 13850400 		mv	a0,s1
 1378 0250 97000000 		call	_Z8printIntiii@plt
 1378      E7800000 
 1379              	.LVL145:
 1380              		.loc 1 47 44 is_stmt 1 discriminator 1
 1381              		.loc 1 47 55 is_stmt 0 discriminator 1
 1382 0258 17050000 		lla	a0,.LC1
 1382      13050500 
 1383 0260 97000000 		call	_Z11printStringPKc@plt
 1383      E7800000 
 1384              	.LVL146:
  46:src/user/tests/Threads_C_API_test.hpp ****     for (; i < 3; i++) {
 1385              		.loc 1 46 5 is_stmt 1 discriminator 1
 1386 0268 9B841400 		addiw	s1,s1,1
 1387              	.LVL147:
 1388 026c 93F4F40F 		andi	s1,s1,0xff
 1389              	.LVL148:
 1390              	.L73:
  46:src/user/tests/Threads_C_API_test.hpp ****     for (; i < 3; i++) {
 1391              		.loc 1 46 5 discriminator 2
  46:src/user/tests/Threads_C_API_test.hpp ****     for (; i < 3; i++) {
 1392              		.loc 1 46 14 discriminator 2
 1393 0270 93072000 		li	a5,2
 1394 0274 E3F097FC 		bleu	s1,a5,.L77
  48:src/user/tests/Threads_C_API_test.hpp ****     }
  49:src/user/tests/Threads_C_API_test.hpp **** 
  50:src/user/tests/Threads_C_API_test.hpp ****     printString("C: dispatch\n");
 1395              		.loc 1 50 5
 1396              		.loc 1 50 16 is_stmt 0
 1397 0278 17050000 		lla	a0,.LC8
 1397      13050500 
 1398 0280 97000000 		call	_Z11printStringPKc@plt
 1398      E7800000 
 1399              	.LVL149:
GAS LISTING /tmp/ccTuhaHZ.s 			page 33


  51:src/user/tests/Threads_C_API_test.hpp ****     __asm__ ("li t1, 7");
 1400              		.loc 1 51 5 is_stmt 1
 1401              		.loc 1 51 25 is_stmt 0
 1402              	#APP
 1403              	# 51 "src/user/tests/Threads_C_API_test.hpp" 1
  52              	    thread_dispatch();
 1404              		li t1, 7
 1405              	# 0 "" 2
 1406              		.loc 1 52 5 is_stmt 1
 1407              		.loc 1 52 20 is_stmt 0
 1408              	#NO_APP
 1409 028c 97000000 		call	_Z15thread_dispatchv@plt
 1409      E7800000 
 1410              	.LVL150:
  53:src/user/tests/Threads_C_API_test.hpp **** 
  54:src/user/tests/Threads_C_API_test.hpp ****     uint64 t1 = 0;
 1411              		.loc 1 54 5 is_stmt 1
  55:src/user/tests/Threads_C_API_test.hpp ****     __asm__ ("mv %[t1], t1" : [t1] "=r"(t1));
 1412              		.loc 1 55 5
 1413              		.loc 1 55 45 is_stmt 0
 1414              	#APP
 1415              	# 55 "src/user/tests/Threads_C_API_test.hpp" 1
  56              	
 1416              		mv s2, t1
 1417              	# 0 "" 2
 1418              	.LVL151:
  57:src/user/tests/Threads_C_API_test.hpp ****     printString("C: t1="); printInt(t1); printString("\n");
 1419              		.loc 1 57 5 is_stmt 1
 1420              		.loc 1 57 16 is_stmt 0
 1421              	#NO_APP
 1422 0298 17050000 		lla	a0,.LC9
 1422      13050500 
 1423 02a0 97000000 		call	_Z11printStringPKc@plt
 1423      E7800000 
 1424              	.LVL152:
 1425              		.loc 1 57 28 is_stmt 1
 1426              		.loc 1 57 36 is_stmt 0
 1427 02a8 13060000 		li	a2,0
 1428 02ac 9305A000 		li	a1,10
 1429 02b0 1B050900 		sext.w	a0,s2
 1430 02b4 97000000 		call	_Z8printIntiii@plt
 1430      E7800000 
 1431              	.LVL153:
 1432              		.loc 1 57 42 is_stmt 1
 1433              		.loc 1 57 53 is_stmt 0
 1434 02bc 17050000 		lla	a0,.LC1
 1434      13050500 
 1435 02c4 97000000 		call	_Z11printStringPKc@plt
 1435      E7800000 
 1436              	.LVL154:
  58:src/user/tests/Threads_C_API_test.hpp **** 
  59:src/user/tests/Threads_C_API_test.hpp ****     uint64 result = fibonacci(12);
 1437              		.loc 1 59 5 is_stmt 1
 1438              		.loc 1 59 30 is_stmt 0
 1439 02cc 1305C000 		li	a0,12
 1440 02d0 97000000 		call	_Z9fibonaccim
 1440      E7800000 
GAS LISTING /tmp/ccTuhaHZ.s 			page 34


 1441              	.LVL155:
 1442 02d8 13090500 		mv	s2,a0
 1443              	.LVL156:
  60:src/user/tests/Threads_C_API_test.hpp ****     printString("C: fibonaci="); printInt(result); printString("\n");
 1444              		.loc 1 60 5 is_stmt 1
 1445              		.loc 1 60 16 is_stmt 0
 1446 02dc 17050000 		lla	a0,.LC10
 1446      13050500 
 1447              	.LVL157:
 1448 02e4 97000000 		call	_Z11printStringPKc@plt
 1448      E7800000 
 1449              	.LVL158:
 1450              		.loc 1 60 34 is_stmt 1
 1451              		.loc 1 60 42 is_stmt 0
 1452 02ec 13060000 		li	a2,0
 1453 02f0 9305A000 		li	a1,10
 1454 02f4 1B050900 		sext.w	a0,s2
 1455 02f8 97000000 		call	_Z8printIntiii@plt
 1455      E7800000 
 1456              	.LVL159:
 1457              		.loc 1 60 52 is_stmt 1
 1458              		.loc 1 60 63 is_stmt 0
 1459 0300 17050000 		lla	a0,.LC1
 1459      13050500 
 1460 0308 97000000 		call	_Z11printStringPKc@plt
 1460      E7800000 
 1461              	.LVL160:
 1462 0310 6F000004 		j	.L75
 1463              	.L78:
  61:src/user/tests/Threads_C_API_test.hpp **** 
  62:src/user/tests/Threads_C_API_test.hpp ****     for (; i < 6; i++) {
  63:src/user/tests/Threads_C_API_test.hpp ****         printString("C: i="); printInt(i); printString("\n");
 1464              		.loc 1 63 9 is_stmt 1 discriminator 1
 1465              		.loc 1 63 20 is_stmt 0 discriminator 1
 1466 0314 17050000 		lla	a0,.LC7
 1466      13050500 
 1467 031c 97000000 		call	_Z11printStringPKc@plt
 1467      E7800000 
 1468              	.LVL161:
 1469              		.loc 1 63 31 is_stmt 1 discriminator 1
 1470              		.loc 1 63 39 is_stmt 0 discriminator 1
 1471 0324 13060000 		li	a2,0
 1472 0328 9305A000 		li	a1,10
 1473 032c 13850400 		mv	a0,s1
 1474 0330 97000000 		call	_Z8printIntiii@plt
 1474      E7800000 
 1475              	.LVL162:
 1476              		.loc 1 63 44 is_stmt 1 discriminator 1
 1477              		.loc 1 63 55 is_stmt 0 discriminator 1
 1478 0338 17050000 		lla	a0,.LC1
 1478      13050500 
 1479 0340 97000000 		call	_Z11printStringPKc@plt
 1479      E7800000 
 1480              	.LVL163:
  62:src/user/tests/Threads_C_API_test.hpp ****         printString("C: i="); printInt(i); printString("\n");
 1481              		.loc 1 62 5 is_stmt 1 discriminator 1
 1482 0348 9B841400 		addiw	s1,s1,1
GAS LISTING /tmp/ccTuhaHZ.s 			page 35


 1483              	.LVL164:
 1484 034c 93F4F40F 		andi	s1,s1,0xff
 1485              	.LVL165:
 1486              	.L75:
  62:src/user/tests/Threads_C_API_test.hpp ****         printString("C: i="); printInt(i); printString("\n");
 1487              		.loc 1 62 5 discriminator 2
  62:src/user/tests/Threads_C_API_test.hpp ****         printString("C: i="); printInt(i); printString("\n");
 1488              		.loc 1 62 14 discriminator 2
 1489 0350 93075000 		li	a5,5
 1490 0354 E3F097FC 		bleu	s1,a5,.L78
  64:src/user/tests/Threads_C_API_test.hpp ****     }
  65:src/user/tests/Threads_C_API_test.hpp **** 
  66:src/user/tests/Threads_C_API_test.hpp ****     printString("A finished!\n");
 1491              		.loc 1 66 5
 1492              		.loc 1 66 16 is_stmt 0
 1493 0358 17050000 		lla	a0,.LC2
 1493      13050500 
 1494 0360 97000000 		call	_Z11printStringPKc@plt
 1494      E7800000 
 1495              	.LVL166:
  67:src/user/tests/Threads_C_API_test.hpp ****     finishedC = true;
 1496              		.loc 1 67 5 is_stmt 1
 1497              		.loc 1 67 15 is_stmt 0
 1498 0368 93071000 		li	a5,1
 1499 036c 17070000 		sb	a5,.LANCHOR0+8,a4
 1499      2300F700 
  68:src/user/tests/Threads_C_API_test.hpp ****     thread_dispatch();
 1500              		.loc 1 68 5 is_stmt 1
 1501              		.loc 1 68 20 is_stmt 0
 1502 0374 97000000 		call	_Z15thread_dispatchv@plt
 1502      E7800000 
 1503              	.LVL167:
  69:src/user/tests/Threads_C_API_test.hpp **** }
 1504              		.loc 1 69 1
 1505 037c 83308101 		ld	ra,24(sp)
 1506              		.cfi_restore 1
 1507 0380 03340101 		ld	s0,16(sp)
 1508              		.cfi_restore 8
 1509              		.cfi_def_cfa 2, 32
 1510 0384 83348100 		ld	s1,8(sp)
 1511              		.cfi_restore 9
 1512              	.LVL168:
 1513 0388 03390100 		ld	s2,0(sp)
 1514              		.cfi_restore 18
 1515              	.LVL169:
 1516 038c 13010102 		addi	sp,sp,32
 1517              		.cfi_def_cfa_offset 0
 1518 0390 67800000 		jr	ra
 1519              		.cfi_endproc
 1520              	.LFE15:
 1522              		.section	.rodata.str1.8
 1523 0065 000000   		.align	3
 1524              	.LC11:
 1525 0068 443A2069 		.string	"D: i="
 1525      3D00
 1526 006e 0000     		.align	3
 1527              	.LC12:
GAS LISTING /tmp/ccTuhaHZ.s 			page 36


 1528 0070 443A2064 		.string	"D: dispatch\n"
 1528      69737061 
 1528      7463680A 
 1528      00
 1529 007d 000000   		.align	3
 1530              	.LC13:
 1531 0080 443A2066 		.string	"D: fibonaci="
 1531      69626F6E 
 1531      6163693D 
 1531      00
 1532 008d 000000   		.align	3
 1533              	.LC14:
 1534 0090 44206669 		.string	"D finished!\n"
 1534      6E697368 
 1534      6564210A 
 1534      00
 1535              		.text
 1536              		.align	2
 1537              		.globl	_Z11workerBodyDPv
 1539              	_Z11workerBodyDPv:
 1540              	.LFB16:
  70:src/user/tests/Threads_C_API_test.hpp **** 
  71:src/user/tests/Threads_C_API_test.hpp **** void workerBodyD(void* arg) {
 1541              		.loc 1 71 29 is_stmt 1
 1542              		.cfi_startproc
 1543              	.LVL170:
 1544 0394 130101FE 		addi	sp,sp,-32
 1545              		.cfi_def_cfa_offset 32
 1546 0398 233C1100 		sd	ra,24(sp)
 1547 039c 23388100 		sd	s0,16(sp)
 1548 03a0 23349100 		sd	s1,8(sp)
 1549 03a4 23302101 		sd	s2,0(sp)
 1550              		.cfi_offset 1, -8
 1551              		.cfi_offset 8, -16
 1552              		.cfi_offset 9, -24
 1553              		.cfi_offset 18, -32
 1554 03a8 13040102 		addi	s0,sp,32
 1555              		.cfi_def_cfa 8, 0
  72:src/user/tests/Threads_C_API_test.hpp ****     uint8 i = 10;
 1556              		.loc 1 72 5
 1557              	.LVL171:
 1558              		.loc 1 72 11 is_stmt 0
 1559 03ac 9304A000 		li	s1,10
 1560 03b0 6F000004 		j	.L81
 1561              	.LVL172:
 1562              	.L85:
  73:src/user/tests/Threads_C_API_test.hpp ****     for (; i < 13; i++) {
  74:src/user/tests/Threads_C_API_test.hpp ****         printString("D: i="); printInt(i); printString("\n");
 1563              		.loc 1 74 9 is_stmt 1 discriminator 1
 1564              		.loc 1 74 20 is_stmt 0 discriminator 1
 1565 03b4 17050000 		lla	a0,.LC11
 1565      13050500 
 1566 03bc 97000000 		call	_Z11printStringPKc@plt
 1566      E7800000 
 1567              	.LVL173:
 1568              		.loc 1 74 31 is_stmt 1 discriminator 1
 1569              		.loc 1 74 39 is_stmt 0 discriminator 1
GAS LISTING /tmp/ccTuhaHZ.s 			page 37


 1570 03c4 13060000 		li	a2,0
 1571 03c8 9305A000 		li	a1,10
 1572 03cc 13850400 		mv	a0,s1
 1573 03d0 97000000 		call	_Z8printIntiii@plt
 1573      E7800000 
 1574              	.LVL174:
 1575              		.loc 1 74 44 is_stmt 1 discriminator 1
 1576              		.loc 1 74 55 is_stmt 0 discriminator 1
 1577 03d8 17050000 		lla	a0,.LC1
 1577      13050500 
 1578 03e0 97000000 		call	_Z11printStringPKc@plt
 1578      E7800000 
 1579              	.LVL175:
  73:src/user/tests/Threads_C_API_test.hpp ****     for (; i < 13; i++) {
 1580              		.loc 1 73 5 is_stmt 1 discriminator 1
 1581 03e8 9B841400 		addiw	s1,s1,1
 1582              	.LVL176:
 1583 03ec 93F4F40F 		andi	s1,s1,0xff
 1584              	.LVL177:
 1585              	.L81:
  73:src/user/tests/Threads_C_API_test.hpp ****     for (; i < 13; i++) {
 1586              		.loc 1 73 5 discriminator 2
  73:src/user/tests/Threads_C_API_test.hpp ****     for (; i < 13; i++) {
 1587              		.loc 1 73 14 discriminator 2
 1588 03f0 9307C000 		li	a5,12
 1589 03f4 E3F097FC 		bleu	s1,a5,.L85
  75:src/user/tests/Threads_C_API_test.hpp ****     }
  76:src/user/tests/Threads_C_API_test.hpp **** 
  77:src/user/tests/Threads_C_API_test.hpp ****     printString("D: dispatch\n");
 1590              		.loc 1 77 5
 1591              		.loc 1 77 16 is_stmt 0
 1592 03f8 17050000 		lla	a0,.LC12
 1592      13050500 
 1593 0400 97000000 		call	_Z11printStringPKc@plt
 1593      E7800000 
 1594              	.LVL178:
  78:src/user/tests/Threads_C_API_test.hpp ****     __asm__ ("li t1, 5");
 1595              		.loc 1 78 5 is_stmt 1
 1596              		.loc 1 78 25 is_stmt 0
 1597              	#APP
 1598              	# 78 "src/user/tests/Threads_C_API_test.hpp" 1
  79              	    thread_dispatch();
 1599              		li t1, 5
 1600              	# 0 "" 2
 1601              		.loc 1 79 5 is_stmt 1
 1602              		.loc 1 79 20 is_stmt 0
 1603              	#NO_APP
 1604 040c 97000000 		call	_Z15thread_dispatchv@plt
 1604      E7800000 
 1605              	.LVL179:
  80:src/user/tests/Threads_C_API_test.hpp **** 
  81:src/user/tests/Threads_C_API_test.hpp ****     uint64 result = fibonacci(16);
 1606              		.loc 1 81 5 is_stmt 1
 1607              		.loc 1 81 30 is_stmt 0
 1608 0414 13050001 		li	a0,16
 1609 0418 97000000 		call	_Z9fibonaccim
 1609      E7800000 
GAS LISTING /tmp/ccTuhaHZ.s 			page 38


 1610              	.LVL180:
 1611 0420 13090500 		mv	s2,a0
 1612              	.LVL181:
  82:src/user/tests/Threads_C_API_test.hpp ****     printString("D: fibonaci="); printInt(result); printString("\n");
 1613              		.loc 1 82 5 is_stmt 1
 1614              		.loc 1 82 16 is_stmt 0
 1615 0424 17050000 		lla	a0,.LC13
 1615      13050500 
 1616              	.LVL182:
 1617 042c 97000000 		call	_Z11printStringPKc@plt
 1617      E7800000 
 1618              	.LVL183:
 1619              		.loc 1 82 34 is_stmt 1
 1620              		.loc 1 82 42 is_stmt 0
 1621 0434 13060000 		li	a2,0
 1622 0438 9305A000 		li	a1,10
 1623 043c 1B050900 		sext.w	a0,s2
 1624 0440 97000000 		call	_Z8printIntiii@plt
 1624      E7800000 
 1625              	.LVL184:
 1626              		.loc 1 82 52 is_stmt 1
 1627              		.loc 1 82 63 is_stmt 0
 1628 0448 17050000 		lla	a0,.LC1
 1628      13050500 
 1629 0450 97000000 		call	_Z11printStringPKc@plt
 1629      E7800000 
 1630              	.LVL185:
 1631 0458 6F000004 		j	.L83
 1632              	.L86:
  83:src/user/tests/Threads_C_API_test.hpp **** 
  84:src/user/tests/Threads_C_API_test.hpp ****     for (; i < 16; i++) {
  85:src/user/tests/Threads_C_API_test.hpp ****         printString("D: i="); printInt(i); printString("\n");
 1633              		.loc 1 85 9 is_stmt 1 discriminator 1
 1634              		.loc 1 85 20 is_stmt 0 discriminator 1
 1635 045c 17050000 		lla	a0,.LC11
 1635      13050500 
 1636 0464 97000000 		call	_Z11printStringPKc@plt
 1636      E7800000 
 1637              	.LVL186:
 1638              		.loc 1 85 31 is_stmt 1 discriminator 1
 1639              		.loc 1 85 39 is_stmt 0 discriminator 1
 1640 046c 13060000 		li	a2,0
 1641 0470 9305A000 		li	a1,10
 1642 0474 13850400 		mv	a0,s1
 1643 0478 97000000 		call	_Z8printIntiii@plt
 1643      E7800000 
 1644              	.LVL187:
 1645              		.loc 1 85 44 is_stmt 1 discriminator 1
 1646              		.loc 1 85 55 is_stmt 0 discriminator 1
 1647 0480 17050000 		lla	a0,.LC1
 1647      13050500 
 1648 0488 97000000 		call	_Z11printStringPKc@plt
 1648      E7800000 
 1649              	.LVL188:
  84:src/user/tests/Threads_C_API_test.hpp ****         printString("D: i="); printInt(i); printString("\n");
 1650              		.loc 1 84 5 is_stmt 1 discriminator 1
 1651 0490 9B841400 		addiw	s1,s1,1
GAS LISTING /tmp/ccTuhaHZ.s 			page 39


 1652              	.LVL189:
 1653 0494 93F4F40F 		andi	s1,s1,0xff
 1654              	.LVL190:
 1655              	.L83:
  84:src/user/tests/Threads_C_API_test.hpp ****         printString("D: i="); printInt(i); printString("\n");
 1656              		.loc 1 84 5 discriminator 2
  84:src/user/tests/Threads_C_API_test.hpp ****         printString("D: i="); printInt(i); printString("\n");
 1657              		.loc 1 84 14 discriminator 2
 1658 0498 9307F000 		li	a5,15
 1659 049c E3F097FC 		bleu	s1,a5,.L86
  86:src/user/tests/Threads_C_API_test.hpp ****     }
  87:src/user/tests/Threads_C_API_test.hpp **** 
  88:src/user/tests/Threads_C_API_test.hpp ****     printString("D finished!\n");
 1660              		.loc 1 88 5
 1661              		.loc 1 88 16 is_stmt 0
 1662 04a0 17050000 		lla	a0,.LC14
 1662      13050500 
 1663 04a8 97000000 		call	_Z11printStringPKc@plt
 1663      E7800000 
 1664              	.LVL191:
  89:src/user/tests/Threads_C_API_test.hpp ****     finishedD = true;
 1665              		.loc 1 89 5 is_stmt 1
 1666              		.loc 1 89 15 is_stmt 0
 1667 04b0 93071000 		li	a5,1
 1668 04b4 17070000 		sb	a5,.LANCHOR0+9,a4
 1668      2300F700 
  90:src/user/tests/Threads_C_API_test.hpp ****     thread_dispatch();
 1669              		.loc 1 90 5 is_stmt 1
 1670              		.loc 1 90 20 is_stmt 0
 1671 04bc 97000000 		call	_Z15thread_dispatchv@plt
 1671      E7800000 
 1672              	.LVL192:
  91:src/user/tests/Threads_C_API_test.hpp **** }
 1673              		.loc 1 91 1
 1674 04c4 83308101 		ld	ra,24(sp)
 1675              		.cfi_restore 1
 1676 04c8 03340101 		ld	s0,16(sp)
 1677              		.cfi_restore 8
 1678              		.cfi_def_cfa 2, 32
 1679 04cc 83348100 		ld	s1,8(sp)
 1680              		.cfi_restore 9
 1681              	.LVL193:
 1682 04d0 03390100 		ld	s2,0(sp)
 1683              		.cfi_restore 18
 1684              	.LVL194:
 1685 04d4 13010102 		addi	sp,sp,32
 1686              		.cfi_def_cfa_offset 0
 1687 04d8 67800000 		jr	ra
 1688              		.cfi_endproc
 1689              	.LFE16:
 1691              		.section	.rodata.str1.8
 1692 009d 000000   		.align	3
 1693              	.LC15:
 1694 00a0 54687265 		.string	"ThreadA created\n"
 1694      61644120 
 1694      63726561 
 1694      7465640A 
GAS LISTING /tmp/ccTuhaHZ.s 			page 40


 1694      00
 1695 00b1 00000000 		.align	3
 1695      000000
 1696              	.LC16:
 1697 00b8 54687265 		.string	"ThreadB created\n"
 1697      61644220 
 1697      63726561 
 1697      7465640A 
 1697      00
 1698 00c9 00000000 		.align	3
 1698      000000
 1699              	.LC17:
 1700 00d0 54687265 		.string	"ThreadC created\n"
 1700      61644320 
 1700      63726561 
 1700      7465640A 
 1700      00
 1701 00e1 00000000 		.align	3
 1701      000000
 1702              	.LC18:
 1703 00e8 54687265 		.string	"ThreadD created\n"
 1703      61644420 
 1703      63726561 
 1703      7465640A 
 1703      00
 1704              		.text
 1705              		.align	2
 1706              		.globl	_Z18Threads_C_API_testv
 1708              	_Z18Threads_C_API_testv:
 1709              	.LFB17:
  92:src/user/tests/Threads_C_API_test.hpp **** 
  93:src/user/tests/Threads_C_API_test.hpp **** 
  94:src/user/tests/Threads_C_API_test.hpp **** void Threads_C_API_test() {
 1710              		.loc 1 94 27 is_stmt 1
 1711              		.cfi_startproc
 1712 04dc 130101FC 		addi	sp,sp,-64
 1713              		.cfi_def_cfa_offset 64
 1714 04e0 233C1102 		sd	ra,56(sp)
 1715 04e4 23388102 		sd	s0,48(sp)
 1716 04e8 23349102 		sd	s1,40(sp)
 1717              		.cfi_offset 1, -8
 1718              		.cfi_offset 8, -16
 1719              		.cfi_offset 9, -24
 1720 04ec 13040104 		addi	s0,sp,64
 1721              		.cfi_def_cfa 8, 0
  95:src/user/tests/Threads_C_API_test.hpp ****     thread_t threads[4];
 1722              		.loc 1 95 5
  96:src/user/tests/Threads_C_API_test.hpp ****     thread_create(&threads[0], workerBodyA, nullptr);
 1723              		.loc 1 96 5
 1724              		.loc 1 96 18 is_stmt 0
 1725 04f0 13060000 		li	a2,0
 1726 04f4 97050000 		lla	a1,_Z11workerBodyAPv
 1726      93850500 
 1727 04fc 130504FC 		addi	a0,s0,-64
 1728 0500 97000000 		call	_Z13thread_createPP7_threadPFvPvES2_@plt
 1728      E7800000 
 1729              	.LVL195:
GAS LISTING /tmp/ccTuhaHZ.s 			page 41


  97:src/user/tests/Threads_C_API_test.hpp ****     printString("ThreadA created\n");
 1730              		.loc 1 97 5 is_stmt 1
 1731              		.loc 1 97 16 is_stmt 0
 1732 0508 17050000 		lla	a0,.LC15
 1732      13050500 
 1733 0510 97000000 		call	_Z11printStringPKc@plt
 1733      E7800000 
 1734              	.LVL196:
  98:src/user/tests/Threads_C_API_test.hpp **** 
  99:src/user/tests/Threads_C_API_test.hpp ****     thread_create(&threads[1], workerBodyB, nullptr);
 1735              		.loc 1 99 5 is_stmt 1
 1736              		.loc 1 99 18 is_stmt 0
 1737 0518 13060000 		li	a2,0
 1738 051c 97050000 		lla	a1,_Z11workerBodyBPv
 1738      93850500 
 1739 0524 130584FC 		addi	a0,s0,-56
 1740 0528 97000000 		call	_Z13thread_createPP7_threadPFvPvES2_@plt
 1740      E7800000 
 1741              	.LVL197:
 100:src/user/tests/Threads_C_API_test.hpp ****     printString("ThreadB created\n");
 1742              		.loc 1 100 5 is_stmt 1
 1743              		.loc 1 100 16 is_stmt 0
 1744 0530 17050000 		lla	a0,.LC16
 1744      13050500 
 1745 0538 97000000 		call	_Z11printStringPKc@plt
 1745      E7800000 
 1746              	.LVL198:
 101:src/user/tests/Threads_C_API_test.hpp **** 
 102:src/user/tests/Threads_C_API_test.hpp ****     thread_create(&threads[2], workerBodyC, nullptr);
 1747              		.loc 1 102 5 is_stmt 1
 1748              		.loc 1 102 18 is_stmt 0
 1749 0540 13060000 		li	a2,0
 1750 0544 97050000 		lla	a1,_Z11workerBodyCPv
 1750      93850500 
 1751 054c 130504FD 		addi	a0,s0,-48
 1752 0550 97000000 		call	_Z13thread_createPP7_threadPFvPvES2_@plt
 1752      E7800000 
 1753              	.LVL199:
 103:src/user/tests/Threads_C_API_test.hpp ****     printString("ThreadC created\n");
 1754              		.loc 1 103 5 is_stmt 1
 1755              		.loc 1 103 16 is_stmt 0
 1756 0558 17050000 		lla	a0,.LC17
 1756      13050500 
 1757 0560 97000000 		call	_Z11printStringPKc@plt
 1757      E7800000 
 1758              	.LVL200:
 104:src/user/tests/Threads_C_API_test.hpp **** 
 105:src/user/tests/Threads_C_API_test.hpp ****     thread_create(&threads[3], workerBodyD, nullptr);
 1759              		.loc 1 105 5 is_stmt 1
 1760              		.loc 1 105 18 is_stmt 0
 1761 0568 13060000 		li	a2,0
 1762 056c 97050000 		lla	a1,_Z11workerBodyDPv
 1762      93850500 
 1763 0574 130584FD 		addi	a0,s0,-40
 1764 0578 97000000 		call	_Z13thread_createPP7_threadPFvPvES2_@plt
 1764      E7800000 
 1765              	.LVL201:
GAS LISTING /tmp/ccTuhaHZ.s 			page 42


 106:src/user/tests/Threads_C_API_test.hpp ****     printString("ThreadD created\n");
 1766              		.loc 1 106 5 is_stmt 1
 1767              		.loc 1 106 16 is_stmt 0
 1768 0580 17050000 		lla	a0,.LC18
 1768      13050500 
 1769 0588 97000000 		call	_Z11printStringPKc@plt
 1769      E7800000 
 1770              	.LVL202:
 1771 0590 6F00C000 		j	.L90
 1772              	.L88:
 107:src/user/tests/Threads_C_API_test.hpp **** 
 108:src/user/tests/Threads_C_API_test.hpp ****     while (!(finishedA && finishedB && finishedC && finishedD)) {
 109:src/user/tests/Threads_C_API_test.hpp ****         thread_dispatch();
 1773              		.loc 1 109 9 is_stmt 1
 1774              		.loc 1 109 24 is_stmt 0
 1775 0594 97000000 		call	_Z15thread_dispatchv@plt
 1775      E7800000 
 1776              	.LVL203:
 1777              	.L90:
 108:src/user/tests/Threads_C_API_test.hpp ****         thread_dispatch();
 1778              		.loc 1 108 5 is_stmt 1
 108:src/user/tests/Threads_C_API_test.hpp ****         thread_dispatch();
 1779              		.loc 1 108 12
 1780 059c 97070000 		lbu	a5,.LANCHOR0
 1780      83C70700 
 1781 05a4 E38807FE 		beqz	a5,.L88
 108:src/user/tests/Threads_C_API_test.hpp ****         thread_dispatch();
 1782              		.loc 1 108 24 is_stmt 0 discriminator 1
 1783 05a8 97070000 		lbu	a5,.LANCHOR0+1
 1783      83C70700 
 1784 05b0 E38207FE 		beqz	a5,.L88
 108:src/user/tests/Threads_C_API_test.hpp ****         thread_dispatch();
 1785              		.loc 1 108 37 discriminator 2
 1786 05b4 97070000 		lbu	a5,.LANCHOR0+8
 1786      83C70700 
 1787 05bc E38C07FC 		beqz	a5,.L88
 108:src/user/tests/Threads_C_API_test.hpp ****         thread_dispatch();
 1788              		.loc 1 108 12 discriminator 3
 1789 05c0 97070000 		lbu	a5,.LANCHOR0+9
 1789      83C70700 
 1790 05c8 E38607FC 		beqz	a5,.L88
 1791              	.LBB110:
 110:src/user/tests/Threads_C_API_test.hpp ****     }
 111:src/user/tests/Threads_C_API_test.hpp **** 
 112:src/user/tests/Threads_C_API_test.hpp ****     for (auto &thread: threads) { delete thread; }
 1792              		.loc 1 112 24
 1793 05cc 930404FC 		addi	s1,s0,-64
 1794 05d0 6F008000 		j	.L89
 1795              	.LVL204:
 1796              	.L92:
 1797              		.loc 1 112 5 is_stmt 1 discriminator 4
 1798 05d4 93848400 		addi	s1,s1,8
 1799              	.LVL205:
 1800              	.L89:
 1801              		.loc 1 112 24 discriminator 5
 1802 05d8 930704FE 		addi	a5,s0,-32
 1803 05dc 638CF400 		beq	s1,a5,.L87
GAS LISTING /tmp/ccTuhaHZ.s 			page 43


 1804              	.LVL206:
 1805              		.loc 1 112 35 discriminator 2
 1806              		.loc 1 112 42 is_stmt 0 discriminator 2
 1807 05e0 03B50400 		ld	a0,0(s1)
 1808              		.loc 1 112 48 discriminator 2
 1809 05e4 E30805FE 		beqz	a0,.L92
 1810              		.loc 1 112 42 discriminator 3
 1811 05e8 97000000 		call	_ZN7_threaddlEPv@plt
 1811      E7800000 
 1812              	.LVL207:
 1813 05f0 6FF05FFE 		j	.L92
 1814              	.LVL208:
 1815              	.L87:
 1816              	.LBE110:
 113:src/user/tests/Threads_C_API_test.hpp **** }
 1817              		.loc 1 113 1
 1818 05f4 83308103 		ld	ra,56(sp)
 1819              		.cfi_restore 1
 1820 05f8 03340103 		ld	s0,48(sp)
 1821              		.cfi_restore 8
 1822              		.cfi_def_cfa 2, 64
 1823 05fc 83348102 		ld	s1,40(sp)
 1824              		.cfi_restore 9
 1825              	.LVL209:
 1826 0600 13010104 		addi	sp,sp,64
 1827              		.cfi_def_cfa_offset 0
 1828 0604 67800000 		jr	ra
 1829              		.cfi_endproc
 1830              	.LFE17:
 1832              		.section	.rodata.str1.8
 1833 00f9 00000000 		.align	3
 1833      000000
 1834              	.LC19:
 1835 0100 556E6573 		.string	"Unesite broj proizvodjaca?\n"
 1835      69746520 
 1835      62726F6A 
 1835      2070726F 
 1835      697A766F 
 1836 011c 00000000 		.align	3
 1837              	.LC20:
 1838 0120 556E6573 		.string	"Unesite velicinu bafera?\n"
 1838      69746520 
 1838      76656C69 
 1838      63696E75 
 1838      20626166 
 1839 013a 00000000 		.align	3
 1839      0000
 1840              	.LC21:
 1841 0140 42726F6A 		.string	"Broj proizvodjaca "
 1841      2070726F 
 1841      697A766F 
 1841      646A6163 
 1841      612000
 1842 0153 00000000 		.align	3
 1842      00
 1843              	.LC22:
 1844 0158 20692076 		.string	" i velicina bafera "
GAS LISTING /tmp/ccTuhaHZ.s 			page 44


 1844      656C6963 
 1844      696E6120 
 1844      62616665 
 1844      72612000 
 1845 016c 00000000 		.align	3
 1846              	.LC23:
 1847 0170 2E0A00   		.string	".\n"
 1848 0173 00000000 		.align	3
 1848      00
 1849              	.LC24:
 1850 0178 42726F6A 		.string	"Broj proizvodjaca ne sme biti manji od velicine bafera!\n"
 1850      2070726F 
 1850      697A766F 
 1850      646A6163 
 1850      61206E65 
 1851 01b1 00000000 		.align	3
 1851      000000
 1852              	.LC25:
 1853 01b8 42726F6A 		.string	"Broj proizvodjaca mora biti veci od nula!\n"
 1853      2070726F 
 1853      697A766F 
 1853      646A6163 
 1853      61206D6F 
 1854              		.text
 1855              		.align	2
 1856              		.globl	_ZN19ConsumerProducerCPP20testConsumerProducerEv
 1858              	_ZN19ConsumerProducerCPP20testConsumerProducerEv:
 1859              	.LFB32:
  87:src/user/tests/ConsumerProducer_CPP_API_test.hpp ****     };
  88:src/user/tests/ConsumerProducer_CPP_API_test.hpp **** 
  89:src/user/tests/ConsumerProducer_CPP_API_test.hpp ****     void testConsumerProducer() {
 1860              		.loc 2 89 33 is_stmt 1
 1861              		.cfi_startproc
 1862              		.cfi_personality 0x9b,DW.ref.__gxx_personality_v0
 1863              		.cfi_lsda 0x1b,.LLSDA32
 1864 0608 130101F8 		addi	sp,sp,-128
 1865              		.cfi_def_cfa_offset 128
 1866 060c 233C1106 		sd	ra,120(sp)
 1867 0610 23388106 		sd	s0,112(sp)
 1868 0614 23349106 		sd	s1,104(sp)
 1869 0618 23302107 		sd	s2,96(sp)
 1870 061c 233C3105 		sd	s3,88(sp)
 1871 0620 23384105 		sd	s4,80(sp)
 1872 0624 23345105 		sd	s5,72(sp)
 1873 0628 23306105 		sd	s6,64(sp)
 1874 062c 233C7103 		sd	s7,56(sp)
 1875 0630 23388103 		sd	s8,48(sp)
 1876 0634 23349103 		sd	s9,40(sp)
 1877              		.cfi_offset 1, -8
 1878              		.cfi_offset 8, -16
 1879              		.cfi_offset 9, -24
 1880              		.cfi_offset 18, -32
 1881              		.cfi_offset 19, -40
 1882              		.cfi_offset 20, -48
 1883              		.cfi_offset 21, -56
 1884              		.cfi_offset 22, -64
 1885              		.cfi_offset 23, -72
GAS LISTING /tmp/ccTuhaHZ.s 			page 45


 1886              		.cfi_offset 24, -80
 1887              		.cfi_offset 25, -88
 1888 0638 13040108 		addi	s0,sp,128
 1889              		.cfi_def_cfa 8, 0
  90:src/user/tests/ConsumerProducer_CPP_API_test.hpp ****         char input[30];
  91:src/user/tests/ConsumerProducer_CPP_API_test.hpp ****         int n, threadNum;
  92:src/user/tests/ConsumerProducer_CPP_API_test.hpp **** 
  93:src/user/tests/ConsumerProducer_CPP_API_test.hpp ****         printString("Unesite broj proizvodjaca?\n");
  94:src/user/tests/ConsumerProducer_CPP_API_test.hpp ****         getString(input, 30);
  95:src/user/tests/ConsumerProducer_CPP_API_test.hpp ****         threadNum = stringToInt(input);
  96:src/user/tests/ConsumerProducer_CPP_API_test.hpp **** 
  97:src/user/tests/ConsumerProducer_CPP_API_test.hpp ****         printString("Unesite velicinu bafera?\n");
  98:src/user/tests/ConsumerProducer_CPP_API_test.hpp ****         getString(input, 30);
  99:src/user/tests/ConsumerProducer_CPP_API_test.hpp ****         n = stringToInt(input);
 100:src/user/tests/ConsumerProducer_CPP_API_test.hpp **** 
 101:src/user/tests/ConsumerProducer_CPP_API_test.hpp ****         printString("Broj proizvodjaca "); printInt(threadNum);
 102:src/user/tests/ConsumerProducer_CPP_API_test.hpp ****         printString(" i velicina bafera "); printInt(n);
 103:src/user/tests/ConsumerProducer_CPP_API_test.hpp ****         printString(".\n");
 104:src/user/tests/ConsumerProducer_CPP_API_test.hpp **** 
 105:src/user/tests/ConsumerProducer_CPP_API_test.hpp ****         if(threadNum > n) {
 106:src/user/tests/ConsumerProducer_CPP_API_test.hpp ****             printString("Broj proizvodjaca ne sme biti manji od velicine bafera!\n");
 107:src/user/tests/ConsumerProducer_CPP_API_test.hpp ****             return;
 108:src/user/tests/ConsumerProducer_CPP_API_test.hpp ****         } else if (threadNum < 1) {
 109:src/user/tests/ConsumerProducer_CPP_API_test.hpp ****             printString("Broj proizvodjaca mora biti veci od nula!\n");
 110:src/user/tests/ConsumerProducer_CPP_API_test.hpp ****             return;
 111:src/user/tests/ConsumerProducer_CPP_API_test.hpp ****         }
 112:src/user/tests/ConsumerProducer_CPP_API_test.hpp **** 
 113:src/user/tests/ConsumerProducer_CPP_API_test.hpp ****         BufferCPP *buffer = new BufferCPP(n);
 114:src/user/tests/ConsumerProducer_CPP_API_test.hpp **** 
 115:src/user/tests/ConsumerProducer_CPP_API_test.hpp ****         waitForAll = new Semaphore(0);
 116:src/user/tests/ConsumerProducer_CPP_API_test.hpp ****         Thread *producers[threadNum];
 117:src/user/tests/ConsumerProducer_CPP_API_test.hpp ****         thread_data threadData[threadNum + 1];
 118:src/user/tests/ConsumerProducer_CPP_API_test.hpp **** 
 119:src/user/tests/ConsumerProducer_CPP_API_test.hpp ****         threadData[threadNum].id = threadNum;
 120:src/user/tests/ConsumerProducer_CPP_API_test.hpp ****         threadData[threadNum].buffer = buffer;
 121:src/user/tests/ConsumerProducer_CPP_API_test.hpp ****         threadData[threadNum].sem = waitForAll;
 122:src/user/tests/ConsumerProducer_CPP_API_test.hpp ****         Thread *consumer = new Consumer(&threadData[threadNum]);
 123:src/user/tests/ConsumerProducer_CPP_API_test.hpp ****         consumer->start();
 124:src/user/tests/ConsumerProducer_CPP_API_test.hpp **** 
 125:src/user/tests/ConsumerProducer_CPP_API_test.hpp ****         threadData[0].id = 0;
 126:src/user/tests/ConsumerProducer_CPP_API_test.hpp ****         threadData[0].buffer = buffer;
 127:src/user/tests/ConsumerProducer_CPP_API_test.hpp ****         threadData[0].sem = waitForAll;
 128:src/user/tests/ConsumerProducer_CPP_API_test.hpp ****         producers[0] = new ProducerKeyborad(&threadData[0]);
 129:src/user/tests/ConsumerProducer_CPP_API_test.hpp ****         producers[0]->start();
 130:src/user/tests/ConsumerProducer_CPP_API_test.hpp **** 
 131:src/user/tests/ConsumerProducer_CPP_API_test.hpp ****         for (int i = 1; i < threadNum; i++) {
 132:src/user/tests/ConsumerProducer_CPP_API_test.hpp ****             threadData[i].id = i;
 133:src/user/tests/ConsumerProducer_CPP_API_test.hpp ****             threadData[i].buffer = buffer;
 134:src/user/tests/ConsumerProducer_CPP_API_test.hpp ****             threadData[i].sem = waitForAll;
 135:src/user/tests/ConsumerProducer_CPP_API_test.hpp **** 
 136:src/user/tests/ConsumerProducer_CPP_API_test.hpp ****             producers[i] = new Producer(&threadData[i]);
 137:src/user/tests/ConsumerProducer_CPP_API_test.hpp ****             producers[i]->start();
 138:src/user/tests/ConsumerProducer_CPP_API_test.hpp **** 
 139:src/user/tests/ConsumerProducer_CPP_API_test.hpp ****         }
 140:src/user/tests/ConsumerProducer_CPP_API_test.hpp **** 
 141:src/user/tests/ConsumerProducer_CPP_API_test.hpp ****         Thread::dispatch();
 142:src/user/tests/ConsumerProducer_CPP_API_test.hpp **** 
GAS LISTING /tmp/ccTuhaHZ.s 			page 46


 143:src/user/tests/ConsumerProducer_CPP_API_test.hpp ****         for (int i = 0; i <= threadNum; i++) {
 144:src/user/tests/ConsumerProducer_CPP_API_test.hpp ****             waitForAll->wait();
 145:src/user/tests/ConsumerProducer_CPP_API_test.hpp ****         }
 146:src/user/tests/ConsumerProducer_CPP_API_test.hpp **** 
 147:src/user/tests/ConsumerProducer_CPP_API_test.hpp ****         delete waitForAll;
 148:src/user/tests/ConsumerProducer_CPP_API_test.hpp ****         for (int i = 0; i < threadNum; i++) {
 149:src/user/tests/ConsumerProducer_CPP_API_test.hpp ****             delete producers[i];
 150:src/user/tests/ConsumerProducer_CPP_API_test.hpp ****         }
 151:src/user/tests/ConsumerProducer_CPP_API_test.hpp ****         delete consumer;
 152:src/user/tests/ConsumerProducer_CPP_API_test.hpp ****         delete buffer;
 1890              		.loc 2 152 22 is_stmt 0
 1891 063c 930B0100 		mv	s7,sp
  90:src/user/tests/ConsumerProducer_CPP_API_test.hpp ****         char input[30];
 1892              		.loc 2 90 9 is_stmt 1
  91:src/user/tests/ConsumerProducer_CPP_API_test.hpp **** 
 1893              		.loc 2 91 9
  93:src/user/tests/ConsumerProducer_CPP_API_test.hpp ****         getString(input, 30);
 1894              		.loc 2 93 9
  93:src/user/tests/ConsumerProducer_CPP_API_test.hpp ****         getString(input, 30);
 1895              		.loc 2 93 20 is_stmt 0
 1896 0640 17050000 		lla	a0,.LC19
 1896      13050500 
 1897              	.LEHB3:
 1898 0648 97000000 		call	_Z11printStringPKc@plt
 1898      E7800000 
 1899              	.LVL210:
  94:src/user/tests/ConsumerProducer_CPP_API_test.hpp ****         threadNum = stringToInt(input);
 1900              		.loc 2 94 9 is_stmt 1
  94:src/user/tests/ConsumerProducer_CPP_API_test.hpp ****         threadNum = stringToInt(input);
 1901              		.loc 2 94 18 is_stmt 0
 1902 0650 9305E001 		li	a1,30
 1903 0654 930404F8 		addi	s1,s0,-128
 1904 0658 13850400 		mv	a0,s1
 1905 065c 97000000 		call	_Z9getStringPci@plt
 1905      E7800000 
 1906              	.LVL211:
  95:src/user/tests/ConsumerProducer_CPP_API_test.hpp **** 
 1907              		.loc 2 95 9 is_stmt 1
  95:src/user/tests/ConsumerProducer_CPP_API_test.hpp **** 
 1908              		.loc 2 95 32 is_stmt 0
 1909 0664 13850400 		mv	a0,s1
 1910 0668 97000000 		call	_Z11stringToIntPKc@plt
 1910      E7800000 
 1911              	.LVL212:
 1912 0670 13090500 		mv	s2,a0
 1913              	.LVL213:
  97:src/user/tests/ConsumerProducer_CPP_API_test.hpp ****         getString(input, 30);
 1914              		.loc 2 97 9 is_stmt 1
  97:src/user/tests/ConsumerProducer_CPP_API_test.hpp ****         getString(input, 30);
 1915              		.loc 2 97 20 is_stmt 0
 1916 0674 17050000 		lla	a0,.LC20
 1916      13050500 
 1917 067c 97000000 		call	_Z11printStringPKc@plt
 1917      E7800000 
 1918              	.LVL214:
  98:src/user/tests/ConsumerProducer_CPP_API_test.hpp ****         n = stringToInt(input);
 1919              		.loc 2 98 9 is_stmt 1
GAS LISTING /tmp/ccTuhaHZ.s 			page 47


  98:src/user/tests/ConsumerProducer_CPP_API_test.hpp ****         n = stringToInt(input);
 1920              		.loc 2 98 18 is_stmt 0
 1921 0684 9305E001 		li	a1,30
 1922 0688 13850400 		mv	a0,s1
 1923 068c 97000000 		call	_Z9getStringPci@plt
 1923      E7800000 
 1924              	.LVL215:
  99:src/user/tests/ConsumerProducer_CPP_API_test.hpp **** 
 1925              		.loc 2 99 9 is_stmt 1
  99:src/user/tests/ConsumerProducer_CPP_API_test.hpp **** 
 1926              		.loc 2 99 24 is_stmt 0
 1927 0694 13850400 		mv	a0,s1
 1928 0698 97000000 		call	_Z11stringToIntPKc@plt
 1928      E7800000 
 1929              	.LVL216:
 1930 06a0 93040500 		mv	s1,a0
 1931              	.LVL217:
 101:src/user/tests/ConsumerProducer_CPP_API_test.hpp ****         printString(" i velicina bafera "); printInt(n);
 1932              		.loc 2 101 9 is_stmt 1
 101:src/user/tests/ConsumerProducer_CPP_API_test.hpp ****         printString(" i velicina bafera "); printInt(n);
 1933              		.loc 2 101 20 is_stmt 0
 1934 06a4 17050000 		lla	a0,.LC21
 1934      13050500 
 1935 06ac 97000000 		call	_Z11printStringPKc@plt
 1935      E7800000 
 1936              	.LVL218:
 101:src/user/tests/ConsumerProducer_CPP_API_test.hpp ****         printString(" i velicina bafera "); printInt(n);
 1937              		.loc 2 101 44 is_stmt 1
 101:src/user/tests/ConsumerProducer_CPP_API_test.hpp ****         printString(" i velicina bafera "); printInt(n);
 1938              		.loc 2 101 52 is_stmt 0
 1939 06b4 13060000 		li	a2,0
 1940 06b8 9305A000 		li	a1,10
 1941 06bc 13050900 		mv	a0,s2
 1942 06c0 97000000 		call	_Z8printIntiii@plt
 1942      E7800000 
 1943              	.LVL219:
 102:src/user/tests/ConsumerProducer_CPP_API_test.hpp ****         printString(".\n");
 1944              		.loc 2 102 9 is_stmt 1
 102:src/user/tests/ConsumerProducer_CPP_API_test.hpp ****         printString(".\n");
 1945              		.loc 2 102 20 is_stmt 0
 1946 06c8 17050000 		lla	a0,.LC22
 1946      13050500 
 1947 06d0 97000000 		call	_Z11printStringPKc@plt
 1947      E7800000 
 1948              	.LVL220:
 102:src/user/tests/ConsumerProducer_CPP_API_test.hpp ****         printString(".\n");
 1949              		.loc 2 102 45 is_stmt 1
 102:src/user/tests/ConsumerProducer_CPP_API_test.hpp ****         printString(".\n");
 1950              		.loc 2 102 53 is_stmt 0
 1951 06d8 13060000 		li	a2,0
 1952 06dc 9305A000 		li	a1,10
 1953 06e0 13850400 		mv	a0,s1
 1954 06e4 97000000 		call	_Z8printIntiii@plt
 1954      E7800000 
 1955              	.LVL221:
 103:src/user/tests/ConsumerProducer_CPP_API_test.hpp **** 
 1956              		.loc 2 103 9 is_stmt 1
GAS LISTING /tmp/ccTuhaHZ.s 			page 48


 103:src/user/tests/ConsumerProducer_CPP_API_test.hpp **** 
 1957              		.loc 2 103 20 is_stmt 0
 1958 06ec 17050000 		lla	a0,.LC23
 1958      13050500 
 1959 06f4 97000000 		call	_Z11printStringPKc@plt
 1959      E7800000 
 1960              	.LVL222:
 105:src/user/tests/ConsumerProducer_CPP_API_test.hpp ****             printString("Broj proizvodjaca ne sme biti manji od velicine bafera!\n");
 1961              		.loc 2 105 9 is_stmt 1
 1962 06fc 63C62403 		bgt	s2,s1,.L126
 108:src/user/tests/ConsumerProducer_CPP_API_test.hpp ****             printString("Broj proizvodjaca mora biti veci od nula!\n");
 1963              		.loc 2 108 16
 1964 0700 635E2003 		blez	s2,.L127
 113:src/user/tests/ConsumerProducer_CPP_API_test.hpp **** 
 1965              		.loc 2 113 9
 113:src/user/tests/ConsumerProducer_CPP_API_test.hpp **** 
 1966              		.loc 2 113 44 is_stmt 0
 1967 0704 13058003 		li	a0,56
 1968 0708 97000000 		call	_Znwm@plt
 1968      E7800000 
 1969              	.LVL223:
 1970              	.LEHE3:
 1971 0710 930A0500 		mv	s5,a0
 1972 0714 63000504 		beqz	a0,.L99
 113:src/user/tests/ConsumerProducer_CPP_API_test.hpp **** 
 1973              		.loc 2 113 44 discriminator 2
 1974 0718 93850400 		mv	a1,s1
 1975              	.LEHB4:
 1976 071c 97000000 		call	_ZN9BufferCPPC1Ei@plt
 1976      E7800000 
 1977              	.LVL224:
 1978              	.LEHE4:
 1979 0724 6F000003 		j	.L99
 1980              	.L126:
 106:src/user/tests/ConsumerProducer_CPP_API_test.hpp ****             return;
 1981              		.loc 2 106 13 is_stmt 1
 106:src/user/tests/ConsumerProducer_CPP_API_test.hpp ****             return;
 1982              		.loc 2 106 24 is_stmt 0
 1983 0728 17050000 		lla	a0,.LC24
 1983      13050500 
 1984              	.LEHB5:
 1985 0730 97000000 		call	_Z11printStringPKc@plt
 1985      E7800000 
 1986              	.LVL225:
 107:src/user/tests/ConsumerProducer_CPP_API_test.hpp ****         } else if (threadNum < 1) {
 1987              		.loc 2 107 13 is_stmt 1
 1988 0738 6F004001 		j	.L97
 1989              	.L127:
 109:src/user/tests/ConsumerProducer_CPP_API_test.hpp ****             return;
 1990              		.loc 2 109 13
 109:src/user/tests/ConsumerProducer_CPP_API_test.hpp ****             return;
 1991              		.loc 2 109 24 is_stmt 0
 1992 073c 17050000 		lla	a0,.LC25
 1992      13050500 
 1993 0744 97000000 		call	_Z11printStringPKc@plt
 1993      E7800000 
 1994              	.LVL226:
GAS LISTING /tmp/ccTuhaHZ.s 			page 49


 110:src/user/tests/ConsumerProducer_CPP_API_test.hpp ****         }
 1995              		.loc 2 110 13 is_stmt 1
 1996              	.L97:
 1997 074c 13810B00 		mv	sp,s7
 1998 0750 6F00C024 		j	.L95
 1999              	.L99:
 2000              	.LVL227:
 115:src/user/tests/ConsumerProducer_CPP_API_test.hpp ****         Thread *producers[threadNum];
 2001              		.loc 2 115 9 discriminator 7
 115:src/user/tests/ConsumerProducer_CPP_API_test.hpp ****         Thread *producers[threadNum];
 2002              		.loc 2 115 37 is_stmt 0 discriminator 7
 2003 0754 13050001 		li	a0,16
 2004 0758 97000000 		call	_Znwm@plt
 2004      E7800000 
 2005              	.LVL228:
 2006              	.LEHE5:
 2007 0760 93040500 		mv	s1,a0
 2008              	.LVL229:
 2009 0764 63080500 		beqz	a0,.L100
 115:src/user/tests/ConsumerProducer_CPP_API_test.hpp ****         Thread *producers[threadNum];
 2010              		.loc 2 115 37 discriminator 2
 2011 0768 93050000 		li	a1,0
 2012              	.LEHB6:
 2013 076c 97000000 		call	_ZN9SemaphoreC1Ej@plt
 2013      E7800000 
 2014              	.LVL230:
 2015              	.LEHE6:
 2016              	.L100:
 115:src/user/tests/ConsumerProducer_CPP_API_test.hpp ****         Thread *producers[threadNum];
 2017              		.loc 2 115 20 discriminator 7
 2018 0774 17070000 		lla	a4,.LANCHOR0
 2018      13070700 
 2019 077c 23389700 		sd	s1,16(a4)
 116:src/user/tests/ConsumerProducer_CPP_API_test.hpp ****         thread_data threadData[threadNum + 1];
 2020              		.loc 2 116 9 is_stmt 1 discriminator 7
 2021              	.LVL231:
 116:src/user/tests/ConsumerProducer_CPP_API_test.hpp ****         thread_data threadData[threadNum + 1];
 2022              		.loc 2 116 17 is_stmt 0 discriminator 7
 2023 0780 93173900 		slli	a5,s2,3
 2024 0784 9387F700 		addi	a5,a5,15
 2025 0788 93F707FF 		andi	a5,a5,-16
 2026 078c 3301F140 		sub	sp,sp,a5
 2027 0790 130A0100 		mv	s4,sp
 2028              	.LVL232:
 117:src/user/tests/ConsumerProducer_CPP_API_test.hpp **** 
 2029              		.loc 2 117 9 is_stmt 1 discriminator 7
 117:src/user/tests/ConsumerProducer_CPP_API_test.hpp **** 
 2030              		.loc 2 117 42 is_stmt 0 discriminator 7
 2031 0794 9B061900 		addiw	a3,s2,1
 2032              	.LVL233:
 117:src/user/tests/ConsumerProducer_CPP_API_test.hpp **** 
 2033              		.loc 2 117 21 discriminator 7
 2034 0798 93971600 		slli	a5,a3,1
 2035 079c B387D700 		add	a5,a5,a3
 2036 07a0 93973700 		slli	a5,a5,3
 2037 07a4 9387F700 		addi	a5,a5,15
 2038 07a8 93F707FF 		andi	a5,a5,-16
GAS LISTING /tmp/ccTuhaHZ.s 			page 50


 2039 07ac 3301F140 		sub	sp,sp,a5
 2040              	.LVL234:
 2041 07b0 93090100 		mv	s3,sp
 2042              	.LVL235:
 119:src/user/tests/ConsumerProducer_CPP_API_test.hpp ****         threadData[threadNum].buffer = buffer;
 2043              		.loc 2 119 9 is_stmt 1 discriminator 7
 119:src/user/tests/ConsumerProducer_CPP_API_test.hpp ****         threadData[threadNum].buffer = buffer;
 2044              		.loc 2 119 34 is_stmt 0 discriminator 7
 2045 07b4 93171900 		slli	a5,s2,1
 2046 07b8 B3872701 		add	a5,a5,s2
 2047 07bc 93973700 		slli	a5,a5,3
 2048 07c0 B387F900 		add	a5,s3,a5
 2049 07c4 23A02701 		sw	s2,0(a5)
 120:src/user/tests/ConsumerProducer_CPP_API_test.hpp ****         threadData[threadNum].sem = waitForAll;
 2050              		.loc 2 120 9 is_stmt 1 discriminator 7
 120:src/user/tests/ConsumerProducer_CPP_API_test.hpp ****         threadData[threadNum].sem = waitForAll;
 2051              		.loc 2 120 38 is_stmt 0 discriminator 7
 2052 07c8 23B45701 		sd	s5,8(a5)
 121:src/user/tests/ConsumerProducer_CPP_API_test.hpp ****         Thread *consumer = new Consumer(&threadData[threadNum]);
 2053              		.loc 2 121 9 is_stmt 1 discriminator 7
 121:src/user/tests/ConsumerProducer_CPP_API_test.hpp ****         Thread *consumer = new Consumer(&threadData[threadNum]);
 2054              		.loc 2 121 35 is_stmt 0 discriminator 7
 2055 07cc 03370701 		ld	a4,16(a4)
 2056 07d0 23B8E700 		sd	a4,16(a5)
 122:src/user/tests/ConsumerProducer_CPP_API_test.hpp ****         consumer->start();
 2057              		.loc 2 122 9 is_stmt 1 discriminator 7
 122:src/user/tests/ConsumerProducer_CPP_API_test.hpp ****         consumer->start();
 2058              		.loc 2 122 63 is_stmt 0 discriminator 7
 2059 07d4 13058001 		li	a0,24
 2060              	.LEHB7:
 2061 07d8 97000000 		call	_Znwm@plt
 2061      E7800000 
 2062              	.LVL236:
 2063              	.LEHE7:
 2064 07e0 130B0500 		mv	s6,a0
 2065 07e4 63060502 		beqz	a0,.L101
 122:src/user/tests/ConsumerProducer_CPP_API_test.hpp ****         consumer->start();
 2066              		.loc 2 122 63 discriminator 2
 2067 07e8 93141900 		slli	s1,s2,1
 2068 07ec B3842401 		add	s1,s1,s2
 2069 07f0 93943400 		slli	s1,s1,3
 2070 07f4 B3849900 		add	s1,s3,s1
 2071              	.LVL237:
 2072              	.LEHB8:
 2073              	.LBB111:
 2074              	.LBB112:
  65:src/user/tests/ConsumerProducer_CPP_API_test.hpp **** 
 2075              		.loc 2 65 54 discriminator 2
 2076 07f8 97000000 		call	_ZN6ThreadC2Ev@plt
 2076      E7800000 
 2077              	.LVL238:
 2078              	.LEHE8:
  65:src/user/tests/ConsumerProducer_CPP_API_test.hpp **** 
 2079              		.loc 2 65 54
 2080 0800 97070000 		lla	a5,_ZTVN19ConsumerProducerCPP8ConsumerE+16
 2080      93870700 
 2081 0808 2330FB00 		sd	a5,0(s6)
GAS LISTING /tmp/ccTuhaHZ.s 			page 51


 2082 080c 23389B00 		sd	s1,16(s6)
 2083              	.LVL239:
 2084              	.L101:
 2085              	.LBE112:
 2086              	.LBE111:
 123:src/user/tests/ConsumerProducer_CPP_API_test.hpp **** 
 2087              		.loc 2 123 9 is_stmt 1 discriminator 7
 123:src/user/tests/ConsumerProducer_CPP_API_test.hpp **** 
 2088              		.loc 2 123 24 is_stmt 0 discriminator 7
 2089 0810 13050B00 		mv	a0,s6
 2090              	.LEHB9:
 2091 0814 97000000 		call	_ZN6Thread5startEv@plt
 2091      E7800000 
 2092              	.LVL240:
 125:src/user/tests/ConsumerProducer_CPP_API_test.hpp ****         threadData[0].buffer = buffer;
 2093              		.loc 2 125 9 is_stmt 1 discriminator 7
 125:src/user/tests/ConsumerProducer_CPP_API_test.hpp ****         threadData[0].buffer = buffer;
 2094              		.loc 2 125 26 is_stmt 0 discriminator 7
 2095 081c 23A00900 		sw	zero,0(s3)
 126:src/user/tests/ConsumerProducer_CPP_API_test.hpp ****         threadData[0].sem = waitForAll;
 2096              		.loc 2 126 9 is_stmt 1 discriminator 7
 126:src/user/tests/ConsumerProducer_CPP_API_test.hpp ****         threadData[0].sem = waitForAll;
 2097              		.loc 2 126 30 is_stmt 0 discriminator 7
 2098 0820 23B45901 		sd	s5,8(s3)
 127:src/user/tests/ConsumerProducer_CPP_API_test.hpp ****         producers[0] = new ProducerKeyborad(&threadData[0]);
 2099              		.loc 2 127 9 is_stmt 1 discriminator 7
 127:src/user/tests/ConsumerProducer_CPP_API_test.hpp ****         producers[0] = new ProducerKeyborad(&threadData[0]);
 2100              		.loc 2 127 27 is_stmt 0 discriminator 7
 2101 0824 97070000 		ld	a5,.LANCHOR0+16
 2101      83B70700 
 2102 082c 23B8F900 		sd	a5,16(s3)
 128:src/user/tests/ConsumerProducer_CPP_API_test.hpp ****         producers[0]->start();
 2103              		.loc 2 128 9 is_stmt 1 discriminator 7
 128:src/user/tests/ConsumerProducer_CPP_API_test.hpp ****         producers[0]->start();
 2104              		.loc 2 128 59 is_stmt 0 discriminator 7
 2105 0830 13058001 		li	a0,24
 2106 0834 97000000 		call	_Znwm@plt
 2106      E7800000 
 2107              	.LVL241:
 2108              	.LEHE9:
 2109 083c 93040500 		mv	s1,a0
 128:src/user/tests/ConsumerProducer_CPP_API_test.hpp ****         producers[0]->start();
 2110              		.loc 2 128 24 discriminator 7
 2111 0840 630E0500 		beqz	a0,.L102
 2112              	.LVL242:
 2113              	.LEHB10:
 2114              	.LBB113:
 2115              	.LBB114:
  28:src/user/tests/ConsumerProducer_CPP_API_test.hpp **** 
 2116              		.loc 2 28 62 discriminator 2
 2117 0844 97000000 		call	_ZN6ThreadC2Ev@plt
 2117      E7800000 
 2118              	.LVL243:
 2119              	.LEHE10:
  28:src/user/tests/ConsumerProducer_CPP_API_test.hpp **** 
 2120              		.loc 2 28 62
 2121 084c 97070000 		lla	a5,_ZTVN19ConsumerProducerCPP16ProducerKeyboradE+16
GAS LISTING /tmp/ccTuhaHZ.s 			page 52


 2121      93870700 
 2122 0854 23B0F400 		sd	a5,0(s1)
 2123 0858 23B83401 		sd	s3,16(s1)
 2124              	.LVL244:
 2125              	.L102:
 2126              	.LBE114:
 2127              	.LBE113:
 128:src/user/tests/ConsumerProducer_CPP_API_test.hpp ****         producers[0]->start();
 2128              		.loc 2 128 22 discriminator 7
 2129 085c 23309A00 		sd	s1,0(s4)
 129:src/user/tests/ConsumerProducer_CPP_API_test.hpp **** 
 2130              		.loc 2 129 9 is_stmt 1 discriminator 7
 129:src/user/tests/ConsumerProducer_CPP_API_test.hpp **** 
 2131              		.loc 2 129 28 is_stmt 0 discriminator 7
 2132 0860 13850400 		mv	a0,s1
 2133              	.LEHB11:
 2134 0864 97000000 		call	_ZN6Thread5startEv@plt
 2134      E7800000 
 2135              	.LVL245:
 2136              	.LBB115:
 131:src/user/tests/ConsumerProducer_CPP_API_test.hpp ****             threadData[i].id = i;
 2137              		.loc 2 131 18 discriminator 7
 2138 086c 93041000 		li	s1,1
 2139 0870 6F000003 		j	.L105
 2140              	.LVL246:
 2141              	.L128:
 2142              	.LBB116:
 2143              	.LBB117:
  48:src/user/tests/ConsumerProducer_CPP_API_test.hpp **** 
 2144              		.loc 2 48 54
 2145 0874 97070000 		lla	a5,_ZTVN19ConsumerProducerCPP8ProducerE+16
 2145      93870700 
 2146 087c 2330FC00 		sd	a5,0(s8)
 2147 0880 23389C01 		sd	s9,16(s8)
 2148              	.LVL247:
 2149              	.L104:
 2150              	.LBE117:
 2151              	.LBE116:
 136:src/user/tests/ConsumerProducer_CPP_API_test.hpp ****             producers[i]->start();
 2152              		.loc 2 136 26 discriminator 7
 2153 0884 93973400 		slli	a5,s1,3
 2154 0888 B307FA00 		add	a5,s4,a5
 2155 088c 23B08701 		sd	s8,0(a5)
 137:src/user/tests/ConsumerProducer_CPP_API_test.hpp **** 
 2156              		.loc 2 137 13 is_stmt 1 discriminator 7
 137:src/user/tests/ConsumerProducer_CPP_API_test.hpp **** 
 2157              		.loc 2 137 32 is_stmt 0 discriminator 7
 2158 0890 13050C00 		mv	a0,s8
 2159 0894 97000000 		call	_ZN6Thread5startEv@plt
 2159      E7800000 
 2160              	.LVL248:
 131:src/user/tests/ConsumerProducer_CPP_API_test.hpp ****             threadData[i].id = i;
 2161              		.loc 2 131 9 is_stmt 1 discriminator 7
 2162 089c 9B841400 		addiw	s1,s1,1
 2163              	.LVL249:
 2164              	.L105:
 131:src/user/tests/ConsumerProducer_CPP_API_test.hpp ****             threadData[i].id = i;
GAS LISTING /tmp/ccTuhaHZ.s 			page 53


 2165              		.loc 2 131 27 discriminator 1
 2166 08a0 63DC2405 		bge	s1,s2,.L103
 132:src/user/tests/ConsumerProducer_CPP_API_test.hpp ****             threadData[i].buffer = buffer;
 2167              		.loc 2 132 13
 132:src/user/tests/ConsumerProducer_CPP_API_test.hpp ****             threadData[i].buffer = buffer;
 2168              		.loc 2 132 30 is_stmt 0
 2169 08a4 93971400 		slli	a5,s1,1
 2170 08a8 B3879700 		add	a5,a5,s1
 2171 08ac 93973700 		slli	a5,a5,3
 2172 08b0 B387F900 		add	a5,s3,a5
 2173 08b4 23A09700 		sw	s1,0(a5)
 133:src/user/tests/ConsumerProducer_CPP_API_test.hpp ****             threadData[i].sem = waitForAll;
 2174              		.loc 2 133 13 is_stmt 1
 133:src/user/tests/ConsumerProducer_CPP_API_test.hpp ****             threadData[i].sem = waitForAll;
 2175              		.loc 2 133 34 is_stmt 0
 2176 08b8 23B45701 		sd	s5,8(a5)
 134:src/user/tests/ConsumerProducer_CPP_API_test.hpp **** 
 2177              		.loc 2 134 13 is_stmt 1
 134:src/user/tests/ConsumerProducer_CPP_API_test.hpp **** 
 2178              		.loc 2 134 31 is_stmt 0
 2179 08bc 17070000 		ld	a4,.LANCHOR0+16
 2179      03370700 
 2180 08c4 23B8E700 		sd	a4,16(a5)
 136:src/user/tests/ConsumerProducer_CPP_API_test.hpp ****             producers[i]->start();
 2181              		.loc 2 136 13 is_stmt 1
 136:src/user/tests/ConsumerProducer_CPP_API_test.hpp ****             producers[i]->start();
 2182              		.loc 2 136 55 is_stmt 0
 2183 08c8 13058001 		li	a0,24
 2184 08cc 97000000 		call	_Znwm@plt
 2184      E7800000 
 2185              	.LVL250:
 2186              	.LEHE11:
 2187 08d4 130C0500 		mv	s8,a0
 136:src/user/tests/ConsumerProducer_CPP_API_test.hpp ****             producers[i]->start();
 2188              		.loc 2 136 28
 2189 08d8 E30605FA 		beqz	a0,.L104
 136:src/user/tests/ConsumerProducer_CPP_API_test.hpp ****             producers[i]->start();
 2190              		.loc 2 136 55 discriminator 2
 2191 08dc 939C1400 		slli	s9,s1,1
 2192 08e0 B38C9C00 		add	s9,s9,s1
 2193 08e4 939C3C00 		slli	s9,s9,3
 2194 08e8 B38C9901 		add	s9,s3,s9
 2195              	.LVL251:
 2196              	.LEHB12:
 2197              	.LBB119:
 2198              	.LBB118:
  48:src/user/tests/ConsumerProducer_CPP_API_test.hpp **** 
 2199              		.loc 2 48 54 discriminator 2
 2200 08ec 97000000 		call	_ZN6ThreadC2Ev@plt
 2200      E7800000 
 2201              	.LVL252:
 2202              	.LEHE12:
 2203 08f4 6FF01FF8 		j	.L128
 2204              	.LVL253:
 2205              	.L103:
 2206              	.LBE118:
 2207              	.LBE119:
GAS LISTING /tmp/ccTuhaHZ.s 			page 54


 2208              	.LBE115:
 141:src/user/tests/ConsumerProducer_CPP_API_test.hpp **** 
 2209              		.loc 2 141 9 is_stmt 1
 2210              	.LEHB13:
 141:src/user/tests/ConsumerProducer_CPP_API_test.hpp **** 
 2211              		.loc 2 141 25 is_stmt 0
 2212 08f8 97000000 		call	_ZN6Thread8dispatchEv@plt
 2212      E7800000 
 2213              	.LVL254:
 2214              	.LBB120:
 143:src/user/tests/ConsumerProducer_CPP_API_test.hpp ****             waitForAll->wait();
 2215              		.loc 2 143 18
 2216 0900 93040000 		li	s1,0
 2217              	.LVL255:
 2218              	.L107:
 143:src/user/tests/ConsumerProducer_CPP_API_test.hpp ****             waitForAll->wait();
 2219              		.loc 2 143 27 is_stmt 1 discriminator 1
 2220 0904 634E9900 		bgt	s1,s2,.L106
 144:src/user/tests/ConsumerProducer_CPP_API_test.hpp ****         }
 2221              		.loc 2 144 13
 144:src/user/tests/ConsumerProducer_CPP_API_test.hpp ****         }
 2222              		.loc 2 144 29 is_stmt 0
 2223 0908 17050000 		ld	a0,.LANCHOR0+16
 2223      03350500 
 2224 0910 97000000 		call	_ZN9Semaphore4waitEv@plt
 2224      E7800000 
 2225              	.LVL256:
 143:src/user/tests/ConsumerProducer_CPP_API_test.hpp ****             waitForAll->wait();
 2226              		.loc 2 143 9 is_stmt 1
 2227 0918 9B841400 		addiw	s1,s1,1
 2228              	.LVL257:
 2229 091c 6FF09FFE 		j	.L107
 2230              	.LVL258:
 2231              	.L106:
 2232              	.LBE120:
 147:src/user/tests/ConsumerProducer_CPP_API_test.hpp ****         for (int i = 0; i < threadNum; i++) {
 2233              		.loc 2 147 9
 147:src/user/tests/ConsumerProducer_CPP_API_test.hpp ****         for (int i = 0; i < threadNum; i++) {
 2234              		.loc 2 147 16 is_stmt 0
 2235 0920 17050000 		ld	a0,.LANCHOR0+16
 2235      03350500 
 147:src/user/tests/ConsumerProducer_CPP_API_test.hpp ****         for (int i = 0; i < threadNum; i++) {
 2236              		.loc 2 147 26
 2237 0928 63080500 		beqz	a0,.L108
 147:src/user/tests/ConsumerProducer_CPP_API_test.hpp ****         for (int i = 0; i < threadNum; i++) {
 2238              		.loc 2 147 16 discriminator 1
 2239 092c 83370500 		ld	a5,0(a0)
 2240 0930 83B78700 		ld	a5,8(a5)
 2241 0934 E7800700 		jalr	a5
 2242              	.LVL259:
 2243              	.L108:
 2244              	.LBB121:
 143:src/user/tests/ConsumerProducer_CPP_API_test.hpp ****             waitForAll->wait();
 2245              		.loc 2 143 18 discriminator 1
 2246 0938 93040000 		li	s1,0
 2247              	.LVL260:
 2248 093c 6F008000 		j	.L111
GAS LISTING /tmp/ccTuhaHZ.s 			page 55


 2249              	.LVL261:
 2250              	.L110:
 2251              	.LBE121:
 2252              	.LBB122:
 148:src/user/tests/ConsumerProducer_CPP_API_test.hpp ****             delete producers[i];
 2253              		.loc 2 148 9 is_stmt 1 discriminator 2
 2254 0940 9B841400 		addiw	s1,s1,1
 2255              	.LVL262:
 2256              	.L111:
 148:src/user/tests/ConsumerProducer_CPP_API_test.hpp ****             delete producers[i];
 2257              		.loc 2 148 27 discriminator 1
 2258 0944 63D22403 		bge	s1,s2,.L109
 149:src/user/tests/ConsumerProducer_CPP_API_test.hpp ****         }
 2259              		.loc 2 149 13
 149:src/user/tests/ConsumerProducer_CPP_API_test.hpp ****         }
 2260              		.loc 2 149 31 is_stmt 0
 2261 0948 93973400 		slli	a5,s1,3
 2262 094c B307FA00 		add	a5,s4,a5
 2263 0950 03B50700 		ld	a0,0(a5)
 149:src/user/tests/ConsumerProducer_CPP_API_test.hpp ****         }
 2264              		.loc 2 149 32
 2265 0954 E30605FE 		beqz	a0,.L110
 149:src/user/tests/ConsumerProducer_CPP_API_test.hpp ****         }
 2266              		.loc 2 149 31 discriminator 1
 2267 0958 83370500 		ld	a5,0(a0)
 2268 095c 83B78700 		ld	a5,8(a5)
 2269 0960 E7800700 		jalr	a5
 2270              	.LVL263:
 2271 0964 6FF0DFFD 		j	.L110
 2272              	.L109:
 2273              	.LBE122:
 151:src/user/tests/ConsumerProducer_CPP_API_test.hpp ****         delete buffer;
 2274              		.loc 2 151 9 is_stmt 1
 151:src/user/tests/ConsumerProducer_CPP_API_test.hpp ****         delete buffer;
 2275              		.loc 2 151 24 is_stmt 0
 2276 0968 630A0B00 		beqz	s6,.L112
 151:src/user/tests/ConsumerProducer_CPP_API_test.hpp ****         delete buffer;
 2277              		.loc 2 151 16 discriminator 1
 2278 096c 83370B00 		ld	a5,0(s6)
 2279 0970 83B78700 		ld	a5,8(a5)
 2280 0974 13050B00 		mv	a0,s6
 2281 0978 E7800700 		jalr	a5
 2282              	.LVL264:
 2283              	.L112:
 2284              		.loc 2 152 9 is_stmt 1
 2285              		.loc 2 152 22 is_stmt 0
 2286 097c 638E0A00 		beqz	s5,.L113
 2287              		.loc 2 152 16 discriminator 1
 2288 0980 13850A00 		mv	a0,s5
 2289 0984 97000000 		call	_ZN9BufferCPPD1Ev@plt
 2289      E7800000 
 2290              	.LVL265:
 2291 098c 13850A00 		mv	a0,s5
 2292 0990 97000000 		call	_ZdlPv@plt
 2292      E7800000 
 2293              	.LVL266:
 2294              	.LEHE13:
GAS LISTING /tmp/ccTuhaHZ.s 			page 56


 2295              	.L113:
 2296 0998 13810B00 		mv	sp,s7
 2297              	.LVL267:
 2298              	.L95:
 153:src/user/tests/ConsumerProducer_CPP_API_test.hpp ****     }
 2299              		.loc 2 153 5
 2300 099c 130104F8 		addi	sp,s0,-128
 2301              		.cfi_remember_state
 2302              		.cfi_def_cfa 2, 128
 2303 09a0 83308107 		ld	ra,120(sp)
 2304              		.cfi_restore 1
 2305 09a4 03340107 		ld	s0,112(sp)
 2306              		.cfi_restore 8
 2307 09a8 83348106 		ld	s1,104(sp)
 2308              		.cfi_restore 9
 2309 09ac 03390106 		ld	s2,96(sp)
 2310              		.cfi_restore 18
 2311              	.LVL268:
 2312 09b0 83398105 		ld	s3,88(sp)
 2313              		.cfi_restore 19
 2314 09b4 033A0105 		ld	s4,80(sp)
 2315              		.cfi_restore 20
 2316 09b8 833A8104 		ld	s5,72(sp)
 2317              		.cfi_restore 21
 2318 09bc 033B0104 		ld	s6,64(sp)
 2319              		.cfi_restore 22
 2320 09c0 833B8103 		ld	s7,56(sp)
 2321              		.cfi_restore 23
 2322 09c4 033C0103 		ld	s8,48(sp)
 2323              		.cfi_restore 24
 2324 09c8 833C8102 		ld	s9,40(sp)
 2325              		.cfi_restore 25
 2326 09cc 13010108 		addi	sp,sp,128
 2327              		.cfi_def_cfa_offset 0
 2328 09d0 67800000 		jr	ra
 2329              	.LVL269:
 2330              	.L120:
 2331              		.cfi_restore_state
 2332 09d4 93040500 		mv	s1,a0
 2333              	.LVL270:
 113:src/user/tests/ConsumerProducer_CPP_API_test.hpp **** 
 2334              		.loc 2 113 44
 2335 09d8 13850A00 		mv	a0,s5
 2336 09dc 97000000 		call	_ZdlPv@plt
 2336      E7800000 
 2337              	.LVL271:
 2338 09e4 13850400 		mv	a0,s1
 2339              	.LEHB14:
 2340 09e8 97000000 		call	_Unwind_Resume@plt
 2340      E7800000 
 2341              	.LVL272:
 2342              	.LEHE14:
 2343              	.L121:
 2344 09f0 13090500 		mv	s2,a0
 2345              	.LVL273:
 115:src/user/tests/ConsumerProducer_CPP_API_test.hpp ****         Thread *producers[threadNum];
 2346              		.loc 2 115 37
GAS LISTING /tmp/ccTuhaHZ.s 			page 57


 2347 09f4 13850400 		mv	a0,s1
 2348 09f8 97000000 		call	_ZdlPv@plt
 2348      E7800000 
 2349              	.LVL274:
 2350 0a00 13050900 		mv	a0,s2
 2351              	.LEHB15:
 2352 0a04 97000000 		call	_Unwind_Resume@plt
 2352      E7800000 
 2353              	.LVL275:
 2354              	.LEHE15:
 2355              	.L122:
 2356 0a0c 93040500 		mv	s1,a0
 2357              	.LVL276:
 122:src/user/tests/ConsumerProducer_CPP_API_test.hpp ****         consumer->start();
 2358              		.loc 2 122 63
 2359 0a10 13050B00 		mv	a0,s6
 2360 0a14 97000000 		call	_ZdlPv@plt
 2360      E7800000 
 2361              	.LVL277:
 2362 0a1c 13850400 		mv	a0,s1
 2363              	.LEHB16:
 2364 0a20 97000000 		call	_Unwind_Resume@plt
 2364      E7800000 
 2365              	.LVL278:
 2366              	.LEHE16:
 2367              	.L123:
 2368 0a28 13090500 		mv	s2,a0
 2369              	.LVL279:
 128:src/user/tests/ConsumerProducer_CPP_API_test.hpp ****         producers[0]->start();
 2370              		.loc 2 128 59
 2371 0a2c 13850400 		mv	a0,s1
 2372 0a30 97000000 		call	_ZdlPv@plt
 2372      E7800000 
 2373              	.LVL280:
 2374 0a38 13050900 		mv	a0,s2
 2375              	.LEHB17:
 2376 0a3c 97000000 		call	_Unwind_Resume@plt
 2376      E7800000 
 2377              	.LVL281:
 2378              	.LEHE17:
 2379              	.L124:
 2380 0a44 93040500 		mv	s1,a0
 2381              	.LVL282:
 2382              	.LBB123:
 136:src/user/tests/ConsumerProducer_CPP_API_test.hpp ****             producers[i]->start();
 2383              		.loc 2 136 55
 2384 0a48 13050C00 		mv	a0,s8
 2385 0a4c 97000000 		call	_ZdlPv@plt
 2385      E7800000 
 2386              	.LVL283:
 2387 0a54 13850400 		mv	a0,s1
 2388              	.LEHB18:
 2389 0a58 97000000 		call	_Unwind_Resume@plt
 2389      E7800000 
 2390              	.LVL284:
 2391              	.LEHE18:
 2392              	.LBE123:
GAS LISTING /tmp/ccTuhaHZ.s 			page 58


 2393              		.cfi_endproc
 2394              	.LFE32:
 2395              		.section	.gcc_except_table,"a",@progbits
 2396              	.LLSDA32:
 2397 0000 FF       		.byte	0xff
 2398 0001 FF       		.byte	0xff
 2399 0002 03       		.byte	0x3
 2400 0003 D001     		.byte	0xd0,0x1
 2401 0005 00000000 		.4byte	.LEHB3-.LFB32
 2402 0009 00000000 		.4byte	.LEHE3-.LEHB3
 2403 000d 00000000 		.4byte	0
 2404 0011 00       		.byte	0
 2405 0012 00000000 		.4byte	.LEHB4-.LFB32
 2406 0016 00000000 		.4byte	.LEHE4-.LEHB4
 2407 001a 00000000 		.4byte	.L120-.LFB32
 2408 001e 00       		.byte	0
 2409 001f 00000000 		.4byte	.LEHB5-.LFB32
 2410 0023 00000000 		.4byte	.LEHE5-.LEHB5
 2411 0027 00000000 		.4byte	0
 2412 002b 00       		.byte	0
 2413 002c 00000000 		.4byte	.LEHB6-.LFB32
 2414 0030 00000000 		.4byte	.LEHE6-.LEHB6
 2415 0034 00000000 		.4byte	.L121-.LFB32
 2416 0038 00       		.byte	0
 2417 0039 00000000 		.4byte	.LEHB7-.LFB32
 2418 003d 00000000 		.4byte	.LEHE7-.LEHB7
 2419 0041 00000000 		.4byte	0
 2420 0045 00       		.byte	0
 2421 0046 00000000 		.4byte	.LEHB8-.LFB32
 2422 004a 00000000 		.4byte	.LEHE8-.LEHB8
 2423 004e 00000000 		.4byte	.L122-.LFB32
 2424 0052 00       		.byte	0
 2425 0053 00000000 		.4byte	.LEHB9-.LFB32
 2426 0057 00000000 		.4byte	.LEHE9-.LEHB9
 2427 005b 00000000 		.4byte	0
 2428 005f 00       		.byte	0
 2429 0060 00000000 		.4byte	.LEHB10-.LFB32
 2430 0064 00000000 		.4byte	.LEHE10-.LEHB10
 2431 0068 00000000 		.4byte	.L123-.LFB32
 2432 006c 00       		.byte	0
 2433 006d 00000000 		.4byte	.LEHB11-.LFB32
 2434 0071 00000000 		.4byte	.LEHE11-.LEHB11
 2435 0075 00000000 		.4byte	0
 2436 0079 00       		.byte	0
 2437 007a 00000000 		.4byte	.LEHB12-.LFB32
 2438 007e 00000000 		.4byte	.LEHE12-.LEHB12
 2439 0082 00000000 		.4byte	.L124-.LFB32
 2440 0086 00       		.byte	0
 2441 0087 00000000 		.4byte	.LEHB13-.LFB32
 2442 008b 00000000 		.4byte	.LEHE13-.LEHB13
 2443 008f 00000000 		.4byte	0
 2444 0093 00       		.byte	0
 2445 0094 00000000 		.4byte	.LEHB14-.LFB32
 2446 0098 00000000 		.4byte	.LEHE14-.LEHB14
 2447 009c 00000000 		.4byte	0
 2448 00a0 00       		.byte	0
 2449 00a1 00000000 		.4byte	.LEHB15-.LFB32
GAS LISTING /tmp/ccTuhaHZ.s 			page 59


 2450 00a5 00000000 		.4byte	.LEHE15-.LEHB15
 2451 00a9 00000000 		.4byte	0
 2452 00ad 00       		.byte	0
 2453 00ae 00000000 		.4byte	.LEHB16-.LFB32
 2454 00b2 00000000 		.4byte	.LEHE16-.LEHB16
 2455 00b6 00000000 		.4byte	0
 2456 00ba 00       		.byte	0
 2457 00bb 00000000 		.4byte	.LEHB17-.LFB32
 2458 00bf 00000000 		.4byte	.LEHE17-.LEHB17
 2459 00c3 00000000 		.4byte	0
 2460 00c7 00       		.byte	0
 2461 00c8 00000000 		.4byte	.LEHB18-.LFB32
 2462 00cc 00000000 		.4byte	.LEHE18-.LEHB18
 2463 00d0 00000000 		.4byte	0
 2464 00d4 00       		.byte	0
 2465              		.text
 2467              		.section	.rodata.str1.8
 2468 01e3 00000000 		.align	3
 2468      00
 2469              	.LC26:
 2470 01e8 55736572 		.string	"User main finished\n"
 2470      206D6169 
 2470      6E206669 
 2470      6E697368 
 2470      65640A00 
 2471              		.text
 2472              		.align	2
 2473              		.globl	_Z8testUserv
 2475              	_Z8testUserv:
 2476              	.LFB38:
  60:src/user/tests/testUser.hpp ****     }
  61:src/user/tests/testUser.hpp **** 
  62:src/user/tests/testUser.hpp **** private:
  63:src/user/tests/testUser.hpp ****     long id;
  64:src/user/tests/testUser.hpp ****     bool finished;
  65:src/user/tests/testUser.hpp **** };
  66:src/user/tests/testUser.hpp **** 
  67:src/user/tests/testUser.hpp **** 
  68:src/user/tests/testUser.hpp **** void testUser() {
 2477              		.loc 3 68 17 is_stmt 1
 2478              		.cfi_startproc
 2479              		.cfi_personality 0x9b,DW.ref.__gxx_personality_v0
 2480              		.cfi_lsda 0x1b,.LLSDA38
 2481 0a60 130101FC 		addi	sp,sp,-64
 2482              		.cfi_def_cfa_offset 64
 2483 0a64 233C1102 		sd	ra,56(sp)
 2484 0a68 23388102 		sd	s0,48(sp)
 2485 0a6c 23349102 		sd	s1,40(sp)
 2486              		.cfi_offset 1, -8
 2487              		.cfi_offset 8, -16
 2488              		.cfi_offset 9, -24
 2489 0a70 13040104 		addi	s0,sp,64
 2490              		.cfi_def_cfa 8, 0
  69:src/user/tests/testUser.hpp ****     ForkThread thread(1);
 2491              		.loc 3 69 5
 2492              	.LVL285:
 2493              	.LBB124:
GAS LISTING /tmp/ccTuhaHZ.s 			page 60


 2494              	.LBB125:
 2495              	.LBB126:
  12:src/user/tests/testUser.hpp ****     virtual void run() {
 2496              		.loc 3 12 70 is_stmt 0
 2497 0a74 930404FC 		addi	s1,s0,-64
 2498              	.LVL286:
 2499 0a78 13850400 		mv	a0,s1
 2500 0a7c 97000000 		call	_ZN6ThreadC2Ev@plt
 2500      E7800000 
 2501              	.LVL287:
 2502 0a84 97070000 		lla	a5,_ZTV10ForkThread+16
 2502      93870700 
 2503 0a8c 2330F4FC 		sd	a5,-64(s0)
 2504 0a90 93071000 		li	a5,1
 2505 0a94 2338F4FC 		sd	a5,-48(s0)
 2506 0a98 230C04FC 		sb	zero,-40(s0)
 2507              	.LVL288:
 2508              	.LBE126:
 2509              	.LBE125:
 2510              	.LBE124:
  70:src/user/tests/testUser.hpp **** 
  71:src/user/tests/testUser.hpp ****     thread.start();
 2511              		.loc 3 71 5 is_stmt 1
 2512              		.loc 3 71 17 is_stmt 0
 2513 0a9c 13850400 		mv	a0,s1
 2514              	.LEHB19:
 2515 0aa0 97000000 		call	_ZN6Thread5startEv@plt
 2515      E7800000 
 2516              	.LVL289:
 2517              	.L131:
  72:src/user/tests/testUser.hpp **** 
  73:src/user/tests/testUser.hpp ****     while (!thread.isFinished()) {
 2518              		.loc 3 73 5 is_stmt 1
 2519              		.loc 3 73 12
 2520              	.LBB127:
 2521              	.LBB128:
  59:src/user/tests/testUser.hpp ****     }
 2522              		.loc 3 59 9
  59:src/user/tests/testUser.hpp ****     }
 2523              		.loc 3 59 16 is_stmt 0
 2524 0aa8 834784FD 		lbu	a5,-40(s0)
 2525              	.LVL290:
 2526              	.LBE128:
 2527              	.LBE127:
 2528              		.loc 3 73 12
 2529 0aac 63980700 		bnez	a5,.L130
  74:src/user/tests/testUser.hpp ****         thread_dispatch();
 2530              		.loc 3 74 9 is_stmt 1
 2531              		.loc 3 74 24 is_stmt 0
 2532 0ab0 97000000 		call	_Z15thread_dispatchv@plt
 2532      E7800000 
 2533              	.LVL291:
 2534 0ab8 6FF01FFF 		j	.L131
 2535              	.L130:
  75:src/user/tests/testUser.hpp ****     }
  76:src/user/tests/testUser.hpp **** 
  77:src/user/tests/testUser.hpp **** //    ConsoleUtil::printString("User main finished\n");
GAS LISTING /tmp/ccTuhaHZ.s 			page 61


  78:src/user/tests/testUser.hpp ****     printString("User main finished\n");
 2536              		.loc 3 78 5 is_stmt 1
 2537              		.loc 3 78 16 is_stmt 0
 2538 0abc 17050000 		lla	a0,.LC26
 2538      13050500 
 2539 0ac4 97000000 		call	_Z11printStringPKc@plt
 2539      E7800000 
 2540              	.LVL292:
 2541              	.LEHE19:
 2542              	.LBB129:
 2543              	.LBB130:
  10:src/user/tests/testUser.hpp **** public:
 2544              		.loc 3 10 7
 2545 0acc 97070000 		lla	a5,_ZTV10ForkThread+16
 2545      93870700 
 2546 0ad4 2330F4FC 		sd	a5,-64(s0)
 2547 0ad8 130504FC 		addi	a0,s0,-64
 2548 0adc 97000000 		call	_ZN6ThreadD2Ev@plt
 2548      E7800000 
 2549              	.LVL293:
 2550              	.LBE130:
 2551              	.LBE129:
  79:src/user/tests/testUser.hpp **** }...
 2552              		.loc 3 79 1
 2553 0ae4 83308103 		ld	ra,56(sp)
 2554              		.cfi_remember_state
 2555              		.cfi_restore 1
 2556 0ae8 03340103 		ld	s0,48(sp)
 2557              		.cfi_restore 8
 2558              		.cfi_def_cfa 2, 64
 2559 0aec 83348102 		ld	s1,40(sp)
 2560              		.cfi_restore 9
 2561 0af0 13010104 		addi	sp,sp,64
 2562              		.cfi_def_cfa_offset 0
 2563 0af4 67800000 		jr	ra
 2564              	.L133:
 2565              		.cfi_restore_state
 2566 0af8 93040500 		mv	s1,a0
 2567              	.LVL294:
 2568              	.LBB131:
 2569              	.LBB132:
  10:src/user/tests/testUser.hpp **** public:
 2570              		.loc 3 10 7
 2571 0afc 97070000 		lla	a5,_ZTV10ForkThread+16
 2571      93870700 
 2572 0b04 2330F4FC 		sd	a5,-64(s0)
 2573 0b08 130504FC 		addi	a0,s0,-64
 2574              	.LVL295:
 2575 0b0c 97000000 		call	_ZN6ThreadD2Ev@plt
 2575      E7800000 
 2576              	.LVL296:
 2577 0b14 13850400 		mv	a0,s1
 2578              	.LEHB20:
 2579 0b18 97000000 		call	_Unwind_Resume@plt
 2579      E7800000 
 2580              	.LVL297:
 2581              	.LEHE20:
GAS LISTING /tmp/ccTuhaHZ.s 			page 62


 2582              	.LBE132:
 2583              	.LBE131:
 2584              		.cfi_endproc
 2585              	.LFE38:
 2586              		.section	.gcc_except_table
 2587              	.LLSDA38:
 2588 00d5 FF       		.byte	0xff
 2589 00d6 FF       		.byte	0xff
 2590 00d7 03       		.byte	0x3
 2591 00d8 1A       		.byte	0x1a
 2592 00d9 00000000 		.4byte	.LEHB19-.LFB38
 2593 00dd 00000000 		.4byte	.LEHE19-.LEHB19
 2594 00e1 00000000 		.4byte	.L133-.LFB38
 2595 00e5 00       		.byte	0
 2596 00e6 00000000 		.4byte	.LEHB20-.LFB38
 2597 00ea 00000000 		.4byte	.LEHE20-.LEHB20
 2598 00ee 00000000 		.4byte	0
 2599 00f2 00       		.byte	0
 2600              		.text
 2602              		.align	2
 2603              		.globl	_Z8userMainv
 2605              	_Z8userMainv:
 2606              	.LFB42:
 2607              		.file 4 "src/user/tests/userMain.cpp"
   1:src/user/tests/userMain.cpp **** #include "Threads_C_API_test.hpp" // zadatak 2, niti C API i sinhrona promena konteksta
   2:src/user/tests/userMain.cpp **** //#include "Threads_CPP_API_test.hpp" // zadatak 2., niti CPP API i sinhrona promena konteksta
   3:src/user/tests/userMain.cpp **** //
   4:src/user/tests/userMain.cpp **** //#include "ConsumerProducer_C_API_test.h" // zadatak 3., kompletan C API sa semaforima, sinhrona p
   5:src/user/tests/userMain.cpp **** //#include "ConsumerProducer_CPP_Sync_API_test.hpp" // zadatak 3., kompletan CPP API sa semaforima,
   6:src/user/tests/userMain.cpp **** 
   7:src/user/tests/userMain.cpp **** //#include "ThreadSleep_C_API_test.hpp" // thread_sleep test C API
   8:src/user/tests/userMain.cpp **** #include "ConsumerProducer_CPP_API_test.hpp" // zadatak 4. CPP API i asinhrona promena konteksta
   9:src/user/tests/userMain.cpp **** #include "testUser.hpp"
  10:src/user/tests/userMain.cpp **** #include "../../../h/kernel/buddy_allocator.hpp"
  11:src/user/tests/userMain.cpp **** 
  12:src/user/tests/userMain.cpp **** void userMain() {
 2608              		.loc 4 12 17 is_stmt 1
 2609              		.cfi_startproc
 2610 0b20 130101FF 		addi	sp,sp,-16
 2611              		.cfi_def_cfa_offset 16
 2612 0b24 23341100 		sd	ra,8(sp)
 2613 0b28 23308100 		sd	s0,0(sp)
 2614              		.cfi_offset 1, -8
 2615              		.cfi_offset 8, -16
 2616 0b2c 13040101 		addi	s0,sp,16
 2617              		.cfi_def_cfa 8, 0
  13:src/user/tests/userMain.cpp **** //    uint64 *x = (uint64*)HEAP_START_ADDR;
  14:src/user/tests/userMain.cpp **** //    *x=3;
  15:src/user/tests/userMain.cpp **** //    Threads_C_API_test(); // zadatak 2., niti C API i sinhrona promena konteksta
  16:src/user/tests/userMain.cpp **** //    Threads_CPP_API_test(); // zadatak 2., niti CPP API i sinhrona promena konteksta
  17:src/user/tests/userMain.cpp **** 
  18:src/user/tests/userMain.cpp **** //    producerConsumer_C_API(); // zadatak 3., kompletan C API sa semaforima, sinhrona promena kont
  19:src/user/tests/userMain.cpp **** //    producerConsumer_CPP_Sync_API(); // zadatak 3., kompletan CPP API sa semaforima, sinhrona pro
  20:src/user/tests/userMain.cpp **** 
  21:src/user/tests/userMain.cpp **** //    testSleeping(); // thread_sleep test C API
  22:src/user/tests/userMain.cpp ****     ConsumerProducerCPP::testConsumerProducer(); // zadatak 4. CPP API i asinhrona promena kontekst
 2618              		.loc 4 22 5
GAS LISTING /tmp/ccTuhaHZ.s 			page 63


 2619              		.loc 4 22 46 is_stmt 0
 2620 0b30 97000000 		call	_ZN19ConsumerProducerCPP20testConsumerProducerEv
 2620      E7800000 
 2621              	.LVL298:
  23:src/user/tests/userMain.cpp ****     testUser();
 2622              		.loc 4 23 5 is_stmt 1
 2623              		.loc 4 23 13 is_stmt 0
 2624 0b38 97000000 		call	_Z8testUserv
 2624      E7800000 
 2625              	.LVL299:
  24:src/user/tests/userMain.cpp **** }...
 2626              		.loc 4 24 1
 2627 0b40 83308100 		ld	ra,8(sp)
 2628              		.cfi_restore 1
 2629 0b44 03340100 		ld	s0,0(sp)
 2630              		.cfi_restore 8
 2631              		.cfi_def_cfa 2, 16
 2632 0b48 13010101 		addi	sp,sp,16
 2633              		.cfi_def_cfa_offset 0
 2634 0b4c 67800000 		jr	ra
 2635              		.cfi_endproc
 2636              	.LFE42:
 2638              		.weak	_ZTVN19ConsumerProducerCPP16ProducerKeyboradE
 2639              		.section	.data.rel.ro.local._ZTVN19ConsumerProducerCPP16ProducerKeyboradE,"awG",@progbits,_ZTVN19C
 2640              		.align	3
 2643              	_ZTVN19ConsumerProducerCPP16ProducerKeyboradE:
 2644 0000 00000000 		.dword	0
 2644      00000000 
 2645 0008 00000000 		.dword	0
 2645      00000000 
 2646 0010 00000000 		.dword	_ZN19ConsumerProducerCPP16ProducerKeyboradD1Ev
 2646      00000000 
 2647 0018 00000000 		.dword	_ZN19ConsumerProducerCPP16ProducerKeyboradD0Ev
 2647      00000000 
 2648 0020 00000000 		.dword	_ZN19ConsumerProducerCPP16ProducerKeyborad3runEv
 2648      00000000 
 2649              		.weak	_ZTVN19ConsumerProducerCPP8ProducerE
 2650              		.section	.data.rel.ro.local._ZTVN19ConsumerProducerCPP8ProducerE,"awG",@progbits,_ZTVN19ConsumerPr
 2651              		.align	3
 2654              	_ZTVN19ConsumerProducerCPP8ProducerE:
 2655 0000 00000000 		.dword	0
 2655      00000000 
 2656 0008 00000000 		.dword	0
 2656      00000000 
 2657 0010 00000000 		.dword	_ZN19ConsumerProducerCPP8ProducerD1Ev
 2657      00000000 
 2658 0018 00000000 		.dword	_ZN19ConsumerProducerCPP8ProducerD0Ev
 2658      00000000 
 2659 0020 00000000 		.dword	_ZN19ConsumerProducerCPP8Producer3runEv
 2659      00000000 
 2660              		.weak	_ZTVN19ConsumerProducerCPP8ConsumerE
 2661              		.section	.data.rel.ro.local._ZTVN19ConsumerProducerCPP8ConsumerE,"awG",@progbits,_ZTVN19ConsumerPr
 2662              		.align	3
 2665              	_ZTVN19ConsumerProducerCPP8ConsumerE:
 2666 0000 00000000 		.dword	0
 2666      00000000 
 2667 0008 00000000 		.dword	0
GAS LISTING /tmp/ccTuhaHZ.s 			page 64


 2667      00000000 
 2668 0010 00000000 		.dword	_ZN19ConsumerProducerCPP8ConsumerD1Ev
 2668      00000000 
 2669 0018 00000000 		.dword	_ZN19ConsumerProducerCPP8ConsumerD0Ev
 2669      00000000 
 2670 0020 00000000 		.dword	_ZN19ConsumerProducerCPP8Consumer3runEv
 2670      00000000 
 2671              		.weak	_ZTV10ForkThread
 2672              		.section	.data.rel.ro.local._ZTV10ForkThread,"awG",@progbits,_ZTV10ForkThread,comdat
 2673              		.align	3
 2676              	_ZTV10ForkThread:
 2677 0000 00000000 		.dword	0
 2677      00000000 
 2678 0008 00000000 		.dword	0
 2678      00000000 
 2679 0010 00000000 		.dword	_ZN10ForkThreadD1Ev
 2679      00000000 
 2680 0018 00000000 		.dword	_ZN10ForkThreadD0Ev
 2680      00000000 
 2681 0020 00000000 		.dword	_ZN10ForkThread3runEv
 2681      00000000 
 2682              		.globl	_ZN19ConsumerProducerCPP9threadEndE
 2683              		.globl	_ZN19ConsumerProducerCPP10waitForAllE
 2684              		.globl	finishedD
 2685              		.globl	finishedC
 2686              		.globl	finishedB
 2687              		.globl	finishedA
 2688              		.bss
 2689              		.align	3
 2690              		.set	.LANCHOR0,. + 0
 2693              	finishedA:
 2694 0000 00       		.zero	1
 2697              	finishedB:
 2698 0001 00       		.zero	1
 2699 0002 0000     		.zero	2
 2702              	_ZN19ConsumerProducerCPP9threadEndE:
 2703 0004 00000000 		.zero	4
 2706              	finishedC:
 2707 0008 00       		.zero	1
 2710              	finishedD:
 2711 0009 00       		.zero	1
 2712 000a 00000000 		.zero	6
 2712      0000
 2715              	_ZN19ConsumerProducerCPP10waitForAllE:
 2716 0010 00000000 		.zero	8
 2716      00000000 
 2717              		.text
 2718              	.Letext0:
 2719              		.file 5 "src/user/tests/../../../h/user/../../lib/hw.h"
 2720              		.file 6 "src/user/tests/../../../h/user/_thread.hpp"
 2721              		.file 7 "src/user/tests/../../../h/user/syscall_cpp.hpp"
 2722              		.file 8 "src/user/tests/buffer_CPP_API.hpp"
 2723              		.file 9 "src/user/tests/../../../h/kernel/utility.hpp"
 2724              		.file 10 "src/user/tests/../../../h/user/syscall_c.h"
 2725              		.file 11 "src/user/tests/../../../h/user/printing.hpp"
 8945              		.align	3
 8948              	DW.ref.__gxx_personality_v0:
GAS LISTING /tmp/ccTuhaHZ.s 			page 65


 8949 0000 00000000 		.dword	__gxx_personality_v0
 8949      00000000 
 8950              		.ident	"GCC: (Ubuntu 9.4.0-1ubuntu1~20.04) 9.4.0"
 8951              		.section	.note.GNU-stack,"",@progbits
GAS LISTING /tmp/ccTuhaHZ.s 			page 66


DEFINED SYMBOLS
                            *ABS*:0000000000000000 userMain.cpp
     /tmp/ccTuhaHZ.s:20     .text:0000000000000000 _Z11workerBodyAPv
     /tmp/ccTuhaHZ.s:24     .text:0000000000000000 .L0 
     /tmp/ccTuhaHZ.s:26     .text:0000000000000000 .L0 
     /tmp/ccTuhaHZ.s:27     .text:0000000000000004 .L0 
     /tmp/ccTuhaHZ.s:32     .text:0000000000000014 .L0 
     /tmp/ccTuhaHZ.s:33     .text:0000000000000014 .L0 
     /tmp/ccTuhaHZ.s:34     .text:0000000000000014 .L0 
     /tmp/ccTuhaHZ.s:35     .text:0000000000000014 .L0 
     /tmp/ccTuhaHZ.s:37     .text:0000000000000018 .L0 
     /tmp/ccTuhaHZ.s:41     .text:0000000000000018 .L0 
     /tmp/ccTuhaHZ.s:42     .text:0000000000000018 .L0 
     /tmp/ccTuhaHZ.s:50     .text:0000000000000020 .L0 
     /tmp/ccTuhaHZ.s:51     .text:0000000000000020 .L0 
     /tmp/ccTuhaHZ.s:55     .text:0000000000000028 .L0 
     /tmp/ccTuhaHZ.s:59     .text:000000000000002c .L0 
     /tmp/ccTuhaHZ.s:65     .text:0000000000000038 .L0 
     /tmp/ccTuhaHZ.s:69     .text:000000000000003c .L0 
     /tmp/ccTuhaHZ.s:73     .text:0000000000000048 .L0 
     /tmp/ccTuhaHZ.s:83     .text:0000000000000050 .L0 
     /tmp/ccTuhaHZ.s:87     .text:0000000000000054 .L0 
     /tmp/ccTuhaHZ.s:91     .text:000000000000005c .L0 
     /tmp/ccTuhaHZ.s:92     .text:000000000000005c .L0 
     /tmp/ccTuhaHZ.s:96     .text:000000000000006c .L0 
     /tmp/ccTuhaHZ.s:97     .text:000000000000006c .L0 
     /tmp/ccTuhaHZ.s:103    .text:0000000000000080 .L0 
     /tmp/ccTuhaHZ.s:104    .text:0000000000000080 .L0 
     /tmp/ccTuhaHZ.s:109    .text:0000000000000090 .L0 
     /tmp/ccTuhaHZ.s:110    .text:0000000000000090 .L0 
     /tmp/ccTuhaHZ.s:118    .text:0000000000000098 .L0 
     /tmp/ccTuhaHZ.s:119    .text:0000000000000098 .L0 
     /tmp/ccTuhaHZ.s:123    .text:00000000000000a8 .L0 
     /tmp/ccTuhaHZ.s:124    .text:00000000000000a8 .L0 
     /tmp/ccTuhaHZ.s:127    .text:00000000000000b4 .L0 
     /tmp/ccTuhaHZ.s:128    .text:00000000000000b8 .L0 
     /tmp/ccTuhaHZ.s:130    .text:00000000000000bc .L0 
     /tmp/ccTuhaHZ.s:131    .text:00000000000000bc .L0 
     /tmp/ccTuhaHZ.s:133    .text:00000000000000c0 .L0 
     /tmp/ccTuhaHZ.s:135    .text:00000000000000c4 .L0 
     /tmp/ccTuhaHZ.s:138    .text:00000000000000c8 .L0 
     /tmp/ccTuhaHZ.s:140    .text:00000000000000cc .L0 
     /tmp/ccTuhaHZ.s:154    .text:00000000000000cc _Z11workerBodyBPv
     /tmp/ccTuhaHZ.s:157    .text:00000000000000cc .L0 
     /tmp/ccTuhaHZ.s:159    .text:00000000000000cc .L0 
     /tmp/ccTuhaHZ.s:160    .text:00000000000000d0 .L0 
     /tmp/ccTuhaHZ.s:165    .text:00000000000000e0 .L0 
     /tmp/ccTuhaHZ.s:166    .text:00000000000000e0 .L0 
     /tmp/ccTuhaHZ.s:167    .text:00000000000000e0 .L0 
     /tmp/ccTuhaHZ.s:168    .text:00000000000000e0 .L0 
     /tmp/ccTuhaHZ.s:170    .text:00000000000000e4 .L0 
     /tmp/ccTuhaHZ.s:174    .text:00000000000000e4 .L0 
     /tmp/ccTuhaHZ.s:175    .text:00000000000000e4 .L0 
     /tmp/ccTuhaHZ.s:183    .text:00000000000000ec .L0 
     /tmp/ccTuhaHZ.s:184    .text:00000000000000ec .L0 
     /tmp/ccTuhaHZ.s:188    .text:00000000000000f4 .L0 
     /tmp/ccTuhaHZ.s:192    .text:00000000000000f8 .L0 
GAS LISTING /tmp/ccTuhaHZ.s 			page 67


     /tmp/ccTuhaHZ.s:198    .text:0000000000000104 .L0 
     /tmp/ccTuhaHZ.s:202    .text:0000000000000108 .L0 
     /tmp/ccTuhaHZ.s:206    .text:0000000000000114 .L0 
     /tmp/ccTuhaHZ.s:216    .text:000000000000011c .L0 
     /tmp/ccTuhaHZ.s:220    .text:0000000000000120 .L0 
     /tmp/ccTuhaHZ.s:224    .text:0000000000000128 .L0 
     /tmp/ccTuhaHZ.s:225    .text:0000000000000128 .L0 
     /tmp/ccTuhaHZ.s:229    .text:0000000000000138 .L0 
     /tmp/ccTuhaHZ.s:230    .text:0000000000000138 .L0 
     /tmp/ccTuhaHZ.s:236    .text:000000000000014c .L0 
     /tmp/ccTuhaHZ.s:237    .text:000000000000014c .L0 
     /tmp/ccTuhaHZ.s:242    .text:000000000000015c .L0 
     /tmp/ccTuhaHZ.s:243    .text:000000000000015c .L0 
     /tmp/ccTuhaHZ.s:251    .text:0000000000000164 .L0 
     /tmp/ccTuhaHZ.s:252    .text:0000000000000164 .L0 
     /tmp/ccTuhaHZ.s:256    .text:0000000000000174 .L0 
     /tmp/ccTuhaHZ.s:257    .text:0000000000000174 .L0 
     /tmp/ccTuhaHZ.s:260    .text:0000000000000180 .L0 
     /tmp/ccTuhaHZ.s:261    .text:0000000000000180 .L0 
     /tmp/ccTuhaHZ.s:264    .text:0000000000000188 .L0 
     /tmp/ccTuhaHZ.s:265    .text:000000000000018c .L0 
     /tmp/ccTuhaHZ.s:267    .text:0000000000000190 .L0 
     /tmp/ccTuhaHZ.s:268    .text:0000000000000190 .L0 
     /tmp/ccTuhaHZ.s:270    .text:0000000000000194 .L0 
     /tmp/ccTuhaHZ.s:272    .text:0000000000000198 .L0 
     /tmp/ccTuhaHZ.s:275    .text:000000000000019c .L0 
     /tmp/ccTuhaHZ.s:277    .text:00000000000001a0 .L0 
     /tmp/ccTuhaHZ.s:284    .text._ZN19ConsumerProducerCPP8Consumer3runEv:0000000000000000 _ZN19ConsumerProducerCPP8Consumer3runEv
     /tmp/ccTuhaHZ.s:288    .text._ZN19ConsumerProducerCPP8Consumer3runEv:0000000000000000 .L0 
     /tmp/ccTuhaHZ.s:290    .text._ZN19ConsumerProducerCPP8Consumer3runEv:0000000000000000 .L0 
     /tmp/ccTuhaHZ.s:291    .text._ZN19ConsumerProducerCPP8Consumer3runEv:0000000000000004 .L0 
     /tmp/ccTuhaHZ.s:297    .text._ZN19ConsumerProducerCPP8Consumer3runEv:0000000000000018 .L0 
     /tmp/ccTuhaHZ.s:298    .text._ZN19ConsumerProducerCPP8Consumer3runEv:0000000000000018 .L0 
     /tmp/ccTuhaHZ.s:299    .text._ZN19ConsumerProducerCPP8Consumer3runEv:0000000000000018 .L0 
     /tmp/ccTuhaHZ.s:300    .text._ZN19ConsumerProducerCPP8Consumer3runEv:0000000000000018 .L0 
     /tmp/ccTuhaHZ.s:301    .text._ZN19ConsumerProducerCPP8Consumer3runEv:0000000000000018 .L0 
     /tmp/ccTuhaHZ.s:303    .text._ZN19ConsumerProducerCPP8Consumer3runEv:000000000000001c .L0 
     /tmp/ccTuhaHZ.s:307    .text._ZN19ConsumerProducerCPP8Consumer3runEv:0000000000000020 .L0 
     /tmp/ccTuhaHZ.s:308    .text._ZN19ConsumerProducerCPP8Consumer3runEv:0000000000000020 .L0 
     /tmp/ccTuhaHZ.s:314    .text._ZN19ConsumerProducerCPP8Consumer3runEv:0000000000000028 .L0 
     /tmp/ccTuhaHZ.s:315    .text._ZN19ConsumerProducerCPP8Consumer3runEv:0000000000000028 .L0 
     /tmp/ccTuhaHZ.s:321    .text._ZN19ConsumerProducerCPP8Consumer3runEv:0000000000000034 .L0 
     /tmp/ccTuhaHZ.s:322    .text._ZN19ConsumerProducerCPP8Consumer3runEv:0000000000000034 .L0 
     /tmp/ccTuhaHZ.s:326    .text._ZN19ConsumerProducerCPP8Consumer3runEv:0000000000000040 .L0 
     /tmp/ccTuhaHZ.s:327    .text._ZN19ConsumerProducerCPP8Consumer3runEv:0000000000000040 .L0 
     /tmp/ccTuhaHZ.s:329    .text._ZN19ConsumerProducerCPP8Consumer3runEv:0000000000000044 .L0 
     /tmp/ccTuhaHZ.s:333    .text._ZN19ConsumerProducerCPP8Consumer3runEv:0000000000000050 .L0 
     /tmp/ccTuhaHZ.s:334    .text._ZN19ConsumerProducerCPP8Consumer3runEv:0000000000000050 .L0 
     /tmp/ccTuhaHZ.s:338    .text._ZN19ConsumerProducerCPP8Consumer3runEv:0000000000000058 .L0 
     /tmp/ccTuhaHZ.s:339    .text._ZN19ConsumerProducerCPP8Consumer3runEv:0000000000000058 .L0 
     /tmp/ccTuhaHZ.s:344    .text._ZN19ConsumerProducerCPP8Consumer3runEv:0000000000000064 .L0 
     /tmp/ccTuhaHZ.s:345    .text._ZN19ConsumerProducerCPP8Consumer3runEv:0000000000000064 .L0 
     /tmp/ccTuhaHZ.s:349    .text._ZN19ConsumerProducerCPP8Consumer3runEv:000000000000006c .L0 
     /tmp/ccTuhaHZ.s:355    .text._ZN19ConsumerProducerCPP8Consumer3runEv:0000000000000074 .L0 
     /tmp/ccTuhaHZ.s:356    .text._ZN19ConsumerProducerCPP8Consumer3runEv:0000000000000074 .L0 
     /tmp/ccTuhaHZ.s:358    .text._ZN19ConsumerProducerCPP8Consumer3runEv:0000000000000078 .L0 
     /tmp/ccTuhaHZ.s:362    .text._ZN19ConsumerProducerCPP8Consumer3runEv:0000000000000084 .L0 
GAS LISTING /tmp/ccTuhaHZ.s 			page 68


     /tmp/ccTuhaHZ.s:363    .text._ZN19ConsumerProducerCPP8Consumer3runEv:0000000000000084 .L0 
     /tmp/ccTuhaHZ.s:370    .text._ZN19ConsumerProducerCPP8Consumer3runEv:0000000000000090 .L0 
     /tmp/ccTuhaHZ.s:371    .text._ZN19ConsumerProducerCPP8Consumer3runEv:0000000000000090 .L0 
     /tmp/ccTuhaHZ.s:372    .text._ZN19ConsumerProducerCPP8Consumer3runEv:0000000000000090 .L0 
     /tmp/ccTuhaHZ.s:374    .text._ZN19ConsumerProducerCPP8Consumer3runEv:0000000000000094 .L0 
     /tmp/ccTuhaHZ.s:378    .text._ZN19ConsumerProducerCPP8Consumer3runEv:00000000000000a0 .L0 
     /tmp/ccTuhaHZ.s:380    .text._ZN19ConsumerProducerCPP8Consumer3runEv:00000000000000a4 .L0 
     /tmp/ccTuhaHZ.s:382    .text._ZN19ConsumerProducerCPP8Consumer3runEv:00000000000000a8 .L0 
     /tmp/ccTuhaHZ.s:386    .text._ZN19ConsumerProducerCPP8Consumer3runEv:00000000000000b4 .L0 
     /tmp/ccTuhaHZ.s:387    .text._ZN19ConsumerProducerCPP8Consumer3runEv:00000000000000b8 .L0 
     /tmp/ccTuhaHZ.s:389    .text._ZN19ConsumerProducerCPP8Consumer3runEv:00000000000000bc .L0 
     /tmp/ccTuhaHZ.s:390    .text._ZN19ConsumerProducerCPP8Consumer3runEv:00000000000000bc .L0 
     /tmp/ccTuhaHZ.s:392    .text._ZN19ConsumerProducerCPP8Consumer3runEv:00000000000000c0 .L0 
     /tmp/ccTuhaHZ.s:394    .text._ZN19ConsumerProducerCPP8Consumer3runEv:00000000000000c4 .L0 
     /tmp/ccTuhaHZ.s:397    .text._ZN19ConsumerProducerCPP8Consumer3runEv:00000000000000c8 .L0 
     /tmp/ccTuhaHZ.s:400    .text._ZN19ConsumerProducerCPP8Consumer3runEv:00000000000000cc .L0 
     /tmp/ccTuhaHZ.s:402    .text._ZN19ConsumerProducerCPP8Consumer3runEv:00000000000000d0 .L0 
     /tmp/ccTuhaHZ.s:409    .text._ZN19ConsumerProducerCPP8ConsumerD2Ev:0000000000000000 _ZN19ConsumerProducerCPP8ConsumerD2Ev
     /tmp/ccTuhaHZ.s:412    .text._ZN19ConsumerProducerCPP8ConsumerD2Ev:0000000000000000 .L0 
     /tmp/ccTuhaHZ.s:414    .text._ZN19ConsumerProducerCPP8ConsumerD2Ev:0000000000000000 .L0 
     /tmp/ccTuhaHZ.s:415    .text._ZN19ConsumerProducerCPP8ConsumerD2Ev:0000000000000004 .L0 
     /tmp/ccTuhaHZ.s:418    .text._ZN19ConsumerProducerCPP8ConsumerD2Ev:000000000000000c .L0 
     /tmp/ccTuhaHZ.s:419    .text._ZN19ConsumerProducerCPP8ConsumerD2Ev:000000000000000c .L0 
     /tmp/ccTuhaHZ.s:421    .text._ZN19ConsumerProducerCPP8ConsumerD2Ev:0000000000000010 .L0 
     /tmp/ccTuhaHZ.s:2665   .data.rel.ro.local._ZTVN19ConsumerProducerCPP8ConsumerE:0000000000000000 _ZTVN19ConsumerProducerCPP8ConsumerE
     /tmp/ccTuhaHZ.s:424    .text._ZN19ConsumerProducerCPP8ConsumerD2Ev:0000000000000010 .L0 
     /tmp/ccTuhaHZ.s:430    .text._ZN19ConsumerProducerCPP8ConsumerD2Ev:0000000000000028 .L0 
     /tmp/ccTuhaHZ.s:432    .text._ZN19ConsumerProducerCPP8ConsumerD2Ev:000000000000002c .L0 
     /tmp/ccTuhaHZ.s:433    .text._ZN19ConsumerProducerCPP8ConsumerD2Ev:000000000000002c .L0 
     /tmp/ccTuhaHZ.s:435    .text._ZN19ConsumerProducerCPP8ConsumerD2Ev:0000000000000030 .L0 
     /tmp/ccTuhaHZ.s:437    .text._ZN19ConsumerProducerCPP8ConsumerD2Ev:0000000000000034 .L0 
     /tmp/ccTuhaHZ.s:409    .text._ZN19ConsumerProducerCPP8ConsumerD2Ev:0000000000000000 _ZN19ConsumerProducerCPP8ConsumerD1Ev
     /tmp/ccTuhaHZ.s:446    .text._ZN19ConsumerProducerCPP8ConsumerD0Ev:0000000000000000 _ZN19ConsumerProducerCPP8ConsumerD0Ev
     /tmp/ccTuhaHZ.s:449    .text._ZN19ConsumerProducerCPP8ConsumerD0Ev:0000000000000000 .L0 
     /tmp/ccTuhaHZ.s:451    .text._ZN19ConsumerProducerCPP8ConsumerD0Ev:0000000000000000 .L0 
     /tmp/ccTuhaHZ.s:452    .text._ZN19ConsumerProducerCPP8ConsumerD0Ev:0000000000000004 .L0 
     /tmp/ccTuhaHZ.s:456    .text._ZN19ConsumerProducerCPP8ConsumerD0Ev:0000000000000010 .L0 
     /tmp/ccTuhaHZ.s:457    .text._ZN19ConsumerProducerCPP8ConsumerD0Ev:0000000000000010 .L0 
     /tmp/ccTuhaHZ.s:458    .text._ZN19ConsumerProducerCPP8ConsumerD0Ev:0000000000000010 .L0 
     /tmp/ccTuhaHZ.s:460    .text._ZN19ConsumerProducerCPP8ConsumerD0Ev:0000000000000014 .L0 
     /tmp/ccTuhaHZ.s:466    .text._ZN19ConsumerProducerCPP8ConsumerD0Ev:0000000000000018 .L0 
     /tmp/ccTuhaHZ.s:476    .text._ZN19ConsumerProducerCPP8ConsumerD0Ev:000000000000003c .L0 
     /tmp/ccTuhaHZ.s:478    .text._ZN19ConsumerProducerCPP8ConsumerD0Ev:0000000000000040 .L0 
     /tmp/ccTuhaHZ.s:479    .text._ZN19ConsumerProducerCPP8ConsumerD0Ev:0000000000000040 .L0 
     /tmp/ccTuhaHZ.s:481    .text._ZN19ConsumerProducerCPP8ConsumerD0Ev:0000000000000044 .L0 
     /tmp/ccTuhaHZ.s:484    .text._ZN19ConsumerProducerCPP8ConsumerD0Ev:0000000000000048 .L0 
     /tmp/ccTuhaHZ.s:486    .text._ZN19ConsumerProducerCPP8ConsumerD0Ev:000000000000004c .L0 
     /tmp/ccTuhaHZ.s:493    .text._ZN19ConsumerProducerCPP16ProducerKeyboradD2Ev:0000000000000000 _ZN19ConsumerProducerCPP16ProducerKeyboradD2Ev
     /tmp/ccTuhaHZ.s:496    .text._ZN19ConsumerProducerCPP16ProducerKeyboradD2Ev:0000000000000000 .L0 
     /tmp/ccTuhaHZ.s:498    .text._ZN19ConsumerProducerCPP16ProducerKeyboradD2Ev:0000000000000000 .L0 
     /tmp/ccTuhaHZ.s:499    .text._ZN19ConsumerProducerCPP16ProducerKeyboradD2Ev:0000000000000004 .L0 
     /tmp/ccTuhaHZ.s:502    .text._ZN19ConsumerProducerCPP16ProducerKeyboradD2Ev:000000000000000c .L0 
     /tmp/ccTuhaHZ.s:503    .text._ZN19ConsumerProducerCPP16ProducerKeyboradD2Ev:000000000000000c .L0 
     /tmp/ccTuhaHZ.s:505    .text._ZN19ConsumerProducerCPP16ProducerKeyboradD2Ev:0000000000000010 .L0 
     /tmp/ccTuhaHZ.s:2643   .data.rel.ro.local._ZTVN19ConsumerProducerCPP16ProducerKeyboradE:0000000000000000 _ZTVN19ConsumerProducerCPP16ProducerKeyboradE
     /tmp/ccTuhaHZ.s:508    .text._ZN19ConsumerProducerCPP16ProducerKeyboradD2Ev:0000000000000010 .L0 
     /tmp/ccTuhaHZ.s:514    .text._ZN19ConsumerProducerCPP16ProducerKeyboradD2Ev:0000000000000028 .L0 
GAS LISTING /tmp/ccTuhaHZ.s 			page 69


     /tmp/ccTuhaHZ.s:516    .text._ZN19ConsumerProducerCPP16ProducerKeyboradD2Ev:000000000000002c .L0 
     /tmp/ccTuhaHZ.s:517    .text._ZN19ConsumerProducerCPP16ProducerKeyboradD2Ev:000000000000002c .L0 
     /tmp/ccTuhaHZ.s:519    .text._ZN19ConsumerProducerCPP16ProducerKeyboradD2Ev:0000000000000030 .L0 
     /tmp/ccTuhaHZ.s:521    .text._ZN19ConsumerProducerCPP16ProducerKeyboradD2Ev:0000000000000034 .L0 
     /tmp/ccTuhaHZ.s:493    .text._ZN19ConsumerProducerCPP16ProducerKeyboradD2Ev:0000000000000000 _ZN19ConsumerProducerCPP16ProducerKeyboradD1Ev
     /tmp/ccTuhaHZ.s:530    .text._ZN19ConsumerProducerCPP16ProducerKeyboradD0Ev:0000000000000000 _ZN19ConsumerProducerCPP16ProducerKeyboradD0Ev
     /tmp/ccTuhaHZ.s:533    .text._ZN19ConsumerProducerCPP16ProducerKeyboradD0Ev:0000000000000000 .L0 
     /tmp/ccTuhaHZ.s:535    .text._ZN19ConsumerProducerCPP16ProducerKeyboradD0Ev:0000000000000000 .L0 
     /tmp/ccTuhaHZ.s:536    .text._ZN19ConsumerProducerCPP16ProducerKeyboradD0Ev:0000000000000004 .L0 
     /tmp/ccTuhaHZ.s:540    .text._ZN19ConsumerProducerCPP16ProducerKeyboradD0Ev:0000000000000010 .L0 
     /tmp/ccTuhaHZ.s:541    .text._ZN19ConsumerProducerCPP16ProducerKeyboradD0Ev:0000000000000010 .L0 
     /tmp/ccTuhaHZ.s:542    .text._ZN19ConsumerProducerCPP16ProducerKeyboradD0Ev:0000000000000010 .L0 
     /tmp/ccTuhaHZ.s:544    .text._ZN19ConsumerProducerCPP16ProducerKeyboradD0Ev:0000000000000014 .L0 
     /tmp/ccTuhaHZ.s:550    .text._ZN19ConsumerProducerCPP16ProducerKeyboradD0Ev:0000000000000018 .L0 
     /tmp/ccTuhaHZ.s:560    .text._ZN19ConsumerProducerCPP16ProducerKeyboradD0Ev:000000000000003c .L0 
     /tmp/ccTuhaHZ.s:562    .text._ZN19ConsumerProducerCPP16ProducerKeyboradD0Ev:0000000000000040 .L0 
     /tmp/ccTuhaHZ.s:563    .text._ZN19ConsumerProducerCPP16ProducerKeyboradD0Ev:0000000000000040 .L0 
     /tmp/ccTuhaHZ.s:565    .text._ZN19ConsumerProducerCPP16ProducerKeyboradD0Ev:0000000000000044 .L0 
     /tmp/ccTuhaHZ.s:568    .text._ZN19ConsumerProducerCPP16ProducerKeyboradD0Ev:0000000000000048 .L0 
     /tmp/ccTuhaHZ.s:570    .text._ZN19ConsumerProducerCPP16ProducerKeyboradD0Ev:000000000000004c .L0 
     /tmp/ccTuhaHZ.s:577    .text._ZN19ConsumerProducerCPP8ProducerD2Ev:0000000000000000 _ZN19ConsumerProducerCPP8ProducerD2Ev
     /tmp/ccTuhaHZ.s:580    .text._ZN19ConsumerProducerCPP8ProducerD2Ev:0000000000000000 .L0 
     /tmp/ccTuhaHZ.s:582    .text._ZN19ConsumerProducerCPP8ProducerD2Ev:0000000000000000 .L0 
     /tmp/ccTuhaHZ.s:583    .text._ZN19ConsumerProducerCPP8ProducerD2Ev:0000000000000004 .L0 
     /tmp/ccTuhaHZ.s:586    .text._ZN19ConsumerProducerCPP8ProducerD2Ev:000000000000000c .L0 
     /tmp/ccTuhaHZ.s:587    .text._ZN19ConsumerProducerCPP8ProducerD2Ev:000000000000000c .L0 
     /tmp/ccTuhaHZ.s:589    .text._ZN19ConsumerProducerCPP8ProducerD2Ev:0000000000000010 .L0 
     /tmp/ccTuhaHZ.s:2654   .data.rel.ro.local._ZTVN19ConsumerProducerCPP8ProducerE:0000000000000000 _ZTVN19ConsumerProducerCPP8ProducerE
     /tmp/ccTuhaHZ.s:592    .text._ZN19ConsumerProducerCPP8ProducerD2Ev:0000000000000010 .L0 
     /tmp/ccTuhaHZ.s:598    .text._ZN19ConsumerProducerCPP8ProducerD2Ev:0000000000000028 .L0 
     /tmp/ccTuhaHZ.s:600    .text._ZN19ConsumerProducerCPP8ProducerD2Ev:000000000000002c .L0 
     /tmp/ccTuhaHZ.s:601    .text._ZN19ConsumerProducerCPP8ProducerD2Ev:000000000000002c .L0 
     /tmp/ccTuhaHZ.s:603    .text._ZN19ConsumerProducerCPP8ProducerD2Ev:0000000000000030 .L0 
     /tmp/ccTuhaHZ.s:605    .text._ZN19ConsumerProducerCPP8ProducerD2Ev:0000000000000034 .L0 
     /tmp/ccTuhaHZ.s:577    .text._ZN19ConsumerProducerCPP8ProducerD2Ev:0000000000000000 _ZN19ConsumerProducerCPP8ProducerD1Ev
     /tmp/ccTuhaHZ.s:614    .text._ZN19ConsumerProducerCPP8ProducerD0Ev:0000000000000000 _ZN19ConsumerProducerCPP8ProducerD0Ev
     /tmp/ccTuhaHZ.s:617    .text._ZN19ConsumerProducerCPP8ProducerD0Ev:0000000000000000 .L0 
     /tmp/ccTuhaHZ.s:619    .text._ZN19ConsumerProducerCPP8ProducerD0Ev:0000000000000000 .L0 
     /tmp/ccTuhaHZ.s:620    .text._ZN19ConsumerProducerCPP8ProducerD0Ev:0000000000000004 .L0 
     /tmp/ccTuhaHZ.s:624    .text._ZN19ConsumerProducerCPP8ProducerD0Ev:0000000000000010 .L0 
     /tmp/ccTuhaHZ.s:625    .text._ZN19ConsumerProducerCPP8ProducerD0Ev:0000000000000010 .L0 
     /tmp/ccTuhaHZ.s:626    .text._ZN19ConsumerProducerCPP8ProducerD0Ev:0000000000000010 .L0 
     /tmp/ccTuhaHZ.s:628    .text._ZN19ConsumerProducerCPP8ProducerD0Ev:0000000000000014 .L0 
     /tmp/ccTuhaHZ.s:634    .text._ZN19ConsumerProducerCPP8ProducerD0Ev:0000000000000018 .L0 
     /tmp/ccTuhaHZ.s:644    .text._ZN19ConsumerProducerCPP8ProducerD0Ev:000000000000003c .L0 
     /tmp/ccTuhaHZ.s:646    .text._ZN19ConsumerProducerCPP8ProducerD0Ev:0000000000000040 .L0 
     /tmp/ccTuhaHZ.s:647    .text._ZN19ConsumerProducerCPP8ProducerD0Ev:0000000000000040 .L0 
     /tmp/ccTuhaHZ.s:649    .text._ZN19ConsumerProducerCPP8ProducerD0Ev:0000000000000044 .L0 
     /tmp/ccTuhaHZ.s:652    .text._ZN19ConsumerProducerCPP8ProducerD0Ev:0000000000000048 .L0 
     /tmp/ccTuhaHZ.s:654    .text._ZN19ConsumerProducerCPP8ProducerD0Ev:000000000000004c .L0 
     /tmp/ccTuhaHZ.s:661    .text._ZN10ForkThreadD2Ev:0000000000000000 _ZN10ForkThreadD2Ev
     /tmp/ccTuhaHZ.s:665    .text._ZN10ForkThreadD2Ev:0000000000000000 .L0 
     /tmp/ccTuhaHZ.s:667    .text._ZN10ForkThreadD2Ev:0000000000000000 .L0 
     /tmp/ccTuhaHZ.s:668    .text._ZN10ForkThreadD2Ev:0000000000000004 .L0 
     /tmp/ccTuhaHZ.s:671    .text._ZN10ForkThreadD2Ev:000000000000000c .L0 
     /tmp/ccTuhaHZ.s:672    .text._ZN10ForkThreadD2Ev:000000000000000c .L0 
     /tmp/ccTuhaHZ.s:674    .text._ZN10ForkThreadD2Ev:0000000000000010 .L0 
GAS LISTING /tmp/ccTuhaHZ.s 			page 70


     /tmp/ccTuhaHZ.s:2676   .data.rel.ro.local._ZTV10ForkThread:0000000000000000 _ZTV10ForkThread
     /tmp/ccTuhaHZ.s:677    .text._ZN10ForkThreadD2Ev:0000000000000010 .L0 
     /tmp/ccTuhaHZ.s:683    .text._ZN10ForkThreadD2Ev:0000000000000028 .L0 
     /tmp/ccTuhaHZ.s:685    .text._ZN10ForkThreadD2Ev:000000000000002c .L0 
     /tmp/ccTuhaHZ.s:686    .text._ZN10ForkThreadD2Ev:000000000000002c .L0 
     /tmp/ccTuhaHZ.s:688    .text._ZN10ForkThreadD2Ev:0000000000000030 .L0 
     /tmp/ccTuhaHZ.s:690    .text._ZN10ForkThreadD2Ev:0000000000000034 .L0 
     /tmp/ccTuhaHZ.s:661    .text._ZN10ForkThreadD2Ev:0000000000000000 _ZN10ForkThreadD1Ev
     /tmp/ccTuhaHZ.s:699    .text._ZN10ForkThreadD0Ev:0000000000000000 _ZN10ForkThreadD0Ev
     /tmp/ccTuhaHZ.s:702    .text._ZN10ForkThreadD0Ev:0000000000000000 .L0 
     /tmp/ccTuhaHZ.s:704    .text._ZN10ForkThreadD0Ev:0000000000000000 .L0 
     /tmp/ccTuhaHZ.s:705    .text._ZN10ForkThreadD0Ev:0000000000000004 .L0 
     /tmp/ccTuhaHZ.s:709    .text._ZN10ForkThreadD0Ev:0000000000000010 .L0 
     /tmp/ccTuhaHZ.s:710    .text._ZN10ForkThreadD0Ev:0000000000000010 .L0 
     /tmp/ccTuhaHZ.s:711    .text._ZN10ForkThreadD0Ev:0000000000000010 .L0 
     /tmp/ccTuhaHZ.s:713    .text._ZN10ForkThreadD0Ev:0000000000000014 .L0 
     /tmp/ccTuhaHZ.s:719    .text._ZN10ForkThreadD0Ev:0000000000000018 .L0 
     /tmp/ccTuhaHZ.s:729    .text._ZN10ForkThreadD0Ev:000000000000003c .L0 
     /tmp/ccTuhaHZ.s:731    .text._ZN10ForkThreadD0Ev:0000000000000040 .L0 
     /tmp/ccTuhaHZ.s:732    .text._ZN10ForkThreadD0Ev:0000000000000040 .L0 
     /tmp/ccTuhaHZ.s:734    .text._ZN10ForkThreadD0Ev:0000000000000044 .L0 
     /tmp/ccTuhaHZ.s:737    .text._ZN10ForkThreadD0Ev:0000000000000048 .L0 
     /tmp/ccTuhaHZ.s:739    .text._ZN10ForkThreadD0Ev:000000000000004c .L0 
     /tmp/ccTuhaHZ.s:746    .text._ZN19ConsumerProducerCPP16ProducerKeyborad3runEv:0000000000000000 _ZN19ConsumerProducerCPP16ProducerKeyborad3runEv
     /tmp/ccTuhaHZ.s:749    .text._ZN19ConsumerProducerCPP16ProducerKeyborad3runEv:0000000000000000 .L0 
     /tmp/ccTuhaHZ.s:751    .text._ZN19ConsumerProducerCPP16ProducerKeyborad3runEv:0000000000000000 .L0 
     /tmp/ccTuhaHZ.s:752    .text._ZN19ConsumerProducerCPP16ProducerKeyborad3runEv:0000000000000004 .L0 
     /tmp/ccTuhaHZ.s:756    .text._ZN19ConsumerProducerCPP16ProducerKeyborad3runEv:0000000000000010 .L0 
     /tmp/ccTuhaHZ.s:757    .text._ZN19ConsumerProducerCPP16ProducerKeyborad3runEv:0000000000000010 .L0 
     /tmp/ccTuhaHZ.s:758    .text._ZN19ConsumerProducerCPP16ProducerKeyborad3runEv:0000000000000010 .L0 
     /tmp/ccTuhaHZ.s:760    .text._ZN19ConsumerProducerCPP16ProducerKeyborad3runEv:0000000000000014 .L0 
     /tmp/ccTuhaHZ.s:763    .text._ZN19ConsumerProducerCPP16ProducerKeyborad3runEv:0000000000000018 .L0 
     /tmp/ccTuhaHZ.s:766    .text._ZN19ConsumerProducerCPP16ProducerKeyborad3runEv:0000000000000018 .L0 
     /tmp/ccTuhaHZ.s:767    .text._ZN19ConsumerProducerCPP16ProducerKeyborad3runEv:0000000000000018 .L0 
     /tmp/ccTuhaHZ.s:768    .text._ZN19ConsumerProducerCPP16ProducerKeyborad3runEv:0000000000000018 .L0 
     /tmp/ccTuhaHZ.s:769    .text._ZN19ConsumerProducerCPP16ProducerKeyborad3runEv:0000000000000018 .L0 
     /tmp/ccTuhaHZ.s:772    .text._ZN19ConsumerProducerCPP16ProducerKeyborad3runEv:0000000000000020 .L0 
     /tmp/ccTuhaHZ.s:775    .text._ZN19ConsumerProducerCPP16ProducerKeyborad3runEv:0000000000000024 .L0 
     /tmp/ccTuhaHZ.s:778    .text._ZN19ConsumerProducerCPP16ProducerKeyborad3runEv:000000000000002c .L0 
     /tmp/ccTuhaHZ.s:780    .text._ZN19ConsumerProducerCPP16ProducerKeyborad3runEv:0000000000000030 .L0 
     /tmp/ccTuhaHZ.s:784    .text._ZN19ConsumerProducerCPP16ProducerKeyborad3runEv:000000000000003c .L0 
     /tmp/ccTuhaHZ.s:785    .text._ZN19ConsumerProducerCPP16ProducerKeyborad3runEv:000000000000003c .L0 
     /tmp/ccTuhaHZ.s:789    .text._ZN19ConsumerProducerCPP16ProducerKeyborad3runEv:0000000000000040 .L0 
     /tmp/ccTuhaHZ.s:790    .text._ZN19ConsumerProducerCPP16ProducerKeyborad3runEv:0000000000000040 .L0 
     /tmp/ccTuhaHZ.s:793    .text._ZN19ConsumerProducerCPP16ProducerKeyborad3runEv:000000000000004c .L0 
     /tmp/ccTuhaHZ.s:795    .text._ZN19ConsumerProducerCPP16ProducerKeyborad3runEv:0000000000000050 .L0 
     /tmp/ccTuhaHZ.s:802    .text._ZN19ConsumerProducerCPP16ProducerKeyborad3runEv:0000000000000060 .L0 
     /tmp/ccTuhaHZ.s:804    .text._ZN19ConsumerProducerCPP16ProducerKeyborad3runEv:0000000000000064 .L0 
     /tmp/ccTuhaHZ.s:808    .text._ZN19ConsumerProducerCPP16ProducerKeyborad3runEv:0000000000000070 .L0 
     /tmp/ccTuhaHZ.s:809    .text._ZN19ConsumerProducerCPP16ProducerKeyborad3runEv:0000000000000074 .L0 
     /tmp/ccTuhaHZ.s:811    .text._ZN19ConsumerProducerCPP16ProducerKeyborad3runEv:0000000000000078 .L0 
     /tmp/ccTuhaHZ.s:812    .text._ZN19ConsumerProducerCPP16ProducerKeyborad3runEv:0000000000000078 .L0 
     /tmp/ccTuhaHZ.s:814    .text._ZN19ConsumerProducerCPP16ProducerKeyborad3runEv:000000000000007c .L0 
     /tmp/ccTuhaHZ.s:817    .text._ZN19ConsumerProducerCPP16ProducerKeyborad3runEv:0000000000000080 .L0 
     /tmp/ccTuhaHZ.s:819    .text._ZN19ConsumerProducerCPP16ProducerKeyborad3runEv:0000000000000084 .L0 
     /tmp/ccTuhaHZ.s:826    .text._ZN19ConsumerProducerCPP8Producer3runEv:0000000000000000 _ZN19ConsumerProducerCPP8Producer3runEv
     /tmp/ccTuhaHZ.s:829    .text._ZN19ConsumerProducerCPP8Producer3runEv:0000000000000000 .L0 
GAS LISTING /tmp/ccTuhaHZ.s 			page 71


     /tmp/ccTuhaHZ.s:831    .text._ZN19ConsumerProducerCPP8Producer3runEv:0000000000000000 .L0 
     /tmp/ccTuhaHZ.s:832    .text._ZN19ConsumerProducerCPP8Producer3runEv:0000000000000004 .L0 
     /tmp/ccTuhaHZ.s:837    .text._ZN19ConsumerProducerCPP8Producer3runEv:0000000000000014 .L0 
     /tmp/ccTuhaHZ.s:838    .text._ZN19ConsumerProducerCPP8Producer3runEv:0000000000000014 .L0 
     /tmp/ccTuhaHZ.s:839    .text._ZN19ConsumerProducerCPP8Producer3runEv:0000000000000014 .L0 
     /tmp/ccTuhaHZ.s:840    .text._ZN19ConsumerProducerCPP8Producer3runEv:0000000000000014 .L0 
     /tmp/ccTuhaHZ.s:842    .text._ZN19ConsumerProducerCPP8Producer3runEv:0000000000000018 .L0 
     /tmp/ccTuhaHZ.s:846    .text._ZN19ConsumerProducerCPP8Producer3runEv:000000000000001c .L0 
     /tmp/ccTuhaHZ.s:847    .text._ZN19ConsumerProducerCPP8Producer3runEv:000000000000001c .L0 
     /tmp/ccTuhaHZ.s:851    .text._ZN19ConsumerProducerCPP8Producer3runEv:0000000000000020 .L0 
     /tmp/ccTuhaHZ.s:852    .text._ZN19ConsumerProducerCPP8Producer3runEv:0000000000000020 .L0 
     /tmp/ccTuhaHZ.s:855    .text._ZN19ConsumerProducerCPP8Producer3runEv:000000000000002c .L0 
     /tmp/ccTuhaHZ.s:857    .text._ZN19ConsumerProducerCPP8Producer3runEv:0000000000000030 .L0 
     /tmp/ccTuhaHZ.s:859    .text._ZN19ConsumerProducerCPP8Producer3runEv:0000000000000034 .L0 
     /tmp/ccTuhaHZ.s:864    .text._ZN19ConsumerProducerCPP8Producer3runEv:0000000000000044 .L0 
     /tmp/ccTuhaHZ.s:865    .text._ZN19ConsumerProducerCPP8Producer3runEv:0000000000000044 .L0 
     /tmp/ccTuhaHZ.s:869    .text._ZN19ConsumerProducerCPP8Producer3runEv:000000000000004c .L0 
     /tmp/ccTuhaHZ.s:870    .text._ZN19ConsumerProducerCPP8Producer3runEv:000000000000004c .L0 
     /tmp/ccTuhaHZ.s:872    .text._ZN19ConsumerProducerCPP8Producer3runEv:0000000000000050 .L0 
     /tmp/ccTuhaHZ.s:874    .text._ZN19ConsumerProducerCPP8Producer3runEv:0000000000000054 .L0 
     /tmp/ccTuhaHZ.s:876    .text._ZN19ConsumerProducerCPP8Producer3runEv:0000000000000058 .L0 
     /tmp/ccTuhaHZ.s:881    .text._ZN19ConsumerProducerCPP8Producer3runEv:0000000000000068 .L0 
     /tmp/ccTuhaHZ.s:884    .text._ZN19ConsumerProducerCPP8Producer3runEv:000000000000006c .L0 
     /tmp/ccTuhaHZ.s:886    .text._ZN19ConsumerProducerCPP8Producer3runEv:0000000000000070 .L0 
     /tmp/ccTuhaHZ.s:890    .text._ZN19ConsumerProducerCPP8Producer3runEv:000000000000007c .L0 
     /tmp/ccTuhaHZ.s:891    .text._ZN19ConsumerProducerCPP8Producer3runEv:0000000000000080 .L0 
     /tmp/ccTuhaHZ.s:893    .text._ZN19ConsumerProducerCPP8Producer3runEv:0000000000000084 .L0 
     /tmp/ccTuhaHZ.s:894    .text._ZN19ConsumerProducerCPP8Producer3runEv:0000000000000084 .L0 
     /tmp/ccTuhaHZ.s:896    .text._ZN19ConsumerProducerCPP8Producer3runEv:0000000000000088 .L0 
     /tmp/ccTuhaHZ.s:899    .text._ZN19ConsumerProducerCPP8Producer3runEv:000000000000008c .L0 
     /tmp/ccTuhaHZ.s:902    .text._ZN19ConsumerProducerCPP8Producer3runEv:0000000000000090 .L0 
     /tmp/ccTuhaHZ.s:904    .text._ZN19ConsumerProducerCPP8Producer3runEv:0000000000000094 .L0 
     /tmp/ccTuhaHZ.s:918    .text._ZN10ForkThread3runEv:0000000000000000 _ZN10ForkThread3runEv
     /tmp/ccTuhaHZ.s:921    .text._ZN10ForkThread3runEv:0000000000000000 .L0 
     /tmp/ccTuhaHZ.s:8948   .data.rel.local.DW.ref.__gxx_personality_v0:0000000000000000 DW.ref.__gxx_personality_v0
     /tmp/ccTuhaHZ.s:925    .text._ZN10ForkThread3runEv:0000000000000000 .L0 
     /tmp/ccTuhaHZ.s:926    .text._ZN10ForkThread3runEv:0000000000000004 .L0 
     /tmp/ccTuhaHZ.s:935    .text._ZN10ForkThread3runEv:0000000000000024 .L0 
     /tmp/ccTuhaHZ.s:936    .text._ZN10ForkThread3runEv:0000000000000024 .L0 
     /tmp/ccTuhaHZ.s:937    .text._ZN10ForkThread3runEv:0000000000000024 .L0 
     /tmp/ccTuhaHZ.s:938    .text._ZN10ForkThread3runEv:0000000000000024 .L0 
     /tmp/ccTuhaHZ.s:939    .text._ZN10ForkThread3runEv:0000000000000024 .L0 
     /tmp/ccTuhaHZ.s:940    .text._ZN10ForkThread3runEv:0000000000000024 .L0 
     /tmp/ccTuhaHZ.s:941    .text._ZN10ForkThread3runEv:0000000000000024 .L0 
     /tmp/ccTuhaHZ.s:942    .text._ZN10ForkThread3runEv:0000000000000024 .L0 
     /tmp/ccTuhaHZ.s:944    .text._ZN10ForkThread3runEv:0000000000000028 .L0 
     /tmp/ccTuhaHZ.s:947    .text._ZN10ForkThread3runEv:000000000000002c .L0 
     /tmp/ccTuhaHZ.s:948    .text._ZN10ForkThread3runEv:000000000000002c .L0 
     /tmp/ccTuhaHZ.s:954    .text._ZN10ForkThread3runEv:000000000000003c .L0 
     /tmp/ccTuhaHZ.s:955    .text._ZN10ForkThread3runEv:000000000000003c .L0 
     /tmp/ccTuhaHZ.s:961    .text._ZN10ForkThread3runEv:0000000000000050 .L0 
     /tmp/ccTuhaHZ.s:962    .text._ZN10ForkThread3runEv:0000000000000050 .L0 
     /tmp/ccTuhaHZ.s:966    .text._ZN10ForkThread3runEv:0000000000000060 .L0 
     /tmp/ccTuhaHZ.s:967    .text._ZN10ForkThread3runEv:0000000000000060 .L0 
     /tmp/ccTuhaHZ.s:974    .text._ZN10ForkThread3runEv:0000000000000074 .L0 
     /tmp/ccTuhaHZ.s:976    .text._ZN10ForkThread3runEv:0000000000000078 .L0 
     /tmp/ccTuhaHZ.s:981    .text._ZN10ForkThread3runEv:000000000000007c .L0 
GAS LISTING /tmp/ccTuhaHZ.s 			page 72


     /tmp/ccTuhaHZ.s:992    .text._ZN10ForkThread3runEv:0000000000000098 .L0 
     /tmp/ccTuhaHZ.s:993    .text._ZN10ForkThread3runEv:0000000000000098 .L0 
     /tmp/ccTuhaHZ.s:995    .text._ZN10ForkThread3runEv:000000000000009c .L0 
     /tmp/ccTuhaHZ.s:1003   .text._ZN10ForkThread3runEv:00000000000000ac .L0 
     /tmp/ccTuhaHZ.s:1007   .text._ZN10ForkThread3runEv:00000000000000b0 .L0 
     /tmp/ccTuhaHZ.s:1012   .text._ZN10ForkThread3runEv:00000000000000b8 .L0 
     /tmp/ccTuhaHZ.s:1015   .text._ZN10ForkThread3runEv:00000000000000c0 .L0 
     /tmp/ccTuhaHZ.s:1017   .text._ZN10ForkThread3runEv:00000000000000c4 .L0 
     /tmp/ccTuhaHZ.s:1021   .text._ZN10ForkThread3runEv:00000000000000c8 .L0 
     /tmp/ccTuhaHZ.s:1022   .text._ZN10ForkThread3runEv:00000000000000c8 .L0 
     /tmp/ccTuhaHZ.s:1024   .text._ZN10ForkThread3runEv:00000000000000cc .L0 
     /tmp/ccTuhaHZ.s:1026   .text._ZN10ForkThread3runEv:00000000000000d0 .L0 
     /tmp/ccTuhaHZ.s:1027   .text._ZN10ForkThread3runEv:00000000000000d0 .L0 
     /tmp/ccTuhaHZ.s:1034   .text._ZN10ForkThread3runEv:00000000000000e4 .L0 
     /tmp/ccTuhaHZ.s:1039   .text._ZN10ForkThread3runEv:00000000000000e8 .L0 
     /tmp/ccTuhaHZ.s:1053   .text._ZN10ForkThread3runEv:0000000000000108 .L0 
     /tmp/ccTuhaHZ.s:1057   .text._ZN10ForkThread3runEv:000000000000010c .L0 
     /tmp/ccTuhaHZ.s:1058   .text._ZN10ForkThread3runEv:000000000000010c .L0 
     /tmp/ccTuhaHZ.s:1065   .text._ZN10ForkThread3runEv:000000000000011c .L0 
     /tmp/ccTuhaHZ.s:1069   .text._ZN10ForkThread3runEv:0000000000000120 .L0 
     /tmp/ccTuhaHZ.s:1075   .text._ZN10ForkThread3runEv:0000000000000128 .L0 
     /tmp/ccTuhaHZ.s:1076   .text._ZN10ForkThread3runEv:0000000000000128 .L0 
     /tmp/ccTuhaHZ.s:1080   .text._ZN10ForkThread3runEv:0000000000000130 .L0 
     /tmp/ccTuhaHZ.s:1084   .text._ZN10ForkThread3runEv:0000000000000134 .L0 
     /tmp/ccTuhaHZ.s:1090   .text._ZN10ForkThread3runEv:0000000000000140 .L0 
     /tmp/ccTuhaHZ.s:1094   .text._ZN10ForkThread3runEv:0000000000000144 .L0 
     /tmp/ccTuhaHZ.s:1098   .text._ZN10ForkThread3runEv:0000000000000150 .L0 
     /tmp/ccTuhaHZ.s:1106   .text._ZN10ForkThread3runEv:0000000000000158 .L0 
     /tmp/ccTuhaHZ.s:1110   .text._ZN10ForkThread3runEv:0000000000000158 .L0 
     /tmp/ccTuhaHZ.s:1111   .text._ZN10ForkThread3runEv:0000000000000158 .L0 
     /tmp/ccTuhaHZ.s:1112   .text._ZN10ForkThread3runEv:0000000000000158 .L0 
     /tmp/ccTuhaHZ.s:1117   .text._ZN10ForkThread3runEv:000000000000015c .L0 
     /tmp/ccTuhaHZ.s:1119   .text._ZN10ForkThread3runEv:0000000000000160 .L0 
     /tmp/ccTuhaHZ.s:1120   .text._ZN10ForkThread3runEv:0000000000000160 .L0 
     /tmp/ccTuhaHZ.s:1123   .text._ZN10ForkThread3runEv:0000000000000168 .L0 
     /tmp/ccTuhaHZ.s:1129   .text._ZN10ForkThread3runEv:000000000000016c .L0 
     /tmp/ccTuhaHZ.s:1130   .text._ZN10ForkThread3runEv:000000000000016c .L0 
     /tmp/ccTuhaHZ.s:1142   .text._ZN10ForkThread3runEv:000000000000017c .L0 
     /tmp/ccTuhaHZ.s:1155   .text._ZN10ForkThread3runEv:0000000000000184 .L0 
     /tmp/ccTuhaHZ.s:1159   .text._ZN10ForkThread3runEv:0000000000000188 .L0 
     /tmp/ccTuhaHZ.s:1160   .text._ZN10ForkThread3runEv:0000000000000188 .L0 
     /tmp/ccTuhaHZ.s:1162   .text._ZN10ForkThread3runEv:000000000000018c .L0 
     /tmp/ccTuhaHZ.s:1164   .text._ZN10ForkThread3runEv:0000000000000190 .L0 
     /tmp/ccTuhaHZ.s:1165   .text._ZN10ForkThread3runEv:0000000000000190 .L0 
     /tmp/ccTuhaHZ.s:1169   .text._ZN10ForkThread3runEv:000000000000019c .L0 
     /tmp/ccTuhaHZ.s:1171   .text._ZN10ForkThread3runEv:00000000000001a0 .L0 
     /tmp/ccTuhaHZ.s:1179   .text._ZN10ForkThread3runEv:00000000000001b0 .L0 
     /tmp/ccTuhaHZ.s:1180   .text._ZN10ForkThread3runEv:00000000000001b0 .L0 
     /tmp/ccTuhaHZ.s:1187   .text._ZN10ForkThread3runEv:00000000000001bc .L0 
     /tmp/ccTuhaHZ.s:1188   .text._ZN10ForkThread3runEv:00000000000001bc .L0 
     /tmp/ccTuhaHZ.s:1192   .text._ZN10ForkThread3runEv:00000000000001cc .L0 
     /tmp/ccTuhaHZ.s:1193   .text._ZN10ForkThread3runEv:00000000000001cc .L0 
     /tmp/ccTuhaHZ.s:1199   .text._ZN10ForkThread3runEv:00000000000001e0 .L0 
     /tmp/ccTuhaHZ.s:1200   .text._ZN10ForkThread3runEv:00000000000001e0 .L0 
     /tmp/ccTuhaHZ.s:1205   .text._ZN10ForkThread3runEv:00000000000001f0 .L0 
     /tmp/ccTuhaHZ.s:1206   .text._ZN10ForkThread3runEv:00000000000001f0 .L0 
     /tmp/ccTuhaHZ.s:1209   .text._ZN10ForkThread3runEv:00000000000001f8 .L0 
GAS LISTING /tmp/ccTuhaHZ.s 			page 73


     /tmp/ccTuhaHZ.s:1210   .text._ZN10ForkThread3runEv:00000000000001fc .L0 
     /tmp/ccTuhaHZ.s:1212   .text._ZN10ForkThread3runEv:0000000000000200 .L0 
     /tmp/ccTuhaHZ.s:1213   .text._ZN10ForkThread3runEv:0000000000000200 .L0 
     /tmp/ccTuhaHZ.s:1215   .text._ZN10ForkThread3runEv:0000000000000204 .L0 
     /tmp/ccTuhaHZ.s:1217   .text._ZN10ForkThread3runEv:0000000000000208 .L0 
     /tmp/ccTuhaHZ.s:1219   .text._ZN10ForkThread3runEv:000000000000020c .L0 
     /tmp/ccTuhaHZ.s:1222   .text._ZN10ForkThread3runEv:0000000000000210 .L0 
     /tmp/ccTuhaHZ.s:1225   .text._ZN10ForkThread3runEv:0000000000000214 .L0 
     /tmp/ccTuhaHZ.s:1228   .text._ZN10ForkThread3runEv:0000000000000218 .L0 
     /tmp/ccTuhaHZ.s:1230   .text._ZN10ForkThread3runEv:000000000000021c .L0 
     /tmp/ccTuhaHZ.s:1232   .text._ZN10ForkThread3runEv:0000000000000220 .L0 
     /tmp/ccTuhaHZ.s:1259   .text:00000000000001a0 _Z9fibonaccim
     /tmp/ccTuhaHZ.s:1262   .text:00000000000001a0 .L0 
     /tmp/ccTuhaHZ.s:1264   .text:00000000000001a0 .L0 
     /tmp/ccTuhaHZ.s:1265   .text:00000000000001a4 .L0 
     /tmp/ccTuhaHZ.s:1270   .text:00000000000001b4 .L0 
     /tmp/ccTuhaHZ.s:1271   .text:00000000000001b4 .L0 
     /tmp/ccTuhaHZ.s:1272   .text:00000000000001b4 .L0 
     /tmp/ccTuhaHZ.s:1273   .text:00000000000001b4 .L0 
     /tmp/ccTuhaHZ.s:1275   .text:00000000000001b8 .L0 
     /tmp/ccTuhaHZ.s:1278   .text:00000000000001bc .L0 
     /tmp/ccTuhaHZ.s:1281   .text:00000000000001c4 .L0 
     /tmp/ccTuhaHZ.s:1282   .text:00000000000001c4 .L0 
     /tmp/ccTuhaHZ.s:1285   .text:00000000000001cc .L0 
     /tmp/ccTuhaHZ.s:1289   .text:00000000000001d0 .L0 
     /tmp/ccTuhaHZ.s:1290   .text:00000000000001d0 .L0 
     /tmp/ccTuhaHZ.s:1295   .text:00000000000001e0 .L0 
     /tmp/ccTuhaHZ.s:1299   .text:00000000000001ec .L0 
     /tmp/ccTuhaHZ.s:1302   .text:00000000000001f0 .L0 
     /tmp/ccTuhaHZ.s:1303   .text:00000000000001f4 .L0 
     /tmp/ccTuhaHZ.s:1304   .text:00000000000001f4 .L0 
     /tmp/ccTuhaHZ.s:1306   .text:00000000000001f8 .L0 
     /tmp/ccTuhaHZ.s:1307   .text:00000000000001f8 .L0 
     /tmp/ccTuhaHZ.s:1309   .text:00000000000001fc .L0 
     /tmp/ccTuhaHZ.s:1312   .text:0000000000000200 .L0 
     /tmp/ccTuhaHZ.s:1314   .text:0000000000000204 .L0 
     /tmp/ccTuhaHZ.s:1318   .text:0000000000000208 .L0 
     /tmp/ccTuhaHZ.s:1320   .text:0000000000000208 .L0 
     /tmp/ccTuhaHZ.s:1321   .text:0000000000000208 .L0 
     /tmp/ccTuhaHZ.s:1324   .text:0000000000000214 .L0 
     /tmp/ccTuhaHZ.s:1344   .text:0000000000000214 _Z11workerBodyCPv
     /tmp/ccTuhaHZ.s:1347   .text:0000000000000214 .L0 
     /tmp/ccTuhaHZ.s:1349   .text:0000000000000214 .L0 
     /tmp/ccTuhaHZ.s:1350   .text:0000000000000218 .L0 
     /tmp/ccTuhaHZ.s:1355   .text:0000000000000228 .L0 
     /tmp/ccTuhaHZ.s:1356   .text:0000000000000228 .L0 
     /tmp/ccTuhaHZ.s:1357   .text:0000000000000228 .L0 
     /tmp/ccTuhaHZ.s:1358   .text:0000000000000228 .L0 
     /tmp/ccTuhaHZ.s:1360   .text:000000000000022c .L0 
     /tmp/ccTuhaHZ.s:1363   .text:000000000000022c .L0 
     /tmp/ccTuhaHZ.s:1364   .text:000000000000022c .L0 
     /tmp/ccTuhaHZ.s:1369   .text:0000000000000234 .L0 
     /tmp/ccTuhaHZ.s:1370   .text:0000000000000234 .L0 
     /tmp/ccTuhaHZ.s:1374   .text:0000000000000244 .L0 
     /tmp/ccTuhaHZ.s:1375   .text:0000000000000244 .L0 
     /tmp/ccTuhaHZ.s:1381   .text:0000000000000258 .L0 
     /tmp/ccTuhaHZ.s:1382   .text:0000000000000258 .L0 
GAS LISTING /tmp/ccTuhaHZ.s 			page 74


     /tmp/ccTuhaHZ.s:1386   .text:0000000000000268 .L0 
     /tmp/ccTuhaHZ.s:1392   .text:0000000000000270 .L0 
     /tmp/ccTuhaHZ.s:1393   .text:0000000000000270 .L0 
     /tmp/ccTuhaHZ.s:1396   .text:0000000000000278 .L0 
     /tmp/ccTuhaHZ.s:1397   .text:0000000000000278 .L0 
     /tmp/ccTuhaHZ.s:1401   .text:0000000000000288 .L0 
src/user/tests/Threads_C_API_test.hpp:51     .text:0000000000000288 .L0 
     /tmp/ccTuhaHZ.s:1407   .text:000000000000028c .L0 
     /tmp/ccTuhaHZ.s:1409   .text:000000000000028c .L0 
     /tmp/ccTuhaHZ.s:1412   .text:0000000000000294 .L0 
     /tmp/ccTuhaHZ.s:1413   .text:0000000000000294 .L0 
src/user/tests/Threads_C_API_test.hpp:55     .text:0000000000000294 .L0 
     /tmp/ccTuhaHZ.s:1420   .text:0000000000000298 .L0 
     /tmp/ccTuhaHZ.s:1422   .text:0000000000000298 .L0 
     /tmp/ccTuhaHZ.s:1426   .text:00000000000002a8 .L0 
     /tmp/ccTuhaHZ.s:1427   .text:00000000000002a8 .L0 
     /tmp/ccTuhaHZ.s:1433   .text:00000000000002bc .L0 
     /tmp/ccTuhaHZ.s:1434   .text:00000000000002bc .L0 
     /tmp/ccTuhaHZ.s:1438   .text:00000000000002cc .L0 
     /tmp/ccTuhaHZ.s:1439   .text:00000000000002cc .L0 
     /tmp/ccTuhaHZ.s:1445   .text:00000000000002dc .L0 
     /tmp/ccTuhaHZ.s:1446   .text:00000000000002dc .L0 
     /tmp/ccTuhaHZ.s:1451   .text:00000000000002ec .L0 
     /tmp/ccTuhaHZ.s:1452   .text:00000000000002ec .L0 
     /tmp/ccTuhaHZ.s:1458   .text:0000000000000300 .L0 
     /tmp/ccTuhaHZ.s:1459   .text:0000000000000300 .L0 
     /tmp/ccTuhaHZ.s:1465   .text:0000000000000314 .L0 
     /tmp/ccTuhaHZ.s:1466   .text:0000000000000314 .L0 
     /tmp/ccTuhaHZ.s:1470   .text:0000000000000324 .L0 
     /tmp/ccTuhaHZ.s:1471   .text:0000000000000324 .L0 
     /tmp/ccTuhaHZ.s:1477   .text:0000000000000338 .L0 
     /tmp/ccTuhaHZ.s:1478   .text:0000000000000338 .L0 
     /tmp/ccTuhaHZ.s:1482   .text:0000000000000348 .L0 
     /tmp/ccTuhaHZ.s:1488   .text:0000000000000350 .L0 
     /tmp/ccTuhaHZ.s:1489   .text:0000000000000350 .L0 
     /tmp/ccTuhaHZ.s:1492   .text:0000000000000358 .L0 
     /tmp/ccTuhaHZ.s:1493   .text:0000000000000358 .L0 
     /tmp/ccTuhaHZ.s:1497   .text:0000000000000368 .L0 
     /tmp/ccTuhaHZ.s:1498   .text:0000000000000368 .L0 
     /tmp/ccTuhaHZ.s:1501   .text:0000000000000374 .L0 
     /tmp/ccTuhaHZ.s:1502   .text:0000000000000374 .L0 
     /tmp/ccTuhaHZ.s:1505   .text:000000000000037c .L0 
     /tmp/ccTuhaHZ.s:1506   .text:0000000000000380 .L0 
     /tmp/ccTuhaHZ.s:1508   .text:0000000000000384 .L0 
     /tmp/ccTuhaHZ.s:1509   .text:0000000000000384 .L0 
     /tmp/ccTuhaHZ.s:1511   .text:0000000000000388 .L0 
     /tmp/ccTuhaHZ.s:1514   .text:000000000000038c .L0 
     /tmp/ccTuhaHZ.s:1517   .text:0000000000000390 .L0 
     /tmp/ccTuhaHZ.s:1519   .text:0000000000000394 .L0 
     /tmp/ccTuhaHZ.s:1539   .text:0000000000000394 _Z11workerBodyDPv
     /tmp/ccTuhaHZ.s:1542   .text:0000000000000394 .L0 
     /tmp/ccTuhaHZ.s:1544   .text:0000000000000394 .L0 
     /tmp/ccTuhaHZ.s:1545   .text:0000000000000398 .L0 
     /tmp/ccTuhaHZ.s:1550   .text:00000000000003a8 .L0 
     /tmp/ccTuhaHZ.s:1551   .text:00000000000003a8 .L0 
     /tmp/ccTuhaHZ.s:1552   .text:00000000000003a8 .L0 
     /tmp/ccTuhaHZ.s:1553   .text:00000000000003a8 .L0 
GAS LISTING /tmp/ccTuhaHZ.s 			page 75


     /tmp/ccTuhaHZ.s:1555   .text:00000000000003ac .L0 
     /tmp/ccTuhaHZ.s:1558   .text:00000000000003ac .L0 
     /tmp/ccTuhaHZ.s:1559   .text:00000000000003ac .L0 
     /tmp/ccTuhaHZ.s:1564   .text:00000000000003b4 .L0 
     /tmp/ccTuhaHZ.s:1565   .text:00000000000003b4 .L0 
     /tmp/ccTuhaHZ.s:1569   .text:00000000000003c4 .L0 
     /tmp/ccTuhaHZ.s:1570   .text:00000000000003c4 .L0 
     /tmp/ccTuhaHZ.s:1576   .text:00000000000003d8 .L0 
     /tmp/ccTuhaHZ.s:1577   .text:00000000000003d8 .L0 
     /tmp/ccTuhaHZ.s:1581   .text:00000000000003e8 .L0 
     /tmp/ccTuhaHZ.s:1587   .text:00000000000003f0 .L0 
     /tmp/ccTuhaHZ.s:1588   .text:00000000000003f0 .L0 
     /tmp/ccTuhaHZ.s:1591   .text:00000000000003f8 .L0 
     /tmp/ccTuhaHZ.s:1592   .text:00000000000003f8 .L0 
     /tmp/ccTuhaHZ.s:1596   .text:0000000000000408 .L0 
src/user/tests/Threads_C_API_test.hpp:78     .text:0000000000000408 .L0 
     /tmp/ccTuhaHZ.s:1602   .text:000000000000040c .L0 
     /tmp/ccTuhaHZ.s:1604   .text:000000000000040c .L0 
     /tmp/ccTuhaHZ.s:1607   .text:0000000000000414 .L0 
     /tmp/ccTuhaHZ.s:1608   .text:0000000000000414 .L0 
     /tmp/ccTuhaHZ.s:1614   .text:0000000000000424 .L0 
     /tmp/ccTuhaHZ.s:1615   .text:0000000000000424 .L0 
     /tmp/ccTuhaHZ.s:1620   .text:0000000000000434 .L0 
     /tmp/ccTuhaHZ.s:1621   .text:0000000000000434 .L0 
     /tmp/ccTuhaHZ.s:1627   .text:0000000000000448 .L0 
     /tmp/ccTuhaHZ.s:1628   .text:0000000000000448 .L0 
     /tmp/ccTuhaHZ.s:1634   .text:000000000000045c .L0 
     /tmp/ccTuhaHZ.s:1635   .text:000000000000045c .L0 
     /tmp/ccTuhaHZ.s:1639   .text:000000000000046c .L0 
     /tmp/ccTuhaHZ.s:1640   .text:000000000000046c .L0 
     /tmp/ccTuhaHZ.s:1646   .text:0000000000000480 .L0 
     /tmp/ccTuhaHZ.s:1647   .text:0000000000000480 .L0 
     /tmp/ccTuhaHZ.s:1651   .text:0000000000000490 .L0 
     /tmp/ccTuhaHZ.s:1657   .text:0000000000000498 .L0 
     /tmp/ccTuhaHZ.s:1658   .text:0000000000000498 .L0 
     /tmp/ccTuhaHZ.s:1661   .text:00000000000004a0 .L0 
     /tmp/ccTuhaHZ.s:1662   .text:00000000000004a0 .L0 
     /tmp/ccTuhaHZ.s:1666   .text:00000000000004b0 .L0 
     /tmp/ccTuhaHZ.s:1667   .text:00000000000004b0 .L0 
     /tmp/ccTuhaHZ.s:1670   .text:00000000000004bc .L0 
     /tmp/ccTuhaHZ.s:1671   .text:00000000000004bc .L0 
     /tmp/ccTuhaHZ.s:1674   .text:00000000000004c4 .L0 
     /tmp/ccTuhaHZ.s:1675   .text:00000000000004c8 .L0 
     /tmp/ccTuhaHZ.s:1677   .text:00000000000004cc .L0 
     /tmp/ccTuhaHZ.s:1678   .text:00000000000004cc .L0 
     /tmp/ccTuhaHZ.s:1680   .text:00000000000004d0 .L0 
     /tmp/ccTuhaHZ.s:1683   .text:00000000000004d4 .L0 
     /tmp/ccTuhaHZ.s:1686   .text:00000000000004d8 .L0 
     /tmp/ccTuhaHZ.s:1688   .text:00000000000004dc .L0 
     /tmp/ccTuhaHZ.s:1708   .text:00000000000004dc _Z18Threads_C_API_testv
     /tmp/ccTuhaHZ.s:1711   .text:00000000000004dc .L0 
     /tmp/ccTuhaHZ.s:1712   .text:00000000000004dc .L0 
     /tmp/ccTuhaHZ.s:1713   .text:00000000000004e0 .L0 
     /tmp/ccTuhaHZ.s:1717   .text:00000000000004ec .L0 
     /tmp/ccTuhaHZ.s:1718   .text:00000000000004ec .L0 
     /tmp/ccTuhaHZ.s:1719   .text:00000000000004ec .L0 
     /tmp/ccTuhaHZ.s:1721   .text:00000000000004f0 .L0 
GAS LISTING /tmp/ccTuhaHZ.s 			page 76


     /tmp/ccTuhaHZ.s:1723   .text:00000000000004f0 .L0 
     /tmp/ccTuhaHZ.s:1724   .text:00000000000004f0 .L0 
     /tmp/ccTuhaHZ.s:1725   .text:00000000000004f0 .L0 
     /tmp/ccTuhaHZ.s:1731   .text:0000000000000508 .L0 
     /tmp/ccTuhaHZ.s:1732   .text:0000000000000508 .L0 
     /tmp/ccTuhaHZ.s:1736   .text:0000000000000518 .L0 
     /tmp/ccTuhaHZ.s:1737   .text:0000000000000518 .L0 
     /tmp/ccTuhaHZ.s:1743   .text:0000000000000530 .L0 
     /tmp/ccTuhaHZ.s:1744   .text:0000000000000530 .L0 
     /tmp/ccTuhaHZ.s:1748   .text:0000000000000540 .L0 
     /tmp/ccTuhaHZ.s:1749   .text:0000000000000540 .L0 
     /tmp/ccTuhaHZ.s:1755   .text:0000000000000558 .L0 
     /tmp/ccTuhaHZ.s:1756   .text:0000000000000558 .L0 
     /tmp/ccTuhaHZ.s:1760   .text:0000000000000568 .L0 
     /tmp/ccTuhaHZ.s:1761   .text:0000000000000568 .L0 
     /tmp/ccTuhaHZ.s:1767   .text:0000000000000580 .L0 
     /tmp/ccTuhaHZ.s:1768   .text:0000000000000580 .L0 
     /tmp/ccTuhaHZ.s:1774   .text:0000000000000594 .L0 
     /tmp/ccTuhaHZ.s:1775   .text:0000000000000594 .L0 
     /tmp/ccTuhaHZ.s:1779   .text:000000000000059c .L0 
     /tmp/ccTuhaHZ.s:1780   .text:000000000000059c .L0 
     /tmp/ccTuhaHZ.s:1783   .text:00000000000005a8 .L0 
     /tmp/ccTuhaHZ.s:1786   .text:00000000000005b4 .L0 
     /tmp/ccTuhaHZ.s:1789   .text:00000000000005c0 .L0 
     /tmp/ccTuhaHZ.s:1793   .text:00000000000005cc .L0 
     /tmp/ccTuhaHZ.s:1798   .text:00000000000005d4 .L0 
     /tmp/ccTuhaHZ.s:1802   .text:00000000000005d8 .L0 
     /tmp/ccTuhaHZ.s:1806   .text:00000000000005e0 .L0 
     /tmp/ccTuhaHZ.s:1807   .text:00000000000005e0 .L0 
     /tmp/ccTuhaHZ.s:1809   .text:00000000000005e4 .L0 
     /tmp/ccTuhaHZ.s:1811   .text:00000000000005e8 .L0 
     /tmp/ccTuhaHZ.s:1818   .text:00000000000005f4 .L0 
     /tmp/ccTuhaHZ.s:1819   .text:00000000000005f8 .L0 
     /tmp/ccTuhaHZ.s:1821   .text:00000000000005fc .L0 
     /tmp/ccTuhaHZ.s:1822   .text:00000000000005fc .L0 
     /tmp/ccTuhaHZ.s:1824   .text:0000000000000600 .L0 
     /tmp/ccTuhaHZ.s:1827   .text:0000000000000604 .L0 
     /tmp/ccTuhaHZ.s:1829   .text:0000000000000608 .L0 
     /tmp/ccTuhaHZ.s:1858   .text:0000000000000608 _ZN19ConsumerProducerCPP20testConsumerProducerEv
     /tmp/ccTuhaHZ.s:1861   .text:0000000000000608 .L0 
     /tmp/ccTuhaHZ.s:1864   .text:0000000000000608 .L0 
     /tmp/ccTuhaHZ.s:1865   .text:000000000000060c .L0 
     /tmp/ccTuhaHZ.s:1877   .text:0000000000000638 .L0 
     /tmp/ccTuhaHZ.s:1878   .text:0000000000000638 .L0 
     /tmp/ccTuhaHZ.s:1879   .text:0000000000000638 .L0 
     /tmp/ccTuhaHZ.s:1880   .text:0000000000000638 .L0 
     /tmp/ccTuhaHZ.s:1881   .text:0000000000000638 .L0 
     /tmp/ccTuhaHZ.s:1882   .text:0000000000000638 .L0 
     /tmp/ccTuhaHZ.s:1883   .text:0000000000000638 .L0 
     /tmp/ccTuhaHZ.s:1884   .text:0000000000000638 .L0 
     /tmp/ccTuhaHZ.s:1885   .text:0000000000000638 .L0 
     /tmp/ccTuhaHZ.s:1886   .text:0000000000000638 .L0 
     /tmp/ccTuhaHZ.s:1887   .text:0000000000000638 .L0 
     /tmp/ccTuhaHZ.s:1889   .text:000000000000063c .L0 
     /tmp/ccTuhaHZ.s:1891   .text:000000000000063c .L0 
     /tmp/ccTuhaHZ.s:1893   .text:0000000000000640 .L0 
     /tmp/ccTuhaHZ.s:1894   .text:0000000000000640 .L0 
GAS LISTING /tmp/ccTuhaHZ.s 			page 77


     /tmp/ccTuhaHZ.s:1895   .text:0000000000000640 .L0 
     /tmp/ccTuhaHZ.s:1896   .text:0000000000000640 .L0 
     /tmp/ccTuhaHZ.s:1901   .text:0000000000000650 .L0 
     /tmp/ccTuhaHZ.s:1902   .text:0000000000000650 .L0 
     /tmp/ccTuhaHZ.s:1908   .text:0000000000000664 .L0 
     /tmp/ccTuhaHZ.s:1909   .text:0000000000000664 .L0 
     /tmp/ccTuhaHZ.s:1915   .text:0000000000000674 .L0 
     /tmp/ccTuhaHZ.s:1916   .text:0000000000000674 .L0 
     /tmp/ccTuhaHZ.s:1920   .text:0000000000000684 .L0 
     /tmp/ccTuhaHZ.s:1921   .text:0000000000000684 .L0 
     /tmp/ccTuhaHZ.s:1926   .text:0000000000000694 .L0 
     /tmp/ccTuhaHZ.s:1927   .text:0000000000000694 .L0 
     /tmp/ccTuhaHZ.s:1933   .text:00000000000006a4 .L0 
     /tmp/ccTuhaHZ.s:1934   .text:00000000000006a4 .L0 
     /tmp/ccTuhaHZ.s:1938   .text:00000000000006b4 .L0 
     /tmp/ccTuhaHZ.s:1939   .text:00000000000006b4 .L0 
     /tmp/ccTuhaHZ.s:1945   .text:00000000000006c8 .L0 
     /tmp/ccTuhaHZ.s:1946   .text:00000000000006c8 .L0 
     /tmp/ccTuhaHZ.s:1950   .text:00000000000006d8 .L0 
     /tmp/ccTuhaHZ.s:1951   .text:00000000000006d8 .L0 
     /tmp/ccTuhaHZ.s:1957   .text:00000000000006ec .L0 
     /tmp/ccTuhaHZ.s:1958   .text:00000000000006ec .L0 
     /tmp/ccTuhaHZ.s:1962   .text:00000000000006fc .L0 
     /tmp/ccTuhaHZ.s:1964   .text:0000000000000700 .L0 
     /tmp/ccTuhaHZ.s:1966   .text:0000000000000704 .L0 
     /tmp/ccTuhaHZ.s:1967   .text:0000000000000704 .L0 
     /tmp/ccTuhaHZ.s:1974   .text:0000000000000718 .L0 
     /tmp/ccTuhaHZ.s:1982   .text:0000000000000728 .L0 
     /tmp/ccTuhaHZ.s:1983   .text:0000000000000728 .L0 
     /tmp/ccTuhaHZ.s:1988   .text:0000000000000738 .L0 
     /tmp/ccTuhaHZ.s:1991   .text:000000000000073c .L0 
     /tmp/ccTuhaHZ.s:1992   .text:000000000000073c .L0 
     /tmp/ccTuhaHZ.s:1997   .text:000000000000074c .L0 
     /tmp/ccTuhaHZ.s:2002   .text:0000000000000754 .L0 
     /tmp/ccTuhaHZ.s:2003   .text:0000000000000754 .L0 
     /tmp/ccTuhaHZ.s:2011   .text:0000000000000768 .L0 
     /tmp/ccTuhaHZ.s:2018   .text:0000000000000774 .L0 
     /tmp/ccTuhaHZ.s:2022   .text:0000000000000780 .L0 
     /tmp/ccTuhaHZ.s:2023   .text:0000000000000780 .L0 
     /tmp/ccTuhaHZ.s:2030   .text:0000000000000794 .L0 
     /tmp/ccTuhaHZ.s:2031   .text:0000000000000794 .L0 
     /tmp/ccTuhaHZ.s:2034   .text:0000000000000798 .L0 
     /tmp/ccTuhaHZ.s:2044   .text:00000000000007b4 .L0 
     /tmp/ccTuhaHZ.s:2045   .text:00000000000007b4 .L0 
     /tmp/ccTuhaHZ.s:2051   .text:00000000000007c8 .L0 
     /tmp/ccTuhaHZ.s:2052   .text:00000000000007c8 .L0 
     /tmp/ccTuhaHZ.s:2054   .text:00000000000007cc .L0 
     /tmp/ccTuhaHZ.s:2055   .text:00000000000007cc .L0 
     /tmp/ccTuhaHZ.s:2058   .text:00000000000007d4 .L0 
     /tmp/ccTuhaHZ.s:2059   .text:00000000000007d4 .L0 
     /tmp/ccTuhaHZ.s:2067   .text:00000000000007e8 .L0 
     /tmp/ccTuhaHZ.s:2076   .text:00000000000007f8 .L0 
     /tmp/ccTuhaHZ.s:2080   .text:0000000000000800 .L0 
     /tmp/ccTuhaHZ.s:2088   .text:0000000000000810 .L0 
     /tmp/ccTuhaHZ.s:2089   .text:0000000000000810 .L0 
     /tmp/ccTuhaHZ.s:2094   .text:000000000000081c .L0 
     /tmp/ccTuhaHZ.s:2095   .text:000000000000081c .L0 
GAS LISTING /tmp/ccTuhaHZ.s 			page 78


     /tmp/ccTuhaHZ.s:2097   .text:0000000000000820 .L0 
     /tmp/ccTuhaHZ.s:2098   .text:0000000000000820 .L0 
     /tmp/ccTuhaHZ.s:2100   .text:0000000000000824 .L0 
     /tmp/ccTuhaHZ.s:2101   .text:0000000000000824 .L0 
     /tmp/ccTuhaHZ.s:2104   .text:0000000000000830 .L0 
     /tmp/ccTuhaHZ.s:2105   .text:0000000000000830 .L0 
     /tmp/ccTuhaHZ.s:2111   .text:0000000000000840 .L0 
     /tmp/ccTuhaHZ.s:2117   .text:0000000000000844 .L0 
     /tmp/ccTuhaHZ.s:2121   .text:000000000000084c .L0 
     /tmp/ccTuhaHZ.s:2129   .text:000000000000085c .L0 
     /tmp/ccTuhaHZ.s:2131   .text:0000000000000860 .L0 
     /tmp/ccTuhaHZ.s:2132   .text:0000000000000860 .L0 
     /tmp/ccTuhaHZ.s:2138   .text:000000000000086c .L0 
     /tmp/ccTuhaHZ.s:2145   .text:0000000000000874 .L0 
     /tmp/ccTuhaHZ.s:2153   .text:0000000000000884 .L0 
     /tmp/ccTuhaHZ.s:2157   .text:0000000000000890 .L0 
     /tmp/ccTuhaHZ.s:2158   .text:0000000000000890 .L0 
     /tmp/ccTuhaHZ.s:2162   .text:000000000000089c .L0 
     /tmp/ccTuhaHZ.s:2166   .text:00000000000008a0 .L0 
     /tmp/ccTuhaHZ.s:2168   .text:00000000000008a4 .L0 
     /tmp/ccTuhaHZ.s:2169   .text:00000000000008a4 .L0 
     /tmp/ccTuhaHZ.s:2175   .text:00000000000008b8 .L0 
     /tmp/ccTuhaHZ.s:2176   .text:00000000000008b8 .L0 
     /tmp/ccTuhaHZ.s:2178   .text:00000000000008bc .L0 
     /tmp/ccTuhaHZ.s:2179   .text:00000000000008bc .L0 
     /tmp/ccTuhaHZ.s:2182   .text:00000000000008c8 .L0 
     /tmp/ccTuhaHZ.s:2183   .text:00000000000008c8 .L0 
     /tmp/ccTuhaHZ.s:2189   .text:00000000000008d8 .L0 
     /tmp/ccTuhaHZ.s:2191   .text:00000000000008dc .L0 
     /tmp/ccTuhaHZ.s:2200   .text:00000000000008ec .L0 
     /tmp/ccTuhaHZ.s:2211   .text:00000000000008f8 .L0 
     /tmp/ccTuhaHZ.s:2212   .text:00000000000008f8 .L0 
     /tmp/ccTuhaHZ.s:2216   .text:0000000000000900 .L0 
     /tmp/ccTuhaHZ.s:2220   .text:0000000000000904 .L0 
     /tmp/ccTuhaHZ.s:2222   .text:0000000000000908 .L0 
     /tmp/ccTuhaHZ.s:2223   .text:0000000000000908 .L0 
     /tmp/ccTuhaHZ.s:2227   .text:0000000000000918 .L0 
     /tmp/ccTuhaHZ.s:2234   .text:0000000000000920 .L0 
     /tmp/ccTuhaHZ.s:2235   .text:0000000000000920 .L0 
     /tmp/ccTuhaHZ.s:2237   .text:0000000000000928 .L0 
     /tmp/ccTuhaHZ.s:2239   .text:000000000000092c .L0 
     /tmp/ccTuhaHZ.s:2246   .text:0000000000000938 .L0 
     /tmp/ccTuhaHZ.s:2254   .text:0000000000000940 .L0 
     /tmp/ccTuhaHZ.s:2258   .text:0000000000000944 .L0 
     /tmp/ccTuhaHZ.s:2260   .text:0000000000000948 .L0 
     /tmp/ccTuhaHZ.s:2261   .text:0000000000000948 .L0 
     /tmp/ccTuhaHZ.s:2265   .text:0000000000000954 .L0 
     /tmp/ccTuhaHZ.s:2267   .text:0000000000000958 .L0 
     /tmp/ccTuhaHZ.s:2275   .text:0000000000000968 .L0 
     /tmp/ccTuhaHZ.s:2276   .text:0000000000000968 .L0 
     /tmp/ccTuhaHZ.s:2278   .text:000000000000096c .L0 
     /tmp/ccTuhaHZ.s:2285   .text:000000000000097c .L0 
     /tmp/ccTuhaHZ.s:2286   .text:000000000000097c .L0 
     /tmp/ccTuhaHZ.s:2288   .text:0000000000000980 .L0 
     /tmp/ccTuhaHZ.s:2300   .text:000000000000099c .L0 
     /tmp/ccTuhaHZ.s:2301   .text:00000000000009a0 .L0 
     /tmp/ccTuhaHZ.s:2302   .text:00000000000009a0 .L0 
GAS LISTING /tmp/ccTuhaHZ.s 			page 79


     /tmp/ccTuhaHZ.s:2304   .text:00000000000009a4 .L0 
     /tmp/ccTuhaHZ.s:2306   .text:00000000000009a8 .L0 
     /tmp/ccTuhaHZ.s:2308   .text:00000000000009ac .L0 
     /tmp/ccTuhaHZ.s:2310   .text:00000000000009b0 .L0 
     /tmp/ccTuhaHZ.s:2313   .text:00000000000009b4 .L0 
     /tmp/ccTuhaHZ.s:2315   .text:00000000000009b8 .L0 
     /tmp/ccTuhaHZ.s:2317   .text:00000000000009bc .L0 
     /tmp/ccTuhaHZ.s:2319   .text:00000000000009c0 .L0 
     /tmp/ccTuhaHZ.s:2321   .text:00000000000009c4 .L0 
     /tmp/ccTuhaHZ.s:2323   .text:00000000000009c8 .L0 
     /tmp/ccTuhaHZ.s:2325   .text:00000000000009cc .L0 
     /tmp/ccTuhaHZ.s:2327   .text:00000000000009d0 .L0 
     /tmp/ccTuhaHZ.s:2331   .text:00000000000009d4 .L0 
     /tmp/ccTuhaHZ.s:2335   .text:00000000000009d8 .L0 
     /tmp/ccTuhaHZ.s:2347   .text:00000000000009f4 .L0 
     /tmp/ccTuhaHZ.s:2359   .text:0000000000000a10 .L0 
     /tmp/ccTuhaHZ.s:2371   .text:0000000000000a2c .L0 
     /tmp/ccTuhaHZ.s:2384   .text:0000000000000a48 .L0 
     /tmp/ccTuhaHZ.s:2393   .text:0000000000000a60 .L0 
     /tmp/ccTuhaHZ.s:2475   .text:0000000000000a60 _Z8testUserv
     /tmp/ccTuhaHZ.s:2478   .text:0000000000000a60 .L0 
     /tmp/ccTuhaHZ.s:2481   .text:0000000000000a60 .L0 
     /tmp/ccTuhaHZ.s:2482   .text:0000000000000a64 .L0 
     /tmp/ccTuhaHZ.s:2486   .text:0000000000000a70 .L0 
     /tmp/ccTuhaHZ.s:2487   .text:0000000000000a70 .L0 
     /tmp/ccTuhaHZ.s:2488   .text:0000000000000a70 .L0 
     /tmp/ccTuhaHZ.s:2490   .text:0000000000000a74 .L0 
     /tmp/ccTuhaHZ.s:2496   .text:0000000000000a74 .L0 
     /tmp/ccTuhaHZ.s:2497   .text:0000000000000a74 .L0 
     /tmp/ccTuhaHZ.s:2512   .text:0000000000000a9c .L0 
     /tmp/ccTuhaHZ.s:2513   .text:0000000000000a9c .L0 
     /tmp/ccTuhaHZ.s:2519   .text:0000000000000aa8 .L0 
     /tmp/ccTuhaHZ.s:2522   .text:0000000000000aa8 .L0 
     /tmp/ccTuhaHZ.s:2523   .text:0000000000000aa8 .L0 
     /tmp/ccTuhaHZ.s:2524   .text:0000000000000aa8 .L0 
     /tmp/ccTuhaHZ.s:2529   .text:0000000000000aac .L0 
     /tmp/ccTuhaHZ.s:2531   .text:0000000000000ab0 .L0 
     /tmp/ccTuhaHZ.s:2532   .text:0000000000000ab0 .L0 
     /tmp/ccTuhaHZ.s:2537   .text:0000000000000abc .L0 
     /tmp/ccTuhaHZ.s:2538   .text:0000000000000abc .L0 
     /tmp/ccTuhaHZ.s:2545   .text:0000000000000acc .L0 
     /tmp/ccTuhaHZ.s:2553   .text:0000000000000ae4 .L0 
     /tmp/ccTuhaHZ.s:2554   .text:0000000000000ae8 .L0 
     /tmp/ccTuhaHZ.s:2555   .text:0000000000000ae8 .L0 
     /tmp/ccTuhaHZ.s:2557   .text:0000000000000aec .L0 
     /tmp/ccTuhaHZ.s:2558   .text:0000000000000aec .L0 
     /tmp/ccTuhaHZ.s:2560   .text:0000000000000af0 .L0 
     /tmp/ccTuhaHZ.s:2562   .text:0000000000000af4 .L0 
     /tmp/ccTuhaHZ.s:2565   .text:0000000000000af8 .L0 
     /tmp/ccTuhaHZ.s:2571   .text:0000000000000afc .L0 
     /tmp/ccTuhaHZ.s:2584   .text:0000000000000b20 .L0 
     /tmp/ccTuhaHZ.s:2605   .text:0000000000000b20 _Z8userMainv
     /tmp/ccTuhaHZ.s:2609   .text:0000000000000b20 .L0 
     /tmp/ccTuhaHZ.s:2610   .text:0000000000000b20 .L0 
     /tmp/ccTuhaHZ.s:2611   .text:0000000000000b24 .L0 
     /tmp/ccTuhaHZ.s:2614   .text:0000000000000b2c .L0 
     /tmp/ccTuhaHZ.s:2615   .text:0000000000000b2c .L0 
GAS LISTING /tmp/ccTuhaHZ.s 			page 80


     /tmp/ccTuhaHZ.s:2617   .text:0000000000000b30 .L0 
     /tmp/ccTuhaHZ.s:2619   .text:0000000000000b30 .L0 
     /tmp/ccTuhaHZ.s:2620   .text:0000000000000b30 .L0 
     /tmp/ccTuhaHZ.s:2623   .text:0000000000000b38 .L0 
     /tmp/ccTuhaHZ.s:2624   .text:0000000000000b38 .L0 
     /tmp/ccTuhaHZ.s:2627   .text:0000000000000b40 .L0 
     /tmp/ccTuhaHZ.s:2628   .text:0000000000000b44 .L0 
     /tmp/ccTuhaHZ.s:2630   .text:0000000000000b48 .L0 
     /tmp/ccTuhaHZ.s:2631   .text:0000000000000b48 .L0 
     /tmp/ccTuhaHZ.s:2633   .text:0000000000000b4c .L0 
     /tmp/ccTuhaHZ.s:2635   .text:0000000000000b50 .L0 
     /tmp/ccTuhaHZ.s:2702   .bss:0000000000000004 _ZN19ConsumerProducerCPP9threadEndE
     /tmp/ccTuhaHZ.s:2715   .bss:0000000000000010 _ZN19ConsumerProducerCPP10waitForAllE
     /tmp/ccTuhaHZ.s:2710   .bss:0000000000000009 finishedD
     /tmp/ccTuhaHZ.s:2706   .bss:0000000000000008 finishedC
     /tmp/ccTuhaHZ.s:2697   .bss:0000000000000001 finishedB
     /tmp/ccTuhaHZ.s:2693   .bss:0000000000000000 finishedA
     /tmp/ccTuhaHZ.s:2690   .bss:0000000000000000 .LANCHOR0
     /tmp/ccTuhaHZ.s:2726   .text:0000000000000b50 .L0 
     /tmp/ccTuhaHZ.s:405    .text._ZN19ConsumerProducerCPP8Consumer3runEv:00000000000000d0 .L0 
     /tmp/ccTuhaHZ.s:442    .text._ZN19ConsumerProducerCPP8ConsumerD2Ev:0000000000000034 .L0 
     /tmp/ccTuhaHZ.s:489    .text._ZN19ConsumerProducerCPP8ConsumerD0Ev:000000000000004c .L0 
     /tmp/ccTuhaHZ.s:526    .text._ZN19ConsumerProducerCPP16ProducerKeyboradD2Ev:0000000000000034 .L0 
     /tmp/ccTuhaHZ.s:573    .text._ZN19ConsumerProducerCPP16ProducerKeyboradD0Ev:000000000000004c .L0 
     /tmp/ccTuhaHZ.s:610    .text._ZN19ConsumerProducerCPP8ProducerD2Ev:0000000000000034 .L0 
     /tmp/ccTuhaHZ.s:657    .text._ZN19ConsumerProducerCPP8ProducerD0Ev:000000000000004c .L0 
     /tmp/ccTuhaHZ.s:695    .text._ZN10ForkThreadD2Ev:0000000000000034 .L0 
     /tmp/ccTuhaHZ.s:742    .text._ZN10ForkThreadD0Ev:000000000000004c .L0 
     /tmp/ccTuhaHZ.s:822    .text._ZN19ConsumerProducerCPP16ProducerKeyborad3runEv:0000000000000084 .L0 
     /tmp/ccTuhaHZ.s:907    .text._ZN19ConsumerProducerCPP8Producer3runEv:0000000000000094 .L0 
     /tmp/ccTuhaHZ.s:1255   .text._ZN10ForkThread3runEv:0000000000000220 .L0 
     /tmp/ccTuhaHZ.s:8      .rodata.str1.8:0000000000000000 .LC0
     /tmp/ccTuhaHZ.s:92     .text:000000000000005c .L0 
     /tmp/ccTuhaHZ.s:11     .rodata.str1.8:0000000000000008 .LC1
     /tmp/ccTuhaHZ.s:104    .text:0000000000000080 .L0 
     /tmp/ccTuhaHZ.s:14     .rodata.str1.8:0000000000000010 .LC2
     /tmp/ccTuhaHZ.s:119    .text:0000000000000098 .L0 
     /tmp/ccTuhaHZ.s:125    .text:00000000000000ac .L0 
     /tmp/ccTuhaHZ.s:145    .rodata.str1.8:0000000000000020 .LC3
     /tmp/ccTuhaHZ.s:225    .text:0000000000000128 .L0 
     /tmp/ccTuhaHZ.s:237    .text:000000000000014c .L0 
     /tmp/ccTuhaHZ.s:148    .rodata.str1.8:0000000000000028 .LC4
     /tmp/ccTuhaHZ.s:252    .text:0000000000000164 .L0 
     /tmp/ccTuhaHZ.s:258    .text:0000000000000178 .L0 
     /tmp/ccTuhaHZ.s:1329   .rodata.str1.8:0000000000000038 .LC7
     /tmp/ccTuhaHZ.s:1370   .text:0000000000000234 .L0 
     /tmp/ccTuhaHZ.s:1382   .text:0000000000000258 .L0 
     /tmp/ccTuhaHZ.s:1332   .rodata.str1.8:0000000000000040 .LC8
     /tmp/ccTuhaHZ.s:1397   .text:0000000000000278 .L0 
     /tmp/ccTuhaHZ.s:1335   .rodata.str1.8:0000000000000050 .LC9
     /tmp/ccTuhaHZ.s:1422   .text:0000000000000298 .L0 
     /tmp/ccTuhaHZ.s:1434   .text:00000000000002bc .L0 
     /tmp/ccTuhaHZ.s:1338   .rodata.str1.8:0000000000000058 .LC10
     /tmp/ccTuhaHZ.s:1446   .text:00000000000002dc .L0 
     /tmp/ccTuhaHZ.s:1459   .text:0000000000000300 .L0 
     /tmp/ccTuhaHZ.s:1466   .text:0000000000000314 .L0 
     /tmp/ccTuhaHZ.s:1478   .text:0000000000000338 .L0 
GAS LISTING /tmp/ccTuhaHZ.s 			page 81


     /tmp/ccTuhaHZ.s:1493   .text:0000000000000358 .L0 
     /tmp/ccTuhaHZ.s:1499   .text:000000000000036c .L0 
     /tmp/ccTuhaHZ.s:1524   .rodata.str1.8:0000000000000068 .LC11
     /tmp/ccTuhaHZ.s:1565   .text:00000000000003b4 .L0 
     /tmp/ccTuhaHZ.s:1577   .text:00000000000003d8 .L0 
     /tmp/ccTuhaHZ.s:1527   .rodata.str1.8:0000000000000070 .LC12
     /tmp/ccTuhaHZ.s:1592   .text:00000000000003f8 .L0 
     /tmp/ccTuhaHZ.s:1530   .rodata.str1.8:0000000000000080 .LC13
     /tmp/ccTuhaHZ.s:1615   .text:0000000000000424 .L0 
     /tmp/ccTuhaHZ.s:1628   .text:0000000000000448 .L0 
     /tmp/ccTuhaHZ.s:1635   .text:000000000000045c .L0 
     /tmp/ccTuhaHZ.s:1647   .text:0000000000000480 .L0 
     /tmp/ccTuhaHZ.s:1533   .rodata.str1.8:0000000000000090 .LC14
     /tmp/ccTuhaHZ.s:1662   .text:00000000000004a0 .L0 
     /tmp/ccTuhaHZ.s:1668   .text:00000000000004b4 .L0 
     /tmp/ccTuhaHZ.s:1726   .text:00000000000004f4 .L0 
     /tmp/ccTuhaHZ.s:1693   .rodata.str1.8:00000000000000a0 .LC15
     /tmp/ccTuhaHZ.s:1732   .text:0000000000000508 .L0 
     /tmp/ccTuhaHZ.s:1738   .text:000000000000051c .L0 
     /tmp/ccTuhaHZ.s:1696   .rodata.str1.8:00000000000000b8 .LC16
     /tmp/ccTuhaHZ.s:1744   .text:0000000000000530 .L0 
     /tmp/ccTuhaHZ.s:1750   .text:0000000000000544 .L0 
     /tmp/ccTuhaHZ.s:1699   .rodata.str1.8:00000000000000d0 .LC17
     /tmp/ccTuhaHZ.s:1756   .text:0000000000000558 .L0 
     /tmp/ccTuhaHZ.s:1762   .text:000000000000056c .L0 
     /tmp/ccTuhaHZ.s:1702   .rodata.str1.8:00000000000000e8 .LC18
     /tmp/ccTuhaHZ.s:1768   .text:0000000000000580 .L0 
     /tmp/ccTuhaHZ.s:1780   .text:000000000000059c .L0 
     /tmp/ccTuhaHZ.s:1783   .text:00000000000005a8 .L0 
     /tmp/ccTuhaHZ.s:1786   .text:00000000000005b4 .L0 
     /tmp/ccTuhaHZ.s:1789   .text:00000000000005c0 .L0 
     /tmp/ccTuhaHZ.s:1834   .rodata.str1.8:0000000000000100 .LC19
     /tmp/ccTuhaHZ.s:1896   .text:0000000000000640 .L0 
     /tmp/ccTuhaHZ.s:1837   .rodata.str1.8:0000000000000120 .LC20
     /tmp/ccTuhaHZ.s:1916   .text:0000000000000674 .L0 
     /tmp/ccTuhaHZ.s:1840   .rodata.str1.8:0000000000000140 .LC21
     /tmp/ccTuhaHZ.s:1934   .text:00000000000006a4 .L0 
     /tmp/ccTuhaHZ.s:1843   .rodata.str1.8:0000000000000158 .LC22
     /tmp/ccTuhaHZ.s:1946   .text:00000000000006c8 .L0 
     /tmp/ccTuhaHZ.s:1846   .rodata.str1.8:0000000000000170 .LC23
     /tmp/ccTuhaHZ.s:1958   .text:00000000000006ec .L0 
     /tmp/ccTuhaHZ.s:1849   .rodata.str1.8:0000000000000178 .LC24
     /tmp/ccTuhaHZ.s:1983   .text:0000000000000728 .L0 
     /tmp/ccTuhaHZ.s:1852   .rodata.str1.8:00000000000001b8 .LC25
     /tmp/ccTuhaHZ.s:1992   .text:000000000000073c .L0 
     /tmp/ccTuhaHZ.s:2018   .text:0000000000000774 .L0 
     /tmp/ccTuhaHZ.s:2080   .text:0000000000000800 .L0 
     /tmp/ccTuhaHZ.s:2101   .text:0000000000000824 .L0 
     /tmp/ccTuhaHZ.s:2121   .text:000000000000084c .L0 
     /tmp/ccTuhaHZ.s:2145   .text:0000000000000874 .L0 
     /tmp/ccTuhaHZ.s:2179   .text:00000000000008bc .L0 
     /tmp/ccTuhaHZ.s:2223   .text:0000000000000908 .L0 
     /tmp/ccTuhaHZ.s:2235   .text:0000000000000920 .L0 
     /tmp/ccTuhaHZ.s:2502   .text:0000000000000a84 .L0 
     /tmp/ccTuhaHZ.s:2469   .rodata.str1.8:00000000000001e8 .LC26
     /tmp/ccTuhaHZ.s:2538   .text:0000000000000abc .L0 
     /tmp/ccTuhaHZ.s:2545   .text:0000000000000acc .L0 
GAS LISTING /tmp/ccTuhaHZ.s 			page 82


     /tmp/ccTuhaHZ.s:2571   .text:0000000000000afc .L0 
     /tmp/ccTuhaHZ.s:85     .text:0000000000000054 .L7
     /tmp/ccTuhaHZ.s:77     .text:0000000000000050 .L3
     /tmp/ccTuhaHZ.s:45     .text:0000000000000020 .L4
     /tmp/ccTuhaHZ.s:66     .text:000000000000003c .L5
     /tmp/ccTuhaHZ.s:113    .text:0000000000000098 .L2
     /tmp/ccTuhaHZ.s:57     .text:000000000000002c .L6
     /tmp/ccTuhaHZ.s:218    .text:0000000000000120 .L15
     /tmp/ccTuhaHZ.s:210    .text:000000000000011c .L11
     /tmp/ccTuhaHZ.s:178    .text:00000000000000ec .L12
     /tmp/ccTuhaHZ.s:199    .text:0000000000000108 .L13
     /tmp/ccTuhaHZ.s:246    .text:0000000000000164 .L10
     /tmp/ccTuhaHZ.s:190    .text:00000000000000f8 .L14
     /tmp/ccTuhaHZ.s:1300   .text:00000000000001f0 .L65
     /tmp/ccTuhaHZ.s:1317   .text:0000000000000208 .L70
     /tmp/ccTuhaHZ.s:1287   .text:00000000000001d0 .L67
     /tmp/ccTuhaHZ.s:1390   .text:0000000000000270 .L73
     /tmp/ccTuhaHZ.s:1367   .text:0000000000000234 .L77
     /tmp/ccTuhaHZ.s:1486   .text:0000000000000350 .L75
     /tmp/ccTuhaHZ.s:1463   .text:0000000000000314 .L78
     /tmp/ccTuhaHZ.s:1585   .text:00000000000003f0 .L81
     /tmp/ccTuhaHZ.s:1562   .text:00000000000003b4 .L85
     /tmp/ccTuhaHZ.s:1655   .text:0000000000000498 .L83
     /tmp/ccTuhaHZ.s:1632   .text:000000000000045c .L86
     /tmp/ccTuhaHZ.s:1777   .text:000000000000059c .L90
     /tmp/ccTuhaHZ.s:1772   .text:0000000000000594 .L88
     /tmp/ccTuhaHZ.s:1800   .text:00000000000005d8 .L89
     /tmp/ccTuhaHZ.s:1815   .text:00000000000005f4 .L87
     /tmp/ccTuhaHZ.s:1796   .text:00000000000005d4 .L92
     /tmp/ccTuhaHZ.s:1980   .text:0000000000000728 .L126
     /tmp/ccTuhaHZ.s:1989   .text:000000000000073c .L127
     /tmp/ccTuhaHZ.s:1999   .text:0000000000000754 .L99
     /tmp/ccTuhaHZ.s:1996   .text:000000000000074c .L97
     /tmp/ccTuhaHZ.s:2298   .text:000000000000099c .L95
     /tmp/ccTuhaHZ.s:2016   .text:0000000000000774 .L100
     /tmp/ccTuhaHZ.s:2084   .text:0000000000000810 .L101
     /tmp/ccTuhaHZ.s:2125   .text:000000000000085c .L102
     /tmp/ccTuhaHZ.s:2164   .text:00000000000008a0 .L105
     /tmp/ccTuhaHZ.s:2205   .text:00000000000008f8 .L103
     /tmp/ccTuhaHZ.s:2149   .text:0000000000000884 .L104
     /tmp/ccTuhaHZ.s:2141   .text:0000000000000874 .L128
     /tmp/ccTuhaHZ.s:2231   .text:0000000000000920 .L106
     /tmp/ccTuhaHZ.s:2218   .text:0000000000000904 .L107
     /tmp/ccTuhaHZ.s:2243   .text:0000000000000938 .L108
     /tmp/ccTuhaHZ.s:2256   .text:0000000000000944 .L111
     /tmp/ccTuhaHZ.s:2272   .text:0000000000000968 .L109
     /tmp/ccTuhaHZ.s:2250   .text:0000000000000940 .L110
     /tmp/ccTuhaHZ.s:2283   .text:000000000000097c .L112
     /tmp/ccTuhaHZ.s:2295   .text:0000000000000998 .L113
     /tmp/ccTuhaHZ.s:2535   .text:0000000000000abc .L130
     /tmp/ccTuhaHZ.s:2517   .text:0000000000000aa8 .L131
     /tmp/ccTuhaHZ.s:322    .text._ZN19ConsumerProducerCPP8Consumer3runEv:0000000000000034 .L0 
     /tmp/ccTuhaHZ.s:318    .text._ZN19ConsumerProducerCPP8Consumer3runEv:0000000000000034 .L18
     /tmp/ccTuhaHZ.s:367    .text._ZN19ConsumerProducerCPP8Consumer3runEv:0000000000000090 .L19
     /tmp/ccTuhaHZ.s:311    .text._ZN19ConsumerProducerCPP8Consumer3runEv:0000000000000028 .L23
     /tmp/ccTuhaHZ.s:351    .text._ZN19ConsumerProducerCPP8Consumer3runEv:0000000000000074 .L24
     /tmp/ccTuhaHZ.s:424    .text._ZN19ConsumerProducerCPP8ConsumerD2Ev:0000000000000010 .L0 
GAS LISTING /tmp/ccTuhaHZ.s 			page 83


     /tmp/ccTuhaHZ.s:466    .text._ZN19ConsumerProducerCPP8ConsumerD0Ev:0000000000000018 .L0 
     /tmp/ccTuhaHZ.s:508    .text._ZN19ConsumerProducerCPP16ProducerKeyboradD2Ev:0000000000000010 .L0 
     /tmp/ccTuhaHZ.s:550    .text._ZN19ConsumerProducerCPP16ProducerKeyboradD0Ev:0000000000000018 .L0 
     /tmp/ccTuhaHZ.s:592    .text._ZN19ConsumerProducerCPP8ProducerD2Ev:0000000000000010 .L0 
     /tmp/ccTuhaHZ.s:634    .text._ZN19ConsumerProducerCPP8ProducerD0Ev:0000000000000018 .L0 
     /tmp/ccTuhaHZ.s:677    .text._ZN10ForkThreadD2Ev:0000000000000010 .L0 
     /tmp/ccTuhaHZ.s:719    .text._ZN10ForkThreadD0Ev:0000000000000018 .L0 
     /tmp/ccTuhaHZ.s:791    .text._ZN19ConsumerProducerCPP16ProducerKeyborad3runEv:0000000000000044 .L0 
     /tmp/ccTuhaHZ.s:787    .text._ZN19ConsumerProducerCPP16ProducerKeyborad3runEv:0000000000000040 .L42
     /tmp/ccTuhaHZ.s:765    .text._ZN19ConsumerProducerCPP16ProducerKeyborad3runEv:0000000000000018 .L43
     /tmp/ccTuhaHZ.s:852    .text._ZN19ConsumerProducerCPP8Producer3runEv:0000000000000020 .L0 
     /tmp/ccTuhaHZ.s:882    .text._ZN19ConsumerProducerCPP8Producer3runEv:000000000000006c .L46
     /tmp/ccTuhaHZ.s:849    .text._ZN19ConsumerProducerCPP8Producer3runEv:0000000000000020 .L47
     /tmp/ccTuhaHZ.s:909    .rodata._ZN10ForkThread3runEv.str1.8:0000000000000000 .LC5
     /tmp/ccTuhaHZ.s:948    .text._ZN10ForkThread3runEv:000000000000002c .L0 
     /tmp/ccTuhaHZ.s:962    .text._ZN10ForkThread3runEv:0000000000000050 .L0 
     /tmp/ccTuhaHZ.s:983    .text._ZN10ForkThread3runEv:0000000000000084 .L0 
     /tmp/ccTuhaHZ.s:1041   .text._ZN10ForkThread3runEv:00000000000000f0 .L0 
     /tmp/ccTuhaHZ.s:912    .rodata._ZN10ForkThread3runEv.str1.8:0000000000000018 .LC6
     /tmp/ccTuhaHZ.s:1188   .text._ZN10ForkThread3runEv:00000000000001bc .L0 
     /tmp/ccTuhaHZ.s:1200   .text._ZN10ForkThread3runEv:00000000000001e0 .L0 
     /tmp/ccTuhaHZ.s:988    .text._ZN10ForkThread3runEv:0000000000000098 .L50
     /tmp/ccTuhaHZ.s:1183   .text._ZN10ForkThread3runEv:00000000000001bc .L51
     /tmp/ccTuhaHZ.s:1019   .text._ZN10ForkThread3runEv:00000000000000c8 .L54
     /tmp/ccTuhaHZ.s:1049   .text._ZN10ForkThread3runEv:0000000000000108 .L52
     /tmp/ccTuhaHZ.s:1010   .text._ZN10ForkThread3runEv:00000000000000b8 .L53
     /tmp/ccTuhaHZ.s:1135   .text._ZN10ForkThread3runEv:000000000000017c .L55
     /tmp/ccTuhaHZ.s:1125   .text._ZN10ForkThread3runEv:000000000000016c .L56
     /tmp/ccTuhaHZ.s:1082   .text._ZN10ForkThread3runEv:0000000000000134 .L60
     /tmp/ccTuhaHZ.s:1101   .text._ZN10ForkThread3runEv:0000000000000158 .L57
     /tmp/ccTuhaHZ.s:1072   .text._ZN10ForkThread3runEv:0000000000000128 .L58
     /tmp/ccTuhaHZ.s:1091   .text._ZN10ForkThread3runEv:0000000000000144 .L59
     /tmp/ccTuhaHZ.s:1157   .text._ZN10ForkThread3runEv:0000000000000188 .L63
     /tmp/ccTuhaHZ.s:1176   .text._ZN10ForkThread3runEv:00000000000001b0 .L61
     /tmp/ccTuhaHZ.s:1145   .text._ZN10ForkThread3runEv:0000000000000184 .L62
     /tmp/ccTuhaHZ.s:950    .text._ZN10ForkThread3runEv:0000000000000034 .LEHB0
     /tmp/ccTuhaHZ.s:919    .text._ZN10ForkThread3runEv:0000000000000000 .LFB36
     /tmp/ccTuhaHZ.s:970    .text._ZN10ForkThread3runEv:000000000000006c .LEHE0
     /tmp/ccTuhaHZ.s:996    .text._ZN10ForkThread3runEv:00000000000000a0 .LEHB1
     /tmp/ccTuhaHZ.s:1030   .text._ZN10ForkThread3runEv:00000000000000dc .LEHE1
     /tmp/ccTuhaHZ.s:1059   .text._ZN10ForkThread3runEv:0000000000000110 .LEHB2
     /tmp/ccTuhaHZ.s:1203   .text._ZN10ForkThread3runEv:00000000000001f0 .LEHE2
     /tmp/ccTuhaHZ.s:1897   .text:0000000000000648 .LEHB3
     /tmp/ccTuhaHZ.s:1859   .text:0000000000000608 .LFB32
     /tmp/ccTuhaHZ.s:1970   .text:0000000000000710 .LEHE3
     /tmp/ccTuhaHZ.s:1975   .text:000000000000071c .LEHB4
     /tmp/ccTuhaHZ.s:1978   .text:0000000000000724 .LEHE4
     /tmp/ccTuhaHZ.s:2330   .text:00000000000009d4 .L120
     /tmp/ccTuhaHZ.s:1984   .text:0000000000000730 .LEHB5
     /tmp/ccTuhaHZ.s:2006   .text:0000000000000760 .LEHE5
     /tmp/ccTuhaHZ.s:2012   .text:000000000000076c .LEHB6
     /tmp/ccTuhaHZ.s:2015   .text:0000000000000774 .LEHE6
     /tmp/ccTuhaHZ.s:2343   .text:00000000000009f0 .L121
     /tmp/ccTuhaHZ.s:2060   .text:00000000000007d8 .LEHB7
     /tmp/ccTuhaHZ.s:2063   .text:00000000000007e0 .LEHE7
     /tmp/ccTuhaHZ.s:2072   .text:00000000000007f8 .LEHB8
     /tmp/ccTuhaHZ.s:2078   .text:0000000000000800 .LEHE8
GAS LISTING /tmp/ccTuhaHZ.s 			page 84


     /tmp/ccTuhaHZ.s:2355   .text:0000000000000a0c .L122
     /tmp/ccTuhaHZ.s:2090   .text:0000000000000814 .LEHB9
     /tmp/ccTuhaHZ.s:2108   .text:000000000000083c .LEHE9
     /tmp/ccTuhaHZ.s:2113   .text:0000000000000844 .LEHB10
     /tmp/ccTuhaHZ.s:2119   .text:000000000000084c .LEHE10
     /tmp/ccTuhaHZ.s:2367   .text:0000000000000a28 .L123
     /tmp/ccTuhaHZ.s:2133   .text:0000000000000864 .LEHB11
     /tmp/ccTuhaHZ.s:2186   .text:00000000000008d4 .LEHE11
     /tmp/ccTuhaHZ.s:2196   .text:00000000000008ec .LEHB12
     /tmp/ccTuhaHZ.s:2202   .text:00000000000008f4 .LEHE12
     /tmp/ccTuhaHZ.s:2379   .text:0000000000000a44 .L124
     /tmp/ccTuhaHZ.s:2210   .text:00000000000008f8 .LEHB13
     /tmp/ccTuhaHZ.s:2294   .text:0000000000000998 .LEHE13
     /tmp/ccTuhaHZ.s:2339   .text:00000000000009e8 .LEHB14
     /tmp/ccTuhaHZ.s:2342   .text:00000000000009f0 .LEHE14
     /tmp/ccTuhaHZ.s:2351   .text:0000000000000a04 .LEHB15
     /tmp/ccTuhaHZ.s:2354   .text:0000000000000a0c .LEHE15
     /tmp/ccTuhaHZ.s:2363   .text:0000000000000a20 .LEHB16
     /tmp/ccTuhaHZ.s:2366   .text:0000000000000a28 .LEHE16
     /tmp/ccTuhaHZ.s:2375   .text:0000000000000a3c .LEHB17
     /tmp/ccTuhaHZ.s:2378   .text:0000000000000a44 .LEHE17
     /tmp/ccTuhaHZ.s:2388   .text:0000000000000a58 .LEHB18
     /tmp/ccTuhaHZ.s:2391   .text:0000000000000a60 .LEHE18
     /tmp/ccTuhaHZ.s:2514   .text:0000000000000aa0 .LEHB19
     /tmp/ccTuhaHZ.s:2476   .text:0000000000000a60 .LFB38
     /tmp/ccTuhaHZ.s:2541   .text:0000000000000acc .LEHE19
     /tmp/ccTuhaHZ.s:2564   .text:0000000000000af8 .L133
     /tmp/ccTuhaHZ.s:2578   .text:0000000000000b18 .LEHB20
     /tmp/ccTuhaHZ.s:2581   .text:0000000000000b20 .LEHE20
     /tmp/ccTuhaHZ.s:6327   .debug_abbrev:0000000000000000 .Ldebug_abbrev0
     /tmp/ccTuhaHZ.s:8620   .debug_str:00000000000000d1 .LASF158
     /tmp/ccTuhaHZ.s:8904   .debug_str:0000000000000bdf .LASF159
     /tmp/ccTuhaHZ.s:8628   .debug_str:00000000000001de .LASF160
     /tmp/ccTuhaHZ.s:8516   .debug_ranges:0000000000000000 .Ldebug_ranges0
     /tmp/ccTuhaHZ.s:8594   .debug_line:0000000000000000 .Ldebug_line0
     /tmp/ccTuhaHZ.s:8718   .debug_str:00000000000004dd .LASF0
     /tmp/ccTuhaHZ.s:8738   .debug_str:00000000000005b4 .LASF1
     /tmp/ccTuhaHZ.s:8818   .debug_str:00000000000008a1 .LASF2
     /tmp/ccTuhaHZ.s:8674   .debug_str:000000000000036f .LASF3
     /tmp/ccTuhaHZ.s:8824   .debug_str:00000000000008c5 .LASF4
     /tmp/ccTuhaHZ.s:8728   .debug_str:0000000000000542 .LASF5
     /tmp/ccTuhaHZ.s:8612   .debug_str:000000000000009c .LASF6
     /tmp/ccTuhaHZ.s:8794   .debug_str:00000000000007e7 .LASF7
     /tmp/ccTuhaHZ.s:8734   .debug_str:0000000000000578 .LASF8
     /tmp/ccTuhaHZ.s:8694   .debug_str:00000000000003ec .LASF9
     /tmp/ccTuhaHZ.s:8702   .debug_str:000000000000044d .LASF10
     /tmp/ccTuhaHZ.s:8640   .debug_str:000000000000024f .LASF11
     /tmp/ccTuhaHZ.s:8684   .debug_str:00000000000003a3 .LASF12
     /tmp/ccTuhaHZ.s:8652   .debug_str:00000000000002c7 .LASF13
     /tmp/ccTuhaHZ.s:8638   .debug_str:000000000000023f .LASF14
     /tmp/ccTuhaHZ.s:8856   .debug_str:00000000000009e5 .LASF15
     /tmp/ccTuhaHZ.s:8666   .debug_str:0000000000000328 .LASF16
     /tmp/ccTuhaHZ.s:8840   .debug_str:0000000000000935 .LASF17
     /tmp/ccTuhaHZ.s:8626   .debug_str:00000000000001d6 .LASF18
     /tmp/ccTuhaHZ.s:8772   .debug_str:000000000000073c .LASF19
     /tmp/ccTuhaHZ.s:8732   .debug_str:0000000000000566 .LASF20
     /tmp/ccTuhaHZ.s:8602   .debug_str:0000000000000051 .LASF28
GAS LISTING /tmp/ccTuhaHZ.s 			page 85


     /tmp/ccTuhaHZ.s:8874   .debug_str:0000000000000a40 .LASF30
     /tmp/ccTuhaHZ.s:8872   .debug_str:0000000000000a37 .LASF21
     /tmp/ccTuhaHZ.s:8822   .debug_str:00000000000008bb .LASF22
     /tmp/ccTuhaHZ.s:8748   .debug_str:0000000000000680 .LASF23
     /tmp/ccTuhaHZ.s:8774   .debug_str:000000000000074c .LASF24
     /tmp/ccTuhaHZ.s:8826   .debug_str:00000000000008cc .LASF25
     /tmp/ccTuhaHZ.s:8828   .debug_str:00000000000008d6 .LASF26
     /tmp/ccTuhaHZ.s:8752   .debug_str:0000000000000698 .LASF27
     /tmp/ccTuhaHZ.s:8722   .debug_str:00000000000004fc .LASF155
     /tmp/ccTuhaHZ.s:8654   .debug_str:00000000000002d7 .LASF161
     /tmp/ccTuhaHZ.s:8756   .debug_str:00000000000006ad .LASF29
     /tmp/ccTuhaHZ.s:8662   .debug_str:0000000000000301 .LASF31
     /tmp/ccTuhaHZ.s:8866   .debug_str:0000000000000a1c .LASF32
     /tmp/ccTuhaHZ.s:8884   .debug_str:0000000000000ac6 .LASF33
     /tmp/ccTuhaHZ.s:8878   .debug_str:0000000000000a82 .LASF34
     /tmp/ccTuhaHZ.s:8848   .debug_str:0000000000000994 .LASF35
     /tmp/ccTuhaHZ.s:8778   .debug_str:000000000000077c .LASF36
     /tmp/ccTuhaHZ.s:8890   .debug_str:0000000000000b1c .LASF37
     /tmp/ccTuhaHZ.s:8758   .debug_str:00000000000006b2 .LASF38
     /tmp/ccTuhaHZ.s:8600   .debug_str:0000000000000047 .LASF39
     /tmp/ccTuhaHZ.s:8768   .debug_str:00000000000006f2 .LASF40
     /tmp/ccTuhaHZ.s:8730   .debug_str:0000000000000554 .LASF42
     /tmp/ccTuhaHZ.s:8796   .debug_str:00000000000007fa .LASF41
     /tmp/ccTuhaHZ.s:8930   .debug_str:0000000000000ccd .LASF43
     /tmp/ccTuhaHZ.s:8852   .debug_str:00000000000009c3 .LASF162
     /tmp/ccTuhaHZ.s:8690   .debug_str:00000000000003ca .LASF163
     /tmp/ccTuhaHZ.s:8810   .debug_str:0000000000000846 .LASF44
     /tmp/ccTuhaHZ.s:8816   .debug_str:000000000000088a .LASF45
     /tmp/ccTuhaHZ.s:8896   .debug_str:0000000000000b68 .LASF89
     /tmp/ccTuhaHZ.s:8644   .debug_str:000000000000026a .LASF46
     /tmp/ccTuhaHZ.s:8658   .debug_str:00000000000002f3 .LASF48
     /tmp/ccTuhaHZ.s:8882   .debug_str:0000000000000aaf .LASF47
     /tmp/ccTuhaHZ.s:8860   .debug_str:0000000000000a01 .LASF49
     /tmp/ccTuhaHZ.s:8788   .debug_str:00000000000007af .LASF164
     /tmp/ccTuhaHZ.s:8762   .debug_str:00000000000006cb .LASF50
     /tmp/ccTuhaHZ.s:8834   .debug_str:00000000000008f0 .LASF52
     /tmp/ccTuhaHZ.s:8642   .debug_str:000000000000025e .LASF165
     /tmp/ccTuhaHZ.s:8808   .debug_str:000000000000083c .LASF51
     /tmp/ccTuhaHZ.s:8668   .debug_str:000000000000033e .LASF53
     /tmp/ccTuhaHZ.s:8678   .debug_str:0000000000000386 .LASF54
     /tmp/ccTuhaHZ.s:8736   .debug_str:000000000000058b .LASF55
     /tmp/ccTuhaHZ.s:8622   .debug_str:00000000000001a1 .LASF56
     /tmp/ccTuhaHZ.s:8932   .debug_str:0000000000000cdf .LASF57
     /tmp/ccTuhaHZ.s:8746   .debug_str:0000000000000658 .LASF63
     /tmp/ccTuhaHZ.s:8714   .debug_str:00000000000004c6 .LASF58
     /tmp/ccTuhaHZ.s:8646   .debug_str:000000000000027f .LASF66
     /tmp/ccTuhaHZ.s:8632   .debug_str:0000000000000218 .LASF59
     /tmp/ccTuhaHZ.s:8894   .debug_str:0000000000000b3f .LASF60
     /tmp/ccTuhaHZ.s:8850   .debug_str:0000000000000999 .LASF61
     /tmp/ccTuhaHZ.s:8740   .debug_str:00000000000005c7 .LASF62
     /tmp/ccTuhaHZ.s:8744   .debug_str:0000000000000630 .LASF64
     /tmp/ccTuhaHZ.s:8608   .debug_str:0000000000000088 .LASF65
     /tmp/ccTuhaHZ.s:8922   .debug_str:0000000000000c86 .LASF67
     /tmp/ccTuhaHZ.s:8676   .debug_str:0000000000000375 .LASF68
     /tmp/ccTuhaHZ.s:8742   .debug_str:00000000000005fe .LASF69
     /tmp/ccTuhaHZ.s:8726   .debug_str:000000000000050f .LASF70
     /tmp/ccTuhaHZ.s:8770   .debug_str:00000000000006fc .LASF71
GAS LISTING /tmp/ccTuhaHZ.s 			page 86


     /tmp/ccTuhaHZ.s:8876   .debug_str:0000000000000a51 .LASF72
     /tmp/ccTuhaHZ.s:8720   .debug_str:00000000000004ea .LASF73
     /tmp/ccTuhaHZ.s:8698   .debug_str:0000000000000406 .LASF74
     /tmp/ccTuhaHZ.s:8936   .debug_str:0000000000000d1d .LASF166
     /tmp/ccTuhaHZ.s:8898   .debug_str:0000000000000b72 .LASF167
     /tmp/ccTuhaHZ.s:8832   .debug_str:00000000000008e8 .LASF75
     /tmp/ccTuhaHZ.s:8792   .debug_str:00000000000007d9 .LASF76
     /tmp/ccTuhaHZ.s:8910   .debug_str:0000000000000c1b .LASF77
     /tmp/ccTuhaHZ.s:8820   .debug_str:00000000000008af .LASF78
     /tmp/ccTuhaHZ.s:8724   .debug_str:0000000000000501 .LASF79
     /tmp/ccTuhaHZ.s:8624   .debug_str:00000000000001cb .LASF80
     /tmp/ccTuhaHZ.s:8902   .debug_str:0000000000000bc9 .LASF81
     /tmp/ccTuhaHZ.s:8908   .debug_str:0000000000000c04 .LASF82
     /tmp/ccTuhaHZ.s:8918   .debug_str:0000000000000c60 .LASF83
     /tmp/ccTuhaHZ.s:8836   .debug_str:0000000000000916 .LASF84
     /tmp/ccTuhaHZ.s:8864   .debug_str:0000000000000a11 .LASF85
     /tmp/ccTuhaHZ.s:8940   .debug_str:0000000000000d61 .LASF109
     /tmp/ccTuhaHZ.s:8838   .debug_str:000000000000092c .LASF86
     /tmp/ccTuhaHZ.s:8634   .debug_str:0000000000000221 .LASF87
     /tmp/ccTuhaHZ.s:8892   .debug_str:0000000000000b2b .LASF88
     /tmp/ccTuhaHZ.s:8710   .debug_str:0000000000000499 .LASF90
     /tmp/ccTuhaHZ.s:8606   .debug_str:0000000000000075 .LASF91
     /tmp/ccTuhaHZ.s:8928   .debug_str:0000000000000cc7 .LASF92
     /tmp/ccTuhaHZ.s:8790   .debug_str:00000000000007c3 .LASF93
     /tmp/ccTuhaHZ.s:8656   .debug_str:00000000000002ea .LASF94
     /tmp/ccTuhaHZ.s:8784   .debug_str:0000000000000795 .LASF95
     /tmp/ccTuhaHZ.s:8842   .debug_str:000000000000094b .LASF96
     /tmp/ccTuhaHZ.s:8630   .debug_str:000000000000020f .LASF97
     /tmp/ccTuhaHZ.s:8688   .debug_str:00000000000003c5 .LASF98
     /tmp/ccTuhaHZ.s:8610   .debug_str:0000000000000092 .LASF99
     /tmp/ccTuhaHZ.s:8604   .debug_str:0000000000000061 .LASF100
     /tmp/ccTuhaHZ.s:700    .text._ZN10ForkThreadD0Ev:0000000000000000 .LFB58
     /tmp/ccTuhaHZ.s:740    .text._ZN10ForkThreadD0Ev:000000000000004c .LFE58
     /tmp/ccTuhaHZ.s:7493   .debug_loc:0000000000000000 .LLST22
     /tmp/ccTuhaHZ.s:716    .text._ZN10ForkThreadD0Ev:0000000000000018 .LBB85
     /tmp/ccTuhaHZ.s:724    .text._ZN10ForkThreadD0Ev:000000000000002c .LBE85
     /tmp/ccTuhaHZ.s:7511   .debug_loc:000000000000004c .LLST23
     /tmp/ccTuhaHZ.s:722    .text._ZN10ForkThreadD0Ev:000000000000002c .LVL72
     /tmp/ccTuhaHZ.s:727    .text._ZN10ForkThreadD0Ev:0000000000000038 .LVL73
     /tmp/ccTuhaHZ.s:8664   .debug_str:0000000000000314 .LASF101
     /tmp/ccTuhaHZ.s:662    .text._ZN10ForkThreadD2Ev:0000000000000000 .LFB56
     /tmp/ccTuhaHZ.s:691    .text._ZN10ForkThreadD2Ev:0000000000000034 .LFE56
     /tmp/ccTuhaHZ.s:7522   .debug_loc:0000000000000082 .LLST21
     /tmp/ccTuhaHZ.s:680    .text._ZN10ForkThreadD2Ev:0000000000000024 .LVL69
     /tmp/ccTuhaHZ.s:8938   .debug_str:0000000000000d32 .LASF102
     /tmp/ccTuhaHZ.s:531    .text._ZN19ConsumerProducerCPP16ProducerKeyboradD0Ev:0000000000000000 .LFB54
     /tmp/ccTuhaHZ.s:571    .text._ZN19ConsumerProducerCPP16ProducerKeyboradD0Ev:000000000000004c .LFE54
     /tmp/ccTuhaHZ.s:7536   .debug_loc:00000000000000bb .LLST16
     /tmp/ccTuhaHZ.s:547    .text._ZN19ConsumerProducerCPP16ProducerKeyboradD0Ev:0000000000000018 .LBB79
     /tmp/ccTuhaHZ.s:555    .text._ZN19ConsumerProducerCPP16ProducerKeyboradD0Ev:000000000000002c .LBE79
     /tmp/ccTuhaHZ.s:7554   .debug_loc:0000000000000107 .LLST17
     /tmp/ccTuhaHZ.s:553    .text._ZN19ConsumerProducerCPP16ProducerKeyboradD0Ev:000000000000002c .LVL58
     /tmp/ccTuhaHZ.s:558    .text._ZN19ConsumerProducerCPP16ProducerKeyboradD0Ev:0000000000000038 .LVL59
     /tmp/ccTuhaHZ.s:8814   .debug_str:000000000000085b .LASF103
     /tmp/ccTuhaHZ.s:494    .text._ZN19ConsumerProducerCPP16ProducerKeyboradD2Ev:0000000000000000 .LFB52
     /tmp/ccTuhaHZ.s:522    .text._ZN19ConsumerProducerCPP16ProducerKeyboradD2Ev:0000000000000034 .LFE52
     /tmp/ccTuhaHZ.s:7565   .debug_loc:000000000000013d .LLST15
GAS LISTING /tmp/ccTuhaHZ.s 			page 87


     /tmp/ccTuhaHZ.s:511    .text._ZN19ConsumerProducerCPP16ProducerKeyboradD2Ev:0000000000000024 .LVL55
     /tmp/ccTuhaHZ.s:8900   .debug_str:0000000000000ba3 .LASF104
     /tmp/ccTuhaHZ.s:615    .text._ZN19ConsumerProducerCPP8ProducerD0Ev:0000000000000000 .LFB50
     /tmp/ccTuhaHZ.s:655    .text._ZN19ConsumerProducerCPP8ProducerD0Ev:000000000000004c .LFE50
     /tmp/ccTuhaHZ.s:7579   .debug_loc:0000000000000176 .LLST19
     /tmp/ccTuhaHZ.s:631    .text._ZN19ConsumerProducerCPP8ProducerD0Ev:0000000000000018 .LBB82
     /tmp/ccTuhaHZ.s:639    .text._ZN19ConsumerProducerCPP8ProducerD0Ev:000000000000002c .LBE82
     /tmp/ccTuhaHZ.s:7597   .debug_loc:00000000000001c2 .LLST20
     /tmp/ccTuhaHZ.s:637    .text._ZN19ConsumerProducerCPP8ProducerD0Ev:000000000000002c .LVL65
     /tmp/ccTuhaHZ.s:642    .text._ZN19ConsumerProducerCPP8ProducerD0Ev:0000000000000038 .LVL66
     /tmp/ccTuhaHZ.s:8712   .debug_str:00000000000004a0 .LASF105
     /tmp/ccTuhaHZ.s:578    .text._ZN19ConsumerProducerCPP8ProducerD2Ev:0000000000000000 .LFB48
     /tmp/ccTuhaHZ.s:606    .text._ZN19ConsumerProducerCPP8ProducerD2Ev:0000000000000034 .LFE48
     /tmp/ccTuhaHZ.s:7608   .debug_loc:00000000000001f8 .LLST18
     /tmp/ccTuhaHZ.s:595    .text._ZN19ConsumerProducerCPP8ProducerD2Ev:0000000000000024 .LVL62
     /tmp/ccTuhaHZ.s:8880   .debug_str:0000000000000a89 .LASF106
     /tmp/ccTuhaHZ.s:447    .text._ZN19ConsumerProducerCPP8ConsumerD0Ev:0000000000000000 .LFB46
     /tmp/ccTuhaHZ.s:487    .text._ZN19ConsumerProducerCPP8ConsumerD0Ev:000000000000004c .LFE46
     /tmp/ccTuhaHZ.s:7622   .debug_loc:0000000000000231 .LLST13
     /tmp/ccTuhaHZ.s:463    .text._ZN19ConsumerProducerCPP8ConsumerD0Ev:0000000000000018 .LBB76
     /tmp/ccTuhaHZ.s:471    .text._ZN19ConsumerProducerCPP8ConsumerD0Ev:000000000000002c .LBE76
     /tmp/ccTuhaHZ.s:7640   .debug_loc:000000000000027d .LLST14
     /tmp/ccTuhaHZ.s:469    .text._ZN19ConsumerProducerCPP8ConsumerD0Ev:000000000000002c .LVL51
     /tmp/ccTuhaHZ.s:474    .text._ZN19ConsumerProducerCPP8ConsumerD0Ev:0000000000000038 .LVL52
     /tmp/ccTuhaHZ.s:8776   .debug_str:0000000000000756 .LASF107
     /tmp/ccTuhaHZ.s:410    .text._ZN19ConsumerProducerCPP8ConsumerD2Ev:0000000000000000 .LFB44
     /tmp/ccTuhaHZ.s:438    .text._ZN19ConsumerProducerCPP8ConsumerD2Ev:0000000000000034 .LFE44
     /tmp/ccTuhaHZ.s:7651   .debug_loc:00000000000002b3 .LLST12
     /tmp/ccTuhaHZ.s:427    .text._ZN19ConsumerProducerCPP8ConsumerD2Ev:0000000000000024 .LVL48
     /tmp/ccTuhaHZ.s:8798   .debug_str:0000000000000805 .LASF108
     /tmp/ccTuhaHZ.s:8716   .debug_str:00000000000004d0 .LASF110
     /tmp/ccTuhaHZ.s:2606   .text:0000000000000b20 .LFB42
     /tmp/ccTuhaHZ.s:2636   .text:0000000000000b50 .LFE42
     /tmp/ccTuhaHZ.s:2621   .text:0000000000000b38 .LVL298
     /tmp/ccTuhaHZ.s:2625   .text:0000000000000b40 .LVL299
     /tmp/ccTuhaHZ.s:8660   .debug_str:00000000000002f8 .LASF111
     /tmp/ccTuhaHZ.s:8618   .debug_str:00000000000000c4 .LASF112
     /tmp/ccTuhaHZ.s:2585   .text:0000000000000b20 .LFE38
     /tmp/ccTuhaHZ.s:8672   .debug_str:0000000000000368 .LASF113
     /tmp/ccTuhaHZ.s:2493   .text:0000000000000a74 .LBB124
     /tmp/ccTuhaHZ.s:2510   .text:0000000000000a9c .LBE124
     /tmp/ccTuhaHZ.s:7665   .debug_loc:00000000000002ec .LLST69
     /tmp/ccTuhaHZ.s:7673   .debug_loc:0000000000000310 .LLST70
     /tmp/ccTuhaHZ.s:2501   .text:0000000000000a84 .LVL287
     /tmp/ccTuhaHZ.s:2520   .text:0000000000000aa8 .LBB127
     /tmp/ccTuhaHZ.s:2527   .text:0000000000000aac .LBE127
     /tmp/ccTuhaHZ.s:7684   .debug_loc:0000000000000346 .LLST71
     /tmp/ccTuhaHZ.s:2542   .text:0000000000000acc .LBB129
     /tmp/ccTuhaHZ.s:2551   .text:0000000000000ae4 .LBE129
     /tmp/ccTuhaHZ.s:7691   .debug_loc:0000000000000369 .LLST72
     /tmp/ccTuhaHZ.s:2549   .text:0000000000000ae4 .LVL293
     /tmp/ccTuhaHZ.s:2568   .text:0000000000000afc .LBB131
     /tmp/ccTuhaHZ.s:2583   .text:0000000000000b20 .LBE131
     /tmp/ccTuhaHZ.s:7698   .debug_loc:000000000000038c .LLST73
     /tmp/ccTuhaHZ.s:2576   .text:0000000000000b14 .LVL296
     /tmp/ccTuhaHZ.s:2516   .text:0000000000000aa8 .LVL289
     /tmp/ccTuhaHZ.s:2533   .text:0000000000000ab8 .LVL291
GAS LISTING /tmp/ccTuhaHZ.s 			page 88


     /tmp/ccTuhaHZ.s:2540   .text:0000000000000acc .LVL292
     /tmp/ccTuhaHZ.s:2580   .text:0000000000000b20 .LVL297
     /tmp/ccTuhaHZ.s:1233   .text._ZN10ForkThread3runEv:0000000000000220 .LFE36
     /tmp/ccTuhaHZ.s:7713   .debug_loc:00000000000003d5 .LLST28
     /tmp/ccTuhaHZ.s:7731   .debug_loc:0000000000000421 .LLST29
     /tmp/ccTuhaHZ.s:8830   .debug_str:00000000000008e0 .LASF114
     /tmp/ccTuhaHZ.s:7738   .debug_loc:0000000000000444 .LLST30
     /tmp/ccTuhaHZ.s:1005   .text._ZN10ForkThread3runEv:00000000000000b0 .LBB91
     /tmp/ccTuhaHZ.s:1050   .text._ZN10ForkThread3runEv:0000000000000108 .LBE91
     /tmp/ccTuhaHZ.s:7749   .debug_loc:000000000000047a .LLST33
     /tmp/ccTuhaHZ.s:1036   .text._ZN10ForkThread3runEv:00000000000000e8 .LBB92
     /tmp/ccTuhaHZ.s:1047   .text._ZN10ForkThread3runEv:0000000000000104 .LBE92
     /tmp/ccTuhaHZ.s:7756   .debug_loc:000000000000049d .LLST34
     /tmp/ccTuhaHZ.s:7763   .debug_loc:00000000000004c0 .LLST35
     /tmp/ccTuhaHZ.s:1040   .text._ZN10ForkThread3runEv:00000000000000f0 .LVL110
     /tmp/ccTuhaHZ.s:1029   .text._ZN10ForkThread3runEv:00000000000000dc .LVL108
     /tmp/ccTuhaHZ.s:7770   .debug_loc:00000000000004e3 .LLST36
     /tmp/ccTuhaHZ.s:7777   .debug_loc:0000000000000506 .LLST37
     /tmp/ccTuhaHZ.s:1077   .text._ZN10ForkThread3runEv:0000000000000130 .LVL115
     /tmp/ccTuhaHZ.s:1153   .text._ZN10ForkThread3runEv:0000000000000184 .LBB109
     /tmp/ccTuhaHZ.s:1177   .text._ZN10ForkThread3runEv:00000000000001b0 .LBE109
     /tmp/ccTuhaHZ.s:7788   .debug_loc:000000000000053c .LLST39
     /tmp/ccTuhaHZ.s:978    .text._ZN10ForkThread3runEv:000000000000007c .LBB87
     /tmp/ccTuhaHZ.s:990    .text._ZN10ForkThread3runEv:0000000000000098 .LBE87
     /tmp/ccTuhaHZ.s:7795   .debug_loc:000000000000055f .LLST31
     /tmp/ccTuhaHZ.s:7802   .debug_loc:0000000000000582 .LLST32
     /tmp/ccTuhaHZ.s:982    .text._ZN10ForkThread3runEv:0000000000000084 .LVL102
     /tmp/ccTuhaHZ.s:1108   .text._ZN10ForkThread3runEv:0000000000000158 .LBB104
     /tmp/ccTuhaHZ.s:1115   .text._ZN10ForkThread3runEv:000000000000015c .LBE104
     /tmp/ccTuhaHZ.s:7813   .debug_loc:00000000000005b8 .LLST38
     /tmp/ccTuhaHZ.s:952    .text._ZN10ForkThread3runEv:000000000000003c .LVL97
     /tmp/ccTuhaHZ.s:959    .text._ZN10ForkThread3runEv:0000000000000050 .LVL98
     /tmp/ccTuhaHZ.s:964    .text._ZN10ForkThread3runEv:0000000000000060 .LVL99
     /tmp/ccTuhaHZ.s:969    .text._ZN10ForkThread3runEv:000000000000006c .LVL100
     /tmp/ccTuhaHZ.s:998    .text._ZN10ForkThread3runEv:00000000000000a8 .LVL104
     /tmp/ccTuhaHZ.s:1061   .text._ZN10ForkThread3runEv:0000000000000118 .LVL112
     /tmp/ccTuhaHZ.s:1121   .text._ZN10ForkThread3runEv:0000000000000168 .LVL121
     /tmp/ccTuhaHZ.s:1134   .text._ZN10ForkThread3runEv:000000000000017c .LVL123
     /tmp/ccTuhaHZ.s:1182   .text._ZN10ForkThread3runEv:00000000000001bc .LVL127
     /tmp/ccTuhaHZ.s:1190   .text._ZN10ForkThread3runEv:00000000000001cc .LVL128
     /tmp/ccTuhaHZ.s:1197   .text._ZN10ForkThread3runEv:00000000000001e0 .LVL129
     /tmp/ccTuhaHZ.s:1202   .text._ZN10ForkThread3runEv:00000000000001f0 .LVL130
     /tmp/ccTuhaHZ.s:8704   .debug_str:000000000000045b .LASF120
     /tmp/ccTuhaHZ.s:2394   .text:0000000000000a60 .LFE32
     /tmp/ccTuhaHZ.s:8670   .debug_str:0000000000000362 .LASF115
     /tmp/ccTuhaHZ.s:7820   .debug_loc:00000000000005db .LLST54
     /tmp/ccTuhaHZ.s:8806   .debug_str:0000000000000832 .LASF116
     /tmp/ccTuhaHZ.s:7831   .debug_loc:0000000000000611 .LLST55
     /tmp/ccTuhaHZ.s:7850   .debug_loc:000000000000066d .LLST56
     /tmp/ccTuhaHZ.s:8870   .debug_str:0000000000000a2d .LASF117
     /tmp/ccTuhaHZ.s:7861   .debug_loc:00000000000006a3 .LLST57
     /tmp/ccTuhaHZ.s:8760   .debug_str:00000000000006c0 .LASF118
     /tmp/ccTuhaHZ.s:7879   .debug_loc:00000000000006ef .LLST58
     /tmp/ccTuhaHZ.s:8912   .debug_str:0000000000000c29 .LASF119
     /tmp/ccTuhaHZ.s:7892   .debug_loc:0000000000000727 .LLST59
     /tmp/ccTuhaHZ.s:7903   .debug_loc:000000000000075d .LLST64
     /tmp/ccTuhaHZ.s:2142   .text:0000000000000874 .LBB116
GAS LISTING /tmp/ccTuhaHZ.s 			page 89


     /tmp/ccTuhaHZ.s:7914   .debug_loc:0000000000000793 .LLST65
     /tmp/ccTuhaHZ.s:7929   .debug_loc:00000000000007dc .LLST66
     /tmp/ccTuhaHZ.s:2201   .text:00000000000008f4 .LVL252
     /tmp/ccTuhaHZ.s:2160   .text:000000000000089c .LVL248
     /tmp/ccTuhaHZ.s:2185   .text:00000000000008d4 .LVL250
     /tmp/ccTuhaHZ.s:2386   .text:0000000000000a54 .LVL283
     /tmp/ccTuhaHZ.s:7948   .debug_loc:0000000000000838 .LLST67
     /tmp/ccTuhaHZ.s:2225   .text:0000000000000918 .LVL256
     /tmp/ccTuhaHZ.s:2252   .text:0000000000000940 .LBB122
     /tmp/ccTuhaHZ.s:2273   .text:0000000000000968 .LBE122
     /tmp/ccTuhaHZ.s:7959   .debug_loc:000000000000086e .LLST68
     /tmp/ccTuhaHZ.s:7966   .debug_loc:0000000000000891 .LLST51
     /tmp/ccTuhaHZ.s:8011   .debug_loc:00000000000008f8 .LLST53
     /tmp/ccTuhaHZ.s:2073   .text:00000000000007f8 .LBB111
     /tmp/ccTuhaHZ.s:2086   .text:0000000000000810 .LBE111
     /tmp/ccTuhaHZ.s:8056   .debug_loc:000000000000095f .LLST60
     /tmp/ccTuhaHZ.s:8083   .debug_loc:00000000000009b4 .LLST61
     /tmp/ccTuhaHZ.s:2077   .text:0000000000000800 .LVL238
     /tmp/ccTuhaHZ.s:2114   .text:0000000000000844 .LBB113
     /tmp/ccTuhaHZ.s:2127   .text:000000000000085c .LBE113
     /tmp/ccTuhaHZ.s:8098   .debug_loc:00000000000009fd .LLST62
     /tmp/ccTuhaHZ.s:8109   .debug_loc:0000000000000a33 .LLST63
     /tmp/ccTuhaHZ.s:2118   .text:000000000000084c .LVL243
     /tmp/ccTuhaHZ.s:1899   .text:0000000000000650 .LVL210
     /tmp/ccTuhaHZ.s:1906   .text:0000000000000664 .LVL211
     /tmp/ccTuhaHZ.s:1911   .text:0000000000000670 .LVL212
     /tmp/ccTuhaHZ.s:1918   .text:0000000000000684 .LVL214
     /tmp/ccTuhaHZ.s:1924   .text:0000000000000694 .LVL215
     /tmp/ccTuhaHZ.s:1929   .text:00000000000006a0 .LVL216
     /tmp/ccTuhaHZ.s:1936   .text:00000000000006b4 .LVL218
     /tmp/ccTuhaHZ.s:1943   .text:00000000000006c8 .LVL219
     /tmp/ccTuhaHZ.s:1948   .text:00000000000006d8 .LVL220
     /tmp/ccTuhaHZ.s:1955   .text:00000000000006ec .LVL221
     /tmp/ccTuhaHZ.s:1960   .text:00000000000006fc .LVL222
     /tmp/ccTuhaHZ.s:1969   .text:0000000000000710 .LVL223
     /tmp/ccTuhaHZ.s:1977   .text:0000000000000724 .LVL224
     /tmp/ccTuhaHZ.s:1986   .text:0000000000000738 .LVL225
     /tmp/ccTuhaHZ.s:1994   .text:000000000000074c .LVL226
     /tmp/ccTuhaHZ.s:2005   .text:0000000000000760 .LVL228
     /tmp/ccTuhaHZ.s:2014   .text:0000000000000774 .LVL230
     /tmp/ccTuhaHZ.s:2062   .text:00000000000007e0 .LVL236
     /tmp/ccTuhaHZ.s:2092   .text:000000000000081c .LVL240
     /tmp/ccTuhaHZ.s:2107   .text:000000000000083c .LVL241
     /tmp/ccTuhaHZ.s:2135   .text:000000000000086c .LVL245
     /tmp/ccTuhaHZ.s:2213   .text:0000000000000900 .LVL254
     /tmp/ccTuhaHZ.s:2282   .text:000000000000097c .LVL264
     /tmp/ccTuhaHZ.s:2290   .text:000000000000098c .LVL265
     /tmp/ccTuhaHZ.s:2293   .text:0000000000000998 .LVL266
     /tmp/ccTuhaHZ.s:2337   .text:00000000000009e4 .LVL271
     /tmp/ccTuhaHZ.s:2341   .text:00000000000009f0 .LVL272
     /tmp/ccTuhaHZ.s:2349   .text:0000000000000a00 .LVL274
     /tmp/ccTuhaHZ.s:2353   .text:0000000000000a0c .LVL275
     /tmp/ccTuhaHZ.s:2361   .text:0000000000000a1c .LVL277
     /tmp/ccTuhaHZ.s:2365   .text:0000000000000a28 .LVL278
     /tmp/ccTuhaHZ.s:2373   .text:0000000000000a38 .LVL280
     /tmp/ccTuhaHZ.s:2377   .text:0000000000000a44 .LVL281
     /tmp/ccTuhaHZ.s:2390   .text:0000000000000a60 .LVL284
GAS LISTING /tmp/ccTuhaHZ.s 			page 90


     /tmp/ccTuhaHZ.s:285    .text._ZN19ConsumerProducerCPP8Consumer3runEv:0000000000000000 .LFB31
     /tmp/ccTuhaHZ.s:403    .text._ZN19ConsumerProducerCPP8Consumer3runEv:00000000000000d0 .LFE31
     /tmp/ccTuhaHZ.s:8120   .debug_loc:0000000000000a69 .LLST8
     /tmp/ccTuhaHZ.s:8138   .debug_loc:0000000000000ab5 .LLST9
     /tmp/ccTuhaHZ.s:8158   .debug_loc:0000000000000b12 .LLST10
     /tmp/ccTuhaHZ.s:317    .text._ZN19ConsumerProducerCPP8Consumer3runEv:0000000000000034 .LVL34
     /tmp/ccTuhaHZ.s:331    .text._ZN19ConsumerProducerCPP8Consumer3runEv:0000000000000050 .LVL35
     /tmp/ccTuhaHZ.s:342    .text._ZN19ConsumerProducerCPP8Consumer3runEv:0000000000000064 .LVL38
     /tmp/ccTuhaHZ.s:353    .text._ZN19ConsumerProducerCPP8Consumer3runEv:0000000000000074 .LBB74
     /tmp/ccTuhaHZ.s:368    .text._ZN19ConsumerProducerCPP8Consumer3runEv:0000000000000090 .LBE74
     /tmp/ccTuhaHZ.s:8165   .debug_loc:0000000000000b35 .LLST11
     /tmp/ccTuhaHZ.s:360    .text._ZN19ConsumerProducerCPP8Consumer3runEv:0000000000000084 .LVL40
     /tmp/ccTuhaHZ.s:366    .text._ZN19ConsumerProducerCPP8Consumer3runEv:0000000000000090 .LVL42
     /tmp/ccTuhaHZ.s:376    .text._ZN19ConsumerProducerCPP8Consumer3runEv:00000000000000a0 .LVL43
     /tmp/ccTuhaHZ.s:384    .text._ZN19ConsumerProducerCPP8Consumer3runEv:00000000000000b4 .LVL44
     /tmp/ccTuhaHZ.s:8596   .debug_str:0000000000000000 .LASF121
     /tmp/ccTuhaHZ.s:827    .text._ZN19ConsumerProducerCPP8Producer3runEv:0000000000000000 .LFB27
     /tmp/ccTuhaHZ.s:905    .text._ZN19ConsumerProducerCPP8Producer3runEv:0000000000000094 .LFE27
     /tmp/ccTuhaHZ.s:8172   .debug_loc:0000000000000b58 .LLST26
     /tmp/ccTuhaHZ.s:8190   .debug_loc:0000000000000ba4 .LLST27
     /tmp/ccTuhaHZ.s:862    .text._ZN19ConsumerProducerCPP8Producer3runEv:0000000000000044 .LVL89
     /tmp/ccTuhaHZ.s:879    .text._ZN19ConsumerProducerCPP8Producer3runEv:0000000000000068 .LVL91
     /tmp/ccTuhaHZ.s:888    .text._ZN19ConsumerProducerCPP8Producer3runEv:000000000000007c .LVL92
     /tmp/ccTuhaHZ.s:8846   .debug_str:000000000000095d .LASF122
     /tmp/ccTuhaHZ.s:747    .text._ZN19ConsumerProducerCPP16ProducerKeyborad3runEv:0000000000000000 .LFB23
     /tmp/ccTuhaHZ.s:820    .text._ZN19ConsumerProducerCPP16ProducerKeyborad3runEv:0000000000000084 .LFE23
     /tmp/ccTuhaHZ.s:8210   .debug_loc:0000000000000c01 .LLST24
     /tmp/ccTuhaHZ.s:8228   .debug_loc:0000000000000c4d .LLST25
     /tmp/ccTuhaHZ.s:770    .text._ZN19ConsumerProducerCPP16ProducerKeyborad3runEv:0000000000000020 .LVL77
     /tmp/ccTuhaHZ.s:782    .text._ZN19ConsumerProducerCPP16ProducerKeyborad3runEv:000000000000003c .LVL79
     /tmp/ccTuhaHZ.s:800    .text._ZN19ConsumerProducerCPP16ProducerKeyborad3runEv:0000000000000060 .LVL83
     /tmp/ccTuhaHZ.s:806    .text._ZN19ConsumerProducerCPP16ProducerKeyborad3runEv:0000000000000070 .LVL84
     /tmp/ccTuhaHZ.s:8886   .debug_str:0000000000000ad0 .LASF123
     /tmp/ccTuhaHZ.s:8686   .debug_str:00000000000003b2 .LASF124
     /tmp/ccTuhaHZ.s:8708   .debug_str:0000000000000481 .LASF125
     /tmp/ccTuhaHZ.s:1709   .text:00000000000004dc .LFB17
     /tmp/ccTuhaHZ.s:1830   .text:0000000000000608 .LFE17
     /tmp/ccTuhaHZ.s:1791   .text:00000000000005cc .LBB110
     /tmp/ccTuhaHZ.s:1816   .text:00000000000005f4 .LBE110
     /tmp/ccTuhaHZ.s:8243   .debug_loc:0000000000000c96 .LLST48
     /tmp/ccTuhaHZ.s:8844   .debug_str:0000000000000951 .LASF126
     /tmp/ccTuhaHZ.s:8868   .debug_str:0000000000000a21 .LASF168
     /tmp/ccTuhaHZ.s:8254   .debug_loc:0000000000000ccc .LLST49
     /tmp/ccTuhaHZ.s:8780   .debug_str:0000000000000781 .LASF127
     /tmp/ccTuhaHZ.s:1812   .text:00000000000005f0 .LVL207
     /tmp/ccTuhaHZ.s:1729   .text:0000000000000508 .LVL195
     /tmp/ccTuhaHZ.s:1734   .text:0000000000000518 .LVL196
     /tmp/ccTuhaHZ.s:1741   .text:0000000000000530 .LVL197
     /tmp/ccTuhaHZ.s:1746   .text:0000000000000540 .LVL198
     /tmp/ccTuhaHZ.s:1753   .text:0000000000000558 .LVL199
     /tmp/ccTuhaHZ.s:1758   .text:0000000000000568 .LVL200
     /tmp/ccTuhaHZ.s:1765   .text:0000000000000580 .LVL201
     /tmp/ccTuhaHZ.s:1770   .text:0000000000000590 .LVL202
     /tmp/ccTuhaHZ.s:1776   .text:000000000000059c .LVL203
     /tmp/ccTuhaHZ.s:8804   .debug_str:0000000000000826 .LASF128
     /tmp/ccTuhaHZ.s:8920   .debug_str:0000000000000c74 .LASF129
     /tmp/ccTuhaHZ.s:1540   .text:0000000000000394 .LFB16
GAS LISTING /tmp/ccTuhaHZ.s 			page 91


     /tmp/ccTuhaHZ.s:1689   .text:00000000000004dc .LFE16
     /tmp/ccTuhaHZ.s:8261   .debug_loc:0000000000000cef .LLST45
     /tmp/ccTuhaHZ.s:8275   .debug_loc:0000000000000d28 .LLST46
     /tmp/ccTuhaHZ.s:8934   .debug_str:0000000000000d16 .LASF130
     /tmp/ccTuhaHZ.s:8295   .debug_loc:0000000000000d85 .LLST47
     /tmp/ccTuhaHZ.s:1567   .text:00000000000003c4 .LVL173
     /tmp/ccTuhaHZ.s:1574   .text:00000000000003d8 .LVL174
     /tmp/ccTuhaHZ.s:1579   .text:00000000000003e8 .LVL175
     /tmp/ccTuhaHZ.s:1594   .text:0000000000000408 .LVL178
     /tmp/ccTuhaHZ.s:1605   .text:0000000000000414 .LVL179
     /tmp/ccTuhaHZ.s:1610   .text:0000000000000420 .LVL180
     /tmp/ccTuhaHZ.s:1618   .text:0000000000000434 .LVL183
     /tmp/ccTuhaHZ.s:1625   .text:0000000000000448 .LVL184
     /tmp/ccTuhaHZ.s:1630   .text:0000000000000458 .LVL185
     /tmp/ccTuhaHZ.s:1637   .text:000000000000046c .LVL186
     /tmp/ccTuhaHZ.s:1644   .text:0000000000000480 .LVL187
     /tmp/ccTuhaHZ.s:1649   .text:0000000000000490 .LVL188
     /tmp/ccTuhaHZ.s:1664   .text:00000000000004b0 .LVL191
     /tmp/ccTuhaHZ.s:1672   .text:00000000000004c4 .LVL192
     /tmp/ccTuhaHZ.s:8802   .debug_str:000000000000081a .LASF131
     /tmp/ccTuhaHZ.s:8636   .debug_str:000000000000022d .LASF132
     /tmp/ccTuhaHZ.s:1345   .text:0000000000000214 .LFB15
     /tmp/ccTuhaHZ.s:1520   .text:0000000000000394 .LFE15
     /tmp/ccTuhaHZ.s:8306   .debug_loc:0000000000000dbb .LLST41
     /tmp/ccTuhaHZ.s:8320   .debug_loc:0000000000000df4 .LLST42
     /tmp/ccTuhaHZ.s:8340   .debug_loc:0000000000000e51 .LLST43
     /tmp/ccTuhaHZ.s:8348   .debug_loc:0000000000000e75 .LLST44
     /tmp/ccTuhaHZ.s:1372   .text:0000000000000244 .LVL144
     /tmp/ccTuhaHZ.s:1379   .text:0000000000000258 .LVL145
     /tmp/ccTuhaHZ.s:1384   .text:0000000000000268 .LVL146
     /tmp/ccTuhaHZ.s:1399   .text:0000000000000288 .LVL149
     /tmp/ccTuhaHZ.s:1410   .text:0000000000000294 .LVL150
     /tmp/ccTuhaHZ.s:1424   .text:00000000000002a8 .LVL152
     /tmp/ccTuhaHZ.s:1431   .text:00000000000002bc .LVL153
     /tmp/ccTuhaHZ.s:1436   .text:00000000000002cc .LVL154
     /tmp/ccTuhaHZ.s:1441   .text:00000000000002d8 .LVL155
     /tmp/ccTuhaHZ.s:1449   .text:00000000000002ec .LVL158
     /tmp/ccTuhaHZ.s:1456   .text:0000000000000300 .LVL159
     /tmp/ccTuhaHZ.s:1461   .text:0000000000000310 .LVL160
     /tmp/ccTuhaHZ.s:1468   .text:0000000000000324 .LVL161
     /tmp/ccTuhaHZ.s:1475   .text:0000000000000338 .LVL162
     /tmp/ccTuhaHZ.s:1480   .text:0000000000000348 .LVL163
     /tmp/ccTuhaHZ.s:1495   .text:0000000000000368 .LVL166
     /tmp/ccTuhaHZ.s:1503   .text:000000000000037c .LVL167
     /tmp/ccTuhaHZ.s:8800   .debug_str:000000000000080e .LASF133
     /tmp/ccTuhaHZ.s:8706   .debug_str:000000000000046f .LASF134
     /tmp/ccTuhaHZ.s:155    .text:00000000000000cc .LFB14
     /tmp/ccTuhaHZ.s:278    .text:00000000000001a0 .LFE14
     /tmp/ccTuhaHZ.s:8359   .debug_loc:0000000000000eab .LLST4
     /tmp/ccTuhaHZ.s:173    .text:00000000000000e4 .LBB64
     /tmp/ccTuhaHZ.s:249    .text:0000000000000164 .LBE64
     /tmp/ccTuhaHZ.s:8373   .debug_loc:0000000000000ee4 .LLST5
     /tmp/ccTuhaHZ.s:8385   .debug_loc:0000000000000f1b .LLST6
     /tmp/ccTuhaHZ.s:196    .text:0000000000000104 .LBB68
     /tmp/ccTuhaHZ.s:211    .text:000000000000011c .LBE68
     /tmp/ccTuhaHZ.s:8397   .debug_loc:0000000000000f52 .LLST7
     /tmp/ccTuhaHZ.s:185    .text:00000000000000f4 .LVL18
GAS LISTING /tmp/ccTuhaHZ.s 			page 92


     /tmp/ccTuhaHZ.s:227    .text:0000000000000138 .LVL24
     /tmp/ccTuhaHZ.s:234    .text:000000000000014c .LVL25
     /tmp/ccTuhaHZ.s:239    .text:000000000000015c .LVL26
     /tmp/ccTuhaHZ.s:254    .text:0000000000000174 .LVL28
     /tmp/ccTuhaHZ.s:262    .text:0000000000000188 .LVL29
     /tmp/ccTuhaHZ.s:8888   .debug_str:0000000000000b10 .LASF135
     /tmp/ccTuhaHZ.s:8766   .debug_str:00000000000006e0 .LASF136
     /tmp/ccTuhaHZ.s:21     .text:0000000000000000 .LFB13
     /tmp/ccTuhaHZ.s:141    .text:00000000000000cc .LFE13
     /tmp/ccTuhaHZ.s:8408   .debug_loc:0000000000000f88 .LLST0
     /tmp/ccTuhaHZ.s:40     .text:0000000000000018 .LBB56
     /tmp/ccTuhaHZ.s:116    .text:0000000000000098 .LBE56
     /tmp/ccTuhaHZ.s:8422   .debug_loc:0000000000000fc1 .LLST1
     /tmp/ccTuhaHZ.s:8434   .debug_loc:0000000000000ff8 .LLST2
     /tmp/ccTuhaHZ.s:63     .text:0000000000000038 .LBB60
     /tmp/ccTuhaHZ.s:78     .text:0000000000000050 .LBE60
     /tmp/ccTuhaHZ.s:8446   .debug_loc:000000000000102f .LLST3
     /tmp/ccTuhaHZ.s:52     .text:0000000000000028 .LVL3
     /tmp/ccTuhaHZ.s:94     .text:000000000000006c .LVL9
     /tmp/ccTuhaHZ.s:101    .text:0000000000000080 .LVL10
     /tmp/ccTuhaHZ.s:106    .text:0000000000000090 .LVL11
     /tmp/ccTuhaHZ.s:121    .text:00000000000000a8 .LVL13
     /tmp/ccTuhaHZ.s:8696   .debug_str:00000000000003fc .LASF169
     /tmp/ccTuhaHZ.s:8692   .debug_str:00000000000003de .LASF170
     /tmp/ccTuhaHZ.s:1260   .text:00000000000001a0 .LFB12
     /tmp/ccTuhaHZ.s:1325   .text:0000000000000214 .LFE12
     /tmp/ccTuhaHZ.s:8457   .debug_loc:0000000000001065 .LLST40
     /tmp/ccTuhaHZ.s:1292   .text:00000000000001dc .LVL136
     /tmp/ccTuhaHZ.s:1297   .text:00000000000001ec .LVL137
     /tmp/ccTuhaHZ.s:1322   .text:0000000000000210 .LVL140
     /tmp/ccTuhaHZ.s:8786   .debug_str:00000000000007a8 .LASF137
     /tmp/ccTuhaHZ.s:8616   .debug_str:00000000000000af .LASF138
     /tmp/ccTuhaHZ.s:8858   .debug_str:00000000000009f1 .LASF139
     /tmp/ccTuhaHZ.s:8648   .debug_str:00000000000002a5 .LASF140
     /tmp/ccTuhaHZ.s:8924   .debug_str:0000000000000cac .LASF141
     /tmp/ccTuhaHZ.s:8926   .debug_str:0000000000000cb8 .LASF171
     /tmp/ccTuhaHZ.s:8700   .debug_str:0000000000000435 .LASF172
     /tmp/ccTuhaHZ.s:8682   .debug_str:000000000000039d .LASF142
     /tmp/ccTuhaHZ.s:8754   .debug_str:00000000000006a0 .LASF143
     /tmp/ccTuhaHZ.s:8650   .debug_str:00000000000002b8 .LASF144
     /tmp/ccTuhaHZ.s:8914   .debug_str:0000000000000c32 .LASF145
     /tmp/ccTuhaHZ.s:8680   .debug_str:000000000000038f .LASF146
     /tmp/ccTuhaHZ.s:8764   .debug_str:00000000000006d6 .LASF147
     /tmp/ccTuhaHZ.s:8812   .debug_str:000000000000084d .LASF148
     /tmp/ccTuhaHZ.s:8862   .debug_str:0000000000000a08 .LASF149
     /tmp/ccTuhaHZ.s:8598   .debug_str:0000000000000037 .LASF150
     /tmp/ccTuhaHZ.s:8782   .debug_str:000000000000078b .LASF151
     /tmp/ccTuhaHZ.s:8750   .debug_str:0000000000000685 .LASF152
     /tmp/ccTuhaHZ.s:8614   .debug_str:00000000000000a3 .LASF153
     /tmp/ccTuhaHZ.s:8906   .debug_str:0000000000000bfb .LASF154
     /tmp/ccTuhaHZ.s:8916   .debug_str:0000000000000c3b .LASF156
     /tmp/ccTuhaHZ.s:8854   .debug_str:00000000000009d7 .LASF157
     /tmp/ccTuhaHZ.s:703    .text._ZN10ForkThreadD0Ev:0000000000000000 .LVL70
     /tmp/ccTuhaHZ.s:735    .text._ZN10ForkThreadD0Ev:0000000000000044 .LVL74
     /tmp/ccTuhaHZ.s:715    .text._ZN10ForkThreadD0Ev:0000000000000018 .LVL71
     /tmp/ccTuhaHZ.s:666    .text._ZN10ForkThreadD2Ev:0000000000000000 .LVL68
     /tmp/ccTuhaHZ.s:534    .text._ZN19ConsumerProducerCPP16ProducerKeyboradD0Ev:0000000000000000 .LVL56
GAS LISTING /tmp/ccTuhaHZ.s 			page 93


     /tmp/ccTuhaHZ.s:566    .text._ZN19ConsumerProducerCPP16ProducerKeyboradD0Ev:0000000000000044 .LVL60
     /tmp/ccTuhaHZ.s:546    .text._ZN19ConsumerProducerCPP16ProducerKeyboradD0Ev:0000000000000018 .LVL57
     /tmp/ccTuhaHZ.s:497    .text._ZN19ConsumerProducerCPP16ProducerKeyboradD2Ev:0000000000000000 .LVL54
     /tmp/ccTuhaHZ.s:618    .text._ZN19ConsumerProducerCPP8ProducerD0Ev:0000000000000000 .LVL63
     /tmp/ccTuhaHZ.s:650    .text._ZN19ConsumerProducerCPP8ProducerD0Ev:0000000000000044 .LVL67
     /tmp/ccTuhaHZ.s:630    .text._ZN19ConsumerProducerCPP8ProducerD0Ev:0000000000000018 .LVL64
     /tmp/ccTuhaHZ.s:581    .text._ZN19ConsumerProducerCPP8ProducerD2Ev:0000000000000000 .LVL61
     /tmp/ccTuhaHZ.s:450    .text._ZN19ConsumerProducerCPP8ConsumerD0Ev:0000000000000000 .LVL49
     /tmp/ccTuhaHZ.s:482    .text._ZN19ConsumerProducerCPP8ConsumerD0Ev:0000000000000044 .LVL53
     /tmp/ccTuhaHZ.s:462    .text._ZN19ConsumerProducerCPP8ConsumerD0Ev:0000000000000018 .LVL50
     /tmp/ccTuhaHZ.s:413    .text._ZN19ConsumerProducerCPP8ConsumerD2Ev:0000000000000000 .LVL47
     /tmp/ccTuhaHZ.s:2492   .text:0000000000000a74 .LVL285
     /tmp/ccTuhaHZ.s:2507   .text:0000000000000a9c .LVL288
     /tmp/ccTuhaHZ.s:2498   .text:0000000000000a78 .LVL286
     /tmp/ccTuhaHZ.s:2525   .text:0000000000000aac .LVL290
     /tmp/ccTuhaHZ.s:2567   .text:0000000000000afc .LVL294
     /tmp/ccTuhaHZ.s:2574   .text:0000000000000b0c .LVL295
     /tmp/ccTuhaHZ.s:924    .text._ZN10ForkThread3runEv:0000000000000000 .LVL95
     /tmp/ccTuhaHZ.s:949    .text._ZN10ForkThread3runEv:0000000000000034 .LVL96
     /tmp/ccTuhaHZ.s:1223   .text._ZN10ForkThread3runEv:0000000000000210 .LVL132
     /tmp/ccTuhaHZ.s:987    .text._ZN10ForkThread3runEv:0000000000000098 .LVL103
     /tmp/ccTuhaHZ.s:1220   .text._ZN10ForkThread3runEv:000000000000020c .LVL131
     /tmp/ccTuhaHZ.s:1000   .text._ZN10ForkThread3runEv:00000000000000ac .LVL105
     /tmp/ccTuhaHZ.s:1009   .text._ZN10ForkThread3runEv:00000000000000b8 .LVL106
     /tmp/ccTuhaHZ.s:1226   .text._ZN10ForkThread3runEv:0000000000000214 .LVL133
     /tmp/ccTuhaHZ.s:1063   .text._ZN10ForkThread3runEv:000000000000011c .LVL113
     /tmp/ccTuhaHZ.s:1035   .text._ZN10ForkThread3runEv:00000000000000e8 .LVL109
     /tmp/ccTuhaHZ.s:1045   .text._ZN10ForkThread3runEv:0000000000000104 .LVL111
     /tmp/ccTuhaHZ.s:1071   .text._ZN10ForkThread3runEv:0000000000000128 .LVL114
     /tmp/ccTuhaHZ.s:1124   .text._ZN10ForkThread3runEv:000000000000016c .LVL122
     /tmp/ccTuhaHZ.s:1092   .text._ZN10ForkThread3runEv:0000000000000144 .LVL117
     /tmp/ccTuhaHZ.s:1099   .text._ZN10ForkThread3runEv:0000000000000154 .LVL118
     /tmp/ccTuhaHZ.s:1144   .text._ZN10ForkThread3runEv:0000000000000184 .LVL124
     /tmp/ccTuhaHZ.s:977    .text._ZN10ForkThread3runEv:000000000000007c .LVL101
     /tmp/ccTuhaHZ.s:1107   .text._ZN10ForkThread3runEv:0000000000000158 .LVL119
     /tmp/ccTuhaHZ.s:1113   .text._ZN10ForkThread3runEv:000000000000015c .LVL120
     /tmp/ccTuhaHZ.s:1931   .text:00000000000006a4 .LVL217
     /tmp/ccTuhaHZ.s:2008   .text:0000000000000764 .LVL229
     /tmp/ccTuhaHZ.s:2329   .text:00000000000009d4 .LVL269
     /tmp/ccTuhaHZ.s:2333   .text:00000000000009d8 .LVL270
     /tmp/ccTuhaHZ.s:1913   .text:0000000000000674 .LVL213
     /tmp/ccTuhaHZ.s:2311   .text:00000000000009b0 .LVL268
     /tmp/ccTuhaHZ.s:2345   .text:00000000000009f4 .LVL273
     /tmp/ccTuhaHZ.s:2369   .text:0000000000000a2c .LVL279
     /tmp/ccTuhaHZ.s:2000   .text:0000000000000754 .LVL227
     /tmp/ccTuhaHZ.s:2297   .text:000000000000099c .LVL267
     /tmp/ccTuhaHZ.s:2028   .text:0000000000000794 .LVL232
     /tmp/ccTuhaHZ.s:2040   .text:00000000000007b0 .LVL234
     /tmp/ccTuhaHZ.s:2042   .text:00000000000007b4 .LVL235
     /tmp/ccTuhaHZ.s:2083   .text:0000000000000810 .LVL239
     /tmp/ccTuhaHZ.s:2140   .text:0000000000000874 .LVL246
     /tmp/ccTuhaHZ.s:2217   .text:0000000000000904 .LVL255
     /tmp/ccTuhaHZ.s:2381   .text:0000000000000a48 .LVL282
     /tmp/ccTuhaHZ.s:2148   .text:0000000000000884 .LVL247
     /tmp/ccTuhaHZ.s:2195   .text:00000000000008ec .LVL251
     /tmp/ccTuhaHZ.s:2204   .text:00000000000008f8 .LVL253
     /tmp/ccTuhaHZ.s:2228   .text:000000000000091c .LVL257
GAS LISTING /tmp/ccTuhaHZ.s 			page 94


     /tmp/ccTuhaHZ.s:2230   .text:0000000000000920 .LVL258
     /tmp/ccTuhaHZ.s:2247   .text:000000000000093c .LVL260
     /tmp/ccTuhaHZ.s:2249   .text:0000000000000940 .LVL261
     /tmp/ccTuhaHZ.s:2021   .text:0000000000000780 .LVL231
     /tmp/ccTuhaHZ.s:2032   .text:0000000000000798 .LVL233
     /tmp/ccTuhaHZ.s:2071   .text:00000000000007f8 .LVL237
     /tmp/ccTuhaHZ.s:2357   .text:0000000000000a10 .LVL276
     /tmp/ccTuhaHZ.s:2112   .text:0000000000000844 .LVL242
     /tmp/ccTuhaHZ.s:2124   .text:000000000000085c .LVL244
     /tmp/ccTuhaHZ.s:289    .text._ZN19ConsumerProducerCPP8Consumer3runEv:0000000000000000 .LVL31
     /tmp/ccTuhaHZ.s:310    .text._ZN19ConsumerProducerCPP8Consumer3runEv:0000000000000028 .LVL33
     /tmp/ccTuhaHZ.s:395    .text._ZN19ConsumerProducerCPP8Consumer3runEv:00000000000000c4 .LVL45
     /tmp/ccTuhaHZ.s:306    .text._ZN19ConsumerProducerCPP8Consumer3runEv:0000000000000020 .LVL32
     /tmp/ccTuhaHZ.s:336    .text._ZN19ConsumerProducerCPP8Consumer3runEv:0000000000000058 .LVL36
     /tmp/ccTuhaHZ.s:347    .text._ZN19ConsumerProducerCPP8Consumer3runEv:000000000000006c .LVL39
     /tmp/ccTuhaHZ.s:398    .text._ZN19ConsumerProducerCPP8Consumer3runEv:00000000000000c8 .LVL46
     /tmp/ccTuhaHZ.s:340    .text._ZN19ConsumerProducerCPP8Consumer3runEv:000000000000005c .LVL37
     /tmp/ccTuhaHZ.s:364    .text._ZN19ConsumerProducerCPP8Consumer3runEv:0000000000000088 .LVL41
     /tmp/ccTuhaHZ.s:830    .text._ZN19ConsumerProducerCPP8Producer3runEv:0000000000000000 .LVL86
     /tmp/ccTuhaHZ.s:848    .text._ZN19ConsumerProducerCPP8Producer3runEv:0000000000000020 .LVL88
     /tmp/ccTuhaHZ.s:897    .text._ZN19ConsumerProducerCPP8Producer3runEv:0000000000000088 .LVL93
     /tmp/ccTuhaHZ.s:845    .text._ZN19ConsumerProducerCPP8Producer3runEv:000000000000001c .LVL87
     /tmp/ccTuhaHZ.s:867    .text._ZN19ConsumerProducerCPP8Producer3runEv:000000000000004c .LVL90
     /tmp/ccTuhaHZ.s:900    .text._ZN19ConsumerProducerCPP8Producer3runEv:000000000000008c .LVL94
     /tmp/ccTuhaHZ.s:750    .text._ZN19ConsumerProducerCPP16ProducerKeyborad3runEv:0000000000000000 .LVL75
     /tmp/ccTuhaHZ.s:764    .text._ZN19ConsumerProducerCPP16ProducerKeyborad3runEv:0000000000000018 .LVL76
     /tmp/ccTuhaHZ.s:815    .text._ZN19ConsumerProducerCPP16ProducerKeyborad3runEv:000000000000007c .LVL85
     /tmp/ccTuhaHZ.s:773    .text._ZN19ConsumerProducerCPP16ProducerKeyborad3runEv:0000000000000024 .LVL78
     /tmp/ccTuhaHZ.s:786    .text._ZN19ConsumerProducerCPP16ProducerKeyborad3runEv:0000000000000040 .LVL80
     /tmp/ccTuhaHZ.s:796    .text._ZN19ConsumerProducerCPP16ProducerKeyborad3runEv:0000000000000054 .LVL81
     /tmp/ccTuhaHZ.s:798    .text._ZN19ConsumerProducerCPP16ProducerKeyborad3runEv:0000000000000058 .LVL82
     /tmp/ccTuhaHZ.s:1795   .text:00000000000005d4 .LVL204
     /tmp/ccTuhaHZ.s:1799   .text:00000000000005d8 .LVL205
     /tmp/ccTuhaHZ.s:1804   .text:00000000000005e0 .LVL206
     /tmp/ccTuhaHZ.s:1814   .text:00000000000005f4 .LVL208
     /tmp/ccTuhaHZ.s:1825   .text:0000000000000600 .LVL209
     /tmp/ccTuhaHZ.s:1543   .text:0000000000000394 .LVL170
     /tmp/ccTuhaHZ.s:1561   .text:00000000000003b4 .LVL172
     /tmp/ccTuhaHZ.s:1557   .text:00000000000003ac .LVL171
     /tmp/ccTuhaHZ.s:1582   .text:00000000000003ec .LVL176
     /tmp/ccTuhaHZ.s:1584   .text:00000000000003f0 .LVL177
     /tmp/ccTuhaHZ.s:1652   .text:0000000000000494 .LVL189
     /tmp/ccTuhaHZ.s:1654   .text:0000000000000498 .LVL190
     /tmp/ccTuhaHZ.s:1681   .text:00000000000004d0 .LVL193
     /tmp/ccTuhaHZ.s:1612   .text:0000000000000424 .LVL181
     /tmp/ccTuhaHZ.s:1616   .text:000000000000042c .LVL182
     /tmp/ccTuhaHZ.s:1684   .text:00000000000004d4 .LVL194
     /tmp/ccTuhaHZ.s:1348   .text:0000000000000214 .LVL141
     /tmp/ccTuhaHZ.s:1366   .text:0000000000000234 .LVL143
     /tmp/ccTuhaHZ.s:1362   .text:000000000000022c .LVL142
     /tmp/ccTuhaHZ.s:1387   .text:000000000000026c .LVL147
     /tmp/ccTuhaHZ.s:1389   .text:0000000000000270 .LVL148
     /tmp/ccTuhaHZ.s:1483   .text:000000000000034c .LVL164
     /tmp/ccTuhaHZ.s:1485   .text:0000000000000350 .LVL165
     /tmp/ccTuhaHZ.s:1512   .text:0000000000000388 .LVL168
     /tmp/ccTuhaHZ.s:1418   .text:0000000000000298 .LVL151
     /tmp/ccTuhaHZ.s:1443   .text:00000000000002dc .LVL156
GAS LISTING /tmp/ccTuhaHZ.s 			page 95


     /tmp/ccTuhaHZ.s:1447   .text:00000000000002e4 .LVL157
     /tmp/ccTuhaHZ.s:1515   .text:000000000000038c .LVL169
     /tmp/ccTuhaHZ.s:158    .text:00000000000000cc .LVL15
     /tmp/ccTuhaHZ.s:177    .text:00000000000000ec .LVL17
     /tmp/ccTuhaHZ.s:172    .text:00000000000000e4 .LVL16
     /tmp/ccTuhaHZ.s:273    .text:0000000000000198 .LVL30
     /tmp/ccTuhaHZ.s:217    .text:0000000000000120 .LVL23
     /tmp/ccTuhaHZ.s:245    .text:0000000000000164 .LVL27
     /tmp/ccTuhaHZ.s:200    .text:0000000000000108 .LVL20
     /tmp/ccTuhaHZ.s:209    .text:000000000000011c .LVL22
     /tmp/ccTuhaHZ.s:25     .text:0000000000000000 .LVL0
     /tmp/ccTuhaHZ.s:44     .text:0000000000000020 .LVL2
     /tmp/ccTuhaHZ.s:39     .text:0000000000000018 .LVL1
     /tmp/ccTuhaHZ.s:136    .text:00000000000000c4 .LVL14
     /tmp/ccTuhaHZ.s:84     .text:0000000000000054 .LVL8
     /tmp/ccTuhaHZ.s:112    .text:0000000000000098 .LVL12
     /tmp/ccTuhaHZ.s:67     .text:000000000000003c .LVL5
     /tmp/ccTuhaHZ.s:76     .text:0000000000000050 .LVL7
     /tmp/ccTuhaHZ.s:1263   .text:00000000000001a0 .LVL134
     /tmp/ccTuhaHZ.s:1286   .text:00000000000001d0 .LVL135
     /tmp/ccTuhaHZ.s:1310   .text:00000000000001fc .LVL138
     /tmp/ccTuhaHZ.s:1316   .text:0000000000000208 .LVL139
     /tmp/ccTuhaHZ.s:2727   .debug_info:0000000000000000 .Ldebug_info0
     /tmp/ccTuhaHZ.s:5      .text:0000000000000000 .Ltext0
     /tmp/ccTuhaHZ.s:2718   .text:0000000000000b50 .Letext0
     /tmp/ccTuhaHZ.s:47     .text:0000000000000020 .LBB58
     /tmp/ccTuhaHZ.s:80     .text:0000000000000050 .LBE58
     /tmp/ccTuhaHZ.s:108    .text:0000000000000090 .LBB62
     /tmp/ccTuhaHZ.s:114    .text:0000000000000098 .LBE62
     /tmp/ccTuhaHZ.s:180    .text:00000000000000ec .LBB66
     /tmp/ccTuhaHZ.s:213    .text:000000000000011c .LBE66
     /tmp/ccTuhaHZ.s:241    .text:000000000000015c .LBB70
     /tmp/ccTuhaHZ.s:247    .text:0000000000000164 .LBE70
     /tmp/ccTuhaHZ.s:312    .text._ZN19ConsumerProducerCPP8Consumer3runEv:0000000000000028 .LBB72
     /tmp/ccTuhaHZ.s:319    .text._ZN19ConsumerProducerCPP8Consumer3runEv:0000000000000034 .LBE72
     /tmp/ccTuhaHZ.s:324    .text._ZN19ConsumerProducerCPP8Consumer3runEv:0000000000000040 .LBB73
     /tmp/ccTuhaHZ.s:352    .text._ZN19ConsumerProducerCPP8Consumer3runEv:0000000000000074 .LBE73
     /tmp/ccTuhaHZ.s:1067   .text._ZN10ForkThread3runEv:0000000000000120 .LBB98
     /tmp/ccTuhaHZ.s:1104   .text._ZN10ForkThread3runEv:0000000000000158 .LBE98
     /tmp/ccTuhaHZ.s:1138   .text._ZN10ForkThread3runEv:000000000000017c .LBB106
     /tmp/ccTuhaHZ.s:1148   .text._ZN10ForkThread3runEv:0000000000000184 .LBE106
     /tmp/ccTuhaHZ.s:1088   .text._ZN10ForkThread3runEv:0000000000000140 .LBB100
     /tmp/ccTuhaHZ.s:1102   .text._ZN10ForkThread3runEv:0000000000000158 .LBE100
     /tmp/ccTuhaHZ.s:1140   .text._ZN10ForkThread3runEv:000000000000017c .LBB101
     /tmp/ccTuhaHZ.s:1146   .text._ZN10ForkThread3runEv:0000000000000184 .LBE101
     /tmp/ccTuhaHZ.s:2136   .text:000000000000086c .LBB115
     /tmp/ccTuhaHZ.s:2208   .text:00000000000008f8 .LBE115
     /tmp/ccTuhaHZ.s:2382   .text:0000000000000a48 .LBB123
     /tmp/ccTuhaHZ.s:2392   .text:0000000000000a60 .LBE123
     /tmp/ccTuhaHZ.s:2151   .text:0000000000000884 .LBE116
     /tmp/ccTuhaHZ.s:2197   .text:00000000000008ec .LBB119
     /tmp/ccTuhaHZ.s:2207   .text:00000000000008f8 .LBE119
     /tmp/ccTuhaHZ.s:2214   .text:0000000000000900 .LBB120
     /tmp/ccTuhaHZ.s:2232   .text:0000000000000920 .LBE120
     /tmp/ccTuhaHZ.s:2244   .text:0000000000000938 .LBB121
     /tmp/ccTuhaHZ.s:2251   .text:0000000000000940 .LBE121
     /tmp/ccTuhaHZ.s:1236   .gcc_except_table._ZN10ForkThread3runEv:0000000000000000 .LLSDA36
GAS LISTING /tmp/ccTuhaHZ.s 			page 96


     /tmp/ccTuhaHZ.s:2396   .gcc_except_table:0000000000000000 .LLSDA32
     /tmp/ccTuhaHZ.s:2587   .gcc_except_table:00000000000000d5 .LLSDA38
                           .group:0000000000000000 _ZN19ConsumerProducerCPP8ConsumerD5Ev
                           .group:0000000000000000 _ZN19ConsumerProducerCPP16ProducerKeyboradD5Ev
                           .group:0000000000000000 _ZN19ConsumerProducerCPP8ProducerD5Ev
                           .group:0000000000000000 _ZN10ForkThreadD5Ev

UNDEFINED SYMBOLS
_Z15thread_dispatchv
_Z11printStringPKc
_Z8printIntiii
_ZN7Console4putcEc
_ZN9BufferCPP3getEv
_ZN9BufferCPP6getCntEv
_ZN9Semaphore6signalEv
_ZN6ThreadD2Ev
_ZdlPv
_Z4getcv
_ZN9BufferCPP3putEi
_ZN6Thread5sleepEm
_Znwm
_ZN6ThreadC2Ev
_Z9mem_allocm
_ZN6Thread5startEv
_Z8mem_freePv
__gxx_personality_v0
_Z13thread_createPP7_threadPFvPvES2_
_ZN7_threaddlEPv
_Z9getStringPci
_Z11stringToIntPKc
_ZN9BufferCPPC1Ei
_ZN9SemaphoreC1Ej
_ZN6Thread8dispatchEv
_ZN9Semaphore4waitEv
_ZN9BufferCPPD1Ev
_Unwind_Resume
