GAS LISTING /tmp/ccZSrroc.s 			page 1


   1              		.file	"_semaphore.cpp"
   2              		.option pic
   3              		.option norelax
   4              		.text
   5              	.Ltext0:
   6              		.align	2
   7              		.globl	_ZN10_semaphoredlEPv
   9              	_ZN10_semaphoredlEPv:
  10              	.LFB12:
  11              		.file 1 "src/_semaphore.cpp"
   1:src/_semaphore.cpp **** //
   2:src/_semaphore.cpp **** // Created by os on 6/3/22.
   3:src/_semaphore.cpp **** //
   4:src/_semaphore.cpp **** 
   5:src/_semaphore.cpp **** #include "../h/_semaphore.hpp"
   6:src/_semaphore.cpp **** #include "../h/printing.hpp"
   7:src/_semaphore.cpp **** 
   8:src/_semaphore.cpp **** //operator delete will now call sem_close instead of just deallocating the space
   9:src/_semaphore.cpp **** //sem_close will take care of any remaining threads that are blocked and release allocated memory
  10:src/_semaphore.cpp **** void _semaphore::operator delete(void *addr){
  12              		.loc 1 10 45
  13              		.cfi_startproc
  14              	.LVL0:
  15 0000 130101FF 		addi	sp,sp,-16
  16              		.cfi_def_cfa_offset 16
  17 0004 23341100 		sd	ra,8(sp)
  18 0008 23308100 		sd	s0,0(sp)
  19              		.cfi_offset 1, -8
  20              		.cfi_offset 8, -16
  21 000c 13040101 		addi	s0,sp,16
  22              		.cfi_def_cfa 8, 0
  11:src/_semaphore.cpp ****     sem_close((sem_t)addr);
  23              		.loc 1 11 5
  24              		.loc 1 11 14 is_stmt 0
  25 0010 97000000 		call	_Z9sem_closeP10_semaphore@plt
  25      E7800000 
  26              	.LVL1:
  12:src/_semaphore.cpp **** }
  27              		.loc 1 12 1
  28 0018 83308100 		ld	ra,8(sp)
  29              		.cfi_restore 1
  30 001c 03340100 		ld	s0,0(sp)
  31              		.cfi_restore 8
  32              		.cfi_def_cfa 2, 16
  33 0020 13010101 		addi	sp,sp,16
  34              		.cfi_def_cfa_offset 0
  35 0024 67800000 		jr	ra
  36              		.cfi_endproc
  37              	.LFE12:
  39              	.Letext0:
  40              		.file 2 "src/../h/_semaphore.hpp"
  41              		.file 3 "src/../h/../lib/hw.h"
  42              		.file 4 "src/../h/syscall_c.h"
GAS LISTING /tmp/ccZSrroc.s 			page 2

