GAS LISTING /tmp/cc3VIEx7.s 			page 1


   1              		.file	"_thread.cpp"
   2              		.option pic
   3              		.option norelax
   4              		.text
   5              	.Ltext0:
   6              		.align	2
   7              		.globl	_ZN7_threaddlEPv
   9              	_ZN7_threaddlEPv:
  10              	.LFB16:
  11              		.file 1 "src/_thread.cpp"
   1:src/_thread.cpp **** //
   2:src/_thread.cpp **** // Created by os on 6/3/22.
   3:src/_thread.cpp **** //
   4:src/_thread.cpp **** 
   5:src/_thread.cpp **** #include "../h/_thread.hpp"
   6:src/_thread.cpp **** #include "../h/tcb.hpp"
   7:src/_thread.cpp **** 
   8:src/_thread.cpp **** //operator delete will now call thread_free to safely release all allocated memory
   9:src/_thread.cpp **** void _thread::operator delete(void *addr){
  12              		.loc 1 9 42
  13              		.cfi_startproc
  14              	.LVL0:
  15 0000 130101FF 		addi	sp,sp,-16
  16              		.cfi_def_cfa_offset 16
  17 0004 23341100 		sd	ra,8(sp)
  18 0008 23308100 		sd	s0,0(sp)
  19              		.cfi_offset 1, -8
  20              		.cfi_offset 8, -16
  21 000c 13040101 		addi	s0,sp,16
  22              		.cfi_def_cfa 8, 0
  10:src/_thread.cpp ****     TCB::thread_free(addr);
  23              		.loc 1 10 5
  24              		.loc 1 10 21 is_stmt 0
  25 0010 97000000 		call	_ZN3TCB11thread_freeEPv@plt
  25      E7800000 
  26              	.LVL1:
  11:src/_thread.cpp **** }...
  27              		.loc 1 11 1
  28 0018 83308100 		ld	ra,8(sp)
  29              		.cfi_restore 1
  30 001c 03340100 		ld	s0,0(sp)
  31              		.cfi_restore 8
  32              		.cfi_def_cfa 2, 16
  33 0020 13010101 		addi	sp,sp,16
  34              		.cfi_def_cfa_offset 0
  35 0024 67800000 		jr	ra
  36              		.cfi_endproc
  37              	.LFE16:
  39              	.Letext0:
  40              		.file 2 "src/../h/_thread.hpp"
  41              		.file 3 "src/../h/../lib/hw.h"
  42              		.file 4 "src/../h/../h/../h/../h/utility.hpp"
  43              		.file 5 "src/../h/../h/../h/../h/../h/slab_t.hpp"
  44              		.file 6 "src/../h/../h/../h/../h/cache_t.hpp"
  45              		.file 7 "src/../h/tcb.hpp"
GAS LISTING /tmp/cc3VIEx7.s 			page 2

