GAS LISTING /tmp/cc7t6RPO.s 			page 1


   1              		.file	"buddy.cpp"
   2              		.option pic
   3              		.option norelax
   4              		.text
   5              	.Ltext0:
   6              		.align	2
   8              	_Z41__static_initialization_and_destruction_0ii:
   9              	.LFB28:
  10              		.file 1 "src/buddy.cpp"
   1:src/buddy.cpp **** #include "../h/buddy.hpp"
   2:src/buddy.cpp **** #include "../h/consoleUtil.hpp"
   3:src/buddy.cpp **** 
   4:src/buddy.cpp **** void* Buddy::BUDDY_START_ADDR = BUDDY_START_ADDR_CONST;
   5:src/buddy.cpp **** void* Buddy::BUDDY_META_DATA_ADDR = BUDDY_META_ADDR_CONST;
   6:src/buddy.cpp **** uint64 Buddy::BLOCKS_AVAILABLE = BUDDY_NUMBER_OF_BLOCKS;
   7:src/buddy.cpp **** Buddy::Bucket* Buddy::head[BUCKET_SIZE] = {nullptr, nullptr, nullptr, nullptr, nullptr, nullptr, nu
   8:src/buddy.cpp **** Buddy::Bucket* Buddy::tail[BUCKET_SIZE] = {nullptr, nullptr, nullptr, nullptr, nullptr, nullptr, nu
   9:src/buddy.cpp **** 
  10:src/buddy.cpp **** void Buddy::initialize(){
  11:src/buddy.cpp ****     Buddy::BUDDY_START_ADDR = BUDDY_START_ADDR_CONST;
  12:src/buddy.cpp ****     Buddy::BUDDY_META_DATA_ADDR = BUDDY_META_ADDR_CONST;
  13:src/buddy.cpp ****     Buddy::BLOCKS_AVAILABLE = BUDDY_NUMBER_OF_BLOCKS;
  14:src/buddy.cpp ****     head[BUCKET_SIZE-1] = tail[BUCKET_SIZE-1] = (Block*)BUDDY_START_ADDR;
  15:src/buddy.cpp ****     head[BUCKET_SIZE-1]->next = tail[BUCKET_SIZE-1]->next = nullptr;
  16:src/buddy.cpp **** }
  17:src/buddy.cpp **** 
  18:src/buddy.cpp **** void* Buddy::alloc(uint64 size) {
  19:src/buddy.cpp **** 
  20:src/buddy.cpp ****     if(size<0 || size>=BUCKET_SIZE)
  21:src/buddy.cpp ****         return nullptr;
  22:src/buddy.cpp **** 
  23:src/buddy.cpp ****     Block* blk = nullptr;
  24:src/buddy.cpp **** 
  25:src/buddy.cpp ****     for(uint64 i=size;i<BUCKET_SIZE;i++){
  26:src/buddy.cpp ****         if(head[i] != nullptr){
  27:src/buddy.cpp ****             blk = head[i];
  28:src/buddy.cpp ****             head[i] = head[i]->next;
  29:src/buddy.cpp ****             if(!head[i])
  30:src/buddy.cpp ****                 tail[i] = nullptr;
  31:src/buddy.cpp ****             split(blk, i, size);
  32:src/buddy.cpp ****             break;
  33:src/buddy.cpp ****         }
  34:src/buddy.cpp ****     }
  35:src/buddy.cpp **** 
  36:src/buddy.cpp ****     return blk;
  37:src/buddy.cpp **** }
  38:src/buddy.cpp **** 
  39:src/buddy.cpp **** void Buddy::free(void *addr, uint64 size) {
  40:src/buddy.cpp ****     if(addr == nullptr)
  41:src/buddy.cpp ****         return;
  42:src/buddy.cpp ****     insert(addr,size);
  43:src/buddy.cpp **** }
  44:src/buddy.cpp **** 
  45:src/buddy.cpp **** void Buddy::insert(void *addr, uint64 size) {
  46:src/buddy.cpp **** //    ConsoleUtil::printString("INSERT: ");
  47:src/buddy.cpp **** //    ConsoleUtil::printInt(size);
  48:src/buddy.cpp **** //    ConsoleUtil::printString("\n");
GAS LISTING /tmp/cc7t6RPO.s 			page 2


  49:src/buddy.cpp ****     if(!head[size]){
  50:src/buddy.cpp ****         head[size] = tail[size] = (Block*)addr;
  51:src/buddy.cpp ****         head[size]->next = tail[size]->next = nullptr;
  52:src/buddy.cpp ****         return;
  53:src/buddy.cpp ****     }
  54:src/buddy.cpp ****     else
  55:src/buddy.cpp ****         if((uint64)addr < (uint64)head[size]){
  56:src/buddy.cpp ****             Bucket* newHead = (Bucket*)addr;
  57:src/buddy.cpp ****             newHead->next = head[size];
  58:src/buddy.cpp ****             head[size] = newHead;
  59:src/buddy.cpp ****             compress(size);
  60:src/buddy.cpp ****             return;
  61:src/buddy.cpp ****         }
  62:src/buddy.cpp ****         else{
  63:src/buddy.cpp ****             Block* prev = nullptr, *iter = head[size];
  64:src/buddy.cpp ****             while(iter != nullptr){
  65:src/buddy.cpp ****                 if((uint64)addr < (uint64)iter) {
  66:src/buddy.cpp ****                     Block *newBlock = (Block *) addr;
  67:src/buddy.cpp ****                     newBlock->next = iter;
  68:src/buddy.cpp ****                     prev->next = newBlock;
  69:src/buddy.cpp ****                     compress(size);
  70:src/buddy.cpp ****                     return;
  71:src/buddy.cpp ****                 }
  72:src/buddy.cpp ****                 else
  73:src/buddy.cpp ****                     iter = iter->next;
  74:src/buddy.cpp ****             }
  75:src/buddy.cpp ****     }
  76:src/buddy.cpp ****     tail[size]->next = (Block*)addr;
  77:src/buddy.cpp ****     tail[size] = tail[size]->next;
  78:src/buddy.cpp ****     compress(size);
  79:src/buddy.cpp **** }
  80:src/buddy.cpp **** 
  81:src/buddy.cpp **** void Buddy::compress(uint64 size) {
  82:src/buddy.cpp **** //    ConsoleUtil::printString("COMPRESS: ");
  83:src/buddy.cpp **** //    ConsoleUtil::printInt(size);
  84:src/buddy.cpp **** //    ConsoleUtil::printString("\n");
  85:src/buddy.cpp **** //    ConsoleUtil::printString("BEFORE COMPRESSION: \n");
  86:src/buddy.cpp **** //    printList();
  87:src/buddy.cpp ****     if(size == BUCKET_SIZE-1)
  88:src/buddy.cpp ****         return;
  89:src/buddy.cpp ****     Block *curr = head[size];
  90:src/buddy.cpp ****     Block *prev = nullptr;
  91:src/buddy.cpp ****     while(curr && curr->next != nullptr){
  92:src/buddy.cpp ****         uint64 blkNoCurr = ((uint64)(curr) - (uint64)BUDDY_START_ADDR) >> BUDDY_BLOCK_BITS;
  93:src/buddy.cpp ****         uint64 blkNoNext = ((uint64)(curr->next) - (uint64)BUDDY_START_ADDR) >> BUDDY_BLOCK_BITS;
  94:src/buddy.cpp ****         uint64 pair = (blkNoCurr % (1<<size) == 0) ? blkNoCurr + (1<<size) : blkNoCurr - (1<<size);
  95:src/buddy.cpp ****         Block *blk = curr;
  96:src/buddy.cpp ****         if(blkNoNext == pair){
  97:src/buddy.cpp ****             if(prev){
  98:src/buddy.cpp ****                 prev->next = curr->next->next;
  99:src/buddy.cpp ****             }
 100:src/buddy.cpp ****             else{
 101:src/buddy.cpp ****                 head[size] = curr->next->next;
 102:src/buddy.cpp ****             }
 103:src/buddy.cpp ****         }
 104:src/buddy.cpp ****         else
 105:src/buddy.cpp ****             prev = curr;
GAS LISTING /tmp/cc7t6RPO.s 			page 3


 106:src/buddy.cpp **** //        ConsoleUtil::printString("BEFORE INSERTION: \n");
 107:src/buddy.cpp **** //        printList();
 108:src/buddy.cpp ****         if(blkNoNext == pair){
 109:src/buddy.cpp ****             blk->next = nullptr;
 110:src/buddy.cpp ****             insert(blk, size+1);
 111:src/buddy.cpp ****         }
 112:src/buddy.cpp ****         curr = curr->next;
 113:src/buddy.cpp ****     }
 114:src/buddy.cpp **** }
 115:src/buddy.cpp **** 
 116:src/buddy.cpp **** void Buddy::split(Block *block, int currentBucket, int startBucket) {
 117:src/buddy.cpp ****     while(--currentBucket>=startBucket){
 118:src/buddy.cpp ****         if(tail[currentBucket]) {
 119:src/buddy.cpp ****             tail[currentBucket]->next = (Block *) ((uint64) block + (1 << (currentBucket + BUDDY_BL
 120:src/buddy.cpp ****             tail[currentBucket] = tail[currentBucket]->next;
 121:src/buddy.cpp ****         }
 122:src/buddy.cpp ****         else{
 123:src/buddy.cpp ****             head[currentBucket] = tail[currentBucket] = (Block *) ((uint64) block + (1 << (currentB
 124:src/buddy.cpp ****             head[currentBucket]->next = tail[currentBucket]->next = nullptr;
 125:src/buddy.cpp ****         }
 126:src/buddy.cpp ****     }
 127:src/buddy.cpp **** }
 128:src/buddy.cpp **** 
 129:src/buddy.cpp **** void Buddy::printList() {
 130:src/buddy.cpp ****     for(int i=0;i<BUCKET_SIZE;i++){
 131:src/buddy.cpp ****         ConsoleUtil::printInt(i,10);
 132:src/buddy.cpp ****         ConsoleUtil::printString(": ");
 133:src/buddy.cpp ****         Bucket *tmp = head[i];
 134:src/buddy.cpp ****         while(tmp != nullptr){
 135:src/buddy.cpp ****             ConsoleUtil::printInt((uint64)tmp,10);
 136:src/buddy.cpp ****             ConsoleUtil::printString(" ");
 137:src/buddy.cpp ****             tmp = tmp->next;
 138:src/buddy.cpp ****         }
 139:src/buddy.cpp ****         ConsoleUtil::printString("\n");
 140:src/buddy.cpp ****     }
 141:src/buddy.cpp **** }...
  11              		.loc 1 141 1
  12              		.cfi_startproc
  13              	.LVL0:
  14 0000 130101FF 		addi	sp,sp,-16
  15              		.cfi_def_cfa_offset 16
  16 0004 23348100 		sd	s0,8(sp)
  17              		.cfi_offset 8, -8
  18 0008 13040101 		addi	s0,sp,16
  19              		.cfi_def_cfa 8, 0
  20              		.loc 1 141 1 is_stmt 0
  21 000c 93071000 		li	a5,1
  22 0010 6308F500 		beq	a0,a5,.L4
  23              	.L1:
  24 0014 03348100 		ld	s0,8(sp)
  25              		.cfi_remember_state
  26              		.cfi_restore 8
  27              		.cfi_def_cfa 2, 16
  28 0018 13010101 		addi	sp,sp,16
  29              		.cfi_def_cfa_offset 0
  30 001c 67800000 		jr	ra
  31              	.L4:
GAS LISTING /tmp/cc7t6RPO.s 			page 4


  32              		.cfi_restore_state
  33              		.loc 1 141 1 discriminator 1
  34 0020 B7070100 		li	a5,65536
  35 0024 9387F7FF 		addi	a5,a5,-1
  36 0028 E396F5FE 		bne	a1,a5,.L1
   4:src/buddy.cpp **** void* Buddy::BUDDY_START_ADDR = BUDDY_START_ADDR_CONST;
  37              		.loc 1 4 33
  38 002c 97070000 		la	a5,HEAP_START_ADDR
  38      83B70700 
  39 0034 83B70700 		ld	a5,0(a5)
  40 0038 93D7C700 		srli	a5,a5,12
  41 003c 13872700 		addi	a4,a5,2
  42 0040 1317C700 		slli	a4,a4,12
   4:src/buddy.cpp **** void* Buddy::BUDDY_START_ADDR = BUDDY_START_ADDR_CONST;
  43              		.loc 1 4 7
  44 0044 97060000 		lla	a3,.LANCHOR0
  44      93860600 
  45 004c 23B0E600 		sd	a4,0(a3)
   5:src/buddy.cpp **** void* Buddy::BUDDY_META_DATA_ADDR = BUDDY_META_ADDR_CONST;
  46              		.loc 1 5 37
  47 0050 93871700 		addi	a5,a5,1
  48 0054 9397C700 		slli	a5,a5,12
   5:src/buddy.cpp **** void* Buddy::BUDDY_META_DATA_ADDR = BUDDY_META_ADDR_CONST;
  49              		.loc 1 5 7
  50 0058 23B4F600 		sd	a5,8(a3)
  51              		.loc 1 141 1
  52 005c 6FF09FFB 		j	.L1
  53              		.cfi_endproc
  54              	.LFE28:
  56              		.align	2
  57              		.globl	_ZN5Buddy10initializeEv
  59              	_ZN5Buddy10initializeEv:
  60              	.LFB21:
  10:src/buddy.cpp **** void Buddy::initialize(){
  61              		.loc 1 10 25 is_stmt 1
  62              		.cfi_startproc
  63 0060 130101FF 		addi	sp,sp,-16
  64              		.cfi_def_cfa_offset 16
  65 0064 23348100 		sd	s0,8(sp)
  66              		.cfi_offset 8, -8
  67 0068 13040101 		addi	s0,sp,16
  68              		.cfi_def_cfa 8, 0
  11:src/buddy.cpp ****     Buddy::BUDDY_START_ADDR = BUDDY_START_ADDR_CONST;
  69              		.loc 1 11 5
  11:src/buddy.cpp ****     Buddy::BUDDY_START_ADDR = BUDDY_START_ADDR_CONST;
  70              		.loc 1 11 31 is_stmt 0
  71 006c 97070000 		la	a5,HEAP_START_ADDR
  71      83B70700 
  72 0074 83B70700 		ld	a5,0(a5)
  73 0078 93D7C700 		srli	a5,a5,12
  74 007c 13872700 		addi	a4,a5,2
  75 0080 1317C700 		slli	a4,a4,12
  11:src/buddy.cpp ****     Buddy::BUDDY_START_ADDR = BUDDY_START_ADDR_CONST;
  76              		.loc 1 11 29
  77 0084 97060000 		lla	a3,.LANCHOR0
  77      93860600 
  78 008c 23B0E600 		sd	a4,0(a3)
GAS LISTING /tmp/cc7t6RPO.s 			page 5


  12:src/buddy.cpp ****     Buddy::BUDDY_META_DATA_ADDR = BUDDY_META_ADDR_CONST;
  79              		.loc 1 12 5 is_stmt 1
  12:src/buddy.cpp ****     Buddy::BUDDY_META_DATA_ADDR = BUDDY_META_ADDR_CONST;
  80              		.loc 1 12 35 is_stmt 0
  81 0090 93871700 		addi	a5,a5,1
  82 0094 9397C700 		slli	a5,a5,12
  12:src/buddy.cpp ****     Buddy::BUDDY_META_DATA_ADDR = BUDDY_META_ADDR_CONST;
  83              		.loc 1 12 33
  84 0098 23B4F600 		sd	a5,8(a3)
  13:src/buddy.cpp ****     Buddy::BLOCKS_AVAILABLE = BUDDY_NUMBER_OF_BLOCKS;
  85              		.loc 1 13 5 is_stmt 1
  13:src/buddy.cpp ****     Buddy::BLOCKS_AVAILABLE = BUDDY_NUMBER_OF_BLOCKS;
  86              		.loc 1 13 29 is_stmt 0
  87 009c B7170000 		li	a5,4096
  88 00a0 17060000 		sd	a5,.LANCHOR1,a2
  88      2330F600 
  14:src/buddy.cpp ****     head[BUCKET_SIZE-1] = tail[BUCKET_SIZE-1] = (Block*)BUDDY_START_ADDR;
  89              		.loc 1 14 5 is_stmt 1
  14:src/buddy.cpp ****     head[BUCKET_SIZE-1] = tail[BUCKET_SIZE-1] = (Block*)BUDDY_START_ADDR;
  90              		.loc 1 14 47 is_stmt 0
  91 00a8 23B8E606 		sd	a4,112(a3)
  14:src/buddy.cpp ****     head[BUCKET_SIZE-1] = tail[BUCKET_SIZE-1] = (Block*)BUDDY_START_ADDR;
  92              		.loc 1 14 25
  93 00ac 23BCE60C 		sd	a4,216(a3)
  15:src/buddy.cpp ****     head[BUCKET_SIZE-1]->next = tail[BUCKET_SIZE-1]->next = nullptr;
  94              		.loc 1 15 5 is_stmt 1
  15:src/buddy.cpp ****     head[BUCKET_SIZE-1]->next = tail[BUCKET_SIZE-1]->next = nullptr;
  95              		.loc 1 15 59 is_stmt 0
  96 00b0 23300700 		sd	zero,0(a4)
  15:src/buddy.cpp ****     head[BUCKET_SIZE-1]->next = tail[BUCKET_SIZE-1]->next = nullptr;
  97              		.loc 1 15 23
  98 00b4 83B7860D 		ld	a5,216(a3)
  15:src/buddy.cpp ****     head[BUCKET_SIZE-1]->next = tail[BUCKET_SIZE-1]->next = nullptr;
  99              		.loc 1 15 31
 100 00b8 23B00700 		sd	zero,0(a5)
  16:src/buddy.cpp **** }
 101              		.loc 1 16 1
 102 00bc 03348100 		ld	s0,8(sp)
 103              		.cfi_restore 8
 104              		.cfi_def_cfa 2, 16
 105 00c0 13010101 		addi	sp,sp,16
 106              		.cfi_def_cfa_offset 0
 107 00c4 67800000 		jr	ra
 108              		.cfi_endproc
 109              	.LFE21:
 111              		.align	2
 112              		.globl	_ZN5Buddy8compressEm
 114              	_ZN5Buddy8compressEm:
 115              	.LFB25:
  81:src/buddy.cpp **** void Buddy::compress(uint64 size) {
 116              		.loc 1 81 35 is_stmt 1
 117              		.cfi_startproc
 118              	.LVL1:
  87:src/buddy.cpp ****     if(size == BUCKET_SIZE-1)
 119              		.loc 1 87 5
 120 00c8 9307C000 		li	a5,12
 121 00cc 6308F50E 		beq	a0,a5,.L17
GAS LISTING /tmp/cc7t6RPO.s 			page 6


  81:src/buddy.cpp **** void Buddy::compress(uint64 size) {
 122              		.loc 1 81 35 is_stmt 0
 123 00d0 130101FD 		addi	sp,sp,-48
 124              		.cfi_def_cfa_offset 48
 125 00d4 23341102 		sd	ra,40(sp)
 126 00d8 23308102 		sd	s0,32(sp)
 127 00dc 233C9100 		sd	s1,24(sp)
 128 00e0 23382101 		sd	s2,16(sp)
 129 00e4 23343101 		sd	s3,8(sp)
 130              		.cfi_offset 1, -8
 131              		.cfi_offset 8, -16
 132              		.cfi_offset 9, -24
 133              		.cfi_offset 18, -32
 134              		.cfi_offset 19, -40
 135 00e8 13040103 		addi	s0,sp,48
 136              		.cfi_def_cfa 8, 0
 137 00ec 13090500 		mv	s2,a0
  89:src/buddy.cpp ****     Block *curr = head[size];
 138              		.loc 1 89 5 is_stmt 1
  89:src/buddy.cpp ****     Block *curr = head[size];
 139              		.loc 1 89 12 is_stmt 0
 140 00f0 13173500 		slli	a4,a0,3
 141 00f4 97070000 		lla	a5,.LANCHOR0
 141      93870700 
 142 00fc B387E700 		add	a5,a5,a4
 143 0100 83B48707 		ld	s1,120(a5)
 144              	.LVL2:
  90:src/buddy.cpp ****     Block *prev = nullptr;
 145              		.loc 1 90 5 is_stmt 1
  90:src/buddy.cpp ****     Block *prev = nullptr;
 146              		.loc 1 90 12 is_stmt 0
 147 0104 93090000 		li	s3,0
 148 0108 6F008001 		j	.L14
 149              	.LVL3:
 150              	.L9:
 151              	.LBB2:
  94:src/buddy.cpp ****         uint64 pair = (blkNoCurr % (1<<size) == 0) ? blkNoCurr + (1<<size) : blkNoCurr - (1<<size);
 152              		.loc 1 94 52 discriminator 2
 153 010c 3307D740 		sub	a4,a4,a3
 154              	.LVL4:
 155              	.L10:
  95:src/buddy.cpp ****         Block *blk = curr;
 156              		.loc 1 95 9 is_stmt 1 discriminator 4
  96:src/buddy.cpp ****         if(blkNoNext == pair){
 157              		.loc 1 96 9 discriminator 4
 158 0110 6306F704 		beq	a4,a5,.L20
 105:src/buddy.cpp ****             prev = curr;
 159              		.loc 1 105 18 is_stmt 0
 160 0114 93890400 		mv	s3,s1
 161              	.LVL5:
 162              	.L11:
 108:src/buddy.cpp ****         if(blkNoNext == pair){
 163              		.loc 1 108 9 is_stmt 1
 164 0118 6308F706 		beq	a4,a5,.L21
 165              	.LVL6:
 166              	.L13:
 112:src/buddy.cpp ****         curr = curr->next;
GAS LISTING /tmp/cc7t6RPO.s 			page 7


 167              		.loc 1 112 9
 112:src/buddy.cpp ****         curr = curr->next;
 168              		.loc 1 112 14 is_stmt 0
 169 011c 83B40400 		ld	s1,0(s1)
 170              	.LVL7:
 171              	.L14:
 172              	.LBE2:
  91:src/buddy.cpp ****     while(curr && curr->next != nullptr){
 173              		.loc 1 91 5 is_stmt 1
  91:src/buddy.cpp ****     while(curr && curr->next != nullptr){
 174              		.loc 1 91 16
 175 0120 63800408 		beqz	s1,.L7
  91:src/buddy.cpp ****     while(curr && curr->next != nullptr){
 176              		.loc 1 91 25 is_stmt 0 discriminator 1
 177 0124 03B60400 		ld	a2,0(s1)
  91:src/buddy.cpp ****     while(curr && curr->next != nullptr){
 178              		.loc 1 91 16 discriminator 1
 179 0128 630C0606 		beqz	a2,.L7
 180              	.LBB3:
  92:src/buddy.cpp ****         uint64 blkNoCurr = ((uint64)(curr) - (uint64)BUDDY_START_ADDR) >> BUDDY_BLOCK_BITS;
 181              		.loc 1 92 9 is_stmt 1
  92:src/buddy.cpp ****         uint64 blkNoCurr = ((uint64)(curr) - (uint64)BUDDY_START_ADDR) >> BUDDY_BLOCK_BITS;
 182              		.loc 1 92 44 is_stmt 0
 183 012c 97070000 		ld	a5,.LANCHOR0
 183      83B70700 
 184 0134 3387F440 		sub	a4,s1,a5
  92:src/buddy.cpp ****         uint64 blkNoCurr = ((uint64)(curr) - (uint64)BUDDY_START_ADDR) >> BUDDY_BLOCK_BITS;
 185              		.loc 1 92 16
 186 0138 1357C700 		srli	a4,a4,12
 187              	.LVL8:
  93:src/buddy.cpp ****         uint64 blkNoNext = ((uint64)(curr->next) - (uint64)BUDDY_START_ADDR) >> BUDDY_BLOCK_BITS;
 188              		.loc 1 93 9 is_stmt 1
  93:src/buddy.cpp ****         uint64 blkNoNext = ((uint64)(curr->next) - (uint64)BUDDY_START_ADDR) >> BUDDY_BLOCK_BITS;
 189              		.loc 1 93 50 is_stmt 0
 190 013c B307F640 		sub	a5,a2,a5
  93:src/buddy.cpp ****         uint64 blkNoNext = ((uint64)(curr->next) - (uint64)BUDDY_START_ADDR) >> BUDDY_BLOCK_BITS;
 191              		.loc 1 93 16
 192 0140 93D7C700 		srli	a5,a5,12
 193              	.LVL9:
  94:src/buddy.cpp ****         uint64 pair = (blkNoCurr % (1<<size) == 0) ? blkNoCurr + (1<<size) : blkNoCurr - (1<<size);
 194              		.loc 1 94 9 is_stmt 1
  94:src/buddy.cpp ****         uint64 pair = (blkNoCurr % (1<<size) == 0) ? blkNoCurr + (1<<size) : blkNoCurr - (1<<size);
 195              		.loc 1 94 38 is_stmt 0
 196 0144 93061000 		li	a3,1
 197 0148 BB962601 		sllw	a3,a3,s2
  94:src/buddy.cpp ****         uint64 pair = (blkNoCurr % (1<<size) == 0) ? blkNoCurr + (1<<size) : blkNoCurr - (1<<size);
 198              		.loc 1 94 34
 199 014c B375D702 		remu	a1,a4,a3
  94:src/buddy.cpp ****         uint64 pair = (blkNoCurr % (1<<size) == 0) ? blkNoCurr + (1<<size) : blkNoCurr - (1<<size);
 200              		.loc 1 94 52
 201 0150 E39E05FA 		bnez	a1,.L9
  94:src/buddy.cpp ****         uint64 pair = (blkNoCurr % (1<<size) == 0) ? blkNoCurr + (1<<size) : blkNoCurr - (1<<size);
 202              		.loc 1 94 52 discriminator 1
 203 0154 3387E600 		add	a4,a3,a4
 204              	.LVL10:
 205 0158 6FF09FFB 		j	.L10
 206              	.LVL11:
GAS LISTING /tmp/cc7t6RPO.s 			page 8


 207              	.L20:
  97:src/buddy.cpp ****             if(prev){
 208              		.loc 1 97 13 is_stmt 1
 209 015c 63880900 		beqz	s3,.L12
  98:src/buddy.cpp ****                 prev->next = curr->next->next;
 210              		.loc 1 98 17
  98:src/buddy.cpp ****                 prev->next = curr->next->next;
 211              		.loc 1 98 42 is_stmt 0
 212 0160 83360600 		ld	a3,0(a2)
  98:src/buddy.cpp ****                 prev->next = curr->next->next;
 213              		.loc 1 98 28
 214 0164 23B0D900 		sd	a3,0(s3)
 215              	.LVL12:
 216 0168 6FF01FFB 		j	.L11
 217              	.LVL13:
 218              	.L12:
 101:src/buddy.cpp ****                 head[size] = curr->next->next;
 219              		.loc 1 101 17 is_stmt 1
 101:src/buddy.cpp ****                 head[size] = curr->next->next;
 220              		.loc 1 101 42 is_stmt 0
 221 016c 03360600 		ld	a2,0(a2)
 101:src/buddy.cpp ****                 head[size] = curr->next->next;
 222              		.loc 1 101 28
 223 0170 93153900 		slli	a1,s2,3
 224 0174 97060000 		lla	a3,.LANCHOR0
 224      93860600 
 225 017c B386B600 		add	a3,a3,a1
 226 0180 23BCC606 		sd	a2,120(a3)
 227 0184 6FF05FF9 		j	.L11
 228              	.LVL14:
 229              	.L21:
 109:src/buddy.cpp ****             blk->next = nullptr;
 230              		.loc 1 109 13 is_stmt 1
 109:src/buddy.cpp ****             blk->next = nullptr;
 231              		.loc 1 109 23 is_stmt 0
 232 0188 23B00400 		sd	zero,0(s1)
 110:src/buddy.cpp ****             insert(blk, size+1);
 233              		.loc 1 110 13 is_stmt 1
 110:src/buddy.cpp ****             insert(blk, size+1);
 234              		.loc 1 110 19 is_stmt 0
 235 018c 93051900 		addi	a1,s2,1
 236 0190 13850400 		mv	a0,s1
 237 0194 97000000 		call	_ZN5Buddy6insertEPvm
 237      E7800000 
 238              	.LVL15:
 239 019c 6FF01FF8 		j	.L13
 240              	.LVL16:
 241              	.L7:
 242              	.LBE3:
 114:src/buddy.cpp **** }
 243              		.loc 1 114 1
 244 01a0 83308102 		ld	ra,40(sp)
 245              		.cfi_restore 1
 246 01a4 03340102 		ld	s0,32(sp)
 247              		.cfi_restore 8
 248              		.cfi_def_cfa 2, 48
 249 01a8 83348101 		ld	s1,24(sp)
GAS LISTING /tmp/cc7t6RPO.s 			page 9


 250              		.cfi_restore 9
 251              	.LVL17:
 252 01ac 03390101 		ld	s2,16(sp)
 253              		.cfi_restore 18
 254              	.LVL18:
 255 01b0 83398100 		ld	s3,8(sp)
 256              		.cfi_restore 19
 257              	.LVL19:
 258 01b4 13010103 		addi	sp,sp,48
 259              		.cfi_def_cfa_offset 0
 260 01b8 67800000 		jr	ra
 261              	.LVL20:
 262              	.L17:
 263 01bc 67800000 		ret
 264              		.cfi_endproc
 265              	.LFE25:
 267              		.align	2
 268              		.globl	_ZN5Buddy6insertEPvm
 270              	_ZN5Buddy6insertEPvm:
 271              	.LFB24:
  45:src/buddy.cpp **** void Buddy::insert(void *addr, uint64 size) {
 272              		.loc 1 45 45 is_stmt 1
 273              		.cfi_startproc
 274              	.LVL21:
 275 01c0 93060500 		mv	a3,a0
  49:src/buddy.cpp ****     if(!head[size]){
 276              		.loc 1 49 5
 277              	.LBB4:
  49:src/buddy.cpp ****     if(!head[size]){
 278              		.loc 1 49 18 is_stmt 0
 279 01c4 13973500 		slli	a4,a1,3
 280 01c8 97070000 		lla	a5,.LANCHOR0
 280      93870700 
 281 01d0 B387E700 		add	a5,a5,a4
 282 01d4 83B78707 		ld	a5,120(a5)
  49:src/buddy.cpp ****     if(!head[size]){
 283              		.loc 1 49 5
 284 01d8 63880702 		beqz	a5,.L31
 285              	.LBE4:
  45:src/buddy.cpp **** void Buddy::insert(void *addr, uint64 size) {
 286              		.loc 1 45 45
 287 01dc 130101FF 		addi	sp,sp,-16
 288              		.cfi_def_cfa_offset 16
 289 01e0 23341100 		sd	ra,8(sp)
 290 01e4 23308100 		sd	s0,0(sp)
 291              		.cfi_offset 1, -8
 292              		.cfi_offset 8, -16
 293 01e8 13040101 		addi	s0,sp,16
 294              		.cfi_def_cfa 8, 0
 295 01ec 13850500 		mv	a0,a1
 296              	.LVL22:
  55:src/buddy.cpp ****         if((uint64)addr < (uint64)head[size]){
 297              		.loc 1 55 9 is_stmt 1
 298              	.LBB15:
 299              	.LBB5:
  55:src/buddy.cpp ****         if((uint64)addr < (uint64)head[size]){
 300              		.loc 1 55 25 is_stmt 0
GAS LISTING /tmp/cc7t6RPO.s 			page 10


 301 01f0 13870600 		mv	a4,a3
  55:src/buddy.cpp ****         if((uint64)addr < (uint64)head[size]){
 302              		.loc 1 55 9
 303 01f4 63ECF602 		bgtu	a5,a3,.L32
 304              	.L25:
 305              	.LVL23:
 306              	.LBB6:
  64:src/buddy.cpp ****             while(iter != nullptr){
 307              		.loc 1 64 13 is_stmt 1
  64:src/buddy.cpp ****             while(iter != nullptr){
 308              		.loc 1 64 24
 309 01f8 63860706 		beqz	a5,.L26
 310              	.LBE6:
 311              	.LBE5:
 312              	.LBE15:
  65:src/buddy.cpp ****                 if((uint64)addr < (uint64)iter) {
 313              		.loc 1 65 17
 314              	.LBB16:
 315              	.LBB13:
 316              	.LBB10:
 317              	.LBB7:
 318 01fc 636AF704 		bltu	a4,a5,.L33
  73:src/buddy.cpp ****                     iter = iter->next;
 319              		.loc 1 73 21
  73:src/buddy.cpp ****                     iter = iter->next;
 320              		.loc 1 73 26 is_stmt 0
 321 0200 83B70700 		ld	a5,0(a5)
 322              	.LVL24:
 323              	.LBE7:
  64:src/buddy.cpp ****             while(iter != nullptr){
 324              		.loc 1 64 13
 325 0204 6FF05FFF 		j	.L25
 326              	.LVL25:
 327              	.L31:
 328              		.cfi_def_cfa_register 2
 329              		.cfi_restore 1
 330              		.cfi_restore 8
 331              	.LBE10:
 332              	.LBE13:
  50:src/buddy.cpp ****         head[size] = tail[size] = (Block*)addr;
 333              		.loc 1 50 9 is_stmt 1
  50:src/buddy.cpp ****         head[size] = tail[size] = (Block*)addr;
 334              		.loc 1 50 33 is_stmt 0
 335 0208 97070000 		lla	a5,.LANCHOR0
 335      93870700 
 336 0210 3385E700 		add	a0,a5,a4
 337              	.LVL26:
 338 0214 2338D500 		sd	a3,16(a0)
  50:src/buddy.cpp ****         head[size] = tail[size] = (Block*)addr;
 339              		.loc 1 50 20
 340 0218 233CD506 		sd	a3,120(a0)
  51:src/buddy.cpp ****         head[size]->next = tail[size]->next = nullptr;
 341              		.loc 1 51 9 is_stmt 1
  51:src/buddy.cpp ****         head[size]->next = tail[size]->next = nullptr;
 342              		.loc 1 51 45 is_stmt 0
 343 021c 23B00600 		sd	zero,0(a3)
  51:src/buddy.cpp ****         head[size]->next = tail[size]->next = nullptr;
GAS LISTING /tmp/cc7t6RPO.s 			page 11


 344              		.loc 1 51 18
 345 0220 83378507 		ld	a5,120(a0)
  51:src/buddy.cpp ****         head[size]->next = tail[size]->next = nullptr;
 346              		.loc 1 51 26
 347 0224 23B00700 		sd	zero,0(a5)
  52:src/buddy.cpp ****         return;
 348              		.loc 1 52 9 is_stmt 1
 349 0228 67800000 		ret
 350              	.LVL27:
 351              	.L32:
 352              		.cfi_def_cfa_register 8
 353              		.cfi_offset 1, -8
 354              		.cfi_offset 8, -16
 355              	.LBB14:
 356              	.LBB11:
  56:src/buddy.cpp ****             Bucket* newHead = (Bucket*)addr;
 357              		.loc 1 56 13
  57:src/buddy.cpp ****             newHead->next = head[size];
 358              		.loc 1 57 13
  57:src/buddy.cpp ****             newHead->next = head[size];
 359              		.loc 1 57 27 is_stmt 0
 360 022c 23B0F600 		sd	a5,0(a3)
  58:src/buddy.cpp ****             head[size] = newHead;
 361              		.loc 1 58 13 is_stmt 1
  58:src/buddy.cpp ****             head[size] = newHead;
 362              		.loc 1 58 24 is_stmt 0
 363 0230 13973500 		slli	a4,a1,3
 364 0234 97070000 		lla	a5,.LANCHOR0
 364      93870700 
 365 023c B387E700 		add	a5,a5,a4
 366 0240 23BCD706 		sd	a3,120(a5)
  59:src/buddy.cpp ****             compress(size);
 367              		.loc 1 59 13 is_stmt 1
  59:src/buddy.cpp ****             compress(size);
 368              		.loc 1 59 21 is_stmt 0
 369 0244 97000000 		call	_ZN5Buddy8compressEm
 369      E7800000 
 370              	.LVL28:
  60:src/buddy.cpp ****             return;
 371              		.loc 1 60 13 is_stmt 1
 372 024c 6F004004 		j	.L22
 373              	.LVL29:
 374              	.L33:
 375              	.LBE11:
 376              	.LBB12:
 377              	.LBB9:
 378              	.LBB8:
  66:src/buddy.cpp ****                     Block *newBlock = (Block *) addr;
 379              		.loc 1 66 21
  67:src/buddy.cpp ****                     newBlock->next = iter;
 380              		.loc 1 67 21
  67:src/buddy.cpp ****                     newBlock->next = iter;
 381              		.loc 1 67 36 is_stmt 0
 382 0250 23B0F600 		sd	a5,0(a3)
  68:src/buddy.cpp ****                     prev->next = newBlock;
 383              		.loc 1 68 21 is_stmt 1
  68:src/buddy.cpp ****                     prev->next = newBlock;
GAS LISTING /tmp/cc7t6RPO.s 			page 12


 384              		.loc 1 68 32 is_stmt 0
 385 0254 2330D000 		sd	a3,0(zero)
  69:src/buddy.cpp ****                     compress(size);
 386              		.loc 1 69 21 is_stmt 1
  69:src/buddy.cpp ****                     compress(size);
 387              		.loc 1 69 29 is_stmt 0
 388 0258 97000000 		call	_ZN5Buddy8compressEm
 388      E7800000 
 389              	.LVL30:
  70:src/buddy.cpp ****                     return;
 390              		.loc 1 70 21 is_stmt 1
 391 0260 6F000003 		j	.L22
 392              	.LVL31:
 393              	.L26:
 394              	.LBE8:
 395              	.LBE9:
 396              	.LBE12:
 397              	.LBE14:
 398              	.LBE16:
  76:src/buddy.cpp ****     tail[size]->next = (Block*)addr;
 399              		.loc 1 76 5
  76:src/buddy.cpp ****     tail[size]->next = (Block*)addr;
 400              		.loc 1 76 14 is_stmt 0
 401 0264 13173500 		slli	a4,a0,3
 402 0268 97070000 		lla	a5,.LANCHOR0
 402      93870700 
 403              	.LVL32:
 404 0270 B387E700 		add	a5,a5,a4
 405 0274 03B70701 		ld	a4,16(a5)
  76:src/buddy.cpp ****     tail[size]->next = (Block*)addr;
 406              		.loc 1 76 22
 407 0278 2330D700 		sd	a3,0(a4)
  77:src/buddy.cpp ****     tail[size] = tail[size]->next;
 408              		.loc 1 77 5 is_stmt 1
  77:src/buddy.cpp ****     tail[size] = tail[size]->next;
 409              		.loc 1 77 27 is_stmt 0
 410 027c 03B70701 		ld	a4,16(a5)
  77:src/buddy.cpp ****     tail[size] = tail[size]->next;
 411              		.loc 1 77 30
 412 0280 03370700 		ld	a4,0(a4)
  77:src/buddy.cpp ****     tail[size] = tail[size]->next;
 413              		.loc 1 77 16
 414 0284 23B8E700 		sd	a4,16(a5)
  78:src/buddy.cpp ****     compress(size);
 415              		.loc 1 78 5 is_stmt 1
  78:src/buddy.cpp ****     compress(size);
 416              		.loc 1 78 13 is_stmt 0
 417 0288 97000000 		call	_ZN5Buddy8compressEm
 417      E7800000 
 418              	.LVL33:
 419              	.L22:
  79:src/buddy.cpp **** }
 420              		.loc 1 79 1
 421 0290 83308100 		ld	ra,8(sp)
 422              		.cfi_restore 1
 423 0294 03340100 		ld	s0,0(sp)
 424              		.cfi_restore 8
GAS LISTING /tmp/cc7t6RPO.s 			page 13


 425              		.cfi_def_cfa 2, 16
 426 0298 13010101 		addi	sp,sp,16
 427              		.cfi_def_cfa_offset 0
 428 029c 67800000 		jr	ra
 429              		.cfi_endproc
 430              	.LFE24:
 432              		.align	2
 433              		.globl	_ZN5Buddy4freeEPvm
 435              	_ZN5Buddy4freeEPvm:
 436              	.LFB23:
  39:src/buddy.cpp **** void Buddy::free(void *addr, uint64 size) {
 437              		.loc 1 39 43 is_stmt 1
 438              		.cfi_startproc
 439              	.LVL34:
  40:src/buddy.cpp ****     if(addr == nullptr)
 440              		.loc 1 40 5
 441 02a0 63060502 		beqz	a0,.L37
  39:src/buddy.cpp **** void Buddy::free(void *addr, uint64 size) {
 442              		.loc 1 39 43 is_stmt 0
 443 02a4 130101FF 		addi	sp,sp,-16
 444              		.cfi_def_cfa_offset 16
 445 02a8 23341100 		sd	ra,8(sp)
 446 02ac 23308100 		sd	s0,0(sp)
 447              		.cfi_offset 1, -8
 448              		.cfi_offset 8, -16
 449 02b0 13040101 		addi	s0,sp,16
 450              		.cfi_def_cfa 8, 0
  42:src/buddy.cpp ****     insert(addr,size);
 451              		.loc 1 42 5 is_stmt 1
  42:src/buddy.cpp ****     insert(addr,size);
 452              		.loc 1 42 11 is_stmt 0
 453 02b4 97000000 		call	_ZN5Buddy6insertEPvm
 453      E7800000 
 454              	.LVL35:
  43:src/buddy.cpp **** }
 455              		.loc 1 43 1
 456 02bc 83308100 		ld	ra,8(sp)
 457              		.cfi_restore 1
 458 02c0 03340100 		ld	s0,0(sp)
 459              		.cfi_restore 8
 460              		.cfi_def_cfa 2, 16
 461 02c4 13010101 		addi	sp,sp,16
 462              		.cfi_def_cfa_offset 0
 463 02c8 67800000 		jr	ra
 464              	.LVL36:
 465              	.L37:
 466 02cc 67800000 		ret
 467              		.cfi_endproc
 468              	.LFE23:
 470              		.align	2
 471              		.globl	_ZN5Buddy5splitEPNS_5BlockEii
 473              	_ZN5Buddy5splitEPNS_5BlockEii:
 474              	.LFB26:
 116:src/buddy.cpp **** void Buddy::split(Block *block, int currentBucket, int startBucket) {
 475              		.loc 1 116 69 is_stmt 1
 476              		.cfi_startproc
 477              	.LVL37:
GAS LISTING /tmp/cc7t6RPO.s 			page 14


 478 02d0 130101FF 		addi	sp,sp,-16
 479              		.cfi_def_cfa_offset 16
 480 02d4 23348100 		sd	s0,8(sp)
 481              		.cfi_offset 8, -8
 482 02d8 13040101 		addi	s0,sp,16
 483              		.cfi_def_cfa 8, 0
 484 02dc 6F00C003 		j	.L41
 485              	.LVL38:
 486              	.L43:
 123:src/buddy.cpp ****             head[currentBucket] = tail[currentBucket] = (Block *) ((uint64) block + (1 << (currentB
 487              		.loc 1 123 13
 123:src/buddy.cpp ****             head[currentBucket] = tail[currentBucket] = (Block *) ((uint64) block + (1 << (currentB
 488              		.loc 1 123 106 is_stmt 0
 489 02e0 9B85B500 		addiw	a1,a1,11
 490              	.LVL39:
 123:src/buddy.cpp ****             head[currentBucket] = tail[currentBucket] = (Block *) ((uint64) block + (1 << (currentB
 491              		.loc 1 123 88
 492 02e4 13071000 		li	a4,1
 493 02e8 BB15B700 		sllw	a1,a4,a1
 123:src/buddy.cpp ****             head[currentBucket] = tail[currentBucket] = (Block *) ((uint64) block + (1 << (currentB
 494              		.loc 1 123 83
 495 02ec B305B500 		add	a1,a0,a1
 123:src/buddy.cpp ****             head[currentBucket] = tail[currentBucket] = (Block *) ((uint64) block + (1 << (currentB
 496              		.loc 1 123 55
 497 02f0 93963700 		slli	a3,a5,3
 498 02f4 17070000 		lla	a4,.LANCHOR0
 498      13070700 
 499 02fc 3307D700 		add	a4,a4,a3
 500 0300 2338B700 		sd	a1,16(a4)
 123:src/buddy.cpp ****             head[currentBucket] = tail[currentBucket] = (Block *) ((uint64) block + (1 << (currentB
 501              		.loc 1 123 33
 502 0304 233CB706 		sd	a1,120(a4)
 124:src/buddy.cpp ****             head[currentBucket]->next = tail[currentBucket]->next = nullptr;
 503              		.loc 1 124 13 is_stmt 1
 124:src/buddy.cpp ****             head[currentBucket]->next = tail[currentBucket]->next = nullptr;
 504              		.loc 1 124 67 is_stmt 0
 505 0308 23B00500 		sd	zero,0(a1)
 124:src/buddy.cpp ****             head[currentBucket]->next = tail[currentBucket]->next = nullptr;
 506              		.loc 1 124 31
 507 030c 03378707 		ld	a4,120(a4)
 124:src/buddy.cpp ****             head[currentBucket]->next = tail[currentBucket]->next = nullptr;
 508              		.loc 1 124 39
 509 0310 23300700 		sd	zero,0(a4)
 510              	.L44:
 116:src/buddy.cpp **** void Buddy::split(Block *block, int currentBucket, int startBucket) {
 511              		.loc 1 116 69
 512 0314 93850700 		mv	a1,a5
 513              	.L41:
 514              	.LVL40:
 117:src/buddy.cpp ****     while(--currentBucket>=startBucket){
 515              		.loc 1 117 5 is_stmt 1
 117:src/buddy.cpp ****     while(--currentBucket>=startBucket){
 516              		.loc 1 117 26
 517 0318 9B87F5FF 		addiw	a5,a1,-1
 518              	.LVL41:
 519 031c 63C8C704 		blt	a5,a2,.L40
 118:src/buddy.cpp ****         if(tail[currentBucket]) {
GAS LISTING /tmp/cc7t6RPO.s 			page 15


 520              		.loc 1 118 9
 118:src/buddy.cpp ****         if(tail[currentBucket]) {
 521              		.loc 1 118 30 is_stmt 0
 522 0320 93963700 		slli	a3,a5,3
 523 0324 17070000 		lla	a4,.LANCHOR0
 523      13070700 
 524 032c 3307D700 		add	a4,a4,a3
 525 0330 83360701 		ld	a3,16(a4)
 118:src/buddy.cpp ****         if(tail[currentBucket]) {
 526              		.loc 1 118 9
 527 0334 E38606FA 		beqz	a3,.L43
 119:src/buddy.cpp ****             tail[currentBucket]->next = (Block *) ((uint64) block + (1 << (currentBucket + BUDDY_BL
 528              		.loc 1 119 13 is_stmt 1
 119:src/buddy.cpp ****             tail[currentBucket]->next = (Block *) ((uint64) block + (1 << (currentBucket + BUDDY_BL
 529              		.loc 1 119 90 is_stmt 0
 530 0338 9B85B500 		addiw	a1,a1,11
 531              	.LVL42:
 119:src/buddy.cpp ****             tail[currentBucket]->next = (Block *) ((uint64) block + (1 << (currentBucket + BUDDY_BL
 532              		.loc 1 119 72
 533 033c 13071000 		li	a4,1
 534 0340 BB15B700 		sllw	a1,a4,a1
 119:src/buddy.cpp ****             tail[currentBucket]->next = (Block *) ((uint64) block + (1 << (currentBucket + BUDDY_BL
 535              		.loc 1 119 67
 536 0344 B305B500 		add	a1,a0,a1
 119:src/buddy.cpp ****             tail[currentBucket]->next = (Block *) ((uint64) block + (1 << (currentBucket + BUDDY_BL
 537              		.loc 1 119 39
 538 0348 23B0B600 		sd	a1,0(a3)
 120:src/buddy.cpp ****             tail[currentBucket] = tail[currentBucket]->next;
 539              		.loc 1 120 13 is_stmt 1
 120:src/buddy.cpp ****             tail[currentBucket] = tail[currentBucket]->next;
 540              		.loc 1 120 53 is_stmt 0
 541 034c 93963700 		slli	a3,a5,3
 542 0350 17070000 		lla	a4,.LANCHOR0
 542      13070700 
 543 0358 3307D700 		add	a4,a4,a3
 544 035c 83360701 		ld	a3,16(a4)
 120:src/buddy.cpp ****             tail[currentBucket] = tail[currentBucket]->next;
 545              		.loc 1 120 56
 546 0360 83B60600 		ld	a3,0(a3)
 120:src/buddy.cpp ****             tail[currentBucket] = tail[currentBucket]->next;
 547              		.loc 1 120 33
 548 0364 2338D700 		sd	a3,16(a4)
 549 0368 6FF0DFFA 		j	.L44
 550              	.LVL43:
 551              	.L40:
 127:src/buddy.cpp **** }
 552              		.loc 1 127 1
 553 036c 03348100 		ld	s0,8(sp)
 554              		.cfi_restore 8
 555              		.cfi_def_cfa 2, 16
 556 0370 13010101 		addi	sp,sp,16
 557              		.cfi_def_cfa_offset 0
 558 0374 67800000 		jr	ra
 559              		.cfi_endproc
 560              	.LFE26:
 562              		.align	2
 563              		.globl	_ZN5Buddy5allocEm
GAS LISTING /tmp/cc7t6RPO.s 			page 16


 565              	_ZN5Buddy5allocEm:
 566              	.LFB22:
  18:src/buddy.cpp **** void* Buddy::alloc(uint64 size) {
 567              		.loc 1 18 33 is_stmt 1
 568              		.cfi_startproc
 569              	.LVL44:
 570 0378 130101FE 		addi	sp,sp,-32
 571              		.cfi_def_cfa_offset 32
 572 037c 233C1100 		sd	ra,24(sp)
 573 0380 23388100 		sd	s0,16(sp)
 574 0384 23349100 		sd	s1,8(sp)
 575              		.cfi_offset 1, -8
 576              		.cfi_offset 8, -16
 577              		.cfi_offset 9, -24
 578 0388 13040102 		addi	s0,sp,32
 579              		.cfi_def_cfa 8, 0
  20:src/buddy.cpp ****     if(size<0 || size>=BUCKET_SIZE)
 580              		.loc 1 20 5
 581 038c 9307C000 		li	a5,12
 582 0390 63ECA706 		bgtu	a0,a5,.L51
 583              	.LBB17:
  25:src/buddy.cpp ****     for(uint64 i=size;i<BUCKET_SIZE;i++){
 584              		.loc 1 25 16 is_stmt 0
 585 0394 93050500 		mv	a1,a0
 586              	.L50:
 587              	.LVL45:
  25:src/buddy.cpp ****     for(uint64 i=size;i<BUCKET_SIZE;i++){
 588              		.loc 1 25 24 is_stmt 1 discriminator 1
 589 0398 9307C000 		li	a5,12
 590 039c 63EAB706 		bgtu	a1,a5,.L52
  26:src/buddy.cpp ****         if(head[i] != nullptr){
 591              		.loc 1 26 9
  26:src/buddy.cpp ****         if(head[i] != nullptr){
 592              		.loc 1 26 18 is_stmt 0
 593 03a0 13973500 		slli	a4,a1,3
 594 03a4 97070000 		lla	a5,.LANCHOR0
 594      93870700 
 595 03ac B387E700 		add	a5,a5,a4
 596 03b0 83B48707 		ld	s1,120(a5)
  26:src/buddy.cpp ****         if(head[i] != nullptr){
 597              		.loc 1 26 9
 598 03b4 63960400 		bnez	s1,.L54
  25:src/buddy.cpp ****     for(uint64 i=size;i<BUCKET_SIZE;i++){
 599              		.loc 1 25 5 is_stmt 1 discriminator 2
 600 03b8 93851500 		addi	a1,a1,1
 601              	.LVL46:
 602 03bc 6FF0DFFD 		j	.L50
 603              	.L54:
  27:src/buddy.cpp ****             blk = head[i];
 604              		.loc 1 27 13
 605              	.LVL47:
  28:src/buddy.cpp ****             head[i] = head[i]->next;
 606              		.loc 1 28 13
  28:src/buddy.cpp ****             head[i] = head[i]->next;
 607              		.loc 1 28 32 is_stmt 0
 608 03c0 03B70400 		ld	a4,0(s1)
  28:src/buddy.cpp ****             head[i] = head[i]->next;
GAS LISTING /tmp/cc7t6RPO.s 			page 17


 609              		.loc 1 28 21
 610 03c4 93963500 		slli	a3,a1,3
 611 03c8 97070000 		lla	a5,.LANCHOR0
 611      93870700 
 612 03d0 B387D700 		add	a5,a5,a3
 613 03d4 23BCE706 		sd	a4,120(a5)
  29:src/buddy.cpp ****             if(!head[i])
 614              		.loc 1 29 13 is_stmt 1
 615 03d8 630E0700 		beqz	a4,.L55
 616              	.L49:
  31:src/buddy.cpp ****             split(blk, i, size);
 617              		.loc 1 31 13
  31:src/buddy.cpp ****             split(blk, i, size);
 618              		.loc 1 31 18 is_stmt 0
 619 03dc 1B060500 		sext.w	a2,a0
 620 03e0 9B850500 		sext.w	a1,a1
 621              	.LVL48:
 622 03e4 13850400 		mv	a0,s1
 623              	.LVL49:
 624 03e8 97000000 		call	_ZN5Buddy5splitEPNS_5BlockEii
 624      E7800000 
 625              	.LVL50:
  32:src/buddy.cpp ****             break;
 626              		.loc 1 32 13 is_stmt 1
 627 03f0 6F004002 		j	.L46
 628              	.LVL51:
 629              	.L55:
  30:src/buddy.cpp ****                 tail[i] = nullptr;
 630              		.loc 1 30 17
  30:src/buddy.cpp ****                 tail[i] = nullptr;
 631              		.loc 1 30 25 is_stmt 0
 632 03f4 97070000 		lla	a5,.LANCHOR0
 632      93870700 
 633 03fc B387D700 		add	a5,a5,a3
 634 0400 23B80700 		sd	zero,16(a5)
 635 0404 6FF09FFD 		j	.L49
 636              	.LVL52:
 637              	.L51:
 638              	.LBE17:
  21:src/buddy.cpp ****         return nullptr;
 639              		.loc 1 21 16
 640 0408 93040000 		li	s1,0
 641 040c 6F008000 		j	.L46
 642              	.LVL53:
 643              	.L52:
  23:src/buddy.cpp ****     Block* blk = nullptr;
 644              		.loc 1 23 12
 645 0410 93040000 		li	s1,0
 646              	.LVL54:
 647              	.L46:
  37:src/buddy.cpp **** }
 648              		.loc 1 37 1
 649 0414 13850400 		mv	a0,s1
 650 0418 83308101 		ld	ra,24(sp)
 651              		.cfi_restore 1
 652 041c 03340101 		ld	s0,16(sp)
 653              		.cfi_restore 8
GAS LISTING /tmp/cc7t6RPO.s 			page 18


 654              		.cfi_def_cfa 2, 32
 655 0420 83348100 		ld	s1,8(sp)
 656              		.cfi_restore 9
 657 0424 13010102 		addi	sp,sp,32
 658              		.cfi_def_cfa_offset 0
 659 0428 67800000 		jr	ra
 660              		.cfi_endproc
 661              	.LFE22:
 663              		.section	.rodata.str1.8,"aMS",@progbits,1
 664              		.align	3
 665              	.LC0:
 666 0000 3A2000   		.string	": "
 667 0003 00000000 		.align	3
 667      00
 668              	.LC1:
 669 0008 2000     		.string	" "
 670 000a 00000000 		.align	3
 670      0000
 671              	.LC2:
 672 0010 0A00     		.string	"\n"
 673              		.text
 674              		.align	2
 675              		.globl	_ZN5Buddy9printListEv
 677              	_ZN5Buddy9printListEv:
 678              	.LFB27:
 129:src/buddy.cpp **** void Buddy::printList() {
 679              		.loc 1 129 25 is_stmt 1
 680              		.cfi_startproc
 681 042c 130101FE 		addi	sp,sp,-32
 682              		.cfi_def_cfa_offset 32
 683 0430 233C1100 		sd	ra,24(sp)
 684 0434 23388100 		sd	s0,16(sp)
 685 0438 23349100 		sd	s1,8(sp)
 686 043c 23302101 		sd	s2,0(sp)
 687              		.cfi_offset 1, -8
 688              		.cfi_offset 8, -16
 689              		.cfi_offset 9, -24
 690              		.cfi_offset 18, -32
 691 0440 13040102 		addi	s0,sp,32
 692              		.cfi_def_cfa 8, 0
 130:src/buddy.cpp ****     for(int i=0;i<BUCKET_SIZE;i++){
 693              		.loc 1 130 5
 694              	.LVL55:
 695              	.LBB18:
 130:src/buddy.cpp ****     for(int i=0;i<BUCKET_SIZE;i++){
 696              		.loc 1 130 13 is_stmt 0
 697 0444 13090000 		li	s2,0
 698 0448 6F008001 		j	.L60
 699              	.LVL56:
 700              	.L58:
 701              	.LBB19:
 139:src/buddy.cpp ****         ConsoleUtil::printString("\n");
 702              		.loc 1 139 9 is_stmt 1 discriminator 2
 139:src/buddy.cpp ****         ConsoleUtil::printString("\n");
 703              		.loc 1 139 33 is_stmt 0 discriminator 2
 704 044c 17050000 		lla	a0,.LC2
 704      13050500 
GAS LISTING /tmp/cc7t6RPO.s 			page 19


 705 0454 97000000 		call	_ZN11ConsoleUtil11printStringEPKc@plt
 705      E7800000 
 706              	.LVL57:
 707              	.LBE19:
 130:src/buddy.cpp ****     for(int i=0;i<BUCKET_SIZE;i++){
 708              		.loc 1 130 5 is_stmt 1 discriminator 2
 709 045c 1B091900 		addiw	s2,s2,1
 710              	.LVL58:
 711              	.L60:
 130:src/buddy.cpp ****     for(int i=0;i<BUCKET_SIZE;i++){
 712              		.loc 1 130 18 discriminator 1
 713 0460 9307C000 		li	a5,12
 714 0464 63C62707 		bgt	s2,a5,.L56
 715              	.LBB20:
 131:src/buddy.cpp ****         ConsoleUtil::printInt(i,10);
 716              		.loc 1 131 9
 131:src/buddy.cpp ****         ConsoleUtil::printInt(i,10);
 717              		.loc 1 131 30 is_stmt 0
 718 0468 13060000 		li	a2,0
 719 046c 9305A000 		li	a1,10
 720 0470 13050900 		mv	a0,s2
 721 0474 97000000 		call	_ZN11ConsoleUtil8printIntEiii@plt
 721      E7800000 
 722              	.LVL59:
 132:src/buddy.cpp ****         ConsoleUtil::printString(": ");
 723              		.loc 1 132 9 is_stmt 1
 132:src/buddy.cpp ****         ConsoleUtil::printString(": ");
 724              		.loc 1 132 33 is_stmt 0
 725 047c 17050000 		lla	a0,.LC0
 725      13050500 
 726 0484 97000000 		call	_ZN11ConsoleUtil11printStringEPKc@plt
 726      E7800000 
 727              	.LVL60:
 133:src/buddy.cpp ****         Bucket *tmp = head[i];
 728              		.loc 1 133 9 is_stmt 1
 133:src/buddy.cpp ****         Bucket *tmp = head[i];
 729              		.loc 1 133 17 is_stmt 0
 730 048c 13173900 		slli	a4,s2,3
 731 0490 97070000 		lla	a5,.LANCHOR0
 731      93870700 
 732 0498 B387E700 		add	a5,a5,a4
 733 049c 83B48707 		ld	s1,120(a5)
 734              	.LVL61:
 735              	.L59:
 134:src/buddy.cpp ****         while(tmp != nullptr){
 736              		.loc 1 134 9 is_stmt 1
 134:src/buddy.cpp ****         while(tmp != nullptr){
 737              		.loc 1 134 19
 738 04a0 E38604FA 		beqz	s1,.L58
 135:src/buddy.cpp ****             ConsoleUtil::printInt((uint64)tmp,10);
 739              		.loc 1 135 13
 135:src/buddy.cpp ****             ConsoleUtil::printInt((uint64)tmp,10);
 740              		.loc 1 135 34 is_stmt 0
 741 04a4 13060000 		li	a2,0
 742 04a8 9305A000 		li	a1,10
 743 04ac 1B850400 		sext.w	a0,s1
 744 04b0 97000000 		call	_ZN11ConsoleUtil8printIntEiii@plt
GAS LISTING /tmp/cc7t6RPO.s 			page 20


 744      E7800000 
 745              	.LVL62:
 136:src/buddy.cpp ****             ConsoleUtil::printString(" ");
 746              		.loc 1 136 13 is_stmt 1
 136:src/buddy.cpp ****             ConsoleUtil::printString(" ");
 747              		.loc 1 136 37 is_stmt 0
 748 04b8 17050000 		lla	a0,.LC1
 748      13050500 
 749 04c0 97000000 		call	_ZN11ConsoleUtil11printStringEPKc@plt
 749      E7800000 
 750              	.LVL63:
 137:src/buddy.cpp ****             tmp = tmp->next;
 751              		.loc 1 137 13 is_stmt 1
 137:src/buddy.cpp ****             tmp = tmp->next;
 752              		.loc 1 137 17 is_stmt 0
 753 04c8 83B40400 		ld	s1,0(s1)
 754              	.LVL64:
 134:src/buddy.cpp ****         while(tmp != nullptr){
 755              		.loc 1 134 9
 756 04cc 6FF05FFD 		j	.L59
 757              	.LVL65:
 758              	.L56:
 759              	.LBE20:
 760              	.LBE18:
 761              		.loc 1 141 1
 762 04d0 83308101 		ld	ra,24(sp)
 763              		.cfi_restore 1
 764 04d4 03340101 		ld	s0,16(sp)
 765              		.cfi_restore 8
 766              		.cfi_def_cfa 2, 32
 767 04d8 83348100 		ld	s1,8(sp)
 768              		.cfi_restore 9
 769 04dc 03390100 		ld	s2,0(sp)
 770              		.cfi_restore 18
 771              	.LVL66:
 772 04e0 13010102 		addi	sp,sp,32
 773              		.cfi_def_cfa_offset 0
 774 04e4 67800000 		jr	ra
 775              		.cfi_endproc
 776              	.LFE27:
 778              		.align	2
 780              	_GLOBAL__sub_I__ZN5Buddy16BUDDY_START_ADDRE:
 781              	.LFB29:
 782              		.loc 1 141 1 is_stmt 1
 783              		.cfi_startproc
 784 04e8 130101FF 		addi	sp,sp,-16
 785              		.cfi_def_cfa_offset 16
 786 04ec 23341100 		sd	ra,8(sp)
 787 04f0 23308100 		sd	s0,0(sp)
 788              		.cfi_offset 1, -8
 789              		.cfi_offset 8, -16
 790 04f4 13040101 		addi	s0,sp,16
 791              		.cfi_def_cfa 8, 0
 792              		.loc 1 141 1 is_stmt 0
 793 04f8 B7050100 		li	a1,65536
 794 04fc 9385F5FF 		addi	a1,a1,-1
 795 0500 13051000 		li	a0,1
GAS LISTING /tmp/cc7t6RPO.s 			page 21


 796 0504 97000000 		call	_Z41__static_initialization_and_destruction_0ii
 796      E7800000 
 797              	.LVL67:
 798 050c 83308100 		ld	ra,8(sp)
 799              		.cfi_restore 1
 800 0510 03340100 		ld	s0,0(sp)
 801              		.cfi_restore 8
 802              		.cfi_def_cfa 2, 16
 803 0514 13010101 		addi	sp,sp,16
 804              		.cfi_def_cfa_offset 0
 805 0518 67800000 		jr	ra
 806              		.cfi_endproc
 807              	.LFE29:
 809              		.section	.init_array,"aw"
 810              		.align	3
 811 0000 00000000 		.dword	_GLOBAL__sub_I__ZN5Buddy16BUDDY_START_ADDRE
 811      00000000 
 812              		.globl	_ZN5Buddy4tailE
 813              		.globl	_ZN5Buddy4headE
 814              		.globl	_ZN5Buddy16BLOCKS_AVAILABLEE
 815              		.globl	_ZN5Buddy20BUDDY_META_DATA_ADDRE
 816              		.globl	_ZN5Buddy16BUDDY_START_ADDRE
 817              		.data
 818              		.align	3
 819              		.set	.LANCHOR1,. + 0
 822              	_ZN5Buddy16BLOCKS_AVAILABLEE:
 823 0000 00100000 		.dword	4096
 823      00000000 
 824              		.bss
 825              		.align	3
 826              		.set	.LANCHOR0,. + 0
 829              	_ZN5Buddy16BUDDY_START_ADDRE:
 830 0000 00000000 		.zero	8
 830      00000000 
 833              	_ZN5Buddy20BUDDY_META_DATA_ADDRE:
 834 0008 00000000 		.zero	8
 834      00000000 
 837              	_ZN5Buddy4tailE:
 838 0010 00000000 		.zero	104
 838      00000000 
 838      00000000 
 838      00000000 
 838      00000000 
 841              	_ZN5Buddy4headE:
 842 0078 00000000 		.zero	104
 842      00000000 
 842      00000000 
 842      00000000 
 842      00000000 
 843              		.text
 844              	.Letext0:
 845              		.file 2 "src/../h/../lib/hw.h"
 846              		.file 3 "src/../h/buddy.hpp"
 847              		.file 4 "src/../h/tcb.hpp"
 848              		.file 5 "src/../h/scb.hpp"
 849              		.file 6 "src/../h/consoleUtil.hpp"
GAS LISTING /tmp/cc7t6RPO.s 			page 22


DEFINED SYMBOLS
                            *ABS*:0000000000000000 buddy.cpp
     /tmp/cc7t6RPO.s:8      .text:0000000000000000 _Z41__static_initialization_and_destruction_0ii
     /tmp/cc7t6RPO.s:12     .text:0000000000000000 .L0 
     /tmp/cc7t6RPO.s:14     .text:0000000000000000 .L0 
     /tmp/cc7t6RPO.s:15     .text:0000000000000004 .L0 
     /tmp/cc7t6RPO.s:17     .text:0000000000000008 .L0 
     /tmp/cc7t6RPO.s:19     .text:000000000000000c .L0 
     /tmp/cc7t6RPO.s:21     .text:000000000000000c .L0 
     /tmp/cc7t6RPO.s:25     .text:0000000000000018 .L0 
     /tmp/cc7t6RPO.s:26     .text:0000000000000018 .L0 
     /tmp/cc7t6RPO.s:27     .text:0000000000000018 .L0 
     /tmp/cc7t6RPO.s:29     .text:000000000000001c .L0 
     /tmp/cc7t6RPO.s:32     .text:0000000000000020 .L0 
     /tmp/cc7t6RPO.s:34     .text:0000000000000020 .L0 
     /tmp/cc7t6RPO.s:38     .text:000000000000002c .L0 
     /tmp/cc7t6RPO.s:44     .text:0000000000000044 .L0 
     /tmp/cc7t6RPO.s:47     .text:0000000000000050 .L0 
     /tmp/cc7t6RPO.s:50     .text:0000000000000058 .L0 
     /tmp/cc7t6RPO.s:52     .text:000000000000005c .L0 
     /tmp/cc7t6RPO.s:53     .text:0000000000000060 .L0 
     /tmp/cc7t6RPO.s:59     .text:0000000000000060 _ZN5Buddy10initializeEv
     /tmp/cc7t6RPO.s:62     .text:0000000000000060 .L0 
     /tmp/cc7t6RPO.s:63     .text:0000000000000060 .L0 
     /tmp/cc7t6RPO.s:64     .text:0000000000000064 .L0 
     /tmp/cc7t6RPO.s:66     .text:0000000000000068 .L0 
     /tmp/cc7t6RPO.s:68     .text:000000000000006c .L0 
     /tmp/cc7t6RPO.s:70     .text:000000000000006c .L0 
     /tmp/cc7t6RPO.s:71     .text:000000000000006c .L0 
     /tmp/cc7t6RPO.s:77     .text:0000000000000084 .L0 
     /tmp/cc7t6RPO.s:80     .text:0000000000000090 .L0 
     /tmp/cc7t6RPO.s:81     .text:0000000000000090 .L0 
     /tmp/cc7t6RPO.s:84     .text:0000000000000098 .L0 
     /tmp/cc7t6RPO.s:86     .text:000000000000009c .L0 
     /tmp/cc7t6RPO.s:87     .text:000000000000009c .L0 
     /tmp/cc7t6RPO.s:90     .text:00000000000000a8 .L0 
     /tmp/cc7t6RPO.s:91     .text:00000000000000a8 .L0 
     /tmp/cc7t6RPO.s:93     .text:00000000000000ac .L0 
     /tmp/cc7t6RPO.s:95     .text:00000000000000b0 .L0 
     /tmp/cc7t6RPO.s:96     .text:00000000000000b0 .L0 
     /tmp/cc7t6RPO.s:98     .text:00000000000000b4 .L0 
     /tmp/cc7t6RPO.s:100    .text:00000000000000b8 .L0 
     /tmp/cc7t6RPO.s:102    .text:00000000000000bc .L0 
     /tmp/cc7t6RPO.s:103    .text:00000000000000c0 .L0 
     /tmp/cc7t6RPO.s:104    .text:00000000000000c0 .L0 
     /tmp/cc7t6RPO.s:106    .text:00000000000000c4 .L0 
     /tmp/cc7t6RPO.s:108    .text:00000000000000c8 .L0 
     /tmp/cc7t6RPO.s:114    .text:00000000000000c8 _ZN5Buddy8compressEm
     /tmp/cc7t6RPO.s:117    .text:00000000000000c8 .L0 
     /tmp/cc7t6RPO.s:119    .text:00000000000000c8 .L0 
     /tmp/cc7t6RPO.s:120    .text:00000000000000c8 .L0 
     /tmp/cc7t6RPO.s:123    .text:00000000000000d0 .L0 
     /tmp/cc7t6RPO.s:124    .text:00000000000000d4 .L0 
     /tmp/cc7t6RPO.s:130    .text:00000000000000e8 .L0 
     /tmp/cc7t6RPO.s:131    .text:00000000000000e8 .L0 
     /tmp/cc7t6RPO.s:132    .text:00000000000000e8 .L0 
     /tmp/cc7t6RPO.s:133    .text:00000000000000e8 .L0 
GAS LISTING /tmp/cc7t6RPO.s 			page 23


     /tmp/cc7t6RPO.s:134    .text:00000000000000e8 .L0 
     /tmp/cc7t6RPO.s:136    .text:00000000000000ec .L0 
     /tmp/cc7t6RPO.s:139    .text:00000000000000f0 .L0 
     /tmp/cc7t6RPO.s:140    .text:00000000000000f0 .L0 
     /tmp/cc7t6RPO.s:146    .text:0000000000000104 .L0 
     /tmp/cc7t6RPO.s:147    .text:0000000000000104 .L0 
     /tmp/cc7t6RPO.s:153    .text:000000000000010c .L0 
     /tmp/cc7t6RPO.s:157    .text:0000000000000110 .L0 
     /tmp/cc7t6RPO.s:158    .text:0000000000000110 .L0 
     /tmp/cc7t6RPO.s:160    .text:0000000000000114 .L0 
     /tmp/cc7t6RPO.s:164    .text:0000000000000118 .L0 
     /tmp/cc7t6RPO.s:168    .text:000000000000011c .L0 
     /tmp/cc7t6RPO.s:169    .text:000000000000011c .L0 
     /tmp/cc7t6RPO.s:174    .text:0000000000000120 .L0 
     /tmp/cc7t6RPO.s:175    .text:0000000000000120 .L0 
     /tmp/cc7t6RPO.s:177    .text:0000000000000124 .L0 
     /tmp/cc7t6RPO.s:179    .text:0000000000000128 .L0 
     /tmp/cc7t6RPO.s:182    .text:000000000000012c .L0 
     /tmp/cc7t6RPO.s:183    .text:000000000000012c .L0 
     /tmp/cc7t6RPO.s:186    .text:0000000000000138 .L0 
     /tmp/cc7t6RPO.s:189    .text:000000000000013c .L0 
     /tmp/cc7t6RPO.s:190    .text:000000000000013c .L0 
     /tmp/cc7t6RPO.s:192    .text:0000000000000140 .L0 
     /tmp/cc7t6RPO.s:195    .text:0000000000000144 .L0 
     /tmp/cc7t6RPO.s:196    .text:0000000000000144 .L0 
     /tmp/cc7t6RPO.s:199    .text:000000000000014c .L0 
     /tmp/cc7t6RPO.s:201    .text:0000000000000150 .L0 
     /tmp/cc7t6RPO.s:203    .text:0000000000000154 .L0 
     /tmp/cc7t6RPO.s:209    .text:000000000000015c .L0 
     /tmp/cc7t6RPO.s:211    .text:0000000000000160 .L0 
     /tmp/cc7t6RPO.s:212    .text:0000000000000160 .L0 
     /tmp/cc7t6RPO.s:214    .text:0000000000000164 .L0 
     /tmp/cc7t6RPO.s:220    .text:000000000000016c .L0 
     /tmp/cc7t6RPO.s:221    .text:000000000000016c .L0 
     /tmp/cc7t6RPO.s:223    .text:0000000000000170 .L0 
     /tmp/cc7t6RPO.s:231    .text:0000000000000188 .L0 
     /tmp/cc7t6RPO.s:232    .text:0000000000000188 .L0 
     /tmp/cc7t6RPO.s:234    .text:000000000000018c .L0 
     /tmp/cc7t6RPO.s:235    .text:000000000000018c .L0 
     /tmp/cc7t6RPO.s:270    .text:00000000000001c0 _ZN5Buddy6insertEPvm
     /tmp/cc7t6RPO.s:244    .text:00000000000001a0 .L0 
     /tmp/cc7t6RPO.s:245    .text:00000000000001a4 .L0 
     /tmp/cc7t6RPO.s:247    .text:00000000000001a8 .L0 
     /tmp/cc7t6RPO.s:248    .text:00000000000001a8 .L0 
     /tmp/cc7t6RPO.s:250    .text:00000000000001ac .L0 
     /tmp/cc7t6RPO.s:253    .text:00000000000001b0 .L0 
     /tmp/cc7t6RPO.s:256    .text:00000000000001b4 .L0 
     /tmp/cc7t6RPO.s:259    .text:00000000000001b8 .L0 
     /tmp/cc7t6RPO.s:264    .text:00000000000001c0 .L0 
     /tmp/cc7t6RPO.s:273    .text:00000000000001c0 .L0 
     /tmp/cc7t6RPO.s:275    .text:00000000000001c0 .L0 
     /tmp/cc7t6RPO.s:278    .text:00000000000001c4 .L0 
     /tmp/cc7t6RPO.s:279    .text:00000000000001c4 .L0 
     /tmp/cc7t6RPO.s:284    .text:00000000000001d8 .L0 
     /tmp/cc7t6RPO.s:287    .text:00000000000001dc .L0 
     /tmp/cc7t6RPO.s:288    .text:00000000000001e0 .L0 
     /tmp/cc7t6RPO.s:291    .text:00000000000001e8 .L0 
GAS LISTING /tmp/cc7t6RPO.s 			page 24


     /tmp/cc7t6RPO.s:292    .text:00000000000001e8 .L0 
     /tmp/cc7t6RPO.s:294    .text:00000000000001ec .L0 
     /tmp/cc7t6RPO.s:300    .text:00000000000001f0 .L0 
     /tmp/cc7t6RPO.s:301    .text:00000000000001f0 .L0 
     /tmp/cc7t6RPO.s:303    .text:00000000000001f4 .L0 
     /tmp/cc7t6RPO.s:308    .text:00000000000001f8 .L0 
     /tmp/cc7t6RPO.s:309    .text:00000000000001f8 .L0 
     /tmp/cc7t6RPO.s:318    .text:00000000000001fc .L0 
     /tmp/cc7t6RPO.s:320    .text:0000000000000200 .L0 
     /tmp/cc7t6RPO.s:321    .text:0000000000000200 .L0 
     /tmp/cc7t6RPO.s:325    .text:0000000000000204 .L0 
     /tmp/cc7t6RPO.s:328    .text:0000000000000208 .L0 
     /tmp/cc7t6RPO.s:329    .text:0000000000000208 .L0 
     /tmp/cc7t6RPO.s:330    .text:0000000000000208 .L0 
     /tmp/cc7t6RPO.s:334    .text:0000000000000208 .L0 
     /tmp/cc7t6RPO.s:335    .text:0000000000000208 .L0 
     /tmp/cc7t6RPO.s:340    .text:0000000000000218 .L0 
     /tmp/cc7t6RPO.s:342    .text:000000000000021c .L0 
     /tmp/cc7t6RPO.s:343    .text:000000000000021c .L0 
     /tmp/cc7t6RPO.s:345    .text:0000000000000220 .L0 
     /tmp/cc7t6RPO.s:347    .text:0000000000000224 .L0 
     /tmp/cc7t6RPO.s:349    .text:0000000000000228 .L0 
     /tmp/cc7t6RPO.s:352    .text:000000000000022c .L0 
     /tmp/cc7t6RPO.s:353    .text:000000000000022c .L0 
     /tmp/cc7t6RPO.s:354    .text:000000000000022c .L0 
     /tmp/cc7t6RPO.s:358    .text:000000000000022c .L0 
     /tmp/cc7t6RPO.s:359    .text:000000000000022c .L0 
     /tmp/cc7t6RPO.s:360    .text:000000000000022c .L0 
     /tmp/cc7t6RPO.s:362    .text:0000000000000230 .L0 
     /tmp/cc7t6RPO.s:363    .text:0000000000000230 .L0 
     /tmp/cc7t6RPO.s:368    .text:0000000000000244 .L0 
     /tmp/cc7t6RPO.s:369    .text:0000000000000244 .L0 
     /tmp/cc7t6RPO.s:372    .text:000000000000024c .L0 
     /tmp/cc7t6RPO.s:380    .text:0000000000000250 .L0 
     /tmp/cc7t6RPO.s:381    .text:0000000000000250 .L0 
     /tmp/cc7t6RPO.s:382    .text:0000000000000250 .L0 
     /tmp/cc7t6RPO.s:384    .text:0000000000000254 .L0 
     /tmp/cc7t6RPO.s:385    .text:0000000000000254 .L0 
     /tmp/cc7t6RPO.s:387    .text:0000000000000258 .L0 
     /tmp/cc7t6RPO.s:388    .text:0000000000000258 .L0 
     /tmp/cc7t6RPO.s:391    .text:0000000000000260 .L0 
     /tmp/cc7t6RPO.s:400    .text:0000000000000264 .L0 
     /tmp/cc7t6RPO.s:401    .text:0000000000000264 .L0 
     /tmp/cc7t6RPO.s:407    .text:0000000000000278 .L0 
     /tmp/cc7t6RPO.s:409    .text:000000000000027c .L0 
     /tmp/cc7t6RPO.s:410    .text:000000000000027c .L0 
     /tmp/cc7t6RPO.s:412    .text:0000000000000280 .L0 
     /tmp/cc7t6RPO.s:414    .text:0000000000000284 .L0 
     /tmp/cc7t6RPO.s:416    .text:0000000000000288 .L0 
     /tmp/cc7t6RPO.s:417    .text:0000000000000288 .L0 
     /tmp/cc7t6RPO.s:421    .text:0000000000000290 .L0 
     /tmp/cc7t6RPO.s:422    .text:0000000000000294 .L0 
     /tmp/cc7t6RPO.s:424    .text:0000000000000298 .L0 
     /tmp/cc7t6RPO.s:425    .text:0000000000000298 .L0 
     /tmp/cc7t6RPO.s:427    .text:000000000000029c .L0 
     /tmp/cc7t6RPO.s:429    .text:00000000000002a0 .L0 
     /tmp/cc7t6RPO.s:435    .text:00000000000002a0 _ZN5Buddy4freeEPvm
GAS LISTING /tmp/cc7t6RPO.s 			page 25


     /tmp/cc7t6RPO.s:438    .text:00000000000002a0 .L0 
     /tmp/cc7t6RPO.s:440    .text:00000000000002a0 .L0 
     /tmp/cc7t6RPO.s:441    .text:00000000000002a0 .L0 
     /tmp/cc7t6RPO.s:443    .text:00000000000002a4 .L0 
     /tmp/cc7t6RPO.s:444    .text:00000000000002a8 .L0 
     /tmp/cc7t6RPO.s:447    .text:00000000000002b0 .L0 
     /tmp/cc7t6RPO.s:448    .text:00000000000002b0 .L0 
     /tmp/cc7t6RPO.s:450    .text:00000000000002b4 .L0 
     /tmp/cc7t6RPO.s:452    .text:00000000000002b4 .L0 
     /tmp/cc7t6RPO.s:453    .text:00000000000002b4 .L0 
     /tmp/cc7t6RPO.s:456    .text:00000000000002bc .L0 
     /tmp/cc7t6RPO.s:457    .text:00000000000002c0 .L0 
     /tmp/cc7t6RPO.s:459    .text:00000000000002c4 .L0 
     /tmp/cc7t6RPO.s:460    .text:00000000000002c4 .L0 
     /tmp/cc7t6RPO.s:462    .text:00000000000002c8 .L0 
     /tmp/cc7t6RPO.s:467    .text:00000000000002d0 .L0 
     /tmp/cc7t6RPO.s:473    .text:00000000000002d0 _ZN5Buddy5splitEPNS_5BlockEii
     /tmp/cc7t6RPO.s:476    .text:00000000000002d0 .L0 
     /tmp/cc7t6RPO.s:478    .text:00000000000002d0 .L0 
     /tmp/cc7t6RPO.s:479    .text:00000000000002d4 .L0 
     /tmp/cc7t6RPO.s:481    .text:00000000000002d8 .L0 
     /tmp/cc7t6RPO.s:483    .text:00000000000002dc .L0 
     /tmp/cc7t6RPO.s:488    .text:00000000000002e0 .L0 
     /tmp/cc7t6RPO.s:489    .text:00000000000002e0 .L0 
     /tmp/cc7t6RPO.s:492    .text:00000000000002e4 .L0 
     /tmp/cc7t6RPO.s:495    .text:00000000000002ec .L0 
     /tmp/cc7t6RPO.s:497    .text:00000000000002f0 .L0 
     /tmp/cc7t6RPO.s:502    .text:0000000000000304 .L0 
     /tmp/cc7t6RPO.s:504    .text:0000000000000308 .L0 
     /tmp/cc7t6RPO.s:505    .text:0000000000000308 .L0 
     /tmp/cc7t6RPO.s:507    .text:000000000000030c .L0 
     /tmp/cc7t6RPO.s:509    .text:0000000000000310 .L0 
     /tmp/cc7t6RPO.s:512    .text:0000000000000314 .L0 
     /tmp/cc7t6RPO.s:516    .text:0000000000000318 .L0 
     /tmp/cc7t6RPO.s:517    .text:0000000000000318 .L0 
     /tmp/cc7t6RPO.s:521    .text:0000000000000320 .L0 
     /tmp/cc7t6RPO.s:522    .text:0000000000000320 .L0 
     /tmp/cc7t6RPO.s:527    .text:0000000000000334 .L0 
     /tmp/cc7t6RPO.s:529    .text:0000000000000338 .L0 
     /tmp/cc7t6RPO.s:530    .text:0000000000000338 .L0 
     /tmp/cc7t6RPO.s:533    .text:000000000000033c .L0 
     /tmp/cc7t6RPO.s:536    .text:0000000000000344 .L0 
     /tmp/cc7t6RPO.s:538    .text:0000000000000348 .L0 
     /tmp/cc7t6RPO.s:540    .text:000000000000034c .L0 
     /tmp/cc7t6RPO.s:541    .text:000000000000034c .L0 
     /tmp/cc7t6RPO.s:546    .text:0000000000000360 .L0 
     /tmp/cc7t6RPO.s:548    .text:0000000000000364 .L0 
     /tmp/cc7t6RPO.s:553    .text:000000000000036c .L0 
     /tmp/cc7t6RPO.s:554    .text:0000000000000370 .L0 
     /tmp/cc7t6RPO.s:555    .text:0000000000000370 .L0 
     /tmp/cc7t6RPO.s:557    .text:0000000000000374 .L0 
     /tmp/cc7t6RPO.s:559    .text:0000000000000378 .L0 
     /tmp/cc7t6RPO.s:565    .text:0000000000000378 _ZN5Buddy5allocEm
     /tmp/cc7t6RPO.s:568    .text:0000000000000378 .L0 
     /tmp/cc7t6RPO.s:570    .text:0000000000000378 .L0 
     /tmp/cc7t6RPO.s:571    .text:000000000000037c .L0 
     /tmp/cc7t6RPO.s:575    .text:0000000000000388 .L0 
GAS LISTING /tmp/cc7t6RPO.s 			page 26


     /tmp/cc7t6RPO.s:576    .text:0000000000000388 .L0 
     /tmp/cc7t6RPO.s:577    .text:0000000000000388 .L0 
     /tmp/cc7t6RPO.s:579    .text:000000000000038c .L0 
     /tmp/cc7t6RPO.s:581    .text:000000000000038c .L0 
     /tmp/cc7t6RPO.s:585    .text:0000000000000394 .L0 
     /tmp/cc7t6RPO.s:589    .text:0000000000000398 .L0 
     /tmp/cc7t6RPO.s:592    .text:00000000000003a0 .L0 
     /tmp/cc7t6RPO.s:593    .text:00000000000003a0 .L0 
     /tmp/cc7t6RPO.s:598    .text:00000000000003b4 .L0 
     /tmp/cc7t6RPO.s:600    .text:00000000000003b8 .L0 
     /tmp/cc7t6RPO.s:606    .text:00000000000003c0 .L0 
     /tmp/cc7t6RPO.s:607    .text:00000000000003c0 .L0 
     /tmp/cc7t6RPO.s:608    .text:00000000000003c0 .L0 
     /tmp/cc7t6RPO.s:610    .text:00000000000003c4 .L0 
     /tmp/cc7t6RPO.s:615    .text:00000000000003d8 .L0 
     /tmp/cc7t6RPO.s:618    .text:00000000000003dc .L0 
     /tmp/cc7t6RPO.s:619    .text:00000000000003dc .L0 
     /tmp/cc7t6RPO.s:627    .text:00000000000003f0 .L0 
     /tmp/cc7t6RPO.s:631    .text:00000000000003f4 .L0 
     /tmp/cc7t6RPO.s:632    .text:00000000000003f4 .L0 
     /tmp/cc7t6RPO.s:640    .text:0000000000000408 .L0 
     /tmp/cc7t6RPO.s:645    .text:0000000000000410 .L0 
     /tmp/cc7t6RPO.s:649    .text:0000000000000414 .L0 
     /tmp/cc7t6RPO.s:651    .text:000000000000041c .L0 
     /tmp/cc7t6RPO.s:653    .text:0000000000000420 .L0 
     /tmp/cc7t6RPO.s:654    .text:0000000000000420 .L0 
     /tmp/cc7t6RPO.s:656    .text:0000000000000424 .L0 
     /tmp/cc7t6RPO.s:658    .text:0000000000000428 .L0 
     /tmp/cc7t6RPO.s:660    .text:000000000000042c .L0 
     /tmp/cc7t6RPO.s:677    .text:000000000000042c _ZN5Buddy9printListEv
     /tmp/cc7t6RPO.s:680    .text:000000000000042c .L0 
     /tmp/cc7t6RPO.s:681    .text:000000000000042c .L0 
     /tmp/cc7t6RPO.s:682    .text:0000000000000430 .L0 
     /tmp/cc7t6RPO.s:687    .text:0000000000000440 .L0 
     /tmp/cc7t6RPO.s:688    .text:0000000000000440 .L0 
     /tmp/cc7t6RPO.s:689    .text:0000000000000440 .L0 
     /tmp/cc7t6RPO.s:690    .text:0000000000000440 .L0 
     /tmp/cc7t6RPO.s:692    .text:0000000000000444 .L0 
     /tmp/cc7t6RPO.s:696    .text:0000000000000444 .L0 
     /tmp/cc7t6RPO.s:697    .text:0000000000000444 .L0 
     /tmp/cc7t6RPO.s:703    .text:000000000000044c .L0 
     /tmp/cc7t6RPO.s:704    .text:000000000000044c .L0 
     /tmp/cc7t6RPO.s:709    .text:000000000000045c .L0 
     /tmp/cc7t6RPO.s:713    .text:0000000000000460 .L0 
     /tmp/cc7t6RPO.s:717    .text:0000000000000468 .L0 
     /tmp/cc7t6RPO.s:718    .text:0000000000000468 .L0 
     /tmp/cc7t6RPO.s:724    .text:000000000000047c .L0 
     /tmp/cc7t6RPO.s:725    .text:000000000000047c .L0 
     /tmp/cc7t6RPO.s:729    .text:000000000000048c .L0 
     /tmp/cc7t6RPO.s:730    .text:000000000000048c .L0 
     /tmp/cc7t6RPO.s:737    .text:00000000000004a0 .L0 
     /tmp/cc7t6RPO.s:738    .text:00000000000004a0 .L0 
     /tmp/cc7t6RPO.s:740    .text:00000000000004a4 .L0 
     /tmp/cc7t6RPO.s:741    .text:00000000000004a4 .L0 
     /tmp/cc7t6RPO.s:747    .text:00000000000004b8 .L0 
     /tmp/cc7t6RPO.s:748    .text:00000000000004b8 .L0 
     /tmp/cc7t6RPO.s:752    .text:00000000000004c8 .L0 
GAS LISTING /tmp/cc7t6RPO.s 			page 27


     /tmp/cc7t6RPO.s:753    .text:00000000000004c8 .L0 
     /tmp/cc7t6RPO.s:756    .text:00000000000004cc .L0 
     /tmp/cc7t6RPO.s:762    .text:00000000000004d0 .L0 
     /tmp/cc7t6RPO.s:763    .text:00000000000004d4 .L0 
     /tmp/cc7t6RPO.s:765    .text:00000000000004d8 .L0 
     /tmp/cc7t6RPO.s:766    .text:00000000000004d8 .L0 
     /tmp/cc7t6RPO.s:768    .text:00000000000004dc .L0 
     /tmp/cc7t6RPO.s:770    .text:00000000000004e0 .L0 
     /tmp/cc7t6RPO.s:773    .text:00000000000004e4 .L0 
     /tmp/cc7t6RPO.s:775    .text:00000000000004e8 .L0 
     /tmp/cc7t6RPO.s:780    .text:00000000000004e8 _GLOBAL__sub_I__ZN5Buddy16BUDDY_START_ADDRE
     /tmp/cc7t6RPO.s:783    .text:00000000000004e8 .L0 
     /tmp/cc7t6RPO.s:784    .text:00000000000004e8 .L0 
     /tmp/cc7t6RPO.s:785    .text:00000000000004ec .L0 
     /tmp/cc7t6RPO.s:788    .text:00000000000004f4 .L0 
     /tmp/cc7t6RPO.s:789    .text:00000000000004f4 .L0 
     /tmp/cc7t6RPO.s:791    .text:00000000000004f8 .L0 
     /tmp/cc7t6RPO.s:793    .text:00000000000004f8 .L0 
     /tmp/cc7t6RPO.s:799    .text:0000000000000510 .L0 
     /tmp/cc7t6RPO.s:801    .text:0000000000000514 .L0 
     /tmp/cc7t6RPO.s:802    .text:0000000000000514 .L0 
     /tmp/cc7t6RPO.s:804    .text:0000000000000518 .L0 
     /tmp/cc7t6RPO.s:806    .text:000000000000051c .L0 
     /tmp/cc7t6RPO.s:837    .bss:0000000000000010 _ZN5Buddy4tailE
     /tmp/cc7t6RPO.s:841    .bss:0000000000000078 _ZN5Buddy4headE
     /tmp/cc7t6RPO.s:822    .data:0000000000000000 _ZN5Buddy16BLOCKS_AVAILABLEE
     /tmp/cc7t6RPO.s:833    .bss:0000000000000008 _ZN5Buddy20BUDDY_META_DATA_ADDRE
     /tmp/cc7t6RPO.s:829    .bss:0000000000000000 _ZN5Buddy16BUDDY_START_ADDRE
     /tmp/cc7t6RPO.s:819    .data:0000000000000000 .LANCHOR1
     /tmp/cc7t6RPO.s:826    .bss:0000000000000000 .LANCHOR0
     /tmp/cc7t6RPO.s:850    .text:000000000000051c .L0 
     /tmp/cc7t6RPO.s:38     .text:000000000000002c .L0 
     /tmp/cc7t6RPO.s:44     .text:0000000000000044 .L0 
     /tmp/cc7t6RPO.s:71     .text:000000000000006c .L0 
     /tmp/cc7t6RPO.s:77     .text:0000000000000084 .L0 
     /tmp/cc7t6RPO.s:88     .text:00000000000000a0 .L0 
     /tmp/cc7t6RPO.s:141    .text:00000000000000f4 .L0 
     /tmp/cc7t6RPO.s:183    .text:000000000000012c .L0 
     /tmp/cc7t6RPO.s:224    .text:0000000000000174 .L0 
     /tmp/cc7t6RPO.s:280    .text:00000000000001c8 .L0 
     /tmp/cc7t6RPO.s:335    .text:0000000000000208 .L0 
     /tmp/cc7t6RPO.s:364    .text:0000000000000234 .L0 
     /tmp/cc7t6RPO.s:402    .text:0000000000000268 .L0 
     /tmp/cc7t6RPO.s:498    .text:00000000000002f4 .L0 
     /tmp/cc7t6RPO.s:523    .text:0000000000000324 .L0 
     /tmp/cc7t6RPO.s:542    .text:0000000000000350 .L0 
     /tmp/cc7t6RPO.s:594    .text:00000000000003a4 .L0 
     /tmp/cc7t6RPO.s:611    .text:00000000000003c8 .L0 
     /tmp/cc7t6RPO.s:632    .text:00000000000003f4 .L0 
     /tmp/cc7t6RPO.s:671    .rodata.str1.8:0000000000000010 .LC2
     /tmp/cc7t6RPO.s:704    .text:000000000000044c .L0 
     /tmp/cc7t6RPO.s:665    .rodata.str1.8:0000000000000000 .LC0
     /tmp/cc7t6RPO.s:725    .text:000000000000047c .L0 
     /tmp/cc7t6RPO.s:731    .text:0000000000000490 .L0 
     /tmp/cc7t6RPO.s:668    .rodata.str1.8:0000000000000008 .LC1
     /tmp/cc7t6RPO.s:748    .text:00000000000004b8 .L0 
     /tmp/cc7t6RPO.s:31     .text:0000000000000020 .L4
GAS LISTING /tmp/cc7t6RPO.s 			page 28


     /tmp/cc7t6RPO.s:23     .text:0000000000000014 .L1
     /tmp/cc7t6RPO.s:262    .text:00000000000001bc .L17
     /tmp/cc7t6RPO.s:171    .text:0000000000000120 .L14
     /tmp/cc7t6RPO.s:207    .text:000000000000015c .L20
     /tmp/cc7t6RPO.s:229    .text:0000000000000188 .L21
     /tmp/cc7t6RPO.s:241    .text:00000000000001a0 .L7
     /tmp/cc7t6RPO.s:150    .text:000000000000010c .L9
     /tmp/cc7t6RPO.s:155    .text:0000000000000110 .L10
     /tmp/cc7t6RPO.s:218    .text:000000000000016c .L12
     /tmp/cc7t6RPO.s:162    .text:0000000000000118 .L11
     /tmp/cc7t6RPO.s:166    .text:000000000000011c .L13
     /tmp/cc7t6RPO.s:327    .text:0000000000000208 .L31
     /tmp/cc7t6RPO.s:351    .text:000000000000022c .L32
     /tmp/cc7t6RPO.s:393    .text:0000000000000264 .L26
     /tmp/cc7t6RPO.s:374    .text:0000000000000250 .L33
     /tmp/cc7t6RPO.s:304    .text:00000000000001f8 .L25
     /tmp/cc7t6RPO.s:419    .text:0000000000000290 .L22
     /tmp/cc7t6RPO.s:465    .text:00000000000002cc .L37
     /tmp/cc7t6RPO.s:513    .text:0000000000000318 .L41
     /tmp/cc7t6RPO.s:551    .text:000000000000036c .L40
     /tmp/cc7t6RPO.s:486    .text:00000000000002e0 .L43
     /tmp/cc7t6RPO.s:510    .text:0000000000000314 .L44
     /tmp/cc7t6RPO.s:637    .text:0000000000000408 .L51
     /tmp/cc7t6RPO.s:643    .text:0000000000000410 .L52
     /tmp/cc7t6RPO.s:603    .text:00000000000003c0 .L54
     /tmp/cc7t6RPO.s:586    .text:0000000000000398 .L50
     /tmp/cc7t6RPO.s:629    .text:00000000000003f4 .L55
     /tmp/cc7t6RPO.s:647    .text:0000000000000414 .L46
     /tmp/cc7t6RPO.s:616    .text:00000000000003dc .L49
     /tmp/cc7t6RPO.s:711    .text:0000000000000460 .L60
     /tmp/cc7t6RPO.s:758    .text:00000000000004d0 .L56
     /tmp/cc7t6RPO.s:700    .text:000000000000044c .L58
     /tmp/cc7t6RPO.s:735    .text:00000000000004a0 .L59
     /tmp/cc7t6RPO.s:2270   .debug_abbrev:0000000000000000 .Ldebug_abbrev0
     /tmp/cc7t6RPO.s:3819   .debug_str:000000000000068e .LASF149
     /tmp/cc7t6RPO.s:3719   .debug_str:0000000000000407 .LASF150
     /tmp/cc7t6RPO.s:3599   .debug_str:00000000000000bc .LASF151
     /tmp/cc7t6RPO.s:5      .text:0000000000000000 .Ltext0
     /tmp/cc7t6RPO.s:844    .text:000000000000051c .Letext0
     /tmp/cc7t6RPO.s:3575   .debug_line:0000000000000000 .Ldebug_line0
     /tmp/cc7t6RPO.s:3673   .debug_str:00000000000002ea .LASF0
     /tmp/cc7t6RPO.s:3699   .debug_str:000000000000037f .LASF1
     /tmp/cc7t6RPO.s:3763   .debug_str:000000000000053c .LASF2
     /tmp/cc7t6RPO.s:3771   .debug_str:000000000000056a .LASF4
     /tmp/cc7t6RPO.s:3685   .debug_str:000000000000032e .LASF3
     /tmp/cc7t6RPO.s:3589   .debug_str:000000000000006f .LASF5
     /tmp/cc7t6RPO.s:3739   .debug_str:0000000000000497 .LASF6
     /tmp/cc7t6RPO.s:3693   .debug_str:000000000000035f .LASF7
     /tmp/cc7t6RPO.s:3651   .debug_str:000000000000024d .LASF8
     /tmp/cc7t6RPO.s:3655   .debug_str:0000000000000269 .LASF9
     /tmp/cc7t6RPO.s:3613   .debug_str:0000000000000145 .LASF10
     /tmp/cc7t6RPO.s:3649   .debug_str:000000000000023e .LASF11
     /tmp/cc7t6RPO.s:3625   .debug_str:0000000000000194 .LASF12
     /tmp/cc7t6RPO.s:3611   .debug_str:0000000000000135 .LASF13
     /tmp/cc7t6RPO.s:3793   .debug_str:00000000000005ed .LASF14
     /tmp/cc7t6RPO.s:3641   .debug_str:00000000000001fc .LASF15
     /tmp/cc7t6RPO.s:3787   .debug_str:00000000000005bb .LASF16
GAS LISTING /tmp/cc7t6RPO.s 			page 29


     /tmp/cc7t6RPO.s:3689   .debug_str:0000000000000346 .LASF35
     /tmp/cc7t6RPO.s:3687   .debug_str:0000000000000340 .LASF152
     /tmp/cc7t6RPO.s:3615   .debug_str:0000000000000154 .LASF36
     /tmp/cc7t6RPO.s:3785   .debug_str:00000000000005b0 .LASF17
     /tmp/cc7t6RPO.s:3677   .debug_str:0000000000000301 .LASF19
     /tmp/cc7t6RPO.s:3827   .debug_str:000000000000076d .LASF153
     /tmp/cc7t6RPO.s:3737   .debug_str:0000000000000485 .LASF154
     /tmp/cc7t6RPO.s:3839   .debug_str:00000000000007c2 .LASF26
     /tmp/cc7t6RPO.s:3837   .debug_str:00000000000007af .LASF28
     /tmp/cc7t6RPO.s:3619   .debug_str:0000000000000174 .LASF18
     /tmp/cc7t6RPO.s:3805   .debug_str:000000000000063a .LASF20
     /tmp/cc7t6RPO.s:3665   .debug_str:00000000000002b3 .LASF21
     /tmp/cc7t6RPO.s:3863   .debug_str:0000000000000869 .LASF22
     /tmp/cc7t6RPO.s:3639   .debug_str:00000000000001eb .LASF23
     /tmp/cc7t6RPO.s:3663   .debug_str:00000000000002ac .LASF155
     /tmp/cc7t6RPO.s:3791   .debug_str:00000000000005e8 .LASF24
     /tmp/cc7t6RPO.s:3721   .debug_str:0000000000000415 .LASF25
     /tmp/cc7t6RPO.s:3681   .debug_str:0000000000000324 .LASF27
     /tmp/cc7t6RPO.s:3769   .debug_str:0000000000000559 .LASF29
     /tmp/cc7t6RPO.s:3643   .debug_str:0000000000000212 .LASF30
     /tmp/cc7t6RPO.s:3579   .debug_str:0000000000000008 .LASF32
     /tmp/cc7t6RPO.s:3669   .debug_str:00000000000002dd .LASF31
     /tmp/cc7t6RPO.s:3815   .debug_str:0000000000000671 .LASF33
     /tmp/cc7t6RPO.s:3871   .debug_str:000000000000089a .LASF98
     /tmp/cc7t6RPO.s:3667   .debug_str:00000000000002c8 .LASF99
     /tmp/cc7t6RPO.s:3705   .debug_str:00000000000003bf .LASF34
     /tmp/cc7t6RPO.s:3803   .debug_str:0000000000000632 .LASF156
     /tmp/cc7t6RPO.s:3879   .debug_str:00000000000008cb .LASF41
     /tmp/cc7t6RPO.s:3781   .debug_str:000000000000059c .LASF37
     /tmp/cc7t6RPO.s:3609   .debug_str:000000000000012f .LASF38
     /tmp/cc7t6RPO.s:3603   .debug_str:0000000000000119 .LASF39
     /tmp/cc7t6RPO.s:3577   .debug_str:0000000000000000 .LASF40
     /tmp/cc7t6RPO.s:3657   .debug_str:0000000000000277 .LASF42
     /tmp/cc7t6RPO.s:3683   .debug_str:0000000000000329 .LASF43
     /tmp/cc7t6RPO.s:3679   .debug_str:0000000000000319 .LASF44
     /tmp/cc7t6RPO.s:3621   .debug_str:000000000000017e .LASF45
     /tmp/cc7t6RPO.s:3789   .debug_str:00000000000005d1 .LASF46
     /tmp/cc7t6RPO.s:3729   .debug_str:000000000000043c .LASF47
     /tmp/cc7t6RPO.s:3773   .debug_str:0000000000000571 .LASF48
     /tmp/cc7t6RPO.s:3587   .debug_str:0000000000000063 .LASF49
     /tmp/cc7t6RPO.s:3851   .debug_str:0000000000000812 .LASF50
     /tmp/cc7t6RPO.s:3845   .debug_str:00000000000007e8 .LASF51
     /tmp/cc7t6RPO.s:3889   .debug_str:0000000000000907 .LASF52
     /tmp/cc7t6RPO.s:3653   .debug_str:000000000000025d .LASF53
     /tmp/cc7t6RPO.s:3583   .debug_str:000000000000002b .LASF54
     /tmp/cc7t6RPO.s:3727   .debug_str:000000000000042f .LASF55
     /tmp/cc7t6RPO.s:3631   .debug_str:00000000000001be .LASF56
     /tmp/cc7t6RPO.s:3635   .debug_str:00000000000001dd .LASF57
     /tmp/cc7t6RPO.s:3691   .debug_str:000000000000034c .LASF58
     /tmp/cc7t6RPO.s:3731   .debug_str:0000000000000441 .LASF59
     /tmp/cc7t6RPO.s:3743   .debug_str:00000000000004b3 .LASF60
     /tmp/cc7t6RPO.s:3623   .debug_str:000000000000018a .LASF61
     /tmp/cc7t6RPO.s:3627   .debug_str:00000000000001a4 .LASF62
     /tmp/cc7t6RPO.s:3585   .debug_str:000000000000003b .LASF63
     /tmp/cc7t6RPO.s:3853   .debug_str:000000000000081a .LASF64
     /tmp/cc7t6RPO.s:3835   .debug_str:0000000000000797 .LASF65
     /tmp/cc7t6RPO.s:3695   .debug_str:0000000000000372 .LASF66
GAS LISTING /tmp/cc7t6RPO.s 			page 30


     /tmp/cc7t6RPO.s:3857   .debug_str:0000000000000845 .LASF67
     /tmp/cc7t6RPO.s:3811   .debug_str:0000000000000661 .LASF68
     /tmp/cc7t6RPO.s:3581   .debug_str:0000000000000026 .LASF69
     /tmp/cc7t6RPO.s:3883   .debug_str:00000000000008da .LASF70
     /tmp/cc7t6RPO.s:3707   .debug_str:00000000000003c4 .LASF71
     /tmp/cc7t6RPO.s:3825   .debug_str:0000000000000763 .LASF72
     /tmp/cc7t6RPO.s:3823   .debug_str:000000000000075e .LASF73
     /tmp/cc7t6RPO.s:3865   .debug_str:000000000000087a .LASF74
     /tmp/cc7t6RPO.s:3833   .debug_str:000000000000078d .LASF75
     /tmp/cc7t6RPO.s:3709   .debug_str:00000000000003ca .LASF76
     /tmp/cc7t6RPO.s:3869   .debug_str:0000000000000891 .LASF77
     /tmp/cc7t6RPO.s:3593   .debug_str:000000000000007b .LASF78
     /tmp/cc7t6RPO.s:3817   .debug_str:0000000000000686 .LASF79
     /tmp/cc7t6RPO.s:3777   .debug_str:0000000000000587 .LASF80
     /tmp/cc7t6RPO.s:3775   .debug_str:0000000000000576 .LASF81
     /tmp/cc7t6RPO.s:3783   .debug_str:00000000000005a4 .LASF82
     /tmp/cc7t6RPO.s:3629   .debug_str:00000000000001b2 .LASF83
     /tmp/cc7t6RPO.s:3755   .debug_str:0000000000000500 .LASF84
     /tmp/cc7t6RPO.s:3843   .debug_str:00000000000007e3 .LASF85
     /tmp/cc7t6RPO.s:3725   .debug_str:0000000000000423 .LASF86
     /tmp/cc7t6RPO.s:3637   .debug_str:00000000000001e6 .LASF87
     /tmp/cc7t6RPO.s:3867   .debug_str:0000000000000882 .LASF88
     /tmp/cc7t6RPO.s:3797   .debug_str:0000000000000606 .LASF89
     /tmp/cc7t6RPO.s:3735   .debug_str:0000000000000474 .LASF90
     /tmp/cc7t6RPO.s:3671   .debug_str:00000000000002e4 .LASF91
     /tmp/cc7t6RPO.s:3747   .debug_str:00000000000004cc .LASF92
     /tmp/cc7t6RPO.s:3881   .debug_str:00000000000008d2 .LASF93
     /tmp/cc7t6RPO.s:3875   .debug_str:00000000000008ad .LASF94
     /tmp/cc7t6RPO.s:3745   .debug_str:00000000000004bd .LASF95
     /tmp/cc7t6RPO.s:3617   .debug_str:0000000000000159 .LASF96
     /tmp/cc7t6RPO.s:3809   .debug_str:0000000000000655 .LASF97
     /tmp/cc7t6RPO.s:3795   .debug_str:00000000000005f9 .LASF100
     /tmp/cc7t6RPO.s:3821   .debug_str:0000000000000752 .LASF101
     /tmp/cc7t6RPO.s:3715   .debug_str:00000000000003f6 .LASF102
     /tmp/cc7t6RPO.s:3749   .debug_str:00000000000004dc .LASF103
     /tmp/cc7t6RPO.s:3873   .debug_str:00000000000008a3 .LASF104
     /tmp/cc7t6RPO.s:3799   .debug_str:000000000000060d .LASF105
     /tmp/cc7t6RPO.s:3813   .debug_str:0000000000000666 .LASF157
     /tmp/cc7t6RPO.s:3847   .debug_str:00000000000007fb .LASF106
     /tmp/cc7t6RPO.s:3859   .debug_str:000000000000084c .LASF107
     /tmp/cc7t6RPO.s:3675   .debug_str:00000000000002f7 .LASF108
     /tmp/cc7t6RPO.s:3751   .debug_str:00000000000004e8 .LASF109
     /tmp/cc7t6RPO.s:3701   .debug_str:0000000000000392 .LASF110
     /tmp/cc7t6RPO.s:3849   .debug_str:0000000000000807 .LASF111
     /tmp/cc7t6RPO.s:3759   .debug_str:0000000000000516 .LASF112
     /tmp/cc7t6RPO.s:3841   .debug_str:00000000000007c7 .LASF113
     /tmp/cc7t6RPO.s:3723   .debug_str:000000000000041a .LASF114
     /tmp/cc7t6RPO.s:3801   .debug_str:0000000000000616 .LASF115
     /tmp/cc7t6RPO.s:3757   .debug_str:000000000000050c .LASF116
     /tmp/cc7t6RPO.s:3761   .debug_str:000000000000051f .LASF117
     /tmp/cc7t6RPO.s:3829   .debug_str:0000000000000773 .LASF118
     /tmp/cc7t6RPO.s:3887   .debug_str:00000000000008ea .LASF119
     /tmp/cc7t6RPO.s:3855   .debug_str:0000000000000826 .LASF120
     /tmp/cc7t6RPO.s:3831   .debug_str:000000000000077d .LASF121
     /tmp/cc7t6RPO.s:3891   .debug_str:0000000000000914 .LASF122
     /tmp/cc7t6RPO.s:3741   .debug_str:00000000000004aa .LASF123
     /tmp/cc7t6RPO.s:3713   .debug_str:00000000000003d8 .LASF124
GAS LISTING /tmp/cc7t6RPO.s 			page 31


     /tmp/cc7t6RPO.s:3877   .debug_str:00000000000008bf .LASF125
     /tmp/cc7t6RPO.s:3703   .debug_str:000000000000039d .LASF126
     /tmp/cc7t6RPO.s:3807   .debug_str:0000000000000650 .LASF127
     /tmp/cc7t6RPO.s:3733   .debug_str:0000000000000457 .LASF128
     /tmp/cc7t6RPO.s:3659   .debug_str:000000000000027c .LASF129
     /tmp/cc7t6RPO.s:3645   .debug_str:0000000000000218 .LASF130
     /tmp/cc7t6RPO.s:3861   .debug_str:0000000000000859 .LASF131
     /tmp/cc7t6RPO.s:3633   .debug_str:00000000000001cd .LASF132
     /tmp/cc7t6RPO.s:3601   .debug_str:00000000000000ed .LASF133
     /tmp/cc7t6RPO.s:781    .text:00000000000004e8 .LFB29
     /tmp/cc7t6RPO.s:807    .text:000000000000051c .LFE29
     /tmp/cc7t6RPO.s:797    .text:000000000000050c .LVL67
     /tmp/cc7t6RPO.s:3597   .debug_str:0000000000000092 .LASF134
     /tmp/cc7t6RPO.s:9      .text:0000000000000000 .LFB28
     /tmp/cc7t6RPO.s:54     .text:0000000000000060 .LFE28
     /tmp/cc7t6RPO.s:3661   .debug_str:000000000000029d .LASF135
     /tmp/cc7t6RPO.s:3885   .debug_str:00000000000008df .LASF136
     /tmp/cc7t6RPO.s:678    .text:000000000000042c .LFB27
     /tmp/cc7t6RPO.s:776    .text:00000000000004e8 .LFE27
     /tmp/cc7t6RPO.s:695    .text:0000000000000444 .LBB18
     /tmp/cc7t6RPO.s:760    .text:00000000000004d0 .LBE18
     /tmp/cc7t6RPO.s:3153   .debug_loc:0000000000000000 .LLST18
     /tmp/cc7t6RPO.s:3553   .debug_ranges:0000000000000000 .Ldebug_ranges0
     /tmp/cc7t6RPO.s:3165   .debug_loc:0000000000000037 .LLST19
     /tmp/cc7t6RPO.s:706    .text:000000000000045c .LVL57
     /tmp/cc7t6RPO.s:722    .text:000000000000047c .LVL59
     /tmp/cc7t6RPO.s:727    .text:000000000000048c .LVL60
     /tmp/cc7t6RPO.s:745    .text:00000000000004b8 .LVL62
     /tmp/cc7t6RPO.s:750    .text:00000000000004c8 .LVL63
     /tmp/cc7t6RPO.s:474    .text:00000000000002d0 .LFB26
     /tmp/cc7t6RPO.s:560    .text:0000000000000378 .LFE26
     /tmp/cc7t6RPO.s:3753   .debug_str:00000000000004f2 .LASF137
     /tmp/cc7t6RPO.s:3176   .debug_loc:000000000000006d .LLST14
     /tmp/cc7t6RPO.s:3595   .debug_str:0000000000000086 .LASF138
     /tmp/cc7t6RPO.s:115    .text:00000000000000c8 .LFB25
     /tmp/cc7t6RPO.s:265    .text:00000000000001c0 .LFE25
     /tmp/cc7t6RPO.s:3697   .debug_str:000000000000037a .LASF139
     /tmp/cc7t6RPO.s:3205   .debug_loc:00000000000000e2 .LLST0
     /tmp/cc7t6RPO.s:3765   .debug_str:000000000000054a .LASF140
     /tmp/cc7t6RPO.s:3227   .debug_loc:0000000000000141 .LLST1
     /tmp/cc7t6RPO.s:3591   .debug_str:0000000000000076 .LASF141
     /tmp/cc7t6RPO.s:3234   .debug_loc:0000000000000164 .LLST2
     /tmp/cc7t6RPO.s:3767   .debug_str:000000000000054f .LASF142
     /tmp/cc7t6RPO.s:3246   .debug_loc:000000000000019b .LLST3
     /tmp/cc7t6RPO.s:3779   .debug_str:0000000000000592 .LASF143
     /tmp/cc7t6RPO.s:3293   .debug_loc:0000000000000237 .LLST4
     /tmp/cc7t6RPO.s:3717   .debug_str:0000000000000402 .LASF144
     /tmp/cc7t6RPO.s:3304   .debug_loc:000000000000026d .LLST5
     /tmp/cc7t6RPO.s:3315   .debug_loc:00000000000002a3 .LLST6
     /tmp/cc7t6RPO.s:238    .text:000000000000019c .LVL15
     /tmp/cc7t6RPO.s:271    .text:00000000000001c0 .LFB24
     /tmp/cc7t6RPO.s:430    .text:00000000000002a0 .LFE24
     /tmp/cc7t6RPO.s:3605   .debug_str:0000000000000122 .LASF145
     /tmp/cc7t6RPO.s:3326   .debug_loc:00000000000002d9 .LLST7
     /tmp/cc7t6RPO.s:3374   .debug_loc:000000000000039d .LLST8
     /tmp/cc7t6RPO.s:356    .text:000000000000022c .LBB11
     /tmp/cc7t6RPO.s:375    .text:0000000000000250 .LBE11
GAS LISTING /tmp/cc7t6RPO.s 			page 32


     /tmp/cc7t6RPO.s:3607   .debug_str:0000000000000127 .LASF146
     /tmp/cc7t6RPO.s:3414   .debug_loc:000000000000043b .LLST11
     /tmp/cc7t6RPO.s:370    .text:000000000000024c .LVL28
     /tmp/cc7t6RPO.s:3711   .debug_str:00000000000003d3 .LASF147
     /tmp/cc7t6RPO.s:3428   .debug_loc:0000000000000474 .LLST9
     /tmp/cc7t6RPO.s:378    .text:0000000000000250 .LBB8
     /tmp/cc7t6RPO.s:394    .text:0000000000000264 .LBE8
     /tmp/cc7t6RPO.s:3647   .debug_str:0000000000000235 .LASF148
     /tmp/cc7t6RPO.s:3443   .debug_loc:00000000000004bd .LLST10
     /tmp/cc7t6RPO.s:389    .text:0000000000000260 .LVL30
     /tmp/cc7t6RPO.s:418    .text:0000000000000290 .LVL33
     /tmp/cc7t6RPO.s:436    .text:00000000000002a0 .LFB23
     /tmp/cc7t6RPO.s:468    .text:00000000000002d0 .LFE23
     /tmp/cc7t6RPO.s:3457   .debug_loc:00000000000004f6 .LLST12
     /tmp/cc7t6RPO.s:3475   .debug_loc:0000000000000542 .LLST13
     /tmp/cc7t6RPO.s:454    .text:00000000000002bc .LVL35
     /tmp/cc7t6RPO.s:566    .text:0000000000000378 .LFB22
     /tmp/cc7t6RPO.s:661    .text:000000000000042c .LFE22
     /tmp/cc7t6RPO.s:3493   .debug_loc:000000000000058e .LLST15
     /tmp/cc7t6RPO.s:3518   .debug_loc:00000000000005f0 .LLST16
     /tmp/cc7t6RPO.s:583    .text:0000000000000394 .LBB17
     /tmp/cc7t6RPO.s:638    .text:0000000000000408 .LBE17
     /tmp/cc7t6RPO.s:3525   .debug_loc:0000000000000613 .LLST17
     /tmp/cc7t6RPO.s:625    .text:00000000000003f0 .LVL50
     /tmp/cc7t6RPO.s:60     .text:0000000000000060 .LFB21
     /tmp/cc7t6RPO.s:109    .text:00000000000000c8 .LFE21
     /tmp/cc7t6RPO.s:694    .text:0000000000000444 .LVL55
     /tmp/cc7t6RPO.s:699    .text:000000000000044c .LVL56
     /tmp/cc7t6RPO.s:771    .text:00000000000004e0 .LVL66
     /tmp/cc7t6RPO.s:710    .text:0000000000000460 .LVL58
     /tmp/cc7t6RPO.s:734    .text:00000000000004a0 .LVL61
     /tmp/cc7t6RPO.s:757    .text:00000000000004d0 .LVL65
     /tmp/cc7t6RPO.s:477    .text:00000000000002d0 .LVL37
     /tmp/cc7t6RPO.s:485    .text:00000000000002e0 .LVL38
     /tmp/cc7t6RPO.s:490    .text:00000000000002e4 .LVL39
     /tmp/cc7t6RPO.s:514    .text:0000000000000318 .LVL40
     /tmp/cc7t6RPO.s:518    .text:000000000000031c .LVL41
     /tmp/cc7t6RPO.s:531    .text:000000000000033c .LVL42
     /tmp/cc7t6RPO.s:550    .text:000000000000036c .LVL43
     /tmp/cc7t6RPO.s:118    .text:00000000000000c8 .LVL1
     /tmp/cc7t6RPO.s:149    .text:000000000000010c .LVL3
     /tmp/cc7t6RPO.s:254    .text:00000000000001b0 .LVL18
     /tmp/cc7t6RPO.s:261    .text:00000000000001bc .LVL20
     /tmp/cc7t6RPO.s:144    .text:0000000000000104 .LVL2
     /tmp/cc7t6RPO.s:251    .text:00000000000001ac .LVL17
     /tmp/cc7t6RPO.s:257    .text:00000000000001b4 .LVL19
     /tmp/cc7t6RPO.s:154    .text:0000000000000110 .LVL4
     /tmp/cc7t6RPO.s:161    .text:0000000000000118 .LVL5
     /tmp/cc7t6RPO.s:187    .text:000000000000013c .LVL8
     /tmp/cc7t6RPO.s:204    .text:0000000000000158 .LVL10
     /tmp/cc7t6RPO.s:215    .text:0000000000000168 .LVL12
     /tmp/cc7t6RPO.s:217    .text:000000000000016c .LVL13
     /tmp/cc7t6RPO.s:228    .text:0000000000000188 .LVL14
     /tmp/cc7t6RPO.s:165    .text:000000000000011c .LVL6
     /tmp/cc7t6RPO.s:193    .text:0000000000000144 .LVL9
     /tmp/cc7t6RPO.s:206    .text:000000000000015c .LVL11
     /tmp/cc7t6RPO.s:170    .text:0000000000000120 .LVL7
GAS LISTING /tmp/cc7t6RPO.s 			page 33


     /tmp/cc7t6RPO.s:240    .text:00000000000001a0 .LVL16
     /tmp/cc7t6RPO.s:274    .text:00000000000001c0 .LVL21
     /tmp/cc7t6RPO.s:296    .text:00000000000001f0 .LVL22
     /tmp/cc7t6RPO.s:326    .text:0000000000000208 .LVL25
     /tmp/cc7t6RPO.s:337    .text:0000000000000214 .LVL26
     /tmp/cc7t6RPO.s:373    .text:0000000000000250 .LVL29
     /tmp/cc7t6RPO.s:392    .text:0000000000000264 .LVL31
     /tmp/cc7t6RPO.s:350    .text:000000000000022c .LVL27
     /tmp/cc7t6RPO.s:305    .text:00000000000001f8 .LVL23
     /tmp/cc7t6RPO.s:403    .text:0000000000000270 .LVL32
     /tmp/cc7t6RPO.s:439    .text:00000000000002a0 .LVL34
     /tmp/cc7t6RPO.s:464    .text:00000000000002cc .LVL36
     /tmp/cc7t6RPO.s:569    .text:0000000000000378 .LVL44
     /tmp/cc7t6RPO.s:623    .text:00000000000003e8 .LVL49
     /tmp/cc7t6RPO.s:628    .text:00000000000003f4 .LVL51
     /tmp/cc7t6RPO.s:646    .text:0000000000000414 .LVL54
     /tmp/cc7t6RPO.s:605    .text:00000000000003c0 .LVL47
     /tmp/cc7t6RPO.s:636    .text:0000000000000408 .LVL52
     /tmp/cc7t6RPO.s:587    .text:0000000000000398 .LVL45
     /tmp/cc7t6RPO.s:621    .text:00000000000003e4 .LVL48
     /tmp/cc7t6RPO.s:642    .text:0000000000000410 .LVL53
     /tmp/cc7t6RPO.s:851    .debug_info:0000000000000000 .Ldebug_info0
     /tmp/cc7t6RPO.s:151    .text:000000000000010c .LBB2
     /tmp/cc7t6RPO.s:172    .text:0000000000000120 .LBE2
     /tmp/cc7t6RPO.s:180    .text:000000000000012c .LBB3
     /tmp/cc7t6RPO.s:242    .text:00000000000001a0 .LBE3
     /tmp/cc7t6RPO.s:306    .text:00000000000001f8 .LBB6
     /tmp/cc7t6RPO.s:310    .text:00000000000001fc .LBE6
     /tmp/cc7t6RPO.s:316    .text:00000000000001fc .LBB10
     /tmp/cc7t6RPO.s:331    .text:0000000000000208 .LBE10
     /tmp/cc7t6RPO.s:376    .text:0000000000000250 .LBB12
     /tmp/cc7t6RPO.s:396    .text:0000000000000264 .LBE12
     /tmp/cc7t6RPO.s:701    .text:000000000000044c .LBB19
     /tmp/cc7t6RPO.s:707    .text:000000000000045c .LBE19
     /tmp/cc7t6RPO.s:715    .text:0000000000000468 .LBB20
     /tmp/cc7t6RPO.s:759    .text:00000000000004d0 .LBE20

UNDEFINED SYMBOLS
HEAP_START_ADDR
_ZN11ConsoleUtil11printStringEPKc
_ZN11ConsoleUtil8printIntEiii
