GAS LISTING /tmp/ccmjaqds.s 			page 1


   1              		.file	"buddy.cpp"
   2              		.option pic
   3              		.option norelax
   4              		.text
   5              	.Ltext0:
   6              		.align	2
   8              	_Z41__static_initialization_and_destruction_0ii:
   9              	.LFB28:
  10              		.file 1 "src/buddy.cpp"
   1:src/buddy.cpp **** #include "../h/buddy.hpp"
   2:src/buddy.cpp **** #include "../h/consoleUtil.hpp"
   3:src/buddy.cpp **** 
   4:src/buddy.cpp **** void* Buddy::BUDDY_START_ADDR = BUDDY_START_ADDR_CONST;
   5:src/buddy.cpp **** void* Buddy::BUDDY_META_DATA_ADDR = BUDDY_META_ADDR_CONST;
   6:src/buddy.cpp **** uint64 Buddy::BLOCKS_AVAILABLE = BUDDY_NUMBER_OF_BLOCKS;
   7:src/buddy.cpp **** Buddy::Bucket* Buddy::head[BUCKET_SIZE] = {nullptr, nullptr, nullptr, nullptr, nullptr, nullptr, nu
   8:src/buddy.cpp **** Buddy::Bucket* Buddy::tail[BUCKET_SIZE] = {nullptr, nullptr, nullptr, nullptr, nullptr, nullptr, nu
   9:src/buddy.cpp **** 
  10:src/buddy.cpp **** void Buddy::initialize(){
  11:src/buddy.cpp ****     Buddy::BUDDY_START_ADDR = BUDDY_START_ADDR_CONST;
  12:src/buddy.cpp ****     Buddy::BUDDY_META_DATA_ADDR = BUDDY_META_ADDR_CONST;
  13:src/buddy.cpp ****     Buddy::BLOCKS_AVAILABLE = BUDDY_NUMBER_OF_BLOCKS;
  14:src/buddy.cpp ****     head[BUCKET_SIZE-1] = tail[BUCKET_SIZE-1] = (Block*)BUDDY_START_ADDR;
  15:src/buddy.cpp ****     head[BUCKET_SIZE-1]->next = tail[BUCKET_SIZE-1]->next = nullptr;
  16:src/buddy.cpp ****     for(int i=0;i<BUCKET_SIZE-1;i++)
  17:src/buddy.cpp ****         head[i] = tail[i] = nullptr;
  18:src/buddy.cpp **** }
  19:src/buddy.cpp **** 
  20:src/buddy.cpp **** void* Buddy::alloc(uint64 size) {
  21:src/buddy.cpp **** 
  22:src/buddy.cpp ****     if(size<0 || size>=BUCKET_SIZE)
  23:src/buddy.cpp ****         return nullptr;
  24:src/buddy.cpp **** 
  25:src/buddy.cpp ****     Block* blk = nullptr;
  26:src/buddy.cpp **** 
  27:src/buddy.cpp ****     for(int i=size;i<BUCKET_SIZE;i++){
  28:src/buddy.cpp ****         if(head[i] != nullptr){
  29:src/buddy.cpp ****             blk = head[i];
  30:src/buddy.cpp ****             head[i] = head[i]->next;
  31:src/buddy.cpp ****             if(!head[i])
  32:src/buddy.cpp ****                 tail[i] = nullptr;
  33:src/buddy.cpp ****             split(blk, i, size);
  34:src/buddy.cpp ****         }
  35:src/buddy.cpp ****     }
  36:src/buddy.cpp ****     return blk;
  37:src/buddy.cpp **** }
  38:src/buddy.cpp **** 
  39:src/buddy.cpp **** void Buddy::free(void *addr, uint64 size) {
  40:src/buddy.cpp ****     insert(addr,size);
  41:src/buddy.cpp **** }
  42:src/buddy.cpp **** 
  43:src/buddy.cpp **** void Buddy::insert(void *addr, uint64 size) {
  44:src/buddy.cpp ****     ConsoleUtil::printString("Insert: ");
  45:src/buddy.cpp ****     ConsoleUtil::printInt(size);
  46:src/buddy.cpp ****     ConsoleUtil::printString("\n");
  47:src/buddy.cpp ****     if(!head[size]){
  48:src/buddy.cpp ****         head[size] = tail[size] = (Block*)addr;
GAS LISTING /tmp/ccmjaqds.s 			page 2


  49:src/buddy.cpp ****         head[size]->next = tail[size]->next = nullptr;
  50:src/buddy.cpp ****     }
  51:src/buddy.cpp ****     else
  52:src/buddy.cpp ****         if((uint64)addr < (uint64)head[size]){
  53:src/buddy.cpp ****             Bucket* newHead = (Bucket*)addr;
  54:src/buddy.cpp ****             newHead->next = head[size];
  55:src/buddy.cpp ****             head[size] = newHead;
  56:src/buddy.cpp ****             compress(size);
  57:src/buddy.cpp ****         }
  58:src/buddy.cpp ****         else{
  59:src/buddy.cpp ****             Block* prev = nullptr, *iter = head[size];
  60:src/buddy.cpp ****             while(iter != nullptr){
  61:src/buddy.cpp ****                 if((uint64)addr < (uint64)iter) {
  62:src/buddy.cpp ****                     Block *newBlock = (Block *) addr;
  63:src/buddy.cpp ****                     newBlock->next = iter;
  64:src/buddy.cpp ****                     prev->next = newBlock;
  65:src/buddy.cpp ****                     compress(size);
  66:src/buddy.cpp ****                     break;
  67:src/buddy.cpp ****                 }
  68:src/buddy.cpp ****                 else
  69:src/buddy.cpp ****                     iter = iter->next;
  70:src/buddy.cpp ****             }
  71:src/buddy.cpp ****     }
  72:src/buddy.cpp **** 
  73:src/buddy.cpp **** }
  74:src/buddy.cpp **** 
  75:src/buddy.cpp **** void Buddy::compress(uint64 size) {
  76:src/buddy.cpp ****     ConsoleUtil::printString("Compress: ");
  77:src/buddy.cpp ****     ConsoleUtil::printInt(size);
  78:src/buddy.cpp ****     ConsoleUtil::printString("\n");
  79:src/buddy.cpp ****     if(size == BUCKET_SIZE-1)
  80:src/buddy.cpp ****         return;
  81:src/buddy.cpp ****     Block *curr = head[size];
  82:src/buddy.cpp ****     Block *prev = nullptr;
  83:src/buddy.cpp ****     while(curr && curr->next != nullptr){
  84:src/buddy.cpp ****         uint64 blkNoCurr = ((uint64)(curr)- (uint64)BUDDY_START_ADDR) >> BUDDY_BLOCK_BITS;
  85:src/buddy.cpp ****         uint64 blkNoNext = ((uint64)(curr->next)- (uint64)BUDDY_START_ADDR) >> BUDDY_BLOCK_BITS;
  86:src/buddy.cpp ****         uint64 pair = (blkNoCurr % (1<<size) == 0) ? blkNoCurr + (1<<size) : blkNoCurr - (1<<size);
  87:src/buddy.cpp ****         if(blkNoNext == pair){
  88:src/buddy.cpp ****             Block *blk = curr;
  89:src/buddy.cpp ****             if(prev){
  90:src/buddy.cpp ****                 prev->next = blk->next;
  91:src/buddy.cpp ****             }
  92:src/buddy.cpp ****             else{
  93:src/buddy.cpp ****                 head[size] = blk->next->next;
  94:src/buddy.cpp ****             }
  95:src/buddy.cpp ****             insert(blk, size+1);
  96:src/buddy.cpp ****         }
  97:src/buddy.cpp ****         prev = curr;
  98:src/buddy.cpp ****         curr = curr->next;
  99:src/buddy.cpp ****     }
 100:src/buddy.cpp **** }
 101:src/buddy.cpp **** 
 102:src/buddy.cpp **** void Buddy::split(Block *block, int currentBucket, int startBucket) {
 103:src/buddy.cpp ****     while(--currentBucket>=startBucket){
 104:src/buddy.cpp ****         if(tail[currentBucket]) {
 105:src/buddy.cpp ****             tail[currentBucket]->next = (Block *) ((uint64) block + (1 << (currentBucket + BUDDY_BL
GAS LISTING /tmp/ccmjaqds.s 			page 3


 106:src/buddy.cpp ****             tail[currentBucket] = tail[currentBucket]->next;
 107:src/buddy.cpp ****         }
 108:src/buddy.cpp ****         else{
 109:src/buddy.cpp ****             head[currentBucket] = tail[currentBucket] = (Block *) ((uint64) block + (1 << (currentB
 110:src/buddy.cpp ****             head[currentBucket]->next = tail[currentBucket]->next = nullptr;
 111:src/buddy.cpp ****         }
 112:src/buddy.cpp ****     }
 113:src/buddy.cpp **** }
 114:src/buddy.cpp **** 
 115:src/buddy.cpp **** void Buddy::printList() {
 116:src/buddy.cpp ****     for(int i=0;i<BUCKET_SIZE;i++){
 117:src/buddy.cpp ****         ConsoleUtil::printInt(i,10);
 118:src/buddy.cpp ****         ConsoleUtil::printString(": ");
 119:src/buddy.cpp ****         Bucket *tmp = head[i];
 120:src/buddy.cpp ****         while(tmp != nullptr){
 121:src/buddy.cpp ****             ConsoleUtil::printInt((uint64)tmp,10);
 122:src/buddy.cpp ****             ConsoleUtil::printString(" ");
 123:src/buddy.cpp ****             tmp = tmp->next;
 124:src/buddy.cpp ****         }
 125:src/buddy.cpp ****         ConsoleUtil::printString("\n");
 126:src/buddy.cpp ****     }
 127:src/buddy.cpp **** }...
  11              		.loc 1 127 1
  12              		.cfi_startproc
  13              	.LVL0:
  14 0000 130101FF 		addi	sp,sp,-16
  15              		.cfi_def_cfa_offset 16
  16 0004 23348100 		sd	s0,8(sp)
  17              		.cfi_offset 8, -8
  18 0008 13040101 		addi	s0,sp,16
  19              		.cfi_def_cfa 8, 0
  20              		.loc 1 127 1 is_stmt 0
  21 000c 93071000 		li	a5,1
  22 0010 6308F500 		beq	a0,a5,.L4
  23              	.L1:
  24 0014 03348100 		ld	s0,8(sp)
  25              		.cfi_remember_state
  26              		.cfi_restore 8
  27              		.cfi_def_cfa 2, 16
  28 0018 13010101 		addi	sp,sp,16
  29              		.cfi_def_cfa_offset 0
  30 001c 67800000 		jr	ra
  31              	.L4:
  32              		.cfi_restore_state
  33              		.loc 1 127 1 discriminator 1
  34 0020 B7070100 		li	a5,65536
  35 0024 9387F7FF 		addi	a5,a5,-1
  36 0028 E396F5FE 		bne	a1,a5,.L1
   4:src/buddy.cpp **** void* Buddy::BUDDY_START_ADDR = BUDDY_START_ADDR_CONST;
  37              		.loc 1 4 33
  38 002c 97070000 		la	a5,HEAP_START_ADDR
  38      83B70700 
  39 0034 83B70700 		ld	a5,0(a5)
  40 0038 93D7C700 		srli	a5,a5,12
  41 003c 13872700 		addi	a4,a5,2
  42 0040 1317C700 		slli	a4,a4,12
   4:src/buddy.cpp **** void* Buddy::BUDDY_START_ADDR = BUDDY_START_ADDR_CONST;
GAS LISTING /tmp/ccmjaqds.s 			page 4


  43              		.loc 1 4 7
  44 0044 97060000 		lla	a3,.LANCHOR0
  44      93860600 
  45 004c 23B0E600 		sd	a4,0(a3)
   5:src/buddy.cpp **** void* Buddy::BUDDY_META_DATA_ADDR = BUDDY_META_ADDR_CONST;
  46              		.loc 1 5 37
  47 0050 93871700 		addi	a5,a5,1
  48 0054 9397C700 		slli	a5,a5,12
   5:src/buddy.cpp **** void* Buddy::BUDDY_META_DATA_ADDR = BUDDY_META_ADDR_CONST;
  49              		.loc 1 5 7
  50 0058 23B4F600 		sd	a5,8(a3)
  51              		.loc 1 127 1
  52 005c 6FF09FFB 		j	.L1
  53              		.cfi_endproc
  54              	.LFE28:
  56              		.align	2
  57              		.globl	_ZN5Buddy10initializeEv
  59              	_ZN5Buddy10initializeEv:
  60              	.LFB21:
  10:src/buddy.cpp **** void Buddy::initialize(){
  61              		.loc 1 10 25 is_stmt 1
  62              		.cfi_startproc
  63 0060 130101FF 		addi	sp,sp,-16
  64              		.cfi_def_cfa_offset 16
  65 0064 23348100 		sd	s0,8(sp)
  66              		.cfi_offset 8, -8
  67 0068 13040101 		addi	s0,sp,16
  68              		.cfi_def_cfa 8, 0
  11:src/buddy.cpp ****     Buddy::BUDDY_START_ADDR = BUDDY_START_ADDR_CONST;
  69              		.loc 1 11 5
  11:src/buddy.cpp ****     Buddy::BUDDY_START_ADDR = BUDDY_START_ADDR_CONST;
  70              		.loc 1 11 31 is_stmt 0
  71 006c 97070000 		la	a5,HEAP_START_ADDR
  71      83B70700 
  72 0074 83B70700 		ld	a5,0(a5)
  73 0078 93D7C700 		srli	a5,a5,12
  74 007c 13872700 		addi	a4,a5,2
  75 0080 1317C700 		slli	a4,a4,12
  11:src/buddy.cpp ****     Buddy::BUDDY_START_ADDR = BUDDY_START_ADDR_CONST;
  76              		.loc 1 11 29
  77 0084 97060000 		lla	a3,.LANCHOR0
  77      93860600 
  78 008c 23B0E600 		sd	a4,0(a3)
  12:src/buddy.cpp ****     Buddy::BUDDY_META_DATA_ADDR = BUDDY_META_ADDR_CONST;
  79              		.loc 1 12 5 is_stmt 1
  12:src/buddy.cpp ****     Buddy::BUDDY_META_DATA_ADDR = BUDDY_META_ADDR_CONST;
  80              		.loc 1 12 35 is_stmt 0
  81 0090 93871700 		addi	a5,a5,1
  82 0094 9397C700 		slli	a5,a5,12
  12:src/buddy.cpp ****     Buddy::BUDDY_META_DATA_ADDR = BUDDY_META_ADDR_CONST;
  83              		.loc 1 12 33
  84 0098 23B4F600 		sd	a5,8(a3)
  13:src/buddy.cpp ****     Buddy::BLOCKS_AVAILABLE = BUDDY_NUMBER_OF_BLOCKS;
  85              		.loc 1 13 5 is_stmt 1
  13:src/buddy.cpp ****     Buddy::BLOCKS_AVAILABLE = BUDDY_NUMBER_OF_BLOCKS;
  86              		.loc 1 13 29 is_stmt 0
  87 009c B7170000 		li	a5,4096
GAS LISTING /tmp/ccmjaqds.s 			page 5


  88 00a0 17060000 		sd	a5,.LANCHOR1,a2
  88      2330F600 
  14:src/buddy.cpp ****     head[BUCKET_SIZE-1] = tail[BUCKET_SIZE-1] = (Block*)BUDDY_START_ADDR;
  89              		.loc 1 14 5 is_stmt 1
  14:src/buddy.cpp ****     head[BUCKET_SIZE-1] = tail[BUCKET_SIZE-1] = (Block*)BUDDY_START_ADDR;
  90              		.loc 1 14 47 is_stmt 0
  91 00a8 23B8E606 		sd	a4,112(a3)
  14:src/buddy.cpp ****     head[BUCKET_SIZE-1] = tail[BUCKET_SIZE-1] = (Block*)BUDDY_START_ADDR;
  92              		.loc 1 14 25
  93 00ac 23BCE60C 		sd	a4,216(a3)
  15:src/buddy.cpp ****     head[BUCKET_SIZE-1]->next = tail[BUCKET_SIZE-1]->next = nullptr;
  94              		.loc 1 15 5 is_stmt 1
  15:src/buddy.cpp ****     head[BUCKET_SIZE-1]->next = tail[BUCKET_SIZE-1]->next = nullptr;
  95              		.loc 1 15 59 is_stmt 0
  96 00b0 23300700 		sd	zero,0(a4)
  15:src/buddy.cpp ****     head[BUCKET_SIZE-1]->next = tail[BUCKET_SIZE-1]->next = nullptr;
  97              		.loc 1 15 23
  98 00b4 83B7860D 		ld	a5,216(a3)
  15:src/buddy.cpp ****     head[BUCKET_SIZE-1]->next = tail[BUCKET_SIZE-1]->next = nullptr;
  99              		.loc 1 15 31
 100 00b8 23B00700 		sd	zero,0(a5)
  16:src/buddy.cpp ****     for(int i=0;i<BUCKET_SIZE-1;i++)
 101              		.loc 1 16 5 is_stmt 1
 102              	.LVL1:
 103              	.LBB2:
  16:src/buddy.cpp ****     for(int i=0;i<BUCKET_SIZE-1;i++)
 104              		.loc 1 16 13 is_stmt 0
 105 00bc 13070000 		li	a4,0
 106              	.LVL2:
 107              	.L7:
  16:src/buddy.cpp ****     for(int i=0;i<BUCKET_SIZE-1;i++)
 108              		.loc 1 16 18 is_stmt 1 discriminator 3
 109 00c0 9307B000 		li	a5,11
 110 00c4 63C2E702 		bgt	a4,a5,.L5
  17:src/buddy.cpp ****         head[i] = tail[i] = nullptr;
 111              		.loc 1 17 9 discriminator 2
  17:src/buddy.cpp ****         head[i] = tail[i] = nullptr;
 112              		.loc 1 17 27 is_stmt 0 discriminator 2
 113 00c8 93163700 		slli	a3,a4,3
 114 00cc 97070000 		lla	a5,.LANCHOR0
 114      93870700 
 115 00d4 B387D700 		add	a5,a5,a3
 116 00d8 23B80700 		sd	zero,16(a5)
  17:src/buddy.cpp ****         head[i] = tail[i] = nullptr;
 117              		.loc 1 17 17 discriminator 2
 118 00dc 23BC0706 		sd	zero,120(a5)
  16:src/buddy.cpp ****     for(int i=0;i<BUCKET_SIZE-1;i++)
 119              		.loc 1 16 5 is_stmt 1 discriminator 2
 120 00e0 1B071700 		addiw	a4,a4,1
 121              	.LVL3:
 122 00e4 6FF0DFFD 		j	.L7
 123              	.LVL4:
 124              	.L5:
 125              	.LBE2:
  18:src/buddy.cpp **** }
 126              		.loc 1 18 1 is_stmt 0
 127 00e8 03348100 		ld	s0,8(sp)
GAS LISTING /tmp/ccmjaqds.s 			page 6


 128              		.cfi_restore 8
 129              		.cfi_def_cfa 2, 16
 130 00ec 13010101 		addi	sp,sp,16
 131              		.cfi_def_cfa_offset 0
 132 00f0 67800000 		jr	ra
 133              		.cfi_endproc
 134              	.LFE21:
 136              		.section	.rodata.str1.8,"aMS",@progbits,1
 137              		.align	3
 138              	.LC0:
 139 0000 436F6D70 		.string	"Compress: "
 139      72657373 
 139      3A2000
 140 000b 00000000 		.align	3
 140      00
 141              	.LC1:
 142 0010 0A00     		.string	"\n"
 143              		.text
 144              		.align	2
 145              		.globl	_ZN5Buddy8compressEm
 147              	_ZN5Buddy8compressEm:
 148              	.LFB25:
  75:src/buddy.cpp **** void Buddy::compress(uint64 size) {
 149              		.loc 1 75 35 is_stmt 1
 150              		.cfi_startproc
 151              	.LVL5:
 152 00f4 130101FE 		addi	sp,sp,-32
 153              		.cfi_def_cfa_offset 32
 154 00f8 233C1100 		sd	ra,24(sp)
 155 00fc 23388100 		sd	s0,16(sp)
 156 0100 23349100 		sd	s1,8(sp)
 157 0104 23302101 		sd	s2,0(sp)
 158              		.cfi_offset 1, -8
 159              		.cfi_offset 8, -16
 160              		.cfi_offset 9, -24
 161              		.cfi_offset 18, -32
 162 0108 13040102 		addi	s0,sp,32
 163              		.cfi_def_cfa 8, 0
 164 010c 13090500 		mv	s2,a0
  76:src/buddy.cpp ****     ConsoleUtil::printString("Compress: ");
 165              		.loc 1 76 5
  76:src/buddy.cpp ****     ConsoleUtil::printString("Compress: ");
 166              		.loc 1 76 29 is_stmt 0
 167 0110 17050000 		lla	a0,.LC0
 167      13050500 
 168              	.LVL6:
 169 0118 97000000 		call	_ZN11ConsoleUtil11printStringEPKc@plt
 169      E7800000 
 170              	.LVL7:
  77:src/buddy.cpp ****     ConsoleUtil::printInt(size);
 171              		.loc 1 77 5 is_stmt 1
  77:src/buddy.cpp ****     ConsoleUtil::printInt(size);
 172              		.loc 1 77 26 is_stmt 0
 173 0120 13060000 		li	a2,0
 174 0124 9305A000 		li	a1,10
 175 0128 1B050900 		sext.w	a0,s2
 176 012c 97000000 		call	_ZN11ConsoleUtil8printIntEiii@plt
GAS LISTING /tmp/ccmjaqds.s 			page 7


 176      E7800000 
 177              	.LVL8:
  78:src/buddy.cpp ****     ConsoleUtil::printString("\n");
 178              		.loc 1 78 5 is_stmt 1
  78:src/buddy.cpp ****     ConsoleUtil::printString("\n");
 179              		.loc 1 78 29 is_stmt 0
 180 0134 17050000 		lla	a0,.LC1
 180      13050500 
 181 013c 97000000 		call	_ZN11ConsoleUtil11printStringEPKc@plt
 181      E7800000 
 182              	.LVL9:
  79:src/buddy.cpp ****     if(size == BUCKET_SIZE-1)
 183              		.loc 1 79 5 is_stmt 1
 184 0144 9307C000 		li	a5,12
 185 0148 6302F90A 		beq	s2,a5,.L9
  81:src/buddy.cpp ****     Block *curr = head[size];
 186              		.loc 1 81 5
  81:src/buddy.cpp ****     Block *curr = head[size];
 187              		.loc 1 81 12 is_stmt 0
 188 014c 13173900 		slli	a4,s2,3
 189 0150 97070000 		lla	a5,.LANCHOR0
 189      93870700 
 190 0158 B387E700 		add	a5,a5,a4
 191 015c 83B48707 		ld	s1,120(a5)
 192              	.LVL10:
  82:src/buddy.cpp ****     Block *prev = nullptr;
 193              		.loc 1 82 5 is_stmt 1
  82:src/buddy.cpp ****     Block *prev = nullptr;
 194              		.loc 1 82 12 is_stmt 0
 195 0160 13050000 		li	a0,0
 196 0164 6F004001 		j	.L16
 197              	.LVL11:
 198              	.L11:
 199              	.LBB3:
  86:src/buddy.cpp ****         uint64 pair = (blkNoCurr % (1<<size) == 0) ? blkNoCurr + (1<<size) : blkNoCurr - (1<<size);
 200              		.loc 1 86 52 discriminator 2
 201 0168 3307D740 		sub	a4,a4,a3
 202              	.LVL12:
 203              	.L12:
  87:src/buddy.cpp ****         if(blkNoNext == pair){
 204              		.loc 1 87 9 is_stmt 1 discriminator 4
 205              	.LBB4:
 206 016c 6304F704 		beq	a4,a5,.L18
 207              	.LVL13:
 208              	.L13:
 209              	.LBE4:
  97:src/buddy.cpp ****         prev = curr;
 210              		.loc 1 97 9
  98:src/buddy.cpp ****         curr = curr->next;
 211              		.loc 1 98 9
  97:src/buddy.cpp ****         prev = curr;
 212              		.loc 1 97 14 is_stmt 0
 213 0170 13850400 		mv	a0,s1
  98:src/buddy.cpp ****         curr = curr->next;
 214              		.loc 1 98 14
 215 0174 83B40400 		ld	s1,0(s1)
 216              	.LVL14:
GAS LISTING /tmp/ccmjaqds.s 			page 8


 217              	.L16:
 218              	.LBE3:
  83:src/buddy.cpp ****     while(curr && curr->next != nullptr){
 219              		.loc 1 83 5 is_stmt 1
  83:src/buddy.cpp ****     while(curr && curr->next != nullptr){
 220              		.loc 1 83 16
 221 0178 638A0406 		beqz	s1,.L9
  83:src/buddy.cpp ****     while(curr && curr->next != nullptr){
 222              		.loc 1 83 25 is_stmt 0 discriminator 1
 223 017c 03B60400 		ld	a2,0(s1)
  83:src/buddy.cpp ****     while(curr && curr->next != nullptr){
 224              		.loc 1 83 16 discriminator 1
 225 0180 63060606 		beqz	a2,.L9
 226              	.LBB8:
  84:src/buddy.cpp ****         uint64 blkNoCurr = ((uint64)(curr)- (uint64)BUDDY_START_ADDR) >> BUDDY_BLOCK_BITS;
 227              		.loc 1 84 9 is_stmt 1
  84:src/buddy.cpp ****         uint64 blkNoCurr = ((uint64)(curr)- (uint64)BUDDY_START_ADDR) >> BUDDY_BLOCK_BITS;
 228              		.loc 1 84 43 is_stmt 0
 229 0184 97070000 		ld	a5,.LANCHOR0
 229      83B70700 
 230 018c 3387F440 		sub	a4,s1,a5
  84:src/buddy.cpp ****         uint64 blkNoCurr = ((uint64)(curr)- (uint64)BUDDY_START_ADDR) >> BUDDY_BLOCK_BITS;
 231              		.loc 1 84 16
 232 0190 1357C700 		srli	a4,a4,12
 233              	.LVL15:
  85:src/buddy.cpp ****         uint64 blkNoNext = ((uint64)(curr->next)- (uint64)BUDDY_START_ADDR) >> BUDDY_BLOCK_BITS;
 234              		.loc 1 85 9 is_stmt 1
  85:src/buddy.cpp ****         uint64 blkNoNext = ((uint64)(curr->next)- (uint64)BUDDY_START_ADDR) >> BUDDY_BLOCK_BITS;
 235              		.loc 1 85 49 is_stmt 0
 236 0194 B307F640 		sub	a5,a2,a5
  85:src/buddy.cpp ****         uint64 blkNoNext = ((uint64)(curr->next)- (uint64)BUDDY_START_ADDR) >> BUDDY_BLOCK_BITS;
 237              		.loc 1 85 16
 238 0198 93D7C700 		srli	a5,a5,12
 239              	.LVL16:
  86:src/buddy.cpp ****         uint64 pair = (blkNoCurr % (1<<size) == 0) ? blkNoCurr + (1<<size) : blkNoCurr - (1<<size);
 240              		.loc 1 86 9 is_stmt 1
  86:src/buddy.cpp ****         uint64 pair = (blkNoCurr % (1<<size) == 0) ? blkNoCurr + (1<<size) : blkNoCurr - (1<<size);
 241              		.loc 1 86 38 is_stmt 0
 242 019c 93061000 		li	a3,1
 243 01a0 BB962601 		sllw	a3,a3,s2
  86:src/buddy.cpp ****         uint64 pair = (blkNoCurr % (1<<size) == 0) ? blkNoCurr + (1<<size) : blkNoCurr - (1<<size);
 244              		.loc 1 86 34
 245 01a4 B375D702 		remu	a1,a4,a3
  86:src/buddy.cpp ****         uint64 pair = (blkNoCurr % (1<<size) == 0) ? blkNoCurr + (1<<size) : blkNoCurr - (1<<size);
 246              		.loc 1 86 52
 247 01a8 E39005FC 		bnez	a1,.L11
  86:src/buddy.cpp ****         uint64 pair = (blkNoCurr % (1<<size) == 0) ? blkNoCurr + (1<<size) : blkNoCurr - (1<<size);
 248              		.loc 1 86 52 discriminator 1
 249 01ac 3387E600 		add	a4,a3,a4
 250              	.LVL17:
 251 01b0 6FF0DFFB 		j	.L12
 252              	.LVL18:
 253              	.L18:
 254              	.LBB7:
 255              	.LBB5:
  88:src/buddy.cpp ****             Block *blk = curr;
 256              		.loc 1 88 13 is_stmt 1
GAS LISTING /tmp/ccmjaqds.s 			page 9


  89:src/buddy.cpp ****             if(prev){
 257              		.loc 1 89 13
 258 01b4 630E0500 		beqz	a0,.L14
  90:src/buddy.cpp ****                 prev->next = blk->next;
 259              		.loc 1 90 17
  90:src/buddy.cpp ****                 prev->next = blk->next;
 260              		.loc 1 90 28 is_stmt 0
 261 01b8 2330C500 		sd	a2,0(a0)
 262              	.LVL19:
 263              	.L15:
  95:src/buddy.cpp ****             insert(blk, size+1);
 264              		.loc 1 95 13 is_stmt 1
  95:src/buddy.cpp ****             insert(blk, size+1);
 265              		.loc 1 95 19 is_stmt 0
 266 01bc 93051900 		addi	a1,s2,1
 267 01c0 13850400 		mv	a0,s1
 268              	.LVL20:
 269 01c4 97000000 		call	_ZN5Buddy6insertEPvm
 269      E7800000 
 270              	.LVL21:
 271              	.LBE5:
 272 01cc 6FF05FFA 		j	.L13
 273              	.LVL22:
 274              	.L14:
 275              	.LBB6:
  93:src/buddy.cpp ****                 head[size] = blk->next->next;
 276              		.loc 1 93 17 is_stmt 1
  93:src/buddy.cpp ****                 head[size] = blk->next->next;
 277              		.loc 1 93 41 is_stmt 0
 278 01d0 03370600 		ld	a4,0(a2)
 279              	.LVL23:
  93:src/buddy.cpp ****                 head[size] = blk->next->next;
 280              		.loc 1 93 28
 281 01d4 93163900 		slli	a3,s2,3
 282 01d8 97070000 		lla	a5,.LANCHOR0
 282      93870700 
 283              	.LVL24:
 284 01e0 B387D700 		add	a5,a5,a3
 285 01e4 23BCE706 		sd	a4,120(a5)
 286 01e8 6FF05FFD 		j	.L15
 287              	.LVL25:
 288              	.L9:
 289              	.LBE6:
 290              	.LBE7:
 291              	.LBE8:
 100:src/buddy.cpp **** }
 292              		.loc 1 100 1
 293 01ec 83308101 		ld	ra,24(sp)
 294              		.cfi_restore 1
 295 01f0 03340101 		ld	s0,16(sp)
 296              		.cfi_restore 8
 297              		.cfi_def_cfa 2, 32
 298 01f4 83348100 		ld	s1,8(sp)
 299              		.cfi_restore 9
 300 01f8 03390100 		ld	s2,0(sp)
 301              		.cfi_restore 18
 302              	.LVL26:
GAS LISTING /tmp/ccmjaqds.s 			page 10


 303 01fc 13010102 		addi	sp,sp,32
 304              		.cfi_def_cfa_offset 0
 305 0200 67800000 		jr	ra
 306              		.cfi_endproc
 307              	.LFE25:
 309              		.section	.rodata.str1.8
 310 0012 00000000 		.align	3
 310      0000
 311              	.LC2:
 312 0018 496E7365 		.string	"Insert: "
 312      72743A20 
 312      00
 313              		.text
 314              		.align	2
 315              		.globl	_ZN5Buddy6insertEPvm
 317              	_ZN5Buddy6insertEPvm:
 318              	.LFB24:
  43:src/buddy.cpp **** void Buddy::insert(void *addr, uint64 size) {
 319              		.loc 1 43 45 is_stmt 1
 320              		.cfi_startproc
 321              	.LVL27:
 322 0204 130101FE 		addi	sp,sp,-32
 323              		.cfi_def_cfa_offset 32
 324 0208 233C1100 		sd	ra,24(sp)
 325 020c 23388100 		sd	s0,16(sp)
 326 0210 23349100 		sd	s1,8(sp)
 327 0214 23302101 		sd	s2,0(sp)
 328              		.cfi_offset 1, -8
 329              		.cfi_offset 8, -16
 330              		.cfi_offset 9, -24
 331              		.cfi_offset 18, -32
 332 0218 13040102 		addi	s0,sp,32
 333              		.cfi_def_cfa 8, 0
 334 021c 13090500 		mv	s2,a0
 335 0220 93840500 		mv	s1,a1
  44:src/buddy.cpp ****     ConsoleUtil::printString("Insert: ");
 336              		.loc 1 44 5
  44:src/buddy.cpp ****     ConsoleUtil::printString("Insert: ");
 337              		.loc 1 44 29 is_stmt 0
 338 0224 17050000 		lla	a0,.LC2
 338      13050500 
 339              	.LVL28:
 340 022c 97000000 		call	_ZN11ConsoleUtil11printStringEPKc@plt
 340      E7800000 
 341              	.LVL29:
  45:src/buddy.cpp ****     ConsoleUtil::printInt(size);
 342              		.loc 1 45 5 is_stmt 1
  45:src/buddy.cpp ****     ConsoleUtil::printInt(size);
 343              		.loc 1 45 26 is_stmt 0
 344 0234 13060000 		li	a2,0
 345 0238 9305A000 		li	a1,10
 346 023c 1B850400 		sext.w	a0,s1
 347 0240 97000000 		call	_ZN11ConsoleUtil8printIntEiii@plt
 347      E7800000 
 348              	.LVL30:
  46:src/buddy.cpp ****     ConsoleUtil::printString("\n");
 349              		.loc 1 46 5 is_stmt 1
GAS LISTING /tmp/ccmjaqds.s 			page 11


  46:src/buddy.cpp ****     ConsoleUtil::printString("\n");
 350              		.loc 1 46 29 is_stmt 0
 351 0248 17050000 		lla	a0,.LC1
 351      13050500 
 352 0250 97000000 		call	_ZN11ConsoleUtil11printStringEPKc@plt
 352      E7800000 
 353              	.LVL31:
  47:src/buddy.cpp ****     if(!head[size]){
 354              		.loc 1 47 5 is_stmt 1
 355              	.LBB9:
  47:src/buddy.cpp ****     if(!head[size]){
 356              		.loc 1 47 18 is_stmt 0
 357 0258 13973400 		slli	a4,s1,3
 358 025c 97070000 		lla	a5,.LANCHOR0
 358      93870700 
 359 0264 B387E700 		add	a5,a5,a4
 360 0268 83B78707 		ld	a5,120(a5)
  47:src/buddy.cpp ****     if(!head[size]){
 361              		.loc 1 47 5
 362 026c 638E0700 		beqz	a5,.L25
 363              	.LBE9:
  52:src/buddy.cpp ****         if((uint64)addr < (uint64)head[size]){
 364              		.loc 1 52 9 is_stmt 1
 365              	.LBB20:
 366              	.LBB10:
  52:src/buddy.cpp ****         if((uint64)addr < (uint64)head[size]){
 367              		.loc 1 52 25 is_stmt 0
 368 0270 13070900 		mv	a4,s2
  52:src/buddy.cpp ****         if((uint64)addr < (uint64)head[size]){
 369              		.loc 1 52 9
 370 0274 6366F904 		bgtu	a5,s2,.L26
 371              	.L22:
 372              	.LVL32:
 373              	.LBB11:
  60:src/buddy.cpp ****             while(iter != nullptr){
 374              		.loc 1 60 13 is_stmt 1
  60:src/buddy.cpp ****             while(iter != nullptr){
 375              		.loc 1 60 24
 376 0278 63880702 		beqz	a5,.L19
 377              	.LBE11:
 378              	.LBE10:
 379              	.LBE20:
  61:src/buddy.cpp ****                 if((uint64)addr < (uint64)iter) {
 380              		.loc 1 61 17
 381              	.LBB21:
 382              	.LBB18:
 383              	.LBB15:
 384              	.LBB12:
 385 027c 6366F706 		bltu	a4,a5,.L27
  69:src/buddy.cpp ****                     iter = iter->next;
 386              		.loc 1 69 21
  69:src/buddy.cpp ****                     iter = iter->next;
 387              		.loc 1 69 26 is_stmt 0
 388 0280 83B70700 		ld	a5,0(a5)
 389              	.LVL33:
 390              	.LBE12:
  60:src/buddy.cpp ****             while(iter != nullptr){
GAS LISTING /tmp/ccmjaqds.s 			page 12


 391              		.loc 1 60 13
 392 0284 6FF05FFF 		j	.L22
 393              	.LVL34:
 394              	.L25:
 395              	.LBE15:
 396              	.LBE18:
  48:src/buddy.cpp ****         head[size] = tail[size] = (Block*)addr;
 397              		.loc 1 48 9 is_stmt 1
  48:src/buddy.cpp ****         head[size] = tail[size] = (Block*)addr;
 398              		.loc 1 48 33 is_stmt 0
 399 0288 97070000 		lla	a5,.LANCHOR0
 399      93870700 
 400 0290 B384E700 		add	s1,a5,a4
 401              	.LVL35:
 402 0294 23B82401 		sd	s2,16(s1)
  48:src/buddy.cpp ****         head[size] = tail[size] = (Block*)addr;
 403              		.loc 1 48 20
 404 0298 23BC2407 		sd	s2,120(s1)
  49:src/buddy.cpp ****         head[size]->next = tail[size]->next = nullptr;
 405              		.loc 1 49 9 is_stmt 1
  49:src/buddy.cpp ****         head[size]->next = tail[size]->next = nullptr;
 406              		.loc 1 49 45 is_stmt 0
 407 029c 23300900 		sd	zero,0(s2)
  49:src/buddy.cpp ****         head[size]->next = tail[size]->next = nullptr;
 408              		.loc 1 49 18
 409 02a0 83B78407 		ld	a5,120(s1)
  49:src/buddy.cpp ****         head[size]->next = tail[size]->next = nullptr;
 410              		.loc 1 49 26
 411 02a4 23B00700 		sd	zero,0(a5)
 412              	.L19:
 413              	.LBE21:
  73:src/buddy.cpp **** }
 414              		.loc 1 73 1
 415 02a8 83308101 		ld	ra,24(sp)
 416              		.cfi_remember_state
 417              		.cfi_restore 1
 418 02ac 03340101 		ld	s0,16(sp)
 419              		.cfi_restore 8
 420              		.cfi_def_cfa 2, 32
 421 02b0 83348100 		ld	s1,8(sp)
 422              		.cfi_restore 9
 423 02b4 03390100 		ld	s2,0(sp)
 424              		.cfi_restore 18
 425              	.LVL36:
 426 02b8 13010102 		addi	sp,sp,32
 427              		.cfi_def_cfa_offset 0
 428 02bc 67800000 		jr	ra
 429              	.LVL37:
 430              	.L26:
 431              		.cfi_restore_state
 432              	.LBB22:
 433              	.LBB19:
 434              	.LBB16:
  53:src/buddy.cpp ****             Bucket* newHead = (Bucket*)addr;
 435              		.loc 1 53 13 is_stmt 1
  54:src/buddy.cpp ****             newHead->next = head[size];
 436              		.loc 1 54 13
GAS LISTING /tmp/ccmjaqds.s 			page 13


  54:src/buddy.cpp ****             newHead->next = head[size];
 437              		.loc 1 54 27 is_stmt 0
 438 02c0 2330F900 		sd	a5,0(s2)
  55:src/buddy.cpp ****             head[size] = newHead;
 439              		.loc 1 55 13 is_stmt 1
  55:src/buddy.cpp ****             head[size] = newHead;
 440              		.loc 1 55 24 is_stmt 0
 441 02c4 13973400 		slli	a4,s1,3
 442              	.LVL38:
 443 02c8 97070000 		lla	a5,.LANCHOR0
 443      93870700 
 444 02d0 B387E700 		add	a5,a5,a4
 445 02d4 23BC2707 		sd	s2,120(a5)
  56:src/buddy.cpp ****             compress(size);
 446              		.loc 1 56 13 is_stmt 1
  56:src/buddy.cpp ****             compress(size);
 447              		.loc 1 56 21 is_stmt 0
 448 02d8 13850400 		mv	a0,s1
 449 02dc 97000000 		call	_ZN5Buddy8compressEm
 449      E7800000 
 450              	.LVL39:
 451              	.LBE16:
 452 02e4 6FF05FFC 		j	.L19
 453              	.LVL40:
 454              	.L27:
 455              	.LBB17:
 456              	.LBB14:
 457              	.LBB13:
  62:src/buddy.cpp ****                     Block *newBlock = (Block *) addr;
 458              		.loc 1 62 21 is_stmt 1
  63:src/buddy.cpp ****                     newBlock->next = iter;
 459              		.loc 1 63 21
  63:src/buddy.cpp ****                     newBlock->next = iter;
 460              		.loc 1 63 36 is_stmt 0
 461 02e8 2330F900 		sd	a5,0(s2)
  64:src/buddy.cpp ****                     prev->next = newBlock;
 462              		.loc 1 64 21 is_stmt 1
  64:src/buddy.cpp ****                     prev->next = newBlock;
 463              		.loc 1 64 32 is_stmt 0
 464 02ec 23302001 		sd	s2,0(zero)
  65:src/buddy.cpp ****                     compress(size);
 465              		.loc 1 65 21 is_stmt 1
  65:src/buddy.cpp ****                     compress(size);
 466              		.loc 1 65 29 is_stmt 0
 467 02f0 13850400 		mv	a0,s1
 468 02f4 97000000 		call	_ZN5Buddy8compressEm
 468      E7800000 
 469              	.LVL41:
  66:src/buddy.cpp ****                     break;
 470              		.loc 1 66 21 is_stmt 1
 471 02fc 6FF0DFFA 		j	.L19
 472              	.LBE13:
 473              	.LBE14:
 474              	.LBE17:
 475              	.LBE19:
 476              	.LBE22:
 477              		.cfi_endproc
GAS LISTING /tmp/ccmjaqds.s 			page 14


 478              	.LFE24:
 480              		.align	2
 481              		.globl	_ZN5Buddy4freeEPvm
 483              	_ZN5Buddy4freeEPvm:
 484              	.LFB23:
  39:src/buddy.cpp **** void Buddy::free(void *addr, uint64 size) {
 485              		.loc 1 39 43
 486              		.cfi_startproc
 487              	.LVL42:
 488 0300 130101FF 		addi	sp,sp,-16
 489              		.cfi_def_cfa_offset 16
 490 0304 23341100 		sd	ra,8(sp)
 491 0308 23308100 		sd	s0,0(sp)
 492              		.cfi_offset 1, -8
 493              		.cfi_offset 8, -16
 494 030c 13040101 		addi	s0,sp,16
 495              		.cfi_def_cfa 8, 0
  40:src/buddy.cpp ****     insert(addr,size);
 496              		.loc 1 40 5
  40:src/buddy.cpp ****     insert(addr,size);
 497              		.loc 1 40 11 is_stmt 0
 498 0310 97000000 		call	_ZN5Buddy6insertEPvm
 498      E7800000 
 499              	.LVL43:
  41:src/buddy.cpp **** }
 500              		.loc 1 41 1
 501 0318 83308100 		ld	ra,8(sp)
 502              		.cfi_restore 1
 503 031c 03340100 		ld	s0,0(sp)
 504              		.cfi_restore 8
 505              		.cfi_def_cfa 2, 16
 506 0320 13010101 		addi	sp,sp,16
 507              		.cfi_def_cfa_offset 0
 508 0324 67800000 		jr	ra
 509              		.cfi_endproc
 510              	.LFE23:
 512              		.align	2
 513              		.globl	_ZN5Buddy5splitEPNS_5BlockEii
 515              	_ZN5Buddy5splitEPNS_5BlockEii:
 516              	.LFB26:
 102:src/buddy.cpp **** void Buddy::split(Block *block, int currentBucket, int startBucket) {
 517              		.loc 1 102 69 is_stmt 1
 518              		.cfi_startproc
 519              	.LVL44:
 520 0328 130101FF 		addi	sp,sp,-16
 521              		.cfi_def_cfa_offset 16
 522 032c 23348100 		sd	s0,8(sp)
 523              		.cfi_offset 8, -8
 524 0330 13040101 		addi	s0,sp,16
 525              		.cfi_def_cfa 8, 0
 526 0334 6F00C003 		j	.L31
 527              	.LVL45:
 528              	.L33:
 109:src/buddy.cpp ****             head[currentBucket] = tail[currentBucket] = (Block *) ((uint64) block + (1 << (currentB
 529              		.loc 1 109 13
 109:src/buddy.cpp ****             head[currentBucket] = tail[currentBucket] = (Block *) ((uint64) block + (1 << (currentB
 530              		.loc 1 109 106 is_stmt 0
GAS LISTING /tmp/ccmjaqds.s 			page 15


 531 0338 9B85B500 		addiw	a1,a1,11
 532              	.LVL46:
 109:src/buddy.cpp ****             head[currentBucket] = tail[currentBucket] = (Block *) ((uint64) block + (1 << (currentB
 533              		.loc 1 109 88
 534 033c 13071000 		li	a4,1
 535 0340 BB15B700 		sllw	a1,a4,a1
 109:src/buddy.cpp ****             head[currentBucket] = tail[currentBucket] = (Block *) ((uint64) block + (1 << (currentB
 536              		.loc 1 109 83
 537 0344 B305B500 		add	a1,a0,a1
 109:src/buddy.cpp ****             head[currentBucket] = tail[currentBucket] = (Block *) ((uint64) block + (1 << (currentB
 538              		.loc 1 109 55
 539 0348 93963700 		slli	a3,a5,3
 540 034c 17070000 		lla	a4,.LANCHOR0
 540      13070700 
 541 0354 3307D700 		add	a4,a4,a3
 542 0358 2338B700 		sd	a1,16(a4)
 109:src/buddy.cpp ****             head[currentBucket] = tail[currentBucket] = (Block *) ((uint64) block + (1 << (currentB
 543              		.loc 1 109 33
 544 035c 233CB706 		sd	a1,120(a4)
 110:src/buddy.cpp ****             head[currentBucket]->next = tail[currentBucket]->next = nullptr;
 545              		.loc 1 110 13 is_stmt 1
 110:src/buddy.cpp ****             head[currentBucket]->next = tail[currentBucket]->next = nullptr;
 546              		.loc 1 110 67 is_stmt 0
 547 0360 23B00500 		sd	zero,0(a1)
 110:src/buddy.cpp ****             head[currentBucket]->next = tail[currentBucket]->next = nullptr;
 548              		.loc 1 110 31
 549 0364 03378707 		ld	a4,120(a4)
 110:src/buddy.cpp ****             head[currentBucket]->next = tail[currentBucket]->next = nullptr;
 550              		.loc 1 110 39
 551 0368 23300700 		sd	zero,0(a4)
 552              	.L34:
 102:src/buddy.cpp **** void Buddy::split(Block *block, int currentBucket, int startBucket) {
 553              		.loc 1 102 69
 554 036c 93850700 		mv	a1,a5
 555              	.L31:
 556              	.LVL47:
 103:src/buddy.cpp ****     while(--currentBucket>=startBucket){
 557              		.loc 1 103 5 is_stmt 1
 103:src/buddy.cpp ****     while(--currentBucket>=startBucket){
 558              		.loc 1 103 26
 559 0370 9B87F5FF 		addiw	a5,a1,-1
 560              	.LVL48:
 561 0374 63C8C704 		blt	a5,a2,.L30
 104:src/buddy.cpp ****         if(tail[currentBucket]) {
 562              		.loc 1 104 9
 104:src/buddy.cpp ****         if(tail[currentBucket]) {
 563              		.loc 1 104 30 is_stmt 0
 564 0378 93963700 		slli	a3,a5,3
 565 037c 17070000 		lla	a4,.LANCHOR0
 565      13070700 
 566 0384 3307D700 		add	a4,a4,a3
 567 0388 83360701 		ld	a3,16(a4)
 104:src/buddy.cpp ****         if(tail[currentBucket]) {
 568              		.loc 1 104 9
 569 038c E38606FA 		beqz	a3,.L33
 105:src/buddy.cpp ****             tail[currentBucket]->next = (Block *) ((uint64) block + (1 << (currentBucket + BUDDY_BL
 570              		.loc 1 105 13 is_stmt 1
GAS LISTING /tmp/ccmjaqds.s 			page 16


 105:src/buddy.cpp ****             tail[currentBucket]->next = (Block *) ((uint64) block + (1 << (currentBucket + BUDDY_BL
 571              		.loc 1 105 90 is_stmt 0
 572 0390 9B85B500 		addiw	a1,a1,11
 573              	.LVL49:
 105:src/buddy.cpp ****             tail[currentBucket]->next = (Block *) ((uint64) block + (1 << (currentBucket + BUDDY_BL
 574              		.loc 1 105 72
 575 0394 13071000 		li	a4,1
 576 0398 BB15B700 		sllw	a1,a4,a1
 105:src/buddy.cpp ****             tail[currentBucket]->next = (Block *) ((uint64) block + (1 << (currentBucket + BUDDY_BL
 577              		.loc 1 105 67
 578 039c B305B500 		add	a1,a0,a1
 105:src/buddy.cpp ****             tail[currentBucket]->next = (Block *) ((uint64) block + (1 << (currentBucket + BUDDY_BL
 579              		.loc 1 105 39
 580 03a0 23B0B600 		sd	a1,0(a3)
 106:src/buddy.cpp ****             tail[currentBucket] = tail[currentBucket]->next;
 581              		.loc 1 106 13 is_stmt 1
 106:src/buddy.cpp ****             tail[currentBucket] = tail[currentBucket]->next;
 582              		.loc 1 106 53 is_stmt 0
 583 03a4 93963700 		slli	a3,a5,3
 584 03a8 17070000 		lla	a4,.LANCHOR0
 584      13070700 
 585 03b0 3307D700 		add	a4,a4,a3
 586 03b4 83360701 		ld	a3,16(a4)
 106:src/buddy.cpp ****             tail[currentBucket] = tail[currentBucket]->next;
 587              		.loc 1 106 56
 588 03b8 83B60600 		ld	a3,0(a3)
 106:src/buddy.cpp ****             tail[currentBucket] = tail[currentBucket]->next;
 589              		.loc 1 106 33
 590 03bc 2338D700 		sd	a3,16(a4)
 591 03c0 6FF0DFFA 		j	.L34
 592              	.LVL50:
 593              	.L30:
 113:src/buddy.cpp **** }
 594              		.loc 1 113 1
 595 03c4 03348100 		ld	s0,8(sp)
 596              		.cfi_restore 8
 597              		.cfi_def_cfa 2, 16
 598 03c8 13010101 		addi	sp,sp,16
 599              		.cfi_def_cfa_offset 0
 600 03cc 67800000 		jr	ra
 601              		.cfi_endproc
 602              	.LFE26:
 604              		.align	2
 605              		.globl	_ZN5Buddy5allocEm
 607              	_ZN5Buddy5allocEm:
 608              	.LFB22:
  20:src/buddy.cpp **** void* Buddy::alloc(uint64 size) {
 609              		.loc 1 20 33 is_stmt 1
 610              		.cfi_startproc
 611              	.LVL51:
  22:src/buddy.cpp ****     if(size<0 || size>=BUCKET_SIZE)
 612              		.loc 1 22 5
 613 03d0 9307C000 		li	a5,12
 614 03d4 63EEA708 		bgtu	a0,a5,.L41
  20:src/buddy.cpp **** void* Buddy::alloc(uint64 size) {
 615              		.loc 1 20 33 is_stmt 0
 616 03d8 130101FD 		addi	sp,sp,-48
GAS LISTING /tmp/ccmjaqds.s 			page 17


 617              		.cfi_def_cfa_offset 48
 618 03dc 23341102 		sd	ra,40(sp)
 619 03e0 23308102 		sd	s0,32(sp)
 620 03e4 233C9100 		sd	s1,24(sp)
 621 03e8 23382101 		sd	s2,16(sp)
 622 03ec 23343101 		sd	s3,8(sp)
 623              		.cfi_offset 1, -8
 624              		.cfi_offset 8, -16
 625              		.cfi_offset 9, -24
 626              		.cfi_offset 18, -32
 627              		.cfi_offset 19, -40
 628 03f0 13040103 		addi	s0,sp,48
 629              		.cfi_def_cfa 8, 0
  25:src/buddy.cpp ****     Block* blk = nullptr;
 630              		.loc 1 25 5 is_stmt 1
 631              	.LVL52:
  27:src/buddy.cpp ****     for(int i=size;i<BUCKET_SIZE;i++){
 632              		.loc 1 27 5
 633              	.LBB23:
  27:src/buddy.cpp ****     for(int i=size;i<BUCKET_SIZE;i++){
 634              		.loc 1 27 13 is_stmt 0
 635 03f4 9B090500 		sext.w	s3,a0
 636              	.LVL53:
 637 03f8 93840900 		mv	s1,s3
 638              	.LBE23:
  25:src/buddy.cpp ****     Block* blk = nullptr;
 639              		.loc 1 25 12
 640 03fc 13050000 		li	a0,0
 641              	.LVL54:
 642 0400 6F000003 		j	.L40
 643              	.LVL55:
 644              	.L46:
 645              	.LBB24:
  32:src/buddy.cpp ****                 tail[i] = nullptr;
 646              		.loc 1 32 17 is_stmt 1
  32:src/buddy.cpp ****                 tail[i] = nullptr;
 647              		.loc 1 32 25 is_stmt 0
 648 0404 97070000 		lla	a5,.LANCHOR0
 648      93870700 
 649 040c B387D700 		add	a5,a5,a3
 650 0410 23B80700 		sd	zero,16(a5)
 651              	.L39:
  33:src/buddy.cpp ****             split(blk, i, size);
 652              		.loc 1 33 13 is_stmt 1
  33:src/buddy.cpp ****             split(blk, i, size);
 653              		.loc 1 33 18 is_stmt 0
 654 0414 13860900 		mv	a2,s3
 655 0418 93850400 		mv	a1,s1
 656 041c 13050900 		mv	a0,s2
 657 0420 97000000 		call	_ZN5Buddy5splitEPNS_5BlockEii
 657      E7800000 
 658              	.LVL56:
  29:src/buddy.cpp ****             blk = head[i];
 659              		.loc 1 29 17
 660 0428 13050900 		mv	a0,s2
 661              	.LVL57:
 662              	.L38:
GAS LISTING /tmp/ccmjaqds.s 			page 18


  27:src/buddy.cpp ****     for(int i=size;i<BUCKET_SIZE;i++){
 663              		.loc 1 27 5 is_stmt 1 discriminator 2
 664 042c 9B841400 		addiw	s1,s1,1
 665              	.LVL58:
 666              	.L40:
  27:src/buddy.cpp ****     for(int i=size;i<BUCKET_SIZE;i++){
 667              		.loc 1 27 21 discriminator 1
 668 0430 9307C000 		li	a5,12
 669 0434 63C29704 		bgt	s1,a5,.L36
  28:src/buddy.cpp ****         if(head[i] != nullptr){
 670              		.loc 1 28 9
  28:src/buddy.cpp ****         if(head[i] != nullptr){
 671              		.loc 1 28 18 is_stmt 0
 672 0438 13973400 		slli	a4,s1,3
 673 043c 97070000 		lla	a5,.LANCHOR0
 673      93870700 
 674 0444 B387E700 		add	a5,a5,a4
 675 0448 03B98707 		ld	s2,120(a5)
  28:src/buddy.cpp ****         if(head[i] != nullptr){
 676              		.loc 1 28 9
 677 044c E30009FE 		beqz	s2,.L38
  29:src/buddy.cpp ****             blk = head[i];
 678              		.loc 1 29 13 is_stmt 1
 679              	.LVL59:
  30:src/buddy.cpp ****             head[i] = head[i]->next;
 680              		.loc 1 30 13
  30:src/buddy.cpp ****             head[i] = head[i]->next;
 681              		.loc 1 30 32 is_stmt 0
 682 0450 03370900 		ld	a4,0(s2)
  30:src/buddy.cpp ****             head[i] = head[i]->next;
 683              		.loc 1 30 21
 684 0454 93963400 		slli	a3,s1,3
 685 0458 97070000 		lla	a5,.LANCHOR0
 685      93870700 
 686 0460 B387D700 		add	a5,a5,a3
 687 0464 23BCE706 		sd	a4,120(a5)
  31:src/buddy.cpp ****             if(!head[i])
 688              		.loc 1 31 13 is_stmt 1
 689 0468 E31607FA 		bnez	a4,.L39
 690 046c 6FF09FF9 		j	.L46
 691              	.LVL60:
 692              	.L41:
 693              		.cfi_def_cfa_register 2
 694              		.cfi_restore 1
 695              		.cfi_restore 8
 696              		.cfi_restore 9
 697              		.cfi_restore 18
 698              		.cfi_restore 19
 699              	.LBE24:
  23:src/buddy.cpp ****         return nullptr;
 700              		.loc 1 23 16 is_stmt 0
 701 0470 13050000 		li	a0,0
 702              	.LVL61:
  37:src/buddy.cpp **** }
 703              		.loc 1 37 1
 704 0474 67800000 		ret
 705              	.LVL62:
GAS LISTING /tmp/ccmjaqds.s 			page 19


 706              	.L36:
 707              		.cfi_def_cfa_register 8
 708              		.cfi_offset 1, -8
 709              		.cfi_offset 8, -16
 710              		.cfi_offset 9, -24
 711              		.cfi_offset 18, -32
 712              		.cfi_offset 19, -40
 713 0478 83308102 		ld	ra,40(sp)
 714              		.cfi_restore 1
 715 047c 03340102 		ld	s0,32(sp)
 716              		.cfi_restore 8
 717              		.cfi_def_cfa 2, 48
 718 0480 83348101 		ld	s1,24(sp)
 719              		.cfi_restore 9
 720              	.LVL63:
 721 0484 03390101 		ld	s2,16(sp)
 722              		.cfi_restore 18
 723 0488 83398100 		ld	s3,8(sp)
 724              		.cfi_restore 19
 725 048c 13010103 		addi	sp,sp,48
 726              		.cfi_def_cfa_offset 0
 727 0490 67800000 		jr	ra
 728              		.cfi_endproc
 729              	.LFE22:
 731              		.section	.rodata.str1.8
 732 0021 00000000 		.align	3
 732      000000
 733              	.LC3:
 734 0028 3A2000   		.string	": "
 735 002b 00000000 		.align	3
 735      00
 736              	.LC4:
 737 0030 2000     		.string	" "
 738              		.text
 739              		.align	2
 740              		.globl	_ZN5Buddy9printListEv
 742              	_ZN5Buddy9printListEv:
 743              	.LFB27:
 115:src/buddy.cpp **** void Buddy::printList() {
 744              		.loc 1 115 25 is_stmt 1
 745              		.cfi_startproc
 746 0494 130101FE 		addi	sp,sp,-32
 747              		.cfi_def_cfa_offset 32
 748 0498 233C1100 		sd	ra,24(sp)
 749 049c 23388100 		sd	s0,16(sp)
 750 04a0 23349100 		sd	s1,8(sp)
 751 04a4 23302101 		sd	s2,0(sp)
 752              		.cfi_offset 1, -8
 753              		.cfi_offset 8, -16
 754              		.cfi_offset 9, -24
 755              		.cfi_offset 18, -32
 756 04a8 13040102 		addi	s0,sp,32
 757              		.cfi_def_cfa 8, 0
 116:src/buddy.cpp ****     for(int i=0;i<BUCKET_SIZE;i++){
 758              		.loc 1 116 5
 759              	.LVL64:
 760              	.LBB25:
GAS LISTING /tmp/ccmjaqds.s 			page 20


 116:src/buddy.cpp ****     for(int i=0;i<BUCKET_SIZE;i++){
 761              		.loc 1 116 13 is_stmt 0
 762 04ac 13090000 		li	s2,0
 763 04b0 6F008001 		j	.L51
 764              	.LVL65:
 765              	.L49:
 766              	.LBB26:
 125:src/buddy.cpp ****         ConsoleUtil::printString("\n");
 767              		.loc 1 125 9 is_stmt 1 discriminator 2
 125:src/buddy.cpp ****         ConsoleUtil::printString("\n");
 768              		.loc 1 125 33 is_stmt 0 discriminator 2
 769 04b4 17050000 		lla	a0,.LC1
 769      13050500 
 770 04bc 97000000 		call	_ZN11ConsoleUtil11printStringEPKc@plt
 770      E7800000 
 771              	.LVL66:
 772              	.LBE26:
 116:src/buddy.cpp ****     for(int i=0;i<BUCKET_SIZE;i++){
 773              		.loc 1 116 5 is_stmt 1 discriminator 2
 774 04c4 1B091900 		addiw	s2,s2,1
 775              	.LVL67:
 776              	.L51:
 116:src/buddy.cpp ****     for(int i=0;i<BUCKET_SIZE;i++){
 777              		.loc 1 116 18 discriminator 1
 778 04c8 9307C000 		li	a5,12
 779 04cc 63C62707 		bgt	s2,a5,.L47
 780              	.LBB27:
 117:src/buddy.cpp ****         ConsoleUtil::printInt(i,10);
 781              		.loc 1 117 9
 117:src/buddy.cpp ****         ConsoleUtil::printInt(i,10);
 782              		.loc 1 117 30 is_stmt 0
 783 04d0 13060000 		li	a2,0
 784 04d4 9305A000 		li	a1,10
 785 04d8 13050900 		mv	a0,s2
 786 04dc 97000000 		call	_ZN11ConsoleUtil8printIntEiii@plt
 786      E7800000 
 787              	.LVL68:
 118:src/buddy.cpp ****         ConsoleUtil::printString(": ");
 788              		.loc 1 118 9 is_stmt 1
 118:src/buddy.cpp ****         ConsoleUtil::printString(": ");
 789              		.loc 1 118 33 is_stmt 0
 790 04e4 17050000 		lla	a0,.LC3
 790      13050500 
 791 04ec 97000000 		call	_ZN11ConsoleUtil11printStringEPKc@plt
 791      E7800000 
 792              	.LVL69:
 119:src/buddy.cpp ****         Bucket *tmp = head[i];
 793              		.loc 1 119 9 is_stmt 1
 119:src/buddy.cpp ****         Bucket *tmp = head[i];
 794              		.loc 1 119 17 is_stmt 0
 795 04f4 13173900 		slli	a4,s2,3
 796 04f8 97070000 		lla	a5,.LANCHOR0
 796      93870700 
 797 0500 B387E700 		add	a5,a5,a4
 798 0504 83B48707 		ld	s1,120(a5)
 799              	.LVL70:
 800              	.L50:
GAS LISTING /tmp/ccmjaqds.s 			page 21


 120:src/buddy.cpp ****         while(tmp != nullptr){
 801              		.loc 1 120 9 is_stmt 1
 120:src/buddy.cpp ****         while(tmp != nullptr){
 802              		.loc 1 120 19
 803 0508 E38604FA 		beqz	s1,.L49
 121:src/buddy.cpp ****             ConsoleUtil::printInt((uint64)tmp,10);
 804              		.loc 1 121 13
 121:src/buddy.cpp ****             ConsoleUtil::printInt((uint64)tmp,10);
 805              		.loc 1 121 34 is_stmt 0
 806 050c 13060000 		li	a2,0
 807 0510 9305A000 		li	a1,10
 808 0514 1B850400 		sext.w	a0,s1
 809 0518 97000000 		call	_ZN11ConsoleUtil8printIntEiii@plt
 809      E7800000 
 810              	.LVL71:
 122:src/buddy.cpp ****             ConsoleUtil::printString(" ");
 811              		.loc 1 122 13 is_stmt 1
 122:src/buddy.cpp ****             ConsoleUtil::printString(" ");
 812              		.loc 1 122 37 is_stmt 0
 813 0520 17050000 		lla	a0,.LC4
 813      13050500 
 814 0528 97000000 		call	_ZN11ConsoleUtil11printStringEPKc@plt
 814      E7800000 
 815              	.LVL72:
 123:src/buddy.cpp ****             tmp = tmp->next;
 816              		.loc 1 123 13 is_stmt 1
 123:src/buddy.cpp ****             tmp = tmp->next;
 817              		.loc 1 123 17 is_stmt 0
 818 0530 83B40400 		ld	s1,0(s1)
 819              	.LVL73:
 120:src/buddy.cpp ****         while(tmp != nullptr){
 820              		.loc 1 120 9
 821 0534 6FF05FFD 		j	.L50
 822              	.LVL74:
 823              	.L47:
 824              	.LBE27:
 825              	.LBE25:
 826              		.loc 1 127 1
 827 0538 83308101 		ld	ra,24(sp)
 828              		.cfi_restore 1
 829 053c 03340101 		ld	s0,16(sp)
 830              		.cfi_restore 8
 831              		.cfi_def_cfa 2, 32
 832 0540 83348100 		ld	s1,8(sp)
 833              		.cfi_restore 9
 834 0544 03390100 		ld	s2,0(sp)
 835              		.cfi_restore 18
 836              	.LVL75:
 837 0548 13010102 		addi	sp,sp,32
 838              		.cfi_def_cfa_offset 0
 839 054c 67800000 		jr	ra
 840              		.cfi_endproc
 841              	.LFE27:
 843              		.align	2
 845              	_GLOBAL__sub_I__ZN5Buddy16BUDDY_START_ADDRE:
 846              	.LFB29:
 847              		.loc 1 127 1 is_stmt 1
GAS LISTING /tmp/ccmjaqds.s 			page 22


 848              		.cfi_startproc
 849 0550 130101FF 		addi	sp,sp,-16
 850              		.cfi_def_cfa_offset 16
 851 0554 23341100 		sd	ra,8(sp)
 852 0558 23308100 		sd	s0,0(sp)
 853              		.cfi_offset 1, -8
 854              		.cfi_offset 8, -16
 855 055c 13040101 		addi	s0,sp,16
 856              		.cfi_def_cfa 8, 0
 857              		.loc 1 127 1 is_stmt 0
 858 0560 B7050100 		li	a1,65536
 859 0564 9385F5FF 		addi	a1,a1,-1
 860 0568 13051000 		li	a0,1
 861 056c 97000000 		call	_Z41__static_initialization_and_destruction_0ii
 861      E7800000 
 862              	.LVL76:
 863 0574 83308100 		ld	ra,8(sp)
 864              		.cfi_restore 1
 865 0578 03340100 		ld	s0,0(sp)
 866              		.cfi_restore 8
 867              		.cfi_def_cfa 2, 16
 868 057c 13010101 		addi	sp,sp,16
 869              		.cfi_def_cfa_offset 0
 870 0580 67800000 		jr	ra
 871              		.cfi_endproc
 872              	.LFE29:
 874              		.section	.init_array,"aw"
 875              		.align	3
 876 0000 00000000 		.dword	_GLOBAL__sub_I__ZN5Buddy16BUDDY_START_ADDRE
 876      00000000 
 877              		.globl	_ZN5Buddy4tailE
 878              		.globl	_ZN5Buddy4headE
 879              		.globl	_ZN5Buddy16BLOCKS_AVAILABLEE
 880              		.globl	_ZN5Buddy20BUDDY_META_DATA_ADDRE
 881              		.globl	_ZN5Buddy16BUDDY_START_ADDRE
 882              		.data
 883              		.align	3
 884              		.set	.LANCHOR1,. + 0
 887              	_ZN5Buddy16BLOCKS_AVAILABLEE:
 888 0000 00100000 		.dword	4096
 888      00000000 
 889              		.bss
 890              		.align	3
 891              		.set	.LANCHOR0,. + 0
 894              	_ZN5Buddy16BUDDY_START_ADDRE:
 895 0000 00000000 		.zero	8
 895      00000000 
 898              	_ZN5Buddy20BUDDY_META_DATA_ADDRE:
 899 0008 00000000 		.zero	8
 899      00000000 
 902              	_ZN5Buddy4tailE:
 903 0010 00000000 		.zero	104
 903      00000000 
 903      00000000 
 903      00000000 
 903      00000000 
 906              	_ZN5Buddy4headE:
GAS LISTING /tmp/ccmjaqds.s 			page 23


 907 0078 00000000 		.zero	104
 907      00000000 
 907      00000000 
 907      00000000 
 907      00000000 
 908              		.text
 909              	.Letext0:
 910              		.file 2 "src/../h/../lib/hw.h"
 911              		.file 3 "src/../h/buddy.hpp"
 912              		.file 4 "src/../h/tcb.hpp"
 913              		.file 5 "src/../h/scb.hpp"
 914              		.file 6 "src/../h/consoleUtil.hpp"
GAS LISTING /tmp/ccmjaqds.s 			page 24

