GAS LISTING /tmp/cch6g7Dm.s 			page 1


   1              		.file	"consoleUtil.cpp"
   2              		.option pic
   3              		.option norelax
   4              		.text
   5              	.Ltext0:
   6              		.align	2
   7              		.globl	_ZN11ConsoleUtil10initializeEv
   9              	_ZN11ConsoleUtil10initializeEv:
  10              	.LFB22:
  11              		.file 1 "src/consoleUtil.cpp"
   1:src/consoleUtil.cpp **** //
   2:src/consoleUtil.cpp **** // Created by os on 5/29/22.
   3:src/consoleUtil.cpp **** //
   4:src/consoleUtil.cpp **** 
   5:src/consoleUtil.cpp **** #include "../h/consoleUtil.hpp"
   6:src/consoleUtil.cpp **** #include "../h/printing.hpp"
   7:src/consoleUtil.cpp **** #include "../h/scb.hpp"
   8:src/consoleUtil.cpp **** 
   9:src/consoleUtil.cpp **** uint64 ConsoleUtil::inputHead = 0;
  10:src/consoleUtil.cpp **** uint64 ConsoleUtil::inputTail = 0;
  11:src/consoleUtil.cpp **** uint64 ConsoleUtil::outputHead = 0;
  12:src/consoleUtil.cpp **** uint64 ConsoleUtil::outputTail = 0;
  13:src/consoleUtil.cpp **** 
  14:src/consoleUtil.cpp **** uint64 ConsoleUtil::pendingGetc = 0;
  15:src/consoleUtil.cpp **** uint64 ConsoleUtil::pendingPutc = 0;
  16:src/consoleUtil.cpp **** 
  17:src/consoleUtil.cpp **** SCB* ConsoleUtil::outputSem = nullptr;
  18:src/consoleUtil.cpp **** SCB* ConsoleUtil::inputSem = nullptr;
  19:src/consoleUtil.cpp **** 
  20:src/consoleUtil.cpp **** char* ConsoleUtil::inputBuffer = nullptr;
  21:src/consoleUtil.cpp **** char* ConsoleUtil::outputBuffer = nullptr;
  22:src/consoleUtil.cpp **** 
  23:src/consoleUtil.cpp **** void ConsoleUtil::initialize() {
  12              		.loc 1 23 32
  13              		.cfi_startproc
  14              		.cfi_personality 0x9b,DW.ref.__gxx_personality_v0
  15              		.cfi_lsda 0x1b,.LLSDA22
  16 0000 130101FE 		addi	sp,sp,-32
  17              		.cfi_def_cfa_offset 32
  18 0004 233C1100 		sd	ra,24(sp)
  19 0008 23388100 		sd	s0,16(sp)
  20 000c 23349100 		sd	s1,8(sp)
  21 0010 23302101 		sd	s2,0(sp)
  22              		.cfi_offset 1, -8
  23              		.cfi_offset 8, -16
  24              		.cfi_offset 9, -24
  25              		.cfi_offset 18, -32
  26 0014 13040102 		addi	s0,sp,32
  27              		.cfi_def_cfa 8, 0
  24:src/consoleUtil.cpp ****     inputSem = new SCB(0);
  28              		.loc 1 24 5
  29              		.loc 1 24 25 is_stmt 0
  30 0018 13058001 		li	a0,24
  31              	.LEHB0:
  32 001c 97000000 		call	_ZN3SCBnwEm@plt
  32      E7800000 
  33              	.LVL0:
GAS LISTING /tmp/cch6g7Dm.s 			page 2


  34              	.LEHE0:
  35 0024 93040500 		mv	s1,a0
  36 0028 93050000 		li	a1,0
  37              	.LEHB1:
  38 002c 97000000 		call	_ZN3SCBC1Em@plt
  38      E7800000 
  39              	.LVL1:
  40              	.LEHE1:
  41              		.loc 1 24 14 discriminator 2
  42 0034 97070000 		sd	s1,.LANCHOR0,a5
  42      23B09700 
  25:src/consoleUtil.cpp ****     outputSem = new SCB(0);
  43              		.loc 1 25 5 is_stmt 1 discriminator 2
  44              		.loc 1 25 26 is_stmt 0 discriminator 2
  45 003c 13058001 		li	a0,24
  46              	.LEHB2:
  47 0040 97000000 		call	_ZN3SCBnwEm@plt
  47      E7800000 
  48              	.LVL2:
  49              	.LEHE2:
  50 0048 93040500 		mv	s1,a0
  51 004c 93050000 		li	a1,0
  52              	.LEHB3:
  53 0050 97000000 		call	_ZN3SCBC1Em@plt
  53      E7800000 
  54              	.LVL3:
  55              	.LEHE3:
  56              		.loc 1 25 15 discriminator 2
  57 0058 17090000 		lla	s2,.LANCHOR0
  57      13090900 
  58 0060 23349900 		sd	s1,8(s2)
  26:src/consoleUtil.cpp ****     inputBuffer = (char*)kmalloc(ConsoleUtil::bufferSize);
  59              		.loc 1 26 5 is_stmt 1 discriminator 2
  60              		.loc 1 26 33 is_stmt 0 discriminator 2
  61 0064 37250000 		li	a0,8192
  62              	.LEHB4:
  63 0068 97000000 		call	_Z7kmallocm@plt
  63      E7800000 
  64              	.LVL4:
  65              		.loc 1 26 17 discriminator 2
  66 0070 2338A900 		sd	a0,16(s2)
  27:src/consoleUtil.cpp ****     outputBuffer = (char*)kmalloc(ConsoleUtil::bufferSize);
  67              		.loc 1 27 5 is_stmt 1 discriminator 2
  68              		.loc 1 27 34 is_stmt 0 discriminator 2
  69 0074 37250000 		li	a0,8192
  70 0078 97000000 		call	_Z7kmallocm@plt
  70      E7800000 
  71              	.LVL5:
  72              	.LEHE4:
  73              		.loc 1 27 18 discriminator 2
  74 0080 233CA900 		sd	a0,24(s2)
  28:src/consoleUtil.cpp **** }
  75              		.loc 1 28 1 discriminator 2
  76 0084 83308101 		ld	ra,24(sp)
  77              		.cfi_remember_state
  78              		.cfi_restore 1
  79 0088 03340101 		ld	s0,16(sp)
GAS LISTING /tmp/cch6g7Dm.s 			page 3


  80              		.cfi_restore 8
  81              		.cfi_def_cfa 2, 32
  82 008c 83348100 		ld	s1,8(sp)
  83              		.cfi_restore 9
  84 0090 03390100 		ld	s2,0(sp)
  85              		.cfi_restore 18
  86 0094 13010102 		addi	sp,sp,32
  87              		.cfi_def_cfa_offset 0
  88 0098 67800000 		jr	ra
  89              	.L4:
  90              		.cfi_restore_state
  91 009c 13090500 		mv	s2,a0
  24:src/consoleUtil.cpp ****     outputSem = new SCB(0);
  92              		.loc 1 24 25
  93 00a0 13850400 		mv	a0,s1
  94 00a4 97000000 		call	_ZN3SCBdlEPv@plt
  94      E7800000 
  95              	.LVL6:
  96 00ac 13050900 		mv	a0,s2
  97              	.LEHB5:
  98 00b0 97000000 		call	_Unwind_Resume@plt
  98      E7800000 
  99              	.LVL7:
 100              	.LEHE5:
 101              	.L5:
 102 00b8 13090500 		mv	s2,a0
  25:src/consoleUtil.cpp ****     inputBuffer = (char*)kmalloc(ConsoleUtil::bufferSize);
 103              		.loc 1 25 26
 104 00bc 13850400 		mv	a0,s1
 105 00c0 97000000 		call	_ZN3SCBdlEPv@plt
 105      E7800000 
 106              	.LVL8:
 107 00c8 13050900 		mv	a0,s2
 108              	.LEHB6:
 109 00cc 97000000 		call	_Unwind_Resume@plt
 109      E7800000 
 110              	.LVL9:
 111              	.LEHE6:
 112              		.cfi_endproc
 113              	.LFE22:
 114              		.globl	__gxx_personality_v0
 115              		.section	.gcc_except_table,"a",@progbits
 116              	.LLSDA22:
 117 0000 FF       		.byte	0xff
 118 0001 FF       		.byte	0xff
 119 0002 03       		.byte	0x3
 120 0003 5B       		.byte	0x5b
 121 0004 00000000 		.4byte	.LEHB0-.LFB22
 122 0008 00000000 		.4byte	.LEHE0-.LEHB0
 123 000c 00000000 		.4byte	0
 124 0010 00       		.byte	0
 125 0011 00000000 		.4byte	.LEHB1-.LFB22
 126 0015 00000000 		.4byte	.LEHE1-.LEHB1
 127 0019 00000000 		.4byte	.L4-.LFB22
 128 001d 00       		.byte	0
 129 001e 00000000 		.4byte	.LEHB2-.LFB22
 130 0022 00000000 		.4byte	.LEHE2-.LEHB2
GAS LISTING /tmp/cch6g7Dm.s 			page 4


 131 0026 00000000 		.4byte	0
 132 002a 00       		.byte	0
 133 002b 00000000 		.4byte	.LEHB3-.LFB22
 134 002f 00000000 		.4byte	.LEHE3-.LEHB3
 135 0033 00000000 		.4byte	.L5-.LFB22
 136 0037 00       		.byte	0
 137 0038 00000000 		.4byte	.LEHB4-.LFB22
 138 003c 00000000 		.4byte	.LEHE4-.LEHB4
 139 0040 00000000 		.4byte	0
 140 0044 00       		.byte	0
 141 0045 00000000 		.4byte	.LEHB5-.LFB22
 142 0049 00000000 		.4byte	.LEHE5-.LEHB5
 143 004d 00000000 		.4byte	0
 144 0051 00       		.byte	0
 145 0052 00000000 		.4byte	.LEHB6-.LFB22
 146 0056 00000000 		.4byte	.LEHE6-.LEHB6
 147 005a 00000000 		.4byte	0
 148 005e 00       		.byte	0
 149              		.text
 151              		.align	2
 152              		.globl	_ZN11ConsoleUtil8putInputEc
 154              	_ZN11ConsoleUtil8putInputEc:
 155              	.LFB23:
  29:src/consoleUtil.cpp **** 
  30:src/consoleUtil.cpp **** void ConsoleUtil::putInput(char c) {
 156              		.loc 1 30 36 is_stmt 1
 157              		.cfi_startproc
 158              	.LVL10:
  31:src/consoleUtil.cpp ****     if((inputTail+1)%bufferSize == inputHead)
 159              		.loc 1 31 5
 160              		.loc 1 31 18 is_stmt 0
 161 00d4 97060000 		lla	a3,.LANCHOR0
 161      93860600 
 162 00dc 03B60602 		ld	a2,32(a3)
 163 00e0 93071600 		addi	a5,a2,1
 164              		.loc 1 31 21
 165 00e4 37270000 		li	a4,8192
 166 00e8 1307F7FF 		addi	a4,a4,-1
 167 00ec B3F7E700 		and	a5,a5,a4
 168              		.loc 1 31 33
 169 00f0 03B78602 		ld	a4,40(a3)
 170              		.loc 1 31 5
 171 00f4 638CE704 		beq	a5,a4,.L11
  30:src/consoleUtil.cpp ****     if((inputTail+1)%bufferSize == inputHead)
 172              		.loc 1 30 36
 173 00f8 130101FF 		addi	sp,sp,-16
 174              		.cfi_def_cfa_offset 16
 175 00fc 23341100 		sd	ra,8(sp)
 176 0100 23308100 		sd	s0,0(sp)
 177              		.cfi_offset 1, -8
 178              		.cfi_offset 8, -16
 179 0104 13040101 		addi	s0,sp,16
 180              		.cfi_def_cfa 8, 0
  32:src/consoleUtil.cpp ****         return;
  33:src/consoleUtil.cpp ****     inputBuffer[inputTail] = c;
 181              		.loc 1 33 5 is_stmt 1
 182              		.loc 1 33 26 is_stmt 0
GAS LISTING /tmp/cch6g7Dm.s 			page 5


 183 0108 13870600 		mv	a4,a3
 184 010c 83B70601 		ld	a5,16(a3)
 185 0110 3386C700 		add	a2,a5,a2
 186              		.loc 1 33 28
 187 0114 2300A600 		sb	a0,0(a2)
  34:src/consoleUtil.cpp ****     inputTail = (inputTail+1)%bufferSize;
 188              		.loc 1 34 5 is_stmt 1
 189              		.loc 1 34 27 is_stmt 0
 190 0118 83B70602 		ld	a5,32(a3)
 191 011c 93871700 		addi	a5,a5,1
 192              		.loc 1 34 30
 193 0120 B7260000 		li	a3,8192
 194 0124 9386F6FF 		addi	a3,a3,-1
 195 0128 B3F7D700 		and	a5,a5,a3
 196              		.loc 1 34 15
 197 012c 2330F702 		sd	a5,32(a4)
  35:src/consoleUtil.cpp ****     inputSem->signal();
 198              		.loc 1 35 5 is_stmt 1
 199              		.loc 1 35 21 is_stmt 0
 200 0130 03350700 		ld	a0,0(a4)
 201              	.LVL11:
 202 0134 97000000 		call	_ZN3SCB6signalEv@plt
 202      E7800000 
 203              	.LVL12:
  36:src/consoleUtil.cpp **** }
 204              		.loc 1 36 1
 205 013c 83308100 		ld	ra,8(sp)
 206              		.cfi_restore 1
 207 0140 03340100 		ld	s0,0(sp)
 208              		.cfi_restore 8
 209              		.cfi_def_cfa 2, 16
 210 0144 13010101 		addi	sp,sp,16
 211              		.cfi_def_cfa_offset 0
 212 0148 67800000 		jr	ra
 213              	.LVL13:
 214              	.L11:
 215 014c 67800000 		ret
 216              		.cfi_endproc
 217              	.LFE23:
 219              		.align	2
 220              		.globl	_ZN11ConsoleUtil8getInputEv
 222              	_ZN11ConsoleUtil8getInputEv:
 223              	.LFB24:
  37:src/consoleUtil.cpp **** 
  38:src/consoleUtil.cpp **** char ConsoleUtil::getInput() {
 224              		.loc 1 38 30 is_stmt 1
 225              		.cfi_startproc
 226 0150 130101FE 		addi	sp,sp,-32
 227              		.cfi_def_cfa_offset 32
 228 0154 233C1100 		sd	ra,24(sp)
 229 0158 23388100 		sd	s0,16(sp)
 230 015c 23349100 		sd	s1,8(sp)
 231              		.cfi_offset 1, -8
 232              		.cfi_offset 8, -16
 233              		.cfi_offset 9, -24
 234 0160 13040102 		addi	s0,sp,32
 235              		.cfi_def_cfa 8, 0
GAS LISTING /tmp/cch6g7Dm.s 			page 6


  39:src/consoleUtil.cpp ****     inputSem->wait();
 236              		.loc 1 39 5
 237              		.loc 1 39 19 is_stmt 0
 238 0164 97040000 		lla	s1,.LANCHOR0
 238      93840400 
 239 016c 03B50400 		ld	a0,0(s1)
 240 0170 97000000 		call	_ZN3SCB4waitEv@plt
 240      E7800000 
 241              	.LVL14:
  40:src/consoleUtil.cpp **** 
  41:src/consoleUtil.cpp ****     if(inputHead == inputTail)
 242              		.loc 1 41 5 is_stmt 1
 243              		.loc 1 41 18 is_stmt 0
 244 0178 83B78402 		ld	a5,40(s1)
 245 017c 03B70402 		ld	a4,32(s1)
 246              		.loc 1 41 5
 247 0180 638CE702 		beq	a5,a4,.L16
  42:src/consoleUtil.cpp ****         return -1;
  43:src/consoleUtil.cpp ****     char c = inputBuffer[inputHead];
 248              		.loc 1 43 5 is_stmt 1
 249              		.loc 1 43 35 is_stmt 0
 250 0184 03B70401 		ld	a4,16(s1)
 251 0188 3307F700 		add	a4,a4,a5
 252              		.loc 1 43 10
 253 018c 03450700 		lbu	a0,0(a4)
 254              	.LVL15:
  44:src/consoleUtil.cpp **** 
  45:src/consoleUtil.cpp ****     inputHead = (inputHead+1)%bufferSize;
 255              		.loc 1 45 5 is_stmt 1
 256              		.loc 1 45 27 is_stmt 0
 257 0190 93871700 		addi	a5,a5,1
 258              		.loc 1 45 30
 259 0194 37270000 		li	a4,8192
 260 0198 1307F7FF 		addi	a4,a4,-1
 261 019c B3F7E700 		and	a5,a5,a4
 262              		.loc 1 45 15
 263 01a0 23B4F402 		sd	a5,40(s1)
  46:src/consoleUtil.cpp **** 
  47:src/consoleUtil.cpp ****     return c;
 264              		.loc 1 47 5 is_stmt 1
 265              	.LVL16:
 266              	.L15:
  48:src/consoleUtil.cpp **** }
 267              		.loc 1 48 1 is_stmt 0
 268 01a4 83308101 		ld	ra,24(sp)
 269              		.cfi_remember_state
 270              		.cfi_restore 1
 271 01a8 03340101 		ld	s0,16(sp)
 272              		.cfi_restore 8
 273              		.cfi_def_cfa 2, 32
 274 01ac 83348100 		ld	s1,8(sp)
 275              		.cfi_restore 9
 276 01b0 13010102 		addi	sp,sp,32
 277              		.cfi_def_cfa_offset 0
 278 01b4 67800000 		jr	ra
 279              	.L16:
 280              		.cfi_restore_state
GAS LISTING /tmp/cch6g7Dm.s 			page 7


  42:src/consoleUtil.cpp ****     char c = inputBuffer[inputHead];
 281              		.loc 1 42 17
 282 01b8 1305F00F 		li	a0,255
 283 01bc 6FF09FFE 		j	.L15
 284              		.cfi_endproc
 285              	.LFE24:
 287              		.align	2
 288              		.globl	_ZN11ConsoleUtil9putOutputEc
 290              	_ZN11ConsoleUtil9putOutputEc:
 291              	.LFB25:
  49:src/consoleUtil.cpp **** 
  50:src/consoleUtil.cpp **** void ConsoleUtil::putOutput(char c) {
 292              		.loc 1 50 37 is_stmt 1
 293              		.cfi_startproc
 294              	.LVL17:
  51:src/consoleUtil.cpp ****     pendingPutc++;
 295              		.loc 1 51 5
 296              		.loc 1 51 16 is_stmt 0
 297 01c0 97070000 		lla	a5,.LANCHOR0
 297      93870700 
 298 01c8 03B70703 		ld	a4,48(a5)
 299 01cc 13071700 		addi	a4,a4,1
 300 01d0 23B8E702 		sd	a4,48(a5)
  52:src/consoleUtil.cpp **** 
  53:src/consoleUtil.cpp ****     if((outputTail+1)%bufferSize == outputHead)
 301              		.loc 1 53 5 is_stmt 1
 302              		.loc 1 53 19 is_stmt 0
 303 01d4 03B68703 		ld	a2,56(a5)
 304 01d8 13071600 		addi	a4,a2,1
 305              		.loc 1 53 22
 306 01dc B7260000 		li	a3,8192
 307 01e0 9386F6FF 		addi	a3,a3,-1
 308 01e4 3377D700 		and	a4,a4,a3
 309              		.loc 1 53 34
 310 01e8 83B70704 		ld	a5,64(a5)
 311              		.loc 1 53 5
 312 01ec 6304F706 		beq	a4,a5,.L21
  50:src/consoleUtil.cpp ****     pendingPutc++;
 313              		.loc 1 50 37
 314 01f0 130101FF 		addi	sp,sp,-16
 315              		.cfi_def_cfa_offset 16
 316 01f4 23341100 		sd	ra,8(sp)
 317 01f8 23308100 		sd	s0,0(sp)
 318              		.cfi_offset 1, -8
 319              		.cfi_offset 8, -16
 320 01fc 13040101 		addi	s0,sp,16
 321              		.cfi_def_cfa 8, 0
  54:src/consoleUtil.cpp ****         return;
  55:src/consoleUtil.cpp **** 
  56:src/consoleUtil.cpp ****     outputBuffer[outputTail] = c;
 322              		.loc 1 56 5 is_stmt 1
 323              		.loc 1 56 28 is_stmt 0
 324 0200 97070000 		lla	a5,.LANCHOR0
 324      93870700 
 325 0208 03B78701 		ld	a4,24(a5)
 326 020c 3306C700 		add	a2,a4,a2
 327              		.loc 1 56 30
GAS LISTING /tmp/cch6g7Dm.s 			page 8


 328 0210 2300A600 		sb	a0,0(a2)
  57:src/consoleUtil.cpp **** 
  58:src/consoleUtil.cpp ****     outputTail = (outputTail+1)%bufferSize;
 329              		.loc 1 58 5 is_stmt 1
 330              		.loc 1 58 29 is_stmt 0
 331 0214 03B78703 		ld	a4,56(a5)
 332 0218 13071700 		addi	a4,a4,1
 333              		.loc 1 58 32
 334 021c B7260000 		li	a3,8192
 335 0220 9386F6FF 		addi	a3,a3,-1
 336 0224 3377D700 		and	a4,a4,a3
 337              		.loc 1 58 16
 338 0228 23BCE702 		sd	a4,56(a5)
  59:src/consoleUtil.cpp **** 
  60:src/consoleUtil.cpp ****     pendingPutc--;
 339              		.loc 1 60 5 is_stmt 1
 340              		.loc 1 60 16 is_stmt 0
 341 022c 03B70703 		ld	a4,48(a5)
 342 0230 1307F7FF 		addi	a4,a4,-1
 343 0234 23B8E702 		sd	a4,48(a5)
  61:src/consoleUtil.cpp **** 
  62:src/consoleUtil.cpp ****     outputSem->signal();
 344              		.loc 1 62 5 is_stmt 1
 345              		.loc 1 62 22 is_stmt 0
 346 0238 03B58700 		ld	a0,8(a5)
 347              	.LVL18:
 348 023c 97000000 		call	_ZN3SCB6signalEv@plt
 348      E7800000 
 349              	.LVL19:
  63:src/consoleUtil.cpp **** }
 350              		.loc 1 63 1
 351 0244 83308100 		ld	ra,8(sp)
 352              		.cfi_restore 1
 353 0248 03340100 		ld	s0,0(sp)
 354              		.cfi_restore 8
 355              		.cfi_def_cfa 2, 16
 356 024c 13010101 		addi	sp,sp,16
 357              		.cfi_def_cfa_offset 0
 358 0250 67800000 		jr	ra
 359              	.LVL20:
 360              	.L21:
 361 0254 67800000 		ret
 362              		.cfi_endproc
 363              	.LFE25:
 365              		.align	2
 366              		.globl	_ZN11ConsoleUtil9getOutputEv
 368              	_ZN11ConsoleUtil9getOutputEv:
 369              	.LFB26:
  64:src/consoleUtil.cpp **** 
  65:src/consoleUtil.cpp **** char ConsoleUtil::getOutput() {
 370              		.loc 1 65 31 is_stmt 1
 371              		.cfi_startproc
 372 0258 130101FE 		addi	sp,sp,-32
 373              		.cfi_def_cfa_offset 32
 374 025c 233C1100 		sd	ra,24(sp)
 375 0260 23388100 		sd	s0,16(sp)
 376 0264 23349100 		sd	s1,8(sp)
GAS LISTING /tmp/cch6g7Dm.s 			page 9


 377              		.cfi_offset 1, -8
 378              		.cfi_offset 8, -16
 379              		.cfi_offset 9, -24
 380 0268 13040102 		addi	s0,sp,32
 381              		.cfi_def_cfa 8, 0
  66:src/consoleUtil.cpp ****     outputSem->wait();
 382              		.loc 1 66 5
 383              		.loc 1 66 20 is_stmt 0
 384 026c 97040000 		lla	s1,.LANCHOR0
 384      93840400 
 385 0274 03B58400 		ld	a0,8(s1)
 386 0278 97000000 		call	_ZN3SCB4waitEv@plt
 386      E7800000 
 387              	.LVL21:
  67:src/consoleUtil.cpp ****     if(outputHead == outputTail)
 388              		.loc 1 67 5 is_stmt 1
 389              		.loc 1 67 19 is_stmt 0
 390 0280 83B70404 		ld	a5,64(s1)
 391 0284 03B78403 		ld	a4,56(s1)
 392              		.loc 1 67 5
 393 0288 638CE702 		beq	a5,a4,.L26
  68:src/consoleUtil.cpp ****         return -1;
  69:src/consoleUtil.cpp **** 
  70:src/consoleUtil.cpp ****     char c = outputBuffer[outputHead];
 394              		.loc 1 70 5 is_stmt 1
 395              		.loc 1 70 37 is_stmt 0
 396 028c 03B78401 		ld	a4,24(s1)
 397 0290 3307F700 		add	a4,a4,a5
 398              		.loc 1 70 10
 399 0294 03450700 		lbu	a0,0(a4)
 400              	.LVL22:
  71:src/consoleUtil.cpp **** 
  72:src/consoleUtil.cpp ****     outputHead = (outputHead+1)%bufferSize;
 401              		.loc 1 72 5 is_stmt 1
 402              		.loc 1 72 29 is_stmt 0
 403 0298 93871700 		addi	a5,a5,1
 404              		.loc 1 72 32
 405 029c 37270000 		li	a4,8192
 406 02a0 1307F7FF 		addi	a4,a4,-1
 407 02a4 B3F7E700 		and	a5,a5,a4
 408              		.loc 1 72 16
 409 02a8 23B0F404 		sd	a5,64(s1)
  73:src/consoleUtil.cpp **** 
  74:src/consoleUtil.cpp ****     return c;
 410              		.loc 1 74 5 is_stmt 1
 411              	.LVL23:
 412              	.L25:
  75:src/consoleUtil.cpp **** }
 413              		.loc 1 75 1 is_stmt 0
 414 02ac 83308101 		ld	ra,24(sp)
 415              		.cfi_remember_state
 416              		.cfi_restore 1
 417 02b0 03340101 		ld	s0,16(sp)
 418              		.cfi_restore 8
 419              		.cfi_def_cfa 2, 32
 420 02b4 83348100 		ld	s1,8(sp)
 421              		.cfi_restore 9
GAS LISTING /tmp/cch6g7Dm.s 			page 10


 422 02b8 13010102 		addi	sp,sp,32
 423              		.cfi_def_cfa_offset 0
 424 02bc 67800000 		jr	ra
 425              	.L26:
 426              		.cfi_restore_state
  68:src/consoleUtil.cpp **** 
 427              		.loc 1 68 17
 428 02c0 1305F00F 		li	a0,255
 429 02c4 6FF09FFE 		j	.L25
 430              		.cfi_endproc
 431              	.LFE26:
 433              		.align	2
 434              		.globl	_ZN11ConsoleUtil11printStringEPKc
 436              	_ZN11ConsoleUtil11printStringEPKc:
 437              	.LFB27:
  76:src/consoleUtil.cpp **** 
  77:src/consoleUtil.cpp **** void ConsoleUtil::printString(const char *string) {
 438              		.loc 1 77 51 is_stmt 1
 439              		.cfi_startproc
 440              	.LVL24:
 441 02c8 130101FE 		addi	sp,sp,-32
 442              		.cfi_def_cfa_offset 32
 443 02cc 233C1100 		sd	ra,24(sp)
 444 02d0 23388100 		sd	s0,16(sp)
 445 02d4 23349100 		sd	s1,8(sp)
 446              		.cfi_offset 1, -8
 447              		.cfi_offset 8, -16
 448              		.cfi_offset 9, -24
 449 02d8 13040102 		addi	s0,sp,32
 450              		.cfi_def_cfa 8, 0
 451 02dc 93040500 		mv	s1,a0
 452              	.LVL25:
 453              	.L30:
  78:src/consoleUtil.cpp ****     while (*string != '\0')
 454              		.loc 1 78 5
 455              		.loc 1 78 20
 456              		.loc 1 78 12 is_stmt 0
 457 02e0 03C50400 		lbu	a0,0(s1)
 458              		.loc 1 78 20
 459 02e4 630A0500 		beqz	a0,.L28
  79:src/consoleUtil.cpp ****     {
  80:src/consoleUtil.cpp ****         ConsoleUtil::putOutput(*string);
 460              		.loc 1 80 9 is_stmt 1
 461              		.loc 1 80 31 is_stmt 0
 462 02e8 97000000 		call	_ZN11ConsoleUtil9putOutputEc
 462      E7800000 
 463              	.LVL26:
  81:src/consoleUtil.cpp ****         string++;
 464              		.loc 1 81 9 is_stmt 1
 465              		.loc 1 81 15 is_stmt 0
 466 02f0 93841400 		addi	s1,s1,1
 467              	.LVL27:
  78:src/consoleUtil.cpp ****     while (*string != '\0')
 468              		.loc 1 78 5
 469 02f4 6FF0DFFE 		j	.L30
 470              	.L28:
  82:src/consoleUtil.cpp ****     }
GAS LISTING /tmp/cch6g7Dm.s 			page 11


  83:src/consoleUtil.cpp **** }
 471              		.loc 1 83 1
 472 02f8 83308101 		ld	ra,24(sp)
 473              		.cfi_restore 1
 474 02fc 03340101 		ld	s0,16(sp)
 475              		.cfi_restore 8
 476              		.cfi_def_cfa 2, 32
 477 0300 83348100 		ld	s1,8(sp)
 478              		.cfi_restore 9
 479              	.LVL28:
 480 0304 13010102 		addi	sp,sp,32
 481              		.cfi_def_cfa_offset 0
 482 0308 67800000 		jr	ra
 483              		.cfi_endproc
 484              	.LFE27:
 486              		.section	.rodata.str1.8,"aMS",@progbits,1
 487              		.align	3
 488              	.LC0:
 489 0000 30313233 		.string	"0123456789ABCDEF"
 489      34353637 
 489      38394142 
 489      43444546 
 489      00
 490              		.text
 491              		.align	2
 492              		.globl	_ZN11ConsoleUtil8printIntEiii
 494              	_ZN11ConsoleUtil8printIntEiii:
 495              	.LFB28:
  84:src/consoleUtil.cpp **** 
  85:src/consoleUtil.cpp **** void ConsoleUtil::printInt(int xx, int base, int sgn)
  86:src/consoleUtil.cpp **** {
 496              		.loc 1 86 1 is_stmt 1
 497              		.cfi_startproc
 498              	.LVL29:
 499 030c 130101FB 		addi	sp,sp,-80
 500              		.cfi_def_cfa_offset 80
 501 0310 23341104 		sd	ra,72(sp)
 502 0314 23308104 		sd	s0,64(sp)
 503 0318 233C9102 		sd	s1,56(sp)
 504              		.cfi_offset 1, -8
 505              		.cfi_offset 8, -16
 506              		.cfi_offset 9, -24
 507 031c 13040105 		addi	s0,sp,80
 508              		.cfi_def_cfa 8, 0
  87:src/consoleUtil.cpp ****     char digits[] = "0123456789ABCDEF";
 509              		.loc 1 87 5
 510              		.loc 1 87 10 is_stmt 0
 511 0320 97070000 		lla	a5,.LC0
 511      93870700 
 512 0328 03B70700 		ld	a4,0(a5)
 513 032c 2334E4FC 		sd	a4,-56(s0)
 514 0330 03B78700 		ld	a4,8(a5)
 515 0334 2338E4FC 		sd	a4,-48(s0)
 516 0338 83C70701 		lbu	a5,16(a5)
 517 033c 230CF4FC 		sb	a5,-40(s0)
  88:src/consoleUtil.cpp ****     char buf[16];
 518              		.loc 1 88 5 is_stmt 1
GAS LISTING /tmp/cch6g7Dm.s 			page 12


  89:src/consoleUtil.cpp ****     int i, neg;
 519              		.loc 1 89 5
  90:src/consoleUtil.cpp ****     uint x;
 520              		.loc 1 90 5
  91:src/consoleUtil.cpp **** 
  92:src/consoleUtil.cpp ****     neg = 0;
 521              		.loc 1 92 5
 522              	.LVL30:
  93:src/consoleUtil.cpp ****     if(sgn && xx < 0){
 523              		.loc 1 93 5
 524 0340 63040600 		beqz	a2,.L33
 525              		.loc 1 93 12 is_stmt 0 discriminator 1
 526 0344 63420508 		bltz	a0,.L40
 527              	.L33:
  94:src/consoleUtil.cpp ****         neg = 1;
  95:src/consoleUtil.cpp ****         x = -xx;
  96:src/consoleUtil.cpp ****     } else {
  97:src/consoleUtil.cpp ****         x = xx;
 528              		.loc 1 97 9 is_stmt 1
 529              		.loc 1 97 11 is_stmt 0
 530 0348 1B050500 		sext.w	a0,a0
 531              	.LVL31:
  92:src/consoleUtil.cpp ****     if(sgn && xx < 0){
 532              		.loc 1 92 9
 533 034c 13080000 		li	a6,0
 534              	.LVL32:
 535              	.L34:
  98:src/consoleUtil.cpp ****     }
  99:src/consoleUtil.cpp **** 
 100:src/consoleUtil.cpp ****     i = 0;
 536              		.loc 1 100 5 is_stmt 1
 537              		.loc 1 100 7 is_stmt 0
 538 0350 93040000 		li	s1,0
 539              	.LVL33:
 540              	.L35:
 101:src/consoleUtil.cpp ****     do{
 541              		.loc 1 101 5 is_stmt 1
 102:src/consoleUtil.cpp ****         buf[i++] = digits[x % base];
 542              		.loc 1 102 9
 543              		.loc 1 102 31 is_stmt 0
 544 0354 1B870500 		sext.w	a4,a1
 545              		.loc 1 102 29
 546 0358 BB77B502 		remuw	a5,a0,a1
 547 035c 93860400 		mv	a3,s1
 548              		.loc 1 102 14
 549 0360 9B841400 		addiw	s1,s1,1
 550              	.LVL34:
 551              		.loc 1 102 35
 552 0364 93970702 		slli	a5,a5,32
 553 0368 93D70702 		srli	a5,a5,32
 554 036c 130604FE 		addi	a2,s0,-32
 555 0370 B307F600 		add	a5,a2,a5
 556 0374 03C687FE 		lbu	a2,-24(a5)
 557              		.loc 1 102 18
 558 0378 930704FE 		addi	a5,s0,-32
 559 037c B387D700 		add	a5,a5,a3
 560 0380 238CC7FC 		sb	a2,-40(a5)
GAS LISTING /tmp/cch6g7Dm.s 			page 13


 103:src/consoleUtil.cpp ****     }while((x /= base) != 0);
 561              		.loc 1 103 24 is_stmt 1
 562 0384 1B060500 		sext.w	a2,a0
 563              		.loc 1 103 15 is_stmt 0
 564 0388 3B55B502 		divuw	a0,a0,a1
 565              	.LVL35:
 566              		.loc 1 103 24
 567 038c E374E6FC 		bleu	a4,a2,.L35
 104:src/consoleUtil.cpp ****     if(neg)
 568              		.loc 1 104 5 is_stmt 1
 569 0390 630C0800 		beqz	a6,.L38
 105:src/consoleUtil.cpp ****         buf[i++] = '-';
 570              		.loc 1 105 9
 571              	.LVL36:
 572              		.loc 1 105 18 is_stmt 0
 573 0394 930704FE 		addi	a5,s0,-32
 574 0398 B3849700 		add	s1,a5,s1
 575 039c 9307D002 		li	a5,45
 576 03a0 238CF4FC 		sb	a5,-40(s1)
 577              		.loc 1 105 14
 578 03a4 9B842600 		addiw	s1,a3,2
 579              	.LVL37:
 580              	.L38:
 106:src/consoleUtil.cpp **** 
 107:src/consoleUtil.cpp ****     while(--i >= 0)
 581              		.loc 1 107 5 is_stmt 1
 582              		.loc 1 107 15
 583 03a8 9B84F4FF 		addiw	s1,s1,-1
 584              	.LVL38:
 585 03ac 63C40402 		bltz	s1,.L32
 108:src/consoleUtil.cpp ****         ConsoleUtil::putOutput(buf[i]);
 586              		.loc 1 108 9
 587              		.loc 1 108 31 is_stmt 0
 588 03b0 930704FE 		addi	a5,s0,-32
 589 03b4 B3879700 		add	a5,a5,s1
 590 03b8 03C587FD 		lbu	a0,-40(a5)
 591 03bc 97000000 		call	_ZN11ConsoleUtil9putOutputEc
 591      E7800000 
 592              	.LVL39:
 593 03c4 6FF05FFE 		j	.L38
 594              	.LVL40:
 595              	.L40:
  94:src/consoleUtil.cpp ****         x = -xx;
 596              		.loc 1 94 9 is_stmt 1
  95:src/consoleUtil.cpp ****     } else {
 597              		.loc 1 95 9
  95:src/consoleUtil.cpp ****     } else {
 598              		.loc 1 95 11 is_stmt 0
 599 03c8 3B05A040 		negw	a0,a0
 600              	.LVL41:
  94:src/consoleUtil.cpp ****         x = -xx;
 601              		.loc 1 94 13
 602 03cc 13081000 		li	a6,1
  95:src/consoleUtil.cpp ****     } else {
 603              		.loc 1 95 11
 604 03d0 6FF01FF8 		j	.L34
 605              	.LVL42:
GAS LISTING /tmp/cch6g7Dm.s 			page 14


 606              	.L32:
 109:src/consoleUtil.cpp **** 
 110:src/consoleUtil.cpp **** }
 607              		.loc 1 110 1
 608 03d4 83308104 		ld	ra,72(sp)
 609              		.cfi_restore 1
 610 03d8 03340104 		ld	s0,64(sp)
 611              		.cfi_restore 8
 612              		.cfi_def_cfa 2, 80
 613 03dc 83348103 		ld	s1,56(sp)
 614              		.cfi_restore 9
 615 03e0 13010105 		addi	sp,sp,80
 616              		.cfi_def_cfa_offset 0
 617 03e4 67800000 		jr	ra
 618              		.cfi_endproc
 619              	.LFE28:
 621              		.align	2
 622              		.globl	_ZN11ConsoleUtil5printEPKciS1_
 624              	_ZN11ConsoleUtil5printEPKciS1_:
 625              	.LFB29:
 111:src/consoleUtil.cpp **** 
 112:src/consoleUtil.cpp **** void ConsoleUtil::print(const char *string, int xx, const char *sep) {
 626              		.loc 1 112 70 is_stmt 1
 627              		.cfi_startproc
 628              	.LVL43:
 629 03e8 130101FE 		addi	sp,sp,-32
 630              		.cfi_def_cfa_offset 32
 631 03ec 233C1100 		sd	ra,24(sp)
 632 03f0 23388100 		sd	s0,16(sp)
 633 03f4 23349100 		sd	s1,8(sp)
 634 03f8 23302101 		sd	s2,0(sp)
 635              		.cfi_offset 1, -8
 636              		.cfi_offset 8, -16
 637              		.cfi_offset 9, -24
 638              		.cfi_offset 18, -32
 639 03fc 13040102 		addi	s0,sp,32
 640              		.cfi_def_cfa 8, 0
 641 0400 13890500 		mv	s2,a1
 642 0404 93040600 		mv	s1,a2
 113:src/consoleUtil.cpp ****     ConsoleUtil::printString(string);
 643              		.loc 1 113 5
 644              		.loc 1 113 29 is_stmt 0
 645 0408 97000000 		call	_ZN11ConsoleUtil11printStringEPKc
 645      E7800000 
 646              	.LVL44:
 114:src/consoleUtil.cpp ****     ConsoleUtil::printInt(xx);
 647              		.loc 1 114 5 is_stmt 1
 648              		.loc 1 114 26 is_stmt 0
 649 0410 13060000 		li	a2,0
 650 0414 9305A000 		li	a1,10
 651 0418 13050900 		mv	a0,s2
 652 041c 97000000 		call	_ZN11ConsoleUtil8printIntEiii
 652      E7800000 
 653              	.LVL45:
 115:src/consoleUtil.cpp ****     ConsoleUtil::printString(sep);
 654              		.loc 1 115 5 is_stmt 1
 655              		.loc 1 115 29 is_stmt 0
GAS LISTING /tmp/cch6g7Dm.s 			page 15


 656 0424 13850400 		mv	a0,s1
 657 0428 97000000 		call	_ZN11ConsoleUtil11printStringEPKc
 657      E7800000 
 658              	.LVL46:
 116:src/consoleUtil.cpp **** }
 659              		.loc 1 116 1
 660 0430 83308101 		ld	ra,24(sp)
 661              		.cfi_restore 1
 662 0434 03340101 		ld	s0,16(sp)
 663              		.cfi_restore 8
 664              		.cfi_def_cfa 2, 32
 665 0438 83348100 		ld	s1,8(sp)
 666              		.cfi_restore 9
 667              	.LVL47:
 668 043c 03390100 		ld	s2,0(sp)
 669              		.cfi_restore 18
 670 0440 13010102 		addi	sp,sp,32
 671              		.cfi_def_cfa_offset 0
 672 0444 67800000 		jr	ra
 673              		.cfi_endproc
 674              	.LFE29:
 676              		.align	2
 677              		.globl	_ZN11ConsoleUtil15putcUtilSyscallEv
 679              	_ZN11ConsoleUtil15putcUtilSyscallEv:
 680              	.LFB30:
 117:src/consoleUtil.cpp **** 
 118:src/consoleUtil.cpp **** char ConsoleUtil::putcUtilSyscall()
 119:src/consoleUtil.cpp **** {
 681              		.loc 1 119 1 is_stmt 1
 682              		.cfi_startproc
 683 0448 130101FF 		addi	sp,sp,-16
 684              		.cfi_def_cfa_offset 16
 685 044c 23348100 		sd	s0,8(sp)
 686              		.cfi_offset 8, -8
 687 0450 13040101 		addi	s0,sp,16
 688              		.cfi_def_cfa 8, 0
 120:src/consoleUtil.cpp ****     asm("li a0, 0x43");
 689              		.loc 1 120 5
 690              		.loc 1 120 23 is_stmt 0
 691              	#APP
 692              	# 120 "src/consoleUtil.cpp" 1
 121              	
 122:src/consoleUtil.cpp ****     asm("ecall");
 693              		li a0, 0x43
 694              	# 0 "" 2
 695              		.loc 1 122 5 is_stmt 1
 696              		.loc 1 122 17 is_stmt 0
 697              	# 122 "src/consoleUtil.cpp" 1
 123              	
 124:src/consoleUtil.cpp ****     uint64 status;
 698              		ecall
 699              	# 0 "" 2
 700              		.loc 1 124 5 is_stmt 1
 125:src/consoleUtil.cpp **** 
 126:src/consoleUtil.cpp ****     asm("mv %0, a0" : [status] "=r" (status));
 701              		.loc 1 126 5
 702              		.loc 1 126 46 is_stmt 0
GAS LISTING /tmp/cch6g7Dm.s 			page 16


 703              	# 126 "src/consoleUtil.cpp" 1
 127              	
 704              		mv a0, a0
 705              	# 0 "" 2
 706              	.LVL48:
 128:src/consoleUtil.cpp ****     return (char)status;
 707              		.loc 1 128 5 is_stmt 1
 129:src/consoleUtil.cpp **** }
 708              		.loc 1 129 1 is_stmt 0
 709              	#NO_APP
 710 0460 1375F50F 		andi	a0,a0,0xff
 711              	.LVL49:
 712 0464 03348100 		ld	s0,8(sp)
 713              		.cfi_restore 8
 714              		.cfi_def_cfa 2, 16
 715 0468 13010101 		addi	sp,sp,16
 716              		.cfi_def_cfa_offset 0
 717 046c 67800000 		jr	ra
 718              		.cfi_endproc
 719              	.LFE30:
 721              		.globl	_ZN11ConsoleUtil12outputBufferE
 722              		.globl	_ZN11ConsoleUtil11inputBufferE
 723              		.globl	_ZN11ConsoleUtil8inputSemE
 724              		.globl	_ZN11ConsoleUtil9outputSemE
 725              		.globl	_ZN11ConsoleUtil11pendingPutcE
 726              		.globl	_ZN11ConsoleUtil11pendingGetcE
 727              		.globl	_ZN11ConsoleUtil10outputTailE
 728              		.globl	_ZN11ConsoleUtil10outputHeadE
 729              		.globl	_ZN11ConsoleUtil9inputTailE
 730              		.globl	_ZN11ConsoleUtil9inputHeadE
 731              		.bss
 732              		.align	3
 733              		.set	.LANCHOR0,. + 0
 736              	_ZN11ConsoleUtil8inputSemE:
 737 0000 00000000 		.zero	8
 737      00000000 
 740              	_ZN11ConsoleUtil9outputSemE:
 741 0008 00000000 		.zero	8
 741      00000000 
 744              	_ZN11ConsoleUtil11inputBufferE:
 745 0010 00000000 		.zero	8
 745      00000000 
 748              	_ZN11ConsoleUtil12outputBufferE:
 749 0018 00000000 		.zero	8
 749      00000000 
 752              	_ZN11ConsoleUtil9inputTailE:
 753 0020 00000000 		.zero	8
 753      00000000 
 756              	_ZN11ConsoleUtil9inputHeadE:
 757 0028 00000000 		.zero	8
 757      00000000 
 760              	_ZN11ConsoleUtil11pendingPutcE:
 761 0030 00000000 		.zero	8
 761      00000000 
 764              	_ZN11ConsoleUtil10outputTailE:
 765 0038 00000000 		.zero	8
 765      00000000 
GAS LISTING /tmp/cch6g7Dm.s 			page 17


 768              	_ZN11ConsoleUtil10outputHeadE:
 769 0040 00000000 		.zero	8
 769      00000000 
 772              	_ZN11ConsoleUtil11pendingGetcE:
 773 0048 00000000 		.zero	8
 773      00000000 
 774              		.text
 775              	.Letext0:
 776              		.file 2 "src/../h/../lib/hw.h"
 777              		.file 3 "src/../h/consoleUtil.hpp"
 778              		.file 4 "src/../h/scb.hpp"
 779              		.file 5 "src/../h/../h/../h/../h/utility.hpp"
 780              		.file 6 "src/../h/../h/../h/../h/../h/slab_t.hpp"
 781              		.file 7 "src/../h/../h/../h/../h/cache_t.hpp"
 782              		.file 8 "src/../h/tcb.hpp"
 783              		.file 9 "src/../h/../h/slab.hpp"
 3728              		.align	3
 3731              	DW.ref.__gxx_personality_v0:
 3732 0000 00000000 		.dword	__gxx_personality_v0
 3732      00000000 
 3733              		.ident	"GCC: (Ubuntu 9.4.0-1ubuntu1~20.04) 9.4.0"
 3734              		.section	.note.GNU-stack,"",@progbits
GAS LISTING /tmp/cch6g7Dm.s 			page 18


DEFINED SYMBOLS
                            *ABS*:0000000000000000 consoleUtil.cpp
     /tmp/cch6g7Dm.s:9      .text:0000000000000000 _ZN11ConsoleUtil10initializeEv
     /tmp/cch6g7Dm.s:13     .text:0000000000000000 .L0 
     /tmp/cch6g7Dm.s:3731   .data.rel.local.DW.ref.__gxx_personality_v0:0000000000000000 DW.ref.__gxx_personality_v0
     /tmp/cch6g7Dm.s:16     .text:0000000000000000 .L0 
     /tmp/cch6g7Dm.s:17     .text:0000000000000004 .L0 
     /tmp/cch6g7Dm.s:22     .text:0000000000000014 .L0 
     /tmp/cch6g7Dm.s:23     .text:0000000000000014 .L0 
     /tmp/cch6g7Dm.s:24     .text:0000000000000014 .L0 
     /tmp/cch6g7Dm.s:25     .text:0000000000000014 .L0 
     /tmp/cch6g7Dm.s:27     .text:0000000000000018 .L0 
     /tmp/cch6g7Dm.s:29     .text:0000000000000018 .L0 
     /tmp/cch6g7Dm.s:30     .text:0000000000000018 .L0 
     /tmp/cch6g7Dm.s:42     .text:0000000000000034 .L0 
     /tmp/cch6g7Dm.s:44     .text:000000000000003c .L0 
     /tmp/cch6g7Dm.s:45     .text:000000000000003c .L0 
     /tmp/cch6g7Dm.s:57     .text:0000000000000058 .L0 
     /tmp/cch6g7Dm.s:60     .text:0000000000000064 .L0 
     /tmp/cch6g7Dm.s:61     .text:0000000000000064 .L0 
     /tmp/cch6g7Dm.s:66     .text:0000000000000070 .L0 
     /tmp/cch6g7Dm.s:68     .text:0000000000000074 .L0 
     /tmp/cch6g7Dm.s:69     .text:0000000000000074 .L0 
     /tmp/cch6g7Dm.s:74     .text:0000000000000080 .L0 
     /tmp/cch6g7Dm.s:76     .text:0000000000000084 .L0 
     /tmp/cch6g7Dm.s:77     .text:0000000000000088 .L0 
     /tmp/cch6g7Dm.s:78     .text:0000000000000088 .L0 
     /tmp/cch6g7Dm.s:80     .text:000000000000008c .L0 
     /tmp/cch6g7Dm.s:81     .text:000000000000008c .L0 
     /tmp/cch6g7Dm.s:83     .text:0000000000000090 .L0 
     /tmp/cch6g7Dm.s:85     .text:0000000000000094 .L0 
     /tmp/cch6g7Dm.s:87     .text:0000000000000098 .L0 
     /tmp/cch6g7Dm.s:90     .text:000000000000009c .L0 
     /tmp/cch6g7Dm.s:93     .text:00000000000000a0 .L0 
     /tmp/cch6g7Dm.s:104    .text:00000000000000bc .L0 
     /tmp/cch6g7Dm.s:112    .text:00000000000000d4 .L0 
     /tmp/cch6g7Dm.s:154    .text:00000000000000d4 _ZN11ConsoleUtil8putInputEc
     /tmp/cch6g7Dm.s:157    .text:00000000000000d4 .L0 
     /tmp/cch6g7Dm.s:159    .text:00000000000000d4 .L0 
     /tmp/cch6g7Dm.s:160    .text:00000000000000d4 .L0 
     /tmp/cch6g7Dm.s:161    .text:00000000000000d4 .L0 
     /tmp/cch6g7Dm.s:165    .text:00000000000000e4 .L0 
     /tmp/cch6g7Dm.s:169    .text:00000000000000f0 .L0 
     /tmp/cch6g7Dm.s:171    .text:00000000000000f4 .L0 
     /tmp/cch6g7Dm.s:173    .text:00000000000000f8 .L0 
     /tmp/cch6g7Dm.s:174    .text:00000000000000fc .L0 
     /tmp/cch6g7Dm.s:177    .text:0000000000000104 .L0 
     /tmp/cch6g7Dm.s:178    .text:0000000000000104 .L0 
     /tmp/cch6g7Dm.s:180    .text:0000000000000108 .L0 
     /tmp/cch6g7Dm.s:182    .text:0000000000000108 .L0 
     /tmp/cch6g7Dm.s:183    .text:0000000000000108 .L0 
     /tmp/cch6g7Dm.s:187    .text:0000000000000114 .L0 
     /tmp/cch6g7Dm.s:189    .text:0000000000000118 .L0 
     /tmp/cch6g7Dm.s:190    .text:0000000000000118 .L0 
     /tmp/cch6g7Dm.s:193    .text:0000000000000120 .L0 
     /tmp/cch6g7Dm.s:197    .text:000000000000012c .L0 
     /tmp/cch6g7Dm.s:199    .text:0000000000000130 .L0 
GAS LISTING /tmp/cch6g7Dm.s 			page 19


     /tmp/cch6g7Dm.s:200    .text:0000000000000130 .L0 
     /tmp/cch6g7Dm.s:205    .text:000000000000013c .L0 
     /tmp/cch6g7Dm.s:206    .text:0000000000000140 .L0 
     /tmp/cch6g7Dm.s:208    .text:0000000000000144 .L0 
     /tmp/cch6g7Dm.s:209    .text:0000000000000144 .L0 
     /tmp/cch6g7Dm.s:211    .text:0000000000000148 .L0 
     /tmp/cch6g7Dm.s:216    .text:0000000000000150 .L0 
     /tmp/cch6g7Dm.s:222    .text:0000000000000150 _ZN11ConsoleUtil8getInputEv
     /tmp/cch6g7Dm.s:225    .text:0000000000000150 .L0 
     /tmp/cch6g7Dm.s:226    .text:0000000000000150 .L0 
     /tmp/cch6g7Dm.s:227    .text:0000000000000154 .L0 
     /tmp/cch6g7Dm.s:231    .text:0000000000000160 .L0 
     /tmp/cch6g7Dm.s:232    .text:0000000000000160 .L0 
     /tmp/cch6g7Dm.s:233    .text:0000000000000160 .L0 
     /tmp/cch6g7Dm.s:235    .text:0000000000000164 .L0 
     /tmp/cch6g7Dm.s:237    .text:0000000000000164 .L0 
     /tmp/cch6g7Dm.s:238    .text:0000000000000164 .L0 
     /tmp/cch6g7Dm.s:243    .text:0000000000000178 .L0 
     /tmp/cch6g7Dm.s:244    .text:0000000000000178 .L0 
     /tmp/cch6g7Dm.s:247    .text:0000000000000180 .L0 
     /tmp/cch6g7Dm.s:249    .text:0000000000000184 .L0 
     /tmp/cch6g7Dm.s:250    .text:0000000000000184 .L0 
     /tmp/cch6g7Dm.s:253    .text:000000000000018c .L0 
     /tmp/cch6g7Dm.s:256    .text:0000000000000190 .L0 
     /tmp/cch6g7Dm.s:257    .text:0000000000000190 .L0 
     /tmp/cch6g7Dm.s:259    .text:0000000000000194 .L0 
     /tmp/cch6g7Dm.s:263    .text:00000000000001a0 .L0 
     /tmp/cch6g7Dm.s:267    .text:00000000000001a4 .L0 
     /tmp/cch6g7Dm.s:268    .text:00000000000001a4 .L0 
     /tmp/cch6g7Dm.s:269    .text:00000000000001a8 .L0 
     /tmp/cch6g7Dm.s:270    .text:00000000000001a8 .L0 
     /tmp/cch6g7Dm.s:272    .text:00000000000001ac .L0 
     /tmp/cch6g7Dm.s:273    .text:00000000000001ac .L0 
     /tmp/cch6g7Dm.s:275    .text:00000000000001b0 .L0 
     /tmp/cch6g7Dm.s:277    .text:00000000000001b4 .L0 
     /tmp/cch6g7Dm.s:280    .text:00000000000001b8 .L0 
     /tmp/cch6g7Dm.s:282    .text:00000000000001b8 .L0 
     /tmp/cch6g7Dm.s:284    .text:00000000000001c0 .L0 
     /tmp/cch6g7Dm.s:290    .text:00000000000001c0 _ZN11ConsoleUtil9putOutputEc
     /tmp/cch6g7Dm.s:293    .text:00000000000001c0 .L0 
     /tmp/cch6g7Dm.s:295    .text:00000000000001c0 .L0 
     /tmp/cch6g7Dm.s:296    .text:00000000000001c0 .L0 
     /tmp/cch6g7Dm.s:297    .text:00000000000001c0 .L0 
     /tmp/cch6g7Dm.s:302    .text:00000000000001d4 .L0 
     /tmp/cch6g7Dm.s:303    .text:00000000000001d4 .L0 
     /tmp/cch6g7Dm.s:306    .text:00000000000001dc .L0 
     /tmp/cch6g7Dm.s:310    .text:00000000000001e8 .L0 
     /tmp/cch6g7Dm.s:312    .text:00000000000001ec .L0 
     /tmp/cch6g7Dm.s:314    .text:00000000000001f0 .L0 
     /tmp/cch6g7Dm.s:315    .text:00000000000001f4 .L0 
     /tmp/cch6g7Dm.s:318    .text:00000000000001fc .L0 
     /tmp/cch6g7Dm.s:319    .text:00000000000001fc .L0 
     /tmp/cch6g7Dm.s:321    .text:0000000000000200 .L0 
     /tmp/cch6g7Dm.s:323    .text:0000000000000200 .L0 
     /tmp/cch6g7Dm.s:324    .text:0000000000000200 .L0 
     /tmp/cch6g7Dm.s:328    .text:0000000000000210 .L0 
     /tmp/cch6g7Dm.s:330    .text:0000000000000214 .L0 
GAS LISTING /tmp/cch6g7Dm.s 			page 20


     /tmp/cch6g7Dm.s:331    .text:0000000000000214 .L0 
     /tmp/cch6g7Dm.s:334    .text:000000000000021c .L0 
     /tmp/cch6g7Dm.s:338    .text:0000000000000228 .L0 
     /tmp/cch6g7Dm.s:340    .text:000000000000022c .L0 
     /tmp/cch6g7Dm.s:341    .text:000000000000022c .L0 
     /tmp/cch6g7Dm.s:345    .text:0000000000000238 .L0 
     /tmp/cch6g7Dm.s:346    .text:0000000000000238 .L0 
     /tmp/cch6g7Dm.s:351    .text:0000000000000244 .L0 
     /tmp/cch6g7Dm.s:352    .text:0000000000000248 .L0 
     /tmp/cch6g7Dm.s:354    .text:000000000000024c .L0 
     /tmp/cch6g7Dm.s:355    .text:000000000000024c .L0 
     /tmp/cch6g7Dm.s:357    .text:0000000000000250 .L0 
     /tmp/cch6g7Dm.s:362    .text:0000000000000258 .L0 
     /tmp/cch6g7Dm.s:368    .text:0000000000000258 _ZN11ConsoleUtil9getOutputEv
     /tmp/cch6g7Dm.s:371    .text:0000000000000258 .L0 
     /tmp/cch6g7Dm.s:372    .text:0000000000000258 .L0 
     /tmp/cch6g7Dm.s:373    .text:000000000000025c .L0 
     /tmp/cch6g7Dm.s:377    .text:0000000000000268 .L0 
     /tmp/cch6g7Dm.s:378    .text:0000000000000268 .L0 
     /tmp/cch6g7Dm.s:379    .text:0000000000000268 .L0 
     /tmp/cch6g7Dm.s:381    .text:000000000000026c .L0 
     /tmp/cch6g7Dm.s:383    .text:000000000000026c .L0 
     /tmp/cch6g7Dm.s:384    .text:000000000000026c .L0 
     /tmp/cch6g7Dm.s:389    .text:0000000000000280 .L0 
     /tmp/cch6g7Dm.s:390    .text:0000000000000280 .L0 
     /tmp/cch6g7Dm.s:393    .text:0000000000000288 .L0 
     /tmp/cch6g7Dm.s:395    .text:000000000000028c .L0 
     /tmp/cch6g7Dm.s:396    .text:000000000000028c .L0 
     /tmp/cch6g7Dm.s:399    .text:0000000000000294 .L0 
     /tmp/cch6g7Dm.s:402    .text:0000000000000298 .L0 
     /tmp/cch6g7Dm.s:403    .text:0000000000000298 .L0 
     /tmp/cch6g7Dm.s:405    .text:000000000000029c .L0 
     /tmp/cch6g7Dm.s:409    .text:00000000000002a8 .L0 
     /tmp/cch6g7Dm.s:413    .text:00000000000002ac .L0 
     /tmp/cch6g7Dm.s:414    .text:00000000000002ac .L0 
     /tmp/cch6g7Dm.s:415    .text:00000000000002b0 .L0 
     /tmp/cch6g7Dm.s:416    .text:00000000000002b0 .L0 
     /tmp/cch6g7Dm.s:418    .text:00000000000002b4 .L0 
     /tmp/cch6g7Dm.s:419    .text:00000000000002b4 .L0 
     /tmp/cch6g7Dm.s:421    .text:00000000000002b8 .L0 
     /tmp/cch6g7Dm.s:423    .text:00000000000002bc .L0 
     /tmp/cch6g7Dm.s:426    .text:00000000000002c0 .L0 
     /tmp/cch6g7Dm.s:428    .text:00000000000002c0 .L0 
     /tmp/cch6g7Dm.s:430    .text:00000000000002c8 .L0 
     /tmp/cch6g7Dm.s:436    .text:00000000000002c8 _ZN11ConsoleUtil11printStringEPKc
     /tmp/cch6g7Dm.s:439    .text:00000000000002c8 .L0 
     /tmp/cch6g7Dm.s:441    .text:00000000000002c8 .L0 
     /tmp/cch6g7Dm.s:442    .text:00000000000002cc .L0 
     /tmp/cch6g7Dm.s:446    .text:00000000000002d8 .L0 
     /tmp/cch6g7Dm.s:447    .text:00000000000002d8 .L0 
     /tmp/cch6g7Dm.s:448    .text:00000000000002d8 .L0 
     /tmp/cch6g7Dm.s:450    .text:00000000000002dc .L0 
     /tmp/cch6g7Dm.s:455    .text:00000000000002e0 .L0 
     /tmp/cch6g7Dm.s:456    .text:00000000000002e0 .L0 
     /tmp/cch6g7Dm.s:457    .text:00000000000002e0 .L0 
     /tmp/cch6g7Dm.s:459    .text:00000000000002e4 .L0 
     /tmp/cch6g7Dm.s:461    .text:00000000000002e8 .L0 
GAS LISTING /tmp/cch6g7Dm.s 			page 21


     /tmp/cch6g7Dm.s:462    .text:00000000000002e8 .L0 
     /tmp/cch6g7Dm.s:465    .text:00000000000002f0 .L0 
     /tmp/cch6g7Dm.s:466    .text:00000000000002f0 .L0 
     /tmp/cch6g7Dm.s:469    .text:00000000000002f4 .L0 
     /tmp/cch6g7Dm.s:472    .text:00000000000002f8 .L0 
     /tmp/cch6g7Dm.s:473    .text:00000000000002fc .L0 
     /tmp/cch6g7Dm.s:475    .text:0000000000000300 .L0 
     /tmp/cch6g7Dm.s:476    .text:0000000000000300 .L0 
     /tmp/cch6g7Dm.s:478    .text:0000000000000304 .L0 
     /tmp/cch6g7Dm.s:481    .text:0000000000000308 .L0 
     /tmp/cch6g7Dm.s:483    .text:000000000000030c .L0 
     /tmp/cch6g7Dm.s:494    .text:000000000000030c _ZN11ConsoleUtil8printIntEiii
     /tmp/cch6g7Dm.s:497    .text:000000000000030c .L0 
     /tmp/cch6g7Dm.s:499    .text:000000000000030c .L0 
     /tmp/cch6g7Dm.s:500    .text:0000000000000310 .L0 
     /tmp/cch6g7Dm.s:504    .text:000000000000031c .L0 
     /tmp/cch6g7Dm.s:505    .text:000000000000031c .L0 
     /tmp/cch6g7Dm.s:506    .text:000000000000031c .L0 
     /tmp/cch6g7Dm.s:508    .text:0000000000000320 .L0 
     /tmp/cch6g7Dm.s:510    .text:0000000000000320 .L0 
     /tmp/cch6g7Dm.s:511    .text:0000000000000320 .L0 
     /tmp/cch6g7Dm.s:519    .text:0000000000000340 .L0 
     /tmp/cch6g7Dm.s:520    .text:0000000000000340 .L0 
     /tmp/cch6g7Dm.s:521    .text:0000000000000340 .L0 
     /tmp/cch6g7Dm.s:523    .text:0000000000000340 .L0 
     /tmp/cch6g7Dm.s:524    .text:0000000000000340 .L0 
     /tmp/cch6g7Dm.s:526    .text:0000000000000344 .L0 
     /tmp/cch6g7Dm.s:529    .text:0000000000000348 .L0 
     /tmp/cch6g7Dm.s:530    .text:0000000000000348 .L0 
     /tmp/cch6g7Dm.s:533    .text:000000000000034c .L0 
     /tmp/cch6g7Dm.s:537    .text:0000000000000350 .L0 
     /tmp/cch6g7Dm.s:538    .text:0000000000000350 .L0 
     /tmp/cch6g7Dm.s:542    .text:0000000000000354 .L0 
     /tmp/cch6g7Dm.s:543    .text:0000000000000354 .L0 
     /tmp/cch6g7Dm.s:544    .text:0000000000000354 .L0 
     /tmp/cch6g7Dm.s:546    .text:0000000000000358 .L0 
     /tmp/cch6g7Dm.s:549    .text:0000000000000360 .L0 
     /tmp/cch6g7Dm.s:552    .text:0000000000000364 .L0 
     /tmp/cch6g7Dm.s:558    .text:0000000000000378 .L0 
     /tmp/cch6g7Dm.s:562    .text:0000000000000384 .L0 
     /tmp/cch6g7Dm.s:564    .text:0000000000000388 .L0 
     /tmp/cch6g7Dm.s:567    .text:000000000000038c .L0 
     /tmp/cch6g7Dm.s:569    .text:0000000000000390 .L0 
     /tmp/cch6g7Dm.s:572    .text:0000000000000394 .L0 
     /tmp/cch6g7Dm.s:573    .text:0000000000000394 .L0 
     /tmp/cch6g7Dm.s:578    .text:00000000000003a4 .L0 
     /tmp/cch6g7Dm.s:582    .text:00000000000003a8 .L0 
     /tmp/cch6g7Dm.s:583    .text:00000000000003a8 .L0 
     /tmp/cch6g7Dm.s:587    .text:00000000000003b0 .L0 
     /tmp/cch6g7Dm.s:588    .text:00000000000003b0 .L0 
     /tmp/cch6g7Dm.s:597    .text:00000000000003c8 .L0 
     /tmp/cch6g7Dm.s:598    .text:00000000000003c8 .L0 
     /tmp/cch6g7Dm.s:599    .text:00000000000003c8 .L0 
     /tmp/cch6g7Dm.s:602    .text:00000000000003cc .L0 
     /tmp/cch6g7Dm.s:604    .text:00000000000003d0 .L0 
     /tmp/cch6g7Dm.s:608    .text:00000000000003d4 .L0 
     /tmp/cch6g7Dm.s:609    .text:00000000000003d8 .L0 
GAS LISTING /tmp/cch6g7Dm.s 			page 22


     /tmp/cch6g7Dm.s:611    .text:00000000000003dc .L0 
     /tmp/cch6g7Dm.s:612    .text:00000000000003dc .L0 
     /tmp/cch6g7Dm.s:614    .text:00000000000003e0 .L0 
     /tmp/cch6g7Dm.s:616    .text:00000000000003e4 .L0 
     /tmp/cch6g7Dm.s:618    .text:00000000000003e8 .L0 
     /tmp/cch6g7Dm.s:624    .text:00000000000003e8 _ZN11ConsoleUtil5printEPKciS1_
     /tmp/cch6g7Dm.s:627    .text:00000000000003e8 .L0 
     /tmp/cch6g7Dm.s:629    .text:00000000000003e8 .L0 
     /tmp/cch6g7Dm.s:630    .text:00000000000003ec .L0 
     /tmp/cch6g7Dm.s:635    .text:00000000000003fc .L0 
     /tmp/cch6g7Dm.s:636    .text:00000000000003fc .L0 
     /tmp/cch6g7Dm.s:637    .text:00000000000003fc .L0 
     /tmp/cch6g7Dm.s:638    .text:00000000000003fc .L0 
     /tmp/cch6g7Dm.s:640    .text:0000000000000400 .L0 
     /tmp/cch6g7Dm.s:644    .text:0000000000000408 .L0 
     /tmp/cch6g7Dm.s:645    .text:0000000000000408 .L0 
     /tmp/cch6g7Dm.s:648    .text:0000000000000410 .L0 
     /tmp/cch6g7Dm.s:649    .text:0000000000000410 .L0 
     /tmp/cch6g7Dm.s:655    .text:0000000000000424 .L0 
     /tmp/cch6g7Dm.s:656    .text:0000000000000424 .L0 
     /tmp/cch6g7Dm.s:660    .text:0000000000000430 .L0 
     /tmp/cch6g7Dm.s:661    .text:0000000000000434 .L0 
     /tmp/cch6g7Dm.s:663    .text:0000000000000438 .L0 
     /tmp/cch6g7Dm.s:664    .text:0000000000000438 .L0 
     /tmp/cch6g7Dm.s:666    .text:000000000000043c .L0 
     /tmp/cch6g7Dm.s:669    .text:0000000000000440 .L0 
     /tmp/cch6g7Dm.s:671    .text:0000000000000444 .L0 
     /tmp/cch6g7Dm.s:673    .text:0000000000000448 .L0 
     /tmp/cch6g7Dm.s:679    .text:0000000000000448 _ZN11ConsoleUtil15putcUtilSyscallEv
     /tmp/cch6g7Dm.s:682    .text:0000000000000448 .L0 
     /tmp/cch6g7Dm.s:683    .text:0000000000000448 .L0 
     /tmp/cch6g7Dm.s:684    .text:000000000000044c .L0 
     /tmp/cch6g7Dm.s:686    .text:0000000000000450 .L0 
     /tmp/cch6g7Dm.s:688    .text:0000000000000454 .L0 
     /tmp/cch6g7Dm.s:690    .text:0000000000000454 .L0 
 src/consoleUtil.cpp:120    .text:0000000000000454 .L0 
     /tmp/cch6g7Dm.s:696    .text:0000000000000458 .L0 
 src/consoleUtil.cpp:122    .text:0000000000000458 .L0 
     /tmp/cch6g7Dm.s:701    .text:000000000000045c .L0 
     /tmp/cch6g7Dm.s:702    .text:000000000000045c .L0 
 src/consoleUtil.cpp:126    .text:000000000000045c .L0 
     /tmp/cch6g7Dm.s:708    .text:0000000000000460 .L0 
     /tmp/cch6g7Dm.s:710    .text:0000000000000460 .L0 
     /tmp/cch6g7Dm.s:713    .text:0000000000000468 .L0 
     /tmp/cch6g7Dm.s:714    .text:0000000000000468 .L0 
     /tmp/cch6g7Dm.s:716    .text:000000000000046c .L0 
     /tmp/cch6g7Dm.s:718    .text:0000000000000470 .L0 
     /tmp/cch6g7Dm.s:748    .bss:0000000000000018 _ZN11ConsoleUtil12outputBufferE
     /tmp/cch6g7Dm.s:744    .bss:0000000000000010 _ZN11ConsoleUtil11inputBufferE
     /tmp/cch6g7Dm.s:736    .bss:0000000000000000 _ZN11ConsoleUtil8inputSemE
     /tmp/cch6g7Dm.s:740    .bss:0000000000000008 _ZN11ConsoleUtil9outputSemE
     /tmp/cch6g7Dm.s:760    .bss:0000000000000030 _ZN11ConsoleUtil11pendingPutcE
     /tmp/cch6g7Dm.s:772    .bss:0000000000000048 _ZN11ConsoleUtil11pendingGetcE
     /tmp/cch6g7Dm.s:764    .bss:0000000000000038 _ZN11ConsoleUtil10outputTailE
     /tmp/cch6g7Dm.s:768    .bss:0000000000000040 _ZN11ConsoleUtil10outputHeadE
     /tmp/cch6g7Dm.s:752    .bss:0000000000000020 _ZN11ConsoleUtil9inputTailE
     /tmp/cch6g7Dm.s:756    .bss:0000000000000028 _ZN11ConsoleUtil9inputHeadE
GAS LISTING /tmp/cch6g7Dm.s 			page 23


     /tmp/cch6g7Dm.s:733    .bss:0000000000000000 .LANCHOR0
     /tmp/cch6g7Dm.s:784    .text:0000000000000470 .L0 
     /tmp/cch6g7Dm.s:42     .text:0000000000000034 .L0 
     /tmp/cch6g7Dm.s:57     .text:0000000000000058 .L0 
     /tmp/cch6g7Dm.s:161    .text:00000000000000d4 .L0 
     /tmp/cch6g7Dm.s:238    .text:0000000000000164 .L0 
     /tmp/cch6g7Dm.s:297    .text:00000000000001c0 .L0 
     /tmp/cch6g7Dm.s:324    .text:0000000000000200 .L0 
     /tmp/cch6g7Dm.s:384    .text:000000000000026c .L0 
     /tmp/cch6g7Dm.s:488    .rodata.str1.8:0000000000000000 .LC0
     /tmp/cch6g7Dm.s:511    .text:0000000000000320 .L0 
     /tmp/cch6g7Dm.s:214    .text:000000000000014c .L11
     /tmp/cch6g7Dm.s:279    .text:00000000000001b8 .L16
     /tmp/cch6g7Dm.s:266    .text:00000000000001a4 .L15
     /tmp/cch6g7Dm.s:360    .text:0000000000000254 .L21
     /tmp/cch6g7Dm.s:425    .text:00000000000002c0 .L26
     /tmp/cch6g7Dm.s:412    .text:00000000000002ac .L25
     /tmp/cch6g7Dm.s:470    .text:00000000000002f8 .L28
     /tmp/cch6g7Dm.s:453    .text:00000000000002e0 .L30
     /tmp/cch6g7Dm.s:527    .text:0000000000000348 .L33
     /tmp/cch6g7Dm.s:595    .text:00000000000003c8 .L40
     /tmp/cch6g7Dm.s:540    .text:0000000000000354 .L35
     /tmp/cch6g7Dm.s:580    .text:00000000000003a8 .L38
     /tmp/cch6g7Dm.s:606    .text:00000000000003d4 .L32
     /tmp/cch6g7Dm.s:535    .text:0000000000000350 .L34
     /tmp/cch6g7Dm.s:31     .text:000000000000001c .LEHB0
     /tmp/cch6g7Dm.s:10     .text:0000000000000000 .LFB22
     /tmp/cch6g7Dm.s:34     .text:0000000000000024 .LEHE0
     /tmp/cch6g7Dm.s:37     .text:000000000000002c .LEHB1
     /tmp/cch6g7Dm.s:40     .text:0000000000000034 .LEHE1
     /tmp/cch6g7Dm.s:89     .text:000000000000009c .L4
     /tmp/cch6g7Dm.s:46     .text:0000000000000040 .LEHB2
     /tmp/cch6g7Dm.s:49     .text:0000000000000048 .LEHE2
     /tmp/cch6g7Dm.s:52     .text:0000000000000050 .LEHB3
     /tmp/cch6g7Dm.s:55     .text:0000000000000058 .LEHE3
     /tmp/cch6g7Dm.s:101    .text:00000000000000b8 .L5
     /tmp/cch6g7Dm.s:62     .text:0000000000000068 .LEHB4
     /tmp/cch6g7Dm.s:72     .text:0000000000000080 .LEHE4
     /tmp/cch6g7Dm.s:97     .text:00000000000000b0 .LEHB5
     /tmp/cch6g7Dm.s:100    .text:00000000000000b8 .LEHE5
     /tmp/cch6g7Dm.s:108    .text:00000000000000cc .LEHB6
     /tmp/cch6g7Dm.s:111    .text:00000000000000d4 .LEHE6
     /tmp/cch6g7Dm.s:2331   .debug_abbrev:0000000000000000 .Ldebug_abbrev0
     /tmp/cch6g7Dm.s:3639   .debug_str:0000000000000646 .LASF152
     /tmp/cch6g7Dm.s:3627   .debug_str:0000000000000609 .LASF153
     /tmp/cch6g7Dm.s:3425   .debug_str:000000000000009e .LASF154
     /tmp/cch6g7Dm.s:5      .text:0000000000000000 .Ltext0
     /tmp/cch6g7Dm.s:775    .text:0000000000000470 .Letext0
     /tmp/cch6g7Dm.s:3399   .debug_line:0000000000000000 .Ldebug_line0
     /tmp/cch6g7Dm.s:3487   .debug_str:000000000000025b .LASF0
     /tmp/cch6g7Dm.s:3575   .debug_str:00000000000004c6 .LASF3
     /tmp/cch6g7Dm.s:3505   .debug_str:00000000000002d9 .LASF1
     /tmp/cch6g7Dm.s:3587   .debug_str:0000000000000515 .LASF2
     /tmp/cch6g7Dm.s:3591   .debug_str:000000000000052f .LASF4
     /tmp/cch6g7Dm.s:3495   .debug_str:0000000000000282 .LASF5
     /tmp/cch6g7Dm.s:3415   .debug_str:0000000000000070 .LASF6
     /tmp/cch6g7Dm.s:3553   .debug_str:0000000000000423 .LASF7
GAS LISTING /tmp/cch6g7Dm.s 			page 24


     /tmp/cch6g7Dm.s:3501   .debug_str:00000000000002aa .LASF8
     /tmp/cch6g7Dm.s:3473   .debug_str:00000000000001f3 .LASF9
     /tmp/cch6g7Dm.s:3479   .debug_str:0000000000000224 .LASF10
     /tmp/cch6g7Dm.s:3433   .debug_str:00000000000000ee .LASF11
     /tmp/cch6g7Dm.s:3469   .debug_str:00000000000001dc .LASF12
     /tmp/cch6g7Dm.s:3445   .debug_str:000000000000014f .LASF13
     /tmp/cch6g7Dm.s:3431   .debug_str:00000000000000de .LASF14
     /tmp/cch6g7Dm.s:3615   .debug_str:00000000000005b5 .LASF15
     /tmp/cch6g7Dm.s:3465   .debug_str:00000000000001b9 .LASF16
     /tmp/cch6g7Dm.s:3607   .debug_str:000000000000057c .LASF17
     /tmp/cch6g7Dm.s:3641   .debug_str:000000000000070a .LASF44
     /tmp/cch6g7Dm.s:3529   .debug_str:0000000000000376 .LASF18
     /tmp/cch6g7Dm.s:3565   .debug_str:000000000000047e .LASF19
     /tmp/cch6g7Dm.s:3703   .debug_str:00000000000008e6 .LASF20
     /tmp/cch6g7Dm.s:3451   .debug_str:0000000000000179 .LASF21
     /tmp/cch6g7Dm.s:3635   .debug_str:0000000000000633 .LASF155
     /tmp/cch6g7Dm.s:3675   .debug_str:0000000000000806 .LASF22
     /tmp/cch6g7Dm.s:3691   .debug_str:0000000000000886 .LASF23
     /tmp/cch6g7Dm.s:3489   .debug_str:0000000000000268 .LASF24
     /tmp/cch6g7Dm.s:3569   .debug_str:00000000000004a6 .LASF25
     /tmp/cch6g7Dm.s:3507   .debug_str:00000000000002ec .LASF26
     /tmp/cch6g7Dm.s:3679   .debug_str:0000000000000818 .LASF27
     /tmp/cch6g7Dm.s:3579   .debug_str:00000000000004da .LASF28
     /tmp/cch6g7Dm.s:3663   .debug_str:0000000000000796 .LASF30
     /tmp/cch6g7Dm.s:3537   .debug_str:00000000000003c0 .LASF32
     /tmp/cch6g7Dm.s:3621   .debug_str:00000000000005de .LASF34
     /tmp/cch6g7Dm.s:3573   .debug_str:00000000000004bc .LASF29
     /tmp/cch6g7Dm.s:3581   .debug_str:00000000000004e3 .LASF31
     /tmp/cch6g7Dm.s:3647   .debug_str:0000000000000725 .LASF33
     /tmp/cch6g7Dm.s:3719   .debug_str:000000000000093d .LASF35
     /tmp/cch6g7Dm.s:3603   .debug_str:0000000000000568 .LASF60
     /tmp/cch6g7Dm.s:3685   .debug_str:0000000000000841 .LASF61
     /tmp/cch6g7Dm.s:3619   .debug_str:00000000000005ce .LASF36
     /tmp/cch6g7Dm.s:3723   .debug_str:0000000000000967 .LASF37
     /tmp/cch6g7Dm.s:3555   .debug_str:0000000000000436 .LASF38
     /tmp/cch6g7Dm.s:3527   .debug_str:0000000000000358 .LASF40
     /tmp/cch6g7Dm.s:3707   .debug_str:0000000000000903 .LASF39
     /tmp/cch6g7Dm.s:3515   .debug_str:0000000000000318 .LASF41
     /tmp/cch6g7Dm.s:3407   .debug_str:0000000000000016 .LASF42
     /tmp/cch6g7Dm.s:3687   .debug_str:0000000000000860 .LASF43
     /tmp/cch6g7Dm.s:3605   .debug_str:0000000000000573 .LASF45
     /tmp/cch6g7Dm.s:3601   .debug_str:000000000000055c .LASF46
     /tmp/cch6g7Dm.s:3449   .debug_str:000000000000016d .LASF47
     /tmp/cch6g7Dm.s:3571   .debug_str:00000000000004b0 .LASF98
     /tmp/cch6g7Dm.s:3667   .debug_str:00000000000007c5 .LASF48
     /tmp/cch6g7Dm.s:3539   .debug_str:00000000000003c9 .LASF49
     /tmp/cch6g7Dm.s:3457   .debug_str:000000000000019a .LASF50
     /tmp/cch6g7Dm.s:3697   .debug_str:00000000000008a8 .LASF51
     /tmp/cch6g7Dm.s:3623   .debug_str:00000000000005fa .LASF52
     /tmp/cch6g7Dm.s:3497   .debug_str:0000000000000294 .LASF53
     /tmp/cch6g7Dm.s:3485   .debug_str:0000000000000255 .LASF54
     /tmp/cch6g7Dm.s:3563   .debug_str:000000000000046e .LASF55
     /tmp/cch6g7Dm.s:3713   .debug_str:0000000000000925 .LASF56
     /tmp/cch6g7Dm.s:3681   .debug_str:0000000000000823 .LASF57
     /tmp/cch6g7Dm.s:3561   .debug_str:000000000000045f .LASF58
     /tmp/cch6g7Dm.s:3439   .debug_str:000000000000011e .LASF59
     /tmp/cch6g7Dm.s:3559   .debug_str:0000000000000449 .LASF62
GAS LISTING /tmp/cch6g7Dm.s 			page 25


     /tmp/cch6g7Dm.s:3721   .debug_str:000000000000095a .LASF63
     /tmp/cch6g7Dm.s:3631   .debug_str:0000000000000622 .LASF64
     /tmp/cch6g7Dm.s:3583   .debug_str:0000000000000500 .LASF107
     /tmp/cch6g7Dm.s:3617   .debug_str:00000000000005c1 .LASF156
     /tmp/cch6g7Dm.s:3629   .debug_str:000000000000061d .LASF65
     /tmp/cch6g7Dm.s:3597   .debug_str:000000000000054c .LASF66
     /tmp/cch6g7Dm.s:3519   .debug_str:000000000000033f .LASF67
     /tmp/cch6g7Dm.s:3467   .debug_str:00000000000001cf .LASF68
     /tmp/cch6g7Dm.s:3677   .debug_str:0000000000000812 .LASF69
     /tmp/cch6g7Dm.s:3499   .debug_str:00000000000002a5 .LASF70
     /tmp/cch6g7Dm.s:3717   .debug_str:0000000000000932 .LASF71
     /tmp/cch6g7Dm.s:3545   .debug_str:00000000000003ec .LASF72
     /tmp/cch6g7Dm.s:3517   .debug_str:000000000000033a .LASF73
     /tmp/cch6g7Dm.s:3585   .debug_str:0000000000000510 .LASF74
     /tmp/cch6g7Dm.s:3669   .debug_str:00000000000007ca .LASF75
     /tmp/cch6g7Dm.s:3551   .debug_str:0000000000000417 .LASF76
     /tmp/cch6g7Dm.s:3475   .debug_str:0000000000000203 .LASF77
     /tmp/cch6g7Dm.s:3525   .debug_str:0000000000000353 .LASF78
     /tmp/cch6g7Dm.s:3609   .debug_str:0000000000000592 .LASF79
     /tmp/cch6g7Dm.s:3651   .debug_str:0000000000000739 .LASF81
     /tmp/cch6g7Dm.s:3463   .debug_str:00000000000001b1 .LASF80
     /tmp/cch6g7Dm.s:3705   .debug_str:00000000000008f0 .LASF82
     /tmp/cch6g7Dm.s:3421   .debug_str:000000000000008e .LASF83
     /tmp/cch6g7Dm.s:3435   .debug_str:00000000000000fd .LASF84
     /tmp/cch6g7Dm.s:3453   .debug_str:0000000000000182 .LASF85
     /tmp/cch6g7Dm.s:3417   .debug_str:0000000000000077 .LASF86
     /tmp/cch6g7Dm.s:3541   .debug_str:00000000000003d5 .LASF87
     /tmp/cch6g7Dm.s:3693   .debug_str:0000000000000893 .LASF88
     /tmp/cch6g7Dm.s:3459   .debug_str:000000000000019f .LASF89
     /tmp/cch6g7Dm.s:3625   .debug_str:0000000000000601 .LASF157
     /tmp/cch6g7Dm.s:3711   .debug_str:000000000000091e .LASF94
     /tmp/cch6g7Dm.s:3599   .debug_str:0000000000000554 .LASF90
     /tmp/cch6g7Dm.s:3429   .debug_str:00000000000000d8 .LASF91
     /tmp/cch6g7Dm.s:3427   .debug_str:00000000000000cf .LASF92
     /tmp/cch6g7Dm.s:3403   .debug_str:0000000000000009 .LASF93
     /tmp/cch6g7Dm.s:3481   .debug_str:0000000000000232 .LASF95
     /tmp/cch6g7Dm.s:3493   .debug_str:000000000000027d .LASF96
     /tmp/cch6g7Dm.s:3491   .debug_str:0000000000000272 .LASF97
     /tmp/cch6g7Dm.s:3441   .debug_str:0000000000000139 .LASF99
     /tmp/cch6g7Dm.s:3611   .debug_str:0000000000000599 .LASF100
     /tmp/cch6g7Dm.s:3613   .debug_str:00000000000005b0 .LASF101
     /tmp/cch6g7Dm.s:3593   .debug_str:0000000000000536 .LASF102
     /tmp/cch6g7Dm.s:3411   .debug_str:0000000000000044 .LASF103
     /tmp/cch6g7Dm.s:3513   .debug_str:0000000000000310 .LASF104
     /tmp/cch6g7Dm.s:3671   .debug_str:00000000000007d4 .LASF105
     /tmp/cch6g7Dm.s:3549   .debug_str:000000000000040b .LASF106
     /tmp/cch6g7Dm.s:3543   .debug_str:00000000000003df .LASF108
     /tmp/cch6g7Dm.s:3661   .debug_str:0000000000000791 .LASF109
     /tmp/cch6g7Dm.s:3577   .debug_str:00000000000004cb .LASF110
     /tmp/cch6g7Dm.s:3455   .debug_str:0000000000000191 .LASF111
     /tmp/cch6g7Dm.s:3665   .debug_str:00000000000007b2 .LASF112
     /tmp/cch6g7Dm.s:3547   .debug_str:00000000000003f5 .LASF113
     /tmp/cch6g7Dm.s:3509   .debug_str:00000000000002f7 .LASF114
     /tmp/cch6g7Dm.s:3699   .debug_str:00000000000008b7 .LASF115
     /tmp/cch6g7Dm.s:3557   .debug_str:000000000000043f .LASF116
     /tmp/cch6g7Dm.s:3443   .debug_str:0000000000000145 .LASF117
     /tmp/cch6g7Dm.s:3447   .debug_str:000000000000015f .LASF118
GAS LISTING /tmp/cch6g7Dm.s 			page 26


     /tmp/cch6g7Dm.s:3409   .debug_str:000000000000001c .LASF119
     /tmp/cch6g7Dm.s:3683   .debug_str:0000000000000835 .LASF120
     /tmp/cch6g7Dm.s:3657   .debug_str:0000000000000771 .LASF121
     /tmp/cch6g7Dm.s:3659   .debug_str:0000000000000789 .LASF122
     /tmp/cch6g7Dm.s:3689   .debug_str:000000000000087f .LASF123
     /tmp/cch6g7Dm.s:3633   .debug_str:000000000000062e .LASF124
     /tmp/cch6g7Dm.s:3405   .debug_str:0000000000000011 .LASF125
     /tmp/cch6g7Dm.s:3715   .debug_str:000000000000092d .LASF126
     /tmp/cch6g7Dm.s:3521   .debug_str:0000000000000344 .LASF127
     /tmp/cch6g7Dm.s:3645   .debug_str:000000000000071b .LASF128
     /tmp/cch6g7Dm.s:3643   .debug_str:0000000000000716 .LASF129
     /tmp/cch6g7Dm.s:3695   .debug_str:00000000000008a0 .LASF130
     /tmp/cch6g7Dm.s:3649   .debug_str:000000000000072f .LASF131
     /tmp/cch6g7Dm.s:3523   .debug_str:000000000000034a .LASF132
     /tmp/cch6g7Dm.s:3401   .debug_str:0000000000000000 .LASF133
     /tmp/cch6g7Dm.s:3423   .debug_str:0000000000000093 .LASF134
     /tmp/cch6g7Dm.s:3637   .debug_str:000000000000063e .LASF135
     /tmp/cch6g7Dm.s:3461   .debug_str:00000000000001a6 .LASF136
     /tmp/cch6g7Dm.s:3595   .debug_str:000000000000053b .LASF137
     /tmp/cch6g7Dm.s:3511   .debug_str:0000000000000307 .LASF138
     /tmp/cch6g7Dm.s:3503   .debug_str:00000000000002bd .LASF139
     /tmp/cch6g7Dm.s:3567   .debug_str:000000000000048a .LASF140
     /tmp/cch6g7Dm.s:3535   .debug_str:00000000000003a2 .LASF141
     /tmp/cch6g7Dm.s:3483   .debug_str:0000000000000237 .LASF142
     /tmp/cch6g7Dm.s:3701   .debug_str:00000000000008c7 .LASF143
     /tmp/cch6g7Dm.s:3655   .debug_str:0000000000000752 .LASF144
     /tmp/cch6g7Dm.s:3437   .debug_str:0000000000000102 .LASF145
     /tmp/cch6g7Dm.s:3531   .debug_str:0000000000000382 .LASF146
     /tmp/cch6g7Dm.s:3673   .debug_str:00000000000007e7 .LASF147
     /tmp/cch6g7Dm.s:3413   .debug_str:0000000000000050 .LASF148
     /tmp/cch6g7Dm.s:680    .text:0000000000000448 .LFB30
     /tmp/cch6g7Dm.s:719    .text:0000000000000470 .LFE30
     /tmp/cch6g7Dm.s:3128   .debug_loc:0000000000000000 .LLST14
     /tmp/cch6g7Dm.s:625    .text:00000000000003e8 .LFB29
     /tmp/cch6g7Dm.s:674    .text:0000000000000448 .LFE29
     /tmp/cch6g7Dm.s:3419   .debug_str:0000000000000087 .LASF149
     /tmp/cch6g7Dm.s:3135   .debug_loc:0000000000000023 .LLST11
     /tmp/cch6g7Dm.s:3149   .debug_loc:000000000000005c .LLST12
     /tmp/cch6g7Dm.s:3163   .debug_loc:0000000000000095 .LLST13
     /tmp/cch6g7Dm.s:646    .text:0000000000000410 .LVL44
     /tmp/cch6g7Dm.s:653    .text:0000000000000424 .LVL45
     /tmp/cch6g7Dm.s:658    .text:0000000000000430 .LVL46
     /tmp/cch6g7Dm.s:495    .text:000000000000030c .LFB28
     /tmp/cch6g7Dm.s:619    .text:00000000000003e8 .LFE28
     /tmp/cch6g7Dm.s:3181   .debug_loc:00000000000000e1 .LLST5
     /tmp/cch6g7Dm.s:3533   .debug_str:000000000000039d .LASF150
     /tmp/cch6g7Dm.s:3206   .debug_loc:0000000000000143 .LLST6
     /tmp/cch6g7Dm.s:3231   .debug_loc:00000000000001a5 .LLST7
     /tmp/cch6g7Dm.s:3653   .debug_str:000000000000074b .LASF151
     /tmp/cch6g7Dm.s:3256   .debug_loc:0000000000000207 .LLST8
     /tmp/cch6g7Dm.s:3278   .debug_loc:0000000000000266 .LLST9
     /tmp/cch6g7Dm.s:3295   .debug_loc:00000000000002b1 .LLST10
     /tmp/cch6g7Dm.s:592    .text:00000000000003c4 .LVL39
     /tmp/cch6g7Dm.s:437    .text:00000000000002c8 .LFB27
     /tmp/cch6g7Dm.s:484    .text:000000000000030c .LFE27
     /tmp/cch6g7Dm.s:3325   .debug_loc:0000000000000309 .LLST4
     /tmp/cch6g7Dm.s:463    .text:00000000000002f0 .LVL26
GAS LISTING /tmp/cch6g7Dm.s 			page 27


     /tmp/cch6g7Dm.s:369    .text:0000000000000258 .LFB26
     /tmp/cch6g7Dm.s:431    .text:00000000000002c8 .LFE26
     /tmp/cch6g7Dm.s:3336   .debug_loc:000000000000033f .LLST3
     /tmp/cch6g7Dm.s:387    .text:0000000000000280 .LVL21
     /tmp/cch6g7Dm.s:291    .text:00000000000001c0 .LFB25
     /tmp/cch6g7Dm.s:363    .text:0000000000000258 .LFE25
     /tmp/cch6g7Dm.s:3343   .debug_loc:0000000000000362 .LLST2
     /tmp/cch6g7Dm.s:349    .text:0000000000000244 .LVL19
     /tmp/cch6g7Dm.s:223    .text:0000000000000150 .LFB24
     /tmp/cch6g7Dm.s:285    .text:00000000000001c0 .LFE24
     /tmp/cch6g7Dm.s:3361   .debug_loc:00000000000003ae .LLST1
     /tmp/cch6g7Dm.s:241    .text:0000000000000178 .LVL14
     /tmp/cch6g7Dm.s:155    .text:00000000000000d4 .LFB23
     /tmp/cch6g7Dm.s:217    .text:0000000000000150 .LFE23
     /tmp/cch6g7Dm.s:3368   .debug_loc:00000000000003d1 .LLST0
     /tmp/cch6g7Dm.s:203    .text:000000000000013c .LVL12
     /tmp/cch6g7Dm.s:113    .text:00000000000000d4 .LFE22
     /tmp/cch6g7Dm.s:33     .text:0000000000000024 .LVL0
     /tmp/cch6g7Dm.s:39     .text:0000000000000034 .LVL1
     /tmp/cch6g7Dm.s:48     .text:0000000000000048 .LVL2
     /tmp/cch6g7Dm.s:54     .text:0000000000000058 .LVL3
     /tmp/cch6g7Dm.s:64     .text:0000000000000070 .LVL4
     /tmp/cch6g7Dm.s:71     .text:0000000000000080 .LVL5
     /tmp/cch6g7Dm.s:95     .text:00000000000000ac .LVL6
     /tmp/cch6g7Dm.s:99     .text:00000000000000b8 .LVL7
     /tmp/cch6g7Dm.s:106    .text:00000000000000c8 .LVL8
     /tmp/cch6g7Dm.s:110    .text:00000000000000d4 .LVL9
     /tmp/cch6g7Dm.s:3589   .debug_str:0000000000000523 .LASF158
     /tmp/cch6g7Dm.s:3471   .debug_str:00000000000001eb .LASF159
     /tmp/cch6g7Dm.s:3709   .debug_str:000000000000090f .LASF160
     /tmp/cch6g7Dm.s:3477   .debug_str:000000000000020c .LASF161
     /tmp/cch6g7Dm.s:706    .text:0000000000000460 .LVL48
     /tmp/cch6g7Dm.s:711    .text:0000000000000464 .LVL49
     /tmp/cch6g7Dm.s:628    .text:00000000000003e8 .LVL43
     /tmp/cch6g7Dm.s:667    .text:000000000000043c .LVL47
     /tmp/cch6g7Dm.s:498    .text:000000000000030c .LVL29
     /tmp/cch6g7Dm.s:534    .text:0000000000000350 .LVL32
     /tmp/cch6g7Dm.s:594    .text:00000000000003c8 .LVL40
     /tmp/cch6g7Dm.s:600    .text:00000000000003cc .LVL41
     /tmp/cch6g7Dm.s:579    .text:00000000000003a8 .LVL37
     /tmp/cch6g7Dm.s:605    .text:00000000000003d4 .LVL42
     /tmp/cch6g7Dm.s:539    .text:0000000000000354 .LVL33
     /tmp/cch6g7Dm.s:550    .text:0000000000000364 .LVL34
     /tmp/cch6g7Dm.s:571    .text:0000000000000394 .LVL36
     /tmp/cch6g7Dm.s:584    .text:00000000000003ac .LVL38
     /tmp/cch6g7Dm.s:522    .text:0000000000000340 .LVL30
     /tmp/cch6g7Dm.s:531    .text:000000000000034c .LVL31
     /tmp/cch6g7Dm.s:565    .text:000000000000038c .LVL35
     /tmp/cch6g7Dm.s:440    .text:00000000000002c8 .LVL24
     /tmp/cch6g7Dm.s:452    .text:00000000000002e0 .LVL25
     /tmp/cch6g7Dm.s:479    .text:0000000000000304 .LVL28
     /tmp/cch6g7Dm.s:400    .text:0000000000000298 .LVL22
     /tmp/cch6g7Dm.s:411    .text:00000000000002ac .LVL23
     /tmp/cch6g7Dm.s:294    .text:00000000000001c0 .LVL17
     /tmp/cch6g7Dm.s:347    .text:000000000000023c .LVL18
     /tmp/cch6g7Dm.s:359    .text:0000000000000254 .LVL20
     /tmp/cch6g7Dm.s:254    .text:0000000000000190 .LVL15
GAS LISTING /tmp/cch6g7Dm.s 			page 28


     /tmp/cch6g7Dm.s:265    .text:00000000000001a4 .LVL16
     /tmp/cch6g7Dm.s:158    .text:00000000000000d4 .LVL10
     /tmp/cch6g7Dm.s:201    .text:0000000000000134 .LVL11
     /tmp/cch6g7Dm.s:213    .text:000000000000014c .LVL13
     /tmp/cch6g7Dm.s:785    .debug_info:0000000000000000 .Ldebug_info0
     /tmp/cch6g7Dm.s:116    .gcc_except_table:0000000000000000 .LLSDA22

UNDEFINED SYMBOLS
_ZN3SCBnwEm
_ZN3SCBC1Em
_Z7kmallocm
_ZN3SCBdlEPv
_Unwind_Resume
__gxx_personality_v0
_ZN3SCB6signalEv
_ZN3SCB4waitEv
