GAS LISTING /tmp/ccRTmtOs.s 			page 1


   1              		.file	"consoleUtil.cpp"
   2              		.option pic
   3              		.option norelax
   4              		.text
   5              	.Ltext0:
   6              		.align	2
   7              		.globl	_ZN11ConsoleUtil10initializeEv
   9              	_ZN11ConsoleUtil10initializeEv:
  10              	.LFB22:
  11              		.file 1 "src/consoleUtil.cpp"
   1:src/consoleUtil.cpp **** //
   2:src/consoleUtil.cpp **** // Created by os on 5/29/22.
   3:src/consoleUtil.cpp **** //
   4:src/consoleUtil.cpp **** 
   5:src/consoleUtil.cpp **** #include "../h/consoleUtil.hpp"
   6:src/consoleUtil.cpp **** #include "../h/printing.hpp"
   7:src/consoleUtil.cpp **** #include "../h/scb.hpp"
   8:src/consoleUtil.cpp **** 
   9:src/consoleUtil.cpp **** uint64 ConsoleUtil::inputHead = 0;
  10:src/consoleUtil.cpp **** uint64 ConsoleUtil::inputTail = 0;
  11:src/consoleUtil.cpp **** uint64 ConsoleUtil::outputHead = 0;
  12:src/consoleUtil.cpp **** uint64 ConsoleUtil::outputTail = 0;
  13:src/consoleUtil.cpp **** 
  14:src/consoleUtil.cpp **** uint64 ConsoleUtil::pendingGetc = 0;
  15:src/consoleUtil.cpp **** uint64 ConsoleUtil::pendingPutc = 0;
  16:src/consoleUtil.cpp **** 
  17:src/consoleUtil.cpp **** SCB* ConsoleUtil::outputSem = nullptr;
  18:src/consoleUtil.cpp **** SCB* ConsoleUtil::inputSem = nullptr;
  19:src/consoleUtil.cpp **** 
  20:src/consoleUtil.cpp **** char* ConsoleUtil::inputBuffer = nullptr;
  21:src/consoleUtil.cpp **** char* ConsoleUtil::outputBuffer = nullptr;
  22:src/consoleUtil.cpp **** 
  23:src/consoleUtil.cpp **** void ConsoleUtil::initialize() {
  12              		.loc 1 23 32
  13              		.cfi_startproc
  14              		.cfi_personality 0x9b,DW.ref.__gxx_personality_v0
  15              		.cfi_lsda 0x1b,.LLSDA22
  16 0000 130101FE 		addi	sp,sp,-32
  17              		.cfi_def_cfa_offset 32
  18 0004 233C1100 		sd	ra,24(sp)
  19 0008 23388100 		sd	s0,16(sp)
  20 000c 23349100 		sd	s1,8(sp)
  21 0010 23302101 		sd	s2,0(sp)
  22              		.cfi_offset 1, -8
  23              		.cfi_offset 8, -16
  24              		.cfi_offset 9, -24
  25              		.cfi_offset 18, -32
  26 0014 13040102 		addi	s0,sp,32
  27              		.cfi_def_cfa 8, 0
  24:src/consoleUtil.cpp ****     inputSem = new SCB(0);
  28              		.loc 1 24 5
  29              		.loc 1 24 25 is_stmt 0
  30 0018 13058001 		li	a0,24
  31              	.LEHB0:
  32 001c 97000000 		call	_ZN3SCBnwEm@plt
  32      E7800000 
  33              	.LVL0:
GAS LISTING /tmp/ccRTmtOs.s 			page 2


  34              	.LEHE0:
  35 0024 93040500 		mv	s1,a0
  36 0028 63080500 		beqz	a0,.L2
  37              		.loc 1 24 25 discriminator 1
  38 002c 93050000 		li	a1,0
  39              	.LEHB1:
  40 0030 97000000 		call	_ZN3SCBC1Em@plt
  40      E7800000 
  41              	.LVL1:
  42              	.LEHE1:
  43              	.L2:
  44              		.loc 1 24 14 discriminator 6
  45 0038 97070000 		sd	s1,.LANCHOR0,a5
  45      23B09700 
  25:src/consoleUtil.cpp ****     outputSem = new SCB(0);
  46              		.loc 1 25 5 is_stmt 1 discriminator 6
  47              		.loc 1 25 26 is_stmt 0 discriminator 6
  48 0040 13058001 		li	a0,24
  49              	.LEHB2:
  50 0044 97000000 		call	_ZN3SCBnwEm@plt
  50      E7800000 
  51              	.LVL2:
  52              	.LEHE2:
  53 004c 93040500 		mv	s1,a0
  54 0050 63080500 		beqz	a0,.L3
  55              		.loc 1 25 26 discriminator 1
  56 0054 93050000 		li	a1,0
  57              	.LEHB3:
  58 0058 97000000 		call	_ZN3SCBC1Em@plt
  58      E7800000 
  59              	.LVL3:
  60              	.LEHE3:
  61              	.L3:
  62              		.loc 1 25 15 discriminator 6
  63 0060 17090000 		lla	s2,.LANCHOR0
  63      13090900 
  64 0068 23349900 		sd	s1,8(s2)
  26:src/consoleUtil.cpp ****     inputBuffer = (char*)kmalloc(ConsoleUtil::bufferSize);
  65              		.loc 1 26 5 is_stmt 1 discriminator 6
  66              		.loc 1 26 33 is_stmt 0 discriminator 6
  67 006c 37250000 		li	a0,8192
  68              	.LEHB4:
  69 0070 97000000 		call	_Z7kmallocm@plt
  69      E7800000 
  70              	.LVL4:
  71              		.loc 1 26 17 discriminator 6
  72 0078 2338A900 		sd	a0,16(s2)
  27:src/consoleUtil.cpp ****     outputBuffer = (char*)kmalloc(ConsoleUtil::bufferSize);
  73              		.loc 1 27 5 is_stmt 1 discriminator 6
  74              		.loc 1 27 34 is_stmt 0 discriminator 6
  75 007c 37250000 		li	a0,8192
  76 0080 97000000 		call	_Z7kmallocm@plt
  76      E7800000 
  77              	.LVL5:
  78              	.LEHE4:
  79              		.loc 1 27 18 discriminator 6
  80 0088 233CA900 		sd	a0,24(s2)
GAS LISTING /tmp/ccRTmtOs.s 			page 3


  28:src/consoleUtil.cpp **** }
  81              		.loc 1 28 1 discriminator 6
  82 008c 83308101 		ld	ra,24(sp)
  83              		.cfi_remember_state
  84              		.cfi_restore 1
  85 0090 03340101 		ld	s0,16(sp)
  86              		.cfi_restore 8
  87              		.cfi_def_cfa 2, 32
  88 0094 83348100 		ld	s1,8(sp)
  89              		.cfi_restore 9
  90 0098 03390100 		ld	s2,0(sp)
  91              		.cfi_restore 18
  92 009c 13010102 		addi	sp,sp,32
  93              		.cfi_def_cfa_offset 0
  94 00a0 67800000 		jr	ra
  95              	.L6:
  96              		.cfi_restore_state
  97 00a4 13090500 		mv	s2,a0
  24:src/consoleUtil.cpp ****     outputSem = new SCB(0);
  98              		.loc 1 24 25
  99 00a8 13850400 		mv	a0,s1
 100 00ac 97000000 		call	_ZN3SCBdlEPv@plt
 100      E7800000 
 101              	.LVL6:
 102 00b4 13050900 		mv	a0,s2
 103              	.LEHB5:
 104 00b8 97000000 		call	_Unwind_Resume@plt
 104      E7800000 
 105              	.LVL7:
 106              	.LEHE5:
 107              	.L7:
 108 00c0 13090500 		mv	s2,a0
  25:src/consoleUtil.cpp ****     inputBuffer = (char*)kmalloc(ConsoleUtil::bufferSize);
 109              		.loc 1 25 26
 110 00c4 13850400 		mv	a0,s1
 111 00c8 97000000 		call	_ZN3SCBdlEPv@plt
 111      E7800000 
 112              	.LVL8:
 113 00d0 13050900 		mv	a0,s2
 114              	.LEHB6:
 115 00d4 97000000 		call	_Unwind_Resume@plt
 115      E7800000 
 116              	.LVL9:
 117              	.LEHE6:
 118              		.cfi_endproc
 119              	.LFE22:
 120              		.globl	__gxx_personality_v0
 121              		.section	.gcc_except_table,"a",@progbits
 122              	.LLSDA22:
 123 0000 FF       		.byte	0xff
 124 0001 FF       		.byte	0xff
 125 0002 03       		.byte	0x3
 126 0003 5B       		.byte	0x5b
 127 0004 00000000 		.4byte	.LEHB0-.LFB22
 128 0008 00000000 		.4byte	.LEHE0-.LEHB0
 129 000c 00000000 		.4byte	0
 130 0010 00       		.byte	0
GAS LISTING /tmp/ccRTmtOs.s 			page 4


 131 0011 00000000 		.4byte	.LEHB1-.LFB22
 132 0015 00000000 		.4byte	.LEHE1-.LEHB1
 133 0019 00000000 		.4byte	.L6-.LFB22
 134 001d 00       		.byte	0
 135 001e 00000000 		.4byte	.LEHB2-.LFB22
 136 0022 00000000 		.4byte	.LEHE2-.LEHB2
 137 0026 00000000 		.4byte	0
 138 002a 00       		.byte	0
 139 002b 00000000 		.4byte	.LEHB3-.LFB22
 140 002f 00000000 		.4byte	.LEHE3-.LEHB3
 141 0033 00000000 		.4byte	.L7-.LFB22
 142 0037 00       		.byte	0
 143 0038 00000000 		.4byte	.LEHB4-.LFB22
 144 003c 00000000 		.4byte	.LEHE4-.LEHB4
 145 0040 00000000 		.4byte	0
 146 0044 00       		.byte	0
 147 0045 00000000 		.4byte	.LEHB5-.LFB22
 148 0049 00000000 		.4byte	.LEHE5-.LEHB5
 149 004d 00000000 		.4byte	0
 150 0051 00       		.byte	0
 151 0052 00000000 		.4byte	.LEHB6-.LFB22
 152 0056 00000000 		.4byte	.LEHE6-.LEHB6
 153 005a 00000000 		.4byte	0
 154 005e 00       		.byte	0
 155              		.text
 157              		.align	2
 158              		.globl	_ZN11ConsoleUtil8putInputEc
 160              	_ZN11ConsoleUtil8putInputEc:
 161              	.LFB23:
  29:src/consoleUtil.cpp **** 
  30:src/consoleUtil.cpp **** void ConsoleUtil::putInput(char c) {
 162              		.loc 1 30 36 is_stmt 1
 163              		.cfi_startproc
 164              	.LVL10:
  31:src/consoleUtil.cpp ****     if((inputTail+1)%bufferSize == inputHead)
 165              		.loc 1 31 5
 166              		.loc 1 31 18 is_stmt 0
 167 00dc 97060000 		lla	a3,.LANCHOR0
 167      93860600 
 168 00e4 03B60602 		ld	a2,32(a3)
 169 00e8 93071600 		addi	a5,a2,1
 170              		.loc 1 31 21
 171 00ec 37270000 		li	a4,8192
 172 00f0 1307F7FF 		addi	a4,a4,-1
 173 00f4 B3F7E700 		and	a5,a5,a4
 174              		.loc 1 31 33
 175 00f8 03B78602 		ld	a4,40(a3)
 176              		.loc 1 31 5
 177 00fc 638CE704 		beq	a5,a4,.L13
  30:src/consoleUtil.cpp ****     if((inputTail+1)%bufferSize == inputHead)
 178              		.loc 1 30 36
 179 0100 130101FF 		addi	sp,sp,-16
 180              		.cfi_def_cfa_offset 16
 181 0104 23341100 		sd	ra,8(sp)
 182 0108 23308100 		sd	s0,0(sp)
 183              		.cfi_offset 1, -8
 184              		.cfi_offset 8, -16
GAS LISTING /tmp/ccRTmtOs.s 			page 5


 185 010c 13040101 		addi	s0,sp,16
 186              		.cfi_def_cfa 8, 0
  32:src/consoleUtil.cpp ****         return;
  33:src/consoleUtil.cpp ****     inputBuffer[inputTail] = c;
 187              		.loc 1 33 5 is_stmt 1
 188              		.loc 1 33 26 is_stmt 0
 189 0110 13870600 		mv	a4,a3
 190 0114 83B70601 		ld	a5,16(a3)
 191 0118 3386C700 		add	a2,a5,a2
 192              		.loc 1 33 28
 193 011c 2300A600 		sb	a0,0(a2)
  34:src/consoleUtil.cpp ****     inputTail = (inputTail+1)%bufferSize;
 194              		.loc 1 34 5 is_stmt 1
 195              		.loc 1 34 27 is_stmt 0
 196 0120 83B70602 		ld	a5,32(a3)
 197 0124 93871700 		addi	a5,a5,1
 198              		.loc 1 34 30
 199 0128 B7260000 		li	a3,8192
 200 012c 9386F6FF 		addi	a3,a3,-1
 201 0130 B3F7D700 		and	a5,a5,a3
 202              		.loc 1 34 15
 203 0134 2330F702 		sd	a5,32(a4)
  35:src/consoleUtil.cpp ****     inputSem->signal();
 204              		.loc 1 35 5 is_stmt 1
 205              		.loc 1 35 21 is_stmt 0
 206 0138 03350700 		ld	a0,0(a4)
 207              	.LVL11:
 208 013c 97000000 		call	_ZN3SCB6signalEv@plt
 208      E7800000 
 209              	.LVL12:
  36:src/consoleUtil.cpp **** }
 210              		.loc 1 36 1
 211 0144 83308100 		ld	ra,8(sp)
 212              		.cfi_restore 1
 213 0148 03340100 		ld	s0,0(sp)
 214              		.cfi_restore 8
 215              		.cfi_def_cfa 2, 16
 216 014c 13010101 		addi	sp,sp,16
 217              		.cfi_def_cfa_offset 0
 218 0150 67800000 		jr	ra
 219              	.LVL13:
 220              	.L13:
 221 0154 67800000 		ret
 222              		.cfi_endproc
 223              	.LFE23:
 225              		.align	2
 226              		.globl	_ZN11ConsoleUtil8getInputEv
 228              	_ZN11ConsoleUtil8getInputEv:
 229              	.LFB24:
  37:src/consoleUtil.cpp **** 
  38:src/consoleUtil.cpp **** char ConsoleUtil::getInput() {
 230              		.loc 1 38 30 is_stmt 1
 231              		.cfi_startproc
 232 0158 130101FE 		addi	sp,sp,-32
 233              		.cfi_def_cfa_offset 32
 234 015c 233C1100 		sd	ra,24(sp)
 235 0160 23388100 		sd	s0,16(sp)
GAS LISTING /tmp/ccRTmtOs.s 			page 6


 236 0164 23349100 		sd	s1,8(sp)
 237              		.cfi_offset 1, -8
 238              		.cfi_offset 8, -16
 239              		.cfi_offset 9, -24
 240 0168 13040102 		addi	s0,sp,32
 241              		.cfi_def_cfa 8, 0
  39:src/consoleUtil.cpp ****     inputSem->wait();
 242              		.loc 1 39 5
 243              		.loc 1 39 19 is_stmt 0
 244 016c 97040000 		lla	s1,.LANCHOR0
 244      93840400 
 245 0174 03B50400 		ld	a0,0(s1)
 246 0178 97000000 		call	_ZN3SCB4waitEv@plt
 246      E7800000 
 247              	.LVL14:
  40:src/consoleUtil.cpp **** 
  41:src/consoleUtil.cpp ****     if(inputHead == inputTail)
 248              		.loc 1 41 5 is_stmt 1
 249              		.loc 1 41 18 is_stmt 0
 250 0180 83B78402 		ld	a5,40(s1)
 251 0184 03B70402 		ld	a4,32(s1)
 252              		.loc 1 41 5
 253 0188 638CE702 		beq	a5,a4,.L18
  42:src/consoleUtil.cpp ****         return -1;
  43:src/consoleUtil.cpp ****     char c = inputBuffer[inputHead];
 254              		.loc 1 43 5 is_stmt 1
 255              		.loc 1 43 35 is_stmt 0
 256 018c 03B70401 		ld	a4,16(s1)
 257 0190 3307F700 		add	a4,a4,a5
 258              		.loc 1 43 10
 259 0194 03450700 		lbu	a0,0(a4)
 260              	.LVL15:
  44:src/consoleUtil.cpp **** 
  45:src/consoleUtil.cpp ****     inputHead = (inputHead+1)%bufferSize;
 261              		.loc 1 45 5 is_stmt 1
 262              		.loc 1 45 27 is_stmt 0
 263 0198 93871700 		addi	a5,a5,1
 264              		.loc 1 45 30
 265 019c 37270000 		li	a4,8192
 266 01a0 1307F7FF 		addi	a4,a4,-1
 267 01a4 B3F7E700 		and	a5,a5,a4
 268              		.loc 1 45 15
 269 01a8 23B4F402 		sd	a5,40(s1)
  46:src/consoleUtil.cpp **** 
  47:src/consoleUtil.cpp ****     return c;
 270              		.loc 1 47 5 is_stmt 1
 271              	.LVL16:
 272              	.L17:
  48:src/consoleUtil.cpp **** }
 273              		.loc 1 48 1 is_stmt 0
 274 01ac 83308101 		ld	ra,24(sp)
 275              		.cfi_remember_state
 276              		.cfi_restore 1
 277 01b0 03340101 		ld	s0,16(sp)
 278              		.cfi_restore 8
 279              		.cfi_def_cfa 2, 32
 280 01b4 83348100 		ld	s1,8(sp)
GAS LISTING /tmp/ccRTmtOs.s 			page 7


 281              		.cfi_restore 9
 282 01b8 13010102 		addi	sp,sp,32
 283              		.cfi_def_cfa_offset 0
 284 01bc 67800000 		jr	ra
 285              	.L18:
 286              		.cfi_restore_state
  42:src/consoleUtil.cpp ****     char c = inputBuffer[inputHead];
 287              		.loc 1 42 17
 288 01c0 1305F00F 		li	a0,255
 289 01c4 6FF09FFE 		j	.L17
 290              		.cfi_endproc
 291              	.LFE24:
 293              		.align	2
 294              		.globl	_ZN11ConsoleUtil9putOutputEc
 296              	_ZN11ConsoleUtil9putOutputEc:
 297              	.LFB25:
  49:src/consoleUtil.cpp **** 
  50:src/consoleUtil.cpp **** void ConsoleUtil::putOutput(char c) {
 298              		.loc 1 50 37 is_stmt 1
 299              		.cfi_startproc
 300              	.LVL17:
  51:src/consoleUtil.cpp ****     pendingPutc++;
 301              		.loc 1 51 5
 302              		.loc 1 51 16 is_stmt 0
 303 01c8 97070000 		lla	a5,.LANCHOR0
 303      93870700 
 304 01d0 03B70703 		ld	a4,48(a5)
 305 01d4 13071700 		addi	a4,a4,1
 306 01d8 23B8E702 		sd	a4,48(a5)
  52:src/consoleUtil.cpp **** 
  53:src/consoleUtil.cpp ****     if((outputTail+1)%bufferSize == outputHead)
 307              		.loc 1 53 5 is_stmt 1
 308              		.loc 1 53 19 is_stmt 0
 309 01dc 03B68703 		ld	a2,56(a5)
 310 01e0 13071600 		addi	a4,a2,1
 311              		.loc 1 53 22
 312 01e4 B7260000 		li	a3,8192
 313 01e8 9386F6FF 		addi	a3,a3,-1
 314 01ec 3377D700 		and	a4,a4,a3
 315              		.loc 1 53 34
 316 01f0 83B70704 		ld	a5,64(a5)
 317              		.loc 1 53 5
 318 01f4 6304F706 		beq	a4,a5,.L23
  50:src/consoleUtil.cpp ****     pendingPutc++;
 319              		.loc 1 50 37
 320 01f8 130101FF 		addi	sp,sp,-16
 321              		.cfi_def_cfa_offset 16
 322 01fc 23341100 		sd	ra,8(sp)
 323 0200 23308100 		sd	s0,0(sp)
 324              		.cfi_offset 1, -8
 325              		.cfi_offset 8, -16
 326 0204 13040101 		addi	s0,sp,16
 327              		.cfi_def_cfa 8, 0
  54:src/consoleUtil.cpp ****         return;
  55:src/consoleUtil.cpp **** 
  56:src/consoleUtil.cpp ****     outputBuffer[outputTail] = c;
 328              		.loc 1 56 5 is_stmt 1
GAS LISTING /tmp/ccRTmtOs.s 			page 8


 329              		.loc 1 56 28 is_stmt 0
 330 0208 97070000 		lla	a5,.LANCHOR0
 330      93870700 
 331 0210 03B78701 		ld	a4,24(a5)
 332 0214 3306C700 		add	a2,a4,a2
 333              		.loc 1 56 30
 334 0218 2300A600 		sb	a0,0(a2)
  57:src/consoleUtil.cpp **** 
  58:src/consoleUtil.cpp ****     outputTail = (outputTail+1)%bufferSize;
 335              		.loc 1 58 5 is_stmt 1
 336              		.loc 1 58 29 is_stmt 0
 337 021c 03B78703 		ld	a4,56(a5)
 338 0220 13071700 		addi	a4,a4,1
 339              		.loc 1 58 32
 340 0224 B7260000 		li	a3,8192
 341 0228 9386F6FF 		addi	a3,a3,-1
 342 022c 3377D700 		and	a4,a4,a3
 343              		.loc 1 58 16
 344 0230 23BCE702 		sd	a4,56(a5)
  59:src/consoleUtil.cpp **** 
  60:src/consoleUtil.cpp ****     pendingPutc--;
 345              		.loc 1 60 5 is_stmt 1
 346              		.loc 1 60 16 is_stmt 0
 347 0234 03B70703 		ld	a4,48(a5)
 348 0238 1307F7FF 		addi	a4,a4,-1
 349 023c 23B8E702 		sd	a4,48(a5)
  61:src/consoleUtil.cpp **** 
  62:src/consoleUtil.cpp ****     outputSem->signal();
 350              		.loc 1 62 5 is_stmt 1
 351              		.loc 1 62 22 is_stmt 0
 352 0240 03B58700 		ld	a0,8(a5)
 353              	.LVL18:
 354 0244 97000000 		call	_ZN3SCB6signalEv@plt
 354      E7800000 
 355              	.LVL19:
  63:src/consoleUtil.cpp **** }
 356              		.loc 1 63 1
 357 024c 83308100 		ld	ra,8(sp)
 358              		.cfi_restore 1
 359 0250 03340100 		ld	s0,0(sp)
 360              		.cfi_restore 8
 361              		.cfi_def_cfa 2, 16
 362 0254 13010101 		addi	sp,sp,16
 363              		.cfi_def_cfa_offset 0
 364 0258 67800000 		jr	ra
 365              	.LVL20:
 366              	.L23:
 367 025c 67800000 		ret
 368              		.cfi_endproc
 369              	.LFE25:
 371              		.align	2
 372              		.globl	_ZN11ConsoleUtil9getOutputEv
 374              	_ZN11ConsoleUtil9getOutputEv:
 375              	.LFB26:
  64:src/consoleUtil.cpp **** 
  65:src/consoleUtil.cpp **** char ConsoleUtil::getOutput() {
 376              		.loc 1 65 31 is_stmt 1
GAS LISTING /tmp/ccRTmtOs.s 			page 9


 377              		.cfi_startproc
 378 0260 130101FE 		addi	sp,sp,-32
 379              		.cfi_def_cfa_offset 32
 380 0264 233C1100 		sd	ra,24(sp)
 381 0268 23388100 		sd	s0,16(sp)
 382 026c 23349100 		sd	s1,8(sp)
 383              		.cfi_offset 1, -8
 384              		.cfi_offset 8, -16
 385              		.cfi_offset 9, -24
 386 0270 13040102 		addi	s0,sp,32
 387              		.cfi_def_cfa 8, 0
  66:src/consoleUtil.cpp ****     outputSem->wait();
 388              		.loc 1 66 5
 389              		.loc 1 66 20 is_stmt 0
 390 0274 97040000 		lla	s1,.LANCHOR0
 390      93840400 
 391 027c 03B58400 		ld	a0,8(s1)
 392 0280 97000000 		call	_ZN3SCB4waitEv@plt
 392      E7800000 
 393              	.LVL21:
  67:src/consoleUtil.cpp ****     if(outputHead == outputTail)
 394              		.loc 1 67 5 is_stmt 1
 395              		.loc 1 67 19 is_stmt 0
 396 0288 83B70404 		ld	a5,64(s1)
 397 028c 03B78403 		ld	a4,56(s1)
 398              		.loc 1 67 5
 399 0290 638CE702 		beq	a5,a4,.L28
  68:src/consoleUtil.cpp ****         return -1;
  69:src/consoleUtil.cpp **** 
  70:src/consoleUtil.cpp ****     char c = outputBuffer[outputHead];
 400              		.loc 1 70 5 is_stmt 1
 401              		.loc 1 70 37 is_stmt 0
 402 0294 03B78401 		ld	a4,24(s1)
 403 0298 3307F700 		add	a4,a4,a5
 404              		.loc 1 70 10
 405 029c 03450700 		lbu	a0,0(a4)
 406              	.LVL22:
  71:src/consoleUtil.cpp **** 
  72:src/consoleUtil.cpp ****     outputHead = (outputHead+1)%bufferSize;
 407              		.loc 1 72 5 is_stmt 1
 408              		.loc 1 72 29 is_stmt 0
 409 02a0 93871700 		addi	a5,a5,1
 410              		.loc 1 72 32
 411 02a4 37270000 		li	a4,8192
 412 02a8 1307F7FF 		addi	a4,a4,-1
 413 02ac B3F7E700 		and	a5,a5,a4
 414              		.loc 1 72 16
 415 02b0 23B0F404 		sd	a5,64(s1)
  73:src/consoleUtil.cpp **** 
  74:src/consoleUtil.cpp ****     return c;
 416              		.loc 1 74 5 is_stmt 1
 417              	.LVL23:
 418              	.L27:
  75:src/consoleUtil.cpp **** }
 419              		.loc 1 75 1 is_stmt 0
 420 02b4 83308101 		ld	ra,24(sp)
 421              		.cfi_remember_state
GAS LISTING /tmp/ccRTmtOs.s 			page 10


 422              		.cfi_restore 1
 423 02b8 03340101 		ld	s0,16(sp)
 424              		.cfi_restore 8
 425              		.cfi_def_cfa 2, 32
 426 02bc 83348100 		ld	s1,8(sp)
 427              		.cfi_restore 9
 428 02c0 13010102 		addi	sp,sp,32
 429              		.cfi_def_cfa_offset 0
 430 02c4 67800000 		jr	ra
 431              	.L28:
 432              		.cfi_restore_state
  68:src/consoleUtil.cpp **** 
 433              		.loc 1 68 17
 434 02c8 1305F00F 		li	a0,255
 435 02cc 6FF09FFE 		j	.L27
 436              		.cfi_endproc
 437              	.LFE26:
 439              		.align	2
 440              		.globl	_ZN11ConsoleUtil11printStringEPKc
 442              	_ZN11ConsoleUtil11printStringEPKc:
 443              	.LFB27:
  76:src/consoleUtil.cpp **** 
  77:src/consoleUtil.cpp **** void ConsoleUtil::printString(const char *string) {
 444              		.loc 1 77 51 is_stmt 1
 445              		.cfi_startproc
 446              	.LVL24:
 447 02d0 130101FE 		addi	sp,sp,-32
 448              		.cfi_def_cfa_offset 32
 449 02d4 233C1100 		sd	ra,24(sp)
 450 02d8 23388100 		sd	s0,16(sp)
 451 02dc 23349100 		sd	s1,8(sp)
 452              		.cfi_offset 1, -8
 453              		.cfi_offset 8, -16
 454              		.cfi_offset 9, -24
 455 02e0 13040102 		addi	s0,sp,32
 456              		.cfi_def_cfa 8, 0
 457 02e4 93040500 		mv	s1,a0
 458              	.LVL25:
 459              	.L32:
  78:src/consoleUtil.cpp ****     while (*string != '\0')
 460              		.loc 1 78 5
 461              		.loc 1 78 20
 462              		.loc 1 78 12 is_stmt 0
 463 02e8 03C50400 		lbu	a0,0(s1)
 464              		.loc 1 78 20
 465 02ec 630A0500 		beqz	a0,.L30
  79:src/consoleUtil.cpp ****     {
  80:src/consoleUtil.cpp ****         ConsoleUtil::putOutput(*string);
 466              		.loc 1 80 9 is_stmt 1
 467              		.loc 1 80 31 is_stmt 0
 468 02f0 97000000 		call	_ZN11ConsoleUtil9putOutputEc
 468      E7800000 
 469              	.LVL26:
  81:src/consoleUtil.cpp ****         string++;
 470              		.loc 1 81 9 is_stmt 1
 471              		.loc 1 81 15 is_stmt 0
 472 02f8 93841400 		addi	s1,s1,1
GAS LISTING /tmp/ccRTmtOs.s 			page 11


 473              	.LVL27:
  78:src/consoleUtil.cpp ****     while (*string != '\0')
 474              		.loc 1 78 5
 475 02fc 6FF0DFFE 		j	.L32
 476              	.L30:
  82:src/consoleUtil.cpp ****     }
  83:src/consoleUtil.cpp **** }
 477              		.loc 1 83 1
 478 0300 83308101 		ld	ra,24(sp)
 479              		.cfi_restore 1
 480 0304 03340101 		ld	s0,16(sp)
 481              		.cfi_restore 8
 482              		.cfi_def_cfa 2, 32
 483 0308 83348100 		ld	s1,8(sp)
 484              		.cfi_restore 9
 485              	.LVL28:
 486 030c 13010102 		addi	sp,sp,32
 487              		.cfi_def_cfa_offset 0
 488 0310 67800000 		jr	ra
 489              		.cfi_endproc
 490              	.LFE27:
 492              		.section	.rodata.str1.8,"aMS",@progbits,1
 493              		.align	3
 494              	.LC0:
 495 0000 30313233 		.string	"0123456789ABCDEF"
 495      34353637 
 495      38394142 
 495      43444546 
 495      00
 496              		.text
 497              		.align	2
 498              		.globl	_ZN11ConsoleUtil8printIntEiii
 500              	_ZN11ConsoleUtil8printIntEiii:
 501              	.LFB28:
  84:src/consoleUtil.cpp **** 
  85:src/consoleUtil.cpp **** void ConsoleUtil::printInt(int xx, int base, int sgn)
  86:src/consoleUtil.cpp **** {
 502              		.loc 1 86 1 is_stmt 1
 503              		.cfi_startproc
 504              	.LVL29:
 505 0314 130101FB 		addi	sp,sp,-80
 506              		.cfi_def_cfa_offset 80
 507 0318 23341104 		sd	ra,72(sp)
 508 031c 23308104 		sd	s0,64(sp)
 509 0320 233C9102 		sd	s1,56(sp)
 510              		.cfi_offset 1, -8
 511              		.cfi_offset 8, -16
 512              		.cfi_offset 9, -24
 513 0324 13040105 		addi	s0,sp,80
 514              		.cfi_def_cfa 8, 0
  87:src/consoleUtil.cpp ****     char digits[] = "0123456789ABCDEF";
 515              		.loc 1 87 5
 516              		.loc 1 87 10 is_stmt 0
 517 0328 97070000 		lla	a5,.LC0
 517      93870700 
 518 0330 03B70700 		ld	a4,0(a5)
 519 0334 2334E4FC 		sd	a4,-56(s0)
GAS LISTING /tmp/ccRTmtOs.s 			page 12


 520 0338 03B78700 		ld	a4,8(a5)
 521 033c 2338E4FC 		sd	a4,-48(s0)
 522 0340 83C70701 		lbu	a5,16(a5)
 523 0344 230CF4FC 		sb	a5,-40(s0)
  88:src/consoleUtil.cpp ****     char buf[16];
 524              		.loc 1 88 5 is_stmt 1
  89:src/consoleUtil.cpp ****     int i, neg;
 525              		.loc 1 89 5
  90:src/consoleUtil.cpp ****     uint x;
 526              		.loc 1 90 5
  91:src/consoleUtil.cpp **** 
  92:src/consoleUtil.cpp ****     neg = 0;
 527              		.loc 1 92 5
 528              	.LVL30:
  93:src/consoleUtil.cpp ****     if(sgn && xx < 0){
 529              		.loc 1 93 5
 530 0348 63040600 		beqz	a2,.L35
 531              		.loc 1 93 12 is_stmt 0 discriminator 1
 532 034c 63420508 		bltz	a0,.L42
 533              	.L35:
  94:src/consoleUtil.cpp ****         neg = 1;
  95:src/consoleUtil.cpp ****         x = -xx;
  96:src/consoleUtil.cpp ****     } else {
  97:src/consoleUtil.cpp ****         x = xx;
 534              		.loc 1 97 9 is_stmt 1
 535              		.loc 1 97 11 is_stmt 0
 536 0350 1B050500 		sext.w	a0,a0
 537              	.LVL31:
  92:src/consoleUtil.cpp ****     if(sgn && xx < 0){
 538              		.loc 1 92 9
 539 0354 13080000 		li	a6,0
 540              	.LVL32:
 541              	.L36:
  98:src/consoleUtil.cpp ****     }
  99:src/consoleUtil.cpp **** 
 100:src/consoleUtil.cpp ****     i = 0;
 542              		.loc 1 100 5 is_stmt 1
 543              		.loc 1 100 7 is_stmt 0
 544 0358 93040000 		li	s1,0
 545              	.LVL33:
 546              	.L37:
 101:src/consoleUtil.cpp ****     do{
 547              		.loc 1 101 5 is_stmt 1
 102:src/consoleUtil.cpp ****         buf[i++] = digits[x % base];
 548              		.loc 1 102 9
 549              		.loc 1 102 31 is_stmt 0
 550 035c 1B870500 		sext.w	a4,a1
 551              		.loc 1 102 29
 552 0360 BB77B502 		remuw	a5,a0,a1
 553 0364 93860400 		mv	a3,s1
 554              		.loc 1 102 14
 555 0368 9B841400 		addiw	s1,s1,1
 556              	.LVL34:
 557              		.loc 1 102 35
 558 036c 93970702 		slli	a5,a5,32
 559 0370 93D70702 		srli	a5,a5,32
 560 0374 130604FE 		addi	a2,s0,-32
GAS LISTING /tmp/ccRTmtOs.s 			page 13


 561 0378 B307F600 		add	a5,a2,a5
 562 037c 03C687FE 		lbu	a2,-24(a5)
 563              		.loc 1 102 18
 564 0380 930704FE 		addi	a5,s0,-32
 565 0384 B387D700 		add	a5,a5,a3
 566 0388 238CC7FC 		sb	a2,-40(a5)
 103:src/consoleUtil.cpp ****     }while((x /= base) != 0);
 567              		.loc 1 103 24 is_stmt 1
 568 038c 1B060500 		sext.w	a2,a0
 569              		.loc 1 103 15 is_stmt 0
 570 0390 3B55B502 		divuw	a0,a0,a1
 571              	.LVL35:
 572              		.loc 1 103 24
 573 0394 E374E6FC 		bleu	a4,a2,.L37
 104:src/consoleUtil.cpp ****     if(neg)
 574              		.loc 1 104 5 is_stmt 1
 575 0398 630C0800 		beqz	a6,.L40
 105:src/consoleUtil.cpp ****         buf[i++] = '-';
 576              		.loc 1 105 9
 577              	.LVL36:
 578              		.loc 1 105 18 is_stmt 0
 579 039c 930704FE 		addi	a5,s0,-32
 580 03a0 B3849700 		add	s1,a5,s1
 581 03a4 9307D002 		li	a5,45
 582 03a8 238CF4FC 		sb	a5,-40(s1)
 583              		.loc 1 105 14
 584 03ac 9B842600 		addiw	s1,a3,2
 585              	.LVL37:
 586              	.L40:
 106:src/consoleUtil.cpp **** 
 107:src/consoleUtil.cpp ****     while(--i >= 0)
 587              		.loc 1 107 5 is_stmt 1
 588              		.loc 1 107 15
 589 03b0 9B84F4FF 		addiw	s1,s1,-1
 590              	.LVL38:
 591 03b4 63C40402 		bltz	s1,.L34
 108:src/consoleUtil.cpp ****         ConsoleUtil::putOutput(buf[i]);
 592              		.loc 1 108 9
 593              		.loc 1 108 31 is_stmt 0
 594 03b8 930704FE 		addi	a5,s0,-32
 595 03bc B3879700 		add	a5,a5,s1
 596 03c0 03C587FD 		lbu	a0,-40(a5)
 597 03c4 97000000 		call	_ZN11ConsoleUtil9putOutputEc
 597      E7800000 
 598              	.LVL39:
 599 03cc 6FF05FFE 		j	.L40
 600              	.LVL40:
 601              	.L42:
  94:src/consoleUtil.cpp ****         x = -xx;
 602              		.loc 1 94 9 is_stmt 1
  95:src/consoleUtil.cpp ****     } else {
 603              		.loc 1 95 9
  95:src/consoleUtil.cpp ****     } else {
 604              		.loc 1 95 11 is_stmt 0
 605 03d0 3B05A040 		negw	a0,a0
 606              	.LVL41:
  94:src/consoleUtil.cpp ****         x = -xx;
GAS LISTING /tmp/ccRTmtOs.s 			page 14


 607              		.loc 1 94 13
 608 03d4 13081000 		li	a6,1
  95:src/consoleUtil.cpp ****     } else {
 609              		.loc 1 95 11
 610 03d8 6FF01FF8 		j	.L36
 611              	.LVL42:
 612              	.L34:
 109:src/consoleUtil.cpp **** 
 110:src/consoleUtil.cpp **** }
 613              		.loc 1 110 1
 614 03dc 83308104 		ld	ra,72(sp)
 615              		.cfi_restore 1
 616 03e0 03340104 		ld	s0,64(sp)
 617              		.cfi_restore 8
 618              		.cfi_def_cfa 2, 80
 619 03e4 83348103 		ld	s1,56(sp)
 620              		.cfi_restore 9
 621 03e8 13010105 		addi	sp,sp,80
 622              		.cfi_def_cfa_offset 0
 623 03ec 67800000 		jr	ra
 624              		.cfi_endproc
 625              	.LFE28:
 627              		.align	2
 628              		.globl	_ZN11ConsoleUtil5printEPKciS1_
 630              	_ZN11ConsoleUtil5printEPKciS1_:
 631              	.LFB29:
 111:src/consoleUtil.cpp **** 
 112:src/consoleUtil.cpp **** void ConsoleUtil::print(const char *string, int xx, const char *sep) {
 632              		.loc 1 112 70 is_stmt 1
 633              		.cfi_startproc
 634              	.LVL43:
 635 03f0 130101FE 		addi	sp,sp,-32
 636              		.cfi_def_cfa_offset 32
 637 03f4 233C1100 		sd	ra,24(sp)
 638 03f8 23388100 		sd	s0,16(sp)
 639 03fc 23349100 		sd	s1,8(sp)
 640 0400 23302101 		sd	s2,0(sp)
 641              		.cfi_offset 1, -8
 642              		.cfi_offset 8, -16
 643              		.cfi_offset 9, -24
 644              		.cfi_offset 18, -32
 645 0404 13040102 		addi	s0,sp,32
 646              		.cfi_def_cfa 8, 0
 647 0408 13890500 		mv	s2,a1
 648 040c 93040600 		mv	s1,a2
 113:src/consoleUtil.cpp ****     ConsoleUtil::printString(string);
 649              		.loc 1 113 5
 650              		.loc 1 113 29 is_stmt 0
 651 0410 97000000 		call	_ZN11ConsoleUtil11printStringEPKc
 651      E7800000 
 652              	.LVL44:
 114:src/consoleUtil.cpp ****     ConsoleUtil::printInt(xx);
 653              		.loc 1 114 5 is_stmt 1
 654              		.loc 1 114 26 is_stmt 0
 655 0418 13060000 		li	a2,0
 656 041c 9305A000 		li	a1,10
 657 0420 13050900 		mv	a0,s2
GAS LISTING /tmp/ccRTmtOs.s 			page 15


 658 0424 97000000 		call	_ZN11ConsoleUtil8printIntEiii
 658      E7800000 
 659              	.LVL45:
 115:src/consoleUtil.cpp ****     ConsoleUtil::printString(sep);
 660              		.loc 1 115 5 is_stmt 1
 661              		.loc 1 115 29 is_stmt 0
 662 042c 13850400 		mv	a0,s1
 663 0430 97000000 		call	_ZN11ConsoleUtil11printStringEPKc
 663      E7800000 
 664              	.LVL46:
 116:src/consoleUtil.cpp **** }
 665              		.loc 1 116 1
 666 0438 83308101 		ld	ra,24(sp)
 667              		.cfi_restore 1
 668 043c 03340101 		ld	s0,16(sp)
 669              		.cfi_restore 8
 670              		.cfi_def_cfa 2, 32
 671 0440 83348100 		ld	s1,8(sp)
 672              		.cfi_restore 9
 673              	.LVL47:
 674 0444 03390100 		ld	s2,0(sp)
 675              		.cfi_restore 18
 676 0448 13010102 		addi	sp,sp,32
 677              		.cfi_def_cfa_offset 0
 678 044c 67800000 		jr	ra
 679              		.cfi_endproc
 680              	.LFE29:
 682              		.align	2
 683              		.globl	_ZN11ConsoleUtil15putcUtilSyscallEv
 685              	_ZN11ConsoleUtil15putcUtilSyscallEv:
 686              	.LFB30:
 117:src/consoleUtil.cpp **** 
 118:src/consoleUtil.cpp **** char ConsoleUtil::putcUtilSyscall()
 119:src/consoleUtil.cpp **** {
 687              		.loc 1 119 1 is_stmt 1
 688              		.cfi_startproc
 689 0450 130101FF 		addi	sp,sp,-16
 690              		.cfi_def_cfa_offset 16
 691 0454 23348100 		sd	s0,8(sp)
 692              		.cfi_offset 8, -8
 693 0458 13040101 		addi	s0,sp,16
 694              		.cfi_def_cfa 8, 0
 120:src/consoleUtil.cpp ****     asm("li a0, 0x43");
 695              		.loc 1 120 5
 696              		.loc 1 120 23 is_stmt 0
 697              	#APP
 698              	# 120 "src/consoleUtil.cpp" 1
 121              	
 122:src/consoleUtil.cpp ****     asm("ecall");
 699              		li a0, 0x43
 700              	# 0 "" 2
 701              		.loc 1 122 5 is_stmt 1
 702              		.loc 1 122 17 is_stmt 0
 703              	# 122 "src/consoleUtil.cpp" 1
 123              	
 124:src/consoleUtil.cpp ****     uint64 status;
 704              		ecall
GAS LISTING /tmp/ccRTmtOs.s 			page 16


 705              	# 0 "" 2
 706              		.loc 1 124 5 is_stmt 1
 125:src/consoleUtil.cpp **** 
 126:src/consoleUtil.cpp ****     asm("mv %0, a0" : [status] "=r" (status));
 707              		.loc 1 126 5
 708              		.loc 1 126 46 is_stmt 0
 709              	# 126 "src/consoleUtil.cpp" 1
 127              	
 710              		mv a0, a0
 711              	# 0 "" 2
 712              	.LVL48:
 128:src/consoleUtil.cpp ****     return (char)status;
 713              		.loc 1 128 5 is_stmt 1
 129:src/consoleUtil.cpp **** }
 714              		.loc 1 129 1 is_stmt 0
 715              	#NO_APP
 716 0468 1375F50F 		andi	a0,a0,0xff
 717              	.LVL49:
 718 046c 03348100 		ld	s0,8(sp)
 719              		.cfi_restore 8
 720              		.cfi_def_cfa 2, 16
 721 0470 13010101 		addi	sp,sp,16
 722              		.cfi_def_cfa_offset 0
 723 0474 67800000 		jr	ra
 724              		.cfi_endproc
 725              	.LFE30:
 727              		.globl	_ZN11ConsoleUtil12outputBufferE
 728              		.globl	_ZN11ConsoleUtil11inputBufferE
 729              		.globl	_ZN11ConsoleUtil8inputSemE
 730              		.globl	_ZN11ConsoleUtil9outputSemE
 731              		.globl	_ZN11ConsoleUtil11pendingPutcE
 732              		.globl	_ZN11ConsoleUtil11pendingGetcE
 733              		.globl	_ZN11ConsoleUtil10outputTailE
 734              		.globl	_ZN11ConsoleUtil10outputHeadE
 735              		.globl	_ZN11ConsoleUtil9inputTailE
 736              		.globl	_ZN11ConsoleUtil9inputHeadE
 737              		.bss
 738              		.align	3
 739              		.set	.LANCHOR0,. + 0
 742              	_ZN11ConsoleUtil8inputSemE:
 743 0000 00000000 		.zero	8
 743      00000000 
 746              	_ZN11ConsoleUtil9outputSemE:
 747 0008 00000000 		.zero	8
 747      00000000 
 750              	_ZN11ConsoleUtil11inputBufferE:
 751 0010 00000000 		.zero	8
 751      00000000 
 754              	_ZN11ConsoleUtil12outputBufferE:
 755 0018 00000000 		.zero	8
 755      00000000 
 758              	_ZN11ConsoleUtil9inputTailE:
 759 0020 00000000 		.zero	8
 759      00000000 
 762              	_ZN11ConsoleUtil9inputHeadE:
 763 0028 00000000 		.zero	8
 763      00000000 
GAS LISTING /tmp/ccRTmtOs.s 			page 17


 766              	_ZN11ConsoleUtil11pendingPutcE:
 767 0030 00000000 		.zero	8
 767      00000000 
 770              	_ZN11ConsoleUtil10outputTailE:
 771 0038 00000000 		.zero	8
 771      00000000 
 774              	_ZN11ConsoleUtil10outputHeadE:
 775 0040 00000000 		.zero	8
 775      00000000 
 778              	_ZN11ConsoleUtil11pendingGetcE:
 779 0048 00000000 		.zero	8
 779      00000000 
 780              		.text
 781              	.Letext0:
 782              		.file 2 "src/../h/../lib/hw.h"
 783              		.file 3 "src/../h/consoleUtil.hpp"
 784              		.file 4 "src/../h/scb.hpp"
 785              		.file 5 "src/../h/../h/../h/../h/utility.hpp"
 786              		.file 6 "src/../h/../h/../h/../h/../h/slab_t.hpp"
 787              		.file 7 "src/../h/../h/../h/../h/cache_t.hpp"
 788              		.file 8 "src/../h/tcb.hpp"
 789              		.file 9 "src/../h/../h/slab.hpp"
 3758              		.align	3
 3761              	DW.ref.__gxx_personality_v0:
 3762 0000 00000000 		.dword	__gxx_personality_v0
 3762      00000000 
 3763              		.ident	"GCC: (Ubuntu 9.4.0-1ubuntu1~20.04) 9.4.0"
 3764              		.section	.note.GNU-stack,"",@progbits
GAS LISTING /tmp/ccRTmtOs.s 			page 18

