GAS LISTING /tmp/cc6CpRG5.s 			page 1


   1              		.file	"memoryAllocator.cpp"
   2              		.option pic
   3              		.option norelax
   4              		.text
   5              	.Ltext0:
   6              		.align	2
   7              		.globl	_ZN15MemoryAllocator10initializeEv
   9              	_ZN15MemoryAllocator10initializeEv:
  10              	.LFB15:
  11              		.file 1 "src/memoryAllocator.cpp"
   1:src/memoryAllocator.cpp **** //
   2:src/memoryAllocator.cpp **** // Created by os on 5/15/22.
   3:src/memoryAllocator.cpp **** //
   4:src/memoryAllocator.cpp **** #include "../h/memoryAllocator.hpp"
   5:src/memoryAllocator.cpp **** #include "../h/printing.hpp"
   6:src/memoryAllocator.cpp **** #include "../h/buddyAllocator.hpp"
   7:src/memoryAllocator.cpp **** 
   8:src/memoryAllocator.cpp **** MemoryAllocator::BlockHeader* MemoryAllocator::freeMemHead = nullptr;
   9:src/memoryAllocator.cpp **** 
  10:src/memoryAllocator.cpp **** MemoryAllocator::BlockHeader* MemoryAllocator::allocMemHead = nullptr;
  11:src/memoryAllocator.cpp **** 
  12:src/memoryAllocator.cpp **** MemoryAllocator::BlockHeader* MemoryAllocator::freeMemTail = nullptr;
  13:src/memoryAllocator.cpp **** 
  14:src/memoryAllocator.cpp **** MemoryAllocator::BlockHeader* MemoryAllocator::allocMemTail = nullptr;
  15:src/memoryAllocator.cpp **** 
  16:src/memoryAllocator.cpp **** bool MemoryAllocator::initialized = false;
  17:src/memoryAllocator.cpp **** 
  18:src/memoryAllocator.cpp **** //initialize MemoryAllocator class
  19:src/memoryAllocator.cpp **** //forbid multiple initializations
  20:src/memoryAllocator.cpp **** //initial size of free memory is freeMemHead->size
  21:src/memoryAllocator.cpp **** void MemoryAllocator::initialize() {
  12              		.loc 1 21 36
  13              		.cfi_startproc
  14 0000 130101FF 		addi	sp,sp,-16
  15              		.cfi_def_cfa_offset 16
  16 0004 23348100 		sd	s0,8(sp)
  17              		.cfi_offset 8, -8
  18 0008 13040101 		addi	s0,sp,16
  19              		.cfi_def_cfa 8, 0
  22:src/memoryAllocator.cpp ****     freeMemHead = freeMemTail = (BlockHeader*)FREE_MEMORY_START_CONST;
  20              		.loc 1 22 5
  21              		.loc 1 22 47 is_stmt 0
  22 000c 97070000 		la	a5,HEAP_START_ADDR
  22      83B70700 
  23 0014 03B60700 		ld	a2,0(a5)
  24 0018 9357C600 		srli	a5,a2,12
  25 001c 93872700 		addi	a5,a5,2
  26 0020 9397C700 		slli	a5,a5,12
  27 0024 37070001 		li	a4,16777216
  28 0028 B387E700 		add	a5,a5,a4
  29              		.loc 1 22 31
  30 002c 17070000 		lla	a4,.LANCHOR0
  30      13070700 
  31 0034 2330F700 		sd	a5,0(a4)
  32              		.loc 1 22 17
  33 0038 2334F700 		sd	a5,8(a4)
  23:src/memoryAllocator.cpp **** 
GAS LISTING /tmp/cc6CpRG5.s 			page 2


  24:src/memoryAllocator.cpp ****     freeMemHead->prev = freeMemHead->next = freeMemTail->prev = freeMemTail->next = nullptr;
  34              		.loc 1 24 5 is_stmt 1
  35              		.loc 1 24 83 is_stmt 0
  36 003c 23B80700 		sd	zero,16(a5)
  37              		.loc 1 24 63
  38 0040 23B40700 		sd	zero,8(a5)
  25:src/memoryAllocator.cpp **** 
  26:src/memoryAllocator.cpp ****     allocMemHead = allocMemTail = nullptr;
  39              		.loc 1 26 5 is_stmt 1
  40              		.loc 1 26 33 is_stmt 0
  41 0044 23380700 		sd	zero,16(a4)
  42              		.loc 1 26 18
  43 0048 233C0700 		sd	zero,24(a4)
  27:src/memoryAllocator.cpp **** 
  28:src/memoryAllocator.cpp ****     freeMemHead->size = (char*)HEAP_END_ADDR - (char*)HEAP_START_ADDR - sizeof(BlockHeader);
  44              		.loc 1 28 5 is_stmt 1
  45              		.loc 1 28 25 is_stmt 0
  46 004c 97060000 		la	a3,HEAP_END_ADDR
  46      83B60600 
  47 0054 83B60600 		ld	a3,0(a3)
  48              		.loc 1 28 46
  49 0058 B386C640 		sub	a3,a3,a2
  50              		.loc 1 28 71
  51 005c 938686FE 		addi	a3,a3,-24
  52              		.loc 1 28 23
  53 0060 23B0D700 		sd	a3,0(a5)
  29:src/memoryAllocator.cpp **** 
  30:src/memoryAllocator.cpp ****     freeMemHead->next = nullptr;
  54              		.loc 1 30 5 is_stmt 1
  55              		.loc 1 30 18 is_stmt 0
  56 0064 83378700 		ld	a5,8(a4)
  57              		.loc 1 30 23
  58 0068 23B80700 		sd	zero,16(a5)
  31:src/memoryAllocator.cpp **** 
  32:src/memoryAllocator.cpp ****     initialized = true;
  59              		.loc 1 32 5 is_stmt 1
  60              		.loc 1 32 17 is_stmt 0
  61 006c 93071000 		li	a5,1
  62 0070 2300F702 		sb	a5,32(a4)
  33:src/memoryAllocator.cpp **** }
  63              		.loc 1 33 1
  64 0074 03348100 		ld	s0,8(sp)
  65              		.cfi_restore 8
  66              		.cfi_def_cfa 2, 16
  67 0078 13010101 		addi	sp,sp,16
  68              		.cfi_def_cfa_offset 0
  69 007c 67800000 		jr	ra
  70              		.cfi_endproc
  71              	.LFE15:
  73              		.align	2
  74              		.globl	_ZN15MemoryAllocator7kmallocEm
  76              	_ZN15MemoryAllocator7kmallocEm:
  77              	.LFB16:
  34:src/memoryAllocator.cpp **** 
  35:src/memoryAllocator.cpp **** void* MemoryAllocator::kmalloc(size_t size){
  78              		.loc 1 35 44 is_stmt 1
  79              		.cfi_startproc
GAS LISTING /tmp/cc6CpRG5.s 			page 3


  80              	.LVL0:
  81 0080 130101FF 		addi	sp,sp,-16
  82              		.cfi_def_cfa_offset 16
  83 0084 23348100 		sd	s0,8(sp)
  84              		.cfi_offset 8, -8
  85 0088 13040101 		addi	s0,sp,16
  86              		.cfi_def_cfa 8, 0
  36:src/memoryAllocator.cpp ****     if(size<=0 || freeMemHead == nullptr)
  87              		.loc 1 36 5
  88 008c 63020514 		beqz	a0,.L16
  89 0090 93070500 		mv	a5,a0
  90              		.loc 1 36 31 is_stmt 0 discriminator 1
  91 0094 17050000 		ld	a0,.LANCHOR0+8
  91      03350500 
  92              	.LVL1:
  93              		.loc 1 36 16 discriminator 1
  94 009c 630A050A 		beqz	a0,.L3
  37:src/memoryAllocator.cpp ****         return nullptr;
  38:src/memoryAllocator.cpp **** 
  39:src/memoryAllocator.cpp ****     size_t byteSize = size * MEM_BLOCK_SIZE; //size of requested chunk in bytes   //NOTE: argument 
  95              		.loc 1 39 5 is_stmt 1
  96              		.loc 1 39 12 is_stmt 0
  97 00a0 93976700 		slli	a5,a5,6
  98              	.LVL2:
  40:src/memoryAllocator.cpp **** 
  41:src/memoryAllocator.cpp ****     BlockHeader* blk = freeMemHead, *prev = nullptr;
  99              		.loc 1 41 5 is_stmt 1
 100              		.loc 1 41 38 is_stmt 0
 101 00a4 13060000 		li	a2,0
 102 00a8 6F00C000 		j	.L6
 103              	.LVL3:
 104              	.L18:
  42:src/memoryAllocator.cpp **** 
  43:src/memoryAllocator.cpp ****     for(; blk!=nullptr; prev = blk, blk = blk->next) {
 105              		.loc 1 43 5 is_stmt 1
 106              		.loc 1 43 30 is_stmt 0
 107 00ac 13060500 		mv	a2,a0
 108              		.loc 1 43 41
 109 00b0 03350501 		ld	a0,16(a0)
 110              	.LVL4:
 111              	.L6:
 112              		.loc 1 43 5 is_stmt 1 discriminator 1
 113              		.loc 1 43 14 discriminator 1
 114 00b4 63080500 		beqz	a0,.L5
  44:src/memoryAllocator.cpp ****         if (blk->size >= byteSize + sizeof(BlockHeader))
 115              		.loc 1 44 9
 116              		.loc 1 44 18 is_stmt 0
 117 00b8 83360500 		ld	a3,0(a0)
 118              		.loc 1 44 35
 119 00bc 13878701 		addi	a4,a5,24
 120              		.loc 1 44 9
 121 00c0 E3E6E6FE 		bltu	a3,a4,.L18
 122              	.L5:
  45:src/memoryAllocator.cpp ****             break;            //iterate through the list and find the first fitting block of free m
  46:src/memoryAllocator.cpp ****     }
  47:src/memoryAllocator.cpp **** 
  48:src/memoryAllocator.cpp ****     if(blk != nullptr){
GAS LISTING /tmp/cc6CpRG5.s 			page 4


 123              		.loc 1 48 5 is_stmt 1
 124              	.LBB2:
 125 00c4 63060508 		beqz	a0,.L3
 126              	.LBB3:
  49:src/memoryAllocator.cpp ****         BlockHeader* newBlk;
 127              		.loc 1 49 9
  50:src/memoryAllocator.cpp ****         BlockHeader *nextAllocated;
 128              		.loc 1 50 9
  51:src/memoryAllocator.cpp **** 
  52:src/memoryAllocator.cpp ****         if((char*)blk + blk->size + sizeof(BlockHeader) <HEAP_END_ADDR)
 129              		.loc 1 52 9
 130              		.loc 1 52 30 is_stmt 0
 131 00c8 83360500 		ld	a3,0(a0)
 132              		.loc 1 52 35
 133 00cc 13878601 		addi	a4,a3,24
 134 00d0 3307E500 		add	a4,a0,a4
 135              		.loc 1 52 57
 136 00d4 97050000 		la	a1,HEAP_END_ADDR
 136      83B50500 
 137 00dc 83B50500 		ld	a1,0(a1)
 138              		.loc 1 52 9
 139 00e0 6364B700 		bltu	a4,a1,.L7
  53:src/memoryAllocator.cpp ****             nextAllocated = (BlockHeader*)((char*)blk + blk->size + sizeof(BlockHeader));
  54:src/memoryAllocator.cpp ****         else
  55:src/memoryAllocator.cpp ****             nextAllocated = nullptr;
 140              		.loc 1 55 27
 141 00e4 13070000 		li	a4,0
 142              	.L7:
 143              	.LVL5:
  56:src/memoryAllocator.cpp **** 
  57:src/memoryAllocator.cpp ****         size_t remainingSize = blk->size - byteSize;
 144              		.loc 1 57 9 is_stmt 1
 145              		.loc 1 57 16 is_stmt 0
 146 00e8 B386F640 		sub	a3,a3,a5
 147              	.LVL6:
  58:src/memoryAllocator.cpp **** 
  59:src/memoryAllocator.cpp ****         if(remainingSize >= sizeof(BlockHeader) + MEM_BLOCK_SIZE){    //check whether a large enoug
 148              		.loc 1 59 9 is_stmt 1
 149              	.LBB4:
 150 00ec 93057005 		li	a1,87
 151 00f0 63F0D508 		bleu	a3,a1,.L8
 152              	.LBB5:
  60:src/memoryAllocator.cpp **** 
  61:src/memoryAllocator.cpp ****             blk->size = byteSize;
 153              		.loc 1 61 13
 154              		.loc 1 61 23 is_stmt 0
 155 00f4 2330F500 		sd	a5,0(a0)
  62:src/memoryAllocator.cpp ****             size_t offset = sizeof(BlockHeader) + byteSize;   //offset for new freeMem chunk
 156              		.loc 1 62 13 is_stmt 1
 157              		.loc 1 62 20 is_stmt 0
 158 00f8 93878701 		addi	a5,a5,24
 159              	.LVL7:
  63:src/memoryAllocator.cpp ****             newBlk = (BlockHeader*)((char*)blk + offset);
 160              		.loc 1 63 13 is_stmt 1
 161              		.loc 1 63 20 is_stmt 0
 162 00fc B307F500 		add	a5,a0,a5
 163              	.LVL8:
GAS LISTING /tmp/cc6CpRG5.s 			page 5


  64:src/memoryAllocator.cpp ****             newBlk->next = blk->next;
 164              		.loc 1 64 13 is_stmt 1
 165              		.loc 1 64 33 is_stmt 0
 166 0100 83350501 		ld	a1,16(a0)
 167              		.loc 1 64 26
 168 0104 23B8B700 		sd	a1,16(a5)
 169              	.LVL9:
  65:src/memoryAllocator.cpp ****             newBlk->prev = blk->prev;
 170              		.loc 1 65 13 is_stmt 1
 171              		.loc 1 65 33 is_stmt 0
 172 0108 83358500 		ld	a1,8(a0)
 173              		.loc 1 65 26
 174 010c 23B4B700 		sd	a1,8(a5)
  66:src/memoryAllocator.cpp ****             newBlk->size = remainingSize - sizeof(BlockHeader);
 175              		.loc 1 66 13 is_stmt 1
 176              		.loc 1 66 42 is_stmt 0
 177 0110 938686FE 		addi	a3,a3,-24
 178              	.LVL10:
 179              		.loc 1 66 26
 180 0114 23B0D700 		sd	a3,0(a5)
  67:src/memoryAllocator.cpp **** 
  68:src/memoryAllocator.cpp ****             if(prev)
 181              		.loc 1 68 13 is_stmt 1
 182 0118 63020604 		beqz	a2,.L9
  69:src/memoryAllocator.cpp ****                 prev->next = newBlk;
 183              		.loc 1 69 17
 184              		.loc 1 69 28 is_stmt 0
 185 011c 2338F600 		sd	a5,16(a2)
 186              	.LVL11:
 187              	.L10:
 188              	.LBE5:
 189              	.LBE4:
  70:src/memoryAllocator.cpp ****             else {
  71:src/memoryAllocator.cpp ****                 freeMemHead = freeMemTail = newBlk;
  72:src/memoryAllocator.cpp ****             }
  73:src/memoryAllocator.cpp ****         }
  74:src/memoryAllocator.cpp ****         else{
  75:src/memoryAllocator.cpp ****             // No remaining fragment, allocate the entire block
  76:src/memoryAllocator.cpp ****             if (prev) prev->next = blk->next;
  77:src/memoryAllocator.cpp ****             else freeMemHead = blk->next;
  78:src/memoryAllocator.cpp ****         }
  79:src/memoryAllocator.cpp **** 
  80:src/memoryAllocator.cpp ****         if(allocMemHead == nullptr){
 190              		.loc 1 80 9 is_stmt 1
 191              		.loc 1 80 25 is_stmt 0
 192 0120 97070000 		ld	a5,.LANCHOR0+24
 192      83B70700 
 193              		.loc 1 80 9
 194 0128 63840706 		beqz	a5,.L19
  81:src/memoryAllocator.cpp ****             allocMemHead = allocMemTail = blk;
  82:src/memoryAllocator.cpp ****         }
  83:src/memoryAllocator.cpp ****         else{
  84:src/memoryAllocator.cpp **** 
  85:src/memoryAllocator.cpp ****             blk->next = nextAllocated;
 195              		.loc 1 85 13 is_stmt 1
 196              		.loc 1 85 23 is_stmt 0
 197 012c 2338E500 		sd	a4,16(a0)
GAS LISTING /tmp/cc6CpRG5.s 			page 6


  86:src/memoryAllocator.cpp **** 
  87:src/memoryAllocator.cpp ****             if(nextAllocated){
 198              		.loc 1 87 13 is_stmt 1
 199 0130 63000708 		beqz	a4,.L14
  88:src/memoryAllocator.cpp ****                 blk->prev = nextAllocated->prev;
 200              		.loc 1 88 17
 201              		.loc 1 88 44 is_stmt 0
 202 0134 83378700 		ld	a5,8(a4)
 203              		.loc 1 88 27
 204 0138 2334F500 		sd	a5,8(a0)
  89:src/memoryAllocator.cpp ****                 blk->prev->next = blk;
 205              		.loc 1 89 17 is_stmt 1
 206              		.loc 1 89 33 is_stmt 0
 207 013c 23B8A700 		sd	a0,16(a5)
  90:src/memoryAllocator.cpp ****                 if(nextAllocated->prev)
 208              		.loc 1 90 17 is_stmt 1
 209              		.loc 1 90 35 is_stmt 0
 210 0140 83378700 		ld	a5,8(a4)
 211              		.loc 1 90 17
 212 0144 63800706 		beqz	a5,.L15
  91:src/memoryAllocator.cpp ****                     nextAllocated->prev = blk;
 213              		.loc 1 91 21 is_stmt 1
 214              		.loc 1 91 41 is_stmt 0
 215 0148 2334A700 		sd	a0,8(a4)
 216              	.LVL12:
 217              	.L13:
  92:src/memoryAllocator.cpp ****                 else
  93:src/memoryAllocator.cpp ****                     allocMemHead = blk;
  94:src/memoryAllocator.cpp ****             }
  95:src/memoryAllocator.cpp ****             else{
  96:src/memoryAllocator.cpp ****                 allocMemTail->next = blk;
  97:src/memoryAllocator.cpp ****                 blk->prev = allocMemTail;
  98:src/memoryAllocator.cpp ****                 blk->next = nullptr;
  99:src/memoryAllocator.cpp ****                 allocMemTail = blk;
 100:src/memoryAllocator.cpp ****             }
 101:src/memoryAllocator.cpp ****         }
 102:src/memoryAllocator.cpp **** 
 103:src/memoryAllocator.cpp ****         return (char*)blk + sizeof(BlockHeader);    //return address of start of the data block, no
 218              		.loc 1 103 9 is_stmt 1
 219              		.loc 1 103 47 is_stmt 0
 220 014c 13058501 		addi	a0,a0,24
 221              	.LVL13:
 222              	.L3:
 223              	.LBE3:
 224              	.LBE2:
 104:src/memoryAllocator.cpp ****     }
 105:src/memoryAllocator.cpp **** 
 106:src/memoryAllocator.cpp ****     return nullptr;
 107:src/memoryAllocator.cpp **** }
 225              		.loc 1 107 1
 226 0150 03348100 		ld	s0,8(sp)
 227              		.cfi_remember_state
 228              		.cfi_restore 8
 229              		.cfi_def_cfa 2, 16
 230 0154 13010101 		addi	sp,sp,16
 231              		.cfi_def_cfa_offset 0
 232 0158 67800000 		jr	ra
GAS LISTING /tmp/cc6CpRG5.s 			page 7


 233              	.LVL14:
 234              	.L9:
 235              		.cfi_restore_state
 236              	.LBB9:
 237              	.LBB8:
 238              	.LBB7:
 239              	.LBB6:
  71:src/memoryAllocator.cpp ****             }
 240              		.loc 1 71 17 is_stmt 1
  71:src/memoryAllocator.cpp ****             }
 241              		.loc 1 71 43 is_stmt 0
 242 015c 97060000 		lla	a3,.LANCHOR0
 242      93860600 
 243              	.LVL15:
 244 0164 23B0F600 		sd	a5,0(a3)
 245              	.LVL16:
  71:src/memoryAllocator.cpp ****             }
 246              		.loc 1 71 29
 247 0168 23B4F600 		sd	a5,8(a3)
 248 016c 6FF05FFB 		j	.L10
 249              	.LVL17:
 250              	.L8:
 251              	.LBE6:
  76:src/memoryAllocator.cpp ****             else freeMemHead = blk->next;
 252              		.loc 1 76 13 is_stmt 1
 253 0170 63080600 		beqz	a2,.L11
  76:src/memoryAllocator.cpp ****             else freeMemHead = blk->next;
 254              		.loc 1 76 23 discriminator 1
  76:src/memoryAllocator.cpp ****             else freeMemHead = blk->next;
 255              		.loc 1 76 41 is_stmt 0 discriminator 1
 256 0174 83370501 		ld	a5,16(a0)
 257              	.LVL18:
  76:src/memoryAllocator.cpp ****             else freeMemHead = blk->next;
 258              		.loc 1 76 34 discriminator 1
 259 0178 2338F600 		sd	a5,16(a2)
 260 017c 6FF05FFA 		j	.L10
 261              	.LVL19:
 262              	.L11:
  77:src/memoryAllocator.cpp ****         }
 263              		.loc 1 77 18 is_stmt 1
  77:src/memoryAllocator.cpp ****         }
 264              		.loc 1 77 37 is_stmt 0
 265 0180 83370501 		ld	a5,16(a0)
 266              	.LVL20:
  77:src/memoryAllocator.cpp ****         }
 267              		.loc 1 77 30
 268 0184 97060000 		sd	a5,.LANCHOR0+8,a3
 268      23B0F600 
 269              	.LVL21:
 270 018c 6FF05FF9 		j	.L10
 271              	.L19:
 272              	.LBE7:
  81:src/memoryAllocator.cpp ****         }
 273              		.loc 1 81 13 is_stmt 1
  81:src/memoryAllocator.cpp ****         }
 274              		.loc 1 81 41 is_stmt 0
 275 0190 97070000 		lla	a5,.LANCHOR0
GAS LISTING /tmp/cc6CpRG5.s 			page 8


 275      93870700 
 276 0198 23B8A700 		sd	a0,16(a5)
  81:src/memoryAllocator.cpp ****         }
 277              		.loc 1 81 26
 278 019c 23BCA700 		sd	a0,24(a5)
 279 01a0 6FF0DFFA 		j	.L13
 280              	.L15:
  93:src/memoryAllocator.cpp ****             }
 281              		.loc 1 93 21 is_stmt 1
  93:src/memoryAllocator.cpp ****             }
 282              		.loc 1 93 34 is_stmt 0
 283 01a4 97070000 		sd	a0,.LANCHOR0+24,a5
 283      23B0A700 
 284 01ac 6FF01FFA 		j	.L13
 285              	.L14:
  96:src/memoryAllocator.cpp ****                 blk->prev = allocMemTail;
 286              		.loc 1 96 17 is_stmt 1
  96:src/memoryAllocator.cpp ****                 blk->prev = allocMemTail;
 287              		.loc 1 96 31 is_stmt 0
 288 01b0 97070000 		lla	a5,.LANCHOR0
 288      93870700 
 289 01b8 03B70701 		ld	a4,16(a5)
 290              	.LVL22:
  96:src/memoryAllocator.cpp ****                 blk->prev = allocMemTail;
 291              		.loc 1 96 36
 292 01bc 2338A700 		sd	a0,16(a4)
 293              	.LVL23:
  97:src/memoryAllocator.cpp ****                 blk->next = nullptr;
 294              		.loc 1 97 17 is_stmt 1
  97:src/memoryAllocator.cpp ****                 blk->next = nullptr;
 295              		.loc 1 97 27 is_stmt 0
 296 01c0 2334E500 		sd	a4,8(a0)
  98:src/memoryAllocator.cpp ****                 allocMemTail = blk;
 297              		.loc 1 98 17 is_stmt 1
  98:src/memoryAllocator.cpp ****                 allocMemTail = blk;
 298              		.loc 1 98 27 is_stmt 0
 299 01c4 23380500 		sd	zero,16(a0)
  99:src/memoryAllocator.cpp ****             }
 300              		.loc 1 99 17 is_stmt 1
  99:src/memoryAllocator.cpp ****             }
 301              		.loc 1 99 30 is_stmt 0
 302 01c8 23B8A700 		sd	a0,16(a5)
 303 01cc 6FF01FF8 		j	.L13
 304              	.LVL24:
 305              	.L16:
 306              	.LBE8:
 307              	.LBE9:
  37:src/memoryAllocator.cpp **** 
 308              		.loc 1 37 16
 309 01d0 13050000 		li	a0,0
 310              	.LVL25:
 311 01d4 6FF0DFF7 		j	.L3
 312              		.cfi_endproc
 313              	.LFE16:
 315              		.align	2
 316              		.globl	_ZN15MemoryAllocator14insertAndMergeEPvPPNS_11BlockHeaderE
 318              	_ZN15MemoryAllocator14insertAndMergeEPvPPNS_11BlockHeaderE:
GAS LISTING /tmp/cc6CpRG5.s 			page 9


 319              	.LFB18:
 108:src/memoryAllocator.cpp **** 
 109:src/memoryAllocator.cpp **** //uint64 MemoryAllocator::kfree(void* ptr){
 110:src/memoryAllocator.cpp **** //    BlockHeader *blk = allocMemHead;
 111:src/memoryAllocator.cpp **** //
 112:src/memoryAllocator.cpp **** //    for(; blk != nullptr;blk = blk->next)
 113:src/memoryAllocator.cpp **** //        if((char*)ptr - sizeof(BlockHeader) == (char*)blk) break;
 114:src/memoryAllocator.cpp **** //
 115:src/memoryAllocator.cpp **** //    if(blk == nullptr)
 116:src/memoryAllocator.cpp **** //        return -1;
 117:src/memoryAllocator.cpp **** //    else{
 118:src/memoryAllocator.cpp **** //
 119:src/memoryAllocator.cpp **** //        BlockHeader *iter = blk;
 120:src/memoryAllocator.cpp **** //
 121:src/memoryAllocator.cpp **** //        while((char*)iter+iter->size+sizeof(BlockHeader) == (char*)(iter->next))
 122:src/memoryAllocator.cpp **** //            iter=iter->next;
 123:src/memoryAllocator.cpp **** //
 124:src/memoryAllocator.cpp **** //        BlockHeader *nextFree;
 125:src/memoryAllocator.cpp **** //
 126:src/memoryAllocator.cpp **** //        if((char*)iter + iter->size + sizeof(BlockHeader) < HEAP_END_ADDR)
 127:src/memoryAllocator.cpp **** //            nextFree = (BlockHeader*)((char*)iter + iter->size + sizeof(BlockHeader));
 128:src/memoryAllocator.cpp **** //        else
 129:src/memoryAllocator.cpp **** //            nextFree = nullptr;
 130:src/memoryAllocator.cpp **** //
 131:src/memoryAllocator.cpp **** //        if(blk->prev)
 132:src/memoryAllocator.cpp **** //            blk->prev->next = blk->next;
 133:src/memoryAllocator.cpp **** //        else
 134:src/memoryAllocator.cpp **** //            allocMemHead = blk->next;
 135:src/memoryAllocator.cpp **** //
 136:src/memoryAllocator.cpp **** //        if(blk->next)
 137:src/memoryAllocator.cpp **** //            blk->next->prev = blk->prev;
 138:src/memoryAllocator.cpp **** //        else
 139:src/memoryAllocator.cpp **** //            allocMemTail = blk->prev;
 140:src/memoryAllocator.cpp **** //
 141:src/memoryAllocator.cpp **** //        blk->next = nextFree;
 142:src/memoryAllocator.cpp **** //
 143:src/memoryAllocator.cpp **** //        if(nextFree->prev) {
 144:src/memoryAllocator.cpp **** //            blk->prev = nextFree->prev;
 145:src/memoryAllocator.cpp **** //            nextFree->prev->next = blk;
 146:src/memoryAllocator.cpp **** //        }
 147:src/memoryAllocator.cpp **** //        else {
 148:src/memoryAllocator.cpp **** //            freeMemHead = blk;
 149:src/memoryAllocator.cpp **** //            blk->prev = nullptr;
 150:src/memoryAllocator.cpp **** //        }
 151:src/memoryAllocator.cpp **** //
 152:src/memoryAllocator.cpp **** //        nextFree->prev = blk;
 153:src/memoryAllocator.cpp **** //    }
 154:src/memoryAllocator.cpp **** //    return 0;
 155:src/memoryAllocator.cpp **** //}
 156:src/memoryAllocator.cpp **** 
 157:src/memoryAllocator.cpp **** uint64 MemoryAllocator::kfree(void* ptr){
 158:src/memoryAllocator.cpp ****     BlockHeader *blk = allocMemHead;
 159:src/memoryAllocator.cpp **** 
 160:src/memoryAllocator.cpp ****     for(; blk != nullptr;blk = blk->next)
 161:src/memoryAllocator.cpp ****         if((uint64)ptr - sizeof(BlockHeader) == (uint64)blk) break;
 162:src/memoryAllocator.cpp **** 
 163:src/memoryAllocator.cpp ****     if(blk == nullptr)
GAS LISTING /tmp/cc6CpRG5.s 			page 10


 164:src/memoryAllocator.cpp ****         return -1;
 165:src/memoryAllocator.cpp ****     else{
 166:src/memoryAllocator.cpp ****         if(blk == allocMemTail)
 167:src/memoryAllocator.cpp ****             allocMemTail = blk->prev;
 168:src/memoryAllocator.cpp ****         if(blk == allocMemHead)
 169:src/memoryAllocator.cpp ****             allocMemHead = blk->next;
 170:src/memoryAllocator.cpp **** 
 171:src/memoryAllocator.cpp ****         if(blk->next)
 172:src/memoryAllocator.cpp ****             blk->next->prev = blk->prev;
 173:src/memoryAllocator.cpp ****         if(blk->prev)
 174:src/memoryAllocator.cpp ****             blk->prev->next = blk->next;
 175:src/memoryAllocator.cpp **** 
 176:src/memoryAllocator.cpp ****         insertAndMerge(blk, &freeMemHead);
 177:src/memoryAllocator.cpp ****     }
 178:src/memoryAllocator.cpp ****     return 0;
 179:src/memoryAllocator.cpp **** }
 180:src/memoryAllocator.cpp **** 
 181:src/memoryAllocator.cpp **** void MemoryAllocator::insertAndMerge(void *addr, BlockHeader **head) {   //insert a fragment from g
 320              		.loc 1 181 70 is_stmt 1
 321              		.cfi_startproc
 322              	.LVL26:
 323 01d8 130101FF 		addi	sp,sp,-16
 324              		.cfi_def_cfa_offset 16
 325 01dc 23348100 		sd	s0,8(sp)
 326              		.cfi_offset 8, -8
 327 01e0 13040101 		addi	s0,sp,16
 328              		.cfi_def_cfa 8, 0
 182:src/memoryAllocator.cpp ****     BlockHeader* blk = (BlockHeader*)addr;
 329              		.loc 1 182 5
 330              	.LVL27:
 183:src/memoryAllocator.cpp ****     BlockHeader* iter = *head, *prev=nullptr;
 331              		.loc 1 183 5
 332              		.loc 1 183 18 is_stmt 0
 333 01e4 83B70500 		ld	a5,0(a1)
 334              	.LVL28:
 184:src/memoryAllocator.cpp **** 
 185:src/memoryAllocator.cpp ****     for(prev = nullptr; iter != nullptr; prev = iter, iter = iter->next)
 335              		.loc 1 185 5 is_stmt 1
 336              		.loc 1 185 14 is_stmt 0
 337 01e8 13070000 		li	a4,0
 338              	.LVL29:
 339              	.L22:
 340              		.loc 1 185 30 is_stmt 1 discriminator 1
 341 01ec 638A0700 		beqz	a5,.L21
 186:src/memoryAllocator.cpp ****         if((uint64)iter >= (uint64)blk) break;
 342              		.loc 1 186 9
 343 01f0 63F8A700 		bgeu	a5,a0,.L21
 185:src/memoryAllocator.cpp ****         if((uint64)iter >= (uint64)blk) break;
 344              		.loc 1 185 5 discriminator 2
 345              	.LVL30:
 185:src/memoryAllocator.cpp ****         if((uint64)iter >= (uint64)blk) break;
 346              		.loc 1 185 47 is_stmt 0 discriminator 2
 347 01f4 13870700 		mv	a4,a5
 185:src/memoryAllocator.cpp ****         if((uint64)iter >= (uint64)blk) break;
 348              		.loc 1 185 60 discriminator 2
 349 01f8 83B70701 		ld	a5,16(a5)
 350              	.LVL31:
GAS LISTING /tmp/cc6CpRG5.s 			page 11


 185:src/memoryAllocator.cpp ****         if((uint64)iter >= (uint64)blk) break;
 351              		.loc 1 185 5 discriminator 2
 352 01fc 6FF01FFF 		j	.L22
 353              	.L21:
 187:src/memoryAllocator.cpp **** 
 188:src/memoryAllocator.cpp ****     blk->next = iter;
 354              		.loc 1 188 5 is_stmt 1
 355              		.loc 1 188 15 is_stmt 0
 356 0200 2338F500 		sd	a5,16(a0)
 189:src/memoryAllocator.cpp ****     blk->prev = prev;
 357              		.loc 1 189 5 is_stmt 1
 358              		.loc 1 189 15 is_stmt 0
 359 0204 2334E500 		sd	a4,8(a0)
 190:src/memoryAllocator.cpp **** 
 191:src/memoryAllocator.cpp ****     if(iter != nullptr)
 360              		.loc 1 191 5 is_stmt 1
 361 0208 63840700 		beqz	a5,.L23
 192:src/memoryAllocator.cpp ****         iter->prev = blk;
 362              		.loc 1 192 9
 363              		.loc 1 192 20 is_stmt 0
 364 020c 23B4A700 		sd	a0,8(a5)
 365              	.L23:
 193:src/memoryAllocator.cpp **** 
 194:src/memoryAllocator.cpp ****     if(prev == nullptr)
 366              		.loc 1 194 5 is_stmt 1
 367 0210 63020702 		beqz	a4,.L29
 195:src/memoryAllocator.cpp ****         *head = blk;
 196:src/memoryAllocator.cpp ****     else
 197:src/memoryAllocator.cpp ****         prev->next = blk;
 368              		.loc 1 197 9
 369              		.loc 1 197 20 is_stmt 0
 370 0214 2338A700 		sd	a0,16(a4)
 371              	.L25:
 198:src/memoryAllocator.cpp **** 
 199:src/memoryAllocator.cpp ****     if(*head == freeMemHead){
 372              		.loc 1 199 5 is_stmt 1
 373              		.loc 1 199 8 is_stmt 0
 374 0218 03B70500 		ld	a4,0(a1)
 375              	.LVL32:
 376              		.loc 1 199 14
 377 021c 97070000 		ld	a5,.LANCHOR0+8
 377      83B70700 
 378              	.LVL33:
 379              		.loc 1 199 5
 380 0224 630CF700 		beq	a4,a5,.L30
 381              	.L20:
 200:src/memoryAllocator.cpp ****         if(blk->next)   //try to merge with next
 201:src/memoryAllocator.cpp ****             if(((uint64)blk + blk->size + sizeof(BlockHeader)) == (uint64)blk->next){
 202:src/memoryAllocator.cpp ****                 blk->size += (uint64)blk->next->size + sizeof(BlockHeader);
 203:src/memoryAllocator.cpp ****                 blk->next = blk->next->next;
 204:src/memoryAllocator.cpp ****             }
 205:src/memoryAllocator.cpp ****         if(blk->prev)   //try to merge with previous
 206:src/memoryAllocator.cpp ****             if(((uint64)blk->prev + sizeof(BlockHeader) + blk->prev->size) == (uint64)blk){
 207:src/memoryAllocator.cpp ****                 blk->prev->size += (size_t)blk->size + sizeof(BlockHeader);
 208:src/memoryAllocator.cpp ****                 blk->prev->next = blk->next;
 209:src/memoryAllocator.cpp ****             }
 210:src/memoryAllocator.cpp ****     }
GAS LISTING /tmp/cc6CpRG5.s 			page 12


 211:src/memoryAllocator.cpp **** }
 382              		.loc 1 211 1
 383 0228 03348100 		ld	s0,8(sp)
 384              		.cfi_remember_state
 385              		.cfi_restore 8
 386              		.cfi_def_cfa 2, 16
 387 022c 13010101 		addi	sp,sp,16
 388              		.cfi_def_cfa_offset 0
 389 0230 67800000 		jr	ra
 390              	.LVL34:
 391              	.L29:
 392              		.cfi_restore_state
 195:src/memoryAllocator.cpp ****     else
 393              		.loc 1 195 9 is_stmt 1
 195:src/memoryAllocator.cpp ****     else
 394              		.loc 1 195 15 is_stmt 0
 395 0234 23B0A500 		sd	a0,0(a1)
 396 0238 6FF01FFE 		j	.L25
 397              	.LVL35:
 398              	.L30:
 200:src/memoryAllocator.cpp ****         if(blk->next)   //try to merge with next
 399              		.loc 1 200 9 is_stmt 1
 200:src/memoryAllocator.cpp ****         if(blk->next)   //try to merge with next
 400              		.loc 1 200 17 is_stmt 0
 401 023c 83370501 		ld	a5,16(a0)
 200:src/memoryAllocator.cpp ****         if(blk->next)   //try to merge with next
 402              		.loc 1 200 9
 403 0240 638A0700 		beqz	a5,.L27
 201:src/memoryAllocator.cpp ****                 blk->size += (uint64)blk->next->size + sizeof(BlockHeader);
 404              		.loc 1 201 13 is_stmt 1
 201:src/memoryAllocator.cpp ****                 blk->size += (uint64)blk->next->size + sizeof(BlockHeader);
 405              		.loc 1 201 36 is_stmt 0
 406 0244 83360500 		ld	a3,0(a0)
 201:src/memoryAllocator.cpp ****                 blk->size += (uint64)blk->next->size + sizeof(BlockHeader);
 407              		.loc 1 201 29
 408 0248 3307D500 		add	a4,a0,a3
 201:src/memoryAllocator.cpp ****                 blk->size += (uint64)blk->next->size + sizeof(BlockHeader);
 409              		.loc 1 201 41
 410 024c 13078701 		addi	a4,a4,24
 201:src/memoryAllocator.cpp ****                 blk->size += (uint64)blk->next->size + sizeof(BlockHeader);
 411              		.loc 1 201 13
 412 0250 630EF702 		beq	a4,a5,.L31
 413              	.L27:
 205:src/memoryAllocator.cpp ****             if(((uint64)blk->prev + sizeof(BlockHeader) + blk->prev->size) == (uint64)blk){
 414              		.loc 1 205 9 is_stmt 1
 205:src/memoryAllocator.cpp ****             if(((uint64)blk->prev + sizeof(BlockHeader) + blk->prev->size) == (uint64)blk){
 415              		.loc 1 205 17 is_stmt 0
 416 0254 83378500 		ld	a5,8(a0)
 205:src/memoryAllocator.cpp ****             if(((uint64)blk->prev + sizeof(BlockHeader) + blk->prev->size) == (uint64)blk){
 417              		.loc 1 205 9
 418 0258 E38807FC 		beqz	a5,.L20
 206:src/memoryAllocator.cpp ****                 blk->prev->size += (size_t)blk->size + sizeof(BlockHeader);
 419              		.loc 1 206 13 is_stmt 1
 206:src/memoryAllocator.cpp ****                 blk->prev->size += (size_t)blk->size + sizeof(BlockHeader);
 420              		.loc 1 206 70 is_stmt 0
 421 025c 83B60700 		ld	a3,0(a5)
 206:src/memoryAllocator.cpp ****                 blk->prev->size += (size_t)blk->size + sizeof(BlockHeader);
GAS LISTING /tmp/cc6CpRG5.s 			page 13


 422              		.loc 1 206 57
 423 0260 3387D700 		add	a4,a5,a3
 424 0264 13078701 		addi	a4,a4,24
 206:src/memoryAllocator.cpp ****                 blk->prev->size += (size_t)blk->size + sizeof(BlockHeader);
 425              		.loc 1 206 13
 426 0268 E310A7FC 		bne	a4,a0,.L20
 207:src/memoryAllocator.cpp ****                 blk->prev->next = blk->next;
 427              		.loc 1 207 17 is_stmt 1
 207:src/memoryAllocator.cpp ****                 blk->prev->next = blk->next;
 428              		.loc 1 207 49 is_stmt 0
 429 026c 03370500 		ld	a4,0(a0)
 207:src/memoryAllocator.cpp ****                 blk->prev->next = blk->next;
 430              		.loc 1 207 33
 431 0270 3387E600 		add	a4,a3,a4
 432 0274 13078701 		addi	a4,a4,24
 433 0278 23B0E700 		sd	a4,0(a5)
 208:src/memoryAllocator.cpp ****             }
 434              		.loc 1 208 17 is_stmt 1
 208:src/memoryAllocator.cpp ****             }
 435              		.loc 1 208 22 is_stmt 0
 436 027c 83378500 		ld	a5,8(a0)
 208:src/memoryAllocator.cpp ****             }
 437              		.loc 1 208 40
 438 0280 03370501 		ld	a4,16(a0)
 208:src/memoryAllocator.cpp ****             }
 439              		.loc 1 208 33
 440 0284 23B8E700 		sd	a4,16(a5)
 441              		.loc 1 211 1
 442 0288 6FF01FFA 		j	.L20
 443              	.L31:
 202:src/memoryAllocator.cpp ****                 blk->next = blk->next->next;
 444              		.loc 1 202 17 is_stmt 1
 202:src/memoryAllocator.cpp ****                 blk->next = blk->next->next;
 445              		.loc 1 202 49 is_stmt 0
 446 028c 03B70700 		ld	a4,0(a5)
 202:src/memoryAllocator.cpp ****                 blk->next = blk->next->next;
 447              		.loc 1 202 27
 448 0290 3387E600 		add	a4,a3,a4
 449 0294 13078701 		addi	a4,a4,24
 450 0298 2330E500 		sd	a4,0(a0)
 203:src/memoryAllocator.cpp ****             }
 451              		.loc 1 203 17 is_stmt 1
 203:src/memoryAllocator.cpp ****             }
 452              		.loc 1 203 40 is_stmt 0
 453 029c 83B70701 		ld	a5,16(a5)
 203:src/memoryAllocator.cpp ****             }
 454              		.loc 1 203 27
 455 02a0 2338F500 		sd	a5,16(a0)
 456 02a4 6FF01FFB 		j	.L27
 457              		.cfi_endproc
 458              	.LFE18:
 460              		.align	2
 461              		.globl	_ZN15MemoryAllocator5kfreeEPv
 463              	_ZN15MemoryAllocator5kfreeEPv:
 464              	.LFB17:
 157:src/memoryAllocator.cpp ****     BlockHeader *blk = allocMemHead;
 465              		.loc 1 157 41 is_stmt 1
GAS LISTING /tmp/cc6CpRG5.s 			page 14


 466              		.cfi_startproc
 467              	.LVL36:
 468 02a8 13070500 		mv	a4,a0
 158:src/memoryAllocator.cpp **** 
 469              		.loc 1 158 5
 158:src/memoryAllocator.cpp **** 
 470              		.loc 1 158 18 is_stmt 0
 471 02ac 97060000 		ld	a3,.LANCHOR0+24
 471      83B60600 
 472              	.LVL37:
 473 02b4 13850600 		mv	a0,a3
 474              	.LVL38:
 475              	.L34:
 160:src/memoryAllocator.cpp ****         if((uint64)ptr - sizeof(BlockHeader) == (uint64)blk) break;
 476              		.loc 1 160 5 is_stmt 1 discriminator 1
 160:src/memoryAllocator.cpp ****         if((uint64)ptr - sizeof(BlockHeader) == (uint64)blk) break;
 477              		.loc 1 160 15 discriminator 1
 478 02b8 630A0500 		beqz	a0,.L33
 161:src/memoryAllocator.cpp **** 
 479              		.loc 1 161 9
 161:src/memoryAllocator.cpp **** 
 480              		.loc 1 161 24 is_stmt 0
 481 02bc 930787FE 		addi	a5,a4,-24
 161:src/memoryAllocator.cpp **** 
 482              		.loc 1 161 9
 483 02c0 6386A700 		beq	a5,a0,.L33
 160:src/memoryAllocator.cpp ****         if((uint64)ptr - sizeof(BlockHeader) == (uint64)blk) break;
 484              		.loc 1 160 5 is_stmt 1
 160:src/memoryAllocator.cpp ****         if((uint64)ptr - sizeof(BlockHeader) == (uint64)blk) break;
 485              		.loc 1 160 30 is_stmt 0
 486 02c4 03350501 		ld	a0,16(a0)
 487              	.LVL39:
 160:src/memoryAllocator.cpp ****         if((uint64)ptr - sizeof(BlockHeader) == (uint64)blk) break;
 488              		.loc 1 160 5
 489 02c8 6FF01FFF 		j	.L34
 490              	.L33:
 163:src/memoryAllocator.cpp ****         return -1;
 491              		.loc 1 163 5 is_stmt 1
 492 02cc 63040508 		beqz	a0,.L40
 157:src/memoryAllocator.cpp ****     BlockHeader *blk = allocMemHead;
 493              		.loc 1 157 41 is_stmt 0
 494 02d0 130101FF 		addi	sp,sp,-16
 495              		.cfi_def_cfa_offset 16
 496 02d4 23341100 		sd	ra,8(sp)
 497 02d8 23308100 		sd	s0,0(sp)
 498              		.cfi_offset 1, -8
 499              		.cfi_offset 8, -16
 500 02dc 13040101 		addi	s0,sp,16
 501              		.cfi_def_cfa 8, 0
 166:src/memoryAllocator.cpp ****             allocMemTail = blk->prev;
 502              		.loc 1 166 9 is_stmt 1
 166:src/memoryAllocator.cpp ****             allocMemTail = blk->prev;
 503              		.loc 1 166 16 is_stmt 0
 504 02e0 97070000 		ld	a5,.LANCHOR0+16
 504      83B70700 
 166:src/memoryAllocator.cpp ****             allocMemTail = blk->prev;
 505              		.loc 1 166 9
GAS LISTING /tmp/cc6CpRG5.s 			page 15


 506 02e8 6386A704 		beq	a5,a0,.L45
 507              	.LVL40:
 508              	.L36:
 168:src/memoryAllocator.cpp ****             allocMemHead = blk->next;
 509              		.loc 1 168 9 is_stmt 1
 510 02ec 630CD504 		beq	a0,a3,.L46
 511              	.L37:
 171:src/memoryAllocator.cpp ****             blk->next->prev = blk->prev;
 512              		.loc 1 171 9
 171:src/memoryAllocator.cpp ****             blk->next->prev = blk->prev;
 513              		.loc 1 171 17 is_stmt 0
 514 02f0 83370501 		ld	a5,16(a0)
 171:src/memoryAllocator.cpp ****             blk->next->prev = blk->prev;
 515              		.loc 1 171 9
 516 02f4 63860700 		beqz	a5,.L38
 172:src/memoryAllocator.cpp ****         if(blk->prev)
 517              		.loc 1 172 13 is_stmt 1
 172:src/memoryAllocator.cpp ****         if(blk->prev)
 518              		.loc 1 172 36 is_stmt 0
 519 02f8 03378500 		ld	a4,8(a0)
 172:src/memoryAllocator.cpp ****         if(blk->prev)
 520              		.loc 1 172 29
 521 02fc 23B4E700 		sd	a4,8(a5)
 522              	.L38:
 173:src/memoryAllocator.cpp ****             blk->prev->next = blk->next;
 523              		.loc 1 173 9 is_stmt 1
 173:src/memoryAllocator.cpp ****             blk->prev->next = blk->next;
 524              		.loc 1 173 17 is_stmt 0
 525 0300 83378500 		ld	a5,8(a0)
 173:src/memoryAllocator.cpp ****             blk->prev->next = blk->next;
 526              		.loc 1 173 9
 527 0304 63860700 		beqz	a5,.L39
 174:src/memoryAllocator.cpp **** 
 528              		.loc 1 174 13 is_stmt 1
 174:src/memoryAllocator.cpp **** 
 529              		.loc 1 174 36 is_stmt 0
 530 0308 03370501 		ld	a4,16(a0)
 174:src/memoryAllocator.cpp **** 
 531              		.loc 1 174 29
 532 030c 23B8E700 		sd	a4,16(a5)
 533              	.L39:
 176:src/memoryAllocator.cpp ****     }
 534              		.loc 1 176 9 is_stmt 1
 176:src/memoryAllocator.cpp ****     }
 535              		.loc 1 176 23 is_stmt 0
 536 0310 97050000 		lla	a1,.LANCHOR0+8
 536      93850500 
 537 0318 97000000 		call	_ZN15MemoryAllocator14insertAndMergeEPvPPNS_11BlockHeaderE
 537      E7800000 
 538              	.LVL41:
 178:src/memoryAllocator.cpp **** }
 539              		.loc 1 178 5 is_stmt 1
 178:src/memoryAllocator.cpp **** }
 540              		.loc 1 178 12 is_stmt 0
 541 0320 13050000 		li	a0,0
 179:src/memoryAllocator.cpp **** 
 542              		.loc 1 179 1
GAS LISTING /tmp/cc6CpRG5.s 			page 16


 543 0324 83308100 		ld	ra,8(sp)
 544              		.cfi_remember_state
 545              		.cfi_restore 1
 546 0328 03340100 		ld	s0,0(sp)
 547              		.cfi_restore 8
 548              		.cfi_def_cfa 2, 16
 549 032c 13010101 		addi	sp,sp,16
 550              		.cfi_def_cfa_offset 0
 551 0330 67800000 		jr	ra
 552              	.LVL42:
 553              	.L45:
 554              		.cfi_restore_state
 167:src/memoryAllocator.cpp ****         if(blk == allocMemHead)
 555              		.loc 1 167 13 is_stmt 1
 167:src/memoryAllocator.cpp ****         if(blk == allocMemHead)
 556              		.loc 1 167 33 is_stmt 0
 557 0334 83378500 		ld	a5,8(a0)
 167:src/memoryAllocator.cpp ****         if(blk == allocMemHead)
 558              		.loc 1 167 26
 559 0338 17070000 		sd	a5,.LANCHOR0+16,a4
 559      2330F700 
 560              	.LVL43:
 561 0340 6FF0DFFA 		j	.L36
 562              	.L46:
 169:src/memoryAllocator.cpp **** 
 563              		.loc 1 169 13 is_stmt 1
 169:src/memoryAllocator.cpp **** 
 564              		.loc 1 169 33 is_stmt 0
 565 0344 83370501 		ld	a5,16(a0)
 169:src/memoryAllocator.cpp **** 
 566              		.loc 1 169 26
 567 0348 17070000 		sd	a5,.LANCHOR0+24,a4
 567      2330F700 
 568 0350 6FF01FFA 		j	.L37
 569              	.LVL44:
 570              	.L40:
 571              		.cfi_def_cfa_register 2
 572              		.cfi_restore 1
 573              		.cfi_restore 8
 164:src/memoryAllocator.cpp ****     else{
 574              		.loc 1 164 17
 575 0354 1305F0FF 		li	a0,-1
 576              	.LVL45:
 179:src/memoryAllocator.cpp **** 
 577              		.loc 1 179 1
 578 0358 67800000 		ret
 579              		.cfi_endproc
 580              	.LFE17:
 582              		.section	.rodata.str1.8,"aMS",@progbits,1
 583              		.align	3
 584              	.LC0:
 585 0000 4E4F5720 		.string	"NOW SHOWING ALLOCATED MEMORY\n"
 585      53484F57 
 585      494E4720 
 585      414C4C4F 
 585      43415445 
 586 001e 0000     		.align	3
GAS LISTING /tmp/cc6CpRG5.s 			page 17


 587              	.LC1:
 588 0020 4E4F5720 		.string	"NOW SHOWING FREE MEMORY\n"
 588      53484F57 
 588      494E4720 
 588      46524545 
 588      204D454D 
 589 0039 00000000 		.align	3
 589      000000
 590              	.LC2:
 591 0040 3D3D3D3D 		.string	"================================================================\n"
 591      3D3D3D3D 
 591      3D3D3D3D 
 591      3D3D3D3D 
 591      3D3D3D3D 
 592              		.text
 593              		.align	2
 594              		.globl	_ZN15MemoryAllocator10showMemoryEv
 596              	_ZN15MemoryAllocator10showMemoryEv:
 597              	.LFB19:
 212:src/memoryAllocator.cpp **** 
 213:src/memoryAllocator.cpp **** void MemoryAllocator::showMemory() {
 598              		.loc 1 213 36 is_stmt 1
 599              		.cfi_startproc
 600 035c 130101FE 		addi	sp,sp,-32
 601              		.cfi_def_cfa_offset 32
 602 0360 233C1100 		sd	ra,24(sp)
 603 0364 23388100 		sd	s0,16(sp)
 604 0368 23349100 		sd	s1,8(sp)
 605              		.cfi_offset 1, -8
 606              		.cfi_offset 8, -16
 607              		.cfi_offset 9, -24
 608 036c 13040102 		addi	s0,sp,32
 609              		.cfi_def_cfa 8, 0
 214:src/memoryAllocator.cpp ****     BlockHeader *iter = allocMemHead;
 610              		.loc 1 214 5
 611              		.loc 1 214 18 is_stmt 0
 612 0370 97040000 		ld	s1,.LANCHOR0+24
 612      83B40400 
 613              	.LVL46:
 215:src/memoryAllocator.cpp ****     printString("NOW SHOWING ALLOCATED MEMORY\n");
 614              		.loc 1 215 5 is_stmt 1
 615              		.loc 1 215 16 is_stmt 0
 616 0378 17050000 		lla	a0,.LC0
 616      13050500 
 617 0380 97000000 		call	_Z11printStringPKc@plt
 617      E7800000 
 618              	.LVL47:
 619              	.L49:
 216:src/memoryAllocator.cpp ****     while(iter!=nullptr){
 620              		.loc 1 216 5 is_stmt 1
 621              		.loc 1 216 15
 622 0388 63860404 		beqz	s1,.L48
 217:src/memoryAllocator.cpp ****         printInt((uint64)iter);
 623              		.loc 1 217 9
 624              		.loc 1 217 17 is_stmt 0
 625 038c 13060000 		li	a2,0
 626 0390 9305A000 		li	a1,10
GAS LISTING /tmp/cc6CpRG5.s 			page 18


 627 0394 1B850400 		sext.w	a0,s1
 628 0398 97000000 		call	_Z8printIntiii@plt
 628      E7800000 
 629              	.LVL48:
 218:src/memoryAllocator.cpp ****         putc(' ');
 630              		.loc 1 218 9 is_stmt 1
 631              		.loc 1 218 13 is_stmt 0
 632 03a0 13050002 		li	a0,32
 633 03a4 97000000 		call	_Z4putcc@plt
 633      E7800000 
 634              	.LVL49:
 219:src/memoryAllocator.cpp ****         printInt(iter->size);
 635              		.loc 1 219 9 is_stmt 1
 636              		.loc 1 219 17 is_stmt 0
 637 03ac 13060000 		li	a2,0
 638 03b0 9305A000 		li	a1,10
 639 03b4 03A50400 		lw	a0,0(s1)
 640 03b8 97000000 		call	_Z8printIntiii@plt
 640      E7800000 
 641              	.LVL50:
 220:src/memoryAllocator.cpp ****         putc('\n');
 642              		.loc 1 220 9 is_stmt 1
 643              		.loc 1 220 13 is_stmt 0
 644 03c0 1305A000 		li	a0,10
 645 03c4 97000000 		call	_Z4putcc@plt
 645      E7800000 
 646              	.LVL51:
 221:src/memoryAllocator.cpp ****         iter=iter->next;
 647              		.loc 1 221 9 is_stmt 1
 648              		.loc 1 221 13 is_stmt 0
 649 03cc 83B40401 		ld	s1,16(s1)
 650              	.LVL52:
 216:src/memoryAllocator.cpp ****         printInt((uint64)iter);
 651              		.loc 1 216 5
 652 03d0 6FF09FFB 		j	.L49
 653              	.L48:
 222:src/memoryAllocator.cpp ****     }
 223:src/memoryAllocator.cpp **** 
 224:src/memoryAllocator.cpp ****     printString("NOW SHOWING FREE MEMORY\n");
 654              		.loc 1 224 5 is_stmt 1
 655              		.loc 1 224 16 is_stmt 0
 656 03d4 17050000 		lla	a0,.LC1
 656      13050500 
 657 03dc 97000000 		call	_Z11printStringPKc@plt
 657      E7800000 
 658              	.LVL53:
 225:src/memoryAllocator.cpp ****     iter = freeMemHead;
 659              		.loc 1 225 5 is_stmt 1
 660              		.loc 1 225 10 is_stmt 0
 661 03e4 97040000 		ld	s1,.LANCHOR0+8
 661      83B40400 
 662              	.LVL54:
 663              	.L51:
 226:src/memoryAllocator.cpp ****     while(iter!=nullptr){
 664              		.loc 1 226 5 is_stmt 1
 665              		.loc 1 226 15
 666 03ec 63860404 		beqz	s1,.L50
GAS LISTING /tmp/cc6CpRG5.s 			page 19


 227:src/memoryAllocator.cpp ****         printInt((uint64)iter);
 667              		.loc 1 227 9
 668              		.loc 1 227 17 is_stmt 0
 669 03f0 13060000 		li	a2,0
 670 03f4 9305A000 		li	a1,10
 671 03f8 1B850400 		sext.w	a0,s1
 672 03fc 97000000 		call	_Z8printIntiii@plt
 672      E7800000 
 673              	.LVL55:
 228:src/memoryAllocator.cpp ****         putc(' ');
 674              		.loc 1 228 9 is_stmt 1
 675              		.loc 1 228 13 is_stmt 0
 676 0404 13050002 		li	a0,32
 677 0408 97000000 		call	_Z4putcc@plt
 677      E7800000 
 678              	.LVL56:
 229:src/memoryAllocator.cpp ****         printInt(iter->size);
 679              		.loc 1 229 9 is_stmt 1
 680              		.loc 1 229 17 is_stmt 0
 681 0410 13060000 		li	a2,0
 682 0414 9305A000 		li	a1,10
 683 0418 03A50400 		lw	a0,0(s1)
 684 041c 97000000 		call	_Z8printIntiii@plt
 684      E7800000 
 685              	.LVL57:
 230:src/memoryAllocator.cpp ****         putc('\n');
 686              		.loc 1 230 9 is_stmt 1
 687              		.loc 1 230 13 is_stmt 0
 688 0424 1305A000 		li	a0,10
 689 0428 97000000 		call	_Z4putcc@plt
 689      E7800000 
 690              	.LVL58:
 231:src/memoryAllocator.cpp ****         iter=iter->next;
 691              		.loc 1 231 9 is_stmt 1
 692              		.loc 1 231 13 is_stmt 0
 693 0430 83B40401 		ld	s1,16(s1)
 694              	.LVL59:
 226:src/memoryAllocator.cpp ****         printInt((uint64)iter);
 695              		.loc 1 226 5
 696 0434 6FF09FFB 		j	.L51
 697              	.L50:
 232:src/memoryAllocator.cpp ****     }
 233:src/memoryAllocator.cpp ****     printString("================================================================\n");
 698              		.loc 1 233 5 is_stmt 1
 699              		.loc 1 233 16 is_stmt 0
 700 0438 17050000 		lla	a0,.LC2
 700      13050500 
 701 0440 97000000 		call	_Z11printStringPKc@plt
 701      E7800000 
 702              	.LVL60:
 234:src/memoryAllocator.cpp **** }
 703              		.loc 1 234 1
 704 0448 83308101 		ld	ra,24(sp)
 705              		.cfi_restore 1
 706 044c 03340101 		ld	s0,16(sp)
 707              		.cfi_restore 8
 708              		.cfi_def_cfa 2, 32
GAS LISTING /tmp/cc6CpRG5.s 			page 20


 709 0450 83348100 		ld	s1,8(sp)
 710              		.cfi_restore 9
 711              	.LVL61:
 712 0454 13010102 		addi	sp,sp,32
 713              		.cfi_def_cfa_offset 0
 714 0458 67800000 		jr	ra
 715              		.cfi_endproc
 716              	.LFE19:
 718              		.align	2
 719              		.globl	_ZN15MemoryAllocator6memcpyEPvS0_m
 721              	_ZN15MemoryAllocator6memcpyEPvS0_m:
 722              	.LFB20:
 235:src/memoryAllocator.cpp **** 
 236:src/memoryAllocator.cpp **** 
 237:src/memoryAllocator.cpp **** void* MemoryAllocator::memcpy(void *src, void *dst, uint64 len) {
 723              		.loc 1 237 65 is_stmt 1
 724              		.cfi_startproc
 725              	.LVL62:
 726 045c 130101FF 		addi	sp,sp,-16
 727              		.cfi_def_cfa_offset 16
 728 0460 23348100 		sd	s0,8(sp)
 729              		.cfi_offset 8, -8
 730 0464 13040101 		addi	s0,sp,16
 731              		.cfi_def_cfa 8, 0
 732 0468 13080500 		mv	a6,a0
 733 046c 13850500 		mv	a0,a1
 734              	.LVL63:
 238:src/memoryAllocator.cpp ****     char *csrc = (char*)src;
 735              		.loc 1 238 5
 239:src/memoryAllocator.cpp ****     char *cdst = (char*)dst;
 736              		.loc 1 239 5
 240:src/memoryAllocator.cpp **** 
 241:src/memoryAllocator.cpp ****     for(uint64 i=0;i<len;i++)
 737              		.loc 1 241 5
 738              	.LBB10:
 739              		.loc 1 241 16 is_stmt 0
 740 0470 93070000 		li	a5,0
 741              	.LVL64:
 742              	.L55:
 743              		.loc 1 241 21 is_stmt 1 discriminator 3
 744 0474 63FEC700 		bgeu	a5,a2,.L54
 242:src/memoryAllocator.cpp ****         cdst[i] = csrc[i];
 745              		.loc 1 242 9 discriminator 2
 746              		.loc 1 242 15 is_stmt 0 discriminator 2
 747 0478 3307F500 		add	a4,a0,a5
 748              		.loc 1 242 25 discriminator 2
 749 047c B306F800 		add	a3,a6,a5
 750 0480 83C60600 		lbu	a3,0(a3)
 751              		.loc 1 242 17 discriminator 2
 752 0484 2300D700 		sb	a3,0(a4)
 241:src/memoryAllocator.cpp ****         cdst[i] = csrc[i];
 753              		.loc 1 241 5 is_stmt 1 discriminator 2
 754 0488 93871700 		addi	a5,a5,1
 755              	.LVL65:
 756 048c 6FF09FFE 		j	.L55
 757              	.LVL66:
 758              	.L54:
GAS LISTING /tmp/cc6CpRG5.s 			page 21


 759              	.LBE10:
 243:src/memoryAllocator.cpp **** 
 244:src/memoryAllocator.cpp ****     return dst;
 760              		.loc 1 244 5
 245:src/memoryAllocator.cpp **** }...
 761              		.loc 1 245 1 is_stmt 0
 762 0490 03348100 		ld	s0,8(sp)
 763              		.cfi_restore 8
 764              		.cfi_def_cfa 2, 16
 765 0494 13010101 		addi	sp,sp,16
 766              		.cfi_def_cfa_offset 0
 767 0498 67800000 		jr	ra
 768              		.cfi_endproc
 769              	.LFE20:
 771              		.globl	_ZN15MemoryAllocator11initializedE
 772              		.globl	_ZN15MemoryAllocator12allocMemTailE
 773              		.globl	_ZN15MemoryAllocator11freeMemTailE
 774              		.globl	_ZN15MemoryAllocator12allocMemHeadE
 775              		.globl	_ZN15MemoryAllocator11freeMemHeadE
 776              		.bss
 777              		.align	3
 778              		.set	.LANCHOR0,. + 0
 781              	_ZN15MemoryAllocator11freeMemTailE:
 782 0000 00000000 		.zero	8
 782      00000000 
 785              	_ZN15MemoryAllocator11freeMemHeadE:
 786 0008 00000000 		.zero	8
 786      00000000 
 789              	_ZN15MemoryAllocator12allocMemTailE:
 790 0010 00000000 		.zero	8
 790      00000000 
 793              	_ZN15MemoryAllocator12allocMemHeadE:
 794 0018 00000000 		.zero	8
 794      00000000 
 797              	_ZN15MemoryAllocator11initializedE:
 798 0020 00       		.zero	1
 799              		.text
 800              	.Letext0:
 801              		.file 2 "src/../h/../lib/hw.h"
 802              		.file 3 "src/../h/memoryAllocator.hpp"
 803              		.file 4 "src/../h/printing.hpp"
 804              		.file 5 "src/../h/syscall_c.h"
GAS LISTING /tmp/cc6CpRG5.s 			page 22

