GAS LISTING /tmp/ccEFbENn.s 			page 1


   1              		.file	"riscv.cpp"
   2              		.option pic
   3              		.option norelax
   4              		.text
   5              	.Ltext0:
   6              		.align	2
   7              		.globl	_ZN5RiscV6getPMTEv
   9              	_ZN5RiscV6getPMTEv:
  10              	.LFB42:
  11              		.file 1 "src/riscv.cpp"
   1:src/riscv.cpp **** //
   2:src/riscv.cpp **** // Created by os on 4/28/22.
   3:src/riscv.cpp **** //
   4:src/riscv.cpp **** 
   5:src/riscv.cpp **** #include "../h/riscv.hpp"
   6:src/riscv.cpp **** #include "../h/memoryAllocator.hpp"
   7:src/riscv.cpp **** #include "../h/tcb.hpp"
   8:src/riscv.cpp **** #include "../h/scheduler.hpp"
   9:src/riscv.cpp **** #include "../h/printing.hpp"
  10:src/riscv.cpp **** #include "../h/scb.hpp"
  11:src/riscv.cpp **** 
  12:src/riscv.cpp **** uint64 RiscV::globalTime = 0;
  13:src/riscv.cpp **** bool RiscV::userMainFinished = false;
  14:src/riscv.cpp **** void* RiscV::kPMT = nullptr;
  15:src/riscv.cpp **** void* RiscV::uPMT = nullptr;
  16:src/riscv.cpp **** 
  17:src/riscv.cpp **** void* RiscV::getPMT(){
  12              		.loc 1 17 22
  13              		.cfi_startproc
  14 0000 130101FF 		addi	sp,sp,-16
  15              		.cfi_def_cfa_offset 16
  16 0004 23341100 		sd	ra,8(sp)
  17 0008 23308100 		sd	s0,0(sp)
  18              		.cfi_offset 1, -8
  19              		.cfi_offset 8, -16
  20 000c 13040101 		addi	s0,sp,16
  21              		.cfi_def_cfa 8, 0
  18:src/riscv.cpp ****     void* ret = Buddy::alloc(1);
  22              		.loc 1 18 5
  23              		.loc 1 18 29 is_stmt 0
  24 0010 13051000 		li	a0,1
  25 0014 97000000 		call	_ZN5Buddy5allocEm@plt
  25      E7800000 
  26              	.LVL0:
  19:src/riscv.cpp ****     uint64* arr = (uint64*)ret;
  27              		.loc 1 19 5 is_stmt 1
  20:src/riscv.cpp ****     for(int i=0;i<512;i++)
  28              		.loc 1 20 5
  29              	.LBB93:
  30              		.loc 1 20 13 is_stmt 0
  31 001c 93070000 		li	a5,0
  32              	.LVL1:
  33              	.L3:
  34              		.loc 1 20 18 is_stmt 1 discriminator 3
  35 0020 1307F01F 		li	a4,511
  36 0024 634CF700 		bgt	a5,a4,.L1
  21:src/riscv.cpp ****         arr[i] = 0;
GAS LISTING /tmp/ccEFbENn.s 			page 2


  37              		.loc 1 21 9 discriminator 2
  38              		.loc 1 21 14 is_stmt 0 discriminator 2
  39 0028 13973700 		slli	a4,a5,3
  40 002c 3307E500 		add	a4,a0,a4
  41              		.loc 1 21 16 discriminator 2
  42 0030 23300700 		sd	zero,0(a4)
  20:src/riscv.cpp ****     for(int i=0;i<512;i++)
  43              		.loc 1 20 5 is_stmt 1 discriminator 2
  44 0034 9B871700 		addiw	a5,a5,1
  45              	.LVL2:
  46 0038 6FF09FFE 		j	.L3
  47              	.LVL3:
  48              	.L1:
  49              	.LBE93:
  22:src/riscv.cpp ****     return ret;
  23:src/riscv.cpp **** }
  50              		.loc 1 23 1 is_stmt 0
  51 003c 83308100 		ld	ra,8(sp)
  52              		.cfi_restore 1
  53 0040 03340100 		ld	s0,0(sp)
  54              		.cfi_restore 8
  55              		.cfi_def_cfa 2, 16
  56 0044 13010101 		addi	sp,sp,16
  57              		.cfi_def_cfa_offset 0
  58 0048 67800000 		jr	ra
  59              		.cfi_endproc
  60              	.LFE42:
  62              		.align	2
  63              		.globl	_ZN5RiscV15handlePageFaultEPvmm
  65              	_ZN5RiscV15handlePageFaultEPvmm:
  66              	.LFB43:
  24:src/riscv.cpp **** 
  25:src/riscv.cpp **** void RiscV::handlePageFault(void* PMT, uint64 addr, uint64 mask){
  67              		.loc 1 25 65 is_stmt 1
  68              		.cfi_startproc
  69              	.LVL4:
  70 004c 130101FC 		addi	sp,sp,-64
  71              		.cfi_def_cfa_offset 64
  72 0050 233C1102 		sd	ra,56(sp)
  73 0054 23388102 		sd	s0,48(sp)
  74 0058 23349102 		sd	s1,40(sp)
  75 005c 23302103 		sd	s2,32(sp)
  76 0060 233C3101 		sd	s3,24(sp)
  77 0064 23384101 		sd	s4,16(sp)
  78 0068 23345101 		sd	s5,8(sp)
  79              		.cfi_offset 1, -8
  80              		.cfi_offset 8, -16
  81              		.cfi_offset 9, -24
  82              		.cfi_offset 18, -32
  83              		.cfi_offset 19, -40
  84              		.cfi_offset 20, -48
  85              		.cfi_offset 21, -56
  86 006c 13040104 		addi	s0,sp,64
  87              		.cfi_def_cfa 8, 0
  88 0070 93090600 		mv	s3,a2
  26:src/riscv.cpp ****     uint64 pmt2Entry = (addr >> 30) & (0x1ff);;
  89              		.loc 1 26 5
GAS LISTING /tmp/ccEFbENn.s 			page 3


  90              		.loc 1 26 30 is_stmt 0
  91 0074 93D7E501 		srli	a5,a1,30
  92              		.loc 1 26 12
  93 0078 93F7F71F 		andi	a5,a5,511
  94              	.LVL5:
  95              		.loc 1 26 47 is_stmt 1
  27:src/riscv.cpp ****     uint64 pmt1Entry = (addr >> 21) & (0x1ff);
  96              		.loc 1 27 5
  97              		.loc 1 27 30 is_stmt 0
  98 007c 13D95501 		srli	s2,a1,21
  99              		.loc 1 27 12
 100 0080 1379F91F 		andi	s2,s2,511
 101              	.LVL6:
  28:src/riscv.cpp ****     uint64 pmt0Entry = (addr >> 12) & (0x1ff);
 102              		.loc 1 28 5 is_stmt 1
 103              		.loc 1 28 30 is_stmt 0
 104 0084 93D4C500 		srli	s1,a1,12
 105              		.loc 1 28 12
 106 0088 13FAF41F 		andi	s4,s1,511
 107              	.LVL7:
  29:src/riscv.cpp ****     uint64 pmt2Desc = ((uint64*)PMT)[pmt2Entry];
 108              		.loc 1 29 5 is_stmt 1
 109              		.loc 1 29 47 is_stmt 0
 110 008c 93973700 		slli	a5,a5,3
 111              	.LVL8:
 112 0090 B30AF500 		add	s5,a0,a5
 113              		.loc 1 29 12
 114 0094 83B70A00 		ld	a5,0(s5)
 115              	.LVL9:
  30:src/riscv.cpp ****     void* pmt1 = nullptr;
 116              		.loc 1 30 5 is_stmt 1
  31:src/riscv.cpp ****     if(pmt2Desc == 0){
 117              		.loc 1 31 5
 118 0098 63820706 		beqz	a5,.L12
  32:src/riscv.cpp ****         pmt1 = RiscV::getPMT();
  33:src/riscv.cpp ****         ((uint64*)PMT)[pmt2Entry] = (((uint64)pmt1 >> 12) << 10) | (uint64)1;
  34:src/riscv.cpp ****     }
  35:src/riscv.cpp ****     else
  36:src/riscv.cpp ****         pmt1 = (void*)((pmt2Desc >> 10) << 12);
 119              		.loc 1 36 9
 120              		.loc 1 36 34 is_stmt 0
 121 009c 13D5A700 		srli	a0,a5,10
 122              	.LVL10:
 123              		.loc 1 36 41
 124 00a0 1315C500 		slli	a0,a0,12
 125              	.LVL11:
 126              	.L7:
  37:src/riscv.cpp ****     uint64 pmt1Desc = ((uint64*)pmt1)[pmt1Entry];
 127              		.loc 1 37 5 is_stmt 1
 128              		.loc 1 37 48 is_stmt 0
 129 00a4 13193900 		slli	s2,s2,3
 130              	.LVL12:
 131 00a8 33092501 		add	s2,a0,s2
 132              		.loc 1 37 12
 133 00ac 03350900 		ld	a0,0(s2)
 134              	.LVL13:
  38:src/riscv.cpp ****     void* pmt0 = nullptr;
GAS LISTING /tmp/ccEFbENn.s 			page 4


 135              		.loc 1 38 5 is_stmt 1
  39:src/riscv.cpp ****     if(pmt1Desc == 0){
 136              		.loc 1 39 5
 137 00b0 63040506 		beqz	a0,.L13
  40:src/riscv.cpp ****         pmt0 = RiscV::getPMT();
  41:src/riscv.cpp ****         ((uint64*)pmt1)[pmt1Entry] = (((uint64)pmt0 >> 12) << 10) | (uint64)1;
  42:src/riscv.cpp ****     }
  43:src/riscv.cpp ****     else
  44:src/riscv.cpp ****         pmt0 = (void*)((pmt1Desc >> 10) << 12);
 138              		.loc 1 44 9
 139              		.loc 1 44 34 is_stmt 0
 140 00b4 1355A500 		srli	a0,a0,10
 141              	.LVL14:
 142              		.loc 1 44 41
 143 00b8 1315C500 		slli	a0,a0,12
 144              	.LVL15:
 145              	.L9:
  45:src/riscv.cpp ****     uint64 pmt0Desc = ((uint64*)pmt0)[pmt0Entry];
 146              		.loc 1 45 5 is_stmt 1
 147              		.loc 1 45 48 is_stmt 0
 148 00bc 131A3A00 		slli	s4,s4,3
 149              	.LVL16:
 150 00c0 33054501 		add	a0,a0,s4
 151              	.LVL17:
 152              		.loc 1 45 12
 153 00c4 83370500 		ld	a5,0(a0)
 154              	.LVL18:
  46:src/riscv.cpp ****     if(pmt0Desc == 0)
 155              		.loc 1 46 5 is_stmt 1
 156 00c8 63980700 		bnez	a5,.L5
  47:src/riscv.cpp ****         ((uint64*)pmt0)[pmt0Entry] = ((addr >> 12) << 10) | mask;
 157              		.loc 1 47 9
 158              		.loc 1 47 52 is_stmt 0
 159 00cc 9394A400 		slli	s1,s1,10
 160              	.LVL19:
 161              		.loc 1 47 59
 162 00d0 B3E93401 		or	s3,s1,s3
 163              	.LVL20:
 164              		.loc 1 47 36
 165 00d4 23303501 		sd	s3,0(a0)
 166              	.L5:
  48:src/riscv.cpp **** }
 167              		.loc 1 48 1
 168 00d8 83308103 		ld	ra,56(sp)
 169              		.cfi_remember_state
 170              		.cfi_restore 1
 171 00dc 03340103 		ld	s0,48(sp)
 172              		.cfi_restore 8
 173              		.cfi_def_cfa 2, 64
 174 00e0 83348102 		ld	s1,40(sp)
 175              		.cfi_restore 9
 176 00e4 03390102 		ld	s2,32(sp)
 177              		.cfi_restore 18
 178 00e8 83398101 		ld	s3,24(sp)
 179              		.cfi_restore 19
 180 00ec 033A0101 		ld	s4,16(sp)
 181              		.cfi_restore 20
GAS LISTING /tmp/ccEFbENn.s 			page 5


 182 00f0 833A8100 		ld	s5,8(sp)
 183              		.cfi_restore 21
 184 00f4 13010104 		addi	sp,sp,64
 185              		.cfi_def_cfa_offset 0
 186 00f8 67800000 		jr	ra
 187              	.LVL21:
 188              	.L12:
 189              		.cfi_restore_state
  32:src/riscv.cpp ****         ((uint64*)PMT)[pmt2Entry] = (((uint64)pmt1 >> 12) << 10) | (uint64)1;
 190              		.loc 1 32 9 is_stmt 1
  32:src/riscv.cpp ****         ((uint64*)PMT)[pmt2Entry] = (((uint64)pmt1 >> 12) << 10) | (uint64)1;
 191              		.loc 1 32 29 is_stmt 0
 192 00fc 97000000 		call	_ZN5RiscV6getPMTEv
 192      E7800000 
 193              	.LVL22:
  33:src/riscv.cpp ****     }
 194              		.loc 1 33 9 is_stmt 1
  33:src/riscv.cpp ****     }
 195              		.loc 1 33 52 is_stmt 0
 196 0104 9357C500 		srli	a5,a0,12
  33:src/riscv.cpp ****     }
 197              		.loc 1 33 59
 198 0108 9397A700 		slli	a5,a5,10
  33:src/riscv.cpp ****     }
 199              		.loc 1 33 66
 200 010c 93E71700 		ori	a5,a5,1
  33:src/riscv.cpp ****     }
 201              		.loc 1 33 35
 202 0110 23B0FA00 		sd	a5,0(s5)
 203 0114 6FF01FF9 		j	.L7
 204              	.LVL23:
 205              	.L13:
  40:src/riscv.cpp ****         ((uint64*)pmt1)[pmt1Entry] = (((uint64)pmt0 >> 12) << 10) | (uint64)1;
 206              		.loc 1 40 9 is_stmt 1
  40:src/riscv.cpp ****         ((uint64*)pmt1)[pmt1Entry] = (((uint64)pmt0 >> 12) << 10) | (uint64)1;
 207              		.loc 1 40 29 is_stmt 0
 208 0118 97000000 		call	_ZN5RiscV6getPMTEv
 208      E7800000 
 209              	.LVL24:
  41:src/riscv.cpp ****     }
 210              		.loc 1 41 9 is_stmt 1
  41:src/riscv.cpp ****     }
 211              		.loc 1 41 53 is_stmt 0
 212 0120 9357C500 		srli	a5,a0,12
  41:src/riscv.cpp ****     }
 213              		.loc 1 41 60
 214 0124 9397A700 		slli	a5,a5,10
  41:src/riscv.cpp ****     }
 215              		.loc 1 41 67
 216 0128 93E71700 		ori	a5,a5,1
  41:src/riscv.cpp ****     }
 217              		.loc 1 41 36
 218 012c 2330F900 		sd	a5,0(s2)
 219 0130 6FF0DFF8 		j	.L9
 220              		.cfi_endproc
 221              	.LFE43:
 223              		.align	2
GAS LISTING /tmp/ccEFbENn.s 			page 6


 224              		.globl	_ZN5RiscV10initializeEv
 226              	_ZN5RiscV10initializeEv:
 227              	.LFB44:
  49:src/riscv.cpp **** //initailize each of the key components and switch to user mode for user code execution
  50:src/riscv.cpp **** void RiscV::initialize(){
 228              		.loc 1 50 25 is_stmt 1
 229              		.cfi_startproc
 230 0134 130101FC 		addi	sp,sp,-64
 231              		.cfi_def_cfa_offset 64
 232 0138 233C1102 		sd	ra,56(sp)
 233 013c 23388102 		sd	s0,48(sp)
 234 0140 23349102 		sd	s1,40(sp)
 235 0144 23302103 		sd	s2,32(sp)
 236 0148 233C3101 		sd	s3,24(sp)
 237 014c 23384101 		sd	s4,16(sp)
 238 0150 23345101 		sd	s5,8(sp)
 239              		.cfi_offset 1, -8
 240              		.cfi_offset 8, -16
 241              		.cfi_offset 9, -24
 242              		.cfi_offset 18, -32
 243              		.cfi_offset 19, -40
 244              		.cfi_offset 20, -48
 245              		.cfi_offset 21, -56
 246 0154 13040104 		addi	s0,sp,64
 247              		.cfi_def_cfa 8, 0
  51:src/riscv.cpp ****     RiscV::w_stvec((uint64) &RiscV::supervisorTrap);
 248              		.loc 1 51 5
 249              		.loc 1 51 19 is_stmt 0
 250 0158 97070000 		la	a5,_ZN5RiscV14supervisorTrapEv
 250      83B70700 
 251              	.LVL25:
 252              	.LBB94:
 253              	.LBB95:
 254              		.file 2 "src/../h/riscv.hpp"
   1:src/../h/riscv.hpp **** //
   2:src/../h/riscv.hpp **** // Created by os on 4/28/22.
   3:src/../h/riscv.hpp **** //
   4:src/../h/riscv.hpp **** 
   5:src/../h/riscv.hpp **** #ifndef OS1_KERNEL_RISCV_HPP
   6:src/../h/riscv.hpp **** #define OS1_KERNEL_RISCV_HPP
   7:src/../h/riscv.hpp **** #include "../lib/hw.h"
   8:src/../h/riscv.hpp **** 
   9:src/../h/riscv.hpp **** 
  10:src/../h/riscv.hpp **** class RiscV{
  11:src/../h/riscv.hpp **** 
  12:src/../h/riscv.hpp ****     static uint64 globalTime;
  13:src/../h/riscv.hpp **** 
  14:src/../h/riscv.hpp ****     static void* kPMT;
  15:src/../h/riscv.hpp ****     static void* uPMT;
  16:src/../h/riscv.hpp **** 
  17:src/../h/riscv.hpp ****     static bool userMainFinished;
  18:src/../h/riscv.hpp **** 
  19:src/../h/riscv.hpp ****     enum BitMaskSstatus{
  20:src/../h/riscv.hpp ****         SSTATUS_SIE = (1<<1),
  21:src/../h/riscv.hpp ****         SSTATUS_SPIE = (1<<5),
  22:src/../h/riscv.hpp ****         SSTATUS_SPP = (1<<8),
  23:src/../h/riscv.hpp ****     };
GAS LISTING /tmp/ccEFbENn.s 			page 7


  24:src/../h/riscv.hpp **** 
  25:src/../h/riscv.hpp ****     enum BitMaskSip{
  26:src/../h/riscv.hpp ****         SIP_SSIE = (1<<1),
  27:src/../h/riscv.hpp ****         SIP_STIE = (1<<5),
  28:src/../h/riscv.hpp ****         SIP_SEIE = (1<<9),
  29:src/../h/riscv.hpp ****     };
  30:src/../h/riscv.hpp **** 
  31:src/../h/riscv.hpp ****     static void executeMemAllocSyscall();   //wrapper function for moving parameters and calling Me
  32:src/../h/riscv.hpp **** 
  33:src/../h/riscv.hpp ****     static void executeMemFreeSyscall();    //wrapper function for moving parameters and calling Me
  34:src/../h/riscv.hpp **** 
  35:src/../h/riscv.hpp ****     static void executeThreadCreateSyscall();
  36:src/../h/riscv.hpp **** 
  37:src/../h/riscv.hpp ****     static void executeThreadExitSyscall();
  38:src/../h/riscv.hpp **** 
  39:src/../h/riscv.hpp ****     static void executeThreadDispatchSyscall();
  40:src/../h/riscv.hpp **** 
  41:src/../h/riscv.hpp ****     static void executeThreadAttachBodySyscall();
  42:src/../h/riscv.hpp **** 
  43:src/../h/riscv.hpp ****     static void executeThreadStartSyscall();
  44:src/../h/riscv.hpp **** 
  45:src/../h/riscv.hpp ****     static void executeSemOpenSyscall();
  46:src/../h/riscv.hpp **** 
  47:src/../h/riscv.hpp ****     static void executeSemCloseSyscall();
  48:src/../h/riscv.hpp **** 
  49:src/../h/riscv.hpp ****     static void executeSemWaitSyscall();
  50:src/../h/riscv.hpp **** 
  51:src/../h/riscv.hpp ****     static void executeSemSignalSyscall();
  52:src/../h/riscv.hpp **** 
  53:src/../h/riscv.hpp ****     static void executeTimeSleepSyscall();
  54:src/../h/riscv.hpp **** 
  55:src/../h/riscv.hpp ****     static void executeGetcSyscall();
  56:src/../h/riscv.hpp **** 
  57:src/../h/riscv.hpp ****     static void executePutcSyscall();
  58:src/../h/riscv.hpp **** 
  59:src/../h/riscv.hpp ****     static void executePutcUtilSyscall();
  60:src/../h/riscv.hpp **** 
  61:src/../h/riscv.hpp ****     static void executeThreadFreeSyscall();
  62:src/../h/riscv.hpp **** 
  63:src/../h/riscv.hpp ****     static void executeSemaphoreFreeSyscall();
  64:src/../h/riscv.hpp **** 
  65:src/../h/riscv.hpp ****     static void executeForkSyscall();
  66:src/../h/riscv.hpp **** 
  67:src/../h/riscv.hpp ****     static void putcWrapper(void *arg);
  68:src/../h/riscv.hpp **** 
  69:src/../h/riscv.hpp ****     static uint64 r_scause();
  70:src/../h/riscv.hpp **** 
  71:src/../h/riscv.hpp ****     static void w_scause(uint64 scause);
  72:src/../h/riscv.hpp **** 
  73:src/../h/riscv.hpp ****     static uint64 r_sepc();
  74:src/../h/riscv.hpp **** 
  75:src/../h/riscv.hpp ****     static void w_sepc(uint64 sepc);
  76:src/../h/riscv.hpp **** 
  77:src/../h/riscv.hpp ****     static uint64 r_stvec();
  78:src/../h/riscv.hpp **** 
  79:src/../h/riscv.hpp ****     static void w_stvec(uint64 stvec);
  80:src/../h/riscv.hpp **** 
GAS LISTING /tmp/ccEFbENn.s 			page 8


  81:src/../h/riscv.hpp ****     static uint64 r_sstatus();
  82:src/../h/riscv.hpp **** 
  83:src/../h/riscv.hpp ****     static void w_sstatus(uint64 sstatus);
  84:src/../h/riscv.hpp **** 
  85:src/../h/riscv.hpp ****     static void ms_sstatus(uint64 mask);
  86:src/../h/riscv.hpp **** 
  87:src/../h/riscv.hpp ****     static void mc_sstatus(uint64 mask);
  88:src/../h/riscv.hpp **** 
  89:src/../h/riscv.hpp ****     static void ms_sip(uint64 mask);
  90:src/../h/riscv.hpp **** 
  91:src/../h/riscv.hpp ****     static void mc_sip(uint64 mask);
  92:src/../h/riscv.hpp **** 
  93:src/../h/riscv.hpp ****     static void ms_sie(uint64 mask);
  94:src/../h/riscv.hpp **** 
  95:src/../h/riscv.hpp ****     static void mc_sie(uint64 mask);
  96:src/../h/riscv.hpp **** 
  97:src/../h/riscv.hpp ****     static void saveA0toSscratch();
  98:src/../h/riscv.hpp **** 
  99:src/../h/riscv.hpp ****     static void jumpToDesignatedPrivilegeMode();
 100:src/../h/riscv.hpp **** 
 101:src/../h/riscv.hpp ****     static void popSppSpie();
 102:src/../h/riscv.hpp **** 
 103:src/../h/riscv.hpp ****     static void getPC();
 104:src/../h/riscv.hpp **** 
 105:src/../h/riscv.hpp ****     static void supervisorTrap();      //supervisorTrap defined in /src/supervisorTrap.S
 106:src/../h/riscv.hpp **** 
 107:src/../h/riscv.hpp ****     static void handleSupervisorTrap();
 108:src/../h/riscv.hpp **** 
 109:src/../h/riscv.hpp ****     static void enableInterrupts();
 110:src/../h/riscv.hpp **** 
 111:src/../h/riscv.hpp ****     static void disableInterrupts();
 112:src/../h/riscv.hpp **** 
 113:src/../h/riscv.hpp ****     static void enableHardwareInterrupts();
 114:src/../h/riscv.hpp **** 
 115:src/../h/riscv.hpp ****     static void disableHardwareInterrupts();
 116:src/../h/riscv.hpp **** 
 117:src/../h/riscv.hpp ****     static void enableTimerInterrupts();
 118:src/../h/riscv.hpp **** 
 119:src/../h/riscv.hpp ****     static void disableTimerInterrupts();
 120:src/../h/riscv.hpp **** 
 121:src/../h/riscv.hpp ****     static void handlePageFault(void* PMT,uint64 addr, uint64 mask);
 122:src/../h/riscv.hpp **** 
 123:src/../h/riscv.hpp ****     static void initialize();
 124:src/../h/riscv.hpp **** 
 125:src/../h/riscv.hpp ****     static void finalize();
 126:src/../h/riscv.hpp **** 
 127:src/../h/riscv.hpp ****     static void* getPMT();
 128:src/../h/riscv.hpp **** 
 129:src/../h/riscv.hpp ****     friend class TCB;
 130:src/../h/riscv.hpp **** 
 131:src/../h/riscv.hpp ****     friend class System;
 132:src/../h/riscv.hpp **** 
 133:src/../h/riscv.hpp ****     friend class Scheduler;
 134:src/../h/riscv.hpp **** 
 135:src/../h/riscv.hpp ****     friend class ConsoleUtil;
 136:src/../h/riscv.hpp **** };
 137:src/../h/riscv.hpp **** 
GAS LISTING /tmp/ccEFbENn.s 			page 9


 138:src/../h/riscv.hpp **** inline uint64 RiscV::r_scause(){
 139:src/../h/riscv.hpp ****     uint64 volatile scause;
 140:src/../h/riscv.hpp ****     asm("csrr %[scause], scause" : [scause] "=r" (scause));
 141:src/../h/riscv.hpp ****     return scause;
 142:src/../h/riscv.hpp **** }
 143:src/../h/riscv.hpp **** 
 144:src/../h/riscv.hpp **** inline void RiscV::w_scause(uint64 scause){
 145:src/../h/riscv.hpp ****     asm("csrw scause, %[scause]" : : [scause] "r" (scause));
 146:src/../h/riscv.hpp **** }
 147:src/../h/riscv.hpp **** 
 148:src/../h/riscv.hpp **** inline uint64 RiscV::r_sepc(){
 149:src/../h/riscv.hpp ****     uint64 sepc;
 150:src/../h/riscv.hpp ****     asm("csrr %[sepc], sepc" : [sepc] "=r" (sepc));
 151:src/../h/riscv.hpp ****     return sepc;
 152:src/../h/riscv.hpp **** }
 153:src/../h/riscv.hpp **** 
 154:src/../h/riscv.hpp **** inline void RiscV::w_sepc(uint64 sepc){
 155:src/../h/riscv.hpp ****     asm("csrw sepc, %[sepc]" : : [sepc] "r" (sepc));
 156:src/../h/riscv.hpp **** }
 157:src/../h/riscv.hpp **** 
 158:src/../h/riscv.hpp **** inline uint64 RiscV::r_stvec(){
 159:src/../h/riscv.hpp ****     uint64 stvec;
 160:src/../h/riscv.hpp ****     asm("csrr %[stvec], stvec" : [stvec] "=r" (stvec));
 161:src/../h/riscv.hpp ****     return stvec;
 162:src/../h/riscv.hpp **** }
 163:src/../h/riscv.hpp **** 
 164:src/../h/riscv.hpp **** inline void RiscV::w_sstatus(uint64 sstatus){
 165:src/../h/riscv.hpp ****     asm("csrw sstatus, %[sstatus]" : : [sstatus] "r" (sstatus));
 166:src/../h/riscv.hpp **** }
 167:src/../h/riscv.hpp **** 
 168:src/../h/riscv.hpp **** inline uint64 RiscV::r_sstatus(){
 169:src/../h/riscv.hpp ****     uint64 sstatus;
 170:src/../h/riscv.hpp ****     asm("csrr %[sstatus], sstatus" : [sstatus] "=r" (sstatus));
 171:src/../h/riscv.hpp ****     return sstatus;
 172:src/../h/riscv.hpp **** }
 173:src/../h/riscv.hpp **** 
 174:src/../h/riscv.hpp **** inline void RiscV::w_stvec(uint64 stvec){
 175:src/../h/riscv.hpp ****     asm("csrw stvec, %[stvec]" : : [stvec] "r" (stvec));
 255              		.loc 2 175 5 is_stmt 1
 256              		.loc 2 175 56 is_stmt 0
 257              	#APP
 258              	# 175 "src/../h/riscv.hpp" 1
 176              	}
 259              		csrw stvec, a5
 260              	# 0 "" 2
 261              	.LVL26:
 262              	#NO_APP
 263              	.LBE95:
 264              	.LBE94:
  52:src/riscv.cpp ****     kmem_init(BUDDY_START_ADDR_CONST, 4096);
 265              		.loc 1 52 5 is_stmt 1
 266              		.loc 1 52 15 is_stmt 0
 267 0164 97070000 		la	a5,HEAP_START_ADDR
 267      83B70700 
 268 016c 03B50700 		ld	a0,0(a5)
 269 0170 1355C500 		srli	a0,a0,12
 270 0174 13052500 		addi	a0,a0,2
GAS LISTING /tmp/ccEFbENn.s 			page 10


 271              		.loc 1 52 14
 272 0178 B7150000 		li	a1,4096
 273 017c 1315C500 		slli	a0,a0,12
 274 0180 97000000 		call	_Z9kmem_initPvi@plt
 274      E7800000 
 275              	.LVL27:
  53:src/riscv.cpp ****     MemoryAllocator::initialize();
 276              		.loc 1 53 5 is_stmt 1
 277              		.loc 1 53 32 is_stmt 0
 278 0188 97000000 		call	_ZN15MemoryAllocator10initializeEv@plt
 278      E7800000 
 279              	.LVL28:
  54:src/riscv.cpp ****     Scheduler::initialize();
 280              		.loc 1 54 5 is_stmt 1
 281              		.loc 1 54 26 is_stmt 0
 282 0190 97000000 		call	_ZN9Scheduler10initializeEv@plt
 282      E7800000 
 283              	.LVL29:
  55:src/riscv.cpp ****     TCB::initialize();
 284              		.loc 1 55 5 is_stmt 1
 285              		.loc 1 55 20 is_stmt 0
 286 0198 97000000 		call	_ZN3TCB10initializeEv@plt
 286      E7800000 
 287              	.LVL30:
  56:src/riscv.cpp ****     SCB::initialize();
 288              		.loc 1 56 5 is_stmt 1
 289              		.loc 1 56 20 is_stmt 0
 290 01a0 97000000 		call	_ZN3SCB10initializeEv@plt
 290      E7800000 
 291              	.LVL31:
  57:src/riscv.cpp ****     ConsoleUtil::initialize();
 292              		.loc 1 57 5 is_stmt 1
 293              		.loc 1 57 28 is_stmt 0
 294 01a8 97000000 		call	_ZN11ConsoleUtil10initializeEv@plt
 294      E7800000 
 295              	.LVL32:
  58:src/riscv.cpp ****     RiscV::kPMT = RiscV::getPMT();
 296              		.loc 1 58 5 is_stmt 1
 297              		.loc 1 58 32 is_stmt 0
 298 01b0 97000000 		call	_ZN5RiscV6getPMTEv
 298      E7800000 
 299              	.LVL33:
 300              		.loc 1 58 17
 301 01b8 97040000 		lla	s1,.LANCHOR0
 301      93840400 
 302 01c0 23B0A400 		sd	a0,0(s1)
  59:src/riscv.cpp ****     RiscV::uPMT = RiscV::getPMT();
 303              		.loc 1 59 5 is_stmt 1
 304              		.loc 1 59 32 is_stmt 0
 305 01c4 97000000 		call	_ZN5RiscV6getPMTEv
 305      E7800000 
 306              	.LVL34:
 307              		.loc 1 59 17
 308 01cc 23B4A400 		sd	a0,8(s1)
  60:src/riscv.cpp ****     for(uint64 i=0x80000000;i<(uint64)HEAP_END_ADDR;i+=4096) {
 309              		.loc 1 60 5 is_stmt 1
 310              	.LVL35:
GAS LISTING /tmp/ccEFbENn.s 			page 11


 311              	.LBB96:
 312              		.loc 1 60 16 is_stmt 0
 313 01d0 93041000 		li	s1,1
 314 01d4 9394F401 		slli	s1,s1,31
 315              	.LVL36:
 316              	.L16:
 317              		.loc 1 60 30 is_stmt 1 discriminator 3
 318 01d8 97070000 		la	a5,HEAP_END_ADDR
 318      83B70700 
 319 01e0 83B70700 		ld	a5,0(a5)
 320 01e4 63F0F404 		bleu	a5,s1,.L15
  61:src/riscv.cpp ****         handlePageFault(kPMT,i, 0xf);
 321              		.loc 1 61 9 discriminator 2
 322              		.loc 1 61 24 is_stmt 0 discriminator 2
 323 01e8 17090000 		lla	s2,.LANCHOR0
 323      13090900 
 324 01f0 1306F000 		li	a2,15
 325 01f4 93850400 		mv	a1,s1
 326 01f8 03350900 		ld	a0,0(s2)
 327 01fc 97000000 		call	_ZN5RiscV15handlePageFaultEPvmm
 327      E7800000 
 328              	.LVL37:
  62:src/riscv.cpp ****         handlePageFault(uPMT,i, 0x1f);
 329              		.loc 1 62 9 is_stmt 1 discriminator 2
 330              		.loc 1 62 24 is_stmt 0 discriminator 2
 331 0204 1306F001 		li	a2,31
 332 0208 93850400 		mv	a1,s1
 333 020c 03358900 		ld	a0,8(s2)
 334 0210 97000000 		call	_ZN5RiscV15handlePageFaultEPvmm
 334      E7800000 
 335              	.LVL38:
  60:src/riscv.cpp ****     for(uint64 i=0x80000000;i<(uint64)HEAP_END_ADDR;i+=4096) {
 336              		.loc 1 60 5 is_stmt 1 discriminator 2
  60:src/riscv.cpp ****     for(uint64 i=0x80000000;i<(uint64)HEAP_END_ADDR;i+=4096) {
 337              		.loc 1 60 54 is_stmt 0 discriminator 2
 338 0218 B7170000 		li	a5,4096
 339 021c B384F400 		add	s1,s1,a5
 340              	.LVL39:
  60:src/riscv.cpp ****     for(uint64 i=0x80000000;i<(uint64)HEAP_END_ADDR;i+=4096) {
 341              		.loc 1 60 5 discriminator 2
 342 0220 6FF09FFB 		j	.L16
 343              	.L15:
 344              	.LBE96:
  63:src/riscv.cpp ****     }
  64:src/riscv.cpp **** 
  65:src/riscv.cpp ****     handlePageFault(kPMT, (uint64)CONSOLE_RX_DATA,0xf);
 345              		.loc 1 65 5 is_stmt 1
 346              		.loc 1 65 20 is_stmt 0
 347 0224 97070000 		la	a5,CONSOLE_RX_DATA
 347      83B70700 
 348 022c 83BA0700 		ld	s5,0(a5)
 349 0230 97040000 		lla	s1,.LANCHOR0
 349      93840400 
 350              	.LVL40:
 351 0238 1306F000 		li	a2,15
 352 023c 93850A00 		mv	a1,s5
 353 0240 03B50400 		ld	a0,0(s1)
GAS LISTING /tmp/ccEFbENn.s 			page 12


 354 0244 97000000 		call	_ZN5RiscV15handlePageFaultEPvmm
 354      E7800000 
 355              	.LVL41:
  66:src/riscv.cpp ****     handlePageFault(kPMT, (uint64)CONSOLE_TX_DATA,0xf);
 356              		.loc 1 66 5 is_stmt 1
 357              		.loc 1 66 20 is_stmt 0
 358 024c 97070000 		la	a5,CONSOLE_TX_DATA
 358      83B70700 
 359 0254 03BA0700 		ld	s4,0(a5)
 360 0258 1306F000 		li	a2,15
 361 025c 93050A00 		mv	a1,s4
 362 0260 03B50400 		ld	a0,0(s1)
 363 0264 97000000 		call	_ZN5RiscV15handlePageFaultEPvmm
 363      E7800000 
 364              	.LVL42:
  67:src/riscv.cpp ****     handlePageFault(kPMT, (uint64)CONSOLE_STATUS,0xf);
 365              		.loc 1 67 5 is_stmt 1
 366              		.loc 1 67 20 is_stmt 0
 367 026c 97070000 		la	a5,CONSOLE_STATUS
 367      83B70700 
 368 0274 83B90700 		ld	s3,0(a5)
 369 0278 1306F000 		li	a2,15
 370 027c 93850900 		mv	a1,s3
 371 0280 03B50400 		ld	a0,0(s1)
 372 0284 97000000 		call	_ZN5RiscV15handlePageFaultEPvmm
 372      E7800000 
 373              	.LVL43:
  68:src/riscv.cpp ****     handlePageFault(kPMT, (uint64)0xc201004,0xf);
 374              		.loc 1 68 5 is_stmt 1
 375              		.loc 1 68 20 is_stmt 0
 376 028c 1306F000 		li	a2,15
 377 0290 3719200C 		li	s2,203427840
 378 0294 93054900 		addi	a1,s2,4
 379 0298 03B50400 		ld	a0,0(s1)
 380 029c 97000000 		call	_ZN5RiscV15handlePageFaultEPvmm
 380      E7800000 
 381              	.LVL44:
  69:src/riscv.cpp ****     handlePageFault(uPMT, (uint64)CONSOLE_RX_DATA,0x1f);
 382              		.loc 1 69 5 is_stmt 1
 383              		.loc 1 69 20 is_stmt 0
 384 02a4 1306F001 		li	a2,31
 385 02a8 93850A00 		mv	a1,s5
 386 02ac 03B58400 		ld	a0,8(s1)
 387 02b0 97000000 		call	_ZN5RiscV15handlePageFaultEPvmm
 387      E7800000 
 388              	.LVL45:
  70:src/riscv.cpp ****     handlePageFault(uPMT, (uint64)CONSOLE_TX_DATA,0x1f);
 389              		.loc 1 70 5 is_stmt 1
 390              		.loc 1 70 20 is_stmt 0
 391 02b8 1306F001 		li	a2,31
 392 02bc 93050A00 		mv	a1,s4
 393 02c0 03B58400 		ld	a0,8(s1)
 394 02c4 97000000 		call	_ZN5RiscV15handlePageFaultEPvmm
 394      E7800000 
 395              	.LVL46:
  71:src/riscv.cpp ****     handlePageFault(uPMT, (uint64)CONSOLE_STATUS,0x1f);
 396              		.loc 1 71 5 is_stmt 1
GAS LISTING /tmp/ccEFbENn.s 			page 13


 397              		.loc 1 71 20 is_stmt 0
 398 02cc 1306F001 		li	a2,31
 399 02d0 93850900 		mv	a1,s3
 400 02d4 03B58400 		ld	a0,8(s1)
 401 02d8 97000000 		call	_ZN5RiscV15handlePageFaultEPvmm
 401      E7800000 
 402              	.LVL47:
  72:src/riscv.cpp ****     handlePageFault(uPMT, (uint64)0xc201004,0x1f);
 403              		.loc 1 72 5 is_stmt 1
 404              		.loc 1 72 20 is_stmt 0
 405 02e0 1306F001 		li	a2,31
 406 02e4 93054900 		addi	a1,s2,4
 407 02e8 03B58400 		ld	a0,8(s1)
 408 02ec 97000000 		call	_ZN5RiscV15handlePageFaultEPvmm
 408      E7800000 
 409              	.LVL48:
  73:src/riscv.cpp **** 
  74:src/riscv.cpp ****     uint64 satp = ((uint64)1<<63) | ((uint64)(RiscV::kPMT)>>12);
 410              		.loc 1 74 5 is_stmt 1
 411              		.loc 1 74 59 is_stmt 0
 412 02f4 83B70400 		ld	a5,0(s1)
 413 02f8 93D7C700 		srli	a5,a5,12
 414              		.loc 1 74 12
 415 02fc 1307F0FF 		li	a4,-1
 416 0300 1317F703 		slli	a4,a4,63
 417 0304 B3E7E700 		or	a5,a5,a4
 418              	.LVL49:
  75:src/riscv.cpp ****     asm("csrw satp, %[satp]" : : [satp] "r" (satp));
 419              		.loc 1 75 5 is_stmt 1
 420              		.loc 1 75 52 is_stmt 0
 421              	#APP
 422              	# 75 "src/riscv.cpp" 1
  76              	
  77:src/riscv.cpp ****     RiscV::enableInterrupts();
 423              		csrw satp, a5
 424              	# 0 "" 2
 425              		.loc 1 77 5 is_stmt 1
 177:src/../h/riscv.hpp **** 
 178:src/../h/riscv.hpp **** inline void  RiscV::ms_sstatus(uint64 mask) {
 179:src/../h/riscv.hpp ****     asm("csrs sstatus, %[mask]" : : [mask] "r" (mask));
 180:src/../h/riscv.hpp **** }
 181:src/../h/riscv.hpp **** 
 182:src/../h/riscv.hpp **** inline void  RiscV::mc_sstatus(uint64 mask) {
 183:src/../h/riscv.hpp ****     asm("csrc sstatus, %[mask]" : : [mask] "r" (mask));
 184:src/../h/riscv.hpp **** }
 185:src/../h/riscv.hpp **** 
 186:src/../h/riscv.hpp **** inline void  RiscV::ms_sip(uint64 mask) {
 187:src/../h/riscv.hpp ****     asm("csrs sip, %[mask]" : : [mask] "r" (mask));
 188:src/../h/riscv.hpp **** }
 189:src/../h/riscv.hpp **** 
 190:src/../h/riscv.hpp **** inline void  RiscV::mc_sip(uint64 mask) {
 191:src/../h/riscv.hpp ****     asm("csrc sip, %[mask]" : : [mask] "r" (mask));
 192:src/../h/riscv.hpp **** }
 193:src/../h/riscv.hpp **** 
 194:src/../h/riscv.hpp **** inline void  RiscV::ms_sie(uint64 mask) {
 195:src/../h/riscv.hpp ****     asm("csrs sie, %[mask]" : : [mask] "r" (mask));
 196:src/../h/riscv.hpp **** }
GAS LISTING /tmp/ccEFbENn.s 			page 14


 197:src/../h/riscv.hpp **** 
 198:src/../h/riscv.hpp **** inline void  RiscV::mc_sie(uint64 mask){
 199:src/../h/riscv.hpp ****     asm("csrc sie, %[mask]" : : [mask] "r" (mask));
 200:src/../h/riscv.hpp **** }
 201:src/../h/riscv.hpp **** 
 202:src/../h/riscv.hpp **** inline void RiscV::enableInterrupts() {
 203:src/../h/riscv.hpp ****     RiscV::ms_sie(SIP_SSIE);
 426              		.loc 2 203 5
 427              	.LVL50:
 428              	#NO_APP
 429              	.LBB97:
 430              	.LBB98:
 431              	.LBB99:
 195:src/../h/riscv.hpp **** }
 432              		.loc 2 195 5
 195:src/../h/riscv.hpp **** }
 433              		.loc 2 195 51 is_stmt 0
 434 030c 93072000 		li	a5,2
 435              	.LVL51:
 436              	#APP
 437              	# 195 "src/../h/riscv.hpp" 1
 438              		csrs sie, a5
 439              	# 0 "" 2
 440              	.LVL52:
 441              	#NO_APP
 442              	.LBE99:
 443              	.LBE98:
 444              	.LBE97:
 204:src/../h/riscv.hpp ****     RiscV::ms_sie(SIP_SEIE);
 445              		.loc 2 204 5 is_stmt 1
 446              	.LBB104:
 447              	.LBB100:
 448              	.LBB101:
 195:src/../h/riscv.hpp **** }
 449              		.loc 2 195 5
 195:src/../h/riscv.hpp **** }
 450              		.loc 2 195 51 is_stmt 0
 451 0314 13070020 		li	a4,512
 452              	.LVL53:
 453              	#APP
 454              	# 195 "src/../h/riscv.hpp" 1
 455              		csrs sie, a4
 456              	# 0 "" 2
 457              	.LVL54:
 458              	#NO_APP
 459              	.LBE101:
 460              	.LBE100:
 461              	.LBE104:
 205:src/../h/riscv.hpp ****     RiscV::ms_sstatus(SSTATUS_SIE);
 462              		.loc 2 205 5 is_stmt 1
 463              	.LBB105:
 464              	.LBB102:
 465              	.LBB103:
 179:src/../h/riscv.hpp **** }
 466              		.loc 2 179 5
 179:src/../h/riscv.hpp **** }
 467              		.loc 2 179 55 is_stmt 0
GAS LISTING /tmp/ccEFbENn.s 			page 15


 468              	#APP
 469              	# 179 "src/../h/riscv.hpp" 1
 470              		csrs sstatus, a5
 471              	# 0 "" 2
 472              	.LVL55:
 473              	#NO_APP
 474              	.LBE103:
 475              	.LBE102:
 476              	.LBE105:
  78:src/riscv.cpp **** //    RiscV::enableHardwareInterrupts();
  79:src/riscv.cpp **** }
 477              		.loc 1 79 1
 478 0320 83308103 		ld	ra,56(sp)
 479              		.cfi_restore 1
 480 0324 03340103 		ld	s0,48(sp)
 481              		.cfi_restore 8
 482              		.cfi_def_cfa 2, 64
 483 0328 83348102 		ld	s1,40(sp)
 484              		.cfi_restore 9
 485 032c 03390102 		ld	s2,32(sp)
 486              		.cfi_restore 18
 487 0330 83398101 		ld	s3,24(sp)
 488              		.cfi_restore 19
 489 0334 033A0101 		ld	s4,16(sp)
 490              		.cfi_restore 20
 491 0338 833A8100 		ld	s5,8(sp)
 492              		.cfi_restore 21
 493 033c 13010104 		addi	sp,sp,64
 494              		.cfi_def_cfa_offset 0
 495 0340 67800000 		jr	ra
 496              		.cfi_endproc
 497              	.LFE44:
 499              		.align	2
 500              		.globl	_ZN5RiscV10popSppSpieEv
 502              	_ZN5RiscV10popSppSpieEv:
 503              	.LFB45:
  80:src/riscv.cpp **** 
  81:src/riscv.cpp **** //get previous privilege and previous interrupt status
  82:src/riscv.cpp **** void RiscV::popSppSpie() {
 504              		.loc 1 82 26 is_stmt 1
 505              		.cfi_startproc
 506 0344 130101FF 		addi	sp,sp,-16
 507              		.cfi_def_cfa_offset 16
 508 0348 23348100 		sd	s0,8(sp)
 509              		.cfi_offset 8, -8
 510 034c 13040101 		addi	s0,sp,16
 511              		.cfi_def_cfa 8, 0
  83:src/riscv.cpp ****     asm("csrw sepc, ra");
 512              		.loc 1 83 5
 513              		.loc 1 83 25 is_stmt 0
 514              	#APP
 515              	# 83 "src/riscv.cpp" 1
  84              	    asm("sret");
 516              		csrw sepc, ra
 517              	# 0 "" 2
 518              		.loc 1 84 5 is_stmt 1
 519              		.loc 1 84 16 is_stmt 0
GAS LISTING /tmp/ccEFbENn.s 			page 16


 520              	# 84 "src/riscv.cpp" 1
  85              	}
 521              		sret
 522              	# 0 "" 2
 523              		.loc 1 85 1
 524              	#NO_APP
 525 0358 03348100 		ld	s0,8(sp)
 526              		.cfi_restore 8
 527              		.cfi_def_cfa 2, 16
 528 035c 13010101 		addi	sp,sp,16
 529              		.cfi_def_cfa_offset 0
 530 0360 67800000 		jr	ra
 531              		.cfi_endproc
 532              	.LFE45:
 534              		.align	2
 535              		.globl	_ZN5RiscV28executeThreadDispatchSyscallEv
 537              	_ZN5RiscV28executeThreadDispatchSyscallEv:
 538              	.LFB53:
  86:src/riscv.cpp **** 
  87:src/riscv.cpp **** //handler function for traps
  88:src/riscv.cpp **** void RiscV::handleSupervisorTrap() {
  89:src/riscv.cpp **** 
  90:src/riscv.cpp ****     //read scause
  91:src/riscv.cpp ****     uint64 volatile scause = RiscV::r_scause();
  92:src/riscv.cpp **** 
  93:src/riscv.cpp ****     asm("csrr %[sscratch], sscratch" : [sscratch] "=r" (TCB::running->a0Location));
  94:src/riscv.cpp **** 
  95:src/riscv.cpp ****     //interrupt from ecall (both user and supervisor mode)
  96:src/riscv.cpp ****     if(scause == 0x09 || scause == 0x08) {
  97:src/riscv.cpp **** 
  98:src/riscv.cpp ****         //save sstatus and sepc
  99:src/riscv.cpp ****         //sepc should be increased by 4, since this is an ecall trap
 100:src/riscv.cpp ****         uint64 volatile sstatus = RiscV::r_sstatus();
 101:src/riscv.cpp ****         uint64 volatile sepc = RiscV::r_sepc()+4;
 102:src/riscv.cpp ****         TCB::running->sepc = sepc;
 103:src/riscv.cpp ****         TCB::running->sstatus = sstatus;
 104:src/riscv.cpp **** 
 105:src/riscv.cpp ****         //get the syscall ID from a0
 106:src/riscv.cpp ****         uint64 syscallID;
 107:src/riscv.cpp ****         asm("mv %[syscallID], a0" : [syscallID] "=r" (syscallID));
 108:src/riscv.cpp **** 
 109:src/riscv.cpp ****         switch(syscallID){
 110:src/riscv.cpp ****             case 0x01 : executeMemAllocSyscall();break;
 111:src/riscv.cpp ****             case 0x02 : executeMemFreeSyscall();break;
 112:src/riscv.cpp ****             case 0x11 : executeThreadCreateSyscall();break;
 113:src/riscv.cpp ****             case 0x12 : executeThreadExitSyscall();break;
 114:src/riscv.cpp ****             case 0x13 : executeThreadDispatchSyscall();break;
 115:src/riscv.cpp ****             case 0x14 : executeThreadAttachBodySyscall();break;
 116:src/riscv.cpp ****             case 0x15 : executeThreadStartSyscall();break;
 117:src/riscv.cpp ****             case 0x21 : executeSemOpenSyscall();break;
 118:src/riscv.cpp ****             case 0x22 : executeSemCloseSyscall();break;
 119:src/riscv.cpp ****             case 0x23 : executeSemWaitSyscall();break;
 120:src/riscv.cpp ****             case 0x24 : executeSemSignalSyscall();break;
 121:src/riscv.cpp ****             case 0x31 : executeTimeSleepSyscall();break;
 122:src/riscv.cpp ****             case 0x41 : executeGetcSyscall();break;
 123:src/riscv.cpp ****             case 0x42 : executePutcSyscall();break;
 124:src/riscv.cpp ****             case 0x43 : executePutcUtilSyscall();break;
GAS LISTING /tmp/ccEFbENn.s 			page 17


 125:src/riscv.cpp ****             case 0x51 : executeThreadFreeSyscall();break;
 126:src/riscv.cpp ****             case 0x52 : executeSemaphoreFreeSyscall();break;
 127:src/riscv.cpp ****             //in this case we need to save SP and PC at this point so that newly created thread
 128:src/riscv.cpp ****             //can return to this point and exit trap routine regularly
 129:src/riscv.cpp ****             //note that getPC() returns PC incremented by 8 to skip executeForkSyscall
 130:src/riscv.cpp ****             case 0x61 : asm("mv %[sp], sp" : [sp] "=r"(TCB::currentSP));
 131:src/riscv.cpp ****                         RiscV::getPC();
 132:src/riscv.cpp ****                         executeForkSyscall();
 133:src/riscv.cpp ****                         break;
 134:src/riscv.cpp ****         }
 135:src/riscv.cpp **** 
 136:src/riscv.cpp ****         //write previously save sstatus and incremented sepc
 137:src/riscv.cpp ****         RiscV::w_sstatus(TCB::running->sstatus);
 138:src/riscv.cpp ****         RiscV::w_sepc(TCB::running->sepc);
 139:src/riscv.cpp ****     }
 140:src/riscv.cpp **** 
 141:src/riscv.cpp ****     //timer interrupt (in this system's implementation, timer tick is manifested as software interr
 142:src/riscv.cpp ****     else if(scause == (0x01UL<<63 | 0x1)){
 143:src/riscv.cpp **** 
 144:src/riscv.cpp ****         //save sstatus and sepc
 145:src/riscv.cpp ****         //this time sepc remains the same
 146:src/riscv.cpp ****         uint64 volatile sstatus = RiscV::r_sstatus();
 147:src/riscv.cpp ****         uint64 volatile sepc = RiscV::r_sepc();
 148:src/riscv.cpp **** 
 149:src/riscv.cpp ****         //clear the SIP bit for software interrupt
 150:src/riscv.cpp ****         mc_sip(SIP_SSIE);
 151:src/riscv.cpp **** 
 152:src/riscv.cpp **** 
 153:src/riscv.cpp ****         //increase global time and try to awake threads that are asleep
 154:src/riscv.cpp ****         globalTime += 1;
 155:src/riscv.cpp ****         Scheduler::awake();
 156:src/riscv.cpp **** 
 157:src/riscv.cpp ****         //check whether time slice has run out for running thread
 158:src/riscv.cpp ****         //if so, dispatch
 159:src/riscv.cpp ****         TCB::timeSliceCounter++;
 160:src/riscv.cpp ****         if(TCB::timeSliceCounter >= TCB::running->timeSlice) {
 161:src/riscv.cpp **** 
 162:src/riscv.cpp ****             TCB::timeSliceCounter = 0;
 163:src/riscv.cpp **** 
 164:src/riscv.cpp ****             TCB* old = TCB::running;
 165:src/riscv.cpp **** 
 166:src/riscv.cpp ****             old->status = TCB::Status::READY;
 167:src/riscv.cpp **** 
 168:src/riscv.cpp ****             TCB::dispatch();
 169:src/riscv.cpp ****         }
 170:src/riscv.cpp **** 
 171:src/riscv.cpp ****         //write previously save sstatus and sepc
 172:src/riscv.cpp ****         RiscV::w_sstatus(sstatus);
 173:src/riscv.cpp ****         RiscV::w_sepc(sepc);
 174:src/riscv.cpp ****     }
 175:src/riscv.cpp **** 
 176:src/riscv.cpp ****     //hardware interrupt, from console (note that here we only check for keyboard interrupts, handl
 177:src/riscv.cpp ****     else if(scause == (0x01UL<<63 | 0x9)){
 178:src/riscv.cpp ****         //save sstatus and sepc
 179:src/riscv.cpp ****         //this time sepc remains the same
 180:src/riscv.cpp ****         uint64 volatile sstatus = RiscV::r_sstatus();
 181:src/riscv.cpp ****         uint64 volatile sepc = RiscV::r_sepc();
GAS LISTING /tmp/ccEFbENn.s 			page 18


 182:src/riscv.cpp **** 
 183:src/riscv.cpp ****         //get the console status register location, and console status reg value
 184:src/riscv.cpp ****         uint64 status = CONSOLE_STATUS;
 185:src/riscv.cpp ****         asm("mv a0, %[status]" : : [status] "r" (status));
 186:src/riscv.cpp ****         asm("lb a1, 0(a0)");
 187:src/riscv.cpp ****         asm("mv %[status], a1" : [status] "=r" (status));
 188:src/riscv.cpp **** 
 189:src/riscv.cpp ****         //if keyboard is ready to send data
 190:src/riscv.cpp ****         if(status & 1UL)
 191:src/riscv.cpp ****         {
 192:src/riscv.cpp ****             //fetch the character from CONSOLE_TX_DATA register
 193:src/riscv.cpp ****             uint64 data;
 194:src/riscv.cpp ****             char c;
 195:src/riscv.cpp ****             data = CONSOLE_TX_DATA;
 196:src/riscv.cpp ****             asm("mv a0, %[data]" : : [data] "r" (data));
 197:src/riscv.cpp ****             asm("lb a1, 0(a0)");
 198:src/riscv.cpp ****             asm("mv %[c], a1" : [c] "=r" (c));
 199:src/riscv.cpp **** 
 200:src/riscv.cpp ****             //if there was a getc request put the character into the input buffer, othrewise ignore
 201:src/riscv.cpp ****             if(ConsoleUtil::pendingGetc!=0) {
 202:src/riscv.cpp ****                 ConsoleUtil::pendingGetc--;
 203:src/riscv.cpp ****                 ConsoleUtil::putInput(c);
 204:src/riscv.cpp ****             }
 205:src/riscv.cpp ****         }
 206:src/riscv.cpp ****         plic_complete(plic_claim());
 207:src/riscv.cpp **** 
 208:src/riscv.cpp ****         RiscV::w_sstatus(sstatus);
 209:src/riscv.cpp ****         RiscV::w_sepc(sepc);
 210:src/riscv.cpp ****     }
 211:src/riscv.cpp **** 
 212:src/riscv.cpp ****     //illegal instruction, exit running thread
 213:src/riscv.cpp ****     else if(scause == 0x02){
 214:src/riscv.cpp ****         TCB* old = TCB::running;
 215:src/riscv.cpp ****         old->status = TCB::Status::FINISHED;
 216:src/riscv.cpp ****         ConsoleUtil::printString("sepc: ");
 217:src/riscv.cpp ****         uint64 sepc = RiscV::r_sepc();
 218:src/riscv.cpp ****         ConsoleUtil::printInt(sepc,16);
 219:src/riscv.cpp ****         ConsoleUtil::printString("\n");
 220:src/riscv.cpp ****         ConsoleUtil::printString("Illegal instruction\nExiting thread...\n");
 221:src/riscv.cpp ****         TCB::dispatch();
 222:src/riscv.cpp ****     }
 223:src/riscv.cpp **** 
 224:src/riscv.cpp ****     //some other kind of error, for more information check out RiscV handbook
 225:src/riscv.cpp ****     else{
 226:src/riscv.cpp ****         ConsoleUtil::printString("Error: \n");
 227:src/riscv.cpp ****         ConsoleUtil::printString("scause: ");
 228:src/riscv.cpp ****         uint64  scause = RiscV::r_scause();
 229:src/riscv.cpp ****         ConsoleUtil::printInt(scause);
 230:src/riscv.cpp ****         ConsoleUtil::printString("sepc: ");
 231:src/riscv.cpp ****         uint64 sepc = RiscV::r_sepc();
 232:src/riscv.cpp ****         ConsoleUtil::printInt(sepc,16);
 233:src/riscv.cpp ****         ConsoleUtil::printString("\n");
 234:src/riscv.cpp ****         TCB* old = TCB::running;
 235:src/riscv.cpp ****         old->status = TCB::Status::FINISHED;
 236:src/riscv.cpp ****         ConsoleUtil::printString("Exiting thread...\n");
 237:src/riscv.cpp ****         TCB::dispatch();
 238:src/riscv.cpp ****     }
GAS LISTING /tmp/ccEFbENn.s 			page 19


 239:src/riscv.cpp **** 
 240:src/riscv.cpp ****     RiscV::jumpToDesignatedPrivilegeMode();
 241:src/riscv.cpp **** }
 242:src/riscv.cpp **** 
 243:src/riscv.cpp **** void RiscV::executeMemAllocSyscall(){
 244:src/riscv.cpp **** 
 245:src/riscv.cpp ****     //fetch the arguments from a0-a7 registers
 246:src/riscv.cpp ****     uint64 size;
 247:src/riscv.cpp ****     asm("mv %[size], a1" : [size] "=r" (size));
 248:src/riscv.cpp **** 
 249:src/riscv.cpp ****     //call internal allocator and return the address in a0
 250:src/riscv.cpp ****     uint64 addr =(uint64)MemoryAllocator::kmalloc(size);
 251:src/riscv.cpp **** 
 252:src/riscv.cpp ****     asm("mv a0, %[addr]" : : [addr] "r" (addr));
 253:src/riscv.cpp **** 
 254:src/riscv.cpp ****     RiscV::saveA0toSscratch();
 255:src/riscv.cpp **** }
 256:src/riscv.cpp **** 
 257:src/riscv.cpp **** void RiscV::executeMemFreeSyscall() {
 258:src/riscv.cpp **** 
 259:src/riscv.cpp ****     //fetch the arguments from a0-a7 registers
 260:src/riscv.cpp ****     uint64 iaddr, status;
 261:src/riscv.cpp **** 
 262:src/riscv.cpp **** 
 263:src/riscv.cpp ****     if(MemoryAllocator::initialized) {
 264:src/riscv.cpp ****         //call internal allocator and free memory which iaddr points to
 265:src/riscv.cpp ****         asm("mv %[iaddr], a1" : [iaddr] "=r"(iaddr));
 266:src/riscv.cpp ****         status = MemoryAllocator::kfree((void *) iaddr);;
 267:src/riscv.cpp ****     }
 268:src/riscv.cpp ****     else
 269:src/riscv.cpp ****         status = -1;
 270:src/riscv.cpp **** 
 271:src/riscv.cpp ****     //return status
 272:src/riscv.cpp ****     asm("mv a0, %[status]" : : [status] "r" (status));
 273:src/riscv.cpp **** 
 274:src/riscv.cpp ****     RiscV::saveA0toSscratch();
 275:src/riscv.cpp **** }
 276:src/riscv.cpp **** 
 277:src/riscv.cpp **** void RiscV::executeThreadCreateSyscall(){
 278:src/riscv.cpp **** 
 279:src/riscv.cpp ****     //fetch the arguments from a0-a7 registers
 280:src/riscv.cpp ****     uint64 iroutine, iargs, ihandle, istack;
 281:src/riscv.cpp **** 
 282:src/riscv.cpp ****     asm("mv %[istack], a7" : [istack] "=r"(istack));
 283:src/riscv.cpp ****     asm("mv %[ihandle], a1" : [ihandle] "=r"(ihandle));
 284:src/riscv.cpp ****     asm("mv %[iroutine], a2" : [iroutine] "=r"(iroutine));
 285:src/riscv.cpp ****     asm("mv %[iargs], a3" : [iargs] "=r"(iargs));
 286:src/riscv.cpp **** 
 287:src/riscv.cpp ****     //call constructor for Thread Control Block and if not null, write thread address into ihandle
 288:src/riscv.cpp ****     TCB *tcb = new TCB((TCB::Body)iroutine, (void*)iargs, (uint64*)istack, DEFAULT_TIME_SLICE);
 289:src/riscv.cpp **** 
 290:src/riscv.cpp ****     uint64 status = 0;
 291:src/riscv.cpp **** 
 292:src/riscv.cpp ****     if(tcb == nullptr){
 293:src/riscv.cpp ****         status = -1;
 294:src/riscv.cpp ****     }
 295:src/riscv.cpp ****     else{
GAS LISTING /tmp/ccEFbENn.s 			page 20


 296:src/riscv.cpp ****         if(tcb->body)
 297:src/riscv.cpp ****             Scheduler::put(tcb);
 298:src/riscv.cpp ****         *((TCB**)ihandle) = tcb;
 299:src/riscv.cpp ****     }
 300:src/riscv.cpp **** 
 301:src/riscv.cpp ****     //return status
 302:src/riscv.cpp ****     asm("mv a0, %[status]" : : [status] "r" (status));
 303:src/riscv.cpp **** 
 304:src/riscv.cpp ****     RiscV::saveA0toSscratch();
 305:src/riscv.cpp **** }
 306:src/riscv.cpp **** 
 307:src/riscv.cpp **** void RiscV::executeThreadAttachBodySyscall(){
 308:src/riscv.cpp **** 
 309:src/riscv.cpp ****     //fetch the arguments from a0-a7 registers
 310:src/riscv.cpp ****     uint64 iroutine, iargs, ihandle, istack;
 311:src/riscv.cpp **** 
 312:src/riscv.cpp **** 
 313:src/riscv.cpp ****     asm("mv %[istack], a7" : [istack] "=r"(istack));
 314:src/riscv.cpp ****     asm("mv %[ihandle], a1" : [ihandle] "=r"(ihandle));
 315:src/riscv.cpp ****     asm("mv %[iroutine], a2" : [iroutine] "=r"(iroutine));
 316:src/riscv.cpp ****     asm("mv %[iargs], a3" : [iargs] "=r"(iargs));
 317:src/riscv.cpp **** 
 318:src/riscv.cpp ****     TCB *tcb = new TCB((TCB::Body)iroutine, (void*)iargs, (uint64*)istack, DEFAULT_TIME_SLICE);
 319:src/riscv.cpp **** 
 320:src/riscv.cpp ****     uint64 status = 0;
 321:src/riscv.cpp **** 
 322:src/riscv.cpp ****     if(tcb == nullptr){
 323:src/riscv.cpp ****         status = -1;
 324:src/riscv.cpp ****     }
 325:src/riscv.cpp ****     else{
 326:src/riscv.cpp ****         tcb->body = (TCB::Body)iroutine;
 327:src/riscv.cpp ****         tcb->args = (void*)iargs;
 328:src/riscv.cpp ****         *((TCB**)ihandle) = tcb;
 329:src/riscv.cpp ****     }
 330:src/riscv.cpp **** 
 331:src/riscv.cpp ****     asm("mv a0, %[status]" : : [status] "r" (status));
 332:src/riscv.cpp **** 
 333:src/riscv.cpp ****     RiscV::saveA0toSscratch();
 334:src/riscv.cpp **** }
 335:src/riscv.cpp **** 
 336:src/riscv.cpp **** void RiscV::executeThreadStartSyscall(){
 337:src/riscv.cpp **** 
 338:src/riscv.cpp ****     //fetch the arguments from a0-a7 registers
 339:src/riscv.cpp ****     uint64 ihandle;
 340:src/riscv.cpp **** 
 341:src/riscv.cpp ****     asm("mv %[ihandle], a1" : [ihandle] "=r"(ihandle));
 342:src/riscv.cpp **** 
 343:src/riscv.cpp ****     //get the handle and put tcb in scheduler if not null
 344:src/riscv.cpp ****     TCB* tcb =(TCB*)ihandle;
 345:src/riscv.cpp **** 
 346:src/riscv.cpp ****     uint64 status = 0;
 347:src/riscv.cpp **** 
 348:src/riscv.cpp ****     if(tcb == nullptr){
 349:src/riscv.cpp ****         status = -1;
 350:src/riscv.cpp ****     }
 351:src/riscv.cpp ****     else{
 352:src/riscv.cpp ****         tcb->status = TCB::Status::READY;
GAS LISTING /tmp/ccEFbENn.s 			page 21


 353:src/riscv.cpp ****         Scheduler::put(tcb);
 354:src/riscv.cpp ****         TCB::dispatch();
 355:src/riscv.cpp ****     }
 356:src/riscv.cpp **** 
 357:src/riscv.cpp ****     //return status
 358:src/riscv.cpp ****     asm("mv a0, %[status]" : : [status] "r" (status));
 359:src/riscv.cpp **** 
 360:src/riscv.cpp ****     RiscV::saveA0toSscratch();
 361:src/riscv.cpp **** }
 362:src/riscv.cpp **** 
 363:src/riscv.cpp **** void RiscV::executeThreadExitSyscall() {
 364:src/riscv.cpp **** 
 365:src/riscv.cpp ****     //fetch the arguments from a0-a7 registers
 366:src/riscv.cpp ****     uint64 status = 0;
 367:src/riscv.cpp **** 
 368:src/riscv.cpp ****     //if thread not null, set status to finished and dispatch
 369:src/riscv.cpp ****     if(TCB::running == nullptr){
 370:src/riscv.cpp ****         status = -1;
 371:src/riscv.cpp ****     }
 372:src/riscv.cpp ****     else{
 373:src/riscv.cpp ****         TCB* old = TCB::running;
 374:src/riscv.cpp ****         old->status = TCB::Status::FINISHED;
 375:src/riscv.cpp ****         TCB::dispatch();
 376:src/riscv.cpp ****     }
 377:src/riscv.cpp **** 
 378:src/riscv.cpp ****     asm("mv a0, %[status]" : : [status] "r" (status));
 379:src/riscv.cpp **** 
 380:src/riscv.cpp ****     RiscV::saveA0toSscratch();
 381:src/riscv.cpp **** }
 382:src/riscv.cpp **** 
 383:src/riscv.cpp **** void RiscV::executeThreadDispatchSyscall(){
 539              		.loc 1 383 43 is_stmt 1
 540              		.cfi_startproc
 541 0364 130101FF 		addi	sp,sp,-16
 542              		.cfi_def_cfa_offset 16
 543 0368 23341100 		sd	ra,8(sp)
 544 036c 23308100 		sd	s0,0(sp)
 545              		.cfi_offset 1, -8
 546              		.cfi_offset 8, -16
 547 0370 13040101 		addi	s0,sp,16
 548              		.cfi_def_cfa 8, 0
 384:src/riscv.cpp **** 
 385:src/riscv.cpp ****     //dispatch current running thread
 386:src/riscv.cpp ****     TCB* old = TCB::running;
 549              		.loc 1 386 5
 550              		.loc 1 386 10 is_stmt 0
 551 0374 97070000 		la	a5,_ZN3TCB7runningE
 551      83B70700 
 552 037c 83B70700 		ld	a5,0(a5)
 553              	.LVL56:
 387:src/riscv.cpp ****     old->status = TCB::Status::READY;
 554              		.loc 1 387 5 is_stmt 1
 555              		.loc 1 387 17 is_stmt 0
 556 0380 13071000 		li	a4,1
 557 0384 23A8E700 		sw	a4,16(a5)
 388:src/riscv.cpp ****     TCB::dispatch();
 558              		.loc 1 388 5 is_stmt 1
GAS LISTING /tmp/ccEFbENn.s 			page 22


 559              		.loc 1 388 18 is_stmt 0
 560 0388 97000000 		call	_ZN3TCB8dispatchEv@plt
 560      E7800000 
 561              	.LVL57:
 389:src/riscv.cpp **** }
 562              		.loc 1 389 1
 563 0390 83308100 		ld	ra,8(sp)
 564              		.cfi_restore 1
 565 0394 03340100 		ld	s0,0(sp)
 566              		.cfi_restore 8
 567              		.cfi_def_cfa 2, 16
 568 0398 13010101 		addi	sp,sp,16
 569              		.cfi_def_cfa_offset 0
 570 039c 67800000 		jr	ra
 571              		.cfi_endproc
 572              	.LFE53:
 574              		.align	2
 575              		.globl	_ZN5RiscV18executePutcSyscallEv
 577              	_ZN5RiscV18executePutcSyscallEv:
 578              	.LFB60:
 390:src/riscv.cpp **** 
 391:src/riscv.cpp **** void RiscV::executeSemOpenSyscall() {
 392:src/riscv.cpp **** 
 393:src/riscv.cpp ****     //fetch the arguments from a0-a7 registers
 394:src/riscv.cpp ****     uint64 ihandle, iinit;
 395:src/riscv.cpp **** 
 396:src/riscv.cpp ****     asm("mv %[ihandle], a1" : [ihandle] "=r"(ihandle));
 397:src/riscv.cpp ****     asm("mv %[iinit], a2" : [iinit] "=r"(iinit));
 398:src/riscv.cpp **** 
 399:src/riscv.cpp ****     //create new Semaphore Control Block and write it into ihandle if not null
 400:src/riscv.cpp ****     SCB *scb = new SCB(iinit);
 401:src/riscv.cpp **** 
 402:src/riscv.cpp ****     uint64 status = 0;
 403:src/riscv.cpp **** 
 404:src/riscv.cpp ****     if(scb == nullptr){
 405:src/riscv.cpp ****         status = -1;
 406:src/riscv.cpp ****     }
 407:src/riscv.cpp ****     else{
 408:src/riscv.cpp ****         *((SCB**)ihandle) = scb;
 409:src/riscv.cpp ****     }
 410:src/riscv.cpp **** 
 411:src/riscv.cpp ****     //return status
 412:src/riscv.cpp ****     asm("mv a0, %[status]" : : [status] "r" (status));
 413:src/riscv.cpp **** 
 414:src/riscv.cpp ****     RiscV::saveA0toSscratch();
 415:src/riscv.cpp **** 
 416:src/riscv.cpp **** }
 417:src/riscv.cpp **** 
 418:src/riscv.cpp **** void RiscV::executeSemCloseSyscall() {
 419:src/riscv.cpp **** 
 420:src/riscv.cpp ****     //fetch the arguments from a0-a7 registers
 421:src/riscv.cpp ****     uint64 ihandle;
 422:src/riscv.cpp **** 
 423:src/riscv.cpp ****     asm("mv %[ihandle], a1" : [ihandle] "=r"(ihandle));
 424:src/riscv.cpp **** 
 425:src/riscv.cpp ****     //delete scb if not null
 426:src/riscv.cpp ****     SCB *scb = (SCB*)ihandle;
GAS LISTING /tmp/ccEFbENn.s 			page 23


 427:src/riscv.cpp ****     uint64 status = 0;
 428:src/riscv.cpp **** 
 429:src/riscv.cpp ****     if(scb == nullptr){
 430:src/riscv.cpp ****         status = -1;
 431:src/riscv.cpp ****     }
 432:src/riscv.cpp ****     else
 433:src/riscv.cpp ****         delete (SCB*)ihandle;
 434:src/riscv.cpp **** 
 435:src/riscv.cpp ****     //return status
 436:src/riscv.cpp ****     asm("mv a0, %[status]" : : [status] "r" (status));
 437:src/riscv.cpp **** 
 438:src/riscv.cpp ****     RiscV::saveA0toSscratch();
 439:src/riscv.cpp **** }
 440:src/riscv.cpp **** 
 441:src/riscv.cpp **** void RiscV::executeSemWaitSyscall() {
 442:src/riscv.cpp **** 
 443:src/riscv.cpp ****     //fetch the arguments from a0-a7 registers
 444:src/riscv.cpp ****     uint64 ihandle;
 445:src/riscv.cpp **** 
 446:src/riscv.cpp ****     asm("mv %[ihandle], a1" : [ihandle] "=r"(ihandle));
 447:src/riscv.cpp **** 
 448:src/riscv.cpp ****     uint64 status = 0;
 449:src/riscv.cpp ****     //call wait method on ihandle scb
 450:src/riscv.cpp **** 
 451:src/riscv.cpp ****     if(((SCB*)ihandle) != nullptr)
 452:src/riscv.cpp ****         ((SCB*)ihandle)->wait();
 453:src/riscv.cpp ****     else
 454:src/riscv.cpp ****         status = -1;
 455:src/riscv.cpp **** 
 456:src/riscv.cpp ****     if(TCB::running->semError != nullptr)
 457:src/riscv.cpp ****         status = -1;
 458:src/riscv.cpp ****     else
 459:src/riscv.cpp ****         status = 0;
 460:src/riscv.cpp **** 
 461:src/riscv.cpp ****     //return status
 462:src/riscv.cpp ****     asm("mv a0, %[status]" : : [status] "r" (status));
 463:src/riscv.cpp **** 
 464:src/riscv.cpp ****     RiscV::saveA0toSscratch();
 465:src/riscv.cpp **** 
 466:src/riscv.cpp **** }
 467:src/riscv.cpp **** 
 468:src/riscv.cpp **** void RiscV::executeSemSignalSyscall() {
 469:src/riscv.cpp **** 
 470:src/riscv.cpp ****     //fetch the arguments from a0-a7 registers
 471:src/riscv.cpp ****     uint64 ihandle;
 472:src/riscv.cpp **** 
 473:src/riscv.cpp ****     asm("mv %[ihandle], a1" : [ihandle] "=r"(ihandle));
 474:src/riscv.cpp **** 
 475:src/riscv.cpp ****     //call signal method on ihandle scb
 476:src/riscv.cpp **** 
 477:src/riscv.cpp ****     uint64 status = 0;
 478:src/riscv.cpp **** 
 479:src/riscv.cpp ****     if(((SCB*)ihandle) != nullptr)
 480:src/riscv.cpp ****         ((SCB*)ihandle)->signal();
 481:src/riscv.cpp ****     else
 482:src/riscv.cpp ****         status = -1;
 483:src/riscv.cpp **** 
GAS LISTING /tmp/ccEFbENn.s 			page 24


 484:src/riscv.cpp ****     //return status
 485:src/riscv.cpp ****     asm("mv a0, %[status]" : : [status] "r" (status));
 486:src/riscv.cpp **** 
 487:src/riscv.cpp ****     RiscV::saveA0toSscratch();
 488:src/riscv.cpp **** }
 489:src/riscv.cpp **** 
 490:src/riscv.cpp **** void RiscV::executeTimeSleepSyscall() {
 491:src/riscv.cpp **** 
 492:src/riscv.cpp ****     //fetch the arguments from a0-a7 registers
 493:src/riscv.cpp ****     uint64 itime;
 494:src/riscv.cpp **** 
 495:src/riscv.cpp ****     asm("mv %[itime], a1" : [itime] "=r"(itime));
 496:src/riscv.cpp **** 
 497:src/riscv.cpp ****     //calculate wake time for running thread and put it to sleep
 498:src/riscv.cpp ****     //fetch new running with dispatch
 499:src/riscv.cpp ****     TCB* tcb = TCB::running;
 500:src/riscv.cpp ****     tcb->sleepTime = globalTime;
 501:src/riscv.cpp ****     tcb->wakeTime = globalTime + itime;
 502:src/riscv.cpp **** 
 503:src/riscv.cpp ****     Scheduler::sleep(tcb);
 504:src/riscv.cpp **** 
 505:src/riscv.cpp ****     tcb->status = TCB::Status::BLOCKED;
 506:src/riscv.cpp **** 
 507:src/riscv.cpp ****     TCB::dispatch();
 508:src/riscv.cpp **** 
 509:src/riscv.cpp ****     uint64 status = 0;
 510:src/riscv.cpp **** 
 511:src/riscv.cpp ****     //return status
 512:src/riscv.cpp ****     asm("mv a0, %[status]" : : [status] "r" (status));
 513:src/riscv.cpp **** 
 514:src/riscv.cpp ****     RiscV::saveA0toSscratch();
 515:src/riscv.cpp **** }
 516:src/riscv.cpp **** 
 517:src/riscv.cpp **** void RiscV::executeGetcSyscall() {
 518:src/riscv.cpp **** 
 519:src/riscv.cpp ****     //register a pending getc call
 520:src/riscv.cpp ****     if(!userMainFinished)
 521:src/riscv.cpp ****         ConsoleUtil::pendingGetc++;
 522:src/riscv.cpp **** 
 523:src/riscv.cpp ****     //get character from input buffer
 524:src/riscv.cpp ****     char c = ConsoleUtil::getInput();
 525:src/riscv.cpp **** 
 526:src/riscv.cpp ****     //if char == \n echo it as LF and CR
 527:src/riscv.cpp ****     if(c==13) {
 528:src/riscv.cpp ****         ConsoleUtil::putOutput(13);
 529:src/riscv.cpp ****         ConsoleUtil::putOutput(10);
 530:src/riscv.cpp ****     }
 531:src/riscv.cpp ****     //if not ESC character, echo it to console
 532:src/riscv.cpp ****     else if(c!=0x01b)
 533:src/riscv.cpp ****         ConsoleUtil::putOutput(c);
 534:src/riscv.cpp **** 
 535:src/riscv.cpp ****     //return character
 536:src/riscv.cpp ****     asm("mv a0, %[c]" : : [c] "r" (c));
 537:src/riscv.cpp **** 
 538:src/riscv.cpp ****     RiscV::saveA0toSscratch();
 539:src/riscv.cpp **** }
 540:src/riscv.cpp **** 
GAS LISTING /tmp/ccEFbENn.s 			page 25


 541:src/riscv.cpp **** void RiscV::executePutcSyscall() {
 579              		.loc 1 541 34 is_stmt 1
 580              		.cfi_startproc
 581 03a0 130101FF 		addi	sp,sp,-16
 582              		.cfi_def_cfa_offset 16
 583 03a4 23341100 		sd	ra,8(sp)
 584 03a8 23308100 		sd	s0,0(sp)
 585              		.cfi_offset 1, -8
 586              		.cfi_offset 8, -16
 587 03ac 13040101 		addi	s0,sp,16
 588              		.cfi_def_cfa 8, 0
 542:src/riscv.cpp **** 
 543:src/riscv.cpp ****     //register a pending putc call
 544:src/riscv.cpp ****     if(!userMainFinished)
 589              		.loc 1 544 5
 590              		.loc 1 544 8 is_stmt 0
 591 03b0 97070000 		lbu	a5,.LANCHOR0+16
 591      83C70700 
 592              		.loc 1 544 5
 593 03b8 639C0700 		bnez	a5,.L23
 545:src/riscv.cpp ****         ConsoleUtil::pendingPutc++;
 594              		.loc 1 545 9 is_stmt 1
 595              		.loc 1 545 33 is_stmt 0
 596 03bc 17070000 		la	a4,_ZN11ConsoleUtil11pendingPutcE
 596      03370700 
 597 03c4 83370700 		ld	a5,0(a4)
 598 03c8 93871700 		addi	a5,a5,1
 599 03cc 2330F700 		sd	a5,0(a4)
 600              	.L23:
 546:src/riscv.cpp **** 
 547:src/riscv.cpp ****     char c;
 601              		.loc 1 547 5 is_stmt 1
 548:src/riscv.cpp **** 
 549:src/riscv.cpp ****     asm("mv %[c], a1" : [c] "=r"(c));
 602              		.loc 1 549 5
 603              		.loc 1 549 37 is_stmt 0
 604              	#APP
 605              	# 549 "src/riscv.cpp" 1
 550              	
 606              		mv a0, a1
 607              	# 0 "" 2
 608              	.LVL58:
 551:src/riscv.cpp ****     //put character in output buffer
 552:src/riscv.cpp ****     ConsoleUtil::putOutput(c);
 609              		.loc 1 552 5 is_stmt 1
 610              		.loc 1 552 27 is_stmt 0
 611              	#NO_APP
 612 03d4 1375F50F 		andi	a0,a0,0xff
 613 03d8 97000000 		call	_ZN11ConsoleUtil9putOutputEc@plt
 613      E7800000 
 614              	.LVL59:
 553:src/riscv.cpp **** }
 615              		.loc 1 553 1
 616 03e0 83308100 		ld	ra,8(sp)
 617              		.cfi_restore 1
 618 03e4 03340100 		ld	s0,0(sp)
 619              		.cfi_restore 8
GAS LISTING /tmp/ccEFbENn.s 			page 26


 620              		.cfi_def_cfa 2, 16
 621 03e8 13010101 		addi	sp,sp,16
 622              		.cfi_def_cfa_offset 0
 623 03ec 67800000 		jr	ra
 624              		.cfi_endproc
 625              	.LFE60:
 627              		.align	2
 628              		.globl	_ZN5RiscV11putcWrapperEPv
 630              	_ZN5RiscV11putcWrapperEPv:
 631              	.LFB61:
 554:src/riscv.cpp **** 
 555:src/riscv.cpp **** //wrapper function for putcThread
 556:src/riscv.cpp **** //spins in a while loop and checks whether console is ready to take output
 557:src/riscv.cpp **** //if ready read data from output buffer
 558:src/riscv.cpp **** void RiscV::putcWrapper(void* arg)
 559:src/riscv.cpp **** {
 632              		.loc 1 559 1 is_stmt 1
 633              		.cfi_startproc
 634              	.LVL60:
 635 03f0 130101FE 		addi	sp,sp,-32
 636              		.cfi_def_cfa_offset 32
 637 03f4 233C1100 		sd	ra,24(sp)
 638 03f8 23388100 		sd	s0,16(sp)
 639              		.cfi_offset 1, -8
 640              		.cfi_offset 8, -16
 641 03fc 13040102 		addi	s0,sp,32
 642              		.cfi_def_cfa 8, 0
 643 0400 6F00C000 		j	.L26
 644              	.LVL61:
 645              	.L27:
 646              	.LBB106:
 647              	.LBB107:
 560:src/riscv.cpp ****     while(true)
 561:src/riscv.cpp ****     {
 562:src/riscv.cpp ****         //read console status from status register
 563:src/riscv.cpp ****         uint64 status = CONSOLE_STATUS;
 564:src/riscv.cpp ****         asm("mv a0, %[status]" : : [status] "r" (status));
 565:src/riscv.cpp ****         asm("lb a1, 0(a0)");
 566:src/riscv.cpp ****         asm("mv %[status], a1" : [status] "=r" (status));
 567:src/riscv.cpp **** 
 568:src/riscv.cpp ****         //if console ready..
 569:src/riscv.cpp ****         if(status & 1UL<<5){
 570:src/riscv.cpp **** 
 571:src/riscv.cpp ****             //get character from output buffer with possible block if nothing in buffer
 572:src/riscv.cpp ****                 char volatile c = ConsoleUtil::putcUtilSyscall();
 573:src/riscv.cpp ****                 uint64 data = CONSOLE_RX_DATA;
 574:src/riscv.cpp ****                 asm("mv a0, %[data]" : : [data] "r"(data));
 575:src/riscv.cpp ****                 asm("mv a1, %[c]" : : [c] "r"(c));
 576:src/riscv.cpp ****                 asm("sb a1,0(a0)");
 577:src/riscv.cpp **** 
 578:src/riscv.cpp ****             //decrement number of pending putc requests
 579:src/riscv.cpp ****             if(ConsoleUtil::pendingPutc>0)
 580:src/riscv.cpp ****                 ConsoleUtil::pendingPutc--;
 581:src/riscv.cpp ****         }
 582:src/riscv.cpp ****         else
 583:src/riscv.cpp ****             thread_dispatch();
 648              		.loc 1 583 13
GAS LISTING /tmp/ccEFbENn.s 			page 27


 649              		.loc 1 583 28 is_stmt 0
 650 0404 97000000 		call	_Z15thread_dispatchv@plt
 650      E7800000 
 651              	.LVL62:
 652              	.L26:
 653              	.LBE107:
 654              	.LBE106:
 560:src/riscv.cpp ****     while(true)
 655              		.loc 1 560 5 is_stmt 1
 656              	.LBB110:
 563:src/riscv.cpp ****         asm("mv a0, %[status]" : : [status] "r" (status));
 657              		.loc 1 563 9
 563:src/riscv.cpp ****         asm("mv a0, %[status]" : : [status] "r" (status));
 658              		.loc 1 563 16 is_stmt 0
 659 040c 97070000 		la	a5,CONSOLE_STATUS
 659      83B70700 
 660 0414 83B70700 		ld	a5,0(a5)
 661              	.LVL63:
 564:src/riscv.cpp ****         asm("lb a1, 0(a0)");
 662              		.loc 1 564 9 is_stmt 1
 564:src/riscv.cpp ****         asm("lb a1, 0(a0)");
 663              		.loc 1 564 58 is_stmt 0
 664              	#APP
 665              	# 564 "src/riscv.cpp" 1
 565:src/riscv.cpp ****         asm("mv %[status], a1" : [status] "=r" (status));
 666              		mv a0, a5
 667              	# 0 "" 2
 668              		.loc 1 565 9 is_stmt 1
 565:src/riscv.cpp ****         asm("mv %[status], a1" : [status] "=r" (status));
 669              		.loc 1 565 28 is_stmt 0
 670              	# 565 "src/riscv.cpp" 1
 566:src/riscv.cpp **** 
 671              		lb a1, 0(a0)
 672              	# 0 "" 2
 673              		.loc 1 566 9 is_stmt 1
 566:src/riscv.cpp **** 
 674              		.loc 1 566 57 is_stmt 0
 675              	# 566 "src/riscv.cpp" 1
 676              		mv a5, a1
 677              	# 0 "" 2
 678              	.LVL64:
 569:src/riscv.cpp **** 
 679              		.loc 1 569 9 is_stmt 1
 680              	#NO_APP
 681              	.LBB109:
 569:src/riscv.cpp **** 
 682              		.loc 1 569 19 is_stmt 0
 683 0424 93F70702 		andi	a5,a5,32
 684              	.LVL65:
 569:src/riscv.cpp **** 
 685              		.loc 1 569 9
 686 0428 E38E07FC 		beqz	a5,.L27
 687              	.LBB108:
 572:src/riscv.cpp ****                 uint64 data = CONSOLE_RX_DATA;
 688              		.loc 1 572 17 is_stmt 1
 572:src/riscv.cpp ****                 uint64 data = CONSOLE_RX_DATA;
 689              		.loc 1 572 63 is_stmt 0
GAS LISTING /tmp/ccEFbENn.s 			page 28


 690 042c 97000000 		call	_ZN11ConsoleUtil15putcUtilSyscallEv@plt
 690      E7800000 
 691              	.LVL66:
 572:src/riscv.cpp ****                 uint64 data = CONSOLE_RX_DATA;
 692              		.loc 1 572 64
 693 0434 A307A4FE 		sb	a0,-17(s0)
 573:src/riscv.cpp ****                 asm("mv a0, %[data]" : : [data] "r"(data));
 694              		.loc 1 573 17 is_stmt 1
 573:src/riscv.cpp ****                 asm("mv a0, %[data]" : : [data] "r"(data));
 695              		.loc 1 573 24 is_stmt 0
 696 0438 97070000 		la	a5,CONSOLE_RX_DATA
 696      83B70700 
 697 0440 83B70700 		ld	a5,0(a5)
 698              	.LVL67:
 574:src/riscv.cpp ****                 asm("mv a1, %[c]" : : [c] "r"(c));
 699              		.loc 1 574 17 is_stmt 1
 574:src/riscv.cpp ****                 asm("mv a1, %[c]" : : [c] "r"(c));
 700              		.loc 1 574 59 is_stmt 0
 701              	#APP
 702              	# 574 "src/riscv.cpp" 1
 575:src/riscv.cpp ****                 asm("sb a1,0(a0)");
 703              		mv a0, a5
 704              	# 0 "" 2
 705              		.loc 1 575 17 is_stmt 1
 575:src/riscv.cpp ****                 asm("sb a1,0(a0)");
 706              		.loc 1 575 47 is_stmt 0
 707              	#NO_APP
 708 0448 8347F4FE 		lbu	a5,-17(s0)
 709              	.LVL68:
 575:src/riscv.cpp ****                 asm("sb a1,0(a0)");
 710              		.loc 1 575 50
 711              	#APP
 712              	# 575 "src/riscv.cpp" 1
 576:src/riscv.cpp **** 
 713              		mv a1, a5
 714              	# 0 "" 2
 715              		.loc 1 576 17 is_stmt 1
 576:src/riscv.cpp **** 
 716              		.loc 1 576 35 is_stmt 0
 717              	# 576 "src/riscv.cpp" 1
 579:src/riscv.cpp ****                 ConsoleUtil::pendingPutc--;
 718              		sb a1,0(a0)
 719              	# 0 "" 2
 720              		.loc 1 579 13 is_stmt 1
 579:src/riscv.cpp ****                 ConsoleUtil::pendingPutc--;
 721              		.loc 1 579 40 is_stmt 0
 722              	#NO_APP
 723 0454 97070000 		la	a5,_ZN11ConsoleUtil11pendingPutcE
 723      83B70700 
 724 045c 83B70700 		ld	a5,0(a5)
 579:src/riscv.cpp ****                 ConsoleUtil::pendingPutc--;
 725              		.loc 1 579 13
 726 0460 E38607FA 		beqz	a5,.L26
 580:src/riscv.cpp ****         }
 727              		.loc 1 580 17 is_stmt 1
 580:src/riscv.cpp ****         }
 728              		.loc 1 580 41 is_stmt 0
GAS LISTING /tmp/ccEFbENn.s 			page 29


 729 0464 9387F7FF 		addi	a5,a5,-1
 730 0468 17070000 		la	a4,_ZN11ConsoleUtil11pendingPutcE
 730      03370700 
 731 0470 2330F700 		sd	a5,0(a4)
 732 0474 6FF09FF9 		j	.L26
 733              	.LBE108:
 734              	.LBE109:
 735              	.LBE110:
 736              		.cfi_endproc
 737              	.LFE61:
 739              		.align	2
 740              		.globl	_ZN5RiscV29jumpToDesignatedPrivilegeModeEv
 742              	_ZN5RiscV29jumpToDesignatedPrivilegeModeEv:
 743              	.LFB63:
 584:src/riscv.cpp ****     }
 585:src/riscv.cpp **** }
 586:src/riscv.cpp **** 
 587:src/riscv.cpp **** //utility syscall to get character from output buffer
 588:src/riscv.cpp **** //syscall is needed because we don't want to fiddle with kernel structures from anywhere but the tr
 589:src/riscv.cpp **** void RiscV::executePutcUtilSyscall() {
 590:src/riscv.cpp ****     char c = ConsoleUtil::getOutput();
 591:src/riscv.cpp ****     asm("mv a0, %[c]" : : [c] "r" ((uint64)(c)) );
 592:src/riscv.cpp **** 
 593:src/riscv.cpp ****     RiscV::saveA0toSscratch();
 594:src/riscv.cpp **** }
 595:src/riscv.cpp **** 
 596:src/riscv.cpp **** //return to privilege that was given at creation
 597:src/riscv.cpp **** void RiscV::jumpToDesignatedPrivilegeMode() {
 744              		.loc 1 597 45 is_stmt 1
 745              		.cfi_startproc
 746 0478 130101FF 		addi	sp,sp,-16
 747              		.cfi_def_cfa_offset 16
 748 047c 23348100 		sd	s0,8(sp)
 749              		.cfi_offset 8, -8
 750 0480 13040101 		addi	s0,sp,16
 751              		.cfi_def_cfa 8, 0
 598:src/riscv.cpp ****     if(TCB::running->mode == TCB::Mode::SUPERVISOR) {
 752              		.loc 1 598 5
 753              	.LBB111:
 754              		.loc 1 598 22 is_stmt 0
 755 0484 97070000 		la	a5,_ZN3TCB7runningE
 755      83B70700 
 756 048c 83B70700 		ld	a5,0(a5)
 757 0490 03A74701 		lw	a4,20(a5)
 758              		.loc 1 598 5
 759 0494 93071000 		li	a5,1
 760 0498 630AF702 		beq	a4,a5,.L34
 761              	.LBB112:
 599:src/riscv.cpp ****         uint64 satp = ((uint64)1<<63) | ((uint64)(RiscV::kPMT)>>12);
 600:src/riscv.cpp ****         asm("csrw satp, %[satp]" : : [satp] "r" (satp));
 601:src/riscv.cpp ****         RiscV::ms_sstatus(RiscV::SSTATUS_SPP);
 602:src/riscv.cpp ****     }
 603:src/riscv.cpp ****     else {
 604:src/riscv.cpp ****         uint64 satp = ((uint64)1<<63) | ((uint64)(RiscV::uPMT)>>12);
 762              		.loc 1 604 9 is_stmt 1
 763              		.loc 1 604 63 is_stmt 0
 764 049c 97070000 		ld	a5,.LANCHOR0+8
GAS LISTING /tmp/ccEFbENn.s 			page 30


 764      83B70700 
 765 04a4 93D7C700 		srli	a5,a5,12
 766              		.loc 1 604 16
 767 04a8 1307F0FF 		li	a4,-1
 768 04ac 1317F703 		slli	a4,a4,63
 769 04b0 B3E7E700 		or	a5,a5,a4
 770              	.LVL69:
 605:src/riscv.cpp ****         asm("csrw satp, %[satp]" : : [satp] "r" (satp));
 771              		.loc 1 605 9 is_stmt 1
 772              		.loc 1 605 56 is_stmt 0
 773              	#APP
 774              	# 605 "src/riscv.cpp" 1
 606              	        RiscV::mc_sstatus(RiscV::SSTATUS_SPP);
 775              		csrw satp, a5
 776              	# 0 "" 2
 777              		.loc 1 606 9 is_stmt 1
 778              	.LVL70:
 779              	#NO_APP
 780              	.LBB113:
 781              	.LBB114:
 183:src/../h/riscv.hpp **** }
 782              		.loc 2 183 5
 183:src/../h/riscv.hpp **** }
 783              		.loc 2 183 55 is_stmt 0
 784 04b8 93070010 		li	a5,256
 785              	.LVL71:
 786              	#APP
 787              	# 183 "src/../h/riscv.hpp" 1
 788              		csrc sstatus, a5
 789              	# 0 "" 2
 790              	.LVL72:
 791              	#NO_APP
 792              	.L30:
 793              	.LBE114:
 794              	.LBE113:
 795              	.LBE112:
 796              	.LBE111:
 607:src/riscv.cpp ****     }
 608:src/riscv.cpp **** }
 797              		.loc 1 608 1
 798 04c0 03348100 		ld	s0,8(sp)
 799              		.cfi_remember_state
 800              		.cfi_restore 8
 801              		.cfi_def_cfa 2, 16
 802 04c4 13010101 		addi	sp,sp,16
 803              		.cfi_def_cfa_offset 0
 804 04c8 67800000 		jr	ra
 805              	.L34:
 806              		.cfi_restore_state
 807              	.LBB118:
 808              	.LBB115:
 599:src/riscv.cpp ****         asm("csrw satp, %[satp]" : : [satp] "r" (satp));
 809              		.loc 1 599 9 is_stmt 1
 599:src/riscv.cpp ****         asm("csrw satp, %[satp]" : : [satp] "r" (satp));
 810              		.loc 1 599 63 is_stmt 0
 811 04cc 97070000 		ld	a5,.LANCHOR0
 811      83B70700 
GAS LISTING /tmp/ccEFbENn.s 			page 31


 812 04d4 93D7C700 		srli	a5,a5,12
 599:src/riscv.cpp ****         asm("csrw satp, %[satp]" : : [satp] "r" (satp));
 813              		.loc 1 599 16
 814 04d8 1307F0FF 		li	a4,-1
 815 04dc 1317F703 		slli	a4,a4,63
 816 04e0 B3E7E700 		or	a5,a5,a4
 817              	.LVL73:
 600:src/riscv.cpp ****         RiscV::ms_sstatus(RiscV::SSTATUS_SPP);
 818              		.loc 1 600 9 is_stmt 1
 600:src/riscv.cpp ****         RiscV::ms_sstatus(RiscV::SSTATUS_SPP);
 819              		.loc 1 600 56 is_stmt 0
 820              	#APP
 821              	# 600 "src/riscv.cpp" 1
 601:src/riscv.cpp ****     }
 822              		csrw satp, a5
 823              	# 0 "" 2
 824              		.loc 1 601 9 is_stmt 1
 825              	.LVL74:
 826              	#NO_APP
 827              	.LBB116:
 828              	.LBB117:
 179:src/../h/riscv.hpp **** }
 829              		.loc 2 179 5
 179:src/../h/riscv.hpp **** }
 830              		.loc 2 179 55 is_stmt 0
 831 04e8 93070010 		li	a5,256
 832              	.LVL75:
 833              	#APP
 834              	# 179 "src/../h/riscv.hpp" 1
 180:src/../h/riscv.hpp **** 
 835              		csrs sstatus, a5
 836              	# 0 "" 2
 837              		.loc 2 180 1
 838              	#NO_APP
 839 04f0 6FF01FFD 		j	.L30
 840              	.LBE117:
 841              	.LBE116:
 842              	.LBE115:
 843              	.LBE118:
 844              		.cfi_endproc
 845              	.LFE63:
 847              		.align	2
 848              		.globl	_ZN5RiscV8finalizeEv
 850              	_ZN5RiscV8finalizeEv:
 851              	.LFB64:
 609:src/riscv.cpp **** 
 610:src/riscv.cpp **** 
 611:src/riscv.cpp **** //clear out the scheduler and let console finish remaining outputs if there are any
 612:src/riscv.cpp **** void RiscV::finalize() {
 852              		.loc 1 612 24 is_stmt 1
 853              		.cfi_startproc
 854 04f4 130101FF 		addi	sp,sp,-16
 855              		.cfi_def_cfa_offset 16
 856 04f8 23341100 		sd	ra,8(sp)
 857 04fc 23308100 		sd	s0,0(sp)
 858              		.cfi_offset 1, -8
 859              		.cfi_offset 8, -16
GAS LISTING /tmp/ccEFbENn.s 			page 32


 860 0500 13040101 		addi	s0,sp,16
 861              		.cfi_def_cfa 8, 0
 613:src/riscv.cpp ****     userMainFinished = true;
 862              		.loc 1 613 5
 863              		.loc 1 613 22 is_stmt 0
 864 0504 93071000 		li	a5,1
 865 0508 17070000 		sb	a5,.LANCHOR0+16,a4
 865      2300F700 
 614:src/riscv.cpp **** 
 615:src/riscv.cpp ****     ConsoleUtil::pendingPutc = 0;
 866              		.loc 1 615 5 is_stmt 1
 867              		.loc 1 615 30 is_stmt 0
 868 0510 97070000 		la	a5,_ZN11ConsoleUtil11pendingPutcE
 868      83B70700 
 869 0518 23B00700 		sd	zero,0(a5)
 616:src/riscv.cpp ****     ConsoleUtil::pendingGetc = 0;
 870              		.loc 1 616 5 is_stmt 1
 871              		.loc 1 616 30 is_stmt 0
 872 051c 97070000 		la	a5,_ZN11ConsoleUtil11pendingGetcE
 872      83B70700 
 873 0524 23B00700 		sd	zero,0(a5)
 617:src/riscv.cpp **** 
 618:src/riscv.cpp ****     RiscV::disableInterrupts();
 874              		.loc 1 618 5 is_stmt 1
 875              	.LBB119:
 876              	.LBB120:
 206:src/../h/riscv.hpp **** }
 207:src/../h/riscv.hpp **** 
 208:src/../h/riscv.hpp **** inline void RiscV::disableInterrupts() {
 209:src/../h/riscv.hpp ****     disableTimerInterrupts();
 877              		.loc 2 209 5
 878              	.LBE120:
 879              	.LBE119:
 210:src/../h/riscv.hpp ****     disableHardwareInterrupts();
 211:src/../h/riscv.hpp **** }
 212:src/../h/riscv.hpp **** 
 213:src/../h/riscv.hpp **** inline void RiscV::enableHardwareInterrupts() {
 214:src/../h/riscv.hpp ****     RiscV::mc_sie(SIP_SSIE);
 215:src/../h/riscv.hpp ****     RiscV::ms_sstatus(SSTATUS_SIE);
 216:src/../h/riscv.hpp ****     RiscV::ms_sie(SIP_SEIE);
 217:src/../h/riscv.hpp **** }
 218:src/../h/riscv.hpp **** 
 219:src/../h/riscv.hpp **** inline void RiscV::disableHardwareInterrupts(){
 220:src/../h/riscv.hpp ****     RiscV::mc_sie(SIP_SEIE);
 221:src/../h/riscv.hpp **** }
 222:src/../h/riscv.hpp **** 
 223:src/../h/riscv.hpp **** inline void RiscV::enableTimerInterrupts() {
 224:src/../h/riscv.hpp ****     RiscV::mc_sie(SIP_SEIE);
 225:src/../h/riscv.hpp ****     RiscV::ms_sstatus(SSTATUS_SIE);
 226:src/../h/riscv.hpp ****     RiscV::ms_sie(SIP_SSIE);
 227:src/../h/riscv.hpp **** }
 228:src/../h/riscv.hpp **** 
 229:src/../h/riscv.hpp **** inline void RiscV::disableTimerInterrupts(){
 230:src/../h/riscv.hpp ****     RiscV::mc_sie(SIP_SSIE);
 880              		.loc 2 230 5
 881              	.LVL76:
 882              	.LBB129:
GAS LISTING /tmp/ccEFbENn.s 			page 33


 883              	.LBB127:
 884              	.LBB121:
 885              	.LBB122:
 886              	.LBB123:
 199:src/../h/riscv.hpp **** }
 887              		.loc 2 199 5
 199:src/../h/riscv.hpp **** }
 888              		.loc 2 199 51 is_stmt 0
 889 0528 93072000 		li	a5,2
 890              	#APP
 891              	# 199 "src/../h/riscv.hpp" 1
 892              		csrc sie, a5
 893              	# 0 "" 2
 894              	.LVL77:
 895              	#NO_APP
 896              	.LBE123:
 897              	.LBE122:
 898              	.LBE121:
 210:src/../h/riscv.hpp ****     disableHardwareInterrupts();
 899              		.loc 2 210 5 is_stmt 1
 900              	.LBE127:
 901              	.LBE129:
 220:src/../h/riscv.hpp **** }
 902              		.loc 2 220 5
 903              	.LBB130:
 904              	.LBB128:
 905              	.LBB124:
 906              	.LBB125:
 907              	.LBB126:
 199:src/../h/riscv.hpp **** }
 908              		.loc 2 199 5
 199:src/../h/riscv.hpp **** }
 909              		.loc 2 199 51 is_stmt 0
 910 0530 93070020 		li	a5,512
 911              	#APP
 912              	# 199 "src/../h/riscv.hpp" 1
 913              		csrc sie, a5
 914              	# 0 "" 2
 915              	.LVL78:
 916              	#NO_APP
 917              	.L37:
 918              	.LBE126:
 919              	.LBE125:
 920              	.LBE124:
 921              	.LBE128:
 922              	.LBE130:
 619:src/riscv.cpp **** 
 620:src/riscv.cpp ****     while(Scheduler::readyHead != nullptr)
 923              		.loc 1 620 5 is_stmt 1
 924              		.loc 1 620 32
 925 0538 97070000 		la	a5,_ZN9Scheduler9readyHeadE
 925      83B70700 
 926 0540 83B70700 		ld	a5,0(a5)
 927 0544 638C0700 		beqz	a5,.L36
 621:src/riscv.cpp ****         Scheduler::readyHead = Scheduler::readyHead->next;
 928              		.loc 1 621 9
 929              		.loc 1 621 54 is_stmt 0
GAS LISTING /tmp/ccEFbENn.s 			page 34


 930 0548 03B78704 		ld	a4,72(a5)
 931              		.loc 1 621 30
 932 054c 97070000 		la	a5,_ZN9Scheduler9readyHeadE
 932      83B70700 
 933 0554 23B0E700 		sd	a4,0(a5)
 620:src/riscv.cpp ****         Scheduler::readyHead = Scheduler::readyHead->next;
 934              		.loc 1 620 5
 935 0558 6FF01FFE 		j	.L37
 936              	.L36:
 622:src/riscv.cpp **** 
 623:src/riscv.cpp ****     Scheduler::put(TCB::putcThread);
 937              		.loc 1 623 5 is_stmt 1
 938              		.loc 1 623 19 is_stmt 0
 939 055c 97070000 		la	a5,_ZN3TCB10putcThreadE
 939      83B70700 
 940 0564 03B50700 		ld	a0,0(a5)
 941 0568 97000000 		call	_ZN9Scheduler3putEP3TCB@plt
 941      E7800000 
 942              	.LVL79:
 943              	.L39:
 624:src/riscv.cpp **** 
 625:src/riscv.cpp ****     while(ConsoleUtil::outputHead != ConsoleUtil::outputTail)
 944              		.loc 1 625 5 is_stmt 1
 945              		.loc 1 625 35
 946 0570 97070000 		la	a5,_ZN11ConsoleUtil10outputHeadE
 946      83B70700 
 947 0578 03B70700 		ld	a4,0(a5)
 948 057c 97070000 		la	a5,_ZN11ConsoleUtil10outputTailE
 948      83B70700 
 949 0584 83B70700 		ld	a5,0(a5)
 950 0588 6308F700 		beq	a4,a5,.L35
 626:src/riscv.cpp ****         thread_dispatch();
 951              		.loc 1 626 9
 952              		.loc 1 626 24 is_stmt 0
 953 058c 97000000 		call	_Z15thread_dispatchv@plt
 953      E7800000 
 954              	.LVL80:
 625:src/riscv.cpp ****         thread_dispatch();
 955              		.loc 1 625 5
 956 0594 6FF0DFFD 		j	.L39
 957              	.L35:
 627:src/riscv.cpp **** }
 958              		.loc 1 627 1
 959 0598 83308100 		ld	ra,8(sp)
 960              		.cfi_restore 1
 961 059c 03340100 		ld	s0,0(sp)
 962              		.cfi_restore 8
 963              		.cfi_def_cfa 2, 16
 964 05a0 13010101 		addi	sp,sp,16
 965              		.cfi_def_cfa_offset 0
 966 05a4 67800000 		jr	ra
 967              		.cfi_endproc
 968              	.LFE64:
 970              		.align	2
 971              		.globl	_ZN5RiscV16saveA0toSscratchEv
 973              	_ZN5RiscV16saveA0toSscratchEv:
 974              	.LFB65:
GAS LISTING /tmp/ccEFbENn.s 			page 35


 628:src/riscv.cpp **** 
 629:src/riscv.cpp **** //write value in a0 to a memory location where a0 is store on stack for currently running thread
 630:src/riscv.cpp **** void RiscV::saveA0toSscratch()
 631:src/riscv.cpp **** {
 975              		.loc 1 631 1 is_stmt 1
 976              		.cfi_startproc
 977 05a8 130101FF 		addi	sp,sp,-16
 978              		.cfi_def_cfa_offset 16
 979 05ac 23348100 		sd	s0,8(sp)
 980              		.cfi_offset 8, -8
 981 05b0 13040101 		addi	s0,sp,16
 982              		.cfi_def_cfa 8, 0
 632:src/riscv.cpp ****     uint64 a1;
 983              		.loc 1 632 5
 633:src/riscv.cpp ****     asm("mv %[a1], a1": [a1] "=r"(a1));
 984              		.loc 1 633 5
 985              		.loc 1 633 39 is_stmt 0
 986              	#APP
 987              	# 633 "src/riscv.cpp" 1
 634              	    asm("mv a1, %[a0]" : :  [a0] "r"(TCB::running->a0Location));
 988              		mv a5, a1
 989              	# 0 "" 2
 990              		.loc 1 634 5 is_stmt 1
 991              		.loc 1 634 52 is_stmt 0
 992              	#NO_APP
 993 05b8 17070000 		la	a4,_ZN3TCB7runningE
 993      03370700 
 994 05c0 03370700 		ld	a4,0(a4)
 995 05c4 03378706 		ld	a4,104(a4)
 996              		.loc 1 634 64
 997              	#APP
 998              	# 634 "src/riscv.cpp" 1
 635              	    asm("sd a0, 80(a1)");
 999              		mv a1, a4
 1000              	# 0 "" 2
 1001              		.loc 1 635 5 is_stmt 1
 1002              		.loc 1 635 25 is_stmt 0
 1003              	# 635 "src/riscv.cpp" 1
 636              	    asm("mv a1,%[a1]"::  [a1]"r"(a1));
 1004              		sd a0, 80(a1)
 1005              	# 0 "" 2
 1006              		.loc 1 636 5 is_stmt 1
 1007              		.loc 1 636 38 is_stmt 0
 1008              	# 636 "src/riscv.cpp" 1
 637              	}
 1009              		mv a1,a5
 1010              	# 0 "" 2
 1011              		.loc 1 637 1
 1012              	#NO_APP
 1013 05d4 03348100 		ld	s0,8(sp)
 1014              		.cfi_restore 8
 1015              		.cfi_def_cfa 2, 16
 1016 05d8 13010101 		addi	sp,sp,16
 1017              		.cfi_def_cfa_offset 0
 1018 05dc 67800000 		jr	ra
 1019              		.cfi_endproc
 1020              	.LFE65:
GAS LISTING /tmp/ccEFbENn.s 			page 36


 1022              		.align	2
 1023              		.globl	_ZN5RiscV22executeMemAllocSyscallEv
 1025              	_ZN5RiscV22executeMemAllocSyscallEv:
 1026              	.LFB47:
 243:src/riscv.cpp **** 
 1027              		.loc 1 243 37 is_stmt 1
 1028              		.cfi_startproc
 1029 05e0 130101FF 		addi	sp,sp,-16
 1030              		.cfi_def_cfa_offset 16
 1031 05e4 23341100 		sd	ra,8(sp)
 1032 05e8 23308100 		sd	s0,0(sp)
 1033              		.cfi_offset 1, -8
 1034              		.cfi_offset 8, -16
 1035 05ec 13040101 		addi	s0,sp,16
 1036              		.cfi_def_cfa 8, 0
 246:src/riscv.cpp ****     asm("mv %[size], a1" : [size] "=r" (size));
 1037              		.loc 1 246 5
 247:src/riscv.cpp **** 
 1038              		.loc 1 247 5
 247:src/riscv.cpp **** 
 1039              		.loc 1 247 47 is_stmt 0
 1040              	#APP
 1041              	# 247 "src/riscv.cpp" 1
 1042              		mv a0, a1
 1043              	# 0 "" 2
 1044              	.LVL81:
 250:src/riscv.cpp **** 
 1045              		.loc 1 250 5 is_stmt 1
 250:src/riscv.cpp **** 
 1046              		.loc 1 250 50 is_stmt 0
 1047              	#NO_APP
 1048 05f4 97000000 		call	_ZN15MemoryAllocator7kmallocEm@plt
 1048      E7800000 
 1049              	.LVL82:
 252:src/riscv.cpp **** 
 1050              		.loc 1 252 5 is_stmt 1
 252:src/riscv.cpp **** 
 1051              		.loc 1 252 48 is_stmt 0
 1052              	#APP
 1053              	# 252 "src/riscv.cpp" 1
 254:src/riscv.cpp **** }
 1054              		mv a0, a0
 1055              	# 0 "" 2
 1056              		.loc 1 254 5 is_stmt 1
 254:src/riscv.cpp **** }
 1057              		.loc 1 254 28 is_stmt 0
 1058              	#NO_APP
 1059 0600 97000000 		call	_ZN5RiscV16saveA0toSscratchEv
 1059      E7800000 
 1060              	.LVL83:
 255:src/riscv.cpp **** 
 1061              		.loc 1 255 1
 1062 0608 83308100 		ld	ra,8(sp)
 1063              		.cfi_restore 1
 1064 060c 03340100 		ld	s0,0(sp)
 1065              		.cfi_restore 8
 1066              		.cfi_def_cfa 2, 16
GAS LISTING /tmp/ccEFbENn.s 			page 37


 1067 0610 13010101 		addi	sp,sp,16
 1068              		.cfi_def_cfa_offset 0
 1069 0614 67800000 		jr	ra
 1070              		.cfi_endproc
 1071              	.LFE47:
 1073              		.align	2
 1074              		.globl	_ZN5RiscV21executeMemFreeSyscallEv
 1076              	_ZN5RiscV21executeMemFreeSyscallEv:
 1077              	.LFB48:
 257:src/riscv.cpp **** 
 1078              		.loc 1 257 37 is_stmt 1
 1079              		.cfi_startproc
 1080 0618 130101FF 		addi	sp,sp,-16
 1081              		.cfi_def_cfa_offset 16
 1082 061c 23341100 		sd	ra,8(sp)
 1083 0620 23308100 		sd	s0,0(sp)
 1084              		.cfi_offset 1, -8
 1085              		.cfi_offset 8, -16
 1086 0624 13040101 		addi	s0,sp,16
 1087              		.cfi_def_cfa 8, 0
 260:src/riscv.cpp **** 
 1088              		.loc 1 260 5
 263:src/riscv.cpp ****         //call internal allocator and free memory which iaddr points to
 1089              		.loc 1 263 5
 1090 0628 97070000 		la	a5,_ZN15MemoryAllocator11initializedE
 1090      83B70700 
 1091 0630 83C70700 		lbu	a5,0(a5)
 1092 0634 63920702 		bnez	a5,.L49
 269:src/riscv.cpp **** 
 1093              		.loc 1 269 16 is_stmt 0
 1094 0638 1305F0FF 		li	a0,-1
 1095              	.L46:
 1096              	.LVL84:
 272:src/riscv.cpp **** 
 1097              		.loc 1 272 5 is_stmt 1
 272:src/riscv.cpp **** 
 1098              		.loc 1 272 54 is_stmt 0
 1099              	#APP
 1100              	# 272 "src/riscv.cpp" 1
 274:src/riscv.cpp **** }
 1101              		mv a0, a0
 1102              	# 0 "" 2
 1103              		.loc 1 274 5 is_stmt 1
 274:src/riscv.cpp **** }
 1104              		.loc 1 274 28 is_stmt 0
 1105              	#NO_APP
 1106 0640 97000000 		call	_ZN5RiscV16saveA0toSscratchEv
 1106      E7800000 
 1107              	.LVL85:
 275:src/riscv.cpp **** 
 1108              		.loc 1 275 1
 1109 0648 83308100 		ld	ra,8(sp)
 1110              		.cfi_remember_state
 1111              		.cfi_restore 1
 1112 064c 03340100 		ld	s0,0(sp)
 1113              		.cfi_restore 8
 1114              		.cfi_def_cfa 2, 16
GAS LISTING /tmp/ccEFbENn.s 			page 38


 1115 0650 13010101 		addi	sp,sp,16
 1116              		.cfi_def_cfa_offset 0
 1117 0654 67800000 		jr	ra
 1118              	.L49:
 1119              		.cfi_restore_state
 265:src/riscv.cpp ****         status = MemoryAllocator::kfree((void *) iaddr);;
 1120              		.loc 1 265 9 is_stmt 1
 265:src/riscv.cpp ****         status = MemoryAllocator::kfree((void *) iaddr);;
 1121              		.loc 1 265 53 is_stmt 0
 1122              	#APP
 1123              	# 265 "src/riscv.cpp" 1
 1124              		mv a0, a1
 1125              	# 0 "" 2
 1126              	.LVL86:
 266:src/riscv.cpp ****     }
 1127              		.loc 1 266 9 is_stmt 1
 266:src/riscv.cpp ****     }
 1128              		.loc 1 266 40 is_stmt 0
 1129              	#NO_APP
 1130 065c 97000000 		call	_ZN15MemoryAllocator5kfreeEPv@plt
 1130      E7800000 
 1131              	.LVL87:
 266:src/riscv.cpp ****     }
 1132              		.loc 1 266 57 is_stmt 1
 1133 0664 6FF09FFD 		j	.L46
 1134              		.cfi_endproc
 1135              	.LFE48:
 1137              		.align	2
 1138              		.globl	_ZN5RiscV26executeThreadCreateSyscallEv
 1140              	_ZN5RiscV26executeThreadCreateSyscallEv:
 1141              	.LFB49:
 277:src/riscv.cpp **** 
 1142              		.loc 1 277 41
 1143              		.cfi_startproc
 1144              		.cfi_personality 0x9b,DW.ref.__gxx_personality_v0
 1145              		.cfi_lsda 0x1b,.LLSDA49
 1146 0668 130101FC 		addi	sp,sp,-64
 1147              		.cfi_def_cfa_offset 64
 1148 066c 233C1102 		sd	ra,56(sp)
 1149 0670 23388102 		sd	s0,48(sp)
 1150 0674 23349102 		sd	s1,40(sp)
 1151 0678 23302103 		sd	s2,32(sp)
 1152 067c 233C3101 		sd	s3,24(sp)
 1153 0680 23384101 		sd	s4,16(sp)
 1154 0684 23345101 		sd	s5,8(sp)
 1155              		.cfi_offset 1, -8
 1156              		.cfi_offset 8, -16
 1157              		.cfi_offset 9, -24
 1158              		.cfi_offset 18, -32
 1159              		.cfi_offset 19, -40
 1160              		.cfi_offset 20, -48
 1161              		.cfi_offset 21, -56
 1162 0688 13040104 		addi	s0,sp,64
 1163              		.cfi_def_cfa 8, 0
 280:src/riscv.cpp **** 
 1164              		.loc 1 280 5
 282:src/riscv.cpp ****     asm("mv %[ihandle], a1" : [ihandle] "=r"(ihandle));
GAS LISTING /tmp/ccEFbENn.s 			page 39


 1165              		.loc 1 282 5
 282:src/riscv.cpp ****     asm("mv %[ihandle], a1" : [ihandle] "=r"(ihandle));
 1166              		.loc 1 282 52 is_stmt 0
 1167              	#APP
 1168              	# 282 "src/riscv.cpp" 1
 1169              		mv s5, a7
 1170              	# 0 "" 2
 1171              	.LVL88:
 283:src/riscv.cpp ****     asm("mv %[iroutine], a2" : [iroutine] "=r"(iroutine));
 1172              		.loc 1 283 5 is_stmt 1
 283:src/riscv.cpp ****     asm("mv %[iroutine], a2" : [iroutine] "=r"(iroutine));
 1173              		.loc 1 283 55 is_stmt 0
 1174              	# 283 "src/riscv.cpp" 1
 1175              		mv s2, a1
 1176              	# 0 "" 2
 1177              	.LVL89:
 284:src/riscv.cpp ****     asm("mv %[iargs], a3" : [iargs] "=r"(iargs));
 1178              		.loc 1 284 5 is_stmt 1
 284:src/riscv.cpp ****     asm("mv %[iargs], a3" : [iargs] "=r"(iargs));
 1179              		.loc 1 284 58 is_stmt 0
 1180              	# 284 "src/riscv.cpp" 1
 1181              		mv s3, a2
 1182              	# 0 "" 2
 1183              	.LVL90:
 285:src/riscv.cpp **** 
 1184              		.loc 1 285 5 is_stmt 1
 285:src/riscv.cpp **** 
 1185              		.loc 1 285 49 is_stmt 0
 1186              	# 285 "src/riscv.cpp" 1
 1187              		mv s4, a3
 1188              	# 0 "" 2
 1189              	.LVL91:
 288:src/riscv.cpp **** 
 1190              		.loc 1 288 5 is_stmt 1
 288:src/riscv.cpp **** 
 1191              		.loc 1 288 94 is_stmt 0
 1192              	#NO_APP
 1193 069c 13050007 		li	a0,112
 1194              	.LEHB0:
 1195 06a0 97000000 		call	_ZN3TCBnwEm@plt
 1195      E7800000 
 1196              	.LVL92:
 1197              	.LEHE0:
 1198 06a8 93040500 		mv	s1,a0
 1199 06ac 630E0500 		beqz	a0,.L51
 288:src/riscv.cpp **** 
 1200              		.loc 1 288 94 discriminator 1
 1201 06b0 13072000 		li	a4,2
 1202 06b4 93860A00 		mv	a3,s5
 1203 06b8 13060A00 		mv	a2,s4
 1204 06bc 93850900 		mv	a1,s3
 1205              	.LEHB1:
 1206 06c0 97000000 		call	_ZN3TCBC1EPFvPvES0_Pmm@plt
 1206      E7800000 
 1207              	.LVL93:
 1208              	.LEHE1:
 1209              	.L51:
GAS LISTING /tmp/ccEFbENn.s 			page 40


 290:src/riscv.cpp **** 
 1210              		.loc 1 290 5 is_stmt 1 discriminator 6
 292:src/riscv.cpp ****         status = -1;
 1211              		.loc 1 292 5 discriminator 6
 1212 06c8 63880404 		beqz	s1,.L55
 296:src/riscv.cpp ****             Scheduler::put(tcb);
 1213              		.loc 1 296 9
 296:src/riscv.cpp ****             Scheduler::put(tcb);
 1214              		.loc 1 296 17 is_stmt 0
 1215 06cc 83B78401 		ld	a5,24(s1)
 296:src/riscv.cpp ****             Scheduler::put(tcb);
 1216              		.loc 1 296 9
 1217 06d0 63880700 		beqz	a5,.L53
 297:src/riscv.cpp ****         *((TCB**)ihandle) = tcb;
 1218              		.loc 1 297 13 is_stmt 1
 297:src/riscv.cpp ****         *((TCB**)ihandle) = tcb;
 1219              		.loc 1 297 27 is_stmt 0
 1220 06d4 13850400 		mv	a0,s1
 1221              	.LEHB2:
 1222 06d8 97000000 		call	_ZN9Scheduler3putEP3TCB@plt
 1222      E7800000 
 1223              	.LVL94:
 1224              	.LEHE2:
 1225              	.L53:
 298:src/riscv.cpp ****     }
 1226              		.loc 1 298 9 is_stmt 1
 298:src/riscv.cpp ****     }
 1227              		.loc 1 298 27 is_stmt 0
 1228 06e0 23309900 		sd	s1,0(s2)
 290:src/riscv.cpp **** 
 1229              		.loc 1 290 12
 1230 06e4 93070000 		li	a5,0
 1231              	.L52:
 1232              	.LVL95:
 302:src/riscv.cpp **** 
 1233              		.loc 1 302 5 is_stmt 1
 302:src/riscv.cpp **** 
 1234              		.loc 1 302 54 is_stmt 0
 1235              	#APP
 1236              	# 302 "src/riscv.cpp" 1
 304:src/riscv.cpp **** }
 1237              		mv a0, a5
 1238              	# 0 "" 2
 1239              		.loc 1 304 5 is_stmt 1
 304:src/riscv.cpp **** }
 1240              		.loc 1 304 28 is_stmt 0
 1241              	#NO_APP
 1242 06ec 97000000 		call	_ZN5RiscV16saveA0toSscratchEv
 1242      E7800000 
 1243              	.LVL96:
 305:src/riscv.cpp **** 
 1244              		.loc 1 305 1
 1245 06f4 83308103 		ld	ra,56(sp)
 1246              		.cfi_remember_state
 1247              		.cfi_restore 1
 1248 06f8 03340103 		ld	s0,48(sp)
 1249              		.cfi_restore 8
GAS LISTING /tmp/ccEFbENn.s 			page 41


 1250              		.cfi_def_cfa 2, 64
 1251 06fc 83348102 		ld	s1,40(sp)
 1252              		.cfi_restore 9
 1253              	.LVL97:
 1254 0700 03390102 		ld	s2,32(sp)
 1255              		.cfi_restore 18
 1256              	.LVL98:
 1257 0704 83398101 		ld	s3,24(sp)
 1258              		.cfi_restore 19
 1259              	.LVL99:
 1260 0708 033A0101 		ld	s4,16(sp)
 1261              		.cfi_restore 20
 1262              	.LVL100:
 1263 070c 833A8100 		ld	s5,8(sp)
 1264              		.cfi_restore 21
 1265              	.LVL101:
 1266 0710 13010104 		addi	sp,sp,64
 1267              		.cfi_def_cfa_offset 0
 1268 0714 67800000 		jr	ra
 1269              	.LVL102:
 1270              	.L55:
 1271              		.cfi_restore_state
 293:src/riscv.cpp ****     }
 1272              		.loc 1 293 16
 1273 0718 9307F0FF 		li	a5,-1
 1274 071c 6FF0DFFC 		j	.L52
 1275              	.LVL103:
 1276              	.L56:
 1277 0720 13090500 		mv	s2,a0
 1278              	.LVL104:
 288:src/riscv.cpp **** 
 1279              		.loc 1 288 94
 1280 0724 13850400 		mv	a0,s1
 1281 0728 97000000 		call	_ZN3TCBdlEPv@plt
 1281      E7800000 
 1282              	.LVL105:
 1283 0730 13050900 		mv	a0,s2
 1284              	.LEHB3:
 1285 0734 97000000 		call	_Unwind_Resume@plt
 1285      E7800000 
 1286              	.LVL106:
 1287              	.LEHE3:
 1288              		.cfi_endproc
 1289              	.LFE49:
 1290              		.globl	__gxx_personality_v0
 1291              		.section	.gcc_except_table,"a",@progbits
 1292              	.LLSDA49:
 1293 0000 FF       		.byte	0xff
 1294 0001 FF       		.byte	0xff
 1295 0002 03       		.byte	0x3
 1296 0003 34       		.byte	0x34
 1297 0004 00000000 		.4byte	.LEHB0-.LFB49
 1298 0008 00000000 		.4byte	.LEHE0-.LEHB0
 1299 000c 00000000 		.4byte	0
 1300 0010 00       		.byte	0
 1301 0011 00000000 		.4byte	.LEHB1-.LFB49
 1302 0015 00000000 		.4byte	.LEHE1-.LEHB1
GAS LISTING /tmp/ccEFbENn.s 			page 42


 1303 0019 00000000 		.4byte	.L56-.LFB49
 1304 001d 00       		.byte	0
 1305 001e 00000000 		.4byte	.LEHB2-.LFB49
 1306 0022 00000000 		.4byte	.LEHE2-.LEHB2
 1307 0026 00000000 		.4byte	0
 1308 002a 00       		.byte	0
 1309 002b 00000000 		.4byte	.LEHB3-.LFB49
 1310 002f 00000000 		.4byte	.LEHE3-.LEHB3
 1311 0033 00000000 		.4byte	0
 1312 0037 00       		.byte	0
 1313              		.text
 1315              		.align	2
 1316              		.globl	_ZN5RiscV30executeThreadAttachBodySyscallEv
 1318              	_ZN5RiscV30executeThreadAttachBodySyscallEv:
 1319              	.LFB50:
 307:src/riscv.cpp **** 
 1320              		.loc 1 307 45 is_stmt 1
 1321              		.cfi_startproc
 1322              		.cfi_personality 0x9b,DW.ref.__gxx_personality_v0
 1323              		.cfi_lsda 0x1b,.LLSDA50
 1324 073c 130101FC 		addi	sp,sp,-64
 1325              		.cfi_def_cfa_offset 64
 1326 0740 233C1102 		sd	ra,56(sp)
 1327 0744 23388102 		sd	s0,48(sp)
 1328 0748 23349102 		sd	s1,40(sp)
 1329 074c 23302103 		sd	s2,32(sp)
 1330 0750 233C3101 		sd	s3,24(sp)
 1331 0754 23384101 		sd	s4,16(sp)
 1332 0758 23345101 		sd	s5,8(sp)
 1333              		.cfi_offset 1, -8
 1334              		.cfi_offset 8, -16
 1335              		.cfi_offset 9, -24
 1336              		.cfi_offset 18, -32
 1337              		.cfi_offset 19, -40
 1338              		.cfi_offset 20, -48
 1339              		.cfi_offset 21, -56
 1340 075c 13040104 		addi	s0,sp,64
 1341              		.cfi_def_cfa 8, 0
 310:src/riscv.cpp **** 
 1342              		.loc 1 310 5
 313:src/riscv.cpp ****     asm("mv %[ihandle], a1" : [ihandle] "=r"(ihandle));
 1343              		.loc 1 313 5
 313:src/riscv.cpp ****     asm("mv %[ihandle], a1" : [ihandle] "=r"(ihandle));
 1344              		.loc 1 313 52 is_stmt 0
 1345              	#APP
 1346              	# 313 "src/riscv.cpp" 1
 1347              		mv s5, a7
 1348              	# 0 "" 2
 1349              	.LVL107:
 314:src/riscv.cpp ****     asm("mv %[iroutine], a2" : [iroutine] "=r"(iroutine));
 1350              		.loc 1 314 5 is_stmt 1
 314:src/riscv.cpp ****     asm("mv %[iroutine], a2" : [iroutine] "=r"(iroutine));
 1351              		.loc 1 314 55 is_stmt 0
 1352              	# 314 "src/riscv.cpp" 1
 1353              		mv s4, a1
 1354              	# 0 "" 2
 1355              	.LVL108:
GAS LISTING /tmp/ccEFbENn.s 			page 43


 315:src/riscv.cpp ****     asm("mv %[iargs], a3" : [iargs] "=r"(iargs));
 1356              		.loc 1 315 5 is_stmt 1
 315:src/riscv.cpp ****     asm("mv %[iargs], a3" : [iargs] "=r"(iargs));
 1357              		.loc 1 315 58 is_stmt 0
 1358              	# 315 "src/riscv.cpp" 1
 1359              		mv s3, a2
 1360              	# 0 "" 2
 1361              	.LVL109:
 316:src/riscv.cpp **** 
 1362              		.loc 1 316 5 is_stmt 1
 316:src/riscv.cpp **** 
 1363              		.loc 1 316 49 is_stmt 0
 1364              	# 316 "src/riscv.cpp" 1
 1365              		mv s2, a3
 1366              	# 0 "" 2
 1367              	.LVL110:
 318:src/riscv.cpp **** 
 1368              		.loc 1 318 5 is_stmt 1
 318:src/riscv.cpp **** 
 1369              		.loc 1 318 94 is_stmt 0
 1370              	#NO_APP
 1371 0770 13050007 		li	a0,112
 1372              	.LEHB4:
 1373 0774 97000000 		call	_ZN3TCBnwEm@plt
 1373      E7800000 
 1374              	.LVL111:
 1375              	.LEHE4:
 1376 077c 93040500 		mv	s1,a0
 1377 0780 630E0500 		beqz	a0,.L60
 318:src/riscv.cpp **** 
 1378              		.loc 1 318 94 discriminator 1
 1379 0784 13072000 		li	a4,2
 1380 0788 93860A00 		mv	a3,s5
 1381 078c 13060900 		mv	a2,s2
 1382 0790 93850900 		mv	a1,s3
 1383              	.LEHB5:
 1384 0794 97000000 		call	_ZN3TCBC1EPFvPvES0_Pmm@plt
 1384      E7800000 
 1385              	.LVL112:
 1386              	.LEHE5:
 1387              	.L60:
 320:src/riscv.cpp **** 
 1388              		.loc 1 320 5 is_stmt 1 discriminator 6
 322:src/riscv.cpp ****         status = -1;
 1389              		.loc 1 322 5 discriminator 6
 1390 079c 63820404 		beqz	s1,.L63
 326:src/riscv.cpp ****         tcb->args = (void*)iargs;
 1391              		.loc 1 326 9
 326:src/riscv.cpp ****         tcb->args = (void*)iargs;
 1392              		.loc 1 326 19 is_stmt 0
 1393 07a0 23BC3401 		sd	s3,24(s1)
 327:src/riscv.cpp ****         *((TCB**)ihandle) = tcb;
 1394              		.loc 1 327 9 is_stmt 1
 327:src/riscv.cpp ****         *((TCB**)ihandle) = tcb;
 1395              		.loc 1 327 19 is_stmt 0
 1396 07a4 23B02403 		sd	s2,32(s1)
 328:src/riscv.cpp ****     }
GAS LISTING /tmp/ccEFbENn.s 			page 44


 1397              		.loc 1 328 9 is_stmt 1
 328:src/riscv.cpp ****     }
 1398              		.loc 1 328 27 is_stmt 0
 1399 07a8 23309A00 		sd	s1,0(s4)
 320:src/riscv.cpp **** 
 1400              		.loc 1 320 12
 1401 07ac 93070000 		li	a5,0
 1402              	.L61:
 1403              	.LVL113:
 331:src/riscv.cpp **** 
 1404              		.loc 1 331 5 is_stmt 1
 331:src/riscv.cpp **** 
 1405              		.loc 1 331 54 is_stmt 0
 1406              	#APP
 1407              	# 331 "src/riscv.cpp" 1
 333:src/riscv.cpp **** }
 1408              		mv a0, a5
 1409              	# 0 "" 2
 1410              		.loc 1 333 5 is_stmt 1
 333:src/riscv.cpp **** }
 1411              		.loc 1 333 28 is_stmt 0
 1412              	#NO_APP
 1413 07b4 97000000 		call	_ZN5RiscV16saveA0toSscratchEv
 1413      E7800000 
 1414              	.LVL114:
 334:src/riscv.cpp **** 
 1415              		.loc 1 334 1
 1416 07bc 83308103 		ld	ra,56(sp)
 1417              		.cfi_remember_state
 1418              		.cfi_restore 1
 1419 07c0 03340103 		ld	s0,48(sp)
 1420              		.cfi_restore 8
 1421              		.cfi_def_cfa 2, 64
 1422 07c4 83348102 		ld	s1,40(sp)
 1423              		.cfi_restore 9
 1424              	.LVL115:
 1425 07c8 03390102 		ld	s2,32(sp)
 1426              		.cfi_restore 18
 1427              	.LVL116:
 1428 07cc 83398101 		ld	s3,24(sp)
 1429              		.cfi_restore 19
 1430              	.LVL117:
 1431 07d0 033A0101 		ld	s4,16(sp)
 1432              		.cfi_restore 20
 1433              	.LVL118:
 1434 07d4 833A8100 		ld	s5,8(sp)
 1435              		.cfi_restore 21
 1436              	.LVL119:
 1437 07d8 13010104 		addi	sp,sp,64
 1438              		.cfi_def_cfa_offset 0
 1439 07dc 67800000 		jr	ra
 1440              	.LVL120:
 1441              	.L63:
 1442              		.cfi_restore_state
 323:src/riscv.cpp ****     }
 1443              		.loc 1 323 16
 1444 07e0 9307F0FF 		li	a5,-1
GAS LISTING /tmp/ccEFbENn.s 			page 45


 1445 07e4 6FF0DFFC 		j	.L61
 1446              	.LVL121:
 1447              	.L64:
 1448 07e8 13090500 		mv	s2,a0
 1449              	.LVL122:
 318:src/riscv.cpp **** 
 1450              		.loc 1 318 94
 1451 07ec 13850400 		mv	a0,s1
 1452 07f0 97000000 		call	_ZN3TCBdlEPv@plt
 1452      E7800000 
 1453              	.LVL123:
 1454 07f8 13050900 		mv	a0,s2
 1455              	.LEHB6:
 1456 07fc 97000000 		call	_Unwind_Resume@plt
 1456      E7800000 
 1457              	.LVL124:
 1458              	.LEHE6:
 1459              		.cfi_endproc
 1460              	.LFE50:
 1461              		.section	.gcc_except_table
 1462              	.LLSDA50:
 1463 0038 FF       		.byte	0xff
 1464 0039 FF       		.byte	0xff
 1465 003a 03       		.byte	0x3
 1466 003b 27       		.byte	0x27
 1467 003c 00000000 		.4byte	.LEHB4-.LFB50
 1468 0040 00000000 		.4byte	.LEHE4-.LEHB4
 1469 0044 00000000 		.4byte	0
 1470 0048 00       		.byte	0
 1471 0049 00000000 		.4byte	.LEHB5-.LFB50
 1472 004d 00000000 		.4byte	.LEHE5-.LEHB5
 1473 0051 00000000 		.4byte	.L64-.LFB50
 1474 0055 00       		.byte	0
 1475 0056 00000000 		.4byte	.LEHB6-.LFB50
 1476 005a 00000000 		.4byte	.LEHE6-.LEHB6
 1477 005e 00000000 		.4byte	0
 1478 0062 00       		.byte	0
 1479              		.text
 1481              		.align	2
 1482              		.globl	_ZN5RiscV25executeThreadStartSyscallEv
 1484              	_ZN5RiscV25executeThreadStartSyscallEv:
 1485              	.LFB51:
 336:src/riscv.cpp **** 
 1486              		.loc 1 336 40 is_stmt 1
 1487              		.cfi_startproc
 1488 0804 130101FF 		addi	sp,sp,-16
 1489              		.cfi_def_cfa_offset 16
 1490 0808 23341100 		sd	ra,8(sp)
 1491 080c 23308100 		sd	s0,0(sp)
 1492              		.cfi_offset 1, -8
 1493              		.cfi_offset 8, -16
 1494 0810 13040101 		addi	s0,sp,16
 1495              		.cfi_def_cfa 8, 0
 339:src/riscv.cpp **** 
 1496              		.loc 1 339 5
 341:src/riscv.cpp **** 
 1497              		.loc 1 341 5
GAS LISTING /tmp/ccEFbENn.s 			page 46


 341:src/riscv.cpp **** 
 1498              		.loc 1 341 55 is_stmt 0
 1499              	#APP
 1500              	# 341 "src/riscv.cpp" 1
 1501              		mv a0, a1
 1502              	# 0 "" 2
 1503              	.LVL125:
 344:src/riscv.cpp **** 
 1504              		.loc 1 344 5 is_stmt 1
 346:src/riscv.cpp **** 
 1505              		.loc 1 346 5
 348:src/riscv.cpp ****         status = -1;
 1506              		.loc 1 348 5
 1507              	#NO_APP
 1508 0818 63120502 		bnez	a0,.L71
 349:src/riscv.cpp ****     }
 1509              		.loc 1 349 16 is_stmt 0
 1510 081c 9307F0FF 		li	a5,-1
 1511              	.LVL126:
 1512              	.L68:
 358:src/riscv.cpp **** 
 1513              		.loc 1 358 5 is_stmt 1
 358:src/riscv.cpp **** 
 1514              		.loc 1 358 54 is_stmt 0
 1515              	#APP
 1516              	# 358 "src/riscv.cpp" 1
 360:src/riscv.cpp **** }
 1517              		mv a0, a5
 1518              	# 0 "" 2
 1519              		.loc 1 360 5 is_stmt 1
 360:src/riscv.cpp **** }
 1520              		.loc 1 360 28 is_stmt 0
 1521              	#NO_APP
 1522 0824 97000000 		call	_ZN5RiscV16saveA0toSscratchEv
 1522      E7800000 
 1523              	.LVL127:
 361:src/riscv.cpp **** 
 1524              		.loc 1 361 1
 1525 082c 83308100 		ld	ra,8(sp)
 1526              		.cfi_remember_state
 1527              		.cfi_restore 1
 1528 0830 03340100 		ld	s0,0(sp)
 1529              		.cfi_restore 8
 1530              		.cfi_def_cfa 2, 16
 1531 0834 13010101 		addi	sp,sp,16
 1532              		.cfi_def_cfa_offset 0
 1533 0838 67800000 		jr	ra
 1534              	.LVL128:
 1535              	.L71:
 1536              		.cfi_restore_state
 352:src/riscv.cpp ****         Scheduler::put(tcb);
 1537              		.loc 1 352 9 is_stmt 1
 352:src/riscv.cpp ****         Scheduler::put(tcb);
 1538              		.loc 1 352 21 is_stmt 0
 1539 083c 93071000 		li	a5,1
 1540 0840 2328F500 		sw	a5,16(a0)
 353:src/riscv.cpp ****         TCB::dispatch();
GAS LISTING /tmp/ccEFbENn.s 			page 47


 1541              		.loc 1 353 9 is_stmt 1
 353:src/riscv.cpp ****         TCB::dispatch();
 1542              		.loc 1 353 23 is_stmt 0
 1543 0844 97000000 		call	_ZN9Scheduler3putEP3TCB@plt
 1543      E7800000 
 1544              	.LVL129:
 354:src/riscv.cpp ****     }
 1545              		.loc 1 354 9 is_stmt 1
 354:src/riscv.cpp ****     }
 1546              		.loc 1 354 22 is_stmt 0
 1547 084c 97000000 		call	_ZN3TCB8dispatchEv@plt
 1547      E7800000 
 1548              	.LVL130:
 346:src/riscv.cpp **** 
 1549              		.loc 1 346 12
 1550 0854 93070000 		li	a5,0
 1551 0858 6FF09FFC 		j	.L68
 1552              		.cfi_endproc
 1553              	.LFE51:
 1555              		.align	2
 1556              		.globl	_ZN5RiscV24executeThreadExitSyscallEv
 1558              	_ZN5RiscV24executeThreadExitSyscallEv:
 1559              	.LFB52:
 363:src/riscv.cpp **** 
 1560              		.loc 1 363 40 is_stmt 1
 1561              		.cfi_startproc
 1562 085c 130101FF 		addi	sp,sp,-16
 1563              		.cfi_def_cfa_offset 16
 1564 0860 23341100 		sd	ra,8(sp)
 1565 0864 23308100 		sd	s0,0(sp)
 1566              		.cfi_offset 1, -8
 1567              		.cfi_offset 8, -16
 1568 0868 13040101 		addi	s0,sp,16
 1569              		.cfi_def_cfa 8, 0
 366:src/riscv.cpp **** 
 1570              		.loc 1 366 5
 1571              	.LVL131:
 369:src/riscv.cpp ****         status = -1;
 1572              		.loc 1 369 5
 1573              	.LBB131:
 369:src/riscv.cpp ****         status = -1;
 1574              		.loc 1 369 21 is_stmt 0
 1575 086c 97070000 		la	a5,_ZN3TCB7runningE
 1575      83B70700 
 1576 0874 83B70700 		ld	a5,0(a5)
 369:src/riscv.cpp ****         status = -1;
 1577              		.loc 1 369 5
 1578 0878 638A0702 		beqz	a5,.L74
 1579              	.LBB132:
 373:src/riscv.cpp ****         old->status = TCB::Status::FINISHED;
 1580              		.loc 1 373 9 is_stmt 1
 1581              	.LVL132:
 374:src/riscv.cpp ****         TCB::dispatch();
 1582              		.loc 1 374 9
 374:src/riscv.cpp ****         TCB::dispatch();
 1583              		.loc 1 374 21 is_stmt 0
 1584 087c 13072000 		li	a4,2
GAS LISTING /tmp/ccEFbENn.s 			page 48


 1585 0880 23A8E700 		sw	a4,16(a5)
 375:src/riscv.cpp ****     }
 1586              		.loc 1 375 9 is_stmt 1
 375:src/riscv.cpp ****     }
 1587              		.loc 1 375 22 is_stmt 0
 1588 0884 97000000 		call	_ZN3TCB8dispatchEv@plt
 1588      E7800000 
 1589              	.LVL133:
 1590              	.LBE132:
 1591              	.LBE131:
 366:src/riscv.cpp **** 
 1592              		.loc 1 366 12
 1593 088c 93070000 		li	a5,0
 1594              	.L73:
 1595              	.LVL134:
 378:src/riscv.cpp **** 
 1596              		.loc 1 378 5 is_stmt 1
 378:src/riscv.cpp **** 
 1597              		.loc 1 378 54 is_stmt 0
 1598              	#APP
 1599              	# 378 "src/riscv.cpp" 1
 380:src/riscv.cpp **** }
 1600              		mv a0, a5
 1601              	# 0 "" 2
 1602              		.loc 1 380 5 is_stmt 1
 380:src/riscv.cpp **** }
 1603              		.loc 1 380 28 is_stmt 0
 1604              	#NO_APP
 1605 0894 97000000 		call	_ZN5RiscV16saveA0toSscratchEv
 1605      E7800000 
 1606              	.LVL135:
 381:src/riscv.cpp **** 
 1607              		.loc 1 381 1
 1608 089c 83308100 		ld	ra,8(sp)
 1609              		.cfi_remember_state
 1610              		.cfi_restore 1
 1611 08a0 03340100 		ld	s0,0(sp)
 1612              		.cfi_restore 8
 1613              		.cfi_def_cfa 2, 16
 1614 08a4 13010101 		addi	sp,sp,16
 1615              		.cfi_def_cfa_offset 0
 1616 08a8 67800000 		jr	ra
 1617              	.LVL136:
 1618              	.L74:
 1619              		.cfi_restore_state
 1620              	.LBB133:
 370:src/riscv.cpp ****     }
 1621              		.loc 1 370 16
 1622 08ac 9307F0FF 		li	a5,-1
 1623 08b0 6FF01FFE 		j	.L73
 1624              	.LBE133:
 1625              		.cfi_endproc
 1626              	.LFE52:
 1628              		.align	2
 1629              		.globl	_ZN5RiscV21executeSemOpenSyscallEv
 1631              	_ZN5RiscV21executeSemOpenSyscallEv:
 1632              	.LFB54:
GAS LISTING /tmp/ccEFbENn.s 			page 49


 391:src/riscv.cpp **** 
 1633              		.loc 1 391 37 is_stmt 1
 1634              		.cfi_startproc
 1635              		.cfi_personality 0x9b,DW.ref.__gxx_personality_v0
 1636              		.cfi_lsda 0x1b,.LLSDA54
 1637 08b4 130101FD 		addi	sp,sp,-48
 1638              		.cfi_def_cfa_offset 48
 1639 08b8 23341102 		sd	ra,40(sp)
 1640 08bc 23308102 		sd	s0,32(sp)
 1641 08c0 233C9100 		sd	s1,24(sp)
 1642 08c4 23382101 		sd	s2,16(sp)
 1643 08c8 23343101 		sd	s3,8(sp)
 1644              		.cfi_offset 1, -8
 1645              		.cfi_offset 8, -16
 1646              		.cfi_offset 9, -24
 1647              		.cfi_offset 18, -32
 1648              		.cfi_offset 19, -40
 1649 08cc 13040103 		addi	s0,sp,48
 1650              		.cfi_def_cfa 8, 0
 394:src/riscv.cpp **** 
 1651              		.loc 1 394 5
 396:src/riscv.cpp ****     asm("mv %[iinit], a2" : [iinit] "=r"(iinit));
 1652              		.loc 1 396 5
 396:src/riscv.cpp ****     asm("mv %[iinit], a2" : [iinit] "=r"(iinit));
 1653              		.loc 1 396 55 is_stmt 0
 1654              	#APP
 1655              	# 396 "src/riscv.cpp" 1
 1656              		mv s2, a1
 1657              	# 0 "" 2
 1658              	.LVL137:
 397:src/riscv.cpp **** 
 1659              		.loc 1 397 5 is_stmt 1
 397:src/riscv.cpp **** 
 1660              		.loc 1 397 49 is_stmt 0
 1661              	# 397 "src/riscv.cpp" 1
 1662              		mv s3, a2
 1663              	# 0 "" 2
 1664              	.LVL138:
 400:src/riscv.cpp **** 
 1665              		.loc 1 400 5 is_stmt 1
 400:src/riscv.cpp **** 
 1666              		.loc 1 400 29 is_stmt 0
 1667              	#NO_APP
 1668 08d8 13058001 		li	a0,24
 1669              	.LEHB7:
 1670 08dc 97000000 		call	_ZN3SCBnwEm@plt
 1670      E7800000 
 1671              	.LVL139:
 1672              	.LEHE7:
 1673 08e4 93040500 		mv	s1,a0
 1674 08e8 63080500 		beqz	a0,.L77
 400:src/riscv.cpp **** 
 1675              		.loc 1 400 29 discriminator 1
 1676 08ec 93850900 		mv	a1,s3
 1677              	.LEHB8:
 1678 08f0 97000000 		call	_ZN3SCBC1Em@plt
 1678      E7800000 
GAS LISTING /tmp/ccEFbENn.s 			page 50


 1679              	.LVL140:
 1680              	.LEHE8:
 1681              	.L77:
 402:src/riscv.cpp **** 
 1682              		.loc 1 402 5 is_stmt 1 discriminator 6
 404:src/riscv.cpp ****         status = -1;
 1683              		.loc 1 404 5 discriminator 6
 1684 08f8 638A0402 		beqz	s1,.L80
 408:src/riscv.cpp ****     }
 1685              		.loc 1 408 9
 408:src/riscv.cpp ****     }
 1686              		.loc 1 408 27 is_stmt 0
 1687 08fc 23309900 		sd	s1,0(s2)
 402:src/riscv.cpp **** 
 1688              		.loc 1 402 12
 1689 0900 93070000 		li	a5,0
 1690              	.L78:
 1691              	.LVL141:
 412:src/riscv.cpp **** 
 1692              		.loc 1 412 5 is_stmt 1
 412:src/riscv.cpp **** 
 1693              		.loc 1 412 54 is_stmt 0
 1694              	#APP
 1695              	# 412 "src/riscv.cpp" 1
 414:src/riscv.cpp **** 
 1696              		mv a0, a5
 1697              	# 0 "" 2
 1698              		.loc 1 414 5 is_stmt 1
 414:src/riscv.cpp **** 
 1699              		.loc 1 414 28 is_stmt 0
 1700              	#NO_APP
 1701 0908 97000000 		call	_ZN5RiscV16saveA0toSscratchEv
 1701      E7800000 
 1702              	.LVL142:
 416:src/riscv.cpp **** 
 1703              		.loc 1 416 1
 1704 0910 83308102 		ld	ra,40(sp)
 1705              		.cfi_remember_state
 1706              		.cfi_restore 1
 1707 0914 03340102 		ld	s0,32(sp)
 1708              		.cfi_restore 8
 1709              		.cfi_def_cfa 2, 48
 1710 0918 83348101 		ld	s1,24(sp)
 1711              		.cfi_restore 9
 1712              	.LVL143:
 1713 091c 03390101 		ld	s2,16(sp)
 1714              		.cfi_restore 18
 1715              	.LVL144:
 1716 0920 83398100 		ld	s3,8(sp)
 1717              		.cfi_restore 19
 1718              	.LVL145:
 1719 0924 13010103 		addi	sp,sp,48
 1720              		.cfi_def_cfa_offset 0
 1721 0928 67800000 		jr	ra
 1722              	.LVL146:
 1723              	.L80:
 1724              		.cfi_restore_state
GAS LISTING /tmp/ccEFbENn.s 			page 51


 405:src/riscv.cpp ****     }
 1725              		.loc 1 405 16
 1726 092c 9307F0FF 		li	a5,-1
 1727 0930 6FF05FFD 		j	.L78
 1728              	.LVL147:
 1729              	.L81:
 1730 0934 13090500 		mv	s2,a0
 1731              	.LVL148:
 400:src/riscv.cpp **** 
 1732              		.loc 1 400 29
 1733 0938 13850400 		mv	a0,s1
 1734 093c 97000000 		call	_ZN3SCBdlEPv@plt
 1734      E7800000 
 1735              	.LVL149:
 1736 0944 13050900 		mv	a0,s2
 1737              	.LEHB9:
 1738 0948 97000000 		call	_Unwind_Resume@plt
 1738      E7800000 
 1739              	.LVL150:
 1740              	.LEHE9:
 1741              		.cfi_endproc
 1742              	.LFE54:
 1743              		.section	.gcc_except_table
 1744              	.LLSDA54:
 1745 0063 FF       		.byte	0xff
 1746 0064 FF       		.byte	0xff
 1747 0065 03       		.byte	0x3
 1748 0066 27       		.byte	0x27
 1749 0067 00000000 		.4byte	.LEHB7-.LFB54
 1750 006b 00000000 		.4byte	.LEHE7-.LEHB7
 1751 006f 00000000 		.4byte	0
 1752 0073 00       		.byte	0
 1753 0074 00000000 		.4byte	.LEHB8-.LFB54
 1754 0078 00000000 		.4byte	.LEHE8-.LEHB8
 1755 007c 00000000 		.4byte	.L81-.LFB54
 1756 0080 00       		.byte	0
 1757 0081 00000000 		.4byte	.LEHB9-.LFB54
 1758 0085 00000000 		.4byte	.LEHE9-.LEHB9
 1759 0089 00000000 		.4byte	0
 1760 008d 00       		.byte	0
 1761              		.text
 1763              		.align	2
 1764              		.globl	_ZN5RiscV22executeSemCloseSyscallEv
 1766              	_ZN5RiscV22executeSemCloseSyscallEv:
 1767              	.LFB55:
 418:src/riscv.cpp **** 
 1768              		.loc 1 418 38 is_stmt 1
 1769              		.cfi_startproc
 1770 0950 130101FE 		addi	sp,sp,-32
 1771              		.cfi_def_cfa_offset 32
 1772 0954 233C1100 		sd	ra,24(sp)
 1773 0958 23388100 		sd	s0,16(sp)
 1774 095c 23349100 		sd	s1,8(sp)
 1775              		.cfi_offset 1, -8
 1776              		.cfi_offset 8, -16
 1777              		.cfi_offset 9, -24
 1778 0960 13040102 		addi	s0,sp,32
GAS LISTING /tmp/ccEFbENn.s 			page 52


 1779              		.cfi_def_cfa 8, 0
 421:src/riscv.cpp **** 
 1780              		.loc 1 421 5
 423:src/riscv.cpp **** 
 1781              		.loc 1 423 5
 423:src/riscv.cpp **** 
 1782              		.loc 1 423 55 is_stmt 0
 1783              	#APP
 1784              	# 423 "src/riscv.cpp" 1
 1785              		mv s1, a1
 1786              	# 0 "" 2
 1787              	.LVL151:
 426:src/riscv.cpp ****     uint64 status = 0;
 1788              		.loc 1 426 5 is_stmt 1
 427:src/riscv.cpp **** 
 1789              		.loc 1 427 5
 429:src/riscv.cpp ****         status = -1;
 1790              		.loc 1 429 5
 1791              	#NO_APP
 1792 0968 63940402 		bnez	s1,.L88
 430:src/riscv.cpp ****     }
 1793              		.loc 1 430 16 is_stmt 0
 1794 096c 9307F0FF 		li	a5,-1
 1795              	.L85:
 1796              	.LVL152:
 436:src/riscv.cpp **** 
 1797              		.loc 1 436 5 is_stmt 1
 436:src/riscv.cpp **** 
 1798              		.loc 1 436 54 is_stmt 0
 1799              	#APP
 1800              	# 436 "src/riscv.cpp" 1
 438:src/riscv.cpp **** }
 1801              		mv a0, a5
 1802              	# 0 "" 2
 1803              		.loc 1 438 5 is_stmt 1
 438:src/riscv.cpp **** }
 1804              		.loc 1 438 28 is_stmt 0
 1805              	#NO_APP
 1806 0974 97000000 		call	_ZN5RiscV16saveA0toSscratchEv
 1806      E7800000 
 1807              	.LVL153:
 439:src/riscv.cpp **** 
 1808              		.loc 1 439 1
 1809 097c 83308101 		ld	ra,24(sp)
 1810              		.cfi_remember_state
 1811              		.cfi_restore 1
 1812 0980 03340101 		ld	s0,16(sp)
 1813              		.cfi_restore 8
 1814              		.cfi_def_cfa 2, 32
 1815 0984 83348100 		ld	s1,8(sp)
 1816              		.cfi_restore 9
 1817              	.LVL154:
 1818 0988 13010102 		addi	sp,sp,32
 1819              		.cfi_def_cfa_offset 0
 1820 098c 67800000 		jr	ra
 1821              	.LVL155:
 1822              	.L88:
GAS LISTING /tmp/ccEFbENn.s 			page 53


 1823              		.cfi_restore_state
 433:src/riscv.cpp **** 
 1824              		.loc 1 433 9 is_stmt 1 discriminator 1
 433:src/riscv.cpp **** 
 1825              		.loc 1 433 22 is_stmt 0 discriminator 1
 1826 0990 13850400 		mv	a0,s1
 1827 0994 97000000 		call	_ZN3SCBD1Ev@plt
 1827      E7800000 
 1828              	.LVL156:
 1829 099c 13850400 		mv	a0,s1
 1830 09a0 97000000 		call	_ZN3SCBdlEPv@plt
 1830      E7800000 
 1831              	.LVL157:
 427:src/riscv.cpp **** 
 1832              		.loc 1 427 12 discriminator 1
 1833 09a8 93070000 		li	a5,0
 1834 09ac 6FF05FFC 		j	.L85
 1835              		.cfi_endproc
 1836              	.LFE55:
 1838              		.align	2
 1839              		.globl	_ZN5RiscV21executeSemWaitSyscallEv
 1841              	_ZN5RiscV21executeSemWaitSyscallEv:
 1842              	.LFB56:
 441:src/riscv.cpp **** 
 1843              		.loc 1 441 37 is_stmt 1
 1844              		.cfi_startproc
 1845 09b0 130101FF 		addi	sp,sp,-16
 1846              		.cfi_def_cfa_offset 16
 1847 09b4 23341100 		sd	ra,8(sp)
 1848 09b8 23308100 		sd	s0,0(sp)
 1849              		.cfi_offset 1, -8
 1850              		.cfi_offset 8, -16
 1851 09bc 13040101 		addi	s0,sp,16
 1852              		.cfi_def_cfa 8, 0
 444:src/riscv.cpp **** 
 1853              		.loc 1 444 5
 446:src/riscv.cpp **** 
 1854              		.loc 1 446 5
 446:src/riscv.cpp **** 
 1855              		.loc 1 446 55 is_stmt 0
 1856              	#APP
 1857              	# 446 "src/riscv.cpp" 1
 1858              		mv a0, a1
 1859              	# 0 "" 2
 1860              	.LVL158:
 448:src/riscv.cpp ****     //call wait method on ihandle scb
 1861              		.loc 1 448 5 is_stmt 1
 451:src/riscv.cpp ****         ((SCB*)ihandle)->wait();
 1862              		.loc 1 451 5
 1863              	#NO_APP
 1864 09c4 631C0502 		bnez	a0,.L94
 1865              	.LVL159:
 1866              	.L90:
 456:src/riscv.cpp ****         status = -1;
 1867              		.loc 1 456 5
 456:src/riscv.cpp ****         status = -1;
 1868              		.loc 1 456 22 is_stmt 0
GAS LISTING /tmp/ccEFbENn.s 			page 54


 1869 09c8 97070000 		la	a5,_ZN3TCB7runningE
 1869      83B70700 
 1870 09d0 83B70700 		ld	a5,0(a5)
 1871 09d4 83B70706 		ld	a5,96(a5)
 456:src/riscv.cpp ****         status = -1;
 1872              		.loc 1 456 5
 1873 09d8 63880702 		beqz	a5,.L92
 457:src/riscv.cpp ****     else
 1874              		.loc 1 457 16
 1875 09dc 9307F0FF 		li	a5,-1
 1876              	.L91:
 1877              	.LVL160:
 462:src/riscv.cpp **** 
 1878              		.loc 1 462 5 is_stmt 1
 462:src/riscv.cpp **** 
 1879              		.loc 1 462 54 is_stmt 0
 1880              	#APP
 1881              	# 462 "src/riscv.cpp" 1
 464:src/riscv.cpp **** 
 1882              		mv a0, a5
 1883              	# 0 "" 2
 1884              		.loc 1 464 5 is_stmt 1
 464:src/riscv.cpp **** 
 1885              		.loc 1 464 28 is_stmt 0
 1886              	#NO_APP
 1887 09e4 97000000 		call	_ZN5RiscV16saveA0toSscratchEv
 1887      E7800000 
 1888              	.LVL161:
 466:src/riscv.cpp **** 
 1889              		.loc 1 466 1
 1890 09ec 83308100 		ld	ra,8(sp)
 1891              		.cfi_remember_state
 1892              		.cfi_restore 1
 1893 09f0 03340100 		ld	s0,0(sp)
 1894              		.cfi_restore 8
 1895              		.cfi_def_cfa 2, 16
 1896 09f4 13010101 		addi	sp,sp,16
 1897              		.cfi_def_cfa_offset 0
 1898 09f8 67800000 		jr	ra
 1899              	.LVL162:
 1900              	.L94:
 1901              		.cfi_restore_state
 452:src/riscv.cpp ****     else
 1902              		.loc 1 452 9 is_stmt 1
 452:src/riscv.cpp ****     else
 1903              		.loc 1 452 30 is_stmt 0
 1904 09fc 97000000 		call	_ZN3SCB4waitEv@plt
 1904      E7800000 
 1905              	.LVL163:
 1906 0a04 6FF05FFC 		j	.L90
 1907              	.LVL164:
 1908              	.L92:
 459:src/riscv.cpp **** 
 1909              		.loc 1 459 16
 1910 0a08 93070000 		li	a5,0
 1911 0a0c 6FF05FFD 		j	.L91
 1912              		.cfi_endproc
GAS LISTING /tmp/ccEFbENn.s 			page 55


 1913              	.LFE56:
 1915              		.align	2
 1916              		.globl	_ZN5RiscV23executeSemSignalSyscallEv
 1918              	_ZN5RiscV23executeSemSignalSyscallEv:
 1919              	.LFB57:
 468:src/riscv.cpp **** 
 1920              		.loc 1 468 39 is_stmt 1
 1921              		.cfi_startproc
 1922 0a10 130101FF 		addi	sp,sp,-16
 1923              		.cfi_def_cfa_offset 16
 1924 0a14 23341100 		sd	ra,8(sp)
 1925 0a18 23308100 		sd	s0,0(sp)
 1926              		.cfi_offset 1, -8
 1927              		.cfi_offset 8, -16
 1928 0a1c 13040101 		addi	s0,sp,16
 1929              		.cfi_def_cfa 8, 0
 471:src/riscv.cpp **** 
 1930              		.loc 1 471 5
 473:src/riscv.cpp **** 
 1931              		.loc 1 473 5
 473:src/riscv.cpp **** 
 1932              		.loc 1 473 55 is_stmt 0
 1933              	#APP
 1934              	# 473 "src/riscv.cpp" 1
 1935              		mv a0, a1
 1936              	# 0 "" 2
 1937              	.LVL165:
 477:src/riscv.cpp **** 
 1938              		.loc 1 477 5 is_stmt 1
 479:src/riscv.cpp ****         ((SCB*)ihandle)->signal();
 1939              		.loc 1 479 5
 1940              	#NO_APP
 1941 0a24 63120502 		bnez	a0,.L99
 482:src/riscv.cpp **** 
 1942              		.loc 1 482 16 is_stmt 0
 1943 0a28 9307F0FF 		li	a5,-1
 1944              	.LVL166:
 1945              	.L96:
 485:src/riscv.cpp **** 
 1946              		.loc 1 485 5 is_stmt 1
 485:src/riscv.cpp **** 
 1947              		.loc 1 485 54 is_stmt 0
 1948              	#APP
 1949              	# 485 "src/riscv.cpp" 1
 487:src/riscv.cpp **** }
 1950              		mv a0, a5
 1951              	# 0 "" 2
 1952              		.loc 1 487 5 is_stmt 1
 487:src/riscv.cpp **** }
 1953              		.loc 1 487 28 is_stmt 0
 1954              	#NO_APP
 1955 0a30 97000000 		call	_ZN5RiscV16saveA0toSscratchEv
 1955      E7800000 
 1956              	.LVL167:
 488:src/riscv.cpp **** 
 1957              		.loc 1 488 1
 1958 0a38 83308100 		ld	ra,8(sp)
GAS LISTING /tmp/ccEFbENn.s 			page 56


 1959              		.cfi_remember_state
 1960              		.cfi_restore 1
 1961 0a3c 03340100 		ld	s0,0(sp)
 1962              		.cfi_restore 8
 1963              		.cfi_def_cfa 2, 16
 1964 0a40 13010101 		addi	sp,sp,16
 1965              		.cfi_def_cfa_offset 0
 1966 0a44 67800000 		jr	ra
 1967              	.LVL168:
 1968              	.L99:
 1969              		.cfi_restore_state
 480:src/riscv.cpp ****     else
 1970              		.loc 1 480 9 is_stmt 1
 480:src/riscv.cpp ****     else
 1971              		.loc 1 480 32 is_stmt 0
 1972 0a48 97000000 		call	_ZN3SCB6signalEv@plt
 1972      E7800000 
 1973              	.LVL169:
 477:src/riscv.cpp **** 
 1974              		.loc 1 477 12
 1975 0a50 93070000 		li	a5,0
 1976 0a54 6FF09FFD 		j	.L96
 1977              		.cfi_endproc
 1978              	.LFE57:
 1980              		.align	2
 1981              		.globl	_ZN5RiscV23executeTimeSleepSyscallEv
 1983              	_ZN5RiscV23executeTimeSleepSyscallEv:
 1984              	.LFB58:
 490:src/riscv.cpp **** 
 1985              		.loc 1 490 39 is_stmt 1
 1986              		.cfi_startproc
 1987 0a58 130101FE 		addi	sp,sp,-32
 1988              		.cfi_def_cfa_offset 32
 1989 0a5c 233C1100 		sd	ra,24(sp)
 1990 0a60 23388100 		sd	s0,16(sp)
 1991 0a64 23349100 		sd	s1,8(sp)
 1992              		.cfi_offset 1, -8
 1993              		.cfi_offset 8, -16
 1994              		.cfi_offset 9, -24
 1995 0a68 13040102 		addi	s0,sp,32
 1996              		.cfi_def_cfa 8, 0
 493:src/riscv.cpp **** 
 1997              		.loc 1 493 5
 495:src/riscv.cpp **** 
 1998              		.loc 1 495 5
 495:src/riscv.cpp **** 
 1999              		.loc 1 495 49 is_stmt 0
 2000              	#APP
 2001              	# 495 "src/riscv.cpp" 1
 499:src/riscv.cpp ****     tcb->sleepTime = globalTime;
 2002              		mv a4, a1
 2003              	# 0 "" 2
 2004              		.loc 1 499 5 is_stmt 1
 499:src/riscv.cpp ****     tcb->sleepTime = globalTime;
 2005              		.loc 1 499 10 is_stmt 0
 2006              	#NO_APP
 2007 0a70 97070000 		la	a5,_ZN3TCB7runningE
GAS LISTING /tmp/ccEFbENn.s 			page 57


 2007      83B70700 
 2008 0a78 83B40700 		ld	s1,0(a5)
 2009              	.LVL170:
 500:src/riscv.cpp ****     tcb->wakeTime = globalTime + itime;
 2010              		.loc 1 500 5 is_stmt 1
 500:src/riscv.cpp ****     tcb->wakeTime = globalTime + itime;
 2011              		.loc 1 500 20 is_stmt 0
 2012 0a7c 97070000 		ld	a5,.LANCHOR0+24
 2012      83B70700 
 2013 0a84 23B8F404 		sd	a5,80(s1)
 501:src/riscv.cpp **** 
 2014              		.loc 1 501 5 is_stmt 1
 501:src/riscv.cpp **** 
 2015              		.loc 1 501 32 is_stmt 0
 2016 0a88 B387E700 		add	a5,a5,a4
 501:src/riscv.cpp **** 
 2017              		.loc 1 501 19
 2018 0a8c 23BCF404 		sd	a5,88(s1)
 503:src/riscv.cpp **** 
 2019              		.loc 1 503 5 is_stmt 1
 503:src/riscv.cpp **** 
 2020              		.loc 1 503 21 is_stmt 0
 2021 0a90 13850400 		mv	a0,s1
 2022 0a94 97000000 		call	_ZN9Scheduler5sleepEP3TCB@plt
 2022      E7800000 
 2023              	.LVL171:
 505:src/riscv.cpp **** 
 2024              		.loc 1 505 5 is_stmt 1
 505:src/riscv.cpp **** 
 2025              		.loc 1 505 17 is_stmt 0
 2026 0a9c 93073000 		li	a5,3
 2027 0aa0 23A8F400 		sw	a5,16(s1)
 507:src/riscv.cpp **** 
 2028              		.loc 1 507 5 is_stmt 1
 507:src/riscv.cpp **** 
 2029              		.loc 1 507 18 is_stmt 0
 2030 0aa4 97000000 		call	_ZN3TCB8dispatchEv@plt
 2030      E7800000 
 2031              	.LVL172:
 509:src/riscv.cpp **** 
 2032              		.loc 1 509 5 is_stmt 1
 512:src/riscv.cpp **** 
 2033              		.loc 1 512 5
 512:src/riscv.cpp **** 
 2034              		.loc 1 512 54 is_stmt 0
 2035 0aac 93070000 		li	a5,0
 2036              	#APP
 2037              	# 512 "src/riscv.cpp" 1
 514:src/riscv.cpp **** }
 2038              		mv a0, a5
 2039              	# 0 "" 2
 2040              		.loc 1 514 5 is_stmt 1
 514:src/riscv.cpp **** }
 2041              		.loc 1 514 28 is_stmt 0
 2042              	#NO_APP
 2043 0ab4 97000000 		call	_ZN5RiscV16saveA0toSscratchEv
 2043      E7800000 
GAS LISTING /tmp/ccEFbENn.s 			page 58


 2044              	.LVL173:
 515:src/riscv.cpp **** 
 2045              		.loc 1 515 1
 2046 0abc 83308101 		ld	ra,24(sp)
 2047              		.cfi_restore 1
 2048 0ac0 03340101 		ld	s0,16(sp)
 2049              		.cfi_restore 8
 2050              		.cfi_def_cfa 2, 32
 2051 0ac4 83348100 		ld	s1,8(sp)
 2052              		.cfi_restore 9
 2053              	.LVL174:
 2054 0ac8 13010102 		addi	sp,sp,32
 2055              		.cfi_def_cfa_offset 0
 2056 0acc 67800000 		jr	ra
 2057              		.cfi_endproc
 2058              	.LFE58:
 2060              		.align	2
 2061              		.globl	_ZN5RiscV18executeGetcSyscallEv
 2063              	_ZN5RiscV18executeGetcSyscallEv:
 2064              	.LFB59:
 517:src/riscv.cpp **** 
 2065              		.loc 1 517 34 is_stmt 1
 2066              		.cfi_startproc
 2067 0ad0 130101FE 		addi	sp,sp,-32
 2068              		.cfi_def_cfa_offset 32
 2069 0ad4 233C1100 		sd	ra,24(sp)
 2070 0ad8 23388100 		sd	s0,16(sp)
 2071 0adc 23349100 		sd	s1,8(sp)
 2072              		.cfi_offset 1, -8
 2073              		.cfi_offset 8, -16
 2074              		.cfi_offset 9, -24
 2075 0ae0 13040102 		addi	s0,sp,32
 2076              		.cfi_def_cfa 8, 0
 520:src/riscv.cpp ****         ConsoleUtil::pendingGetc++;
 2077              		.loc 1 520 5
 520:src/riscv.cpp ****         ConsoleUtil::pendingGetc++;
 2078              		.loc 1 520 8 is_stmt 0
 2079 0ae4 97070000 		lbu	a5,.LANCHOR0+16
 2079      83C70700 
 520:src/riscv.cpp ****         ConsoleUtil::pendingGetc++;
 2080              		.loc 1 520 5
 2081 0aec 639C0700 		bnez	a5,.L103
 521:src/riscv.cpp **** 
 2082              		.loc 1 521 9 is_stmt 1
 521:src/riscv.cpp **** 
 2083              		.loc 1 521 33 is_stmt 0
 2084 0af0 17070000 		la	a4,_ZN11ConsoleUtil11pendingGetcE
 2084      03370700 
 2085 0af8 83370700 		ld	a5,0(a4)
 2086 0afc 93871700 		addi	a5,a5,1
 2087 0b00 2330F700 		sd	a5,0(a4)
 2088              	.L103:
 524:src/riscv.cpp **** 
 2089              		.loc 1 524 5 is_stmt 1
 524:src/riscv.cpp **** 
 2090              		.loc 1 524 35 is_stmt 0
 2091 0b04 97000000 		call	_ZN11ConsoleUtil8getInputEv@plt
GAS LISTING /tmp/ccEFbENn.s 			page 59


 2091      E7800000 
 2092              	.LVL175:
 2093 0b0c 93040500 		mv	s1,a0
 2094              	.LVL176:
 527:src/riscv.cpp ****         ConsoleUtil::putOutput(13);
 2095              		.loc 1 527 5 is_stmt 1
 2096 0b10 9307D000 		li	a5,13
 2097 0b14 6306F502 		beq	a0,a5,.L107
 532:src/riscv.cpp ****         ConsoleUtil::putOutput(c);
 2098              		.loc 1 532 10
 2099 0b18 9307B001 		li	a5,27
 2100 0b1c 6310F504 		bne	a0,a5,.L108
 2101              	.LVL177:
 2102              	.L105:
 536:src/riscv.cpp **** 
 2103              		.loc 1 536 5
 536:src/riscv.cpp **** 
 2104              		.loc 1 536 39 is_stmt 0
 2105              	#APP
 2106              	# 536 "src/riscv.cpp" 1
 538:src/riscv.cpp **** }
 2107              		mv a0, s1
 2108              	# 0 "" 2
 2109              		.loc 1 538 5 is_stmt 1
 538:src/riscv.cpp **** }
 2110              		.loc 1 538 28 is_stmt 0
 2111              	#NO_APP
 2112 0b24 97000000 		call	_ZN5RiscV16saveA0toSscratchEv
 2112      E7800000 
 2113              	.LVL178:
 539:src/riscv.cpp **** 
 2114              		.loc 1 539 1
 2115 0b2c 83308101 		ld	ra,24(sp)
 2116              		.cfi_remember_state
 2117              		.cfi_restore 1
 2118 0b30 03340101 		ld	s0,16(sp)
 2119              		.cfi_restore 8
 2120              		.cfi_def_cfa 2, 32
 2121 0b34 83348100 		ld	s1,8(sp)
 2122              		.cfi_restore 9
 2123 0b38 13010102 		addi	sp,sp,32
 2124              		.cfi_def_cfa_offset 0
 2125 0b3c 67800000 		jr	ra
 2126              	.LVL179:
 2127              	.L107:
 2128              		.cfi_restore_state
 528:src/riscv.cpp ****         ConsoleUtil::putOutput(10);
 2129              		.loc 1 528 9 is_stmt 1
 528:src/riscv.cpp ****         ConsoleUtil::putOutput(10);
 2130              		.loc 1 528 31 is_stmt 0
 2131 0b40 1305D000 		li	a0,13
 2132              	.LVL180:
 2133 0b44 97000000 		call	_ZN11ConsoleUtil9putOutputEc@plt
 2133      E7800000 
 2134              	.LVL181:
 529:src/riscv.cpp ****     }
 2135              		.loc 1 529 9 is_stmt 1
GAS LISTING /tmp/ccEFbENn.s 			page 60


 529:src/riscv.cpp ****     }
 2136              		.loc 1 529 31 is_stmt 0
 2137 0b4c 1305A000 		li	a0,10
 2138 0b50 97000000 		call	_ZN11ConsoleUtil9putOutputEc@plt
 2138      E7800000 
 2139              	.LVL182:
 2140 0b58 6FF09FFC 		j	.L105
 2141              	.LVL183:
 2142              	.L108:
 533:src/riscv.cpp **** 
 2143              		.loc 1 533 9 is_stmt 1
 533:src/riscv.cpp **** 
 2144              		.loc 1 533 31 is_stmt 0
 2145 0b5c 97000000 		call	_ZN11ConsoleUtil9putOutputEc@plt
 2145      E7800000 
 2146              	.LVL184:
 2147 0b64 6FF0DFFB 		j	.L105
 2148              		.cfi_endproc
 2149              	.LFE59:
 2151              		.align	2
 2152              		.globl	_ZN5RiscV22executePutcUtilSyscallEv
 2154              	_ZN5RiscV22executePutcUtilSyscallEv:
 2155              	.LFB62:
 589:src/riscv.cpp ****     char c = ConsoleUtil::getOutput();
 2156              		.loc 1 589 38 is_stmt 1
 2157              		.cfi_startproc
 2158 0b68 130101FF 		addi	sp,sp,-16
 2159              		.cfi_def_cfa_offset 16
 2160 0b6c 23341100 		sd	ra,8(sp)
 2161 0b70 23308100 		sd	s0,0(sp)
 2162              		.cfi_offset 1, -8
 2163              		.cfi_offset 8, -16
 2164 0b74 13040101 		addi	s0,sp,16
 2165              		.cfi_def_cfa 8, 0
 590:src/riscv.cpp ****     asm("mv a0, %[c]" : : [c] "r" ((uint64)(c)) );
 2166              		.loc 1 590 5
 590:src/riscv.cpp ****     asm("mv a0, %[c]" : : [c] "r" ((uint64)(c)) );
 2167              		.loc 1 590 36 is_stmt 0
 2168 0b78 97000000 		call	_ZN11ConsoleUtil9getOutputEv@plt
 2168      E7800000 
 2169              	.LVL185:
 591:src/riscv.cpp **** 
 2170              		.loc 1 591 5 is_stmt 1
 591:src/riscv.cpp **** 
 2171              		.loc 1 591 50 is_stmt 0
 2172              	#APP
 2173              	# 591 "src/riscv.cpp" 1
 593:src/riscv.cpp **** }
 2174              		mv a0, a0
 2175              	# 0 "" 2
 2176              		.loc 1 593 5 is_stmt 1
 593:src/riscv.cpp **** }
 2177              		.loc 1 593 28 is_stmt 0
 2178              	#NO_APP
 2179 0b84 97000000 		call	_ZN5RiscV16saveA0toSscratchEv
 2179      E7800000 
 2180              	.LVL186:
GAS LISTING /tmp/ccEFbENn.s 			page 61


 594:src/riscv.cpp **** 
 2181              		.loc 1 594 1
 2182 0b8c 83308100 		ld	ra,8(sp)
 2183              		.cfi_restore 1
 2184 0b90 03340100 		ld	s0,0(sp)
 2185              		.cfi_restore 8
 2186              		.cfi_def_cfa 2, 16
 2187 0b94 13010101 		addi	sp,sp,16
 2188              		.cfi_def_cfa_offset 0
 2189 0b98 67800000 		jr	ra
 2190              		.cfi_endproc
 2191              	.LFE62:
 2193              		.align	2
 2194              		.globl	_ZN5RiscV24executeThreadFreeSyscallEv
 2196              	_ZN5RiscV24executeThreadFreeSyscallEv:
 2197              	.LFB66:
 638:src/riscv.cpp **** 
 639:src/riscv.cpp **** //syscall to free the space that is allocated for thread
 640:src/riscv.cpp **** void RiscV::executeThreadFreeSyscall() {
 2198              		.loc 1 640 40 is_stmt 1
 2199              		.cfi_startproc
 2200 0b9c 130101FE 		addi	sp,sp,-32
 2201              		.cfi_def_cfa_offset 32
 2202 0ba0 233C1100 		sd	ra,24(sp)
 2203 0ba4 23388100 		sd	s0,16(sp)
 2204 0ba8 23349100 		sd	s1,8(sp)
 2205              		.cfi_offset 1, -8
 2206              		.cfi_offset 8, -16
 2207              		.cfi_offset 9, -24
 2208 0bac 13040102 		addi	s0,sp,32
 2209              		.cfi_def_cfa 8, 0
 641:src/riscv.cpp ****     uint64 iaddr, status;
 2210              		.loc 1 641 5
 642:src/riscv.cpp **** 
 643:src/riscv.cpp ****     asm("mv %[iaddr], a1" : [iaddr] "=r"(iaddr));
 2211              		.loc 1 643 5
 2212              		.loc 1 643 49 is_stmt 0
 2213              	#APP
 2214              	# 643 "src/riscv.cpp" 1
 644              	
 2215              		mv s1, a1
 2216              	# 0 "" 2
 2217              	.LVL187:
 645:src/riscv.cpp ****     TCB *thr = (TCB*)iaddr;
 2218              		.loc 1 645 5 is_stmt 1
 646:src/riscv.cpp **** 
 647:src/riscv.cpp ****     if(thr == nullptr)
 2219              		.loc 1 647 5
 2220              	#NO_APP
 2221 0bb4 63940402 		bnez	s1,.L114
 2222              	.L112:
 2223              	.LVL188:
 648:src/riscv.cpp ****         status = -1;
 649:src/riscv.cpp ****     else {
 650:src/riscv.cpp ****         kfree(thr->stack);
 651:src/riscv.cpp ****         delete thr;
 652:src/riscv.cpp ****     }
GAS LISTING /tmp/ccEFbENn.s 			page 62


 653:src/riscv.cpp **** 
 654:src/riscv.cpp ****     //return status
 655:src/riscv.cpp ****     asm("mv a0, %[status]" : : [status] "r" (status));
 2224              		.loc 1 655 5
 2225              		.loc 1 655 54 is_stmt 0
 2226 0bb8 9307F0FF 		li	a5,-1
 2227              	#APP
 2228              	# 655 "src/riscv.cpp" 1
 656              	
 657:src/riscv.cpp ****     RiscV::saveA0toSscratch();
 2229              		mv a0, a5
 2230              	# 0 "" 2
 2231              		.loc 1 657 5 is_stmt 1
 2232              		.loc 1 657 28 is_stmt 0
 2233              	#NO_APP
 2234 0bc0 97000000 		call	_ZN5RiscV16saveA0toSscratchEv
 2234      E7800000 
 2235              	.LVL189:
 658:src/riscv.cpp **** }
 2236              		.loc 1 658 1
 2237 0bc8 83308101 		ld	ra,24(sp)
 2238              		.cfi_remember_state
 2239              		.cfi_restore 1
 2240 0bcc 03340101 		ld	s0,16(sp)
 2241              		.cfi_restore 8
 2242              		.cfi_def_cfa 2, 32
 2243 0bd0 83348100 		ld	s1,8(sp)
 2244              		.cfi_restore 9
 2245              	.LVL190:
 2246 0bd4 13010102 		addi	sp,sp,32
 2247              		.cfi_def_cfa_offset 0
 2248 0bd8 67800000 		jr	ra
 2249              	.LVL191:
 2250              	.L114:
 2251              		.cfi_restore_state
 650:src/riscv.cpp ****         delete thr;
 2252              		.loc 1 650 9 is_stmt 1
 650:src/riscv.cpp ****         delete thr;
 2253              		.loc 1 650 14 is_stmt 0
 2254 0bdc 03B58402 		ld	a0,40(s1)
 2255 0be0 97000000 		call	_Z5kfreePKv@plt
 2255      E7800000 
 2256              	.LVL192:
 651:src/riscv.cpp ****     }
 2257              		.loc 1 651 9 is_stmt 1
 651:src/riscv.cpp ****     }
 2258              		.loc 1 651 16 is_stmt 0
 2259 0be8 13850400 		mv	a0,s1
 2260 0bec 97000000 		call	_ZN3TCBD1Ev@plt
 2260      E7800000 
 2261              	.LVL193:
 2262 0bf4 13850400 		mv	a0,s1
 2263 0bf8 97000000 		call	_ZN3TCBdlEPv@plt
 2263      E7800000 
 2264              	.LVL194:
 2265 0c00 6FF09FFB 		j	.L112
 2266              		.cfi_endproc
GAS LISTING /tmp/ccEFbENn.s 			page 63


 2267              	.LFE66:
 2269              		.align	2
 2270              		.globl	_ZN5RiscV27executeSemaphoreFreeSyscallEv
 2272              	_ZN5RiscV27executeSemaphoreFreeSyscallEv:
 2273              	.LFB67:
 659:src/riscv.cpp **** 
 660:src/riscv.cpp **** //syscall to free the space that is allocated for semaphore
 661:src/riscv.cpp **** void RiscV::executeSemaphoreFreeSyscall() {
 2274              		.loc 1 661 43 is_stmt 1
 2275              		.cfi_startproc
 2276 0c04 130101FE 		addi	sp,sp,-32
 2277              		.cfi_def_cfa_offset 32
 2278 0c08 233C1100 		sd	ra,24(sp)
 2279 0c0c 23388100 		sd	s0,16(sp)
 2280 0c10 23349100 		sd	s1,8(sp)
 2281              		.cfi_offset 1, -8
 2282              		.cfi_offset 8, -16
 2283              		.cfi_offset 9, -24
 2284 0c14 13040102 		addi	s0,sp,32
 2285              		.cfi_def_cfa 8, 0
 662:src/riscv.cpp ****     uint64 iaddr, status;
 2286              		.loc 1 662 5
 663:src/riscv.cpp **** 
 664:src/riscv.cpp ****     //call internal allocator and free memory which iaddr points to
 665:src/riscv.cpp ****     asm("mv %[iaddr], a1" : [iaddr] "=r"(iaddr));
 2287              		.loc 1 665 5
 2288              		.loc 1 665 49 is_stmt 0
 2289              	#APP
 2290              	# 665 "src/riscv.cpp" 1
 666              	
 2291              		mv s1, a1
 2292              	# 0 "" 2
 2293              	.LVL195:
 667:src/riscv.cpp ****     SCB *scb = (SCB*)iaddr;
 2294              		.loc 1 667 5 is_stmt 1
 668:src/riscv.cpp **** 
 669:src/riscv.cpp ****     if(scb == nullptr){
 2295              		.loc 1 669 5
 2296              	#NO_APP
 2297 0c1c 63940402 		bnez	s1,.L118
 2298              	.L116:
 2299              	.LVL196:
 670:src/riscv.cpp ****         status = -1;
 671:src/riscv.cpp ****     }
 672:src/riscv.cpp ****     else
 673:src/riscv.cpp ****         delete scb;
 674:src/riscv.cpp **** 
 675:src/riscv.cpp ****     //return status
 676:src/riscv.cpp ****     asm("mv a0, %[status]" : : [status] "r" (status));
 2300              		.loc 1 676 5
 2301              		.loc 1 676 54 is_stmt 0
 2302 0c20 9307F0FF 		li	a5,-1
 2303              	#APP
 2304              	# 676 "src/riscv.cpp" 1
 677              	
 678:src/riscv.cpp ****     RiscV::saveA0toSscratch();
 2305              		mv a0, a5
GAS LISTING /tmp/ccEFbENn.s 			page 64


 2306              	# 0 "" 2
 2307              		.loc 1 678 5 is_stmt 1
 2308              		.loc 1 678 28 is_stmt 0
 2309              	#NO_APP
 2310 0c28 97000000 		call	_ZN5RiscV16saveA0toSscratchEv
 2310      E7800000 
 2311              	.LVL197:
 679:src/riscv.cpp **** }
 2312              		.loc 1 679 1
 2313 0c30 83308101 		ld	ra,24(sp)
 2314              		.cfi_remember_state
 2315              		.cfi_restore 1
 2316 0c34 03340101 		ld	s0,16(sp)
 2317              		.cfi_restore 8
 2318              		.cfi_def_cfa 2, 32
 2319 0c38 83348100 		ld	s1,8(sp)
 2320              		.cfi_restore 9
 2321              	.LVL198:
 2322 0c3c 13010102 		addi	sp,sp,32
 2323              		.cfi_def_cfa_offset 0
 2324 0c40 67800000 		jr	ra
 2325              	.LVL199:
 2326              	.L118:
 2327              		.cfi_restore_state
 673:src/riscv.cpp **** 
 2328              		.loc 1 673 9 is_stmt 1 discriminator 1
 673:src/riscv.cpp **** 
 2329              		.loc 1 673 16 is_stmt 0 discriminator 1
 2330 0c44 13850400 		mv	a0,s1
 2331 0c48 97000000 		call	_ZN3SCBD1Ev@plt
 2331      E7800000 
 2332              	.LVL200:
 2333 0c50 13850400 		mv	a0,s1
 2334 0c54 97000000 		call	_ZN3SCBdlEPv@plt
 2334      E7800000 
 2335              	.LVL201:
 2336 0c5c 6FF05FFC 		j	.L116
 2337              		.cfi_endproc
 2338              	.LFE67:
 2340              		.align	2
 2341              		.globl	_ZN5RiscV18executeForkSyscallEv
 2343              	_ZN5RiscV18executeForkSyscallEv:
 2344              	.LFB68:
 680:src/riscv.cpp **** 
 681:src/riscv.cpp **** //fork syscall
 682:src/riscv.cpp **** void RiscV::executeForkSyscall() {
 2345              		.loc 1 682 34 is_stmt 1
 2346              		.cfi_startproc
 2347              		.cfi_personality 0x9b,DW.ref.__gxx_personality_v0
 2348              		.cfi_lsda 0x1b,.LLSDA68
 2349 0c60 130101FE 		addi	sp,sp,-32
 2350              		.cfi_def_cfa_offset 32
 2351 0c64 233C1100 		sd	ra,24(sp)
 2352 0c68 23388100 		sd	s0,16(sp)
 2353 0c6c 23349100 		sd	s1,8(sp)
 2354 0c70 23302101 		sd	s2,0(sp)
 2355              		.cfi_offset 1, -8
GAS LISTING /tmp/ccEFbENn.s 			page 65


 2356              		.cfi_offset 8, -16
 2357              		.cfi_offset 9, -24
 2358              		.cfi_offset 18, -32
 2359 0c74 13040102 		addi	s0,sp,32
 2360              		.cfi_def_cfa 8, 0
 683:src/riscv.cpp **** 
 684:src/riscv.cpp ****     //create new stack and copy stack from currently running stack into the new one
 685:src/riscv.cpp ****     uint64 *stack = (uint64*)kmalloc(DEFAULT_STACK_SIZE);
 2361              		.loc 1 685 5
 2362              		.loc 1 685 37 is_stmt 0
 2363 0c78 37150000 		li	a0,4096
 2364              	.LEHB10:
 2365 0c7c 97000000 		call	_Z7kmallocm@plt
 2365      E7800000 
 2366              	.LVL202:
 2367 0c84 13090500 		mv	s2,a0
 2368              	.LVL203:
 686:src/riscv.cpp **** 
 687:src/riscv.cpp ****     MemoryAllocator::memcpy((void*)TCB::running->stack,(void*)stack,DEFAULT_STACK_SIZE);
 2369              		.loc 1 687 5 is_stmt 1
 2370              		.loc 1 687 28 is_stmt 0
 2371 0c88 97070000 		la	a5,_ZN3TCB7runningE
 2371      83B70700 
 2372 0c90 83B70700 		ld	a5,0(a5)
 2373 0c94 37160000 		li	a2,4096
 2374 0c98 93050500 		mv	a1,a0
 2375 0c9c 03B58702 		ld	a0,40(a5)
 2376              	.LVL204:
 2377 0ca0 97000000 		call	_ZN15MemoryAllocator6memcpyEPvS0_m@plt
 2377      E7800000 
 2378              	.LVL205:
 688:src/riscv.cpp **** 
 689:src/riscv.cpp ****     //create new TCB for new thread
 690:src/riscv.cpp ****     TCB *forked = new TCB(nullptr, nullptr, stack, DEFAULT_TIME_SLICE);
 2379              		.loc 1 690 5 is_stmt 1
 2380              		.loc 1 690 70 is_stmt 0
 2381 0ca8 13050007 		li	a0,112
 2382 0cac 97000000 		call	_ZN3TCBnwEm@plt
 2382      E7800000 
 2383              	.LVL206:
 2384              	.LEHE10:
 2385 0cb4 93040500 		mv	s1,a0
 2386 0cb8 630E0500 		beqz	a0,.L120
 2387              		.loc 1 690 70 discriminator 1
 2388 0cbc 13072000 		li	a4,2
 2389 0cc0 93060900 		mv	a3,s2
 2390 0cc4 13060000 		li	a2,0
 2391 0cc8 93050000 		li	a1,0
 2392              	.LEHB11:
 2393 0ccc 97000000 		call	_ZN3TCBC1EPFvPvES0_Pmm@plt
 2393      E7800000 
 2394              	.LVL207:
 2395              	.LEHE11:
 2396              	.L120:
 691:src/riscv.cpp **** 
 692:src/riscv.cpp ****     uint64 status = 0;
 2397              		.loc 1 692 5 is_stmt 1 discriminator 6
GAS LISTING /tmp/ccEFbENn.s 			page 66


 693:src/riscv.cpp **** 
 694:src/riscv.cpp ****     if(forked) {
 2398              		.loc 1 694 5 discriminator 6
 2399              	.LBB134:
 2400 0cd4 638E040A 		beqz	s1,.L123
 2401              	.LBB135:
 695:src/riscv.cpp **** 
 696:src/riscv.cpp ****         //set return address where forked thread should return
 697:src/riscv.cpp ****         forked->context.ra = TCB::currentPC;
 2402              		.loc 1 697 9
 2403              		.loc 1 697 28 is_stmt 0
 2404 0cd8 97070000 		la	a5,_ZN3TCB9currentPCE
 2404      83B70700 
 2405 0ce0 83B70700 		ld	a5,0(a5)
 2406 0ce4 23B4F400 		sd	a5,8(s1)
 698:src/riscv.cpp **** 
 699:src/riscv.cpp ****         //set SP value where forked thread's stack starts
 700:src/riscv.cpp ****         forked->context.sp = (uint64)((char*)stack + TCB::currentSP - (char*)TCB::running->stack);
 2407              		.loc 1 700 9 is_stmt 1
 2408              		.loc 1 700 59 is_stmt 0
 2409 0ce8 97070000 		la	a5,_ZN3TCB9currentSPE
 2409      83B70700 
 2410 0cf0 83B70700 		ld	a5,0(a5)
 2411              		.loc 1 700 52
 2412 0cf4 B307F900 		add	a5,s2,a5
 2413              		.loc 1 700 71
 2414 0cf8 17070000 		la	a4,_ZN3TCB7runningE
 2414      03370700 
 2415 0d00 83360700 		ld	a3,0(a4)
 2416              		.loc 1 700 92
 2417 0d04 83B68602 		ld	a3,40(a3)
 2418              		.loc 1 700 69
 2419 0d08 B387D740 		sub	a5,a5,a3
 2420              		.loc 1 700 28
 2421 0d0c 23B0F400 		sd	a5,0(s1)
 701:src/riscv.cpp **** 
 702:src/riscv.cpp ****         //get memory location of where registers are stored from previous context switch
 703:src/riscv.cpp ****         uint64 registerStartSP = (uint64)((char*)TCB::running->a0Location - (char*)TCB::running->st
 2422              		.loc 1 703 9 is_stmt 1
 2423              		.loc 1 703 64 is_stmt 0
 2424 0d10 83370700 		ld	a5,0(a4)
 2425 0d14 03B58706 		ld	a0,104(a5)
 2426              		.loc 1 703 98
 2427 0d18 83B78702 		ld	a5,40(a5)
 2428              		.loc 1 703 75
 2429 0d1c 3305F540 		sub	a0,a0,a5
 2430              		.loc 1 703 104
 2431 0d20 3309A900 		add	s2,s2,a0
 2432              	.LVL208:
 704:src/riscv.cpp **** 
 705:src/riscv.cpp ****         forked->a0Location = registerStartSP;
 2433              		.loc 1 705 9 is_stmt 1
 2434              		.loc 1 705 28 is_stmt 0
 2435 0d24 23B42407 		sd	s2,104(s1)
 706:src/riscv.cpp **** 
 707:src/riscv.cpp ****         uint64 a1,a0;
 2436              		.loc 1 707 9 is_stmt 1
GAS LISTING /tmp/ccEFbENn.s 			page 67


 708:src/riscv.cpp **** 
 709:src/riscv.cpp ****         //write address of stored registers in SP of forked thread so that it can return regularly
 710:src/riscv.cpp ****         asm("mv %[a1], a1": [a1] "=r"(a1));
 2437              		.loc 1 710 9
 2438              		.loc 1 710 43 is_stmt 0
 2439              	#APP
 2440              	# 710 "src/riscv.cpp" 1
 711              	
 712:src/riscv.cpp ****         asm("mv %[a0], a0": [a0] "=r"(a0));
 2441              		mv a3, a1
 2442              	# 0 "" 2
 2443              		.loc 1 712 9 is_stmt 1
 2444              		.loc 1 712 43 is_stmt 0
 2445              	# 712 "src/riscv.cpp" 1
 713              	
 714:src/riscv.cpp ****         asm("mv a0,%[a0]"::  [a0]"r"(registerStartSP));
 2446              		mv a5, a0
 2447              	# 0 "" 2
 2448              		.loc 1 714 9 is_stmt 1
 2449              		.loc 1 714 55 is_stmt 0
 2450              	# 714 "src/riscv.cpp" 1
 715              	
 716:src/riscv.cpp ****         asm("mv a1, %[a0]" : :  [a0] "r"(registerStartSP));
 2451              		mv a0,s2
 2452              	# 0 "" 2
 2453              		.loc 1 716 9 is_stmt 1
 2454              		.loc 1 716 59 is_stmt 0
 2455              	# 716 "src/riscv.cpp" 1
 717              	
 718:src/riscv.cpp ****         asm("sd a0, 16(a1)");
 2456              		mv a1, s2
 2457              	# 0 "" 2
 2458              		.loc 1 718 9 is_stmt 1
 2459              		.loc 1 718 29 is_stmt 0
 2460              	# 718 "src/riscv.cpp" 1
 719              	
 720:src/riscv.cpp ****         //write 0 in a0 register of forked thread because fork should return 0 in context of child,
 721:src/riscv.cpp ****         asm("li a0, 0");
 2461              		sd a0, 16(a1)
 2462              	# 0 "" 2
 2463              		.loc 1 721 9 is_stmt 1
 2464              		.loc 1 721 24 is_stmt 0
 2465              	# 721 "src/riscv.cpp" 1
 722              	
 723:src/riscv.cpp ****         asm("sd a0, 80(a1)");
 2466              		li a0, 0
 2467              	# 0 "" 2
 2468              		.loc 1 723 9 is_stmt 1
 2469              		.loc 1 723 29 is_stmt 0
 2470              	# 723 "src/riscv.cpp" 1
 724              	
 725:src/riscv.cpp ****         asm("mv a1,%[a1]"::  [a1]"r"(a1));
 2471              		sd a0, 80(a1)
 2472              	# 0 "" 2
 2473              		.loc 1 725 9 is_stmt 1
 2474              		.loc 1 725 42 is_stmt 0
 2475              	# 725 "src/riscv.cpp" 1
GAS LISTING /tmp/ccEFbENn.s 			page 68


 726              	
 727:src/riscv.cpp ****         asm("mv a0,%[a0]"::  [a0]"r"(a0));
 2476              		mv a1,a3
 2477              	# 0 "" 2
 2478              		.loc 1 727 9 is_stmt 1
 2479              		.loc 1 727 42 is_stmt 0
 2480              	# 727 "src/riscv.cpp" 1
 728              	
 729:src/riscv.cpp ****         forked->sepc = TCB::running->sepc;
 2481              		mv a0,a5
 2482              	# 0 "" 2
 2483              		.loc 1 729 9 is_stmt 1
 2484              		.loc 1 729 38 is_stmt 0
 2485              	#NO_APP
 2486 0d4c 83370700 		ld	a5,0(a4)
 2487 0d50 03B78703 		ld	a4,56(a5)
 2488              		.loc 1 729 22
 2489 0d54 23BCE402 		sd	a4,56(s1)
 730:src/riscv.cpp **** 
 731:src/riscv.cpp ****         forked->sstatus = TCB::running->sstatus;
 2490              		.loc 1 731 9 is_stmt 1
 2491              		.loc 1 731 41 is_stmt 0
 2492 0d58 83B70704 		ld	a5,64(a5)
 2493              		.loc 1 731 25
 2494 0d5c 23B0F404 		sd	a5,64(s1)
 732:src/riscv.cpp **** 
 733:src/riscv.cpp ****         //put forked in scheduler
 734:src/riscv.cpp ****         Scheduler::put(forked);
 2495              		.loc 1 734 9 is_stmt 1
 2496              		.loc 1 734 23 is_stmt 0
 2497 0d60 13850400 		mv	a0,s1
 2498              	.LEHB12:
 2499 0d64 97000000 		call	_ZN9Scheduler3putEP3TCB@plt
 2499      E7800000 
 2500              	.LVL209:
 2501              	.LEHE12:
 735:src/riscv.cpp **** 
 736:src/riscv.cpp ****         //return address of forked as thread ID
 737:src/riscv.cpp ****         status = (uint64)forked;
 2502              		.loc 1 737 9 is_stmt 1
 2503              	.L121:
 2504              	.LBE135:
 2505              	.LBE134:
 738:src/riscv.cpp ****     }else
 739:src/riscv.cpp ****         status = -1;
 740:src/riscv.cpp **** 
 741:src/riscv.cpp ****     asm("mv a0, %[status]" : : [status] "r" (status));
 2506              		.loc 1 741 5
 2507              		.loc 1 741 54 is_stmt 0
 2508              	#APP
 2509              	# 741 "src/riscv.cpp" 1
 742              	
 743:src/riscv.cpp ****     RiscV::saveA0toSscratch();
 2510              		mv a0, s1
 2511              	# 0 "" 2
 2512              		.loc 1 743 5 is_stmt 1
 2513              		.loc 1 743 28 is_stmt 0
GAS LISTING /tmp/ccEFbENn.s 			page 69


 2514              	#NO_APP
 2515 0d70 97000000 		call	_ZN5RiscV16saveA0toSscratchEv
 2515      E7800000 
 2516              	.LVL210:
 744:src/riscv.cpp **** 
 745:src/riscv.cpp **** }
 2517              		.loc 1 745 1
 2518 0d78 83308101 		ld	ra,24(sp)
 2519              		.cfi_remember_state
 2520              		.cfi_restore 1
 2521 0d7c 03340101 		ld	s0,16(sp)
 2522              		.cfi_restore 8
 2523              		.cfi_def_cfa 2, 32
 2524 0d80 83348100 		ld	s1,8(sp)
 2525              		.cfi_restore 9
 2526              	.LVL211:
 2527 0d84 03390100 		ld	s2,0(sp)
 2528              		.cfi_restore 18
 2529 0d88 13010102 		addi	sp,sp,32
 2530              		.cfi_def_cfa_offset 0
 2531 0d8c 67800000 		jr	ra
 2532              	.LVL212:
 2533              	.L123:
 2534              		.cfi_restore_state
 2535              	.LBB136:
 739:src/riscv.cpp **** 
 2536              		.loc 1 739 16
 2537 0d90 9304F0FF 		li	s1,-1
 2538              	.LVL213:
 2539 0d94 6FF09FFD 		j	.L121
 2540              	.LVL214:
 2541              	.L124:
 2542 0d98 13090500 		mv	s2,a0
 2543              	.LVL215:
 2544              	.LBE136:
 690:src/riscv.cpp **** 
 2545              		.loc 1 690 70
 2546 0d9c 13850400 		mv	a0,s1
 2547 0da0 97000000 		call	_ZN3TCBdlEPv@plt
 2547      E7800000 
 2548              	.LVL216:
 2549 0da8 13050900 		mv	a0,s2
 2550              	.LEHB13:
 2551 0dac 97000000 		call	_Unwind_Resume@plt
 2551      E7800000 
 2552              	.LVL217:
 2553              	.LEHE13:
 2554              		.cfi_endproc
 2555              	.LFE68:
 2556              		.section	.gcc_except_table
 2557              	.LLSDA68:
 2558 008e FF       		.byte	0xff
 2559 008f FF       		.byte	0xff
 2560 0090 03       		.byte	0x3
 2561 0091 34       		.byte	0x34
 2562 0092 00000000 		.4byte	.LEHB10-.LFB68
 2563 0096 00000000 		.4byte	.LEHE10-.LEHB10
GAS LISTING /tmp/ccEFbENn.s 			page 70


 2564 009a 00000000 		.4byte	0
 2565 009e 00       		.byte	0
 2566 009f 00000000 		.4byte	.LEHB11-.LFB68
 2567 00a3 00000000 		.4byte	.LEHE11-.LEHB11
 2568 00a7 00000000 		.4byte	.L124-.LFB68
 2569 00ab 00       		.byte	0
 2570 00ac 00000000 		.4byte	.LEHB12-.LFB68
 2571 00b0 00000000 		.4byte	.LEHE12-.LEHB12
 2572 00b4 00000000 		.4byte	0
 2573 00b8 00       		.byte	0
 2574 00b9 00000000 		.4byte	.LEHB13-.LFB68
 2575 00bd 00000000 		.4byte	.LEHE13-.LEHB13
 2576 00c1 00000000 		.4byte	0
 2577 00c5 00       		.byte	0
 2578              		.text
 2580              		.align	2
 2581              		.globl	_ZN5RiscV5getPCEv
 2583              	_ZN5RiscV5getPCEv:
 2584              	.LFB69:
 746:src/riscv.cpp **** 
 747:src/riscv.cpp **** void RiscV::getPC(){
 2585              		.loc 1 747 20 is_stmt 1
 2586              		.cfi_startproc
 2587 0db4 130101FF 		addi	sp,sp,-16
 2588              		.cfi_def_cfa_offset 16
 2589 0db8 23348100 		sd	s0,8(sp)
 2590              		.cfi_offset 8, -8
 2591 0dbc 13040101 		addi	s0,sp,16
 2592              		.cfi_def_cfa 8, 0
 748:src/riscv.cpp ****     uint64 ra;
 2593              		.loc 1 748 5
 749:src/riscv.cpp **** 
 750:src/riscv.cpp ****     asm("mv %[ra], ra" : [ra] "=r"(ra));
 2594              		.loc 1 750 5
 2595              		.loc 1 750 40 is_stmt 0
 2596              	#APP
 2597              	# 750 "src/riscv.cpp" 1
 751              	
 2598              		mv a5, ra
 2599              	# 0 "" 2
 2600              	.LVL218:
 752:src/riscv.cpp ****     TCB::currentPC = ra + 8;
 2601              		.loc 1 752 5 is_stmt 1
 2602              		.loc 1 752 25 is_stmt 0
 2603              	#NO_APP
 2604 0dc4 93878700 		addi	a5,a5,8
 2605              	.LVL219:
 2606              		.loc 1 752 20
 2607 0dc8 17070000 		la	a4,_ZN3TCB9currentPCE
 2607      03370700 
 2608 0dd0 2330F700 		sd	a5,0(a4)
 753:src/riscv.cpp **** }
 2609              		.loc 1 753 1
 2610 0dd4 03348100 		ld	s0,8(sp)
 2611              		.cfi_restore 8
 2612              		.cfi_def_cfa 2, 16
 2613 0dd8 13010101 		addi	sp,sp,16
GAS LISTING /tmp/ccEFbENn.s 			page 71


 2614              		.cfi_def_cfa_offset 0
 2615 0ddc 67800000 		jr	ra
 2616              		.cfi_endproc
 2617              	.LFE69:
 2619              		.section	.rodata.str1.8,"aMS",@progbits,1
 2620              		.align	3
 2621              	.LC0:
 2622 0000 73657063 		.string	"sepc: "
 2622      3A2000
 2623 0007 00       		.align	3
 2624              	.LC1:
 2625 0008 0A00     		.string	"\n"
 2626 000a 00000000 		.align	3
 2626      0000
 2627              	.LC2:
 2628 0010 496C6C65 		.string	"Illegal instruction\nExiting thread...\n"
 2628      67616C20 
 2628      696E7374 
 2628      72756374 
 2628      696F6E0A 
 2629 0037 00       		.align	3
 2630              	.LC3:
 2631 0038 4572726F 		.string	"Error: \n"
 2631      723A200A 
 2631      00
 2632 0041 00000000 		.align	3
 2632      000000
 2633              	.LC4:
 2634 0048 73636175 		.string	"scause: "
 2634      73653A20 
 2634      00
 2635 0051 00000000 		.align	3
 2635      000000
 2636              	.LC5:
 2637 0058 45786974 		.string	"Exiting thread...\n"
 2637      696E6720 
 2637      74687265 
 2637      61642E2E 
 2637      2E0A00
 2638              		.text
 2639              		.align	2
 2640              		.globl	_ZN5RiscV20handleSupervisorTrapEv
 2642              	_ZN5RiscV20handleSupervisorTrapEv:
 2643              	.LFB46:
  88:src/riscv.cpp **** 
 2644              		.loc 1 88 36 is_stmt 1
 2645              		.cfi_startproc
 2646 0de0 130101FA 		addi	sp,sp,-96
 2647              		.cfi_def_cfa_offset 96
 2648 0de4 233C1104 		sd	ra,88(sp)
 2649 0de8 23388104 		sd	s0,80(sp)
 2650              		.cfi_offset 1, -8
 2651              		.cfi_offset 8, -16
 2652 0dec 13040106 		addi	s0,sp,96
 2653              		.cfi_def_cfa 8, 0
  91:src/riscv.cpp **** 
 2654              		.loc 1 91 5
GAS LISTING /tmp/ccEFbENn.s 			page 72


 2655              	.LBB137:
 2656              	.LBB138:
 139:src/../h/riscv.hpp ****     asm("csrr %[scause], scause" : [scause] "=r" (scause));
 2657              		.loc 2 139 5
 140:src/../h/riscv.hpp ****     return scause;
 2658              		.loc 2 140 5
 140:src/../h/riscv.hpp ****     return scause;
 2659              		.loc 2 140 59 is_stmt 0
 2660              	#APP
 2661              	# 140 "src/../h/riscv.hpp" 1
 2662              		csrr a5, scause
 2663              	# 0 "" 2
 2664              	#NO_APP
 2665 0df4 233CF4FC 		sd	a5,-40(s0)
 141:src/../h/riscv.hpp **** }
 2666              		.loc 2 141 5 is_stmt 1
 141:src/../h/riscv.hpp **** }
 2667              		.loc 2 141 12 is_stmt 0
 2668 0df8 833784FD 		ld	a5,-40(s0)
 2669              	.LBE138:
 2670              	.LBE137:
  91:src/riscv.cpp **** 
 2671              		.loc 1 91 46
 2672 0dfc 2334F4FE 		sd	a5,-24(s0)
  93:src/riscv.cpp **** 
 2673              		.loc 1 93 5 is_stmt 1
  93:src/riscv.cpp **** 
 2674              		.loc 1 93 71 is_stmt 0
 2675 0e00 97070000 		la	a5,_ZN3TCB7runningE
 2675      83B70700 
 2676 0e08 83B70700 		ld	a5,0(a5)
  93:src/riscv.cpp **** 
 2677              		.loc 1 93 83
 2678              	#APP
 2679              	# 93 "src/riscv.cpp" 1
 2680              		csrr a4, sscratch
 2681              	# 0 "" 2
 2682              	#NO_APP
 2683 0e10 23B4E706 		sd	a4,104(a5)
  96:src/riscv.cpp **** 
 2684              		.loc 1 96 5 is_stmt 1
 2685              	.LBB139:
  96:src/riscv.cpp **** 
 2686              		.loc 1 96 15 is_stmt 0
 2687 0e14 033784FE 		ld	a4,-24(s0)
  96:src/riscv.cpp **** 
 2688              		.loc 1 96 23
 2689 0e18 93079000 		li	a5,9
 2690 0e1c 6306F70E 		beq	a4,a5,.L130
  96:src/riscv.cpp **** 
 2691              		.loc 1 96 33 discriminator 2
 2692 0e20 033784FE 		ld	a4,-24(s0)
  96:src/riscv.cpp **** 
 2693              		.loc 1 96 23 discriminator 2
 2694 0e24 93078000 		li	a5,8
 2695 0e28 6300F70E 		beq	a4,a5,.L130
 2696              	.LBE139:
GAS LISTING /tmp/ccEFbENn.s 			page 73


 142:src/riscv.cpp **** 
 2697              		.loc 1 142 10 is_stmt 1
 2698              	.LBB194:
 2699              	.LBB140:
 142:src/riscv.cpp **** 
 2700              		.loc 1 142 20 is_stmt 0
 2701 0e2c 033784FE 		ld	a4,-24(s0)
 142:src/riscv.cpp **** 
 2702              		.loc 1 142 10
 2703 0e30 9307F0FF 		li	a5,-1
 2704 0e34 9397F703 		slli	a5,a5,63
 2705 0e38 93871700 		addi	a5,a5,1
 2706 0e3c 6302F724 		beq	a4,a5,.L160
 2707              	.LBE140:
 2708              	.LBE194:
 177:src/riscv.cpp ****         //save sstatus and sepc
 2709              		.loc 1 177 10 is_stmt 1
 2710              	.LBB195:
 2711              	.LBB181:
 2712              	.LBB141:
 177:src/riscv.cpp ****         //save sstatus and sepc
 2713              		.loc 1 177 20 is_stmt 0
 2714 0e40 033784FE 		ld	a4,-24(s0)
 177:src/riscv.cpp ****         //save sstatus and sepc
 2715              		.loc 1 177 10
 2716 0e44 9307F0FF 		li	a5,-1
 2717 0e48 9397F703 		slli	a5,a5,63
 2718 0e4c 93879700 		addi	a5,a5,9
 2719 0e50 6300F72C 		beq	a4,a5,.L161
 2720              	.LBE141:
 2721              	.LBE181:
 2722              	.LBE195:
 213:src/riscv.cpp ****         TCB* old = TCB::running;
 2723              		.loc 1 213 10 is_stmt 1
 2724              	.LBB196:
 2725              	.LBB182:
 2726              	.LBB165:
 2727              	.LBB142:
 213:src/riscv.cpp ****         TCB* old = TCB::running;
 2728              		.loc 1 213 20 is_stmt 0
 2729 0e54 033784FE 		ld	a4,-24(s0)
 213:src/riscv.cpp ****         TCB* old = TCB::running;
 2730              		.loc 1 213 10
 2731 0e58 93072000 		li	a5,2
 2732 0e5c 6308F734 		beq	a4,a5,.L162
 2733              	.LBB143:
 226:src/riscv.cpp ****         ConsoleUtil::printString("scause: ");
 2734              		.loc 1 226 9 is_stmt 1
 226:src/riscv.cpp ****         ConsoleUtil::printString("scause: ");
 2735              		.loc 1 226 33 is_stmt 0
 2736 0e60 17050000 		lla	a0,.LC3
 2736      13050500 
 2737 0e68 97000000 		call	_ZN11ConsoleUtil11printStringEPKc@plt
 2737      E7800000 
 2738              	.LVL220:
 227:src/riscv.cpp ****         uint64  scause = RiscV::r_scause();
 2739              		.loc 1 227 9 is_stmt 1
GAS LISTING /tmp/ccEFbENn.s 			page 74


 227:src/riscv.cpp ****         uint64  scause = RiscV::r_scause();
 2740              		.loc 1 227 33 is_stmt 0
 2741 0e70 17050000 		lla	a0,.LC4
 2741      13050500 
 2742 0e78 97000000 		call	_ZN11ConsoleUtil11printStringEPKc@plt
 2742      E7800000 
 2743              	.LVL221:
 228:src/riscv.cpp ****         ConsoleUtil::printInt(scause);
 2744              		.loc 1 228 9 is_stmt 1
 2745              	.LBB144:
 2746              	.LBB145:
 139:src/../h/riscv.hpp ****     asm("csrr %[scause], scause" : [scause] "=r" (scause));
 2747              		.loc 2 139 5
 140:src/../h/riscv.hpp ****     return scause;
 2748              		.loc 2 140 5
 140:src/../h/riscv.hpp ****     return scause;
 2749              		.loc 2 140 59 is_stmt 0
 2750              	#APP
 2751              	# 140 "src/../h/riscv.hpp" 1
 2752              		csrr a5, scause
 2753              	# 0 "" 2
 2754              	#NO_APP
 2755 0e84 2330F4FE 		sd	a5,-32(s0)
 141:src/../h/riscv.hpp **** }
 2756              		.loc 2 141 5 is_stmt 1
 141:src/../h/riscv.hpp **** }
 2757              		.loc 2 141 12 is_stmt 0
 2758 0e88 033504FE 		ld	a0,-32(s0)
 2759              	.LVL222:
 2760              	.LBE145:
 2761              	.LBE144:
 229:src/riscv.cpp ****         ConsoleUtil::printString("sepc: ");
 2762              		.loc 1 229 9 is_stmt 1
 229:src/riscv.cpp ****         ConsoleUtil::printString("sepc: ");
 2763              		.loc 1 229 30 is_stmt 0
 2764 0e8c 13060000 		li	a2,0
 2765 0e90 9305A000 		li	a1,10
 2766 0e94 1B050500 		sext.w	a0,a0
 2767              	.LVL223:
 2768 0e98 97000000 		call	_ZN11ConsoleUtil8printIntEiii@plt
 2768      E7800000 
 2769              	.LVL224:
 230:src/riscv.cpp ****         uint64 sepc = RiscV::r_sepc();
 2770              		.loc 1 230 9 is_stmt 1
 230:src/riscv.cpp ****         uint64 sepc = RiscV::r_sepc();
 2771              		.loc 1 230 33 is_stmt 0
 2772 0ea0 17050000 		lla	a0,.LC0
 2772      13050500 
 2773 0ea8 97000000 		call	_ZN11ConsoleUtil11printStringEPKc@plt
 2773      E7800000 
 2774              	.LVL225:
 231:src/riscv.cpp ****         ConsoleUtil::printInt(sepc,16);
 2775              		.loc 1 231 9 is_stmt 1
 2776              	.LBB146:
 2777              	.LBB147:
 149:src/../h/riscv.hpp ****     asm("csrr %[sepc], sepc" : [sepc] "=r" (sepc));
 2778              		.loc 2 149 5
GAS LISTING /tmp/ccEFbENn.s 			page 75


 150:src/../h/riscv.hpp ****     return sepc;
 2779              		.loc 2 150 5
 150:src/../h/riscv.hpp ****     return sepc;
 2780              		.loc 2 150 51 is_stmt 0
 2781              	#APP
 2782              	# 150 "src/../h/riscv.hpp" 1
 151:src/../h/riscv.hpp **** }
 2783              		csrr a0, sepc
 2784              	# 0 "" 2
 2785              		.loc 2 151 5 is_stmt 1
 2786              	#NO_APP
 2787              	.LBE147:
 2788              	.LBE146:
 232:src/riscv.cpp ****         ConsoleUtil::printString("\n");
 2789              		.loc 1 232 9
 232:src/riscv.cpp ****         ConsoleUtil::printString("\n");
 2790              		.loc 1 232 30 is_stmt 0
 2791 0eb4 13060000 		li	a2,0
 2792 0eb8 93050001 		li	a1,16
 2793 0ebc 1B050500 		sext.w	a0,a0
 2794 0ec0 97000000 		call	_ZN11ConsoleUtil8printIntEiii@plt
 2794      E7800000 
 2795              	.LVL226:
 233:src/riscv.cpp ****         TCB* old = TCB::running;
 2796              		.loc 1 233 9 is_stmt 1
 233:src/riscv.cpp ****         TCB* old = TCB::running;
 2797              		.loc 1 233 33 is_stmt 0
 2798 0ec8 17050000 		lla	a0,.LC1
 2798      13050500 
 2799 0ed0 97000000 		call	_ZN11ConsoleUtil11printStringEPKc@plt
 2799      E7800000 
 2800              	.LVL227:
 234:src/riscv.cpp ****         old->status = TCB::Status::FINISHED;
 2801              		.loc 1 234 9 is_stmt 1
 234:src/riscv.cpp ****         old->status = TCB::Status::FINISHED;
 2802              		.loc 1 234 14 is_stmt 0
 2803 0ed8 97070000 		la	a5,_ZN3TCB7runningE
 2803      83B70700 
 2804 0ee0 83B70700 		ld	a5,0(a5)
 2805              	.LVL228:
 235:src/riscv.cpp ****         ConsoleUtil::printString("Exiting thread...\n");
 2806              		.loc 1 235 9 is_stmt 1
 235:src/riscv.cpp ****         ConsoleUtil::printString("Exiting thread...\n");
 2807              		.loc 1 235 21 is_stmt 0
 2808 0ee4 13072000 		li	a4,2
 2809 0ee8 23A8E700 		sw	a4,16(a5)
 236:src/riscv.cpp ****         TCB::dispatch();
 2810              		.loc 1 236 9 is_stmt 1
 236:src/riscv.cpp ****         TCB::dispatch();
 2811              		.loc 1 236 33 is_stmt 0
 2812 0eec 17050000 		lla	a0,.LC5
 2812      13050500 
 2813 0ef4 97000000 		call	_ZN11ConsoleUtil11printStringEPKc@plt
 2813      E7800000 
 2814              	.LVL229:
 237:src/riscv.cpp ****     }
 2815              		.loc 1 237 9 is_stmt 1
GAS LISTING /tmp/ccEFbENn.s 			page 76


 237:src/riscv.cpp ****     }
 2816              		.loc 1 237 22 is_stmt 0
 2817 0efc 97000000 		call	_ZN3TCB8dispatchEv@plt
 2817      E7800000 
 2818              	.LVL230:
 2819 0f04 6F000008 		j	.L153
 2820              	.L130:
 2821              	.LBE143:
 2822              	.LBE142:
 2823              	.LBE165:
 2824              	.LBE182:
 2825              	.LBB183:
 100:src/riscv.cpp ****         uint64 volatile sepc = RiscV::r_sepc()+4;
 2826              		.loc 1 100 9 is_stmt 1
 2827              	.LBB184:
 2828              	.LBB185:
 169:src/../h/riscv.hpp ****     asm("csrr %[sstatus], sstatus" : [sstatus] "=r" (sstatus));
 2829              		.loc 2 169 5
 170:src/../h/riscv.hpp ****     return sstatus;
 2830              		.loc 2 170 5
 170:src/../h/riscv.hpp ****     return sstatus;
 2831              		.loc 2 170 63 is_stmt 0
 2832              	#APP
 2833              	# 170 "src/../h/riscv.hpp" 1
 2834              		csrr a5, sstatus
 2835              	# 0 "" 2
 2836              	.LVL231:
 171:src/../h/riscv.hpp **** }
 2837              		.loc 2 171 5 is_stmt 1
 2838              	#NO_APP
 2839              	.LBE185:
 2840              	.LBE184:
 100:src/riscv.cpp ****         uint64 volatile sepc = RiscV::r_sepc()+4;
 2841              		.loc 1 100 52 is_stmt 0
 2842 0f0c 2334F4FA 		sd	a5,-88(s0)
 101:src/riscv.cpp ****         TCB::running->sepc = sepc;
 2843              		.loc 1 101 9 is_stmt 1
 2844              	.LBB186:
 2845              	.LBB187:
 149:src/../h/riscv.hpp ****     asm("csrr %[sepc], sepc" : [sepc] "=r" (sepc));
 2846              		.loc 2 149 5
 150:src/../h/riscv.hpp ****     return sepc;
 2847              		.loc 2 150 5
 150:src/../h/riscv.hpp ****     return sepc;
 2848              		.loc 2 150 51 is_stmt 0
 2849              	#APP
 2850              	# 150 "src/../h/riscv.hpp" 1
 2851              		csrr a5, sepc
 2852              	# 0 "" 2
 2853              	.LVL232:
 151:src/../h/riscv.hpp **** }
 2854              		.loc 2 151 5 is_stmt 1
 2855              	#NO_APP
 2856              	.LBE187:
 2857              	.LBE186:
 101:src/riscv.cpp ****         TCB::running->sepc = sepc;
 2858              		.loc 1 101 47 is_stmt 0
GAS LISTING /tmp/ccEFbENn.s 			page 77


 2859 0f14 93874700 		addi	a5,a5,4
 101:src/riscv.cpp ****         TCB::running->sepc = sepc;
 2860              		.loc 1 101 48
 2861 0f18 2338F4FA 		sd	a5,-80(s0)
 102:src/riscv.cpp ****         TCB::running->sstatus = sstatus;
 2862              		.loc 1 102 9 is_stmt 1
 102:src/riscv.cpp ****         TCB::running->sstatus = sstatus;
 2863              		.loc 1 102 23 is_stmt 0
 2864 0f1c 97070000 		la	a5,_ZN3TCB7runningE
 2864      83B70700 
 2865 0f24 83B70700 		ld	a5,0(a5)
 102:src/riscv.cpp ****         TCB::running->sstatus = sstatus;
 2866              		.loc 1 102 28
 2867 0f28 033704FB 		ld	a4,-80(s0)
 2868 0f2c 23BCE702 		sd	a4,56(a5)
 103:src/riscv.cpp **** 
 2869              		.loc 1 103 9 is_stmt 1
 103:src/riscv.cpp **** 
 2870              		.loc 1 103 31 is_stmt 0
 2871 0f30 033784FA 		ld	a4,-88(s0)
 2872 0f34 23B0E704 		sd	a4,64(a5)
 106:src/riscv.cpp ****         asm("mv %[syscallID], a0" : [syscallID] "=r" (syscallID));
 2873              		.loc 1 106 9 is_stmt 1
 107:src/riscv.cpp **** 
 2874              		.loc 1 107 9
 107:src/riscv.cpp **** 
 2875              		.loc 1 107 66 is_stmt 0
 2876              	#APP
 2877              	# 107 "src/riscv.cpp" 1
 2878              		mv a5, a0
 2879              	# 0 "" 2
 2880              	.LVL233:
 109:src/riscv.cpp ****             case 0x01 : executeMemAllocSyscall();break;
 2881              		.loc 1 109 9 is_stmt 1
 2882              	#NO_APP
 2883 0f3c 13071006 		li	a4,97
 2884 0f40 6364F702 		bgtu	a5,a4,.L133
 2885 0f44 93972700 		slli	a5,a5,2
 2886              	.LVL234:
 2887 0f48 17070000 		lla	a4,.L135
 2887      13070700 
 2888 0f50 B387E700 		add	a5,a5,a4
 2889 0f54 83A70700 		lw	a5,0(a5)
 2890 0f58 B387E700 		add	a5,a5,a4
 2891 0f5c 67800700 		jr	a5
 2892              		.section	.rodata
 2893              		.align	2
 2894              		.align	2
 2895              	.L135:
 2896 0000 00000000 		.word	.L133-.L135
 2897 0004 00000000 		.word	.L152-.L135
 2898 0008 00000000 		.word	.L151-.L135
 2899 000c 00000000 		.word	.L133-.L135
 2900 0010 00000000 		.word	.L133-.L135
 2901 0014 00000000 		.word	.L133-.L135
 2902 0018 00000000 		.word	.L133-.L135
 2903 001c 00000000 		.word	.L133-.L135
GAS LISTING /tmp/ccEFbENn.s 			page 78


 2904 0020 00000000 		.word	.L133-.L135
 2905 0024 00000000 		.word	.L133-.L135
 2906 0028 00000000 		.word	.L133-.L135
 2907 002c 00000000 		.word	.L133-.L135
 2908 0030 00000000 		.word	.L133-.L135
 2909 0034 00000000 		.word	.L133-.L135
 2910 0038 00000000 		.word	.L133-.L135
 2911 003c 00000000 		.word	.L133-.L135
 2912 0040 00000000 		.word	.L133-.L135
 2913 0044 00000000 		.word	.L150-.L135
 2914 0048 00000000 		.word	.L149-.L135
 2915 004c 00000000 		.word	.L148-.L135
 2916 0050 00000000 		.word	.L147-.L135
 2917 0054 00000000 		.word	.L146-.L135
 2918 0058 00000000 		.word	.L133-.L135
 2919 005c 00000000 		.word	.L133-.L135
 2920 0060 00000000 		.word	.L133-.L135
 2921 0064 00000000 		.word	.L133-.L135
 2922 0068 00000000 		.word	.L133-.L135
 2923 006c 00000000 		.word	.L133-.L135
 2924 0070 00000000 		.word	.L133-.L135
 2925 0074 00000000 		.word	.L133-.L135
 2926 0078 00000000 		.word	.L133-.L135
 2927 007c 00000000 		.word	.L133-.L135
 2928 0080 00000000 		.word	.L133-.L135
 2929 0084 00000000 		.word	.L145-.L135
 2930 0088 00000000 		.word	.L144-.L135
 2931 008c 00000000 		.word	.L143-.L135
 2932 0090 00000000 		.word	.L142-.L135
 2933 0094 00000000 		.word	.L133-.L135
 2934 0098 00000000 		.word	.L133-.L135
 2935 009c 00000000 		.word	.L133-.L135
 2936 00a0 00000000 		.word	.L133-.L135
 2937 00a4 00000000 		.word	.L133-.L135
 2938 00a8 00000000 		.word	.L133-.L135
 2939 00ac 00000000 		.word	.L133-.L135
 2940 00b0 00000000 		.word	.L133-.L135
 2941 00b4 00000000 		.word	.L133-.L135
 2942 00b8 00000000 		.word	.L133-.L135
 2943 00bc 00000000 		.word	.L133-.L135
 2944 00c0 00000000 		.word	.L133-.L135
 2945 00c4 00000000 		.word	.L141-.L135
 2946 00c8 00000000 		.word	.L133-.L135
 2947 00cc 00000000 		.word	.L133-.L135
 2948 00d0 00000000 		.word	.L133-.L135
 2949 00d4 00000000 		.word	.L133-.L135
 2950 00d8 00000000 		.word	.L133-.L135
 2951 00dc 00000000 		.word	.L133-.L135
 2952 00e0 00000000 		.word	.L133-.L135
 2953 00e4 00000000 		.word	.L133-.L135
 2954 00e8 00000000 		.word	.L133-.L135
 2955 00ec 00000000 		.word	.L133-.L135
 2956 00f0 00000000 		.word	.L133-.L135
 2957 00f4 00000000 		.word	.L133-.L135
 2958 00f8 00000000 		.word	.L133-.L135
 2959 00fc 00000000 		.word	.L133-.L135
 2960 0100 00000000 		.word	.L133-.L135
GAS LISTING /tmp/ccEFbENn.s 			page 79


 2961 0104 00000000 		.word	.L140-.L135
 2962 0108 00000000 		.word	.L139-.L135
 2963 010c 00000000 		.word	.L138-.L135
 2964 0110 00000000 		.word	.L133-.L135
 2965 0114 00000000 		.word	.L133-.L135
 2966 0118 00000000 		.word	.L133-.L135
 2967 011c 00000000 		.word	.L133-.L135
 2968 0120 00000000 		.word	.L133-.L135
 2969 0124 00000000 		.word	.L133-.L135
 2970 0128 00000000 		.word	.L133-.L135
 2971 012c 00000000 		.word	.L133-.L135
 2972 0130 00000000 		.word	.L133-.L135
 2973 0134 00000000 		.word	.L133-.L135
 2974 0138 00000000 		.word	.L133-.L135
 2975 013c 00000000 		.word	.L133-.L135
 2976 0140 00000000 		.word	.L133-.L135
 2977 0144 00000000 		.word	.L137-.L135
 2978 0148 00000000 		.word	.L136-.L135
 2979 014c 00000000 		.word	.L133-.L135
 2980 0150 00000000 		.word	.L133-.L135
 2981 0154 00000000 		.word	.L133-.L135
 2982 0158 00000000 		.word	.L133-.L135
 2983 015c 00000000 		.word	.L133-.L135
 2984 0160 00000000 		.word	.L133-.L135
 2985 0164 00000000 		.word	.L133-.L135
 2986 0168 00000000 		.word	.L133-.L135
 2987 016c 00000000 		.word	.L133-.L135
 2988 0170 00000000 		.word	.L133-.L135
 2989 0174 00000000 		.word	.L133-.L135
 2990 0178 00000000 		.word	.L133-.L135
 2991 017c 00000000 		.word	.L133-.L135
 2992 0180 00000000 		.word	.L133-.L135
 2993 0184 00000000 		.word	.L134-.L135
 2994              		.text
 2995              	.L152:
 110:src/riscv.cpp ****             case 0x02 : executeMemFreeSyscall();break;
 2996              		.loc 1 110 13
 110:src/riscv.cpp ****             case 0x02 : executeMemFreeSyscall();break;
 2997              		.loc 1 110 25
 110:src/riscv.cpp ****             case 0x02 : executeMemFreeSyscall();break;
 2998              		.loc 1 110 47 is_stmt 0
 2999 0f60 97000000 		call	_ZN5RiscV22executeMemAllocSyscallEv
 2999      E7800000 
 3000              	.LVL235:
 110:src/riscv.cpp ****             case 0x02 : executeMemFreeSyscall();break;
 3001              		.loc 1 110 50 is_stmt 1
 3002              	.L133:
 137:src/riscv.cpp ****         RiscV::w_sepc(TCB::running->sepc);
 3003              		.loc 1 137 9
 137:src/riscv.cpp ****         RiscV::w_sepc(TCB::running->sepc);
 3004              		.loc 1 137 25 is_stmt 0
 3005 0f68 97070000 		la	a5,_ZN3TCB7runningE
 3005      83B70700 
 3006 0f70 83B70700 		ld	a5,0(a5)
 3007 0f74 03B70704 		ld	a4,64(a5)
 3008              	.LVL236:
 3009              	.LBB188:
GAS LISTING /tmp/ccEFbENn.s 			page 80


 3010              	.LBB189:
 165:src/../h/riscv.hpp **** }
 3011              		.loc 2 165 5 is_stmt 1
 165:src/../h/riscv.hpp **** }
 3012              		.loc 2 165 64 is_stmt 0
 3013              	#APP
 3014              	# 165 "src/../h/riscv.hpp" 1
 3015              		csrw sstatus, a4
 3016              	# 0 "" 2
 3017              	.LVL237:
 3018              	#NO_APP
 3019              	.LBE189:
 3020              	.LBE188:
 138:src/riscv.cpp ****     }
 3021              		.loc 1 138 9 is_stmt 1
 138:src/riscv.cpp ****     }
 3022              		.loc 1 138 22 is_stmt 0
 3023 0f7c 83B78703 		ld	a5,56(a5)
 3024              	.LVL238:
 3025              	.LBB190:
 3026              	.LBB191:
 155:src/../h/riscv.hpp **** }
 3027              		.loc 2 155 5 is_stmt 1
 155:src/../h/riscv.hpp **** }
 3028              		.loc 2 155 52 is_stmt 0
 3029              	#APP
 3030              	# 155 "src/../h/riscv.hpp" 1
 3031              		csrw sepc, a5
 3032              	# 0 "" 2
 3033              	.LVL239:
 3034              	#NO_APP
 3035              	.L153:
 3036              	.LBE191:
 3037              	.LBE190:
 3038              	.LBE183:
 3039              	.LBE196:
 240:src/riscv.cpp **** }
 3040              		.loc 1 240 5 is_stmt 1
 240:src/riscv.cpp **** }
 3041              		.loc 1 240 41 is_stmt 0
 3042 0f84 97000000 		call	_ZN5RiscV29jumpToDesignatedPrivilegeModeEv
 3042      E7800000 
 3043              	.LVL240:
 241:src/riscv.cpp **** 
 3044              		.loc 1 241 1
 3045 0f8c 83308105 		ld	ra,88(sp)
 3046              		.cfi_remember_state
 3047              		.cfi_restore 1
 3048 0f90 03340105 		ld	s0,80(sp)
 3049              		.cfi_restore 8
 3050              		.cfi_def_cfa 2, 96
 3051 0f94 13010106 		addi	sp,sp,96
 3052              		.cfi_def_cfa_offset 0
 3053 0f98 67800000 		jr	ra
 3054              	.L151:
 3055              		.cfi_restore_state
 3056              	.LBB197:
GAS LISTING /tmp/ccEFbENn.s 			page 81


 3057              	.LBB192:
 111:src/riscv.cpp ****             case 0x11 : executeThreadCreateSyscall();break;
 3058              		.loc 1 111 13 is_stmt 1
 111:src/riscv.cpp ****             case 0x11 : executeThreadCreateSyscall();break;
 3059              		.loc 1 111 25
 111:src/riscv.cpp ****             case 0x11 : executeThreadCreateSyscall();break;
 3060              		.loc 1 111 46 is_stmt 0
 3061 0f9c 97000000 		call	_ZN5RiscV21executeMemFreeSyscallEv
 3061      E7800000 
 3062              	.LVL241:
 111:src/riscv.cpp ****             case 0x11 : executeThreadCreateSyscall();break;
 3063              		.loc 1 111 49 is_stmt 1
 3064 0fa4 6FF05FFC 		j	.L133
 3065              	.L150:
 112:src/riscv.cpp ****             case 0x12 : executeThreadExitSyscall();break;
 3066              		.loc 1 112 13
 112:src/riscv.cpp ****             case 0x12 : executeThreadExitSyscall();break;
 3067              		.loc 1 112 25
 112:src/riscv.cpp ****             case 0x12 : executeThreadExitSyscall();break;
 3068              		.loc 1 112 51 is_stmt 0
 3069 0fa8 97000000 		call	_ZN5RiscV26executeThreadCreateSyscallEv
 3069      E7800000 
 3070              	.LVL242:
 112:src/riscv.cpp ****             case 0x12 : executeThreadExitSyscall();break;
 3071              		.loc 1 112 54 is_stmt 1
 3072 0fb0 6FF09FFB 		j	.L133
 3073              	.L149:
 113:src/riscv.cpp ****             case 0x13 : executeThreadDispatchSyscall();break;
 3074              		.loc 1 113 13
 113:src/riscv.cpp ****             case 0x13 : executeThreadDispatchSyscall();break;
 3075              		.loc 1 113 25
 113:src/riscv.cpp ****             case 0x13 : executeThreadDispatchSyscall();break;
 3076              		.loc 1 113 49 is_stmt 0
 3077 0fb4 97000000 		call	_ZN5RiscV24executeThreadExitSyscallEv
 3077      E7800000 
 3078              	.LVL243:
 113:src/riscv.cpp ****             case 0x13 : executeThreadDispatchSyscall();break;
 3079              		.loc 1 113 52 is_stmt 1
 3080 0fbc 6FF0DFFA 		j	.L133
 3081              	.L148:
 114:src/riscv.cpp ****             case 0x14 : executeThreadAttachBodySyscall();break;
 3082              		.loc 1 114 13
 114:src/riscv.cpp ****             case 0x14 : executeThreadAttachBodySyscall();break;
 3083              		.loc 1 114 25
 114:src/riscv.cpp ****             case 0x14 : executeThreadAttachBodySyscall();break;
 3084              		.loc 1 114 53 is_stmt 0
 3085 0fc0 97000000 		call	_ZN5RiscV28executeThreadDispatchSyscallEv
 3085      E7800000 
 3086              	.LVL244:
 114:src/riscv.cpp ****             case 0x14 : executeThreadAttachBodySyscall();break;
 3087              		.loc 1 114 56 is_stmt 1
 3088 0fc8 6FF01FFA 		j	.L133
 3089              	.L147:
 115:src/riscv.cpp ****             case 0x15 : executeThreadStartSyscall();break;
 3090              		.loc 1 115 13
 115:src/riscv.cpp ****             case 0x15 : executeThreadStartSyscall();break;
 3091              		.loc 1 115 25
GAS LISTING /tmp/ccEFbENn.s 			page 82


 115:src/riscv.cpp ****             case 0x15 : executeThreadStartSyscall();break;
 3092              		.loc 1 115 55 is_stmt 0
 3093 0fcc 97000000 		call	_ZN5RiscV30executeThreadAttachBodySyscallEv
 3093      E7800000 
 3094              	.LVL245:
 115:src/riscv.cpp ****             case 0x15 : executeThreadStartSyscall();break;
 3095              		.loc 1 115 58 is_stmt 1
 3096 0fd4 6FF05FF9 		j	.L133
 3097              	.L146:
 116:src/riscv.cpp ****             case 0x21 : executeSemOpenSyscall();break;
 3098              		.loc 1 116 13
 116:src/riscv.cpp ****             case 0x21 : executeSemOpenSyscall();break;
 3099              		.loc 1 116 25
 116:src/riscv.cpp ****             case 0x21 : executeSemOpenSyscall();break;
 3100              		.loc 1 116 50 is_stmt 0
 3101 0fd8 97000000 		call	_ZN5RiscV25executeThreadStartSyscallEv
 3101      E7800000 
 3102              	.LVL246:
 116:src/riscv.cpp ****             case 0x21 : executeSemOpenSyscall();break;
 3103              		.loc 1 116 53 is_stmt 1
 3104 0fe0 6FF09FF8 		j	.L133
 3105              	.L145:
 117:src/riscv.cpp ****             case 0x22 : executeSemCloseSyscall();break;
 3106              		.loc 1 117 13
 117:src/riscv.cpp ****             case 0x22 : executeSemCloseSyscall();break;
 3107              		.loc 1 117 25
 117:src/riscv.cpp ****             case 0x22 : executeSemCloseSyscall();break;
 3108              		.loc 1 117 46 is_stmt 0
 3109 0fe4 97000000 		call	_ZN5RiscV21executeSemOpenSyscallEv
 3109      E7800000 
 3110              	.LVL247:
 117:src/riscv.cpp ****             case 0x22 : executeSemCloseSyscall();break;
 3111              		.loc 1 117 49 is_stmt 1
 3112 0fec 6FF0DFF7 		j	.L133
 3113              	.L144:
 118:src/riscv.cpp ****             case 0x23 : executeSemWaitSyscall();break;
 3114              		.loc 1 118 13
 118:src/riscv.cpp ****             case 0x23 : executeSemWaitSyscall();break;
 3115              		.loc 1 118 25
 118:src/riscv.cpp ****             case 0x23 : executeSemWaitSyscall();break;
 3116              		.loc 1 118 47 is_stmt 0
 3117 0ff0 97000000 		call	_ZN5RiscV22executeSemCloseSyscallEv
 3117      E7800000 
 3118              	.LVL248:
 118:src/riscv.cpp ****             case 0x23 : executeSemWaitSyscall();break;
 3119              		.loc 1 118 50 is_stmt 1
 3120 0ff8 6FF01FF7 		j	.L133
 3121              	.L143:
 119:src/riscv.cpp ****             case 0x24 : executeSemSignalSyscall();break;
 3122              		.loc 1 119 13
 119:src/riscv.cpp ****             case 0x24 : executeSemSignalSyscall();break;
 3123              		.loc 1 119 25
 119:src/riscv.cpp ****             case 0x24 : executeSemSignalSyscall();break;
 3124              		.loc 1 119 46 is_stmt 0
 3125 0ffc 97000000 		call	_ZN5RiscV21executeSemWaitSyscallEv
 3125      E7800000 
 3126              	.LVL249:
GAS LISTING /tmp/ccEFbENn.s 			page 83


 119:src/riscv.cpp ****             case 0x24 : executeSemSignalSyscall();break;
 3127              		.loc 1 119 49 is_stmt 1
 3128 1004 6FF05FF6 		j	.L133
 3129              	.L142:
 120:src/riscv.cpp ****             case 0x31 : executeTimeSleepSyscall();break;
 3130              		.loc 1 120 13
 120:src/riscv.cpp ****             case 0x31 : executeTimeSleepSyscall();break;
 3131              		.loc 1 120 25
 120:src/riscv.cpp ****             case 0x31 : executeTimeSleepSyscall();break;
 3132              		.loc 1 120 48 is_stmt 0
 3133 1008 97000000 		call	_ZN5RiscV23executeSemSignalSyscallEv
 3133      E7800000 
 3134              	.LVL250:
 120:src/riscv.cpp ****             case 0x31 : executeTimeSleepSyscall();break;
 3135              		.loc 1 120 51 is_stmt 1
 3136 1010 6FF09FF5 		j	.L133
 3137              	.L141:
 121:src/riscv.cpp ****             case 0x41 : executeGetcSyscall();break;
 3138              		.loc 1 121 13
 121:src/riscv.cpp ****             case 0x41 : executeGetcSyscall();break;
 3139              		.loc 1 121 25
 121:src/riscv.cpp ****             case 0x41 : executeGetcSyscall();break;
 3140              		.loc 1 121 48 is_stmt 0
 3141 1014 97000000 		call	_ZN5RiscV23executeTimeSleepSyscallEv
 3141      E7800000 
 3142              	.LVL251:
 121:src/riscv.cpp ****             case 0x41 : executeGetcSyscall();break;
 3143              		.loc 1 121 51 is_stmt 1
 3144 101c 6FF0DFF4 		j	.L133
 3145              	.L140:
 122:src/riscv.cpp ****             case 0x42 : executePutcSyscall();break;
 3146              		.loc 1 122 13
 122:src/riscv.cpp ****             case 0x42 : executePutcSyscall();break;
 3147              		.loc 1 122 25
 122:src/riscv.cpp ****             case 0x42 : executePutcSyscall();break;
 3148              		.loc 1 122 43 is_stmt 0
 3149 1020 97000000 		call	_ZN5RiscV18executeGetcSyscallEv
 3149      E7800000 
 3150              	.LVL252:
 122:src/riscv.cpp ****             case 0x42 : executePutcSyscall();break;
 3151              		.loc 1 122 46 is_stmt 1
 3152 1028 6FF01FF4 		j	.L133
 3153              	.L139:
 123:src/riscv.cpp ****             case 0x43 : executePutcUtilSyscall();break;
 3154              		.loc 1 123 13
 123:src/riscv.cpp ****             case 0x43 : executePutcUtilSyscall();break;
 3155              		.loc 1 123 25
 123:src/riscv.cpp ****             case 0x43 : executePutcUtilSyscall();break;
 3156              		.loc 1 123 43 is_stmt 0
 3157 102c 97000000 		call	_ZN5RiscV18executePutcSyscallEv
 3157      E7800000 
 3158              	.LVL253:
 123:src/riscv.cpp ****             case 0x43 : executePutcUtilSyscall();break;
 3159              		.loc 1 123 46 is_stmt 1
 3160 1034 6FF05FF3 		j	.L133
 3161              	.L138:
 124:src/riscv.cpp ****             case 0x51 : executeThreadFreeSyscall();break;
GAS LISTING /tmp/ccEFbENn.s 			page 84


 3162              		.loc 1 124 13
 124:src/riscv.cpp ****             case 0x51 : executeThreadFreeSyscall();break;
 3163              		.loc 1 124 25
 124:src/riscv.cpp ****             case 0x51 : executeThreadFreeSyscall();break;
 3164              		.loc 1 124 47 is_stmt 0
 3165 1038 97000000 		call	_ZN5RiscV22executePutcUtilSyscallEv
 3165      E7800000 
 3166              	.LVL254:
 124:src/riscv.cpp ****             case 0x51 : executeThreadFreeSyscall();break;
 3167              		.loc 1 124 50 is_stmt 1
 3168 1040 6FF09FF2 		j	.L133
 3169              	.L137:
 125:src/riscv.cpp ****             case 0x52 : executeSemaphoreFreeSyscall();break;
 3170              		.loc 1 125 13
 125:src/riscv.cpp ****             case 0x52 : executeSemaphoreFreeSyscall();break;
 3171              		.loc 1 125 25
 125:src/riscv.cpp ****             case 0x52 : executeSemaphoreFreeSyscall();break;
 3172              		.loc 1 125 49 is_stmt 0
 3173 1044 97000000 		call	_ZN5RiscV24executeThreadFreeSyscallEv
 3173      E7800000 
 3174              	.LVL255:
 125:src/riscv.cpp ****             case 0x52 : executeSemaphoreFreeSyscall();break;
 3175              		.loc 1 125 52 is_stmt 1
 3176 104c 6FF0DFF1 		j	.L133
 3177              	.L136:
 126:src/riscv.cpp ****             //in this case we need to save SP and PC at this point so that newly created thread
 3178              		.loc 1 126 13
 126:src/riscv.cpp ****             //in this case we need to save SP and PC at this point so that newly created thread
 3179              		.loc 1 126 25
 126:src/riscv.cpp ****             //in this case we need to save SP and PC at this point so that newly created thread
 3180              		.loc 1 126 52 is_stmt 0
 3181 1050 97000000 		call	_ZN5RiscV27executeSemaphoreFreeSyscallEv
 3181      E7800000 
 3182              	.LVL256:
 126:src/riscv.cpp ****             //in this case we need to save SP and PC at this point so that newly created thread
 3183              		.loc 1 126 55 is_stmt 1
 3184 1058 6FF01FF1 		j	.L133
 3185              	.L134:
 130:src/riscv.cpp ****                         RiscV::getPC();
 3186              		.loc 1 130 13
 130:src/riscv.cpp ****                         RiscV::getPC();
 3187              		.loc 1 130 25
 130:src/riscv.cpp ****                         RiscV::getPC();
 3188              		.loc 1 130 72 is_stmt 0
 3189              	#APP
 3190              	# 130 "src/riscv.cpp" 1
 3191              		mv a5, sp
 3192              	# 0 "" 2
 3193              	#NO_APP
 3194 1060 17070000 		la	a4,_ZN3TCB9currentSPE
 3194      03370700 
 3195 1068 2330F700 		sd	a5,0(a4)
 131:src/riscv.cpp ****                         executeForkSyscall();
 3196              		.loc 1 131 25 is_stmt 1
 131:src/riscv.cpp ****                         executeForkSyscall();
 3197              		.loc 1 131 37 is_stmt 0
 3198 106c 97000000 		call	_ZN5RiscV5getPCEv
GAS LISTING /tmp/ccEFbENn.s 			page 85


 3198      E7800000 
 3199              	.LVL257:
 132:src/riscv.cpp ****                         break;
 3200              		.loc 1 132 25 is_stmt 1
 132:src/riscv.cpp ****                         break;
 3201              		.loc 1 132 43 is_stmt 0
 3202 1074 97000000 		call	_ZN5RiscV18executeForkSyscallEv
 3202      E7800000 
 3203              	.LVL258:
 133:src/riscv.cpp ****         }
 3204              		.loc 1 133 25 is_stmt 1
 3205 107c 6FF0DFEE 		j	.L133
 3206              	.L160:
 3207              	.LBE192:
 3208              	.LBB193:
 3209              	.LBB166:
 146:src/riscv.cpp ****         uint64 volatile sepc = RiscV::r_sepc();
 3210              		.loc 1 146 9
 3211              	.LBB167:
 3212              	.LBB168:
 169:src/../h/riscv.hpp ****     asm("csrr %[sstatus], sstatus" : [sstatus] "=r" (sstatus));
 3213              		.loc 2 169 5
 170:src/../h/riscv.hpp ****     return sstatus;
 3214              		.loc 2 170 5
 170:src/../h/riscv.hpp ****     return sstatus;
 3215              		.loc 2 170 63 is_stmt 0
 3216              	#APP
 3217              	# 170 "src/../h/riscv.hpp" 1
 3218              		csrr a5, sstatus
 3219              	# 0 "" 2
 3220              	.LVL259:
 171:src/../h/riscv.hpp **** }
 3221              		.loc 2 171 5 is_stmt 1
 3222              	#NO_APP
 3223              	.LBE168:
 3224              	.LBE167:
 146:src/riscv.cpp ****         uint64 volatile sepc = RiscV::r_sepc();
 3225              		.loc 1 146 52 is_stmt 0
 3226 1084 233CF4FA 		sd	a5,-72(s0)
 147:src/riscv.cpp **** 
 3227              		.loc 1 147 9 is_stmt 1
 3228              	.LBB169:
 3229              	.LBB170:
 149:src/../h/riscv.hpp ****     asm("csrr %[sepc], sepc" : [sepc] "=r" (sepc));
 3230              		.loc 2 149 5
 150:src/../h/riscv.hpp ****     return sepc;
 3231              		.loc 2 150 5
 150:src/../h/riscv.hpp ****     return sepc;
 3232              		.loc 2 150 51 is_stmt 0
 3233              	#APP
 3234              	# 150 "src/../h/riscv.hpp" 1
 3235              		csrr a5, sepc
 3236              	# 0 "" 2
 3237              	.LVL260:
 151:src/../h/riscv.hpp **** }
 3238              		.loc 2 151 5 is_stmt 1
 3239              	#NO_APP
GAS LISTING /tmp/ccEFbENn.s 			page 86


 3240              	.LBE170:
 3241              	.LBE169:
 147:src/riscv.cpp **** 
 3242              		.loc 1 147 46 is_stmt 0
 3243 108c 2330F4FC 		sd	a5,-64(s0)
 150:src/riscv.cpp **** 
 3244              		.loc 1 150 9 is_stmt 1
 3245              	.LVL261:
 3246              	.LBB171:
 3247              	.LBB172:
 191:src/../h/riscv.hpp **** }
 3248              		.loc 2 191 5
 191:src/../h/riscv.hpp **** }
 3249              		.loc 2 191 51 is_stmt 0
 3250 1090 93072000 		li	a5,2
 3251              	#APP
 3252              	# 191 "src/../h/riscv.hpp" 1
 3253              		csrc sip, a5
 3254              	# 0 "" 2
 3255              	.LVL262:
 3256              	#NO_APP
 3257              	.LBE172:
 3258              	.LBE171:
 154:src/riscv.cpp ****         Scheduler::awake();
 3259              		.loc 1 154 9 is_stmt 1
 154:src/riscv.cpp ****         Scheduler::awake();
 3260              		.loc 1 154 20 is_stmt 0
 3261 1098 17070000 		lla	a4,.LANCHOR0
 3261      13070700 
 3262 10a0 83378701 		ld	a5,24(a4)
 3263 10a4 93871700 		addi	a5,a5,1
 3264 10a8 233CF700 		sd	a5,24(a4)
 155:src/riscv.cpp **** 
 3265              		.loc 1 155 9 is_stmt 1
 155:src/riscv.cpp **** 
 3266              		.loc 1 155 25 is_stmt 0
 3267 10ac 97000000 		call	_ZN9Scheduler5awakeEv@plt
 3267      E7800000 
 3268              	.LVL263:
 159:src/riscv.cpp ****         if(TCB::timeSliceCounter >= TCB::running->timeSlice) {
 3269              		.loc 1 159 9 is_stmt 1
 159:src/riscv.cpp ****         if(TCB::timeSliceCounter >= TCB::running->timeSlice) {
 3270              		.loc 1 159 30 is_stmt 0
 3271 10b4 17070000 		la	a4,_ZN3TCB16timeSliceCounterE
 3271      03370700 
 3272 10bc 83370700 		ld	a5,0(a4)
 3273 10c0 93871700 		addi	a5,a5,1
 3274 10c4 2330F700 		sd	a5,0(a4)
 160:src/riscv.cpp **** 
 3275              		.loc 1 160 9 is_stmt 1
 3276              	.LBB173:
 160:src/riscv.cpp **** 
 3277              		.loc 1 160 51 is_stmt 0
 3278 10c8 17070000 		la	a4,_ZN3TCB7runningE
 3278      03370700 
 3279 10d0 03370700 		ld	a4,0(a4)
 3280 10d4 83360703 		ld	a3,48(a4)
GAS LISTING /tmp/ccEFbENn.s 			page 87


 160:src/riscv.cpp **** 
 3281              		.loc 1 160 9
 3282 10d8 63FCD700 		bgeu	a5,a3,.L163
 3283              	.L154:
 3284              	.LBE173:
 172:src/riscv.cpp ****         RiscV::w_sepc(sepc);
 3285              		.loc 1 172 9 is_stmt 1
 172:src/riscv.cpp ****         RiscV::w_sepc(sepc);
 3286              		.loc 1 172 25 is_stmt 0
 3287 10dc 833784FB 		ld	a5,-72(s0)
 3288              	.LVL264:
 3289              	.LBB175:
 3290              	.LBB176:
 165:src/../h/riscv.hpp **** }
 3291              		.loc 2 165 5 is_stmt 1
 165:src/../h/riscv.hpp **** }
 3292              		.loc 2 165 64 is_stmt 0
 3293              	#APP
 3294              	# 165 "src/../h/riscv.hpp" 1
 3295              		csrw sstatus, a5
 3296              	# 0 "" 2
 3297              	.LVL265:
 3298              	#NO_APP
 3299              	.LBE176:
 3300              	.LBE175:
 173:src/riscv.cpp ****     }
 3301              		.loc 1 173 9 is_stmt 1
 173:src/riscv.cpp ****     }
 3302              		.loc 1 173 22 is_stmt 0
 3303 10e4 833704FC 		ld	a5,-64(s0)
 3304              	.LVL266:
 3305              	.LBB177:
 3306              	.LBB178:
 155:src/../h/riscv.hpp **** }
 3307              		.loc 2 155 5 is_stmt 1
 155:src/../h/riscv.hpp **** }
 3308              		.loc 2 155 52 is_stmt 0
 3309              	#APP
 3310              	# 155 "src/../h/riscv.hpp" 1
 156:src/../h/riscv.hpp **** 
 3311              		csrw sepc, a5
 3312              	# 0 "" 2
 3313              		.loc 2 156 1
 3314              	#NO_APP
 3315 10ec 6FF09FE9 		j	.L153
 3316              	.LVL267:
 3317              	.L163:
 3318              	.LBE178:
 3319              	.LBE177:
 3320              	.LBB179:
 3321              	.LBB174:
 162:src/riscv.cpp **** 
 3322              		.loc 1 162 13 is_stmt 1
 162:src/riscv.cpp **** 
 3323              		.loc 1 162 35 is_stmt 0
 3324 10f0 97070000 		la	a5,_ZN3TCB16timeSliceCounterE
 3324      83B70700 
GAS LISTING /tmp/ccEFbENn.s 			page 88


 3325 10f8 23B00700 		sd	zero,0(a5)
 164:src/riscv.cpp **** 
 3326              		.loc 1 164 13 is_stmt 1
 3327              	.LVL268:
 166:src/riscv.cpp **** 
 3328              		.loc 1 166 13
 166:src/riscv.cpp **** 
 3329              		.loc 1 166 25 is_stmt 0
 3330 10fc 93071000 		li	a5,1
 3331 1100 2328F700 		sw	a5,16(a4)
 168:src/riscv.cpp ****         }
 3332              		.loc 1 168 13 is_stmt 1
 168:src/riscv.cpp ****         }
 3333              		.loc 1 168 26 is_stmt 0
 3334 1104 97000000 		call	_ZN3TCB8dispatchEv@plt
 3334      E7800000 
 3335              	.LVL269:
 3336              	.LBE174:
 3337 110c 6FF01FFD 		j	.L154
 3338              	.L161:
 3339              	.LBE179:
 3340              	.LBE166:
 3341              	.LBB180:
 3342              	.LBB151:
 180:src/riscv.cpp ****         uint64 volatile sepc = RiscV::r_sepc();
 3343              		.loc 1 180 9 is_stmt 1
 3344              	.LBB152:
 3345              	.LBB153:
 169:src/../h/riscv.hpp ****     asm("csrr %[sstatus], sstatus" : [sstatus] "=r" (sstatus));
 3346              		.loc 2 169 5
 170:src/../h/riscv.hpp ****     return sstatus;
 3347              		.loc 2 170 5
 170:src/../h/riscv.hpp ****     return sstatus;
 3348              		.loc 2 170 63 is_stmt 0
 3349              	#APP
 3350              	# 170 "src/../h/riscv.hpp" 1
 3351              		csrr a5, sstatus
 3352              	# 0 "" 2
 3353              	.LVL270:
 171:src/../h/riscv.hpp **** }
 3354              		.loc 2 171 5 is_stmt 1
 3355              	#NO_APP
 3356              	.LBE153:
 3357              	.LBE152:
 180:src/riscv.cpp ****         uint64 volatile sepc = RiscV::r_sepc();
 3358              		.loc 1 180 52 is_stmt 0
 3359 1114 2334F4FC 		sd	a5,-56(s0)
 181:src/riscv.cpp **** 
 3360              		.loc 1 181 9 is_stmt 1
 3361              	.LBB154:
 3362              	.LBB155:
 149:src/../h/riscv.hpp ****     asm("csrr %[sepc], sepc" : [sepc] "=r" (sepc));
 3363              		.loc 2 149 5
 150:src/../h/riscv.hpp ****     return sepc;
 3364              		.loc 2 150 5
 150:src/../h/riscv.hpp ****     return sepc;
 3365              		.loc 2 150 51 is_stmt 0
GAS LISTING /tmp/ccEFbENn.s 			page 89


 3366              	#APP
 3367              	# 150 "src/../h/riscv.hpp" 1
 3368              		csrr a5, sepc
 3369              	# 0 "" 2
 3370              	.LVL271:
 151:src/../h/riscv.hpp **** }
 3371              		.loc 2 151 5 is_stmt 1
 3372              	#NO_APP
 3373              	.LBE155:
 3374              	.LBE154:
 181:src/riscv.cpp **** 
 3375              		.loc 1 181 46 is_stmt 0
 3376 111c 2338F4FC 		sd	a5,-48(s0)
 184:src/riscv.cpp ****         asm("mv a0, %[status]" : : [status] "r" (status));
 3377              		.loc 1 184 9 is_stmt 1
 184:src/riscv.cpp ****         asm("mv a0, %[status]" : : [status] "r" (status));
 3378              		.loc 1 184 16 is_stmt 0
 3379 1120 97070000 		la	a5,CONSOLE_STATUS
 3379      83B70700 
 3380 1128 83B70700 		ld	a5,0(a5)
 3381              	.LVL272:
 185:src/riscv.cpp ****         asm("lb a1, 0(a0)");
 3382              		.loc 1 185 9 is_stmt 1
 185:src/riscv.cpp ****         asm("lb a1, 0(a0)");
 3383              		.loc 1 185 58 is_stmt 0
 3384              	#APP
 3385              	# 185 "src/riscv.cpp" 1
 186:src/riscv.cpp ****         asm("mv %[status], a1" : [status] "=r" (status));
 3386              		mv a0, a5
 3387              	# 0 "" 2
 3388              		.loc 1 186 9 is_stmt 1
 186:src/riscv.cpp ****         asm("mv %[status], a1" : [status] "=r" (status));
 3389              		.loc 1 186 28 is_stmt 0
 3390              	# 186 "src/riscv.cpp" 1
 187:src/riscv.cpp **** 
 3391              		lb a1, 0(a0)
 3392              	# 0 "" 2
 3393              		.loc 1 187 9 is_stmt 1
 187:src/riscv.cpp **** 
 3394              		.loc 1 187 57 is_stmt 0
 3395              	# 187 "src/riscv.cpp" 1
 3396              		mv a5, a1
 3397              	# 0 "" 2
 3398              	.LVL273:
 190:src/riscv.cpp ****         {
 3399              		.loc 1 190 9 is_stmt 1
 3400              	#NO_APP
 3401              	.LBB156:
 190:src/riscv.cpp ****         {
 3402              		.loc 1 190 19 is_stmt 0
 3403 1138 93F71700 		andi	a5,a5,1
 3404              	.LVL274:
 190:src/riscv.cpp ****         {
 3405              		.loc 1 190 9
 3406 113c 63880702 		beqz	a5,.L156
 3407              	.LBB157:
 193:src/riscv.cpp ****             char c;
GAS LISTING /tmp/ccEFbENn.s 			page 90


 3408              		.loc 1 193 13 is_stmt 1
 194:src/riscv.cpp ****             data = CONSOLE_TX_DATA;
 3409              		.loc 1 194 13
 195:src/riscv.cpp ****             asm("mv a0, %[data]" : : [data] "r" (data));
 3410              		.loc 1 195 13
 195:src/riscv.cpp ****             asm("mv a0, %[data]" : : [data] "r" (data));
 3411              		.loc 1 195 18 is_stmt 0
 3412 1140 97070000 		la	a5,CONSOLE_TX_DATA
 3412      83B70700 
 3413 1148 83B70700 		ld	a5,0(a5)
 3414              	.LVL275:
 196:src/riscv.cpp ****             asm("lb a1, 0(a0)");
 3415              		.loc 1 196 13 is_stmt 1
 196:src/riscv.cpp ****             asm("lb a1, 0(a0)");
 3416              		.loc 1 196 56 is_stmt 0
 3417              	#APP
 3418              	# 196 "src/riscv.cpp" 1
 197:src/riscv.cpp ****             asm("mv %[c], a1" : [c] "=r" (c));
 3419              		mv a0, a5
 3420              	# 0 "" 2
 3421              		.loc 1 197 13 is_stmt 1
 197:src/riscv.cpp ****             asm("mv %[c], a1" : [c] "=r" (c));
 3422              		.loc 1 197 32 is_stmt 0
 3423              	# 197 "src/riscv.cpp" 1
 198:src/riscv.cpp **** 
 3424              		lb a1, 0(a0)
 3425              	# 0 "" 2
 3426              		.loc 1 198 13 is_stmt 1
 198:src/riscv.cpp **** 
 3427              		.loc 1 198 46 is_stmt 0
 3428              	# 198 "src/riscv.cpp" 1
 3429              		mv a0, a1
 3430              	# 0 "" 2
 3431              	#NO_APP
 3432 1158 1375F50F 		andi	a0,a0,0xff
 3433              	.LVL276:
 201:src/riscv.cpp ****                 ConsoleUtil::pendingGetc--;
 3434              		.loc 1 201 13 is_stmt 1
 201:src/riscv.cpp ****                 ConsoleUtil::pendingGetc--;
 3435              		.loc 1 201 40 is_stmt 0
 3436 115c 97070000 		la	a5,_ZN11ConsoleUtil11pendingGetcE
 3436      83B70700 
 3437              	.LVL277:
 3438 1164 83B70700 		ld	a5,0(a5)
 201:src/riscv.cpp ****                 ConsoleUtil::pendingGetc--;
 3439              		.loc 1 201 13
 3440 1168 63940702 		bnez	a5,.L164
 3441              	.LVL278:
 3442              	.L156:
 3443              	.LBE157:
 3444              	.LBE156:
 206:src/riscv.cpp **** 
 3445              		.loc 1 206 9 is_stmt 1
 206:src/riscv.cpp **** 
 3446              		.loc 1 206 22 is_stmt 0
 3447 116c 97000000 		call	plic_claim@plt
 3447      E7800000 
GAS LISTING /tmp/ccEFbENn.s 			page 91


 3448              	.LVL279:
 3449 1174 97000000 		call	plic_complete@plt
 3449      E7800000 
 3450              	.LVL280:
 208:src/riscv.cpp ****         RiscV::w_sepc(sepc);
 3451              		.loc 1 208 9 is_stmt 1
 208:src/riscv.cpp ****         RiscV::w_sepc(sepc);
 3452              		.loc 1 208 25 is_stmt 0
 3453 117c 833784FC 		ld	a5,-56(s0)
 3454              	.LVL281:
 3455              	.LBB159:
 3456              	.LBB160:
 165:src/../h/riscv.hpp **** }
 3457              		.loc 2 165 5 is_stmt 1
 165:src/../h/riscv.hpp **** }
 3458              		.loc 2 165 64 is_stmt 0
 3459              	#APP
 3460              	# 165 "src/../h/riscv.hpp" 1
 3461              		csrw sstatus, a5
 3462              	# 0 "" 2
 3463              	.LVL282:
 3464              	#NO_APP
 3465              	.LBE160:
 3466              	.LBE159:
 209:src/riscv.cpp ****     }
 3467              		.loc 1 209 9 is_stmt 1
 209:src/riscv.cpp ****     }
 3468              		.loc 1 209 22 is_stmt 0
 3469 1184 833704FD 		ld	a5,-48(s0)
 3470              	.LVL283:
 3471              	.LBB161:
 3472              	.LBB162:
 155:src/../h/riscv.hpp **** }
 3473              		.loc 2 155 5 is_stmt 1
 155:src/../h/riscv.hpp **** }
 3474              		.loc 2 155 52 is_stmt 0
 3475              	#APP
 3476              	# 155 "src/../h/riscv.hpp" 1
 156:src/../h/riscv.hpp **** 
 3477              		csrw sepc, a5
 3478              	# 0 "" 2
 3479              		.loc 2 156 1
 3480              	#NO_APP
 3481 118c 6FF09FDF 		j	.L153
 3482              	.LVL284:
 3483              	.L164:
 3484              	.LBE162:
 3485              	.LBE161:
 3486              	.LBB163:
 3487              	.LBB158:
 202:src/riscv.cpp ****                 ConsoleUtil::putInput(c);
 3488              		.loc 1 202 17 is_stmt 1
 202:src/riscv.cpp ****                 ConsoleUtil::putInput(c);
 3489              		.loc 1 202 41 is_stmt 0
 3490 1190 9387F7FF 		addi	a5,a5,-1
 3491 1194 17070000 		la	a4,_ZN11ConsoleUtil11pendingGetcE
 3491      03370700 
GAS LISTING /tmp/ccEFbENn.s 			page 92


 3492 119c 2330F700 		sd	a5,0(a4)
 203:src/riscv.cpp ****             }
 3493              		.loc 1 203 17 is_stmt 1
 203:src/riscv.cpp ****             }
 3494              		.loc 1 203 38 is_stmt 0
 3495 11a0 97000000 		call	_ZN11ConsoleUtil8putInputEc@plt
 3495      E7800000 
 3496              	.LVL285:
 3497 11a8 6FF05FFC 		j	.L156
 3498              	.LVL286:
 3499              	.L162:
 3500              	.LBE158:
 3501              	.LBE163:
 3502              	.LBE151:
 3503              	.LBB164:
 3504              	.LBB148:
 214:src/riscv.cpp ****         old->status = TCB::Status::FINISHED;
 3505              		.loc 1 214 9 is_stmt 1
 214:src/riscv.cpp ****         old->status = TCB::Status::FINISHED;
 3506              		.loc 1 214 14 is_stmt 0
 3507 11ac 97070000 		la	a5,_ZN3TCB7runningE
 3507      83B70700 
 3508 11b4 83B70700 		ld	a5,0(a5)
 3509              	.LVL287:
 215:src/riscv.cpp ****         ConsoleUtil::printString("sepc: ");
 3510              		.loc 1 215 9 is_stmt 1
 215:src/riscv.cpp ****         ConsoleUtil::printString("sepc: ");
 3511              		.loc 1 215 21 is_stmt 0
 3512 11b8 13072000 		li	a4,2
 3513 11bc 23A8E700 		sw	a4,16(a5)
 216:src/riscv.cpp ****         uint64 sepc = RiscV::r_sepc();
 3514              		.loc 1 216 9 is_stmt 1
 216:src/riscv.cpp ****         uint64 sepc = RiscV::r_sepc();
 3515              		.loc 1 216 33 is_stmt 0
 3516 11c0 17050000 		lla	a0,.LC0
 3516      13050500 
 3517 11c8 97000000 		call	_ZN11ConsoleUtil11printStringEPKc@plt
 3517      E7800000 
 3518              	.LVL288:
 217:src/riscv.cpp ****         ConsoleUtil::printInt(sepc,16);
 3519              		.loc 1 217 9 is_stmt 1
 3520              	.LBB149:
 3521              	.LBB150:
 149:src/../h/riscv.hpp ****     asm("csrr %[sepc], sepc" : [sepc] "=r" (sepc));
 3522              		.loc 2 149 5
 150:src/../h/riscv.hpp ****     return sepc;
 3523              		.loc 2 150 5
 150:src/../h/riscv.hpp ****     return sepc;
 3524              		.loc 2 150 51 is_stmt 0
 3525              	#APP
 3526              	# 150 "src/../h/riscv.hpp" 1
 151:src/../h/riscv.hpp **** }
 3527              		csrr a0, sepc
 3528              	# 0 "" 2
 3529              		.loc 2 151 5 is_stmt 1
 3530              	#NO_APP
 3531              	.LBE150:
GAS LISTING /tmp/ccEFbENn.s 			page 93


 3532              	.LBE149:
 218:src/riscv.cpp ****         ConsoleUtil::printString("\n");
 3533              		.loc 1 218 9
 218:src/riscv.cpp ****         ConsoleUtil::printString("\n");
 3534              		.loc 1 218 30 is_stmt 0
 3535 11d4 13060000 		li	a2,0
 3536 11d8 93050001 		li	a1,16
 3537 11dc 1B050500 		sext.w	a0,a0
 3538 11e0 97000000 		call	_ZN11ConsoleUtil8printIntEiii@plt
 3538      E7800000 
 3539              	.LVL289:
 219:src/riscv.cpp ****         ConsoleUtil::printString("Illegal instruction\nExiting thread...\n");
 3540              		.loc 1 219 9 is_stmt 1
 219:src/riscv.cpp ****         ConsoleUtil::printString("Illegal instruction\nExiting thread...\n");
 3541              		.loc 1 219 33 is_stmt 0
 3542 11e8 17050000 		lla	a0,.LC1
 3542      13050500 
 3543 11f0 97000000 		call	_ZN11ConsoleUtil11printStringEPKc@plt
 3543      E7800000 
 3544              	.LVL290:
 220:src/riscv.cpp ****         TCB::dispatch();
 3545              		.loc 1 220 9 is_stmt 1
 220:src/riscv.cpp ****         TCB::dispatch();
 3546              		.loc 1 220 33 is_stmt 0
 3547 11f8 17050000 		lla	a0,.LC2
 3547      13050500 
 3548 1200 97000000 		call	_ZN11ConsoleUtil11printStringEPKc@plt
 3548      E7800000 
 3549              	.LVL291:
 221:src/riscv.cpp ****     }
 3550              		.loc 1 221 9 is_stmt 1
 221:src/riscv.cpp ****     }
 3551              		.loc 1 221 22 is_stmt 0
 3552 1208 97000000 		call	_ZN3TCB8dispatchEv@plt
 3552      E7800000 
 3553              	.LVL292:
 3554              	.LBE148:
 3555 1210 6FF05FD7 		j	.L153
 3556              	.LBE164:
 3557              	.LBE180:
 3558              	.LBE193:
 3559              	.LBE197:
 3560              		.cfi_endproc
 3561              	.LFE46:
 3563              		.globl	_ZN5RiscV4uPMTE
 3564              		.globl	_ZN5RiscV4kPMTE
 3565              		.globl	_ZN5RiscV16userMainFinishedE
 3566              		.globl	_ZN5RiscV10globalTimeE
 3567              		.bss
 3568              		.align	3
 3569              		.set	.LANCHOR0,. + 0
 3572              	_ZN5RiscV4kPMTE:
 3573 0000 00000000 		.zero	8
 3573      00000000 
 3576              	_ZN5RiscV4uPMTE:
 3577 0008 00000000 		.zero	8
 3577      00000000 
GAS LISTING /tmp/ccEFbENn.s 			page 94


 3580              	_ZN5RiscV16userMainFinishedE:
 3581 0010 00       		.zero	1
 3582 0011 00000000 		.zero	7
 3582      000000
 3585              	_ZN5RiscV10globalTimeE:
 3586 0018 00000000 		.zero	8
 3586      00000000 
 3587              		.text
 3588              	.Letext0:
 3589              		.file 3 "src/../h/../lib/hw.h"
 3590              		.file 4 "src/../h/../h/utility.hpp"
 3591              		.file 5 "src/../h/memoryAllocator.hpp"
 3592              		.file 6 "src/../h/../h/../h/../h/buddyAllocator.hpp"
 3593              		.file 7 "src/../h/../h/../h/../h/consoleUtil.hpp"
 3594              		.file 8 "src/../h/scb.hpp"
 3595              		.file 9 "src/../h/../h/../h/../h/../h/slab_t.hpp"
 3596              		.file 10 "src/../h/../h/../h/../h/cache_t.hpp"
 3597              		.file 11 "src/../h/tcb.hpp"
 3598              		.file 12 "src/../h/scheduler.hpp"
 3599              		.file 13 "src/../h/../h/slab.hpp"
 3600              		.file 14 "src/../h/syscall_c.h"
 11152              		.align	3
 11155              	DW.ref.__gxx_personality_v0:
 11156 0000 00000000 		.dword	__gxx_personality_v0
 11156      00000000 
 11157              		.ident	"GCC: (Ubuntu 9.4.0-1ubuntu1~20.04) 9.4.0"
 11158              		.section	.note.GNU-stack,"",@progbits
GAS LISTING /tmp/ccEFbENn.s 			page 95


DEFINED SYMBOLS
                            *ABS*:0000000000000000 riscv.cpp
     /tmp/ccEFbENn.s:9      .text:0000000000000000 _ZN5RiscV6getPMTEv
     /tmp/ccEFbENn.s:13     .text:0000000000000000 .L0 
     /tmp/ccEFbENn.s:14     .text:0000000000000000 .L0 
     /tmp/ccEFbENn.s:15     .text:0000000000000004 .L0 
     /tmp/ccEFbENn.s:18     .text:000000000000000c .L0 
     /tmp/ccEFbENn.s:19     .text:000000000000000c .L0 
     /tmp/ccEFbENn.s:21     .text:0000000000000010 .L0 
     /tmp/ccEFbENn.s:23     .text:0000000000000010 .L0 
     /tmp/ccEFbENn.s:24     .text:0000000000000010 .L0 
     /tmp/ccEFbENn.s:28     .text:000000000000001c .L0 
     /tmp/ccEFbENn.s:30     .text:000000000000001c .L0 
     /tmp/ccEFbENn.s:31     .text:000000000000001c .L0 
     /tmp/ccEFbENn.s:35     .text:0000000000000020 .L0 
     /tmp/ccEFbENn.s:38     .text:0000000000000028 .L0 
     /tmp/ccEFbENn.s:39     .text:0000000000000028 .L0 
     /tmp/ccEFbENn.s:42     .text:0000000000000030 .L0 
     /tmp/ccEFbENn.s:44     .text:0000000000000034 .L0 
     /tmp/ccEFbENn.s:51     .text:000000000000003c .L0 
     /tmp/ccEFbENn.s:52     .text:0000000000000040 .L0 
     /tmp/ccEFbENn.s:54     .text:0000000000000044 .L0 
     /tmp/ccEFbENn.s:55     .text:0000000000000044 .L0 
     /tmp/ccEFbENn.s:57     .text:0000000000000048 .L0 
     /tmp/ccEFbENn.s:59     .text:000000000000004c .L0 
     /tmp/ccEFbENn.s:65     .text:000000000000004c _ZN5RiscV15handlePageFaultEPvmm
     /tmp/ccEFbENn.s:68     .text:000000000000004c .L0 
     /tmp/ccEFbENn.s:70     .text:000000000000004c .L0 
     /tmp/ccEFbENn.s:71     .text:0000000000000050 .L0 
     /tmp/ccEFbENn.s:79     .text:000000000000006c .L0 
     /tmp/ccEFbENn.s:80     .text:000000000000006c .L0 
     /tmp/ccEFbENn.s:81     .text:000000000000006c .L0 
     /tmp/ccEFbENn.s:82     .text:000000000000006c .L0 
     /tmp/ccEFbENn.s:83     .text:000000000000006c .L0 
     /tmp/ccEFbENn.s:84     .text:000000000000006c .L0 
     /tmp/ccEFbENn.s:85     .text:000000000000006c .L0 
     /tmp/ccEFbENn.s:87     .text:0000000000000070 .L0 
     /tmp/ccEFbENn.s:90     .text:0000000000000074 .L0 
     /tmp/ccEFbENn.s:91     .text:0000000000000074 .L0 
     /tmp/ccEFbENn.s:93     .text:0000000000000078 .L0 
     /tmp/ccEFbENn.s:96     .text:000000000000007c .L0 
     /tmp/ccEFbENn.s:97     .text:000000000000007c .L0 
     /tmp/ccEFbENn.s:98     .text:000000000000007c .L0 
     /tmp/ccEFbENn.s:100    .text:0000000000000080 .L0 
     /tmp/ccEFbENn.s:103    .text:0000000000000084 .L0 
     /tmp/ccEFbENn.s:104    .text:0000000000000084 .L0 
     /tmp/ccEFbENn.s:106    .text:0000000000000088 .L0 
     /tmp/ccEFbENn.s:109    .text:000000000000008c .L0 
     /tmp/ccEFbENn.s:110    .text:000000000000008c .L0 
     /tmp/ccEFbENn.s:114    .text:0000000000000094 .L0 
     /tmp/ccEFbENn.s:117    .text:0000000000000098 .L0 
     /tmp/ccEFbENn.s:118    .text:0000000000000098 .L0 
     /tmp/ccEFbENn.s:120    .text:000000000000009c .L0 
     /tmp/ccEFbENn.s:121    .text:000000000000009c .L0 
     /tmp/ccEFbENn.s:124    .text:00000000000000a0 .L0 
     /tmp/ccEFbENn.s:128    .text:00000000000000a4 .L0 
     /tmp/ccEFbENn.s:129    .text:00000000000000a4 .L0 
GAS LISTING /tmp/ccEFbENn.s 			page 96


     /tmp/ccEFbENn.s:133    .text:00000000000000ac .L0 
     /tmp/ccEFbENn.s:136    .text:00000000000000b0 .L0 
     /tmp/ccEFbENn.s:137    .text:00000000000000b0 .L0 
     /tmp/ccEFbENn.s:139    .text:00000000000000b4 .L0 
     /tmp/ccEFbENn.s:140    .text:00000000000000b4 .L0 
     /tmp/ccEFbENn.s:143    .text:00000000000000b8 .L0 
     /tmp/ccEFbENn.s:147    .text:00000000000000bc .L0 
     /tmp/ccEFbENn.s:148    .text:00000000000000bc .L0 
     /tmp/ccEFbENn.s:153    .text:00000000000000c4 .L0 
     /tmp/ccEFbENn.s:156    .text:00000000000000c8 .L0 
     /tmp/ccEFbENn.s:158    .text:00000000000000cc .L0 
     /tmp/ccEFbENn.s:159    .text:00000000000000cc .L0 
     /tmp/ccEFbENn.s:162    .text:00000000000000d0 .L0 
     /tmp/ccEFbENn.s:165    .text:00000000000000d4 .L0 
     /tmp/ccEFbENn.s:168    .text:00000000000000d8 .L0 
     /tmp/ccEFbENn.s:169    .text:00000000000000dc .L0 
     /tmp/ccEFbENn.s:170    .text:00000000000000dc .L0 
     /tmp/ccEFbENn.s:172    .text:00000000000000e0 .L0 
     /tmp/ccEFbENn.s:173    .text:00000000000000e0 .L0 
     /tmp/ccEFbENn.s:175    .text:00000000000000e4 .L0 
     /tmp/ccEFbENn.s:177    .text:00000000000000e8 .L0 
     /tmp/ccEFbENn.s:179    .text:00000000000000ec .L0 
     /tmp/ccEFbENn.s:181    .text:00000000000000f0 .L0 
     /tmp/ccEFbENn.s:183    .text:00000000000000f4 .L0 
     /tmp/ccEFbENn.s:185    .text:00000000000000f8 .L0 
     /tmp/ccEFbENn.s:189    .text:00000000000000fc .L0 
     /tmp/ccEFbENn.s:191    .text:00000000000000fc .L0 
     /tmp/ccEFbENn.s:192    .text:00000000000000fc .L0 
     /tmp/ccEFbENn.s:195    .text:0000000000000104 .L0 
     /tmp/ccEFbENn.s:196    .text:0000000000000104 .L0 
     /tmp/ccEFbENn.s:198    .text:0000000000000108 .L0 
     /tmp/ccEFbENn.s:200    .text:000000000000010c .L0 
     /tmp/ccEFbENn.s:202    .text:0000000000000110 .L0 
     /tmp/ccEFbENn.s:207    .text:0000000000000118 .L0 
     /tmp/ccEFbENn.s:208    .text:0000000000000118 .L0 
     /tmp/ccEFbENn.s:211    .text:0000000000000120 .L0 
     /tmp/ccEFbENn.s:212    .text:0000000000000120 .L0 
     /tmp/ccEFbENn.s:214    .text:0000000000000124 .L0 
     /tmp/ccEFbENn.s:216    .text:0000000000000128 .L0 
     /tmp/ccEFbENn.s:218    .text:000000000000012c .L0 
     /tmp/ccEFbENn.s:220    .text:0000000000000134 .L0 
     /tmp/ccEFbENn.s:226    .text:0000000000000134 _ZN5RiscV10initializeEv
     /tmp/ccEFbENn.s:229    .text:0000000000000134 .L0 
     /tmp/ccEFbENn.s:230    .text:0000000000000134 .L0 
     /tmp/ccEFbENn.s:231    .text:0000000000000138 .L0 
     /tmp/ccEFbENn.s:239    .text:0000000000000154 .L0 
     /tmp/ccEFbENn.s:240    .text:0000000000000154 .L0 
     /tmp/ccEFbENn.s:241    .text:0000000000000154 .L0 
     /tmp/ccEFbENn.s:242    .text:0000000000000154 .L0 
     /tmp/ccEFbENn.s:243    .text:0000000000000154 .L0 
     /tmp/ccEFbENn.s:244    .text:0000000000000154 .L0 
     /tmp/ccEFbENn.s:245    .text:0000000000000154 .L0 
     /tmp/ccEFbENn.s:247    .text:0000000000000158 .L0 
     /tmp/ccEFbENn.s:249    .text:0000000000000158 .L0 
     /tmp/ccEFbENn.s:250    .text:0000000000000158 .L0 
     /tmp/ccEFbENn.s:256    .text:0000000000000160 .L0 
  src/../h/riscv.hpp:175    .text:0000000000000160 .L0 
GAS LISTING /tmp/ccEFbENn.s 			page 97


     /tmp/ccEFbENn.s:266    .text:0000000000000164 .L0 
     /tmp/ccEFbENn.s:267    .text:0000000000000164 .L0 
     /tmp/ccEFbENn.s:272    .text:0000000000000178 .L0 
     /tmp/ccEFbENn.s:277    .text:0000000000000188 .L0 
     /tmp/ccEFbENn.s:278    .text:0000000000000188 .L0 
     /tmp/ccEFbENn.s:281    .text:0000000000000190 .L0 
     /tmp/ccEFbENn.s:282    .text:0000000000000190 .L0 
     /tmp/ccEFbENn.s:285    .text:0000000000000198 .L0 
     /tmp/ccEFbENn.s:286    .text:0000000000000198 .L0 
     /tmp/ccEFbENn.s:289    .text:00000000000001a0 .L0 
     /tmp/ccEFbENn.s:290    .text:00000000000001a0 .L0 
     /tmp/ccEFbENn.s:293    .text:00000000000001a8 .L0 
     /tmp/ccEFbENn.s:294    .text:00000000000001a8 .L0 
     /tmp/ccEFbENn.s:297    .text:00000000000001b0 .L0 
     /tmp/ccEFbENn.s:298    .text:00000000000001b0 .L0 
     /tmp/ccEFbENn.s:301    .text:00000000000001b8 .L0 
     /tmp/ccEFbENn.s:304    .text:00000000000001c4 .L0 
     /tmp/ccEFbENn.s:305    .text:00000000000001c4 .L0 
     /tmp/ccEFbENn.s:308    .text:00000000000001cc .L0 
     /tmp/ccEFbENn.s:312    .text:00000000000001d0 .L0 
     /tmp/ccEFbENn.s:313    .text:00000000000001d0 .L0 
     /tmp/ccEFbENn.s:318    .text:00000000000001d8 .L0 
     /tmp/ccEFbENn.s:322    .text:00000000000001e8 .L0 
     /tmp/ccEFbENn.s:323    .text:00000000000001e8 .L0 
     /tmp/ccEFbENn.s:330    .text:0000000000000204 .L0 
     /tmp/ccEFbENn.s:331    .text:0000000000000204 .L0 
     /tmp/ccEFbENn.s:337    .text:0000000000000218 .L0 
     /tmp/ccEFbENn.s:338    .text:0000000000000218 .L0 
     /tmp/ccEFbENn.s:342    .text:0000000000000220 .L0 
     /tmp/ccEFbENn.s:346    .text:0000000000000224 .L0 
     /tmp/ccEFbENn.s:347    .text:0000000000000224 .L0 
     /tmp/ccEFbENn.s:357    .text:000000000000024c .L0 
     /tmp/ccEFbENn.s:358    .text:000000000000024c .L0 
     /tmp/ccEFbENn.s:366    .text:000000000000026c .L0 
     /tmp/ccEFbENn.s:367    .text:000000000000026c .L0 
     /tmp/ccEFbENn.s:375    .text:000000000000028c .L0 
     /tmp/ccEFbENn.s:376    .text:000000000000028c .L0 
     /tmp/ccEFbENn.s:383    .text:00000000000002a4 .L0 
     /tmp/ccEFbENn.s:384    .text:00000000000002a4 .L0 
     /tmp/ccEFbENn.s:390    .text:00000000000002b8 .L0 
     /tmp/ccEFbENn.s:391    .text:00000000000002b8 .L0 
     /tmp/ccEFbENn.s:397    .text:00000000000002cc .L0 
     /tmp/ccEFbENn.s:398    .text:00000000000002cc .L0 
     /tmp/ccEFbENn.s:404    .text:00000000000002e0 .L0 
     /tmp/ccEFbENn.s:405    .text:00000000000002e0 .L0 
     /tmp/ccEFbENn.s:411    .text:00000000000002f4 .L0 
     /tmp/ccEFbENn.s:412    .text:00000000000002f4 .L0 
     /tmp/ccEFbENn.s:415    .text:00000000000002fc .L0 
     /tmp/ccEFbENn.s:420    .text:0000000000000308 .L0 
       src/riscv.cpp:75     .text:0000000000000308 .L0 
     /tmp/ccEFbENn.s:426    .text:000000000000030c .L0 
     /tmp/ccEFbENn.s:432    .text:000000000000030c .L0 
     /tmp/ccEFbENn.s:433    .text:000000000000030c .L0 
     /tmp/ccEFbENn.s:434    .text:000000000000030c .L0 
     /tmp/ccEFbENn.s:449    .text:0000000000000314 .L0 
     /tmp/ccEFbENn.s:450    .text:0000000000000314 .L0 
     /tmp/ccEFbENn.s:451    .text:0000000000000314 .L0 
GAS LISTING /tmp/ccEFbENn.s 			page 98


     /tmp/ccEFbENn.s:466    .text:000000000000031c .L0 
     /tmp/ccEFbENn.s:467    .text:000000000000031c .L0 
  src/../h/riscv.hpp:179    .text:000000000000031c .L0 
     /tmp/ccEFbENn.s:478    .text:0000000000000320 .L0 
     /tmp/ccEFbENn.s:479    .text:0000000000000324 .L0 
     /tmp/ccEFbENn.s:481    .text:0000000000000328 .L0 
     /tmp/ccEFbENn.s:482    .text:0000000000000328 .L0 
     /tmp/ccEFbENn.s:484    .text:000000000000032c .L0 
     /tmp/ccEFbENn.s:486    .text:0000000000000330 .L0 
     /tmp/ccEFbENn.s:488    .text:0000000000000334 .L0 
     /tmp/ccEFbENn.s:490    .text:0000000000000338 .L0 
     /tmp/ccEFbENn.s:492    .text:000000000000033c .L0 
     /tmp/ccEFbENn.s:494    .text:0000000000000340 .L0 
     /tmp/ccEFbENn.s:496    .text:0000000000000344 .L0 
     /tmp/ccEFbENn.s:502    .text:0000000000000344 _ZN5RiscV10popSppSpieEv
     /tmp/ccEFbENn.s:505    .text:0000000000000344 .L0 
     /tmp/ccEFbENn.s:506    .text:0000000000000344 .L0 
     /tmp/ccEFbENn.s:507    .text:0000000000000348 .L0 
     /tmp/ccEFbENn.s:509    .text:000000000000034c .L0 
     /tmp/ccEFbENn.s:511    .text:0000000000000350 .L0 
     /tmp/ccEFbENn.s:513    .text:0000000000000350 .L0 
       src/riscv.cpp:83     .text:0000000000000350 .L0 
     /tmp/ccEFbENn.s:519    .text:0000000000000354 .L0 
       src/riscv.cpp:84     .text:0000000000000354 .L0 
     /tmp/ccEFbENn.s:525    .text:0000000000000358 .L0 
     /tmp/ccEFbENn.s:526    .text:000000000000035c .L0 
     /tmp/ccEFbENn.s:527    .text:000000000000035c .L0 
     /tmp/ccEFbENn.s:529    .text:0000000000000360 .L0 
     /tmp/ccEFbENn.s:531    .text:0000000000000364 .L0 
     /tmp/ccEFbENn.s:537    .text:0000000000000364 _ZN5RiscV28executeThreadDispatchSyscallEv
     /tmp/ccEFbENn.s:540    .text:0000000000000364 .L0 
     /tmp/ccEFbENn.s:541    .text:0000000000000364 .L0 
     /tmp/ccEFbENn.s:542    .text:0000000000000368 .L0 
     /tmp/ccEFbENn.s:545    .text:0000000000000370 .L0 
     /tmp/ccEFbENn.s:546    .text:0000000000000370 .L0 
     /tmp/ccEFbENn.s:548    .text:0000000000000374 .L0 
     /tmp/ccEFbENn.s:550    .text:0000000000000374 .L0 
     /tmp/ccEFbENn.s:551    .text:0000000000000374 .L0 
     /tmp/ccEFbENn.s:555    .text:0000000000000380 .L0 
     /tmp/ccEFbENn.s:556    .text:0000000000000380 .L0 
     /tmp/ccEFbENn.s:559    .text:0000000000000388 .L0 
     /tmp/ccEFbENn.s:560    .text:0000000000000388 .L0 
     /tmp/ccEFbENn.s:563    .text:0000000000000390 .L0 
     /tmp/ccEFbENn.s:564    .text:0000000000000394 .L0 
     /tmp/ccEFbENn.s:566    .text:0000000000000398 .L0 
     /tmp/ccEFbENn.s:567    .text:0000000000000398 .L0 
     /tmp/ccEFbENn.s:569    .text:000000000000039c .L0 
     /tmp/ccEFbENn.s:571    .text:00000000000003a0 .L0 
     /tmp/ccEFbENn.s:577    .text:00000000000003a0 _ZN5RiscV18executePutcSyscallEv
     /tmp/ccEFbENn.s:580    .text:00000000000003a0 .L0 
     /tmp/ccEFbENn.s:581    .text:00000000000003a0 .L0 
     /tmp/ccEFbENn.s:582    .text:00000000000003a4 .L0 
     /tmp/ccEFbENn.s:585    .text:00000000000003ac .L0 
     /tmp/ccEFbENn.s:586    .text:00000000000003ac .L0 
     /tmp/ccEFbENn.s:588    .text:00000000000003b0 .L0 
     /tmp/ccEFbENn.s:590    .text:00000000000003b0 .L0 
     /tmp/ccEFbENn.s:591    .text:00000000000003b0 .L0 
GAS LISTING /tmp/ccEFbENn.s 			page 99


     /tmp/ccEFbENn.s:593    .text:00000000000003b8 .L0 
     /tmp/ccEFbENn.s:595    .text:00000000000003bc .L0 
     /tmp/ccEFbENn.s:596    .text:00000000000003bc .L0 
     /tmp/ccEFbENn.s:602    .text:00000000000003d0 .L0 
     /tmp/ccEFbENn.s:603    .text:00000000000003d0 .L0 
       src/riscv.cpp:549    .text:00000000000003d0 .L0 
     /tmp/ccEFbENn.s:610    .text:00000000000003d4 .L0 
     /tmp/ccEFbENn.s:612    .text:00000000000003d4 .L0 
     /tmp/ccEFbENn.s:616    .text:00000000000003e0 .L0 
     /tmp/ccEFbENn.s:617    .text:00000000000003e4 .L0 
     /tmp/ccEFbENn.s:619    .text:00000000000003e8 .L0 
     /tmp/ccEFbENn.s:620    .text:00000000000003e8 .L0 
     /tmp/ccEFbENn.s:622    .text:00000000000003ec .L0 
     /tmp/ccEFbENn.s:624    .text:00000000000003f0 .L0 
     /tmp/ccEFbENn.s:630    .text:00000000000003f0 _ZN5RiscV11putcWrapperEPv
     /tmp/ccEFbENn.s:633    .text:00000000000003f0 .L0 
     /tmp/ccEFbENn.s:635    .text:00000000000003f0 .L0 
     /tmp/ccEFbENn.s:636    .text:00000000000003f4 .L0 
     /tmp/ccEFbENn.s:639    .text:00000000000003fc .L0 
     /tmp/ccEFbENn.s:640    .text:00000000000003fc .L0 
     /tmp/ccEFbENn.s:642    .text:0000000000000400 .L0 
     /tmp/ccEFbENn.s:649    .text:0000000000000404 .L0 
     /tmp/ccEFbENn.s:650    .text:0000000000000404 .L0 
     /tmp/ccEFbENn.s:657    .text:000000000000040c .L0 
     /tmp/ccEFbENn.s:658    .text:000000000000040c .L0 
     /tmp/ccEFbENn.s:659    .text:000000000000040c .L0 
     /tmp/ccEFbENn.s:663    .text:0000000000000418 .L0 
       src/riscv.cpp:564    .text:0000000000000418 .L0 
     /tmp/ccEFbENn.s:669    .text:000000000000041c .L0 
       src/riscv.cpp:565    .text:000000000000041c .L0 
     /tmp/ccEFbENn.s:674    .text:0000000000000420 .L0 
       src/riscv.cpp:566    .text:0000000000000420 .L0 
     /tmp/ccEFbENn.s:682    .text:0000000000000424 .L0 
     /tmp/ccEFbENn.s:683    .text:0000000000000424 .L0 
     /tmp/ccEFbENn.s:686    .text:0000000000000428 .L0 
     /tmp/ccEFbENn.s:689    .text:000000000000042c .L0 
     /tmp/ccEFbENn.s:690    .text:000000000000042c .L0 
     /tmp/ccEFbENn.s:693    .text:0000000000000434 .L0 
     /tmp/ccEFbENn.s:695    .text:0000000000000438 .L0 
     /tmp/ccEFbENn.s:696    .text:0000000000000438 .L0 
     /tmp/ccEFbENn.s:700    .text:0000000000000444 .L0 
       src/riscv.cpp:574    .text:0000000000000444 .L0 
     /tmp/ccEFbENn.s:706    .text:0000000000000448 .L0 
     /tmp/ccEFbENn.s:708    .text:0000000000000448 .L0 
       src/riscv.cpp:575    .text:000000000000044c .L0 
     /tmp/ccEFbENn.s:716    .text:0000000000000450 .L0 
       src/riscv.cpp:576    .text:0000000000000450 .L0 
     /tmp/ccEFbENn.s:721    .text:0000000000000454 .L0 
     /tmp/ccEFbENn.s:723    .text:0000000000000454 .L0 
     /tmp/ccEFbENn.s:726    .text:0000000000000460 .L0 
     /tmp/ccEFbENn.s:728    .text:0000000000000464 .L0 
     /tmp/ccEFbENn.s:729    .text:0000000000000464 .L0 
     /tmp/ccEFbENn.s:736    .text:0000000000000478 .L0 
     /tmp/ccEFbENn.s:742    .text:0000000000000478 _ZN5RiscV29jumpToDesignatedPrivilegeModeEv
     /tmp/ccEFbENn.s:745    .text:0000000000000478 .L0 
     /tmp/ccEFbENn.s:746    .text:0000000000000478 .L0 
     /tmp/ccEFbENn.s:747    .text:000000000000047c .L0 
GAS LISTING /tmp/ccEFbENn.s 			page 100


     /tmp/ccEFbENn.s:749    .text:0000000000000480 .L0 
     /tmp/ccEFbENn.s:751    .text:0000000000000484 .L0 
     /tmp/ccEFbENn.s:754    .text:0000000000000484 .L0 
     /tmp/ccEFbENn.s:755    .text:0000000000000484 .L0 
     /tmp/ccEFbENn.s:759    .text:0000000000000494 .L0 
     /tmp/ccEFbENn.s:763    .text:000000000000049c .L0 
     /tmp/ccEFbENn.s:764    .text:000000000000049c .L0 
     /tmp/ccEFbENn.s:767    .text:00000000000004a8 .L0 
     /tmp/ccEFbENn.s:772    .text:00000000000004b4 .L0 
       src/riscv.cpp:605    .text:00000000000004b4 .L0 
     /tmp/ccEFbENn.s:782    .text:00000000000004b8 .L0 
     /tmp/ccEFbENn.s:783    .text:00000000000004b8 .L0 
     /tmp/ccEFbENn.s:784    .text:00000000000004b8 .L0 
     /tmp/ccEFbENn.s:798    .text:00000000000004c0 .L0 
     /tmp/ccEFbENn.s:799    .text:00000000000004c4 .L0 
     /tmp/ccEFbENn.s:800    .text:00000000000004c4 .L0 
     /tmp/ccEFbENn.s:801    .text:00000000000004c4 .L0 
     /tmp/ccEFbENn.s:803    .text:00000000000004c8 .L0 
     /tmp/ccEFbENn.s:806    .text:00000000000004cc .L0 
     /tmp/ccEFbENn.s:810    .text:00000000000004cc .L0 
     /tmp/ccEFbENn.s:811    .text:00000000000004cc .L0 
     /tmp/ccEFbENn.s:814    .text:00000000000004d8 .L0 
     /tmp/ccEFbENn.s:819    .text:00000000000004e4 .L0 
       src/riscv.cpp:600    .text:00000000000004e4 .L0 
     /tmp/ccEFbENn.s:829    .text:00000000000004e8 .L0 
     /tmp/ccEFbENn.s:830    .text:00000000000004e8 .L0 
     /tmp/ccEFbENn.s:831    .text:00000000000004e8 .L0 
     /tmp/ccEFbENn.s:839    .text:00000000000004f0 .L0 
     /tmp/ccEFbENn.s:844    .text:00000000000004f4 .L0 
     /tmp/ccEFbENn.s:850    .text:00000000000004f4 _ZN5RiscV8finalizeEv
     /tmp/ccEFbENn.s:853    .text:00000000000004f4 .L0 
     /tmp/ccEFbENn.s:854    .text:00000000000004f4 .L0 
     /tmp/ccEFbENn.s:855    .text:00000000000004f8 .L0 
     /tmp/ccEFbENn.s:858    .text:0000000000000500 .L0 
     /tmp/ccEFbENn.s:859    .text:0000000000000500 .L0 
     /tmp/ccEFbENn.s:861    .text:0000000000000504 .L0 
     /tmp/ccEFbENn.s:863    .text:0000000000000504 .L0 
     /tmp/ccEFbENn.s:864    .text:0000000000000504 .L0 
     /tmp/ccEFbENn.s:867    .text:0000000000000510 .L0 
     /tmp/ccEFbENn.s:868    .text:0000000000000510 .L0 
     /tmp/ccEFbENn.s:871    .text:000000000000051c .L0 
     /tmp/ccEFbENn.s:872    .text:000000000000051c .L0 
     /tmp/ccEFbENn.s:877    .text:0000000000000528 .L0 
     /tmp/ccEFbENn.s:880    .text:0000000000000528 .L0 
     /tmp/ccEFbENn.s:887    .text:0000000000000528 .L0 
     /tmp/ccEFbENn.s:888    .text:0000000000000528 .L0 
     /tmp/ccEFbENn.s:889    .text:0000000000000528 .L0 
     /tmp/ccEFbENn.s:902    .text:0000000000000530 .L0 
     /tmp/ccEFbENn.s:908    .text:0000000000000530 .L0 
     /tmp/ccEFbENn.s:909    .text:0000000000000530 .L0 
     /tmp/ccEFbENn.s:910    .text:0000000000000530 .L0 
     /tmp/ccEFbENn.s:924    .text:0000000000000538 .L0 
     /tmp/ccEFbENn.s:925    .text:0000000000000538 .L0 
     /tmp/ccEFbENn.s:929    .text:0000000000000548 .L0 
     /tmp/ccEFbENn.s:930    .text:0000000000000548 .L0 
     /tmp/ccEFbENn.s:932    .text:000000000000054c .L0 
     /tmp/ccEFbENn.s:935    .text:0000000000000558 .L0 
GAS LISTING /tmp/ccEFbENn.s 			page 101


     /tmp/ccEFbENn.s:938    .text:000000000000055c .L0 
     /tmp/ccEFbENn.s:939    .text:000000000000055c .L0 
     /tmp/ccEFbENn.s:945    .text:0000000000000570 .L0 
     /tmp/ccEFbENn.s:946    .text:0000000000000570 .L0 
     /tmp/ccEFbENn.s:952    .text:000000000000058c .L0 
     /tmp/ccEFbENn.s:953    .text:000000000000058c .L0 
     /tmp/ccEFbENn.s:956    .text:0000000000000594 .L0 
     /tmp/ccEFbENn.s:959    .text:0000000000000598 .L0 
     /tmp/ccEFbENn.s:960    .text:000000000000059c .L0 
     /tmp/ccEFbENn.s:962    .text:00000000000005a0 .L0 
     /tmp/ccEFbENn.s:963    .text:00000000000005a0 .L0 
     /tmp/ccEFbENn.s:965    .text:00000000000005a4 .L0 
     /tmp/ccEFbENn.s:967    .text:00000000000005a8 .L0 
     /tmp/ccEFbENn.s:973    .text:00000000000005a8 _ZN5RiscV16saveA0toSscratchEv
     /tmp/ccEFbENn.s:976    .text:00000000000005a8 .L0 
     /tmp/ccEFbENn.s:977    .text:00000000000005a8 .L0 
     /tmp/ccEFbENn.s:978    .text:00000000000005ac .L0 
     /tmp/ccEFbENn.s:980    .text:00000000000005b0 .L0 
     /tmp/ccEFbENn.s:982    .text:00000000000005b4 .L0 
     /tmp/ccEFbENn.s:984    .text:00000000000005b4 .L0 
     /tmp/ccEFbENn.s:985    .text:00000000000005b4 .L0 
       src/riscv.cpp:633    .text:00000000000005b4 .L0 
     /tmp/ccEFbENn.s:991    .text:00000000000005b8 .L0 
     /tmp/ccEFbENn.s:993    .text:00000000000005b8 .L0 
       src/riscv.cpp:634    .text:00000000000005c8 .L0 
     /tmp/ccEFbENn.s:1002   .text:00000000000005cc .L0 
       src/riscv.cpp:635    .text:00000000000005cc .L0 
     /tmp/ccEFbENn.s:1007   .text:00000000000005d0 .L0 
       src/riscv.cpp:636    .text:00000000000005d0 .L0 
     /tmp/ccEFbENn.s:1013   .text:00000000000005d4 .L0 
     /tmp/ccEFbENn.s:1014   .text:00000000000005d8 .L0 
     /tmp/ccEFbENn.s:1015   .text:00000000000005d8 .L0 
     /tmp/ccEFbENn.s:1017   .text:00000000000005dc .L0 
     /tmp/ccEFbENn.s:1019   .text:00000000000005e0 .L0 
     /tmp/ccEFbENn.s:1025   .text:00000000000005e0 _ZN5RiscV22executeMemAllocSyscallEv
     /tmp/ccEFbENn.s:1028   .text:00000000000005e0 .L0 
     /tmp/ccEFbENn.s:1029   .text:00000000000005e0 .L0 
     /tmp/ccEFbENn.s:1030   .text:00000000000005e4 .L0 
     /tmp/ccEFbENn.s:1033   .text:00000000000005ec .L0 
     /tmp/ccEFbENn.s:1034   .text:00000000000005ec .L0 
     /tmp/ccEFbENn.s:1036   .text:00000000000005f0 .L0 
     /tmp/ccEFbENn.s:1038   .text:00000000000005f0 .L0 
     /tmp/ccEFbENn.s:1039   .text:00000000000005f0 .L0 
       src/riscv.cpp:247    .text:00000000000005f0 .L0 
     /tmp/ccEFbENn.s:1046   .text:00000000000005f4 .L0 
     /tmp/ccEFbENn.s:1048   .text:00000000000005f4 .L0 
     /tmp/ccEFbENn.s:1051   .text:00000000000005fc .L0 
       src/riscv.cpp:252    .text:00000000000005fc .L0 
     /tmp/ccEFbENn.s:1057   .text:0000000000000600 .L0 
     /tmp/ccEFbENn.s:1059   .text:0000000000000600 .L0 
     /tmp/ccEFbENn.s:1062   .text:0000000000000608 .L0 
     /tmp/ccEFbENn.s:1063   .text:000000000000060c .L0 
     /tmp/ccEFbENn.s:1065   .text:0000000000000610 .L0 
     /tmp/ccEFbENn.s:1066   .text:0000000000000610 .L0 
     /tmp/ccEFbENn.s:1068   .text:0000000000000614 .L0 
     /tmp/ccEFbENn.s:1070   .text:0000000000000618 .L0 
     /tmp/ccEFbENn.s:1076   .text:0000000000000618 _ZN5RiscV21executeMemFreeSyscallEv
GAS LISTING /tmp/ccEFbENn.s 			page 102


     /tmp/ccEFbENn.s:1079   .text:0000000000000618 .L0 
     /tmp/ccEFbENn.s:1080   .text:0000000000000618 .L0 
     /tmp/ccEFbENn.s:1081   .text:000000000000061c .L0 
     /tmp/ccEFbENn.s:1084   .text:0000000000000624 .L0 
     /tmp/ccEFbENn.s:1085   .text:0000000000000624 .L0 
     /tmp/ccEFbENn.s:1087   .text:0000000000000628 .L0 
     /tmp/ccEFbENn.s:1089   .text:0000000000000628 .L0 
     /tmp/ccEFbENn.s:1090   .text:0000000000000628 .L0 
     /tmp/ccEFbENn.s:1094   .text:0000000000000638 .L0 
     /tmp/ccEFbENn.s:1098   .text:000000000000063c .L0 
       src/riscv.cpp:272    .text:000000000000063c .L0 
     /tmp/ccEFbENn.s:1104   .text:0000000000000640 .L0 
     /tmp/ccEFbENn.s:1106   .text:0000000000000640 .L0 
     /tmp/ccEFbENn.s:1109   .text:0000000000000648 .L0 
     /tmp/ccEFbENn.s:1110   .text:000000000000064c .L0 
     /tmp/ccEFbENn.s:1111   .text:000000000000064c .L0 
     /tmp/ccEFbENn.s:1113   .text:0000000000000650 .L0 
     /tmp/ccEFbENn.s:1114   .text:0000000000000650 .L0 
     /tmp/ccEFbENn.s:1116   .text:0000000000000654 .L0 
     /tmp/ccEFbENn.s:1119   .text:0000000000000658 .L0 
     /tmp/ccEFbENn.s:1121   .text:0000000000000658 .L0 
       src/riscv.cpp:265    .text:0000000000000658 .L0 
     /tmp/ccEFbENn.s:1128   .text:000000000000065c .L0 
     /tmp/ccEFbENn.s:1130   .text:000000000000065c .L0 
     /tmp/ccEFbENn.s:1133   .text:0000000000000664 .L0 
     /tmp/ccEFbENn.s:1134   .text:0000000000000668 .L0 
     /tmp/ccEFbENn.s:1140   .text:0000000000000668 _ZN5RiscV26executeThreadCreateSyscallEv
     /tmp/ccEFbENn.s:1143   .text:0000000000000668 .L0 
     /tmp/ccEFbENn.s:11155  .data.rel.local.DW.ref.__gxx_personality_v0:0000000000000000 DW.ref.__gxx_personality_v0
     /tmp/ccEFbENn.s:1146   .text:0000000000000668 .L0 
     /tmp/ccEFbENn.s:1147   .text:000000000000066c .L0 
     /tmp/ccEFbENn.s:1155   .text:0000000000000688 .L0 
     /tmp/ccEFbENn.s:1156   .text:0000000000000688 .L0 
     /tmp/ccEFbENn.s:1157   .text:0000000000000688 .L0 
     /tmp/ccEFbENn.s:1158   .text:0000000000000688 .L0 
     /tmp/ccEFbENn.s:1159   .text:0000000000000688 .L0 
     /tmp/ccEFbENn.s:1160   .text:0000000000000688 .L0 
     /tmp/ccEFbENn.s:1161   .text:0000000000000688 .L0 
     /tmp/ccEFbENn.s:1163   .text:000000000000068c .L0 
     /tmp/ccEFbENn.s:1165   .text:000000000000068c .L0 
     /tmp/ccEFbENn.s:1166   .text:000000000000068c .L0 
       src/riscv.cpp:282    .text:000000000000068c .L0 
     /tmp/ccEFbENn.s:1173   .text:0000000000000690 .L0 
       src/riscv.cpp:283    .text:0000000000000690 .L0 
     /tmp/ccEFbENn.s:1179   .text:0000000000000694 .L0 
       src/riscv.cpp:284    .text:0000000000000694 .L0 
     /tmp/ccEFbENn.s:1185   .text:0000000000000698 .L0 
       src/riscv.cpp:285    .text:0000000000000698 .L0 
     /tmp/ccEFbENn.s:1191   .text:000000000000069c .L0 
     /tmp/ccEFbENn.s:1193   .text:000000000000069c .L0 
     /tmp/ccEFbENn.s:1201   .text:00000000000006b0 .L0 
     /tmp/ccEFbENn.s:1211   .text:00000000000006c8 .L0 
     /tmp/ccEFbENn.s:1212   .text:00000000000006c8 .L0 
     /tmp/ccEFbENn.s:1214   .text:00000000000006cc .L0 
     /tmp/ccEFbENn.s:1215   .text:00000000000006cc .L0 
     /tmp/ccEFbENn.s:1217   .text:00000000000006d0 .L0 
     /tmp/ccEFbENn.s:1219   .text:00000000000006d4 .L0 
GAS LISTING /tmp/ccEFbENn.s 			page 103


     /tmp/ccEFbENn.s:1220   .text:00000000000006d4 .L0 
     /tmp/ccEFbENn.s:1227   .text:00000000000006e0 .L0 
     /tmp/ccEFbENn.s:1228   .text:00000000000006e0 .L0 
     /tmp/ccEFbENn.s:1230   .text:00000000000006e4 .L0 
     /tmp/ccEFbENn.s:1234   .text:00000000000006e8 .L0 
       src/riscv.cpp:302    .text:00000000000006e8 .L0 
     /tmp/ccEFbENn.s:1240   .text:00000000000006ec .L0 
     /tmp/ccEFbENn.s:1242   .text:00000000000006ec .L0 
     /tmp/ccEFbENn.s:1245   .text:00000000000006f4 .L0 
     /tmp/ccEFbENn.s:1246   .text:00000000000006f8 .L0 
     /tmp/ccEFbENn.s:1247   .text:00000000000006f8 .L0 
     /tmp/ccEFbENn.s:1249   .text:00000000000006fc .L0 
     /tmp/ccEFbENn.s:1250   .text:00000000000006fc .L0 
     /tmp/ccEFbENn.s:1252   .text:0000000000000700 .L0 
     /tmp/ccEFbENn.s:1255   .text:0000000000000704 .L0 
     /tmp/ccEFbENn.s:1258   .text:0000000000000708 .L0 
     /tmp/ccEFbENn.s:1261   .text:000000000000070c .L0 
     /tmp/ccEFbENn.s:1264   .text:0000000000000710 .L0 
     /tmp/ccEFbENn.s:1267   .text:0000000000000714 .L0 
     /tmp/ccEFbENn.s:1271   .text:0000000000000718 .L0 
     /tmp/ccEFbENn.s:1273   .text:0000000000000718 .L0 
     /tmp/ccEFbENn.s:1280   .text:0000000000000724 .L0 
     /tmp/ccEFbENn.s:1288   .text:000000000000073c .L0 
     /tmp/ccEFbENn.s:1318   .text:000000000000073c _ZN5RiscV30executeThreadAttachBodySyscallEv
     /tmp/ccEFbENn.s:1321   .text:000000000000073c .L0 
     /tmp/ccEFbENn.s:1324   .text:000000000000073c .L0 
     /tmp/ccEFbENn.s:1325   .text:0000000000000740 .L0 
     /tmp/ccEFbENn.s:1333   .text:000000000000075c .L0 
     /tmp/ccEFbENn.s:1334   .text:000000000000075c .L0 
     /tmp/ccEFbENn.s:1335   .text:000000000000075c .L0 
     /tmp/ccEFbENn.s:1336   .text:000000000000075c .L0 
     /tmp/ccEFbENn.s:1337   .text:000000000000075c .L0 
     /tmp/ccEFbENn.s:1338   .text:000000000000075c .L0 
     /tmp/ccEFbENn.s:1339   .text:000000000000075c .L0 
     /tmp/ccEFbENn.s:1341   .text:0000000000000760 .L0 
     /tmp/ccEFbENn.s:1343   .text:0000000000000760 .L0 
     /tmp/ccEFbENn.s:1344   .text:0000000000000760 .L0 
       src/riscv.cpp:313    .text:0000000000000760 .L0 
     /tmp/ccEFbENn.s:1351   .text:0000000000000764 .L0 
       src/riscv.cpp:314    .text:0000000000000764 .L0 
     /tmp/ccEFbENn.s:1357   .text:0000000000000768 .L0 
       src/riscv.cpp:315    .text:0000000000000768 .L0 
     /tmp/ccEFbENn.s:1363   .text:000000000000076c .L0 
       src/riscv.cpp:316    .text:000000000000076c .L0 
     /tmp/ccEFbENn.s:1369   .text:0000000000000770 .L0 
     /tmp/ccEFbENn.s:1371   .text:0000000000000770 .L0 
     /tmp/ccEFbENn.s:1379   .text:0000000000000784 .L0 
     /tmp/ccEFbENn.s:1389   .text:000000000000079c .L0 
     /tmp/ccEFbENn.s:1390   .text:000000000000079c .L0 
     /tmp/ccEFbENn.s:1392   .text:00000000000007a0 .L0 
     /tmp/ccEFbENn.s:1393   .text:00000000000007a0 .L0 
     /tmp/ccEFbENn.s:1395   .text:00000000000007a4 .L0 
     /tmp/ccEFbENn.s:1396   .text:00000000000007a4 .L0 
     /tmp/ccEFbENn.s:1398   .text:00000000000007a8 .L0 
     /tmp/ccEFbENn.s:1399   .text:00000000000007a8 .L0 
     /tmp/ccEFbENn.s:1401   .text:00000000000007ac .L0 
     /tmp/ccEFbENn.s:1405   .text:00000000000007b0 .L0 
GAS LISTING /tmp/ccEFbENn.s 			page 104


       src/riscv.cpp:331    .text:00000000000007b0 .L0 
     /tmp/ccEFbENn.s:1411   .text:00000000000007b4 .L0 
     /tmp/ccEFbENn.s:1413   .text:00000000000007b4 .L0 
     /tmp/ccEFbENn.s:1416   .text:00000000000007bc .L0 
     /tmp/ccEFbENn.s:1417   .text:00000000000007c0 .L0 
     /tmp/ccEFbENn.s:1418   .text:00000000000007c0 .L0 
     /tmp/ccEFbENn.s:1420   .text:00000000000007c4 .L0 
     /tmp/ccEFbENn.s:1421   .text:00000000000007c4 .L0 
     /tmp/ccEFbENn.s:1423   .text:00000000000007c8 .L0 
     /tmp/ccEFbENn.s:1426   .text:00000000000007cc .L0 
     /tmp/ccEFbENn.s:1429   .text:00000000000007d0 .L0 
     /tmp/ccEFbENn.s:1432   .text:00000000000007d4 .L0 
     /tmp/ccEFbENn.s:1435   .text:00000000000007d8 .L0 
     /tmp/ccEFbENn.s:1438   .text:00000000000007dc .L0 
     /tmp/ccEFbENn.s:1442   .text:00000000000007e0 .L0 
     /tmp/ccEFbENn.s:1444   .text:00000000000007e0 .L0 
     /tmp/ccEFbENn.s:1451   .text:00000000000007ec .L0 
     /tmp/ccEFbENn.s:1459   .text:0000000000000804 .L0 
     /tmp/ccEFbENn.s:1484   .text:0000000000000804 _ZN5RiscV25executeThreadStartSyscallEv
     /tmp/ccEFbENn.s:1487   .text:0000000000000804 .L0 
     /tmp/ccEFbENn.s:1488   .text:0000000000000804 .L0 
     /tmp/ccEFbENn.s:1489   .text:0000000000000808 .L0 
     /tmp/ccEFbENn.s:1492   .text:0000000000000810 .L0 
     /tmp/ccEFbENn.s:1493   .text:0000000000000810 .L0 
     /tmp/ccEFbENn.s:1495   .text:0000000000000814 .L0 
     /tmp/ccEFbENn.s:1497   .text:0000000000000814 .L0 
     /tmp/ccEFbENn.s:1498   .text:0000000000000814 .L0 
       src/riscv.cpp:341    .text:0000000000000814 .L0 
     /tmp/ccEFbENn.s:1505   .text:0000000000000818 .L0 
     /tmp/ccEFbENn.s:1506   .text:0000000000000818 .L0 
     /tmp/ccEFbENn.s:1508   .text:0000000000000818 .L0 
     /tmp/ccEFbENn.s:1510   .text:000000000000081c .L0 
     /tmp/ccEFbENn.s:1514   .text:0000000000000820 .L0 
       src/riscv.cpp:358    .text:0000000000000820 .L0 
     /tmp/ccEFbENn.s:1520   .text:0000000000000824 .L0 
     /tmp/ccEFbENn.s:1522   .text:0000000000000824 .L0 
     /tmp/ccEFbENn.s:1525   .text:000000000000082c .L0 
     /tmp/ccEFbENn.s:1526   .text:0000000000000830 .L0 
     /tmp/ccEFbENn.s:1527   .text:0000000000000830 .L0 
     /tmp/ccEFbENn.s:1529   .text:0000000000000834 .L0 
     /tmp/ccEFbENn.s:1530   .text:0000000000000834 .L0 
     /tmp/ccEFbENn.s:1532   .text:0000000000000838 .L0 
     /tmp/ccEFbENn.s:1536   .text:000000000000083c .L0 
     /tmp/ccEFbENn.s:1538   .text:000000000000083c .L0 
     /tmp/ccEFbENn.s:1539   .text:000000000000083c .L0 
     /tmp/ccEFbENn.s:1542   .text:0000000000000844 .L0 
     /tmp/ccEFbENn.s:1543   .text:0000000000000844 .L0 
     /tmp/ccEFbENn.s:1546   .text:000000000000084c .L0 
     /tmp/ccEFbENn.s:1547   .text:000000000000084c .L0 
     /tmp/ccEFbENn.s:1550   .text:0000000000000854 .L0 
     /tmp/ccEFbENn.s:1552   .text:000000000000085c .L0 
     /tmp/ccEFbENn.s:1558   .text:000000000000085c _ZN5RiscV24executeThreadExitSyscallEv
     /tmp/ccEFbENn.s:1561   .text:000000000000085c .L0 
     /tmp/ccEFbENn.s:1562   .text:000000000000085c .L0 
     /tmp/ccEFbENn.s:1563   .text:0000000000000860 .L0 
     /tmp/ccEFbENn.s:1566   .text:0000000000000868 .L0 
     /tmp/ccEFbENn.s:1567   .text:0000000000000868 .L0 
GAS LISTING /tmp/ccEFbENn.s 			page 105


     /tmp/ccEFbENn.s:1569   .text:000000000000086c .L0 
     /tmp/ccEFbENn.s:1572   .text:000000000000086c .L0 
     /tmp/ccEFbENn.s:1574   .text:000000000000086c .L0 
     /tmp/ccEFbENn.s:1575   .text:000000000000086c .L0 
     /tmp/ccEFbENn.s:1578   .text:0000000000000878 .L0 
     /tmp/ccEFbENn.s:1582   .text:000000000000087c .L0 
     /tmp/ccEFbENn.s:1583   .text:000000000000087c .L0 
     /tmp/ccEFbENn.s:1584   .text:000000000000087c .L0 
     /tmp/ccEFbENn.s:1587   .text:0000000000000884 .L0 
     /tmp/ccEFbENn.s:1588   .text:0000000000000884 .L0 
     /tmp/ccEFbENn.s:1593   .text:000000000000088c .L0 
     /tmp/ccEFbENn.s:1597   .text:0000000000000890 .L0 
       src/riscv.cpp:378    .text:0000000000000890 .L0 
     /tmp/ccEFbENn.s:1603   .text:0000000000000894 .L0 
     /tmp/ccEFbENn.s:1605   .text:0000000000000894 .L0 
     /tmp/ccEFbENn.s:1608   .text:000000000000089c .L0 
     /tmp/ccEFbENn.s:1609   .text:00000000000008a0 .L0 
     /tmp/ccEFbENn.s:1610   .text:00000000000008a0 .L0 
     /tmp/ccEFbENn.s:1612   .text:00000000000008a4 .L0 
     /tmp/ccEFbENn.s:1613   .text:00000000000008a4 .L0 
     /tmp/ccEFbENn.s:1615   .text:00000000000008a8 .L0 
     /tmp/ccEFbENn.s:1619   .text:00000000000008ac .L0 
     /tmp/ccEFbENn.s:1622   .text:00000000000008ac .L0 
     /tmp/ccEFbENn.s:1625   .text:00000000000008b4 .L0 
     /tmp/ccEFbENn.s:1631   .text:00000000000008b4 _ZN5RiscV21executeSemOpenSyscallEv
     /tmp/ccEFbENn.s:1634   .text:00000000000008b4 .L0 
     /tmp/ccEFbENn.s:1637   .text:00000000000008b4 .L0 
     /tmp/ccEFbENn.s:1638   .text:00000000000008b8 .L0 
     /tmp/ccEFbENn.s:1644   .text:00000000000008cc .L0 
     /tmp/ccEFbENn.s:1645   .text:00000000000008cc .L0 
     /tmp/ccEFbENn.s:1646   .text:00000000000008cc .L0 
     /tmp/ccEFbENn.s:1647   .text:00000000000008cc .L0 
     /tmp/ccEFbENn.s:1648   .text:00000000000008cc .L0 
     /tmp/ccEFbENn.s:1650   .text:00000000000008d0 .L0 
     /tmp/ccEFbENn.s:1652   .text:00000000000008d0 .L0 
     /tmp/ccEFbENn.s:1653   .text:00000000000008d0 .L0 
       src/riscv.cpp:396    .text:00000000000008d0 .L0 
     /tmp/ccEFbENn.s:1660   .text:00000000000008d4 .L0 
       src/riscv.cpp:397    .text:00000000000008d4 .L0 
     /tmp/ccEFbENn.s:1666   .text:00000000000008d8 .L0 
     /tmp/ccEFbENn.s:1668   .text:00000000000008d8 .L0 
     /tmp/ccEFbENn.s:1676   .text:00000000000008ec .L0 
     /tmp/ccEFbENn.s:1683   .text:00000000000008f8 .L0 
     /tmp/ccEFbENn.s:1684   .text:00000000000008f8 .L0 
     /tmp/ccEFbENn.s:1686   .text:00000000000008fc .L0 
     /tmp/ccEFbENn.s:1687   .text:00000000000008fc .L0 
     /tmp/ccEFbENn.s:1689   .text:0000000000000900 .L0 
     /tmp/ccEFbENn.s:1693   .text:0000000000000904 .L0 
       src/riscv.cpp:412    .text:0000000000000904 .L0 
     /tmp/ccEFbENn.s:1699   .text:0000000000000908 .L0 
     /tmp/ccEFbENn.s:1701   .text:0000000000000908 .L0 
     /tmp/ccEFbENn.s:1704   .text:0000000000000910 .L0 
     /tmp/ccEFbENn.s:1705   .text:0000000000000914 .L0 
     /tmp/ccEFbENn.s:1706   .text:0000000000000914 .L0 
     /tmp/ccEFbENn.s:1708   .text:0000000000000918 .L0 
     /tmp/ccEFbENn.s:1709   .text:0000000000000918 .L0 
     /tmp/ccEFbENn.s:1711   .text:000000000000091c .L0 
GAS LISTING /tmp/ccEFbENn.s 			page 106


     /tmp/ccEFbENn.s:1714   .text:0000000000000920 .L0 
     /tmp/ccEFbENn.s:1717   .text:0000000000000924 .L0 
     /tmp/ccEFbENn.s:1720   .text:0000000000000928 .L0 
     /tmp/ccEFbENn.s:1724   .text:000000000000092c .L0 
     /tmp/ccEFbENn.s:1726   .text:000000000000092c .L0 
     /tmp/ccEFbENn.s:1733   .text:0000000000000938 .L0 
     /tmp/ccEFbENn.s:1741   .text:0000000000000950 .L0 
     /tmp/ccEFbENn.s:1766   .text:0000000000000950 _ZN5RiscV22executeSemCloseSyscallEv
     /tmp/ccEFbENn.s:1769   .text:0000000000000950 .L0 
     /tmp/ccEFbENn.s:1770   .text:0000000000000950 .L0 
     /tmp/ccEFbENn.s:1771   .text:0000000000000954 .L0 
     /tmp/ccEFbENn.s:1775   .text:0000000000000960 .L0 
     /tmp/ccEFbENn.s:1776   .text:0000000000000960 .L0 
     /tmp/ccEFbENn.s:1777   .text:0000000000000960 .L0 
     /tmp/ccEFbENn.s:1779   .text:0000000000000964 .L0 
     /tmp/ccEFbENn.s:1781   .text:0000000000000964 .L0 
     /tmp/ccEFbENn.s:1782   .text:0000000000000964 .L0 
       src/riscv.cpp:423    .text:0000000000000964 .L0 
     /tmp/ccEFbENn.s:1789   .text:0000000000000968 .L0 
     /tmp/ccEFbENn.s:1790   .text:0000000000000968 .L0 
     /tmp/ccEFbENn.s:1792   .text:0000000000000968 .L0 
     /tmp/ccEFbENn.s:1794   .text:000000000000096c .L0 
     /tmp/ccEFbENn.s:1798   .text:0000000000000970 .L0 
       src/riscv.cpp:436    .text:0000000000000970 .L0 
     /tmp/ccEFbENn.s:1804   .text:0000000000000974 .L0 
     /tmp/ccEFbENn.s:1806   .text:0000000000000974 .L0 
     /tmp/ccEFbENn.s:1809   .text:000000000000097c .L0 
     /tmp/ccEFbENn.s:1810   .text:0000000000000980 .L0 
     /tmp/ccEFbENn.s:1811   .text:0000000000000980 .L0 
     /tmp/ccEFbENn.s:1813   .text:0000000000000984 .L0 
     /tmp/ccEFbENn.s:1814   .text:0000000000000984 .L0 
     /tmp/ccEFbENn.s:1816   .text:0000000000000988 .L0 
     /tmp/ccEFbENn.s:1819   .text:000000000000098c .L0 
     /tmp/ccEFbENn.s:1823   .text:0000000000000990 .L0 
     /tmp/ccEFbENn.s:1825   .text:0000000000000990 .L0 
     /tmp/ccEFbENn.s:1826   .text:0000000000000990 .L0 
     /tmp/ccEFbENn.s:1833   .text:00000000000009a8 .L0 
     /tmp/ccEFbENn.s:1835   .text:00000000000009b0 .L0 
     /tmp/ccEFbENn.s:1841   .text:00000000000009b0 _ZN5RiscV21executeSemWaitSyscallEv
     /tmp/ccEFbENn.s:1844   .text:00000000000009b0 .L0 
     /tmp/ccEFbENn.s:1845   .text:00000000000009b0 .L0 
     /tmp/ccEFbENn.s:1846   .text:00000000000009b4 .L0 
     /tmp/ccEFbENn.s:1849   .text:00000000000009bc .L0 
     /tmp/ccEFbENn.s:1850   .text:00000000000009bc .L0 
     /tmp/ccEFbENn.s:1852   .text:00000000000009c0 .L0 
     /tmp/ccEFbENn.s:1854   .text:00000000000009c0 .L0 
     /tmp/ccEFbENn.s:1855   .text:00000000000009c0 .L0 
       src/riscv.cpp:446    .text:00000000000009c0 .L0 
     /tmp/ccEFbENn.s:1862   .text:00000000000009c4 .L0 
     /tmp/ccEFbENn.s:1864   .text:00000000000009c4 .L0 
     /tmp/ccEFbENn.s:1868   .text:00000000000009c8 .L0 
     /tmp/ccEFbENn.s:1869   .text:00000000000009c8 .L0 
     /tmp/ccEFbENn.s:1873   .text:00000000000009d8 .L0 
     /tmp/ccEFbENn.s:1875   .text:00000000000009dc .L0 
     /tmp/ccEFbENn.s:1879   .text:00000000000009e0 .L0 
       src/riscv.cpp:462    .text:00000000000009e0 .L0 
     /tmp/ccEFbENn.s:1885   .text:00000000000009e4 .L0 
GAS LISTING /tmp/ccEFbENn.s 			page 107


     /tmp/ccEFbENn.s:1887   .text:00000000000009e4 .L0 
     /tmp/ccEFbENn.s:1890   .text:00000000000009ec .L0 
     /tmp/ccEFbENn.s:1891   .text:00000000000009f0 .L0 
     /tmp/ccEFbENn.s:1892   .text:00000000000009f0 .L0 
     /tmp/ccEFbENn.s:1894   .text:00000000000009f4 .L0 
     /tmp/ccEFbENn.s:1895   .text:00000000000009f4 .L0 
     /tmp/ccEFbENn.s:1897   .text:00000000000009f8 .L0 
     /tmp/ccEFbENn.s:1901   .text:00000000000009fc .L0 
     /tmp/ccEFbENn.s:1903   .text:00000000000009fc .L0 
     /tmp/ccEFbENn.s:1904   .text:00000000000009fc .L0 
     /tmp/ccEFbENn.s:1910   .text:0000000000000a08 .L0 
     /tmp/ccEFbENn.s:1912   .text:0000000000000a10 .L0 
     /tmp/ccEFbENn.s:1918   .text:0000000000000a10 _ZN5RiscV23executeSemSignalSyscallEv
     /tmp/ccEFbENn.s:1921   .text:0000000000000a10 .L0 
     /tmp/ccEFbENn.s:1922   .text:0000000000000a10 .L0 
     /tmp/ccEFbENn.s:1923   .text:0000000000000a14 .L0 
     /tmp/ccEFbENn.s:1926   .text:0000000000000a1c .L0 
     /tmp/ccEFbENn.s:1927   .text:0000000000000a1c .L0 
     /tmp/ccEFbENn.s:1929   .text:0000000000000a20 .L0 
     /tmp/ccEFbENn.s:1931   .text:0000000000000a20 .L0 
     /tmp/ccEFbENn.s:1932   .text:0000000000000a20 .L0 
       src/riscv.cpp:473    .text:0000000000000a20 .L0 
     /tmp/ccEFbENn.s:1939   .text:0000000000000a24 .L0 
     /tmp/ccEFbENn.s:1941   .text:0000000000000a24 .L0 
     /tmp/ccEFbENn.s:1943   .text:0000000000000a28 .L0 
     /tmp/ccEFbENn.s:1947   .text:0000000000000a2c .L0 
       src/riscv.cpp:485    .text:0000000000000a2c .L0 
     /tmp/ccEFbENn.s:1953   .text:0000000000000a30 .L0 
     /tmp/ccEFbENn.s:1955   .text:0000000000000a30 .L0 
     /tmp/ccEFbENn.s:1958   .text:0000000000000a38 .L0 
     /tmp/ccEFbENn.s:1959   .text:0000000000000a3c .L0 
     /tmp/ccEFbENn.s:1960   .text:0000000000000a3c .L0 
     /tmp/ccEFbENn.s:1962   .text:0000000000000a40 .L0 
     /tmp/ccEFbENn.s:1963   .text:0000000000000a40 .L0 
     /tmp/ccEFbENn.s:1965   .text:0000000000000a44 .L0 
     /tmp/ccEFbENn.s:1969   .text:0000000000000a48 .L0 
     /tmp/ccEFbENn.s:1971   .text:0000000000000a48 .L0 
     /tmp/ccEFbENn.s:1972   .text:0000000000000a48 .L0 
     /tmp/ccEFbENn.s:1975   .text:0000000000000a50 .L0 
     /tmp/ccEFbENn.s:1977   .text:0000000000000a58 .L0 
     /tmp/ccEFbENn.s:1983   .text:0000000000000a58 _ZN5RiscV23executeTimeSleepSyscallEv
     /tmp/ccEFbENn.s:1986   .text:0000000000000a58 .L0 
     /tmp/ccEFbENn.s:1987   .text:0000000000000a58 .L0 
     /tmp/ccEFbENn.s:1988   .text:0000000000000a5c .L0 
     /tmp/ccEFbENn.s:1992   .text:0000000000000a68 .L0 
     /tmp/ccEFbENn.s:1993   .text:0000000000000a68 .L0 
     /tmp/ccEFbENn.s:1994   .text:0000000000000a68 .L0 
     /tmp/ccEFbENn.s:1996   .text:0000000000000a6c .L0 
     /tmp/ccEFbENn.s:1998   .text:0000000000000a6c .L0 
     /tmp/ccEFbENn.s:1999   .text:0000000000000a6c .L0 
       src/riscv.cpp:495    .text:0000000000000a6c .L0 
     /tmp/ccEFbENn.s:2005   .text:0000000000000a70 .L0 
     /tmp/ccEFbENn.s:2007   .text:0000000000000a70 .L0 
     /tmp/ccEFbENn.s:2011   .text:0000000000000a7c .L0 
     /tmp/ccEFbENn.s:2012   .text:0000000000000a7c .L0 
     /tmp/ccEFbENn.s:2015   .text:0000000000000a88 .L0 
     /tmp/ccEFbENn.s:2016   .text:0000000000000a88 .L0 
GAS LISTING /tmp/ccEFbENn.s 			page 108


     /tmp/ccEFbENn.s:2018   .text:0000000000000a8c .L0 
     /tmp/ccEFbENn.s:2020   .text:0000000000000a90 .L0 
     /tmp/ccEFbENn.s:2021   .text:0000000000000a90 .L0 
     /tmp/ccEFbENn.s:2025   .text:0000000000000a9c .L0 
     /tmp/ccEFbENn.s:2026   .text:0000000000000a9c .L0 
     /tmp/ccEFbENn.s:2029   .text:0000000000000aa4 .L0 
     /tmp/ccEFbENn.s:2030   .text:0000000000000aa4 .L0 
     /tmp/ccEFbENn.s:2033   .text:0000000000000aac .L0 
     /tmp/ccEFbENn.s:2034   .text:0000000000000aac .L0 
     /tmp/ccEFbENn.s:2035   .text:0000000000000aac .L0 
     /tmp/ccEFbENn.s:2041   .text:0000000000000ab4 .L0 
     /tmp/ccEFbENn.s:2043   .text:0000000000000ab4 .L0 
     /tmp/ccEFbENn.s:2046   .text:0000000000000abc .L0 
     /tmp/ccEFbENn.s:2047   .text:0000000000000ac0 .L0 
     /tmp/ccEFbENn.s:2049   .text:0000000000000ac4 .L0 
     /tmp/ccEFbENn.s:2050   .text:0000000000000ac4 .L0 
     /tmp/ccEFbENn.s:2052   .text:0000000000000ac8 .L0 
     /tmp/ccEFbENn.s:2055   .text:0000000000000acc .L0 
     /tmp/ccEFbENn.s:2057   .text:0000000000000ad0 .L0 
     /tmp/ccEFbENn.s:2063   .text:0000000000000ad0 _ZN5RiscV18executeGetcSyscallEv
     /tmp/ccEFbENn.s:2066   .text:0000000000000ad0 .L0 
     /tmp/ccEFbENn.s:2067   .text:0000000000000ad0 .L0 
     /tmp/ccEFbENn.s:2068   .text:0000000000000ad4 .L0 
     /tmp/ccEFbENn.s:2072   .text:0000000000000ae0 .L0 
     /tmp/ccEFbENn.s:2073   .text:0000000000000ae0 .L0 
     /tmp/ccEFbENn.s:2074   .text:0000000000000ae0 .L0 
     /tmp/ccEFbENn.s:2076   .text:0000000000000ae4 .L0 
     /tmp/ccEFbENn.s:2078   .text:0000000000000ae4 .L0 
     /tmp/ccEFbENn.s:2079   .text:0000000000000ae4 .L0 
     /tmp/ccEFbENn.s:2081   .text:0000000000000aec .L0 
     /tmp/ccEFbENn.s:2083   .text:0000000000000af0 .L0 
     /tmp/ccEFbENn.s:2084   .text:0000000000000af0 .L0 
     /tmp/ccEFbENn.s:2090   .text:0000000000000b04 .L0 
     /tmp/ccEFbENn.s:2091   .text:0000000000000b04 .L0 
     /tmp/ccEFbENn.s:2096   .text:0000000000000b10 .L0 
     /tmp/ccEFbENn.s:2099   .text:0000000000000b18 .L0 
     /tmp/ccEFbENn.s:2104   .text:0000000000000b20 .L0 
       src/riscv.cpp:536    .text:0000000000000b20 .L0 
     /tmp/ccEFbENn.s:2110   .text:0000000000000b24 .L0 
     /tmp/ccEFbENn.s:2112   .text:0000000000000b24 .L0 
     /tmp/ccEFbENn.s:2115   .text:0000000000000b2c .L0 
     /tmp/ccEFbENn.s:2116   .text:0000000000000b30 .L0 
     /tmp/ccEFbENn.s:2117   .text:0000000000000b30 .L0 
     /tmp/ccEFbENn.s:2119   .text:0000000000000b34 .L0 
     /tmp/ccEFbENn.s:2120   .text:0000000000000b34 .L0 
     /tmp/ccEFbENn.s:2122   .text:0000000000000b38 .L0 
     /tmp/ccEFbENn.s:2124   .text:0000000000000b3c .L0 
     /tmp/ccEFbENn.s:2128   .text:0000000000000b40 .L0 
     /tmp/ccEFbENn.s:2130   .text:0000000000000b40 .L0 
     /tmp/ccEFbENn.s:2131   .text:0000000000000b40 .L0 
     /tmp/ccEFbENn.s:2136   .text:0000000000000b4c .L0 
     /tmp/ccEFbENn.s:2137   .text:0000000000000b4c .L0 
     /tmp/ccEFbENn.s:2144   .text:0000000000000b5c .L0 
     /tmp/ccEFbENn.s:2145   .text:0000000000000b5c .L0 
     /tmp/ccEFbENn.s:2148   .text:0000000000000b68 .L0 
     /tmp/ccEFbENn.s:2154   .text:0000000000000b68 _ZN5RiscV22executePutcUtilSyscallEv
     /tmp/ccEFbENn.s:2157   .text:0000000000000b68 .L0 
GAS LISTING /tmp/ccEFbENn.s 			page 109


     /tmp/ccEFbENn.s:2158   .text:0000000000000b68 .L0 
     /tmp/ccEFbENn.s:2159   .text:0000000000000b6c .L0 
     /tmp/ccEFbENn.s:2162   .text:0000000000000b74 .L0 
     /tmp/ccEFbENn.s:2163   .text:0000000000000b74 .L0 
     /tmp/ccEFbENn.s:2165   .text:0000000000000b78 .L0 
     /tmp/ccEFbENn.s:2167   .text:0000000000000b78 .L0 
     /tmp/ccEFbENn.s:2168   .text:0000000000000b78 .L0 
     /tmp/ccEFbENn.s:2171   .text:0000000000000b80 .L0 
       src/riscv.cpp:591    .text:0000000000000b80 .L0 
     /tmp/ccEFbENn.s:2177   .text:0000000000000b84 .L0 
     /tmp/ccEFbENn.s:2179   .text:0000000000000b84 .L0 
     /tmp/ccEFbENn.s:2182   .text:0000000000000b8c .L0 
     /tmp/ccEFbENn.s:2183   .text:0000000000000b90 .L0 
     /tmp/ccEFbENn.s:2185   .text:0000000000000b94 .L0 
     /tmp/ccEFbENn.s:2186   .text:0000000000000b94 .L0 
     /tmp/ccEFbENn.s:2188   .text:0000000000000b98 .L0 
     /tmp/ccEFbENn.s:2190   .text:0000000000000b9c .L0 
     /tmp/ccEFbENn.s:2196   .text:0000000000000b9c _ZN5RiscV24executeThreadFreeSyscallEv
     /tmp/ccEFbENn.s:2199   .text:0000000000000b9c .L0 
     /tmp/ccEFbENn.s:2200   .text:0000000000000b9c .L0 
     /tmp/ccEFbENn.s:2201   .text:0000000000000ba0 .L0 
     /tmp/ccEFbENn.s:2205   .text:0000000000000bac .L0 
     /tmp/ccEFbENn.s:2206   .text:0000000000000bac .L0 
     /tmp/ccEFbENn.s:2207   .text:0000000000000bac .L0 
     /tmp/ccEFbENn.s:2209   .text:0000000000000bb0 .L0 
     /tmp/ccEFbENn.s:2211   .text:0000000000000bb0 .L0 
     /tmp/ccEFbENn.s:2212   .text:0000000000000bb0 .L0 
       src/riscv.cpp:643    .text:0000000000000bb0 .L0 
     /tmp/ccEFbENn.s:2219   .text:0000000000000bb4 .L0 
     /tmp/ccEFbENn.s:2221   .text:0000000000000bb4 .L0 
     /tmp/ccEFbENn.s:2225   .text:0000000000000bb8 .L0 
     /tmp/ccEFbENn.s:2226   .text:0000000000000bb8 .L0 
     /tmp/ccEFbENn.s:2232   .text:0000000000000bc0 .L0 
     /tmp/ccEFbENn.s:2234   .text:0000000000000bc0 .L0 
     /tmp/ccEFbENn.s:2237   .text:0000000000000bc8 .L0 
     /tmp/ccEFbENn.s:2238   .text:0000000000000bcc .L0 
     /tmp/ccEFbENn.s:2239   .text:0000000000000bcc .L0 
     /tmp/ccEFbENn.s:2241   .text:0000000000000bd0 .L0 
     /tmp/ccEFbENn.s:2242   .text:0000000000000bd0 .L0 
     /tmp/ccEFbENn.s:2244   .text:0000000000000bd4 .L0 
     /tmp/ccEFbENn.s:2247   .text:0000000000000bd8 .L0 
     /tmp/ccEFbENn.s:2251   .text:0000000000000bdc .L0 
     /tmp/ccEFbENn.s:2253   .text:0000000000000bdc .L0 
     /tmp/ccEFbENn.s:2254   .text:0000000000000bdc .L0 
     /tmp/ccEFbENn.s:2258   .text:0000000000000be8 .L0 
     /tmp/ccEFbENn.s:2259   .text:0000000000000be8 .L0 
     /tmp/ccEFbENn.s:2266   .text:0000000000000c04 .L0 
     /tmp/ccEFbENn.s:2272   .text:0000000000000c04 _ZN5RiscV27executeSemaphoreFreeSyscallEv
     /tmp/ccEFbENn.s:2275   .text:0000000000000c04 .L0 
     /tmp/ccEFbENn.s:2276   .text:0000000000000c04 .L0 
     /tmp/ccEFbENn.s:2277   .text:0000000000000c08 .L0 
     /tmp/ccEFbENn.s:2281   .text:0000000000000c14 .L0 
     /tmp/ccEFbENn.s:2282   .text:0000000000000c14 .L0 
     /tmp/ccEFbENn.s:2283   .text:0000000000000c14 .L0 
     /tmp/ccEFbENn.s:2285   .text:0000000000000c18 .L0 
     /tmp/ccEFbENn.s:2287   .text:0000000000000c18 .L0 
     /tmp/ccEFbENn.s:2288   .text:0000000000000c18 .L0 
GAS LISTING /tmp/ccEFbENn.s 			page 110


       src/riscv.cpp:665    .text:0000000000000c18 .L0 
     /tmp/ccEFbENn.s:2295   .text:0000000000000c1c .L0 
     /tmp/ccEFbENn.s:2297   .text:0000000000000c1c .L0 
     /tmp/ccEFbENn.s:2301   .text:0000000000000c20 .L0 
     /tmp/ccEFbENn.s:2302   .text:0000000000000c20 .L0 
     /tmp/ccEFbENn.s:2308   .text:0000000000000c28 .L0 
     /tmp/ccEFbENn.s:2310   .text:0000000000000c28 .L0 
     /tmp/ccEFbENn.s:2313   .text:0000000000000c30 .L0 
     /tmp/ccEFbENn.s:2314   .text:0000000000000c34 .L0 
     /tmp/ccEFbENn.s:2315   .text:0000000000000c34 .L0 
     /tmp/ccEFbENn.s:2317   .text:0000000000000c38 .L0 
     /tmp/ccEFbENn.s:2318   .text:0000000000000c38 .L0 
     /tmp/ccEFbENn.s:2320   .text:0000000000000c3c .L0 
     /tmp/ccEFbENn.s:2323   .text:0000000000000c40 .L0 
     /tmp/ccEFbENn.s:2327   .text:0000000000000c44 .L0 
     /tmp/ccEFbENn.s:2329   .text:0000000000000c44 .L0 
     /tmp/ccEFbENn.s:2330   .text:0000000000000c44 .L0 
     /tmp/ccEFbENn.s:2337   .text:0000000000000c60 .L0 
     /tmp/ccEFbENn.s:2343   .text:0000000000000c60 _ZN5RiscV18executeForkSyscallEv
     /tmp/ccEFbENn.s:2346   .text:0000000000000c60 .L0 
     /tmp/ccEFbENn.s:2349   .text:0000000000000c60 .L0 
     /tmp/ccEFbENn.s:2350   .text:0000000000000c64 .L0 
     /tmp/ccEFbENn.s:2355   .text:0000000000000c74 .L0 
     /tmp/ccEFbENn.s:2356   .text:0000000000000c74 .L0 
     /tmp/ccEFbENn.s:2357   .text:0000000000000c74 .L0 
     /tmp/ccEFbENn.s:2358   .text:0000000000000c74 .L0 
     /tmp/ccEFbENn.s:2360   .text:0000000000000c78 .L0 
     /tmp/ccEFbENn.s:2362   .text:0000000000000c78 .L0 
     /tmp/ccEFbENn.s:2363   .text:0000000000000c78 .L0 
     /tmp/ccEFbENn.s:2370   .text:0000000000000c88 .L0 
     /tmp/ccEFbENn.s:2371   .text:0000000000000c88 .L0 
     /tmp/ccEFbENn.s:2380   .text:0000000000000ca8 .L0 
     /tmp/ccEFbENn.s:2381   .text:0000000000000ca8 .L0 
     /tmp/ccEFbENn.s:2388   .text:0000000000000cbc .L0 
     /tmp/ccEFbENn.s:2398   .text:0000000000000cd4 .L0 
     /tmp/ccEFbENn.s:2400   .text:0000000000000cd4 .L0 
     /tmp/ccEFbENn.s:2403   .text:0000000000000cd8 .L0 
     /tmp/ccEFbENn.s:2404   .text:0000000000000cd8 .L0 
     /tmp/ccEFbENn.s:2408   .text:0000000000000ce8 .L0 
     /tmp/ccEFbENn.s:2409   .text:0000000000000ce8 .L0 
     /tmp/ccEFbENn.s:2412   .text:0000000000000cf4 .L0 
     /tmp/ccEFbENn.s:2414   .text:0000000000000cf8 .L0 
     /tmp/ccEFbENn.s:2417   .text:0000000000000d04 .L0 
     /tmp/ccEFbENn.s:2419   .text:0000000000000d08 .L0 
     /tmp/ccEFbENn.s:2421   .text:0000000000000d0c .L0 
     /tmp/ccEFbENn.s:2423   .text:0000000000000d10 .L0 
     /tmp/ccEFbENn.s:2424   .text:0000000000000d10 .L0 
     /tmp/ccEFbENn.s:2427   .text:0000000000000d18 .L0 
     /tmp/ccEFbENn.s:2429   .text:0000000000000d1c .L0 
     /tmp/ccEFbENn.s:2431   .text:0000000000000d20 .L0 
     /tmp/ccEFbENn.s:2434   .text:0000000000000d24 .L0 
     /tmp/ccEFbENn.s:2435   .text:0000000000000d24 .L0 
     /tmp/ccEFbENn.s:2437   .text:0000000000000d28 .L0 
     /tmp/ccEFbENn.s:2438   .text:0000000000000d28 .L0 
       src/riscv.cpp:710    .text:0000000000000d28 .L0 
     /tmp/ccEFbENn.s:2444   .text:0000000000000d2c .L0 
       src/riscv.cpp:712    .text:0000000000000d2c .L0 
GAS LISTING /tmp/ccEFbENn.s 			page 111


     /tmp/ccEFbENn.s:2449   .text:0000000000000d30 .L0 
       src/riscv.cpp:714    .text:0000000000000d30 .L0 
     /tmp/ccEFbENn.s:2454   .text:0000000000000d34 .L0 
       src/riscv.cpp:716    .text:0000000000000d34 .L0 
     /tmp/ccEFbENn.s:2459   .text:0000000000000d38 .L0 
       src/riscv.cpp:718    .text:0000000000000d38 .L0 
     /tmp/ccEFbENn.s:2464   .text:0000000000000d3c .L0 
       src/riscv.cpp:721    .text:0000000000000d3c .L0 
     /tmp/ccEFbENn.s:2469   .text:0000000000000d40 .L0 
       src/riscv.cpp:723    .text:0000000000000d40 .L0 
     /tmp/ccEFbENn.s:2474   .text:0000000000000d44 .L0 
       src/riscv.cpp:725    .text:0000000000000d44 .L0 
     /tmp/ccEFbENn.s:2479   .text:0000000000000d48 .L0 
       src/riscv.cpp:727    .text:0000000000000d48 .L0 
     /tmp/ccEFbENn.s:2484   .text:0000000000000d4c .L0 
     /tmp/ccEFbENn.s:2486   .text:0000000000000d4c .L0 
     /tmp/ccEFbENn.s:2489   .text:0000000000000d54 .L0 
     /tmp/ccEFbENn.s:2491   .text:0000000000000d58 .L0 
     /tmp/ccEFbENn.s:2492   .text:0000000000000d58 .L0 
     /tmp/ccEFbENn.s:2494   .text:0000000000000d5c .L0 
     /tmp/ccEFbENn.s:2496   .text:0000000000000d60 .L0 
     /tmp/ccEFbENn.s:2497   .text:0000000000000d60 .L0 
     /tmp/ccEFbENn.s:2506   .text:0000000000000d6c .L0 
     /tmp/ccEFbENn.s:2507   .text:0000000000000d6c .L0 
       src/riscv.cpp:741    .text:0000000000000d6c .L0 
     /tmp/ccEFbENn.s:2513   .text:0000000000000d70 .L0 
     /tmp/ccEFbENn.s:2515   .text:0000000000000d70 .L0 
     /tmp/ccEFbENn.s:2518   .text:0000000000000d78 .L0 
     /tmp/ccEFbENn.s:2519   .text:0000000000000d7c .L0 
     /tmp/ccEFbENn.s:2520   .text:0000000000000d7c .L0 
     /tmp/ccEFbENn.s:2522   .text:0000000000000d80 .L0 
     /tmp/ccEFbENn.s:2523   .text:0000000000000d80 .L0 
     /tmp/ccEFbENn.s:2525   .text:0000000000000d84 .L0 
     /tmp/ccEFbENn.s:2528   .text:0000000000000d88 .L0 
     /tmp/ccEFbENn.s:2530   .text:0000000000000d8c .L0 
     /tmp/ccEFbENn.s:2534   .text:0000000000000d90 .L0 
     /tmp/ccEFbENn.s:2537   .text:0000000000000d90 .L0 
     /tmp/ccEFbENn.s:2546   .text:0000000000000d9c .L0 
     /tmp/ccEFbENn.s:2554   .text:0000000000000db4 .L0 
     /tmp/ccEFbENn.s:2583   .text:0000000000000db4 _ZN5RiscV5getPCEv
     /tmp/ccEFbENn.s:2586   .text:0000000000000db4 .L0 
     /tmp/ccEFbENn.s:2587   .text:0000000000000db4 .L0 
     /tmp/ccEFbENn.s:2588   .text:0000000000000db8 .L0 
     /tmp/ccEFbENn.s:2590   .text:0000000000000dbc .L0 
     /tmp/ccEFbENn.s:2592   .text:0000000000000dc0 .L0 
     /tmp/ccEFbENn.s:2594   .text:0000000000000dc0 .L0 
     /tmp/ccEFbENn.s:2595   .text:0000000000000dc0 .L0 
       src/riscv.cpp:750    .text:0000000000000dc0 .L0 
     /tmp/ccEFbENn.s:2602   .text:0000000000000dc4 .L0 
     /tmp/ccEFbENn.s:2604   .text:0000000000000dc4 .L0 
     /tmp/ccEFbENn.s:2607   .text:0000000000000dc8 .L0 
     /tmp/ccEFbENn.s:2610   .text:0000000000000dd4 .L0 
     /tmp/ccEFbENn.s:2611   .text:0000000000000dd8 .L0 
     /tmp/ccEFbENn.s:2612   .text:0000000000000dd8 .L0 
     /tmp/ccEFbENn.s:2614   .text:0000000000000ddc .L0 
     /tmp/ccEFbENn.s:2616   .text:0000000000000de0 .L0 
     /tmp/ccEFbENn.s:2642   .text:0000000000000de0 _ZN5RiscV20handleSupervisorTrapEv
GAS LISTING /tmp/ccEFbENn.s 			page 112


     /tmp/ccEFbENn.s:2645   .text:0000000000000de0 .L0 
     /tmp/ccEFbENn.s:2646   .text:0000000000000de0 .L0 
     /tmp/ccEFbENn.s:2647   .text:0000000000000de4 .L0 
     /tmp/ccEFbENn.s:2650   .text:0000000000000dec .L0 
     /tmp/ccEFbENn.s:2651   .text:0000000000000dec .L0 
     /tmp/ccEFbENn.s:2653   .text:0000000000000df0 .L0 
     /tmp/ccEFbENn.s:2657   .text:0000000000000df0 .L0 
     /tmp/ccEFbENn.s:2658   .text:0000000000000df0 .L0 
     /tmp/ccEFbENn.s:2659   .text:0000000000000df0 .L0 
  src/../h/riscv.hpp:140    .text:0000000000000df0 .L0 
     /tmp/ccEFbENn.s:2667   .text:0000000000000df8 .L0 
     /tmp/ccEFbENn.s:2668   .text:0000000000000df8 .L0 
     /tmp/ccEFbENn.s:2672   .text:0000000000000dfc .L0 
     /tmp/ccEFbENn.s:2674   .text:0000000000000e00 .L0 
     /tmp/ccEFbENn.s:2675   .text:0000000000000e00 .L0 
       src/riscv.cpp:93     .text:0000000000000e0c .L0 
     /tmp/ccEFbENn.s:2686   .text:0000000000000e14 .L0 
     /tmp/ccEFbENn.s:2687   .text:0000000000000e14 .L0 
     /tmp/ccEFbENn.s:2689   .text:0000000000000e18 .L0 
     /tmp/ccEFbENn.s:2692   .text:0000000000000e20 .L0 
     /tmp/ccEFbENn.s:2694   .text:0000000000000e24 .L0 
     /tmp/ccEFbENn.s:2700   .text:0000000000000e2c .L0 
     /tmp/ccEFbENn.s:2701   .text:0000000000000e2c .L0 
     /tmp/ccEFbENn.s:2703   .text:0000000000000e30 .L0 
     /tmp/ccEFbENn.s:2713   .text:0000000000000e40 .L0 
     /tmp/ccEFbENn.s:2714   .text:0000000000000e40 .L0 
     /tmp/ccEFbENn.s:2716   .text:0000000000000e44 .L0 
     /tmp/ccEFbENn.s:2728   .text:0000000000000e54 .L0 
     /tmp/ccEFbENn.s:2729   .text:0000000000000e54 .L0 
     /tmp/ccEFbENn.s:2731   .text:0000000000000e58 .L0 
     /tmp/ccEFbENn.s:2735   .text:0000000000000e60 .L0 
     /tmp/ccEFbENn.s:2736   .text:0000000000000e60 .L0 
     /tmp/ccEFbENn.s:2740   .text:0000000000000e70 .L0 
     /tmp/ccEFbENn.s:2741   .text:0000000000000e70 .L0 
     /tmp/ccEFbENn.s:2747   .text:0000000000000e80 .L0 
     /tmp/ccEFbENn.s:2748   .text:0000000000000e80 .L0 
     /tmp/ccEFbENn.s:2749   .text:0000000000000e80 .L0 
  src/../h/riscv.hpp:140    .text:0000000000000e80 .L0 
     /tmp/ccEFbENn.s:2757   .text:0000000000000e88 .L0 
     /tmp/ccEFbENn.s:2758   .text:0000000000000e88 .L0 
     /tmp/ccEFbENn.s:2763   .text:0000000000000e8c .L0 
     /tmp/ccEFbENn.s:2764   .text:0000000000000e8c .L0 
     /tmp/ccEFbENn.s:2771   .text:0000000000000ea0 .L0 
     /tmp/ccEFbENn.s:2772   .text:0000000000000ea0 .L0 
     /tmp/ccEFbENn.s:2778   .text:0000000000000eb0 .L0 
     /tmp/ccEFbENn.s:2779   .text:0000000000000eb0 .L0 
     /tmp/ccEFbENn.s:2780   .text:0000000000000eb0 .L0 
  src/../h/riscv.hpp:150    .text:0000000000000eb0 .L0 
     /tmp/ccEFbENn.s:2789   .text:0000000000000eb4 .L0 
     /tmp/ccEFbENn.s:2790   .text:0000000000000eb4 .L0 
     /tmp/ccEFbENn.s:2791   .text:0000000000000eb4 .L0 
     /tmp/ccEFbENn.s:2797   .text:0000000000000ec8 .L0 
     /tmp/ccEFbENn.s:2798   .text:0000000000000ec8 .L0 
     /tmp/ccEFbENn.s:2802   .text:0000000000000ed8 .L0 
     /tmp/ccEFbENn.s:2803   .text:0000000000000ed8 .L0 
     /tmp/ccEFbENn.s:2807   .text:0000000000000ee4 .L0 
     /tmp/ccEFbENn.s:2808   .text:0000000000000ee4 .L0 
GAS LISTING /tmp/ccEFbENn.s 			page 113


     /tmp/ccEFbENn.s:2811   .text:0000000000000eec .L0 
     /tmp/ccEFbENn.s:2812   .text:0000000000000eec .L0 
     /tmp/ccEFbENn.s:2816   .text:0000000000000efc .L0 
     /tmp/ccEFbENn.s:2817   .text:0000000000000efc .L0 
     /tmp/ccEFbENn.s:2829   .text:0000000000000f08 .L0 
     /tmp/ccEFbENn.s:2830   .text:0000000000000f08 .L0 
     /tmp/ccEFbENn.s:2831   .text:0000000000000f08 .L0 
  src/../h/riscv.hpp:170    .text:0000000000000f08 .L0 
     /tmp/ccEFbENn.s:2841   .text:0000000000000f0c .L0 
     /tmp/ccEFbENn.s:2842   .text:0000000000000f0c .L0 
     /tmp/ccEFbENn.s:2846   .text:0000000000000f10 .L0 
     /tmp/ccEFbENn.s:2847   .text:0000000000000f10 .L0 
     /tmp/ccEFbENn.s:2848   .text:0000000000000f10 .L0 
  src/../h/riscv.hpp:150    .text:0000000000000f10 .L0 
     /tmp/ccEFbENn.s:2858   .text:0000000000000f14 .L0 
     /tmp/ccEFbENn.s:2859   .text:0000000000000f14 .L0 
     /tmp/ccEFbENn.s:2861   .text:0000000000000f18 .L0 
     /tmp/ccEFbENn.s:2863   .text:0000000000000f1c .L0 
     /tmp/ccEFbENn.s:2864   .text:0000000000000f1c .L0 
     /tmp/ccEFbENn.s:2867   .text:0000000000000f28 .L0 
     /tmp/ccEFbENn.s:2870   .text:0000000000000f30 .L0 
     /tmp/ccEFbENn.s:2871   .text:0000000000000f30 .L0 
     /tmp/ccEFbENn.s:2874   .text:0000000000000f38 .L0 
     /tmp/ccEFbENn.s:2875   .text:0000000000000f38 .L0 
       src/riscv.cpp:107    .text:0000000000000f38 .L0 
     /tmp/ccEFbENn.s:2883   .text:0000000000000f3c .L0 
     /tmp/ccEFbENn.s:2997   .text:0000000000000f60 .L0 
     /tmp/ccEFbENn.s:2998   .text:0000000000000f60 .L0 
     /tmp/ccEFbENn.s:2999   .text:0000000000000f60 .L0 
     /tmp/ccEFbENn.s:3003   .text:0000000000000f68 .L0 
     /tmp/ccEFbENn.s:3004   .text:0000000000000f68 .L0 
     /tmp/ccEFbENn.s:3005   .text:0000000000000f68 .L0 
     /tmp/ccEFbENn.s:3012   .text:0000000000000f78 .L0 
  src/../h/riscv.hpp:165    .text:0000000000000f78 .L0 
     /tmp/ccEFbENn.s:3022   .text:0000000000000f7c .L0 
     /tmp/ccEFbENn.s:3023   .text:0000000000000f7c .L0 
     /tmp/ccEFbENn.s:3028   .text:0000000000000f80 .L0 
  src/../h/riscv.hpp:155    .text:0000000000000f80 .L0 
     /tmp/ccEFbENn.s:3041   .text:0000000000000f84 .L0 
     /tmp/ccEFbENn.s:3042   .text:0000000000000f84 .L0 
     /tmp/ccEFbENn.s:3045   .text:0000000000000f8c .L0 
     /tmp/ccEFbENn.s:3046   .text:0000000000000f90 .L0 
     /tmp/ccEFbENn.s:3047   .text:0000000000000f90 .L0 
     /tmp/ccEFbENn.s:3049   .text:0000000000000f94 .L0 
     /tmp/ccEFbENn.s:3050   .text:0000000000000f94 .L0 
     /tmp/ccEFbENn.s:3052   .text:0000000000000f98 .L0 
     /tmp/ccEFbENn.s:3055   .text:0000000000000f9c .L0 
     /tmp/ccEFbENn.s:3059   .text:0000000000000f9c .L0 
     /tmp/ccEFbENn.s:3060   .text:0000000000000f9c .L0 
     /tmp/ccEFbENn.s:3061   .text:0000000000000f9c .L0 
     /tmp/ccEFbENn.s:3064   .text:0000000000000fa4 .L0 
     /tmp/ccEFbENn.s:3067   .text:0000000000000fa8 .L0 
     /tmp/ccEFbENn.s:3068   .text:0000000000000fa8 .L0 
     /tmp/ccEFbENn.s:3069   .text:0000000000000fa8 .L0 
     /tmp/ccEFbENn.s:3072   .text:0000000000000fb0 .L0 
     /tmp/ccEFbENn.s:3075   .text:0000000000000fb4 .L0 
     /tmp/ccEFbENn.s:3076   .text:0000000000000fb4 .L0 
GAS LISTING /tmp/ccEFbENn.s 			page 114


     /tmp/ccEFbENn.s:3077   .text:0000000000000fb4 .L0 
     /tmp/ccEFbENn.s:3080   .text:0000000000000fbc .L0 
     /tmp/ccEFbENn.s:3083   .text:0000000000000fc0 .L0 
     /tmp/ccEFbENn.s:3084   .text:0000000000000fc0 .L0 
     /tmp/ccEFbENn.s:3085   .text:0000000000000fc0 .L0 
     /tmp/ccEFbENn.s:3088   .text:0000000000000fc8 .L0 
     /tmp/ccEFbENn.s:3091   .text:0000000000000fcc .L0 
     /tmp/ccEFbENn.s:3092   .text:0000000000000fcc .L0 
     /tmp/ccEFbENn.s:3093   .text:0000000000000fcc .L0 
     /tmp/ccEFbENn.s:3096   .text:0000000000000fd4 .L0 
     /tmp/ccEFbENn.s:3099   .text:0000000000000fd8 .L0 
     /tmp/ccEFbENn.s:3100   .text:0000000000000fd8 .L0 
     /tmp/ccEFbENn.s:3101   .text:0000000000000fd8 .L0 
     /tmp/ccEFbENn.s:3104   .text:0000000000000fe0 .L0 
     /tmp/ccEFbENn.s:3107   .text:0000000000000fe4 .L0 
     /tmp/ccEFbENn.s:3108   .text:0000000000000fe4 .L0 
     /tmp/ccEFbENn.s:3109   .text:0000000000000fe4 .L0 
     /tmp/ccEFbENn.s:3112   .text:0000000000000fec .L0 
     /tmp/ccEFbENn.s:3115   .text:0000000000000ff0 .L0 
     /tmp/ccEFbENn.s:3116   .text:0000000000000ff0 .L0 
     /tmp/ccEFbENn.s:3117   .text:0000000000000ff0 .L0 
     /tmp/ccEFbENn.s:3120   .text:0000000000000ff8 .L0 
     /tmp/ccEFbENn.s:3123   .text:0000000000000ffc .L0 
     /tmp/ccEFbENn.s:3124   .text:0000000000000ffc .L0 
     /tmp/ccEFbENn.s:3125   .text:0000000000000ffc .L0 
     /tmp/ccEFbENn.s:3128   .text:0000000000001004 .L0 
     /tmp/ccEFbENn.s:3131   .text:0000000000001008 .L0 
     /tmp/ccEFbENn.s:3132   .text:0000000000001008 .L0 
     /tmp/ccEFbENn.s:3133   .text:0000000000001008 .L0 
     /tmp/ccEFbENn.s:3136   .text:0000000000001010 .L0 
     /tmp/ccEFbENn.s:3139   .text:0000000000001014 .L0 
     /tmp/ccEFbENn.s:3140   .text:0000000000001014 .L0 
     /tmp/ccEFbENn.s:3141   .text:0000000000001014 .L0 
     /tmp/ccEFbENn.s:3144   .text:000000000000101c .L0 
     /tmp/ccEFbENn.s:3147   .text:0000000000001020 .L0 
     /tmp/ccEFbENn.s:3148   .text:0000000000001020 .L0 
     /tmp/ccEFbENn.s:3149   .text:0000000000001020 .L0 
     /tmp/ccEFbENn.s:3152   .text:0000000000001028 .L0 
     /tmp/ccEFbENn.s:3155   .text:000000000000102c .L0 
     /tmp/ccEFbENn.s:3156   .text:000000000000102c .L0 
     /tmp/ccEFbENn.s:3157   .text:000000000000102c .L0 
     /tmp/ccEFbENn.s:3160   .text:0000000000001034 .L0 
     /tmp/ccEFbENn.s:3163   .text:0000000000001038 .L0 
     /tmp/ccEFbENn.s:3164   .text:0000000000001038 .L0 
     /tmp/ccEFbENn.s:3165   .text:0000000000001038 .L0 
     /tmp/ccEFbENn.s:3168   .text:0000000000001040 .L0 
     /tmp/ccEFbENn.s:3171   .text:0000000000001044 .L0 
     /tmp/ccEFbENn.s:3172   .text:0000000000001044 .L0 
     /tmp/ccEFbENn.s:3173   .text:0000000000001044 .L0 
     /tmp/ccEFbENn.s:3176   .text:000000000000104c .L0 
     /tmp/ccEFbENn.s:3179   .text:0000000000001050 .L0 
     /tmp/ccEFbENn.s:3180   .text:0000000000001050 .L0 
     /tmp/ccEFbENn.s:3181   .text:0000000000001050 .L0 
     /tmp/ccEFbENn.s:3184   .text:0000000000001058 .L0 
     /tmp/ccEFbENn.s:3187   .text:000000000000105c .L0 
     /tmp/ccEFbENn.s:3188   .text:000000000000105c .L0 
       src/riscv.cpp:130    .text:000000000000105c .L0 
GAS LISTING /tmp/ccEFbENn.s 			page 115


     /tmp/ccEFbENn.s:3197   .text:000000000000106c .L0 
     /tmp/ccEFbENn.s:3198   .text:000000000000106c .L0 
     /tmp/ccEFbENn.s:3201   .text:0000000000001074 .L0 
     /tmp/ccEFbENn.s:3202   .text:0000000000001074 .L0 
     /tmp/ccEFbENn.s:3205   .text:000000000000107c .L0 
     /tmp/ccEFbENn.s:3213   .text:0000000000001080 .L0 
     /tmp/ccEFbENn.s:3214   .text:0000000000001080 .L0 
     /tmp/ccEFbENn.s:3215   .text:0000000000001080 .L0 
  src/../h/riscv.hpp:170    .text:0000000000001080 .L0 
     /tmp/ccEFbENn.s:3225   .text:0000000000001084 .L0 
     /tmp/ccEFbENn.s:3226   .text:0000000000001084 .L0 
     /tmp/ccEFbENn.s:3230   .text:0000000000001088 .L0 
     /tmp/ccEFbENn.s:3231   .text:0000000000001088 .L0 
     /tmp/ccEFbENn.s:3232   .text:0000000000001088 .L0 
  src/../h/riscv.hpp:150    .text:0000000000001088 .L0 
     /tmp/ccEFbENn.s:3242   .text:000000000000108c .L0 
     /tmp/ccEFbENn.s:3243   .text:000000000000108c .L0 
     /tmp/ccEFbENn.s:3248   .text:0000000000001090 .L0 
     /tmp/ccEFbENn.s:3249   .text:0000000000001090 .L0 
     /tmp/ccEFbENn.s:3250   .text:0000000000001090 .L0 
     /tmp/ccEFbENn.s:3260   .text:0000000000001098 .L0 
     /tmp/ccEFbENn.s:3261   .text:0000000000001098 .L0 
     /tmp/ccEFbENn.s:3266   .text:00000000000010ac .L0 
     /tmp/ccEFbENn.s:3267   .text:00000000000010ac .L0 
     /tmp/ccEFbENn.s:3270   .text:00000000000010b4 .L0 
     /tmp/ccEFbENn.s:3271   .text:00000000000010b4 .L0 
     /tmp/ccEFbENn.s:3277   .text:00000000000010c8 .L0 
     /tmp/ccEFbENn.s:3278   .text:00000000000010c8 .L0 
     /tmp/ccEFbENn.s:3282   .text:00000000000010d8 .L0 
     /tmp/ccEFbENn.s:3286   .text:00000000000010dc .L0 
     /tmp/ccEFbENn.s:3287   .text:00000000000010dc .L0 
     /tmp/ccEFbENn.s:3292   .text:00000000000010e0 .L0 
  src/../h/riscv.hpp:165    .text:00000000000010e0 .L0 
     /tmp/ccEFbENn.s:3302   .text:00000000000010e4 .L0 
     /tmp/ccEFbENn.s:3303   .text:00000000000010e4 .L0 
     /tmp/ccEFbENn.s:3308   .text:00000000000010e8 .L0 
  src/../h/riscv.hpp:155    .text:00000000000010e8 .L0 
     /tmp/ccEFbENn.s:3315   .text:00000000000010ec .L0 
     /tmp/ccEFbENn.s:3323   .text:00000000000010f0 .L0 
     /tmp/ccEFbENn.s:3324   .text:00000000000010f0 .L0 
     /tmp/ccEFbENn.s:3328   .text:00000000000010fc .L0 
     /tmp/ccEFbENn.s:3329   .text:00000000000010fc .L0 
     /tmp/ccEFbENn.s:3330   .text:00000000000010fc .L0 
     /tmp/ccEFbENn.s:3333   .text:0000000000001104 .L0 
     /tmp/ccEFbENn.s:3334   .text:0000000000001104 .L0 
     /tmp/ccEFbENn.s:3346   .text:0000000000001110 .L0 
     /tmp/ccEFbENn.s:3347   .text:0000000000001110 .L0 
     /tmp/ccEFbENn.s:3348   .text:0000000000001110 .L0 
  src/../h/riscv.hpp:170    .text:0000000000001110 .L0 
     /tmp/ccEFbENn.s:3358   .text:0000000000001114 .L0 
     /tmp/ccEFbENn.s:3359   .text:0000000000001114 .L0 
     /tmp/ccEFbENn.s:3363   .text:0000000000001118 .L0 
     /tmp/ccEFbENn.s:3364   .text:0000000000001118 .L0 
     /tmp/ccEFbENn.s:3365   .text:0000000000001118 .L0 
  src/../h/riscv.hpp:150    .text:0000000000001118 .L0 
     /tmp/ccEFbENn.s:3375   .text:000000000000111c .L0 
     /tmp/ccEFbENn.s:3376   .text:000000000000111c .L0 
GAS LISTING /tmp/ccEFbENn.s 			page 116


     /tmp/ccEFbENn.s:3378   .text:0000000000001120 .L0 
     /tmp/ccEFbENn.s:3379   .text:0000000000001120 .L0 
     /tmp/ccEFbENn.s:3383   .text:000000000000112c .L0 
       src/riscv.cpp:185    .text:000000000000112c .L0 
     /tmp/ccEFbENn.s:3389   .text:0000000000001130 .L0 
       src/riscv.cpp:186    .text:0000000000001130 .L0 
     /tmp/ccEFbENn.s:3394   .text:0000000000001134 .L0 
       src/riscv.cpp:187    .text:0000000000001134 .L0 
     /tmp/ccEFbENn.s:3402   .text:0000000000001138 .L0 
     /tmp/ccEFbENn.s:3403   .text:0000000000001138 .L0 
     /tmp/ccEFbENn.s:3406   .text:000000000000113c .L0 
     /tmp/ccEFbENn.s:3409   .text:0000000000001140 .L0 
     /tmp/ccEFbENn.s:3410   .text:0000000000001140 .L0 
     /tmp/ccEFbENn.s:3411   .text:0000000000001140 .L0 
     /tmp/ccEFbENn.s:3412   .text:0000000000001140 .L0 
     /tmp/ccEFbENn.s:3416   .text:000000000000114c .L0 
       src/riscv.cpp:196    .text:000000000000114c .L0 
     /tmp/ccEFbENn.s:3422   .text:0000000000001150 .L0 
       src/riscv.cpp:197    .text:0000000000001150 .L0 
     /tmp/ccEFbENn.s:3427   .text:0000000000001154 .L0 
       src/riscv.cpp:198    .text:0000000000001154 .L0 
     /tmp/ccEFbENn.s:3435   .text:000000000000115c .L0 
     /tmp/ccEFbENn.s:3436   .text:000000000000115c .L0 
     /tmp/ccEFbENn.s:3440   .text:0000000000001168 .L0 
     /tmp/ccEFbENn.s:3446   .text:000000000000116c .L0 
     /tmp/ccEFbENn.s:3447   .text:000000000000116c .L0 
     /tmp/ccEFbENn.s:3452   .text:000000000000117c .L0 
     /tmp/ccEFbENn.s:3453   .text:000000000000117c .L0 
     /tmp/ccEFbENn.s:3458   .text:0000000000001180 .L0 
  src/../h/riscv.hpp:165    .text:0000000000001180 .L0 
     /tmp/ccEFbENn.s:3468   .text:0000000000001184 .L0 
     /tmp/ccEFbENn.s:3469   .text:0000000000001184 .L0 
     /tmp/ccEFbENn.s:3474   .text:0000000000001188 .L0 
  src/../h/riscv.hpp:155    .text:0000000000001188 .L0 
     /tmp/ccEFbENn.s:3481   .text:000000000000118c .L0 
     /tmp/ccEFbENn.s:3489   .text:0000000000001190 .L0 
     /tmp/ccEFbENn.s:3490   .text:0000000000001190 .L0 
     /tmp/ccEFbENn.s:3494   .text:00000000000011a0 .L0 
     /tmp/ccEFbENn.s:3495   .text:00000000000011a0 .L0 
     /tmp/ccEFbENn.s:3506   .text:00000000000011ac .L0 
     /tmp/ccEFbENn.s:3507   .text:00000000000011ac .L0 
     /tmp/ccEFbENn.s:3511   .text:00000000000011b8 .L0 
     /tmp/ccEFbENn.s:3512   .text:00000000000011b8 .L0 
     /tmp/ccEFbENn.s:3515   .text:00000000000011c0 .L0 
     /tmp/ccEFbENn.s:3516   .text:00000000000011c0 .L0 
     /tmp/ccEFbENn.s:3522   .text:00000000000011d0 .L0 
     /tmp/ccEFbENn.s:3523   .text:00000000000011d0 .L0 
     /tmp/ccEFbENn.s:3524   .text:00000000000011d0 .L0 
  src/../h/riscv.hpp:150    .text:00000000000011d0 .L0 
     /tmp/ccEFbENn.s:3533   .text:00000000000011d4 .L0 
     /tmp/ccEFbENn.s:3534   .text:00000000000011d4 .L0 
     /tmp/ccEFbENn.s:3535   .text:00000000000011d4 .L0 
     /tmp/ccEFbENn.s:3541   .text:00000000000011e8 .L0 
     /tmp/ccEFbENn.s:3542   .text:00000000000011e8 .L0 
     /tmp/ccEFbENn.s:3546   .text:00000000000011f8 .L0 
     /tmp/ccEFbENn.s:3547   .text:00000000000011f8 .L0 
     /tmp/ccEFbENn.s:3551   .text:0000000000001208 .L0 
GAS LISTING /tmp/ccEFbENn.s 			page 117


     /tmp/ccEFbENn.s:3552   .text:0000000000001208 .L0 
     /tmp/ccEFbENn.s:3560   .text:0000000000001214 .L0 
     /tmp/ccEFbENn.s:3576   .bss:0000000000000008 _ZN5RiscV4uPMTE
     /tmp/ccEFbENn.s:3572   .bss:0000000000000000 _ZN5RiscV4kPMTE
     /tmp/ccEFbENn.s:3580   .bss:0000000000000010 _ZN5RiscV16userMainFinishedE
     /tmp/ccEFbENn.s:3585   .bss:0000000000000018 _ZN5RiscV10globalTimeE
     /tmp/ccEFbENn.s:3569   .bss:0000000000000000 .LANCHOR0
     /tmp/ccEFbENn.s:3601   .text:0000000000001214 .L0 
     /tmp/ccEFbENn.s:250    .text:0000000000000158 .L0 
     /tmp/ccEFbENn.s:267    .text:0000000000000164 .L0 
     /tmp/ccEFbENn.s:301    .text:00000000000001b8 .L0 
     /tmp/ccEFbENn.s:318    .text:00000000000001d8 .L0 
     /tmp/ccEFbENn.s:323    .text:00000000000001e8 .L0 
     /tmp/ccEFbENn.s:347    .text:0000000000000224 .L0 
     /tmp/ccEFbENn.s:349    .text:0000000000000230 .L0 
     /tmp/ccEFbENn.s:358    .text:000000000000024c .L0 
     /tmp/ccEFbENn.s:367    .text:000000000000026c .L0 
     /tmp/ccEFbENn.s:551    .text:0000000000000374 .L0 
     /tmp/ccEFbENn.s:591    .text:00000000000003b0 .L0 
     /tmp/ccEFbENn.s:596    .text:00000000000003bc .L0 
     /tmp/ccEFbENn.s:659    .text:000000000000040c .L0 
     /tmp/ccEFbENn.s:696    .text:0000000000000438 .L0 
     /tmp/ccEFbENn.s:723    .text:0000000000000454 .L0 
     /tmp/ccEFbENn.s:730    .text:0000000000000468 .L0 
     /tmp/ccEFbENn.s:755    .text:0000000000000484 .L0 
     /tmp/ccEFbENn.s:764    .text:000000000000049c .L0 
     /tmp/ccEFbENn.s:811    .text:00000000000004cc .L0 
     /tmp/ccEFbENn.s:865    .text:0000000000000508 .L0 
     /tmp/ccEFbENn.s:868    .text:0000000000000510 .L0 
     /tmp/ccEFbENn.s:872    .text:000000000000051c .L0 
     /tmp/ccEFbENn.s:925    .text:0000000000000538 .L0 
     /tmp/ccEFbENn.s:932    .text:000000000000054c .L0 
     /tmp/ccEFbENn.s:939    .text:000000000000055c .L0 
     /tmp/ccEFbENn.s:946    .text:0000000000000570 .L0 
     /tmp/ccEFbENn.s:948    .text:000000000000057c .L0 
     /tmp/ccEFbENn.s:993    .text:00000000000005b8 .L0 
     /tmp/ccEFbENn.s:1090   .text:0000000000000628 .L0 
     /tmp/ccEFbENn.s:1575   .text:000000000000086c .L0 
     /tmp/ccEFbENn.s:1869   .text:00000000000009c8 .L0 
     /tmp/ccEFbENn.s:2007   .text:0000000000000a70 .L0 
     /tmp/ccEFbENn.s:2012   .text:0000000000000a7c .L0 
     /tmp/ccEFbENn.s:2079   .text:0000000000000ae4 .L0 
     /tmp/ccEFbENn.s:2084   .text:0000000000000af0 .L0 
     /tmp/ccEFbENn.s:2371   .text:0000000000000c88 .L0 
     /tmp/ccEFbENn.s:2404   .text:0000000000000cd8 .L0 
     /tmp/ccEFbENn.s:2409   .text:0000000000000ce8 .L0 
     /tmp/ccEFbENn.s:2414   .text:0000000000000cf8 .L0 
     /tmp/ccEFbENn.s:2607   .text:0000000000000dc8 .L0 
     /tmp/ccEFbENn.s:2675   .text:0000000000000e00 .L0 
     /tmp/ccEFbENn.s:2630   .rodata.str1.8:0000000000000038 .LC3
     /tmp/ccEFbENn.s:2736   .text:0000000000000e60 .L0 
     /tmp/ccEFbENn.s:2633   .rodata.str1.8:0000000000000048 .LC4
     /tmp/ccEFbENn.s:2741   .text:0000000000000e70 .L0 
     /tmp/ccEFbENn.s:2621   .rodata.str1.8:0000000000000000 .LC0
     /tmp/ccEFbENn.s:2772   .text:0000000000000ea0 .L0 
     /tmp/ccEFbENn.s:2624   .rodata.str1.8:0000000000000008 .LC1
     /tmp/ccEFbENn.s:2798   .text:0000000000000ec8 .L0 
GAS LISTING /tmp/ccEFbENn.s 			page 118


     /tmp/ccEFbENn.s:2803   .text:0000000000000ed8 .L0 
     /tmp/ccEFbENn.s:2636   .rodata.str1.8:0000000000000058 .LC5
     /tmp/ccEFbENn.s:2812   .text:0000000000000eec .L0 
     /tmp/ccEFbENn.s:2864   .text:0000000000000f1c .L0 
     /tmp/ccEFbENn.s:2895   .rodata:0000000000000000 .L135
     /tmp/ccEFbENn.s:2887   .text:0000000000000f48 .L0 
     /tmp/ccEFbENn.s:3005   .text:0000000000000f68 .L0 
     /tmp/ccEFbENn.s:3194   .text:0000000000001060 .L0 
     /tmp/ccEFbENn.s:3261   .text:0000000000001098 .L0 
     /tmp/ccEFbENn.s:3271   .text:00000000000010b4 .L0 
     /tmp/ccEFbENn.s:3278   .text:00000000000010c8 .L0 
     /tmp/ccEFbENn.s:3324   .text:00000000000010f0 .L0 
     /tmp/ccEFbENn.s:3379   .text:0000000000001120 .L0 
     /tmp/ccEFbENn.s:3412   .text:0000000000001140 .L0 
     /tmp/ccEFbENn.s:3436   .text:000000000000115c .L0 
     /tmp/ccEFbENn.s:3491   .text:0000000000001194 .L0 
     /tmp/ccEFbENn.s:3507   .text:00000000000011ac .L0 
     /tmp/ccEFbENn.s:3516   .text:00000000000011c0 .L0 
     /tmp/ccEFbENn.s:3542   .text:00000000000011e8 .L0 
     /tmp/ccEFbENn.s:2627   .rodata.str1.8:0000000000000010 .LC2
     /tmp/ccEFbENn.s:3547   .text:00000000000011f8 .L0 
     /tmp/ccEFbENn.s:48     .text:000000000000003c .L1
     /tmp/ccEFbENn.s:33     .text:0000000000000020 .L3
     /tmp/ccEFbENn.s:188    .text:00000000000000fc .L12
     /tmp/ccEFbENn.s:205    .text:0000000000000118 .L13
     /tmp/ccEFbENn.s:166    .text:00000000000000d8 .L5
     /tmp/ccEFbENn.s:126    .text:00000000000000a4 .L7
     /tmp/ccEFbENn.s:145    .text:00000000000000bc .L9
     /tmp/ccEFbENn.s:343    .text:0000000000000224 .L15
     /tmp/ccEFbENn.s:316    .text:00000000000001d8 .L16
     /tmp/ccEFbENn.s:600    .text:00000000000003d0 .L23
     /tmp/ccEFbENn.s:652    .text:000000000000040c .L26
     /tmp/ccEFbENn.s:645    .text:0000000000000404 .L27
     /tmp/ccEFbENn.s:805    .text:00000000000004cc .L34
     /tmp/ccEFbENn.s:792    .text:00000000000004c0 .L30
     /tmp/ccEFbENn.s:936    .text:000000000000055c .L36
     /tmp/ccEFbENn.s:917    .text:0000000000000538 .L37
     /tmp/ccEFbENn.s:957    .text:0000000000000598 .L35
     /tmp/ccEFbENn.s:943    .text:0000000000000570 .L39
     /tmp/ccEFbENn.s:1118   .text:0000000000000658 .L49
     /tmp/ccEFbENn.s:1095   .text:000000000000063c .L46
     /tmp/ccEFbENn.s:1209   .text:00000000000006c8 .L51
     /tmp/ccEFbENn.s:1270   .text:0000000000000718 .L55
     /tmp/ccEFbENn.s:1225   .text:00000000000006e0 .L53
     /tmp/ccEFbENn.s:1231   .text:00000000000006e8 .L52
     /tmp/ccEFbENn.s:1387   .text:000000000000079c .L60
     /tmp/ccEFbENn.s:1441   .text:00000000000007e0 .L63
     /tmp/ccEFbENn.s:1402   .text:00000000000007b0 .L61
     /tmp/ccEFbENn.s:1535   .text:000000000000083c .L71
     /tmp/ccEFbENn.s:1512   .text:0000000000000820 .L68
     /tmp/ccEFbENn.s:1618   .text:00000000000008ac .L74
     /tmp/ccEFbENn.s:1594   .text:0000000000000890 .L73
     /tmp/ccEFbENn.s:1681   .text:00000000000008f8 .L77
     /tmp/ccEFbENn.s:1723   .text:000000000000092c .L80
     /tmp/ccEFbENn.s:1690   .text:0000000000000904 .L78
     /tmp/ccEFbENn.s:1822   .text:0000000000000990 .L88
     /tmp/ccEFbENn.s:1795   .text:0000000000000970 .L85
GAS LISTING /tmp/ccEFbENn.s 			page 119


     /tmp/ccEFbENn.s:1900   .text:00000000000009fc .L94
     /tmp/ccEFbENn.s:1908   .text:0000000000000a08 .L92
     /tmp/ccEFbENn.s:1866   .text:00000000000009c8 .L90
     /tmp/ccEFbENn.s:1876   .text:00000000000009e0 .L91
     /tmp/ccEFbENn.s:1968   .text:0000000000000a48 .L99
     /tmp/ccEFbENn.s:1945   .text:0000000000000a2c .L96
     /tmp/ccEFbENn.s:2088   .text:0000000000000b04 .L103
     /tmp/ccEFbENn.s:2127   .text:0000000000000b40 .L107
     /tmp/ccEFbENn.s:2142   .text:0000000000000b5c .L108
     /tmp/ccEFbENn.s:2102   .text:0000000000000b20 .L105
     /tmp/ccEFbENn.s:2250   .text:0000000000000bdc .L114
     /tmp/ccEFbENn.s:2222   .text:0000000000000bb8 .L112
     /tmp/ccEFbENn.s:2326   .text:0000000000000c44 .L118
     /tmp/ccEFbENn.s:2298   .text:0000000000000c20 .L116
     /tmp/ccEFbENn.s:2396   .text:0000000000000cd4 .L120
     /tmp/ccEFbENn.s:2533   .text:0000000000000d90 .L123
     /tmp/ccEFbENn.s:2503   .text:0000000000000d6c .L121
     /tmp/ccEFbENn.s:2820   .text:0000000000000f08 .L130
     /tmp/ccEFbENn.s:3206   .text:0000000000001080 .L160
     /tmp/ccEFbENn.s:3338   .text:0000000000001110 .L161
     /tmp/ccEFbENn.s:3499   .text:00000000000011ac .L162
     /tmp/ccEFbENn.s:3035   .text:0000000000000f84 .L153
     /tmp/ccEFbENn.s:3002   .text:0000000000000f68 .L133
     /tmp/ccEFbENn.s:3317   .text:00000000000010f0 .L163
     /tmp/ccEFbENn.s:3283   .text:00000000000010dc .L154
     /tmp/ccEFbENn.s:3442   .text:000000000000116c .L156
     /tmp/ccEFbENn.s:3483   .text:0000000000001190 .L164
     /tmp/ccEFbENn.s:1194   .text:00000000000006a0 .LEHB0
     /tmp/ccEFbENn.s:1141   .text:0000000000000668 .LFB49
     /tmp/ccEFbENn.s:1197   .text:00000000000006a8 .LEHE0
     /tmp/ccEFbENn.s:1205   .text:00000000000006c0 .LEHB1
     /tmp/ccEFbENn.s:1208   .text:00000000000006c8 .LEHE1
     /tmp/ccEFbENn.s:1276   .text:0000000000000720 .L56
     /tmp/ccEFbENn.s:1221   .text:00000000000006d8 .LEHB2
     /tmp/ccEFbENn.s:1224   .text:00000000000006e0 .LEHE2
     /tmp/ccEFbENn.s:1284   .text:0000000000000734 .LEHB3
     /tmp/ccEFbENn.s:1287   .text:000000000000073c .LEHE3
     /tmp/ccEFbENn.s:1372   .text:0000000000000774 .LEHB4
     /tmp/ccEFbENn.s:1319   .text:000000000000073c .LFB50
     /tmp/ccEFbENn.s:1375   .text:000000000000077c .LEHE4
     /tmp/ccEFbENn.s:1383   .text:0000000000000794 .LEHB5
     /tmp/ccEFbENn.s:1386   .text:000000000000079c .LEHE5
     /tmp/ccEFbENn.s:1447   .text:00000000000007e8 .L64
     /tmp/ccEFbENn.s:1455   .text:00000000000007fc .LEHB6
     /tmp/ccEFbENn.s:1458   .text:0000000000000804 .LEHE6
     /tmp/ccEFbENn.s:1669   .text:00000000000008dc .LEHB7
     /tmp/ccEFbENn.s:1632   .text:00000000000008b4 .LFB54
     /tmp/ccEFbENn.s:1672   .text:00000000000008e4 .LEHE7
     /tmp/ccEFbENn.s:1677   .text:00000000000008f0 .LEHB8
     /tmp/ccEFbENn.s:1680   .text:00000000000008f8 .LEHE8
     /tmp/ccEFbENn.s:1729   .text:0000000000000934 .L81
     /tmp/ccEFbENn.s:1737   .text:0000000000000948 .LEHB9
     /tmp/ccEFbENn.s:1740   .text:0000000000000950 .LEHE9
     /tmp/ccEFbENn.s:2364   .text:0000000000000c7c .LEHB10
     /tmp/ccEFbENn.s:2344   .text:0000000000000c60 .LFB68
     /tmp/ccEFbENn.s:2384   .text:0000000000000cb4 .LEHE10
     /tmp/ccEFbENn.s:2392   .text:0000000000000ccc .LEHB11
GAS LISTING /tmp/ccEFbENn.s 			page 120


     /tmp/ccEFbENn.s:2395   .text:0000000000000cd4 .LEHE11
     /tmp/ccEFbENn.s:2541   .text:0000000000000d98 .L124
     /tmp/ccEFbENn.s:2498   .text:0000000000000d64 .LEHB12
     /tmp/ccEFbENn.s:2501   .text:0000000000000d6c .LEHE12
     /tmp/ccEFbENn.s:2550   .text:0000000000000dac .LEHB13
     /tmp/ccEFbENn.s:2553   .text:0000000000000db4 .LEHE13
     /tmp/ccEFbENn.s:2995   .text:0000000000000f60 .L152
     /tmp/ccEFbENn.s:3054   .text:0000000000000f9c .L151
     /tmp/ccEFbENn.s:3065   .text:0000000000000fa8 .L150
     /tmp/ccEFbENn.s:3073   .text:0000000000000fb4 .L149
     /tmp/ccEFbENn.s:3081   .text:0000000000000fc0 .L148
     /tmp/ccEFbENn.s:3089   .text:0000000000000fcc .L147
     /tmp/ccEFbENn.s:3097   .text:0000000000000fd8 .L146
     /tmp/ccEFbENn.s:3105   .text:0000000000000fe4 .L145
     /tmp/ccEFbENn.s:3113   .text:0000000000000ff0 .L144
     /tmp/ccEFbENn.s:3121   .text:0000000000000ffc .L143
     /tmp/ccEFbENn.s:3129   .text:0000000000001008 .L142
     /tmp/ccEFbENn.s:3137   .text:0000000000001014 .L141
     /tmp/ccEFbENn.s:3145   .text:0000000000001020 .L140
     /tmp/ccEFbENn.s:3153   .text:000000000000102c .L139
     /tmp/ccEFbENn.s:3161   .text:0000000000001038 .L138
     /tmp/ccEFbENn.s:3169   .text:0000000000001044 .L137
     /tmp/ccEFbENn.s:3177   .text:0000000000001050 .L136
     /tmp/ccEFbENn.s:3185   .text:000000000000105c .L134
     /tmp/ccEFbENn.s:7956   .debug_abbrev:0000000000000000 .Ldebug_abbrev0
     /tmp/ccEFbENn.s:11093  .debug_str:00000000000014b9 .LASF344
     /tmp/ccEFbENn.s:10591  .debug_str:0000000000000448 .LASF345
     /tmp/ccEFbENn.s:11013  .debug_str:00000000000011b6 .LASF346
     /tmp/ccEFbENn.s:5      .text:0000000000000000 .Ltext0
     /tmp/ccEFbENn.s:3588   .text:0000000000001214 .Letext0
     /tmp/ccEFbENn.s:10439  .debug_line:0000000000000000 .Ldebug_line0
     /tmp/ccEFbENn.s:10487  .debug_str:000000000000018a .LASF0
     /tmp/ccEFbENn.s:11089  .debug_str:000000000000149e .LASF1
     /tmp/ccEFbENn.s:11021  .debug_str:000000000000121e .LASF2
     /tmp/ccEFbENn.s:10965  .debug_str:0000000000001048 .LASF4
     /tmp/ccEFbENn.s:10983  .debug_str:00000000000010d9 .LASF3
     /tmp/ccEFbENn.s:10633  .debug_str:00000000000005a9 .LASF5
     /tmp/ccEFbENn.s:10699  .debug_str:00000000000007df .LASF6
     /tmp/ccEFbENn.s:10893  .debug_str:0000000000000e2d .LASF7
     /tmp/ccEFbENn.s:10529  .debug_str:00000000000002aa .LASF8
     /tmp/ccEFbENn.s:11073  .debug_str:00000000000013d1 .LASF9
     /tmp/ccEFbENn.s:10637  .debug_str:00000000000005bb .LASF10
     /tmp/ccEFbENn.s:10561  .debug_str:0000000000000365 .LASF11
     /tmp/ccEFbENn.s:10731  .debug_str:00000000000008ee .LASF12
     /tmp/ccEFbENn.s:10647  .debug_str:0000000000000610 .LASF13
     /tmp/ccEFbENn.s:10945  .debug_str:0000000000000fc2 .LASF14
     /tmp/ccEFbENn.s:10651  .debug_str:000000000000062c .LASF15
     /tmp/ccEFbENn.s:10599  .debug_str:00000000000004a2 .LASF16
     /tmp/ccEFbENn.s:10541  .debug_str:00000000000002f2 .LASF130
     /tmp/ccEFbENn.s:10705  .debug_str:0000000000000828 .LASF20
     /tmp/ccEFbENn.s:11069  .debug_str:00000000000013b2 .LASF17
     /tmp/ccEFbENn.s:10479  .debug_str:0000000000000119 .LASF18
     /tmp/ccEFbENn.s:10669  .debug_str:00000000000006c3 .LASF19
     /tmp/ccEFbENn.s:10663  .debug_str:0000000000000687 .LASF21
     /tmp/ccEFbENn.s:10621  .debug_str:0000000000000561 .LASF22
     /tmp/ccEFbENn.s:10905  .debug_str:0000000000000e93 .LASF23
     /tmp/ccEFbENn.s:10949  .debug_str:0000000000000fdd .LASF24
GAS LISTING /tmp/ccEFbENn.s 			page 121


     /tmp/ccEFbENn.s:10477  .debug_str:000000000000010e .LASF25
     /tmp/ccEFbENn.s:10549  .debug_str:0000000000000324 .LASF26
     /tmp/ccEFbENn.s:11015  .debug_str:00000000000011e7 .LASF27
     /tmp/ccEFbENn.s:10989  .debug_str:0000000000001104 .LASF28
     /tmp/ccEFbENn.s:10883  .debug_str:0000000000000df8 .LASF29
     /tmp/ccEFbENn.s:10809  .debug_str:0000000000000b61 .LASF31
     /tmp/ccEFbENn.s:10689  .debug_str:0000000000000783 .LASF30
     /tmp/ccEFbENn.s:11075  .debug_str:00000000000013df .LASF32
     /tmp/ccEFbENn.s:10527  .debug_str:000000000000028f .LASF33
     /tmp/ccEFbENn.s:10717  .debug_str:0000000000000877 .LASF34
     /tmp/ccEFbENn.s:10579  .debug_str:00000000000003e4 .LASF35
     /tmp/ccEFbENn.s:11019  .debug_str:00000000000011f8 .LASF36
     /tmp/ccEFbENn.s:10825  .debug_str:0000000000000bfb .LASF37
     /tmp/ccEFbENn.s:10861  .debug_str:0000000000000d54 .LASF38
     /tmp/ccEFbENn.s:10481  .debug_str:0000000000000126 .LASF39
     /tmp/ccEFbENn.s:10667  .debug_str:0000000000000697 .LASF40
     /tmp/ccEFbENn.s:10683  .debug_str:0000000000000753 .LASF41
     /tmp/ccEFbENn.s:11037  .debug_str:000000000000127b .LASF42
     /tmp/ccEFbENn.s:10847  .debug_str:0000000000000ca2 .LASF43
     /tmp/ccEFbENn.s:10597  .debug_str:000000000000047f .LASF44
     /tmp/ccEFbENn.s:10583  .debug_str:0000000000000404 .LASF45
     /tmp/ccEFbENn.s:11045  .debug_str:00000000000012dc .LASF46
     /tmp/ccEFbENn.s:11119  .debug_str:000000000000162b .LASF47
     /tmp/ccEFbENn.s:10851  .debug_str:0000000000000cdd .LASF48
     /tmp/ccEFbENn.s:10513  .debug_str:0000000000000221 .LASF49
     /tmp/ccEFbENn.s:10849  .debug_str:0000000000000cb8 .LASF50
     /tmp/ccEFbENn.s:11043  .debug_str:00000000000012c4 .LASF51
     /tmp/ccEFbENn.s:10673  .debug_str:00000000000006f6 .LASF52
     /tmp/ccEFbENn.s:10547  .debug_str:0000000000000311 .LASF53
     /tmp/ccEFbENn.s:10747  .debug_str:000000000000096a .LASF54
     /tmp/ccEFbENn.s:10703  .debug_str:0000000000000815 .LASF55
     /tmp/ccEFbENn.s:10771  .debug_str:0000000000000a43 .LASF56
     /tmp/ccEFbENn.s:10457  .debug_str:000000000000006e .LASF57
     /tmp/ccEFbENn.s:11079  .debug_str:0000000000001420 .LASF58
     /tmp/ccEFbENn.s:11117  .debug_str:0000000000001612 .LASF59
     /tmp/ccEFbENn.s:10643  .debug_str:00000000000005e0 .LASF60
     /tmp/ccEFbENn.s:10659  .debug_str:0000000000000666 .LASF61
     /tmp/ccEFbENn.s:10819  .debug_str:0000000000000bb7 .LASF62
     /tmp/ccEFbENn.s:10441  .debug_str:0000000000000000 .LASF63
     /tmp/ccEFbENn.s:10973  .debug_str:0000000000001089 .LASF64
     /tmp/ccEFbENn.s:11059  .debug_str:000000000000137d .LASF65
     /tmp/ccEFbENn.s:10955  .debug_str:0000000000000ff3 .LASF67
     /tmp/ccEFbENn.s:11121  .debug_str:0000000000001641 .LASF69
     /tmp/ccEFbENn.s:10921  .debug_str:0000000000000f18 .LASF71
     /tmp/ccEFbENn.s:10925  .debug_str:0000000000000f3f .LASF66
     /tmp/ccEFbENn.s:11041  .debug_str:00000000000012af .LASF68
     /tmp/ccEFbENn.s:10575  .debug_str:00000000000003cd .LASF70
     /tmp/ccEFbENn.s:10963  .debug_str:0000000000001035 .LASF72
     /tmp/ccEFbENn.s:10627  .debug_str:0000000000000579 .LASF73
     /tmp/ccEFbENn.s:10777  .debug_str:0000000000000a71 .LASF74
     /tmp/ccEFbENn.s:11091  .debug_str:00000000000014b1 .LASF75
     /tmp/ccEFbENn.s:10629  .debug_str:0000000000000580 .LASF76
     /tmp/ccEFbENn.s:10935  .debug_str:0000000000000f80 .LASF77
     /tmp/ccEFbENn.s:10941  .debug_str:0000000000000f9f .LASF78
     /tmp/ccEFbENn.s:10645  .debug_str:0000000000000606 .LASF79
     /tmp/ccEFbENn.s:10803  .debug_str:0000000000000b3c .LASF80
     /tmp/ccEFbENn.s:10613  .debug_str:0000000000000544 .LASF81
GAS LISTING /tmp/ccEFbENn.s 			page 122


     /tmp/ccEFbENn.s:10863  .debug_str:0000000000000d7e .LASF82
     /tmp/ccEFbENn.s:10909  .debug_str:0000000000000ead .LASF83
     /tmp/ccEFbENn.s:11135  .debug_str:00000000000016aa .LASF84
     /tmp/ccEFbENn.s:10517  .debug_str:0000000000000242 .LASF85
     /tmp/ccEFbENn.s:10969  .debug_str:0000000000001067 .LASF86
     /tmp/ccEFbENn.s:11033  .debug_str:0000000000001261 .LASF87
     /tmp/ccEFbENn.s:10595  .debug_str:000000000000046c .LASF88
     /tmp/ccEFbENn.s:10619  .debug_str:000000000000055a .LASF89
     /tmp/ccEFbENn.s:10653  .debug_str:0000000000000642 .LASF90
     /tmp/ccEFbENn.s:11023  .debug_str:000000000000122c .LASF91
     /tmp/ccEFbENn.s:10525  .debug_str:000000000000027c .LASF92
     /tmp/ccEFbENn.s:10695  .debug_str:00000000000007bc .LASF93
     /tmp/ccEFbENn.s:11131  .debug_str:000000000000167e .LASF94
     /tmp/ccEFbENn.s:10765  .debug_str:0000000000000a23 .LASF95
     /tmp/ccEFbENn.s:10691  .debug_str:0000000000000799 .LASF96
     /tmp/ccEFbENn.s:11077  .debug_str:0000000000001402 .LASF97
     /tmp/ccEFbENn.s:10607  .debug_str:00000000000004f3 .LASF98
     /tmp/ccEFbENn.s:10895  .debug_str:0000000000000e40 .LASF99
     /tmp/ccEFbENn.s:10873  .debug_str:0000000000000dbe .LASF100
     /tmp/ccEFbENn.s:10867  .debug_str:0000000000000d9d .LASF101
     /tmp/ccEFbENn.s:10787  .debug_str:0000000000000ab0 .LASF102
     /tmp/ccEFbENn.s:10915  .debug_str:0000000000000ede .LASF103
     /tmp/ccEFbENn.s:10697  .debug_str:00000000000007c3 .LASF104
     /tmp/ccEFbENn.s:10495  .debug_str:00000000000001a8 .LASF105
     /tmp/ccEFbENn.s:10757  .debug_str:00000000000009ba .LASF106
     /tmp/ccEFbENn.s:11147  .debug_str:000000000000171b .LASF107
     /tmp/ccEFbENn.s:11051  .debug_str:0000000000001329 .LASF108
     /tmp/ccEFbENn.s:11137  .debug_str:00000000000016c2 .LASF109
     /tmp/ccEFbENn.s:11003  .debug_str:0000000000001165 .LASF110
     /tmp/ccEFbENn.s:11133  .debug_str:0000000000001691 .LASF111
     /tmp/ccEFbENn.s:10859  .debug_str:0000000000000d2e .LASF112
     /tmp/ccEFbENn.s:10455  .debug_str:0000000000000054 .LASF113
     /tmp/ccEFbENn.s:10671  .debug_str:00000000000006cf .LASF114
     /tmp/ccEFbENn.s:10593  .debug_str:0000000000000456 .LASF115
     /tmp/ccEFbENn.s:11081  .debug_str:0000000000001444 .LASF116
     /tmp/ccEFbENn.s:10511  .debug_str:000000000000020a .LASF117
     /tmp/ccEFbENn.s:11097  .debug_str:0000000000001590 .LASF118
     /tmp/ccEFbENn.s:10501  .debug_str:00000000000001d3 .LASF119
     /tmp/ccEFbENn.s:11047  .debug_str:0000000000001300 .LASF120
     /tmp/ccEFbENn.s:10635  .debug_str:00000000000005b0 .LASF121
     /tmp/ccEFbENn.s:10967  .debug_str:000000000000104f .LASF122
     /tmp/ccEFbENn.s:11049  .debug_str:0000000000001320 .LASF123
     /tmp/ccEFbENn.s:10897  .debug_str:0000000000000e4b .LASF124
     /tmp/ccEFbENn.s:10735  .debug_str:0000000000000907 .LASF125
     /tmp/ccEFbENn.s:11115  .debug_str:00000000000015ff .LASF126
     /tmp/ccEFbENn.s:10773  .debug_str:0000000000000a63 .LASF127
     /tmp/ccEFbENn.s:10693  .debug_str:00000000000007b7 .LASF128
     /tmp/ccEFbENn.s:10997  .debug_str:000000000000113c .LASF129
     /tmp/ccEFbENn.s:10727  .debug_str:00000000000008c3 .LASF131
     /tmp/ccEFbENn.s:10603  .debug_str:00000000000004c8 .LASF247
     /tmp/ccEFbENn.s:10789  .debug_str:0000000000000ac2 .LASF132
     /tmp/ccEFbENn.s:10537  .debug_str:00000000000002e1 .LASF133
     /tmp/ccEFbENn.s:10491  .debug_str:000000000000019c .LASF134
     /tmp/ccEFbENn.s:11111  .debug_str:00000000000015eb .LASF135
     /tmp/ccEFbENn.s:11017  .debug_str:00000000000011ec .LASF136
     /tmp/ccEFbENn.s:10475  .debug_str:0000000000000101 .LASF137
     /tmp/ccEFbENn.s:11099  .debug_str:00000000000015b4 .LASF138
GAS LISTING /tmp/ccEFbENn.s 			page 123


     /tmp/ccEFbENn.s:10649  .debug_str:0000000000000620 .LASF139
     /tmp/ccEFbENn.s:11027  .debug_str:0000000000001240 .LASF140
     /tmp/ccEFbENn.s:11055  .debug_str:0000000000001358 .LASF142
     /tmp/ccEFbENn.s:10719  .debug_str:000000000000089f .LASF141
     /tmp/ccEFbENn.s:10913  .debug_str:0000000000000ec0 .LASF143
     /tmp/ccEFbENn.s:11141  .debug_str:00000000000016e0 .LASF144
     /tmp/ccEFbENn.s:10485  .debug_str:000000000000014f .LASF145
     /tmp/ccEFbENn.s:10745  .debug_str:0000000000000947 .LASF146
     /tmp/ccEFbENn.s:11109  .debug_str:00000000000015e0 .LASF147
     /tmp/ccEFbENn.s:10563  .debug_str:0000000000000374 .LASF148
     /tmp/ccEFbENn.s:11095  .debug_str:0000000000001589 .LASF149
     /tmp/ccEFbENn.s:10701  .debug_str:00000000000007f2 .LASF150
     /tmp/ccEFbENn.s:10991  .debug_str:0000000000001115 .LASF151
     /tmp/ccEFbENn.s:11067  .debug_str:00000000000013ac .LASF347
     /tmp/ccEFbENn.s:10741  .debug_str:0000000000000927 .LASF152
     /tmp/ccEFbENn.s:10879  .debug_str:0000000000000dea .LASF157
     /tmp/ccEFbENn.s:10519  .debug_str:000000000000024d .LASF159
     /tmp/ccEFbENn.s:10665  .debug_str:0000000000000692 .LASF153
     /tmp/ccEFbENn.s:11035  .debug_str:0000000000001268 .LASF154
     /tmp/ccEFbENn.s:10711  .debug_str:0000000000000853 .LASF155
     /tmp/ccEFbENn.s:10469  .debug_str:00000000000000d9 .LASF156
     /tmp/ccEFbENn.s:10497  .debug_str:00000000000001bd .LASF158
     /tmp/ccEFbENn.s:10815  .debug_str:0000000000000b99 .LASF160
     /tmp/ccEFbENn.s:10631  .debug_str:0000000000000594 .LASF161
     /tmp/ccEFbENn.s:10751  .debug_str:000000000000099d .LASF162
     /tmp/ccEFbENn.s:10907  .debug_str:0000000000000e9c .LASF163
     /tmp/ccEFbENn.s:11107  .debug_str:00000000000015d9 .LASF348
     /tmp/ccEFbENn.s:10507  .debug_str:00000000000001f8 .LASF164
     /tmp/ccEFbENn.s:10615  .debug_str:000000000000054e .LASF165
     /tmp/ccEFbENn.s:10933  .debug_str:0000000000000f7b .LASF166
     /tmp/ccEFbENn.s:10543  .debug_str:00000000000002f8 .LASF167
     /tmp/ccEFbENn.s:10617  .debug_str:0000000000000553 .LASF168
     /tmp/ccEFbENn.s:10749  .debug_str:000000000000098a .LASF169
     /tmp/ccEFbENn.s:10569  .debug_str:00000000000003b8 .LASF170
     /tmp/ccEFbENn.s:10903  .debug_str:0000000000000e75 .LASF171
     /tmp/ccEFbENn.s:10581  .debug_str:00000000000003fd .LASF172
     /tmp/ccEFbENn.s:10931  .debug_str:0000000000000f66 .LASF173
     /tmp/ccEFbENn.s:10733  .debug_str:00000000000008fe .LASF225
     /tmp/ccEFbENn.s:10871  .debug_str:0000000000000da9 .LASF227
     /tmp/ccEFbENn.s:11139  .debug_str:00000000000016d4 .LASF174
     /tmp/ccEFbENn.s:10587  .debug_str:0000000000000430 .LASF175
     /tmp/ccEFbENn.s:10981  .debug_str:00000000000010cd .LASF176
     /tmp/ccEFbENn.s:10845  .debug_str:0000000000000c98 .LASF177
     /tmp/ccEFbENn.s:10775  .debug_str:0000000000000a68 .LASF178
     /tmp/ccEFbENn.s:10453  .debug_str:0000000000000049 .LASF179
     /tmp/ccEFbENn.s:10589  .debug_str:000000000000043c .LASF180
     /tmp/ccEFbENn.s:11025  .debug_str:0000000000001233 .LASF181
     /tmp/ccEFbENn.s:10467  .debug_str:00000000000000cf .LASF182
     /tmp/ccEFbENn.s:10977  .debug_str:00000000000010b9 .LASF183
     /tmp/ccEFbENn.s:10557  .debug_str:000000000000034e .LASF184
     /tmp/ccEFbENn.s:10471  .debug_str:00000000000000ef .LASF185
     /tmp/ccEFbENn.s:11063  .debug_str:0000000000001395 .LASF186
     /tmp/ccEFbENn.s:10959  .debug_str:0000000000001013 .LASF187
     /tmp/ccEFbENn.s:10901  .debug_str:0000000000000e6c .LASF188
     /tmp/ccEFbENn.s:10459  .debug_str:0000000000000085 .LASF189
     /tmp/ccEFbENn.s:10793  .debug_str:0000000000000ad0 .LASF190
     /tmp/ccEFbENn.s:10531  .debug_str:00000000000002ba .LASF191
GAS LISTING /tmp/ccEFbENn.s 			page 124


     /tmp/ccEFbENn.s:10499  .debug_str:00000000000001c9 .LASF192
     /tmp/ccEFbENn.s:11143  .debug_str:00000000000016ef .LASF193
     /tmp/ccEFbENn.s:10795  .debug_str:0000000000000ada .LASF194
     /tmp/ccEFbENn.s:10975  .debug_str:00000000000010a9 .LASF195
     /tmp/ccEFbENn.s:10761  .debug_str:00000000000009e5 .LASF196
     /tmp/ccEFbENn.s:10515  .debug_str:0000000000000239 .LASF197
     /tmp/ccEFbENn.s:10919  .debug_str:0000000000000efa .LASF198
     /tmp/ccEFbENn.s:10899  .debug_str:0000000000000e60 .LASF199
     /tmp/ccEFbENn.s:10855  .debug_str:0000000000000d07 .LASF200
     /tmp/ccEFbENn.s:10743  .debug_str:0000000000000941 .LASF201
     /tmp/ccEFbENn.s:10801  .debug_str:0000000000000b1c .LASF202
     /tmp/ccEFbENn.s:10791  .debug_str:0000000000000ac7 .LASF203
     /tmp/ccEFbENn.s:10639  .debug_str:00000000000005ca .LASF204
     /tmp/ccEFbENn.s:10559  .debug_str:0000000000000359 .LASF205
     /tmp/ccEFbENn.s:10709  .debug_str:0000000000000847 .LASF257
     /tmp/ccEFbENn.s:10785  .debug_str:0000000000000aab .LASF206
     /tmp/ccEFbENn.s:10451  .debug_str:000000000000003d .LASF207
     /tmp/ccEFbENn.s:10817  .debug_str:0000000000000bb2 .LASF208
     /tmp/ccEFbENn.s:11145  .debug_str:000000000000170c .LASF209
     /tmp/ccEFbENn.s:10473  .debug_str:00000000000000fa .LASF210
     /tmp/ccEFbENn.s:11053  .debug_str:0000000000001347 .LASF211
     /tmp/ccEFbENn.s:10927  .debug_str:0000000000000f48 .LASF212
     /tmp/ccEFbENn.s:10779  .debug_str:0000000000000a84 .LASF213
     /tmp/ccEFbENn.s:10545  .debug_str:0000000000000309 .LASF214
     /tmp/ccEFbENn.s:10675  .debug_str:000000000000071b .LASF215
     /tmp/ccEFbENn.s:10947  .debug_str:0000000000000fce .LASF216
     /tmp/ccEFbENn.s:10729  .debug_str:00000000000008d3 .LASF217
     /tmp/ccEFbENn.s:10827  .debug_str:0000000000000c18 .LASF218
     /tmp/ccEFbENn.s:10505  .debug_str:00000000000001f3 .LASF219
     /tmp/ccEFbENn.s:11087  .debug_str:000000000000148e .LASF220
     /tmp/ccEFbENn.s:10571  .debug_str:00000000000003be .LASF221
     /tmp/ccEFbENn.s:10737  .debug_str:000000000000090e .LASF222
     /tmp/ccEFbENn.s:10843  .debug_str:0000000000000c8b .LASF223
     /tmp/ccEFbENn.s:11007  .debug_str:0000000000001189 .LASF224
     /tmp/ccEFbENn.s:10837  .debug_str:0000000000000c71 .LASF226
     /tmp/ccEFbENn.s:10917  .debug_str:0000000000000eed .LASF228
     /tmp/ccEFbENn.s:10715  .debug_str:000000000000086a .LASF229
     /tmp/ccEFbENn.s:10957  .debug_str:000000000000100d .LASF230
     /tmp/ccEFbENn.s:10951  .debug_str:0000000000000fe6 .LASF231
     /tmp/ccEFbENn.s:10831  .debug_str:0000000000000c56 .LASF232
     /tmp/ccEFbENn.s:10449  .debug_str:0000000000000034 .LASF233
     /tmp/ccEFbENn.s:10985  .debug_str:00000000000010eb .LASF234
     /tmp/ccEFbENn.s:11061  .debug_str:0000000000001389 .LASF235
     /tmp/ccEFbENn.s:10939  .debug_str:0000000000000f96 .LASF236
     /tmp/ccEFbENn.s:10755  .debug_str:00000000000009b5 .LASF237
     /tmp/ccEFbENn.s:10783  .debug_str:0000000000000aa4 .LASF238
     /tmp/ccEFbENn.s:10923  .debug_str:0000000000000f2d .LASF240
     /tmp/ccEFbENn.s:10911  .debug_str:0000000000000eb8 .LASF239
     /tmp/ccEFbENn.s:11071  .debug_str:00000000000013be .LASF241
     /tmp/ccEFbENn.s:10943  .debug_str:0000000000000fb3 .LASF242
     /tmp/ccEFbENn.s:10707  .debug_str:0000000000000837 .LASF243
     /tmp/ccEFbENn.s:10885  .debug_str:0000000000000e0f .LASF244
     /tmp/ccEFbENn.s:10875  .debug_str:0000000000000dd6 .LASF245
     /tmp/ccEFbENn.s:10877  .debug_str:0000000000000de3 .LASF246
     /tmp/ccEFbENn.s:10881  .debug_str:0000000000000df0 .LASF248
     /tmp/ccEFbENn.s:10493  .debug_str:00000000000001a1 .LASF249
     /tmp/ccEFbENn.s:10657  .debug_str:000000000000065e .LASF250
GAS LISTING /tmp/ccEFbENn.s 			page 125


     /tmp/ccEFbENn.s:10769  .debug_str:0000000000000a3d .LASF251
     /tmp/ccEFbENn.s:10759  .debug_str:00000000000009dc .LASF252
     /tmp/ccEFbENn.s:10953  .debug_str:0000000000000feb .LASF253
     /tmp/ccEFbENn.s:10887  .debug_str:0000000000000e19 .LASF254
     /tmp/ccEFbENn.s:10533  .debug_str:00000000000002d7 .LASF255
     /tmp/ccEFbENn.s:11001  .debug_str:000000000000115a .LASF256
     /tmp/ccEFbENn.s:10445  .debug_str:0000000000000018 .LASF258
     /tmp/ccEFbENn.s:10567  .debug_str:00000000000003a1 .LASF259
     /tmp/ccEFbENn.s:10661  .debug_str:0000000000000682 .LASF260
     /tmp/ccEFbENn.s:11101  .debug_str:00000000000015c1 .LASF261
     /tmp/ccEFbENn.s:10813  .debug_str:0000000000000b8d .LASF262
     /tmp/ccEFbENn.s:11031  .debug_str:0000000000001259 .LASF263
     /tmp/ccEFbENn.s:10523  .debug_str:0000000000000269 .LASF264
     /tmp/ccEFbENn.s:10677  .debug_str:000000000000072d .LASF265
     /tmp/ccEFbENn.s:10509  .debug_str:00000000000001fd .LASF266
     /tmp/ccEFbENn.s:10987  .debug_str:00000000000010f5 .LASF267
     /tmp/ccEFbENn.s:10739  .debug_str:000000000000091e .LASF268
     /tmp/ccEFbENn.s:10821  .debug_str:0000000000000be0 .LASF269
     /tmp/ccEFbENn.s:11129  .debug_str:0000000000001668 .LASF270
     /tmp/ccEFbENn.s:10503  .debug_str:00000000000001e3 .LASF271
     /tmp/ccEFbENn.s:10577  .debug_str:00000000000003d4 .LASF272
     /tmp/ccEFbENn.s:10641  .debug_str:00000000000005d6 .LASF273
     /tmp/ccEFbENn.s:10521  .debug_str:000000000000025f .LASF274
     /tmp/ccEFbENn.s:11065  .debug_str:000000000000139e .LASF275
     /tmp/ccEFbENn.s:10829  .debug_str:0000000000000c2e .LASF276
     /tmp/ccEFbENn.s:10463  .debug_str:00000000000000b9 .LASF277
     /tmp/ccEFbENn.s:10929  .debug_str:0000000000000f4e .LASF278
     /tmp/ccEFbENn.s:10823  .debug_str:0000000000000bf3 .LASF279
     /tmp/ccEFbENn.s:10725  .debug_str:00000000000008bc .LASF280
     /tmp/ccEFbENn.s:10535  .debug_str:00000000000002dc .LASF281
     /tmp/ccEFbENn.s:11005  .debug_str:0000000000001184 .LASF282
     /tmp/ccEFbENn.s:10841  .debug_str:0000000000000c86 .LASF283
     /tmp/ccEFbENn.s:10961  .debug_str:000000000000102f .LASF284
     /tmp/ccEFbENn.s:10465  .debug_str:00000000000000c5 .LASF285
     /tmp/ccEFbENn.s:10625  .debug_str:0000000000000574 .LASF286
     /tmp/ccEFbENn.s:10811  .debug_str:0000000000000b85 .LASF287
     /tmp/ccEFbENn.s:10483  .debug_str:0000000000000145 .LASF288
     /tmp/ccEFbENn.s:10767  .debug_str:0000000000000a34 .LASF289
     /tmp/ccEFbENn.s:11011  .debug_str:00000000000011ad .LASF290
     /tmp/ccEFbENn.s:10833  .debug_str:0000000000000c61 .LASF291
     /tmp/ccEFbENn.s:11113  .debug_str:00000000000015f7 .LASF292
     /tmp/ccEFbENn.s:11125  .debug_str:0000000000001656 .LASF293
     /tmp/ccEFbENn.s:11029  .debug_str:0000000000001248 .LASF294
     /tmp/ccEFbENn.s:11105  .debug_str:00000000000015d0 .LASF295
     /tmp/ccEFbENn.s:10565  .debug_str:0000000000000397 .LASF296
     /tmp/ccEFbENn.s:11103  .debug_str:00000000000015c6 .LASF297
     /tmp/ccEFbENn.s:10995  .debug_str:0000000000001132 .LASF298
     /tmp/ccEFbENn.s:10713  .debug_str:000000000000085d .LASF299
     /tmp/ccEFbENn.s:11009  .debug_str:0000000000001195 .LASF349
     /tmp/ccEFbENn.s:10679  .debug_str:0000000000000739 .LASF350
     /tmp/ccEFbENn.s:11057  .debug_str:0000000000001377 .LASF300
     /tmp/ccEFbENn.s:10763  .debug_str:0000000000000a09 .LASF301
     /tmp/ccEFbENn.s:10681  .debug_str:000000000000074d .LASF302
     /tmp/ccEFbENn.s:10999  .debug_str:0000000000001144 .LASF303
     /tmp/ccEFbENn.s:11085  .debug_str:0000000000001472 .LASF304
     /tmp/ccEFbENn.s:10937  .debug_str:0000000000000f88 .LASF305
     /tmp/ccEFbENn.s:10605  .debug_str:00000000000004d4 .LASF306
GAS LISTING /tmp/ccEFbENn.s 			page 126


     /tmp/ccEFbENn.s:11039  .debug_str:00000000000012a2 .LASF307
     /tmp/ccEFbENn.s:10611  .debug_str:0000000000000526 .LASF308
     /tmp/ccEFbENn.s:10993  .debug_str:000000000000111b .LASF309
     /tmp/ccEFbENn.s:10799  .debug_str:0000000000000aff .LASF351
     /tmp/ccEFbENn.s:10447  .debug_str:0000000000000024 .LASF310
     /tmp/ccEFbENn.s:10781  .debug_str:0000000000000a94 .LASF311
     /tmp/ccEFbENn.s:2584   .text:0000000000000db4 .LFB69
     /tmp/ccEFbENn.s:2617   .text:0000000000000de0 .LFE69
     /tmp/ccEFbENn.s:9318   .debug_loc:0000000000000000 .LLST72
     /tmp/ccEFbENn.s:2555   .text:0000000000000db4 .LFE68
     /tmp/ccEFbENn.s:9331   .debug_loc:0000000000000038 .LLST68
     /tmp/ccEFbENn.s:10753  .debug_str:00000000000009ae .LASF312
     /tmp/ccEFbENn.s:9350   .debug_loc:0000000000000094 .LLST69
     /tmp/ccEFbENn.s:9361   .debug_loc:00000000000000ca .LLST70
     /tmp/ccEFbENn.s:2401   .text:0000000000000cd8 .LBB135
     /tmp/ccEFbENn.s:2504   .text:0000000000000d6c .LBE135
     /tmp/ccEFbENn.s:10553  .debug_str:0000000000000338 .LASF313
     /tmp/ccEFbENn.s:9378   .debug_loc:0000000000000115 .LLST71
     /tmp/ccEFbENn.s:2500   .text:0000000000000d6c .LVL209
     /tmp/ccEFbENn.s:2366   .text:0000000000000c84 .LVL202
     /tmp/ccEFbENn.s:2378   .text:0000000000000ca8 .LVL205
     /tmp/ccEFbENn.s:2383   .text:0000000000000cb4 .LVL206
     /tmp/ccEFbENn.s:2394   .text:0000000000000cd4 .LVL207
     /tmp/ccEFbENn.s:2516   .text:0000000000000d78 .LVL210
     /tmp/ccEFbENn.s:2548   .text:0000000000000da8 .LVL216
     /tmp/ccEFbENn.s:2552   .text:0000000000000db4 .LVL217
     /tmp/ccEFbENn.s:2273   .text:0000000000000c04 .LFB67
     /tmp/ccEFbENn.s:2338   .text:0000000000000c60 .LFE67
     /tmp/ccEFbENn.s:10869  .debug_str:0000000000000da3 .LASF314
     /tmp/ccEFbENn.s:9385   .debug_loc:0000000000000138 .LLST65
     /tmp/ccEFbENn.s:9396   .debug_loc:000000000000016e .LLST66
     /tmp/ccEFbENn.s:2311   .text:0000000000000c30 .LVL197
     /tmp/ccEFbENn.s:2332   .text:0000000000000c50 .LVL200
     /tmp/ccEFbENn.s:2335   .text:0000000000000c5c .LVL201
     /tmp/ccEFbENn.s:2197   .text:0000000000000b9c .LFB66
     /tmp/ccEFbENn.s:2267   .text:0000000000000c04 .LFE66
     /tmp/ccEFbENn.s:9405   .debug_loc:0000000000000193 .LLST62
     /tmp/ccEFbENn.s:9416   .debug_loc:00000000000001c9 .LLST63
     /tmp/ccEFbENn.s:2235   .text:0000000000000bc8 .LVL189
     /tmp/ccEFbENn.s:2256   .text:0000000000000be8 .LVL192
     /tmp/ccEFbENn.s:2261   .text:0000000000000bf4 .LVL193
     /tmp/ccEFbENn.s:2264   .text:0000000000000c00 .LVL194
     /tmp/ccEFbENn.s:974    .text:00000000000005a8 .LFB65
     /tmp/ccEFbENn.s:1020   .text:00000000000005e0 .LFE65
     /tmp/ccEFbENn.s:851    .text:00000000000004f4 .LFB64
     /tmp/ccEFbENn.s:968    .text:00000000000005a8 .LFE64
     /tmp/ccEFbENn.s:875    .text:0000000000000528 .LBB119
     /tmp/ccEFbENn.s:10403  .debug_ranges:0000000000000000 .Ldebug_ranges0
     /tmp/ccEFbENn.s:884    .text:0000000000000528 .LBB121
     /tmp/ccEFbENn.s:898    .text:0000000000000530 .LBE121
     /tmp/ccEFbENn.s:885    .text:0000000000000528 .LBB122
     /tmp/ccEFbENn.s:897    .text:0000000000000530 .LBE122
     /tmp/ccEFbENn.s:9425   .debug_loc:00000000000001ee .LLST25
     /tmp/ccEFbENn.s:905    .text:0000000000000530 .LBB124
     /tmp/ccEFbENn.s:920    .text:0000000000000538 .LBE124
     /tmp/ccEFbENn.s:906    .text:0000000000000530 .LBB125
     /tmp/ccEFbENn.s:919    .text:0000000000000538 .LBE125
GAS LISTING /tmp/ccEFbENn.s 			page 127


     /tmp/ccEFbENn.s:9433   .debug_loc:0000000000000212 .LLST26
     /tmp/ccEFbENn.s:942    .text:0000000000000570 .LVL79
     /tmp/ccEFbENn.s:954    .text:0000000000000594 .LVL80
     /tmp/ccEFbENn.s:743    .text:0000000000000478 .LFB63
     /tmp/ccEFbENn.s:845    .text:00000000000004f4 .LFE63
     /tmp/ccEFbENn.s:808    .text:00000000000004cc .LBB115
     /tmp/ccEFbENn.s:842    .text:00000000000004f4 .LBE115
     /tmp/ccEFbENn.s:10443  .debug_str:0000000000000013 .LASF315
     /tmp/ccEFbENn.s:9442   .debug_loc:0000000000000238 .LLST24
     /tmp/ccEFbENn.s:827    .text:00000000000004e8 .LBB116
     /tmp/ccEFbENn.s:841    .text:00000000000004f4 .LBE116
     /tmp/ccEFbENn.s:761    .text:000000000000049c .LBB112
     /tmp/ccEFbENn.s:795    .text:00000000000004c0 .LBE112
     /tmp/ccEFbENn.s:9461   .debug_loc:000000000000027d .LLST22
     /tmp/ccEFbENn.s:780    .text:00000000000004b8 .LBB113
     /tmp/ccEFbENn.s:794    .text:00000000000004c0 .LBE113
     /tmp/ccEFbENn.s:9480   .debug_loc:00000000000002c2 .LLST23
     /tmp/ccEFbENn.s:2155   .text:0000000000000b68 .LFB62
     /tmp/ccEFbENn.s:2191   .text:0000000000000b9c .LFE62
     /tmp/ccEFbENn.s:9489   .debug_loc:00000000000002e8 .LLST61
     /tmp/ccEFbENn.s:2169   .text:0000000000000b80 .LVL185
     /tmp/ccEFbENn.s:2180   .text:0000000000000b8c .LVL186
     /tmp/ccEFbENn.s:631    .text:00000000000003f0 .LFB61
     /tmp/ccEFbENn.s:737    .text:0000000000000478 .LFE61
     /tmp/ccEFbENn.s:9496   .debug_loc:000000000000030b .LLST19
     /tmp/ccEFbENn.s:9510   .debug_loc:0000000000000344 .LLST20
     /tmp/ccEFbENn.s:687    .text:000000000000042c .LBB108
     /tmp/ccEFbENn.s:733    .text:0000000000000478 .LBE108
     /tmp/ccEFbENn.s:10835  .debug_str:0000000000000c6c .LASF316
     /tmp/ccEFbENn.s:9517   .debug_loc:0000000000000367 .LLST21
     /tmp/ccEFbENn.s:691    .text:0000000000000434 .LVL66
     /tmp/ccEFbENn.s:651    .text:000000000000040c .LVL62
     /tmp/ccEFbENn.s:578    .text:00000000000003a0 .LFB60
     /tmp/ccEFbENn.s:625    .text:00000000000003f0 .LFE60
     /tmp/ccEFbENn.s:9524   .debug_loc:000000000000038a .LLST18
     /tmp/ccEFbENn.s:614    .text:00000000000003e0 .LVL59
     /tmp/ccEFbENn.s:2064   .text:0000000000000ad0 .LFB59
     /tmp/ccEFbENn.s:2149   .text:0000000000000b68 .LFE59
     /tmp/ccEFbENn.s:9531   .debug_loc:00000000000003ad .LLST60
     /tmp/ccEFbENn.s:2092   .text:0000000000000b0c .LVL175
     /tmp/ccEFbENn.s:2113   .text:0000000000000b2c .LVL178
     /tmp/ccEFbENn.s:2134   .text:0000000000000b4c .LVL181
     /tmp/ccEFbENn.s:2139   .text:0000000000000b58 .LVL182
     /tmp/ccEFbENn.s:2146   .text:0000000000000b64 .LVL184
     /tmp/ccEFbENn.s:1984   .text:0000000000000a58 .LFB58
     /tmp/ccEFbENn.s:2058   .text:0000000000000ad0 .LFE58
     /tmp/ccEFbENn.s:10555  .debug_str:0000000000000348 .LASF317
     /tmp/ccEFbENn.s:9546   .debug_loc:00000000000003f6 .LLST59
     /tmp/ccEFbENn.s:2023   .text:0000000000000a9c .LVL171
     /tmp/ccEFbENn.s:2031   .text:0000000000000aac .LVL172
     /tmp/ccEFbENn.s:2044   .text:0000000000000abc .LVL173
     /tmp/ccEFbENn.s:1919   .text:0000000000000a10 .LFB57
     /tmp/ccEFbENn.s:1978   .text:0000000000000a58 .LFE57
     /tmp/ccEFbENn.s:10609  .debug_str:000000000000051e .LASF318
     /tmp/ccEFbENn.s:9553   .debug_loc:0000000000000419 .LLST57
     /tmp/ccEFbENn.s:9564   .debug_loc:000000000000044f .LLST58
     /tmp/ccEFbENn.s:1956   .text:0000000000000a38 .LVL167
GAS LISTING /tmp/ccEFbENn.s 			page 128


     /tmp/ccEFbENn.s:1973   .text:0000000000000a50 .LVL169
     /tmp/ccEFbENn.s:1842   .text:00000000000009b0 .LFB56
     /tmp/ccEFbENn.s:1913   .text:0000000000000a10 .LFE56
     /tmp/ccEFbENn.s:9581   .debug_loc:000000000000049a .LLST55
     /tmp/ccEFbENn.s:9592   .debug_loc:00000000000004d0 .LLST56
     /tmp/ccEFbENn.s:1888   .text:00000000000009ec .LVL161
     /tmp/ccEFbENn.s:1905   .text:0000000000000a04 .LVL163
     /tmp/ccEFbENn.s:1767   .text:0000000000000950 .LFB55
     /tmp/ccEFbENn.s:1836   .text:00000000000009b0 .LFE55
     /tmp/ccEFbENn.s:9609   .debug_loc:000000000000051b .LLST52
     /tmp/ccEFbENn.s:9620   .debug_loc:0000000000000551 .LLST54
     /tmp/ccEFbENn.s:1807   .text:000000000000097c .LVL153
     /tmp/ccEFbENn.s:1828   .text:000000000000099c .LVL156
     /tmp/ccEFbENn.s:1831   .text:00000000000009a8 .LVL157
     /tmp/ccEFbENn.s:1742   .text:0000000000000950 .LFE54
     /tmp/ccEFbENn.s:9637   .debug_loc:000000000000059c .LLST48
     /tmp/ccEFbENn.s:10797  .debug_str:0000000000000af9 .LASF319
     /tmp/ccEFbENn.s:9648   .debug_loc:00000000000005d2 .LLST49
     /tmp/ccEFbENn.s:9659   .debug_loc:0000000000000608 .LLST50
     /tmp/ccEFbENn.s:9670   .debug_loc:000000000000063e .LLST51
     /tmp/ccEFbENn.s:1671   .text:00000000000008e4 .LVL139
     /tmp/ccEFbENn.s:1679   .text:00000000000008f8 .LVL140
     /tmp/ccEFbENn.s:1702   .text:0000000000000910 .LVL142
     /tmp/ccEFbENn.s:1735   .text:0000000000000944 .LVL149
     /tmp/ccEFbENn.s:1739   .text:0000000000000950 .LVL150
     /tmp/ccEFbENn.s:538    .text:0000000000000364 .LFB53
     /tmp/ccEFbENn.s:572    .text:00000000000003a0 .LFE53
     /tmp/ccEFbENn.s:9687   .debug_loc:0000000000000689 .LLST17
     /tmp/ccEFbENn.s:561    .text:0000000000000390 .LVL57
     /tmp/ccEFbENn.s:1559   .text:000000000000085c .LFB52
     /tmp/ccEFbENn.s:1626   .text:00000000000008b4 .LFE52
     /tmp/ccEFbENn.s:9694   .debug_loc:00000000000006ac .LLST46
     /tmp/ccEFbENn.s:1579   .text:000000000000087c .LBB132
     /tmp/ccEFbENn.s:1590   .text:000000000000088c .LBE132
     /tmp/ccEFbENn.s:9711   .debug_loc:00000000000006f7 .LLST47
     /tmp/ccEFbENn.s:1589   .text:000000000000088c .LVL133
     /tmp/ccEFbENn.s:1606   .text:000000000000089c .LVL135
     /tmp/ccEFbENn.s:1485   .text:0000000000000804 .LFB51
     /tmp/ccEFbENn.s:1553   .text:000000000000085c .LFE51
     /tmp/ccEFbENn.s:9718   .debug_loc:000000000000071a .LLST43
     /tmp/ccEFbENn.s:9729   .debug_loc:0000000000000750 .LLST45
     /tmp/ccEFbENn.s:1523   .text:000000000000082c .LVL127
     /tmp/ccEFbENn.s:1544   .text:000000000000084c .LVL129
     /tmp/ccEFbENn.s:1548   .text:0000000000000854 .LVL130
     /tmp/ccEFbENn.s:1460   .text:0000000000000804 .LFE50
     /tmp/ccEFbENn.s:10721  .debug_str:00000000000008a5 .LASF320
     /tmp/ccEFbENn.s:9746   .debug_loc:000000000000079b .LLST37
     /tmp/ccEFbENn.s:10687  .debug_str:000000000000077d .LASF321
     /tmp/ccEFbENn.s:9757   .debug_loc:00000000000007d1 .LLST38
     /tmp/ccEFbENn.s:9768   .debug_loc:0000000000000807 .LLST39
     /tmp/ccEFbENn.s:11127  .debug_str:0000000000001661 .LASF322
     /tmp/ccEFbENn.s:9779   .debug_loc:000000000000083d .LLST40
     /tmp/ccEFbENn.s:9790   .debug_loc:0000000000000873 .LLST41
     /tmp/ccEFbENn.s:9801   .debug_loc:00000000000008a9 .LLST42
     /tmp/ccEFbENn.s:1374   .text:000000000000077c .LVL111
     /tmp/ccEFbENn.s:1385   .text:000000000000079c .LVL112
     /tmp/ccEFbENn.s:1414   .text:00000000000007bc .LVL114
GAS LISTING /tmp/ccEFbENn.s 			page 129


     /tmp/ccEFbENn.s:1453   .text:00000000000007f8 .LVL123
     /tmp/ccEFbENn.s:1457   .text:0000000000000804 .LVL124
     /tmp/ccEFbENn.s:1289   .text:000000000000073c .LFE49
     /tmp/ccEFbENn.s:9818   .debug_loc:00000000000008f4 .LLST31
     /tmp/ccEFbENn.s:9829   .debug_loc:000000000000092a .LLST32
     /tmp/ccEFbENn.s:9840   .debug_loc:0000000000000960 .LLST33
     /tmp/ccEFbENn.s:9851   .debug_loc:0000000000000996 .LLST34
     /tmp/ccEFbENn.s:9862   .debug_loc:00000000000009cc .LLST35
     /tmp/ccEFbENn.s:9873   .debug_loc:0000000000000a02 .LLST36
     /tmp/ccEFbENn.s:1196   .text:00000000000006a8 .LVL92
     /tmp/ccEFbENn.s:1207   .text:00000000000006c8 .LVL93
     /tmp/ccEFbENn.s:1223   .text:00000000000006e0 .LVL94
     /tmp/ccEFbENn.s:1243   .text:00000000000006f4 .LVL96
     /tmp/ccEFbENn.s:1282   .text:0000000000000730 .LVL105
     /tmp/ccEFbENn.s:1286   .text:000000000000073c .LVL106
     /tmp/ccEFbENn.s:1077   .text:0000000000000618 .LFB48
     /tmp/ccEFbENn.s:1135   .text:0000000000000668 .LFE48
     /tmp/ccEFbENn.s:9890   .debug_loc:0000000000000a4d .LLST29
     /tmp/ccEFbENn.s:9897   .debug_loc:0000000000000a70 .LLST30
     /tmp/ccEFbENn.s:1107   .text:0000000000000648 .LVL85
     /tmp/ccEFbENn.s:1131   .text:0000000000000664 .LVL87
     /tmp/ccEFbENn.s:1026   .text:00000000000005e0 .LFB47
     /tmp/ccEFbENn.s:1071   .text:0000000000000618 .LFE47
     /tmp/ccEFbENn.s:9908   .debug_loc:0000000000000aa6 .LLST27
     /tmp/ccEFbENn.s:10857  .debug_str:0000000000000d29 .LASF323
     /tmp/ccEFbENn.s:9915   .debug_loc:0000000000000ac9 .LLST28
     /tmp/ccEFbENn.s:1049   .text:00000000000005fc .LVL82
     /tmp/ccEFbENn.s:1060   .text:0000000000000608 .LVL83
     /tmp/ccEFbENn.s:2643   .text:0000000000000de0 .LFB46
     /tmp/ccEFbENn.s:3561   .text:0000000000001214 .LFE46
     /tmp/ccEFbENn.s:10853  .debug_str:0000000000000d00 .LASF324
     /tmp/ccEFbENn.s:10573  .debug_str:00000000000003c3 .LASF325
     /tmp/ccEFbENn.s:9922   .debug_loc:0000000000000aec .LLST85
     /tmp/ccEFbENn.s:2827   .text:0000000000000f08 .LBB184
     /tmp/ccEFbENn.s:2840   .text:0000000000000f0c .LBE184
     /tmp/ccEFbENn.s:2844   .text:0000000000000f10 .LBB186
     /tmp/ccEFbENn.s:2857   .text:0000000000000f14 .LBE186
     /tmp/ccEFbENn.s:3009   .text:0000000000000f78 .LBB188
     /tmp/ccEFbENn.s:3020   .text:0000000000000f7c .LBE188
     /tmp/ccEFbENn.s:9929   .debug_loc:0000000000000b0f .LLST86
     /tmp/ccEFbENn.s:3025   .text:0000000000000f80 .LBB190
     /tmp/ccEFbENn.s:3037   .text:0000000000000f84 .LBE190
     /tmp/ccEFbENn.s:9936   .debug_loc:0000000000000b32 .LLST87
     /tmp/ccEFbENn.s:3000   .text:0000000000000f68 .LVL235
     /tmp/ccEFbENn.s:3062   .text:0000000000000fa4 .LVL241
     /tmp/ccEFbENn.s:3070   .text:0000000000000fb0 .LVL242
     /tmp/ccEFbENn.s:3078   .text:0000000000000fbc .LVL243
     /tmp/ccEFbENn.s:3086   .text:0000000000000fc8 .LVL244
     /tmp/ccEFbENn.s:3094   .text:0000000000000fd4 .LVL245
     /tmp/ccEFbENn.s:3102   .text:0000000000000fe0 .LVL246
     /tmp/ccEFbENn.s:3110   .text:0000000000000fec .LVL247
     /tmp/ccEFbENn.s:3118   .text:0000000000000ff8 .LVL248
     /tmp/ccEFbENn.s:3126   .text:0000000000001004 .LVL249
     /tmp/ccEFbENn.s:3134   .text:0000000000001010 .LVL250
     /tmp/ccEFbENn.s:3142   .text:000000000000101c .LVL251
     /tmp/ccEFbENn.s:3150   .text:0000000000001028 .LVL252
     /tmp/ccEFbENn.s:3158   .text:0000000000001034 .LVL253
GAS LISTING /tmp/ccEFbENn.s 			page 130


     /tmp/ccEFbENn.s:3166   .text:0000000000001040 .LVL254
     /tmp/ccEFbENn.s:3174   .text:000000000000104c .LVL255
     /tmp/ccEFbENn.s:3182   .text:0000000000001058 .LVL256
     /tmp/ccEFbENn.s:3199   .text:0000000000001074 .LVL257
     /tmp/ccEFbENn.s:3203   .text:000000000000107c .LVL258
     /tmp/ccEFbENn.s:3209   .text:0000000000001080 .LBB166
     /tmp/ccEFbENn.s:3340   .text:0000000000001110 .LBE166
     /tmp/ccEFbENn.s:3321   .text:00000000000010f0 .LBB174
     /tmp/ccEFbENn.s:3336   .text:000000000000110c .LBE174
     /tmp/ccEFbENn.s:9943   .debug_loc:0000000000000b55 .LLST82
     /tmp/ccEFbENn.s:3335   .text:000000000000110c .LVL269
     /tmp/ccEFbENn.s:3211   .text:0000000000001080 .LBB167
     /tmp/ccEFbENn.s:3224   .text:0000000000001084 .LBE167
     /tmp/ccEFbENn.s:3228   .text:0000000000001088 .LBB169
     /tmp/ccEFbENn.s:3241   .text:000000000000108c .LBE169
     /tmp/ccEFbENn.s:3246   .text:0000000000001090 .LBB171
     /tmp/ccEFbENn.s:3258   .text:0000000000001098 .LBE171
     /tmp/ccEFbENn.s:9950   .debug_loc:0000000000000b78 .LLST81
     /tmp/ccEFbENn.s:3289   .text:00000000000010e0 .LBB175
     /tmp/ccEFbENn.s:3300   .text:00000000000010e4 .LBE175
     /tmp/ccEFbENn.s:9958   .debug_loc:0000000000000b9c .LLST83
     /tmp/ccEFbENn.s:3305   .text:00000000000010e8 .LBB177
     /tmp/ccEFbENn.s:3319   .text:00000000000010f0 .LBE177
     /tmp/ccEFbENn.s:9965   .debug_loc:0000000000000bbf .LLST84
     /tmp/ccEFbENn.s:3268   .text:00000000000010b4 .LVL263
     /tmp/ccEFbENn.s:3342   .text:0000000000001110 .LBB151
     /tmp/ccEFbENn.s:3502   .text:00000000000011ac .LBE151
     /tmp/ccEFbENn.s:9972   .debug_loc:0000000000000be2 .LLST76
     /tmp/ccEFbENn.s:9979   .debug_loc:0000000000000c05 .LLST77
     /tmp/ccEFbENn.s:9986   .debug_loc:0000000000000c28 .LLST78
     /tmp/ccEFbENn.s:3496   .text:00000000000011a8 .LVL285
     /tmp/ccEFbENn.s:3344   .text:0000000000001110 .LBB152
     /tmp/ccEFbENn.s:3357   .text:0000000000001114 .LBE152
     /tmp/ccEFbENn.s:3361   .text:0000000000001118 .LBB154
     /tmp/ccEFbENn.s:3374   .text:000000000000111c .LBE154
     /tmp/ccEFbENn.s:3455   .text:0000000000001180 .LBB159
     /tmp/ccEFbENn.s:3466   .text:0000000000001184 .LBE159
     /tmp/ccEFbENn.s:9997   .debug_loc:0000000000000c5e .LLST79
     /tmp/ccEFbENn.s:3471   .text:0000000000001188 .LBB161
     /tmp/ccEFbENn.s:3485   .text:0000000000001190 .LBE161
     /tmp/ccEFbENn.s:10004  .debug_loc:0000000000000c81 .LLST80
     /tmp/ccEFbENn.s:3448   .text:0000000000001174 .LVL279
     /tmp/ccEFbENn.s:3450   .text:000000000000117c .LVL280
     /tmp/ccEFbENn.s:3504   .text:00000000000011ac .LBB148
     /tmp/ccEFbENn.s:3554   .text:0000000000001210 .LBE148
     /tmp/ccEFbENn.s:10011  .debug_loc:0000000000000ca4 .LLST75
     /tmp/ccEFbENn.s:3520   .text:00000000000011d0 .LBB149
     /tmp/ccEFbENn.s:3532   .text:00000000000011d4 .LBE149
     /tmp/ccEFbENn.s:3518   .text:00000000000011d0 .LVL288
     /tmp/ccEFbENn.s:3539   .text:00000000000011e8 .LVL289
     /tmp/ccEFbENn.s:3544   .text:00000000000011f8 .LVL290
     /tmp/ccEFbENn.s:3549   .text:0000000000001208 .LVL291
     /tmp/ccEFbENn.s:3553   .text:0000000000001210 .LVL292
     /tmp/ccEFbENn.s:2733   .text:0000000000000e60 .LBB143
     /tmp/ccEFbENn.s:2821   .text:0000000000000f08 .LBE143
     /tmp/ccEFbENn.s:10018  .debug_loc:0000000000000cc7 .LLST73
     /tmp/ccEFbENn.s:10025  .debug_loc:0000000000000cea .LLST74
GAS LISTING /tmp/ccEFbENn.s 			page 131


     /tmp/ccEFbENn.s:2745   .text:0000000000000e80 .LBB144
     /tmp/ccEFbENn.s:2761   .text:0000000000000e8c .LBE144
     /tmp/ccEFbENn.s:2776   .text:0000000000000eb0 .LBB146
     /tmp/ccEFbENn.s:2788   .text:0000000000000eb4 .LBE146
     /tmp/ccEFbENn.s:2738   .text:0000000000000e70 .LVL220
     /tmp/ccEFbENn.s:2743   .text:0000000000000e80 .LVL221
     /tmp/ccEFbENn.s:2769   .text:0000000000000ea0 .LVL224
     /tmp/ccEFbENn.s:2774   .text:0000000000000eb0 .LVL225
     /tmp/ccEFbENn.s:2795   .text:0000000000000ec8 .LVL226
     /tmp/ccEFbENn.s:2800   .text:0000000000000ed8 .LVL227
     /tmp/ccEFbENn.s:2814   .text:0000000000000efc .LVL229
     /tmp/ccEFbENn.s:2818   .text:0000000000000f04 .LVL230
     /tmp/ccEFbENn.s:2655   .text:0000000000000df0 .LBB137
     /tmp/ccEFbENn.s:2670   .text:0000000000000dfc .LBE137
     /tmp/ccEFbENn.s:3043   .text:0000000000000f8c .LVL240
     /tmp/ccEFbENn.s:503    .text:0000000000000344 .LFB45
     /tmp/ccEFbENn.s:532    .text:0000000000000364 .LFE45
     /tmp/ccEFbENn.s:227    .text:0000000000000134 .LFB44
     /tmp/ccEFbENn.s:497    .text:0000000000000344 .LFE44
     /tmp/ccEFbENn.s:10032  .debug_loc:0000000000000d0d .LLST12
     /tmp/ccEFbENn.s:311    .text:00000000000001d0 .LBB96
     /tmp/ccEFbENn.s:344    .text:0000000000000224 .LBE96
     /tmp/ccEFbENn.s:10063  .debug_loc:0000000000000d7d .LLST13
     /tmp/ccEFbENn.s:328    .text:0000000000000204 .LVL37
     /tmp/ccEFbENn.s:335    .text:0000000000000218 .LVL38
     /tmp/ccEFbENn.s:252    .text:0000000000000160 .LBB94
     /tmp/ccEFbENn.s:264    .text:0000000000000164 .LBE94
     /tmp/ccEFbENn.s:429    .text:000000000000030c .LBB97
     /tmp/ccEFbENn.s:430    .text:000000000000030c .LBB98
     /tmp/ccEFbENn.s:443    .text:0000000000000314 .LBE98
     /tmp/ccEFbENn.s:10077  .debug_loc:0000000000000db6 .LLST14
     /tmp/ccEFbENn.s:447    .text:0000000000000314 .LBB100
     /tmp/ccEFbENn.s:460    .text:000000000000031c .LBE100
     /tmp/ccEFbENn.s:10085  .debug_loc:0000000000000dda .LLST15
     /tmp/ccEFbENn.s:464    .text:000000000000031c .LBB102
     /tmp/ccEFbENn.s:475    .text:0000000000000320 .LBE102
     /tmp/ccEFbENn.s:10094  .debug_loc:0000000000000e00 .LLST16
     /tmp/ccEFbENn.s:275    .text:0000000000000188 .LVL27
     /tmp/ccEFbENn.s:279    .text:0000000000000190 .LVL28
     /tmp/ccEFbENn.s:283    .text:0000000000000198 .LVL29
     /tmp/ccEFbENn.s:287    .text:00000000000001a0 .LVL30
     /tmp/ccEFbENn.s:291    .text:00000000000001a8 .LVL31
     /tmp/ccEFbENn.s:295    .text:00000000000001b0 .LVL32
     /tmp/ccEFbENn.s:299    .text:00000000000001b8 .LVL33
     /tmp/ccEFbENn.s:306    .text:00000000000001cc .LVL34
     /tmp/ccEFbENn.s:355    .text:000000000000024c .LVL41
     /tmp/ccEFbENn.s:364    .text:000000000000026c .LVL42
     /tmp/ccEFbENn.s:373    .text:000000000000028c .LVL43
     /tmp/ccEFbENn.s:381    .text:00000000000002a4 .LVL44
     /tmp/ccEFbENn.s:388    .text:00000000000002b8 .LVL45
     /tmp/ccEFbENn.s:395    .text:00000000000002cc .LVL46
     /tmp/ccEFbENn.s:402    .text:00000000000002e0 .LVL47
     /tmp/ccEFbENn.s:409    .text:00000000000002f4 .LVL48
     /tmp/ccEFbENn.s:66     .text:000000000000004c .LFB43
     /tmp/ccEFbENn.s:221    .text:0000000000000134 .LFE43
     /tmp/ccEFbENn.s:10102  .debug_loc:0000000000000e24 .LLST1
     /tmp/ccEFbENn.s:10127  .debug_loc:0000000000000e86 .LLST2
GAS LISTING /tmp/ccEFbENn.s 			page 132


     /tmp/ccEFbENn.s:10805  .debug_str:0000000000000b52 .LASF326
     /tmp/ccEFbENn.s:10152  .debug_loc:0000000000000ee8 .LLST3
     /tmp/ccEFbENn.s:10971  .debug_str:000000000000107f .LASF327
     /tmp/ccEFbENn.s:10178  .debug_loc:0000000000000f5a .LLST4
     /tmp/ccEFbENn.s:10623  .debug_str:000000000000056a .LASF328
     /tmp/ccEFbENn.s:10231  .debug_loc:0000000000000feb .LLST5
     /tmp/ccEFbENn.s:10979  .debug_str:00000000000010c3 .LASF329
     /tmp/ccEFbENn.s:10266  .debug_loc:0000000000001059 .LLST6
     /tmp/ccEFbENn.s:10865  .debug_str:0000000000000d94 .LASF330
     /tmp/ccEFbENn.s:10298  .debug_loc:00000000000010c4 .LLST7
     /tmp/ccEFbENn.s:10489  .debug_str:0000000000000197 .LASF331
     /tmp/ccEFbENn.s:10309  .debug_loc:00000000000010fa .LLST8
     /tmp/ccEFbENn.s:10889  .debug_str:0000000000000e1e .LASF332
     /tmp/ccEFbENn.s:10330  .debug_loc:0000000000001158 .LLST9
     /tmp/ccEFbENn.s:10839  .debug_str:0000000000000c81 .LASF333
     /tmp/ccEFbENn.s:10346  .debug_loc:00000000000011a2 .LLST10
     /tmp/ccEFbENn.s:10655  .debug_str:0000000000000655 .LASF334
     /tmp/ccEFbENn.s:10367  .debug_loc:0000000000001200 .LLST11
     /tmp/ccEFbENn.s:193    .text:0000000000000104 .LVL22
     /tmp/ccEFbENn.s:209    .text:0000000000000120 .LVL24
     /tmp/ccEFbENn.s:10     .text:0000000000000000 .LFB42
     /tmp/ccEFbENn.s:60     .text:000000000000004c .LFE42
     /tmp/ccEFbENn.s:29     .text:000000000000001c .LBB93
     /tmp/ccEFbENn.s:49     .text:000000000000003c .LBE93
     /tmp/ccEFbENn.s:10374  .debug_loc:0000000000001223 .LLST0
     /tmp/ccEFbENn.s:26     .text:000000000000001c .LVL0
     /tmp/ccEFbENn.s:10891  .debug_str:0000000000000e27 .LASF335
     /tmp/ccEFbENn.s:10539  .debug_str:00000000000002e6 .LASF336
     /tmp/ccEFbENn.s:10551  .debug_str:0000000000000329 .LASF352
     /tmp/ccEFbENn.s:10461  .debug_str:00000000000000a1 .LASF353
     /tmp/ccEFbENn.s:11123  .debug_str:000000000000164a .LASF337
     /tmp/ccEFbENn.s:10585  .debug_str:000000000000041b .LASF338
     /tmp/ccEFbENn.s:10601  .debug_str:00000000000004b8 .LASF339
     /tmp/ccEFbENn.s:11083  .debug_str:0000000000001467 .LASF340
     /tmp/ccEFbENn.s:10723  .debug_str:00000000000008ae .LASF341
     /tmp/ccEFbENn.s:10685  .debug_str:000000000000076d .LASF342
     /tmp/ccEFbENn.s:10807  .debug_str:0000000000000b57 .LASF343
     /tmp/ccEFbENn.s:2600   .text:0000000000000dc4 .LVL218
     /tmp/ccEFbENn.s:2605   .text:0000000000000dc8 .LVL219
     /tmp/ccEFbENn.s:2368   .text:0000000000000c88 .LVL203
     /tmp/ccEFbENn.s:2376   .text:0000000000000ca0 .LVL204
     /tmp/ccEFbENn.s:2432   .text:0000000000000d24 .LVL208
     /tmp/ccEFbENn.s:2532   .text:0000000000000d90 .LVL212
     /tmp/ccEFbENn.s:2543   .text:0000000000000d9c .LVL215
     /tmp/ccEFbENn.s:2538   .text:0000000000000d94 .LVL213
     /tmp/ccEFbENn.s:2526   .text:0000000000000d84 .LVL211
     /tmp/ccEFbENn.s:2540   .text:0000000000000d98 .LVL214
     /tmp/ccEFbENn.s:2293   .text:0000000000000c1c .LVL195
     /tmp/ccEFbENn.s:2321   .text:0000000000000c3c .LVL198
     /tmp/ccEFbENn.s:2325   .text:0000000000000c44 .LVL199
     /tmp/ccEFbENn.s:2299   .text:0000000000000c20 .LVL196
     /tmp/ccEFbENn.s:2217   .text:0000000000000bb4 .LVL187
     /tmp/ccEFbENn.s:2245   .text:0000000000000bd4 .LVL190
     /tmp/ccEFbENn.s:2249   .text:0000000000000bdc .LVL191
     /tmp/ccEFbENn.s:2223   .text:0000000000000bb8 .LVL188
     /tmp/ccEFbENn.s:881    .text:0000000000000528 .LVL76
     /tmp/ccEFbENn.s:894    .text:0000000000000530 .LVL77
GAS LISTING /tmp/ccEFbENn.s 			page 133


     /tmp/ccEFbENn.s:915    .text:0000000000000538 .LVL78
     /tmp/ccEFbENn.s:817    .text:00000000000004e4 .LVL73
     /tmp/ccEFbENn.s:832    .text:00000000000004ec .LVL75
     /tmp/ccEFbENn.s:770    .text:00000000000004b4 .LVL69
     /tmp/ccEFbENn.s:785    .text:00000000000004bc .LVL71
     /tmp/ccEFbENn.s:790    .text:00000000000004c0 .LVL72
     /tmp/ccEFbENn.s:778    .text:00000000000004b8 .LVL70
     /tmp/ccEFbENn.s:634    .text:00000000000003f0 .LVL60
     /tmp/ccEFbENn.s:644    .text:0000000000000404 .LVL61
     /tmp/ccEFbENn.s:661    .text:0000000000000418 .LVL63
     /tmp/ccEFbENn.s:684    .text:0000000000000428 .LVL65
     /tmp/ccEFbENn.s:698    .text:0000000000000444 .LVL67
     /tmp/ccEFbENn.s:709    .text:000000000000044c .LVL68
     /tmp/ccEFbENn.s:608    .text:00000000000003d4 .LVL58
     /tmp/ccEFbENn.s:2094   .text:0000000000000b10 .LVL176
     /tmp/ccEFbENn.s:2101   .text:0000000000000b20 .LVL177
     /tmp/ccEFbENn.s:2126   .text:0000000000000b40 .LVL179
     /tmp/ccEFbENn.s:2132   .text:0000000000000b44 .LVL180
     /tmp/ccEFbENn.s:2141   .text:0000000000000b5c .LVL183
     /tmp/ccEFbENn.s:2009   .text:0000000000000a7c .LVL170
     /tmp/ccEFbENn.s:2053   .text:0000000000000ac8 .LVL174
     /tmp/ccEFbENn.s:1937   .text:0000000000000a24 .LVL165
     /tmp/ccEFbENn.s:1944   .text:0000000000000a2c .LVL166
     /tmp/ccEFbENn.s:1967   .text:0000000000000a48 .LVL168
     /tmp/ccEFbENn.s:1860   .text:00000000000009c4 .LVL158
     /tmp/ccEFbENn.s:1865   .text:00000000000009c8 .LVL159
     /tmp/ccEFbENn.s:1899   .text:00000000000009fc .LVL162
     /tmp/ccEFbENn.s:1877   .text:00000000000009e0 .LVL160
     /tmp/ccEFbENn.s:1907   .text:0000000000000a08 .LVL164
     /tmp/ccEFbENn.s:1787   .text:0000000000000968 .LVL151
     /tmp/ccEFbENn.s:1817   .text:0000000000000988 .LVL154
     /tmp/ccEFbENn.s:1821   .text:0000000000000990 .LVL155
     /tmp/ccEFbENn.s:1796   .text:0000000000000970 .LVL152
     /tmp/ccEFbENn.s:1658   .text:00000000000008d4 .LVL137
     /tmp/ccEFbENn.s:1715   .text:0000000000000920 .LVL144
     /tmp/ccEFbENn.s:1722   .text:000000000000092c .LVL146
     /tmp/ccEFbENn.s:1731   .text:0000000000000938 .LVL148
     /tmp/ccEFbENn.s:1664   .text:00000000000008d8 .LVL138
     /tmp/ccEFbENn.s:1718   .text:0000000000000924 .LVL145
     /tmp/ccEFbENn.s:1712   .text:000000000000091c .LVL143
     /tmp/ccEFbENn.s:1728   .text:0000000000000934 .LVL147
     /tmp/ccEFbENn.s:1691   .text:0000000000000904 .LVL141
     /tmp/ccEFbENn.s:553    .text:0000000000000380 .LVL56
     /tmp/ccEFbENn.s:1571   .text:000000000000086c .LVL131
     /tmp/ccEFbENn.s:1595   .text:0000000000000890 .LVL134
     /tmp/ccEFbENn.s:1617   .text:00000000000008ac .LVL136
     /tmp/ccEFbENn.s:1581   .text:000000000000087c .LVL132
     /tmp/ccEFbENn.s:1503   .text:0000000000000818 .LVL125
     /tmp/ccEFbENn.s:1511   .text:0000000000000820 .LVL126
     /tmp/ccEFbENn.s:1534   .text:000000000000083c .LVL128
     /tmp/ccEFbENn.s:1361   .text:000000000000076c .LVL109
     /tmp/ccEFbENn.s:1430   .text:00000000000007d0 .LVL117
     /tmp/ccEFbENn.s:1440   .text:00000000000007e0 .LVL120
     /tmp/ccEFbENn.s:1367   .text:0000000000000770 .LVL110
     /tmp/ccEFbENn.s:1427   .text:00000000000007cc .LVL116
     /tmp/ccEFbENn.s:1449   .text:00000000000007ec .LVL122
     /tmp/ccEFbENn.s:1355   .text:0000000000000768 .LVL108
GAS LISTING /tmp/ccEFbENn.s 			page 134


     /tmp/ccEFbENn.s:1433   .text:00000000000007d4 .LVL118
     /tmp/ccEFbENn.s:1349   .text:0000000000000764 .LVL107
     /tmp/ccEFbENn.s:1436   .text:00000000000007d8 .LVL119
     /tmp/ccEFbENn.s:1424   .text:00000000000007c8 .LVL115
     /tmp/ccEFbENn.s:1446   .text:00000000000007e8 .LVL121
     /tmp/ccEFbENn.s:1403   .text:00000000000007b0 .LVL113
     /tmp/ccEFbENn.s:1183   .text:0000000000000698 .LVL90
     /tmp/ccEFbENn.s:1259   .text:0000000000000708 .LVL99
     /tmp/ccEFbENn.s:1269   .text:0000000000000718 .LVL102
     /tmp/ccEFbENn.s:1189   .text:000000000000069c .LVL91
     /tmp/ccEFbENn.s:1262   .text:000000000000070c .LVL100
     /tmp/ccEFbENn.s:1177   .text:0000000000000694 .LVL89
     /tmp/ccEFbENn.s:1256   .text:0000000000000704 .LVL98
     /tmp/ccEFbENn.s:1278   .text:0000000000000724 .LVL104
     /tmp/ccEFbENn.s:1171   .text:0000000000000690 .LVL88
     /tmp/ccEFbENn.s:1265   .text:0000000000000710 .LVL101
     /tmp/ccEFbENn.s:1253   .text:0000000000000700 .LVL97
     /tmp/ccEFbENn.s:1275   .text:0000000000000720 .LVL103
     /tmp/ccEFbENn.s:1232   .text:00000000000006e8 .LVL95
     /tmp/ccEFbENn.s:1126   .text:000000000000065c .LVL86
     /tmp/ccEFbENn.s:1096   .text:000000000000063c .LVL84
     /tmp/ccEFbENn.s:1044   .text:00000000000005f4 .LVL81
     /tmp/ccEFbENn.s:2880   .text:0000000000000f3c .LVL233
     /tmp/ccEFbENn.s:2886   .text:0000000000000f48 .LVL234
     /tmp/ccEFbENn.s:3008   .text:0000000000000f78 .LVL236
     /tmp/ccEFbENn.s:3017   .text:0000000000000f7c .LVL237
     /tmp/ccEFbENn.s:3024   .text:0000000000000f80 .LVL238
     /tmp/ccEFbENn.s:3033   .text:0000000000000f84 .LVL239
     /tmp/ccEFbENn.s:3327   .text:00000000000010fc .LVL268
     /tmp/ccEFbENn.s:3245   .text:0000000000001090 .LVL261
     /tmp/ccEFbENn.s:3255   .text:0000000000001098 .LVL262
     /tmp/ccEFbENn.s:3288   .text:00000000000010e0 .LVL264
     /tmp/ccEFbENn.s:3297   .text:00000000000010e4 .LVL265
     /tmp/ccEFbENn.s:3304   .text:00000000000010e8 .LVL266
     /tmp/ccEFbENn.s:3316   .text:00000000000010f0 .LVL267
     /tmp/ccEFbENn.s:3381   .text:000000000000112c .LVL272
     /tmp/ccEFbENn.s:3404   .text:000000000000113c .LVL274
     /tmp/ccEFbENn.s:3414   .text:000000000000114c .LVL275
     /tmp/ccEFbENn.s:3437   .text:0000000000001164 .LVL277
     /tmp/ccEFbENn.s:3433   .text:000000000000115c .LVL276
     /tmp/ccEFbENn.s:3441   .text:000000000000116c .LVL278
     /tmp/ccEFbENn.s:3482   .text:0000000000001190 .LVL284
     /tmp/ccEFbENn.s:3454   .text:0000000000001180 .LVL281
     /tmp/ccEFbENn.s:3463   .text:0000000000001184 .LVL282
     /tmp/ccEFbENn.s:3470   .text:0000000000001188 .LVL283
     /tmp/ccEFbENn.s:3509   .text:00000000000011b8 .LVL287
     /tmp/ccEFbENn.s:2759   .text:0000000000000e8c .LVL222
     /tmp/ccEFbENn.s:2767   .text:0000000000000e98 .LVL223
     /tmp/ccEFbENn.s:2805   .text:0000000000000ee4 .LVL228
     /tmp/ccEFbENn.s:418    .text:0000000000000308 .LVL49
     /tmp/ccEFbENn.s:435    .text:0000000000000310 .LVL51
     /tmp/ccEFbENn.s:452    .text:0000000000000318 .LVL53
     /tmp/ccEFbENn.s:310    .text:00000000000001d0 .LVL35
     /tmp/ccEFbENn.s:315    .text:00000000000001d8 .LVL36
     /tmp/ccEFbENn.s:350    .text:0000000000000238 .LVL40
     /tmp/ccEFbENn.s:427    .text:000000000000030c .LVL50
     /tmp/ccEFbENn.s:440    .text:0000000000000314 .LVL52
GAS LISTING /tmp/ccEFbENn.s 			page 135


     /tmp/ccEFbENn.s:457    .text:000000000000031c .LVL54
     /tmp/ccEFbENn.s:472    .text:0000000000000320 .LVL55
     /tmp/ccEFbENn.s:69     .text:000000000000004c .LVL4
     /tmp/ccEFbENn.s:122    .text:00000000000000a0 .LVL10
     /tmp/ccEFbENn.s:187    .text:00000000000000fc .LVL21
     /tmp/ccEFbENn.s:125    .text:00000000000000a4 .LVL11
     /tmp/ccEFbENn.s:163    .text:00000000000000d4 .LVL20
     /tmp/ccEFbENn.s:94     .text:000000000000007c .LVL5
     /tmp/ccEFbENn.s:111    .text:0000000000000090 .LVL8
     /tmp/ccEFbENn.s:101    .text:0000000000000084 .LVL6
     /tmp/ccEFbENn.s:130    .text:00000000000000a8 .LVL12
     /tmp/ccEFbENn.s:204    .text:0000000000000118 .LVL23
     /tmp/ccEFbENn.s:107    .text:000000000000008c .LVL7
     /tmp/ccEFbENn.s:149    .text:00000000000000c0 .LVL16
     /tmp/ccEFbENn.s:160    .text:00000000000000d0 .LVL19
     /tmp/ccEFbENn.s:115    .text:0000000000000098 .LVL9
     /tmp/ccEFbENn.s:134    .text:00000000000000b0 .LVL13
     /tmp/ccEFbENn.s:141    .text:00000000000000b8 .LVL14
     /tmp/ccEFbENn.s:144    .text:00000000000000bc .LVL15
     /tmp/ccEFbENn.s:151    .text:00000000000000c4 .LVL17
     /tmp/ccEFbENn.s:154    .text:00000000000000c8 .LVL18
     /tmp/ccEFbENn.s:32     .text:0000000000000020 .LVL1
     /tmp/ccEFbENn.s:45     .text:0000000000000038 .LVL2
     /tmp/ccEFbENn.s:47     .text:000000000000003c .LVL3
     /tmp/ccEFbENn.s:3602   .debug_info:0000000000000000 .Ldebug_info0
     /tmp/ccEFbENn.s:444    .text:0000000000000314 .LBE97
     /tmp/ccEFbENn.s:446    .text:0000000000000314 .LBB104
     /tmp/ccEFbENn.s:461    .text:000000000000031c .LBE104
     /tmp/ccEFbENn.s:463    .text:000000000000031c .LBB105
     /tmp/ccEFbENn.s:476    .text:0000000000000320 .LBE105
     /tmp/ccEFbENn.s:646    .text:0000000000000404 .LBB106
     /tmp/ccEFbENn.s:654    .text:000000000000040c .LBE106
     /tmp/ccEFbENn.s:656    .text:000000000000040c .LBB110
     /tmp/ccEFbENn.s:735    .text:0000000000000478 .LBE110
     /tmp/ccEFbENn.s:879    .text:0000000000000528 .LBE119
     /tmp/ccEFbENn.s:882    .text:0000000000000528 .LBB129
     /tmp/ccEFbENn.s:901    .text:0000000000000530 .LBE129
     /tmp/ccEFbENn.s:903    .text:0000000000000530 .LBB130
     /tmp/ccEFbENn.s:922    .text:0000000000000538 .LBE130
     /tmp/ccEFbENn.s:3407   .text:0000000000001140 .LBB157
     /tmp/ccEFbENn.s:3443   .text:000000000000116c .LBE157
     /tmp/ccEFbENn.s:3487   .text:0000000000001190 .LBB158
     /tmp/ccEFbENn.s:3500   .text:00000000000011ac .LBE158
     /tmp/ccEFbENn.s:2825   .text:0000000000000f08 .LBB183
     /tmp/ccEFbENn.s:3038   .text:0000000000000f84 .LBE183
     /tmp/ccEFbENn.s:3057   .text:0000000000000f9c .LBB192
     /tmp/ccEFbENn.s:3207   .text:0000000000001080 .LBE192
     /tmp/ccEFbENn.s:1292   .gcc_except_table:0000000000000000 .LLSDA49
     /tmp/ccEFbENn.s:1462   .gcc_except_table:0000000000000038 .LLSDA50
     /tmp/ccEFbENn.s:1744   .gcc_except_table:0000000000000063 .LLSDA54
     /tmp/ccEFbENn.s:2557   .gcc_except_table:000000000000008e .LLSDA68

UNDEFINED SYMBOLS
_ZN5Buddy5allocEm
_ZN5RiscV14supervisorTrapEv
HEAP_START_ADDR
_Z9kmem_initPvi
GAS LISTING /tmp/ccEFbENn.s 			page 136


_ZN15MemoryAllocator10initializeEv
_ZN9Scheduler10initializeEv
_ZN3TCB10initializeEv
_ZN3SCB10initializeEv
_ZN11ConsoleUtil10initializeEv
HEAP_END_ADDR
CONSOLE_RX_DATA
CONSOLE_TX_DATA
CONSOLE_STATUS
_ZN3TCB7runningE
_ZN3TCB8dispatchEv
_ZN11ConsoleUtil11pendingPutcE
_ZN11ConsoleUtil9putOutputEc
_Z15thread_dispatchv
_ZN11ConsoleUtil15putcUtilSyscallEv
_ZN11ConsoleUtil11pendingGetcE
_ZN9Scheduler9readyHeadE
_ZN3TCB10putcThreadE
_ZN9Scheduler3putEP3TCB
_ZN11ConsoleUtil10outputHeadE
_ZN11ConsoleUtil10outputTailE
_ZN15MemoryAllocator7kmallocEm
_ZN15MemoryAllocator11initializedE
_ZN15MemoryAllocator5kfreeEPv
_ZN3TCBnwEm
_ZN3TCBC1EPFvPvES0_Pmm
_ZN3TCBdlEPv
_Unwind_Resume
__gxx_personality_v0
_ZN3SCBnwEm
_ZN3SCBC1Em
_ZN3SCBdlEPv
_ZN3SCBD1Ev
_ZN3SCB4waitEv
_ZN3SCB6signalEv
_ZN9Scheduler5sleepEP3TCB
_ZN11ConsoleUtil8getInputEv
_ZN11ConsoleUtil9getOutputEv
_Z5kfreePKv
_ZN3TCBD1Ev
_Z7kmallocm
_ZN15MemoryAllocator6memcpyEPvS0_m
_ZN3TCB9currentPCE
_ZN3TCB9currentSPE
_ZN11ConsoleUtil11printStringEPKc
_ZN11ConsoleUtil8printIntEiii
_ZN9Scheduler5awakeEv
_ZN3TCB16timeSliceCounterE
plic_claim
plic_complete
_ZN11ConsoleUtil8putInputEc
