GAS LISTING /tmp/ccGkqgib.s 			page 1


   1              		.file	"riscv.cpp"
   2              		.option pic
   3              		.option norelax
   4              		.text
   5              	.Ltext0:
   6              		.align	2
   7              		.globl	_ZN5RiscV10initializeEv
   9              	_ZN5RiscV10initializeEv:
  10              	.LFB33:
  11              		.file 1 "src/riscv.cpp"
   1:src/riscv.cpp **** //
   2:src/riscv.cpp **** // Created by os on 4/28/22.
   3:src/riscv.cpp **** //
   4:src/riscv.cpp **** 
   5:src/riscv.cpp **** #include "../h/riscv.hpp"
   6:src/riscv.cpp **** #include "../h/memoryAllocator.hpp"
   7:src/riscv.cpp **** #include "../h/tcb.hpp"
   8:src/riscv.cpp **** #include "../h/scheduler.hpp"
   9:src/riscv.cpp **** #include "../h/printing.hpp"
  10:src/riscv.cpp **** #include "../h/consoleUtil.hpp"
  11:src/riscv.cpp **** #include "../h/buddy.hpp"
  12:src/riscv.cpp **** 
  13:src/riscv.cpp **** uint64 RiscV::globalTime = 0;
  14:src/riscv.cpp **** bool RiscV::userMainFinished = false;
  15:src/riscv.cpp **** 
  16:src/riscv.cpp **** //initailize each of the key components and switch to user mode for user code execution
  17:src/riscv.cpp **** void RiscV::initialize(){
  12              		.loc 1 17 25
  13              		.cfi_startproc
  14 0000 130101FF 		addi	sp,sp,-16
  15              		.cfi_def_cfa_offset 16
  16 0004 23341100 		sd	ra,8(sp)
  17 0008 23308100 		sd	s0,0(sp)
  18              		.cfi_offset 1, -8
  19              		.cfi_offset 8, -16
  20 000c 13040101 		addi	s0,sp,16
  21              		.cfi_def_cfa 8, 0
  18:src/riscv.cpp ****     RiscV::w_stvec((uint64) &RiscV::supervisorTrap);
  22              		.loc 1 18 5
  23              		.loc 1 18 19 is_stmt 0
  24 0010 97070000 		la	a5,_ZN5RiscV14supervisorTrapEv
  24      83B70700 
  25              	.LVL0:
  26              	.LBB89:
  27              	.LBB90:
  28              		.file 2 "src/../h/riscv.hpp"
   1:src/../h/riscv.hpp **** //
   2:src/../h/riscv.hpp **** // Created by os on 4/28/22.
   3:src/../h/riscv.hpp **** //
   4:src/../h/riscv.hpp **** 
   5:src/../h/riscv.hpp **** #ifndef OS1_KERNEL_RISCV_HPP
   6:src/../h/riscv.hpp **** #define OS1_KERNEL_RISCV_HPP
   7:src/../h/riscv.hpp **** #include "../lib/hw.h"
   8:src/../h/riscv.hpp **** 
   9:src/../h/riscv.hpp **** 
  10:src/../h/riscv.hpp **** class RiscV{
  11:src/../h/riscv.hpp **** 
GAS LISTING /tmp/ccGkqgib.s 			page 2


  12:src/../h/riscv.hpp ****     static uint64 globalTime;
  13:src/../h/riscv.hpp **** 
  14:src/../h/riscv.hpp ****     static bool userMainFinished;
  15:src/../h/riscv.hpp **** 
  16:src/../h/riscv.hpp ****     enum BitMaskSstatus{
  17:src/../h/riscv.hpp ****         SSTATUS_SIE = (1<<1),
  18:src/../h/riscv.hpp ****         SSTATUS_SPIE = (1<<5),
  19:src/../h/riscv.hpp ****         SSTATUS_SPP = (1<<8),
  20:src/../h/riscv.hpp ****     };
  21:src/../h/riscv.hpp **** 
  22:src/../h/riscv.hpp ****     enum BitMaskSip{
  23:src/../h/riscv.hpp ****         SIP_SSIE = (1<<1),
  24:src/../h/riscv.hpp ****         SIP_STIE = (1<<5),
  25:src/../h/riscv.hpp ****         SIP_SEIE = (1<<9),
  26:src/../h/riscv.hpp ****     };
  27:src/../h/riscv.hpp **** 
  28:src/../h/riscv.hpp ****     static void executeMemAllocSyscall();   //wrapper function for moving parameters and calling Me
  29:src/../h/riscv.hpp **** 
  30:src/../h/riscv.hpp ****     static void executeMemFreeSyscall();    //wrapper function for moving parameters and calling Me
  31:src/../h/riscv.hpp **** 
  32:src/../h/riscv.hpp ****     static void executeThreadCreateSyscall();
  33:src/../h/riscv.hpp **** 
  34:src/../h/riscv.hpp ****     static void executeThreadExitSyscall();
  35:src/../h/riscv.hpp **** 
  36:src/../h/riscv.hpp ****     static void executeThreadDispatchSyscall();
  37:src/../h/riscv.hpp **** 
  38:src/../h/riscv.hpp ****     static void executeThreadAttachBodySyscall();
  39:src/../h/riscv.hpp **** 
  40:src/../h/riscv.hpp ****     static void executeThreadStartSyscall();
  41:src/../h/riscv.hpp **** 
  42:src/../h/riscv.hpp ****     static void executeSemOpenSyscall();
  43:src/../h/riscv.hpp **** 
  44:src/../h/riscv.hpp ****     static void executeSemCloseSyscall();
  45:src/../h/riscv.hpp **** 
  46:src/../h/riscv.hpp ****     static void executeSemWaitSyscall();
  47:src/../h/riscv.hpp **** 
  48:src/../h/riscv.hpp ****     static void executeSemSignalSyscall();
  49:src/../h/riscv.hpp **** 
  50:src/../h/riscv.hpp ****     static void executeTimeSleepSyscall();
  51:src/../h/riscv.hpp **** 
  52:src/../h/riscv.hpp ****     static void executeGetcSyscall();
  53:src/../h/riscv.hpp **** 
  54:src/../h/riscv.hpp ****     static void executePutcSyscall();
  55:src/../h/riscv.hpp **** 
  56:src/../h/riscv.hpp ****     static void executePutcUtilSyscall();
  57:src/../h/riscv.hpp **** 
  58:src/../h/riscv.hpp ****     static void executeThreadFreeSyscall();
  59:src/../h/riscv.hpp **** 
  60:src/../h/riscv.hpp ****     static void executeSemaphoreFreeSyscall();
  61:src/../h/riscv.hpp **** 
  62:src/../h/riscv.hpp ****     static void executeForkSyscall();
  63:src/../h/riscv.hpp **** 
  64:src/../h/riscv.hpp ****     static void putcWrapper(void *arg);
  65:src/../h/riscv.hpp **** 
  66:src/../h/riscv.hpp ****     static uint64 r_scause();
  67:src/../h/riscv.hpp **** 
  68:src/../h/riscv.hpp ****     static void w_scause(uint64 scause);
GAS LISTING /tmp/ccGkqgib.s 			page 3


  69:src/../h/riscv.hpp **** 
  70:src/../h/riscv.hpp ****     static uint64 r_sepc();
  71:src/../h/riscv.hpp **** 
  72:src/../h/riscv.hpp ****     static void w_sepc(uint64 sepc);
  73:src/../h/riscv.hpp **** 
  74:src/../h/riscv.hpp ****     static uint64 r_stvec();
  75:src/../h/riscv.hpp **** 
  76:src/../h/riscv.hpp ****     static void w_stvec(uint64 stvec);
  77:src/../h/riscv.hpp **** 
  78:src/../h/riscv.hpp ****     static uint64 r_sstatus();
  79:src/../h/riscv.hpp **** 
  80:src/../h/riscv.hpp ****     static void w_sstatus(uint64 sstatus);
  81:src/../h/riscv.hpp **** 
  82:src/../h/riscv.hpp ****     static void ms_sstatus(uint64 mask);
  83:src/../h/riscv.hpp **** 
  84:src/../h/riscv.hpp ****     static void mc_sstatus(uint64 mask);
  85:src/../h/riscv.hpp **** 
  86:src/../h/riscv.hpp ****     static void ms_sip(uint64 mask);
  87:src/../h/riscv.hpp **** 
  88:src/../h/riscv.hpp ****     static void mc_sip(uint64 mask);
  89:src/../h/riscv.hpp **** 
  90:src/../h/riscv.hpp ****     static void ms_sie(uint64 mask);
  91:src/../h/riscv.hpp **** 
  92:src/../h/riscv.hpp ****     static void mc_sie(uint64 mask);
  93:src/../h/riscv.hpp **** 
  94:src/../h/riscv.hpp ****     static void saveA0toSscratch();
  95:src/../h/riscv.hpp **** 
  96:src/../h/riscv.hpp ****     static void jumpToDesignatedPrivilegeMode();
  97:src/../h/riscv.hpp **** 
  98:src/../h/riscv.hpp ****     static void popSppSpie();
  99:src/../h/riscv.hpp **** 
 100:src/../h/riscv.hpp ****     static void getPC();
 101:src/../h/riscv.hpp **** 
 102:src/../h/riscv.hpp ****     static void supervisorTrap();      //supervisorTrap defined in /src/supervisorTrap.S
 103:src/../h/riscv.hpp **** 
 104:src/../h/riscv.hpp ****     static void handleSupervisorTrap();
 105:src/../h/riscv.hpp **** 
 106:src/../h/riscv.hpp ****     static void enableInterrupts();
 107:src/../h/riscv.hpp **** 
 108:src/../h/riscv.hpp ****     static void disableInterrupts();
 109:src/../h/riscv.hpp **** 
 110:src/../h/riscv.hpp ****     static void enableHardwareInterrupts();
 111:src/../h/riscv.hpp **** 
 112:src/../h/riscv.hpp ****     static void disableHardwareInterrupts();
 113:src/../h/riscv.hpp **** 
 114:src/../h/riscv.hpp ****     static void enableTimerInterrupts();
 115:src/../h/riscv.hpp **** 
 116:src/../h/riscv.hpp ****     static void disableTimerInterrupts();
 117:src/../h/riscv.hpp **** 
 118:src/../h/riscv.hpp ****     static void initialize();
 119:src/../h/riscv.hpp **** 
 120:src/../h/riscv.hpp ****     static void finalize();
 121:src/../h/riscv.hpp **** 
 122:src/../h/riscv.hpp ****     friend class TCB;
 123:src/../h/riscv.hpp **** 
 124:src/../h/riscv.hpp ****     friend class System;
 125:src/../h/riscv.hpp **** 
GAS LISTING /tmp/ccGkqgib.s 			page 4


 126:src/../h/riscv.hpp ****     friend class Scheduler;
 127:src/../h/riscv.hpp **** 
 128:src/../h/riscv.hpp ****     friend class ConsoleUtil;
 129:src/../h/riscv.hpp **** };
 130:src/../h/riscv.hpp **** 
 131:src/../h/riscv.hpp **** inline uint64 RiscV::r_scause(){
 132:src/../h/riscv.hpp ****     uint64 volatile scause;
 133:src/../h/riscv.hpp ****     asm("csrr %[scause], scause" : [scause] "=r" (scause));
 134:src/../h/riscv.hpp ****     return scause;
 135:src/../h/riscv.hpp **** }
 136:src/../h/riscv.hpp **** 
 137:src/../h/riscv.hpp **** inline void RiscV::w_scause(uint64 scause){
 138:src/../h/riscv.hpp ****     asm("csrw scause, %[scause]" : : [scause] "r" (scause));
 139:src/../h/riscv.hpp **** }
 140:src/../h/riscv.hpp **** 
 141:src/../h/riscv.hpp **** inline uint64 RiscV::r_sepc(){
 142:src/../h/riscv.hpp ****     uint64 sepc;
 143:src/../h/riscv.hpp ****     asm("csrr %[sepc], sepc" : [sepc] "=r" (sepc));
 144:src/../h/riscv.hpp ****     return sepc;
 145:src/../h/riscv.hpp **** }
 146:src/../h/riscv.hpp **** 
 147:src/../h/riscv.hpp **** inline void RiscV::w_sepc(uint64 sepc){
 148:src/../h/riscv.hpp ****     asm("csrw sepc, %[sepc]" : : [sepc] "r" (sepc));
 149:src/../h/riscv.hpp **** }
 150:src/../h/riscv.hpp **** 
 151:src/../h/riscv.hpp **** inline uint64 RiscV::r_stvec(){
 152:src/../h/riscv.hpp ****     uint64 stvec;
 153:src/../h/riscv.hpp ****     asm("csrr %[stvec], stvec" : [stvec] "=r" (stvec));
 154:src/../h/riscv.hpp ****     return stvec;
 155:src/../h/riscv.hpp **** }
 156:src/../h/riscv.hpp **** 
 157:src/../h/riscv.hpp **** inline void RiscV::w_sstatus(uint64 sstatus){
 158:src/../h/riscv.hpp ****     asm("csrw sstatus, %[sstatus]" : : [sstatus] "r" (sstatus));
 159:src/../h/riscv.hpp **** }
 160:src/../h/riscv.hpp **** 
 161:src/../h/riscv.hpp **** inline uint64 RiscV::r_sstatus(){
 162:src/../h/riscv.hpp ****     uint64 sstatus;
 163:src/../h/riscv.hpp ****     asm("csrr %[sstatus], sstatus" : [sstatus] "=r" (sstatus));
 164:src/../h/riscv.hpp ****     return sstatus;
 165:src/../h/riscv.hpp **** }
 166:src/../h/riscv.hpp **** 
 167:src/../h/riscv.hpp **** inline void RiscV::w_stvec(uint64 stvec){
 168:src/../h/riscv.hpp ****     asm("csrw stvec, %[stvec]" : : [stvec] "r" (stvec));
  29              		.loc 2 168 5 is_stmt 1
  30              		.loc 2 168 56 is_stmt 0
  31              	#APP
  32              	# 168 "src/../h/riscv.hpp" 1
 169              	}
  33              		csrw stvec, a5
  34              	# 0 "" 2
  35              	.LVL1:
  36              	#NO_APP
  37              	.LBE90:
  38              	.LBE89:
  19:src/riscv.cpp ****     MemoryAllocator::initialize();
  39              		.loc 1 19 5 is_stmt 1
  40              		.loc 1 19 32 is_stmt 0
GAS LISTING /tmp/ccGkqgib.s 			page 5


  41 001c 97000000 		call	_ZN15MemoryAllocator10initializeEv@plt
  41      E7800000 
  42              	.LVL2:
  20:src/riscv.cpp ****     Scheduler::initialize();
  43              		.loc 1 20 5 is_stmt 1
  44              		.loc 1 20 26 is_stmt 0
  45 0024 97000000 		call	_ZN9Scheduler10initializeEv@plt
  45      E7800000 
  46              	.LVL3:
  21:src/riscv.cpp ****     TCB::initialize();
  47              		.loc 1 21 5 is_stmt 1
  48              		.loc 1 21 20 is_stmt 0
  49 002c 97000000 		call	_ZN3TCB10initializeEv@plt
  49      E7800000 
  50              	.LVL4:
  22:src/riscv.cpp ****     ConsoleUtil::initialize();
  51              		.loc 1 22 5 is_stmt 1
  52              		.loc 1 22 28 is_stmt 0
  53 0034 97000000 		call	_ZN11ConsoleUtil10initializeEv@plt
  53      E7800000 
  54              	.LVL5:
  23:src/riscv.cpp ****     Buddy::initialize();
  55              		.loc 1 23 5 is_stmt 1
  56              		.loc 1 23 22 is_stmt 0
  57 003c 97000000 		call	_ZN5Buddy10initializeEv@plt
  57      E7800000 
  58              	.LVL6:
  24:src/riscv.cpp ****     RiscV::enableInterrupts();
  59              		.loc 1 24 5 is_stmt 1
 170:src/../h/riscv.hpp **** 
 171:src/../h/riscv.hpp **** inline void  RiscV::ms_sstatus(uint64 mask) {
 172:src/../h/riscv.hpp ****     asm("csrs sstatus, %[mask]" : : [mask] "r" (mask));
 173:src/../h/riscv.hpp **** }
 174:src/../h/riscv.hpp **** 
 175:src/../h/riscv.hpp **** inline void  RiscV::mc_sstatus(uint64 mask) {
 176:src/../h/riscv.hpp ****     asm("csrc sstatus, %[mask]" : : [mask] "r" (mask));
 177:src/../h/riscv.hpp **** }
 178:src/../h/riscv.hpp **** 
 179:src/../h/riscv.hpp **** inline void  RiscV::ms_sip(uint64 mask) {
 180:src/../h/riscv.hpp ****     asm("csrs sip, %[mask]" : : [mask] "r" (mask));
 181:src/../h/riscv.hpp **** }
 182:src/../h/riscv.hpp **** 
 183:src/../h/riscv.hpp **** inline void  RiscV::mc_sip(uint64 mask) {
 184:src/../h/riscv.hpp ****     asm("csrc sip, %[mask]" : : [mask] "r" (mask));
 185:src/../h/riscv.hpp **** }
 186:src/../h/riscv.hpp **** 
 187:src/../h/riscv.hpp **** inline void  RiscV::ms_sie(uint64 mask) {
 188:src/../h/riscv.hpp ****     asm("csrs sie, %[mask]" : : [mask] "r" (mask));
 189:src/../h/riscv.hpp **** }
 190:src/../h/riscv.hpp **** 
 191:src/../h/riscv.hpp **** inline void  RiscV::mc_sie(uint64 mask){
 192:src/../h/riscv.hpp ****     asm("csrc sie, %[mask]" : : [mask] "r" (mask));
 193:src/../h/riscv.hpp **** }
 194:src/../h/riscv.hpp **** 
 195:src/../h/riscv.hpp **** inline void RiscV::enableInterrupts() {
 196:src/../h/riscv.hpp ****     RiscV::ms_sie(SIP_SSIE);
  60              		.loc 2 196 5
GAS LISTING /tmp/ccGkqgib.s 			page 6


  61              	.LBB91:
  62              	.LBB92:
  63              	.LBB93:
 188:src/../h/riscv.hpp **** }
  64              		.loc 2 188 5
 188:src/../h/riscv.hpp **** }
  65              		.loc 2 188 51 is_stmt 0
  66 0044 93072000 		li	a5,2
  67              	#APP
  68              	# 188 "src/../h/riscv.hpp" 1
  69              		csrs sie, a5
  70              	# 0 "" 2
  71              	.LVL7:
  72              	#NO_APP
  73              	.LBE93:
  74              	.LBE92:
  75              	.LBE91:
 197:src/../h/riscv.hpp ****     RiscV::ms_sie(SIP_SEIE);
  76              		.loc 2 197 5 is_stmt 1
  77              	.LBB98:
  78              	.LBB94:
  79              	.LBB95:
 188:src/../h/riscv.hpp **** }
  80              		.loc 2 188 5
 188:src/../h/riscv.hpp **** }
  81              		.loc 2 188 51 is_stmt 0
  82 004c 13070020 		li	a4,512
  83              	#APP
  84              	# 188 "src/../h/riscv.hpp" 1
  85              		csrs sie, a4
  86              	# 0 "" 2
  87              	.LVL8:
  88              	#NO_APP
  89              	.LBE95:
  90              	.LBE94:
  91              	.LBE98:
 198:src/../h/riscv.hpp ****     RiscV::ms_sstatus(SSTATUS_SIE);
  92              		.loc 2 198 5 is_stmt 1
  93              	.LBB99:
  94              	.LBB96:
  95              	.LBB97:
 172:src/../h/riscv.hpp **** }
  96              		.loc 2 172 5
 172:src/../h/riscv.hpp **** }
  97              		.loc 2 172 55 is_stmt 0
  98              	#APP
  99              	# 172 "src/../h/riscv.hpp" 1
 100              		csrs sstatus, a5
 101              	# 0 "" 2
 102              	.LVL9:
 103              	#NO_APP
 104              	.LBE97:
 105              	.LBE96:
 106              	.LBE99:
  25:src/riscv.cpp **** //    RiscV::enableHardwareInterrupts();
  26:src/riscv.cpp **** }
 107              		.loc 1 26 1
GAS LISTING /tmp/ccGkqgib.s 			page 7


 108 0058 83308100 		ld	ra,8(sp)
 109              		.cfi_restore 1
 110 005c 03340100 		ld	s0,0(sp)
 111              		.cfi_restore 8
 112              		.cfi_def_cfa 2, 16
 113 0060 13010101 		addi	sp,sp,16
 114              		.cfi_def_cfa_offset 0
 115 0064 67800000 		jr	ra
 116              		.cfi_endproc
 117              	.LFE33:
 119              		.align	2
 120              		.globl	_ZN5RiscV10popSppSpieEv
 122              	_ZN5RiscV10popSppSpieEv:
 123              	.LFB34:
  27:src/riscv.cpp **** 
  28:src/riscv.cpp **** //get previous privilege and previous interrupt status
  29:src/riscv.cpp **** void RiscV::popSppSpie() {
 124              		.loc 1 29 26 is_stmt 1
 125              		.cfi_startproc
 126 0068 130101FF 		addi	sp,sp,-16
 127              		.cfi_def_cfa_offset 16
 128 006c 23348100 		sd	s0,8(sp)
 129              		.cfi_offset 8, -8
 130 0070 13040101 		addi	s0,sp,16
 131              		.cfi_def_cfa 8, 0
  30:src/riscv.cpp ****     asm("csrw sepc, ra");
 132              		.loc 1 30 5
 133              		.loc 1 30 25 is_stmt 0
 134              	#APP
 135              	# 30 "src/riscv.cpp" 1
  31              	    asm("sret");
 136              		csrw sepc, ra
 137              	# 0 "" 2
 138              		.loc 1 31 5 is_stmt 1
 139              		.loc 1 31 16 is_stmt 0
 140              	# 31 "src/riscv.cpp" 1
  32              	}
 141              		sret
 142              	# 0 "" 2
 143              		.loc 1 32 1
 144              	#NO_APP
 145 007c 03348100 		ld	s0,8(sp)
 146              		.cfi_restore 8
 147              		.cfi_def_cfa 2, 16
 148 0080 13010101 		addi	sp,sp,16
 149              		.cfi_def_cfa_offset 0
 150 0084 67800000 		jr	ra
 151              		.cfi_endproc
 152              	.LFE34:
 154              		.align	2
 155              		.globl	_ZN5RiscV28executeThreadDispatchSyscallEv
 157              	_ZN5RiscV28executeThreadDispatchSyscallEv:
 158              	.LFB42:
  33:src/riscv.cpp **** 
  34:src/riscv.cpp **** //handler function for traps
  35:src/riscv.cpp **** void RiscV::handleSupervisorTrap() {
  36:src/riscv.cpp **** 
GAS LISTING /tmp/ccGkqgib.s 			page 8


  37:src/riscv.cpp ****     //read scause
  38:src/riscv.cpp ****     uint64 volatile scause = RiscV::r_scause();
  39:src/riscv.cpp **** 
  40:src/riscv.cpp ****     asm("csrr %[sscratch], sscratch" : [sscratch] "=r" (TCB::running->a0Location));
  41:src/riscv.cpp **** 
  42:src/riscv.cpp ****     //interrupt from ecall (both user and supervisor mode)
  43:src/riscv.cpp ****     if(scause == 0x09 || scause == 0x08) {
  44:src/riscv.cpp **** 
  45:src/riscv.cpp ****         //save sstatus and sepc
  46:src/riscv.cpp ****         //sepc should be increased by 4, since this is an ecall trap
  47:src/riscv.cpp ****         uint64 volatile sstatus = RiscV::r_sstatus();
  48:src/riscv.cpp ****         uint64 volatile sepc = RiscV::r_sepc()+4;
  49:src/riscv.cpp ****         TCB::running->sepc = sepc;
  50:src/riscv.cpp ****         TCB::running->sstatus = sstatus;
  51:src/riscv.cpp **** 
  52:src/riscv.cpp ****         //get the syscall ID from a0
  53:src/riscv.cpp ****         uint64 syscallID;
  54:src/riscv.cpp ****         asm("mv %[syscallID], a0" : [syscallID] "=r" (syscallID));
  55:src/riscv.cpp **** 
  56:src/riscv.cpp ****         switch(syscallID){
  57:src/riscv.cpp ****             case 0x01 : executeMemAllocSyscall();break;
  58:src/riscv.cpp ****             case 0x02 : executeMemFreeSyscall();break;
  59:src/riscv.cpp ****             case 0x11 : executeThreadCreateSyscall();break;
  60:src/riscv.cpp ****             case 0x12 : executeThreadExitSyscall();break;
  61:src/riscv.cpp ****             case 0x13 : executeThreadDispatchSyscall();break;
  62:src/riscv.cpp ****             case 0x14 : executeThreadAttachBodySyscall();break;
  63:src/riscv.cpp ****             case 0x15 : executeThreadStartSyscall();break;
  64:src/riscv.cpp ****             case 0x21 : executeSemOpenSyscall();break;
  65:src/riscv.cpp ****             case 0x22 : executeSemCloseSyscall();break;
  66:src/riscv.cpp ****             case 0x23 : executeSemWaitSyscall();break;
  67:src/riscv.cpp ****             case 0x24 : executeSemSignalSyscall();break;
  68:src/riscv.cpp ****             case 0x31 : executeTimeSleepSyscall();break;
  69:src/riscv.cpp ****             case 0x41 : executeGetcSyscall();break;
  70:src/riscv.cpp ****             case 0x42 : executePutcSyscall();break;
  71:src/riscv.cpp ****             case 0x43 : executePutcUtilSyscall();break;
  72:src/riscv.cpp ****             case 0x51 : executeThreadFreeSyscall();break;
  73:src/riscv.cpp ****             case 0x52 : executeSemaphoreFreeSyscall();break;
  74:src/riscv.cpp ****             //in this case we need to save SP and PC at this point so that newly created thread
  75:src/riscv.cpp ****             //can return to this point and exit trap routine regularly
  76:src/riscv.cpp ****             //note that getPC() returns PC incremented by 8 to skip executeForkSyscall
  77:src/riscv.cpp ****             case 0x61 : asm("mv %[sp], sp" : [sp] "=r"(TCB::currentSP));
  78:src/riscv.cpp ****                         RiscV::getPC();
  79:src/riscv.cpp ****                         executeForkSyscall();
  80:src/riscv.cpp ****                         break;
  81:src/riscv.cpp ****         }
  82:src/riscv.cpp **** 
  83:src/riscv.cpp ****         //write previously save sstatus and incremented sepc
  84:src/riscv.cpp ****         RiscV::w_sstatus(TCB::running->sstatus);
  85:src/riscv.cpp ****         RiscV::w_sepc(TCB::running->sepc);
  86:src/riscv.cpp ****     }
  87:src/riscv.cpp **** 
  88:src/riscv.cpp ****     //timer interrupt (in this system's implementation, timer tick is manifested as software interr
  89:src/riscv.cpp ****     else if(scause == (0x01UL<<63 | 0x1)){
  90:src/riscv.cpp **** 
  91:src/riscv.cpp ****         //save sstatus and sepc
  92:src/riscv.cpp ****         //this time sepc remains the same
  93:src/riscv.cpp ****         uint64 volatile sstatus = RiscV::r_sstatus();
GAS LISTING /tmp/ccGkqgib.s 			page 9


  94:src/riscv.cpp ****         uint64 volatile sepc = RiscV::r_sepc();
  95:src/riscv.cpp **** 
  96:src/riscv.cpp ****         //clear the SIP bit for software interrupt
  97:src/riscv.cpp ****         mc_sip(SIP_SSIE);
  98:src/riscv.cpp **** 
  99:src/riscv.cpp **** 
 100:src/riscv.cpp ****         //increase global time and try to awake threads that are asleep
 101:src/riscv.cpp ****         globalTime += 1;
 102:src/riscv.cpp ****         Scheduler::awake();
 103:src/riscv.cpp **** 
 104:src/riscv.cpp ****         //check whether time slice has run out for running thread
 105:src/riscv.cpp ****         //if so, dispatch
 106:src/riscv.cpp ****         TCB::timeSliceCounter++;
 107:src/riscv.cpp ****         if(TCB::timeSliceCounter >= TCB::running->timeSlice) {
 108:src/riscv.cpp **** 
 109:src/riscv.cpp ****             TCB::timeSliceCounter = 0;
 110:src/riscv.cpp **** 
 111:src/riscv.cpp ****             TCB* old = TCB::running;
 112:src/riscv.cpp **** 
 113:src/riscv.cpp ****             old->status = TCB::Status::READY;
 114:src/riscv.cpp **** 
 115:src/riscv.cpp ****             TCB::dispatch();
 116:src/riscv.cpp ****         }
 117:src/riscv.cpp **** 
 118:src/riscv.cpp ****         //write previously save sstatus and sepc
 119:src/riscv.cpp ****         RiscV::w_sstatus(sstatus);
 120:src/riscv.cpp ****         RiscV::w_sepc(sepc);
 121:src/riscv.cpp ****     }
 122:src/riscv.cpp **** 
 123:src/riscv.cpp ****     //hardware interrupt, from console (note that here we only check for keyboard interrupts, handl
 124:src/riscv.cpp ****     else if(scause == (0x01UL<<63 | 0x9)){
 125:src/riscv.cpp ****         //save sstatus and sepc
 126:src/riscv.cpp ****         //this time sepc remains the same
 127:src/riscv.cpp ****         uint64 volatile sstatus = RiscV::r_sstatus();
 128:src/riscv.cpp ****         uint64 volatile sepc = RiscV::r_sepc();
 129:src/riscv.cpp **** 
 130:src/riscv.cpp ****         //get the console status register location, and console status reg value
 131:src/riscv.cpp ****         uint64 status = CONSOLE_STATUS;
 132:src/riscv.cpp ****         asm("mv a0, %[status]" : : [status] "r" (status));
 133:src/riscv.cpp ****         asm("lb a1, 0(a0)");
 134:src/riscv.cpp ****         asm("mv %[status], a1" : [status] "=r" (status));
 135:src/riscv.cpp **** 
 136:src/riscv.cpp ****         //if keyboard is ready to send data
 137:src/riscv.cpp ****         if(status & 1UL)
 138:src/riscv.cpp ****         {
 139:src/riscv.cpp ****             //fetch the character from CONSOLE_TX_DATA register
 140:src/riscv.cpp ****             uint64 data;
 141:src/riscv.cpp ****             char c;
 142:src/riscv.cpp ****             data = CONSOLE_TX_DATA;
 143:src/riscv.cpp ****             asm("mv a0, %[data]" : : [data] "r" (data));
 144:src/riscv.cpp ****             asm("lb a1, 0(a0)");
 145:src/riscv.cpp ****             asm("mv %[c], a1" : [c] "=r" (c));
 146:src/riscv.cpp **** 
 147:src/riscv.cpp ****             //if there was a getc request put the character into the input buffer, othrewise ignore
 148:src/riscv.cpp ****             if(ConsoleUtil::pendingGetc!=0) {
 149:src/riscv.cpp ****                 ConsoleUtil::pendingGetc--;
 150:src/riscv.cpp ****                 ConsoleUtil::putInput(c);
GAS LISTING /tmp/ccGkqgib.s 			page 10


 151:src/riscv.cpp ****             }
 152:src/riscv.cpp ****         }
 153:src/riscv.cpp ****         plic_complete(plic_claim());
 154:src/riscv.cpp **** 
 155:src/riscv.cpp ****         RiscV::w_sstatus(sstatus);
 156:src/riscv.cpp ****         RiscV::w_sepc(sepc);
 157:src/riscv.cpp ****     }
 158:src/riscv.cpp **** 
 159:src/riscv.cpp ****     //illegal instruction, exit running thread
 160:src/riscv.cpp ****     else if(scause == 0x02){
 161:src/riscv.cpp ****         TCB* old = TCB::running;
 162:src/riscv.cpp ****         old->status = TCB::Status::FINISHED;
 163:src/riscv.cpp ****         ConsoleUtil::printString("sepc: ");
 164:src/riscv.cpp ****         uint64 sepc = RiscV::r_sepc();
 165:src/riscv.cpp ****         ConsoleUtil::printInt(sepc,16);
 166:src/riscv.cpp ****         ConsoleUtil::printString("\n");
 167:src/riscv.cpp ****         ConsoleUtil::printString("Illegal instruction\nExiting thread...\n");
 168:src/riscv.cpp ****         TCB::dispatch();
 169:src/riscv.cpp ****     }
 170:src/riscv.cpp **** 
 171:src/riscv.cpp ****     //some other kind of error, for more information check out RiscV handbook
 172:src/riscv.cpp ****     else{
 173:src/riscv.cpp ****         ConsoleUtil::printString("Error: \n");
 174:src/riscv.cpp ****         ConsoleUtil::printString("scause: ");
 175:src/riscv.cpp ****         uint64  scause = RiscV::r_scause();
 176:src/riscv.cpp ****         ConsoleUtil::printInt(scause);
 177:src/riscv.cpp ****         ConsoleUtil::printString("sepc: ");
 178:src/riscv.cpp ****         uint64 sepc = RiscV::r_sepc();
 179:src/riscv.cpp ****         ConsoleUtil::printInt(sepc,16);
 180:src/riscv.cpp ****         ConsoleUtil::printString("\n");
 181:src/riscv.cpp ****         TCB* old = TCB::running;
 182:src/riscv.cpp ****         old->status = TCB::Status::FINISHED;
 183:src/riscv.cpp ****         ConsoleUtil::printString("Exiting thread...\n");
 184:src/riscv.cpp ****         TCB::dispatch();
 185:src/riscv.cpp ****     }
 186:src/riscv.cpp **** 
 187:src/riscv.cpp ****     RiscV::jumpToDesignatedPrivilegeMode();
 188:src/riscv.cpp **** }
 189:src/riscv.cpp **** 
 190:src/riscv.cpp **** void RiscV::executeMemAllocSyscall(){
 191:src/riscv.cpp **** 
 192:src/riscv.cpp ****     //fetch the arguments from a0-a7 registers
 193:src/riscv.cpp ****     uint64 size;
 194:src/riscv.cpp ****     asm("mv %[size], a1" : [size] "=r" (size));
 195:src/riscv.cpp **** 
 196:src/riscv.cpp ****     //call internal allocator and return the address in a0
 197:src/riscv.cpp ****     uint64 addr =(uint64)MemoryAllocator::kmalloc(size);
 198:src/riscv.cpp **** 
 199:src/riscv.cpp ****     asm("mv a0, %[addr]" : : [addr] "r" (addr));
 200:src/riscv.cpp **** 
 201:src/riscv.cpp ****     RiscV::saveA0toSscratch();
 202:src/riscv.cpp **** }
 203:src/riscv.cpp **** 
 204:src/riscv.cpp **** void RiscV::executeMemFreeSyscall() {
 205:src/riscv.cpp **** 
 206:src/riscv.cpp ****     //fetch the arguments from a0-a7 registers
 207:src/riscv.cpp ****     uint64 iaddr, status;
GAS LISTING /tmp/ccGkqgib.s 			page 11


 208:src/riscv.cpp **** 
 209:src/riscv.cpp **** 
 210:src/riscv.cpp ****     if(MemoryAllocator::initialized) {
 211:src/riscv.cpp ****         //call internal allocator and free memory which iaddr points to
 212:src/riscv.cpp ****         asm("mv %[iaddr], a1" : [iaddr] "=r"(iaddr));
 213:src/riscv.cpp ****         status = MemoryAllocator::kfree((void *) iaddr);;
 214:src/riscv.cpp ****     }
 215:src/riscv.cpp ****     else
 216:src/riscv.cpp ****         status = -1;
 217:src/riscv.cpp **** 
 218:src/riscv.cpp ****     //return status
 219:src/riscv.cpp ****     asm("mv a0, %[status]" : : [status] "r" (status));
 220:src/riscv.cpp **** 
 221:src/riscv.cpp ****     RiscV::saveA0toSscratch();
 222:src/riscv.cpp **** }
 223:src/riscv.cpp **** 
 224:src/riscv.cpp **** void RiscV::executeThreadCreateSyscall(){
 225:src/riscv.cpp **** 
 226:src/riscv.cpp ****     //fetch the arguments from a0-a7 registers
 227:src/riscv.cpp ****     uint64 iroutine, iargs, ihandle, istack;
 228:src/riscv.cpp **** 
 229:src/riscv.cpp ****     asm("mv %[istack], a7" : [istack] "=r"(istack));
 230:src/riscv.cpp ****     asm("mv %[ihandle], a1" : [ihandle] "=r"(ihandle));
 231:src/riscv.cpp ****     asm("mv %[iroutine], a2" : [iroutine] "=r"(iroutine));
 232:src/riscv.cpp ****     asm("mv %[iargs], a3" : [iargs] "=r"(iargs));
 233:src/riscv.cpp **** 
 234:src/riscv.cpp ****     //call constructor for Thread Control Block and if not null, write thread address into ihandle
 235:src/riscv.cpp ****     TCB *tcb = new TCB((TCB::Body)iroutine, (void*)iargs, (uint64*)istack, DEFAULT_TIME_SLICE);
 236:src/riscv.cpp **** 
 237:src/riscv.cpp ****     uint64 status = 0;
 238:src/riscv.cpp **** 
 239:src/riscv.cpp ****     if(tcb == nullptr){
 240:src/riscv.cpp ****         status = -1;
 241:src/riscv.cpp ****     }
 242:src/riscv.cpp ****     else{
 243:src/riscv.cpp ****         if(tcb->body)
 244:src/riscv.cpp ****             Scheduler::put(tcb);
 245:src/riscv.cpp ****         *((TCB**)ihandle) = tcb;
 246:src/riscv.cpp ****     }
 247:src/riscv.cpp **** 
 248:src/riscv.cpp ****     //return status
 249:src/riscv.cpp ****     asm("mv a0, %[status]" : : [status] "r" (status));
 250:src/riscv.cpp **** 
 251:src/riscv.cpp ****     RiscV::saveA0toSscratch();
 252:src/riscv.cpp **** }
 253:src/riscv.cpp **** 
 254:src/riscv.cpp **** void RiscV::executeThreadAttachBodySyscall(){
 255:src/riscv.cpp **** 
 256:src/riscv.cpp ****     //fetch the arguments from a0-a7 registers
 257:src/riscv.cpp ****     uint64 iroutine, iargs, ihandle, istack;
 258:src/riscv.cpp **** 
 259:src/riscv.cpp **** 
 260:src/riscv.cpp ****     asm("mv %[istack], a7" : [istack] "=r"(istack));
 261:src/riscv.cpp ****     asm("mv %[ihandle], a1" : [ihandle] "=r"(ihandle));
 262:src/riscv.cpp ****     asm("mv %[iroutine], a2" : [iroutine] "=r"(iroutine));
 263:src/riscv.cpp ****     asm("mv %[iargs], a3" : [iargs] "=r"(iargs));
 264:src/riscv.cpp **** 
GAS LISTING /tmp/ccGkqgib.s 			page 12


 265:src/riscv.cpp ****     TCB *tcb = new TCB((TCB::Body)iroutine, (void*)iargs, (uint64*)istack, DEFAULT_TIME_SLICE);
 266:src/riscv.cpp **** 
 267:src/riscv.cpp ****     uint64 status = 0;
 268:src/riscv.cpp **** 
 269:src/riscv.cpp ****     if(tcb == nullptr){
 270:src/riscv.cpp ****         status = -1;
 271:src/riscv.cpp ****     }
 272:src/riscv.cpp ****     else{
 273:src/riscv.cpp ****         tcb->body = (TCB::Body)iroutine;
 274:src/riscv.cpp ****         tcb->args = (void*)iargs;
 275:src/riscv.cpp ****         *((TCB**)ihandle) = tcb;
 276:src/riscv.cpp ****     }
 277:src/riscv.cpp **** 
 278:src/riscv.cpp ****     asm("mv a0, %[status]" : : [status] "r" (status));
 279:src/riscv.cpp **** 
 280:src/riscv.cpp ****     RiscV::saveA0toSscratch();
 281:src/riscv.cpp **** }
 282:src/riscv.cpp **** 
 283:src/riscv.cpp **** void RiscV::executeThreadStartSyscall(){
 284:src/riscv.cpp **** 
 285:src/riscv.cpp ****     //fetch the arguments from a0-a7 registers
 286:src/riscv.cpp ****     uint64 ihandle;
 287:src/riscv.cpp **** 
 288:src/riscv.cpp ****     asm("mv %[ihandle], a1" : [ihandle] "=r"(ihandle));
 289:src/riscv.cpp **** 
 290:src/riscv.cpp ****     //get the handle and put tcb in scheduler if not null
 291:src/riscv.cpp ****     TCB* tcb =(TCB*)ihandle;
 292:src/riscv.cpp **** 
 293:src/riscv.cpp ****     uint64 status = 0;
 294:src/riscv.cpp **** 
 295:src/riscv.cpp ****     if(tcb == nullptr){
 296:src/riscv.cpp ****         status = -1;
 297:src/riscv.cpp ****     }
 298:src/riscv.cpp ****     else{
 299:src/riscv.cpp ****         tcb->status = TCB::Status::READY;
 300:src/riscv.cpp ****         Scheduler::put(tcb);
 301:src/riscv.cpp ****         TCB::dispatch();
 302:src/riscv.cpp ****     }
 303:src/riscv.cpp **** 
 304:src/riscv.cpp ****     //return status
 305:src/riscv.cpp ****     asm("mv a0, %[status]" : : [status] "r" (status));
 306:src/riscv.cpp **** 
 307:src/riscv.cpp ****     RiscV::saveA0toSscratch();
 308:src/riscv.cpp **** }
 309:src/riscv.cpp **** 
 310:src/riscv.cpp **** void RiscV::executeThreadExitSyscall() {
 311:src/riscv.cpp **** 
 312:src/riscv.cpp ****     //fetch the arguments from a0-a7 registers
 313:src/riscv.cpp ****     uint64 status = 0;
 314:src/riscv.cpp **** 
 315:src/riscv.cpp ****     //if thread not null, set status to finished and dispatch
 316:src/riscv.cpp ****     if(TCB::running == nullptr){
 317:src/riscv.cpp ****         status = -1;
 318:src/riscv.cpp ****     }
 319:src/riscv.cpp ****     else{
 320:src/riscv.cpp ****         TCB* old = TCB::running;
 321:src/riscv.cpp ****         old->status = TCB::Status::FINISHED;
GAS LISTING /tmp/ccGkqgib.s 			page 13


 322:src/riscv.cpp ****         TCB::dispatch();
 323:src/riscv.cpp ****     }
 324:src/riscv.cpp **** 
 325:src/riscv.cpp ****     asm("mv a0, %[status]" : : [status] "r" (status));
 326:src/riscv.cpp **** 
 327:src/riscv.cpp ****     RiscV::saveA0toSscratch();
 328:src/riscv.cpp **** }
 329:src/riscv.cpp **** 
 330:src/riscv.cpp **** void RiscV::executeThreadDispatchSyscall(){
 159              		.loc 1 330 43 is_stmt 1
 160              		.cfi_startproc
 161 0088 130101FF 		addi	sp,sp,-16
 162              		.cfi_def_cfa_offset 16
 163 008c 23341100 		sd	ra,8(sp)
 164 0090 23308100 		sd	s0,0(sp)
 165              		.cfi_offset 1, -8
 166              		.cfi_offset 8, -16
 167 0094 13040101 		addi	s0,sp,16
 168              		.cfi_def_cfa 8, 0
 331:src/riscv.cpp **** 
 332:src/riscv.cpp ****     //dispatch current running thread
 333:src/riscv.cpp ****     TCB* old = TCB::running;
 169              		.loc 1 333 5
 170              		.loc 1 333 10 is_stmt 0
 171 0098 97070000 		la	a5,_ZN3TCB7runningE
 171      83B70700 
 172 00a0 83B70700 		ld	a5,0(a5)
 173              	.LVL10:
 334:src/riscv.cpp ****     old->status = TCB::Status::READY;
 174              		.loc 1 334 5 is_stmt 1
 175              		.loc 1 334 17 is_stmt 0
 176 00a4 13071000 		li	a4,1
 177 00a8 23A8E700 		sw	a4,16(a5)
 335:src/riscv.cpp ****     TCB::dispatch();
 178              		.loc 1 335 5 is_stmt 1
 179              		.loc 1 335 18 is_stmt 0
 180 00ac 97000000 		call	_ZN3TCB8dispatchEv@plt
 180      E7800000 
 181              	.LVL11:
 336:src/riscv.cpp **** }
 182              		.loc 1 336 1
 183 00b4 83308100 		ld	ra,8(sp)
 184              		.cfi_restore 1
 185 00b8 03340100 		ld	s0,0(sp)
 186              		.cfi_restore 8
 187              		.cfi_def_cfa 2, 16
 188 00bc 13010101 		addi	sp,sp,16
 189              		.cfi_def_cfa_offset 0
 190 00c0 67800000 		jr	ra
 191              		.cfi_endproc
 192              	.LFE42:
 194              		.align	2
 195              		.globl	_ZN5RiscV18executePutcSyscallEv
 197              	_ZN5RiscV18executePutcSyscallEv:
 198              	.LFB49:
 337:src/riscv.cpp **** 
 338:src/riscv.cpp **** void RiscV::executeSemOpenSyscall() {
GAS LISTING /tmp/ccGkqgib.s 			page 14


 339:src/riscv.cpp **** 
 340:src/riscv.cpp ****     //fetch the arguments from a0-a7 registers
 341:src/riscv.cpp ****     uint64 ihandle, iinit;
 342:src/riscv.cpp **** 
 343:src/riscv.cpp ****     asm("mv %[ihandle], a1" : [ihandle] "=r"(ihandle));
 344:src/riscv.cpp ****     asm("mv %[iinit], a2" : [iinit] "=r"(iinit));
 345:src/riscv.cpp **** 
 346:src/riscv.cpp ****     //create new Semaphore Control Block and write it into ihandle if not null
 347:src/riscv.cpp ****     SCB *scb = new SCB(iinit);
 348:src/riscv.cpp **** 
 349:src/riscv.cpp ****     uint64 status = 0;
 350:src/riscv.cpp **** 
 351:src/riscv.cpp ****     if(scb == nullptr){
 352:src/riscv.cpp ****         status = -1;
 353:src/riscv.cpp ****     }
 354:src/riscv.cpp ****     else{
 355:src/riscv.cpp ****         *((SCB**)ihandle) = scb;
 356:src/riscv.cpp ****     }
 357:src/riscv.cpp **** 
 358:src/riscv.cpp ****     //return status
 359:src/riscv.cpp ****     asm("mv a0, %[status]" : : [status] "r" (status));
 360:src/riscv.cpp **** 
 361:src/riscv.cpp ****     RiscV::saveA0toSscratch();
 362:src/riscv.cpp **** 
 363:src/riscv.cpp **** }
 364:src/riscv.cpp **** 
 365:src/riscv.cpp **** void RiscV::executeSemCloseSyscall() {
 366:src/riscv.cpp **** 
 367:src/riscv.cpp ****     //fetch the arguments from a0-a7 registers
 368:src/riscv.cpp ****     uint64 ihandle;
 369:src/riscv.cpp **** 
 370:src/riscv.cpp ****     asm("mv %[ihandle], a1" : [ihandle] "=r"(ihandle));
 371:src/riscv.cpp **** 
 372:src/riscv.cpp ****     //delete scb if not null
 373:src/riscv.cpp ****     SCB *scb = (SCB*)ihandle;
 374:src/riscv.cpp ****     uint64 status = 0;
 375:src/riscv.cpp **** 
 376:src/riscv.cpp ****     if(scb == nullptr){
 377:src/riscv.cpp ****         status = -1;
 378:src/riscv.cpp ****     }
 379:src/riscv.cpp ****     else
 380:src/riscv.cpp ****         delete (SCB*)ihandle;
 381:src/riscv.cpp **** 
 382:src/riscv.cpp ****     //return status
 383:src/riscv.cpp ****     asm("mv a0, %[status]" : : [status] "r" (status));
 384:src/riscv.cpp **** 
 385:src/riscv.cpp ****     RiscV::saveA0toSscratch();
 386:src/riscv.cpp **** }
 387:src/riscv.cpp **** 
 388:src/riscv.cpp **** void RiscV::executeSemWaitSyscall() {
 389:src/riscv.cpp **** 
 390:src/riscv.cpp ****     //fetch the arguments from a0-a7 registers
 391:src/riscv.cpp ****     uint64 ihandle;
 392:src/riscv.cpp **** 
 393:src/riscv.cpp ****     asm("mv %[ihandle], a1" : [ihandle] "=r"(ihandle));
 394:src/riscv.cpp **** 
 395:src/riscv.cpp ****     uint64 status = 0;
GAS LISTING /tmp/ccGkqgib.s 			page 15


 396:src/riscv.cpp ****     //call wait method on ihandle scb
 397:src/riscv.cpp **** 
 398:src/riscv.cpp ****     if(((SCB*)ihandle) != nullptr)
 399:src/riscv.cpp ****         ((SCB*)ihandle)->wait();
 400:src/riscv.cpp ****     else
 401:src/riscv.cpp ****         status = -1;
 402:src/riscv.cpp **** 
 403:src/riscv.cpp ****     if(TCB::running->semError != nullptr)
 404:src/riscv.cpp ****         status = -1;
 405:src/riscv.cpp ****     else
 406:src/riscv.cpp ****         status = 0;
 407:src/riscv.cpp **** 
 408:src/riscv.cpp ****     //return status
 409:src/riscv.cpp ****     asm("mv a0, %[status]" : : [status] "r" (status));
 410:src/riscv.cpp **** 
 411:src/riscv.cpp ****     RiscV::saveA0toSscratch();
 412:src/riscv.cpp **** 
 413:src/riscv.cpp **** }
 414:src/riscv.cpp **** 
 415:src/riscv.cpp **** void RiscV::executeSemSignalSyscall() {
 416:src/riscv.cpp **** 
 417:src/riscv.cpp ****     //fetch the arguments from a0-a7 registers
 418:src/riscv.cpp ****     uint64 ihandle;
 419:src/riscv.cpp **** 
 420:src/riscv.cpp ****     asm("mv %[ihandle], a1" : [ihandle] "=r"(ihandle));
 421:src/riscv.cpp **** 
 422:src/riscv.cpp ****     //call signal method on ihandle scb
 423:src/riscv.cpp **** 
 424:src/riscv.cpp ****     uint64 status = 0;
 425:src/riscv.cpp **** 
 426:src/riscv.cpp ****     if(((SCB*)ihandle) != nullptr)
 427:src/riscv.cpp ****         ((SCB*)ihandle)->signal();
 428:src/riscv.cpp ****     else
 429:src/riscv.cpp ****         status = -1;
 430:src/riscv.cpp **** 
 431:src/riscv.cpp ****     //return status
 432:src/riscv.cpp ****     asm("mv a0, %[status]" : : [status] "r" (status));
 433:src/riscv.cpp **** 
 434:src/riscv.cpp ****     RiscV::saveA0toSscratch();
 435:src/riscv.cpp **** }
 436:src/riscv.cpp **** 
 437:src/riscv.cpp **** void RiscV::executeTimeSleepSyscall() {
 438:src/riscv.cpp **** 
 439:src/riscv.cpp ****     //fetch the arguments from a0-a7 registers
 440:src/riscv.cpp ****     uint64 itime;
 441:src/riscv.cpp **** 
 442:src/riscv.cpp ****     asm("mv %[itime], a1" : [itime] "=r"(itime));
 443:src/riscv.cpp **** 
 444:src/riscv.cpp ****     //calculate wake time for running thread and put it to sleep
 445:src/riscv.cpp ****     //fetch new running with dispatch
 446:src/riscv.cpp ****     TCB* tcb = TCB::running;
 447:src/riscv.cpp ****     tcb->sleepTime = globalTime;
 448:src/riscv.cpp ****     tcb->wakeTime = globalTime + itime;
 449:src/riscv.cpp **** 
 450:src/riscv.cpp ****     Scheduler::sleep(tcb);
 451:src/riscv.cpp **** 
 452:src/riscv.cpp ****     tcb->status = TCB::Status::BLOCKED;
GAS LISTING /tmp/ccGkqgib.s 			page 16


 453:src/riscv.cpp **** 
 454:src/riscv.cpp ****     TCB::dispatch();
 455:src/riscv.cpp **** 
 456:src/riscv.cpp ****     uint64 status = 0;
 457:src/riscv.cpp **** 
 458:src/riscv.cpp ****     //return status
 459:src/riscv.cpp ****     asm("mv a0, %[status]" : : [status] "r" (status));
 460:src/riscv.cpp **** 
 461:src/riscv.cpp ****     RiscV::saveA0toSscratch();
 462:src/riscv.cpp **** }
 463:src/riscv.cpp **** 
 464:src/riscv.cpp **** void RiscV::executeGetcSyscall() {
 465:src/riscv.cpp **** 
 466:src/riscv.cpp ****     //register a pending getc call
 467:src/riscv.cpp ****     if(!userMainFinished)
 468:src/riscv.cpp ****         ConsoleUtil::pendingGetc++;
 469:src/riscv.cpp **** 
 470:src/riscv.cpp ****     //get character from input buffer
 471:src/riscv.cpp ****     char c = ConsoleUtil::getInput();
 472:src/riscv.cpp **** 
 473:src/riscv.cpp ****     //if char == \n echo it as LF and CR
 474:src/riscv.cpp ****     if(c==13) {
 475:src/riscv.cpp ****         ConsoleUtil::putOutput(13);
 476:src/riscv.cpp ****         ConsoleUtil::putOutput(10);
 477:src/riscv.cpp ****     }
 478:src/riscv.cpp ****     //if not ESC character, echo it to console
 479:src/riscv.cpp ****     else if(c!=0x01b)
 480:src/riscv.cpp ****         ConsoleUtil::putOutput(c);
 481:src/riscv.cpp **** 
 482:src/riscv.cpp ****     //return character
 483:src/riscv.cpp ****     asm("mv a0, %[c]" : : [c] "r" (c));
 484:src/riscv.cpp **** 
 485:src/riscv.cpp ****     RiscV::saveA0toSscratch();
 486:src/riscv.cpp **** }
 487:src/riscv.cpp **** 
 488:src/riscv.cpp **** void RiscV::executePutcSyscall() {
 199              		.loc 1 488 34 is_stmt 1
 200              		.cfi_startproc
 201 00c4 130101FF 		addi	sp,sp,-16
 202              		.cfi_def_cfa_offset 16
 203 00c8 23341100 		sd	ra,8(sp)
 204 00cc 23308100 		sd	s0,0(sp)
 205              		.cfi_offset 1, -8
 206              		.cfi_offset 8, -16
 207 00d0 13040101 		addi	s0,sp,16
 208              		.cfi_def_cfa 8, 0
 489:src/riscv.cpp **** 
 490:src/riscv.cpp ****     //register a pending putc call
 491:src/riscv.cpp ****     if(!userMainFinished)
 209              		.loc 1 491 5
 210              		.loc 1 491 8 is_stmt 0
 211 00d4 97070000 		lbu	a5,.LANCHOR0
 211      83C70700 
 212              		.loc 1 491 5
 213 00dc 639C0700 		bnez	a5,.L8
 492:src/riscv.cpp ****         ConsoleUtil::pendingPutc++;
 214              		.loc 1 492 9 is_stmt 1
GAS LISTING /tmp/ccGkqgib.s 			page 17


 215              		.loc 1 492 33 is_stmt 0
 216 00e0 17070000 		la	a4,_ZN11ConsoleUtil11pendingPutcE
 216      03370700 
 217 00e8 83370700 		ld	a5,0(a4)
 218 00ec 93871700 		addi	a5,a5,1
 219 00f0 2330F700 		sd	a5,0(a4)
 220              	.L8:
 493:src/riscv.cpp **** 
 494:src/riscv.cpp ****     char c;
 221              		.loc 1 494 5 is_stmt 1
 495:src/riscv.cpp **** 
 496:src/riscv.cpp ****     asm("mv %[c], a1" : [c] "=r"(c));
 222              		.loc 1 496 5
 223              		.loc 1 496 37 is_stmt 0
 224              	#APP
 225              	# 496 "src/riscv.cpp" 1
 497              	
 226              		mv a0, a1
 227              	# 0 "" 2
 228              	.LVL12:
 498:src/riscv.cpp ****     //put character in output buffer
 499:src/riscv.cpp ****     ConsoleUtil::putOutput(c);
 229              		.loc 1 499 5 is_stmt 1
 230              		.loc 1 499 27 is_stmt 0
 231              	#NO_APP
 232 00f8 1375F50F 		andi	a0,a0,0xff
 233 00fc 97000000 		call	_ZN11ConsoleUtil9putOutputEc@plt
 233      E7800000 
 234              	.LVL13:
 500:src/riscv.cpp **** }
 235              		.loc 1 500 1
 236 0104 83308100 		ld	ra,8(sp)
 237              		.cfi_restore 1
 238 0108 03340100 		ld	s0,0(sp)
 239              		.cfi_restore 8
 240              		.cfi_def_cfa 2, 16
 241 010c 13010101 		addi	sp,sp,16
 242              		.cfi_def_cfa_offset 0
 243 0110 67800000 		jr	ra
 244              		.cfi_endproc
 245              	.LFE49:
 247              		.align	2
 248              		.globl	_ZN5RiscV11putcWrapperEPv
 250              	_ZN5RiscV11putcWrapperEPv:
 251              	.LFB50:
 501:src/riscv.cpp **** 
 502:src/riscv.cpp **** //wrapper function for putcThread
 503:src/riscv.cpp **** //spins in a while loop and checks whether console is ready to take output
 504:src/riscv.cpp **** //if ready read data from output buffer
 505:src/riscv.cpp **** void RiscV::putcWrapper(void* arg)
 506:src/riscv.cpp **** {
 252              		.loc 1 506 1 is_stmt 1
 253              		.cfi_startproc
 254              	.LVL14:
 255 0114 130101FE 		addi	sp,sp,-32
 256              		.cfi_def_cfa_offset 32
 257 0118 233C1100 		sd	ra,24(sp)
GAS LISTING /tmp/ccGkqgib.s 			page 18


 258 011c 23388100 		sd	s0,16(sp)
 259              		.cfi_offset 1, -8
 260              		.cfi_offset 8, -16
 261 0120 13040102 		addi	s0,sp,32
 262              		.cfi_def_cfa 8, 0
 263 0124 6F00C000 		j	.L11
 264              	.LVL15:
 265              	.L12:
 266              	.LBB100:
 267              	.LBB101:
 507:src/riscv.cpp ****     while(true)
 508:src/riscv.cpp ****     {
 509:src/riscv.cpp ****         //read console status from status register
 510:src/riscv.cpp ****         uint64 status = CONSOLE_STATUS;
 511:src/riscv.cpp ****         asm("mv a0, %[status]" : : [status] "r" (status));
 512:src/riscv.cpp ****         asm("lb a1, 0(a0)");
 513:src/riscv.cpp ****         asm("mv %[status], a1" : [status] "=r" (status));
 514:src/riscv.cpp **** 
 515:src/riscv.cpp ****         //if console ready..
 516:src/riscv.cpp ****         if(status & 1UL<<5){
 517:src/riscv.cpp **** 
 518:src/riscv.cpp ****             //get character from output buffer with possible block if nothing in buffer
 519:src/riscv.cpp ****                 char volatile c = ConsoleUtil::putcUtilSyscall();
 520:src/riscv.cpp ****                 uint64 data = CONSOLE_RX_DATA;
 521:src/riscv.cpp ****                 asm("mv a0, %[data]" : : [data] "r"(data));
 522:src/riscv.cpp ****                 asm("mv a1, %[c]" : : [c] "r"(c));
 523:src/riscv.cpp ****                 asm("sb a1,0(a0)");
 524:src/riscv.cpp **** 
 525:src/riscv.cpp ****             //decrement number of pending putc requests
 526:src/riscv.cpp ****             if(ConsoleUtil::pendingPutc>0)
 527:src/riscv.cpp ****                 ConsoleUtil::pendingPutc--;
 528:src/riscv.cpp ****         }
 529:src/riscv.cpp ****         else
 530:src/riscv.cpp ****             thread_dispatch();
 268              		.loc 1 530 13
 269              		.loc 1 530 28 is_stmt 0
 270 0128 97000000 		call	_Z15thread_dispatchv@plt
 270      E7800000 
 271              	.LVL16:
 272              	.L11:
 273              	.LBE101:
 274              	.LBE100:
 507:src/riscv.cpp ****     while(true)
 275              		.loc 1 507 5 is_stmt 1
 276              	.LBB104:
 510:src/riscv.cpp ****         asm("mv a0, %[status]" : : [status] "r" (status));
 277              		.loc 1 510 9
 510:src/riscv.cpp ****         asm("mv a0, %[status]" : : [status] "r" (status));
 278              		.loc 1 510 16 is_stmt 0
 279 0130 97070000 		la	a5,CONSOLE_STATUS
 279      83B70700 
 280 0138 83B70700 		ld	a5,0(a5)
 281              	.LVL17:
 511:src/riscv.cpp ****         asm("lb a1, 0(a0)");
 282              		.loc 1 511 9 is_stmt 1
 511:src/riscv.cpp ****         asm("lb a1, 0(a0)");
 283              		.loc 1 511 58 is_stmt 0
GAS LISTING /tmp/ccGkqgib.s 			page 19


 284              	#APP
 285              	# 511 "src/riscv.cpp" 1
 512:src/riscv.cpp ****         asm("mv %[status], a1" : [status] "=r" (status));
 286              		mv a0, a5
 287              	# 0 "" 2
 288              		.loc 1 512 9 is_stmt 1
 512:src/riscv.cpp ****         asm("mv %[status], a1" : [status] "=r" (status));
 289              		.loc 1 512 28 is_stmt 0
 290              	# 512 "src/riscv.cpp" 1
 513:src/riscv.cpp **** 
 291              		lb a1, 0(a0)
 292              	# 0 "" 2
 293              		.loc 1 513 9 is_stmt 1
 513:src/riscv.cpp **** 
 294              		.loc 1 513 57 is_stmt 0
 295              	# 513 "src/riscv.cpp" 1
 296              		mv a5, a1
 297              	# 0 "" 2
 298              	.LVL18:
 516:src/riscv.cpp **** 
 299              		.loc 1 516 9 is_stmt 1
 300              	#NO_APP
 301              	.LBB103:
 516:src/riscv.cpp **** 
 302              		.loc 1 516 19 is_stmt 0
 303 0148 93F70702 		andi	a5,a5,32
 304              	.LVL19:
 516:src/riscv.cpp **** 
 305              		.loc 1 516 9
 306 014c E38E07FC 		beqz	a5,.L12
 307              	.LBB102:
 519:src/riscv.cpp ****                 uint64 data = CONSOLE_RX_DATA;
 308              		.loc 1 519 17 is_stmt 1
 519:src/riscv.cpp ****                 uint64 data = CONSOLE_RX_DATA;
 309              		.loc 1 519 63 is_stmt 0
 310 0150 97000000 		call	_ZN11ConsoleUtil15putcUtilSyscallEv@plt
 310      E7800000 
 311              	.LVL20:
 519:src/riscv.cpp ****                 uint64 data = CONSOLE_RX_DATA;
 312              		.loc 1 519 64
 313 0158 A307A4FE 		sb	a0,-17(s0)
 520:src/riscv.cpp ****                 asm("mv a0, %[data]" : : [data] "r"(data));
 314              		.loc 1 520 17 is_stmt 1
 520:src/riscv.cpp ****                 asm("mv a0, %[data]" : : [data] "r"(data));
 315              		.loc 1 520 24 is_stmt 0
 316 015c 97070000 		la	a5,CONSOLE_RX_DATA
 316      83B70700 
 317 0164 83B70700 		ld	a5,0(a5)
 318              	.LVL21:
 521:src/riscv.cpp ****                 asm("mv a1, %[c]" : : [c] "r"(c));
 319              		.loc 1 521 17 is_stmt 1
 521:src/riscv.cpp ****                 asm("mv a1, %[c]" : : [c] "r"(c));
 320              		.loc 1 521 59 is_stmt 0
 321              	#APP
 322              	# 521 "src/riscv.cpp" 1
 522:src/riscv.cpp ****                 asm("sb a1,0(a0)");
 323              		mv a0, a5
GAS LISTING /tmp/ccGkqgib.s 			page 20


 324              	# 0 "" 2
 325              		.loc 1 522 17 is_stmt 1
 522:src/riscv.cpp ****                 asm("sb a1,0(a0)");
 326              		.loc 1 522 47 is_stmt 0
 327              	#NO_APP
 328 016c 8347F4FE 		lbu	a5,-17(s0)
 329              	.LVL22:
 522:src/riscv.cpp ****                 asm("sb a1,0(a0)");
 330              		.loc 1 522 50
 331              	#APP
 332              	# 522 "src/riscv.cpp" 1
 523:src/riscv.cpp **** 
 333              		mv a1, a5
 334              	# 0 "" 2
 335              		.loc 1 523 17 is_stmt 1
 523:src/riscv.cpp **** 
 336              		.loc 1 523 35 is_stmt 0
 337              	# 523 "src/riscv.cpp" 1
 526:src/riscv.cpp ****                 ConsoleUtil::pendingPutc--;
 338              		sb a1,0(a0)
 339              	# 0 "" 2
 340              		.loc 1 526 13 is_stmt 1
 526:src/riscv.cpp ****                 ConsoleUtil::pendingPutc--;
 341              		.loc 1 526 40 is_stmt 0
 342              	#NO_APP
 343 0178 97070000 		la	a5,_ZN11ConsoleUtil11pendingPutcE
 343      83B70700 
 344 0180 83B70700 		ld	a5,0(a5)
 526:src/riscv.cpp ****                 ConsoleUtil::pendingPutc--;
 345              		.loc 1 526 13
 346 0184 E38607FA 		beqz	a5,.L11
 527:src/riscv.cpp ****         }
 347              		.loc 1 527 17 is_stmt 1
 527:src/riscv.cpp ****         }
 348              		.loc 1 527 41 is_stmt 0
 349 0188 9387F7FF 		addi	a5,a5,-1
 350 018c 17070000 		la	a4,_ZN11ConsoleUtil11pendingPutcE
 350      03370700 
 351 0194 2330F700 		sd	a5,0(a4)
 352 0198 6FF09FF9 		j	.L11
 353              	.LBE102:
 354              	.LBE103:
 355              	.LBE104:
 356              		.cfi_endproc
 357              	.LFE50:
 359              		.align	2
 360              		.globl	_ZN5RiscV29jumpToDesignatedPrivilegeModeEv
 362              	_ZN5RiscV29jumpToDesignatedPrivilegeModeEv:
 363              	.LFB52:
 531:src/riscv.cpp ****     }
 532:src/riscv.cpp **** }
 533:src/riscv.cpp **** 
 534:src/riscv.cpp **** //utility syscall to get character from output buffer
 535:src/riscv.cpp **** //syscall is needed because we don't want to fiddle with kernel structures from anywhere but the tr
 536:src/riscv.cpp **** void RiscV::executePutcUtilSyscall() {
 537:src/riscv.cpp ****     char c = ConsoleUtil::getOutput();
 538:src/riscv.cpp ****     asm("mv a0, %[c]" : : [c] "r" ((uint64)(c)) );
GAS LISTING /tmp/ccGkqgib.s 			page 21


 539:src/riscv.cpp **** 
 540:src/riscv.cpp ****     RiscV::saveA0toSscratch();
 541:src/riscv.cpp **** }
 542:src/riscv.cpp **** 
 543:src/riscv.cpp **** //return to privilege that was given at creation
 544:src/riscv.cpp **** void RiscV::jumpToDesignatedPrivilegeMode() {
 364              		.loc 1 544 45 is_stmt 1
 365              		.cfi_startproc
 366 019c 130101FF 		addi	sp,sp,-16
 367              		.cfi_def_cfa_offset 16
 368 01a0 23348100 		sd	s0,8(sp)
 369              		.cfi_offset 8, -8
 370 01a4 13040101 		addi	s0,sp,16
 371              		.cfi_def_cfa 8, 0
 545:src/riscv.cpp ****     if(TCB::running->mode == TCB::Mode::SUPERVISOR)
 372              		.loc 1 545 5
 373              		.loc 1 545 22 is_stmt 0
 374 01a8 97070000 		la	a5,_ZN3TCB7runningE
 374      83B70700 
 375 01b0 83B70700 		ld	a5,0(a5)
 376 01b4 03A74701 		lw	a4,20(a5)
 377              		.loc 1 545 5
 378 01b8 93071000 		li	a5,1
 379 01bc 630CF700 		beq	a4,a5,.L19
 546:src/riscv.cpp ****         RiscV::ms_sstatus(RiscV::SSTATUS_SPP);
 547:src/riscv.cpp ****     else
 548:src/riscv.cpp ****         RiscV::mc_sstatus(RiscV::SSTATUS_SPP);
 380              		.loc 1 548 9 is_stmt 1
 381              	.LVL23:
 382              	.LBB105:
 383              	.LBB106:
 176:src/../h/riscv.hpp **** }
 384              		.loc 2 176 5
 176:src/../h/riscv.hpp **** }
 385              		.loc 2 176 55 is_stmt 0
 386 01c0 93070010 		li	a5,256
 387              	#APP
 388              	# 176 "src/../h/riscv.hpp" 1
 389              		csrc sstatus, a5
 390              	# 0 "" 2
 391              	.LVL24:
 392              	#NO_APP
 393              	.L15:
 394              	.LBE106:
 395              	.LBE105:
 549:src/riscv.cpp **** }
 396              		.loc 1 549 1
 397 01c8 03348100 		ld	s0,8(sp)
 398              		.cfi_remember_state
 399              		.cfi_restore 8
 400              		.cfi_def_cfa 2, 16
 401 01cc 13010101 		addi	sp,sp,16
 402              		.cfi_def_cfa_offset 0
 403 01d0 67800000 		jr	ra
 404              	.L19:
 405              		.cfi_restore_state
 546:src/riscv.cpp ****         RiscV::ms_sstatus(RiscV::SSTATUS_SPP);
GAS LISTING /tmp/ccGkqgib.s 			page 22


 406              		.loc 1 546 9 is_stmt 1
 407              	.LVL25:
 408              	.LBB107:
 409              	.LBB108:
 172:src/../h/riscv.hpp **** }
 410              		.loc 2 172 5
 172:src/../h/riscv.hpp **** }
 411              		.loc 2 172 55 is_stmt 0
 412 01d4 93070010 		li	a5,256
 413              	#APP
 414              	# 172 "src/../h/riscv.hpp" 1
 173:src/../h/riscv.hpp **** 
 415              		csrs sstatus, a5
 416              	# 0 "" 2
 417              		.loc 2 173 1
 418              	#NO_APP
 419 01dc 6FF0DFFE 		j	.L15
 420              	.LBE108:
 421              	.LBE107:
 422              		.cfi_endproc
 423              	.LFE52:
 425              		.align	2
 426              		.globl	_ZN5RiscV8finalizeEv
 428              	_ZN5RiscV8finalizeEv:
 429              	.LFB53:
 550:src/riscv.cpp **** 
 551:src/riscv.cpp **** 
 552:src/riscv.cpp **** //clear out the scheduler and let console finish remaining outputs if there are any
 553:src/riscv.cpp **** void RiscV::finalize() {
 430              		.loc 1 553 24 is_stmt 1
 431              		.cfi_startproc
 432 01e0 130101FF 		addi	sp,sp,-16
 433              		.cfi_def_cfa_offset 16
 434 01e4 23341100 		sd	ra,8(sp)
 435 01e8 23308100 		sd	s0,0(sp)
 436              		.cfi_offset 1, -8
 437              		.cfi_offset 8, -16
 438 01ec 13040101 		addi	s0,sp,16
 439              		.cfi_def_cfa 8, 0
 554:src/riscv.cpp ****     userMainFinished = true;
 440              		.loc 1 554 5
 441              		.loc 1 554 22 is_stmt 0
 442 01f0 93071000 		li	a5,1
 443 01f4 17070000 		sb	a5,.LANCHOR0,a4
 443      2300F700 
 555:src/riscv.cpp **** 
 556:src/riscv.cpp ****     ConsoleUtil::pendingPutc = 0;
 444              		.loc 1 556 5 is_stmt 1
 445              		.loc 1 556 30 is_stmt 0
 446 01fc 97070000 		la	a5,_ZN11ConsoleUtil11pendingPutcE
 446      83B70700 
 447 0204 23B00700 		sd	zero,0(a5)
 557:src/riscv.cpp ****     ConsoleUtil::pendingGetc = 0;
 448              		.loc 1 557 5 is_stmt 1
 449              		.loc 1 557 30 is_stmt 0
 450 0208 97070000 		la	a5,_ZN11ConsoleUtil11pendingGetcE
 450      83B70700 
GAS LISTING /tmp/ccGkqgib.s 			page 23


 451 0210 23B00700 		sd	zero,0(a5)
 558:src/riscv.cpp **** 
 559:src/riscv.cpp ****     RiscV::disableInterrupts();
 452              		.loc 1 559 5 is_stmt 1
 453              	.LBB109:
 454              	.LBB110:
 199:src/../h/riscv.hpp **** }
 200:src/../h/riscv.hpp **** 
 201:src/../h/riscv.hpp **** inline void RiscV::disableInterrupts() {
 202:src/../h/riscv.hpp ****     disableTimerInterrupts();
 455              		.loc 2 202 5
 456              	.LBE110:
 457              	.LBE109:
 203:src/../h/riscv.hpp ****     disableHardwareInterrupts();
 204:src/../h/riscv.hpp **** }
 205:src/../h/riscv.hpp **** 
 206:src/../h/riscv.hpp **** inline void RiscV::enableHardwareInterrupts() {
 207:src/../h/riscv.hpp ****     RiscV::mc_sie(SIP_SSIE);
 208:src/../h/riscv.hpp ****     RiscV::ms_sstatus(SSTATUS_SIE);
 209:src/../h/riscv.hpp ****     RiscV::ms_sie(SIP_SEIE);
 210:src/../h/riscv.hpp **** }
 211:src/../h/riscv.hpp **** 
 212:src/../h/riscv.hpp **** inline void RiscV::disableHardwareInterrupts(){
 213:src/../h/riscv.hpp ****     RiscV::mc_sie(SIP_SEIE);
 214:src/../h/riscv.hpp **** }
 215:src/../h/riscv.hpp **** 
 216:src/../h/riscv.hpp **** inline void RiscV::enableTimerInterrupts() {
 217:src/../h/riscv.hpp ****     RiscV::mc_sie(SIP_SEIE);
 218:src/../h/riscv.hpp ****     RiscV::ms_sstatus(SSTATUS_SIE);
 219:src/../h/riscv.hpp ****     RiscV::ms_sie(SIP_SSIE);
 220:src/../h/riscv.hpp **** }
 221:src/../h/riscv.hpp **** 
 222:src/../h/riscv.hpp **** inline void RiscV::disableTimerInterrupts(){
 223:src/../h/riscv.hpp ****     RiscV::mc_sie(SIP_SSIE);
 458              		.loc 2 223 5
 459              	.LVL26:
 460              	.LBB119:
 461              	.LBB117:
 462              	.LBB111:
 463              	.LBB112:
 464              	.LBB113:
 192:src/../h/riscv.hpp **** }
 465              		.loc 2 192 5
 192:src/../h/riscv.hpp **** }
 466              		.loc 2 192 51 is_stmt 0
 467 0214 93072000 		li	a5,2
 468              	#APP
 469              	# 192 "src/../h/riscv.hpp" 1
 470              		csrc sie, a5
 471              	# 0 "" 2
 472              	.LVL27:
 473              	#NO_APP
 474              	.LBE113:
 475              	.LBE112:
 476              	.LBE111:
 203:src/../h/riscv.hpp ****     disableHardwareInterrupts();
 477              		.loc 2 203 5 is_stmt 1
GAS LISTING /tmp/ccGkqgib.s 			page 24


 478              	.LBE117:
 479              	.LBE119:
 213:src/../h/riscv.hpp **** }
 480              		.loc 2 213 5
 481              	.LBB120:
 482              	.LBB118:
 483              	.LBB114:
 484              	.LBB115:
 485              	.LBB116:
 192:src/../h/riscv.hpp **** }
 486              		.loc 2 192 5
 192:src/../h/riscv.hpp **** }
 487              		.loc 2 192 51 is_stmt 0
 488 021c 93070020 		li	a5,512
 489              	#APP
 490              	# 192 "src/../h/riscv.hpp" 1
 491              		csrc sie, a5
 492              	# 0 "" 2
 493              	.LVL28:
 494              	#NO_APP
 495              	.L22:
 496              	.LBE116:
 497              	.LBE115:
 498              	.LBE114:
 499              	.LBE118:
 500              	.LBE120:
 560:src/riscv.cpp **** 
 561:src/riscv.cpp ****     while(Scheduler::readyHead != nullptr)
 501              		.loc 1 561 5 is_stmt 1
 502              		.loc 1 561 32
 503 0224 97070000 		la	a5,_ZN9Scheduler9readyHeadE
 503      83B70700 
 504 022c 83B70700 		ld	a5,0(a5)
 505 0230 638C0700 		beqz	a5,.L21
 562:src/riscv.cpp ****         Scheduler::readyHead = Scheduler::readyHead->next;
 506              		.loc 1 562 9
 507              		.loc 1 562 54 is_stmt 0
 508 0234 03B78704 		ld	a4,72(a5)
 509              		.loc 1 562 30
 510 0238 97070000 		la	a5,_ZN9Scheduler9readyHeadE
 510      83B70700 
 511 0240 23B0E700 		sd	a4,0(a5)
 561:src/riscv.cpp ****         Scheduler::readyHead = Scheduler::readyHead->next;
 512              		.loc 1 561 5
 513 0244 6FF01FFE 		j	.L22
 514              	.L21:
 563:src/riscv.cpp **** 
 564:src/riscv.cpp ****     Scheduler::put(TCB::putcThread);
 515              		.loc 1 564 5 is_stmt 1
 516              		.loc 1 564 19 is_stmt 0
 517 0248 97070000 		la	a5,_ZN3TCB10putcThreadE
 517      83B70700 
 518 0250 03B50700 		ld	a0,0(a5)
 519 0254 97000000 		call	_ZN9Scheduler3putEP3TCB@plt
 519      E7800000 
 520              	.LVL29:
 521              	.L24:
GAS LISTING /tmp/ccGkqgib.s 			page 25


 565:src/riscv.cpp **** 
 566:src/riscv.cpp ****     while(ConsoleUtil::outputHead != ConsoleUtil::outputTail)
 522              		.loc 1 566 5 is_stmt 1
 523              		.loc 1 566 35
 524 025c 97070000 		la	a5,_ZN11ConsoleUtil10outputHeadE
 524      83B70700 
 525 0264 03B70700 		ld	a4,0(a5)
 526 0268 97070000 		la	a5,_ZN11ConsoleUtil10outputTailE
 526      83B70700 
 527 0270 83B70700 		ld	a5,0(a5)
 528 0274 6308F700 		beq	a4,a5,.L20
 567:src/riscv.cpp ****         thread_dispatch();
 529              		.loc 1 567 9
 530              		.loc 1 567 24 is_stmt 0
 531 0278 97000000 		call	_Z15thread_dispatchv@plt
 531      E7800000 
 532              	.LVL30:
 566:src/riscv.cpp ****         thread_dispatch();
 533              		.loc 1 566 5
 534 0280 6FF0DFFD 		j	.L24
 535              	.L20:
 568:src/riscv.cpp **** }
 536              		.loc 1 568 1
 537 0284 83308100 		ld	ra,8(sp)
 538              		.cfi_restore 1
 539 0288 03340100 		ld	s0,0(sp)
 540              		.cfi_restore 8
 541              		.cfi_def_cfa 2, 16
 542 028c 13010101 		addi	sp,sp,16
 543              		.cfi_def_cfa_offset 0
 544 0290 67800000 		jr	ra
 545              		.cfi_endproc
 546              	.LFE53:
 548              		.align	2
 549              		.globl	_ZN5RiscV16saveA0toSscratchEv
 551              	_ZN5RiscV16saveA0toSscratchEv:
 552              	.LFB54:
 569:src/riscv.cpp **** 
 570:src/riscv.cpp **** //write value in a0 to a memory location where a0 is store on stack for currently running thread
 571:src/riscv.cpp **** void RiscV::saveA0toSscratch()
 572:src/riscv.cpp **** {
 553              		.loc 1 572 1 is_stmt 1
 554              		.cfi_startproc
 555 0294 130101FF 		addi	sp,sp,-16
 556              		.cfi_def_cfa_offset 16
 557 0298 23348100 		sd	s0,8(sp)
 558              		.cfi_offset 8, -8
 559 029c 13040101 		addi	s0,sp,16
 560              		.cfi_def_cfa 8, 0
 573:src/riscv.cpp ****     uint64 a1;
 561              		.loc 1 573 5
 574:src/riscv.cpp ****     asm("mv %[a1], a1": [a1] "=r"(a1));
 562              		.loc 1 574 5
 563              		.loc 1 574 39 is_stmt 0
 564              	#APP
 565              	# 574 "src/riscv.cpp" 1
 575              	    asm("mv a1, %[a0]" : :  [a0] "r"(TCB::running->a0Location));
GAS LISTING /tmp/ccGkqgib.s 			page 26


 566              		mv a5, a1
 567              	# 0 "" 2
 568              		.loc 1 575 5 is_stmt 1
 569              		.loc 1 575 52 is_stmt 0
 570              	#NO_APP
 571 02a4 17070000 		la	a4,_ZN3TCB7runningE
 571      03370700 
 572 02ac 03370700 		ld	a4,0(a4)
 573 02b0 03378706 		ld	a4,104(a4)
 574              		.loc 1 575 64
 575              	#APP
 576              	# 575 "src/riscv.cpp" 1
 576              	    asm("sd a0, 80(a1)");
 577              		mv a1, a4
 578              	# 0 "" 2
 579              		.loc 1 576 5 is_stmt 1
 580              		.loc 1 576 25 is_stmt 0
 581              	# 576 "src/riscv.cpp" 1
 577              	    asm("mv a1,%[a1]"::  [a1]"r"(a1));
 582              		sd a0, 80(a1)
 583              	# 0 "" 2
 584              		.loc 1 577 5 is_stmt 1
 585              		.loc 1 577 38 is_stmt 0
 586              	# 577 "src/riscv.cpp" 1
 578              	}
 587              		mv a1,a5
 588              	# 0 "" 2
 589              		.loc 1 578 1
 590              	#NO_APP
 591 02c0 03348100 		ld	s0,8(sp)
 592              		.cfi_restore 8
 593              		.cfi_def_cfa 2, 16
 594 02c4 13010101 		addi	sp,sp,16
 595              		.cfi_def_cfa_offset 0
 596 02c8 67800000 		jr	ra
 597              		.cfi_endproc
 598              	.LFE54:
 600              		.align	2
 601              		.globl	_ZN5RiscV22executeMemAllocSyscallEv
 603              	_ZN5RiscV22executeMemAllocSyscallEv:
 604              	.LFB36:
 190:src/riscv.cpp **** 
 605              		.loc 1 190 37 is_stmt 1
 606              		.cfi_startproc
 607 02cc 130101FF 		addi	sp,sp,-16
 608              		.cfi_def_cfa_offset 16
 609 02d0 23341100 		sd	ra,8(sp)
 610 02d4 23308100 		sd	s0,0(sp)
 611              		.cfi_offset 1, -8
 612              		.cfi_offset 8, -16
 613 02d8 13040101 		addi	s0,sp,16
 614              		.cfi_def_cfa 8, 0
 193:src/riscv.cpp ****     asm("mv %[size], a1" : [size] "=r" (size));
 615              		.loc 1 193 5
 194:src/riscv.cpp **** 
 616              		.loc 1 194 5
 194:src/riscv.cpp **** 
GAS LISTING /tmp/ccGkqgib.s 			page 27


 617              		.loc 1 194 47 is_stmt 0
 618              	#APP
 619              	# 194 "src/riscv.cpp" 1
 620              		mv a0, a1
 621              	# 0 "" 2
 622              	.LVL31:
 197:src/riscv.cpp **** 
 623              		.loc 1 197 5 is_stmt 1
 197:src/riscv.cpp **** 
 624              		.loc 1 197 50 is_stmt 0
 625              	#NO_APP
 626 02e0 97000000 		call	_ZN15MemoryAllocator7kmallocEm@plt
 626      E7800000 
 627              	.LVL32:
 199:src/riscv.cpp **** 
 628              		.loc 1 199 5 is_stmt 1
 199:src/riscv.cpp **** 
 629              		.loc 1 199 48 is_stmt 0
 630              	#APP
 631              	# 199 "src/riscv.cpp" 1
 201:src/riscv.cpp **** }
 632              		mv a0, a0
 633              	# 0 "" 2
 634              		.loc 1 201 5 is_stmt 1
 201:src/riscv.cpp **** }
 635              		.loc 1 201 28 is_stmt 0
 636              	#NO_APP
 637 02ec 97000000 		call	_ZN5RiscV16saveA0toSscratchEv
 637      E7800000 
 638              	.LVL33:
 202:src/riscv.cpp **** 
 639              		.loc 1 202 1
 640 02f4 83308100 		ld	ra,8(sp)
 641              		.cfi_restore 1
 642 02f8 03340100 		ld	s0,0(sp)
 643              		.cfi_restore 8
 644              		.cfi_def_cfa 2, 16
 645 02fc 13010101 		addi	sp,sp,16
 646              		.cfi_def_cfa_offset 0
 647 0300 67800000 		jr	ra
 648              		.cfi_endproc
 649              	.LFE36:
 651              		.align	2
 652              		.globl	_ZN5RiscV21executeMemFreeSyscallEv
 654              	_ZN5RiscV21executeMemFreeSyscallEv:
 655              	.LFB37:
 204:src/riscv.cpp **** 
 656              		.loc 1 204 37 is_stmt 1
 657              		.cfi_startproc
 658 0304 130101FF 		addi	sp,sp,-16
 659              		.cfi_def_cfa_offset 16
 660 0308 23341100 		sd	ra,8(sp)
 661 030c 23308100 		sd	s0,0(sp)
 662              		.cfi_offset 1, -8
 663              		.cfi_offset 8, -16
 664 0310 13040101 		addi	s0,sp,16
 665              		.cfi_def_cfa 8, 0
GAS LISTING /tmp/ccGkqgib.s 			page 28


 207:src/riscv.cpp **** 
 666              		.loc 1 207 5
 210:src/riscv.cpp ****         //call internal allocator and free memory which iaddr points to
 667              		.loc 1 210 5
 668 0314 97070000 		la	a5,_ZN15MemoryAllocator11initializedE
 668      83B70700 
 669 031c 83C70700 		lbu	a5,0(a5)
 670 0320 63920702 		bnez	a5,.L34
 216:src/riscv.cpp **** 
 671              		.loc 1 216 16 is_stmt 0
 672 0324 1305F0FF 		li	a0,-1
 673              	.L31:
 674              	.LVL34:
 219:src/riscv.cpp **** 
 675              		.loc 1 219 5 is_stmt 1
 219:src/riscv.cpp **** 
 676              		.loc 1 219 54 is_stmt 0
 677              	#APP
 678              	# 219 "src/riscv.cpp" 1
 221:src/riscv.cpp **** }
 679              		mv a0, a0
 680              	# 0 "" 2
 681              		.loc 1 221 5 is_stmt 1
 221:src/riscv.cpp **** }
 682              		.loc 1 221 28 is_stmt 0
 683              	#NO_APP
 684 032c 97000000 		call	_ZN5RiscV16saveA0toSscratchEv
 684      E7800000 
 685              	.LVL35:
 222:src/riscv.cpp **** 
 686              		.loc 1 222 1
 687 0334 83308100 		ld	ra,8(sp)
 688              		.cfi_remember_state
 689              		.cfi_restore 1
 690 0338 03340100 		ld	s0,0(sp)
 691              		.cfi_restore 8
 692              		.cfi_def_cfa 2, 16
 693 033c 13010101 		addi	sp,sp,16
 694              		.cfi_def_cfa_offset 0
 695 0340 67800000 		jr	ra
 696              	.L34:
 697              		.cfi_restore_state
 212:src/riscv.cpp ****         status = MemoryAllocator::kfree((void *) iaddr);;
 698              		.loc 1 212 9 is_stmt 1
 212:src/riscv.cpp ****         status = MemoryAllocator::kfree((void *) iaddr);;
 699              		.loc 1 212 53 is_stmt 0
 700              	#APP
 701              	# 212 "src/riscv.cpp" 1
 702              		mv a0, a1
 703              	# 0 "" 2
 704              	.LVL36:
 213:src/riscv.cpp ****     }
 705              		.loc 1 213 9 is_stmt 1
 213:src/riscv.cpp ****     }
 706              		.loc 1 213 40 is_stmt 0
 707              	#NO_APP
 708 0348 97000000 		call	_ZN15MemoryAllocator5kfreeEPv@plt
GAS LISTING /tmp/ccGkqgib.s 			page 29


 708      E7800000 
 709              	.LVL37:
 213:src/riscv.cpp ****     }
 710              		.loc 1 213 57 is_stmt 1
 711 0350 6FF09FFD 		j	.L31
 712              		.cfi_endproc
 713              	.LFE37:
 715              		.align	2
 716              		.globl	_ZN5RiscV26executeThreadCreateSyscallEv
 718              	_ZN5RiscV26executeThreadCreateSyscallEv:
 719              	.LFB38:
 224:src/riscv.cpp **** 
 720              		.loc 1 224 41
 721              		.cfi_startproc
 722              		.cfi_personality 0x9b,DW.ref.__gxx_personality_v0
 723              		.cfi_lsda 0x1b,.LLSDA38
 724 0354 130101FC 		addi	sp,sp,-64
 725              		.cfi_def_cfa_offset 64
 726 0358 233C1102 		sd	ra,56(sp)
 727 035c 23388102 		sd	s0,48(sp)
 728 0360 23349102 		sd	s1,40(sp)
 729 0364 23302103 		sd	s2,32(sp)
 730 0368 233C3101 		sd	s3,24(sp)
 731 036c 23384101 		sd	s4,16(sp)
 732 0370 23345101 		sd	s5,8(sp)
 733              		.cfi_offset 1, -8
 734              		.cfi_offset 8, -16
 735              		.cfi_offset 9, -24
 736              		.cfi_offset 18, -32
 737              		.cfi_offset 19, -40
 738              		.cfi_offset 20, -48
 739              		.cfi_offset 21, -56
 740 0374 13040104 		addi	s0,sp,64
 741              		.cfi_def_cfa 8, 0
 227:src/riscv.cpp **** 
 742              		.loc 1 227 5
 229:src/riscv.cpp ****     asm("mv %[ihandle], a1" : [ihandle] "=r"(ihandle));
 743              		.loc 1 229 5
 229:src/riscv.cpp ****     asm("mv %[ihandle], a1" : [ihandle] "=r"(ihandle));
 744              		.loc 1 229 52 is_stmt 0
 745              	#APP
 746              	# 229 "src/riscv.cpp" 1
 230:src/riscv.cpp ****     asm("mv %[iroutine], a2" : [iroutine] "=r"(iroutine));
 747              		mv s4, a7
 748              	# 0 "" 2
 749              		.loc 1 230 5 is_stmt 1
 230:src/riscv.cpp ****     asm("mv %[iroutine], a2" : [iroutine] "=r"(iroutine));
 750              		.loc 1 230 55 is_stmt 0
 751              	# 230 "src/riscv.cpp" 1
 752              		mv s5, a1
 753              	# 0 "" 2
 754              	.LVL38:
 231:src/riscv.cpp ****     asm("mv %[iargs], a3" : [iargs] "=r"(iargs));
 755              		.loc 1 231 5 is_stmt 1
 231:src/riscv.cpp ****     asm("mv %[iargs], a3" : [iargs] "=r"(iargs));
 756              		.loc 1 231 58 is_stmt 0
 757              	# 231 "src/riscv.cpp" 1
GAS LISTING /tmp/ccGkqgib.s 			page 30


 232:src/riscv.cpp **** 
 758              		mv s2, a2
 759              	# 0 "" 2
 760              		.loc 1 232 5 is_stmt 1
 232:src/riscv.cpp **** 
 761              		.loc 1 232 49 is_stmt 0
 762              	# 232 "src/riscv.cpp" 1
 235:src/riscv.cpp **** 
 763              		mv s3, a3
 764              	# 0 "" 2
 765              		.loc 1 235 5 is_stmt 1
 235:src/riscv.cpp **** 
 766              		.loc 1 235 94 is_stmt 0
 767              	#NO_APP
 768 0388 13050007 		li	a0,112
 769              	.LEHB0:
 770 038c 97000000 		call	_ZN3TCBnwEm@plt
 770      E7800000 
 771              	.LVL39:
 772              	.LEHE0:
 773 0394 93040500 		mv	s1,a0
 774 0398 13072000 		li	a4,2
 775 039c 93060A00 		mv	a3,s4
 776 03a0 13860900 		mv	a2,s3
 777 03a4 93050900 		mv	a1,s2
 778              	.LEHB1:
 779 03a8 97000000 		call	_ZN3TCBC1EPFvPvES0_Pmm@plt
 779      E7800000 
 780              	.LVL40:
 781              	.LEHE1:
 237:src/riscv.cpp **** 
 782              		.loc 1 237 5 is_stmt 1 discriminator 2
 239:src/riscv.cpp ****         status = -1;
 783              		.loc 1 239 5 discriminator 2
 784 03b0 63880404 		beqz	s1,.L39
 243:src/riscv.cpp ****             Scheduler::put(tcb);
 785              		.loc 1 243 9
 243:src/riscv.cpp ****             Scheduler::put(tcb);
 786              		.loc 1 243 17 is_stmt 0
 787 03b4 83B78401 		ld	a5,24(s1)
 243:src/riscv.cpp ****             Scheduler::put(tcb);
 788              		.loc 1 243 9
 789 03b8 63880700 		beqz	a5,.L37
 244:src/riscv.cpp ****         *((TCB**)ihandle) = tcb;
 790              		.loc 1 244 13 is_stmt 1
 244:src/riscv.cpp ****         *((TCB**)ihandle) = tcb;
 791              		.loc 1 244 27 is_stmt 0
 792 03bc 13850400 		mv	a0,s1
 793              	.LEHB2:
 794 03c0 97000000 		call	_ZN9Scheduler3putEP3TCB@plt
 794      E7800000 
 795              	.LVL41:
 796              	.LEHE2:
 797              	.L37:
 245:src/riscv.cpp ****     }
 798              		.loc 1 245 9 is_stmt 1
 245:src/riscv.cpp ****     }
GAS LISTING /tmp/ccGkqgib.s 			page 31


 799              		.loc 1 245 27 is_stmt 0
 800 03c8 23B09A00 		sd	s1,0(s5)
 237:src/riscv.cpp **** 
 801              		.loc 1 237 12
 802 03cc 93070000 		li	a5,0
 803              	.L36:
 804              	.LVL42:
 249:src/riscv.cpp **** 
 805              		.loc 1 249 5 is_stmt 1
 249:src/riscv.cpp **** 
 806              		.loc 1 249 54 is_stmt 0
 807              	#APP
 808              	# 249 "src/riscv.cpp" 1
 251:src/riscv.cpp **** }
 809              		mv a0, a5
 810              	# 0 "" 2
 811              		.loc 1 251 5 is_stmt 1
 251:src/riscv.cpp **** }
 812              		.loc 1 251 28 is_stmt 0
 813              	#NO_APP
 814 03d4 97000000 		call	_ZN5RiscV16saveA0toSscratchEv
 814      E7800000 
 815              	.LVL43:
 252:src/riscv.cpp **** 
 816              		.loc 1 252 1
 817 03dc 83308103 		ld	ra,56(sp)
 818              		.cfi_remember_state
 819              		.cfi_restore 1
 820 03e0 03340103 		ld	s0,48(sp)
 821              		.cfi_restore 8
 822              		.cfi_def_cfa 2, 64
 823 03e4 83348102 		ld	s1,40(sp)
 824              		.cfi_restore 9
 825              	.LVL44:
 826 03e8 03390102 		ld	s2,32(sp)
 827              		.cfi_restore 18
 828 03ec 83398101 		ld	s3,24(sp)
 829              		.cfi_restore 19
 830 03f0 033A0101 		ld	s4,16(sp)
 831              		.cfi_restore 20
 832 03f4 833A8100 		ld	s5,8(sp)
 833              		.cfi_restore 21
 834              	.LVL45:
 835 03f8 13010104 		addi	sp,sp,64
 836              		.cfi_def_cfa_offset 0
 837 03fc 67800000 		jr	ra
 838              	.LVL46:
 839              	.L39:
 840              		.cfi_restore_state
 240:src/riscv.cpp ****     }
 841              		.loc 1 240 16
 842 0400 9307F0FF 		li	a5,-1
 843 0404 6FF0DFFC 		j	.L36
 844              	.LVL47:
 845              	.L40:
 846 0408 13090500 		mv	s2,a0
 235:src/riscv.cpp **** 
GAS LISTING /tmp/ccGkqgib.s 			page 32


 847              		.loc 1 235 94
 848 040c 13850400 		mv	a0,s1
 849 0410 97000000 		call	_ZN3TCBdlEPv@plt
 849      E7800000 
 850              	.LVL48:
 851 0418 13050900 		mv	a0,s2
 852              	.LEHB3:
 853 041c 97000000 		call	_Unwind_Resume@plt
 853      E7800000 
 854              	.LVL49:
 855              	.LEHE3:
 856              		.cfi_endproc
 857              	.LFE38:
 858              		.globl	__gxx_personality_v0
 859              		.section	.gcc_except_table,"a",@progbits
 860              	.LLSDA38:
 861 0000 FF       		.byte	0xff
 862 0001 FF       		.byte	0xff
 863 0002 03       		.byte	0x3
 864 0003 34       		.byte	0x34
 865 0004 00000000 		.4byte	.LEHB0-.LFB38
 866 0008 00000000 		.4byte	.LEHE0-.LEHB0
 867 000c 00000000 		.4byte	0
 868 0010 00       		.byte	0
 869 0011 00000000 		.4byte	.LEHB1-.LFB38
 870 0015 00000000 		.4byte	.LEHE1-.LEHB1
 871 0019 00000000 		.4byte	.L40-.LFB38
 872 001d 00       		.byte	0
 873 001e 00000000 		.4byte	.LEHB2-.LFB38
 874 0022 00000000 		.4byte	.LEHE2-.LEHB2
 875 0026 00000000 		.4byte	0
 876 002a 00       		.byte	0
 877 002b 00000000 		.4byte	.LEHB3-.LFB38
 878 002f 00000000 		.4byte	.LEHE3-.LEHB3
 879 0033 00000000 		.4byte	0
 880 0037 00       		.byte	0
 881              		.text
 883              		.align	2
 884              		.globl	_ZN5RiscV30executeThreadAttachBodySyscallEv
 886              	_ZN5RiscV30executeThreadAttachBodySyscallEv:
 887              	.LFB39:
 254:src/riscv.cpp **** 
 888              		.loc 1 254 45 is_stmt 1
 889              		.cfi_startproc
 890              		.cfi_personality 0x9b,DW.ref.__gxx_personality_v0
 891              		.cfi_lsda 0x1b,.LLSDA39
 892 0424 130101FC 		addi	sp,sp,-64
 893              		.cfi_def_cfa_offset 64
 894 0428 233C1102 		sd	ra,56(sp)
 895 042c 23388102 		sd	s0,48(sp)
 896 0430 23349102 		sd	s1,40(sp)
 897 0434 23302103 		sd	s2,32(sp)
 898 0438 233C3101 		sd	s3,24(sp)
 899 043c 23384101 		sd	s4,16(sp)
 900 0440 23345101 		sd	s5,8(sp)
 901              		.cfi_offset 1, -8
 902              		.cfi_offset 8, -16
GAS LISTING /tmp/ccGkqgib.s 			page 33


 903              		.cfi_offset 9, -24
 904              		.cfi_offset 18, -32
 905              		.cfi_offset 19, -40
 906              		.cfi_offset 20, -48
 907              		.cfi_offset 21, -56
 908 0444 13040104 		addi	s0,sp,64
 909              		.cfi_def_cfa 8, 0
 257:src/riscv.cpp **** 
 910              		.loc 1 257 5
 260:src/riscv.cpp ****     asm("mv %[ihandle], a1" : [ihandle] "=r"(ihandle));
 911              		.loc 1 260 5
 260:src/riscv.cpp ****     asm("mv %[ihandle], a1" : [ihandle] "=r"(ihandle));
 912              		.loc 1 260 52 is_stmt 0
 913              	#APP
 914              	# 260 "src/riscv.cpp" 1
 261:src/riscv.cpp ****     asm("mv %[iroutine], a2" : [iroutine] "=r"(iroutine));
 915              		mv s2, a7
 916              	# 0 "" 2
 917              		.loc 1 261 5 is_stmt 1
 261:src/riscv.cpp ****     asm("mv %[iroutine], a2" : [iroutine] "=r"(iroutine));
 918              		.loc 1 261 55 is_stmt 0
 919              	# 261 "src/riscv.cpp" 1
 920              		mv s5, a1
 921              	# 0 "" 2
 922              	.LVL50:
 262:src/riscv.cpp ****     asm("mv %[iargs], a3" : [iargs] "=r"(iargs));
 923              		.loc 1 262 5 is_stmt 1
 262:src/riscv.cpp ****     asm("mv %[iargs], a3" : [iargs] "=r"(iargs));
 924              		.loc 1 262 58 is_stmt 0
 925              	# 262 "src/riscv.cpp" 1
 926              		mv s4, a2
 927              	# 0 "" 2
 928              	.LVL51:
 263:src/riscv.cpp **** 
 929              		.loc 1 263 5 is_stmt 1
 263:src/riscv.cpp **** 
 930              		.loc 1 263 49 is_stmt 0
 931              	# 263 "src/riscv.cpp" 1
 932              		mv s3, a3
 933              	# 0 "" 2
 934              	.LVL52:
 265:src/riscv.cpp **** 
 935              		.loc 1 265 5 is_stmt 1
 265:src/riscv.cpp **** 
 936              		.loc 1 265 94 is_stmt 0
 937              	#NO_APP
 938 0458 13050007 		li	a0,112
 939              	.LEHB4:
 940 045c 97000000 		call	_ZN3TCBnwEm@plt
 940      E7800000 
 941              	.LVL53:
 942              	.LEHE4:
 943 0464 93040500 		mv	s1,a0
 944 0468 13072000 		li	a4,2
 945 046c 93060900 		mv	a3,s2
 946 0470 13860900 		mv	a2,s3
 947 0474 93050A00 		mv	a1,s4
GAS LISTING /tmp/ccGkqgib.s 			page 34


 948              	.LEHB5:
 949 0478 97000000 		call	_ZN3TCBC1EPFvPvES0_Pmm@plt
 949      E7800000 
 950              	.LVL54:
 951              	.LEHE5:
 267:src/riscv.cpp **** 
 952              		.loc 1 267 5 is_stmt 1 discriminator 2
 269:src/riscv.cpp ****         status = -1;
 953              		.loc 1 269 5 discriminator 2
 954 0480 63820404 		beqz	s1,.L46
 273:src/riscv.cpp ****         tcb->args = (void*)iargs;
 955              		.loc 1 273 9
 273:src/riscv.cpp ****         tcb->args = (void*)iargs;
 956              		.loc 1 273 19 is_stmt 0
 957 0484 23BC4401 		sd	s4,24(s1)
 274:src/riscv.cpp ****         *((TCB**)ihandle) = tcb;
 958              		.loc 1 274 9 is_stmt 1
 274:src/riscv.cpp ****         *((TCB**)ihandle) = tcb;
 959              		.loc 1 274 19 is_stmt 0
 960 0488 23B03403 		sd	s3,32(s1)
 275:src/riscv.cpp ****     }
 961              		.loc 1 275 9 is_stmt 1
 275:src/riscv.cpp ****     }
 962              		.loc 1 275 27 is_stmt 0
 963 048c 23B09A00 		sd	s1,0(s5)
 267:src/riscv.cpp **** 
 964              		.loc 1 267 12
 965 0490 93070000 		li	a5,0
 966              	.L44:
 967              	.LVL55:
 278:src/riscv.cpp **** 
 968              		.loc 1 278 5 is_stmt 1
 278:src/riscv.cpp **** 
 969              		.loc 1 278 54 is_stmt 0
 970              	#APP
 971              	# 278 "src/riscv.cpp" 1
 280:src/riscv.cpp **** }
 972              		mv a0, a5
 973              	# 0 "" 2
 974              		.loc 1 280 5 is_stmt 1
 280:src/riscv.cpp **** }
 975              		.loc 1 280 28 is_stmt 0
 976              	#NO_APP
 977 0498 97000000 		call	_ZN5RiscV16saveA0toSscratchEv
 977      E7800000 
 978              	.LVL56:
 281:src/riscv.cpp **** 
 979              		.loc 1 281 1
 980 04a0 83308103 		ld	ra,56(sp)
 981              		.cfi_remember_state
 982              		.cfi_restore 1
 983 04a4 03340103 		ld	s0,48(sp)
 984              		.cfi_restore 8
 985              		.cfi_def_cfa 2, 64
 986 04a8 83348102 		ld	s1,40(sp)
 987              		.cfi_restore 9
 988              	.LVL57:
GAS LISTING /tmp/ccGkqgib.s 			page 35


 989 04ac 03390102 		ld	s2,32(sp)
 990              		.cfi_restore 18
 991 04b0 83398101 		ld	s3,24(sp)
 992              		.cfi_restore 19
 993              	.LVL58:
 994 04b4 033A0101 		ld	s4,16(sp)
 995              		.cfi_restore 20
 996              	.LVL59:
 997 04b8 833A8100 		ld	s5,8(sp)
 998              		.cfi_restore 21
 999              	.LVL60:
 1000 04bc 13010104 		addi	sp,sp,64
 1001              		.cfi_def_cfa_offset 0
 1002 04c0 67800000 		jr	ra
 1003              	.LVL61:
 1004              	.L46:
 1005              		.cfi_restore_state
 270:src/riscv.cpp ****     }
 1006              		.loc 1 270 16
 1007 04c4 9307F0FF 		li	a5,-1
 1008 04c8 6FF0DFFC 		j	.L44
 1009              	.LVL62:
 1010              	.L47:
 1011 04cc 13090500 		mv	s2,a0
 265:src/riscv.cpp **** 
 1012              		.loc 1 265 94
 1013 04d0 13850400 		mv	a0,s1
 1014 04d4 97000000 		call	_ZN3TCBdlEPv@plt
 1014      E7800000 
 1015              	.LVL63:
 1016 04dc 13050900 		mv	a0,s2
 1017              	.LEHB6:
 1018 04e0 97000000 		call	_Unwind_Resume@plt
 1018      E7800000 
 1019              	.LVL64:
 1020              	.LEHE6:
 1021              		.cfi_endproc
 1022              	.LFE39:
 1023              		.section	.gcc_except_table
 1024              	.LLSDA39:
 1025 0038 FF       		.byte	0xff
 1026 0039 FF       		.byte	0xff
 1027 003a 03       		.byte	0x3
 1028 003b 27       		.byte	0x27
 1029 003c 00000000 		.4byte	.LEHB4-.LFB39
 1030 0040 00000000 		.4byte	.LEHE4-.LEHB4
 1031 0044 00000000 		.4byte	0
 1032 0048 00       		.byte	0
 1033 0049 00000000 		.4byte	.LEHB5-.LFB39
 1034 004d 00000000 		.4byte	.LEHE5-.LEHB5
 1035 0051 00000000 		.4byte	.L47-.LFB39
 1036 0055 00       		.byte	0
 1037 0056 00000000 		.4byte	.LEHB6-.LFB39
 1038 005a 00000000 		.4byte	.LEHE6-.LEHB6
 1039 005e 00000000 		.4byte	0
 1040 0062 00       		.byte	0
 1041              		.text
GAS LISTING /tmp/ccGkqgib.s 			page 36


 1043              		.align	2
 1044              		.globl	_ZN5RiscV25executeThreadStartSyscallEv
 1046              	_ZN5RiscV25executeThreadStartSyscallEv:
 1047              	.LFB40:
 283:src/riscv.cpp **** 
 1048              		.loc 1 283 40 is_stmt 1
 1049              		.cfi_startproc
 1050 04e8 130101FF 		addi	sp,sp,-16
 1051              		.cfi_def_cfa_offset 16
 1052 04ec 23341100 		sd	ra,8(sp)
 1053 04f0 23308100 		sd	s0,0(sp)
 1054              		.cfi_offset 1, -8
 1055              		.cfi_offset 8, -16
 1056 04f4 13040101 		addi	s0,sp,16
 1057              		.cfi_def_cfa 8, 0
 286:src/riscv.cpp **** 
 1058              		.loc 1 286 5
 288:src/riscv.cpp **** 
 1059              		.loc 1 288 5
 288:src/riscv.cpp **** 
 1060              		.loc 1 288 55 is_stmt 0
 1061              	#APP
 1062              	# 288 "src/riscv.cpp" 1
 1063              		mv a0, a1
 1064              	# 0 "" 2
 1065              	.LVL65:
 291:src/riscv.cpp **** 
 1066              		.loc 1 291 5 is_stmt 1
 293:src/riscv.cpp **** 
 1067              		.loc 1 293 5
 295:src/riscv.cpp ****         status = -1;
 1068              		.loc 1 295 5
 1069              	#NO_APP
 1070 04fc 63120502 		bnez	a0,.L54
 296:src/riscv.cpp ****     }
 1071              		.loc 1 296 16 is_stmt 0
 1072 0500 9307F0FF 		li	a5,-1
 1073              	.LVL66:
 1074              	.L51:
 305:src/riscv.cpp **** 
 1075              		.loc 1 305 5 is_stmt 1
 305:src/riscv.cpp **** 
 1076              		.loc 1 305 54 is_stmt 0
 1077              	#APP
 1078              	# 305 "src/riscv.cpp" 1
 307:src/riscv.cpp **** }
 1079              		mv a0, a5
 1080              	# 0 "" 2
 1081              		.loc 1 307 5 is_stmt 1
 307:src/riscv.cpp **** }
 1082              		.loc 1 307 28 is_stmt 0
 1083              	#NO_APP
 1084 0508 97000000 		call	_ZN5RiscV16saveA0toSscratchEv
 1084      E7800000 
 1085              	.LVL67:
 308:src/riscv.cpp **** 
 1086              		.loc 1 308 1
GAS LISTING /tmp/ccGkqgib.s 			page 37


 1087 0510 83308100 		ld	ra,8(sp)
 1088              		.cfi_remember_state
 1089              		.cfi_restore 1
 1090 0514 03340100 		ld	s0,0(sp)
 1091              		.cfi_restore 8
 1092              		.cfi_def_cfa 2, 16
 1093 0518 13010101 		addi	sp,sp,16
 1094              		.cfi_def_cfa_offset 0
 1095 051c 67800000 		jr	ra
 1096              	.LVL68:
 1097              	.L54:
 1098              		.cfi_restore_state
 299:src/riscv.cpp ****         Scheduler::put(tcb);
 1099              		.loc 1 299 9 is_stmt 1
 299:src/riscv.cpp ****         Scheduler::put(tcb);
 1100              		.loc 1 299 21 is_stmt 0
 1101 0520 93071000 		li	a5,1
 1102 0524 2328F500 		sw	a5,16(a0)
 300:src/riscv.cpp ****         TCB::dispatch();
 1103              		.loc 1 300 9 is_stmt 1
 300:src/riscv.cpp ****         TCB::dispatch();
 1104              		.loc 1 300 23 is_stmt 0
 1105 0528 97000000 		call	_ZN9Scheduler3putEP3TCB@plt
 1105      E7800000 
 1106              	.LVL69:
 301:src/riscv.cpp ****     }
 1107              		.loc 1 301 9 is_stmt 1
 301:src/riscv.cpp ****     }
 1108              		.loc 1 301 22 is_stmt 0
 1109 0530 97000000 		call	_ZN3TCB8dispatchEv@plt
 1109      E7800000 
 1110              	.LVL70:
 293:src/riscv.cpp **** 
 1111              		.loc 1 293 12
 1112 0538 93070000 		li	a5,0
 1113 053c 6FF09FFC 		j	.L51
 1114              		.cfi_endproc
 1115              	.LFE40:
 1117              		.align	2
 1118              		.globl	_ZN5RiscV24executeThreadExitSyscallEv
 1120              	_ZN5RiscV24executeThreadExitSyscallEv:
 1121              	.LFB41:
 310:src/riscv.cpp **** 
 1122              		.loc 1 310 40 is_stmt 1
 1123              		.cfi_startproc
 1124 0540 130101FF 		addi	sp,sp,-16
 1125              		.cfi_def_cfa_offset 16
 1126 0544 23341100 		sd	ra,8(sp)
 1127 0548 23308100 		sd	s0,0(sp)
 1128              		.cfi_offset 1, -8
 1129              		.cfi_offset 8, -16
 1130 054c 13040101 		addi	s0,sp,16
 1131              		.cfi_def_cfa 8, 0
 313:src/riscv.cpp **** 
 1132              		.loc 1 313 5
 1133              	.LVL71:
 316:src/riscv.cpp ****         status = -1;
GAS LISTING /tmp/ccGkqgib.s 			page 38


 1134              		.loc 1 316 5
 1135              	.LBB121:
 316:src/riscv.cpp ****         status = -1;
 1136              		.loc 1 316 21 is_stmt 0
 1137 0550 97070000 		la	a5,_ZN3TCB7runningE
 1137      83B70700 
 1138 0558 83B70700 		ld	a5,0(a5)
 316:src/riscv.cpp ****         status = -1;
 1139              		.loc 1 316 5
 1140 055c 638A0702 		beqz	a5,.L57
 1141              	.LBB122:
 320:src/riscv.cpp ****         old->status = TCB::Status::FINISHED;
 1142              		.loc 1 320 9 is_stmt 1
 1143              	.LVL72:
 321:src/riscv.cpp ****         TCB::dispatch();
 1144              		.loc 1 321 9
 321:src/riscv.cpp ****         TCB::dispatch();
 1145              		.loc 1 321 21 is_stmt 0
 1146 0560 13072000 		li	a4,2
 1147 0564 23A8E700 		sw	a4,16(a5)
 322:src/riscv.cpp ****     }
 1148              		.loc 1 322 9 is_stmt 1
 322:src/riscv.cpp ****     }
 1149              		.loc 1 322 22 is_stmt 0
 1150 0568 97000000 		call	_ZN3TCB8dispatchEv@plt
 1150      E7800000 
 1151              	.LVL73:
 1152              	.LBE122:
 1153              	.LBE121:
 313:src/riscv.cpp **** 
 1154              		.loc 1 313 12
 1155 0570 93070000 		li	a5,0
 1156              	.L56:
 1157              	.LVL74:
 325:src/riscv.cpp **** 
 1158              		.loc 1 325 5 is_stmt 1
 325:src/riscv.cpp **** 
 1159              		.loc 1 325 54 is_stmt 0
 1160              	#APP
 1161              	# 325 "src/riscv.cpp" 1
 327:src/riscv.cpp **** }
 1162              		mv a0, a5
 1163              	# 0 "" 2
 1164              		.loc 1 327 5 is_stmt 1
 327:src/riscv.cpp **** }
 1165              		.loc 1 327 28 is_stmt 0
 1166              	#NO_APP
 1167 0578 97000000 		call	_ZN5RiscV16saveA0toSscratchEv
 1167      E7800000 
 1168              	.LVL75:
 328:src/riscv.cpp **** 
 1169              		.loc 1 328 1
 1170 0580 83308100 		ld	ra,8(sp)
 1171              		.cfi_remember_state
 1172              		.cfi_restore 1
 1173 0584 03340100 		ld	s0,0(sp)
 1174              		.cfi_restore 8
GAS LISTING /tmp/ccGkqgib.s 			page 39


 1175              		.cfi_def_cfa 2, 16
 1176 0588 13010101 		addi	sp,sp,16
 1177              		.cfi_def_cfa_offset 0
 1178 058c 67800000 		jr	ra
 1179              	.LVL76:
 1180              	.L57:
 1181              		.cfi_restore_state
 1182              	.LBB123:
 317:src/riscv.cpp ****     }
 1183              		.loc 1 317 16
 1184 0590 9307F0FF 		li	a5,-1
 1185 0594 6FF01FFE 		j	.L56
 1186              	.LBE123:
 1187              		.cfi_endproc
 1188              	.LFE41:
 1190              		.align	2
 1191              		.globl	_ZN5RiscV21executeSemOpenSyscallEv
 1193              	_ZN5RiscV21executeSemOpenSyscallEv:
 1194              	.LFB43:
 338:src/riscv.cpp **** 
 1195              		.loc 1 338 37 is_stmt 1
 1196              		.cfi_startproc
 1197              		.cfi_personality 0x9b,DW.ref.__gxx_personality_v0
 1198              		.cfi_lsda 0x1b,.LLSDA43
 1199 0598 130101FD 		addi	sp,sp,-48
 1200              		.cfi_def_cfa_offset 48
 1201 059c 23341102 		sd	ra,40(sp)
 1202 05a0 23308102 		sd	s0,32(sp)
 1203 05a4 233C9100 		sd	s1,24(sp)
 1204 05a8 23382101 		sd	s2,16(sp)
 1205 05ac 23343101 		sd	s3,8(sp)
 1206              		.cfi_offset 1, -8
 1207              		.cfi_offset 8, -16
 1208              		.cfi_offset 9, -24
 1209              		.cfi_offset 18, -32
 1210              		.cfi_offset 19, -40
 1211 05b0 13040103 		addi	s0,sp,48
 1212              		.cfi_def_cfa 8, 0
 341:src/riscv.cpp **** 
 1213              		.loc 1 341 5
 343:src/riscv.cpp ****     asm("mv %[iinit], a2" : [iinit] "=r"(iinit));
 1214              		.loc 1 343 5
 343:src/riscv.cpp ****     asm("mv %[iinit], a2" : [iinit] "=r"(iinit));
 1215              		.loc 1 343 55 is_stmt 0
 1216              	#APP
 1217              	# 343 "src/riscv.cpp" 1
 1218              		mv s3, a1
 1219              	# 0 "" 2
 1220              	.LVL77:
 344:src/riscv.cpp **** 
 1221              		.loc 1 344 5 is_stmt 1
 344:src/riscv.cpp **** 
 1222              		.loc 1 344 49 is_stmt 0
 1223              	# 344 "src/riscv.cpp" 1
 347:src/riscv.cpp **** 
 1224              		mv s2, a2
 1225              	# 0 "" 2
GAS LISTING /tmp/ccGkqgib.s 			page 40


 1226              		.loc 1 347 5 is_stmt 1
 347:src/riscv.cpp **** 
 1227              		.loc 1 347 29 is_stmt 0
 1228              	#NO_APP
 1229 05bc 13058001 		li	a0,24
 1230              	.LEHB7:
 1231 05c0 97000000 		call	_ZN3SCBnwEm@plt
 1231      E7800000 
 1232              	.LVL78:
 1233              	.LEHE7:
 1234 05c8 93040500 		mv	s1,a0
 1235 05cc 93050900 		mv	a1,s2
 1236              	.LEHB8:
 1237 05d0 97000000 		call	_ZN3SCBC1Em@plt
 1237      E7800000 
 1238              	.LVL79:
 1239              	.LEHE8:
 349:src/riscv.cpp **** 
 1240              		.loc 1 349 5 is_stmt 1 discriminator 2
 351:src/riscv.cpp ****         status = -1;
 1241              		.loc 1 351 5 discriminator 2
 1242 05d8 638A0402 		beqz	s1,.L62
 355:src/riscv.cpp ****     }
 1243              		.loc 1 355 9
 355:src/riscv.cpp ****     }
 1244              		.loc 1 355 27 is_stmt 0
 1245 05dc 23B09900 		sd	s1,0(s3)
 349:src/riscv.cpp **** 
 1246              		.loc 1 349 12
 1247 05e0 93070000 		li	a5,0
 1248              	.L60:
 1249              	.LVL80:
 359:src/riscv.cpp **** 
 1250              		.loc 1 359 5 is_stmt 1
 359:src/riscv.cpp **** 
 1251              		.loc 1 359 54 is_stmt 0
 1252              	#APP
 1253              	# 359 "src/riscv.cpp" 1
 361:src/riscv.cpp **** 
 1254              		mv a0, a5
 1255              	# 0 "" 2
 1256              		.loc 1 361 5 is_stmt 1
 361:src/riscv.cpp **** 
 1257              		.loc 1 361 28 is_stmt 0
 1258              	#NO_APP
 1259 05e8 97000000 		call	_ZN5RiscV16saveA0toSscratchEv
 1259      E7800000 
 1260              	.LVL81:
 363:src/riscv.cpp **** 
 1261              		.loc 1 363 1
 1262 05f0 83308102 		ld	ra,40(sp)
 1263              		.cfi_remember_state
 1264              		.cfi_restore 1
 1265 05f4 03340102 		ld	s0,32(sp)
 1266              		.cfi_restore 8
 1267              		.cfi_def_cfa 2, 48
 1268 05f8 83348101 		ld	s1,24(sp)
GAS LISTING /tmp/ccGkqgib.s 			page 41


 1269              		.cfi_restore 9
 1270              	.LVL82:
 1271 05fc 03390101 		ld	s2,16(sp)
 1272              		.cfi_restore 18
 1273 0600 83398100 		ld	s3,8(sp)
 1274              		.cfi_restore 19
 1275              	.LVL83:
 1276 0604 13010103 		addi	sp,sp,48
 1277              		.cfi_def_cfa_offset 0
 1278 0608 67800000 		jr	ra
 1279              	.LVL84:
 1280              	.L62:
 1281              		.cfi_restore_state
 352:src/riscv.cpp ****     }
 1282              		.loc 1 352 16
 1283 060c 9307F0FF 		li	a5,-1
 1284 0610 6FF05FFD 		j	.L60
 1285              	.LVL85:
 1286              	.L63:
 1287 0614 13090500 		mv	s2,a0
 347:src/riscv.cpp **** 
 1288              		.loc 1 347 29
 1289 0618 13850400 		mv	a0,s1
 1290 061c 97000000 		call	_ZN3SCBdlEPv@plt
 1290      E7800000 
 1291              	.LVL86:
 1292 0624 13050900 		mv	a0,s2
 1293              	.LEHB9:
 1294 0628 97000000 		call	_Unwind_Resume@plt
 1294      E7800000 
 1295              	.LVL87:
 1296              	.LEHE9:
 1297              		.cfi_endproc
 1298              	.LFE43:
 1299              		.section	.gcc_except_table
 1300              	.LLSDA43:
 1301 0063 FF       		.byte	0xff
 1302 0064 FF       		.byte	0xff
 1303 0065 03       		.byte	0x3
 1304 0066 27       		.byte	0x27
 1305 0067 00000000 		.4byte	.LEHB7-.LFB43
 1306 006b 00000000 		.4byte	.LEHE7-.LEHB7
 1307 006f 00000000 		.4byte	0
 1308 0073 00       		.byte	0
 1309 0074 00000000 		.4byte	.LEHB8-.LFB43
 1310 0078 00000000 		.4byte	.LEHE8-.LEHB8
 1311 007c 00000000 		.4byte	.L63-.LFB43
 1312 0080 00       		.byte	0
 1313 0081 00000000 		.4byte	.LEHB9-.LFB43
 1314 0085 00000000 		.4byte	.LEHE9-.LEHB9
 1315 0089 00000000 		.4byte	0
 1316 008d 00       		.byte	0
 1317              		.text
 1319              		.align	2
 1320              		.globl	_ZN5RiscV22executeSemCloseSyscallEv
 1322              	_ZN5RiscV22executeSemCloseSyscallEv:
 1323              	.LFB44:
GAS LISTING /tmp/ccGkqgib.s 			page 42


 365:src/riscv.cpp **** 
 1324              		.loc 1 365 38 is_stmt 1
 1325              		.cfi_startproc
 1326 0630 130101FE 		addi	sp,sp,-32
 1327              		.cfi_def_cfa_offset 32
 1328 0634 233C1100 		sd	ra,24(sp)
 1329 0638 23388100 		sd	s0,16(sp)
 1330 063c 23349100 		sd	s1,8(sp)
 1331              		.cfi_offset 1, -8
 1332              		.cfi_offset 8, -16
 1333              		.cfi_offset 9, -24
 1334 0640 13040102 		addi	s0,sp,32
 1335              		.cfi_def_cfa 8, 0
 368:src/riscv.cpp **** 
 1336              		.loc 1 368 5
 370:src/riscv.cpp **** 
 1337              		.loc 1 370 5
 370:src/riscv.cpp **** 
 1338              		.loc 1 370 55 is_stmt 0
 1339              	#APP
 1340              	# 370 "src/riscv.cpp" 1
 1341              		mv s1, a1
 1342              	# 0 "" 2
 1343              	.LVL88:
 373:src/riscv.cpp ****     uint64 status = 0;
 1344              		.loc 1 373 5 is_stmt 1
 374:src/riscv.cpp **** 
 1345              		.loc 1 374 5
 376:src/riscv.cpp ****         status = -1;
 1346              		.loc 1 376 5
 1347              	#NO_APP
 1348 0648 63940402 		bnez	s1,.L70
 377:src/riscv.cpp ****     }
 1349              		.loc 1 377 16 is_stmt 0
 1350 064c 9307F0FF 		li	a5,-1
 1351              	.L67:
 1352              	.LVL89:
 383:src/riscv.cpp **** 
 1353              		.loc 1 383 5 is_stmt 1
 383:src/riscv.cpp **** 
 1354              		.loc 1 383 54 is_stmt 0
 1355              	#APP
 1356              	# 383 "src/riscv.cpp" 1
 385:src/riscv.cpp **** }
 1357              		mv a0, a5
 1358              	# 0 "" 2
 1359              		.loc 1 385 5 is_stmt 1
 385:src/riscv.cpp **** }
 1360              		.loc 1 385 28 is_stmt 0
 1361              	#NO_APP
 1362 0654 97000000 		call	_ZN5RiscV16saveA0toSscratchEv
 1362      E7800000 
 1363              	.LVL90:
 386:src/riscv.cpp **** 
 1364              		.loc 1 386 1
 1365 065c 83308101 		ld	ra,24(sp)
 1366              		.cfi_remember_state
GAS LISTING /tmp/ccGkqgib.s 			page 43


 1367              		.cfi_restore 1
 1368 0660 03340101 		ld	s0,16(sp)
 1369              		.cfi_restore 8
 1370              		.cfi_def_cfa 2, 32
 1371 0664 83348100 		ld	s1,8(sp)
 1372              		.cfi_restore 9
 1373              	.LVL91:
 1374 0668 13010102 		addi	sp,sp,32
 1375              		.cfi_def_cfa_offset 0
 1376 066c 67800000 		jr	ra
 1377              	.LVL92:
 1378              	.L70:
 1379              		.cfi_restore_state
 380:src/riscv.cpp **** 
 1380              		.loc 1 380 9 is_stmt 1 discriminator 1
 380:src/riscv.cpp **** 
 1381              		.loc 1 380 22 is_stmt 0 discriminator 1
 1382 0670 13850400 		mv	a0,s1
 1383 0674 97000000 		call	_ZN3SCBD1Ev@plt
 1383      E7800000 
 1384              	.LVL93:
 1385 067c 13850400 		mv	a0,s1
 1386 0680 97000000 		call	_ZN3SCBdlEPv@plt
 1386      E7800000 
 1387              	.LVL94:
 374:src/riscv.cpp **** 
 1388              		.loc 1 374 12 discriminator 1
 1389 0688 93070000 		li	a5,0
 1390 068c 6FF05FFC 		j	.L67
 1391              		.cfi_endproc
 1392              	.LFE44:
 1394              		.align	2
 1395              		.globl	_ZN5RiscV21executeSemWaitSyscallEv
 1397              	_ZN5RiscV21executeSemWaitSyscallEv:
 1398              	.LFB45:
 388:src/riscv.cpp **** 
 1399              		.loc 1 388 37 is_stmt 1
 1400              		.cfi_startproc
 1401 0690 130101FF 		addi	sp,sp,-16
 1402              		.cfi_def_cfa_offset 16
 1403 0694 23341100 		sd	ra,8(sp)
 1404 0698 23308100 		sd	s0,0(sp)
 1405              		.cfi_offset 1, -8
 1406              		.cfi_offset 8, -16
 1407 069c 13040101 		addi	s0,sp,16
 1408              		.cfi_def_cfa 8, 0
 391:src/riscv.cpp **** 
 1409              		.loc 1 391 5
 393:src/riscv.cpp **** 
 1410              		.loc 1 393 5
 393:src/riscv.cpp **** 
 1411              		.loc 1 393 55 is_stmt 0
 1412              	#APP
 1413              	# 393 "src/riscv.cpp" 1
 1414              		mv a0, a1
 1415              	# 0 "" 2
 1416              	.LVL95:
GAS LISTING /tmp/ccGkqgib.s 			page 44


 395:src/riscv.cpp ****     //call wait method on ihandle scb
 1417              		.loc 1 395 5 is_stmt 1
 398:src/riscv.cpp ****         ((SCB*)ihandle)->wait();
 1418              		.loc 1 398 5
 1419              	#NO_APP
 1420 06a4 631C0502 		bnez	a0,.L76
 1421              	.LVL96:
 1422              	.L72:
 403:src/riscv.cpp ****         status = -1;
 1423              		.loc 1 403 5
 403:src/riscv.cpp ****         status = -1;
 1424              		.loc 1 403 22 is_stmt 0
 1425 06a8 97070000 		la	a5,_ZN3TCB7runningE
 1425      83B70700 
 1426 06b0 83B70700 		ld	a5,0(a5)
 1427 06b4 83B70706 		ld	a5,96(a5)
 403:src/riscv.cpp ****         status = -1;
 1428              		.loc 1 403 5
 1429 06b8 63880702 		beqz	a5,.L74
 404:src/riscv.cpp ****     else
 1430              		.loc 1 404 16
 1431 06bc 9307F0FF 		li	a5,-1
 1432              	.L73:
 1433              	.LVL97:
 409:src/riscv.cpp **** 
 1434              		.loc 1 409 5 is_stmt 1
 409:src/riscv.cpp **** 
 1435              		.loc 1 409 54 is_stmt 0
 1436              	#APP
 1437              	# 409 "src/riscv.cpp" 1
 411:src/riscv.cpp **** 
 1438              		mv a0, a5
 1439              	# 0 "" 2
 1440              		.loc 1 411 5 is_stmt 1
 411:src/riscv.cpp **** 
 1441              		.loc 1 411 28 is_stmt 0
 1442              	#NO_APP
 1443 06c4 97000000 		call	_ZN5RiscV16saveA0toSscratchEv
 1443      E7800000 
 1444              	.LVL98:
 413:src/riscv.cpp **** 
 1445              		.loc 1 413 1
 1446 06cc 83308100 		ld	ra,8(sp)
 1447              		.cfi_remember_state
 1448              		.cfi_restore 1
 1449 06d0 03340100 		ld	s0,0(sp)
 1450              		.cfi_restore 8
 1451              		.cfi_def_cfa 2, 16
 1452 06d4 13010101 		addi	sp,sp,16
 1453              		.cfi_def_cfa_offset 0
 1454 06d8 67800000 		jr	ra
 1455              	.LVL99:
 1456              	.L76:
 1457              		.cfi_restore_state
 399:src/riscv.cpp ****     else
 1458              		.loc 1 399 9 is_stmt 1
 399:src/riscv.cpp ****     else
GAS LISTING /tmp/ccGkqgib.s 			page 45


 1459              		.loc 1 399 30 is_stmt 0
 1460 06dc 97000000 		call	_ZN3SCB4waitEv@plt
 1460      E7800000 
 1461              	.LVL100:
 1462 06e4 6FF05FFC 		j	.L72
 1463              	.LVL101:
 1464              	.L74:
 406:src/riscv.cpp **** 
 1465              		.loc 1 406 16
 1466 06e8 93070000 		li	a5,0
 1467 06ec 6FF05FFD 		j	.L73
 1468              		.cfi_endproc
 1469              	.LFE45:
 1471              		.align	2
 1472              		.globl	_ZN5RiscV23executeSemSignalSyscallEv
 1474              	_ZN5RiscV23executeSemSignalSyscallEv:
 1475              	.LFB46:
 415:src/riscv.cpp **** 
 1476              		.loc 1 415 39 is_stmt 1
 1477              		.cfi_startproc
 1478 06f0 130101FF 		addi	sp,sp,-16
 1479              		.cfi_def_cfa_offset 16
 1480 06f4 23341100 		sd	ra,8(sp)
 1481 06f8 23308100 		sd	s0,0(sp)
 1482              		.cfi_offset 1, -8
 1483              		.cfi_offset 8, -16
 1484 06fc 13040101 		addi	s0,sp,16
 1485              		.cfi_def_cfa 8, 0
 418:src/riscv.cpp **** 
 1486              		.loc 1 418 5
 420:src/riscv.cpp **** 
 1487              		.loc 1 420 5
 420:src/riscv.cpp **** 
 1488              		.loc 1 420 55 is_stmt 0
 1489              	#APP
 1490              	# 420 "src/riscv.cpp" 1
 1491              		mv a0, a1
 1492              	# 0 "" 2
 1493              	.LVL102:
 424:src/riscv.cpp **** 
 1494              		.loc 1 424 5 is_stmt 1
 426:src/riscv.cpp ****         ((SCB*)ihandle)->signal();
 1495              		.loc 1 426 5
 1496              	#NO_APP
 1497 0704 63120502 		bnez	a0,.L81
 429:src/riscv.cpp **** 
 1498              		.loc 1 429 16 is_stmt 0
 1499 0708 9307F0FF 		li	a5,-1
 1500              	.LVL103:
 1501              	.L78:
 432:src/riscv.cpp **** 
 1502              		.loc 1 432 5 is_stmt 1
 432:src/riscv.cpp **** 
 1503              		.loc 1 432 54 is_stmt 0
 1504              	#APP
 1505              	# 432 "src/riscv.cpp" 1
 434:src/riscv.cpp **** }
GAS LISTING /tmp/ccGkqgib.s 			page 46


 1506              		mv a0, a5
 1507              	# 0 "" 2
 1508              		.loc 1 434 5 is_stmt 1
 434:src/riscv.cpp **** }
 1509              		.loc 1 434 28 is_stmt 0
 1510              	#NO_APP
 1511 0710 97000000 		call	_ZN5RiscV16saveA0toSscratchEv
 1511      E7800000 
 1512              	.LVL104:
 435:src/riscv.cpp **** 
 1513              		.loc 1 435 1
 1514 0718 83308100 		ld	ra,8(sp)
 1515              		.cfi_remember_state
 1516              		.cfi_restore 1
 1517 071c 03340100 		ld	s0,0(sp)
 1518              		.cfi_restore 8
 1519              		.cfi_def_cfa 2, 16
 1520 0720 13010101 		addi	sp,sp,16
 1521              		.cfi_def_cfa_offset 0
 1522 0724 67800000 		jr	ra
 1523              	.LVL105:
 1524              	.L81:
 1525              		.cfi_restore_state
 427:src/riscv.cpp ****     else
 1526              		.loc 1 427 9 is_stmt 1
 427:src/riscv.cpp ****     else
 1527              		.loc 1 427 32 is_stmt 0
 1528 0728 97000000 		call	_ZN3SCB6signalEv@plt
 1528      E7800000 
 1529              	.LVL106:
 424:src/riscv.cpp **** 
 1530              		.loc 1 424 12
 1531 0730 93070000 		li	a5,0
 1532 0734 6FF09FFD 		j	.L78
 1533              		.cfi_endproc
 1534              	.LFE46:
 1536              		.align	2
 1537              		.globl	_ZN5RiscV23executeTimeSleepSyscallEv
 1539              	_ZN5RiscV23executeTimeSleepSyscallEv:
 1540              	.LFB47:
 437:src/riscv.cpp **** 
 1541              		.loc 1 437 39 is_stmt 1
 1542              		.cfi_startproc
 1543 0738 130101FE 		addi	sp,sp,-32
 1544              		.cfi_def_cfa_offset 32
 1545 073c 233C1100 		sd	ra,24(sp)
 1546 0740 23388100 		sd	s0,16(sp)
 1547 0744 23349100 		sd	s1,8(sp)
 1548              		.cfi_offset 1, -8
 1549              		.cfi_offset 8, -16
 1550              		.cfi_offset 9, -24
 1551 0748 13040102 		addi	s0,sp,32
 1552              		.cfi_def_cfa 8, 0
 440:src/riscv.cpp **** 
 1553              		.loc 1 440 5
 442:src/riscv.cpp **** 
 1554              		.loc 1 442 5
GAS LISTING /tmp/ccGkqgib.s 			page 47


 442:src/riscv.cpp **** 
 1555              		.loc 1 442 49 is_stmt 0
 1556              	#APP
 1557              	# 442 "src/riscv.cpp" 1
 446:src/riscv.cpp ****     tcb->sleepTime = globalTime;
 1558              		mv a4, a1
 1559              	# 0 "" 2
 1560              		.loc 1 446 5 is_stmt 1
 446:src/riscv.cpp ****     tcb->sleepTime = globalTime;
 1561              		.loc 1 446 10 is_stmt 0
 1562              	#NO_APP
 1563 0750 97070000 		la	a5,_ZN3TCB7runningE
 1563      83B70700 
 1564 0758 83B40700 		ld	s1,0(a5)
 1565              	.LVL107:
 447:src/riscv.cpp ****     tcb->wakeTime = globalTime + itime;
 1566              		.loc 1 447 5 is_stmt 1
 447:src/riscv.cpp ****     tcb->wakeTime = globalTime + itime;
 1567              		.loc 1 447 20 is_stmt 0
 1568 075c 97070000 		ld	a5,.LANCHOR0+8
 1568      83B70700 
 1569 0764 23B8F404 		sd	a5,80(s1)
 448:src/riscv.cpp **** 
 1570              		.loc 1 448 5 is_stmt 1
 448:src/riscv.cpp **** 
 1571              		.loc 1 448 32 is_stmt 0
 1572 0768 B387E700 		add	a5,a5,a4
 448:src/riscv.cpp **** 
 1573              		.loc 1 448 19
 1574 076c 23BCF404 		sd	a5,88(s1)
 450:src/riscv.cpp **** 
 1575              		.loc 1 450 5 is_stmt 1
 450:src/riscv.cpp **** 
 1576              		.loc 1 450 21 is_stmt 0
 1577 0770 13850400 		mv	a0,s1
 1578 0774 97000000 		call	_ZN9Scheduler5sleepEP3TCB@plt
 1578      E7800000 
 1579              	.LVL108:
 452:src/riscv.cpp **** 
 1580              		.loc 1 452 5 is_stmt 1
 452:src/riscv.cpp **** 
 1581              		.loc 1 452 17 is_stmt 0
 1582 077c 93073000 		li	a5,3
 1583 0780 23A8F400 		sw	a5,16(s1)
 454:src/riscv.cpp **** 
 1584              		.loc 1 454 5 is_stmt 1
 454:src/riscv.cpp **** 
 1585              		.loc 1 454 18 is_stmt 0
 1586 0784 97000000 		call	_ZN3TCB8dispatchEv@plt
 1586      E7800000 
 1587              	.LVL109:
 456:src/riscv.cpp **** 
 1588              		.loc 1 456 5 is_stmt 1
 459:src/riscv.cpp **** 
 1589              		.loc 1 459 5
 459:src/riscv.cpp **** 
 1590              		.loc 1 459 54 is_stmt 0
GAS LISTING /tmp/ccGkqgib.s 			page 48


 1591 078c 93070000 		li	a5,0
 1592              	#APP
 1593              	# 459 "src/riscv.cpp" 1
 461:src/riscv.cpp **** }
 1594              		mv a0, a5
 1595              	# 0 "" 2
 1596              		.loc 1 461 5 is_stmt 1
 461:src/riscv.cpp **** }
 1597              		.loc 1 461 28 is_stmt 0
 1598              	#NO_APP
 1599 0794 97000000 		call	_ZN5RiscV16saveA0toSscratchEv
 1599      E7800000 
 1600              	.LVL110:
 462:src/riscv.cpp **** 
 1601              		.loc 1 462 1
 1602 079c 83308101 		ld	ra,24(sp)
 1603              		.cfi_restore 1
 1604 07a0 03340101 		ld	s0,16(sp)
 1605              		.cfi_restore 8
 1606              		.cfi_def_cfa 2, 32
 1607 07a4 83348100 		ld	s1,8(sp)
 1608              		.cfi_restore 9
 1609              	.LVL111:
 1610 07a8 13010102 		addi	sp,sp,32
 1611              		.cfi_def_cfa_offset 0
 1612 07ac 67800000 		jr	ra
 1613              		.cfi_endproc
 1614              	.LFE47:
 1616              		.align	2
 1617              		.globl	_ZN5RiscV18executeGetcSyscallEv
 1619              	_ZN5RiscV18executeGetcSyscallEv:
 1620              	.LFB48:
 464:src/riscv.cpp **** 
 1621              		.loc 1 464 34 is_stmt 1
 1622              		.cfi_startproc
 1623 07b0 130101FE 		addi	sp,sp,-32
 1624              		.cfi_def_cfa_offset 32
 1625 07b4 233C1100 		sd	ra,24(sp)
 1626 07b8 23388100 		sd	s0,16(sp)
 1627 07bc 23349100 		sd	s1,8(sp)
 1628              		.cfi_offset 1, -8
 1629              		.cfi_offset 8, -16
 1630              		.cfi_offset 9, -24
 1631 07c0 13040102 		addi	s0,sp,32
 1632              		.cfi_def_cfa 8, 0
 467:src/riscv.cpp ****         ConsoleUtil::pendingGetc++;
 1633              		.loc 1 467 5
 467:src/riscv.cpp ****         ConsoleUtil::pendingGetc++;
 1634              		.loc 1 467 8 is_stmt 0
 1635 07c4 97070000 		lbu	a5,.LANCHOR0
 1635      83C70700 
 467:src/riscv.cpp ****         ConsoleUtil::pendingGetc++;
 1636              		.loc 1 467 5
 1637 07cc 639C0700 		bnez	a5,.L85
 468:src/riscv.cpp **** 
 1638              		.loc 1 468 9 is_stmt 1
 468:src/riscv.cpp **** 
GAS LISTING /tmp/ccGkqgib.s 			page 49


 1639              		.loc 1 468 33 is_stmt 0
 1640 07d0 17070000 		la	a4,_ZN11ConsoleUtil11pendingGetcE
 1640      03370700 
 1641 07d8 83370700 		ld	a5,0(a4)
 1642 07dc 93871700 		addi	a5,a5,1
 1643 07e0 2330F700 		sd	a5,0(a4)
 1644              	.L85:
 471:src/riscv.cpp **** 
 1645              		.loc 1 471 5 is_stmt 1
 471:src/riscv.cpp **** 
 1646              		.loc 1 471 35 is_stmt 0
 1647 07e4 97000000 		call	_ZN11ConsoleUtil8getInputEv@plt
 1647      E7800000 
 1648              	.LVL112:
 1649 07ec 93040500 		mv	s1,a0
 1650              	.LVL113:
 474:src/riscv.cpp ****         ConsoleUtil::putOutput(13);
 1651              		.loc 1 474 5 is_stmt 1
 1652 07f0 9307D000 		li	a5,13
 1653 07f4 6306F502 		beq	a0,a5,.L89
 479:src/riscv.cpp ****         ConsoleUtil::putOutput(c);
 1654              		.loc 1 479 10
 1655 07f8 9307B001 		li	a5,27
 1656 07fc 6310F504 		bne	a0,a5,.L90
 1657              	.LVL114:
 1658              	.L87:
 483:src/riscv.cpp **** 
 1659              		.loc 1 483 5
 483:src/riscv.cpp **** 
 1660              		.loc 1 483 39 is_stmt 0
 1661              	#APP
 1662              	# 483 "src/riscv.cpp" 1
 485:src/riscv.cpp **** }
 1663              		mv a0, s1
 1664              	# 0 "" 2
 1665              		.loc 1 485 5 is_stmt 1
 485:src/riscv.cpp **** }
 1666              		.loc 1 485 28 is_stmt 0
 1667              	#NO_APP
 1668 0804 97000000 		call	_ZN5RiscV16saveA0toSscratchEv
 1668      E7800000 
 1669              	.LVL115:
 486:src/riscv.cpp **** 
 1670              		.loc 1 486 1
 1671 080c 83308101 		ld	ra,24(sp)
 1672              		.cfi_remember_state
 1673              		.cfi_restore 1
 1674 0810 03340101 		ld	s0,16(sp)
 1675              		.cfi_restore 8
 1676              		.cfi_def_cfa 2, 32
 1677 0814 83348100 		ld	s1,8(sp)
 1678              		.cfi_restore 9
 1679 0818 13010102 		addi	sp,sp,32
 1680              		.cfi_def_cfa_offset 0
 1681 081c 67800000 		jr	ra
 1682              	.LVL116:
 1683              	.L89:
GAS LISTING /tmp/ccGkqgib.s 			page 50


 1684              		.cfi_restore_state
 475:src/riscv.cpp ****         ConsoleUtil::putOutput(10);
 1685              		.loc 1 475 9 is_stmt 1
 475:src/riscv.cpp ****         ConsoleUtil::putOutput(10);
 1686              		.loc 1 475 31 is_stmt 0
 1687 0820 1305D000 		li	a0,13
 1688              	.LVL117:
 1689 0824 97000000 		call	_ZN11ConsoleUtil9putOutputEc@plt
 1689      E7800000 
 1690              	.LVL118:
 476:src/riscv.cpp ****     }
 1691              		.loc 1 476 9 is_stmt 1
 476:src/riscv.cpp ****     }
 1692              		.loc 1 476 31 is_stmt 0
 1693 082c 1305A000 		li	a0,10
 1694 0830 97000000 		call	_ZN11ConsoleUtil9putOutputEc@plt
 1694      E7800000 
 1695              	.LVL119:
 1696 0838 6FF09FFC 		j	.L87
 1697              	.LVL120:
 1698              	.L90:
 480:src/riscv.cpp **** 
 1699              		.loc 1 480 9 is_stmt 1
 480:src/riscv.cpp **** 
 1700              		.loc 1 480 31 is_stmt 0
 1701 083c 97000000 		call	_ZN11ConsoleUtil9putOutputEc@plt
 1701      E7800000 
 1702              	.LVL121:
 1703 0844 6FF0DFFB 		j	.L87
 1704              		.cfi_endproc
 1705              	.LFE48:
 1707              		.align	2
 1708              		.globl	_ZN5RiscV22executePutcUtilSyscallEv
 1710              	_ZN5RiscV22executePutcUtilSyscallEv:
 1711              	.LFB51:
 536:src/riscv.cpp ****     char c = ConsoleUtil::getOutput();
 1712              		.loc 1 536 38 is_stmt 1
 1713              		.cfi_startproc
 1714 0848 130101FF 		addi	sp,sp,-16
 1715              		.cfi_def_cfa_offset 16
 1716 084c 23341100 		sd	ra,8(sp)
 1717 0850 23308100 		sd	s0,0(sp)
 1718              		.cfi_offset 1, -8
 1719              		.cfi_offset 8, -16
 1720 0854 13040101 		addi	s0,sp,16
 1721              		.cfi_def_cfa 8, 0
 537:src/riscv.cpp ****     asm("mv a0, %[c]" : : [c] "r" ((uint64)(c)) );
 1722              		.loc 1 537 5
 537:src/riscv.cpp ****     asm("mv a0, %[c]" : : [c] "r" ((uint64)(c)) );
 1723              		.loc 1 537 36 is_stmt 0
 1724 0858 97000000 		call	_ZN11ConsoleUtil9getOutputEv@plt
 1724      E7800000 
 1725              	.LVL122:
 538:src/riscv.cpp **** 
 1726              		.loc 1 538 5 is_stmt 1
 538:src/riscv.cpp **** 
 1727              		.loc 1 538 50 is_stmt 0
GAS LISTING /tmp/ccGkqgib.s 			page 51


 1728              	#APP
 1729              	# 538 "src/riscv.cpp" 1
 540:src/riscv.cpp **** }
 1730              		mv a0, a0
 1731              	# 0 "" 2
 1732              		.loc 1 540 5 is_stmt 1
 540:src/riscv.cpp **** }
 1733              		.loc 1 540 28 is_stmt 0
 1734              	#NO_APP
 1735 0864 97000000 		call	_ZN5RiscV16saveA0toSscratchEv
 1735      E7800000 
 1736              	.LVL123:
 541:src/riscv.cpp **** 
 1737              		.loc 1 541 1
 1738 086c 83308100 		ld	ra,8(sp)
 1739              		.cfi_restore 1
 1740 0870 03340100 		ld	s0,0(sp)
 1741              		.cfi_restore 8
 1742              		.cfi_def_cfa 2, 16
 1743 0874 13010101 		addi	sp,sp,16
 1744              		.cfi_def_cfa_offset 0
 1745 0878 67800000 		jr	ra
 1746              		.cfi_endproc
 1747              	.LFE51:
 1749              		.align	2
 1750              		.globl	_ZN5RiscV24executeThreadFreeSyscallEv
 1752              	_ZN5RiscV24executeThreadFreeSyscallEv:
 1753              	.LFB55:
 579:src/riscv.cpp **** 
 580:src/riscv.cpp **** //syscall to free the space that is allocated for thread
 581:src/riscv.cpp **** void RiscV::executeThreadFreeSyscall() {
 1754              		.loc 1 581 40 is_stmt 1
 1755              		.cfi_startproc
 1756 087c 130101FE 		addi	sp,sp,-32
 1757              		.cfi_def_cfa_offset 32
 1758 0880 233C1100 		sd	ra,24(sp)
 1759 0884 23388100 		sd	s0,16(sp)
 1760 0888 23349100 		sd	s1,8(sp)
 1761 088c 23302101 		sd	s2,0(sp)
 1762              		.cfi_offset 1, -8
 1763              		.cfi_offset 8, -16
 1764              		.cfi_offset 9, -24
 1765              		.cfi_offset 18, -32
 1766 0890 13040102 		addi	s0,sp,32
 1767              		.cfi_def_cfa 8, 0
 582:src/riscv.cpp ****     uint64 iaddr, status;
 1768              		.loc 1 582 5
 583:src/riscv.cpp **** 
 584:src/riscv.cpp ****     asm("mv %[iaddr], a1" : [iaddr] "=r"(iaddr));
 1769              		.loc 1 584 5
 1770              		.loc 1 584 49 is_stmt 0
 1771              	#APP
 1772              	# 584 "src/riscv.cpp" 1
 585              	
 1773              		mv s1, a1
 1774              	# 0 "" 2
 1775              	.LVL124:
GAS LISTING /tmp/ccGkqgib.s 			page 52


 586:src/riscv.cpp ****     TCB *thr = (TCB*)iaddr;
 1776              		.loc 1 586 5 is_stmt 1
 587:src/riscv.cpp **** 
 588:src/riscv.cpp ****     if(thr == nullptr)
 1777              		.loc 1 588 5
 1778              	#NO_APP
 1779 0898 63960402 		bnez	s1,.L97
 589:src/riscv.cpp ****         status = -1;
 1780              		.loc 1 589 16 is_stmt 0
 1781 089c 1309F0FF 		li	s2,-1
 1782              	.L94:
 1783              	.LVL125:
 590:src/riscv.cpp ****     else {
 591:src/riscv.cpp ****         status = MemoryAllocator::kfree(thr->stack);
 592:src/riscv.cpp ****         delete thr;
 593:src/riscv.cpp ****     }
 594:src/riscv.cpp **** 
 595:src/riscv.cpp ****     //return status
 596:src/riscv.cpp ****     asm("mv a0, %[status]" : : [status] "r" (status));
 1784              		.loc 1 596 5 is_stmt 1
 1785              		.loc 1 596 54 is_stmt 0
 1786              	#APP
 1787              	# 596 "src/riscv.cpp" 1
 597              	
 598:src/riscv.cpp ****     RiscV::saveA0toSscratch();
 1788              		mv a0, s2
 1789              	# 0 "" 2
 1790              		.loc 1 598 5 is_stmt 1
 1791              		.loc 1 598 28 is_stmt 0
 1792              	#NO_APP
 1793 08a4 97000000 		call	_ZN5RiscV16saveA0toSscratchEv
 1793      E7800000 
 1794              	.LVL126:
 599:src/riscv.cpp **** }
 1795              		.loc 1 599 1
 1796 08ac 83308101 		ld	ra,24(sp)
 1797              		.cfi_remember_state
 1798              		.cfi_restore 1
 1799 08b0 03340101 		ld	s0,16(sp)
 1800              		.cfi_restore 8
 1801              		.cfi_def_cfa 2, 32
 1802 08b4 83348100 		ld	s1,8(sp)
 1803              		.cfi_restore 9
 1804              	.LVL127:
 1805 08b8 03390100 		ld	s2,0(sp)
 1806              		.cfi_restore 18
 1807              	.LVL128:
 1808 08bc 13010102 		addi	sp,sp,32
 1809              		.cfi_def_cfa_offset 0
 1810 08c0 67800000 		jr	ra
 1811              	.LVL129:
 1812              	.L97:
 1813              		.cfi_restore_state
 591:src/riscv.cpp ****         delete thr;
 1814              		.loc 1 591 9 is_stmt 1
 591:src/riscv.cpp ****         delete thr;
 1815              		.loc 1 591 40 is_stmt 0
GAS LISTING /tmp/ccGkqgib.s 			page 53


 1816 08c4 03B58402 		ld	a0,40(s1)
 1817 08c8 97000000 		call	_ZN15MemoryAllocator5kfreeEPv@plt
 1817      E7800000 
 1818              	.LVL130:
 1819 08d0 13090500 		mv	s2,a0
 1820              	.LVL131:
 592:src/riscv.cpp ****     }
 1821              		.loc 1 592 9 is_stmt 1
 592:src/riscv.cpp ****     }
 1822              		.loc 1 592 16 is_stmt 0
 1823 08d4 13850400 		mv	a0,s1
 1824              	.LVL132:
 1825 08d8 97000000 		call	_ZN3TCBD1Ev@plt
 1825      E7800000 
 1826              	.LVL133:
 1827 08e0 13850400 		mv	a0,s1
 1828 08e4 97000000 		call	_ZN3TCBdlEPv@plt
 1828      E7800000 
 1829              	.LVL134:
 1830 08ec 6FF05FFB 		j	.L94
 1831              		.cfi_endproc
 1832              	.LFE55:
 1834              		.align	2
 1835              		.globl	_ZN5RiscV27executeSemaphoreFreeSyscallEv
 1837              	_ZN5RiscV27executeSemaphoreFreeSyscallEv:
 1838              	.LFB56:
 600:src/riscv.cpp **** 
 601:src/riscv.cpp **** //syscall to free the space that is allocated for semaphore
 602:src/riscv.cpp **** void RiscV::executeSemaphoreFreeSyscall() {
 1839              		.loc 1 602 43 is_stmt 1
 1840              		.cfi_startproc
 1841 08f0 130101FE 		addi	sp,sp,-32
 1842              		.cfi_def_cfa_offset 32
 1843 08f4 233C1100 		sd	ra,24(sp)
 1844 08f8 23388100 		sd	s0,16(sp)
 1845 08fc 23349100 		sd	s1,8(sp)
 1846              		.cfi_offset 1, -8
 1847              		.cfi_offset 8, -16
 1848              		.cfi_offset 9, -24
 1849 0900 13040102 		addi	s0,sp,32
 1850              		.cfi_def_cfa 8, 0
 603:src/riscv.cpp ****     uint64 iaddr, status;
 1851              		.loc 1 603 5
 604:src/riscv.cpp **** 
 605:src/riscv.cpp ****     //call internal allocator and free memory which iaddr points to
 606:src/riscv.cpp ****     asm("mv %[iaddr], a1" : [iaddr] "=r"(iaddr));
 1852              		.loc 1 606 5
 1853              		.loc 1 606 49 is_stmt 0
 1854              	#APP
 1855              	# 606 "src/riscv.cpp" 1
 607              	
 1856              		mv s1, a1
 1857              	# 0 "" 2
 1858              	.LVL135:
 608:src/riscv.cpp ****     SCB *scb = (SCB*)iaddr;
 1859              		.loc 1 608 5 is_stmt 1
 609:src/riscv.cpp **** 
GAS LISTING /tmp/ccGkqgib.s 			page 54


 610:src/riscv.cpp ****     if(scb == nullptr){
 1860              		.loc 1 610 5
 1861              	#NO_APP
 1862 0908 63940402 		bnez	s1,.L101
 1863              	.L99:
 1864              	.LVL136:
 611:src/riscv.cpp ****         status = -1;
 612:src/riscv.cpp ****     }
 613:src/riscv.cpp ****     else
 614:src/riscv.cpp ****         delete scb;
 615:src/riscv.cpp **** 
 616:src/riscv.cpp ****     //return status
 617:src/riscv.cpp ****     asm("mv a0, %[status]" : : [status] "r" (status));
 1865              		.loc 1 617 5
 1866              		.loc 1 617 54 is_stmt 0
 1867 090c 9307F0FF 		li	a5,-1
 1868              	#APP
 1869              	# 617 "src/riscv.cpp" 1
 618              	
 619:src/riscv.cpp ****     RiscV::saveA0toSscratch();
 1870              		mv a0, a5
 1871              	# 0 "" 2
 1872              		.loc 1 619 5 is_stmt 1
 1873              		.loc 1 619 28 is_stmt 0
 1874              	#NO_APP
 1875 0914 97000000 		call	_ZN5RiscV16saveA0toSscratchEv
 1875      E7800000 
 1876              	.LVL137:
 620:src/riscv.cpp **** }
 1877              		.loc 1 620 1
 1878 091c 83308101 		ld	ra,24(sp)
 1879              		.cfi_remember_state
 1880              		.cfi_restore 1
 1881 0920 03340101 		ld	s0,16(sp)
 1882              		.cfi_restore 8
 1883              		.cfi_def_cfa 2, 32
 1884 0924 83348100 		ld	s1,8(sp)
 1885              		.cfi_restore 9
 1886              	.LVL138:
 1887 0928 13010102 		addi	sp,sp,32
 1888              		.cfi_def_cfa_offset 0
 1889 092c 67800000 		jr	ra
 1890              	.LVL139:
 1891              	.L101:
 1892              		.cfi_restore_state
 614:src/riscv.cpp **** 
 1893              		.loc 1 614 9 is_stmt 1 discriminator 1
 614:src/riscv.cpp **** 
 1894              		.loc 1 614 16 is_stmt 0 discriminator 1
 1895 0930 13850400 		mv	a0,s1
 1896 0934 97000000 		call	_ZN3SCBD1Ev@plt
 1896      E7800000 
 1897              	.LVL140:
 1898 093c 13850400 		mv	a0,s1
 1899 0940 97000000 		call	_ZN3SCBdlEPv@plt
 1899      E7800000 
 1900              	.LVL141:
GAS LISTING /tmp/ccGkqgib.s 			page 55


 1901 0948 6FF05FFC 		j	.L99
 1902              		.cfi_endproc
 1903              	.LFE56:
 1905              		.align	2
 1906              		.globl	_ZN5RiscV18executeForkSyscallEv
 1908              	_ZN5RiscV18executeForkSyscallEv:
 1909              	.LFB57:
 621:src/riscv.cpp **** 
 622:src/riscv.cpp **** //fork syscall
 623:src/riscv.cpp **** void RiscV::executeForkSyscall() {
 1910              		.loc 1 623 34 is_stmt 1
 1911              		.cfi_startproc
 1912              		.cfi_personality 0x9b,DW.ref.__gxx_personality_v0
 1913              		.cfi_lsda 0x1b,.LLSDA57
 1914 094c 130101FE 		addi	sp,sp,-32
 1915              		.cfi_def_cfa_offset 32
 1916 0950 233C1100 		sd	ra,24(sp)
 1917 0954 23388100 		sd	s0,16(sp)
 1918 0958 23349100 		sd	s1,8(sp)
 1919 095c 23302101 		sd	s2,0(sp)
 1920              		.cfi_offset 1, -8
 1921              		.cfi_offset 8, -16
 1922              		.cfi_offset 9, -24
 1923              		.cfi_offset 18, -32
 1924 0960 13040102 		addi	s0,sp,32
 1925              		.cfi_def_cfa 8, 0
 624:src/riscv.cpp **** 
 625:src/riscv.cpp ****     //create new stack and copy stack from currently running stack into the new one
 626:src/riscv.cpp ****     uint64 *stack = (uint64*)MemoryAllocator::kmalloc((DEFAULT_STACK_SIZE+MEM_BLOCK_SIZE-1)/MEM_BLO
 1926              		.loc 1 626 5
 1927              		.loc 1 626 54 is_stmt 0
 1928 0964 13050004 		li	a0,64
 1929              	.LEHB10:
 1930 0968 97000000 		call	_ZN15MemoryAllocator7kmallocEm@plt
 1930      E7800000 
 1931              	.LVL142:
 1932 0970 13090500 		mv	s2,a0
 1933              	.LVL143:
 627:src/riscv.cpp **** 
 628:src/riscv.cpp ****     MemoryAllocator::memcpy((void*)TCB::running->stack,(void*)stack,DEFAULT_STACK_SIZE);
 1934              		.loc 1 628 5 is_stmt 1
 1935              		.loc 1 628 28 is_stmt 0
 1936 0974 97070000 		la	a5,_ZN3TCB7runningE
 1936      83B70700 
 1937 097c 83B70700 		ld	a5,0(a5)
 1938 0980 37160000 		li	a2,4096
 1939 0984 93050500 		mv	a1,a0
 1940 0988 03B58702 		ld	a0,40(a5)
 1941              	.LVL144:
 1942 098c 97000000 		call	_ZN15MemoryAllocator6memcpyEPvS0_m@plt
 1942      E7800000 
 1943              	.LVL145:
 629:src/riscv.cpp **** 
 630:src/riscv.cpp ****     //create new TCB for new thread
 631:src/riscv.cpp ****     TCB *forked = new TCB(nullptr, nullptr, stack, DEFAULT_TIME_SLICE);
 1944              		.loc 1 631 5 is_stmt 1
 1945              		.loc 1 631 70 is_stmt 0
GAS LISTING /tmp/ccGkqgib.s 			page 56


 1946 0994 13050007 		li	a0,112
 1947 0998 97000000 		call	_ZN3TCBnwEm@plt
 1947      E7800000 
 1948              	.LVL146:
 1949              	.LEHE10:
 1950 09a0 93040500 		mv	s1,a0
 1951 09a4 13072000 		li	a4,2
 1952 09a8 93060900 		mv	a3,s2
 1953 09ac 13060000 		li	a2,0
 1954 09b0 93050000 		li	a1,0
 1955              	.LEHB11:
 1956 09b4 97000000 		call	_ZN3TCBC1EPFvPvES0_Pmm@plt
 1956      E7800000 
 1957              	.LVL147:
 1958              	.LEHE11:
 632:src/riscv.cpp **** 
 633:src/riscv.cpp ****     uint64 status = 0;
 1959              		.loc 1 633 5 is_stmt 1 discriminator 2
 634:src/riscv.cpp **** 
 635:src/riscv.cpp ****     if(forked) {
 1960              		.loc 1 635 5 discriminator 2
 1961              	.LBB124:
 1962 09bc 638E040A 		beqz	s1,.L105
 1963              	.LBB125:
 636:src/riscv.cpp **** 
 637:src/riscv.cpp ****         //set return address where forked thread should return
 638:src/riscv.cpp ****         forked->context.ra = TCB::currentPC;
 1964              		.loc 1 638 9
 1965              		.loc 1 638 28 is_stmt 0
 1966 09c0 97070000 		la	a5,_ZN3TCB9currentPCE
 1966      83B70700 
 1967 09c8 83B70700 		ld	a5,0(a5)
 1968 09cc 23B4F400 		sd	a5,8(s1)
 639:src/riscv.cpp **** 
 640:src/riscv.cpp ****         //set SP value where forked thread's stack starts
 641:src/riscv.cpp ****         forked->context.sp = (uint64)((char*)stack + TCB::currentSP - (char*)TCB::running->stack);
 1969              		.loc 1 641 9 is_stmt 1
 1970              		.loc 1 641 59 is_stmt 0
 1971 09d0 97070000 		la	a5,_ZN3TCB9currentSPE
 1971      83B70700 
 1972 09d8 83B70700 		ld	a5,0(a5)
 1973              		.loc 1 641 52
 1974 09dc B307F900 		add	a5,s2,a5
 1975              		.loc 1 641 71
 1976 09e0 17070000 		la	a4,_ZN3TCB7runningE
 1976      03370700 
 1977 09e8 83360700 		ld	a3,0(a4)
 1978              		.loc 1 641 92
 1979 09ec 83B68602 		ld	a3,40(a3)
 1980              		.loc 1 641 69
 1981 09f0 B387D740 		sub	a5,a5,a3
 1982              		.loc 1 641 28
 1983 09f4 23B0F400 		sd	a5,0(s1)
 642:src/riscv.cpp **** 
 643:src/riscv.cpp ****         //get memory location of where registers are stored from previous context switch
 644:src/riscv.cpp ****         uint64 registerStartSP = (uint64)((char*)TCB::running->a0Location - (char*)TCB::running->st
 1984              		.loc 1 644 9 is_stmt 1
GAS LISTING /tmp/ccGkqgib.s 			page 57


 1985              		.loc 1 644 64 is_stmt 0
 1986 09f8 83370700 		ld	a5,0(a4)
 1987 09fc 03B58706 		ld	a0,104(a5)
 1988              		.loc 1 644 98
 1989 0a00 83B78702 		ld	a5,40(a5)
 1990              		.loc 1 644 75
 1991 0a04 3305F540 		sub	a0,a0,a5
 1992              		.loc 1 644 104
 1993 0a08 3309A900 		add	s2,s2,a0
 1994              	.LVL148:
 645:src/riscv.cpp **** 
 646:src/riscv.cpp ****         forked->a0Location = registerStartSP;
 1995              		.loc 1 646 9 is_stmt 1
 1996              		.loc 1 646 28 is_stmt 0
 1997 0a0c 23B42407 		sd	s2,104(s1)
 647:src/riscv.cpp **** 
 648:src/riscv.cpp ****         uint64 a1,a0;
 1998              		.loc 1 648 9 is_stmt 1
 649:src/riscv.cpp **** 
 650:src/riscv.cpp ****         //write address of stored registers in SP of forked thread so that it can return regularly
 651:src/riscv.cpp ****         asm("mv %[a1], a1": [a1] "=r"(a1));
 1999              		.loc 1 651 9
 2000              		.loc 1 651 43 is_stmt 0
 2001              	#APP
 2002              	# 651 "src/riscv.cpp" 1
 652              	
 653:src/riscv.cpp ****         asm("mv %[a0], a0": [a0] "=r"(a0));
 2003              		mv a3, a1
 2004              	# 0 "" 2
 2005              		.loc 1 653 9 is_stmt 1
 2006              		.loc 1 653 43 is_stmt 0
 2007              	# 653 "src/riscv.cpp" 1
 654              	
 655:src/riscv.cpp ****         asm("mv a0,%[a0]"::  [a0]"r"(registerStartSP));
 2008              		mv a5, a0
 2009              	# 0 "" 2
 2010              		.loc 1 655 9 is_stmt 1
 2011              		.loc 1 655 55 is_stmt 0
 2012              	# 655 "src/riscv.cpp" 1
 656              	
 657:src/riscv.cpp ****         asm("mv a1, %[a0]" : :  [a0] "r"(registerStartSP));
 2013              		mv a0,s2
 2014              	# 0 "" 2
 2015              		.loc 1 657 9 is_stmt 1
 2016              		.loc 1 657 59 is_stmt 0
 2017              	# 657 "src/riscv.cpp" 1
 658              	
 659:src/riscv.cpp ****         asm("sd a0, 16(a1)");
 2018              		mv a1, s2
 2019              	# 0 "" 2
 2020              		.loc 1 659 9 is_stmt 1
 2021              		.loc 1 659 29 is_stmt 0
 2022              	# 659 "src/riscv.cpp" 1
 660              	
 661:src/riscv.cpp ****         //write 0 in a0 register of forked thread because fork should return 0 in context of child,
 662:src/riscv.cpp ****         asm("li a0, 0");
 2023              		sd a0, 16(a1)
GAS LISTING /tmp/ccGkqgib.s 			page 58


 2024              	# 0 "" 2
 2025              		.loc 1 662 9 is_stmt 1
 2026              		.loc 1 662 24 is_stmt 0
 2027              	# 662 "src/riscv.cpp" 1
 663              	
 664:src/riscv.cpp ****         asm("sd a0, 80(a1)");
 2028              		li a0, 0
 2029              	# 0 "" 2
 2030              		.loc 1 664 9 is_stmt 1
 2031              		.loc 1 664 29 is_stmt 0
 2032              	# 664 "src/riscv.cpp" 1
 665              	
 666:src/riscv.cpp ****         asm("mv a1,%[a1]"::  [a1]"r"(a1));
 2033              		sd a0, 80(a1)
 2034              	# 0 "" 2
 2035              		.loc 1 666 9 is_stmt 1
 2036              		.loc 1 666 42 is_stmt 0
 2037              	# 666 "src/riscv.cpp" 1
 667              	
 668:src/riscv.cpp ****         asm("mv a0,%[a0]"::  [a0]"r"(a0));
 2038              		mv a1,a3
 2039              	# 0 "" 2
 2040              		.loc 1 668 9 is_stmt 1
 2041              		.loc 1 668 42 is_stmt 0
 2042              	# 668 "src/riscv.cpp" 1
 669              	
 670:src/riscv.cpp ****         forked->sepc = TCB::running->sepc;
 2043              		mv a0,a5
 2044              	# 0 "" 2
 2045              		.loc 1 670 9 is_stmt 1
 2046              		.loc 1 670 38 is_stmt 0
 2047              	#NO_APP
 2048 0a34 83370700 		ld	a5,0(a4)
 2049 0a38 03B78703 		ld	a4,56(a5)
 2050              		.loc 1 670 22
 2051 0a3c 23BCE402 		sd	a4,56(s1)
 671:src/riscv.cpp **** 
 672:src/riscv.cpp ****         forked->sstatus = TCB::running->sstatus;
 2052              		.loc 1 672 9 is_stmt 1
 2053              		.loc 1 672 41 is_stmt 0
 2054 0a40 83B70704 		ld	a5,64(a5)
 2055              		.loc 1 672 25
 2056 0a44 23B0F404 		sd	a5,64(s1)
 673:src/riscv.cpp **** 
 674:src/riscv.cpp ****         //put forked in scheduler
 675:src/riscv.cpp ****         Scheduler::put(forked);
 2057              		.loc 1 675 9 is_stmt 1
 2058              		.loc 1 675 23 is_stmt 0
 2059 0a48 13850400 		mv	a0,s1
 2060              	.LEHB12:
 2061 0a4c 97000000 		call	_ZN9Scheduler3putEP3TCB@plt
 2061      E7800000 
 2062              	.LVL149:
 2063              	.LEHE12:
 676:src/riscv.cpp **** 
 677:src/riscv.cpp ****         //return address of forked as thread ID
 678:src/riscv.cpp ****         status = (uint64)forked;
GAS LISTING /tmp/ccGkqgib.s 			page 59


 2064              		.loc 1 678 9 is_stmt 1
 2065              	.L103:
 2066              	.LBE125:
 2067              	.LBE124:
 679:src/riscv.cpp ****     }else
 680:src/riscv.cpp ****         status = -1;
 681:src/riscv.cpp **** 
 682:src/riscv.cpp ****     asm("mv a0, %[status]" : : [status] "r" (status));
 2068              		.loc 1 682 5
 2069              		.loc 1 682 54 is_stmt 0
 2070              	#APP
 2071              	# 682 "src/riscv.cpp" 1
 683              	
 684:src/riscv.cpp ****     RiscV::saveA0toSscratch();
 2072              		mv a0, s1
 2073              	# 0 "" 2
 2074              		.loc 1 684 5 is_stmt 1
 2075              		.loc 1 684 28 is_stmt 0
 2076              	#NO_APP
 2077 0a58 97000000 		call	_ZN5RiscV16saveA0toSscratchEv
 2077      E7800000 
 2078              	.LVL150:
 685:src/riscv.cpp **** 
 686:src/riscv.cpp **** }
 2079              		.loc 1 686 1
 2080 0a60 83308101 		ld	ra,24(sp)
 2081              		.cfi_remember_state
 2082              		.cfi_restore 1
 2083 0a64 03340101 		ld	s0,16(sp)
 2084              		.cfi_restore 8
 2085              		.cfi_def_cfa 2, 32
 2086 0a68 83348100 		ld	s1,8(sp)
 2087              		.cfi_restore 9
 2088              	.LVL151:
 2089 0a6c 03390100 		ld	s2,0(sp)
 2090              		.cfi_restore 18
 2091 0a70 13010102 		addi	sp,sp,32
 2092              		.cfi_def_cfa_offset 0
 2093 0a74 67800000 		jr	ra
 2094              	.LVL152:
 2095              	.L105:
 2096              		.cfi_restore_state
 2097              	.LBB126:
 680:src/riscv.cpp **** 
 2098              		.loc 1 680 16
 2099 0a78 9304F0FF 		li	s1,-1
 2100              	.LVL153:
 2101 0a7c 6FF09FFD 		j	.L103
 2102              	.LVL154:
 2103              	.L106:
 2104 0a80 13090500 		mv	s2,a0
 2105              	.LVL155:
 2106              	.LBE126:
 631:src/riscv.cpp **** 
 2107              		.loc 1 631 70
 2108 0a84 13850400 		mv	a0,s1
 2109 0a88 97000000 		call	_ZN3TCBdlEPv@plt
GAS LISTING /tmp/ccGkqgib.s 			page 60


 2109      E7800000 
 2110              	.LVL156:
 2111 0a90 13050900 		mv	a0,s2
 2112              	.LEHB13:
 2113 0a94 97000000 		call	_Unwind_Resume@plt
 2113      E7800000 
 2114              	.LVL157:
 2115              	.LEHE13:
 2116              		.cfi_endproc
 2117              	.LFE57:
 2118              		.section	.gcc_except_table
 2119              	.LLSDA57:
 2120 008e FF       		.byte	0xff
 2121 008f FF       		.byte	0xff
 2122 0090 03       		.byte	0x3
 2123 0091 34       		.byte	0x34
 2124 0092 00000000 		.4byte	.LEHB10-.LFB57
 2125 0096 00000000 		.4byte	.LEHE10-.LEHB10
 2126 009a 00000000 		.4byte	0
 2127 009e 00       		.byte	0
 2128 009f 00000000 		.4byte	.LEHB11-.LFB57
 2129 00a3 00000000 		.4byte	.LEHE11-.LEHB11
 2130 00a7 00000000 		.4byte	.L106-.LFB57
 2131 00ab 00       		.byte	0
 2132 00ac 00000000 		.4byte	.LEHB12-.LFB57
 2133 00b0 00000000 		.4byte	.LEHE12-.LEHB12
 2134 00b4 00000000 		.4byte	0
 2135 00b8 00       		.byte	0
 2136 00b9 00000000 		.4byte	.LEHB13-.LFB57
 2137 00bd 00000000 		.4byte	.LEHE13-.LEHB13
 2138 00c1 00000000 		.4byte	0
 2139 00c5 00       		.byte	0
 2140              		.text
 2142              		.align	2
 2143              		.globl	_ZN5RiscV5getPCEv
 2145              	_ZN5RiscV5getPCEv:
 2146              	.LFB58:
 687:src/riscv.cpp **** 
 688:src/riscv.cpp **** void RiscV::getPC(){
 2147              		.loc 1 688 20 is_stmt 1
 2148              		.cfi_startproc
 2149 0a9c 130101FF 		addi	sp,sp,-16
 2150              		.cfi_def_cfa_offset 16
 2151 0aa0 23348100 		sd	s0,8(sp)
 2152              		.cfi_offset 8, -8
 2153 0aa4 13040101 		addi	s0,sp,16
 2154              		.cfi_def_cfa 8, 0
 689:src/riscv.cpp ****     uint64 ra;
 2155              		.loc 1 689 5
 690:src/riscv.cpp **** 
 691:src/riscv.cpp ****     asm("mv %[ra], ra" : [ra] "=r"(ra));
 2156              		.loc 1 691 5
 2157              		.loc 1 691 40 is_stmt 0
 2158              	#APP
 2159              	# 691 "src/riscv.cpp" 1
 692              	
 2160              		mv a5, ra
GAS LISTING /tmp/ccGkqgib.s 			page 61


 2161              	# 0 "" 2
 2162              	.LVL158:
 693:src/riscv.cpp ****     TCB::currentPC = ra + 8;
 2163              		.loc 1 693 5 is_stmt 1
 2164              		.loc 1 693 25 is_stmt 0
 2165              	#NO_APP
 2166 0aac 93878700 		addi	a5,a5,8
 2167              	.LVL159:
 2168              		.loc 1 693 20
 2169 0ab0 17070000 		la	a4,_ZN3TCB9currentPCE
 2169      03370700 
 2170 0ab8 2330F700 		sd	a5,0(a4)
 694:src/riscv.cpp **** }
 2171              		.loc 1 694 1
 2172 0abc 03348100 		ld	s0,8(sp)
 2173              		.cfi_restore 8
 2174              		.cfi_def_cfa 2, 16
 2175 0ac0 13010101 		addi	sp,sp,16
 2176              		.cfi_def_cfa_offset 0
 2177 0ac4 67800000 		jr	ra
 2178              		.cfi_endproc
 2179              	.LFE58:
 2181              		.section	.rodata.str1.8,"aMS",@progbits,1
 2182              		.align	3
 2183              	.LC0:
 2184 0000 73657063 		.string	"sepc: "
 2184      3A2000
 2185 0007 00       		.align	3
 2186              	.LC1:
 2187 0008 0A00     		.string	"\n"
 2188 000a 00000000 		.align	3
 2188      0000
 2189              	.LC2:
 2190 0010 496C6C65 		.string	"Illegal instruction\nExiting thread...\n"
 2190      67616C20 
 2190      696E7374 
 2190      72756374 
 2190      696F6E0A 
 2191 0037 00       		.align	3
 2192              	.LC3:
 2193 0038 4572726F 		.string	"Error: \n"
 2193      723A200A 
 2193      00
 2194 0041 00000000 		.align	3
 2194      000000
 2195              	.LC4:
 2196 0048 73636175 		.string	"scause: "
 2196      73653A20 
 2196      00
 2197 0051 00000000 		.align	3
 2197      000000
 2198              	.LC5:
 2199 0058 45786974 		.string	"Exiting thread...\n"
 2199      696E6720 
 2199      74687265 
 2199      61642E2E 
 2199      2E0A00
GAS LISTING /tmp/ccGkqgib.s 			page 62


 2200              		.text
 2201              		.align	2
 2202              		.globl	_ZN5RiscV20handleSupervisorTrapEv
 2204              	_ZN5RiscV20handleSupervisorTrapEv:
 2205              	.LFB35:
  35:src/riscv.cpp **** 
 2206              		.loc 1 35 36 is_stmt 1
 2207              		.cfi_startproc
 2208 0ac8 130101FA 		addi	sp,sp,-96
 2209              		.cfi_def_cfa_offset 96
 2210 0acc 233C1104 		sd	ra,88(sp)
 2211 0ad0 23388104 		sd	s0,80(sp)
 2212              		.cfi_offset 1, -8
 2213              		.cfi_offset 8, -16
 2214 0ad4 13040106 		addi	s0,sp,96
 2215              		.cfi_def_cfa 8, 0
  38:src/riscv.cpp **** 
 2216              		.loc 1 38 5
 2217              	.LBB127:
 2218              	.LBB128:
 132:src/../h/riscv.hpp ****     asm("csrr %[scause], scause" : [scause] "=r" (scause));
 2219              		.loc 2 132 5
 133:src/../h/riscv.hpp ****     return scause;
 2220              		.loc 2 133 5
 133:src/../h/riscv.hpp ****     return scause;
 2221              		.loc 2 133 59 is_stmt 0
 2222              	#APP
 2223              	# 133 "src/../h/riscv.hpp" 1
 2224              		csrr a5, scause
 2225              	# 0 "" 2
 2226              	#NO_APP
 2227 0adc 233CF4FC 		sd	a5,-40(s0)
 134:src/../h/riscv.hpp **** }
 2228              		.loc 2 134 5 is_stmt 1
 134:src/../h/riscv.hpp **** }
 2229              		.loc 2 134 12 is_stmt 0
 2230 0ae0 833784FD 		ld	a5,-40(s0)
 2231              	.LBE128:
 2232              	.LBE127:
  38:src/riscv.cpp **** 
 2233              		.loc 1 38 46
 2234 0ae4 2334F4FE 		sd	a5,-24(s0)
  40:src/riscv.cpp **** 
 2235              		.loc 1 40 5 is_stmt 1
  40:src/riscv.cpp **** 
 2236              		.loc 1 40 71 is_stmt 0
 2237 0ae8 97070000 		la	a5,_ZN3TCB7runningE
 2237      83B70700 
 2238 0af0 83B70700 		ld	a5,0(a5)
  40:src/riscv.cpp **** 
 2239              		.loc 1 40 83
 2240              	#APP
 2241              	# 40 "src/riscv.cpp" 1
 2242              		csrr a4, sscratch
 2243              	# 0 "" 2
 2244              	#NO_APP
 2245 0af8 23B4E706 		sd	a4,104(a5)
GAS LISTING /tmp/ccGkqgib.s 			page 63


  43:src/riscv.cpp **** 
 2246              		.loc 1 43 5 is_stmt 1
 2247              	.LBB129:
  43:src/riscv.cpp **** 
 2248              		.loc 1 43 15 is_stmt 0
 2249 0afc 033784FE 		ld	a4,-24(s0)
  43:src/riscv.cpp **** 
 2250              		.loc 1 43 23
 2251 0b00 93079000 		li	a5,9
 2252 0b04 6306F70E 		beq	a4,a5,.L112
  43:src/riscv.cpp **** 
 2253              		.loc 1 43 33 discriminator 2
 2254 0b08 033784FE 		ld	a4,-24(s0)
  43:src/riscv.cpp **** 
 2255              		.loc 1 43 23 discriminator 2
 2256 0b0c 93078000 		li	a5,8
 2257 0b10 6300F70E 		beq	a4,a5,.L112
 2258              	.LBE129:
  89:src/riscv.cpp **** 
 2259              		.loc 1 89 10 is_stmt 1
 2260              	.LBB184:
 2261              	.LBB130:
  89:src/riscv.cpp **** 
 2262              		.loc 1 89 20 is_stmt 0
 2263 0b14 033784FE 		ld	a4,-24(s0)
  89:src/riscv.cpp **** 
 2264              		.loc 1 89 10
 2265 0b18 9307F0FF 		li	a5,-1
 2266 0b1c 9397F703 		slli	a5,a5,63
 2267 0b20 93871700 		addi	a5,a5,1
 2268 0b24 6302F724 		beq	a4,a5,.L142
 2269              	.LBE130:
 2270              	.LBE184:
 124:src/riscv.cpp ****         //save sstatus and sepc
 2271              		.loc 1 124 10 is_stmt 1
 2272              	.LBB185:
 2273              	.LBB171:
 2274              	.LBB131:
 124:src/riscv.cpp ****         //save sstatus and sepc
 2275              		.loc 1 124 20 is_stmt 0
 2276 0b28 033784FE 		ld	a4,-24(s0)
 124:src/riscv.cpp ****         //save sstatus and sepc
 2277              		.loc 1 124 10
 2278 0b2c 9307F0FF 		li	a5,-1
 2279 0b30 9397F703 		slli	a5,a5,63
 2280 0b34 93879700 		addi	a5,a5,9
 2281 0b38 6300F72C 		beq	a4,a5,.L143
 2282              	.LBE131:
 2283              	.LBE171:
 2284              	.LBE185:
 160:src/riscv.cpp ****         TCB* old = TCB::running;
 2285              		.loc 1 160 10 is_stmt 1
 2286              	.LBB186:
 2287              	.LBB172:
 2288              	.LBB155:
 2289              	.LBB132:
 160:src/riscv.cpp ****         TCB* old = TCB::running;
GAS LISTING /tmp/ccGkqgib.s 			page 64


 2290              		.loc 1 160 20 is_stmt 0
 2291 0b3c 033784FE 		ld	a4,-24(s0)
 160:src/riscv.cpp ****         TCB* old = TCB::running;
 2292              		.loc 1 160 10
 2293 0b40 93072000 		li	a5,2
 2294 0b44 6308F734 		beq	a4,a5,.L144
 2295              	.LBB133:
 173:src/riscv.cpp ****         ConsoleUtil::printString("scause: ");
 2296              		.loc 1 173 9 is_stmt 1
 173:src/riscv.cpp ****         ConsoleUtil::printString("scause: ");
 2297              		.loc 1 173 33 is_stmt 0
 2298 0b48 17050000 		lla	a0,.LC3
 2298      13050500 
 2299 0b50 97000000 		call	_ZN11ConsoleUtil11printStringEPKc@plt
 2299      E7800000 
 2300              	.LVL160:
 174:src/riscv.cpp ****         uint64  scause = RiscV::r_scause();
 2301              		.loc 1 174 9 is_stmt 1
 174:src/riscv.cpp ****         uint64  scause = RiscV::r_scause();
 2302              		.loc 1 174 33 is_stmt 0
 2303 0b58 17050000 		lla	a0,.LC4
 2303      13050500 
 2304 0b60 97000000 		call	_ZN11ConsoleUtil11printStringEPKc@plt
 2304      E7800000 
 2305              	.LVL161:
 175:src/riscv.cpp ****         ConsoleUtil::printInt(scause);
 2306              		.loc 1 175 9 is_stmt 1
 2307              	.LBB134:
 2308              	.LBB135:
 132:src/../h/riscv.hpp ****     asm("csrr %[scause], scause" : [scause] "=r" (scause));
 2309              		.loc 2 132 5
 133:src/../h/riscv.hpp ****     return scause;
 2310              		.loc 2 133 5
 133:src/../h/riscv.hpp ****     return scause;
 2311              		.loc 2 133 59 is_stmt 0
 2312              	#APP
 2313              	# 133 "src/../h/riscv.hpp" 1
 2314              		csrr a5, scause
 2315              	# 0 "" 2
 2316              	#NO_APP
 2317 0b6c 2330F4FE 		sd	a5,-32(s0)
 134:src/../h/riscv.hpp **** }
 2318              		.loc 2 134 5 is_stmt 1
 134:src/../h/riscv.hpp **** }
 2319              		.loc 2 134 12 is_stmt 0
 2320 0b70 033504FE 		ld	a0,-32(s0)
 2321              	.LVL162:
 2322              	.LBE135:
 2323              	.LBE134:
 176:src/riscv.cpp ****         ConsoleUtil::printString("sepc: ");
 2324              		.loc 1 176 9 is_stmt 1
 176:src/riscv.cpp ****         ConsoleUtil::printString("sepc: ");
 2325              		.loc 1 176 30 is_stmt 0
 2326 0b74 13060000 		li	a2,0
 2327 0b78 9305A000 		li	a1,10
 2328 0b7c 1B050500 		sext.w	a0,a0
 2329              	.LVL163:
GAS LISTING /tmp/ccGkqgib.s 			page 65


 2330 0b80 97000000 		call	_ZN11ConsoleUtil8printIntEiii@plt
 2330      E7800000 
 2331              	.LVL164:
 177:src/riscv.cpp ****         uint64 sepc = RiscV::r_sepc();
 2332              		.loc 1 177 9 is_stmt 1
 177:src/riscv.cpp ****         uint64 sepc = RiscV::r_sepc();
 2333              		.loc 1 177 33 is_stmt 0
 2334 0b88 17050000 		lla	a0,.LC0
 2334      13050500 
 2335 0b90 97000000 		call	_ZN11ConsoleUtil11printStringEPKc@plt
 2335      E7800000 
 2336              	.LVL165:
 178:src/riscv.cpp ****         ConsoleUtil::printInt(sepc,16);
 2337              		.loc 1 178 9 is_stmt 1
 2338              	.LBB136:
 2339              	.LBB137:
 142:src/../h/riscv.hpp ****     asm("csrr %[sepc], sepc" : [sepc] "=r" (sepc));
 2340              		.loc 2 142 5
 143:src/../h/riscv.hpp ****     return sepc;
 2341              		.loc 2 143 5
 143:src/../h/riscv.hpp ****     return sepc;
 2342              		.loc 2 143 51 is_stmt 0
 2343              	#APP
 2344              	# 143 "src/../h/riscv.hpp" 1
 144:src/../h/riscv.hpp **** }
 2345              		csrr a0, sepc
 2346              	# 0 "" 2
 2347              		.loc 2 144 5 is_stmt 1
 2348              	#NO_APP
 2349              	.LBE137:
 2350              	.LBE136:
 179:src/riscv.cpp ****         ConsoleUtil::printString("\n");
 2351              		.loc 1 179 9
 179:src/riscv.cpp ****         ConsoleUtil::printString("\n");
 2352              		.loc 1 179 30 is_stmt 0
 2353 0b9c 13060000 		li	a2,0
 2354 0ba0 93050001 		li	a1,16
 2355 0ba4 1B050500 		sext.w	a0,a0
 2356 0ba8 97000000 		call	_ZN11ConsoleUtil8printIntEiii@plt
 2356      E7800000 
 2357              	.LVL166:
 180:src/riscv.cpp ****         TCB* old = TCB::running;
 2358              		.loc 1 180 9 is_stmt 1
 180:src/riscv.cpp ****         TCB* old = TCB::running;
 2359              		.loc 1 180 33 is_stmt 0
 2360 0bb0 17050000 		lla	a0,.LC1
 2360      13050500 
 2361 0bb8 97000000 		call	_ZN11ConsoleUtil11printStringEPKc@plt
 2361      E7800000 
 2362              	.LVL167:
 181:src/riscv.cpp ****         old->status = TCB::Status::FINISHED;
 2363              		.loc 1 181 9 is_stmt 1
 181:src/riscv.cpp ****         old->status = TCB::Status::FINISHED;
 2364              		.loc 1 181 14 is_stmt 0
 2365 0bc0 97070000 		la	a5,_ZN3TCB7runningE
 2365      83B70700 
 2366 0bc8 83B70700 		ld	a5,0(a5)
GAS LISTING /tmp/ccGkqgib.s 			page 66


 2367              	.LVL168:
 182:src/riscv.cpp ****         ConsoleUtil::printString("Exiting thread...\n");
 2368              		.loc 1 182 9 is_stmt 1
 182:src/riscv.cpp ****         ConsoleUtil::printString("Exiting thread...\n");
 2369              		.loc 1 182 21 is_stmt 0
 2370 0bcc 13072000 		li	a4,2
 2371 0bd0 23A8E700 		sw	a4,16(a5)
 183:src/riscv.cpp ****         TCB::dispatch();
 2372              		.loc 1 183 9 is_stmt 1
 183:src/riscv.cpp ****         TCB::dispatch();
 2373              		.loc 1 183 33 is_stmt 0
 2374 0bd4 17050000 		lla	a0,.LC5
 2374      13050500 
 2375 0bdc 97000000 		call	_ZN11ConsoleUtil11printStringEPKc@plt
 2375      E7800000 
 2376              	.LVL169:
 184:src/riscv.cpp ****     }
 2377              		.loc 1 184 9 is_stmt 1
 184:src/riscv.cpp ****     }
 2378              		.loc 1 184 22 is_stmt 0
 2379 0be4 97000000 		call	_ZN3TCB8dispatchEv@plt
 2379      E7800000 
 2380              	.LVL170:
 2381 0bec 6F000008 		j	.L135
 2382              	.L112:
 2383              	.LBE133:
 2384              	.LBE132:
 2385              	.LBE155:
 2386              	.LBE172:
 2387              	.LBB173:
  47:src/riscv.cpp ****         uint64 volatile sepc = RiscV::r_sepc()+4;
 2388              		.loc 1 47 9 is_stmt 1
 2389              	.LBB174:
 2390              	.LBB175:
 162:src/../h/riscv.hpp ****     asm("csrr %[sstatus], sstatus" : [sstatus] "=r" (sstatus));
 2391              		.loc 2 162 5
 163:src/../h/riscv.hpp ****     return sstatus;
 2392              		.loc 2 163 5
 163:src/../h/riscv.hpp ****     return sstatus;
 2393              		.loc 2 163 63 is_stmt 0
 2394              	#APP
 2395              	# 163 "src/../h/riscv.hpp" 1
 2396              		csrr a5, sstatus
 2397              	# 0 "" 2
 2398              	.LVL171:
 164:src/../h/riscv.hpp **** }
 2399              		.loc 2 164 5 is_stmt 1
 2400              	#NO_APP
 2401              	.LBE175:
 2402              	.LBE174:
  47:src/riscv.cpp ****         uint64 volatile sepc = RiscV::r_sepc()+4;
 2403              		.loc 1 47 52 is_stmt 0
 2404 0bf4 2334F4FA 		sd	a5,-88(s0)
  48:src/riscv.cpp ****         TCB::running->sepc = sepc;
 2405              		.loc 1 48 9 is_stmt 1
 2406              	.LBB176:
 2407              	.LBB177:
GAS LISTING /tmp/ccGkqgib.s 			page 67


 142:src/../h/riscv.hpp ****     asm("csrr %[sepc], sepc" : [sepc] "=r" (sepc));
 2408              		.loc 2 142 5
 143:src/../h/riscv.hpp ****     return sepc;
 2409              		.loc 2 143 5
 143:src/../h/riscv.hpp ****     return sepc;
 2410              		.loc 2 143 51 is_stmt 0
 2411              	#APP
 2412              	# 143 "src/../h/riscv.hpp" 1
 2413              		csrr a5, sepc
 2414              	# 0 "" 2
 2415              	.LVL172:
 144:src/../h/riscv.hpp **** }
 2416              		.loc 2 144 5 is_stmt 1
 2417              	#NO_APP
 2418              	.LBE177:
 2419              	.LBE176:
  48:src/riscv.cpp ****         TCB::running->sepc = sepc;
 2420              		.loc 1 48 47 is_stmt 0
 2421 0bfc 93874700 		addi	a5,a5,4
  48:src/riscv.cpp ****         TCB::running->sepc = sepc;
 2422              		.loc 1 48 48
 2423 0c00 2338F4FA 		sd	a5,-80(s0)
  49:src/riscv.cpp ****         TCB::running->sstatus = sstatus;
 2424              		.loc 1 49 9 is_stmt 1
  49:src/riscv.cpp ****         TCB::running->sstatus = sstatus;
 2425              		.loc 1 49 23 is_stmt 0
 2426 0c04 97070000 		la	a5,_ZN3TCB7runningE
 2426      83B70700 
 2427 0c0c 83B70700 		ld	a5,0(a5)
  49:src/riscv.cpp ****         TCB::running->sstatus = sstatus;
 2428              		.loc 1 49 28
 2429 0c10 033704FB 		ld	a4,-80(s0)
 2430 0c14 23BCE702 		sd	a4,56(a5)
  50:src/riscv.cpp **** 
 2431              		.loc 1 50 9 is_stmt 1
  50:src/riscv.cpp **** 
 2432              		.loc 1 50 31 is_stmt 0
 2433 0c18 033784FA 		ld	a4,-88(s0)
 2434 0c1c 23B0E704 		sd	a4,64(a5)
  53:src/riscv.cpp ****         asm("mv %[syscallID], a0" : [syscallID] "=r" (syscallID));
 2435              		.loc 1 53 9 is_stmt 1
  54:src/riscv.cpp **** 
 2436              		.loc 1 54 9
  54:src/riscv.cpp **** 
 2437              		.loc 1 54 66 is_stmt 0
 2438              	#APP
 2439              	# 54 "src/riscv.cpp" 1
 2440              		mv a5, a0
 2441              	# 0 "" 2
 2442              	.LVL173:
  56:src/riscv.cpp ****             case 0x01 : executeMemAllocSyscall();break;
 2443              		.loc 1 56 9 is_stmt 1
 2444              	#NO_APP
 2445 0c24 13071006 		li	a4,97
 2446 0c28 6364F702 		bgtu	a5,a4,.L115
 2447 0c2c 93972700 		slli	a5,a5,2
 2448              	.LVL174:
GAS LISTING /tmp/ccGkqgib.s 			page 68


 2449 0c30 17070000 		lla	a4,.L117
 2449      13070700 
 2450 0c38 B387E700 		add	a5,a5,a4
 2451 0c3c 83A70700 		lw	a5,0(a5)
 2452 0c40 B387E700 		add	a5,a5,a4
 2453 0c44 67800700 		jr	a5
 2454              		.section	.rodata
 2455              		.align	2
 2456              		.align	2
 2457              	.L117:
 2458 0000 00000000 		.word	.L115-.L117
 2459 0004 00000000 		.word	.L134-.L117
 2460 0008 00000000 		.word	.L133-.L117
 2461 000c 00000000 		.word	.L115-.L117
 2462 0010 00000000 		.word	.L115-.L117
 2463 0014 00000000 		.word	.L115-.L117
 2464 0018 00000000 		.word	.L115-.L117
 2465 001c 00000000 		.word	.L115-.L117
 2466 0020 00000000 		.word	.L115-.L117
 2467 0024 00000000 		.word	.L115-.L117
 2468 0028 00000000 		.word	.L115-.L117
 2469 002c 00000000 		.word	.L115-.L117
 2470 0030 00000000 		.word	.L115-.L117
 2471 0034 00000000 		.word	.L115-.L117
 2472 0038 00000000 		.word	.L115-.L117
 2473 003c 00000000 		.word	.L115-.L117
 2474 0040 00000000 		.word	.L115-.L117
 2475 0044 00000000 		.word	.L132-.L117
 2476 0048 00000000 		.word	.L131-.L117
 2477 004c 00000000 		.word	.L130-.L117
 2478 0050 00000000 		.word	.L129-.L117
 2479 0054 00000000 		.word	.L128-.L117
 2480 0058 00000000 		.word	.L115-.L117
 2481 005c 00000000 		.word	.L115-.L117
 2482 0060 00000000 		.word	.L115-.L117
 2483 0064 00000000 		.word	.L115-.L117
 2484 0068 00000000 		.word	.L115-.L117
 2485 006c 00000000 		.word	.L115-.L117
 2486 0070 00000000 		.word	.L115-.L117
 2487 0074 00000000 		.word	.L115-.L117
 2488 0078 00000000 		.word	.L115-.L117
 2489 007c 00000000 		.word	.L115-.L117
 2490 0080 00000000 		.word	.L115-.L117
 2491 0084 00000000 		.word	.L127-.L117
 2492 0088 00000000 		.word	.L126-.L117
 2493 008c 00000000 		.word	.L125-.L117
 2494 0090 00000000 		.word	.L124-.L117
 2495 0094 00000000 		.word	.L115-.L117
 2496 0098 00000000 		.word	.L115-.L117
 2497 009c 00000000 		.word	.L115-.L117
 2498 00a0 00000000 		.word	.L115-.L117
 2499 00a4 00000000 		.word	.L115-.L117
 2500 00a8 00000000 		.word	.L115-.L117
 2501 00ac 00000000 		.word	.L115-.L117
 2502 00b0 00000000 		.word	.L115-.L117
 2503 00b4 00000000 		.word	.L115-.L117
 2504 00b8 00000000 		.word	.L115-.L117
GAS LISTING /tmp/ccGkqgib.s 			page 69


 2505 00bc 00000000 		.word	.L115-.L117
 2506 00c0 00000000 		.word	.L115-.L117
 2507 00c4 00000000 		.word	.L123-.L117
 2508 00c8 00000000 		.word	.L115-.L117
 2509 00cc 00000000 		.word	.L115-.L117
 2510 00d0 00000000 		.word	.L115-.L117
 2511 00d4 00000000 		.word	.L115-.L117
 2512 00d8 00000000 		.word	.L115-.L117
 2513 00dc 00000000 		.word	.L115-.L117
 2514 00e0 00000000 		.word	.L115-.L117
 2515 00e4 00000000 		.word	.L115-.L117
 2516 00e8 00000000 		.word	.L115-.L117
 2517 00ec 00000000 		.word	.L115-.L117
 2518 00f0 00000000 		.word	.L115-.L117
 2519 00f4 00000000 		.word	.L115-.L117
 2520 00f8 00000000 		.word	.L115-.L117
 2521 00fc 00000000 		.word	.L115-.L117
 2522 0100 00000000 		.word	.L115-.L117
 2523 0104 00000000 		.word	.L122-.L117
 2524 0108 00000000 		.word	.L121-.L117
 2525 010c 00000000 		.word	.L120-.L117
 2526 0110 00000000 		.word	.L115-.L117
 2527 0114 00000000 		.word	.L115-.L117
 2528 0118 00000000 		.word	.L115-.L117
 2529 011c 00000000 		.word	.L115-.L117
 2530 0120 00000000 		.word	.L115-.L117
 2531 0124 00000000 		.word	.L115-.L117
 2532 0128 00000000 		.word	.L115-.L117
 2533 012c 00000000 		.word	.L115-.L117
 2534 0130 00000000 		.word	.L115-.L117
 2535 0134 00000000 		.word	.L115-.L117
 2536 0138 00000000 		.word	.L115-.L117
 2537 013c 00000000 		.word	.L115-.L117
 2538 0140 00000000 		.word	.L115-.L117
 2539 0144 00000000 		.word	.L119-.L117
 2540 0148 00000000 		.word	.L118-.L117
 2541 014c 00000000 		.word	.L115-.L117
 2542 0150 00000000 		.word	.L115-.L117
 2543 0154 00000000 		.word	.L115-.L117
 2544 0158 00000000 		.word	.L115-.L117
 2545 015c 00000000 		.word	.L115-.L117
 2546 0160 00000000 		.word	.L115-.L117
 2547 0164 00000000 		.word	.L115-.L117
 2548 0168 00000000 		.word	.L115-.L117
 2549 016c 00000000 		.word	.L115-.L117
 2550 0170 00000000 		.word	.L115-.L117
 2551 0174 00000000 		.word	.L115-.L117
 2552 0178 00000000 		.word	.L115-.L117
 2553 017c 00000000 		.word	.L115-.L117
 2554 0180 00000000 		.word	.L115-.L117
 2555 0184 00000000 		.word	.L116-.L117
 2556              		.text
 2557              	.L134:
  57:src/riscv.cpp ****             case 0x02 : executeMemFreeSyscall();break;
 2558              		.loc 1 57 13
  57:src/riscv.cpp ****             case 0x02 : executeMemFreeSyscall();break;
 2559              		.loc 1 57 25
GAS LISTING /tmp/ccGkqgib.s 			page 70


  57:src/riscv.cpp ****             case 0x02 : executeMemFreeSyscall();break;
 2560              		.loc 1 57 47 is_stmt 0
 2561 0c48 97000000 		call	_ZN5RiscV22executeMemAllocSyscallEv
 2561      E7800000 
 2562              	.LVL175:
  57:src/riscv.cpp ****             case 0x02 : executeMemFreeSyscall();break;
 2563              		.loc 1 57 50 is_stmt 1
 2564              	.L115:
  84:src/riscv.cpp ****         RiscV::w_sepc(TCB::running->sepc);
 2565              		.loc 1 84 9
  84:src/riscv.cpp ****         RiscV::w_sepc(TCB::running->sepc);
 2566              		.loc 1 84 25 is_stmt 0
 2567 0c50 97070000 		la	a5,_ZN3TCB7runningE
 2567      83B70700 
 2568 0c58 83B70700 		ld	a5,0(a5)
 2569 0c5c 03B70704 		ld	a4,64(a5)
 2570              	.LVL176:
 2571              	.LBB178:
 2572              	.LBB179:
 158:src/../h/riscv.hpp **** }
 2573              		.loc 2 158 5 is_stmt 1
 158:src/../h/riscv.hpp **** }
 2574              		.loc 2 158 64 is_stmt 0
 2575              	#APP
 2576              	# 158 "src/../h/riscv.hpp" 1
 2577              		csrw sstatus, a4
 2578              	# 0 "" 2
 2579              	.LVL177:
 2580              	#NO_APP
 2581              	.LBE179:
 2582              	.LBE178:
  85:src/riscv.cpp ****     }
 2583              		.loc 1 85 9 is_stmt 1
  85:src/riscv.cpp ****     }
 2584              		.loc 1 85 22 is_stmt 0
 2585 0c64 83B78703 		ld	a5,56(a5)
 2586              	.LVL178:
 2587              	.LBB180:
 2588              	.LBB181:
 148:src/../h/riscv.hpp **** }
 2589              		.loc 2 148 5 is_stmt 1
 148:src/../h/riscv.hpp **** }
 2590              		.loc 2 148 52 is_stmt 0
 2591              	#APP
 2592              	# 148 "src/../h/riscv.hpp" 1
 2593              		csrw sepc, a5
 2594              	# 0 "" 2
 2595              	.LVL179:
 2596              	#NO_APP
 2597              	.L135:
 2598              	.LBE181:
 2599              	.LBE180:
 2600              	.LBE173:
 2601              	.LBE186:
 187:src/riscv.cpp **** }
 2602              		.loc 1 187 5 is_stmt 1
 187:src/riscv.cpp **** }
GAS LISTING /tmp/ccGkqgib.s 			page 71


 2603              		.loc 1 187 41 is_stmt 0
 2604 0c6c 97000000 		call	_ZN5RiscV29jumpToDesignatedPrivilegeModeEv
 2604      E7800000 
 2605              	.LVL180:
 188:src/riscv.cpp **** 
 2606              		.loc 1 188 1
 2607 0c74 83308105 		ld	ra,88(sp)
 2608              		.cfi_remember_state
 2609              		.cfi_restore 1
 2610 0c78 03340105 		ld	s0,80(sp)
 2611              		.cfi_restore 8
 2612              		.cfi_def_cfa 2, 96
 2613 0c7c 13010106 		addi	sp,sp,96
 2614              		.cfi_def_cfa_offset 0
 2615 0c80 67800000 		jr	ra
 2616              	.L133:
 2617              		.cfi_restore_state
 2618              	.LBB187:
 2619              	.LBB182:
  58:src/riscv.cpp ****             case 0x11 : executeThreadCreateSyscall();break;
 2620              		.loc 1 58 13 is_stmt 1
  58:src/riscv.cpp ****             case 0x11 : executeThreadCreateSyscall();break;
 2621              		.loc 1 58 25
  58:src/riscv.cpp ****             case 0x11 : executeThreadCreateSyscall();break;
 2622              		.loc 1 58 46 is_stmt 0
 2623 0c84 97000000 		call	_ZN5RiscV21executeMemFreeSyscallEv
 2623      E7800000 
 2624              	.LVL181:
  58:src/riscv.cpp ****             case 0x11 : executeThreadCreateSyscall();break;
 2625              		.loc 1 58 49 is_stmt 1
 2626 0c8c 6FF05FFC 		j	.L115
 2627              	.L132:
  59:src/riscv.cpp ****             case 0x12 : executeThreadExitSyscall();break;
 2628              		.loc 1 59 13
  59:src/riscv.cpp ****             case 0x12 : executeThreadExitSyscall();break;
 2629              		.loc 1 59 25
  59:src/riscv.cpp ****             case 0x12 : executeThreadExitSyscall();break;
 2630              		.loc 1 59 51 is_stmt 0
 2631 0c90 97000000 		call	_ZN5RiscV26executeThreadCreateSyscallEv
 2631      E7800000 
 2632              	.LVL182:
  59:src/riscv.cpp ****             case 0x12 : executeThreadExitSyscall();break;
 2633              		.loc 1 59 54 is_stmt 1
 2634 0c98 6FF09FFB 		j	.L115
 2635              	.L131:
  60:src/riscv.cpp ****             case 0x13 : executeThreadDispatchSyscall();break;
 2636              		.loc 1 60 13
  60:src/riscv.cpp ****             case 0x13 : executeThreadDispatchSyscall();break;
 2637              		.loc 1 60 25
  60:src/riscv.cpp ****             case 0x13 : executeThreadDispatchSyscall();break;
 2638              		.loc 1 60 49 is_stmt 0
 2639 0c9c 97000000 		call	_ZN5RiscV24executeThreadExitSyscallEv
 2639      E7800000 
 2640              	.LVL183:
  60:src/riscv.cpp ****             case 0x13 : executeThreadDispatchSyscall();break;
 2641              		.loc 1 60 52 is_stmt 1
 2642 0ca4 6FF0DFFA 		j	.L115
GAS LISTING /tmp/ccGkqgib.s 			page 72


 2643              	.L130:
  61:src/riscv.cpp ****             case 0x14 : executeThreadAttachBodySyscall();break;
 2644              		.loc 1 61 13
  61:src/riscv.cpp ****             case 0x14 : executeThreadAttachBodySyscall();break;
 2645              		.loc 1 61 25
  61:src/riscv.cpp ****             case 0x14 : executeThreadAttachBodySyscall();break;
 2646              		.loc 1 61 53 is_stmt 0
 2647 0ca8 97000000 		call	_ZN5RiscV28executeThreadDispatchSyscallEv
 2647      E7800000 
 2648              	.LVL184:
  61:src/riscv.cpp ****             case 0x14 : executeThreadAttachBodySyscall();break;
 2649              		.loc 1 61 56 is_stmt 1
 2650 0cb0 6FF01FFA 		j	.L115
 2651              	.L129:
  62:src/riscv.cpp ****             case 0x15 : executeThreadStartSyscall();break;
 2652              		.loc 1 62 13
  62:src/riscv.cpp ****             case 0x15 : executeThreadStartSyscall();break;
 2653              		.loc 1 62 25
  62:src/riscv.cpp ****             case 0x15 : executeThreadStartSyscall();break;
 2654              		.loc 1 62 55 is_stmt 0
 2655 0cb4 97000000 		call	_ZN5RiscV30executeThreadAttachBodySyscallEv
 2655      E7800000 
 2656              	.LVL185:
  62:src/riscv.cpp ****             case 0x15 : executeThreadStartSyscall();break;
 2657              		.loc 1 62 58 is_stmt 1
 2658 0cbc 6FF05FF9 		j	.L115
 2659              	.L128:
  63:src/riscv.cpp ****             case 0x21 : executeSemOpenSyscall();break;
 2660              		.loc 1 63 13
  63:src/riscv.cpp ****             case 0x21 : executeSemOpenSyscall();break;
 2661              		.loc 1 63 25
  63:src/riscv.cpp ****             case 0x21 : executeSemOpenSyscall();break;
 2662              		.loc 1 63 50 is_stmt 0
 2663 0cc0 97000000 		call	_ZN5RiscV25executeThreadStartSyscallEv
 2663      E7800000 
 2664              	.LVL186:
  63:src/riscv.cpp ****             case 0x21 : executeSemOpenSyscall();break;
 2665              		.loc 1 63 53 is_stmt 1
 2666 0cc8 6FF09FF8 		j	.L115
 2667              	.L127:
  64:src/riscv.cpp ****             case 0x22 : executeSemCloseSyscall();break;
 2668              		.loc 1 64 13
  64:src/riscv.cpp ****             case 0x22 : executeSemCloseSyscall();break;
 2669              		.loc 1 64 25
  64:src/riscv.cpp ****             case 0x22 : executeSemCloseSyscall();break;
 2670              		.loc 1 64 46 is_stmt 0
 2671 0ccc 97000000 		call	_ZN5RiscV21executeSemOpenSyscallEv
 2671      E7800000 
 2672              	.LVL187:
  64:src/riscv.cpp ****             case 0x22 : executeSemCloseSyscall();break;
 2673              		.loc 1 64 49 is_stmt 1
 2674 0cd4 6FF0DFF7 		j	.L115
 2675              	.L126:
  65:src/riscv.cpp ****             case 0x23 : executeSemWaitSyscall();break;
 2676              		.loc 1 65 13
  65:src/riscv.cpp ****             case 0x23 : executeSemWaitSyscall();break;
 2677              		.loc 1 65 25
GAS LISTING /tmp/ccGkqgib.s 			page 73


  65:src/riscv.cpp ****             case 0x23 : executeSemWaitSyscall();break;
 2678              		.loc 1 65 47 is_stmt 0
 2679 0cd8 97000000 		call	_ZN5RiscV22executeSemCloseSyscallEv
 2679      E7800000 
 2680              	.LVL188:
  65:src/riscv.cpp ****             case 0x23 : executeSemWaitSyscall();break;
 2681              		.loc 1 65 50 is_stmt 1
 2682 0ce0 6FF01FF7 		j	.L115
 2683              	.L125:
  66:src/riscv.cpp ****             case 0x24 : executeSemSignalSyscall();break;
 2684              		.loc 1 66 13
  66:src/riscv.cpp ****             case 0x24 : executeSemSignalSyscall();break;
 2685              		.loc 1 66 25
  66:src/riscv.cpp ****             case 0x24 : executeSemSignalSyscall();break;
 2686              		.loc 1 66 46 is_stmt 0
 2687 0ce4 97000000 		call	_ZN5RiscV21executeSemWaitSyscallEv
 2687      E7800000 
 2688              	.LVL189:
  66:src/riscv.cpp ****             case 0x24 : executeSemSignalSyscall();break;
 2689              		.loc 1 66 49 is_stmt 1
 2690 0cec 6FF05FF6 		j	.L115
 2691              	.L124:
  67:src/riscv.cpp ****             case 0x31 : executeTimeSleepSyscall();break;
 2692              		.loc 1 67 13
  67:src/riscv.cpp ****             case 0x31 : executeTimeSleepSyscall();break;
 2693              		.loc 1 67 25
  67:src/riscv.cpp ****             case 0x31 : executeTimeSleepSyscall();break;
 2694              		.loc 1 67 48 is_stmt 0
 2695 0cf0 97000000 		call	_ZN5RiscV23executeSemSignalSyscallEv
 2695      E7800000 
 2696              	.LVL190:
  67:src/riscv.cpp ****             case 0x31 : executeTimeSleepSyscall();break;
 2697              		.loc 1 67 51 is_stmt 1
 2698 0cf8 6FF09FF5 		j	.L115
 2699              	.L123:
  68:src/riscv.cpp ****             case 0x41 : executeGetcSyscall();break;
 2700              		.loc 1 68 13
  68:src/riscv.cpp ****             case 0x41 : executeGetcSyscall();break;
 2701              		.loc 1 68 25
  68:src/riscv.cpp ****             case 0x41 : executeGetcSyscall();break;
 2702              		.loc 1 68 48 is_stmt 0
 2703 0cfc 97000000 		call	_ZN5RiscV23executeTimeSleepSyscallEv
 2703      E7800000 
 2704              	.LVL191:
  68:src/riscv.cpp ****             case 0x41 : executeGetcSyscall();break;
 2705              		.loc 1 68 51 is_stmt 1
 2706 0d04 6FF0DFF4 		j	.L115
 2707              	.L122:
  69:src/riscv.cpp ****             case 0x42 : executePutcSyscall();break;
 2708              		.loc 1 69 13
  69:src/riscv.cpp ****             case 0x42 : executePutcSyscall();break;
 2709              		.loc 1 69 25
  69:src/riscv.cpp ****             case 0x42 : executePutcSyscall();break;
 2710              		.loc 1 69 43 is_stmt 0
 2711 0d08 97000000 		call	_ZN5RiscV18executeGetcSyscallEv
 2711      E7800000 
 2712              	.LVL192:
GAS LISTING /tmp/ccGkqgib.s 			page 74


  69:src/riscv.cpp ****             case 0x42 : executePutcSyscall();break;
 2713              		.loc 1 69 46 is_stmt 1
 2714 0d10 6FF01FF4 		j	.L115
 2715              	.L121:
  70:src/riscv.cpp ****             case 0x43 : executePutcUtilSyscall();break;
 2716              		.loc 1 70 13
  70:src/riscv.cpp ****             case 0x43 : executePutcUtilSyscall();break;
 2717              		.loc 1 70 25
  70:src/riscv.cpp ****             case 0x43 : executePutcUtilSyscall();break;
 2718              		.loc 1 70 43 is_stmt 0
 2719 0d14 97000000 		call	_ZN5RiscV18executePutcSyscallEv
 2719      E7800000 
 2720              	.LVL193:
  70:src/riscv.cpp ****             case 0x43 : executePutcUtilSyscall();break;
 2721              		.loc 1 70 46 is_stmt 1
 2722 0d1c 6FF05FF3 		j	.L115
 2723              	.L120:
  71:src/riscv.cpp ****             case 0x51 : executeThreadFreeSyscall();break;
 2724              		.loc 1 71 13
  71:src/riscv.cpp ****             case 0x51 : executeThreadFreeSyscall();break;
 2725              		.loc 1 71 25
  71:src/riscv.cpp ****             case 0x51 : executeThreadFreeSyscall();break;
 2726              		.loc 1 71 47 is_stmt 0
 2727 0d20 97000000 		call	_ZN5RiscV22executePutcUtilSyscallEv
 2727      E7800000 
 2728              	.LVL194:
  71:src/riscv.cpp ****             case 0x51 : executeThreadFreeSyscall();break;
 2729              		.loc 1 71 50 is_stmt 1
 2730 0d28 6FF09FF2 		j	.L115
 2731              	.L119:
  72:src/riscv.cpp ****             case 0x52 : executeSemaphoreFreeSyscall();break;
 2732              		.loc 1 72 13
  72:src/riscv.cpp ****             case 0x52 : executeSemaphoreFreeSyscall();break;
 2733              		.loc 1 72 25
  72:src/riscv.cpp ****             case 0x52 : executeSemaphoreFreeSyscall();break;
 2734              		.loc 1 72 49 is_stmt 0
 2735 0d2c 97000000 		call	_ZN5RiscV24executeThreadFreeSyscallEv
 2735      E7800000 
 2736              	.LVL195:
  72:src/riscv.cpp ****             case 0x52 : executeSemaphoreFreeSyscall();break;
 2737              		.loc 1 72 52 is_stmt 1
 2738 0d34 6FF0DFF1 		j	.L115
 2739              	.L118:
  73:src/riscv.cpp ****             //in this case we need to save SP and PC at this point so that newly created thread
 2740              		.loc 1 73 13
  73:src/riscv.cpp ****             //in this case we need to save SP and PC at this point so that newly created thread
 2741              		.loc 1 73 25
  73:src/riscv.cpp ****             //in this case we need to save SP and PC at this point so that newly created thread
 2742              		.loc 1 73 52 is_stmt 0
 2743 0d38 97000000 		call	_ZN5RiscV27executeSemaphoreFreeSyscallEv
 2743      E7800000 
 2744              	.LVL196:
  73:src/riscv.cpp ****             //in this case we need to save SP and PC at this point so that newly created thread
 2745              		.loc 1 73 55 is_stmt 1
 2746 0d40 6FF01FF1 		j	.L115
 2747              	.L116:
  77:src/riscv.cpp ****                         RiscV::getPC();
GAS LISTING /tmp/ccGkqgib.s 			page 75


 2748              		.loc 1 77 13
  77:src/riscv.cpp ****                         RiscV::getPC();
 2749              		.loc 1 77 25
  77:src/riscv.cpp ****                         RiscV::getPC();
 2750              		.loc 1 77 72 is_stmt 0
 2751              	#APP
 2752              	# 77 "src/riscv.cpp" 1
 2753              		mv a5, sp
 2754              	# 0 "" 2
 2755              	#NO_APP
 2756 0d48 17070000 		la	a4,_ZN3TCB9currentSPE
 2756      03370700 
 2757 0d50 2330F700 		sd	a5,0(a4)
  78:src/riscv.cpp ****                         executeForkSyscall();
 2758              		.loc 1 78 25 is_stmt 1
  78:src/riscv.cpp ****                         executeForkSyscall();
 2759              		.loc 1 78 37 is_stmt 0
 2760 0d54 97000000 		call	_ZN5RiscV5getPCEv
 2760      E7800000 
 2761              	.LVL197:
  79:src/riscv.cpp ****                         break;
 2762              		.loc 1 79 25 is_stmt 1
  79:src/riscv.cpp ****                         break;
 2763              		.loc 1 79 43 is_stmt 0
 2764 0d5c 97000000 		call	_ZN5RiscV18executeForkSyscallEv
 2764      E7800000 
 2765              	.LVL198:
  80:src/riscv.cpp ****         }
 2766              		.loc 1 80 25 is_stmt 1
 2767 0d64 6FF0DFEE 		j	.L115
 2768              	.L142:
 2769              	.LBE182:
 2770              	.LBB183:
 2771              	.LBB156:
  93:src/riscv.cpp ****         uint64 volatile sepc = RiscV::r_sepc();
 2772              		.loc 1 93 9
 2773              	.LBB157:
 2774              	.LBB158:
 162:src/../h/riscv.hpp ****     asm("csrr %[sstatus], sstatus" : [sstatus] "=r" (sstatus));
 2775              		.loc 2 162 5
 163:src/../h/riscv.hpp ****     return sstatus;
 2776              		.loc 2 163 5
 163:src/../h/riscv.hpp ****     return sstatus;
 2777              		.loc 2 163 63 is_stmt 0
 2778              	#APP
 2779              	# 163 "src/../h/riscv.hpp" 1
 2780              		csrr a5, sstatus
 2781              	# 0 "" 2
 2782              	.LVL199:
 164:src/../h/riscv.hpp **** }
 2783              		.loc 2 164 5 is_stmt 1
 2784              	#NO_APP
 2785              	.LBE158:
 2786              	.LBE157:
  93:src/riscv.cpp ****         uint64 volatile sepc = RiscV::r_sepc();
 2787              		.loc 1 93 52 is_stmt 0
 2788 0d6c 233CF4FA 		sd	a5,-72(s0)
GAS LISTING /tmp/ccGkqgib.s 			page 76


  94:src/riscv.cpp **** 
 2789              		.loc 1 94 9 is_stmt 1
 2790              	.LBB159:
 2791              	.LBB160:
 142:src/../h/riscv.hpp ****     asm("csrr %[sepc], sepc" : [sepc] "=r" (sepc));
 2792              		.loc 2 142 5
 143:src/../h/riscv.hpp ****     return sepc;
 2793              		.loc 2 143 5
 143:src/../h/riscv.hpp ****     return sepc;
 2794              		.loc 2 143 51 is_stmt 0
 2795              	#APP
 2796              	# 143 "src/../h/riscv.hpp" 1
 2797              		csrr a5, sepc
 2798              	# 0 "" 2
 2799              	.LVL200:
 144:src/../h/riscv.hpp **** }
 2800              		.loc 2 144 5 is_stmt 1
 2801              	#NO_APP
 2802              	.LBE160:
 2803              	.LBE159:
  94:src/riscv.cpp **** 
 2804              		.loc 1 94 46 is_stmt 0
 2805 0d74 2330F4FC 		sd	a5,-64(s0)
  97:src/riscv.cpp **** 
 2806              		.loc 1 97 9 is_stmt 1
 2807              	.LVL201:
 2808              	.LBB161:
 2809              	.LBB162:
 184:src/../h/riscv.hpp **** }
 2810              		.loc 2 184 5
 184:src/../h/riscv.hpp **** }
 2811              		.loc 2 184 51 is_stmt 0
 2812 0d78 93072000 		li	a5,2
 2813              	#APP
 2814              	# 184 "src/../h/riscv.hpp" 1
 2815              		csrc sip, a5
 2816              	# 0 "" 2
 2817              	.LVL202:
 2818              	#NO_APP
 2819              	.LBE162:
 2820              	.LBE161:
 101:src/riscv.cpp ****         Scheduler::awake();
 2821              		.loc 1 101 9 is_stmt 1
 101:src/riscv.cpp ****         Scheduler::awake();
 2822              		.loc 1 101 20 is_stmt 0
 2823 0d80 17070000 		lla	a4,.LANCHOR0
 2823      13070700 
 2824 0d88 83378700 		ld	a5,8(a4)
 2825 0d8c 93871700 		addi	a5,a5,1
 2826 0d90 2334F700 		sd	a5,8(a4)
 102:src/riscv.cpp **** 
 2827              		.loc 1 102 9 is_stmt 1
 102:src/riscv.cpp **** 
 2828              		.loc 1 102 25 is_stmt 0
 2829 0d94 97000000 		call	_ZN9Scheduler5awakeEv@plt
 2829      E7800000 
 2830              	.LVL203:
GAS LISTING /tmp/ccGkqgib.s 			page 77


 106:src/riscv.cpp ****         if(TCB::timeSliceCounter >= TCB::running->timeSlice) {
 2831              		.loc 1 106 9 is_stmt 1
 106:src/riscv.cpp ****         if(TCB::timeSliceCounter >= TCB::running->timeSlice) {
 2832              		.loc 1 106 30 is_stmt 0
 2833 0d9c 17070000 		la	a4,_ZN3TCB16timeSliceCounterE
 2833      03370700 
 2834 0da4 83370700 		ld	a5,0(a4)
 2835 0da8 93871700 		addi	a5,a5,1
 2836 0dac 2330F700 		sd	a5,0(a4)
 107:src/riscv.cpp **** 
 2837              		.loc 1 107 9 is_stmt 1
 2838              	.LBB163:
 107:src/riscv.cpp **** 
 2839              		.loc 1 107 51 is_stmt 0
 2840 0db0 17070000 		la	a4,_ZN3TCB7runningE
 2840      03370700 
 2841 0db8 03370700 		ld	a4,0(a4)
 2842 0dbc 83360703 		ld	a3,48(a4)
 107:src/riscv.cpp **** 
 2843              		.loc 1 107 9
 2844 0dc0 63FCD700 		bgeu	a5,a3,.L145
 2845              	.L136:
 2846              	.LBE163:
 119:src/riscv.cpp ****         RiscV::w_sepc(sepc);
 2847              		.loc 1 119 9 is_stmt 1
 119:src/riscv.cpp ****         RiscV::w_sepc(sepc);
 2848              		.loc 1 119 25 is_stmt 0
 2849 0dc4 833784FB 		ld	a5,-72(s0)
 2850              	.LVL204:
 2851              	.LBB165:
 2852              	.LBB166:
 158:src/../h/riscv.hpp **** }
 2853              		.loc 2 158 5 is_stmt 1
 158:src/../h/riscv.hpp **** }
 2854              		.loc 2 158 64 is_stmt 0
 2855              	#APP
 2856              	# 158 "src/../h/riscv.hpp" 1
 2857              		csrw sstatus, a5
 2858              	# 0 "" 2
 2859              	.LVL205:
 2860              	#NO_APP
 2861              	.LBE166:
 2862              	.LBE165:
 120:src/riscv.cpp ****     }
 2863              		.loc 1 120 9 is_stmt 1
 120:src/riscv.cpp ****     }
 2864              		.loc 1 120 22 is_stmt 0
 2865 0dcc 833704FC 		ld	a5,-64(s0)
 2866              	.LVL206:
 2867              	.LBB167:
 2868              	.LBB168:
 148:src/../h/riscv.hpp **** }
 2869              		.loc 2 148 5 is_stmt 1
 148:src/../h/riscv.hpp **** }
 2870              		.loc 2 148 52 is_stmt 0
 2871              	#APP
 2872              	# 148 "src/../h/riscv.hpp" 1
GAS LISTING /tmp/ccGkqgib.s 			page 78


 149:src/../h/riscv.hpp **** 
 2873              		csrw sepc, a5
 2874              	# 0 "" 2
 2875              		.loc 2 149 1
 2876              	#NO_APP
 2877 0dd4 6FF09FE9 		j	.L135
 2878              	.LVL207:
 2879              	.L145:
 2880              	.LBE168:
 2881              	.LBE167:
 2882              	.LBB169:
 2883              	.LBB164:
 109:src/riscv.cpp **** 
 2884              		.loc 1 109 13 is_stmt 1
 109:src/riscv.cpp **** 
 2885              		.loc 1 109 35 is_stmt 0
 2886 0dd8 97070000 		la	a5,_ZN3TCB16timeSliceCounterE
 2886      83B70700 
 2887 0de0 23B00700 		sd	zero,0(a5)
 111:src/riscv.cpp **** 
 2888              		.loc 1 111 13 is_stmt 1
 2889              	.LVL208:
 113:src/riscv.cpp **** 
 2890              		.loc 1 113 13
 113:src/riscv.cpp **** 
 2891              		.loc 1 113 25 is_stmt 0
 2892 0de4 93071000 		li	a5,1
 2893 0de8 2328F700 		sw	a5,16(a4)
 115:src/riscv.cpp ****         }
 2894              		.loc 1 115 13 is_stmt 1
 115:src/riscv.cpp ****         }
 2895              		.loc 1 115 26 is_stmt 0
 2896 0dec 97000000 		call	_ZN3TCB8dispatchEv@plt
 2896      E7800000 
 2897              	.LVL209:
 2898              	.LBE164:
 2899 0df4 6FF01FFD 		j	.L136
 2900              	.L143:
 2901              	.LBE169:
 2902              	.LBE156:
 2903              	.LBB170:
 2904              	.LBB141:
 127:src/riscv.cpp ****         uint64 volatile sepc = RiscV::r_sepc();
 2905              		.loc 1 127 9 is_stmt 1
 2906              	.LBB142:
 2907              	.LBB143:
 162:src/../h/riscv.hpp ****     asm("csrr %[sstatus], sstatus" : [sstatus] "=r" (sstatus));
 2908              		.loc 2 162 5
 163:src/../h/riscv.hpp ****     return sstatus;
 2909              		.loc 2 163 5
 163:src/../h/riscv.hpp ****     return sstatus;
 2910              		.loc 2 163 63 is_stmt 0
 2911              	#APP
 2912              	# 163 "src/../h/riscv.hpp" 1
 2913              		csrr a5, sstatus
 2914              	# 0 "" 2
 2915              	.LVL210:
GAS LISTING /tmp/ccGkqgib.s 			page 79


 164:src/../h/riscv.hpp **** }
 2916              		.loc 2 164 5 is_stmt 1
 2917              	#NO_APP
 2918              	.LBE143:
 2919              	.LBE142:
 127:src/riscv.cpp ****         uint64 volatile sepc = RiscV::r_sepc();
 2920              		.loc 1 127 52 is_stmt 0
 2921 0dfc 2334F4FC 		sd	a5,-56(s0)
 128:src/riscv.cpp **** 
 2922              		.loc 1 128 9 is_stmt 1
 2923              	.LBB144:
 2924              	.LBB145:
 142:src/../h/riscv.hpp ****     asm("csrr %[sepc], sepc" : [sepc] "=r" (sepc));
 2925              		.loc 2 142 5
 143:src/../h/riscv.hpp ****     return sepc;
 2926              		.loc 2 143 5
 143:src/../h/riscv.hpp ****     return sepc;
 2927              		.loc 2 143 51 is_stmt 0
 2928              	#APP
 2929              	# 143 "src/../h/riscv.hpp" 1
 2930              		csrr a5, sepc
 2931              	# 0 "" 2
 2932              	.LVL211:
 144:src/../h/riscv.hpp **** }
 2933              		.loc 2 144 5 is_stmt 1
 2934              	#NO_APP
 2935              	.LBE145:
 2936              	.LBE144:
 128:src/riscv.cpp **** 
 2937              		.loc 1 128 46 is_stmt 0
 2938 0e04 2338F4FC 		sd	a5,-48(s0)
 131:src/riscv.cpp ****         asm("mv a0, %[status]" : : [status] "r" (status));
 2939              		.loc 1 131 9 is_stmt 1
 131:src/riscv.cpp ****         asm("mv a0, %[status]" : : [status] "r" (status));
 2940              		.loc 1 131 16 is_stmt 0
 2941 0e08 97070000 		la	a5,CONSOLE_STATUS
 2941      83B70700 
 2942 0e10 83B70700 		ld	a5,0(a5)
 2943              	.LVL212:
 132:src/riscv.cpp ****         asm("lb a1, 0(a0)");
 2944              		.loc 1 132 9 is_stmt 1
 132:src/riscv.cpp ****         asm("lb a1, 0(a0)");
 2945              		.loc 1 132 58 is_stmt 0
 2946              	#APP
 2947              	# 132 "src/riscv.cpp" 1
 133:src/riscv.cpp ****         asm("mv %[status], a1" : [status] "=r" (status));
 2948              		mv a0, a5
 2949              	# 0 "" 2
 2950              		.loc 1 133 9 is_stmt 1
 133:src/riscv.cpp ****         asm("mv %[status], a1" : [status] "=r" (status));
 2951              		.loc 1 133 28 is_stmt 0
 2952              	# 133 "src/riscv.cpp" 1
 134:src/riscv.cpp **** 
 2953              		lb a1, 0(a0)
 2954              	# 0 "" 2
 2955              		.loc 1 134 9 is_stmt 1
 134:src/riscv.cpp **** 
GAS LISTING /tmp/ccGkqgib.s 			page 80


 2956              		.loc 1 134 57 is_stmt 0
 2957              	# 134 "src/riscv.cpp" 1
 2958              		mv a5, a1
 2959              	# 0 "" 2
 2960              	.LVL213:
 137:src/riscv.cpp ****         {
 2961              		.loc 1 137 9 is_stmt 1
 2962              	#NO_APP
 2963              	.LBB146:
 137:src/riscv.cpp ****         {
 2964              		.loc 1 137 19 is_stmt 0
 2965 0e20 93F71700 		andi	a5,a5,1
 2966              	.LVL214:
 137:src/riscv.cpp ****         {
 2967              		.loc 1 137 9
 2968 0e24 63880702 		beqz	a5,.L138
 2969              	.LBB147:
 140:src/riscv.cpp ****             char c;
 2970              		.loc 1 140 13 is_stmt 1
 141:src/riscv.cpp ****             data = CONSOLE_TX_DATA;
 2971              		.loc 1 141 13
 142:src/riscv.cpp ****             asm("mv a0, %[data]" : : [data] "r" (data));
 2972              		.loc 1 142 13
 142:src/riscv.cpp ****             asm("mv a0, %[data]" : : [data] "r" (data));
 2973              		.loc 1 142 18 is_stmt 0
 2974 0e28 97070000 		la	a5,CONSOLE_TX_DATA
 2974      83B70700 
 2975 0e30 83B70700 		ld	a5,0(a5)
 2976              	.LVL215:
 143:src/riscv.cpp ****             asm("lb a1, 0(a0)");
 2977              		.loc 1 143 13 is_stmt 1
 143:src/riscv.cpp ****             asm("lb a1, 0(a0)");
 2978              		.loc 1 143 56 is_stmt 0
 2979              	#APP
 2980              	# 143 "src/riscv.cpp" 1
 144:src/riscv.cpp ****             asm("mv %[c], a1" : [c] "=r" (c));
 2981              		mv a0, a5
 2982              	# 0 "" 2
 2983              		.loc 1 144 13 is_stmt 1
 144:src/riscv.cpp ****             asm("mv %[c], a1" : [c] "=r" (c));
 2984              		.loc 1 144 32 is_stmt 0
 2985              	# 144 "src/riscv.cpp" 1
 145:src/riscv.cpp **** 
 2986              		lb a1, 0(a0)
 2987              	# 0 "" 2
 2988              		.loc 1 145 13 is_stmt 1
 145:src/riscv.cpp **** 
 2989              		.loc 1 145 46 is_stmt 0
 2990              	# 145 "src/riscv.cpp" 1
 2991              		mv a0, a1
 2992              	# 0 "" 2
 2993              	#NO_APP
 2994 0e40 1375F50F 		andi	a0,a0,0xff
 2995              	.LVL216:
 148:src/riscv.cpp ****                 ConsoleUtil::pendingGetc--;
 2996              		.loc 1 148 13 is_stmt 1
 148:src/riscv.cpp ****                 ConsoleUtil::pendingGetc--;
GAS LISTING /tmp/ccGkqgib.s 			page 81


 2997              		.loc 1 148 40 is_stmt 0
 2998 0e44 97070000 		la	a5,_ZN11ConsoleUtil11pendingGetcE
 2998      83B70700 
 2999              	.LVL217:
 3000 0e4c 83B70700 		ld	a5,0(a5)
 148:src/riscv.cpp ****                 ConsoleUtil::pendingGetc--;
 3001              		.loc 1 148 13
 3002 0e50 63940702 		bnez	a5,.L146
 3003              	.LVL218:
 3004              	.L138:
 3005              	.LBE147:
 3006              	.LBE146:
 153:src/riscv.cpp **** 
 3007              		.loc 1 153 9 is_stmt 1
 153:src/riscv.cpp **** 
 3008              		.loc 1 153 22 is_stmt 0
 3009 0e54 97000000 		call	plic_claim@plt
 3009      E7800000 
 3010              	.LVL219:
 3011 0e5c 97000000 		call	plic_complete@plt
 3011      E7800000 
 3012              	.LVL220:
 155:src/riscv.cpp ****         RiscV::w_sepc(sepc);
 3013              		.loc 1 155 9 is_stmt 1
 155:src/riscv.cpp ****         RiscV::w_sepc(sepc);
 3014              		.loc 1 155 25 is_stmt 0
 3015 0e64 833784FC 		ld	a5,-56(s0)
 3016              	.LVL221:
 3017              	.LBB149:
 3018              	.LBB150:
 158:src/../h/riscv.hpp **** }
 3019              		.loc 2 158 5 is_stmt 1
 158:src/../h/riscv.hpp **** }
 3020              		.loc 2 158 64 is_stmt 0
 3021              	#APP
 3022              	# 158 "src/../h/riscv.hpp" 1
 3023              		csrw sstatus, a5
 3024              	# 0 "" 2
 3025              	.LVL222:
 3026              	#NO_APP
 3027              	.LBE150:
 3028              	.LBE149:
 156:src/riscv.cpp ****     }
 3029              		.loc 1 156 9 is_stmt 1
 156:src/riscv.cpp ****     }
 3030              		.loc 1 156 22 is_stmt 0
 3031 0e6c 833704FD 		ld	a5,-48(s0)
 3032              	.LVL223:
 3033              	.LBB151:
 3034              	.LBB152:
 148:src/../h/riscv.hpp **** }
 3035              		.loc 2 148 5 is_stmt 1
 148:src/../h/riscv.hpp **** }
 3036              		.loc 2 148 52 is_stmt 0
 3037              	#APP
 3038              	# 148 "src/../h/riscv.hpp" 1
 149:src/../h/riscv.hpp **** 
GAS LISTING /tmp/ccGkqgib.s 			page 82


 3039              		csrw sepc, a5
 3040              	# 0 "" 2
 3041              		.loc 2 149 1
 3042              	#NO_APP
 3043 0e74 6FF09FDF 		j	.L135
 3044              	.LVL224:
 3045              	.L146:
 3046              	.LBE152:
 3047              	.LBE151:
 3048              	.LBB153:
 3049              	.LBB148:
 149:src/riscv.cpp ****                 ConsoleUtil::putInput(c);
 3050              		.loc 1 149 17 is_stmt 1
 149:src/riscv.cpp ****                 ConsoleUtil::putInput(c);
 3051              		.loc 1 149 41 is_stmt 0
 3052 0e78 9387F7FF 		addi	a5,a5,-1
 3053 0e7c 17070000 		la	a4,_ZN11ConsoleUtil11pendingGetcE
 3053      03370700 
 3054 0e84 2330F700 		sd	a5,0(a4)
 150:src/riscv.cpp ****             }
 3055              		.loc 1 150 17 is_stmt 1
 150:src/riscv.cpp ****             }
 3056              		.loc 1 150 38 is_stmt 0
 3057 0e88 97000000 		call	_ZN11ConsoleUtil8putInputEc@plt
 3057      E7800000 
 3058              	.LVL225:
 3059 0e90 6FF05FFC 		j	.L138
 3060              	.LVL226:
 3061              	.L144:
 3062              	.LBE148:
 3063              	.LBE153:
 3064              	.LBE141:
 3065              	.LBB154:
 3066              	.LBB138:
 161:src/riscv.cpp ****         old->status = TCB::Status::FINISHED;
 3067              		.loc 1 161 9 is_stmt 1
 161:src/riscv.cpp ****         old->status = TCB::Status::FINISHED;
 3068              		.loc 1 161 14 is_stmt 0
 3069 0e94 97070000 		la	a5,_ZN3TCB7runningE
 3069      83B70700 
 3070 0e9c 83B70700 		ld	a5,0(a5)
 3071              	.LVL227:
 162:src/riscv.cpp ****         ConsoleUtil::printString("sepc: ");
 3072              		.loc 1 162 9 is_stmt 1
 162:src/riscv.cpp ****         ConsoleUtil::printString("sepc: ");
 3073              		.loc 1 162 21 is_stmt 0
 3074 0ea0 13072000 		li	a4,2
 3075 0ea4 23A8E700 		sw	a4,16(a5)
 163:src/riscv.cpp ****         uint64 sepc = RiscV::r_sepc();
 3076              		.loc 1 163 9 is_stmt 1
 163:src/riscv.cpp ****         uint64 sepc = RiscV::r_sepc();
 3077              		.loc 1 163 33 is_stmt 0
 3078 0ea8 17050000 		lla	a0,.LC0
 3078      13050500 
 3079 0eb0 97000000 		call	_ZN11ConsoleUtil11printStringEPKc@plt
 3079      E7800000 
 3080              	.LVL228:
GAS LISTING /tmp/ccGkqgib.s 			page 83


 164:src/riscv.cpp ****         ConsoleUtil::printInt(sepc,16);
 3081              		.loc 1 164 9 is_stmt 1
 3082              	.LBB139:
 3083              	.LBB140:
 142:src/../h/riscv.hpp ****     asm("csrr %[sepc], sepc" : [sepc] "=r" (sepc));
 3084              		.loc 2 142 5
 143:src/../h/riscv.hpp ****     return sepc;
 3085              		.loc 2 143 5
 143:src/../h/riscv.hpp ****     return sepc;
 3086              		.loc 2 143 51 is_stmt 0
 3087              	#APP
 3088              	# 143 "src/../h/riscv.hpp" 1
 144:src/../h/riscv.hpp **** }
 3089              		csrr a0, sepc
 3090              	# 0 "" 2
 3091              		.loc 2 144 5 is_stmt 1
 3092              	#NO_APP
 3093              	.LBE140:
 3094              	.LBE139:
 165:src/riscv.cpp ****         ConsoleUtil::printString("\n");
 3095              		.loc 1 165 9
 165:src/riscv.cpp ****         ConsoleUtil::printString("\n");
 3096              		.loc 1 165 30 is_stmt 0
 3097 0ebc 13060000 		li	a2,0
 3098 0ec0 93050001 		li	a1,16
 3099 0ec4 1B050500 		sext.w	a0,a0
 3100 0ec8 97000000 		call	_ZN11ConsoleUtil8printIntEiii@plt
 3100      E7800000 
 3101              	.LVL229:
 166:src/riscv.cpp ****         ConsoleUtil::printString("Illegal instruction\nExiting thread...\n");
 3102              		.loc 1 166 9 is_stmt 1
 166:src/riscv.cpp ****         ConsoleUtil::printString("Illegal instruction\nExiting thread...\n");
 3103              		.loc 1 166 33 is_stmt 0
 3104 0ed0 17050000 		lla	a0,.LC1
 3104      13050500 
 3105 0ed8 97000000 		call	_ZN11ConsoleUtil11printStringEPKc@plt
 3105      E7800000 
 3106              	.LVL230:
 167:src/riscv.cpp ****         TCB::dispatch();
 3107              		.loc 1 167 9 is_stmt 1
 167:src/riscv.cpp ****         TCB::dispatch();
 3108              		.loc 1 167 33 is_stmt 0
 3109 0ee0 17050000 		lla	a0,.LC2
 3109      13050500 
 3110 0ee8 97000000 		call	_ZN11ConsoleUtil11printStringEPKc@plt
 3110      E7800000 
 3111              	.LVL231:
 168:src/riscv.cpp ****     }
 3112              		.loc 1 168 9 is_stmt 1
 168:src/riscv.cpp ****     }
 3113              		.loc 1 168 22 is_stmt 0
 3114 0ef0 97000000 		call	_ZN3TCB8dispatchEv@plt
 3114      E7800000 
 3115              	.LVL232:
 3116              	.LBE138:
 3117 0ef8 6FF05FD7 		j	.L135
 3118              	.LBE154:
GAS LISTING /tmp/ccGkqgib.s 			page 84


 3119              	.LBE170:
 3120              	.LBE183:
 3121              	.LBE187:
 3122              		.cfi_endproc
 3123              	.LFE35:
 3125              		.globl	_ZN5RiscV16userMainFinishedE
 3126              		.globl	_ZN5RiscV10globalTimeE
 3127              		.bss
 3128              		.align	3
 3129              		.set	.LANCHOR0,. + 0
 3132              	_ZN5RiscV16userMainFinishedE:
 3133 0000 00       		.zero	1
 3134 0001 00000000 		.zero	7
 3134      000000
 3137              	_ZN5RiscV10globalTimeE:
 3138 0008 00000000 		.zero	8
 3138      00000000 
 3139              		.text
 3140              	.Letext0:
 3141              		.file 3 "src/../h/../lib/hw.h"
 3142              		.file 4 "src/../h/memoryAllocator.hpp"
 3143              		.file 5 "src/../h/tcb.hpp"
 3144              		.file 6 "src/../h/scb.hpp"
 3145              		.file 7 "src/../h/scheduler.hpp"
 3146              		.file 8 "src/../h/consoleUtil.hpp"
 3147              		.file 9 "src/../h/buddy.hpp"
 3148              		.file 10 "src/../h/syscall_c.h"
 9302              		.align	3
 9305              	DW.ref.__gxx_personality_v0:
 9306 0000 00000000 		.dword	__gxx_personality_v0
 9306      00000000 
 9307              		.ident	"GCC: (Ubuntu 9.4.0-1ubuntu1~20.04) 9.4.0"
 9308              		.section	.note.GNU-stack,"",@progbits
GAS LISTING /tmp/ccGkqgib.s 			page 85


DEFINED SYMBOLS
                            *ABS*:0000000000000000 riscv.cpp
     /tmp/ccGkqgib.s:9      .text:0000000000000000 _ZN5RiscV10initializeEv
     /tmp/ccGkqgib.s:13     .text:0000000000000000 .L0 
     /tmp/ccGkqgib.s:14     .text:0000000000000000 .L0 
     /tmp/ccGkqgib.s:15     .text:0000000000000004 .L0 
     /tmp/ccGkqgib.s:18     .text:000000000000000c .L0 
     /tmp/ccGkqgib.s:19     .text:000000000000000c .L0 
     /tmp/ccGkqgib.s:21     .text:0000000000000010 .L0 
     /tmp/ccGkqgib.s:23     .text:0000000000000010 .L0 
     /tmp/ccGkqgib.s:24     .text:0000000000000010 .L0 
     /tmp/ccGkqgib.s:30     .text:0000000000000018 .L0 
  src/../h/riscv.hpp:168    .text:0000000000000018 .L0 
     /tmp/ccGkqgib.s:40     .text:000000000000001c .L0 
     /tmp/ccGkqgib.s:41     .text:000000000000001c .L0 
     /tmp/ccGkqgib.s:44     .text:0000000000000024 .L0 
     /tmp/ccGkqgib.s:45     .text:0000000000000024 .L0 
     /tmp/ccGkqgib.s:48     .text:000000000000002c .L0 
     /tmp/ccGkqgib.s:49     .text:000000000000002c .L0 
     /tmp/ccGkqgib.s:52     .text:0000000000000034 .L0 
     /tmp/ccGkqgib.s:53     .text:0000000000000034 .L0 
     /tmp/ccGkqgib.s:56     .text:000000000000003c .L0 
     /tmp/ccGkqgib.s:57     .text:000000000000003c .L0 
     /tmp/ccGkqgib.s:60     .text:0000000000000044 .L0 
     /tmp/ccGkqgib.s:64     .text:0000000000000044 .L0 
     /tmp/ccGkqgib.s:65     .text:0000000000000044 .L0 
     /tmp/ccGkqgib.s:66     .text:0000000000000044 .L0 
     /tmp/ccGkqgib.s:80     .text:000000000000004c .L0 
     /tmp/ccGkqgib.s:81     .text:000000000000004c .L0 
     /tmp/ccGkqgib.s:82     .text:000000000000004c .L0 
     /tmp/ccGkqgib.s:96     .text:0000000000000054 .L0 
     /tmp/ccGkqgib.s:97     .text:0000000000000054 .L0 
  src/../h/riscv.hpp:172    .text:0000000000000054 .L0 
     /tmp/ccGkqgib.s:108    .text:0000000000000058 .L0 
     /tmp/ccGkqgib.s:109    .text:000000000000005c .L0 
     /tmp/ccGkqgib.s:111    .text:0000000000000060 .L0 
     /tmp/ccGkqgib.s:112    .text:0000000000000060 .L0 
     /tmp/ccGkqgib.s:114    .text:0000000000000064 .L0 
     /tmp/ccGkqgib.s:116    .text:0000000000000068 .L0 
     /tmp/ccGkqgib.s:122    .text:0000000000000068 _ZN5RiscV10popSppSpieEv
     /tmp/ccGkqgib.s:125    .text:0000000000000068 .L0 
     /tmp/ccGkqgib.s:126    .text:0000000000000068 .L0 
     /tmp/ccGkqgib.s:127    .text:000000000000006c .L0 
     /tmp/ccGkqgib.s:129    .text:0000000000000070 .L0 
     /tmp/ccGkqgib.s:131    .text:0000000000000074 .L0 
     /tmp/ccGkqgib.s:133    .text:0000000000000074 .L0 
       src/riscv.cpp:30     .text:0000000000000074 .L0 
     /tmp/ccGkqgib.s:139    .text:0000000000000078 .L0 
       src/riscv.cpp:31     .text:0000000000000078 .L0 
     /tmp/ccGkqgib.s:145    .text:000000000000007c .L0 
     /tmp/ccGkqgib.s:146    .text:0000000000000080 .L0 
     /tmp/ccGkqgib.s:147    .text:0000000000000080 .L0 
     /tmp/ccGkqgib.s:149    .text:0000000000000084 .L0 
     /tmp/ccGkqgib.s:151    .text:0000000000000088 .L0 
     /tmp/ccGkqgib.s:157    .text:0000000000000088 _ZN5RiscV28executeThreadDispatchSyscallEv
     /tmp/ccGkqgib.s:160    .text:0000000000000088 .L0 
     /tmp/ccGkqgib.s:161    .text:0000000000000088 .L0 
GAS LISTING /tmp/ccGkqgib.s 			page 86


     /tmp/ccGkqgib.s:162    .text:000000000000008c .L0 
     /tmp/ccGkqgib.s:165    .text:0000000000000094 .L0 
     /tmp/ccGkqgib.s:166    .text:0000000000000094 .L0 
     /tmp/ccGkqgib.s:168    .text:0000000000000098 .L0 
     /tmp/ccGkqgib.s:170    .text:0000000000000098 .L0 
     /tmp/ccGkqgib.s:171    .text:0000000000000098 .L0 
     /tmp/ccGkqgib.s:175    .text:00000000000000a4 .L0 
     /tmp/ccGkqgib.s:176    .text:00000000000000a4 .L0 
     /tmp/ccGkqgib.s:179    .text:00000000000000ac .L0 
     /tmp/ccGkqgib.s:180    .text:00000000000000ac .L0 
     /tmp/ccGkqgib.s:183    .text:00000000000000b4 .L0 
     /tmp/ccGkqgib.s:184    .text:00000000000000b8 .L0 
     /tmp/ccGkqgib.s:186    .text:00000000000000bc .L0 
     /tmp/ccGkqgib.s:187    .text:00000000000000bc .L0 
     /tmp/ccGkqgib.s:189    .text:00000000000000c0 .L0 
     /tmp/ccGkqgib.s:191    .text:00000000000000c4 .L0 
     /tmp/ccGkqgib.s:197    .text:00000000000000c4 _ZN5RiscV18executePutcSyscallEv
     /tmp/ccGkqgib.s:200    .text:00000000000000c4 .L0 
     /tmp/ccGkqgib.s:201    .text:00000000000000c4 .L0 
     /tmp/ccGkqgib.s:202    .text:00000000000000c8 .L0 
     /tmp/ccGkqgib.s:205    .text:00000000000000d0 .L0 
     /tmp/ccGkqgib.s:206    .text:00000000000000d0 .L0 
     /tmp/ccGkqgib.s:208    .text:00000000000000d4 .L0 
     /tmp/ccGkqgib.s:210    .text:00000000000000d4 .L0 
     /tmp/ccGkqgib.s:211    .text:00000000000000d4 .L0 
     /tmp/ccGkqgib.s:213    .text:00000000000000dc .L0 
     /tmp/ccGkqgib.s:215    .text:00000000000000e0 .L0 
     /tmp/ccGkqgib.s:216    .text:00000000000000e0 .L0 
     /tmp/ccGkqgib.s:222    .text:00000000000000f4 .L0 
     /tmp/ccGkqgib.s:223    .text:00000000000000f4 .L0 
       src/riscv.cpp:496    .text:00000000000000f4 .L0 
     /tmp/ccGkqgib.s:230    .text:00000000000000f8 .L0 
     /tmp/ccGkqgib.s:232    .text:00000000000000f8 .L0 
     /tmp/ccGkqgib.s:236    .text:0000000000000104 .L0 
     /tmp/ccGkqgib.s:237    .text:0000000000000108 .L0 
     /tmp/ccGkqgib.s:239    .text:000000000000010c .L0 
     /tmp/ccGkqgib.s:240    .text:000000000000010c .L0 
     /tmp/ccGkqgib.s:242    .text:0000000000000110 .L0 
     /tmp/ccGkqgib.s:244    .text:0000000000000114 .L0 
     /tmp/ccGkqgib.s:250    .text:0000000000000114 _ZN5RiscV11putcWrapperEPv
     /tmp/ccGkqgib.s:253    .text:0000000000000114 .L0 
     /tmp/ccGkqgib.s:255    .text:0000000000000114 .L0 
     /tmp/ccGkqgib.s:256    .text:0000000000000118 .L0 
     /tmp/ccGkqgib.s:259    .text:0000000000000120 .L0 
     /tmp/ccGkqgib.s:260    .text:0000000000000120 .L0 
     /tmp/ccGkqgib.s:262    .text:0000000000000124 .L0 
     /tmp/ccGkqgib.s:269    .text:0000000000000128 .L0 
     /tmp/ccGkqgib.s:270    .text:0000000000000128 .L0 
     /tmp/ccGkqgib.s:277    .text:0000000000000130 .L0 
     /tmp/ccGkqgib.s:278    .text:0000000000000130 .L0 
     /tmp/ccGkqgib.s:279    .text:0000000000000130 .L0 
     /tmp/ccGkqgib.s:283    .text:000000000000013c .L0 
       src/riscv.cpp:511    .text:000000000000013c .L0 
     /tmp/ccGkqgib.s:289    .text:0000000000000140 .L0 
       src/riscv.cpp:512    .text:0000000000000140 .L0 
     /tmp/ccGkqgib.s:294    .text:0000000000000144 .L0 
       src/riscv.cpp:513    .text:0000000000000144 .L0 
GAS LISTING /tmp/ccGkqgib.s 			page 87


     /tmp/ccGkqgib.s:302    .text:0000000000000148 .L0 
     /tmp/ccGkqgib.s:303    .text:0000000000000148 .L0 
     /tmp/ccGkqgib.s:306    .text:000000000000014c .L0 
     /tmp/ccGkqgib.s:309    .text:0000000000000150 .L0 
     /tmp/ccGkqgib.s:310    .text:0000000000000150 .L0 
     /tmp/ccGkqgib.s:313    .text:0000000000000158 .L0 
     /tmp/ccGkqgib.s:315    .text:000000000000015c .L0 
     /tmp/ccGkqgib.s:316    .text:000000000000015c .L0 
     /tmp/ccGkqgib.s:320    .text:0000000000000168 .L0 
       src/riscv.cpp:521    .text:0000000000000168 .L0 
     /tmp/ccGkqgib.s:326    .text:000000000000016c .L0 
     /tmp/ccGkqgib.s:328    .text:000000000000016c .L0 
       src/riscv.cpp:522    .text:0000000000000170 .L0 
     /tmp/ccGkqgib.s:336    .text:0000000000000174 .L0 
       src/riscv.cpp:523    .text:0000000000000174 .L0 
     /tmp/ccGkqgib.s:341    .text:0000000000000178 .L0 
     /tmp/ccGkqgib.s:343    .text:0000000000000178 .L0 
     /tmp/ccGkqgib.s:346    .text:0000000000000184 .L0 
     /tmp/ccGkqgib.s:348    .text:0000000000000188 .L0 
     /tmp/ccGkqgib.s:349    .text:0000000000000188 .L0 
     /tmp/ccGkqgib.s:356    .text:000000000000019c .L0 
     /tmp/ccGkqgib.s:362    .text:000000000000019c _ZN5RiscV29jumpToDesignatedPrivilegeModeEv
     /tmp/ccGkqgib.s:365    .text:000000000000019c .L0 
     /tmp/ccGkqgib.s:366    .text:000000000000019c .L0 
     /tmp/ccGkqgib.s:367    .text:00000000000001a0 .L0 
     /tmp/ccGkqgib.s:369    .text:00000000000001a4 .L0 
     /tmp/ccGkqgib.s:371    .text:00000000000001a8 .L0 
     /tmp/ccGkqgib.s:373    .text:00000000000001a8 .L0 
     /tmp/ccGkqgib.s:374    .text:00000000000001a8 .L0 
     /tmp/ccGkqgib.s:378    .text:00000000000001b8 .L0 
     /tmp/ccGkqgib.s:384    .text:00000000000001c0 .L0 
     /tmp/ccGkqgib.s:385    .text:00000000000001c0 .L0 
     /tmp/ccGkqgib.s:386    .text:00000000000001c0 .L0 
     /tmp/ccGkqgib.s:397    .text:00000000000001c8 .L0 
     /tmp/ccGkqgib.s:398    .text:00000000000001cc .L0 
     /tmp/ccGkqgib.s:399    .text:00000000000001cc .L0 
     /tmp/ccGkqgib.s:400    .text:00000000000001cc .L0 
     /tmp/ccGkqgib.s:402    .text:00000000000001d0 .L0 
     /tmp/ccGkqgib.s:405    .text:00000000000001d4 .L0 
     /tmp/ccGkqgib.s:410    .text:00000000000001d4 .L0 
     /tmp/ccGkqgib.s:411    .text:00000000000001d4 .L0 
     /tmp/ccGkqgib.s:412    .text:00000000000001d4 .L0 
     /tmp/ccGkqgib.s:419    .text:00000000000001dc .L0 
     /tmp/ccGkqgib.s:422    .text:00000000000001e0 .L0 
     /tmp/ccGkqgib.s:428    .text:00000000000001e0 _ZN5RiscV8finalizeEv
     /tmp/ccGkqgib.s:431    .text:00000000000001e0 .L0 
     /tmp/ccGkqgib.s:432    .text:00000000000001e0 .L0 
     /tmp/ccGkqgib.s:433    .text:00000000000001e4 .L0 
     /tmp/ccGkqgib.s:436    .text:00000000000001ec .L0 
     /tmp/ccGkqgib.s:437    .text:00000000000001ec .L0 
     /tmp/ccGkqgib.s:439    .text:00000000000001f0 .L0 
     /tmp/ccGkqgib.s:441    .text:00000000000001f0 .L0 
     /tmp/ccGkqgib.s:442    .text:00000000000001f0 .L0 
     /tmp/ccGkqgib.s:445    .text:00000000000001fc .L0 
     /tmp/ccGkqgib.s:446    .text:00000000000001fc .L0 
     /tmp/ccGkqgib.s:449    .text:0000000000000208 .L0 
     /tmp/ccGkqgib.s:450    .text:0000000000000208 .L0 
GAS LISTING /tmp/ccGkqgib.s 			page 88


     /tmp/ccGkqgib.s:455    .text:0000000000000214 .L0 
     /tmp/ccGkqgib.s:458    .text:0000000000000214 .L0 
     /tmp/ccGkqgib.s:465    .text:0000000000000214 .L0 
     /tmp/ccGkqgib.s:466    .text:0000000000000214 .L0 
     /tmp/ccGkqgib.s:467    .text:0000000000000214 .L0 
     /tmp/ccGkqgib.s:480    .text:000000000000021c .L0 
     /tmp/ccGkqgib.s:486    .text:000000000000021c .L0 
     /tmp/ccGkqgib.s:487    .text:000000000000021c .L0 
     /tmp/ccGkqgib.s:488    .text:000000000000021c .L0 
     /tmp/ccGkqgib.s:502    .text:0000000000000224 .L0 
     /tmp/ccGkqgib.s:503    .text:0000000000000224 .L0 
     /tmp/ccGkqgib.s:507    .text:0000000000000234 .L0 
     /tmp/ccGkqgib.s:508    .text:0000000000000234 .L0 
     /tmp/ccGkqgib.s:510    .text:0000000000000238 .L0 
     /tmp/ccGkqgib.s:513    .text:0000000000000244 .L0 
     /tmp/ccGkqgib.s:516    .text:0000000000000248 .L0 
     /tmp/ccGkqgib.s:517    .text:0000000000000248 .L0 
     /tmp/ccGkqgib.s:523    .text:000000000000025c .L0 
     /tmp/ccGkqgib.s:524    .text:000000000000025c .L0 
     /tmp/ccGkqgib.s:530    .text:0000000000000278 .L0 
     /tmp/ccGkqgib.s:531    .text:0000000000000278 .L0 
     /tmp/ccGkqgib.s:534    .text:0000000000000280 .L0 
     /tmp/ccGkqgib.s:537    .text:0000000000000284 .L0 
     /tmp/ccGkqgib.s:538    .text:0000000000000288 .L0 
     /tmp/ccGkqgib.s:540    .text:000000000000028c .L0 
     /tmp/ccGkqgib.s:541    .text:000000000000028c .L0 
     /tmp/ccGkqgib.s:543    .text:0000000000000290 .L0 
     /tmp/ccGkqgib.s:545    .text:0000000000000294 .L0 
     /tmp/ccGkqgib.s:551    .text:0000000000000294 _ZN5RiscV16saveA0toSscratchEv
     /tmp/ccGkqgib.s:554    .text:0000000000000294 .L0 
     /tmp/ccGkqgib.s:555    .text:0000000000000294 .L0 
     /tmp/ccGkqgib.s:556    .text:0000000000000298 .L0 
     /tmp/ccGkqgib.s:558    .text:000000000000029c .L0 
     /tmp/ccGkqgib.s:560    .text:00000000000002a0 .L0 
     /tmp/ccGkqgib.s:562    .text:00000000000002a0 .L0 
     /tmp/ccGkqgib.s:563    .text:00000000000002a0 .L0 
       src/riscv.cpp:574    .text:00000000000002a0 .L0 
     /tmp/ccGkqgib.s:569    .text:00000000000002a4 .L0 
     /tmp/ccGkqgib.s:571    .text:00000000000002a4 .L0 
       src/riscv.cpp:575    .text:00000000000002b4 .L0 
     /tmp/ccGkqgib.s:580    .text:00000000000002b8 .L0 
       src/riscv.cpp:576    .text:00000000000002b8 .L0 
     /tmp/ccGkqgib.s:585    .text:00000000000002bc .L0 
       src/riscv.cpp:577    .text:00000000000002bc .L0 
     /tmp/ccGkqgib.s:591    .text:00000000000002c0 .L0 
     /tmp/ccGkqgib.s:592    .text:00000000000002c4 .L0 
     /tmp/ccGkqgib.s:593    .text:00000000000002c4 .L0 
     /tmp/ccGkqgib.s:595    .text:00000000000002c8 .L0 
     /tmp/ccGkqgib.s:597    .text:00000000000002cc .L0 
     /tmp/ccGkqgib.s:603    .text:00000000000002cc _ZN5RiscV22executeMemAllocSyscallEv
     /tmp/ccGkqgib.s:606    .text:00000000000002cc .L0 
     /tmp/ccGkqgib.s:607    .text:00000000000002cc .L0 
     /tmp/ccGkqgib.s:608    .text:00000000000002d0 .L0 
     /tmp/ccGkqgib.s:611    .text:00000000000002d8 .L0 
     /tmp/ccGkqgib.s:612    .text:00000000000002d8 .L0 
     /tmp/ccGkqgib.s:614    .text:00000000000002dc .L0 
     /tmp/ccGkqgib.s:616    .text:00000000000002dc .L0 
GAS LISTING /tmp/ccGkqgib.s 			page 89


     /tmp/ccGkqgib.s:617    .text:00000000000002dc .L0 
       src/riscv.cpp:194    .text:00000000000002dc .L0 
     /tmp/ccGkqgib.s:624    .text:00000000000002e0 .L0 
     /tmp/ccGkqgib.s:626    .text:00000000000002e0 .L0 
     /tmp/ccGkqgib.s:629    .text:00000000000002e8 .L0 
       src/riscv.cpp:199    .text:00000000000002e8 .L0 
     /tmp/ccGkqgib.s:635    .text:00000000000002ec .L0 
     /tmp/ccGkqgib.s:637    .text:00000000000002ec .L0 
     /tmp/ccGkqgib.s:640    .text:00000000000002f4 .L0 
     /tmp/ccGkqgib.s:641    .text:00000000000002f8 .L0 
     /tmp/ccGkqgib.s:643    .text:00000000000002fc .L0 
     /tmp/ccGkqgib.s:644    .text:00000000000002fc .L0 
     /tmp/ccGkqgib.s:646    .text:0000000000000300 .L0 
     /tmp/ccGkqgib.s:648    .text:0000000000000304 .L0 
     /tmp/ccGkqgib.s:654    .text:0000000000000304 _ZN5RiscV21executeMemFreeSyscallEv
     /tmp/ccGkqgib.s:657    .text:0000000000000304 .L0 
     /tmp/ccGkqgib.s:658    .text:0000000000000304 .L0 
     /tmp/ccGkqgib.s:659    .text:0000000000000308 .L0 
     /tmp/ccGkqgib.s:662    .text:0000000000000310 .L0 
     /tmp/ccGkqgib.s:663    .text:0000000000000310 .L0 
     /tmp/ccGkqgib.s:665    .text:0000000000000314 .L0 
     /tmp/ccGkqgib.s:667    .text:0000000000000314 .L0 
     /tmp/ccGkqgib.s:668    .text:0000000000000314 .L0 
     /tmp/ccGkqgib.s:672    .text:0000000000000324 .L0 
     /tmp/ccGkqgib.s:676    .text:0000000000000328 .L0 
       src/riscv.cpp:219    .text:0000000000000328 .L0 
     /tmp/ccGkqgib.s:682    .text:000000000000032c .L0 
     /tmp/ccGkqgib.s:684    .text:000000000000032c .L0 
     /tmp/ccGkqgib.s:687    .text:0000000000000334 .L0 
     /tmp/ccGkqgib.s:688    .text:0000000000000338 .L0 
     /tmp/ccGkqgib.s:689    .text:0000000000000338 .L0 
     /tmp/ccGkqgib.s:691    .text:000000000000033c .L0 
     /tmp/ccGkqgib.s:692    .text:000000000000033c .L0 
     /tmp/ccGkqgib.s:694    .text:0000000000000340 .L0 
     /tmp/ccGkqgib.s:697    .text:0000000000000344 .L0 
     /tmp/ccGkqgib.s:699    .text:0000000000000344 .L0 
       src/riscv.cpp:212    .text:0000000000000344 .L0 
     /tmp/ccGkqgib.s:706    .text:0000000000000348 .L0 
     /tmp/ccGkqgib.s:708    .text:0000000000000348 .L0 
     /tmp/ccGkqgib.s:711    .text:0000000000000350 .L0 
     /tmp/ccGkqgib.s:712    .text:0000000000000354 .L0 
     /tmp/ccGkqgib.s:718    .text:0000000000000354 _ZN5RiscV26executeThreadCreateSyscallEv
     /tmp/ccGkqgib.s:721    .text:0000000000000354 .L0 
     /tmp/ccGkqgib.s:9305   .data.rel.local.DW.ref.__gxx_personality_v0:0000000000000000 DW.ref.__gxx_personality_v0
     /tmp/ccGkqgib.s:724    .text:0000000000000354 .L0 
     /tmp/ccGkqgib.s:725    .text:0000000000000358 .L0 
     /tmp/ccGkqgib.s:733    .text:0000000000000374 .L0 
     /tmp/ccGkqgib.s:734    .text:0000000000000374 .L0 
     /tmp/ccGkqgib.s:735    .text:0000000000000374 .L0 
     /tmp/ccGkqgib.s:736    .text:0000000000000374 .L0 
     /tmp/ccGkqgib.s:737    .text:0000000000000374 .L0 
     /tmp/ccGkqgib.s:738    .text:0000000000000374 .L0 
     /tmp/ccGkqgib.s:739    .text:0000000000000374 .L0 
     /tmp/ccGkqgib.s:741    .text:0000000000000378 .L0 
     /tmp/ccGkqgib.s:743    .text:0000000000000378 .L0 
     /tmp/ccGkqgib.s:744    .text:0000000000000378 .L0 
       src/riscv.cpp:229    .text:0000000000000378 .L0 
GAS LISTING /tmp/ccGkqgib.s 			page 90


     /tmp/ccGkqgib.s:750    .text:000000000000037c .L0 
       src/riscv.cpp:230    .text:000000000000037c .L0 
     /tmp/ccGkqgib.s:756    .text:0000000000000380 .L0 
       src/riscv.cpp:231    .text:0000000000000380 .L0 
     /tmp/ccGkqgib.s:761    .text:0000000000000384 .L0 
       src/riscv.cpp:232    .text:0000000000000384 .L0 
     /tmp/ccGkqgib.s:766    .text:0000000000000388 .L0 
     /tmp/ccGkqgib.s:768    .text:0000000000000388 .L0 
     /tmp/ccGkqgib.s:783    .text:00000000000003b0 .L0 
     /tmp/ccGkqgib.s:784    .text:00000000000003b0 .L0 
     /tmp/ccGkqgib.s:786    .text:00000000000003b4 .L0 
     /tmp/ccGkqgib.s:787    .text:00000000000003b4 .L0 
     /tmp/ccGkqgib.s:789    .text:00000000000003b8 .L0 
     /tmp/ccGkqgib.s:791    .text:00000000000003bc .L0 
     /tmp/ccGkqgib.s:792    .text:00000000000003bc .L0 
     /tmp/ccGkqgib.s:799    .text:00000000000003c8 .L0 
     /tmp/ccGkqgib.s:800    .text:00000000000003c8 .L0 
     /tmp/ccGkqgib.s:802    .text:00000000000003cc .L0 
     /tmp/ccGkqgib.s:806    .text:00000000000003d0 .L0 
       src/riscv.cpp:249    .text:00000000000003d0 .L0 
     /tmp/ccGkqgib.s:812    .text:00000000000003d4 .L0 
     /tmp/ccGkqgib.s:814    .text:00000000000003d4 .L0 
     /tmp/ccGkqgib.s:817    .text:00000000000003dc .L0 
     /tmp/ccGkqgib.s:818    .text:00000000000003e0 .L0 
     /tmp/ccGkqgib.s:819    .text:00000000000003e0 .L0 
     /tmp/ccGkqgib.s:821    .text:00000000000003e4 .L0 
     /tmp/ccGkqgib.s:822    .text:00000000000003e4 .L0 
     /tmp/ccGkqgib.s:824    .text:00000000000003e8 .L0 
     /tmp/ccGkqgib.s:827    .text:00000000000003ec .L0 
     /tmp/ccGkqgib.s:829    .text:00000000000003f0 .L0 
     /tmp/ccGkqgib.s:831    .text:00000000000003f4 .L0 
     /tmp/ccGkqgib.s:833    .text:00000000000003f8 .L0 
     /tmp/ccGkqgib.s:836    .text:00000000000003fc .L0 
     /tmp/ccGkqgib.s:840    .text:0000000000000400 .L0 
     /tmp/ccGkqgib.s:842    .text:0000000000000400 .L0 
     /tmp/ccGkqgib.s:848    .text:000000000000040c .L0 
     /tmp/ccGkqgib.s:856    .text:0000000000000424 .L0 
     /tmp/ccGkqgib.s:886    .text:0000000000000424 _ZN5RiscV30executeThreadAttachBodySyscallEv
     /tmp/ccGkqgib.s:889    .text:0000000000000424 .L0 
     /tmp/ccGkqgib.s:892    .text:0000000000000424 .L0 
     /tmp/ccGkqgib.s:893    .text:0000000000000428 .L0 
     /tmp/ccGkqgib.s:901    .text:0000000000000444 .L0 
     /tmp/ccGkqgib.s:902    .text:0000000000000444 .L0 
     /tmp/ccGkqgib.s:903    .text:0000000000000444 .L0 
     /tmp/ccGkqgib.s:904    .text:0000000000000444 .L0 
     /tmp/ccGkqgib.s:905    .text:0000000000000444 .L0 
     /tmp/ccGkqgib.s:906    .text:0000000000000444 .L0 
     /tmp/ccGkqgib.s:907    .text:0000000000000444 .L0 
     /tmp/ccGkqgib.s:909    .text:0000000000000448 .L0 
     /tmp/ccGkqgib.s:911    .text:0000000000000448 .L0 
     /tmp/ccGkqgib.s:912    .text:0000000000000448 .L0 
       src/riscv.cpp:260    .text:0000000000000448 .L0 
     /tmp/ccGkqgib.s:918    .text:000000000000044c .L0 
       src/riscv.cpp:261    .text:000000000000044c .L0 
     /tmp/ccGkqgib.s:924    .text:0000000000000450 .L0 
       src/riscv.cpp:262    .text:0000000000000450 .L0 
     /tmp/ccGkqgib.s:930    .text:0000000000000454 .L0 
GAS LISTING /tmp/ccGkqgib.s 			page 91


       src/riscv.cpp:263    .text:0000000000000454 .L0 
     /tmp/ccGkqgib.s:936    .text:0000000000000458 .L0 
     /tmp/ccGkqgib.s:938    .text:0000000000000458 .L0 
     /tmp/ccGkqgib.s:953    .text:0000000000000480 .L0 
     /tmp/ccGkqgib.s:954    .text:0000000000000480 .L0 
     /tmp/ccGkqgib.s:956    .text:0000000000000484 .L0 
     /tmp/ccGkqgib.s:957    .text:0000000000000484 .L0 
     /tmp/ccGkqgib.s:959    .text:0000000000000488 .L0 
     /tmp/ccGkqgib.s:960    .text:0000000000000488 .L0 
     /tmp/ccGkqgib.s:962    .text:000000000000048c .L0 
     /tmp/ccGkqgib.s:963    .text:000000000000048c .L0 
     /tmp/ccGkqgib.s:965    .text:0000000000000490 .L0 
     /tmp/ccGkqgib.s:969    .text:0000000000000494 .L0 
       src/riscv.cpp:278    .text:0000000000000494 .L0 
     /tmp/ccGkqgib.s:975    .text:0000000000000498 .L0 
     /tmp/ccGkqgib.s:977    .text:0000000000000498 .L0 
     /tmp/ccGkqgib.s:980    .text:00000000000004a0 .L0 
     /tmp/ccGkqgib.s:981    .text:00000000000004a4 .L0 
     /tmp/ccGkqgib.s:982    .text:00000000000004a4 .L0 
     /tmp/ccGkqgib.s:984    .text:00000000000004a8 .L0 
     /tmp/ccGkqgib.s:985    .text:00000000000004a8 .L0 
     /tmp/ccGkqgib.s:987    .text:00000000000004ac .L0 
     /tmp/ccGkqgib.s:990    .text:00000000000004b0 .L0 
     /tmp/ccGkqgib.s:992    .text:00000000000004b4 .L0 
     /tmp/ccGkqgib.s:995    .text:00000000000004b8 .L0 
     /tmp/ccGkqgib.s:998    .text:00000000000004bc .L0 
     /tmp/ccGkqgib.s:1001   .text:00000000000004c0 .L0 
     /tmp/ccGkqgib.s:1005   .text:00000000000004c4 .L0 
     /tmp/ccGkqgib.s:1007   .text:00000000000004c4 .L0 
     /tmp/ccGkqgib.s:1013   .text:00000000000004d0 .L0 
     /tmp/ccGkqgib.s:1021   .text:00000000000004e8 .L0 
     /tmp/ccGkqgib.s:1046   .text:00000000000004e8 _ZN5RiscV25executeThreadStartSyscallEv
     /tmp/ccGkqgib.s:1049   .text:00000000000004e8 .L0 
     /tmp/ccGkqgib.s:1050   .text:00000000000004e8 .L0 
     /tmp/ccGkqgib.s:1051   .text:00000000000004ec .L0 
     /tmp/ccGkqgib.s:1054   .text:00000000000004f4 .L0 
     /tmp/ccGkqgib.s:1055   .text:00000000000004f4 .L0 
     /tmp/ccGkqgib.s:1057   .text:00000000000004f8 .L0 
     /tmp/ccGkqgib.s:1059   .text:00000000000004f8 .L0 
     /tmp/ccGkqgib.s:1060   .text:00000000000004f8 .L0 
       src/riscv.cpp:288    .text:00000000000004f8 .L0 
     /tmp/ccGkqgib.s:1067   .text:00000000000004fc .L0 
     /tmp/ccGkqgib.s:1068   .text:00000000000004fc .L0 
     /tmp/ccGkqgib.s:1070   .text:00000000000004fc .L0 
     /tmp/ccGkqgib.s:1072   .text:0000000000000500 .L0 
     /tmp/ccGkqgib.s:1076   .text:0000000000000504 .L0 
       src/riscv.cpp:305    .text:0000000000000504 .L0 
     /tmp/ccGkqgib.s:1082   .text:0000000000000508 .L0 
     /tmp/ccGkqgib.s:1084   .text:0000000000000508 .L0 
     /tmp/ccGkqgib.s:1087   .text:0000000000000510 .L0 
     /tmp/ccGkqgib.s:1088   .text:0000000000000514 .L0 
     /tmp/ccGkqgib.s:1089   .text:0000000000000514 .L0 
     /tmp/ccGkqgib.s:1091   .text:0000000000000518 .L0 
     /tmp/ccGkqgib.s:1092   .text:0000000000000518 .L0 
     /tmp/ccGkqgib.s:1094   .text:000000000000051c .L0 
     /tmp/ccGkqgib.s:1098   .text:0000000000000520 .L0 
     /tmp/ccGkqgib.s:1100   .text:0000000000000520 .L0 
GAS LISTING /tmp/ccGkqgib.s 			page 92


     /tmp/ccGkqgib.s:1101   .text:0000000000000520 .L0 
     /tmp/ccGkqgib.s:1104   .text:0000000000000528 .L0 
     /tmp/ccGkqgib.s:1105   .text:0000000000000528 .L0 
     /tmp/ccGkqgib.s:1108   .text:0000000000000530 .L0 
     /tmp/ccGkqgib.s:1109   .text:0000000000000530 .L0 
     /tmp/ccGkqgib.s:1112   .text:0000000000000538 .L0 
     /tmp/ccGkqgib.s:1114   .text:0000000000000540 .L0 
     /tmp/ccGkqgib.s:1120   .text:0000000000000540 _ZN5RiscV24executeThreadExitSyscallEv
     /tmp/ccGkqgib.s:1123   .text:0000000000000540 .L0 
     /tmp/ccGkqgib.s:1124   .text:0000000000000540 .L0 
     /tmp/ccGkqgib.s:1125   .text:0000000000000544 .L0 
     /tmp/ccGkqgib.s:1128   .text:000000000000054c .L0 
     /tmp/ccGkqgib.s:1129   .text:000000000000054c .L0 
     /tmp/ccGkqgib.s:1131   .text:0000000000000550 .L0 
     /tmp/ccGkqgib.s:1134   .text:0000000000000550 .L0 
     /tmp/ccGkqgib.s:1136   .text:0000000000000550 .L0 
     /tmp/ccGkqgib.s:1137   .text:0000000000000550 .L0 
     /tmp/ccGkqgib.s:1140   .text:000000000000055c .L0 
     /tmp/ccGkqgib.s:1144   .text:0000000000000560 .L0 
     /tmp/ccGkqgib.s:1145   .text:0000000000000560 .L0 
     /tmp/ccGkqgib.s:1146   .text:0000000000000560 .L0 
     /tmp/ccGkqgib.s:1149   .text:0000000000000568 .L0 
     /tmp/ccGkqgib.s:1150   .text:0000000000000568 .L0 
     /tmp/ccGkqgib.s:1155   .text:0000000000000570 .L0 
     /tmp/ccGkqgib.s:1159   .text:0000000000000574 .L0 
       src/riscv.cpp:325    .text:0000000000000574 .L0 
     /tmp/ccGkqgib.s:1165   .text:0000000000000578 .L0 
     /tmp/ccGkqgib.s:1167   .text:0000000000000578 .L0 
     /tmp/ccGkqgib.s:1170   .text:0000000000000580 .L0 
     /tmp/ccGkqgib.s:1171   .text:0000000000000584 .L0 
     /tmp/ccGkqgib.s:1172   .text:0000000000000584 .L0 
     /tmp/ccGkqgib.s:1174   .text:0000000000000588 .L0 
     /tmp/ccGkqgib.s:1175   .text:0000000000000588 .L0 
     /tmp/ccGkqgib.s:1177   .text:000000000000058c .L0 
     /tmp/ccGkqgib.s:1181   .text:0000000000000590 .L0 
     /tmp/ccGkqgib.s:1184   .text:0000000000000590 .L0 
     /tmp/ccGkqgib.s:1187   .text:0000000000000598 .L0 
     /tmp/ccGkqgib.s:1193   .text:0000000000000598 _ZN5RiscV21executeSemOpenSyscallEv
     /tmp/ccGkqgib.s:1196   .text:0000000000000598 .L0 
     /tmp/ccGkqgib.s:1199   .text:0000000000000598 .L0 
     /tmp/ccGkqgib.s:1200   .text:000000000000059c .L0 
     /tmp/ccGkqgib.s:1206   .text:00000000000005b0 .L0 
     /tmp/ccGkqgib.s:1207   .text:00000000000005b0 .L0 
     /tmp/ccGkqgib.s:1208   .text:00000000000005b0 .L0 
     /tmp/ccGkqgib.s:1209   .text:00000000000005b0 .L0 
     /tmp/ccGkqgib.s:1210   .text:00000000000005b0 .L0 
     /tmp/ccGkqgib.s:1212   .text:00000000000005b4 .L0 
     /tmp/ccGkqgib.s:1214   .text:00000000000005b4 .L0 
     /tmp/ccGkqgib.s:1215   .text:00000000000005b4 .L0 
       src/riscv.cpp:343    .text:00000000000005b4 .L0 
     /tmp/ccGkqgib.s:1222   .text:00000000000005b8 .L0 
       src/riscv.cpp:344    .text:00000000000005b8 .L0 
     /tmp/ccGkqgib.s:1227   .text:00000000000005bc .L0 
     /tmp/ccGkqgib.s:1229   .text:00000000000005bc .L0 
     /tmp/ccGkqgib.s:1241   .text:00000000000005d8 .L0 
     /tmp/ccGkqgib.s:1242   .text:00000000000005d8 .L0 
     /tmp/ccGkqgib.s:1244   .text:00000000000005dc .L0 
GAS LISTING /tmp/ccGkqgib.s 			page 93


     /tmp/ccGkqgib.s:1245   .text:00000000000005dc .L0 
     /tmp/ccGkqgib.s:1247   .text:00000000000005e0 .L0 
     /tmp/ccGkqgib.s:1251   .text:00000000000005e4 .L0 
       src/riscv.cpp:359    .text:00000000000005e4 .L0 
     /tmp/ccGkqgib.s:1257   .text:00000000000005e8 .L0 
     /tmp/ccGkqgib.s:1259   .text:00000000000005e8 .L0 
     /tmp/ccGkqgib.s:1262   .text:00000000000005f0 .L0 
     /tmp/ccGkqgib.s:1263   .text:00000000000005f4 .L0 
     /tmp/ccGkqgib.s:1264   .text:00000000000005f4 .L0 
     /tmp/ccGkqgib.s:1266   .text:00000000000005f8 .L0 
     /tmp/ccGkqgib.s:1267   .text:00000000000005f8 .L0 
     /tmp/ccGkqgib.s:1269   .text:00000000000005fc .L0 
     /tmp/ccGkqgib.s:1272   .text:0000000000000600 .L0 
     /tmp/ccGkqgib.s:1274   .text:0000000000000604 .L0 
     /tmp/ccGkqgib.s:1277   .text:0000000000000608 .L0 
     /tmp/ccGkqgib.s:1281   .text:000000000000060c .L0 
     /tmp/ccGkqgib.s:1283   .text:000000000000060c .L0 
     /tmp/ccGkqgib.s:1289   .text:0000000000000618 .L0 
     /tmp/ccGkqgib.s:1297   .text:0000000000000630 .L0 
     /tmp/ccGkqgib.s:1322   .text:0000000000000630 _ZN5RiscV22executeSemCloseSyscallEv
     /tmp/ccGkqgib.s:1325   .text:0000000000000630 .L0 
     /tmp/ccGkqgib.s:1326   .text:0000000000000630 .L0 
     /tmp/ccGkqgib.s:1327   .text:0000000000000634 .L0 
     /tmp/ccGkqgib.s:1331   .text:0000000000000640 .L0 
     /tmp/ccGkqgib.s:1332   .text:0000000000000640 .L0 
     /tmp/ccGkqgib.s:1333   .text:0000000000000640 .L0 
     /tmp/ccGkqgib.s:1335   .text:0000000000000644 .L0 
     /tmp/ccGkqgib.s:1337   .text:0000000000000644 .L0 
     /tmp/ccGkqgib.s:1338   .text:0000000000000644 .L0 
       src/riscv.cpp:370    .text:0000000000000644 .L0 
     /tmp/ccGkqgib.s:1345   .text:0000000000000648 .L0 
     /tmp/ccGkqgib.s:1346   .text:0000000000000648 .L0 
     /tmp/ccGkqgib.s:1348   .text:0000000000000648 .L0 
     /tmp/ccGkqgib.s:1350   .text:000000000000064c .L0 
     /tmp/ccGkqgib.s:1354   .text:0000000000000650 .L0 
       src/riscv.cpp:383    .text:0000000000000650 .L0 
     /tmp/ccGkqgib.s:1360   .text:0000000000000654 .L0 
     /tmp/ccGkqgib.s:1362   .text:0000000000000654 .L0 
     /tmp/ccGkqgib.s:1365   .text:000000000000065c .L0 
     /tmp/ccGkqgib.s:1366   .text:0000000000000660 .L0 
     /tmp/ccGkqgib.s:1367   .text:0000000000000660 .L0 
     /tmp/ccGkqgib.s:1369   .text:0000000000000664 .L0 
     /tmp/ccGkqgib.s:1370   .text:0000000000000664 .L0 
     /tmp/ccGkqgib.s:1372   .text:0000000000000668 .L0 
     /tmp/ccGkqgib.s:1375   .text:000000000000066c .L0 
     /tmp/ccGkqgib.s:1379   .text:0000000000000670 .L0 
     /tmp/ccGkqgib.s:1381   .text:0000000000000670 .L0 
     /tmp/ccGkqgib.s:1382   .text:0000000000000670 .L0 
     /tmp/ccGkqgib.s:1389   .text:0000000000000688 .L0 
     /tmp/ccGkqgib.s:1391   .text:0000000000000690 .L0 
     /tmp/ccGkqgib.s:1397   .text:0000000000000690 _ZN5RiscV21executeSemWaitSyscallEv
     /tmp/ccGkqgib.s:1400   .text:0000000000000690 .L0 
     /tmp/ccGkqgib.s:1401   .text:0000000000000690 .L0 
     /tmp/ccGkqgib.s:1402   .text:0000000000000694 .L0 
     /tmp/ccGkqgib.s:1405   .text:000000000000069c .L0 
     /tmp/ccGkqgib.s:1406   .text:000000000000069c .L0 
     /tmp/ccGkqgib.s:1408   .text:00000000000006a0 .L0 
GAS LISTING /tmp/ccGkqgib.s 			page 94


     /tmp/ccGkqgib.s:1410   .text:00000000000006a0 .L0 
     /tmp/ccGkqgib.s:1411   .text:00000000000006a0 .L0 
       src/riscv.cpp:393    .text:00000000000006a0 .L0 
     /tmp/ccGkqgib.s:1418   .text:00000000000006a4 .L0 
     /tmp/ccGkqgib.s:1420   .text:00000000000006a4 .L0 
     /tmp/ccGkqgib.s:1424   .text:00000000000006a8 .L0 
     /tmp/ccGkqgib.s:1425   .text:00000000000006a8 .L0 
     /tmp/ccGkqgib.s:1429   .text:00000000000006b8 .L0 
     /tmp/ccGkqgib.s:1431   .text:00000000000006bc .L0 
     /tmp/ccGkqgib.s:1435   .text:00000000000006c0 .L0 
       src/riscv.cpp:409    .text:00000000000006c0 .L0 
     /tmp/ccGkqgib.s:1441   .text:00000000000006c4 .L0 
     /tmp/ccGkqgib.s:1443   .text:00000000000006c4 .L0 
     /tmp/ccGkqgib.s:1446   .text:00000000000006cc .L0 
     /tmp/ccGkqgib.s:1447   .text:00000000000006d0 .L0 
     /tmp/ccGkqgib.s:1448   .text:00000000000006d0 .L0 
     /tmp/ccGkqgib.s:1450   .text:00000000000006d4 .L0 
     /tmp/ccGkqgib.s:1451   .text:00000000000006d4 .L0 
     /tmp/ccGkqgib.s:1453   .text:00000000000006d8 .L0 
     /tmp/ccGkqgib.s:1457   .text:00000000000006dc .L0 
     /tmp/ccGkqgib.s:1459   .text:00000000000006dc .L0 
     /tmp/ccGkqgib.s:1460   .text:00000000000006dc .L0 
     /tmp/ccGkqgib.s:1466   .text:00000000000006e8 .L0 
     /tmp/ccGkqgib.s:1468   .text:00000000000006f0 .L0 
     /tmp/ccGkqgib.s:1474   .text:00000000000006f0 _ZN5RiscV23executeSemSignalSyscallEv
     /tmp/ccGkqgib.s:1477   .text:00000000000006f0 .L0 
     /tmp/ccGkqgib.s:1478   .text:00000000000006f0 .L0 
     /tmp/ccGkqgib.s:1479   .text:00000000000006f4 .L0 
     /tmp/ccGkqgib.s:1482   .text:00000000000006fc .L0 
     /tmp/ccGkqgib.s:1483   .text:00000000000006fc .L0 
     /tmp/ccGkqgib.s:1485   .text:0000000000000700 .L0 
     /tmp/ccGkqgib.s:1487   .text:0000000000000700 .L0 
     /tmp/ccGkqgib.s:1488   .text:0000000000000700 .L0 
       src/riscv.cpp:420    .text:0000000000000700 .L0 
     /tmp/ccGkqgib.s:1495   .text:0000000000000704 .L0 
     /tmp/ccGkqgib.s:1497   .text:0000000000000704 .L0 
     /tmp/ccGkqgib.s:1499   .text:0000000000000708 .L0 
     /tmp/ccGkqgib.s:1503   .text:000000000000070c .L0 
       src/riscv.cpp:432    .text:000000000000070c .L0 
     /tmp/ccGkqgib.s:1509   .text:0000000000000710 .L0 
     /tmp/ccGkqgib.s:1511   .text:0000000000000710 .L0 
     /tmp/ccGkqgib.s:1514   .text:0000000000000718 .L0 
     /tmp/ccGkqgib.s:1515   .text:000000000000071c .L0 
     /tmp/ccGkqgib.s:1516   .text:000000000000071c .L0 
     /tmp/ccGkqgib.s:1518   .text:0000000000000720 .L0 
     /tmp/ccGkqgib.s:1519   .text:0000000000000720 .L0 
     /tmp/ccGkqgib.s:1521   .text:0000000000000724 .L0 
     /tmp/ccGkqgib.s:1525   .text:0000000000000728 .L0 
     /tmp/ccGkqgib.s:1527   .text:0000000000000728 .L0 
     /tmp/ccGkqgib.s:1528   .text:0000000000000728 .L0 
     /tmp/ccGkqgib.s:1531   .text:0000000000000730 .L0 
     /tmp/ccGkqgib.s:1533   .text:0000000000000738 .L0 
     /tmp/ccGkqgib.s:1539   .text:0000000000000738 _ZN5RiscV23executeTimeSleepSyscallEv
     /tmp/ccGkqgib.s:1542   .text:0000000000000738 .L0 
     /tmp/ccGkqgib.s:1543   .text:0000000000000738 .L0 
     /tmp/ccGkqgib.s:1544   .text:000000000000073c .L0 
     /tmp/ccGkqgib.s:1548   .text:0000000000000748 .L0 
GAS LISTING /tmp/ccGkqgib.s 			page 95


     /tmp/ccGkqgib.s:1549   .text:0000000000000748 .L0 
     /tmp/ccGkqgib.s:1550   .text:0000000000000748 .L0 
     /tmp/ccGkqgib.s:1552   .text:000000000000074c .L0 
     /tmp/ccGkqgib.s:1554   .text:000000000000074c .L0 
     /tmp/ccGkqgib.s:1555   .text:000000000000074c .L0 
       src/riscv.cpp:442    .text:000000000000074c .L0 
     /tmp/ccGkqgib.s:1561   .text:0000000000000750 .L0 
     /tmp/ccGkqgib.s:1563   .text:0000000000000750 .L0 
     /tmp/ccGkqgib.s:1567   .text:000000000000075c .L0 
     /tmp/ccGkqgib.s:1568   .text:000000000000075c .L0 
     /tmp/ccGkqgib.s:1571   .text:0000000000000768 .L0 
     /tmp/ccGkqgib.s:1572   .text:0000000000000768 .L0 
     /tmp/ccGkqgib.s:1574   .text:000000000000076c .L0 
     /tmp/ccGkqgib.s:1576   .text:0000000000000770 .L0 
     /tmp/ccGkqgib.s:1577   .text:0000000000000770 .L0 
     /tmp/ccGkqgib.s:1581   .text:000000000000077c .L0 
     /tmp/ccGkqgib.s:1582   .text:000000000000077c .L0 
     /tmp/ccGkqgib.s:1585   .text:0000000000000784 .L0 
     /tmp/ccGkqgib.s:1586   .text:0000000000000784 .L0 
     /tmp/ccGkqgib.s:1589   .text:000000000000078c .L0 
     /tmp/ccGkqgib.s:1590   .text:000000000000078c .L0 
     /tmp/ccGkqgib.s:1591   .text:000000000000078c .L0 
     /tmp/ccGkqgib.s:1597   .text:0000000000000794 .L0 
     /tmp/ccGkqgib.s:1599   .text:0000000000000794 .L0 
     /tmp/ccGkqgib.s:1602   .text:000000000000079c .L0 
     /tmp/ccGkqgib.s:1603   .text:00000000000007a0 .L0 
     /tmp/ccGkqgib.s:1605   .text:00000000000007a4 .L0 
     /tmp/ccGkqgib.s:1606   .text:00000000000007a4 .L0 
     /tmp/ccGkqgib.s:1608   .text:00000000000007a8 .L0 
     /tmp/ccGkqgib.s:1611   .text:00000000000007ac .L0 
     /tmp/ccGkqgib.s:1613   .text:00000000000007b0 .L0 
     /tmp/ccGkqgib.s:1619   .text:00000000000007b0 _ZN5RiscV18executeGetcSyscallEv
     /tmp/ccGkqgib.s:1622   .text:00000000000007b0 .L0 
     /tmp/ccGkqgib.s:1623   .text:00000000000007b0 .L0 
     /tmp/ccGkqgib.s:1624   .text:00000000000007b4 .L0 
     /tmp/ccGkqgib.s:1628   .text:00000000000007c0 .L0 
     /tmp/ccGkqgib.s:1629   .text:00000000000007c0 .L0 
     /tmp/ccGkqgib.s:1630   .text:00000000000007c0 .L0 
     /tmp/ccGkqgib.s:1632   .text:00000000000007c4 .L0 
     /tmp/ccGkqgib.s:1634   .text:00000000000007c4 .L0 
     /tmp/ccGkqgib.s:1635   .text:00000000000007c4 .L0 
     /tmp/ccGkqgib.s:1637   .text:00000000000007cc .L0 
     /tmp/ccGkqgib.s:1639   .text:00000000000007d0 .L0 
     /tmp/ccGkqgib.s:1640   .text:00000000000007d0 .L0 
     /tmp/ccGkqgib.s:1646   .text:00000000000007e4 .L0 
     /tmp/ccGkqgib.s:1647   .text:00000000000007e4 .L0 
     /tmp/ccGkqgib.s:1652   .text:00000000000007f0 .L0 
     /tmp/ccGkqgib.s:1655   .text:00000000000007f8 .L0 
     /tmp/ccGkqgib.s:1660   .text:0000000000000800 .L0 
       src/riscv.cpp:483    .text:0000000000000800 .L0 
     /tmp/ccGkqgib.s:1666   .text:0000000000000804 .L0 
     /tmp/ccGkqgib.s:1668   .text:0000000000000804 .L0 
     /tmp/ccGkqgib.s:1671   .text:000000000000080c .L0 
     /tmp/ccGkqgib.s:1672   .text:0000000000000810 .L0 
     /tmp/ccGkqgib.s:1673   .text:0000000000000810 .L0 
     /tmp/ccGkqgib.s:1675   .text:0000000000000814 .L0 
     /tmp/ccGkqgib.s:1676   .text:0000000000000814 .L0 
GAS LISTING /tmp/ccGkqgib.s 			page 96


     /tmp/ccGkqgib.s:1678   .text:0000000000000818 .L0 
     /tmp/ccGkqgib.s:1680   .text:000000000000081c .L0 
     /tmp/ccGkqgib.s:1684   .text:0000000000000820 .L0 
     /tmp/ccGkqgib.s:1686   .text:0000000000000820 .L0 
     /tmp/ccGkqgib.s:1687   .text:0000000000000820 .L0 
     /tmp/ccGkqgib.s:1692   .text:000000000000082c .L0 
     /tmp/ccGkqgib.s:1693   .text:000000000000082c .L0 
     /tmp/ccGkqgib.s:1700   .text:000000000000083c .L0 
     /tmp/ccGkqgib.s:1701   .text:000000000000083c .L0 
     /tmp/ccGkqgib.s:1704   .text:0000000000000848 .L0 
     /tmp/ccGkqgib.s:1710   .text:0000000000000848 _ZN5RiscV22executePutcUtilSyscallEv
     /tmp/ccGkqgib.s:1713   .text:0000000000000848 .L0 
     /tmp/ccGkqgib.s:1714   .text:0000000000000848 .L0 
     /tmp/ccGkqgib.s:1715   .text:000000000000084c .L0 
     /tmp/ccGkqgib.s:1718   .text:0000000000000854 .L0 
     /tmp/ccGkqgib.s:1719   .text:0000000000000854 .L0 
     /tmp/ccGkqgib.s:1721   .text:0000000000000858 .L0 
     /tmp/ccGkqgib.s:1723   .text:0000000000000858 .L0 
     /tmp/ccGkqgib.s:1724   .text:0000000000000858 .L0 
     /tmp/ccGkqgib.s:1727   .text:0000000000000860 .L0 
       src/riscv.cpp:538    .text:0000000000000860 .L0 
     /tmp/ccGkqgib.s:1733   .text:0000000000000864 .L0 
     /tmp/ccGkqgib.s:1735   .text:0000000000000864 .L0 
     /tmp/ccGkqgib.s:1738   .text:000000000000086c .L0 
     /tmp/ccGkqgib.s:1739   .text:0000000000000870 .L0 
     /tmp/ccGkqgib.s:1741   .text:0000000000000874 .L0 
     /tmp/ccGkqgib.s:1742   .text:0000000000000874 .L0 
     /tmp/ccGkqgib.s:1744   .text:0000000000000878 .L0 
     /tmp/ccGkqgib.s:1746   .text:000000000000087c .L0 
     /tmp/ccGkqgib.s:1752   .text:000000000000087c _ZN5RiscV24executeThreadFreeSyscallEv
     /tmp/ccGkqgib.s:1755   .text:000000000000087c .L0 
     /tmp/ccGkqgib.s:1756   .text:000000000000087c .L0 
     /tmp/ccGkqgib.s:1757   .text:0000000000000880 .L0 
     /tmp/ccGkqgib.s:1762   .text:0000000000000890 .L0 
     /tmp/ccGkqgib.s:1763   .text:0000000000000890 .L0 
     /tmp/ccGkqgib.s:1764   .text:0000000000000890 .L0 
     /tmp/ccGkqgib.s:1765   .text:0000000000000890 .L0 
     /tmp/ccGkqgib.s:1767   .text:0000000000000894 .L0 
     /tmp/ccGkqgib.s:1769   .text:0000000000000894 .L0 
     /tmp/ccGkqgib.s:1770   .text:0000000000000894 .L0 
       src/riscv.cpp:584    .text:0000000000000894 .L0 
     /tmp/ccGkqgib.s:1777   .text:0000000000000898 .L0 
     /tmp/ccGkqgib.s:1779   .text:0000000000000898 .L0 
     /tmp/ccGkqgib.s:1781   .text:000000000000089c .L0 
     /tmp/ccGkqgib.s:1785   .text:00000000000008a0 .L0 
       src/riscv.cpp:596    .text:00000000000008a0 .L0 
     /tmp/ccGkqgib.s:1791   .text:00000000000008a4 .L0 
     /tmp/ccGkqgib.s:1793   .text:00000000000008a4 .L0 
     /tmp/ccGkqgib.s:1796   .text:00000000000008ac .L0 
     /tmp/ccGkqgib.s:1797   .text:00000000000008b0 .L0 
     /tmp/ccGkqgib.s:1798   .text:00000000000008b0 .L0 
     /tmp/ccGkqgib.s:1800   .text:00000000000008b4 .L0 
     /tmp/ccGkqgib.s:1801   .text:00000000000008b4 .L0 
     /tmp/ccGkqgib.s:1803   .text:00000000000008b8 .L0 
     /tmp/ccGkqgib.s:1806   .text:00000000000008bc .L0 
     /tmp/ccGkqgib.s:1809   .text:00000000000008c0 .L0 
     /tmp/ccGkqgib.s:1813   .text:00000000000008c4 .L0 
GAS LISTING /tmp/ccGkqgib.s 			page 97


     /tmp/ccGkqgib.s:1815   .text:00000000000008c4 .L0 
     /tmp/ccGkqgib.s:1816   .text:00000000000008c4 .L0 
     /tmp/ccGkqgib.s:1822   .text:00000000000008d4 .L0 
     /tmp/ccGkqgib.s:1823   .text:00000000000008d4 .L0 
     /tmp/ccGkqgib.s:1831   .text:00000000000008f0 .L0 
     /tmp/ccGkqgib.s:1837   .text:00000000000008f0 _ZN5RiscV27executeSemaphoreFreeSyscallEv
     /tmp/ccGkqgib.s:1840   .text:00000000000008f0 .L0 
     /tmp/ccGkqgib.s:1841   .text:00000000000008f0 .L0 
     /tmp/ccGkqgib.s:1842   .text:00000000000008f4 .L0 
     /tmp/ccGkqgib.s:1846   .text:0000000000000900 .L0 
     /tmp/ccGkqgib.s:1847   .text:0000000000000900 .L0 
     /tmp/ccGkqgib.s:1848   .text:0000000000000900 .L0 
     /tmp/ccGkqgib.s:1850   .text:0000000000000904 .L0 
     /tmp/ccGkqgib.s:1852   .text:0000000000000904 .L0 
     /tmp/ccGkqgib.s:1853   .text:0000000000000904 .L0 
       src/riscv.cpp:606    .text:0000000000000904 .L0 
     /tmp/ccGkqgib.s:1860   .text:0000000000000908 .L0 
     /tmp/ccGkqgib.s:1862   .text:0000000000000908 .L0 
     /tmp/ccGkqgib.s:1866   .text:000000000000090c .L0 
     /tmp/ccGkqgib.s:1867   .text:000000000000090c .L0 
     /tmp/ccGkqgib.s:1873   .text:0000000000000914 .L0 
     /tmp/ccGkqgib.s:1875   .text:0000000000000914 .L0 
     /tmp/ccGkqgib.s:1878   .text:000000000000091c .L0 
     /tmp/ccGkqgib.s:1879   .text:0000000000000920 .L0 
     /tmp/ccGkqgib.s:1880   .text:0000000000000920 .L0 
     /tmp/ccGkqgib.s:1882   .text:0000000000000924 .L0 
     /tmp/ccGkqgib.s:1883   .text:0000000000000924 .L0 
     /tmp/ccGkqgib.s:1885   .text:0000000000000928 .L0 
     /tmp/ccGkqgib.s:1888   .text:000000000000092c .L0 
     /tmp/ccGkqgib.s:1892   .text:0000000000000930 .L0 
     /tmp/ccGkqgib.s:1894   .text:0000000000000930 .L0 
     /tmp/ccGkqgib.s:1895   .text:0000000000000930 .L0 
     /tmp/ccGkqgib.s:1902   .text:000000000000094c .L0 
     /tmp/ccGkqgib.s:1908   .text:000000000000094c _ZN5RiscV18executeForkSyscallEv
     /tmp/ccGkqgib.s:1911   .text:000000000000094c .L0 
     /tmp/ccGkqgib.s:1914   .text:000000000000094c .L0 
     /tmp/ccGkqgib.s:1915   .text:0000000000000950 .L0 
     /tmp/ccGkqgib.s:1920   .text:0000000000000960 .L0 
     /tmp/ccGkqgib.s:1921   .text:0000000000000960 .L0 
     /tmp/ccGkqgib.s:1922   .text:0000000000000960 .L0 
     /tmp/ccGkqgib.s:1923   .text:0000000000000960 .L0 
     /tmp/ccGkqgib.s:1925   .text:0000000000000964 .L0 
     /tmp/ccGkqgib.s:1927   .text:0000000000000964 .L0 
     /tmp/ccGkqgib.s:1928   .text:0000000000000964 .L0 
     /tmp/ccGkqgib.s:1935   .text:0000000000000974 .L0 
     /tmp/ccGkqgib.s:1936   .text:0000000000000974 .L0 
     /tmp/ccGkqgib.s:1945   .text:0000000000000994 .L0 
     /tmp/ccGkqgib.s:1946   .text:0000000000000994 .L0 
     /tmp/ccGkqgib.s:1960   .text:00000000000009bc .L0 
     /tmp/ccGkqgib.s:1962   .text:00000000000009bc .L0 
     /tmp/ccGkqgib.s:1965   .text:00000000000009c0 .L0 
     /tmp/ccGkqgib.s:1966   .text:00000000000009c0 .L0 
     /tmp/ccGkqgib.s:1970   .text:00000000000009d0 .L0 
     /tmp/ccGkqgib.s:1971   .text:00000000000009d0 .L0 
     /tmp/ccGkqgib.s:1974   .text:00000000000009dc .L0 
     /tmp/ccGkqgib.s:1976   .text:00000000000009e0 .L0 
     /tmp/ccGkqgib.s:1979   .text:00000000000009ec .L0 
GAS LISTING /tmp/ccGkqgib.s 			page 98


     /tmp/ccGkqgib.s:1981   .text:00000000000009f0 .L0 
     /tmp/ccGkqgib.s:1983   .text:00000000000009f4 .L0 
     /tmp/ccGkqgib.s:1985   .text:00000000000009f8 .L0 
     /tmp/ccGkqgib.s:1986   .text:00000000000009f8 .L0 
     /tmp/ccGkqgib.s:1989   .text:0000000000000a00 .L0 
     /tmp/ccGkqgib.s:1991   .text:0000000000000a04 .L0 
     /tmp/ccGkqgib.s:1993   .text:0000000000000a08 .L0 
     /tmp/ccGkqgib.s:1996   .text:0000000000000a0c .L0 
     /tmp/ccGkqgib.s:1997   .text:0000000000000a0c .L0 
     /tmp/ccGkqgib.s:1999   .text:0000000000000a10 .L0 
     /tmp/ccGkqgib.s:2000   .text:0000000000000a10 .L0 
       src/riscv.cpp:651    .text:0000000000000a10 .L0 
     /tmp/ccGkqgib.s:2006   .text:0000000000000a14 .L0 
       src/riscv.cpp:653    .text:0000000000000a14 .L0 
     /tmp/ccGkqgib.s:2011   .text:0000000000000a18 .L0 
       src/riscv.cpp:655    .text:0000000000000a18 .L0 
     /tmp/ccGkqgib.s:2016   .text:0000000000000a1c .L0 
       src/riscv.cpp:657    .text:0000000000000a1c .L0 
     /tmp/ccGkqgib.s:2021   .text:0000000000000a20 .L0 
       src/riscv.cpp:659    .text:0000000000000a20 .L0 
     /tmp/ccGkqgib.s:2026   .text:0000000000000a24 .L0 
       src/riscv.cpp:662    .text:0000000000000a24 .L0 
     /tmp/ccGkqgib.s:2031   .text:0000000000000a28 .L0 
       src/riscv.cpp:664    .text:0000000000000a28 .L0 
     /tmp/ccGkqgib.s:2036   .text:0000000000000a2c .L0 
       src/riscv.cpp:666    .text:0000000000000a2c .L0 
     /tmp/ccGkqgib.s:2041   .text:0000000000000a30 .L0 
       src/riscv.cpp:668    .text:0000000000000a30 .L0 
     /tmp/ccGkqgib.s:2046   .text:0000000000000a34 .L0 
     /tmp/ccGkqgib.s:2048   .text:0000000000000a34 .L0 
     /tmp/ccGkqgib.s:2051   .text:0000000000000a3c .L0 
     /tmp/ccGkqgib.s:2053   .text:0000000000000a40 .L0 
     /tmp/ccGkqgib.s:2054   .text:0000000000000a40 .L0 
     /tmp/ccGkqgib.s:2056   .text:0000000000000a44 .L0 
     /tmp/ccGkqgib.s:2058   .text:0000000000000a48 .L0 
     /tmp/ccGkqgib.s:2059   .text:0000000000000a48 .L0 
     /tmp/ccGkqgib.s:2068   .text:0000000000000a54 .L0 
     /tmp/ccGkqgib.s:2069   .text:0000000000000a54 .L0 
       src/riscv.cpp:682    .text:0000000000000a54 .L0 
     /tmp/ccGkqgib.s:2075   .text:0000000000000a58 .L0 
     /tmp/ccGkqgib.s:2077   .text:0000000000000a58 .L0 
     /tmp/ccGkqgib.s:2080   .text:0000000000000a60 .L0 
     /tmp/ccGkqgib.s:2081   .text:0000000000000a64 .L0 
     /tmp/ccGkqgib.s:2082   .text:0000000000000a64 .L0 
     /tmp/ccGkqgib.s:2084   .text:0000000000000a68 .L0 
     /tmp/ccGkqgib.s:2085   .text:0000000000000a68 .L0 
     /tmp/ccGkqgib.s:2087   .text:0000000000000a6c .L0 
     /tmp/ccGkqgib.s:2090   .text:0000000000000a70 .L0 
     /tmp/ccGkqgib.s:2092   .text:0000000000000a74 .L0 
     /tmp/ccGkqgib.s:2096   .text:0000000000000a78 .L0 
     /tmp/ccGkqgib.s:2099   .text:0000000000000a78 .L0 
     /tmp/ccGkqgib.s:2108   .text:0000000000000a84 .L0 
     /tmp/ccGkqgib.s:2116   .text:0000000000000a9c .L0 
     /tmp/ccGkqgib.s:2145   .text:0000000000000a9c _ZN5RiscV5getPCEv
     /tmp/ccGkqgib.s:2148   .text:0000000000000a9c .L0 
     /tmp/ccGkqgib.s:2149   .text:0000000000000a9c .L0 
     /tmp/ccGkqgib.s:2150   .text:0000000000000aa0 .L0 
GAS LISTING /tmp/ccGkqgib.s 			page 99


     /tmp/ccGkqgib.s:2152   .text:0000000000000aa4 .L0 
     /tmp/ccGkqgib.s:2154   .text:0000000000000aa8 .L0 
     /tmp/ccGkqgib.s:2156   .text:0000000000000aa8 .L0 
     /tmp/ccGkqgib.s:2157   .text:0000000000000aa8 .L0 
       src/riscv.cpp:691    .text:0000000000000aa8 .L0 
     /tmp/ccGkqgib.s:2164   .text:0000000000000aac .L0 
     /tmp/ccGkqgib.s:2166   .text:0000000000000aac .L0 
     /tmp/ccGkqgib.s:2169   .text:0000000000000ab0 .L0 
     /tmp/ccGkqgib.s:2172   .text:0000000000000abc .L0 
     /tmp/ccGkqgib.s:2173   .text:0000000000000ac0 .L0 
     /tmp/ccGkqgib.s:2174   .text:0000000000000ac0 .L0 
     /tmp/ccGkqgib.s:2176   .text:0000000000000ac4 .L0 
     /tmp/ccGkqgib.s:2178   .text:0000000000000ac8 .L0 
     /tmp/ccGkqgib.s:2204   .text:0000000000000ac8 _ZN5RiscV20handleSupervisorTrapEv
     /tmp/ccGkqgib.s:2207   .text:0000000000000ac8 .L0 
     /tmp/ccGkqgib.s:2208   .text:0000000000000ac8 .L0 
     /tmp/ccGkqgib.s:2209   .text:0000000000000acc .L0 
     /tmp/ccGkqgib.s:2212   .text:0000000000000ad4 .L0 
     /tmp/ccGkqgib.s:2213   .text:0000000000000ad4 .L0 
     /tmp/ccGkqgib.s:2215   .text:0000000000000ad8 .L0 
     /tmp/ccGkqgib.s:2219   .text:0000000000000ad8 .L0 
     /tmp/ccGkqgib.s:2220   .text:0000000000000ad8 .L0 
     /tmp/ccGkqgib.s:2221   .text:0000000000000ad8 .L0 
  src/../h/riscv.hpp:133    .text:0000000000000ad8 .L0 
     /tmp/ccGkqgib.s:2229   .text:0000000000000ae0 .L0 
     /tmp/ccGkqgib.s:2230   .text:0000000000000ae0 .L0 
     /tmp/ccGkqgib.s:2234   .text:0000000000000ae4 .L0 
     /tmp/ccGkqgib.s:2236   .text:0000000000000ae8 .L0 
     /tmp/ccGkqgib.s:2237   .text:0000000000000ae8 .L0 
       src/riscv.cpp:40     .text:0000000000000af4 .L0 
     /tmp/ccGkqgib.s:2248   .text:0000000000000afc .L0 
     /tmp/ccGkqgib.s:2249   .text:0000000000000afc .L0 
     /tmp/ccGkqgib.s:2251   .text:0000000000000b00 .L0 
     /tmp/ccGkqgib.s:2254   .text:0000000000000b08 .L0 
     /tmp/ccGkqgib.s:2256   .text:0000000000000b0c .L0 
     /tmp/ccGkqgib.s:2262   .text:0000000000000b14 .L0 
     /tmp/ccGkqgib.s:2263   .text:0000000000000b14 .L0 
     /tmp/ccGkqgib.s:2265   .text:0000000000000b18 .L0 
     /tmp/ccGkqgib.s:2275   .text:0000000000000b28 .L0 
     /tmp/ccGkqgib.s:2276   .text:0000000000000b28 .L0 
     /tmp/ccGkqgib.s:2278   .text:0000000000000b2c .L0 
     /tmp/ccGkqgib.s:2290   .text:0000000000000b3c .L0 
     /tmp/ccGkqgib.s:2291   .text:0000000000000b3c .L0 
     /tmp/ccGkqgib.s:2293   .text:0000000000000b40 .L0 
     /tmp/ccGkqgib.s:2297   .text:0000000000000b48 .L0 
     /tmp/ccGkqgib.s:2298   .text:0000000000000b48 .L0 
     /tmp/ccGkqgib.s:2302   .text:0000000000000b58 .L0 
     /tmp/ccGkqgib.s:2303   .text:0000000000000b58 .L0 
     /tmp/ccGkqgib.s:2309   .text:0000000000000b68 .L0 
     /tmp/ccGkqgib.s:2310   .text:0000000000000b68 .L0 
     /tmp/ccGkqgib.s:2311   .text:0000000000000b68 .L0 
  src/../h/riscv.hpp:133    .text:0000000000000b68 .L0 
     /tmp/ccGkqgib.s:2319   .text:0000000000000b70 .L0 
     /tmp/ccGkqgib.s:2320   .text:0000000000000b70 .L0 
     /tmp/ccGkqgib.s:2325   .text:0000000000000b74 .L0 
     /tmp/ccGkqgib.s:2326   .text:0000000000000b74 .L0 
     /tmp/ccGkqgib.s:2333   .text:0000000000000b88 .L0 
GAS LISTING /tmp/ccGkqgib.s 			page 100


     /tmp/ccGkqgib.s:2334   .text:0000000000000b88 .L0 
     /tmp/ccGkqgib.s:2340   .text:0000000000000b98 .L0 
     /tmp/ccGkqgib.s:2341   .text:0000000000000b98 .L0 
     /tmp/ccGkqgib.s:2342   .text:0000000000000b98 .L0 
  src/../h/riscv.hpp:143    .text:0000000000000b98 .L0 
     /tmp/ccGkqgib.s:2351   .text:0000000000000b9c .L0 
     /tmp/ccGkqgib.s:2352   .text:0000000000000b9c .L0 
     /tmp/ccGkqgib.s:2353   .text:0000000000000b9c .L0 
     /tmp/ccGkqgib.s:2359   .text:0000000000000bb0 .L0 
     /tmp/ccGkqgib.s:2360   .text:0000000000000bb0 .L0 
     /tmp/ccGkqgib.s:2364   .text:0000000000000bc0 .L0 
     /tmp/ccGkqgib.s:2365   .text:0000000000000bc0 .L0 
     /tmp/ccGkqgib.s:2369   .text:0000000000000bcc .L0 
     /tmp/ccGkqgib.s:2370   .text:0000000000000bcc .L0 
     /tmp/ccGkqgib.s:2373   .text:0000000000000bd4 .L0 
     /tmp/ccGkqgib.s:2374   .text:0000000000000bd4 .L0 
     /tmp/ccGkqgib.s:2378   .text:0000000000000be4 .L0 
     /tmp/ccGkqgib.s:2379   .text:0000000000000be4 .L0 
     /tmp/ccGkqgib.s:2391   .text:0000000000000bf0 .L0 
     /tmp/ccGkqgib.s:2392   .text:0000000000000bf0 .L0 
     /tmp/ccGkqgib.s:2393   .text:0000000000000bf0 .L0 
  src/../h/riscv.hpp:163    .text:0000000000000bf0 .L0 
     /tmp/ccGkqgib.s:2403   .text:0000000000000bf4 .L0 
     /tmp/ccGkqgib.s:2404   .text:0000000000000bf4 .L0 
     /tmp/ccGkqgib.s:2408   .text:0000000000000bf8 .L0 
     /tmp/ccGkqgib.s:2409   .text:0000000000000bf8 .L0 
     /tmp/ccGkqgib.s:2410   .text:0000000000000bf8 .L0 
  src/../h/riscv.hpp:143    .text:0000000000000bf8 .L0 
     /tmp/ccGkqgib.s:2420   .text:0000000000000bfc .L0 
     /tmp/ccGkqgib.s:2421   .text:0000000000000bfc .L0 
     /tmp/ccGkqgib.s:2423   .text:0000000000000c00 .L0 
     /tmp/ccGkqgib.s:2425   .text:0000000000000c04 .L0 
     /tmp/ccGkqgib.s:2426   .text:0000000000000c04 .L0 
     /tmp/ccGkqgib.s:2429   .text:0000000000000c10 .L0 
     /tmp/ccGkqgib.s:2432   .text:0000000000000c18 .L0 
     /tmp/ccGkqgib.s:2433   .text:0000000000000c18 .L0 
     /tmp/ccGkqgib.s:2436   .text:0000000000000c20 .L0 
     /tmp/ccGkqgib.s:2437   .text:0000000000000c20 .L0 
       src/riscv.cpp:54     .text:0000000000000c20 .L0 
     /tmp/ccGkqgib.s:2445   .text:0000000000000c24 .L0 
     /tmp/ccGkqgib.s:2559   .text:0000000000000c48 .L0 
     /tmp/ccGkqgib.s:2560   .text:0000000000000c48 .L0 
     /tmp/ccGkqgib.s:2561   .text:0000000000000c48 .L0 
     /tmp/ccGkqgib.s:2565   .text:0000000000000c50 .L0 
     /tmp/ccGkqgib.s:2566   .text:0000000000000c50 .L0 
     /tmp/ccGkqgib.s:2567   .text:0000000000000c50 .L0 
     /tmp/ccGkqgib.s:2574   .text:0000000000000c60 .L0 
  src/../h/riscv.hpp:158    .text:0000000000000c60 .L0 
     /tmp/ccGkqgib.s:2584   .text:0000000000000c64 .L0 
     /tmp/ccGkqgib.s:2585   .text:0000000000000c64 .L0 
     /tmp/ccGkqgib.s:2590   .text:0000000000000c68 .L0 
  src/../h/riscv.hpp:148    .text:0000000000000c68 .L0 
     /tmp/ccGkqgib.s:2603   .text:0000000000000c6c .L0 
     /tmp/ccGkqgib.s:2604   .text:0000000000000c6c .L0 
     /tmp/ccGkqgib.s:2607   .text:0000000000000c74 .L0 
     /tmp/ccGkqgib.s:2608   .text:0000000000000c78 .L0 
     /tmp/ccGkqgib.s:2609   .text:0000000000000c78 .L0 
GAS LISTING /tmp/ccGkqgib.s 			page 101


     /tmp/ccGkqgib.s:2611   .text:0000000000000c7c .L0 
     /tmp/ccGkqgib.s:2612   .text:0000000000000c7c .L0 
     /tmp/ccGkqgib.s:2614   .text:0000000000000c80 .L0 
     /tmp/ccGkqgib.s:2617   .text:0000000000000c84 .L0 
     /tmp/ccGkqgib.s:2621   .text:0000000000000c84 .L0 
     /tmp/ccGkqgib.s:2622   .text:0000000000000c84 .L0 
     /tmp/ccGkqgib.s:2623   .text:0000000000000c84 .L0 
     /tmp/ccGkqgib.s:2626   .text:0000000000000c8c .L0 
     /tmp/ccGkqgib.s:2629   .text:0000000000000c90 .L0 
     /tmp/ccGkqgib.s:2630   .text:0000000000000c90 .L0 
     /tmp/ccGkqgib.s:2631   .text:0000000000000c90 .L0 
     /tmp/ccGkqgib.s:2634   .text:0000000000000c98 .L0 
     /tmp/ccGkqgib.s:2637   .text:0000000000000c9c .L0 
     /tmp/ccGkqgib.s:2638   .text:0000000000000c9c .L0 
     /tmp/ccGkqgib.s:2639   .text:0000000000000c9c .L0 
     /tmp/ccGkqgib.s:2642   .text:0000000000000ca4 .L0 
     /tmp/ccGkqgib.s:2645   .text:0000000000000ca8 .L0 
     /tmp/ccGkqgib.s:2646   .text:0000000000000ca8 .L0 
     /tmp/ccGkqgib.s:2647   .text:0000000000000ca8 .L0 
     /tmp/ccGkqgib.s:2650   .text:0000000000000cb0 .L0 
     /tmp/ccGkqgib.s:2653   .text:0000000000000cb4 .L0 
     /tmp/ccGkqgib.s:2654   .text:0000000000000cb4 .L0 
     /tmp/ccGkqgib.s:2655   .text:0000000000000cb4 .L0 
     /tmp/ccGkqgib.s:2658   .text:0000000000000cbc .L0 
     /tmp/ccGkqgib.s:2661   .text:0000000000000cc0 .L0 
     /tmp/ccGkqgib.s:2662   .text:0000000000000cc0 .L0 
     /tmp/ccGkqgib.s:2663   .text:0000000000000cc0 .L0 
     /tmp/ccGkqgib.s:2666   .text:0000000000000cc8 .L0 
     /tmp/ccGkqgib.s:2669   .text:0000000000000ccc .L0 
     /tmp/ccGkqgib.s:2670   .text:0000000000000ccc .L0 
     /tmp/ccGkqgib.s:2671   .text:0000000000000ccc .L0 
     /tmp/ccGkqgib.s:2674   .text:0000000000000cd4 .L0 
     /tmp/ccGkqgib.s:2677   .text:0000000000000cd8 .L0 
     /tmp/ccGkqgib.s:2678   .text:0000000000000cd8 .L0 
     /tmp/ccGkqgib.s:2679   .text:0000000000000cd8 .L0 
     /tmp/ccGkqgib.s:2682   .text:0000000000000ce0 .L0 
     /tmp/ccGkqgib.s:2685   .text:0000000000000ce4 .L0 
     /tmp/ccGkqgib.s:2686   .text:0000000000000ce4 .L0 
     /tmp/ccGkqgib.s:2687   .text:0000000000000ce4 .L0 
     /tmp/ccGkqgib.s:2690   .text:0000000000000cec .L0 
     /tmp/ccGkqgib.s:2693   .text:0000000000000cf0 .L0 
     /tmp/ccGkqgib.s:2694   .text:0000000000000cf0 .L0 
     /tmp/ccGkqgib.s:2695   .text:0000000000000cf0 .L0 
     /tmp/ccGkqgib.s:2698   .text:0000000000000cf8 .L0 
     /tmp/ccGkqgib.s:2701   .text:0000000000000cfc .L0 
     /tmp/ccGkqgib.s:2702   .text:0000000000000cfc .L0 
     /tmp/ccGkqgib.s:2703   .text:0000000000000cfc .L0 
     /tmp/ccGkqgib.s:2706   .text:0000000000000d04 .L0 
     /tmp/ccGkqgib.s:2709   .text:0000000000000d08 .L0 
     /tmp/ccGkqgib.s:2710   .text:0000000000000d08 .L0 
     /tmp/ccGkqgib.s:2711   .text:0000000000000d08 .L0 
     /tmp/ccGkqgib.s:2714   .text:0000000000000d10 .L0 
     /tmp/ccGkqgib.s:2717   .text:0000000000000d14 .L0 
     /tmp/ccGkqgib.s:2718   .text:0000000000000d14 .L0 
     /tmp/ccGkqgib.s:2719   .text:0000000000000d14 .L0 
     /tmp/ccGkqgib.s:2722   .text:0000000000000d1c .L0 
     /tmp/ccGkqgib.s:2725   .text:0000000000000d20 .L0 
GAS LISTING /tmp/ccGkqgib.s 			page 102


     /tmp/ccGkqgib.s:2726   .text:0000000000000d20 .L0 
     /tmp/ccGkqgib.s:2727   .text:0000000000000d20 .L0 
     /tmp/ccGkqgib.s:2730   .text:0000000000000d28 .L0 
     /tmp/ccGkqgib.s:2733   .text:0000000000000d2c .L0 
     /tmp/ccGkqgib.s:2734   .text:0000000000000d2c .L0 
     /tmp/ccGkqgib.s:2735   .text:0000000000000d2c .L0 
     /tmp/ccGkqgib.s:2738   .text:0000000000000d34 .L0 
     /tmp/ccGkqgib.s:2741   .text:0000000000000d38 .L0 
     /tmp/ccGkqgib.s:2742   .text:0000000000000d38 .L0 
     /tmp/ccGkqgib.s:2743   .text:0000000000000d38 .L0 
     /tmp/ccGkqgib.s:2746   .text:0000000000000d40 .L0 
     /tmp/ccGkqgib.s:2749   .text:0000000000000d44 .L0 
     /tmp/ccGkqgib.s:2750   .text:0000000000000d44 .L0 
       src/riscv.cpp:77     .text:0000000000000d44 .L0 
     /tmp/ccGkqgib.s:2759   .text:0000000000000d54 .L0 
     /tmp/ccGkqgib.s:2760   .text:0000000000000d54 .L0 
     /tmp/ccGkqgib.s:2763   .text:0000000000000d5c .L0 
     /tmp/ccGkqgib.s:2764   .text:0000000000000d5c .L0 
     /tmp/ccGkqgib.s:2767   .text:0000000000000d64 .L0 
     /tmp/ccGkqgib.s:2775   .text:0000000000000d68 .L0 
     /tmp/ccGkqgib.s:2776   .text:0000000000000d68 .L0 
     /tmp/ccGkqgib.s:2777   .text:0000000000000d68 .L0 
  src/../h/riscv.hpp:163    .text:0000000000000d68 .L0 
     /tmp/ccGkqgib.s:2787   .text:0000000000000d6c .L0 
     /tmp/ccGkqgib.s:2788   .text:0000000000000d6c .L0 
     /tmp/ccGkqgib.s:2792   .text:0000000000000d70 .L0 
     /tmp/ccGkqgib.s:2793   .text:0000000000000d70 .L0 
     /tmp/ccGkqgib.s:2794   .text:0000000000000d70 .L0 
  src/../h/riscv.hpp:143    .text:0000000000000d70 .L0 
     /tmp/ccGkqgib.s:2804   .text:0000000000000d74 .L0 
     /tmp/ccGkqgib.s:2805   .text:0000000000000d74 .L0 
     /tmp/ccGkqgib.s:2810   .text:0000000000000d78 .L0 
     /tmp/ccGkqgib.s:2811   .text:0000000000000d78 .L0 
     /tmp/ccGkqgib.s:2812   .text:0000000000000d78 .L0 
     /tmp/ccGkqgib.s:2822   .text:0000000000000d80 .L0 
     /tmp/ccGkqgib.s:2823   .text:0000000000000d80 .L0 
     /tmp/ccGkqgib.s:2828   .text:0000000000000d94 .L0 
     /tmp/ccGkqgib.s:2829   .text:0000000000000d94 .L0 
     /tmp/ccGkqgib.s:2832   .text:0000000000000d9c .L0 
     /tmp/ccGkqgib.s:2833   .text:0000000000000d9c .L0 
     /tmp/ccGkqgib.s:2839   .text:0000000000000db0 .L0 
     /tmp/ccGkqgib.s:2840   .text:0000000000000db0 .L0 
     /tmp/ccGkqgib.s:2844   .text:0000000000000dc0 .L0 
     /tmp/ccGkqgib.s:2848   .text:0000000000000dc4 .L0 
     /tmp/ccGkqgib.s:2849   .text:0000000000000dc4 .L0 
     /tmp/ccGkqgib.s:2854   .text:0000000000000dc8 .L0 
  src/../h/riscv.hpp:158    .text:0000000000000dc8 .L0 
     /tmp/ccGkqgib.s:2864   .text:0000000000000dcc .L0 
     /tmp/ccGkqgib.s:2865   .text:0000000000000dcc .L0 
     /tmp/ccGkqgib.s:2870   .text:0000000000000dd0 .L0 
  src/../h/riscv.hpp:148    .text:0000000000000dd0 .L0 
     /tmp/ccGkqgib.s:2877   .text:0000000000000dd4 .L0 
     /tmp/ccGkqgib.s:2885   .text:0000000000000dd8 .L0 
     /tmp/ccGkqgib.s:2886   .text:0000000000000dd8 .L0 
     /tmp/ccGkqgib.s:2890   .text:0000000000000de4 .L0 
     /tmp/ccGkqgib.s:2891   .text:0000000000000de4 .L0 
     /tmp/ccGkqgib.s:2892   .text:0000000000000de4 .L0 
GAS LISTING /tmp/ccGkqgib.s 			page 103


     /tmp/ccGkqgib.s:2895   .text:0000000000000dec .L0 
     /tmp/ccGkqgib.s:2896   .text:0000000000000dec .L0 
     /tmp/ccGkqgib.s:2908   .text:0000000000000df8 .L0 
     /tmp/ccGkqgib.s:2909   .text:0000000000000df8 .L0 
     /tmp/ccGkqgib.s:2910   .text:0000000000000df8 .L0 
  src/../h/riscv.hpp:163    .text:0000000000000df8 .L0 
     /tmp/ccGkqgib.s:2920   .text:0000000000000dfc .L0 
     /tmp/ccGkqgib.s:2921   .text:0000000000000dfc .L0 
     /tmp/ccGkqgib.s:2925   .text:0000000000000e00 .L0 
     /tmp/ccGkqgib.s:2926   .text:0000000000000e00 .L0 
     /tmp/ccGkqgib.s:2927   .text:0000000000000e00 .L0 
  src/../h/riscv.hpp:143    .text:0000000000000e00 .L0 
     /tmp/ccGkqgib.s:2937   .text:0000000000000e04 .L0 
     /tmp/ccGkqgib.s:2938   .text:0000000000000e04 .L0 
     /tmp/ccGkqgib.s:2940   .text:0000000000000e08 .L0 
     /tmp/ccGkqgib.s:2941   .text:0000000000000e08 .L0 
     /tmp/ccGkqgib.s:2945   .text:0000000000000e14 .L0 
       src/riscv.cpp:132    .text:0000000000000e14 .L0 
     /tmp/ccGkqgib.s:2951   .text:0000000000000e18 .L0 
       src/riscv.cpp:133    .text:0000000000000e18 .L0 
     /tmp/ccGkqgib.s:2956   .text:0000000000000e1c .L0 
       src/riscv.cpp:134    .text:0000000000000e1c .L0 
     /tmp/ccGkqgib.s:2964   .text:0000000000000e20 .L0 
     /tmp/ccGkqgib.s:2965   .text:0000000000000e20 .L0 
     /tmp/ccGkqgib.s:2968   .text:0000000000000e24 .L0 
     /tmp/ccGkqgib.s:2971   .text:0000000000000e28 .L0 
     /tmp/ccGkqgib.s:2972   .text:0000000000000e28 .L0 
     /tmp/ccGkqgib.s:2973   .text:0000000000000e28 .L0 
     /tmp/ccGkqgib.s:2974   .text:0000000000000e28 .L0 
     /tmp/ccGkqgib.s:2978   .text:0000000000000e34 .L0 
       src/riscv.cpp:143    .text:0000000000000e34 .L0 
     /tmp/ccGkqgib.s:2984   .text:0000000000000e38 .L0 
       src/riscv.cpp:144    .text:0000000000000e38 .L0 
     /tmp/ccGkqgib.s:2989   .text:0000000000000e3c .L0 
       src/riscv.cpp:145    .text:0000000000000e3c .L0 
     /tmp/ccGkqgib.s:2997   .text:0000000000000e44 .L0 
     /tmp/ccGkqgib.s:2998   .text:0000000000000e44 .L0 
     /tmp/ccGkqgib.s:3002   .text:0000000000000e50 .L0 
     /tmp/ccGkqgib.s:3008   .text:0000000000000e54 .L0 
     /tmp/ccGkqgib.s:3009   .text:0000000000000e54 .L0 
     /tmp/ccGkqgib.s:3014   .text:0000000000000e64 .L0 
     /tmp/ccGkqgib.s:3015   .text:0000000000000e64 .L0 
     /tmp/ccGkqgib.s:3020   .text:0000000000000e68 .L0 
  src/../h/riscv.hpp:158    .text:0000000000000e68 .L0 
     /tmp/ccGkqgib.s:3030   .text:0000000000000e6c .L0 
     /tmp/ccGkqgib.s:3031   .text:0000000000000e6c .L0 
     /tmp/ccGkqgib.s:3036   .text:0000000000000e70 .L0 
  src/../h/riscv.hpp:148    .text:0000000000000e70 .L0 
     /tmp/ccGkqgib.s:3043   .text:0000000000000e74 .L0 
     /tmp/ccGkqgib.s:3051   .text:0000000000000e78 .L0 
     /tmp/ccGkqgib.s:3052   .text:0000000000000e78 .L0 
     /tmp/ccGkqgib.s:3056   .text:0000000000000e88 .L0 
     /tmp/ccGkqgib.s:3057   .text:0000000000000e88 .L0 
     /tmp/ccGkqgib.s:3068   .text:0000000000000e94 .L0 
     /tmp/ccGkqgib.s:3069   .text:0000000000000e94 .L0 
     /tmp/ccGkqgib.s:3073   .text:0000000000000ea0 .L0 
     /tmp/ccGkqgib.s:3074   .text:0000000000000ea0 .L0 
GAS LISTING /tmp/ccGkqgib.s 			page 104


     /tmp/ccGkqgib.s:3077   .text:0000000000000ea8 .L0 
     /tmp/ccGkqgib.s:3078   .text:0000000000000ea8 .L0 
     /tmp/ccGkqgib.s:3084   .text:0000000000000eb8 .L0 
     /tmp/ccGkqgib.s:3085   .text:0000000000000eb8 .L0 
     /tmp/ccGkqgib.s:3086   .text:0000000000000eb8 .L0 
  src/../h/riscv.hpp:143    .text:0000000000000eb8 .L0 
     /tmp/ccGkqgib.s:3095   .text:0000000000000ebc .L0 
     /tmp/ccGkqgib.s:3096   .text:0000000000000ebc .L0 
     /tmp/ccGkqgib.s:3097   .text:0000000000000ebc .L0 
     /tmp/ccGkqgib.s:3103   .text:0000000000000ed0 .L0 
     /tmp/ccGkqgib.s:3104   .text:0000000000000ed0 .L0 
     /tmp/ccGkqgib.s:3108   .text:0000000000000ee0 .L0 
     /tmp/ccGkqgib.s:3109   .text:0000000000000ee0 .L0 
     /tmp/ccGkqgib.s:3113   .text:0000000000000ef0 .L0 
     /tmp/ccGkqgib.s:3114   .text:0000000000000ef0 .L0 
     /tmp/ccGkqgib.s:3122   .text:0000000000000efc .L0 
     /tmp/ccGkqgib.s:3132   .bss:0000000000000000 _ZN5RiscV16userMainFinishedE
     /tmp/ccGkqgib.s:3137   .bss:0000000000000008 _ZN5RiscV10globalTimeE
     /tmp/ccGkqgib.s:3129   .bss:0000000000000000 .LANCHOR0
     /tmp/ccGkqgib.s:3149   .text:0000000000000efc .L0 
     /tmp/ccGkqgib.s:24     .text:0000000000000010 .L0 
     /tmp/ccGkqgib.s:171    .text:0000000000000098 .L0 
     /tmp/ccGkqgib.s:211    .text:00000000000000d4 .L0 
     /tmp/ccGkqgib.s:216    .text:00000000000000e0 .L0 
     /tmp/ccGkqgib.s:279    .text:0000000000000130 .L0 
     /tmp/ccGkqgib.s:316    .text:000000000000015c .L0 
     /tmp/ccGkqgib.s:343    .text:0000000000000178 .L0 
     /tmp/ccGkqgib.s:350    .text:000000000000018c .L0 
     /tmp/ccGkqgib.s:374    .text:00000000000001a8 .L0 
     /tmp/ccGkqgib.s:443    .text:00000000000001f4 .L0 
     /tmp/ccGkqgib.s:446    .text:00000000000001fc .L0 
     /tmp/ccGkqgib.s:450    .text:0000000000000208 .L0 
     /tmp/ccGkqgib.s:503    .text:0000000000000224 .L0 
     /tmp/ccGkqgib.s:510    .text:0000000000000238 .L0 
     /tmp/ccGkqgib.s:517    .text:0000000000000248 .L0 
     /tmp/ccGkqgib.s:524    .text:000000000000025c .L0 
     /tmp/ccGkqgib.s:526    .text:0000000000000268 .L0 
     /tmp/ccGkqgib.s:571    .text:00000000000002a4 .L0 
     /tmp/ccGkqgib.s:668    .text:0000000000000314 .L0 
     /tmp/ccGkqgib.s:1137   .text:0000000000000550 .L0 
     /tmp/ccGkqgib.s:1425   .text:00000000000006a8 .L0 
     /tmp/ccGkqgib.s:1563   .text:0000000000000750 .L0 
     /tmp/ccGkqgib.s:1568   .text:000000000000075c .L0 
     /tmp/ccGkqgib.s:1635   .text:00000000000007c4 .L0 
     /tmp/ccGkqgib.s:1640   .text:00000000000007d0 .L0 
     /tmp/ccGkqgib.s:1936   .text:0000000000000974 .L0 
     /tmp/ccGkqgib.s:1966   .text:00000000000009c0 .L0 
     /tmp/ccGkqgib.s:1971   .text:00000000000009d0 .L0 
     /tmp/ccGkqgib.s:1976   .text:00000000000009e0 .L0 
     /tmp/ccGkqgib.s:2169   .text:0000000000000ab0 .L0 
     /tmp/ccGkqgib.s:2237   .text:0000000000000ae8 .L0 
     /tmp/ccGkqgib.s:2192   .rodata.str1.8:0000000000000038 .LC3
     /tmp/ccGkqgib.s:2298   .text:0000000000000b48 .L0 
     /tmp/ccGkqgib.s:2195   .rodata.str1.8:0000000000000048 .LC4
     /tmp/ccGkqgib.s:2303   .text:0000000000000b58 .L0 
     /tmp/ccGkqgib.s:2183   .rodata.str1.8:0000000000000000 .LC0
     /tmp/ccGkqgib.s:2334   .text:0000000000000b88 .L0 
GAS LISTING /tmp/ccGkqgib.s 			page 105


     /tmp/ccGkqgib.s:2186   .rodata.str1.8:0000000000000008 .LC1
     /tmp/ccGkqgib.s:2360   .text:0000000000000bb0 .L0 
     /tmp/ccGkqgib.s:2365   .text:0000000000000bc0 .L0 
     /tmp/ccGkqgib.s:2198   .rodata.str1.8:0000000000000058 .LC5
     /tmp/ccGkqgib.s:2374   .text:0000000000000bd4 .L0 
     /tmp/ccGkqgib.s:2426   .text:0000000000000c04 .L0 
     /tmp/ccGkqgib.s:2457   .rodata:0000000000000000 .L117
     /tmp/ccGkqgib.s:2449   .text:0000000000000c30 .L0 
     /tmp/ccGkqgib.s:2567   .text:0000000000000c50 .L0 
     /tmp/ccGkqgib.s:2756   .text:0000000000000d48 .L0 
     /tmp/ccGkqgib.s:2823   .text:0000000000000d80 .L0 
     /tmp/ccGkqgib.s:2833   .text:0000000000000d9c .L0 
     /tmp/ccGkqgib.s:2840   .text:0000000000000db0 .L0 
     /tmp/ccGkqgib.s:2886   .text:0000000000000dd8 .L0 
     /tmp/ccGkqgib.s:2941   .text:0000000000000e08 .L0 
     /tmp/ccGkqgib.s:2974   .text:0000000000000e28 .L0 
     /tmp/ccGkqgib.s:2998   .text:0000000000000e44 .L0 
     /tmp/ccGkqgib.s:3053   .text:0000000000000e7c .L0 
     /tmp/ccGkqgib.s:3069   .text:0000000000000e94 .L0 
     /tmp/ccGkqgib.s:3078   .text:0000000000000ea8 .L0 
     /tmp/ccGkqgib.s:3104   .text:0000000000000ed0 .L0 
     /tmp/ccGkqgib.s:2189   .rodata.str1.8:0000000000000010 .LC2
     /tmp/ccGkqgib.s:3109   .text:0000000000000ee0 .L0 
     /tmp/ccGkqgib.s:220    .text:00000000000000f4 .L8
     /tmp/ccGkqgib.s:272    .text:0000000000000130 .L11
     /tmp/ccGkqgib.s:265    .text:0000000000000128 .L12
     /tmp/ccGkqgib.s:404    .text:00000000000001d4 .L19
     /tmp/ccGkqgib.s:393    .text:00000000000001c8 .L15
     /tmp/ccGkqgib.s:514    .text:0000000000000248 .L21
     /tmp/ccGkqgib.s:495    .text:0000000000000224 .L22
     /tmp/ccGkqgib.s:535    .text:0000000000000284 .L20
     /tmp/ccGkqgib.s:521    .text:000000000000025c .L24
     /tmp/ccGkqgib.s:696    .text:0000000000000344 .L34
     /tmp/ccGkqgib.s:673    .text:0000000000000328 .L31
     /tmp/ccGkqgib.s:839    .text:0000000000000400 .L39
     /tmp/ccGkqgib.s:797    .text:00000000000003c8 .L37
     /tmp/ccGkqgib.s:803    .text:00000000000003d0 .L36
     /tmp/ccGkqgib.s:1004   .text:00000000000004c4 .L46
     /tmp/ccGkqgib.s:966    .text:0000000000000494 .L44
     /tmp/ccGkqgib.s:1097   .text:0000000000000520 .L54
     /tmp/ccGkqgib.s:1074   .text:0000000000000504 .L51
     /tmp/ccGkqgib.s:1180   .text:0000000000000590 .L57
     /tmp/ccGkqgib.s:1156   .text:0000000000000574 .L56
     /tmp/ccGkqgib.s:1280   .text:000000000000060c .L62
     /tmp/ccGkqgib.s:1248   .text:00000000000005e4 .L60
     /tmp/ccGkqgib.s:1378   .text:0000000000000670 .L70
     /tmp/ccGkqgib.s:1351   .text:0000000000000650 .L67
     /tmp/ccGkqgib.s:1456   .text:00000000000006dc .L76
     /tmp/ccGkqgib.s:1464   .text:00000000000006e8 .L74
     /tmp/ccGkqgib.s:1422   .text:00000000000006a8 .L72
     /tmp/ccGkqgib.s:1432   .text:00000000000006c0 .L73
     /tmp/ccGkqgib.s:1524   .text:0000000000000728 .L81
     /tmp/ccGkqgib.s:1501   .text:000000000000070c .L78
     /tmp/ccGkqgib.s:1644   .text:00000000000007e4 .L85
     /tmp/ccGkqgib.s:1683   .text:0000000000000820 .L89
     /tmp/ccGkqgib.s:1698   .text:000000000000083c .L90
     /tmp/ccGkqgib.s:1658   .text:0000000000000800 .L87
GAS LISTING /tmp/ccGkqgib.s 			page 106


     /tmp/ccGkqgib.s:1812   .text:00000000000008c4 .L97
     /tmp/ccGkqgib.s:1782   .text:00000000000008a0 .L94
     /tmp/ccGkqgib.s:1891   .text:0000000000000930 .L101
     /tmp/ccGkqgib.s:1863   .text:000000000000090c .L99
     /tmp/ccGkqgib.s:2095   .text:0000000000000a78 .L105
     /tmp/ccGkqgib.s:2065   .text:0000000000000a54 .L103
     /tmp/ccGkqgib.s:2382   .text:0000000000000bf0 .L112
     /tmp/ccGkqgib.s:2768   .text:0000000000000d68 .L142
     /tmp/ccGkqgib.s:2900   .text:0000000000000df8 .L143
     /tmp/ccGkqgib.s:3061   .text:0000000000000e94 .L144
     /tmp/ccGkqgib.s:2597   .text:0000000000000c6c .L135
     /tmp/ccGkqgib.s:2564   .text:0000000000000c50 .L115
     /tmp/ccGkqgib.s:2879   .text:0000000000000dd8 .L145
     /tmp/ccGkqgib.s:2845   .text:0000000000000dc4 .L136
     /tmp/ccGkqgib.s:3004   .text:0000000000000e54 .L138
     /tmp/ccGkqgib.s:3045   .text:0000000000000e78 .L146
     /tmp/ccGkqgib.s:769    .text:000000000000038c .LEHB0
     /tmp/ccGkqgib.s:719    .text:0000000000000354 .LFB38
     /tmp/ccGkqgib.s:772    .text:0000000000000394 .LEHE0
     /tmp/ccGkqgib.s:778    .text:00000000000003a8 .LEHB1
     /tmp/ccGkqgib.s:781    .text:00000000000003b0 .LEHE1
     /tmp/ccGkqgib.s:845    .text:0000000000000408 .L40
     /tmp/ccGkqgib.s:793    .text:00000000000003c0 .LEHB2
     /tmp/ccGkqgib.s:796    .text:00000000000003c8 .LEHE2
     /tmp/ccGkqgib.s:852    .text:000000000000041c .LEHB3
     /tmp/ccGkqgib.s:855    .text:0000000000000424 .LEHE3
     /tmp/ccGkqgib.s:939    .text:000000000000045c .LEHB4
     /tmp/ccGkqgib.s:887    .text:0000000000000424 .LFB39
     /tmp/ccGkqgib.s:942    .text:0000000000000464 .LEHE4
     /tmp/ccGkqgib.s:948    .text:0000000000000478 .LEHB5
     /tmp/ccGkqgib.s:951    .text:0000000000000480 .LEHE5
     /tmp/ccGkqgib.s:1010   .text:00000000000004cc .L47
     /tmp/ccGkqgib.s:1017   .text:00000000000004e0 .LEHB6
     /tmp/ccGkqgib.s:1020   .text:00000000000004e8 .LEHE6
     /tmp/ccGkqgib.s:1230   .text:00000000000005c0 .LEHB7
     /tmp/ccGkqgib.s:1194   .text:0000000000000598 .LFB43
     /tmp/ccGkqgib.s:1233   .text:00000000000005c8 .LEHE7
     /tmp/ccGkqgib.s:1236   .text:00000000000005d0 .LEHB8
     /tmp/ccGkqgib.s:1239   .text:00000000000005d8 .LEHE8
     /tmp/ccGkqgib.s:1286   .text:0000000000000614 .L63
     /tmp/ccGkqgib.s:1293   .text:0000000000000628 .LEHB9
     /tmp/ccGkqgib.s:1296   .text:0000000000000630 .LEHE9
     /tmp/ccGkqgib.s:1929   .text:0000000000000968 .LEHB10
     /tmp/ccGkqgib.s:1909   .text:000000000000094c .LFB57
     /tmp/ccGkqgib.s:1949   .text:00000000000009a0 .LEHE10
     /tmp/ccGkqgib.s:1955   .text:00000000000009b4 .LEHB11
     /tmp/ccGkqgib.s:1958   .text:00000000000009bc .LEHE11
     /tmp/ccGkqgib.s:2103   .text:0000000000000a80 .L106
     /tmp/ccGkqgib.s:2060   .text:0000000000000a4c .LEHB12
     /tmp/ccGkqgib.s:2063   .text:0000000000000a54 .LEHE12
     /tmp/ccGkqgib.s:2112   .text:0000000000000a94 .LEHB13
     /tmp/ccGkqgib.s:2115   .text:0000000000000a9c .LEHE13
     /tmp/ccGkqgib.s:2557   .text:0000000000000c48 .L134
     /tmp/ccGkqgib.s:2616   .text:0000000000000c84 .L133
     /tmp/ccGkqgib.s:2627   .text:0000000000000c90 .L132
     /tmp/ccGkqgib.s:2635   .text:0000000000000c9c .L131
     /tmp/ccGkqgib.s:2643   .text:0000000000000ca8 .L130
GAS LISTING /tmp/ccGkqgib.s 			page 107


     /tmp/ccGkqgib.s:2651   .text:0000000000000cb4 .L129
     /tmp/ccGkqgib.s:2659   .text:0000000000000cc0 .L128
     /tmp/ccGkqgib.s:2667   .text:0000000000000ccc .L127
     /tmp/ccGkqgib.s:2675   .text:0000000000000cd8 .L126
     /tmp/ccGkqgib.s:2683   .text:0000000000000ce4 .L125
     /tmp/ccGkqgib.s:2691   .text:0000000000000cf0 .L124
     /tmp/ccGkqgib.s:2699   .text:0000000000000cfc .L123
     /tmp/ccGkqgib.s:2707   .text:0000000000000d08 .L122
     /tmp/ccGkqgib.s:2715   .text:0000000000000d14 .L121
     /tmp/ccGkqgib.s:2723   .text:0000000000000d20 .L120
     /tmp/ccGkqgib.s:2731   .text:0000000000000d2c .L119
     /tmp/ccGkqgib.s:2739   .text:0000000000000d38 .L118
     /tmp/ccGkqgib.s:2747   .text:0000000000000d44 .L116
     /tmp/ccGkqgib.s:6732   .debug_abbrev:0000000000000000 .Ldebug_abbrev0
     /tmp/ccGkqgib.s:9169   .debug_str:0000000000000f43 .LASF277
     /tmp/ccGkqgib.s:9253   .debug_str:0000000000001265 .LASF278
     /tmp/ccGkqgib.s:8751   .debug_str:000000000000010a .LASF279
     /tmp/ccGkqgib.s:5      .text:0000000000000000 .Ltext0
     /tmp/ccGkqgib.s:3140   .text:0000000000000efc .Letext0
     /tmp/ccGkqgib.s:8713   .debug_line:0000000000000000 .Ldebug_line0
     /tmp/ccGkqgib.s:8901   .debug_str:0000000000000616 .LASF0
     /tmp/ccGkqgib.s:8941   .debug_str:0000000000000772 .LASF1
     /tmp/ccGkqgib.s:9083   .debug_str:0000000000000c6e .LASF2
     /tmp/ccGkqgib.s:9093   .debug_str:0000000000000cc7 .LASF4
     /tmp/ccGkqgib.s:8919   .debug_str:000000000000068e .LASF3
     /tmp/ccGkqgib.s:8729   .debug_str:000000000000009c .LASF5
     /tmp/ccGkqgib.s:9023   .debug_str:0000000000000a5f .LASF6
     /tmp/ccGkqgib.s:8927   .debug_str:00000000000006ca .LASF7
     /tmp/ccGkqgib.s:8867   .debug_str:00000000000004cb .LASF8
     /tmp/ccGkqgib.s:8881   .debug_str:0000000000000579 .LASF9
     /tmp/ccGkqgib.s:8781   .debug_str:000000000000020e .LASF10
     /tmp/ccGkqgib.s:8855   .debug_str:0000000000000474 .LASF11
     /tmp/ccGkqgib.s:8801   .debug_str:00000000000002ea .LASF12
     /tmp/ccGkqgib.s:8779   .debug_str:00000000000001fe .LASF13
     /tmp/ccGkqgib.s:9139   .debug_str:0000000000000e8c .LASF14
     /tmp/ccGkqgib.s:8837   .debug_str:00000000000003fc .LASF15
     /tmp/ccGkqgib.s:9123   .debug_str:0000000000000ddc .LASF16
     /tmp/ccGkqgib.s:9201   .debug_str:0000000000001115 .LASF122
     /tmp/ccGkqgib.s:9215   .debug_str:000000000000116f .LASF20
     /tmp/ccGkqgib.s:8845   .debug_str:0000000000000447 .LASF17
     /tmp/ccGkqgib.s:9167   .debug_str:0000000000000f36 .LASF18
     /tmp/ccGkqgib.s:8821   .debug_str:000000000000039c .LASF19
     /tmp/ccGkqgib.s:9059   .debug_str:0000000000000bb7 .LASF21
     /tmp/ccGkqgib.s:8931   .debug_str:00000000000006fa .LASF22
     /tmp/ccGkqgib.s:8833   .debug_str:00000000000003e6 .LASF23
     /tmp/ccGkqgib.s:9243   .debug_str:0000000000001224 .LASF24
     /tmp/ccGkqgib.s:8877   .debug_str:0000000000000556 .LASF25
     /tmp/ccGkqgib.s:9161   .debug_str:0000000000000f0c .LASF26
     /tmp/ccGkqgib.s:9103   .debug_str:0000000000000d24 .LASF27
     /tmp/ccGkqgib.s:8803   .debug_str:00000000000002fa .LASF29
     /tmp/ccGkqgib.s:9057   .debug_str:0000000000000ba1 .LASF28
     /tmp/ccGkqgib.s:8767   .debug_str:000000000000019e .LASF30
     /tmp/ccGkqgib.s:9129   .debug_str:0000000000000e32 .LASF31
     /tmp/ccGkqgib.s:9147   .debug_str:0000000000000eb5 .LASF32
     /tmp/ccGkqgib.s:9027   .debug_str:0000000000000a9d .LASF33
     /tmp/ccGkqgib.s:8967   .debug_str:0000000000000854 .LASF34
     /tmp/ccGkqgib.s:8929   .debug_str:00000000000006dd .LASF35
GAS LISTING /tmp/ccGkqgib.s 			page 108


     /tmp/ccGkqgib.s:8717   .debug_str:0000000000000017 .LASF36
     /tmp/ccGkqgib.s:9177   .debug_str:0000000000001023 .LASF37
     /tmp/ccGkqgib.s:8899   .debug_str:00000000000005ea .LASF38
     /tmp/ccGkqgib.s:9061   .debug_str:0000000000000bc2 .LASF39
     /tmp/ccGkqgib.s:8869   .debug_str:00000000000004db .LASF40
     /tmp/ccGkqgib.s:9049   .debug_str:0000000000000b47 .LASF41
     /tmp/ccGkqgib.s:9021   .debug_str:0000000000000a3c .LASF42
     /tmp/ccGkqgib.s:8715   .debug_str:0000000000000000 .LASF43
     /tmp/ccGkqgib.s:9277   .debug_str:000000000000132a .LASF44
     /tmp/ccGkqgib.s:8953   .debug_str:00000000000007c7 .LASF45
     /tmp/ccGkqgib.s:9293   .debug_str:00000000000013aa .LASF46
     /tmp/ccGkqgib.s:9235   .debug_str:00000000000011ed .LASF47
     /tmp/ccGkqgib.s:8873   .debug_str:0000000000000525 .LASF48
     /tmp/ccGkqgib.s:8839   .debug_str:0000000000000412 .LASF49
     /tmp/ccGkqgib.s:9255   .debug_str:0000000000001273 .LASF50
     /tmp/ccGkqgib.s:9121   .debug_str:0000000000000dc9 .LASF51
     /tmp/ccGkqgib.s:8913   .debug_str:0000000000000664 .LASF52
     /tmp/ccGkqgib.s:8949   .debug_str:00000000000007ac .LASF53
     /tmp/ccGkqgib.s:9191   .debug_str:000000000000109d .LASF54
     /tmp/ccGkqgib.s:8743   .debug_str:00000000000000dd .LASF55
     /tmp/ccGkqgib.s:8957   .debug_str:00000000000007ff .LASF56
     /tmp/ccGkqgib.s:9105   .debug_str:0000000000000d3b .LASF57
     /tmp/ccGkqgib.s:8863   .debug_str:000000000000049b .LASF58
     /tmp/ccGkqgib.s:9289   .debug_str:0000000000001388 .LASF59
     /tmp/ccGkqgib.s:8933   .debug_str:0000000000000703 .LASF60
     /tmp/ccGkqgib.s:9227   .debug_str:00000000000011bc .LASF61
     /tmp/ccGkqgib.s:8753   .debug_str:000000000000013b .LASF62
     /tmp/ccGkqgib.s:8961   .debug_str:000000000000082e .LASF63
     /tmp/ccGkqgib.s:9181   .debug_str:000000000000104c .LASF65
     /tmp/ccGkqgib.s:9207   .debug_str:000000000000113c .LASF67
     /tmp/ccGkqgib.s:9269   .debug_str:00000000000012ea .LASF69
     /tmp/ccGkqgib.s:9079   .debug_str:0000000000000c5a .LASF64
     /tmp/ccGkqgib.s:9271   .debug_str:00000000000012ff .LASF66
     /tmp/ccGkqgib.s:9219   .debug_str:000000000000118a .LASF68
     /tmp/ccGkqgib.s:8939   .debug_str:000000000000075f .LASF70
     /tmp/ccGkqgib.s:8995   .debug_str:0000000000000965 .LASF71
     /tmp/ccGkqgib.s:8809   .debug_str:0000000000000347 .LASF72
     /tmp/ccGkqgib.s:9251   .debug_str:000000000000125d .LASF73
     /tmp/ccGkqgib.s:8963   .debug_str:000000000000083a .LASF74
     /tmp/ccGkqgib.s:8989   .debug_str:000000000000094f .LASF75
     /tmp/ccGkqgib.s:8815   .debug_str:000000000000036d .LASF76
     /tmp/ccGkqgib.s:9233   .debug_str:00000000000011e3 .LASF77
     /tmp/ccGkqgib.s:8937   .debug_str:0000000000000749 .LASF78
     /tmp/ccGkqgib.s:9229   .debug_str:00000000000011cf .LASF79
     /tmp/ccGkqgib.s:8841   .debug_str:000000000000042a .LASF80
     /tmp/ccGkqgib.s:8731   .debug_str:00000000000000a3 .LASF81
     /tmp/ccGkqgib.s:9183   .debug_str:0000000000001066 .LASF82
     /tmp/ccGkqgib.s:9081   .debug_str:0000000000000c63 .LASF83
     /tmp/ccGkqgib.s:8789   .debug_str:0000000000000278 .LASF84
     /tmp/ccGkqgib.s:9135   .debug_str:0000000000000e76 .LASF85
     /tmp/ccGkqgib.s:8799   .debug_str:00000000000002d7 .LASF86
     /tmp/ccGkqgib.s:9097   .debug_str:0000000000000ce6 .LASF87
     /tmp/ccGkqgib.s:8981   .debug_str:00000000000008f1 .LASF88
     /tmp/ccGkqgib.s:9119   .debug_str:0000000000000dc2 .LASF89
     /tmp/ccGkqgib.s:8793   .debug_str:000000000000029c .LASF90
     /tmp/ccGkqgib.s:9085   .debug_str:0000000000000c7c .LASF91
     /tmp/ccGkqgib.s:9051   .debug_str:0000000000000b5d .LASF92
GAS LISTING /tmp/ccGkqgib.s 			page 109


     /tmp/ccGkqgib.s:9069   .debug_str:0000000000000c11 .LASF93
     /tmp/ccGkqgib.s:8925   .debug_str:00000000000006ac .LASF94
     /tmp/ccGkqgib.s:8795   .debug_str:00000000000002af .LASF95
     /tmp/ccGkqgib.s:9025   .debug_str:0000000000000a72 .LASF96
     /tmp/ccGkqgib.s:8889   .debug_str:000000000000059c .LASF97
     /tmp/ccGkqgib.s:8983   .debug_str:0000000000000904 .LASF98
     /tmp/ccGkqgib.s:9153   .debug_str:0000000000000ef0 .LASF99
     /tmp/ccGkqgib.s:9133   .debug_str:0000000000000e64 .LASF100
     /tmp/ccGkqgib.s:9249   .debug_str:000000000000124e .LASF101
     /tmp/ccGkqgib.s:9203   .debug_str:000000000000111b .LASF102
     /tmp/ccGkqgib.s:9031   .debug_str:0000000000000ac0 .LASF103
     /tmp/ccGkqgib.s:8805   .debug_str:000000000000031e .LASF104
     /tmp/ccGkqgib.s:8777   .debug_str:00000000000001ed .LASF105
     /tmp/ccGkqgib.s:9053   .debug_str:0000000000000b70 .LASF106
     /tmp/ccGkqgib.s:8727   .debug_str:000000000000008a .LASF107
     /tmp/ccGkqgib.s:9195   .debug_str:00000000000010d5 .LASF108
     /tmp/ccGkqgib.s:9111   .debug_str:0000000000000d68 .LASF109
     /tmp/ccGkqgib.s:9099   .debug_str:0000000000000ced .LASF110
     /tmp/ccGkqgib.s:9283   .debug_str:000000000000135b .LASF111
     /tmp/ccGkqgib.s:9297   .debug_str:00000000000013f1 .LASF112
     /tmp/ccGkqgib.s:9067   .debug_str:0000000000000bfb .LASF113
     /tmp/ccGkqgib.s:9115   .debug_str:0000000000000d94 .LASF114
     /tmp/ccGkqgib.s:8829   .debug_str:00000000000003c1 .LASF115
     /tmp/ccGkqgib.s:9001   .debug_str:0000000000000980 .LASF116
     /tmp/ccGkqgib.s:9117   .debug_str:0000000000000db7 .LASF117
     /tmp/ccGkqgib.s:9095   .debug_str:0000000000000cce .LASF118
     /tmp/ccGkqgib.s:8735   .debug_str:00000000000000b4 .LASF119
     /tmp/ccGkqgib.s:8775   .debug_str:00000000000001d8 .LASF120
     /tmp/ccGkqgib.s:9071   .debug_str:0000000000000c22 .LASF121
     /tmp/ccGkqgib.s:9015   .debug_str:0000000000000a09 .LASF123
     /tmp/ccGkqgib.s:9109   .debug_str:0000000000000d5c .LASF143
     /tmp/ccGkqgib.s:8811   .debug_str:000000000000035a .LASF124
     /tmp/ccGkqgib.s:8745   .debug_str:00000000000000f4 .LASF125
     /tmp/ccGkqgib.s:8783   .debug_str:000000000000021d .LASF126
     /tmp/ccGkqgib.s:9073   .debug_str:0000000000000c27 .LASF127
     /tmp/ccGkqgib.s:8771   .debug_str:00000000000001c6 .LASF128
     /tmp/ccGkqgib.s:8835   .debug_str:00000000000003ef .LASF129
     /tmp/ccGkqgib.s:9007   .debug_str:00000000000009b6 .LASF130
     /tmp/ccGkqgib.s:8897   .debug_str:00000000000005de .LASF131
     /tmp/ccGkqgib.s:8859   .debug_str:000000000000048d .LASF132
     /tmp/ccGkqgib.s:8969   .debug_str:000000000000087a .LASF134
     /tmp/ccGkqgib.s:8861   .debug_str:0000000000000495 .LASF133
     /tmp/ccGkqgib.s:9009   .debug_str:00000000000009c3 .LASF135
     /tmp/ccGkqgib.s:9065   .debug_str:0000000000000bec .LASF136
     /tmp/ccGkqgib.s:8785   .debug_str:0000000000000222 .LASF137
     /tmp/ccGkqgib.s:9127   .debug_str:0000000000000e0f .LASF138
     /tmp/ccGkqgib.s:9149   .debug_str:0000000000000edd .LASF139
     /tmp/ccGkqgib.s:8871   .debug_str:0000000000000502 .LASF140
     /tmp/ccGkqgib.s:8843   .debug_str:0000000000000440 .LASF141
     /tmp/ccGkqgib.s:9013   .debug_str:00000000000009e6 .LASF142
     /tmp/ccGkqgib.s:9151   .debug_str:0000000000000ee8 .LASF144
     /tmp/ccGkqgib.s:9275   .debug_str:0000000000001323 .LASF145
     /tmp/ccGkqgib.s:9107   .debug_str:0000000000000d54 .LASF146
     /tmp/ccGkqgib.s:8773   .debug_str:00000000000001d2 .LASF147
     /tmp/ccGkqgib.s:8763   .debug_str:0000000000000189 .LASF148
     /tmp/ccGkqgib.s:9035   .debug_str:0000000000000ae3 .LASF149
     /tmp/ccGkqgib.s:8883   .debug_str:0000000000000587 .LASF150
GAS LISTING /tmp/ccGkqgib.s 			page 110


     /tmp/ccGkqgib.s:8917   .debug_str:0000000000000689 .LASF151
     /tmp/ccGkqgib.s:8911   .debug_str:0000000000000659 .LASF152
     /tmp/ccGkqgib.s:8791   .debug_str:0000000000000290 .LASF153
     /tmp/ccGkqgib.s:9131   .debug_str:0000000000000e4d .LASF154
     /tmp/ccGkqgib.s:9011   .debug_str:00000000000009e1 .LASF155
     /tmp/ccGkqgib.s:9005   .debug_str:00000000000009b1 .LASF156
     /tmp/ccGkqgib.s:8725   .debug_str:000000000000007e .LASF157
     /tmp/ccGkqgib.s:8951   .debug_str:00000000000007bf .LASF158
     /tmp/ccGkqgib.s:9209   .debug_str:0000000000001145 .LASF159
     /tmp/ccGkqgib.s:9285   .debug_str:0000000000001375 .LASF160
     /tmp/ccGkqgib.s:8875   .debug_str:000000000000054a .LASF161
     /tmp/ccGkqgib.s:8721   .debug_str:0000000000000046 .LASF162
     /tmp/ccGkqgib.s:9003   .debug_str:00000000000009a4 .LASF163
     /tmp/ccGkqgib.s:9197   .debug_str:00000000000010f4 .LASF164
     /tmp/ccGkqgib.s:8819   .debug_str:000000000000038d .LASF165
     /tmp/ccGkqgib.s:8823   .debug_str:00000000000003a8 .LASF166
     /tmp/ccGkqgib.s:9055   .debug_str:0000000000000b8e .LASF167
     /tmp/ccGkqgib.s:8759   .debug_str:0000000000000169 .LASF168
     /tmp/ccGkqgib.s:9029   .debug_str:0000000000000ab6 .LASF169
     /tmp/ccGkqgib.s:8797   .debug_str:00000000000002cd .LASF170
     /tmp/ccGkqgib.s:8813   .debug_str:000000000000035f .LASF171
     /tmp/ccGkqgib.s:8723   .debug_str:0000000000000056 .LASF172
     /tmp/ccGkqgib.s:9217   .debug_str:000000000000117e .LASF173
     /tmp/ccGkqgib.s:9193   .debug_str:00000000000010bd .LASF174
     /tmp/ccGkqgib.s:9267   .debug_str:00000000000012e2 .LASF175
     /tmp/ccGkqgib.s:9225   .debug_str:00000000000011b5 .LASF176
     /tmp/ccGkqgib.s:9159   .debug_str:0000000000000f07 .LASF177
     /tmp/ccGkqgib.s:8719   .debug_str:0000000000000041 .LASF178
     /tmp/ccGkqgib.s:9281   .debug_str:0000000000001356 .LASF179
     /tmp/ccGkqgib.s:8965   .debug_str:000000000000084e .LASF180
     /tmp/ccGkqgib.s:9179   .debug_str:0000000000001042 .LASF181
     /tmp/ccGkqgib.s:9173   .debug_str:0000000000001013 .LASF182
     /tmp/ccGkqgib.s:9241   .debug_str:000000000000121c .LASF183
     /tmp/ccGkqgib.s:9187   .debug_str:000000000000108e .LASF184
     /tmp/ccGkqgib.s:8971   .debug_str:0000000000000899 .LASF185
     /tmp/ccGkqgib.s:9245   .debug_str:000000000000122d .LASF186
     /tmp/ccGkqgib.s:8747   .debug_str:00000000000000f9 .LASF187
     /tmp/ccGkqgib.s:9165   .debug_str:0000000000000f2e .LASF188
     /tmp/ccGkqgib.s:8827   .debug_str:00000000000003b6 .LASF189
     /tmp/ccGkqgib.s:9101   .debug_str:0000000000000d13 .LASF190
     /tmp/ccGkqgib.s:8905   .debug_str:000000000000062d .LASF191
     /tmp/ccGkqgib.s:8817   .debug_str:0000000000000381 .LASF192
     /tmp/ccGkqgib.s:8765   .debug_str:0000000000000192 .LASF193
     /tmp/ccGkqgib.s:9205   .debug_str:0000000000001137 .LASF194
     /tmp/ccGkqgib.s:8997   .debug_str:000000000000096c .LASF195
     /tmp/ccGkqgib.s:8825   .debug_str:00000000000003b1 .LASF196
     /tmp/ccGkqgib.s:9137   .debug_str:0000000000000e7d .LASF197
     /tmp/ccGkqgib.s:9143   .debug_str:0000000000000ea5 .LASF198
     /tmp/ccGkqgib.s:9017   .debug_str:0000000000000a19 .LASF199
     /tmp/ccGkqgib.s:9261   .debug_str:00000000000012b4 .LASF200
     /tmp/ccGkqgib.s:9041   .debug_str:0000000000000b03 .LASF201
     /tmp/ccGkqgib.s:9279   .debug_str:000000000000134e .LASF202
     /tmp/ccGkqgib.s:9259   .debug_str:00000000000012a2 .LASF203
     /tmp/ccGkqgib.s:9039   .debug_str:0000000000000af4 .LASF204
     /tmp/ccGkqgib.s:8787   .debug_str:000000000000025d .LASF205
     /tmp/ccGkqgib.s:9157   .debug_str:0000000000000efb .LASF206
     /tmp/ccGkqgib.s:9141   .debug_str:0000000000000e98 .LASF280
GAS LISTING /tmp/ccGkqgib.s 			page 111


     /tmp/ccGkqgib.s:8865   .debug_str:00000000000004c1 .LASF207
     /tmp/ccGkqgib.s:8893   .debug_str:00000000000005bc .LASF208
     /tmp/ccGkqgib.s:9231   .debug_str:00000000000011d9 .LASF209
     /tmp/ccGkqgib.s:8847   .debug_str:0000000000000453 .LASF210
     /tmp/ccGkqgib.s:8895   .debug_str:00000000000005c6 .LASF281
     /tmp/ccGkqgib.s:9087   .debug_str:0000000000000c83 .LASF282
     /tmp/ccGkqgib.s:8945   .debug_str:0000000000000790 .LASF211
     /tmp/ccGkqgib.s:8907   .debug_str:0000000000000639 .LASF212
     /tmp/ccGkqgib.s:9287   .debug_str:0000000000001382 .LASF213
     /tmp/ccGkqgib.s:8947   .debug_str:0000000000000796 .LASF214
     /tmp/ccGkqgib.s:9265   .debug_str:00000000000012c6 .LASF215
     /tmp/ccGkqgib.s:8831   .debug_str:00000000000003d8 .LASF216
     /tmp/ccGkqgib.s:9089   .debug_str:0000000000000c97 .LASF217
     /tmp/ccGkqgib.s:8741   .debug_str:00000000000000d0 .LASF218
     /tmp/ccGkqgib.s:9045   .debug_str:0000000000000b1f .LASF219
     /tmp/ccGkqgib.s:9171   .debug_str:0000000000001007 .LASF220
     /tmp/ccGkqgib.s:8977   .debug_str:00000000000008d0 .LASF221
     /tmp/ccGkqgib.s:9043   .debug_str:0000000000000b13 .LASF222
     /tmp/ccGkqgib.s:9257   .debug_str:0000000000001298 .LASF223
     /tmp/ccGkqgib.s:9145   .debug_str:0000000000000eac .LASF224
     /tmp/ccGkqgib.s:9175   .debug_str:0000000000001018 .LASF283
     /tmp/ccGkqgib.s:9211   .debug_str:0000000000001158 .LASF225
     /tmp/ccGkqgib.s:8737   .debug_str:00000000000000bd .LASF226
     /tmp/ccGkqgib.s:8903   .debug_str:0000000000000623 .LASF227
     /tmp/ccGkqgib.s:9047   .debug_str:0000000000000b3d .LASF228
     /tmp/ccGkqgib.s:8943   .debug_str:0000000000000785 .LASF229
     /tmp/ccGkqgib.s:9213   .debug_str:0000000000001164 .LASF230
     /tmp/ccGkqgib.s:9037   .debug_str:0000000000000aeb .LASF231
     /tmp/ccGkqgib.s:9199   .debug_str:00000000000010f9 .LASF232
     /tmp/ccGkqgib.s:8993   .debug_str:000000000000095c .LASF233
     /tmp/ccGkqgib.s:8985   .debug_str:000000000000091c .LASF234
     /tmp/ccGkqgib.s:9077   .debug_str:0000000000000c50 .LASF235
     /tmp/ccGkqgib.s:9075   .debug_str:0000000000000c33 .LASF236
     /tmp/ccGkqgib.s:8761   .debug_str:000000000000017f .LASF237
     /tmp/ccGkqgib.s:8935   .debug_str:000000000000072c .LASF238
     /tmp/ccGkqgib.s:9221   .debug_str:0000000000001191 .LASF239
     /tmp/ccGkqgib.s:9185   .debug_str:000000000000107e .LASF240
     /tmp/ccGkqgib.s:9295   .debug_str:00000000000013cd .LASF241
     /tmp/ccGkqgib.s:8851   .debug_str:0000000000000466 .LASF242
     /tmp/ccGkqgib.s:8975   .debug_str:00000000000008b2 .LASF243
     /tmp/ccGkqgib.s:9263   .debug_str:00000000000012ba .LASF244
     /tmp/ccGkqgib.s:8955   .debug_str:00000000000007dd .LASF245
     /tmp/ccGkqgib.s:9155   .debug_str:0000000000000ef6 .LASF246
     /tmp/ccGkqgib.s:8923   .debug_str:00000000000006a6 .LASF247
     /tmp/ccGkqgib.s:8921   .debug_str:00000000000006a0 .LASF284
     /tmp/ccGkqgib.s:9247   .debug_str:0000000000001236 .LASF248
     /tmp/ccGkqgib.s:8733   .debug_str:00000000000000ae .LASF285
     /tmp/ccGkqgib.s:9019   .debug_str:0000000000000a2a .LASF286
     /tmp/ccGkqgib.s:9291   .debug_str:00000000000013a4 .LASF249
     /tmp/ccGkqgib.s:9113   .debug_str:0000000000000d81 .LASF250
     /tmp/ccGkqgib.s:8891   .debug_str:00000000000005a7 .LASF251
     /tmp/ccGkqgib.s:9237   .debug_str:0000000000001205 .LASF252
     /tmp/ccGkqgib.s:9163   .debug_str:0000000000000f1d .LASF253
     /tmp/ccGkqgib.s:8887   .debug_str:0000000000000595 .LASF287
     /tmp/ccGkqgib.s:8853   .debug_str:000000000000046f .LASF254
     /tmp/ccGkqgib.s:8991   .debug_str:0000000000000957 .LASF255
     /tmp/ccGkqgib.s:8915   .debug_str:0000000000000684 .LASF256
GAS LISTING /tmp/ccGkqgib.s 			page 112


     /tmp/ccGkqgib.s:9091   .debug_str:0000000000000cb6 .LASF257
     /tmp/ccGkqgib.s:8987   .debug_str:0000000000000938 .LASF288
     /tmp/ccGkqgib.s:9125   .debug_str:0000000000000df2 .LASF289
     /tmp/ccGkqgib.s:2146   .text:0000000000000a9c .LFB58
     /tmp/ccGkqgib.s:2179   .text:0000000000000ac8 .LFE58
     /tmp/ccGkqgib.s:8012   .debug_loc:0000000000000000 .LLST51
     /tmp/ccGkqgib.s:2117   .text:0000000000000a9c .LFE57
     /tmp/ccGkqgib.s:8025   .debug_loc:0000000000000038 .LLST47
     /tmp/ccGkqgib.s:8757   .debug_str:0000000000000162 .LASF258
     /tmp/ccGkqgib.s:8044   .debug_loc:0000000000000094 .LLST48
     /tmp/ccGkqgib.s:8055   .debug_loc:00000000000000ca .LLST49
     /tmp/ccGkqgib.s:1963   .text:00000000000009c0 .LBB125
     /tmp/ccGkqgib.s:2066   .text:0000000000000a54 .LBE125
     /tmp/ccGkqgib.s:8973   .debug_str:00000000000008a2 .LASF259
     /tmp/ccGkqgib.s:8072   .debug_loc:0000000000000115 .LLST50
     /tmp/ccGkqgib.s:2062   .text:0000000000000a54 .LVL149
     /tmp/ccGkqgib.s:1931   .text:0000000000000970 .LVL142
     /tmp/ccGkqgib.s:1943   .text:0000000000000994 .LVL145
     /tmp/ccGkqgib.s:1948   .text:00000000000009a0 .LVL146
     /tmp/ccGkqgib.s:1957   .text:00000000000009bc .LVL147
     /tmp/ccGkqgib.s:2078   .text:0000000000000a60 .LVL150
     /tmp/ccGkqgib.s:2110   .text:0000000000000a90 .LVL156
     /tmp/ccGkqgib.s:2114   .text:0000000000000a9c .LVL157
     /tmp/ccGkqgib.s:1838   .text:00000000000008f0 .LFB56
     /tmp/ccGkqgib.s:1903   .text:000000000000094c .LFE56
     /tmp/ccGkqgib.s:8749   .debug_str:0000000000000104 .LASF260
     /tmp/ccGkqgib.s:8079   .debug_loc:0000000000000138 .LLST44
     /tmp/ccGkqgib.s:8090   .debug_loc:000000000000016e .LLST45
     /tmp/ccGkqgib.s:1876   .text:000000000000091c .LVL137
     /tmp/ccGkqgib.s:1897   .text:000000000000093c .LVL140
     /tmp/ccGkqgib.s:1900   .text:0000000000000948 .LVL141
     /tmp/ccGkqgib.s:1753   .text:000000000000087c .LFB55
     /tmp/ccGkqgib.s:1832   .text:00000000000008f0 .LFE55
     /tmp/ccGkqgib.s:8099   .debug_loc:0000000000000193 .LLST41
     /tmp/ccGkqgib.s:8110   .debug_loc:00000000000001c9 .LLST42
     /tmp/ccGkqgib.s:1794   .text:00000000000008ac .LVL126
     /tmp/ccGkqgib.s:1818   .text:00000000000008d0 .LVL130
     /tmp/ccGkqgib.s:1826   .text:00000000000008e0 .LVL133
     /tmp/ccGkqgib.s:1829   .text:00000000000008ec .LVL134
     /tmp/ccGkqgib.s:552    .text:0000000000000294 .LFB54
     /tmp/ccGkqgib.s:598    .text:00000000000002cc .LFE54
     /tmp/ccGkqgib.s:429    .text:00000000000001e0 .LFB53
     /tmp/ccGkqgib.s:546    .text:0000000000000294 .LFE53
     /tmp/ccGkqgib.s:453    .text:0000000000000214 .LBB109
     /tmp/ccGkqgib.s:8677   .debug_ranges:0000000000000000 .Ldebug_ranges0
     /tmp/ccGkqgib.s:462    .text:0000000000000214 .LBB111
     /tmp/ccGkqgib.s:476    .text:000000000000021c .LBE111
     /tmp/ccGkqgib.s:463    .text:0000000000000214 .LBB112
     /tmp/ccGkqgib.s:475    .text:000000000000021c .LBE112
     /tmp/ccGkqgib.s:8125   .debug_loc:0000000000000212 .LLST9
     /tmp/ccGkqgib.s:483    .text:000000000000021c .LBB114
     /tmp/ccGkqgib.s:498    .text:0000000000000224 .LBE114
     /tmp/ccGkqgib.s:484    .text:000000000000021c .LBB115
     /tmp/ccGkqgib.s:497    .text:0000000000000224 .LBE115
     /tmp/ccGkqgib.s:8133   .debug_loc:0000000000000236 .LLST10
     /tmp/ccGkqgib.s:520    .text:000000000000025c .LVL29
     /tmp/ccGkqgib.s:532    .text:0000000000000280 .LVL30
GAS LISTING /tmp/ccGkqgib.s 			page 113


     /tmp/ccGkqgib.s:363    .text:000000000000019c .LFB52
     /tmp/ccGkqgib.s:423    .text:00000000000001e0 .LFE52
     /tmp/ccGkqgib.s:382    .text:00000000000001c0 .LBB105
     /tmp/ccGkqgib.s:395    .text:00000000000001c8 .LBE105
     /tmp/ccGkqgib.s:8142   .debug_loc:000000000000025c .LLST8
     /tmp/ccGkqgib.s:408    .text:00000000000001d4 .LBB107
     /tmp/ccGkqgib.s:421    .text:00000000000001e0 .LBE107
     /tmp/ccGkqgib.s:1711   .text:0000000000000848 .LFB51
     /tmp/ccGkqgib.s:1747   .text:000000000000087c .LFE51
     /tmp/ccGkqgib.s:8151   .debug_loc:0000000000000282 .LLST40
     /tmp/ccGkqgib.s:1725   .text:0000000000000860 .LVL122
     /tmp/ccGkqgib.s:1736   .text:000000000000086c .LVL123
     /tmp/ccGkqgib.s:251    .text:0000000000000114 .LFB50
     /tmp/ccGkqgib.s:357    .text:000000000000019c .LFE50
     /tmp/ccGkqgib.s:8158   .debug_loc:00000000000002a5 .LLST5
     /tmp/ccGkqgib.s:8172   .debug_loc:00000000000002de .LLST6
     /tmp/ccGkqgib.s:307    .text:0000000000000150 .LBB102
     /tmp/ccGkqgib.s:353    .text:000000000000019c .LBE102
     /tmp/ccGkqgib.s:9189   .debug_str:0000000000001098 .LASF261
     /tmp/ccGkqgib.s:8179   .debug_loc:0000000000000301 .LLST7
     /tmp/ccGkqgib.s:311    .text:0000000000000158 .LVL20
     /tmp/ccGkqgib.s:271    .text:0000000000000130 .LVL16
     /tmp/ccGkqgib.s:198    .text:00000000000000c4 .LFB49
     /tmp/ccGkqgib.s:245    .text:0000000000000114 .LFE49
     /tmp/ccGkqgib.s:8186   .debug_loc:0000000000000324 .LLST4
     /tmp/ccGkqgib.s:234    .text:0000000000000104 .LVL13
     /tmp/ccGkqgib.s:1620   .text:00000000000007b0 .LFB48
     /tmp/ccGkqgib.s:1705   .text:0000000000000848 .LFE48
     /tmp/ccGkqgib.s:8193   .debug_loc:0000000000000347 .LLST39
     /tmp/ccGkqgib.s:1648   .text:00000000000007ec .LVL112
     /tmp/ccGkqgib.s:1669   .text:000000000000080c .LVL115
     /tmp/ccGkqgib.s:1690   .text:000000000000082c .LVL118
     /tmp/ccGkqgib.s:1695   .text:0000000000000838 .LVL119
     /tmp/ccGkqgib.s:1702   .text:0000000000000844 .LVL121
     /tmp/ccGkqgib.s:1540   .text:0000000000000738 .LFB47
     /tmp/ccGkqgib.s:1614   .text:00000000000007b0 .LFE47
     /tmp/ccGkqgib.s:8849   .debug_str:0000000000000460 .LASF262
     /tmp/ccGkqgib.s:8208   .debug_loc:0000000000000390 .LLST38
     /tmp/ccGkqgib.s:1579   .text:000000000000077c .LVL108
     /tmp/ccGkqgib.s:1587   .text:000000000000078c .LVL109
     /tmp/ccGkqgib.s:1600   .text:000000000000079c .LVL110
     /tmp/ccGkqgib.s:1475   .text:00000000000006f0 .LFB46
     /tmp/ccGkqgib.s:1534   .text:0000000000000738 .LFE46
     /tmp/ccGkqgib.s:8999   .debug_str:0000000000000978 .LASF263
     /tmp/ccGkqgib.s:8215   .debug_loc:00000000000003b3 .LLST36
     /tmp/ccGkqgib.s:8226   .debug_loc:00000000000003e9 .LLST37
     /tmp/ccGkqgib.s:1512   .text:0000000000000718 .LVL104
     /tmp/ccGkqgib.s:1529   .text:0000000000000730 .LVL106
     /tmp/ccGkqgib.s:1398   .text:0000000000000690 .LFB45
     /tmp/ccGkqgib.s:1469   .text:00000000000006f0 .LFE45
     /tmp/ccGkqgib.s:8243   .debug_loc:0000000000000434 .LLST34
     /tmp/ccGkqgib.s:8254   .debug_loc:000000000000046a .LLST35
     /tmp/ccGkqgib.s:1444   .text:00000000000006cc .LVL98
     /tmp/ccGkqgib.s:1461   .text:00000000000006e4 .LVL100
     /tmp/ccGkqgib.s:1323   .text:0000000000000630 .LFB44
     /tmp/ccGkqgib.s:1392   .text:0000000000000690 .LFE44
     /tmp/ccGkqgib.s:8271   .debug_loc:00000000000004b5 .LLST31
GAS LISTING /tmp/ccGkqgib.s 			page 114


     /tmp/ccGkqgib.s:8282   .debug_loc:00000000000004eb .LLST33
     /tmp/ccGkqgib.s:1363   .text:000000000000065c .LVL90
     /tmp/ccGkqgib.s:1384   .text:000000000000067c .LVL93
     /tmp/ccGkqgib.s:1387   .text:0000000000000688 .LVL94
     /tmp/ccGkqgib.s:1298   .text:0000000000000630 .LFE43
     /tmp/ccGkqgib.s:8299   .debug_loc:0000000000000536 .LLST28
     /tmp/ccGkqgib.s:8739   .debug_str:00000000000000ca .LASF264
     /tmp/ccGkqgib.s:8310   .debug_loc:000000000000056c .LLST29
     /tmp/ccGkqgib.s:8321   .debug_loc:00000000000005a2 .LLST30
     /tmp/ccGkqgib.s:1232   .text:00000000000005c8 .LVL78
     /tmp/ccGkqgib.s:1238   .text:00000000000005d8 .LVL79
     /tmp/ccGkqgib.s:1260   .text:00000000000005f0 .LVL81
     /tmp/ccGkqgib.s:1291   .text:0000000000000624 .LVL86
     /tmp/ccGkqgib.s:1295   .text:0000000000000630 .LVL87
     /tmp/ccGkqgib.s:158    .text:0000000000000088 .LFB42
     /tmp/ccGkqgib.s:192    .text:00000000000000c4 .LFE42
     /tmp/ccGkqgib.s:8338   .debug_loc:00000000000005ed .LLST3
     /tmp/ccGkqgib.s:181    .text:00000000000000b4 .LVL11
     /tmp/ccGkqgib.s:1121   .text:0000000000000540 .LFB41
     /tmp/ccGkqgib.s:1188   .text:0000000000000598 .LFE41
     /tmp/ccGkqgib.s:8345   .debug_loc:0000000000000610 .LLST26
     /tmp/ccGkqgib.s:1141   .text:0000000000000560 .LBB122
     /tmp/ccGkqgib.s:1152   .text:0000000000000570 .LBE122
     /tmp/ccGkqgib.s:8362   .debug_loc:000000000000065b .LLST27
     /tmp/ccGkqgib.s:1151   .text:0000000000000570 .LVL73
     /tmp/ccGkqgib.s:1168   .text:0000000000000580 .LVL75
     /tmp/ccGkqgib.s:1047   .text:00000000000004e8 .LFB40
     /tmp/ccGkqgib.s:1115   .text:0000000000000540 .LFE40
     /tmp/ccGkqgib.s:8369   .debug_loc:000000000000067e .LLST23
     /tmp/ccGkqgib.s:8380   .debug_loc:00000000000006b4 .LLST25
     /tmp/ccGkqgib.s:1085   .text:0000000000000510 .LVL67
     /tmp/ccGkqgib.s:1106   .text:0000000000000530 .LVL69
     /tmp/ccGkqgib.s:1110   .text:0000000000000538 .LVL70
     /tmp/ccGkqgib.s:1022   .text:00000000000004e8 .LFE39
     /tmp/ccGkqgib.s:8885   .debug_str:000000000000058c .LASF265
     /tmp/ccGkqgib.s:8397   .debug_loc:00000000000006ff .LLST18
     /tmp/ccGkqgib.s:9239   .debug_str:0000000000001216 .LASF266
     /tmp/ccGkqgib.s:8408   .debug_loc:0000000000000735 .LLST19
     /tmp/ccGkqgib.s:8419   .debug_loc:000000000000076b .LLST20
     /tmp/ccGkqgib.s:8755   .debug_str:000000000000015b .LASF267
     /tmp/ccGkqgib.s:8430   .debug_loc:00000000000007a1 .LLST21
     /tmp/ccGkqgib.s:8441   .debug_loc:00000000000007d7 .LLST22
     /tmp/ccGkqgib.s:941    .text:0000000000000464 .LVL53
     /tmp/ccGkqgib.s:950    .text:0000000000000480 .LVL54
     /tmp/ccGkqgib.s:978    .text:00000000000004a0 .LVL56
     /tmp/ccGkqgib.s:1015   .text:00000000000004dc .LVL63
     /tmp/ccGkqgib.s:1019   .text:00000000000004e8 .LVL64
     /tmp/ccGkqgib.s:857    .text:0000000000000424 .LFE38
     /tmp/ccGkqgib.s:8458   .debug_loc:0000000000000822 .LLST15
     /tmp/ccGkqgib.s:8469   .debug_loc:0000000000000858 .LLST16
     /tmp/ccGkqgib.s:8480   .debug_loc:000000000000088e .LLST17
     /tmp/ccGkqgib.s:771    .text:0000000000000394 .LVL39
     /tmp/ccGkqgib.s:780    .text:00000000000003b0 .LVL40
     /tmp/ccGkqgib.s:795    .text:00000000000003c8 .LVL41
     /tmp/ccGkqgib.s:815    .text:00000000000003dc .LVL43
     /tmp/ccGkqgib.s:850    .text:0000000000000418 .LVL48
     /tmp/ccGkqgib.s:854    .text:0000000000000424 .LVL49
GAS LISTING /tmp/ccGkqgib.s 			page 115


     /tmp/ccGkqgib.s:655    .text:0000000000000304 .LFB37
     /tmp/ccGkqgib.s:713    .text:0000000000000354 .LFE37
     /tmp/ccGkqgib.s:8497   .debug_loc:00000000000008d9 .LLST13
     /tmp/ccGkqgib.s:8504   .debug_loc:00000000000008fc .LLST14
     /tmp/ccGkqgib.s:685    .text:0000000000000334 .LVL35
     /tmp/ccGkqgib.s:709    .text:0000000000000350 .LVL37
     /tmp/ccGkqgib.s:604    .text:00000000000002cc .LFB36
     /tmp/ccGkqgib.s:649    .text:0000000000000304 .LFE36
     /tmp/ccGkqgib.s:8515   .debug_loc:0000000000000932 .LLST11
     /tmp/ccGkqgib.s:8769   .debug_str:00000000000001c1 .LASF268
     /tmp/ccGkqgib.s:8522   .debug_loc:0000000000000955 .LLST12
     /tmp/ccGkqgib.s:627    .text:00000000000002e8 .LVL32
     /tmp/ccGkqgib.s:638    .text:00000000000002f4 .LVL33
     /tmp/ccGkqgib.s:2205   .text:0000000000000ac8 .LFB35
     /tmp/ccGkqgib.s:3123   .text:0000000000000efc .LFE35
     /tmp/ccGkqgib.s:8807   .debug_str:0000000000000340 .LASF269
     /tmp/ccGkqgib.s:8857   .debug_str:0000000000000483 .LASF270
     /tmp/ccGkqgib.s:8529   .debug_loc:0000000000000978 .LLST64
     /tmp/ccGkqgib.s:2389   .text:0000000000000bf0 .LBB174
     /tmp/ccGkqgib.s:2402   .text:0000000000000bf4 .LBE174
     /tmp/ccGkqgib.s:2406   .text:0000000000000bf8 .LBB176
     /tmp/ccGkqgib.s:2419   .text:0000000000000bfc .LBE176
     /tmp/ccGkqgib.s:2571   .text:0000000000000c60 .LBB178
     /tmp/ccGkqgib.s:2582   .text:0000000000000c64 .LBE178
     /tmp/ccGkqgib.s:8536   .debug_loc:000000000000099b .LLST65
     /tmp/ccGkqgib.s:2587   .text:0000000000000c68 .LBB180
     /tmp/ccGkqgib.s:2599   .text:0000000000000c6c .LBE180
     /tmp/ccGkqgib.s:8543   .debug_loc:00000000000009be .LLST66
     /tmp/ccGkqgib.s:2562   .text:0000000000000c50 .LVL175
     /tmp/ccGkqgib.s:2624   .text:0000000000000c8c .LVL181
     /tmp/ccGkqgib.s:2632   .text:0000000000000c98 .LVL182
     /tmp/ccGkqgib.s:2640   .text:0000000000000ca4 .LVL183
     /tmp/ccGkqgib.s:2648   .text:0000000000000cb0 .LVL184
     /tmp/ccGkqgib.s:2656   .text:0000000000000cbc .LVL185
     /tmp/ccGkqgib.s:2664   .text:0000000000000cc8 .LVL186
     /tmp/ccGkqgib.s:2672   .text:0000000000000cd4 .LVL187
     /tmp/ccGkqgib.s:2680   .text:0000000000000ce0 .LVL188
     /tmp/ccGkqgib.s:2688   .text:0000000000000cec .LVL189
     /tmp/ccGkqgib.s:2696   .text:0000000000000cf8 .LVL190
     /tmp/ccGkqgib.s:2704   .text:0000000000000d04 .LVL191
     /tmp/ccGkqgib.s:2712   .text:0000000000000d10 .LVL192
     /tmp/ccGkqgib.s:2720   .text:0000000000000d1c .LVL193
     /tmp/ccGkqgib.s:2728   .text:0000000000000d28 .LVL194
     /tmp/ccGkqgib.s:2736   .text:0000000000000d34 .LVL195
     /tmp/ccGkqgib.s:2744   .text:0000000000000d40 .LVL196
     /tmp/ccGkqgib.s:2761   .text:0000000000000d5c .LVL197
     /tmp/ccGkqgib.s:2765   .text:0000000000000d64 .LVL198
     /tmp/ccGkqgib.s:2771   .text:0000000000000d68 .LBB156
     /tmp/ccGkqgib.s:2902   .text:0000000000000df8 .LBE156
     /tmp/ccGkqgib.s:2883   .text:0000000000000dd8 .LBB164
     /tmp/ccGkqgib.s:2898   .text:0000000000000df4 .LBE164
     /tmp/ccGkqgib.s:8550   .debug_loc:00000000000009e1 .LLST61
     /tmp/ccGkqgib.s:2897   .text:0000000000000df4 .LVL209
     /tmp/ccGkqgib.s:2773   .text:0000000000000d68 .LBB157
     /tmp/ccGkqgib.s:2786   .text:0000000000000d6c .LBE157
     /tmp/ccGkqgib.s:2790   .text:0000000000000d70 .LBB159
     /tmp/ccGkqgib.s:2803   .text:0000000000000d74 .LBE159
GAS LISTING /tmp/ccGkqgib.s 			page 116


     /tmp/ccGkqgib.s:2808   .text:0000000000000d78 .LBB161
     /tmp/ccGkqgib.s:2820   .text:0000000000000d80 .LBE161
     /tmp/ccGkqgib.s:8557   .debug_loc:0000000000000a04 .LLST60
     /tmp/ccGkqgib.s:2851   .text:0000000000000dc8 .LBB165
     /tmp/ccGkqgib.s:2862   .text:0000000000000dcc .LBE165
     /tmp/ccGkqgib.s:8565   .debug_loc:0000000000000a28 .LLST62
     /tmp/ccGkqgib.s:2867   .text:0000000000000dd0 .LBB167
     /tmp/ccGkqgib.s:2881   .text:0000000000000dd8 .LBE167
     /tmp/ccGkqgib.s:8572   .debug_loc:0000000000000a4b .LLST63
     /tmp/ccGkqgib.s:2830   .text:0000000000000d9c .LVL203
     /tmp/ccGkqgib.s:2904   .text:0000000000000df8 .LBB141
     /tmp/ccGkqgib.s:3064   .text:0000000000000e94 .LBE141
     /tmp/ccGkqgib.s:8579   .debug_loc:0000000000000a6e .LLST55
     /tmp/ccGkqgib.s:8586   .debug_loc:0000000000000a91 .LLST56
     /tmp/ccGkqgib.s:8593   .debug_loc:0000000000000ab4 .LLST57
     /tmp/ccGkqgib.s:3058   .text:0000000000000e90 .LVL225
     /tmp/ccGkqgib.s:2906   .text:0000000000000df8 .LBB142
     /tmp/ccGkqgib.s:2919   .text:0000000000000dfc .LBE142
     /tmp/ccGkqgib.s:2923   .text:0000000000000e00 .LBB144
     /tmp/ccGkqgib.s:2936   .text:0000000000000e04 .LBE144
     /tmp/ccGkqgib.s:3017   .text:0000000000000e68 .LBB149
     /tmp/ccGkqgib.s:3028   .text:0000000000000e6c .LBE149
     /tmp/ccGkqgib.s:8604   .debug_loc:0000000000000aea .LLST58
     /tmp/ccGkqgib.s:3033   .text:0000000000000e70 .LBB151
     /tmp/ccGkqgib.s:3047   .text:0000000000000e78 .LBE151
     /tmp/ccGkqgib.s:8611   .debug_loc:0000000000000b0d .LLST59
     /tmp/ccGkqgib.s:3010   .text:0000000000000e5c .LVL219
     /tmp/ccGkqgib.s:3012   .text:0000000000000e64 .LVL220
     /tmp/ccGkqgib.s:3066   .text:0000000000000e94 .LBB138
     /tmp/ccGkqgib.s:3116   .text:0000000000000ef8 .LBE138
     /tmp/ccGkqgib.s:8618   .debug_loc:0000000000000b30 .LLST54
     /tmp/ccGkqgib.s:3082   .text:0000000000000eb8 .LBB139
     /tmp/ccGkqgib.s:3094   .text:0000000000000ebc .LBE139
     /tmp/ccGkqgib.s:3080   .text:0000000000000eb8 .LVL228
     /tmp/ccGkqgib.s:3101   .text:0000000000000ed0 .LVL229
     /tmp/ccGkqgib.s:3106   .text:0000000000000ee0 .LVL230
     /tmp/ccGkqgib.s:3111   .text:0000000000000ef0 .LVL231
     /tmp/ccGkqgib.s:3115   .text:0000000000000ef8 .LVL232
     /tmp/ccGkqgib.s:2295   .text:0000000000000b48 .LBB133
     /tmp/ccGkqgib.s:2383   .text:0000000000000bf0 .LBE133
     /tmp/ccGkqgib.s:8625   .debug_loc:0000000000000b53 .LLST52
     /tmp/ccGkqgib.s:8632   .debug_loc:0000000000000b76 .LLST53
     /tmp/ccGkqgib.s:2307   .text:0000000000000b68 .LBB134
     /tmp/ccGkqgib.s:2323   .text:0000000000000b74 .LBE134
     /tmp/ccGkqgib.s:2338   .text:0000000000000b98 .LBB136
     /tmp/ccGkqgib.s:2350   .text:0000000000000b9c .LBE136
     /tmp/ccGkqgib.s:2300   .text:0000000000000b58 .LVL160
     /tmp/ccGkqgib.s:2305   .text:0000000000000b68 .LVL161
     /tmp/ccGkqgib.s:2331   .text:0000000000000b88 .LVL164
     /tmp/ccGkqgib.s:2336   .text:0000000000000b98 .LVL165
     /tmp/ccGkqgib.s:2357   .text:0000000000000bb0 .LVL166
     /tmp/ccGkqgib.s:2362   .text:0000000000000bc0 .LVL167
     /tmp/ccGkqgib.s:2376   .text:0000000000000be4 .LVL169
     /tmp/ccGkqgib.s:2380   .text:0000000000000bec .LVL170
     /tmp/ccGkqgib.s:2217   .text:0000000000000ad8 .LBB127
     /tmp/ccGkqgib.s:2232   .text:0000000000000ae4 .LBE127
     /tmp/ccGkqgib.s:2605   .text:0000000000000c74 .LVL180
GAS LISTING /tmp/ccGkqgib.s 			page 117


     /tmp/ccGkqgib.s:123    .text:0000000000000068 .LFB34
     /tmp/ccGkqgib.s:152    .text:0000000000000088 .LFE34
     /tmp/ccGkqgib.s:10     .text:0000000000000000 .LFB33
     /tmp/ccGkqgib.s:117    .text:0000000000000068 .LFE33
     /tmp/ccGkqgib.s:26     .text:0000000000000018 .LBB89
     /tmp/ccGkqgib.s:38     .text:000000000000001c .LBE89
     /tmp/ccGkqgib.s:61     .text:0000000000000044 .LBB91
     /tmp/ccGkqgib.s:62     .text:0000000000000044 .LBB92
     /tmp/ccGkqgib.s:74     .text:000000000000004c .LBE92
     /tmp/ccGkqgib.s:8639   .debug_loc:0000000000000b99 .LLST0
     /tmp/ccGkqgib.s:78     .text:000000000000004c .LBB94
     /tmp/ccGkqgib.s:90     .text:0000000000000054 .LBE94
     /tmp/ccGkqgib.s:8647   .debug_loc:0000000000000bbd .LLST1
     /tmp/ccGkqgib.s:94     .text:0000000000000054 .LBB96
     /tmp/ccGkqgib.s:105    .text:0000000000000058 .LBE96
     /tmp/ccGkqgib.s:8656   .debug_loc:0000000000000be3 .LLST2
     /tmp/ccGkqgib.s:42     .text:0000000000000024 .LVL2
     /tmp/ccGkqgib.s:46     .text:000000000000002c .LVL3
     /tmp/ccGkqgib.s:50     .text:0000000000000034 .LVL4
     /tmp/ccGkqgib.s:54     .text:000000000000003c .LVL5
     /tmp/ccGkqgib.s:58     .text:0000000000000044 .LVL6
     /tmp/ccGkqgib.s:9223   .debug_str:00000000000011b0 .LASF271
     /tmp/ccGkqgib.s:8909   .debug_str:0000000000000653 .LASF272
     /tmp/ccGkqgib.s:9273   .debug_str:0000000000001314 .LASF290
     /tmp/ccGkqgib.s:8879   .debug_str:0000000000000561 .LASF291
     /tmp/ccGkqgib.s:8979   .debug_str:00000000000008dc .LASF273
     /tmp/ccGkqgib.s:9063   .debug_str:0000000000000bdc .LASF275
     /tmp/ccGkqgib.s:8959   .debug_str:0000000000000823 .LASF274
     /tmp/ccGkqgib.s:9033   .debug_str:0000000000000ad5 .LASF276
     /tmp/ccGkqgib.s:2162   .text:0000000000000aac .LVL158
     /tmp/ccGkqgib.s:2167   .text:0000000000000ab0 .LVL159
     /tmp/ccGkqgib.s:1933   .text:0000000000000974 .LVL143
     /tmp/ccGkqgib.s:1941   .text:000000000000098c .LVL144
     /tmp/ccGkqgib.s:1994   .text:0000000000000a0c .LVL148
     /tmp/ccGkqgib.s:2094   .text:0000000000000a78 .LVL152
     /tmp/ccGkqgib.s:2105   .text:0000000000000a84 .LVL155
     /tmp/ccGkqgib.s:2100   .text:0000000000000a7c .LVL153
     /tmp/ccGkqgib.s:2088   .text:0000000000000a6c .LVL151
     /tmp/ccGkqgib.s:2102   .text:0000000000000a80 .LVL154
     /tmp/ccGkqgib.s:1858   .text:0000000000000908 .LVL135
     /tmp/ccGkqgib.s:1886   .text:0000000000000928 .LVL138
     /tmp/ccGkqgib.s:1890   .text:0000000000000930 .LVL139
     /tmp/ccGkqgib.s:1864   .text:000000000000090c .LVL136
     /tmp/ccGkqgib.s:1775   .text:0000000000000898 .LVL124
     /tmp/ccGkqgib.s:1804   .text:00000000000008b8 .LVL127
     /tmp/ccGkqgib.s:1811   .text:00000000000008c4 .LVL129
     /tmp/ccGkqgib.s:1783   .text:00000000000008a0 .LVL125
     /tmp/ccGkqgib.s:1807   .text:00000000000008bc .LVL128
     /tmp/ccGkqgib.s:1820   .text:00000000000008d4 .LVL131
     /tmp/ccGkqgib.s:1824   .text:00000000000008d8 .LVL132
     /tmp/ccGkqgib.s:459    .text:0000000000000214 .LVL26
     /tmp/ccGkqgib.s:472    .text:000000000000021c .LVL27
     /tmp/ccGkqgib.s:493    .text:0000000000000224 .LVL28
     /tmp/ccGkqgib.s:381    .text:00000000000001c0 .LVL23
     /tmp/ccGkqgib.s:391    .text:00000000000001c8 .LVL24
     /tmp/ccGkqgib.s:254    .text:0000000000000114 .LVL14
     /tmp/ccGkqgib.s:264    .text:0000000000000128 .LVL15
GAS LISTING /tmp/ccGkqgib.s 			page 118


     /tmp/ccGkqgib.s:281    .text:000000000000013c .LVL17
     /tmp/ccGkqgib.s:304    .text:000000000000014c .LVL19
     /tmp/ccGkqgib.s:318    .text:0000000000000168 .LVL21
     /tmp/ccGkqgib.s:329    .text:0000000000000170 .LVL22
     /tmp/ccGkqgib.s:228    .text:00000000000000f8 .LVL12
     /tmp/ccGkqgib.s:1650   .text:00000000000007f0 .LVL113
     /tmp/ccGkqgib.s:1657   .text:0000000000000800 .LVL114
     /tmp/ccGkqgib.s:1682   .text:0000000000000820 .LVL116
     /tmp/ccGkqgib.s:1688   .text:0000000000000824 .LVL117
     /tmp/ccGkqgib.s:1697   .text:000000000000083c .LVL120
     /tmp/ccGkqgib.s:1565   .text:000000000000075c .LVL107
     /tmp/ccGkqgib.s:1609   .text:00000000000007a8 .LVL111
     /tmp/ccGkqgib.s:1493   .text:0000000000000704 .LVL102
     /tmp/ccGkqgib.s:1500   .text:000000000000070c .LVL103
     /tmp/ccGkqgib.s:1523   .text:0000000000000728 .LVL105
     /tmp/ccGkqgib.s:1416   .text:00000000000006a4 .LVL95
     /tmp/ccGkqgib.s:1421   .text:00000000000006a8 .LVL96
     /tmp/ccGkqgib.s:1455   .text:00000000000006dc .LVL99
     /tmp/ccGkqgib.s:1433   .text:00000000000006c0 .LVL97
     /tmp/ccGkqgib.s:1463   .text:00000000000006e8 .LVL101
     /tmp/ccGkqgib.s:1343   .text:0000000000000648 .LVL88
     /tmp/ccGkqgib.s:1373   .text:0000000000000668 .LVL91
     /tmp/ccGkqgib.s:1377   .text:0000000000000670 .LVL92
     /tmp/ccGkqgib.s:1352   .text:0000000000000650 .LVL89
     /tmp/ccGkqgib.s:1220   .text:00000000000005b8 .LVL77
     /tmp/ccGkqgib.s:1275   .text:0000000000000604 .LVL83
     /tmp/ccGkqgib.s:1279   .text:000000000000060c .LVL84
     /tmp/ccGkqgib.s:1270   .text:00000000000005fc .LVL82
     /tmp/ccGkqgib.s:1285   .text:0000000000000614 .LVL85
     /tmp/ccGkqgib.s:1249   .text:00000000000005e4 .LVL80
     /tmp/ccGkqgib.s:173    .text:00000000000000a4 .LVL10
     /tmp/ccGkqgib.s:1133   .text:0000000000000550 .LVL71
     /tmp/ccGkqgib.s:1157   .text:0000000000000574 .LVL74
     /tmp/ccGkqgib.s:1179   .text:0000000000000590 .LVL76
     /tmp/ccGkqgib.s:1143   .text:0000000000000560 .LVL72
     /tmp/ccGkqgib.s:1065   .text:00000000000004fc .LVL65
     /tmp/ccGkqgib.s:1073   .text:0000000000000504 .LVL66
     /tmp/ccGkqgib.s:1096   .text:0000000000000520 .LVL68
     /tmp/ccGkqgib.s:928    .text:0000000000000454 .LVL51
     /tmp/ccGkqgib.s:996    .text:00000000000004b8 .LVL59
     /tmp/ccGkqgib.s:1003   .text:00000000000004c4 .LVL61
     /tmp/ccGkqgib.s:934    .text:0000000000000458 .LVL52
     /tmp/ccGkqgib.s:993    .text:00000000000004b4 .LVL58
     /tmp/ccGkqgib.s:922    .text:0000000000000450 .LVL50
     /tmp/ccGkqgib.s:999    .text:00000000000004bc .LVL60
     /tmp/ccGkqgib.s:988    .text:00000000000004ac .LVL57
     /tmp/ccGkqgib.s:1009   .text:00000000000004cc .LVL62
     /tmp/ccGkqgib.s:967    .text:0000000000000494 .LVL55
     /tmp/ccGkqgib.s:754    .text:0000000000000380 .LVL38
     /tmp/ccGkqgib.s:834    .text:00000000000003f8 .LVL45
     /tmp/ccGkqgib.s:838    .text:0000000000000400 .LVL46
     /tmp/ccGkqgib.s:825    .text:00000000000003e8 .LVL44
     /tmp/ccGkqgib.s:844    .text:0000000000000408 .LVL47
     /tmp/ccGkqgib.s:804    .text:00000000000003d0 .LVL42
     /tmp/ccGkqgib.s:704    .text:0000000000000348 .LVL36
     /tmp/ccGkqgib.s:674    .text:0000000000000328 .LVL34
     /tmp/ccGkqgib.s:622    .text:00000000000002e0 .LVL31
GAS LISTING /tmp/ccGkqgib.s 			page 119


     /tmp/ccGkqgib.s:2442   .text:0000000000000c24 .LVL173
     /tmp/ccGkqgib.s:2448   .text:0000000000000c30 .LVL174
     /tmp/ccGkqgib.s:2570   .text:0000000000000c60 .LVL176
     /tmp/ccGkqgib.s:2579   .text:0000000000000c64 .LVL177
     /tmp/ccGkqgib.s:2586   .text:0000000000000c68 .LVL178
     /tmp/ccGkqgib.s:2595   .text:0000000000000c6c .LVL179
     /tmp/ccGkqgib.s:2889   .text:0000000000000de4 .LVL208
     /tmp/ccGkqgib.s:2807   .text:0000000000000d78 .LVL201
     /tmp/ccGkqgib.s:2817   .text:0000000000000d80 .LVL202
     /tmp/ccGkqgib.s:2850   .text:0000000000000dc8 .LVL204
     /tmp/ccGkqgib.s:2859   .text:0000000000000dcc .LVL205
     /tmp/ccGkqgib.s:2866   .text:0000000000000dd0 .LVL206
     /tmp/ccGkqgib.s:2878   .text:0000000000000dd8 .LVL207
     /tmp/ccGkqgib.s:2943   .text:0000000000000e14 .LVL212
     /tmp/ccGkqgib.s:2966   .text:0000000000000e24 .LVL214
     /tmp/ccGkqgib.s:2976   .text:0000000000000e34 .LVL215
     /tmp/ccGkqgib.s:2999   .text:0000000000000e4c .LVL217
     /tmp/ccGkqgib.s:2995   .text:0000000000000e44 .LVL216
     /tmp/ccGkqgib.s:3003   .text:0000000000000e54 .LVL218
     /tmp/ccGkqgib.s:3044   .text:0000000000000e78 .LVL224
     /tmp/ccGkqgib.s:3016   .text:0000000000000e68 .LVL221
     /tmp/ccGkqgib.s:3025   .text:0000000000000e6c .LVL222
     /tmp/ccGkqgib.s:3032   .text:0000000000000e70 .LVL223
     /tmp/ccGkqgib.s:3071   .text:0000000000000ea0 .LVL227
     /tmp/ccGkqgib.s:2321   .text:0000000000000b74 .LVL162
     /tmp/ccGkqgib.s:2329   .text:0000000000000b80 .LVL163
     /tmp/ccGkqgib.s:2367   .text:0000000000000bcc .LVL168
     /tmp/ccGkqgib.s:71     .text:000000000000004c .LVL7
     /tmp/ccGkqgib.s:87     .text:0000000000000054 .LVL8
     /tmp/ccGkqgib.s:102    .text:0000000000000058 .LVL9
     /tmp/ccGkqgib.s:3150   .debug_info:0000000000000000 .Ldebug_info0
     /tmp/ccGkqgib.s:75     .text:000000000000004c .LBE91
     /tmp/ccGkqgib.s:77     .text:000000000000004c .LBB98
     /tmp/ccGkqgib.s:91     .text:0000000000000054 .LBE98
     /tmp/ccGkqgib.s:93     .text:0000000000000054 .LBB99
     /tmp/ccGkqgib.s:106    .text:0000000000000058 .LBE99
     /tmp/ccGkqgib.s:266    .text:0000000000000128 .LBB100
     /tmp/ccGkqgib.s:274    .text:0000000000000130 .LBE100
     /tmp/ccGkqgib.s:276    .text:0000000000000130 .LBB104
     /tmp/ccGkqgib.s:355    .text:000000000000019c .LBE104
     /tmp/ccGkqgib.s:457    .text:0000000000000214 .LBE109
     /tmp/ccGkqgib.s:460    .text:0000000000000214 .LBB119
     /tmp/ccGkqgib.s:479    .text:000000000000021c .LBE119
     /tmp/ccGkqgib.s:481    .text:000000000000021c .LBB120
     /tmp/ccGkqgib.s:500    .text:0000000000000224 .LBE120
     /tmp/ccGkqgib.s:2969   .text:0000000000000e28 .LBB147
     /tmp/ccGkqgib.s:3005   .text:0000000000000e54 .LBE147
     /tmp/ccGkqgib.s:3049   .text:0000000000000e78 .LBB148
     /tmp/ccGkqgib.s:3062   .text:0000000000000e94 .LBE148
     /tmp/ccGkqgib.s:2387   .text:0000000000000bf0 .LBB173
     /tmp/ccGkqgib.s:2600   .text:0000000000000c6c .LBE173
     /tmp/ccGkqgib.s:2619   .text:0000000000000c84 .LBB182
     /tmp/ccGkqgib.s:2769   .text:0000000000000d68 .LBE182
     /tmp/ccGkqgib.s:860    .gcc_except_table:0000000000000000 .LLSDA38
     /tmp/ccGkqgib.s:1024   .gcc_except_table:0000000000000038 .LLSDA39
     /tmp/ccGkqgib.s:1300   .gcc_except_table:0000000000000063 .LLSDA43
     /tmp/ccGkqgib.s:2119   .gcc_except_table:000000000000008e .LLSDA57
GAS LISTING /tmp/ccGkqgib.s 			page 120



UNDEFINED SYMBOLS
_ZN5RiscV14supervisorTrapEv
_ZN15MemoryAllocator10initializeEv
_ZN9Scheduler10initializeEv
_ZN3TCB10initializeEv
_ZN11ConsoleUtil10initializeEv
_ZN5Buddy10initializeEv
_ZN3TCB7runningE
_ZN3TCB8dispatchEv
_ZN11ConsoleUtil11pendingPutcE
_ZN11ConsoleUtil9putOutputEc
_Z15thread_dispatchv
CONSOLE_STATUS
_ZN11ConsoleUtil15putcUtilSyscallEv
CONSOLE_RX_DATA
_ZN11ConsoleUtil11pendingGetcE
_ZN9Scheduler9readyHeadE
_ZN3TCB10putcThreadE
_ZN9Scheduler3putEP3TCB
_ZN11ConsoleUtil10outputHeadE
_ZN11ConsoleUtil10outputTailE
_ZN15MemoryAllocator7kmallocEm
_ZN15MemoryAllocator11initializedE
_ZN15MemoryAllocator5kfreeEPv
_ZN3TCBnwEm
_ZN3TCBC1EPFvPvES0_Pmm
_ZN3TCBdlEPv
_Unwind_Resume
__gxx_personality_v0
_ZN3SCBnwEm
_ZN3SCBC1Em
_ZN3SCBdlEPv
_ZN3SCBD1Ev
_ZN3SCB4waitEv
_ZN3SCB6signalEv
_ZN9Scheduler5sleepEP3TCB
_ZN11ConsoleUtil8getInputEv
_ZN11ConsoleUtil9getOutputEv
_ZN3TCBD1Ev
_ZN15MemoryAllocator6memcpyEPvS0_m
_ZN3TCB9currentPCE
_ZN3TCB9currentSPE
_ZN11ConsoleUtil11printStringEPKc
_ZN11ConsoleUtil8printIntEiii
_ZN9Scheduler5awakeEv
_ZN3TCB16timeSliceCounterE
CONSOLE_TX_DATA
plic_claim
plic_complete
_ZN11ConsoleUtil8putInputEc
