GAS LISTING /tmp/ccbuBniB.s 			page 1


   1              		.file	"riscv.cpp"
   2              		.option pic
   3              		.option norelax
   4              		.text
   5              	.Ltext0:
   6              		.align	2
   7              		.globl	_ZN5RiscV10initializeEv
   9              	_ZN5RiscV10initializeEv:
  10              	.LFB42:
  11              		.file 1 "src/riscv.cpp"
   1:src/riscv.cpp **** //
   2:src/riscv.cpp **** // Created by os on 4/28/22.
   3:src/riscv.cpp **** //
   4:src/riscv.cpp **** 
   5:src/riscv.cpp **** #include "../h/riscv.hpp"
   6:src/riscv.cpp **** #include "../h/memoryAllocator.hpp"
   7:src/riscv.cpp **** #include "../h/tcb.hpp"
   8:src/riscv.cpp **** #include "../h/scheduler.hpp"
   9:src/riscv.cpp **** #include "../h/printing.hpp"
  10:src/riscv.cpp **** #include "../h/scb.hpp"
  11:src/riscv.cpp **** 
  12:src/riscv.cpp **** uint64 RiscV::globalTime = 0;
  13:src/riscv.cpp **** bool RiscV::userMainFinished = false;
  14:src/riscv.cpp **** 
  15:src/riscv.cpp **** //initailize each of the key components and switch to user mode for user code execution
  16:src/riscv.cpp **** void RiscV::initialize(){
  12              		.loc 1 16 25
  13              		.cfi_startproc
  14 0000 130101FF 		addi	sp,sp,-16
  15              		.cfi_def_cfa_offset 16
  16 0004 23341100 		sd	ra,8(sp)
  17 0008 23308100 		sd	s0,0(sp)
  18              		.cfi_offset 1, -8
  19              		.cfi_offset 8, -16
  20 000c 13040101 		addi	s0,sp,16
  21              		.cfi_def_cfa 8, 0
  17:src/riscv.cpp ****     RiscV::w_stvec((uint64) &RiscV::supervisorTrap);
  22              		.loc 1 17 5
  23              		.loc 1 17 19 is_stmt 0
  24 0010 97070000 		la	a5,_ZN5RiscV14supervisorTrapEv
  24      83B70700 
  25              	.LVL0:
  26              	.LBB89:
  27              	.LBB90:
  28              		.file 2 "src/../h/riscv.hpp"
   1:src/../h/riscv.hpp **** //
   2:src/../h/riscv.hpp **** // Created by os on 4/28/22.
   3:src/../h/riscv.hpp **** //
   4:src/../h/riscv.hpp **** 
   5:src/../h/riscv.hpp **** #ifndef OS1_KERNEL_RISCV_HPP
   6:src/../h/riscv.hpp **** #define OS1_KERNEL_RISCV_HPP
   7:src/../h/riscv.hpp **** #include "../lib/hw.h"
   8:src/../h/riscv.hpp **** 
   9:src/../h/riscv.hpp **** 
  10:src/../h/riscv.hpp **** class RiscV{
  11:src/../h/riscv.hpp **** 
  12:src/../h/riscv.hpp ****     static uint64 globalTime;
GAS LISTING /tmp/ccbuBniB.s 			page 2


  13:src/../h/riscv.hpp **** 
  14:src/../h/riscv.hpp ****     static bool userMainFinished;
  15:src/../h/riscv.hpp **** 
  16:src/../h/riscv.hpp ****     enum BitMaskSstatus{
  17:src/../h/riscv.hpp ****         SSTATUS_SIE = (1<<1),
  18:src/../h/riscv.hpp ****         SSTATUS_SPIE = (1<<5),
  19:src/../h/riscv.hpp ****         SSTATUS_SPP = (1<<8),
  20:src/../h/riscv.hpp ****     };
  21:src/../h/riscv.hpp **** 
  22:src/../h/riscv.hpp ****     enum BitMaskSip{
  23:src/../h/riscv.hpp ****         SIP_SSIE = (1<<1),
  24:src/../h/riscv.hpp ****         SIP_STIE = (1<<5),
  25:src/../h/riscv.hpp ****         SIP_SEIE = (1<<9),
  26:src/../h/riscv.hpp ****     };
  27:src/../h/riscv.hpp **** 
  28:src/../h/riscv.hpp ****     static void executeMemAllocSyscall();   //wrapper function for moving parameters and calling Me
  29:src/../h/riscv.hpp **** 
  30:src/../h/riscv.hpp ****     static void executeMemFreeSyscall();    //wrapper function for moving parameters and calling Me
  31:src/../h/riscv.hpp **** 
  32:src/../h/riscv.hpp ****     static void executeThreadCreateSyscall();
  33:src/../h/riscv.hpp **** 
  34:src/../h/riscv.hpp ****     static void executeThreadExitSyscall();
  35:src/../h/riscv.hpp **** 
  36:src/../h/riscv.hpp ****     static void executeThreadDispatchSyscall();
  37:src/../h/riscv.hpp **** 
  38:src/../h/riscv.hpp ****     static void executeThreadAttachBodySyscall();
  39:src/../h/riscv.hpp **** 
  40:src/../h/riscv.hpp ****     static void executeThreadStartSyscall();
  41:src/../h/riscv.hpp **** 
  42:src/../h/riscv.hpp ****     static void executeSemOpenSyscall();
  43:src/../h/riscv.hpp **** 
  44:src/../h/riscv.hpp ****     static void executeSemCloseSyscall();
  45:src/../h/riscv.hpp **** 
  46:src/../h/riscv.hpp ****     static void executeSemWaitSyscall();
  47:src/../h/riscv.hpp **** 
  48:src/../h/riscv.hpp ****     static void executeSemSignalSyscall();
  49:src/../h/riscv.hpp **** 
  50:src/../h/riscv.hpp ****     static void executeTimeSleepSyscall();
  51:src/../h/riscv.hpp **** 
  52:src/../h/riscv.hpp ****     static void executeGetcSyscall();
  53:src/../h/riscv.hpp **** 
  54:src/../h/riscv.hpp ****     static void executePutcSyscall();
  55:src/../h/riscv.hpp **** 
  56:src/../h/riscv.hpp ****     static void executePutcUtilSyscall();
  57:src/../h/riscv.hpp **** 
  58:src/../h/riscv.hpp ****     static void executeThreadFreeSyscall();
  59:src/../h/riscv.hpp **** 
  60:src/../h/riscv.hpp ****     static void executeSemaphoreFreeSyscall();
  61:src/../h/riscv.hpp **** 
  62:src/../h/riscv.hpp ****     static void executeForkSyscall();
  63:src/../h/riscv.hpp **** 
  64:src/../h/riscv.hpp ****     static void putcWrapper(void *arg);
  65:src/../h/riscv.hpp **** 
  66:src/../h/riscv.hpp ****     static uint64 r_scause();
  67:src/../h/riscv.hpp **** 
  68:src/../h/riscv.hpp ****     static void w_scause(uint64 scause);
  69:src/../h/riscv.hpp **** 
GAS LISTING /tmp/ccbuBniB.s 			page 3


  70:src/../h/riscv.hpp ****     static uint64 r_sepc();
  71:src/../h/riscv.hpp **** 
  72:src/../h/riscv.hpp ****     static void w_sepc(uint64 sepc);
  73:src/../h/riscv.hpp **** 
  74:src/../h/riscv.hpp ****     static uint64 r_stvec();
  75:src/../h/riscv.hpp **** 
  76:src/../h/riscv.hpp ****     static void w_stvec(uint64 stvec);
  77:src/../h/riscv.hpp **** 
  78:src/../h/riscv.hpp ****     static uint64 r_sstatus();
  79:src/../h/riscv.hpp **** 
  80:src/../h/riscv.hpp ****     static void w_sstatus(uint64 sstatus);
  81:src/../h/riscv.hpp **** 
  82:src/../h/riscv.hpp ****     static void ms_sstatus(uint64 mask);
  83:src/../h/riscv.hpp **** 
  84:src/../h/riscv.hpp ****     static void mc_sstatus(uint64 mask);
  85:src/../h/riscv.hpp **** 
  86:src/../h/riscv.hpp ****     static void ms_sip(uint64 mask);
  87:src/../h/riscv.hpp **** 
  88:src/../h/riscv.hpp ****     static void mc_sip(uint64 mask);
  89:src/../h/riscv.hpp **** 
  90:src/../h/riscv.hpp ****     static void ms_sie(uint64 mask);
  91:src/../h/riscv.hpp **** 
  92:src/../h/riscv.hpp ****     static void mc_sie(uint64 mask);
  93:src/../h/riscv.hpp **** 
  94:src/../h/riscv.hpp ****     static void saveA0toSscratch();
  95:src/../h/riscv.hpp **** 
  96:src/../h/riscv.hpp ****     static void jumpToDesignatedPrivilegeMode();
  97:src/../h/riscv.hpp **** 
  98:src/../h/riscv.hpp ****     static void popSppSpie();
  99:src/../h/riscv.hpp **** 
 100:src/../h/riscv.hpp ****     static void getPC();
 101:src/../h/riscv.hpp **** 
 102:src/../h/riscv.hpp ****     static void supervisorTrap();      //supervisorTrap defined in /src/supervisorTrap.S
 103:src/../h/riscv.hpp **** 
 104:src/../h/riscv.hpp ****     static void handleSupervisorTrap();
 105:src/../h/riscv.hpp **** 
 106:src/../h/riscv.hpp ****     static void enableInterrupts();
 107:src/../h/riscv.hpp **** 
 108:src/../h/riscv.hpp ****     static void disableInterrupts();
 109:src/../h/riscv.hpp **** 
 110:src/../h/riscv.hpp ****     static void enableHardwareInterrupts();
 111:src/../h/riscv.hpp **** 
 112:src/../h/riscv.hpp ****     static void disableHardwareInterrupts();
 113:src/../h/riscv.hpp **** 
 114:src/../h/riscv.hpp ****     static void enableTimerInterrupts();
 115:src/../h/riscv.hpp **** 
 116:src/../h/riscv.hpp ****     static void disableTimerInterrupts();
 117:src/../h/riscv.hpp **** 
 118:src/../h/riscv.hpp ****     static void initialize();
 119:src/../h/riscv.hpp **** 
 120:src/../h/riscv.hpp ****     static void finalize();
 121:src/../h/riscv.hpp **** 
 122:src/../h/riscv.hpp ****     friend class TCB;
 123:src/../h/riscv.hpp **** 
 124:src/../h/riscv.hpp ****     friend class System;
 125:src/../h/riscv.hpp **** 
 126:src/../h/riscv.hpp ****     friend class Scheduler;
GAS LISTING /tmp/ccbuBniB.s 			page 4


 127:src/../h/riscv.hpp **** 
 128:src/../h/riscv.hpp ****     friend class ConsoleUtil;
 129:src/../h/riscv.hpp **** };
 130:src/../h/riscv.hpp **** 
 131:src/../h/riscv.hpp **** inline uint64 RiscV::r_scause(){
 132:src/../h/riscv.hpp ****     uint64 volatile scause;
 133:src/../h/riscv.hpp ****     asm("csrr %[scause], scause" : [scause] "=r" (scause));
 134:src/../h/riscv.hpp ****     return scause;
 135:src/../h/riscv.hpp **** }
 136:src/../h/riscv.hpp **** 
 137:src/../h/riscv.hpp **** inline void RiscV::w_scause(uint64 scause){
 138:src/../h/riscv.hpp ****     asm("csrw scause, %[scause]" : : [scause] "r" (scause));
 139:src/../h/riscv.hpp **** }
 140:src/../h/riscv.hpp **** 
 141:src/../h/riscv.hpp **** inline uint64 RiscV::r_sepc(){
 142:src/../h/riscv.hpp ****     uint64 sepc;
 143:src/../h/riscv.hpp ****     asm("csrr %[sepc], sepc" : [sepc] "=r" (sepc));
 144:src/../h/riscv.hpp ****     return sepc;
 145:src/../h/riscv.hpp **** }
 146:src/../h/riscv.hpp **** 
 147:src/../h/riscv.hpp **** inline void RiscV::w_sepc(uint64 sepc){
 148:src/../h/riscv.hpp ****     asm("csrw sepc, %[sepc]" : : [sepc] "r" (sepc));
 149:src/../h/riscv.hpp **** }
 150:src/../h/riscv.hpp **** 
 151:src/../h/riscv.hpp **** inline uint64 RiscV::r_stvec(){
 152:src/../h/riscv.hpp ****     uint64 stvec;
 153:src/../h/riscv.hpp ****     asm("csrr %[stvec], stvec" : [stvec] "=r" (stvec));
 154:src/../h/riscv.hpp ****     return stvec;
 155:src/../h/riscv.hpp **** }
 156:src/../h/riscv.hpp **** 
 157:src/../h/riscv.hpp **** inline void RiscV::w_sstatus(uint64 sstatus){
 158:src/../h/riscv.hpp ****     asm("csrw sstatus, %[sstatus]" : : [sstatus] "r" (sstatus));
 159:src/../h/riscv.hpp **** }
 160:src/../h/riscv.hpp **** 
 161:src/../h/riscv.hpp **** inline uint64 RiscV::r_sstatus(){
 162:src/../h/riscv.hpp ****     uint64 sstatus;
 163:src/../h/riscv.hpp ****     asm("csrr %[sstatus], sstatus" : [sstatus] "=r" (sstatus));
 164:src/../h/riscv.hpp ****     return sstatus;
 165:src/../h/riscv.hpp **** }
 166:src/../h/riscv.hpp **** 
 167:src/../h/riscv.hpp **** inline void RiscV::w_stvec(uint64 stvec){
 168:src/../h/riscv.hpp ****     asm("csrw stvec, %[stvec]" : : [stvec] "r" (stvec));
  29              		.loc 2 168 5 is_stmt 1
  30              		.loc 2 168 56 is_stmt 0
  31              	#APP
  32              	# 168 "src/../h/riscv.hpp" 1
 169              	}
  33              		csrw stvec, a5
  34              	# 0 "" 2
  35              	.LVL1:
  36              	#NO_APP
  37              	.LBE90:
  38              	.LBE89:
  18:src/riscv.cpp ****     kmem_init(BUDDY_START_ADDR_CONST, 4096);
  39              		.loc 1 18 5 is_stmt 1
  40              		.loc 1 18 15 is_stmt 0
  41 001c 97070000 		la	a5,HEAP_START_ADDR
GAS LISTING /tmp/ccbuBniB.s 			page 5


  41      83B70700 
  42 0024 03B50700 		ld	a0,0(a5)
  43 0028 1355C500 		srli	a0,a0,12
  44 002c 13052500 		addi	a0,a0,2
  45              		.loc 1 18 14
  46 0030 B7150000 		li	a1,4096
  47 0034 1315C500 		slli	a0,a0,12
  48 0038 97000000 		call	_Z9kmem_initPvi@plt
  48      E7800000 
  49              	.LVL2:
  19:src/riscv.cpp ****     MemoryAllocator::initialize();
  50              		.loc 1 19 5 is_stmt 1
  51              		.loc 1 19 32 is_stmt 0
  52 0040 97000000 		call	_ZN15MemoryAllocator10initializeEv@plt
  52      E7800000 
  53              	.LVL3:
  20:src/riscv.cpp ****     Scheduler::initialize();
  54              		.loc 1 20 5 is_stmt 1
  55              		.loc 1 20 26 is_stmt 0
  56 0048 97000000 		call	_ZN9Scheduler10initializeEv@plt
  56      E7800000 
  57              	.LVL4:
  21:src/riscv.cpp ****     TCB::initialize();
  58              		.loc 1 21 5 is_stmt 1
  59              		.loc 1 21 20 is_stmt 0
  60 0050 97000000 		call	_ZN3TCB10initializeEv@plt
  60      E7800000 
  61              	.LVL5:
  22:src/riscv.cpp ****     SCB::initialize();
  62              		.loc 1 22 5 is_stmt 1
  63              		.loc 1 22 20 is_stmt 0
  64 0058 97000000 		call	_ZN3SCB10initializeEv@plt
  64      E7800000 
  65              	.LVL6:
  23:src/riscv.cpp ****     ConsoleUtil::initialize();
  66              		.loc 1 23 5 is_stmt 1
  67              		.loc 1 23 28 is_stmt 0
  68 0060 97000000 		call	_ZN11ConsoleUtil10initializeEv@plt
  68      E7800000 
  69              	.LVL7:
  24:src/riscv.cpp ****     RiscV::enableInterrupts();
  70              		.loc 1 24 5 is_stmt 1
 170:src/../h/riscv.hpp **** 
 171:src/../h/riscv.hpp **** inline void  RiscV::ms_sstatus(uint64 mask) {
 172:src/../h/riscv.hpp ****     asm("csrs sstatus, %[mask]" : : [mask] "r" (mask));
 173:src/../h/riscv.hpp **** }
 174:src/../h/riscv.hpp **** 
 175:src/../h/riscv.hpp **** inline void  RiscV::mc_sstatus(uint64 mask) {
 176:src/../h/riscv.hpp ****     asm("csrc sstatus, %[mask]" : : [mask] "r" (mask));
 177:src/../h/riscv.hpp **** }
 178:src/../h/riscv.hpp **** 
 179:src/../h/riscv.hpp **** inline void  RiscV::ms_sip(uint64 mask) {
 180:src/../h/riscv.hpp ****     asm("csrs sip, %[mask]" : : [mask] "r" (mask));
 181:src/../h/riscv.hpp **** }
 182:src/../h/riscv.hpp **** 
 183:src/../h/riscv.hpp **** inline void  RiscV::mc_sip(uint64 mask) {
 184:src/../h/riscv.hpp ****     asm("csrc sip, %[mask]" : : [mask] "r" (mask));
GAS LISTING /tmp/ccbuBniB.s 			page 6


 185:src/../h/riscv.hpp **** }
 186:src/../h/riscv.hpp **** 
 187:src/../h/riscv.hpp **** inline void  RiscV::ms_sie(uint64 mask) {
 188:src/../h/riscv.hpp ****     asm("csrs sie, %[mask]" : : [mask] "r" (mask));
 189:src/../h/riscv.hpp **** }
 190:src/../h/riscv.hpp **** 
 191:src/../h/riscv.hpp **** inline void  RiscV::mc_sie(uint64 mask){
 192:src/../h/riscv.hpp ****     asm("csrc sie, %[mask]" : : [mask] "r" (mask));
 193:src/../h/riscv.hpp **** }
 194:src/../h/riscv.hpp **** 
 195:src/../h/riscv.hpp **** inline void RiscV::enableInterrupts() {
 196:src/../h/riscv.hpp ****     RiscV::ms_sie(SIP_SSIE);
  71              		.loc 2 196 5
  72              	.LBB91:
  73              	.LBB92:
  74              	.LBB93:
 188:src/../h/riscv.hpp **** }
  75              		.loc 2 188 5
 188:src/../h/riscv.hpp **** }
  76              		.loc 2 188 51 is_stmt 0
  77 0068 93072000 		li	a5,2
  78              	#APP
  79              	# 188 "src/../h/riscv.hpp" 1
  80              		csrs sie, a5
  81              	# 0 "" 2
  82              	.LVL8:
  83              	#NO_APP
  84              	.LBE93:
  85              	.LBE92:
  86              	.LBE91:
 197:src/../h/riscv.hpp ****     RiscV::ms_sie(SIP_SEIE);
  87              		.loc 2 197 5 is_stmt 1
  88              	.LBB98:
  89              	.LBB94:
  90              	.LBB95:
 188:src/../h/riscv.hpp **** }
  91              		.loc 2 188 5
 188:src/../h/riscv.hpp **** }
  92              		.loc 2 188 51 is_stmt 0
  93 0070 13070020 		li	a4,512
  94              	#APP
  95              	# 188 "src/../h/riscv.hpp" 1
  96              		csrs sie, a4
  97              	# 0 "" 2
  98              	.LVL9:
  99              	#NO_APP
 100              	.LBE95:
 101              	.LBE94:
 102              	.LBE98:
 198:src/../h/riscv.hpp ****     RiscV::ms_sstatus(SSTATUS_SIE);
 103              		.loc 2 198 5 is_stmt 1
 104              	.LBB99:
 105              	.LBB96:
 106              	.LBB97:
 172:src/../h/riscv.hpp **** }
 107              		.loc 2 172 5
 172:src/../h/riscv.hpp **** }
GAS LISTING /tmp/ccbuBniB.s 			page 7


 108              		.loc 2 172 55 is_stmt 0
 109              	#APP
 110              	# 172 "src/../h/riscv.hpp" 1
 111              		csrs sstatus, a5
 112              	# 0 "" 2
 113              	.LVL10:
 114              	#NO_APP
 115              	.LBE97:
 116              	.LBE96:
 117              	.LBE99:
  25:src/riscv.cpp **** //    RiscV::enableHardwareInterrupts();
  26:src/riscv.cpp **** }
 118              		.loc 1 26 1
 119 007c 83308100 		ld	ra,8(sp)
 120              		.cfi_restore 1
 121 0080 03340100 		ld	s0,0(sp)
 122              		.cfi_restore 8
 123              		.cfi_def_cfa 2, 16
 124 0084 13010101 		addi	sp,sp,16
 125              		.cfi_def_cfa_offset 0
 126 0088 67800000 		jr	ra
 127              		.cfi_endproc
 128              	.LFE42:
 130              		.align	2
 131              		.globl	_ZN5RiscV10popSppSpieEv
 133              	_ZN5RiscV10popSppSpieEv:
 134              	.LFB43:
  27:src/riscv.cpp **** 
  28:src/riscv.cpp **** //get previous privilege and previous interrupt status
  29:src/riscv.cpp **** void RiscV::popSppSpie() {
 135              		.loc 1 29 26 is_stmt 1
 136              		.cfi_startproc
 137 008c 130101FF 		addi	sp,sp,-16
 138              		.cfi_def_cfa_offset 16
 139 0090 23348100 		sd	s0,8(sp)
 140              		.cfi_offset 8, -8
 141 0094 13040101 		addi	s0,sp,16
 142              		.cfi_def_cfa 8, 0
  30:src/riscv.cpp ****     asm("csrw sepc, ra");
 143              		.loc 1 30 5
 144              		.loc 1 30 25 is_stmt 0
 145              	#APP
 146              	# 30 "src/riscv.cpp" 1
  31              	    asm("sret");
 147              		csrw sepc, ra
 148              	# 0 "" 2
 149              		.loc 1 31 5 is_stmt 1
 150              		.loc 1 31 16 is_stmt 0
 151              	# 31 "src/riscv.cpp" 1
  32              	}
 152              		sret
 153              	# 0 "" 2
 154              		.loc 1 32 1
 155              	#NO_APP
 156 00a0 03348100 		ld	s0,8(sp)
 157              		.cfi_restore 8
 158              		.cfi_def_cfa 2, 16
GAS LISTING /tmp/ccbuBniB.s 			page 8


 159 00a4 13010101 		addi	sp,sp,16
 160              		.cfi_def_cfa_offset 0
 161 00a8 67800000 		jr	ra
 162              		.cfi_endproc
 163              	.LFE43:
 165              		.align	2
 166              		.globl	_ZN5RiscV28executeThreadDispatchSyscallEv
 168              	_ZN5RiscV28executeThreadDispatchSyscallEv:
 169              	.LFB51:
  33:src/riscv.cpp **** 
  34:src/riscv.cpp **** //handler function for traps
  35:src/riscv.cpp **** void RiscV::handleSupervisorTrap() {
  36:src/riscv.cpp **** 
  37:src/riscv.cpp ****     //read scause
  38:src/riscv.cpp ****     uint64 volatile scause = RiscV::r_scause();
  39:src/riscv.cpp **** 
  40:src/riscv.cpp ****     asm("csrr %[sscratch], sscratch" : [sscratch] "=r" (TCB::running->a0Location));
  41:src/riscv.cpp **** 
  42:src/riscv.cpp ****     //interrupt from ecall (both user and supervisor mode)
  43:src/riscv.cpp ****     if(scause == 0x09 || scause == 0x08) {
  44:src/riscv.cpp **** 
  45:src/riscv.cpp ****         //save sstatus and sepc
  46:src/riscv.cpp ****         //sepc should be increased by 4, since this is an ecall trap
  47:src/riscv.cpp ****         uint64 volatile sstatus = RiscV::r_sstatus();
  48:src/riscv.cpp ****         uint64 volatile sepc = RiscV::r_sepc()+4;
  49:src/riscv.cpp ****         TCB::running->sepc = sepc;
  50:src/riscv.cpp ****         TCB::running->sstatus = sstatus;
  51:src/riscv.cpp **** 
  52:src/riscv.cpp ****         //get the syscall ID from a0
  53:src/riscv.cpp ****         uint64 syscallID;
  54:src/riscv.cpp ****         asm("mv %[syscallID], a0" : [syscallID] "=r" (syscallID));
  55:src/riscv.cpp **** 
  56:src/riscv.cpp ****         switch(syscallID){
  57:src/riscv.cpp ****             case 0x01 : executeMemAllocSyscall();break;
  58:src/riscv.cpp ****             case 0x02 : executeMemFreeSyscall();break;
  59:src/riscv.cpp ****             case 0x11 : executeThreadCreateSyscall();break;
  60:src/riscv.cpp ****             case 0x12 : executeThreadExitSyscall();break;
  61:src/riscv.cpp ****             case 0x13 : executeThreadDispatchSyscall();break;
  62:src/riscv.cpp ****             case 0x14 : executeThreadAttachBodySyscall();break;
  63:src/riscv.cpp ****             case 0x15 : executeThreadStartSyscall();break;
  64:src/riscv.cpp ****             case 0x21 : executeSemOpenSyscall();break;
  65:src/riscv.cpp ****             case 0x22 : executeSemCloseSyscall();break;
  66:src/riscv.cpp ****             case 0x23 : executeSemWaitSyscall();break;
  67:src/riscv.cpp ****             case 0x24 : executeSemSignalSyscall();break;
  68:src/riscv.cpp ****             case 0x31 : executeTimeSleepSyscall();break;
  69:src/riscv.cpp ****             case 0x41 : executeGetcSyscall();break;
  70:src/riscv.cpp ****             case 0x42 : executePutcSyscall();break;
  71:src/riscv.cpp ****             case 0x43 : executePutcUtilSyscall();break;
  72:src/riscv.cpp ****             case 0x51 : executeThreadFreeSyscall();break;
  73:src/riscv.cpp ****             case 0x52 : executeSemaphoreFreeSyscall();break;
  74:src/riscv.cpp ****             //in this case we need to save SP and PC at this point so that newly created thread
  75:src/riscv.cpp ****             //can return to this point and exit trap routine regularly
  76:src/riscv.cpp ****             //note that getPC() returns PC incremented by 8 to skip executeForkSyscall
  77:src/riscv.cpp ****             case 0x61 : asm("mv %[sp], sp" : [sp] "=r"(TCB::currentSP));
  78:src/riscv.cpp ****                         RiscV::getPC();
  79:src/riscv.cpp ****                         executeForkSyscall();
  80:src/riscv.cpp ****                         break;
GAS LISTING /tmp/ccbuBniB.s 			page 9


  81:src/riscv.cpp ****         }
  82:src/riscv.cpp **** 
  83:src/riscv.cpp ****         //write previously save sstatus and incremented sepc
  84:src/riscv.cpp ****         RiscV::w_sstatus(TCB::running->sstatus);
  85:src/riscv.cpp ****         RiscV::w_sepc(TCB::running->sepc);
  86:src/riscv.cpp ****     }
  87:src/riscv.cpp **** 
  88:src/riscv.cpp ****     //timer interrupt (in this system's implementation, timer tick is manifested as software interr
  89:src/riscv.cpp ****     else if(scause == (0x01UL<<63 | 0x1)){
  90:src/riscv.cpp **** 
  91:src/riscv.cpp ****         //save sstatus and sepc
  92:src/riscv.cpp ****         //this time sepc remains the same
  93:src/riscv.cpp ****         uint64 volatile sstatus = RiscV::r_sstatus();
  94:src/riscv.cpp ****         uint64 volatile sepc = RiscV::r_sepc();
  95:src/riscv.cpp **** 
  96:src/riscv.cpp ****         //clear the SIP bit for software interrupt
  97:src/riscv.cpp ****         mc_sip(SIP_SSIE);
  98:src/riscv.cpp **** 
  99:src/riscv.cpp **** 
 100:src/riscv.cpp ****         //increase global time and try to awake threads that are asleep
 101:src/riscv.cpp ****         globalTime += 1;
 102:src/riscv.cpp ****         Scheduler::awake();
 103:src/riscv.cpp **** 
 104:src/riscv.cpp ****         //check whether time slice has run out for running thread
 105:src/riscv.cpp ****         //if so, dispatch
 106:src/riscv.cpp ****         TCB::timeSliceCounter++;
 107:src/riscv.cpp ****         if(TCB::timeSliceCounter >= TCB::running->timeSlice) {
 108:src/riscv.cpp **** 
 109:src/riscv.cpp ****             TCB::timeSliceCounter = 0;
 110:src/riscv.cpp **** 
 111:src/riscv.cpp ****             TCB* old = TCB::running;
 112:src/riscv.cpp **** 
 113:src/riscv.cpp ****             old->status = TCB::Status::READY;
 114:src/riscv.cpp **** 
 115:src/riscv.cpp ****             TCB::dispatch();
 116:src/riscv.cpp ****         }
 117:src/riscv.cpp **** 
 118:src/riscv.cpp ****         //write previously save sstatus and sepc
 119:src/riscv.cpp ****         RiscV::w_sstatus(sstatus);
 120:src/riscv.cpp ****         RiscV::w_sepc(sepc);
 121:src/riscv.cpp ****     }
 122:src/riscv.cpp **** 
 123:src/riscv.cpp ****     //hardware interrupt, from console (note that here we only check for keyboard interrupts, handl
 124:src/riscv.cpp ****     else if(scause == (0x01UL<<63 | 0x9)){
 125:src/riscv.cpp ****         //save sstatus and sepc
 126:src/riscv.cpp ****         //this time sepc remains the same
 127:src/riscv.cpp ****         uint64 volatile sstatus = RiscV::r_sstatus();
 128:src/riscv.cpp ****         uint64 volatile sepc = RiscV::r_sepc();
 129:src/riscv.cpp **** 
 130:src/riscv.cpp ****         //get the console status register location, and console status reg value
 131:src/riscv.cpp ****         uint64 status = CONSOLE_STATUS;
 132:src/riscv.cpp ****         asm("mv a0, %[status]" : : [status] "r" (status));
 133:src/riscv.cpp ****         asm("lb a1, 0(a0)");
 134:src/riscv.cpp ****         asm("mv %[status], a1" : [status] "=r" (status));
 135:src/riscv.cpp **** 
 136:src/riscv.cpp ****         //if keyboard is ready to send data
 137:src/riscv.cpp ****         if(status & 1UL)
GAS LISTING /tmp/ccbuBniB.s 			page 10


 138:src/riscv.cpp ****         {
 139:src/riscv.cpp ****             //fetch the character from CONSOLE_TX_DATA register
 140:src/riscv.cpp ****             uint64 data;
 141:src/riscv.cpp ****             char c;
 142:src/riscv.cpp ****             data = CONSOLE_TX_DATA;
 143:src/riscv.cpp ****             asm("mv a0, %[data]" : : [data] "r" (data));
 144:src/riscv.cpp ****             asm("lb a1, 0(a0)");
 145:src/riscv.cpp ****             asm("mv %[c], a1" : [c] "=r" (c));
 146:src/riscv.cpp **** 
 147:src/riscv.cpp ****             //if there was a getc request put the character into the input buffer, othrewise ignore
 148:src/riscv.cpp ****             if(ConsoleUtil::pendingGetc!=0) {
 149:src/riscv.cpp ****                 ConsoleUtil::pendingGetc--;
 150:src/riscv.cpp ****                 ConsoleUtil::putInput(c);
 151:src/riscv.cpp ****             }
 152:src/riscv.cpp ****         }
 153:src/riscv.cpp ****         plic_complete(plic_claim());
 154:src/riscv.cpp **** 
 155:src/riscv.cpp ****         RiscV::w_sstatus(sstatus);
 156:src/riscv.cpp ****         RiscV::w_sepc(sepc);
 157:src/riscv.cpp ****     }
 158:src/riscv.cpp **** 
 159:src/riscv.cpp ****     //illegal instruction, exit running thread
 160:src/riscv.cpp ****     else if(scause == 0x02){
 161:src/riscv.cpp ****         TCB* old = TCB::running;
 162:src/riscv.cpp ****         old->status = TCB::Status::FINISHED;
 163:src/riscv.cpp ****         ConsoleUtil::printString("sepc: ");
 164:src/riscv.cpp ****         uint64 sepc = RiscV::r_sepc();
 165:src/riscv.cpp ****         ConsoleUtil::printInt(sepc,16);
 166:src/riscv.cpp ****         ConsoleUtil::printString("\n");
 167:src/riscv.cpp ****         ConsoleUtil::printString("Illegal instruction\nExiting thread...\n");
 168:src/riscv.cpp ****         TCB::dispatch();
 169:src/riscv.cpp ****     }
 170:src/riscv.cpp **** 
 171:src/riscv.cpp ****     //some other kind of error, for more information check out RiscV handbook
 172:src/riscv.cpp ****     else{
 173:src/riscv.cpp ****         ConsoleUtil::printString("Error: \n");
 174:src/riscv.cpp ****         ConsoleUtil::printString("scause: ");
 175:src/riscv.cpp ****         uint64  scause = RiscV::r_scause();
 176:src/riscv.cpp ****         ConsoleUtil::printInt(scause);
 177:src/riscv.cpp ****         ConsoleUtil::printString("sepc: ");
 178:src/riscv.cpp ****         uint64 sepc = RiscV::r_sepc();
 179:src/riscv.cpp ****         ConsoleUtil::printInt(sepc,16);
 180:src/riscv.cpp ****         ConsoleUtil::printString("\n");
 181:src/riscv.cpp ****         TCB* old = TCB::running;
 182:src/riscv.cpp ****         old->status = TCB::Status::FINISHED;
 183:src/riscv.cpp ****         ConsoleUtil::printString("Exiting thread...\n");
 184:src/riscv.cpp ****         TCB::dispatch();
 185:src/riscv.cpp ****     }
 186:src/riscv.cpp **** 
 187:src/riscv.cpp ****     RiscV::jumpToDesignatedPrivilegeMode();
 188:src/riscv.cpp **** }
 189:src/riscv.cpp **** 
 190:src/riscv.cpp **** void RiscV::executeMemAllocSyscall(){
 191:src/riscv.cpp **** 
 192:src/riscv.cpp ****     //fetch the arguments from a0-a7 registers
 193:src/riscv.cpp ****     uint64 size;
 194:src/riscv.cpp ****     asm("mv %[size], a1" : [size] "=r" (size));
GAS LISTING /tmp/ccbuBniB.s 			page 11


 195:src/riscv.cpp **** 
 196:src/riscv.cpp ****     //call internal allocator and return the address in a0
 197:src/riscv.cpp ****     uint64 addr =(uint64)MemoryAllocator::kmalloc(size);
 198:src/riscv.cpp **** 
 199:src/riscv.cpp ****     asm("mv a0, %[addr]" : : [addr] "r" (addr));
 200:src/riscv.cpp **** 
 201:src/riscv.cpp ****     RiscV::saveA0toSscratch();
 202:src/riscv.cpp **** }
 203:src/riscv.cpp **** 
 204:src/riscv.cpp **** void RiscV::executeMemFreeSyscall() {
 205:src/riscv.cpp **** 
 206:src/riscv.cpp ****     //fetch the arguments from a0-a7 registers
 207:src/riscv.cpp ****     uint64 iaddr, status;
 208:src/riscv.cpp **** 
 209:src/riscv.cpp **** 
 210:src/riscv.cpp ****     if(MemoryAllocator::initialized) {
 211:src/riscv.cpp ****         //call internal allocator and free memory which iaddr points to
 212:src/riscv.cpp ****         asm("mv %[iaddr], a1" : [iaddr] "=r"(iaddr));
 213:src/riscv.cpp ****         status = MemoryAllocator::kfree((void *) iaddr);;
 214:src/riscv.cpp ****     }
 215:src/riscv.cpp ****     else
 216:src/riscv.cpp ****         status = -1;
 217:src/riscv.cpp **** 
 218:src/riscv.cpp ****     //return status
 219:src/riscv.cpp ****     asm("mv a0, %[status]" : : [status] "r" (status));
 220:src/riscv.cpp **** 
 221:src/riscv.cpp ****     RiscV::saveA0toSscratch();
 222:src/riscv.cpp **** }
 223:src/riscv.cpp **** 
 224:src/riscv.cpp **** void RiscV::executeThreadCreateSyscall(){
 225:src/riscv.cpp **** 
 226:src/riscv.cpp ****     //fetch the arguments from a0-a7 registers
 227:src/riscv.cpp ****     uint64 iroutine, iargs, ihandle, istack;
 228:src/riscv.cpp **** 
 229:src/riscv.cpp ****     asm("mv %[istack], a7" : [istack] "=r"(istack));
 230:src/riscv.cpp ****     asm("mv %[ihandle], a1" : [ihandle] "=r"(ihandle));
 231:src/riscv.cpp ****     asm("mv %[iroutine], a2" : [iroutine] "=r"(iroutine));
 232:src/riscv.cpp ****     asm("mv %[iargs], a3" : [iargs] "=r"(iargs));
 233:src/riscv.cpp **** 
 234:src/riscv.cpp ****     //call constructor for Thread Control Block and if not null, write thread address into ihandle
 235:src/riscv.cpp ****     TCB *tcb = new TCB((TCB::Body)iroutine, (void*)iargs, (uint64*)istack, DEFAULT_TIME_SLICE);
 236:src/riscv.cpp **** 
 237:src/riscv.cpp ****     uint64 status = 0;
 238:src/riscv.cpp **** 
 239:src/riscv.cpp ****     if(tcb == nullptr){
 240:src/riscv.cpp ****         status = -1;
 241:src/riscv.cpp ****     }
 242:src/riscv.cpp ****     else{
 243:src/riscv.cpp ****         if(tcb->body)
 244:src/riscv.cpp ****             Scheduler::put(tcb);
 245:src/riscv.cpp ****         *((TCB**)ihandle) = tcb;
 246:src/riscv.cpp ****     }
 247:src/riscv.cpp **** 
 248:src/riscv.cpp ****     //return status
 249:src/riscv.cpp ****     asm("mv a0, %[status]" : : [status] "r" (status));
 250:src/riscv.cpp **** 
 251:src/riscv.cpp ****     RiscV::saveA0toSscratch();
GAS LISTING /tmp/ccbuBniB.s 			page 12


 252:src/riscv.cpp **** }
 253:src/riscv.cpp **** 
 254:src/riscv.cpp **** void RiscV::executeThreadAttachBodySyscall(){
 255:src/riscv.cpp **** 
 256:src/riscv.cpp ****     //fetch the arguments from a0-a7 registers
 257:src/riscv.cpp ****     uint64 iroutine, iargs, ihandle, istack;
 258:src/riscv.cpp **** 
 259:src/riscv.cpp **** 
 260:src/riscv.cpp ****     asm("mv %[istack], a7" : [istack] "=r"(istack));
 261:src/riscv.cpp ****     asm("mv %[ihandle], a1" : [ihandle] "=r"(ihandle));
 262:src/riscv.cpp ****     asm("mv %[iroutine], a2" : [iroutine] "=r"(iroutine));
 263:src/riscv.cpp ****     asm("mv %[iargs], a3" : [iargs] "=r"(iargs));
 264:src/riscv.cpp **** 
 265:src/riscv.cpp ****     TCB *tcb = new TCB((TCB::Body)iroutine, (void*)iargs, (uint64*)istack, DEFAULT_TIME_SLICE);
 266:src/riscv.cpp **** 
 267:src/riscv.cpp ****     uint64 status = 0;
 268:src/riscv.cpp **** 
 269:src/riscv.cpp ****     if(tcb == nullptr){
 270:src/riscv.cpp ****         status = -1;
 271:src/riscv.cpp ****     }
 272:src/riscv.cpp ****     else{
 273:src/riscv.cpp ****         tcb->body = (TCB::Body)iroutine;
 274:src/riscv.cpp ****         tcb->args = (void*)iargs;
 275:src/riscv.cpp ****         *((TCB**)ihandle) = tcb;
 276:src/riscv.cpp ****     }
 277:src/riscv.cpp **** 
 278:src/riscv.cpp ****     asm("mv a0, %[status]" : : [status] "r" (status));
 279:src/riscv.cpp **** 
 280:src/riscv.cpp ****     RiscV::saveA0toSscratch();
 281:src/riscv.cpp **** }
 282:src/riscv.cpp **** 
 283:src/riscv.cpp **** void RiscV::executeThreadStartSyscall(){
 284:src/riscv.cpp **** 
 285:src/riscv.cpp ****     //fetch the arguments from a0-a7 registers
 286:src/riscv.cpp ****     uint64 ihandle;
 287:src/riscv.cpp **** 
 288:src/riscv.cpp ****     asm("mv %[ihandle], a1" : [ihandle] "=r"(ihandle));
 289:src/riscv.cpp **** 
 290:src/riscv.cpp ****     //get the handle and put tcb in scheduler if not null
 291:src/riscv.cpp ****     TCB* tcb =(TCB*)ihandle;
 292:src/riscv.cpp **** 
 293:src/riscv.cpp ****     uint64 status = 0;
 294:src/riscv.cpp **** 
 295:src/riscv.cpp ****     if(tcb == nullptr){
 296:src/riscv.cpp ****         status = -1;
 297:src/riscv.cpp ****     }
 298:src/riscv.cpp ****     else{
 299:src/riscv.cpp ****         tcb->status = TCB::Status::READY;
 300:src/riscv.cpp ****         Scheduler::put(tcb);
 301:src/riscv.cpp ****         TCB::dispatch();
 302:src/riscv.cpp ****     }
 303:src/riscv.cpp **** 
 304:src/riscv.cpp ****     //return status
 305:src/riscv.cpp ****     asm("mv a0, %[status]" : : [status] "r" (status));
 306:src/riscv.cpp **** 
 307:src/riscv.cpp ****     RiscV::saveA0toSscratch();
 308:src/riscv.cpp **** }
GAS LISTING /tmp/ccbuBniB.s 			page 13


 309:src/riscv.cpp **** 
 310:src/riscv.cpp **** void RiscV::executeThreadExitSyscall() {
 311:src/riscv.cpp **** 
 312:src/riscv.cpp ****     //fetch the arguments from a0-a7 registers
 313:src/riscv.cpp ****     uint64 status = 0;
 314:src/riscv.cpp **** 
 315:src/riscv.cpp ****     //if thread not null, set status to finished and dispatch
 316:src/riscv.cpp ****     if(TCB::running == nullptr){
 317:src/riscv.cpp ****         status = -1;
 318:src/riscv.cpp ****     }
 319:src/riscv.cpp ****     else{
 320:src/riscv.cpp ****         TCB* old = TCB::running;
 321:src/riscv.cpp ****         old->status = TCB::Status::FINISHED;
 322:src/riscv.cpp ****         TCB::dispatch();
 323:src/riscv.cpp ****     }
 324:src/riscv.cpp **** 
 325:src/riscv.cpp ****     asm("mv a0, %[status]" : : [status] "r" (status));
 326:src/riscv.cpp **** 
 327:src/riscv.cpp ****     RiscV::saveA0toSscratch();
 328:src/riscv.cpp **** }
 329:src/riscv.cpp **** 
 330:src/riscv.cpp **** void RiscV::executeThreadDispatchSyscall(){
 170              		.loc 1 330 43 is_stmt 1
 171              		.cfi_startproc
 172 00ac 130101FF 		addi	sp,sp,-16
 173              		.cfi_def_cfa_offset 16
 174 00b0 23341100 		sd	ra,8(sp)
 175 00b4 23308100 		sd	s0,0(sp)
 176              		.cfi_offset 1, -8
 177              		.cfi_offset 8, -16
 178 00b8 13040101 		addi	s0,sp,16
 179              		.cfi_def_cfa 8, 0
 331:src/riscv.cpp **** 
 332:src/riscv.cpp ****     //dispatch current running thread
 333:src/riscv.cpp ****     TCB* old = TCB::running;
 180              		.loc 1 333 5
 181              		.loc 1 333 10 is_stmt 0
 182 00bc 97070000 		la	a5,_ZN3TCB7runningE
 182      83B70700 
 183 00c4 83B70700 		ld	a5,0(a5)
 184              	.LVL11:
 334:src/riscv.cpp ****     old->status = TCB::Status::READY;
 185              		.loc 1 334 5 is_stmt 1
 186              		.loc 1 334 17 is_stmt 0
 187 00c8 13071000 		li	a4,1
 188 00cc 23A8E700 		sw	a4,16(a5)
 335:src/riscv.cpp ****     TCB::dispatch();
 189              		.loc 1 335 5 is_stmt 1
 190              		.loc 1 335 18 is_stmt 0
 191 00d0 97000000 		call	_ZN3TCB8dispatchEv@plt
 191      E7800000 
 192              	.LVL12:
 336:src/riscv.cpp **** }
 193              		.loc 1 336 1
 194 00d8 83308100 		ld	ra,8(sp)
 195              		.cfi_restore 1
 196 00dc 03340100 		ld	s0,0(sp)
GAS LISTING /tmp/ccbuBniB.s 			page 14


 197              		.cfi_restore 8
 198              		.cfi_def_cfa 2, 16
 199 00e0 13010101 		addi	sp,sp,16
 200              		.cfi_def_cfa_offset 0
 201 00e4 67800000 		jr	ra
 202              		.cfi_endproc
 203              	.LFE51:
 205              		.align	2
 206              		.globl	_ZN5RiscV18executePutcSyscallEv
 208              	_ZN5RiscV18executePutcSyscallEv:
 209              	.LFB58:
 337:src/riscv.cpp **** 
 338:src/riscv.cpp **** void RiscV::executeSemOpenSyscall() {
 339:src/riscv.cpp **** 
 340:src/riscv.cpp ****     //fetch the arguments from a0-a7 registers
 341:src/riscv.cpp ****     uint64 ihandle, iinit;
 342:src/riscv.cpp **** 
 343:src/riscv.cpp ****     asm("mv %[ihandle], a1" : [ihandle] "=r"(ihandle));
 344:src/riscv.cpp ****     asm("mv %[iinit], a2" : [iinit] "=r"(iinit));
 345:src/riscv.cpp **** 
 346:src/riscv.cpp ****     //create new Semaphore Control Block and write it into ihandle if not null
 347:src/riscv.cpp ****     SCB *scb = new SCB(iinit);
 348:src/riscv.cpp **** 
 349:src/riscv.cpp ****     uint64 status = 0;
 350:src/riscv.cpp **** 
 351:src/riscv.cpp ****     if(scb == nullptr){
 352:src/riscv.cpp ****         status = -1;
 353:src/riscv.cpp ****     }
 354:src/riscv.cpp ****     else{
 355:src/riscv.cpp ****         *((SCB**)ihandle) = scb;
 356:src/riscv.cpp ****     }
 357:src/riscv.cpp **** 
 358:src/riscv.cpp ****     //return status
 359:src/riscv.cpp ****     asm("mv a0, %[status]" : : [status] "r" (status));
 360:src/riscv.cpp **** 
 361:src/riscv.cpp ****     RiscV::saveA0toSscratch();
 362:src/riscv.cpp **** 
 363:src/riscv.cpp **** }
 364:src/riscv.cpp **** 
 365:src/riscv.cpp **** void RiscV::executeSemCloseSyscall() {
 366:src/riscv.cpp **** 
 367:src/riscv.cpp ****     //fetch the arguments from a0-a7 registers
 368:src/riscv.cpp ****     uint64 ihandle;
 369:src/riscv.cpp **** 
 370:src/riscv.cpp ****     asm("mv %[ihandle], a1" : [ihandle] "=r"(ihandle));
 371:src/riscv.cpp **** 
 372:src/riscv.cpp ****     //delete scb if not null
 373:src/riscv.cpp ****     SCB *scb = (SCB*)ihandle;
 374:src/riscv.cpp ****     uint64 status = 0;
 375:src/riscv.cpp **** 
 376:src/riscv.cpp ****     if(scb == nullptr){
 377:src/riscv.cpp ****         status = -1;
 378:src/riscv.cpp ****     }
 379:src/riscv.cpp ****     else
 380:src/riscv.cpp ****         delete (SCB*)ihandle;
 381:src/riscv.cpp **** 
 382:src/riscv.cpp ****     //return status
GAS LISTING /tmp/ccbuBniB.s 			page 15


 383:src/riscv.cpp ****     asm("mv a0, %[status]" : : [status] "r" (status));
 384:src/riscv.cpp **** 
 385:src/riscv.cpp ****     RiscV::saveA0toSscratch();
 386:src/riscv.cpp **** }
 387:src/riscv.cpp **** 
 388:src/riscv.cpp **** void RiscV::executeSemWaitSyscall() {
 389:src/riscv.cpp **** 
 390:src/riscv.cpp ****     //fetch the arguments from a0-a7 registers
 391:src/riscv.cpp ****     uint64 ihandle;
 392:src/riscv.cpp **** 
 393:src/riscv.cpp ****     asm("mv %[ihandle], a1" : [ihandle] "=r"(ihandle));
 394:src/riscv.cpp **** 
 395:src/riscv.cpp ****     uint64 status = 0;
 396:src/riscv.cpp ****     //call wait method on ihandle scb
 397:src/riscv.cpp **** 
 398:src/riscv.cpp ****     if(((SCB*)ihandle) != nullptr)
 399:src/riscv.cpp ****         ((SCB*)ihandle)->wait();
 400:src/riscv.cpp ****     else
 401:src/riscv.cpp ****         status = -1;
 402:src/riscv.cpp **** 
 403:src/riscv.cpp ****     if(TCB::running->semError != nullptr)
 404:src/riscv.cpp ****         status = -1;
 405:src/riscv.cpp ****     else
 406:src/riscv.cpp ****         status = 0;
 407:src/riscv.cpp **** 
 408:src/riscv.cpp ****     //return status
 409:src/riscv.cpp ****     asm("mv a0, %[status]" : : [status] "r" (status));
 410:src/riscv.cpp **** 
 411:src/riscv.cpp ****     RiscV::saveA0toSscratch();
 412:src/riscv.cpp **** 
 413:src/riscv.cpp **** }
 414:src/riscv.cpp **** 
 415:src/riscv.cpp **** void RiscV::executeSemSignalSyscall() {
 416:src/riscv.cpp **** 
 417:src/riscv.cpp ****     //fetch the arguments from a0-a7 registers
 418:src/riscv.cpp ****     uint64 ihandle;
 419:src/riscv.cpp **** 
 420:src/riscv.cpp ****     asm("mv %[ihandle], a1" : [ihandle] "=r"(ihandle));
 421:src/riscv.cpp **** 
 422:src/riscv.cpp ****     //call signal method on ihandle scb
 423:src/riscv.cpp **** 
 424:src/riscv.cpp ****     uint64 status = 0;
 425:src/riscv.cpp **** 
 426:src/riscv.cpp ****     if(((SCB*)ihandle) != nullptr)
 427:src/riscv.cpp ****         ((SCB*)ihandle)->signal();
 428:src/riscv.cpp ****     else
 429:src/riscv.cpp ****         status = -1;
 430:src/riscv.cpp **** 
 431:src/riscv.cpp ****     //return status
 432:src/riscv.cpp ****     asm("mv a0, %[status]" : : [status] "r" (status));
 433:src/riscv.cpp **** 
 434:src/riscv.cpp ****     RiscV::saveA0toSscratch();
 435:src/riscv.cpp **** }
 436:src/riscv.cpp **** 
 437:src/riscv.cpp **** void RiscV::executeTimeSleepSyscall() {
 438:src/riscv.cpp **** 
 439:src/riscv.cpp ****     //fetch the arguments from a0-a7 registers
GAS LISTING /tmp/ccbuBniB.s 			page 16


 440:src/riscv.cpp ****     uint64 itime;
 441:src/riscv.cpp **** 
 442:src/riscv.cpp ****     asm("mv %[itime], a1" : [itime] "=r"(itime));
 443:src/riscv.cpp **** 
 444:src/riscv.cpp ****     //calculate wake time for running thread and put it to sleep
 445:src/riscv.cpp ****     //fetch new running with dispatch
 446:src/riscv.cpp ****     TCB* tcb = TCB::running;
 447:src/riscv.cpp ****     tcb->sleepTime = globalTime;
 448:src/riscv.cpp ****     tcb->wakeTime = globalTime + itime;
 449:src/riscv.cpp **** 
 450:src/riscv.cpp ****     Scheduler::sleep(tcb);
 451:src/riscv.cpp **** 
 452:src/riscv.cpp ****     tcb->status = TCB::Status::BLOCKED;
 453:src/riscv.cpp **** 
 454:src/riscv.cpp ****     TCB::dispatch();
 455:src/riscv.cpp **** 
 456:src/riscv.cpp ****     uint64 status = 0;
 457:src/riscv.cpp **** 
 458:src/riscv.cpp ****     //return status
 459:src/riscv.cpp ****     asm("mv a0, %[status]" : : [status] "r" (status));
 460:src/riscv.cpp **** 
 461:src/riscv.cpp ****     RiscV::saveA0toSscratch();
 462:src/riscv.cpp **** }
 463:src/riscv.cpp **** 
 464:src/riscv.cpp **** void RiscV::executeGetcSyscall() {
 465:src/riscv.cpp **** 
 466:src/riscv.cpp ****     //register a pending getc call
 467:src/riscv.cpp ****     if(!userMainFinished)
 468:src/riscv.cpp ****         ConsoleUtil::pendingGetc++;
 469:src/riscv.cpp **** 
 470:src/riscv.cpp ****     //get character from input buffer
 471:src/riscv.cpp ****     char c = ConsoleUtil::getInput();
 472:src/riscv.cpp **** 
 473:src/riscv.cpp ****     //if char == \n echo it as LF and CR
 474:src/riscv.cpp ****     if(c==13) {
 475:src/riscv.cpp ****         ConsoleUtil::putOutput(13);
 476:src/riscv.cpp ****         ConsoleUtil::putOutput(10);
 477:src/riscv.cpp ****     }
 478:src/riscv.cpp ****     //if not ESC character, echo it to console
 479:src/riscv.cpp ****     else if(c!=0x01b)
 480:src/riscv.cpp ****         ConsoleUtil::putOutput(c);
 481:src/riscv.cpp **** 
 482:src/riscv.cpp ****     //return character
 483:src/riscv.cpp ****     asm("mv a0, %[c]" : : [c] "r" (c));
 484:src/riscv.cpp **** 
 485:src/riscv.cpp ****     RiscV::saveA0toSscratch();
 486:src/riscv.cpp **** }
 487:src/riscv.cpp **** 
 488:src/riscv.cpp **** void RiscV::executePutcSyscall() {
 210              		.loc 1 488 34 is_stmt 1
 211              		.cfi_startproc
 212 00e8 130101FF 		addi	sp,sp,-16
 213              		.cfi_def_cfa_offset 16
 214 00ec 23341100 		sd	ra,8(sp)
 215 00f0 23308100 		sd	s0,0(sp)
 216              		.cfi_offset 1, -8
 217              		.cfi_offset 8, -16
GAS LISTING /tmp/ccbuBniB.s 			page 17


 218 00f4 13040101 		addi	s0,sp,16
 219              		.cfi_def_cfa 8, 0
 489:src/riscv.cpp **** 
 490:src/riscv.cpp ****     //register a pending putc call
 491:src/riscv.cpp ****     if(!userMainFinished)
 220              		.loc 1 491 5
 221              		.loc 1 491 8 is_stmt 0
 222 00f8 97070000 		lbu	a5,.LANCHOR0
 222      83C70700 
 223              		.loc 1 491 5
 224 0100 639C0700 		bnez	a5,.L8
 492:src/riscv.cpp ****         ConsoleUtil::pendingPutc++;
 225              		.loc 1 492 9 is_stmt 1
 226              		.loc 1 492 33 is_stmt 0
 227 0104 17070000 		la	a4,_ZN11ConsoleUtil11pendingPutcE
 227      03370700 
 228 010c 83370700 		ld	a5,0(a4)
 229 0110 93871700 		addi	a5,a5,1
 230 0114 2330F700 		sd	a5,0(a4)
 231              	.L8:
 493:src/riscv.cpp **** 
 494:src/riscv.cpp ****     char c;
 232              		.loc 1 494 5 is_stmt 1
 495:src/riscv.cpp **** 
 496:src/riscv.cpp ****     asm("mv %[c], a1" : [c] "=r"(c));
 233              		.loc 1 496 5
 234              		.loc 1 496 37 is_stmt 0
 235              	#APP
 236              	# 496 "src/riscv.cpp" 1
 497              	
 237              		mv a0, a1
 238              	# 0 "" 2
 239              	.LVL13:
 498:src/riscv.cpp ****     //put character in output buffer
 499:src/riscv.cpp ****     ConsoleUtil::putOutput(c);
 240              		.loc 1 499 5 is_stmt 1
 241              		.loc 1 499 27 is_stmt 0
 242              	#NO_APP
 243 011c 1375F50F 		andi	a0,a0,0xff
 244 0120 97000000 		call	_ZN11ConsoleUtil9putOutputEc@plt
 244      E7800000 
 245              	.LVL14:
 500:src/riscv.cpp **** }
 246              		.loc 1 500 1
 247 0128 83308100 		ld	ra,8(sp)
 248              		.cfi_restore 1
 249 012c 03340100 		ld	s0,0(sp)
 250              		.cfi_restore 8
 251              		.cfi_def_cfa 2, 16
 252 0130 13010101 		addi	sp,sp,16
 253              		.cfi_def_cfa_offset 0
 254 0134 67800000 		jr	ra
 255              		.cfi_endproc
 256              	.LFE58:
 258              		.align	2
 259              		.globl	_ZN5RiscV11putcWrapperEPv
 261              	_ZN5RiscV11putcWrapperEPv:
GAS LISTING /tmp/ccbuBniB.s 			page 18


 262              	.LFB59:
 501:src/riscv.cpp **** 
 502:src/riscv.cpp **** //wrapper function for putcThread
 503:src/riscv.cpp **** //spins in a while loop and checks whether console is ready to take output
 504:src/riscv.cpp **** //if ready read data from output buffer
 505:src/riscv.cpp **** void RiscV::putcWrapper(void* arg)
 506:src/riscv.cpp **** {
 263              		.loc 1 506 1 is_stmt 1
 264              		.cfi_startproc
 265              	.LVL15:
 266 0138 130101FE 		addi	sp,sp,-32
 267              		.cfi_def_cfa_offset 32
 268 013c 233C1100 		sd	ra,24(sp)
 269 0140 23388100 		sd	s0,16(sp)
 270              		.cfi_offset 1, -8
 271              		.cfi_offset 8, -16
 272 0144 13040102 		addi	s0,sp,32
 273              		.cfi_def_cfa 8, 0
 274 0148 6F00C000 		j	.L11
 275              	.LVL16:
 276              	.L12:
 277              	.LBB100:
 278              	.LBB101:
 507:src/riscv.cpp ****     while(true)
 508:src/riscv.cpp ****     {
 509:src/riscv.cpp ****         //read console status from status register
 510:src/riscv.cpp ****         uint64 status = CONSOLE_STATUS;
 511:src/riscv.cpp ****         asm("mv a0, %[status]" : : [status] "r" (status));
 512:src/riscv.cpp ****         asm("lb a1, 0(a0)");
 513:src/riscv.cpp ****         asm("mv %[status], a1" : [status] "=r" (status));
 514:src/riscv.cpp **** 
 515:src/riscv.cpp ****         //if console ready..
 516:src/riscv.cpp ****         if(status & 1UL<<5){
 517:src/riscv.cpp **** 
 518:src/riscv.cpp ****             //get character from output buffer with possible block if nothing in buffer
 519:src/riscv.cpp ****                 char volatile c = ConsoleUtil::putcUtilSyscall();
 520:src/riscv.cpp ****                 uint64 data = CONSOLE_RX_DATA;
 521:src/riscv.cpp ****                 asm("mv a0, %[data]" : : [data] "r"(data));
 522:src/riscv.cpp ****                 asm("mv a1, %[c]" : : [c] "r"(c));
 523:src/riscv.cpp ****                 asm("sb a1,0(a0)");
 524:src/riscv.cpp **** 
 525:src/riscv.cpp ****             //decrement number of pending putc requests
 526:src/riscv.cpp ****             if(ConsoleUtil::pendingPutc>0)
 527:src/riscv.cpp ****                 ConsoleUtil::pendingPutc--;
 528:src/riscv.cpp ****         }
 529:src/riscv.cpp ****         else
 530:src/riscv.cpp ****             thread_dispatch();
 279              		.loc 1 530 13
 280              		.loc 1 530 28 is_stmt 0
 281 014c 97000000 		call	_Z15thread_dispatchv@plt
 281      E7800000 
 282              	.LVL17:
 283              	.L11:
 284              	.LBE101:
 285              	.LBE100:
 507:src/riscv.cpp ****     while(true)
 286              		.loc 1 507 5 is_stmt 1
GAS LISTING /tmp/ccbuBniB.s 			page 19


 287              	.LBB104:
 510:src/riscv.cpp ****         asm("mv a0, %[status]" : : [status] "r" (status));
 288              		.loc 1 510 9
 510:src/riscv.cpp ****         asm("mv a0, %[status]" : : [status] "r" (status));
 289              		.loc 1 510 16 is_stmt 0
 290 0154 97070000 		la	a5,CONSOLE_STATUS
 290      83B70700 
 291 015c 83B70700 		ld	a5,0(a5)
 292              	.LVL18:
 511:src/riscv.cpp ****         asm("lb a1, 0(a0)");
 293              		.loc 1 511 9 is_stmt 1
 511:src/riscv.cpp ****         asm("lb a1, 0(a0)");
 294              		.loc 1 511 58 is_stmt 0
 295              	#APP
 296              	# 511 "src/riscv.cpp" 1
 512:src/riscv.cpp ****         asm("mv %[status], a1" : [status] "=r" (status));
 297              		mv a0, a5
 298              	# 0 "" 2
 299              		.loc 1 512 9 is_stmt 1
 512:src/riscv.cpp ****         asm("mv %[status], a1" : [status] "=r" (status));
 300              		.loc 1 512 28 is_stmt 0
 301              	# 512 "src/riscv.cpp" 1
 513:src/riscv.cpp **** 
 302              		lb a1, 0(a0)
 303              	# 0 "" 2
 304              		.loc 1 513 9 is_stmt 1
 513:src/riscv.cpp **** 
 305              		.loc 1 513 57 is_stmt 0
 306              	# 513 "src/riscv.cpp" 1
 307              		mv a5, a1
 308              	# 0 "" 2
 309              	.LVL19:
 516:src/riscv.cpp **** 
 310              		.loc 1 516 9 is_stmt 1
 311              	#NO_APP
 312              	.LBB103:
 516:src/riscv.cpp **** 
 313              		.loc 1 516 19 is_stmt 0
 314 016c 93F70702 		andi	a5,a5,32
 315              	.LVL20:
 516:src/riscv.cpp **** 
 316              		.loc 1 516 9
 317 0170 E38E07FC 		beqz	a5,.L12
 318              	.LBB102:
 519:src/riscv.cpp ****                 uint64 data = CONSOLE_RX_DATA;
 319              		.loc 1 519 17 is_stmt 1
 519:src/riscv.cpp ****                 uint64 data = CONSOLE_RX_DATA;
 320              		.loc 1 519 63 is_stmt 0
 321 0174 97000000 		call	_ZN11ConsoleUtil15putcUtilSyscallEv@plt
 321      E7800000 
 322              	.LVL21:
 519:src/riscv.cpp ****                 uint64 data = CONSOLE_RX_DATA;
 323              		.loc 1 519 64
 324 017c A307A4FE 		sb	a0,-17(s0)
 520:src/riscv.cpp ****                 asm("mv a0, %[data]" : : [data] "r"(data));
 325              		.loc 1 520 17 is_stmt 1
 520:src/riscv.cpp ****                 asm("mv a0, %[data]" : : [data] "r"(data));
GAS LISTING /tmp/ccbuBniB.s 			page 20


 326              		.loc 1 520 24 is_stmt 0
 327 0180 97070000 		la	a5,CONSOLE_RX_DATA
 327      83B70700 
 328 0188 83B70700 		ld	a5,0(a5)
 329              	.LVL22:
 521:src/riscv.cpp ****                 asm("mv a1, %[c]" : : [c] "r"(c));
 330              		.loc 1 521 17 is_stmt 1
 521:src/riscv.cpp ****                 asm("mv a1, %[c]" : : [c] "r"(c));
 331              		.loc 1 521 59 is_stmt 0
 332              	#APP
 333              	# 521 "src/riscv.cpp" 1
 522:src/riscv.cpp ****                 asm("sb a1,0(a0)");
 334              		mv a0, a5
 335              	# 0 "" 2
 336              		.loc 1 522 17 is_stmt 1
 522:src/riscv.cpp ****                 asm("sb a1,0(a0)");
 337              		.loc 1 522 47 is_stmt 0
 338              	#NO_APP
 339 0190 8347F4FE 		lbu	a5,-17(s0)
 340              	.LVL23:
 522:src/riscv.cpp ****                 asm("sb a1,0(a0)");
 341              		.loc 1 522 50
 342              	#APP
 343              	# 522 "src/riscv.cpp" 1
 523:src/riscv.cpp **** 
 344              		mv a1, a5
 345              	# 0 "" 2
 346              		.loc 1 523 17 is_stmt 1
 523:src/riscv.cpp **** 
 347              		.loc 1 523 35 is_stmt 0
 348              	# 523 "src/riscv.cpp" 1
 526:src/riscv.cpp ****                 ConsoleUtil::pendingPutc--;
 349              		sb a1,0(a0)
 350              	# 0 "" 2
 351              		.loc 1 526 13 is_stmt 1
 526:src/riscv.cpp ****                 ConsoleUtil::pendingPutc--;
 352              		.loc 1 526 40 is_stmt 0
 353              	#NO_APP
 354 019c 97070000 		la	a5,_ZN11ConsoleUtil11pendingPutcE
 354      83B70700 
 355 01a4 83B70700 		ld	a5,0(a5)
 526:src/riscv.cpp ****                 ConsoleUtil::pendingPutc--;
 356              		.loc 1 526 13
 357 01a8 E38607FA 		beqz	a5,.L11
 527:src/riscv.cpp ****         }
 358              		.loc 1 527 17 is_stmt 1
 527:src/riscv.cpp ****         }
 359              		.loc 1 527 41 is_stmt 0
 360 01ac 9387F7FF 		addi	a5,a5,-1
 361 01b0 17070000 		la	a4,_ZN11ConsoleUtil11pendingPutcE
 361      03370700 
 362 01b8 2330F700 		sd	a5,0(a4)
 363 01bc 6FF09FF9 		j	.L11
 364              	.LBE102:
 365              	.LBE103:
 366              	.LBE104:
 367              		.cfi_endproc
GAS LISTING /tmp/ccbuBniB.s 			page 21


 368              	.LFE59:
 370              		.align	2
 371              		.globl	_ZN5RiscV29jumpToDesignatedPrivilegeModeEv
 373              	_ZN5RiscV29jumpToDesignatedPrivilegeModeEv:
 374              	.LFB61:
 531:src/riscv.cpp ****     }
 532:src/riscv.cpp **** }
 533:src/riscv.cpp **** 
 534:src/riscv.cpp **** //utility syscall to get character from output buffer
 535:src/riscv.cpp **** //syscall is needed because we don't want to fiddle with kernel structures from anywhere but the tr
 536:src/riscv.cpp **** void RiscV::executePutcUtilSyscall() {
 537:src/riscv.cpp ****     char c = ConsoleUtil::getOutput();
 538:src/riscv.cpp ****     asm("mv a0, %[c]" : : [c] "r" ((uint64)(c)) );
 539:src/riscv.cpp **** 
 540:src/riscv.cpp ****     RiscV::saveA0toSscratch();
 541:src/riscv.cpp **** }
 542:src/riscv.cpp **** 
 543:src/riscv.cpp **** //return to privilege that was given at creation
 544:src/riscv.cpp **** void RiscV::jumpToDesignatedPrivilegeMode() {
 375              		.loc 1 544 45 is_stmt 1
 376              		.cfi_startproc
 377 01c0 130101FF 		addi	sp,sp,-16
 378              		.cfi_def_cfa_offset 16
 379 01c4 23348100 		sd	s0,8(sp)
 380              		.cfi_offset 8, -8
 381 01c8 13040101 		addi	s0,sp,16
 382              		.cfi_def_cfa 8, 0
 545:src/riscv.cpp ****     if(TCB::running->mode == TCB::Mode::SUPERVISOR) {
 383              		.loc 1 545 5
 384              		.loc 1 545 22 is_stmt 0
 385 01cc 97070000 		la	a5,_ZN3TCB7runningE
 385      83B70700 
 386 01d4 83B70700 		ld	a5,0(a5)
 387 01d8 03A74701 		lw	a4,20(a5)
 388              		.loc 1 545 5
 389 01dc 93071000 		li	a5,1
 390 01e0 630CF700 		beq	a4,a5,.L19
 546:src/riscv.cpp ****         RiscV::ms_sstatus(RiscV::SSTATUS_SPP);
 547:src/riscv.cpp ****     }
 548:src/riscv.cpp ****     else {
 549:src/riscv.cpp ****         RiscV::mc_sstatus(RiscV::SSTATUS_SPP);
 391              		.loc 1 549 9 is_stmt 1
 392              	.LVL24:
 393              	.LBB105:
 394              	.LBB106:
 176:src/../h/riscv.hpp **** }
 395              		.loc 2 176 5
 176:src/../h/riscv.hpp **** }
 396              		.loc 2 176 55 is_stmt 0
 397 01e4 93070010 		li	a5,256
 398              	#APP
 399              	# 176 "src/../h/riscv.hpp" 1
 400              		csrc sstatus, a5
 401              	# 0 "" 2
 402              	.LVL25:
 403              	#NO_APP
 404              	.L15:
GAS LISTING /tmp/ccbuBniB.s 			page 22


 405              	.LBE106:
 406              	.LBE105:
 550:src/riscv.cpp ****     }
 551:src/riscv.cpp **** }
 407              		.loc 1 551 1
 408 01ec 03348100 		ld	s0,8(sp)
 409              		.cfi_remember_state
 410              		.cfi_restore 8
 411              		.cfi_def_cfa 2, 16
 412 01f0 13010101 		addi	sp,sp,16
 413              		.cfi_def_cfa_offset 0
 414 01f4 67800000 		jr	ra
 415              	.L19:
 416              		.cfi_restore_state
 546:src/riscv.cpp ****     }
 417              		.loc 1 546 9 is_stmt 1
 418              	.LVL26:
 419              	.LBB107:
 420              	.LBB108:
 172:src/../h/riscv.hpp **** }
 421              		.loc 2 172 5
 172:src/../h/riscv.hpp **** }
 422              		.loc 2 172 55 is_stmt 0
 423 01f8 93070010 		li	a5,256
 424              	#APP
 425              	# 172 "src/../h/riscv.hpp" 1
 173:src/../h/riscv.hpp **** 
 426              		csrs sstatus, a5
 427              	# 0 "" 2
 428              		.loc 2 173 1
 429              	#NO_APP
 430 0200 6FF0DFFE 		j	.L15
 431              	.LBE108:
 432              	.LBE107:
 433              		.cfi_endproc
 434              	.LFE61:
 436              		.align	2
 437              		.globl	_ZN5RiscV8finalizeEv
 439              	_ZN5RiscV8finalizeEv:
 440              	.LFB62:
 552:src/riscv.cpp **** 
 553:src/riscv.cpp **** 
 554:src/riscv.cpp **** //clear out the scheduler and let console finish remaining outputs if there are any
 555:src/riscv.cpp **** void RiscV::finalize() {
 441              		.loc 1 555 24 is_stmt 1
 442              		.cfi_startproc
 443 0204 130101FF 		addi	sp,sp,-16
 444              		.cfi_def_cfa_offset 16
 445 0208 23341100 		sd	ra,8(sp)
 446 020c 23308100 		sd	s0,0(sp)
 447              		.cfi_offset 1, -8
 448              		.cfi_offset 8, -16
 449 0210 13040101 		addi	s0,sp,16
 450              		.cfi_def_cfa 8, 0
 556:src/riscv.cpp ****     userMainFinished = true;
 451              		.loc 1 556 5
 452              		.loc 1 556 22 is_stmt 0
GAS LISTING /tmp/ccbuBniB.s 			page 23


 453 0214 93071000 		li	a5,1
 454 0218 17070000 		sb	a5,.LANCHOR0,a4
 454      2300F700 
 557:src/riscv.cpp **** 
 558:src/riscv.cpp ****     ConsoleUtil::pendingPutc = 0;
 455              		.loc 1 558 5 is_stmt 1
 456              		.loc 1 558 30 is_stmt 0
 457 0220 97070000 		la	a5,_ZN11ConsoleUtil11pendingPutcE
 457      83B70700 
 458 0228 23B00700 		sd	zero,0(a5)
 559:src/riscv.cpp ****     ConsoleUtil::pendingGetc = 0;
 459              		.loc 1 559 5 is_stmt 1
 460              		.loc 1 559 30 is_stmt 0
 461 022c 97070000 		la	a5,_ZN11ConsoleUtil11pendingGetcE
 461      83B70700 
 462 0234 23B00700 		sd	zero,0(a5)
 560:src/riscv.cpp **** 
 561:src/riscv.cpp ****     RiscV::disableInterrupts();
 463              		.loc 1 561 5 is_stmt 1
 464              	.LBB109:
 465              	.LBB110:
 199:src/../h/riscv.hpp **** }
 200:src/../h/riscv.hpp **** 
 201:src/../h/riscv.hpp **** inline void RiscV::disableInterrupts() {
 202:src/../h/riscv.hpp ****     disableTimerInterrupts();
 466              		.loc 2 202 5
 467              	.LBE110:
 468              	.LBE109:
 203:src/../h/riscv.hpp ****     disableHardwareInterrupts();
 204:src/../h/riscv.hpp **** }
 205:src/../h/riscv.hpp **** 
 206:src/../h/riscv.hpp **** inline void RiscV::enableHardwareInterrupts() {
 207:src/../h/riscv.hpp ****     RiscV::mc_sie(SIP_SSIE);
 208:src/../h/riscv.hpp ****     RiscV::ms_sstatus(SSTATUS_SIE);
 209:src/../h/riscv.hpp ****     RiscV::ms_sie(SIP_SEIE);
 210:src/../h/riscv.hpp **** }
 211:src/../h/riscv.hpp **** 
 212:src/../h/riscv.hpp **** inline void RiscV::disableHardwareInterrupts(){
 213:src/../h/riscv.hpp ****     RiscV::mc_sie(SIP_SEIE);
 214:src/../h/riscv.hpp **** }
 215:src/../h/riscv.hpp **** 
 216:src/../h/riscv.hpp **** inline void RiscV::enableTimerInterrupts() {
 217:src/../h/riscv.hpp ****     RiscV::mc_sie(SIP_SEIE);
 218:src/../h/riscv.hpp ****     RiscV::ms_sstatus(SSTATUS_SIE);
 219:src/../h/riscv.hpp ****     RiscV::ms_sie(SIP_SSIE);
 220:src/../h/riscv.hpp **** }
 221:src/../h/riscv.hpp **** 
 222:src/../h/riscv.hpp **** inline void RiscV::disableTimerInterrupts(){
 223:src/../h/riscv.hpp ****     RiscV::mc_sie(SIP_SSIE);
 469              		.loc 2 223 5
 470              	.LVL27:
 471              	.LBB119:
 472              	.LBB117:
 473              	.LBB111:
 474              	.LBB112:
 475              	.LBB113:
 192:src/../h/riscv.hpp **** }
GAS LISTING /tmp/ccbuBniB.s 			page 24


 476              		.loc 2 192 5
 192:src/../h/riscv.hpp **** }
 477              		.loc 2 192 51 is_stmt 0
 478 0238 93072000 		li	a5,2
 479              	#APP
 480              	# 192 "src/../h/riscv.hpp" 1
 481              		csrc sie, a5
 482              	# 0 "" 2
 483              	.LVL28:
 484              	#NO_APP
 485              	.LBE113:
 486              	.LBE112:
 487              	.LBE111:
 203:src/../h/riscv.hpp ****     disableHardwareInterrupts();
 488              		.loc 2 203 5 is_stmt 1
 489              	.LBE117:
 490              	.LBE119:
 213:src/../h/riscv.hpp **** }
 491              		.loc 2 213 5
 492              	.LBB120:
 493              	.LBB118:
 494              	.LBB114:
 495              	.LBB115:
 496              	.LBB116:
 192:src/../h/riscv.hpp **** }
 497              		.loc 2 192 5
 192:src/../h/riscv.hpp **** }
 498              		.loc 2 192 51 is_stmt 0
 499 0240 93070020 		li	a5,512
 500              	#APP
 501              	# 192 "src/../h/riscv.hpp" 1
 502              		csrc sie, a5
 503              	# 0 "" 2
 504              	.LVL29:
 505              	#NO_APP
 506              	.L22:
 507              	.LBE116:
 508              	.LBE115:
 509              	.LBE114:
 510              	.LBE118:
 511              	.LBE120:
 562:src/riscv.cpp **** 
 563:src/riscv.cpp ****     while(Scheduler::readyHead != nullptr)
 512              		.loc 1 563 5 is_stmt 1
 513              		.loc 1 563 32
 514 0248 97070000 		la	a5,_ZN9Scheduler9readyHeadE
 514      83B70700 
 515 0250 83B70700 		ld	a5,0(a5)
 516 0254 638C0700 		beqz	a5,.L21
 564:src/riscv.cpp ****         Scheduler::readyHead = Scheduler::readyHead->next;
 517              		.loc 1 564 9
 518              		.loc 1 564 54 is_stmt 0
 519 0258 03B78704 		ld	a4,72(a5)
 520              		.loc 1 564 30
 521 025c 97070000 		la	a5,_ZN9Scheduler9readyHeadE
 521      83B70700 
 522 0264 23B0E700 		sd	a4,0(a5)
GAS LISTING /tmp/ccbuBniB.s 			page 25


 563:src/riscv.cpp ****         Scheduler::readyHead = Scheduler::readyHead->next;
 523              		.loc 1 563 5
 524 0268 6FF01FFE 		j	.L22
 525              	.L21:
 565:src/riscv.cpp **** 
 566:src/riscv.cpp ****     Scheduler::put(TCB::putcThread);
 526              		.loc 1 566 5 is_stmt 1
 527              		.loc 1 566 19 is_stmt 0
 528 026c 97070000 		la	a5,_ZN3TCB10putcThreadE
 528      83B70700 
 529 0274 03B50700 		ld	a0,0(a5)
 530 0278 97000000 		call	_ZN9Scheduler3putEP3TCB@plt
 530      E7800000 
 531              	.LVL30:
 532              	.L24:
 567:src/riscv.cpp **** 
 568:src/riscv.cpp ****     while(ConsoleUtil::outputHead != ConsoleUtil::outputTail)
 533              		.loc 1 568 5 is_stmt 1
 534              		.loc 1 568 35
 535 0280 97070000 		la	a5,_ZN11ConsoleUtil10outputHeadE
 535      83B70700 
 536 0288 03B70700 		ld	a4,0(a5)
 537 028c 97070000 		la	a5,_ZN11ConsoleUtil10outputTailE
 537      83B70700 
 538 0294 83B70700 		ld	a5,0(a5)
 539 0298 6308F700 		beq	a4,a5,.L20
 569:src/riscv.cpp ****         thread_dispatch();
 540              		.loc 1 569 9
 541              		.loc 1 569 24 is_stmt 0
 542 029c 97000000 		call	_Z15thread_dispatchv@plt
 542      E7800000 
 543              	.LVL31:
 568:src/riscv.cpp ****         thread_dispatch();
 544              		.loc 1 568 5
 545 02a4 6FF0DFFD 		j	.L24
 546              	.L20:
 570:src/riscv.cpp **** }
 547              		.loc 1 570 1
 548 02a8 83308100 		ld	ra,8(sp)
 549              		.cfi_restore 1
 550 02ac 03340100 		ld	s0,0(sp)
 551              		.cfi_restore 8
 552              		.cfi_def_cfa 2, 16
 553 02b0 13010101 		addi	sp,sp,16
 554              		.cfi_def_cfa_offset 0
 555 02b4 67800000 		jr	ra
 556              		.cfi_endproc
 557              	.LFE62:
 559              		.align	2
 560              		.globl	_ZN5RiscV16saveA0toSscratchEv
 562              	_ZN5RiscV16saveA0toSscratchEv:
 563              	.LFB63:
 571:src/riscv.cpp **** 
 572:src/riscv.cpp **** //write value in a0 to a memory location where a0 is store on stack for currently running thread
 573:src/riscv.cpp **** void RiscV::saveA0toSscratch()
 574:src/riscv.cpp **** {
 564              		.loc 1 574 1 is_stmt 1
GAS LISTING /tmp/ccbuBniB.s 			page 26


 565              		.cfi_startproc
 566 02b8 130101FF 		addi	sp,sp,-16
 567              		.cfi_def_cfa_offset 16
 568 02bc 23348100 		sd	s0,8(sp)
 569              		.cfi_offset 8, -8
 570 02c0 13040101 		addi	s0,sp,16
 571              		.cfi_def_cfa 8, 0
 575:src/riscv.cpp ****     uint64 a1;
 572              		.loc 1 575 5
 576:src/riscv.cpp ****     asm("mv %[a1], a1": [a1] "=r"(a1));
 573              		.loc 1 576 5
 574              		.loc 1 576 39 is_stmt 0
 575              	#APP
 576              	# 576 "src/riscv.cpp" 1
 577              	    asm("mv a1, %[a0]" : :  [a0] "r"(TCB::running->a0Location));
 577              		mv a5, a1
 578              	# 0 "" 2
 579              		.loc 1 577 5 is_stmt 1
 580              		.loc 1 577 52 is_stmt 0
 581              	#NO_APP
 582 02c8 17070000 		la	a4,_ZN3TCB7runningE
 582      03370700 
 583 02d0 03370700 		ld	a4,0(a4)
 584 02d4 03378706 		ld	a4,104(a4)
 585              		.loc 1 577 64
 586              	#APP
 587              	# 577 "src/riscv.cpp" 1
 578              	    asm("sd a0, 80(a1)");
 588              		mv a1, a4
 589              	# 0 "" 2
 590              		.loc 1 578 5 is_stmt 1
 591              		.loc 1 578 25 is_stmt 0
 592              	# 578 "src/riscv.cpp" 1
 579              	    asm("mv a1,%[a1]"::  [a1]"r"(a1));
 593              		sd a0, 80(a1)
 594              	# 0 "" 2
 595              		.loc 1 579 5 is_stmt 1
 596              		.loc 1 579 38 is_stmt 0
 597              	# 579 "src/riscv.cpp" 1
 580              	}
 598              		mv a1,a5
 599              	# 0 "" 2
 600              		.loc 1 580 1
 601              	#NO_APP
 602 02e4 03348100 		ld	s0,8(sp)
 603              		.cfi_restore 8
 604              		.cfi_def_cfa 2, 16
 605 02e8 13010101 		addi	sp,sp,16
 606              		.cfi_def_cfa_offset 0
 607 02ec 67800000 		jr	ra
 608              		.cfi_endproc
 609              	.LFE63:
 611              		.align	2
 612              		.globl	_ZN5RiscV22executeMemAllocSyscallEv
 614              	_ZN5RiscV22executeMemAllocSyscallEv:
 615              	.LFB45:
 190:src/riscv.cpp **** 
GAS LISTING /tmp/ccbuBniB.s 			page 27


 616              		.loc 1 190 37 is_stmt 1
 617              		.cfi_startproc
 618 02f0 130101FF 		addi	sp,sp,-16
 619              		.cfi_def_cfa_offset 16
 620 02f4 23341100 		sd	ra,8(sp)
 621 02f8 23308100 		sd	s0,0(sp)
 622              		.cfi_offset 1, -8
 623              		.cfi_offset 8, -16
 624 02fc 13040101 		addi	s0,sp,16
 625              		.cfi_def_cfa 8, 0
 193:src/riscv.cpp ****     asm("mv %[size], a1" : [size] "=r" (size));
 626              		.loc 1 193 5
 194:src/riscv.cpp **** 
 627              		.loc 1 194 5
 194:src/riscv.cpp **** 
 628              		.loc 1 194 47 is_stmt 0
 629              	#APP
 630              	# 194 "src/riscv.cpp" 1
 631              		mv a0, a1
 632              	# 0 "" 2
 633              	.LVL32:
 197:src/riscv.cpp **** 
 634              		.loc 1 197 5 is_stmt 1
 197:src/riscv.cpp **** 
 635              		.loc 1 197 50 is_stmt 0
 636              	#NO_APP
 637 0304 97000000 		call	_ZN15MemoryAllocator7kmallocEm@plt
 637      E7800000 
 638              	.LVL33:
 199:src/riscv.cpp **** 
 639              		.loc 1 199 5 is_stmt 1
 199:src/riscv.cpp **** 
 640              		.loc 1 199 48 is_stmt 0
 641              	#APP
 642              	# 199 "src/riscv.cpp" 1
 201:src/riscv.cpp **** }
 643              		mv a0, a0
 644              	# 0 "" 2
 645              		.loc 1 201 5 is_stmt 1
 201:src/riscv.cpp **** }
 646              		.loc 1 201 28 is_stmt 0
 647              	#NO_APP
 648 0310 97000000 		call	_ZN5RiscV16saveA0toSscratchEv
 648      E7800000 
 649              	.LVL34:
 202:src/riscv.cpp **** 
 650              		.loc 1 202 1
 651 0318 83308100 		ld	ra,8(sp)
 652              		.cfi_restore 1
 653 031c 03340100 		ld	s0,0(sp)
 654              		.cfi_restore 8
 655              		.cfi_def_cfa 2, 16
 656 0320 13010101 		addi	sp,sp,16
 657              		.cfi_def_cfa_offset 0
 658 0324 67800000 		jr	ra
 659              		.cfi_endproc
 660              	.LFE45:
GAS LISTING /tmp/ccbuBniB.s 			page 28


 662              		.align	2
 663              		.globl	_ZN5RiscV21executeMemFreeSyscallEv
 665              	_ZN5RiscV21executeMemFreeSyscallEv:
 666              	.LFB46:
 204:src/riscv.cpp **** 
 667              		.loc 1 204 37 is_stmt 1
 668              		.cfi_startproc
 669 0328 130101FF 		addi	sp,sp,-16
 670              		.cfi_def_cfa_offset 16
 671 032c 23341100 		sd	ra,8(sp)
 672 0330 23308100 		sd	s0,0(sp)
 673              		.cfi_offset 1, -8
 674              		.cfi_offset 8, -16
 675 0334 13040101 		addi	s0,sp,16
 676              		.cfi_def_cfa 8, 0
 207:src/riscv.cpp **** 
 677              		.loc 1 207 5
 210:src/riscv.cpp ****         //call internal allocator and free memory which iaddr points to
 678              		.loc 1 210 5
 679 0338 97070000 		la	a5,_ZN15MemoryAllocator11initializedE
 679      83B70700 
 680 0340 83C70700 		lbu	a5,0(a5)
 681 0344 63920702 		bnez	a5,.L34
 216:src/riscv.cpp **** 
 682              		.loc 1 216 16 is_stmt 0
 683 0348 1305F0FF 		li	a0,-1
 684              	.L31:
 685              	.LVL35:
 219:src/riscv.cpp **** 
 686              		.loc 1 219 5 is_stmt 1
 219:src/riscv.cpp **** 
 687              		.loc 1 219 54 is_stmt 0
 688              	#APP
 689              	# 219 "src/riscv.cpp" 1
 221:src/riscv.cpp **** }
 690              		mv a0, a0
 691              	# 0 "" 2
 692              		.loc 1 221 5 is_stmt 1
 221:src/riscv.cpp **** }
 693              		.loc 1 221 28 is_stmt 0
 694              	#NO_APP
 695 0350 97000000 		call	_ZN5RiscV16saveA0toSscratchEv
 695      E7800000 
 696              	.LVL36:
 222:src/riscv.cpp **** 
 697              		.loc 1 222 1
 698 0358 83308100 		ld	ra,8(sp)
 699              		.cfi_remember_state
 700              		.cfi_restore 1
 701 035c 03340100 		ld	s0,0(sp)
 702              		.cfi_restore 8
 703              		.cfi_def_cfa 2, 16
 704 0360 13010101 		addi	sp,sp,16
 705              		.cfi_def_cfa_offset 0
 706 0364 67800000 		jr	ra
 707              	.L34:
 708              		.cfi_restore_state
GAS LISTING /tmp/ccbuBniB.s 			page 29


 212:src/riscv.cpp ****         status = MemoryAllocator::kfree((void *) iaddr);;
 709              		.loc 1 212 9 is_stmt 1
 212:src/riscv.cpp ****         status = MemoryAllocator::kfree((void *) iaddr);;
 710              		.loc 1 212 53 is_stmt 0
 711              	#APP
 712              	# 212 "src/riscv.cpp" 1
 713              		mv a0, a1
 714              	# 0 "" 2
 715              	.LVL37:
 213:src/riscv.cpp ****     }
 716              		.loc 1 213 9 is_stmt 1
 213:src/riscv.cpp ****     }
 717              		.loc 1 213 40 is_stmt 0
 718              	#NO_APP
 719 036c 97000000 		call	_ZN15MemoryAllocator5kfreeEPv@plt
 719      E7800000 
 720              	.LVL38:
 213:src/riscv.cpp ****     }
 721              		.loc 1 213 57 is_stmt 1
 722 0374 6FF09FFD 		j	.L31
 723              		.cfi_endproc
 724              	.LFE46:
 726              		.align	2
 727              		.globl	_ZN5RiscV26executeThreadCreateSyscallEv
 729              	_ZN5RiscV26executeThreadCreateSyscallEv:
 730              	.LFB47:
 224:src/riscv.cpp **** 
 731              		.loc 1 224 41
 732              		.cfi_startproc
 733              		.cfi_personality 0x9b,DW.ref.__gxx_personality_v0
 734              		.cfi_lsda 0x1b,.LLSDA47
 735 0378 130101FC 		addi	sp,sp,-64
 736              		.cfi_def_cfa_offset 64
 737 037c 233C1102 		sd	ra,56(sp)
 738 0380 23388102 		sd	s0,48(sp)
 739 0384 23349102 		sd	s1,40(sp)
 740 0388 23302103 		sd	s2,32(sp)
 741 038c 233C3101 		sd	s3,24(sp)
 742 0390 23384101 		sd	s4,16(sp)
 743 0394 23345101 		sd	s5,8(sp)
 744              		.cfi_offset 1, -8
 745              		.cfi_offset 8, -16
 746              		.cfi_offset 9, -24
 747              		.cfi_offset 18, -32
 748              		.cfi_offset 19, -40
 749              		.cfi_offset 20, -48
 750              		.cfi_offset 21, -56
 751 0398 13040104 		addi	s0,sp,64
 752              		.cfi_def_cfa 8, 0
 227:src/riscv.cpp **** 
 753              		.loc 1 227 5
 229:src/riscv.cpp ****     asm("mv %[ihandle], a1" : [ihandle] "=r"(ihandle));
 754              		.loc 1 229 5
 229:src/riscv.cpp ****     asm("mv %[ihandle], a1" : [ihandle] "=r"(ihandle));
 755              		.loc 1 229 52 is_stmt 0
 756              	#APP
 757              	# 229 "src/riscv.cpp" 1
GAS LISTING /tmp/ccbuBniB.s 			page 30


 758              		mv s5, a7
 759              	# 0 "" 2
 760              	.LVL39:
 230:src/riscv.cpp ****     asm("mv %[iroutine], a2" : [iroutine] "=r"(iroutine));
 761              		.loc 1 230 5 is_stmt 1
 230:src/riscv.cpp ****     asm("mv %[iroutine], a2" : [iroutine] "=r"(iroutine));
 762              		.loc 1 230 55 is_stmt 0
 763              	# 230 "src/riscv.cpp" 1
 764              		mv s2, a1
 765              	# 0 "" 2
 766              	.LVL40:
 231:src/riscv.cpp ****     asm("mv %[iargs], a3" : [iargs] "=r"(iargs));
 767              		.loc 1 231 5 is_stmt 1
 231:src/riscv.cpp ****     asm("mv %[iargs], a3" : [iargs] "=r"(iargs));
 768              		.loc 1 231 58 is_stmt 0
 769              	# 231 "src/riscv.cpp" 1
 770              		mv s3, a2
 771              	# 0 "" 2
 772              	.LVL41:
 232:src/riscv.cpp **** 
 773              		.loc 1 232 5 is_stmt 1
 232:src/riscv.cpp **** 
 774              		.loc 1 232 49 is_stmt 0
 775              	# 232 "src/riscv.cpp" 1
 776              		mv s4, a3
 777              	# 0 "" 2
 778              	.LVL42:
 235:src/riscv.cpp **** 
 779              		.loc 1 235 5 is_stmt 1
 235:src/riscv.cpp **** 
 780              		.loc 1 235 94 is_stmt 0
 781              	#NO_APP
 782 03ac 13050007 		li	a0,112
 783              	.LEHB0:
 784 03b0 97000000 		call	_ZN3TCBnwEm@plt
 784      E7800000 
 785              	.LVL43:
 786              	.LEHE0:
 787 03b8 93040500 		mv	s1,a0
 788 03bc 630E0500 		beqz	a0,.L36
 235:src/riscv.cpp **** 
 789              		.loc 1 235 94 discriminator 1
 790 03c0 13072000 		li	a4,2
 791 03c4 93860A00 		mv	a3,s5
 792 03c8 13060A00 		mv	a2,s4
 793 03cc 93850900 		mv	a1,s3
 794              	.LEHB1:
 795 03d0 97000000 		call	_ZN3TCBC1EPFvPvES0_Pmm@plt
 795      E7800000 
 796              	.LVL44:
 797              	.LEHE1:
 798              	.L36:
 237:src/riscv.cpp **** 
 799              		.loc 1 237 5 is_stmt 1 discriminator 6
 239:src/riscv.cpp ****         status = -1;
 800              		.loc 1 239 5 discriminator 6
 801 03d8 63880404 		beqz	s1,.L40
GAS LISTING /tmp/ccbuBniB.s 			page 31


 243:src/riscv.cpp ****             Scheduler::put(tcb);
 802              		.loc 1 243 9
 243:src/riscv.cpp ****             Scheduler::put(tcb);
 803              		.loc 1 243 17 is_stmt 0
 804 03dc 83B78401 		ld	a5,24(s1)
 243:src/riscv.cpp ****             Scheduler::put(tcb);
 805              		.loc 1 243 9
 806 03e0 63880700 		beqz	a5,.L38
 244:src/riscv.cpp ****         *((TCB**)ihandle) = tcb;
 807              		.loc 1 244 13 is_stmt 1
 244:src/riscv.cpp ****         *((TCB**)ihandle) = tcb;
 808              		.loc 1 244 27 is_stmt 0
 809 03e4 13850400 		mv	a0,s1
 810              	.LEHB2:
 811 03e8 97000000 		call	_ZN9Scheduler3putEP3TCB@plt
 811      E7800000 
 812              	.LVL45:
 813              	.LEHE2:
 814              	.L38:
 245:src/riscv.cpp ****     }
 815              		.loc 1 245 9 is_stmt 1
 245:src/riscv.cpp ****     }
 816              		.loc 1 245 27 is_stmt 0
 817 03f0 23309900 		sd	s1,0(s2)
 237:src/riscv.cpp **** 
 818              		.loc 1 237 12
 819 03f4 93070000 		li	a5,0
 820              	.L37:
 821              	.LVL46:
 249:src/riscv.cpp **** 
 822              		.loc 1 249 5 is_stmt 1
 249:src/riscv.cpp **** 
 823              		.loc 1 249 54 is_stmt 0
 824              	#APP
 825              	# 249 "src/riscv.cpp" 1
 251:src/riscv.cpp **** }
 826              		mv a0, a5
 827              	# 0 "" 2
 828              		.loc 1 251 5 is_stmt 1
 251:src/riscv.cpp **** }
 829              		.loc 1 251 28 is_stmt 0
 830              	#NO_APP
 831 03fc 97000000 		call	_ZN5RiscV16saveA0toSscratchEv
 831      E7800000 
 832              	.LVL47:
 252:src/riscv.cpp **** 
 833              		.loc 1 252 1
 834 0404 83308103 		ld	ra,56(sp)
 835              		.cfi_remember_state
 836              		.cfi_restore 1
 837 0408 03340103 		ld	s0,48(sp)
 838              		.cfi_restore 8
 839              		.cfi_def_cfa 2, 64
 840 040c 83348102 		ld	s1,40(sp)
 841              		.cfi_restore 9
 842              	.LVL48:
 843 0410 03390102 		ld	s2,32(sp)
GAS LISTING /tmp/ccbuBniB.s 			page 32


 844              		.cfi_restore 18
 845              	.LVL49:
 846 0414 83398101 		ld	s3,24(sp)
 847              		.cfi_restore 19
 848              	.LVL50:
 849 0418 033A0101 		ld	s4,16(sp)
 850              		.cfi_restore 20
 851              	.LVL51:
 852 041c 833A8100 		ld	s5,8(sp)
 853              		.cfi_restore 21
 854              	.LVL52:
 855 0420 13010104 		addi	sp,sp,64
 856              		.cfi_def_cfa_offset 0
 857 0424 67800000 		jr	ra
 858              	.LVL53:
 859              	.L40:
 860              		.cfi_restore_state
 240:src/riscv.cpp ****     }
 861              		.loc 1 240 16
 862 0428 9307F0FF 		li	a5,-1
 863 042c 6FF0DFFC 		j	.L37
 864              	.LVL54:
 865              	.L41:
 866 0430 13090500 		mv	s2,a0
 867              	.LVL55:
 235:src/riscv.cpp **** 
 868              		.loc 1 235 94
 869 0434 13850400 		mv	a0,s1
 870 0438 97000000 		call	_ZN3TCBdlEPv@plt
 870      E7800000 
 871              	.LVL56:
 872 0440 13050900 		mv	a0,s2
 873              	.LEHB3:
 874 0444 97000000 		call	_Unwind_Resume@plt
 874      E7800000 
 875              	.LVL57:
 876              	.LEHE3:
 877              		.cfi_endproc
 878              	.LFE47:
 879              		.globl	__gxx_personality_v0
 880              		.section	.gcc_except_table,"a",@progbits
 881              	.LLSDA47:
 882 0000 FF       		.byte	0xff
 883 0001 FF       		.byte	0xff
 884 0002 03       		.byte	0x3
 885 0003 34       		.byte	0x34
 886 0004 00000000 		.4byte	.LEHB0-.LFB47
 887 0008 00000000 		.4byte	.LEHE0-.LEHB0
 888 000c 00000000 		.4byte	0
 889 0010 00       		.byte	0
 890 0011 00000000 		.4byte	.LEHB1-.LFB47
 891 0015 00000000 		.4byte	.LEHE1-.LEHB1
 892 0019 00000000 		.4byte	.L41-.LFB47
 893 001d 00       		.byte	0
 894 001e 00000000 		.4byte	.LEHB2-.LFB47
 895 0022 00000000 		.4byte	.LEHE2-.LEHB2
 896 0026 00000000 		.4byte	0
GAS LISTING /tmp/ccbuBniB.s 			page 33


 897 002a 00       		.byte	0
 898 002b 00000000 		.4byte	.LEHB3-.LFB47
 899 002f 00000000 		.4byte	.LEHE3-.LEHB3
 900 0033 00000000 		.4byte	0
 901 0037 00       		.byte	0
 902              		.text
 904              		.align	2
 905              		.globl	_ZN5RiscV30executeThreadAttachBodySyscallEv
 907              	_ZN5RiscV30executeThreadAttachBodySyscallEv:
 908              	.LFB48:
 254:src/riscv.cpp **** 
 909              		.loc 1 254 45 is_stmt 1
 910              		.cfi_startproc
 911              		.cfi_personality 0x9b,DW.ref.__gxx_personality_v0
 912              		.cfi_lsda 0x1b,.LLSDA48
 913 044c 130101FC 		addi	sp,sp,-64
 914              		.cfi_def_cfa_offset 64
 915 0450 233C1102 		sd	ra,56(sp)
 916 0454 23388102 		sd	s0,48(sp)
 917 0458 23349102 		sd	s1,40(sp)
 918 045c 23302103 		sd	s2,32(sp)
 919 0460 233C3101 		sd	s3,24(sp)
 920 0464 23384101 		sd	s4,16(sp)
 921 0468 23345101 		sd	s5,8(sp)
 922              		.cfi_offset 1, -8
 923              		.cfi_offset 8, -16
 924              		.cfi_offset 9, -24
 925              		.cfi_offset 18, -32
 926              		.cfi_offset 19, -40
 927              		.cfi_offset 20, -48
 928              		.cfi_offset 21, -56
 929 046c 13040104 		addi	s0,sp,64
 930              		.cfi_def_cfa 8, 0
 257:src/riscv.cpp **** 
 931              		.loc 1 257 5
 260:src/riscv.cpp ****     asm("mv %[ihandle], a1" : [ihandle] "=r"(ihandle));
 932              		.loc 1 260 5
 260:src/riscv.cpp ****     asm("mv %[ihandle], a1" : [ihandle] "=r"(ihandle));
 933              		.loc 1 260 52 is_stmt 0
 934              	#APP
 935              	# 260 "src/riscv.cpp" 1
 936              		mv s5, a7
 937              	# 0 "" 2
 938              	.LVL58:
 261:src/riscv.cpp ****     asm("mv %[iroutine], a2" : [iroutine] "=r"(iroutine));
 939              		.loc 1 261 5 is_stmt 1
 261:src/riscv.cpp ****     asm("mv %[iroutine], a2" : [iroutine] "=r"(iroutine));
 940              		.loc 1 261 55 is_stmt 0
 941              	# 261 "src/riscv.cpp" 1
 942              		mv s4, a1
 943              	# 0 "" 2
 944              	.LVL59:
 262:src/riscv.cpp ****     asm("mv %[iargs], a3" : [iargs] "=r"(iargs));
 945              		.loc 1 262 5 is_stmt 1
 262:src/riscv.cpp ****     asm("mv %[iargs], a3" : [iargs] "=r"(iargs));
 946              		.loc 1 262 58 is_stmt 0
 947              	# 262 "src/riscv.cpp" 1
GAS LISTING /tmp/ccbuBniB.s 			page 34


 948              		mv s3, a2
 949              	# 0 "" 2
 950              	.LVL60:
 263:src/riscv.cpp **** 
 951              		.loc 1 263 5 is_stmt 1
 263:src/riscv.cpp **** 
 952              		.loc 1 263 49 is_stmt 0
 953              	# 263 "src/riscv.cpp" 1
 954              		mv s2, a3
 955              	# 0 "" 2
 956              	.LVL61:
 265:src/riscv.cpp **** 
 957              		.loc 1 265 5 is_stmt 1
 265:src/riscv.cpp **** 
 958              		.loc 1 265 94 is_stmt 0
 959              	#NO_APP
 960 0480 13050007 		li	a0,112
 961              	.LEHB4:
 962 0484 97000000 		call	_ZN3TCBnwEm@plt
 962      E7800000 
 963              	.LVL62:
 964              	.LEHE4:
 965 048c 93040500 		mv	s1,a0
 966 0490 630E0500 		beqz	a0,.L45
 265:src/riscv.cpp **** 
 967              		.loc 1 265 94 discriminator 1
 968 0494 13072000 		li	a4,2
 969 0498 93860A00 		mv	a3,s5
 970 049c 13060900 		mv	a2,s2
 971 04a0 93850900 		mv	a1,s3
 972              	.LEHB5:
 973 04a4 97000000 		call	_ZN3TCBC1EPFvPvES0_Pmm@plt
 973      E7800000 
 974              	.LVL63:
 975              	.LEHE5:
 976              	.L45:
 267:src/riscv.cpp **** 
 977              		.loc 1 267 5 is_stmt 1 discriminator 6
 269:src/riscv.cpp ****         status = -1;
 978              		.loc 1 269 5 discriminator 6
 979 04ac 63820404 		beqz	s1,.L48
 273:src/riscv.cpp ****         tcb->args = (void*)iargs;
 980              		.loc 1 273 9
 273:src/riscv.cpp ****         tcb->args = (void*)iargs;
 981              		.loc 1 273 19 is_stmt 0
 982 04b0 23BC3401 		sd	s3,24(s1)
 274:src/riscv.cpp ****         *((TCB**)ihandle) = tcb;
 983              		.loc 1 274 9 is_stmt 1
 274:src/riscv.cpp ****         *((TCB**)ihandle) = tcb;
 984              		.loc 1 274 19 is_stmt 0
 985 04b4 23B02403 		sd	s2,32(s1)
 275:src/riscv.cpp ****     }
 986              		.loc 1 275 9 is_stmt 1
 275:src/riscv.cpp ****     }
 987              		.loc 1 275 27 is_stmt 0
 988 04b8 23309A00 		sd	s1,0(s4)
 267:src/riscv.cpp **** 
GAS LISTING /tmp/ccbuBniB.s 			page 35


 989              		.loc 1 267 12
 990 04bc 93070000 		li	a5,0
 991              	.L46:
 992              	.LVL64:
 278:src/riscv.cpp **** 
 993              		.loc 1 278 5 is_stmt 1
 278:src/riscv.cpp **** 
 994              		.loc 1 278 54 is_stmt 0
 995              	#APP
 996              	# 278 "src/riscv.cpp" 1
 280:src/riscv.cpp **** }
 997              		mv a0, a5
 998              	# 0 "" 2
 999              		.loc 1 280 5 is_stmt 1
 280:src/riscv.cpp **** }
 1000              		.loc 1 280 28 is_stmt 0
 1001              	#NO_APP
 1002 04c4 97000000 		call	_ZN5RiscV16saveA0toSscratchEv
 1002      E7800000 
 1003              	.LVL65:
 281:src/riscv.cpp **** 
 1004              		.loc 1 281 1
 1005 04cc 83308103 		ld	ra,56(sp)
 1006              		.cfi_remember_state
 1007              		.cfi_restore 1
 1008 04d0 03340103 		ld	s0,48(sp)
 1009              		.cfi_restore 8
 1010              		.cfi_def_cfa 2, 64
 1011 04d4 83348102 		ld	s1,40(sp)
 1012              		.cfi_restore 9
 1013              	.LVL66:
 1014 04d8 03390102 		ld	s2,32(sp)
 1015              		.cfi_restore 18
 1016              	.LVL67:
 1017 04dc 83398101 		ld	s3,24(sp)
 1018              		.cfi_restore 19
 1019              	.LVL68:
 1020 04e0 033A0101 		ld	s4,16(sp)
 1021              		.cfi_restore 20
 1022              	.LVL69:
 1023 04e4 833A8100 		ld	s5,8(sp)
 1024              		.cfi_restore 21
 1025              	.LVL70:
 1026 04e8 13010104 		addi	sp,sp,64
 1027              		.cfi_def_cfa_offset 0
 1028 04ec 67800000 		jr	ra
 1029              	.LVL71:
 1030              	.L48:
 1031              		.cfi_restore_state
 270:src/riscv.cpp ****     }
 1032              		.loc 1 270 16
 1033 04f0 9307F0FF 		li	a5,-1
 1034 04f4 6FF0DFFC 		j	.L46
 1035              	.LVL72:
 1036              	.L49:
 1037 04f8 13090500 		mv	s2,a0
 1038              	.LVL73:
GAS LISTING /tmp/ccbuBniB.s 			page 36


 265:src/riscv.cpp **** 
 1039              		.loc 1 265 94
 1040 04fc 13850400 		mv	a0,s1
 1041 0500 97000000 		call	_ZN3TCBdlEPv@plt
 1041      E7800000 
 1042              	.LVL74:
 1043 0508 13050900 		mv	a0,s2
 1044              	.LEHB6:
 1045 050c 97000000 		call	_Unwind_Resume@plt
 1045      E7800000 
 1046              	.LVL75:
 1047              	.LEHE6:
 1048              		.cfi_endproc
 1049              	.LFE48:
 1050              		.section	.gcc_except_table
 1051              	.LLSDA48:
 1052 0038 FF       		.byte	0xff
 1053 0039 FF       		.byte	0xff
 1054 003a 03       		.byte	0x3
 1055 003b 27       		.byte	0x27
 1056 003c 00000000 		.4byte	.LEHB4-.LFB48
 1057 0040 00000000 		.4byte	.LEHE4-.LEHB4
 1058 0044 00000000 		.4byte	0
 1059 0048 00       		.byte	0
 1060 0049 00000000 		.4byte	.LEHB5-.LFB48
 1061 004d 00000000 		.4byte	.LEHE5-.LEHB5
 1062 0051 00000000 		.4byte	.L49-.LFB48
 1063 0055 00       		.byte	0
 1064 0056 00000000 		.4byte	.LEHB6-.LFB48
 1065 005a 00000000 		.4byte	.LEHE6-.LEHB6
 1066 005e 00000000 		.4byte	0
 1067 0062 00       		.byte	0
 1068              		.text
 1070              		.align	2
 1071              		.globl	_ZN5RiscV25executeThreadStartSyscallEv
 1073              	_ZN5RiscV25executeThreadStartSyscallEv:
 1074              	.LFB49:
 283:src/riscv.cpp **** 
 1075              		.loc 1 283 40 is_stmt 1
 1076              		.cfi_startproc
 1077 0514 130101FF 		addi	sp,sp,-16
 1078              		.cfi_def_cfa_offset 16
 1079 0518 23341100 		sd	ra,8(sp)
 1080 051c 23308100 		sd	s0,0(sp)
 1081              		.cfi_offset 1, -8
 1082              		.cfi_offset 8, -16
 1083 0520 13040101 		addi	s0,sp,16
 1084              		.cfi_def_cfa 8, 0
 286:src/riscv.cpp **** 
 1085              		.loc 1 286 5
 288:src/riscv.cpp **** 
 1086              		.loc 1 288 5
 288:src/riscv.cpp **** 
 1087              		.loc 1 288 55 is_stmt 0
 1088              	#APP
 1089              	# 288 "src/riscv.cpp" 1
 1090              		mv a0, a1
GAS LISTING /tmp/ccbuBniB.s 			page 37


 1091              	# 0 "" 2
 1092              	.LVL76:
 291:src/riscv.cpp **** 
 1093              		.loc 1 291 5 is_stmt 1
 293:src/riscv.cpp **** 
 1094              		.loc 1 293 5
 295:src/riscv.cpp ****         status = -1;
 1095              		.loc 1 295 5
 1096              	#NO_APP
 1097 0528 63120502 		bnez	a0,.L56
 296:src/riscv.cpp ****     }
 1098              		.loc 1 296 16 is_stmt 0
 1099 052c 9307F0FF 		li	a5,-1
 1100              	.LVL77:
 1101              	.L53:
 305:src/riscv.cpp **** 
 1102              		.loc 1 305 5 is_stmt 1
 305:src/riscv.cpp **** 
 1103              		.loc 1 305 54 is_stmt 0
 1104              	#APP
 1105              	# 305 "src/riscv.cpp" 1
 307:src/riscv.cpp **** }
 1106              		mv a0, a5
 1107              	# 0 "" 2
 1108              		.loc 1 307 5 is_stmt 1
 307:src/riscv.cpp **** }
 1109              		.loc 1 307 28 is_stmt 0
 1110              	#NO_APP
 1111 0534 97000000 		call	_ZN5RiscV16saveA0toSscratchEv
 1111      E7800000 
 1112              	.LVL78:
 308:src/riscv.cpp **** 
 1113              		.loc 1 308 1
 1114 053c 83308100 		ld	ra,8(sp)
 1115              		.cfi_remember_state
 1116              		.cfi_restore 1
 1117 0540 03340100 		ld	s0,0(sp)
 1118              		.cfi_restore 8
 1119              		.cfi_def_cfa 2, 16
 1120 0544 13010101 		addi	sp,sp,16
 1121              		.cfi_def_cfa_offset 0
 1122 0548 67800000 		jr	ra
 1123              	.LVL79:
 1124              	.L56:
 1125              		.cfi_restore_state
 299:src/riscv.cpp ****         Scheduler::put(tcb);
 1126              		.loc 1 299 9 is_stmt 1
 299:src/riscv.cpp ****         Scheduler::put(tcb);
 1127              		.loc 1 299 21 is_stmt 0
 1128 054c 93071000 		li	a5,1
 1129 0550 2328F500 		sw	a5,16(a0)
 300:src/riscv.cpp ****         TCB::dispatch();
 1130              		.loc 1 300 9 is_stmt 1
 300:src/riscv.cpp ****         TCB::dispatch();
 1131              		.loc 1 300 23 is_stmt 0
 1132 0554 97000000 		call	_ZN9Scheduler3putEP3TCB@plt
 1132      E7800000 
GAS LISTING /tmp/ccbuBniB.s 			page 38


 1133              	.LVL80:
 301:src/riscv.cpp ****     }
 1134              		.loc 1 301 9 is_stmt 1
 301:src/riscv.cpp ****     }
 1135              		.loc 1 301 22 is_stmt 0
 1136 055c 97000000 		call	_ZN3TCB8dispatchEv@plt
 1136      E7800000 
 1137              	.LVL81:
 293:src/riscv.cpp **** 
 1138              		.loc 1 293 12
 1139 0564 93070000 		li	a5,0
 1140 0568 6FF09FFC 		j	.L53
 1141              		.cfi_endproc
 1142              	.LFE49:
 1144              		.align	2
 1145              		.globl	_ZN5RiscV24executeThreadExitSyscallEv
 1147              	_ZN5RiscV24executeThreadExitSyscallEv:
 1148              	.LFB50:
 310:src/riscv.cpp **** 
 1149              		.loc 1 310 40 is_stmt 1
 1150              		.cfi_startproc
 1151 056c 130101FF 		addi	sp,sp,-16
 1152              		.cfi_def_cfa_offset 16
 1153 0570 23341100 		sd	ra,8(sp)
 1154 0574 23308100 		sd	s0,0(sp)
 1155              		.cfi_offset 1, -8
 1156              		.cfi_offset 8, -16
 1157 0578 13040101 		addi	s0,sp,16
 1158              		.cfi_def_cfa 8, 0
 313:src/riscv.cpp **** 
 1159              		.loc 1 313 5
 1160              	.LVL82:
 316:src/riscv.cpp ****         status = -1;
 1161              		.loc 1 316 5
 1162              	.LBB121:
 316:src/riscv.cpp ****         status = -1;
 1163              		.loc 1 316 21 is_stmt 0
 1164 057c 97070000 		la	a5,_ZN3TCB7runningE
 1164      83B70700 
 1165 0584 83B70700 		ld	a5,0(a5)
 316:src/riscv.cpp ****         status = -1;
 1166              		.loc 1 316 5
 1167 0588 638A0702 		beqz	a5,.L59
 1168              	.LBB122:
 320:src/riscv.cpp ****         old->status = TCB::Status::FINISHED;
 1169              		.loc 1 320 9 is_stmt 1
 1170              	.LVL83:
 321:src/riscv.cpp ****         TCB::dispatch();
 1171              		.loc 1 321 9
 321:src/riscv.cpp ****         TCB::dispatch();
 1172              		.loc 1 321 21 is_stmt 0
 1173 058c 13072000 		li	a4,2
 1174 0590 23A8E700 		sw	a4,16(a5)
 322:src/riscv.cpp ****     }
 1175              		.loc 1 322 9 is_stmt 1
 322:src/riscv.cpp ****     }
 1176              		.loc 1 322 22 is_stmt 0
GAS LISTING /tmp/ccbuBniB.s 			page 39


 1177 0594 97000000 		call	_ZN3TCB8dispatchEv@plt
 1177      E7800000 
 1178              	.LVL84:
 1179              	.LBE122:
 1180              	.LBE121:
 313:src/riscv.cpp **** 
 1181              		.loc 1 313 12
 1182 059c 93070000 		li	a5,0
 1183              	.L58:
 1184              	.LVL85:
 325:src/riscv.cpp **** 
 1185              		.loc 1 325 5 is_stmt 1
 325:src/riscv.cpp **** 
 1186              		.loc 1 325 54 is_stmt 0
 1187              	#APP
 1188              	# 325 "src/riscv.cpp" 1
 327:src/riscv.cpp **** }
 1189              		mv a0, a5
 1190              	# 0 "" 2
 1191              		.loc 1 327 5 is_stmt 1
 327:src/riscv.cpp **** }
 1192              		.loc 1 327 28 is_stmt 0
 1193              	#NO_APP
 1194 05a4 97000000 		call	_ZN5RiscV16saveA0toSscratchEv
 1194      E7800000 
 1195              	.LVL86:
 328:src/riscv.cpp **** 
 1196              		.loc 1 328 1
 1197 05ac 83308100 		ld	ra,8(sp)
 1198              		.cfi_remember_state
 1199              		.cfi_restore 1
 1200 05b0 03340100 		ld	s0,0(sp)
 1201              		.cfi_restore 8
 1202              		.cfi_def_cfa 2, 16
 1203 05b4 13010101 		addi	sp,sp,16
 1204              		.cfi_def_cfa_offset 0
 1205 05b8 67800000 		jr	ra
 1206              	.LVL87:
 1207              	.L59:
 1208              		.cfi_restore_state
 1209              	.LBB123:
 317:src/riscv.cpp ****     }
 1210              		.loc 1 317 16
 1211 05bc 9307F0FF 		li	a5,-1
 1212 05c0 6FF01FFE 		j	.L58
 1213              	.LBE123:
 1214              		.cfi_endproc
 1215              	.LFE50:
 1217              		.align	2
 1218              		.globl	_ZN5RiscV21executeSemOpenSyscallEv
 1220              	_ZN5RiscV21executeSemOpenSyscallEv:
 1221              	.LFB52:
 338:src/riscv.cpp **** 
 1222              		.loc 1 338 37 is_stmt 1
 1223              		.cfi_startproc
 1224              		.cfi_personality 0x9b,DW.ref.__gxx_personality_v0
 1225              		.cfi_lsda 0x1b,.LLSDA52
GAS LISTING /tmp/ccbuBniB.s 			page 40


 1226 05c4 130101FD 		addi	sp,sp,-48
 1227              		.cfi_def_cfa_offset 48
 1228 05c8 23341102 		sd	ra,40(sp)
 1229 05cc 23308102 		sd	s0,32(sp)
 1230 05d0 233C9100 		sd	s1,24(sp)
 1231 05d4 23382101 		sd	s2,16(sp)
 1232 05d8 23343101 		sd	s3,8(sp)
 1233              		.cfi_offset 1, -8
 1234              		.cfi_offset 8, -16
 1235              		.cfi_offset 9, -24
 1236              		.cfi_offset 18, -32
 1237              		.cfi_offset 19, -40
 1238 05dc 13040103 		addi	s0,sp,48
 1239              		.cfi_def_cfa 8, 0
 341:src/riscv.cpp **** 
 1240              		.loc 1 341 5
 343:src/riscv.cpp ****     asm("mv %[iinit], a2" : [iinit] "=r"(iinit));
 1241              		.loc 1 343 5
 343:src/riscv.cpp ****     asm("mv %[iinit], a2" : [iinit] "=r"(iinit));
 1242              		.loc 1 343 55 is_stmt 0
 1243              	#APP
 1244              	# 343 "src/riscv.cpp" 1
 1245              		mv s2, a1
 1246              	# 0 "" 2
 1247              	.LVL88:
 344:src/riscv.cpp **** 
 1248              		.loc 1 344 5 is_stmt 1
 344:src/riscv.cpp **** 
 1249              		.loc 1 344 49 is_stmt 0
 1250              	# 344 "src/riscv.cpp" 1
 1251              		mv s3, a2
 1252              	# 0 "" 2
 1253              	.LVL89:
 347:src/riscv.cpp **** 
 1254              		.loc 1 347 5 is_stmt 1
 347:src/riscv.cpp **** 
 1255              		.loc 1 347 29 is_stmt 0
 1256              	#NO_APP
 1257 05e8 13058001 		li	a0,24
 1258              	.LEHB7:
 1259 05ec 97000000 		call	_ZN3SCBnwEm@plt
 1259      E7800000 
 1260              	.LVL90:
 1261              	.LEHE7:
 1262 05f4 93040500 		mv	s1,a0
 1263 05f8 63080500 		beqz	a0,.L62
 347:src/riscv.cpp **** 
 1264              		.loc 1 347 29 discriminator 1
 1265 05fc 93850900 		mv	a1,s3
 1266              	.LEHB8:
 1267 0600 97000000 		call	_ZN3SCBC1Em@plt
 1267      E7800000 
 1268              	.LVL91:
 1269              	.LEHE8:
 1270              	.L62:
 349:src/riscv.cpp **** 
 1271              		.loc 1 349 5 is_stmt 1 discriminator 6
GAS LISTING /tmp/ccbuBniB.s 			page 41


 351:src/riscv.cpp ****         status = -1;
 1272              		.loc 1 351 5 discriminator 6
 1273 0608 638A0402 		beqz	s1,.L65
 355:src/riscv.cpp ****     }
 1274              		.loc 1 355 9
 355:src/riscv.cpp ****     }
 1275              		.loc 1 355 27 is_stmt 0
 1276 060c 23309900 		sd	s1,0(s2)
 349:src/riscv.cpp **** 
 1277              		.loc 1 349 12
 1278 0610 93070000 		li	a5,0
 1279              	.L63:
 1280              	.LVL92:
 359:src/riscv.cpp **** 
 1281              		.loc 1 359 5 is_stmt 1
 359:src/riscv.cpp **** 
 1282              		.loc 1 359 54 is_stmt 0
 1283              	#APP
 1284              	# 359 "src/riscv.cpp" 1
 361:src/riscv.cpp **** 
 1285              		mv a0, a5
 1286              	# 0 "" 2
 1287              		.loc 1 361 5 is_stmt 1
 361:src/riscv.cpp **** 
 1288              		.loc 1 361 28 is_stmt 0
 1289              	#NO_APP
 1290 0618 97000000 		call	_ZN5RiscV16saveA0toSscratchEv
 1290      E7800000 
 1291              	.LVL93:
 363:src/riscv.cpp **** 
 1292              		.loc 1 363 1
 1293 0620 83308102 		ld	ra,40(sp)
 1294              		.cfi_remember_state
 1295              		.cfi_restore 1
 1296 0624 03340102 		ld	s0,32(sp)
 1297              		.cfi_restore 8
 1298              		.cfi_def_cfa 2, 48
 1299 0628 83348101 		ld	s1,24(sp)
 1300              		.cfi_restore 9
 1301              	.LVL94:
 1302 062c 03390101 		ld	s2,16(sp)
 1303              		.cfi_restore 18
 1304              	.LVL95:
 1305 0630 83398100 		ld	s3,8(sp)
 1306              		.cfi_restore 19
 1307              	.LVL96:
 1308 0634 13010103 		addi	sp,sp,48
 1309              		.cfi_def_cfa_offset 0
 1310 0638 67800000 		jr	ra
 1311              	.LVL97:
 1312              	.L65:
 1313              		.cfi_restore_state
 352:src/riscv.cpp ****     }
 1314              		.loc 1 352 16
 1315 063c 9307F0FF 		li	a5,-1
 1316 0640 6FF05FFD 		j	.L63
 1317              	.LVL98:
GAS LISTING /tmp/ccbuBniB.s 			page 42


 1318              	.L66:
 1319 0644 13090500 		mv	s2,a0
 1320              	.LVL99:
 347:src/riscv.cpp **** 
 1321              		.loc 1 347 29
 1322 0648 13850400 		mv	a0,s1
 1323 064c 97000000 		call	_ZN3SCBdlEPv@plt
 1323      E7800000 
 1324              	.LVL100:
 1325 0654 13050900 		mv	a0,s2
 1326              	.LEHB9:
 1327 0658 97000000 		call	_Unwind_Resume@plt
 1327      E7800000 
 1328              	.LVL101:
 1329              	.LEHE9:
 1330              		.cfi_endproc
 1331              	.LFE52:
 1332              		.section	.gcc_except_table
 1333              	.LLSDA52:
 1334 0063 FF       		.byte	0xff
 1335 0064 FF       		.byte	0xff
 1336 0065 03       		.byte	0x3
 1337 0066 27       		.byte	0x27
 1338 0067 00000000 		.4byte	.LEHB7-.LFB52
 1339 006b 00000000 		.4byte	.LEHE7-.LEHB7
 1340 006f 00000000 		.4byte	0
 1341 0073 00       		.byte	0
 1342 0074 00000000 		.4byte	.LEHB8-.LFB52
 1343 0078 00000000 		.4byte	.LEHE8-.LEHB8
 1344 007c 00000000 		.4byte	.L66-.LFB52
 1345 0080 00       		.byte	0
 1346 0081 00000000 		.4byte	.LEHB9-.LFB52
 1347 0085 00000000 		.4byte	.LEHE9-.LEHB9
 1348 0089 00000000 		.4byte	0
 1349 008d 00       		.byte	0
 1350              		.text
 1352              		.align	2
 1353              		.globl	_ZN5RiscV22executeSemCloseSyscallEv
 1355              	_ZN5RiscV22executeSemCloseSyscallEv:
 1356              	.LFB53:
 365:src/riscv.cpp **** 
 1357              		.loc 1 365 38 is_stmt 1
 1358              		.cfi_startproc
 1359 0660 130101FE 		addi	sp,sp,-32
 1360              		.cfi_def_cfa_offset 32
 1361 0664 233C1100 		sd	ra,24(sp)
 1362 0668 23388100 		sd	s0,16(sp)
 1363 066c 23349100 		sd	s1,8(sp)
 1364              		.cfi_offset 1, -8
 1365              		.cfi_offset 8, -16
 1366              		.cfi_offset 9, -24
 1367 0670 13040102 		addi	s0,sp,32
 1368              		.cfi_def_cfa 8, 0
 368:src/riscv.cpp **** 
 1369              		.loc 1 368 5
 370:src/riscv.cpp **** 
 1370              		.loc 1 370 5
GAS LISTING /tmp/ccbuBniB.s 			page 43


 370:src/riscv.cpp **** 
 1371              		.loc 1 370 55 is_stmt 0
 1372              	#APP
 1373              	# 370 "src/riscv.cpp" 1
 1374              		mv s1, a1
 1375              	# 0 "" 2
 1376              	.LVL102:
 373:src/riscv.cpp ****     uint64 status = 0;
 1377              		.loc 1 373 5 is_stmt 1
 374:src/riscv.cpp **** 
 1378              		.loc 1 374 5
 376:src/riscv.cpp ****         status = -1;
 1379              		.loc 1 376 5
 1380              	#NO_APP
 1381 0678 63940402 		bnez	s1,.L73
 377:src/riscv.cpp ****     }
 1382              		.loc 1 377 16 is_stmt 0
 1383 067c 9307F0FF 		li	a5,-1
 1384              	.L70:
 1385              	.LVL103:
 383:src/riscv.cpp **** 
 1386              		.loc 1 383 5 is_stmt 1
 383:src/riscv.cpp **** 
 1387              		.loc 1 383 54 is_stmt 0
 1388              	#APP
 1389              	# 383 "src/riscv.cpp" 1
 385:src/riscv.cpp **** }
 1390              		mv a0, a5
 1391              	# 0 "" 2
 1392              		.loc 1 385 5 is_stmt 1
 385:src/riscv.cpp **** }
 1393              		.loc 1 385 28 is_stmt 0
 1394              	#NO_APP
 1395 0684 97000000 		call	_ZN5RiscV16saveA0toSscratchEv
 1395      E7800000 
 1396              	.LVL104:
 386:src/riscv.cpp **** 
 1397              		.loc 1 386 1
 1398 068c 83308101 		ld	ra,24(sp)
 1399              		.cfi_remember_state
 1400              		.cfi_restore 1
 1401 0690 03340101 		ld	s0,16(sp)
 1402              		.cfi_restore 8
 1403              		.cfi_def_cfa 2, 32
 1404 0694 83348100 		ld	s1,8(sp)
 1405              		.cfi_restore 9
 1406              	.LVL105:
 1407 0698 13010102 		addi	sp,sp,32
 1408              		.cfi_def_cfa_offset 0
 1409 069c 67800000 		jr	ra
 1410              	.LVL106:
 1411              	.L73:
 1412              		.cfi_restore_state
 380:src/riscv.cpp **** 
 1413              		.loc 1 380 9 is_stmt 1 discriminator 1
 380:src/riscv.cpp **** 
 1414              		.loc 1 380 22 is_stmt 0 discriminator 1
GAS LISTING /tmp/ccbuBniB.s 			page 44


 1415 06a0 13850400 		mv	a0,s1
 1416 06a4 97000000 		call	_ZN3SCBD1Ev@plt
 1416      E7800000 
 1417              	.LVL107:
 1418 06ac 13850400 		mv	a0,s1
 1419 06b0 97000000 		call	_ZN3SCBdlEPv@plt
 1419      E7800000 
 1420              	.LVL108:
 374:src/riscv.cpp **** 
 1421              		.loc 1 374 12 discriminator 1
 1422 06b8 93070000 		li	a5,0
 1423 06bc 6FF05FFC 		j	.L70
 1424              		.cfi_endproc
 1425              	.LFE53:
 1427              		.align	2
 1428              		.globl	_ZN5RiscV21executeSemWaitSyscallEv
 1430              	_ZN5RiscV21executeSemWaitSyscallEv:
 1431              	.LFB54:
 388:src/riscv.cpp **** 
 1432              		.loc 1 388 37 is_stmt 1
 1433              		.cfi_startproc
 1434 06c0 130101FF 		addi	sp,sp,-16
 1435              		.cfi_def_cfa_offset 16
 1436 06c4 23341100 		sd	ra,8(sp)
 1437 06c8 23308100 		sd	s0,0(sp)
 1438              		.cfi_offset 1, -8
 1439              		.cfi_offset 8, -16
 1440 06cc 13040101 		addi	s0,sp,16
 1441              		.cfi_def_cfa 8, 0
 391:src/riscv.cpp **** 
 1442              		.loc 1 391 5
 393:src/riscv.cpp **** 
 1443              		.loc 1 393 5
 393:src/riscv.cpp **** 
 1444              		.loc 1 393 55 is_stmt 0
 1445              	#APP
 1446              	# 393 "src/riscv.cpp" 1
 1447              		mv a0, a1
 1448              	# 0 "" 2
 1449              	.LVL109:
 395:src/riscv.cpp ****     //call wait method on ihandle scb
 1450              		.loc 1 395 5 is_stmt 1
 398:src/riscv.cpp ****         ((SCB*)ihandle)->wait();
 1451              		.loc 1 398 5
 1452              	#NO_APP
 1453 06d4 631C0502 		bnez	a0,.L79
 1454              	.LVL110:
 1455              	.L75:
 403:src/riscv.cpp ****         status = -1;
 1456              		.loc 1 403 5
 403:src/riscv.cpp ****         status = -1;
 1457              		.loc 1 403 22 is_stmt 0
 1458 06d8 97070000 		la	a5,_ZN3TCB7runningE
 1458      83B70700 
 1459 06e0 83B70700 		ld	a5,0(a5)
 1460 06e4 83B70706 		ld	a5,96(a5)
 403:src/riscv.cpp ****         status = -1;
GAS LISTING /tmp/ccbuBniB.s 			page 45


 1461              		.loc 1 403 5
 1462 06e8 63880702 		beqz	a5,.L77
 404:src/riscv.cpp ****     else
 1463              		.loc 1 404 16
 1464 06ec 9307F0FF 		li	a5,-1
 1465              	.L76:
 1466              	.LVL111:
 409:src/riscv.cpp **** 
 1467              		.loc 1 409 5 is_stmt 1
 409:src/riscv.cpp **** 
 1468              		.loc 1 409 54 is_stmt 0
 1469              	#APP
 1470              	# 409 "src/riscv.cpp" 1
 411:src/riscv.cpp **** 
 1471              		mv a0, a5
 1472              	# 0 "" 2
 1473              		.loc 1 411 5 is_stmt 1
 411:src/riscv.cpp **** 
 1474              		.loc 1 411 28 is_stmt 0
 1475              	#NO_APP
 1476 06f4 97000000 		call	_ZN5RiscV16saveA0toSscratchEv
 1476      E7800000 
 1477              	.LVL112:
 413:src/riscv.cpp **** 
 1478              		.loc 1 413 1
 1479 06fc 83308100 		ld	ra,8(sp)
 1480              		.cfi_remember_state
 1481              		.cfi_restore 1
 1482 0700 03340100 		ld	s0,0(sp)
 1483              		.cfi_restore 8
 1484              		.cfi_def_cfa 2, 16
 1485 0704 13010101 		addi	sp,sp,16
 1486              		.cfi_def_cfa_offset 0
 1487 0708 67800000 		jr	ra
 1488              	.LVL113:
 1489              	.L79:
 1490              		.cfi_restore_state
 399:src/riscv.cpp ****     else
 1491              		.loc 1 399 9 is_stmt 1
 399:src/riscv.cpp ****     else
 1492              		.loc 1 399 30 is_stmt 0
 1493 070c 97000000 		call	_ZN3SCB4waitEv@plt
 1493      E7800000 
 1494              	.LVL114:
 1495 0714 6FF05FFC 		j	.L75
 1496              	.LVL115:
 1497              	.L77:
 406:src/riscv.cpp **** 
 1498              		.loc 1 406 16
 1499 0718 93070000 		li	a5,0
 1500 071c 6FF05FFD 		j	.L76
 1501              		.cfi_endproc
 1502              	.LFE54:
 1504              		.align	2
 1505              		.globl	_ZN5RiscV23executeSemSignalSyscallEv
 1507              	_ZN5RiscV23executeSemSignalSyscallEv:
 1508              	.LFB55:
GAS LISTING /tmp/ccbuBniB.s 			page 46


 415:src/riscv.cpp **** 
 1509              		.loc 1 415 39 is_stmt 1
 1510              		.cfi_startproc
 1511 0720 130101FF 		addi	sp,sp,-16
 1512              		.cfi_def_cfa_offset 16
 1513 0724 23341100 		sd	ra,8(sp)
 1514 0728 23308100 		sd	s0,0(sp)
 1515              		.cfi_offset 1, -8
 1516              		.cfi_offset 8, -16
 1517 072c 13040101 		addi	s0,sp,16
 1518              		.cfi_def_cfa 8, 0
 418:src/riscv.cpp **** 
 1519              		.loc 1 418 5
 420:src/riscv.cpp **** 
 1520              		.loc 1 420 5
 420:src/riscv.cpp **** 
 1521              		.loc 1 420 55 is_stmt 0
 1522              	#APP
 1523              	# 420 "src/riscv.cpp" 1
 1524              		mv a0, a1
 1525              	# 0 "" 2
 1526              	.LVL116:
 424:src/riscv.cpp **** 
 1527              		.loc 1 424 5 is_stmt 1
 426:src/riscv.cpp ****         ((SCB*)ihandle)->signal();
 1528              		.loc 1 426 5
 1529              	#NO_APP
 1530 0734 63120502 		bnez	a0,.L84
 429:src/riscv.cpp **** 
 1531              		.loc 1 429 16 is_stmt 0
 1532 0738 9307F0FF 		li	a5,-1
 1533              	.LVL117:
 1534              	.L81:
 432:src/riscv.cpp **** 
 1535              		.loc 1 432 5 is_stmt 1
 432:src/riscv.cpp **** 
 1536              		.loc 1 432 54 is_stmt 0
 1537              	#APP
 1538              	# 432 "src/riscv.cpp" 1
 434:src/riscv.cpp **** }
 1539              		mv a0, a5
 1540              	# 0 "" 2
 1541              		.loc 1 434 5 is_stmt 1
 434:src/riscv.cpp **** }
 1542              		.loc 1 434 28 is_stmt 0
 1543              	#NO_APP
 1544 0740 97000000 		call	_ZN5RiscV16saveA0toSscratchEv
 1544      E7800000 
 1545              	.LVL118:
 435:src/riscv.cpp **** 
 1546              		.loc 1 435 1
 1547 0748 83308100 		ld	ra,8(sp)
 1548              		.cfi_remember_state
 1549              		.cfi_restore 1
 1550 074c 03340100 		ld	s0,0(sp)
 1551              		.cfi_restore 8
 1552              		.cfi_def_cfa 2, 16
GAS LISTING /tmp/ccbuBniB.s 			page 47


 1553 0750 13010101 		addi	sp,sp,16
 1554              		.cfi_def_cfa_offset 0
 1555 0754 67800000 		jr	ra
 1556              	.LVL119:
 1557              	.L84:
 1558              		.cfi_restore_state
 427:src/riscv.cpp ****     else
 1559              		.loc 1 427 9 is_stmt 1
 427:src/riscv.cpp ****     else
 1560              		.loc 1 427 32 is_stmt 0
 1561 0758 97000000 		call	_ZN3SCB6signalEv@plt
 1561      E7800000 
 1562              	.LVL120:
 424:src/riscv.cpp **** 
 1563              		.loc 1 424 12
 1564 0760 93070000 		li	a5,0
 1565 0764 6FF09FFD 		j	.L81
 1566              		.cfi_endproc
 1567              	.LFE55:
 1569              		.align	2
 1570              		.globl	_ZN5RiscV23executeTimeSleepSyscallEv
 1572              	_ZN5RiscV23executeTimeSleepSyscallEv:
 1573              	.LFB56:
 437:src/riscv.cpp **** 
 1574              		.loc 1 437 39 is_stmt 1
 1575              		.cfi_startproc
 1576 0768 130101FE 		addi	sp,sp,-32
 1577              		.cfi_def_cfa_offset 32
 1578 076c 233C1100 		sd	ra,24(sp)
 1579 0770 23388100 		sd	s0,16(sp)
 1580 0774 23349100 		sd	s1,8(sp)
 1581              		.cfi_offset 1, -8
 1582              		.cfi_offset 8, -16
 1583              		.cfi_offset 9, -24
 1584 0778 13040102 		addi	s0,sp,32
 1585              		.cfi_def_cfa 8, 0
 440:src/riscv.cpp **** 
 1586              		.loc 1 440 5
 442:src/riscv.cpp **** 
 1587              		.loc 1 442 5
 442:src/riscv.cpp **** 
 1588              		.loc 1 442 49 is_stmt 0
 1589              	#APP
 1590              	# 442 "src/riscv.cpp" 1
 446:src/riscv.cpp ****     tcb->sleepTime = globalTime;
 1591              		mv a4, a1
 1592              	# 0 "" 2
 1593              		.loc 1 446 5 is_stmt 1
 446:src/riscv.cpp ****     tcb->sleepTime = globalTime;
 1594              		.loc 1 446 10 is_stmt 0
 1595              	#NO_APP
 1596 0780 97070000 		la	a5,_ZN3TCB7runningE
 1596      83B70700 
 1597 0788 83B40700 		ld	s1,0(a5)
 1598              	.LVL121:
 447:src/riscv.cpp ****     tcb->wakeTime = globalTime + itime;
 1599              		.loc 1 447 5 is_stmt 1
GAS LISTING /tmp/ccbuBniB.s 			page 48


 447:src/riscv.cpp ****     tcb->wakeTime = globalTime + itime;
 1600              		.loc 1 447 20 is_stmt 0
 1601 078c 97070000 		ld	a5,.LANCHOR0+8
 1601      83B70700 
 1602 0794 23B8F404 		sd	a5,80(s1)
 448:src/riscv.cpp **** 
 1603              		.loc 1 448 5 is_stmt 1
 448:src/riscv.cpp **** 
 1604              		.loc 1 448 32 is_stmt 0
 1605 0798 B387E700 		add	a5,a5,a4
 448:src/riscv.cpp **** 
 1606              		.loc 1 448 19
 1607 079c 23BCF404 		sd	a5,88(s1)
 450:src/riscv.cpp **** 
 1608              		.loc 1 450 5 is_stmt 1
 450:src/riscv.cpp **** 
 1609              		.loc 1 450 21 is_stmt 0
 1610 07a0 13850400 		mv	a0,s1
 1611 07a4 97000000 		call	_ZN9Scheduler5sleepEP3TCB@plt
 1611      E7800000 
 1612              	.LVL122:
 452:src/riscv.cpp **** 
 1613              		.loc 1 452 5 is_stmt 1
 452:src/riscv.cpp **** 
 1614              		.loc 1 452 17 is_stmt 0
 1615 07ac 93073000 		li	a5,3
 1616 07b0 23A8F400 		sw	a5,16(s1)
 454:src/riscv.cpp **** 
 1617              		.loc 1 454 5 is_stmt 1
 454:src/riscv.cpp **** 
 1618              		.loc 1 454 18 is_stmt 0
 1619 07b4 97000000 		call	_ZN3TCB8dispatchEv@plt
 1619      E7800000 
 1620              	.LVL123:
 456:src/riscv.cpp **** 
 1621              		.loc 1 456 5 is_stmt 1
 459:src/riscv.cpp **** 
 1622              		.loc 1 459 5
 459:src/riscv.cpp **** 
 1623              		.loc 1 459 54 is_stmt 0
 1624 07bc 93070000 		li	a5,0
 1625              	#APP
 1626              	# 459 "src/riscv.cpp" 1
 461:src/riscv.cpp **** }
 1627              		mv a0, a5
 1628              	# 0 "" 2
 1629              		.loc 1 461 5 is_stmt 1
 461:src/riscv.cpp **** }
 1630              		.loc 1 461 28 is_stmt 0
 1631              	#NO_APP
 1632 07c4 97000000 		call	_ZN5RiscV16saveA0toSscratchEv
 1632      E7800000 
 1633              	.LVL124:
 462:src/riscv.cpp **** 
 1634              		.loc 1 462 1
 1635 07cc 83308101 		ld	ra,24(sp)
 1636              		.cfi_restore 1
GAS LISTING /tmp/ccbuBniB.s 			page 49


 1637 07d0 03340101 		ld	s0,16(sp)
 1638              		.cfi_restore 8
 1639              		.cfi_def_cfa 2, 32
 1640 07d4 83348100 		ld	s1,8(sp)
 1641              		.cfi_restore 9
 1642              	.LVL125:
 1643 07d8 13010102 		addi	sp,sp,32
 1644              		.cfi_def_cfa_offset 0
 1645 07dc 67800000 		jr	ra
 1646              		.cfi_endproc
 1647              	.LFE56:
 1649              		.align	2
 1650              		.globl	_ZN5RiscV18executeGetcSyscallEv
 1652              	_ZN5RiscV18executeGetcSyscallEv:
 1653              	.LFB57:
 464:src/riscv.cpp **** 
 1654              		.loc 1 464 34 is_stmt 1
 1655              		.cfi_startproc
 1656 07e0 130101FE 		addi	sp,sp,-32
 1657              		.cfi_def_cfa_offset 32
 1658 07e4 233C1100 		sd	ra,24(sp)
 1659 07e8 23388100 		sd	s0,16(sp)
 1660 07ec 23349100 		sd	s1,8(sp)
 1661              		.cfi_offset 1, -8
 1662              		.cfi_offset 8, -16
 1663              		.cfi_offset 9, -24
 1664 07f0 13040102 		addi	s0,sp,32
 1665              		.cfi_def_cfa 8, 0
 467:src/riscv.cpp ****         ConsoleUtil::pendingGetc++;
 1666              		.loc 1 467 5
 467:src/riscv.cpp ****         ConsoleUtil::pendingGetc++;
 1667              		.loc 1 467 8 is_stmt 0
 1668 07f4 97070000 		lbu	a5,.LANCHOR0
 1668      83C70700 
 467:src/riscv.cpp ****         ConsoleUtil::pendingGetc++;
 1669              		.loc 1 467 5
 1670 07fc 639C0700 		bnez	a5,.L88
 468:src/riscv.cpp **** 
 1671              		.loc 1 468 9 is_stmt 1
 468:src/riscv.cpp **** 
 1672              		.loc 1 468 33 is_stmt 0
 1673 0800 17070000 		la	a4,_ZN11ConsoleUtil11pendingGetcE
 1673      03370700 
 1674 0808 83370700 		ld	a5,0(a4)
 1675 080c 93871700 		addi	a5,a5,1
 1676 0810 2330F700 		sd	a5,0(a4)
 1677              	.L88:
 471:src/riscv.cpp **** 
 1678              		.loc 1 471 5 is_stmt 1
 471:src/riscv.cpp **** 
 1679              		.loc 1 471 35 is_stmt 0
 1680 0814 97000000 		call	_ZN11ConsoleUtil8getInputEv@plt
 1680      E7800000 
 1681              	.LVL126:
 1682 081c 93040500 		mv	s1,a0
 1683              	.LVL127:
 474:src/riscv.cpp ****         ConsoleUtil::putOutput(13);
GAS LISTING /tmp/ccbuBniB.s 			page 50


 1684              		.loc 1 474 5 is_stmt 1
 1685 0820 9307D000 		li	a5,13
 1686 0824 6306F502 		beq	a0,a5,.L92
 479:src/riscv.cpp ****         ConsoleUtil::putOutput(c);
 1687              		.loc 1 479 10
 1688 0828 9307B001 		li	a5,27
 1689 082c 6310F504 		bne	a0,a5,.L93
 1690              	.LVL128:
 1691              	.L90:
 483:src/riscv.cpp **** 
 1692              		.loc 1 483 5
 483:src/riscv.cpp **** 
 1693              		.loc 1 483 39 is_stmt 0
 1694              	#APP
 1695              	# 483 "src/riscv.cpp" 1
 485:src/riscv.cpp **** }
 1696              		mv a0, s1
 1697              	# 0 "" 2
 1698              		.loc 1 485 5 is_stmt 1
 485:src/riscv.cpp **** }
 1699              		.loc 1 485 28 is_stmt 0
 1700              	#NO_APP
 1701 0834 97000000 		call	_ZN5RiscV16saveA0toSscratchEv
 1701      E7800000 
 1702              	.LVL129:
 486:src/riscv.cpp **** 
 1703              		.loc 1 486 1
 1704 083c 83308101 		ld	ra,24(sp)
 1705              		.cfi_remember_state
 1706              		.cfi_restore 1
 1707 0840 03340101 		ld	s0,16(sp)
 1708              		.cfi_restore 8
 1709              		.cfi_def_cfa 2, 32
 1710 0844 83348100 		ld	s1,8(sp)
 1711              		.cfi_restore 9
 1712 0848 13010102 		addi	sp,sp,32
 1713              		.cfi_def_cfa_offset 0
 1714 084c 67800000 		jr	ra
 1715              	.LVL130:
 1716              	.L92:
 1717              		.cfi_restore_state
 475:src/riscv.cpp ****         ConsoleUtil::putOutput(10);
 1718              		.loc 1 475 9 is_stmt 1
 475:src/riscv.cpp ****         ConsoleUtil::putOutput(10);
 1719              		.loc 1 475 31 is_stmt 0
 1720 0850 1305D000 		li	a0,13
 1721              	.LVL131:
 1722 0854 97000000 		call	_ZN11ConsoleUtil9putOutputEc@plt
 1722      E7800000 
 1723              	.LVL132:
 476:src/riscv.cpp ****     }
 1724              		.loc 1 476 9 is_stmt 1
 476:src/riscv.cpp ****     }
 1725              		.loc 1 476 31 is_stmt 0
 1726 085c 1305A000 		li	a0,10
 1727 0860 97000000 		call	_ZN11ConsoleUtil9putOutputEc@plt
 1727      E7800000 
GAS LISTING /tmp/ccbuBniB.s 			page 51


 1728              	.LVL133:
 1729 0868 6FF09FFC 		j	.L90
 1730              	.LVL134:
 1731              	.L93:
 480:src/riscv.cpp **** 
 1732              		.loc 1 480 9 is_stmt 1
 480:src/riscv.cpp **** 
 1733              		.loc 1 480 31 is_stmt 0
 1734 086c 97000000 		call	_ZN11ConsoleUtil9putOutputEc@plt
 1734      E7800000 
 1735              	.LVL135:
 1736 0874 6FF0DFFB 		j	.L90
 1737              		.cfi_endproc
 1738              	.LFE57:
 1740              		.align	2
 1741              		.globl	_ZN5RiscV22executePutcUtilSyscallEv
 1743              	_ZN5RiscV22executePutcUtilSyscallEv:
 1744              	.LFB60:
 536:src/riscv.cpp ****     char c = ConsoleUtil::getOutput();
 1745              		.loc 1 536 38 is_stmt 1
 1746              		.cfi_startproc
 1747 0878 130101FF 		addi	sp,sp,-16
 1748              		.cfi_def_cfa_offset 16
 1749 087c 23341100 		sd	ra,8(sp)
 1750 0880 23308100 		sd	s0,0(sp)
 1751              		.cfi_offset 1, -8
 1752              		.cfi_offset 8, -16
 1753 0884 13040101 		addi	s0,sp,16
 1754              		.cfi_def_cfa 8, 0
 537:src/riscv.cpp ****     asm("mv a0, %[c]" : : [c] "r" ((uint64)(c)) );
 1755              		.loc 1 537 5
 537:src/riscv.cpp ****     asm("mv a0, %[c]" : : [c] "r" ((uint64)(c)) );
 1756              		.loc 1 537 36 is_stmt 0
 1757 0888 97000000 		call	_ZN11ConsoleUtil9getOutputEv@plt
 1757      E7800000 
 1758              	.LVL136:
 538:src/riscv.cpp **** 
 1759              		.loc 1 538 5 is_stmt 1
 538:src/riscv.cpp **** 
 1760              		.loc 1 538 50 is_stmt 0
 1761              	#APP
 1762              	# 538 "src/riscv.cpp" 1
 540:src/riscv.cpp **** }
 1763              		mv a0, a0
 1764              	# 0 "" 2
 1765              		.loc 1 540 5 is_stmt 1
 540:src/riscv.cpp **** }
 1766              		.loc 1 540 28 is_stmt 0
 1767              	#NO_APP
 1768 0894 97000000 		call	_ZN5RiscV16saveA0toSscratchEv
 1768      E7800000 
 1769              	.LVL137:
 541:src/riscv.cpp **** 
 1770              		.loc 1 541 1
 1771 089c 83308100 		ld	ra,8(sp)
 1772              		.cfi_restore 1
 1773 08a0 03340100 		ld	s0,0(sp)
GAS LISTING /tmp/ccbuBniB.s 			page 52


 1774              		.cfi_restore 8
 1775              		.cfi_def_cfa 2, 16
 1776 08a4 13010101 		addi	sp,sp,16
 1777              		.cfi_def_cfa_offset 0
 1778 08a8 67800000 		jr	ra
 1779              		.cfi_endproc
 1780              	.LFE60:
 1782              		.align	2
 1783              		.globl	_ZN5RiscV24executeThreadFreeSyscallEv
 1785              	_ZN5RiscV24executeThreadFreeSyscallEv:
 1786              	.LFB64:
 581:src/riscv.cpp **** 
 582:src/riscv.cpp **** //syscall to free the space that is allocated for thread
 583:src/riscv.cpp **** void RiscV::executeThreadFreeSyscall() {
 1787              		.loc 1 583 40 is_stmt 1
 1788              		.cfi_startproc
 1789 08ac 130101FE 		addi	sp,sp,-32
 1790              		.cfi_def_cfa_offset 32
 1791 08b0 233C1100 		sd	ra,24(sp)
 1792 08b4 23388100 		sd	s0,16(sp)
 1793 08b8 23349100 		sd	s1,8(sp)
 1794              		.cfi_offset 1, -8
 1795              		.cfi_offset 8, -16
 1796              		.cfi_offset 9, -24
 1797 08bc 13040102 		addi	s0,sp,32
 1798              		.cfi_def_cfa 8, 0
 584:src/riscv.cpp ****     uint64 iaddr, status;
 1799              		.loc 1 584 5
 585:src/riscv.cpp **** 
 586:src/riscv.cpp ****     asm("mv %[iaddr], a1" : [iaddr] "=r"(iaddr));
 1800              		.loc 1 586 5
 1801              		.loc 1 586 49 is_stmt 0
 1802              	#APP
 1803              	# 586 "src/riscv.cpp" 1
 587              	
 1804              		mv s1, a1
 1805              	# 0 "" 2
 1806              	.LVL138:
 588:src/riscv.cpp ****     TCB *thr = (TCB*)iaddr;
 1807              		.loc 1 588 5 is_stmt 1
 589:src/riscv.cpp **** 
 590:src/riscv.cpp ****     if(thr == nullptr)
 1808              		.loc 1 590 5
 1809              	#NO_APP
 1810 08c4 63940402 		bnez	s1,.L99
 1811              	.L97:
 1812              	.LVL139:
 591:src/riscv.cpp ****         status = -1;
 592:src/riscv.cpp ****     else {
 593:src/riscv.cpp ****         kfree(thr->stack);
 594:src/riscv.cpp ****         delete thr;
 595:src/riscv.cpp ****     }
 596:src/riscv.cpp **** 
 597:src/riscv.cpp ****     //return status
 598:src/riscv.cpp ****     asm("mv a0, %[status]" : : [status] "r" (status));
 1813              		.loc 1 598 5
 1814              		.loc 1 598 54 is_stmt 0
GAS LISTING /tmp/ccbuBniB.s 			page 53


 1815 08c8 9307F0FF 		li	a5,-1
 1816              	#APP
 1817              	# 598 "src/riscv.cpp" 1
 599              	
 600:src/riscv.cpp ****     RiscV::saveA0toSscratch();
 1818              		mv a0, a5
 1819              	# 0 "" 2
 1820              		.loc 1 600 5 is_stmt 1
 1821              		.loc 1 600 28 is_stmt 0
 1822              	#NO_APP
 1823 08d0 97000000 		call	_ZN5RiscV16saveA0toSscratchEv
 1823      E7800000 
 1824              	.LVL140:
 601:src/riscv.cpp **** }
 1825              		.loc 1 601 1
 1826 08d8 83308101 		ld	ra,24(sp)
 1827              		.cfi_remember_state
 1828              		.cfi_restore 1
 1829 08dc 03340101 		ld	s0,16(sp)
 1830              		.cfi_restore 8
 1831              		.cfi_def_cfa 2, 32
 1832 08e0 83348100 		ld	s1,8(sp)
 1833              		.cfi_restore 9
 1834              	.LVL141:
 1835 08e4 13010102 		addi	sp,sp,32
 1836              		.cfi_def_cfa_offset 0
 1837 08e8 67800000 		jr	ra
 1838              	.LVL142:
 1839              	.L99:
 1840              		.cfi_restore_state
 593:src/riscv.cpp ****         delete thr;
 1841              		.loc 1 593 9 is_stmt 1
 593:src/riscv.cpp ****         delete thr;
 1842              		.loc 1 593 14 is_stmt 0
 1843 08ec 03B58402 		ld	a0,40(s1)
 1844 08f0 97000000 		call	_Z5kfreePKv@plt
 1844      E7800000 
 1845              	.LVL143:
 594:src/riscv.cpp ****     }
 1846              		.loc 1 594 9 is_stmt 1
 594:src/riscv.cpp ****     }
 1847              		.loc 1 594 16 is_stmt 0
 1848 08f8 13850400 		mv	a0,s1
 1849 08fc 97000000 		call	_ZN3TCBD1Ev@plt
 1849      E7800000 
 1850              	.LVL144:
 1851 0904 13850400 		mv	a0,s1
 1852 0908 97000000 		call	_ZN3TCBdlEPv@plt
 1852      E7800000 
 1853              	.LVL145:
 1854 0910 6FF09FFB 		j	.L97
 1855              		.cfi_endproc
 1856              	.LFE64:
 1858              		.align	2
 1859              		.globl	_ZN5RiscV27executeSemaphoreFreeSyscallEv
 1861              	_ZN5RiscV27executeSemaphoreFreeSyscallEv:
 1862              	.LFB65:
GAS LISTING /tmp/ccbuBniB.s 			page 54


 602:src/riscv.cpp **** 
 603:src/riscv.cpp **** //syscall to free the space that is allocated for semaphore
 604:src/riscv.cpp **** void RiscV::executeSemaphoreFreeSyscall() {
 1863              		.loc 1 604 43 is_stmt 1
 1864              		.cfi_startproc
 1865 0914 130101FE 		addi	sp,sp,-32
 1866              		.cfi_def_cfa_offset 32
 1867 0918 233C1100 		sd	ra,24(sp)
 1868 091c 23388100 		sd	s0,16(sp)
 1869 0920 23349100 		sd	s1,8(sp)
 1870              		.cfi_offset 1, -8
 1871              		.cfi_offset 8, -16
 1872              		.cfi_offset 9, -24
 1873 0924 13040102 		addi	s0,sp,32
 1874              		.cfi_def_cfa 8, 0
 605:src/riscv.cpp ****     uint64 iaddr, status;
 1875              		.loc 1 605 5
 606:src/riscv.cpp **** 
 607:src/riscv.cpp ****     //call internal allocator and free memory which iaddr points to
 608:src/riscv.cpp ****     asm("mv %[iaddr], a1" : [iaddr] "=r"(iaddr));
 1876              		.loc 1 608 5
 1877              		.loc 1 608 49 is_stmt 0
 1878              	#APP
 1879              	# 608 "src/riscv.cpp" 1
 609              	
 1880              		mv s1, a1
 1881              	# 0 "" 2
 1882              	.LVL146:
 610:src/riscv.cpp ****     SCB *scb = (SCB*)iaddr;
 1883              		.loc 1 610 5 is_stmt 1
 611:src/riscv.cpp **** 
 612:src/riscv.cpp ****     if(scb == nullptr){
 1884              		.loc 1 612 5
 1885              	#NO_APP
 1886 092c 63940402 		bnez	s1,.L103
 1887              	.L101:
 1888              	.LVL147:
 613:src/riscv.cpp ****         status = -1;
 614:src/riscv.cpp ****     }
 615:src/riscv.cpp ****     else
 616:src/riscv.cpp ****         delete scb;
 617:src/riscv.cpp **** 
 618:src/riscv.cpp ****     //return status
 619:src/riscv.cpp ****     asm("mv a0, %[status]" : : [status] "r" (status));
 1889              		.loc 1 619 5
 1890              		.loc 1 619 54 is_stmt 0
 1891 0930 9307F0FF 		li	a5,-1
 1892              	#APP
 1893              	# 619 "src/riscv.cpp" 1
 620              	
 621:src/riscv.cpp ****     RiscV::saveA0toSscratch();
 1894              		mv a0, a5
 1895              	# 0 "" 2
 1896              		.loc 1 621 5 is_stmt 1
 1897              		.loc 1 621 28 is_stmt 0
 1898              	#NO_APP
 1899 0938 97000000 		call	_ZN5RiscV16saveA0toSscratchEv
GAS LISTING /tmp/ccbuBniB.s 			page 55


 1899      E7800000 
 1900              	.LVL148:
 622:src/riscv.cpp **** }
 1901              		.loc 1 622 1
 1902 0940 83308101 		ld	ra,24(sp)
 1903              		.cfi_remember_state
 1904              		.cfi_restore 1
 1905 0944 03340101 		ld	s0,16(sp)
 1906              		.cfi_restore 8
 1907              		.cfi_def_cfa 2, 32
 1908 0948 83348100 		ld	s1,8(sp)
 1909              		.cfi_restore 9
 1910              	.LVL149:
 1911 094c 13010102 		addi	sp,sp,32
 1912              		.cfi_def_cfa_offset 0
 1913 0950 67800000 		jr	ra
 1914              	.LVL150:
 1915              	.L103:
 1916              		.cfi_restore_state
 616:src/riscv.cpp **** 
 1917              		.loc 1 616 9 is_stmt 1 discriminator 1
 616:src/riscv.cpp **** 
 1918              		.loc 1 616 16 is_stmt 0 discriminator 1
 1919 0954 13850400 		mv	a0,s1
 1920 0958 97000000 		call	_ZN3SCBD1Ev@plt
 1920      E7800000 
 1921              	.LVL151:
 1922 0960 13850400 		mv	a0,s1
 1923 0964 97000000 		call	_ZN3SCBdlEPv@plt
 1923      E7800000 
 1924              	.LVL152:
 1925 096c 6FF05FFC 		j	.L101
 1926              		.cfi_endproc
 1927              	.LFE65:
 1929              		.align	2
 1930              		.globl	_ZN5RiscV18executeForkSyscallEv
 1932              	_ZN5RiscV18executeForkSyscallEv:
 1933              	.LFB66:
 623:src/riscv.cpp **** 
 624:src/riscv.cpp **** //fork syscall
 625:src/riscv.cpp **** void RiscV::executeForkSyscall() {
 1934              		.loc 1 625 34 is_stmt 1
 1935              		.cfi_startproc
 1936              		.cfi_personality 0x9b,DW.ref.__gxx_personality_v0
 1937              		.cfi_lsda 0x1b,.LLSDA66
 1938 0970 130101FE 		addi	sp,sp,-32
 1939              		.cfi_def_cfa_offset 32
 1940 0974 233C1100 		sd	ra,24(sp)
 1941 0978 23388100 		sd	s0,16(sp)
 1942 097c 23349100 		sd	s1,8(sp)
 1943 0980 23302101 		sd	s2,0(sp)
 1944              		.cfi_offset 1, -8
 1945              		.cfi_offset 8, -16
 1946              		.cfi_offset 9, -24
 1947              		.cfi_offset 18, -32
 1948 0984 13040102 		addi	s0,sp,32
 1949              		.cfi_def_cfa 8, 0
GAS LISTING /tmp/ccbuBniB.s 			page 56


 626:src/riscv.cpp **** 
 627:src/riscv.cpp ****     //create new stack and copy stack from currently running stack into the new one
 628:src/riscv.cpp ****     uint64 *stack = (uint64*)kmalloc(DEFAULT_STACK_SIZE);
 1950              		.loc 1 628 5
 1951              		.loc 1 628 37 is_stmt 0
 1952 0988 37150000 		li	a0,4096
 1953              	.LEHB10:
 1954 098c 97000000 		call	_Z7kmallocm@plt
 1954      E7800000 
 1955              	.LVL153:
 1956 0994 13090500 		mv	s2,a0
 1957              	.LVL154:
 629:src/riscv.cpp **** 
 630:src/riscv.cpp ****     MemoryAllocator::memcpy((void*)TCB::running->stack,(void*)stack,DEFAULT_STACK_SIZE);
 1958              		.loc 1 630 5 is_stmt 1
 1959              		.loc 1 630 28 is_stmt 0
 1960 0998 97070000 		la	a5,_ZN3TCB7runningE
 1960      83B70700 
 1961 09a0 83B70700 		ld	a5,0(a5)
 1962 09a4 37160000 		li	a2,4096
 1963 09a8 93050500 		mv	a1,a0
 1964 09ac 03B58702 		ld	a0,40(a5)
 1965              	.LVL155:
 1966 09b0 97000000 		call	_ZN15MemoryAllocator6memcpyEPvS0_m@plt
 1966      E7800000 
 1967              	.LVL156:
 631:src/riscv.cpp **** 
 632:src/riscv.cpp ****     //create new TCB for new thread
 633:src/riscv.cpp ****     TCB *forked = new TCB(nullptr, nullptr, stack, DEFAULT_TIME_SLICE);
 1968              		.loc 1 633 5 is_stmt 1
 1969              		.loc 1 633 70 is_stmt 0
 1970 09b8 13050007 		li	a0,112
 1971 09bc 97000000 		call	_ZN3TCBnwEm@plt
 1971      E7800000 
 1972              	.LVL157:
 1973              	.LEHE10:
 1974 09c4 93040500 		mv	s1,a0
 1975 09c8 630E0500 		beqz	a0,.L105
 1976              		.loc 1 633 70 discriminator 1
 1977 09cc 13072000 		li	a4,2
 1978 09d0 93060900 		mv	a3,s2
 1979 09d4 13060000 		li	a2,0
 1980 09d8 93050000 		li	a1,0
 1981              	.LEHB11:
 1982 09dc 97000000 		call	_ZN3TCBC1EPFvPvES0_Pmm@plt
 1982      E7800000 
 1983              	.LVL158:
 1984              	.LEHE11:
 1985              	.L105:
 634:src/riscv.cpp **** 
 635:src/riscv.cpp ****     uint64 status = 0;
 1986              		.loc 1 635 5 is_stmt 1 discriminator 6
 636:src/riscv.cpp **** 
 637:src/riscv.cpp ****     if(forked) {
 1987              		.loc 1 637 5 discriminator 6
 1988              	.LBB124:
 1989 09e4 638E040A 		beqz	s1,.L108
GAS LISTING /tmp/ccbuBniB.s 			page 57


 1990              	.LBB125:
 638:src/riscv.cpp **** 
 639:src/riscv.cpp ****         //set return address where forked thread should return
 640:src/riscv.cpp ****         forked->context.ra = TCB::currentPC;
 1991              		.loc 1 640 9
 1992              		.loc 1 640 28 is_stmt 0
 1993 09e8 97070000 		la	a5,_ZN3TCB9currentPCE
 1993      83B70700 
 1994 09f0 83B70700 		ld	a5,0(a5)
 1995 09f4 23B4F400 		sd	a5,8(s1)
 641:src/riscv.cpp **** 
 642:src/riscv.cpp ****         //set SP value where forked thread's stack starts
 643:src/riscv.cpp ****         forked->context.sp = (uint64)((char*)stack + TCB::currentSP - (char*)TCB::running->stack);
 1996              		.loc 1 643 9 is_stmt 1
 1997              		.loc 1 643 59 is_stmt 0
 1998 09f8 97070000 		la	a5,_ZN3TCB9currentSPE
 1998      83B70700 
 1999 0a00 83B70700 		ld	a5,0(a5)
 2000              		.loc 1 643 52
 2001 0a04 B307F900 		add	a5,s2,a5
 2002              		.loc 1 643 71
 2003 0a08 17070000 		la	a4,_ZN3TCB7runningE
 2003      03370700 
 2004 0a10 83360700 		ld	a3,0(a4)
 2005              		.loc 1 643 92
 2006 0a14 83B68602 		ld	a3,40(a3)
 2007              		.loc 1 643 69
 2008 0a18 B387D740 		sub	a5,a5,a3
 2009              		.loc 1 643 28
 2010 0a1c 23B0F400 		sd	a5,0(s1)
 644:src/riscv.cpp **** 
 645:src/riscv.cpp ****         //get memory location of where registers are stored from previous context switch
 646:src/riscv.cpp ****         uint64 registerStartSP = (uint64)((char*)TCB::running->a0Location - (char*)TCB::running->st
 2011              		.loc 1 646 9 is_stmt 1
 2012              		.loc 1 646 64 is_stmt 0
 2013 0a20 83370700 		ld	a5,0(a4)
 2014 0a24 03B58706 		ld	a0,104(a5)
 2015              		.loc 1 646 98
 2016 0a28 83B78702 		ld	a5,40(a5)
 2017              		.loc 1 646 75
 2018 0a2c 3305F540 		sub	a0,a0,a5
 2019              		.loc 1 646 104
 2020 0a30 3309A900 		add	s2,s2,a0
 2021              	.LVL159:
 647:src/riscv.cpp **** 
 648:src/riscv.cpp ****         forked->a0Location = registerStartSP;
 2022              		.loc 1 648 9 is_stmt 1
 2023              		.loc 1 648 28 is_stmt 0
 2024 0a34 23B42407 		sd	s2,104(s1)
 649:src/riscv.cpp **** 
 650:src/riscv.cpp ****         uint64 a1,a0;
 2025              		.loc 1 650 9 is_stmt 1
 651:src/riscv.cpp **** 
 652:src/riscv.cpp ****         //write address of stored registers in SP of forked thread so that it can return regularly
 653:src/riscv.cpp ****         asm("mv %[a1], a1": [a1] "=r"(a1));
 2026              		.loc 1 653 9
 2027              		.loc 1 653 43 is_stmt 0
GAS LISTING /tmp/ccbuBniB.s 			page 58


 2028              	#APP
 2029              	# 653 "src/riscv.cpp" 1
 654              	
 655:src/riscv.cpp ****         asm("mv %[a0], a0": [a0] "=r"(a0));
 2030              		mv a3, a1
 2031              	# 0 "" 2
 2032              		.loc 1 655 9 is_stmt 1
 2033              		.loc 1 655 43 is_stmt 0
 2034              	# 655 "src/riscv.cpp" 1
 656              	
 657:src/riscv.cpp ****         asm("mv a0,%[a0]"::  [a0]"r"(registerStartSP));
 2035              		mv a5, a0
 2036              	# 0 "" 2
 2037              		.loc 1 657 9 is_stmt 1
 2038              		.loc 1 657 55 is_stmt 0
 2039              	# 657 "src/riscv.cpp" 1
 658              	
 659:src/riscv.cpp ****         asm("mv a1, %[a0]" : :  [a0] "r"(registerStartSP));
 2040              		mv a0,s2
 2041              	# 0 "" 2
 2042              		.loc 1 659 9 is_stmt 1
 2043              		.loc 1 659 59 is_stmt 0
 2044              	# 659 "src/riscv.cpp" 1
 660              	
 661:src/riscv.cpp ****         asm("sd a0, 16(a1)");
 2045              		mv a1, s2
 2046              	# 0 "" 2
 2047              		.loc 1 661 9 is_stmt 1
 2048              		.loc 1 661 29 is_stmt 0
 2049              	# 661 "src/riscv.cpp" 1
 662              	
 663:src/riscv.cpp ****         //write 0 in a0 register of forked thread because fork should return 0 in context of child,
 664:src/riscv.cpp ****         asm("li a0, 0");
 2050              		sd a0, 16(a1)
 2051              	# 0 "" 2
 2052              		.loc 1 664 9 is_stmt 1
 2053              		.loc 1 664 24 is_stmt 0
 2054              	# 664 "src/riscv.cpp" 1
 665              	
 666:src/riscv.cpp ****         asm("sd a0, 80(a1)");
 2055              		li a0, 0
 2056              	# 0 "" 2
 2057              		.loc 1 666 9 is_stmt 1
 2058              		.loc 1 666 29 is_stmt 0
 2059              	# 666 "src/riscv.cpp" 1
 667              	
 668:src/riscv.cpp ****         asm("mv a1,%[a1]"::  [a1]"r"(a1));
 2060              		sd a0, 80(a1)
 2061              	# 0 "" 2
 2062              		.loc 1 668 9 is_stmt 1
 2063              		.loc 1 668 42 is_stmt 0
 2064              	# 668 "src/riscv.cpp" 1
 669              	
 670:src/riscv.cpp ****         asm("mv a0,%[a0]"::  [a0]"r"(a0));
 2065              		mv a1,a3
 2066              	# 0 "" 2
 2067              		.loc 1 670 9 is_stmt 1
GAS LISTING /tmp/ccbuBniB.s 			page 59


 2068              		.loc 1 670 42 is_stmt 0
 2069              	# 670 "src/riscv.cpp" 1
 671              	
 672:src/riscv.cpp ****         forked->sepc = TCB::running->sepc;
 2070              		mv a0,a5
 2071              	# 0 "" 2
 2072              		.loc 1 672 9 is_stmt 1
 2073              		.loc 1 672 38 is_stmt 0
 2074              	#NO_APP
 2075 0a5c 83370700 		ld	a5,0(a4)
 2076 0a60 03B78703 		ld	a4,56(a5)
 2077              		.loc 1 672 22
 2078 0a64 23BCE402 		sd	a4,56(s1)
 673:src/riscv.cpp **** 
 674:src/riscv.cpp ****         forked->sstatus = TCB::running->sstatus;
 2079              		.loc 1 674 9 is_stmt 1
 2080              		.loc 1 674 41 is_stmt 0
 2081 0a68 83B70704 		ld	a5,64(a5)
 2082              		.loc 1 674 25
 2083 0a6c 23B0F404 		sd	a5,64(s1)
 675:src/riscv.cpp **** 
 676:src/riscv.cpp ****         //put forked in scheduler
 677:src/riscv.cpp ****         Scheduler::put(forked);
 2084              		.loc 1 677 9 is_stmt 1
 2085              		.loc 1 677 23 is_stmt 0
 2086 0a70 13850400 		mv	a0,s1
 2087              	.LEHB12:
 2088 0a74 97000000 		call	_ZN9Scheduler3putEP3TCB@plt
 2088      E7800000 
 2089              	.LVL160:
 2090              	.LEHE12:
 678:src/riscv.cpp **** 
 679:src/riscv.cpp ****         //return address of forked as thread ID
 680:src/riscv.cpp ****         status = (uint64)forked;
 2091              		.loc 1 680 9 is_stmt 1
 2092              	.L106:
 2093              	.LBE125:
 2094              	.LBE124:
 681:src/riscv.cpp ****     }else
 682:src/riscv.cpp ****         status = -1;
 683:src/riscv.cpp **** 
 684:src/riscv.cpp ****     asm("mv a0, %[status]" : : [status] "r" (status));
 2095              		.loc 1 684 5
 2096              		.loc 1 684 54 is_stmt 0
 2097              	#APP
 2098              	# 684 "src/riscv.cpp" 1
 685              	
 686:src/riscv.cpp ****     RiscV::saveA0toSscratch();
 2099              		mv a0, s1
 2100              	# 0 "" 2
 2101              		.loc 1 686 5 is_stmt 1
 2102              		.loc 1 686 28 is_stmt 0
 2103              	#NO_APP
 2104 0a80 97000000 		call	_ZN5RiscV16saveA0toSscratchEv
 2104      E7800000 
 2105              	.LVL161:
 687:src/riscv.cpp **** 
GAS LISTING /tmp/ccbuBniB.s 			page 60


 688:src/riscv.cpp **** }
 2106              		.loc 1 688 1
 2107 0a88 83308101 		ld	ra,24(sp)
 2108              		.cfi_remember_state
 2109              		.cfi_restore 1
 2110 0a8c 03340101 		ld	s0,16(sp)
 2111              		.cfi_restore 8
 2112              		.cfi_def_cfa 2, 32
 2113 0a90 83348100 		ld	s1,8(sp)
 2114              		.cfi_restore 9
 2115              	.LVL162:
 2116 0a94 03390100 		ld	s2,0(sp)
 2117              		.cfi_restore 18
 2118 0a98 13010102 		addi	sp,sp,32
 2119              		.cfi_def_cfa_offset 0
 2120 0a9c 67800000 		jr	ra
 2121              	.LVL163:
 2122              	.L108:
 2123              		.cfi_restore_state
 2124              	.LBB126:
 682:src/riscv.cpp **** 
 2125              		.loc 1 682 16
 2126 0aa0 9304F0FF 		li	s1,-1
 2127              	.LVL164:
 2128 0aa4 6FF09FFD 		j	.L106
 2129              	.LVL165:
 2130              	.L109:
 2131 0aa8 13090500 		mv	s2,a0
 2132              	.LVL166:
 2133              	.LBE126:
 633:src/riscv.cpp **** 
 2134              		.loc 1 633 70
 2135 0aac 13850400 		mv	a0,s1
 2136 0ab0 97000000 		call	_ZN3TCBdlEPv@plt
 2136      E7800000 
 2137              	.LVL167:
 2138 0ab8 13050900 		mv	a0,s2
 2139              	.LEHB13:
 2140 0abc 97000000 		call	_Unwind_Resume@plt
 2140      E7800000 
 2141              	.LVL168:
 2142              	.LEHE13:
 2143              		.cfi_endproc
 2144              	.LFE66:
 2145              		.section	.gcc_except_table
 2146              	.LLSDA66:
 2147 008e FF       		.byte	0xff
 2148 008f FF       		.byte	0xff
 2149 0090 03       		.byte	0x3
 2150 0091 34       		.byte	0x34
 2151 0092 00000000 		.4byte	.LEHB10-.LFB66
 2152 0096 00000000 		.4byte	.LEHE10-.LEHB10
 2153 009a 00000000 		.4byte	0
 2154 009e 00       		.byte	0
 2155 009f 00000000 		.4byte	.LEHB11-.LFB66
 2156 00a3 00000000 		.4byte	.LEHE11-.LEHB11
 2157 00a7 00000000 		.4byte	.L109-.LFB66
GAS LISTING /tmp/ccbuBniB.s 			page 61


 2158 00ab 00       		.byte	0
 2159 00ac 00000000 		.4byte	.LEHB12-.LFB66
 2160 00b0 00000000 		.4byte	.LEHE12-.LEHB12
 2161 00b4 00000000 		.4byte	0
 2162 00b8 00       		.byte	0
 2163 00b9 00000000 		.4byte	.LEHB13-.LFB66
 2164 00bd 00000000 		.4byte	.LEHE13-.LEHB13
 2165 00c1 00000000 		.4byte	0
 2166 00c5 00       		.byte	0
 2167              		.text
 2169              		.align	2
 2170              		.globl	_ZN5RiscV5getPCEv
 2172              	_ZN5RiscV5getPCEv:
 2173              	.LFB67:
 689:src/riscv.cpp **** 
 690:src/riscv.cpp **** void RiscV::getPC(){
 2174              		.loc 1 690 20 is_stmt 1
 2175              		.cfi_startproc
 2176 0ac4 130101FF 		addi	sp,sp,-16
 2177              		.cfi_def_cfa_offset 16
 2178 0ac8 23348100 		sd	s0,8(sp)
 2179              		.cfi_offset 8, -8
 2180 0acc 13040101 		addi	s0,sp,16
 2181              		.cfi_def_cfa 8, 0
 691:src/riscv.cpp ****     uint64 ra;
 2182              		.loc 1 691 5
 692:src/riscv.cpp **** 
 693:src/riscv.cpp ****     asm("mv %[ra], ra" : [ra] "=r"(ra));
 2183              		.loc 1 693 5
 2184              		.loc 1 693 40 is_stmt 0
 2185              	#APP
 2186              	# 693 "src/riscv.cpp" 1
 694              	
 2187              		mv a5, ra
 2188              	# 0 "" 2
 2189              	.LVL169:
 695:src/riscv.cpp ****     TCB::currentPC = ra + 8;
 2190              		.loc 1 695 5 is_stmt 1
 2191              		.loc 1 695 25 is_stmt 0
 2192              	#NO_APP
 2193 0ad4 93878700 		addi	a5,a5,8
 2194              	.LVL170:
 2195              		.loc 1 695 20
 2196 0ad8 17070000 		la	a4,_ZN3TCB9currentPCE
 2196      03370700 
 2197 0ae0 2330F700 		sd	a5,0(a4)
 696:src/riscv.cpp **** }
 2198              		.loc 1 696 1
 2199 0ae4 03348100 		ld	s0,8(sp)
 2200              		.cfi_restore 8
 2201              		.cfi_def_cfa 2, 16
 2202 0ae8 13010101 		addi	sp,sp,16
 2203              		.cfi_def_cfa_offset 0
 2204 0aec 67800000 		jr	ra
 2205              		.cfi_endproc
 2206              	.LFE67:
 2208              		.section	.rodata.str1.8,"aMS",@progbits,1
GAS LISTING /tmp/ccbuBniB.s 			page 62


 2209              		.align	3
 2210              	.LC0:
 2211 0000 73657063 		.string	"sepc: "
 2211      3A2000
 2212 0007 00       		.align	3
 2213              	.LC1:
 2214 0008 0A00     		.string	"\n"
 2215 000a 00000000 		.align	3
 2215      0000
 2216              	.LC2:
 2217 0010 496C6C65 		.string	"Illegal instruction\nExiting thread...\n"
 2217      67616C20 
 2217      696E7374 
 2217      72756374 
 2217      696F6E0A 
 2218 0037 00       		.align	3
 2219              	.LC3:
 2220 0038 4572726F 		.string	"Error: \n"
 2220      723A200A 
 2220      00
 2221 0041 00000000 		.align	3
 2221      000000
 2222              	.LC4:
 2223 0048 73636175 		.string	"scause: "
 2223      73653A20 
 2223      00
 2224 0051 00000000 		.align	3
 2224      000000
 2225              	.LC5:
 2226 0058 45786974 		.string	"Exiting thread...\n"
 2226      696E6720 
 2226      74687265 
 2226      61642E2E 
 2226      2E0A00
 2227              		.text
 2228              		.align	2
 2229              		.globl	_ZN5RiscV20handleSupervisorTrapEv
 2231              	_ZN5RiscV20handleSupervisorTrapEv:
 2232              	.LFB44:
  35:src/riscv.cpp **** 
 2233              		.loc 1 35 36 is_stmt 1
 2234              		.cfi_startproc
 2235 0af0 130101FA 		addi	sp,sp,-96
 2236              		.cfi_def_cfa_offset 96
 2237 0af4 233C1104 		sd	ra,88(sp)
 2238 0af8 23388104 		sd	s0,80(sp)
 2239              		.cfi_offset 1, -8
 2240              		.cfi_offset 8, -16
 2241 0afc 13040106 		addi	s0,sp,96
 2242              		.cfi_def_cfa 8, 0
  38:src/riscv.cpp **** 
 2243              		.loc 1 38 5
 2244              	.LBB127:
 2245              	.LBB128:
 132:src/../h/riscv.hpp ****     asm("csrr %[scause], scause" : [scause] "=r" (scause));
 2246              		.loc 2 132 5
 133:src/../h/riscv.hpp ****     return scause;
GAS LISTING /tmp/ccbuBniB.s 			page 63


 2247              		.loc 2 133 5
 133:src/../h/riscv.hpp ****     return scause;
 2248              		.loc 2 133 59 is_stmt 0
 2249              	#APP
 2250              	# 133 "src/../h/riscv.hpp" 1
 2251              		csrr a5, scause
 2252              	# 0 "" 2
 2253              	#NO_APP
 2254 0b04 233CF4FC 		sd	a5,-40(s0)
 134:src/../h/riscv.hpp **** }
 2255              		.loc 2 134 5 is_stmt 1
 134:src/../h/riscv.hpp **** }
 2256              		.loc 2 134 12 is_stmt 0
 2257 0b08 833784FD 		ld	a5,-40(s0)
 2258              	.LBE128:
 2259              	.LBE127:
  38:src/riscv.cpp **** 
 2260              		.loc 1 38 46
 2261 0b0c 2334F4FE 		sd	a5,-24(s0)
  40:src/riscv.cpp **** 
 2262              		.loc 1 40 5 is_stmt 1
  40:src/riscv.cpp **** 
 2263              		.loc 1 40 71 is_stmt 0
 2264 0b10 97070000 		la	a5,_ZN3TCB7runningE
 2264      83B70700 
 2265 0b18 83B70700 		ld	a5,0(a5)
  40:src/riscv.cpp **** 
 2266              		.loc 1 40 83
 2267              	#APP
 2268              	# 40 "src/riscv.cpp" 1
 2269              		csrr a4, sscratch
 2270              	# 0 "" 2
 2271              	#NO_APP
 2272 0b20 23B4E706 		sd	a4,104(a5)
  43:src/riscv.cpp **** 
 2273              		.loc 1 43 5 is_stmt 1
 2274              	.LBB129:
  43:src/riscv.cpp **** 
 2275              		.loc 1 43 15 is_stmt 0
 2276 0b24 033784FE 		ld	a4,-24(s0)
  43:src/riscv.cpp **** 
 2277              		.loc 1 43 23
 2278 0b28 93079000 		li	a5,9
 2279 0b2c 6306F70E 		beq	a4,a5,.L115
  43:src/riscv.cpp **** 
 2280              		.loc 1 43 33 discriminator 2
 2281 0b30 033784FE 		ld	a4,-24(s0)
  43:src/riscv.cpp **** 
 2282              		.loc 1 43 23 discriminator 2
 2283 0b34 93078000 		li	a5,8
 2284 0b38 6300F70E 		beq	a4,a5,.L115
 2285              	.LBE129:
  89:src/riscv.cpp **** 
 2286              		.loc 1 89 10 is_stmt 1
 2287              	.LBB184:
 2288              	.LBB130:
  89:src/riscv.cpp **** 
GAS LISTING /tmp/ccbuBniB.s 			page 64


 2289              		.loc 1 89 20 is_stmt 0
 2290 0b3c 033784FE 		ld	a4,-24(s0)
  89:src/riscv.cpp **** 
 2291              		.loc 1 89 10
 2292 0b40 9307F0FF 		li	a5,-1
 2293 0b44 9397F703 		slli	a5,a5,63
 2294 0b48 93871700 		addi	a5,a5,1
 2295 0b4c 6302F724 		beq	a4,a5,.L145
 2296              	.LBE130:
 2297              	.LBE184:
 124:src/riscv.cpp ****         //save sstatus and sepc
 2298              		.loc 1 124 10 is_stmt 1
 2299              	.LBB185:
 2300              	.LBB171:
 2301              	.LBB131:
 124:src/riscv.cpp ****         //save sstatus and sepc
 2302              		.loc 1 124 20 is_stmt 0
 2303 0b50 033784FE 		ld	a4,-24(s0)
 124:src/riscv.cpp ****         //save sstatus and sepc
 2304              		.loc 1 124 10
 2305 0b54 9307F0FF 		li	a5,-1
 2306 0b58 9397F703 		slli	a5,a5,63
 2307 0b5c 93879700 		addi	a5,a5,9
 2308 0b60 6300F72C 		beq	a4,a5,.L146
 2309              	.LBE131:
 2310              	.LBE171:
 2311              	.LBE185:
 160:src/riscv.cpp ****         TCB* old = TCB::running;
 2312              		.loc 1 160 10 is_stmt 1
 2313              	.LBB186:
 2314              	.LBB172:
 2315              	.LBB155:
 2316              	.LBB132:
 160:src/riscv.cpp ****         TCB* old = TCB::running;
 2317              		.loc 1 160 20 is_stmt 0
 2318 0b64 033784FE 		ld	a4,-24(s0)
 160:src/riscv.cpp ****         TCB* old = TCB::running;
 2319              		.loc 1 160 10
 2320 0b68 93072000 		li	a5,2
 2321 0b6c 6308F734 		beq	a4,a5,.L147
 2322              	.LBB133:
 173:src/riscv.cpp ****         ConsoleUtil::printString("scause: ");
 2323              		.loc 1 173 9 is_stmt 1
 173:src/riscv.cpp ****         ConsoleUtil::printString("scause: ");
 2324              		.loc 1 173 33 is_stmt 0
 2325 0b70 17050000 		lla	a0,.LC3
 2325      13050500 
 2326 0b78 97000000 		call	_ZN11ConsoleUtil11printStringEPKc@plt
 2326      E7800000 
 2327              	.LVL171:
 174:src/riscv.cpp ****         uint64  scause = RiscV::r_scause();
 2328              		.loc 1 174 9 is_stmt 1
 174:src/riscv.cpp ****         uint64  scause = RiscV::r_scause();
 2329              		.loc 1 174 33 is_stmt 0
 2330 0b80 17050000 		lla	a0,.LC4
 2330      13050500 
 2331 0b88 97000000 		call	_ZN11ConsoleUtil11printStringEPKc@plt
GAS LISTING /tmp/ccbuBniB.s 			page 65


 2331      E7800000 
 2332              	.LVL172:
 175:src/riscv.cpp ****         ConsoleUtil::printInt(scause);
 2333              		.loc 1 175 9 is_stmt 1
 2334              	.LBB134:
 2335              	.LBB135:
 132:src/../h/riscv.hpp ****     asm("csrr %[scause], scause" : [scause] "=r" (scause));
 2336              		.loc 2 132 5
 133:src/../h/riscv.hpp ****     return scause;
 2337              		.loc 2 133 5
 133:src/../h/riscv.hpp ****     return scause;
 2338              		.loc 2 133 59 is_stmt 0
 2339              	#APP
 2340              	# 133 "src/../h/riscv.hpp" 1
 2341              		csrr a5, scause
 2342              	# 0 "" 2
 2343              	#NO_APP
 2344 0b94 2330F4FE 		sd	a5,-32(s0)
 134:src/../h/riscv.hpp **** }
 2345              		.loc 2 134 5 is_stmt 1
 134:src/../h/riscv.hpp **** }
 2346              		.loc 2 134 12 is_stmt 0
 2347 0b98 033504FE 		ld	a0,-32(s0)
 2348              	.LVL173:
 2349              	.LBE135:
 2350              	.LBE134:
 176:src/riscv.cpp ****         ConsoleUtil::printString("sepc: ");
 2351              		.loc 1 176 9 is_stmt 1
 176:src/riscv.cpp ****         ConsoleUtil::printString("sepc: ");
 2352              		.loc 1 176 30 is_stmt 0
 2353 0b9c 13060000 		li	a2,0
 2354 0ba0 9305A000 		li	a1,10
 2355 0ba4 1B050500 		sext.w	a0,a0
 2356              	.LVL174:
 2357 0ba8 97000000 		call	_ZN11ConsoleUtil8printIntEiii@plt
 2357      E7800000 
 2358              	.LVL175:
 177:src/riscv.cpp ****         uint64 sepc = RiscV::r_sepc();
 2359              		.loc 1 177 9 is_stmt 1
 177:src/riscv.cpp ****         uint64 sepc = RiscV::r_sepc();
 2360              		.loc 1 177 33 is_stmt 0
 2361 0bb0 17050000 		lla	a0,.LC0
 2361      13050500 
 2362 0bb8 97000000 		call	_ZN11ConsoleUtil11printStringEPKc@plt
 2362      E7800000 
 2363              	.LVL176:
 178:src/riscv.cpp ****         ConsoleUtil::printInt(sepc,16);
 2364              		.loc 1 178 9 is_stmt 1
 2365              	.LBB136:
 2366              	.LBB137:
 142:src/../h/riscv.hpp ****     asm("csrr %[sepc], sepc" : [sepc] "=r" (sepc));
 2367              		.loc 2 142 5
 143:src/../h/riscv.hpp ****     return sepc;
 2368              		.loc 2 143 5
 143:src/../h/riscv.hpp ****     return sepc;
 2369              		.loc 2 143 51 is_stmt 0
 2370              	#APP
GAS LISTING /tmp/ccbuBniB.s 			page 66


 2371              	# 143 "src/../h/riscv.hpp" 1
 144:src/../h/riscv.hpp **** }
 2372              		csrr a0, sepc
 2373              	# 0 "" 2
 2374              		.loc 2 144 5 is_stmt 1
 2375              	#NO_APP
 2376              	.LBE137:
 2377              	.LBE136:
 179:src/riscv.cpp ****         ConsoleUtil::printString("\n");
 2378              		.loc 1 179 9
 179:src/riscv.cpp ****         ConsoleUtil::printString("\n");
 2379              		.loc 1 179 30 is_stmt 0
 2380 0bc4 13060000 		li	a2,0
 2381 0bc8 93050001 		li	a1,16
 2382 0bcc 1B050500 		sext.w	a0,a0
 2383 0bd0 97000000 		call	_ZN11ConsoleUtil8printIntEiii@plt
 2383      E7800000 
 2384              	.LVL177:
 180:src/riscv.cpp ****         TCB* old = TCB::running;
 2385              		.loc 1 180 9 is_stmt 1
 180:src/riscv.cpp ****         TCB* old = TCB::running;
 2386              		.loc 1 180 33 is_stmt 0
 2387 0bd8 17050000 		lla	a0,.LC1
 2387      13050500 
 2388 0be0 97000000 		call	_ZN11ConsoleUtil11printStringEPKc@plt
 2388      E7800000 
 2389              	.LVL178:
 181:src/riscv.cpp ****         old->status = TCB::Status::FINISHED;
 2390              		.loc 1 181 9 is_stmt 1
 181:src/riscv.cpp ****         old->status = TCB::Status::FINISHED;
 2391              		.loc 1 181 14 is_stmt 0
 2392 0be8 97070000 		la	a5,_ZN3TCB7runningE
 2392      83B70700 
 2393 0bf0 83B70700 		ld	a5,0(a5)
 2394              	.LVL179:
 182:src/riscv.cpp ****         ConsoleUtil::printString("Exiting thread...\n");
 2395              		.loc 1 182 9 is_stmt 1
 182:src/riscv.cpp ****         ConsoleUtil::printString("Exiting thread...\n");
 2396              		.loc 1 182 21 is_stmt 0
 2397 0bf4 13072000 		li	a4,2
 2398 0bf8 23A8E700 		sw	a4,16(a5)
 183:src/riscv.cpp ****         TCB::dispatch();
 2399              		.loc 1 183 9 is_stmt 1
 183:src/riscv.cpp ****         TCB::dispatch();
 2400              		.loc 1 183 33 is_stmt 0
 2401 0bfc 17050000 		lla	a0,.LC5
 2401      13050500 
 2402 0c04 97000000 		call	_ZN11ConsoleUtil11printStringEPKc@plt
 2402      E7800000 
 2403              	.LVL180:
 184:src/riscv.cpp ****     }
 2404              		.loc 1 184 9 is_stmt 1
 184:src/riscv.cpp ****     }
 2405              		.loc 1 184 22 is_stmt 0
 2406 0c0c 97000000 		call	_ZN3TCB8dispatchEv@plt
 2406      E7800000 
 2407              	.LVL181:
GAS LISTING /tmp/ccbuBniB.s 			page 67


 2408 0c14 6F000008 		j	.L138
 2409              	.L115:
 2410              	.LBE133:
 2411              	.LBE132:
 2412              	.LBE155:
 2413              	.LBE172:
 2414              	.LBB173:
  47:src/riscv.cpp ****         uint64 volatile sepc = RiscV::r_sepc()+4;
 2415              		.loc 1 47 9 is_stmt 1
 2416              	.LBB174:
 2417              	.LBB175:
 162:src/../h/riscv.hpp ****     asm("csrr %[sstatus], sstatus" : [sstatus] "=r" (sstatus));
 2418              		.loc 2 162 5
 163:src/../h/riscv.hpp ****     return sstatus;
 2419              		.loc 2 163 5
 163:src/../h/riscv.hpp ****     return sstatus;
 2420              		.loc 2 163 63 is_stmt 0
 2421              	#APP
 2422              	# 163 "src/../h/riscv.hpp" 1
 2423              		csrr a5, sstatus
 2424              	# 0 "" 2
 2425              	.LVL182:
 164:src/../h/riscv.hpp **** }
 2426              		.loc 2 164 5 is_stmt 1
 2427              	#NO_APP
 2428              	.LBE175:
 2429              	.LBE174:
  47:src/riscv.cpp ****         uint64 volatile sepc = RiscV::r_sepc()+4;
 2430              		.loc 1 47 52 is_stmt 0
 2431 0c1c 2334F4FA 		sd	a5,-88(s0)
  48:src/riscv.cpp ****         TCB::running->sepc = sepc;
 2432              		.loc 1 48 9 is_stmt 1
 2433              	.LBB176:
 2434              	.LBB177:
 142:src/../h/riscv.hpp ****     asm("csrr %[sepc], sepc" : [sepc] "=r" (sepc));
 2435              		.loc 2 142 5
 143:src/../h/riscv.hpp ****     return sepc;
 2436              		.loc 2 143 5
 143:src/../h/riscv.hpp ****     return sepc;
 2437              		.loc 2 143 51 is_stmt 0
 2438              	#APP
 2439              	# 143 "src/../h/riscv.hpp" 1
 2440              		csrr a5, sepc
 2441              	# 0 "" 2
 2442              	.LVL183:
 144:src/../h/riscv.hpp **** }
 2443              		.loc 2 144 5 is_stmt 1
 2444              	#NO_APP
 2445              	.LBE177:
 2446              	.LBE176:
  48:src/riscv.cpp ****         TCB::running->sepc = sepc;
 2447              		.loc 1 48 47 is_stmt 0
 2448 0c24 93874700 		addi	a5,a5,4
  48:src/riscv.cpp ****         TCB::running->sepc = sepc;
 2449              		.loc 1 48 48
 2450 0c28 2338F4FA 		sd	a5,-80(s0)
  49:src/riscv.cpp ****         TCB::running->sstatus = sstatus;
GAS LISTING /tmp/ccbuBniB.s 			page 68


 2451              		.loc 1 49 9 is_stmt 1
  49:src/riscv.cpp ****         TCB::running->sstatus = sstatus;
 2452              		.loc 1 49 23 is_stmt 0
 2453 0c2c 97070000 		la	a5,_ZN3TCB7runningE
 2453      83B70700 
 2454 0c34 83B70700 		ld	a5,0(a5)
  49:src/riscv.cpp ****         TCB::running->sstatus = sstatus;
 2455              		.loc 1 49 28
 2456 0c38 033704FB 		ld	a4,-80(s0)
 2457 0c3c 23BCE702 		sd	a4,56(a5)
  50:src/riscv.cpp **** 
 2458              		.loc 1 50 9 is_stmt 1
  50:src/riscv.cpp **** 
 2459              		.loc 1 50 31 is_stmt 0
 2460 0c40 033784FA 		ld	a4,-88(s0)
 2461 0c44 23B0E704 		sd	a4,64(a5)
  53:src/riscv.cpp ****         asm("mv %[syscallID], a0" : [syscallID] "=r" (syscallID));
 2462              		.loc 1 53 9 is_stmt 1
  54:src/riscv.cpp **** 
 2463              		.loc 1 54 9
  54:src/riscv.cpp **** 
 2464              		.loc 1 54 66 is_stmt 0
 2465              	#APP
 2466              	# 54 "src/riscv.cpp" 1
 2467              		mv a5, a0
 2468              	# 0 "" 2
 2469              	.LVL184:
  56:src/riscv.cpp ****             case 0x01 : executeMemAllocSyscall();break;
 2470              		.loc 1 56 9 is_stmt 1
 2471              	#NO_APP
 2472 0c4c 13071006 		li	a4,97
 2473 0c50 6364F702 		bgtu	a5,a4,.L118
 2474 0c54 93972700 		slli	a5,a5,2
 2475              	.LVL185:
 2476 0c58 17070000 		lla	a4,.L120
 2476      13070700 
 2477 0c60 B387E700 		add	a5,a5,a4
 2478 0c64 83A70700 		lw	a5,0(a5)
 2479 0c68 B387E700 		add	a5,a5,a4
 2480 0c6c 67800700 		jr	a5
 2481              		.section	.rodata
 2482              		.align	2
 2483              		.align	2
 2484              	.L120:
 2485 0000 00000000 		.word	.L118-.L120
 2486 0004 00000000 		.word	.L137-.L120
 2487 0008 00000000 		.word	.L136-.L120
 2488 000c 00000000 		.word	.L118-.L120
 2489 0010 00000000 		.word	.L118-.L120
 2490 0014 00000000 		.word	.L118-.L120
 2491 0018 00000000 		.word	.L118-.L120
 2492 001c 00000000 		.word	.L118-.L120
 2493 0020 00000000 		.word	.L118-.L120
 2494 0024 00000000 		.word	.L118-.L120
 2495 0028 00000000 		.word	.L118-.L120
 2496 002c 00000000 		.word	.L118-.L120
 2497 0030 00000000 		.word	.L118-.L120
GAS LISTING /tmp/ccbuBniB.s 			page 69


 2498 0034 00000000 		.word	.L118-.L120
 2499 0038 00000000 		.word	.L118-.L120
 2500 003c 00000000 		.word	.L118-.L120
 2501 0040 00000000 		.word	.L118-.L120
 2502 0044 00000000 		.word	.L135-.L120
 2503 0048 00000000 		.word	.L134-.L120
 2504 004c 00000000 		.word	.L133-.L120
 2505 0050 00000000 		.word	.L132-.L120
 2506 0054 00000000 		.word	.L131-.L120
 2507 0058 00000000 		.word	.L118-.L120
 2508 005c 00000000 		.word	.L118-.L120
 2509 0060 00000000 		.word	.L118-.L120
 2510 0064 00000000 		.word	.L118-.L120
 2511 0068 00000000 		.word	.L118-.L120
 2512 006c 00000000 		.word	.L118-.L120
 2513 0070 00000000 		.word	.L118-.L120
 2514 0074 00000000 		.word	.L118-.L120
 2515 0078 00000000 		.word	.L118-.L120
 2516 007c 00000000 		.word	.L118-.L120
 2517 0080 00000000 		.word	.L118-.L120
 2518 0084 00000000 		.word	.L130-.L120
 2519 0088 00000000 		.word	.L129-.L120
 2520 008c 00000000 		.word	.L128-.L120
 2521 0090 00000000 		.word	.L127-.L120
 2522 0094 00000000 		.word	.L118-.L120
 2523 0098 00000000 		.word	.L118-.L120
 2524 009c 00000000 		.word	.L118-.L120
 2525 00a0 00000000 		.word	.L118-.L120
 2526 00a4 00000000 		.word	.L118-.L120
 2527 00a8 00000000 		.word	.L118-.L120
 2528 00ac 00000000 		.word	.L118-.L120
 2529 00b0 00000000 		.word	.L118-.L120
 2530 00b4 00000000 		.word	.L118-.L120
 2531 00b8 00000000 		.word	.L118-.L120
 2532 00bc 00000000 		.word	.L118-.L120
 2533 00c0 00000000 		.word	.L118-.L120
 2534 00c4 00000000 		.word	.L126-.L120
 2535 00c8 00000000 		.word	.L118-.L120
 2536 00cc 00000000 		.word	.L118-.L120
 2537 00d0 00000000 		.word	.L118-.L120
 2538 00d4 00000000 		.word	.L118-.L120
 2539 00d8 00000000 		.word	.L118-.L120
 2540 00dc 00000000 		.word	.L118-.L120
 2541 00e0 00000000 		.word	.L118-.L120
 2542 00e4 00000000 		.word	.L118-.L120
 2543 00e8 00000000 		.word	.L118-.L120
 2544 00ec 00000000 		.word	.L118-.L120
 2545 00f0 00000000 		.word	.L118-.L120
 2546 00f4 00000000 		.word	.L118-.L120
 2547 00f8 00000000 		.word	.L118-.L120
 2548 00fc 00000000 		.word	.L118-.L120
 2549 0100 00000000 		.word	.L118-.L120
 2550 0104 00000000 		.word	.L125-.L120
 2551 0108 00000000 		.word	.L124-.L120
 2552 010c 00000000 		.word	.L123-.L120
 2553 0110 00000000 		.word	.L118-.L120
 2554 0114 00000000 		.word	.L118-.L120
GAS LISTING /tmp/ccbuBniB.s 			page 70


 2555 0118 00000000 		.word	.L118-.L120
 2556 011c 00000000 		.word	.L118-.L120
 2557 0120 00000000 		.word	.L118-.L120
 2558 0124 00000000 		.word	.L118-.L120
 2559 0128 00000000 		.word	.L118-.L120
 2560 012c 00000000 		.word	.L118-.L120
 2561 0130 00000000 		.word	.L118-.L120
 2562 0134 00000000 		.word	.L118-.L120
 2563 0138 00000000 		.word	.L118-.L120
 2564 013c 00000000 		.word	.L118-.L120
 2565 0140 00000000 		.word	.L118-.L120
 2566 0144 00000000 		.word	.L122-.L120
 2567 0148 00000000 		.word	.L121-.L120
 2568 014c 00000000 		.word	.L118-.L120
 2569 0150 00000000 		.word	.L118-.L120
 2570 0154 00000000 		.word	.L118-.L120
 2571 0158 00000000 		.word	.L118-.L120
 2572 015c 00000000 		.word	.L118-.L120
 2573 0160 00000000 		.word	.L118-.L120
 2574 0164 00000000 		.word	.L118-.L120
 2575 0168 00000000 		.word	.L118-.L120
 2576 016c 00000000 		.word	.L118-.L120
 2577 0170 00000000 		.word	.L118-.L120
 2578 0174 00000000 		.word	.L118-.L120
 2579 0178 00000000 		.word	.L118-.L120
 2580 017c 00000000 		.word	.L118-.L120
 2581 0180 00000000 		.word	.L118-.L120
 2582 0184 00000000 		.word	.L119-.L120
 2583              		.text
 2584              	.L137:
  57:src/riscv.cpp ****             case 0x02 : executeMemFreeSyscall();break;
 2585              		.loc 1 57 13
  57:src/riscv.cpp ****             case 0x02 : executeMemFreeSyscall();break;
 2586              		.loc 1 57 25
  57:src/riscv.cpp ****             case 0x02 : executeMemFreeSyscall();break;
 2587              		.loc 1 57 47 is_stmt 0
 2588 0c70 97000000 		call	_ZN5RiscV22executeMemAllocSyscallEv
 2588      E7800000 
 2589              	.LVL186:
  57:src/riscv.cpp ****             case 0x02 : executeMemFreeSyscall();break;
 2590              		.loc 1 57 50 is_stmt 1
 2591              	.L118:
  84:src/riscv.cpp ****         RiscV::w_sepc(TCB::running->sepc);
 2592              		.loc 1 84 9
  84:src/riscv.cpp ****         RiscV::w_sepc(TCB::running->sepc);
 2593              		.loc 1 84 25 is_stmt 0
 2594 0c78 97070000 		la	a5,_ZN3TCB7runningE
 2594      83B70700 
 2595 0c80 83B70700 		ld	a5,0(a5)
 2596 0c84 03B70704 		ld	a4,64(a5)
 2597              	.LVL187:
 2598              	.LBB178:
 2599              	.LBB179:
 158:src/../h/riscv.hpp **** }
 2600              		.loc 2 158 5 is_stmt 1
 158:src/../h/riscv.hpp **** }
 2601              		.loc 2 158 64 is_stmt 0
GAS LISTING /tmp/ccbuBniB.s 			page 71


 2602              	#APP
 2603              	# 158 "src/../h/riscv.hpp" 1
 2604              		csrw sstatus, a4
 2605              	# 0 "" 2
 2606              	.LVL188:
 2607              	#NO_APP
 2608              	.LBE179:
 2609              	.LBE178:
  85:src/riscv.cpp ****     }
 2610              		.loc 1 85 9 is_stmt 1
  85:src/riscv.cpp ****     }
 2611              		.loc 1 85 22 is_stmt 0
 2612 0c8c 83B78703 		ld	a5,56(a5)
 2613              	.LVL189:
 2614              	.LBB180:
 2615              	.LBB181:
 148:src/../h/riscv.hpp **** }
 2616              		.loc 2 148 5 is_stmt 1
 148:src/../h/riscv.hpp **** }
 2617              		.loc 2 148 52 is_stmt 0
 2618              	#APP
 2619              	# 148 "src/../h/riscv.hpp" 1
 2620              		csrw sepc, a5
 2621              	# 0 "" 2
 2622              	.LVL190:
 2623              	#NO_APP
 2624              	.L138:
 2625              	.LBE181:
 2626              	.LBE180:
 2627              	.LBE173:
 2628              	.LBE186:
 187:src/riscv.cpp **** }
 2629              		.loc 1 187 5 is_stmt 1
 187:src/riscv.cpp **** }
 2630              		.loc 1 187 41 is_stmt 0
 2631 0c94 97000000 		call	_ZN5RiscV29jumpToDesignatedPrivilegeModeEv
 2631      E7800000 
 2632              	.LVL191:
 188:src/riscv.cpp **** 
 2633              		.loc 1 188 1
 2634 0c9c 83308105 		ld	ra,88(sp)
 2635              		.cfi_remember_state
 2636              		.cfi_restore 1
 2637 0ca0 03340105 		ld	s0,80(sp)
 2638              		.cfi_restore 8
 2639              		.cfi_def_cfa 2, 96
 2640 0ca4 13010106 		addi	sp,sp,96
 2641              		.cfi_def_cfa_offset 0
 2642 0ca8 67800000 		jr	ra
 2643              	.L136:
 2644              		.cfi_restore_state
 2645              	.LBB187:
 2646              	.LBB182:
  58:src/riscv.cpp ****             case 0x11 : executeThreadCreateSyscall();break;
 2647              		.loc 1 58 13 is_stmt 1
  58:src/riscv.cpp ****             case 0x11 : executeThreadCreateSyscall();break;
 2648              		.loc 1 58 25
GAS LISTING /tmp/ccbuBniB.s 			page 72


  58:src/riscv.cpp ****             case 0x11 : executeThreadCreateSyscall();break;
 2649              		.loc 1 58 46 is_stmt 0
 2650 0cac 97000000 		call	_ZN5RiscV21executeMemFreeSyscallEv
 2650      E7800000 
 2651              	.LVL192:
  58:src/riscv.cpp ****             case 0x11 : executeThreadCreateSyscall();break;
 2652              		.loc 1 58 49 is_stmt 1
 2653 0cb4 6FF05FFC 		j	.L118
 2654              	.L135:
  59:src/riscv.cpp ****             case 0x12 : executeThreadExitSyscall();break;
 2655              		.loc 1 59 13
  59:src/riscv.cpp ****             case 0x12 : executeThreadExitSyscall();break;
 2656              		.loc 1 59 25
  59:src/riscv.cpp ****             case 0x12 : executeThreadExitSyscall();break;
 2657              		.loc 1 59 51 is_stmt 0
 2658 0cb8 97000000 		call	_ZN5RiscV26executeThreadCreateSyscallEv
 2658      E7800000 
 2659              	.LVL193:
  59:src/riscv.cpp ****             case 0x12 : executeThreadExitSyscall();break;
 2660              		.loc 1 59 54 is_stmt 1
 2661 0cc0 6FF09FFB 		j	.L118
 2662              	.L134:
  60:src/riscv.cpp ****             case 0x13 : executeThreadDispatchSyscall();break;
 2663              		.loc 1 60 13
  60:src/riscv.cpp ****             case 0x13 : executeThreadDispatchSyscall();break;
 2664              		.loc 1 60 25
  60:src/riscv.cpp ****             case 0x13 : executeThreadDispatchSyscall();break;
 2665              		.loc 1 60 49 is_stmt 0
 2666 0cc4 97000000 		call	_ZN5RiscV24executeThreadExitSyscallEv
 2666      E7800000 
 2667              	.LVL194:
  60:src/riscv.cpp ****             case 0x13 : executeThreadDispatchSyscall();break;
 2668              		.loc 1 60 52 is_stmt 1
 2669 0ccc 6FF0DFFA 		j	.L118
 2670              	.L133:
  61:src/riscv.cpp ****             case 0x14 : executeThreadAttachBodySyscall();break;
 2671              		.loc 1 61 13
  61:src/riscv.cpp ****             case 0x14 : executeThreadAttachBodySyscall();break;
 2672              		.loc 1 61 25
  61:src/riscv.cpp ****             case 0x14 : executeThreadAttachBodySyscall();break;
 2673              		.loc 1 61 53 is_stmt 0
 2674 0cd0 97000000 		call	_ZN5RiscV28executeThreadDispatchSyscallEv
 2674      E7800000 
 2675              	.LVL195:
  61:src/riscv.cpp ****             case 0x14 : executeThreadAttachBodySyscall();break;
 2676              		.loc 1 61 56 is_stmt 1
 2677 0cd8 6FF01FFA 		j	.L118
 2678              	.L132:
  62:src/riscv.cpp ****             case 0x15 : executeThreadStartSyscall();break;
 2679              		.loc 1 62 13
  62:src/riscv.cpp ****             case 0x15 : executeThreadStartSyscall();break;
 2680              		.loc 1 62 25
  62:src/riscv.cpp ****             case 0x15 : executeThreadStartSyscall();break;
 2681              		.loc 1 62 55 is_stmt 0
 2682 0cdc 97000000 		call	_ZN5RiscV30executeThreadAttachBodySyscallEv
 2682      E7800000 
 2683              	.LVL196:
GAS LISTING /tmp/ccbuBniB.s 			page 73


  62:src/riscv.cpp ****             case 0x15 : executeThreadStartSyscall();break;
 2684              		.loc 1 62 58 is_stmt 1
 2685 0ce4 6FF05FF9 		j	.L118
 2686              	.L131:
  63:src/riscv.cpp ****             case 0x21 : executeSemOpenSyscall();break;
 2687              		.loc 1 63 13
  63:src/riscv.cpp ****             case 0x21 : executeSemOpenSyscall();break;
 2688              		.loc 1 63 25
  63:src/riscv.cpp ****             case 0x21 : executeSemOpenSyscall();break;
 2689              		.loc 1 63 50 is_stmt 0
 2690 0ce8 97000000 		call	_ZN5RiscV25executeThreadStartSyscallEv
 2690      E7800000 
 2691              	.LVL197:
  63:src/riscv.cpp ****             case 0x21 : executeSemOpenSyscall();break;
 2692              		.loc 1 63 53 is_stmt 1
 2693 0cf0 6FF09FF8 		j	.L118
 2694              	.L130:
  64:src/riscv.cpp ****             case 0x22 : executeSemCloseSyscall();break;
 2695              		.loc 1 64 13
  64:src/riscv.cpp ****             case 0x22 : executeSemCloseSyscall();break;
 2696              		.loc 1 64 25
  64:src/riscv.cpp ****             case 0x22 : executeSemCloseSyscall();break;
 2697              		.loc 1 64 46 is_stmt 0
 2698 0cf4 97000000 		call	_ZN5RiscV21executeSemOpenSyscallEv
 2698      E7800000 
 2699              	.LVL198:
  64:src/riscv.cpp ****             case 0x22 : executeSemCloseSyscall();break;
 2700              		.loc 1 64 49 is_stmt 1
 2701 0cfc 6FF0DFF7 		j	.L118
 2702              	.L129:
  65:src/riscv.cpp ****             case 0x23 : executeSemWaitSyscall();break;
 2703              		.loc 1 65 13
  65:src/riscv.cpp ****             case 0x23 : executeSemWaitSyscall();break;
 2704              		.loc 1 65 25
  65:src/riscv.cpp ****             case 0x23 : executeSemWaitSyscall();break;
 2705              		.loc 1 65 47 is_stmt 0
 2706 0d00 97000000 		call	_ZN5RiscV22executeSemCloseSyscallEv
 2706      E7800000 
 2707              	.LVL199:
  65:src/riscv.cpp ****             case 0x23 : executeSemWaitSyscall();break;
 2708              		.loc 1 65 50 is_stmt 1
 2709 0d08 6FF01FF7 		j	.L118
 2710              	.L128:
  66:src/riscv.cpp ****             case 0x24 : executeSemSignalSyscall();break;
 2711              		.loc 1 66 13
  66:src/riscv.cpp ****             case 0x24 : executeSemSignalSyscall();break;
 2712              		.loc 1 66 25
  66:src/riscv.cpp ****             case 0x24 : executeSemSignalSyscall();break;
 2713              		.loc 1 66 46 is_stmt 0
 2714 0d0c 97000000 		call	_ZN5RiscV21executeSemWaitSyscallEv
 2714      E7800000 
 2715              	.LVL200:
  66:src/riscv.cpp ****             case 0x24 : executeSemSignalSyscall();break;
 2716              		.loc 1 66 49 is_stmt 1
 2717 0d14 6FF05FF6 		j	.L118
 2718              	.L127:
  67:src/riscv.cpp ****             case 0x31 : executeTimeSleepSyscall();break;
GAS LISTING /tmp/ccbuBniB.s 			page 74


 2719              		.loc 1 67 13
  67:src/riscv.cpp ****             case 0x31 : executeTimeSleepSyscall();break;
 2720              		.loc 1 67 25
  67:src/riscv.cpp ****             case 0x31 : executeTimeSleepSyscall();break;
 2721              		.loc 1 67 48 is_stmt 0
 2722 0d18 97000000 		call	_ZN5RiscV23executeSemSignalSyscallEv
 2722      E7800000 
 2723              	.LVL201:
  67:src/riscv.cpp ****             case 0x31 : executeTimeSleepSyscall();break;
 2724              		.loc 1 67 51 is_stmt 1
 2725 0d20 6FF09FF5 		j	.L118
 2726              	.L126:
  68:src/riscv.cpp ****             case 0x41 : executeGetcSyscall();break;
 2727              		.loc 1 68 13
  68:src/riscv.cpp ****             case 0x41 : executeGetcSyscall();break;
 2728              		.loc 1 68 25
  68:src/riscv.cpp ****             case 0x41 : executeGetcSyscall();break;
 2729              		.loc 1 68 48 is_stmt 0
 2730 0d24 97000000 		call	_ZN5RiscV23executeTimeSleepSyscallEv
 2730      E7800000 
 2731              	.LVL202:
  68:src/riscv.cpp ****             case 0x41 : executeGetcSyscall();break;
 2732              		.loc 1 68 51 is_stmt 1
 2733 0d2c 6FF0DFF4 		j	.L118
 2734              	.L125:
  69:src/riscv.cpp ****             case 0x42 : executePutcSyscall();break;
 2735              		.loc 1 69 13
  69:src/riscv.cpp ****             case 0x42 : executePutcSyscall();break;
 2736              		.loc 1 69 25
  69:src/riscv.cpp ****             case 0x42 : executePutcSyscall();break;
 2737              		.loc 1 69 43 is_stmt 0
 2738 0d30 97000000 		call	_ZN5RiscV18executeGetcSyscallEv
 2738      E7800000 
 2739              	.LVL203:
  69:src/riscv.cpp ****             case 0x42 : executePutcSyscall();break;
 2740              		.loc 1 69 46 is_stmt 1
 2741 0d38 6FF01FF4 		j	.L118
 2742              	.L124:
  70:src/riscv.cpp ****             case 0x43 : executePutcUtilSyscall();break;
 2743              		.loc 1 70 13
  70:src/riscv.cpp ****             case 0x43 : executePutcUtilSyscall();break;
 2744              		.loc 1 70 25
  70:src/riscv.cpp ****             case 0x43 : executePutcUtilSyscall();break;
 2745              		.loc 1 70 43 is_stmt 0
 2746 0d3c 97000000 		call	_ZN5RiscV18executePutcSyscallEv
 2746      E7800000 
 2747              	.LVL204:
  70:src/riscv.cpp ****             case 0x43 : executePutcUtilSyscall();break;
 2748              		.loc 1 70 46 is_stmt 1
 2749 0d44 6FF05FF3 		j	.L118
 2750              	.L123:
  71:src/riscv.cpp ****             case 0x51 : executeThreadFreeSyscall();break;
 2751              		.loc 1 71 13
  71:src/riscv.cpp ****             case 0x51 : executeThreadFreeSyscall();break;
 2752              		.loc 1 71 25
  71:src/riscv.cpp ****             case 0x51 : executeThreadFreeSyscall();break;
 2753              		.loc 1 71 47 is_stmt 0
GAS LISTING /tmp/ccbuBniB.s 			page 75


 2754 0d48 97000000 		call	_ZN5RiscV22executePutcUtilSyscallEv
 2754      E7800000 
 2755              	.LVL205:
  71:src/riscv.cpp ****             case 0x51 : executeThreadFreeSyscall();break;
 2756              		.loc 1 71 50 is_stmt 1
 2757 0d50 6FF09FF2 		j	.L118
 2758              	.L122:
  72:src/riscv.cpp ****             case 0x52 : executeSemaphoreFreeSyscall();break;
 2759              		.loc 1 72 13
  72:src/riscv.cpp ****             case 0x52 : executeSemaphoreFreeSyscall();break;
 2760              		.loc 1 72 25
  72:src/riscv.cpp ****             case 0x52 : executeSemaphoreFreeSyscall();break;
 2761              		.loc 1 72 49 is_stmt 0
 2762 0d54 97000000 		call	_ZN5RiscV24executeThreadFreeSyscallEv
 2762      E7800000 
 2763              	.LVL206:
  72:src/riscv.cpp ****             case 0x52 : executeSemaphoreFreeSyscall();break;
 2764              		.loc 1 72 52 is_stmt 1
 2765 0d5c 6FF0DFF1 		j	.L118
 2766              	.L121:
  73:src/riscv.cpp ****             //in this case we need to save SP and PC at this point so that newly created thread
 2767              		.loc 1 73 13
  73:src/riscv.cpp ****             //in this case we need to save SP and PC at this point so that newly created thread
 2768              		.loc 1 73 25
  73:src/riscv.cpp ****             //in this case we need to save SP and PC at this point so that newly created thread
 2769              		.loc 1 73 52 is_stmt 0
 2770 0d60 97000000 		call	_ZN5RiscV27executeSemaphoreFreeSyscallEv
 2770      E7800000 
 2771              	.LVL207:
  73:src/riscv.cpp ****             //in this case we need to save SP and PC at this point so that newly created thread
 2772              		.loc 1 73 55 is_stmt 1
 2773 0d68 6FF01FF1 		j	.L118
 2774              	.L119:
  77:src/riscv.cpp ****                         RiscV::getPC();
 2775              		.loc 1 77 13
  77:src/riscv.cpp ****                         RiscV::getPC();
 2776              		.loc 1 77 25
  77:src/riscv.cpp ****                         RiscV::getPC();
 2777              		.loc 1 77 72 is_stmt 0
 2778              	#APP
 2779              	# 77 "src/riscv.cpp" 1
 2780              		mv a5, sp
 2781              	# 0 "" 2
 2782              	#NO_APP
 2783 0d70 17070000 		la	a4,_ZN3TCB9currentSPE
 2783      03370700 
 2784 0d78 2330F700 		sd	a5,0(a4)
  78:src/riscv.cpp ****                         executeForkSyscall();
 2785              		.loc 1 78 25 is_stmt 1
  78:src/riscv.cpp ****                         executeForkSyscall();
 2786              		.loc 1 78 37 is_stmt 0
 2787 0d7c 97000000 		call	_ZN5RiscV5getPCEv
 2787      E7800000 
 2788              	.LVL208:
  79:src/riscv.cpp ****                         break;
 2789              		.loc 1 79 25 is_stmt 1
  79:src/riscv.cpp ****                         break;
GAS LISTING /tmp/ccbuBniB.s 			page 76


 2790              		.loc 1 79 43 is_stmt 0
 2791 0d84 97000000 		call	_ZN5RiscV18executeForkSyscallEv
 2791      E7800000 
 2792              	.LVL209:
  80:src/riscv.cpp ****         }
 2793              		.loc 1 80 25 is_stmt 1
 2794 0d8c 6FF0DFEE 		j	.L118
 2795              	.L145:
 2796              	.LBE182:
 2797              	.LBB183:
 2798              	.LBB156:
  93:src/riscv.cpp ****         uint64 volatile sepc = RiscV::r_sepc();
 2799              		.loc 1 93 9
 2800              	.LBB157:
 2801              	.LBB158:
 162:src/../h/riscv.hpp ****     asm("csrr %[sstatus], sstatus" : [sstatus] "=r" (sstatus));
 2802              		.loc 2 162 5
 163:src/../h/riscv.hpp ****     return sstatus;
 2803              		.loc 2 163 5
 163:src/../h/riscv.hpp ****     return sstatus;
 2804              		.loc 2 163 63 is_stmt 0
 2805              	#APP
 2806              	# 163 "src/../h/riscv.hpp" 1
 2807              		csrr a5, sstatus
 2808              	# 0 "" 2
 2809              	.LVL210:
 164:src/../h/riscv.hpp **** }
 2810              		.loc 2 164 5 is_stmt 1
 2811              	#NO_APP
 2812              	.LBE158:
 2813              	.LBE157:
  93:src/riscv.cpp ****         uint64 volatile sepc = RiscV::r_sepc();
 2814              		.loc 1 93 52 is_stmt 0
 2815 0d94 233CF4FA 		sd	a5,-72(s0)
  94:src/riscv.cpp **** 
 2816              		.loc 1 94 9 is_stmt 1
 2817              	.LBB159:
 2818              	.LBB160:
 142:src/../h/riscv.hpp ****     asm("csrr %[sepc], sepc" : [sepc] "=r" (sepc));
 2819              		.loc 2 142 5
 143:src/../h/riscv.hpp ****     return sepc;
 2820              		.loc 2 143 5
 143:src/../h/riscv.hpp ****     return sepc;
 2821              		.loc 2 143 51 is_stmt 0
 2822              	#APP
 2823              	# 143 "src/../h/riscv.hpp" 1
 2824              		csrr a5, sepc
 2825              	# 0 "" 2
 2826              	.LVL211:
 144:src/../h/riscv.hpp **** }
 2827              		.loc 2 144 5 is_stmt 1
 2828              	#NO_APP
 2829              	.LBE160:
 2830              	.LBE159:
  94:src/riscv.cpp **** 
 2831              		.loc 1 94 46 is_stmt 0
 2832 0d9c 2330F4FC 		sd	a5,-64(s0)
GAS LISTING /tmp/ccbuBniB.s 			page 77


  97:src/riscv.cpp **** 
 2833              		.loc 1 97 9 is_stmt 1
 2834              	.LVL212:
 2835              	.LBB161:
 2836              	.LBB162:
 184:src/../h/riscv.hpp **** }
 2837              		.loc 2 184 5
 184:src/../h/riscv.hpp **** }
 2838              		.loc 2 184 51 is_stmt 0
 2839 0da0 93072000 		li	a5,2
 2840              	#APP
 2841              	# 184 "src/../h/riscv.hpp" 1
 2842              		csrc sip, a5
 2843              	# 0 "" 2
 2844              	.LVL213:
 2845              	#NO_APP
 2846              	.LBE162:
 2847              	.LBE161:
 101:src/riscv.cpp ****         Scheduler::awake();
 2848              		.loc 1 101 9 is_stmt 1
 101:src/riscv.cpp ****         Scheduler::awake();
 2849              		.loc 1 101 20 is_stmt 0
 2850 0da8 17070000 		lla	a4,.LANCHOR0
 2850      13070700 
 2851 0db0 83378700 		ld	a5,8(a4)
 2852 0db4 93871700 		addi	a5,a5,1
 2853 0db8 2334F700 		sd	a5,8(a4)
 102:src/riscv.cpp **** 
 2854              		.loc 1 102 9 is_stmt 1
 102:src/riscv.cpp **** 
 2855              		.loc 1 102 25 is_stmt 0
 2856 0dbc 97000000 		call	_ZN9Scheduler5awakeEv@plt
 2856      E7800000 
 2857              	.LVL214:
 106:src/riscv.cpp ****         if(TCB::timeSliceCounter >= TCB::running->timeSlice) {
 2858              		.loc 1 106 9 is_stmt 1
 106:src/riscv.cpp ****         if(TCB::timeSliceCounter >= TCB::running->timeSlice) {
 2859              		.loc 1 106 30 is_stmt 0
 2860 0dc4 17070000 		la	a4,_ZN3TCB16timeSliceCounterE
 2860      03370700 
 2861 0dcc 83370700 		ld	a5,0(a4)
 2862 0dd0 93871700 		addi	a5,a5,1
 2863 0dd4 2330F700 		sd	a5,0(a4)
 107:src/riscv.cpp **** 
 2864              		.loc 1 107 9 is_stmt 1
 2865              	.LBB163:
 107:src/riscv.cpp **** 
 2866              		.loc 1 107 51 is_stmt 0
 2867 0dd8 17070000 		la	a4,_ZN3TCB7runningE
 2867      03370700 
 2868 0de0 03370700 		ld	a4,0(a4)
 2869 0de4 83360703 		ld	a3,48(a4)
 107:src/riscv.cpp **** 
 2870              		.loc 1 107 9
 2871 0de8 63FCD700 		bgeu	a5,a3,.L148
 2872              	.L139:
 2873              	.LBE163:
GAS LISTING /tmp/ccbuBniB.s 			page 78


 119:src/riscv.cpp ****         RiscV::w_sepc(sepc);
 2874              		.loc 1 119 9 is_stmt 1
 119:src/riscv.cpp ****         RiscV::w_sepc(sepc);
 2875              		.loc 1 119 25 is_stmt 0
 2876 0dec 833784FB 		ld	a5,-72(s0)
 2877              	.LVL215:
 2878              	.LBB165:
 2879              	.LBB166:
 158:src/../h/riscv.hpp **** }
 2880              		.loc 2 158 5 is_stmt 1
 158:src/../h/riscv.hpp **** }
 2881              		.loc 2 158 64 is_stmt 0
 2882              	#APP
 2883              	# 158 "src/../h/riscv.hpp" 1
 2884              		csrw sstatus, a5
 2885              	# 0 "" 2
 2886              	.LVL216:
 2887              	#NO_APP
 2888              	.LBE166:
 2889              	.LBE165:
 120:src/riscv.cpp ****     }
 2890              		.loc 1 120 9 is_stmt 1
 120:src/riscv.cpp ****     }
 2891              		.loc 1 120 22 is_stmt 0
 2892 0df4 833704FC 		ld	a5,-64(s0)
 2893              	.LVL217:
 2894              	.LBB167:
 2895              	.LBB168:
 148:src/../h/riscv.hpp **** }
 2896              		.loc 2 148 5 is_stmt 1
 148:src/../h/riscv.hpp **** }
 2897              		.loc 2 148 52 is_stmt 0
 2898              	#APP
 2899              	# 148 "src/../h/riscv.hpp" 1
 149:src/../h/riscv.hpp **** 
 2900              		csrw sepc, a5
 2901              	# 0 "" 2
 2902              		.loc 2 149 1
 2903              	#NO_APP
 2904 0dfc 6FF09FE9 		j	.L138
 2905              	.LVL218:
 2906              	.L148:
 2907              	.LBE168:
 2908              	.LBE167:
 2909              	.LBB169:
 2910              	.LBB164:
 109:src/riscv.cpp **** 
 2911              		.loc 1 109 13 is_stmt 1
 109:src/riscv.cpp **** 
 2912              		.loc 1 109 35 is_stmt 0
 2913 0e00 97070000 		la	a5,_ZN3TCB16timeSliceCounterE
 2913      83B70700 
 2914 0e08 23B00700 		sd	zero,0(a5)
 111:src/riscv.cpp **** 
 2915              		.loc 1 111 13 is_stmt 1
 2916              	.LVL219:
 113:src/riscv.cpp **** 
GAS LISTING /tmp/ccbuBniB.s 			page 79


 2917              		.loc 1 113 13
 113:src/riscv.cpp **** 
 2918              		.loc 1 113 25 is_stmt 0
 2919 0e0c 93071000 		li	a5,1
 2920 0e10 2328F700 		sw	a5,16(a4)
 115:src/riscv.cpp ****         }
 2921              		.loc 1 115 13 is_stmt 1
 115:src/riscv.cpp ****         }
 2922              		.loc 1 115 26 is_stmt 0
 2923 0e14 97000000 		call	_ZN3TCB8dispatchEv@plt
 2923      E7800000 
 2924              	.LVL220:
 2925              	.LBE164:
 2926 0e1c 6FF01FFD 		j	.L139
 2927              	.L146:
 2928              	.LBE169:
 2929              	.LBE156:
 2930              	.LBB170:
 2931              	.LBB141:
 127:src/riscv.cpp ****         uint64 volatile sepc = RiscV::r_sepc();
 2932              		.loc 1 127 9 is_stmt 1
 2933              	.LBB142:
 2934              	.LBB143:
 162:src/../h/riscv.hpp ****     asm("csrr %[sstatus], sstatus" : [sstatus] "=r" (sstatus));
 2935              		.loc 2 162 5
 163:src/../h/riscv.hpp ****     return sstatus;
 2936              		.loc 2 163 5
 163:src/../h/riscv.hpp ****     return sstatus;
 2937              		.loc 2 163 63 is_stmt 0
 2938              	#APP
 2939              	# 163 "src/../h/riscv.hpp" 1
 2940              		csrr a5, sstatus
 2941              	# 0 "" 2
 2942              	.LVL221:
 164:src/../h/riscv.hpp **** }
 2943              		.loc 2 164 5 is_stmt 1
 2944              	#NO_APP
 2945              	.LBE143:
 2946              	.LBE142:
 127:src/riscv.cpp ****         uint64 volatile sepc = RiscV::r_sepc();
 2947              		.loc 1 127 52 is_stmt 0
 2948 0e24 2334F4FC 		sd	a5,-56(s0)
 128:src/riscv.cpp **** 
 2949              		.loc 1 128 9 is_stmt 1
 2950              	.LBB144:
 2951              	.LBB145:
 142:src/../h/riscv.hpp ****     asm("csrr %[sepc], sepc" : [sepc] "=r" (sepc));
 2952              		.loc 2 142 5
 143:src/../h/riscv.hpp ****     return sepc;
 2953              		.loc 2 143 5
 143:src/../h/riscv.hpp ****     return sepc;
 2954              		.loc 2 143 51 is_stmt 0
 2955              	#APP
 2956              	# 143 "src/../h/riscv.hpp" 1
 2957              		csrr a5, sepc
 2958              	# 0 "" 2
 2959              	.LVL222:
GAS LISTING /tmp/ccbuBniB.s 			page 80


 144:src/../h/riscv.hpp **** }
 2960              		.loc 2 144 5 is_stmt 1
 2961              	#NO_APP
 2962              	.LBE145:
 2963              	.LBE144:
 128:src/riscv.cpp **** 
 2964              		.loc 1 128 46 is_stmt 0
 2965 0e2c 2338F4FC 		sd	a5,-48(s0)
 131:src/riscv.cpp ****         asm("mv a0, %[status]" : : [status] "r" (status));
 2966              		.loc 1 131 9 is_stmt 1
 131:src/riscv.cpp ****         asm("mv a0, %[status]" : : [status] "r" (status));
 2967              		.loc 1 131 16 is_stmt 0
 2968 0e30 97070000 		la	a5,CONSOLE_STATUS
 2968      83B70700 
 2969 0e38 83B70700 		ld	a5,0(a5)
 2970              	.LVL223:
 132:src/riscv.cpp ****         asm("lb a1, 0(a0)");
 2971              		.loc 1 132 9 is_stmt 1
 132:src/riscv.cpp ****         asm("lb a1, 0(a0)");
 2972              		.loc 1 132 58 is_stmt 0
 2973              	#APP
 2974              	# 132 "src/riscv.cpp" 1
 133:src/riscv.cpp ****         asm("mv %[status], a1" : [status] "=r" (status));
 2975              		mv a0, a5
 2976              	# 0 "" 2
 2977              		.loc 1 133 9 is_stmt 1
 133:src/riscv.cpp ****         asm("mv %[status], a1" : [status] "=r" (status));
 2978              		.loc 1 133 28 is_stmt 0
 2979              	# 133 "src/riscv.cpp" 1
 134:src/riscv.cpp **** 
 2980              		lb a1, 0(a0)
 2981              	# 0 "" 2
 2982              		.loc 1 134 9 is_stmt 1
 134:src/riscv.cpp **** 
 2983              		.loc 1 134 57 is_stmt 0
 2984              	# 134 "src/riscv.cpp" 1
 2985              		mv a5, a1
 2986              	# 0 "" 2
 2987              	.LVL224:
 137:src/riscv.cpp ****         {
 2988              		.loc 1 137 9 is_stmt 1
 2989              	#NO_APP
 2990              	.LBB146:
 137:src/riscv.cpp ****         {
 2991              		.loc 1 137 19 is_stmt 0
 2992 0e48 93F71700 		andi	a5,a5,1
 2993              	.LVL225:
 137:src/riscv.cpp ****         {
 2994              		.loc 1 137 9
 2995 0e4c 63880702 		beqz	a5,.L141
 2996              	.LBB147:
 140:src/riscv.cpp ****             char c;
 2997              		.loc 1 140 13 is_stmt 1
 141:src/riscv.cpp ****             data = CONSOLE_TX_DATA;
 2998              		.loc 1 141 13
 142:src/riscv.cpp ****             asm("mv a0, %[data]" : : [data] "r" (data));
 2999              		.loc 1 142 13
GAS LISTING /tmp/ccbuBniB.s 			page 81


 142:src/riscv.cpp ****             asm("mv a0, %[data]" : : [data] "r" (data));
 3000              		.loc 1 142 18 is_stmt 0
 3001 0e50 97070000 		la	a5,CONSOLE_TX_DATA
 3001      83B70700 
 3002 0e58 83B70700 		ld	a5,0(a5)
 3003              	.LVL226:
 143:src/riscv.cpp ****             asm("lb a1, 0(a0)");
 3004              		.loc 1 143 13 is_stmt 1
 143:src/riscv.cpp ****             asm("lb a1, 0(a0)");
 3005              		.loc 1 143 56 is_stmt 0
 3006              	#APP
 3007              	# 143 "src/riscv.cpp" 1
 144:src/riscv.cpp ****             asm("mv %[c], a1" : [c] "=r" (c));
 3008              		mv a0, a5
 3009              	# 0 "" 2
 3010              		.loc 1 144 13 is_stmt 1
 144:src/riscv.cpp ****             asm("mv %[c], a1" : [c] "=r" (c));
 3011              		.loc 1 144 32 is_stmt 0
 3012              	# 144 "src/riscv.cpp" 1
 145:src/riscv.cpp **** 
 3013              		lb a1, 0(a0)
 3014              	# 0 "" 2
 3015              		.loc 1 145 13 is_stmt 1
 145:src/riscv.cpp **** 
 3016              		.loc 1 145 46 is_stmt 0
 3017              	# 145 "src/riscv.cpp" 1
 3018              		mv a0, a1
 3019              	# 0 "" 2
 3020              	#NO_APP
 3021 0e68 1375F50F 		andi	a0,a0,0xff
 3022              	.LVL227:
 148:src/riscv.cpp ****                 ConsoleUtil::pendingGetc--;
 3023              		.loc 1 148 13 is_stmt 1
 148:src/riscv.cpp ****                 ConsoleUtil::pendingGetc--;
 3024              		.loc 1 148 40 is_stmt 0
 3025 0e6c 97070000 		la	a5,_ZN11ConsoleUtil11pendingGetcE
 3025      83B70700 
 3026              	.LVL228:
 3027 0e74 83B70700 		ld	a5,0(a5)
 148:src/riscv.cpp ****                 ConsoleUtil::pendingGetc--;
 3028              		.loc 1 148 13
 3029 0e78 63940702 		bnez	a5,.L149
 3030              	.LVL229:
 3031              	.L141:
 3032              	.LBE147:
 3033              	.LBE146:
 153:src/riscv.cpp **** 
 3034              		.loc 1 153 9 is_stmt 1
 153:src/riscv.cpp **** 
 3035              		.loc 1 153 22 is_stmt 0
 3036 0e7c 97000000 		call	plic_claim@plt
 3036      E7800000 
 3037              	.LVL230:
 3038 0e84 97000000 		call	plic_complete@plt
 3038      E7800000 
 3039              	.LVL231:
 155:src/riscv.cpp ****         RiscV::w_sepc(sepc);
GAS LISTING /tmp/ccbuBniB.s 			page 82


 3040              		.loc 1 155 9 is_stmt 1
 155:src/riscv.cpp ****         RiscV::w_sepc(sepc);
 3041              		.loc 1 155 25 is_stmt 0
 3042 0e8c 833784FC 		ld	a5,-56(s0)
 3043              	.LVL232:
 3044              	.LBB149:
 3045              	.LBB150:
 158:src/../h/riscv.hpp **** }
 3046              		.loc 2 158 5 is_stmt 1
 158:src/../h/riscv.hpp **** }
 3047              		.loc 2 158 64 is_stmt 0
 3048              	#APP
 3049              	# 158 "src/../h/riscv.hpp" 1
 3050              		csrw sstatus, a5
 3051              	# 0 "" 2
 3052              	.LVL233:
 3053              	#NO_APP
 3054              	.LBE150:
 3055              	.LBE149:
 156:src/riscv.cpp ****     }
 3056              		.loc 1 156 9 is_stmt 1
 156:src/riscv.cpp ****     }
 3057              		.loc 1 156 22 is_stmt 0
 3058 0e94 833704FD 		ld	a5,-48(s0)
 3059              	.LVL234:
 3060              	.LBB151:
 3061              	.LBB152:
 148:src/../h/riscv.hpp **** }
 3062              		.loc 2 148 5 is_stmt 1
 148:src/../h/riscv.hpp **** }
 3063              		.loc 2 148 52 is_stmt 0
 3064              	#APP
 3065              	# 148 "src/../h/riscv.hpp" 1
 149:src/../h/riscv.hpp **** 
 3066              		csrw sepc, a5
 3067              	# 0 "" 2
 3068              		.loc 2 149 1
 3069              	#NO_APP
 3070 0e9c 6FF09FDF 		j	.L138
 3071              	.LVL235:
 3072              	.L149:
 3073              	.LBE152:
 3074              	.LBE151:
 3075              	.LBB153:
 3076              	.LBB148:
 149:src/riscv.cpp ****                 ConsoleUtil::putInput(c);
 3077              		.loc 1 149 17 is_stmt 1
 149:src/riscv.cpp ****                 ConsoleUtil::putInput(c);
 3078              		.loc 1 149 41 is_stmt 0
 3079 0ea0 9387F7FF 		addi	a5,a5,-1
 3080 0ea4 17070000 		la	a4,_ZN11ConsoleUtil11pendingGetcE
 3080      03370700 
 3081 0eac 2330F700 		sd	a5,0(a4)
 150:src/riscv.cpp ****             }
 3082              		.loc 1 150 17 is_stmt 1
 150:src/riscv.cpp ****             }
 3083              		.loc 1 150 38 is_stmt 0
GAS LISTING /tmp/ccbuBniB.s 			page 83


 3084 0eb0 97000000 		call	_ZN11ConsoleUtil8putInputEc@plt
 3084      E7800000 
 3085              	.LVL236:
 3086 0eb8 6FF05FFC 		j	.L141
 3087              	.LVL237:
 3088              	.L147:
 3089              	.LBE148:
 3090              	.LBE153:
 3091              	.LBE141:
 3092              	.LBB154:
 3093              	.LBB138:
 161:src/riscv.cpp ****         old->status = TCB::Status::FINISHED;
 3094              		.loc 1 161 9 is_stmt 1
 161:src/riscv.cpp ****         old->status = TCB::Status::FINISHED;
 3095              		.loc 1 161 14 is_stmt 0
 3096 0ebc 97070000 		la	a5,_ZN3TCB7runningE
 3096      83B70700 
 3097 0ec4 83B70700 		ld	a5,0(a5)
 3098              	.LVL238:
 162:src/riscv.cpp ****         ConsoleUtil::printString("sepc: ");
 3099              		.loc 1 162 9 is_stmt 1
 162:src/riscv.cpp ****         ConsoleUtil::printString("sepc: ");
 3100              		.loc 1 162 21 is_stmt 0
 3101 0ec8 13072000 		li	a4,2
 3102 0ecc 23A8E700 		sw	a4,16(a5)
 163:src/riscv.cpp ****         uint64 sepc = RiscV::r_sepc();
 3103              		.loc 1 163 9 is_stmt 1
 163:src/riscv.cpp ****         uint64 sepc = RiscV::r_sepc();
 3104              		.loc 1 163 33 is_stmt 0
 3105 0ed0 17050000 		lla	a0,.LC0
 3105      13050500 
 3106 0ed8 97000000 		call	_ZN11ConsoleUtil11printStringEPKc@plt
 3106      E7800000 
 3107              	.LVL239:
 164:src/riscv.cpp ****         ConsoleUtil::printInt(sepc,16);
 3108              		.loc 1 164 9 is_stmt 1
 3109              	.LBB139:
 3110              	.LBB140:
 142:src/../h/riscv.hpp ****     asm("csrr %[sepc], sepc" : [sepc] "=r" (sepc));
 3111              		.loc 2 142 5
 143:src/../h/riscv.hpp ****     return sepc;
 3112              		.loc 2 143 5
 143:src/../h/riscv.hpp ****     return sepc;
 3113              		.loc 2 143 51 is_stmt 0
 3114              	#APP
 3115              	# 143 "src/../h/riscv.hpp" 1
 144:src/../h/riscv.hpp **** }
 3116              		csrr a0, sepc
 3117              	# 0 "" 2
 3118              		.loc 2 144 5 is_stmt 1
 3119              	#NO_APP
 3120              	.LBE140:
 3121              	.LBE139:
 165:src/riscv.cpp ****         ConsoleUtil::printString("\n");
 3122              		.loc 1 165 9
 165:src/riscv.cpp ****         ConsoleUtil::printString("\n");
 3123              		.loc 1 165 30 is_stmt 0
GAS LISTING /tmp/ccbuBniB.s 			page 84


 3124 0ee4 13060000 		li	a2,0
 3125 0ee8 93050001 		li	a1,16
 3126 0eec 1B050500 		sext.w	a0,a0
 3127 0ef0 97000000 		call	_ZN11ConsoleUtil8printIntEiii@plt
 3127      E7800000 
 3128              	.LVL240:
 166:src/riscv.cpp ****         ConsoleUtil::printString("Illegal instruction\nExiting thread...\n");
 3129              		.loc 1 166 9 is_stmt 1
 166:src/riscv.cpp ****         ConsoleUtil::printString("Illegal instruction\nExiting thread...\n");
 3130              		.loc 1 166 33 is_stmt 0
 3131 0ef8 17050000 		lla	a0,.LC1
 3131      13050500 
 3132 0f00 97000000 		call	_ZN11ConsoleUtil11printStringEPKc@plt
 3132      E7800000 
 3133              	.LVL241:
 167:src/riscv.cpp ****         TCB::dispatch();
 3134              		.loc 1 167 9 is_stmt 1
 167:src/riscv.cpp ****         TCB::dispatch();
 3135              		.loc 1 167 33 is_stmt 0
 3136 0f08 17050000 		lla	a0,.LC2
 3136      13050500 
 3137 0f10 97000000 		call	_ZN11ConsoleUtil11printStringEPKc@plt
 3137      E7800000 
 3138              	.LVL242:
 168:src/riscv.cpp ****     }
 3139              		.loc 1 168 9 is_stmt 1
 168:src/riscv.cpp ****     }
 3140              		.loc 1 168 22 is_stmt 0
 3141 0f18 97000000 		call	_ZN3TCB8dispatchEv@plt
 3141      E7800000 
 3142              	.LVL243:
 3143              	.LBE138:
 3144 0f20 6FF05FD7 		j	.L138
 3145              	.LBE154:
 3146              	.LBE170:
 3147              	.LBE183:
 3148              	.LBE187:
 3149              		.cfi_endproc
 3150              	.LFE44:
 3152              		.globl	_ZN5RiscV16userMainFinishedE
 3153              		.globl	_ZN5RiscV10globalTimeE
 3154              		.bss
 3155              		.align	3
 3156              		.set	.LANCHOR0,. + 0
 3159              	_ZN5RiscV16userMainFinishedE:
 3160 0000 00       		.zero	1
 3161 0001 00000000 		.zero	7
 3161      000000
 3164              	_ZN5RiscV10globalTimeE:
 3165 0008 00000000 		.zero	8
 3165      00000000 
 3166              		.text
 3167              	.Letext0:
 3168              		.file 3 "src/../h/../lib/hw.h"
 3169              		.file 4 "src/../h/../h/utility.hpp"
 3170              		.file 5 "src/../h/memoryAllocator.hpp"
 3171              		.file 6 "src/../h/../h/../h/../h/consoleUtil.hpp"
GAS LISTING /tmp/ccbuBniB.s 			page 85


 3172              		.file 7 "src/../h/scb.hpp"
 3173              		.file 8 "src/../h/../h/../h/../h/../h/slab_t.hpp"
 3174              		.file 9 "src/../h/../h/../h/../h/cache_t.hpp"
 3175              		.file 10 "src/../h/tcb.hpp"
 3176              		.file 11 "src/../h/scheduler.hpp"
 3177              		.file 12 "src/../h/../h/slab.hpp"
 3178              		.file 13 "src/../h/syscall_c.h"
 9581              		.align	3
 9584              	DW.ref.__gxx_personality_v0:
 9585 0000 00000000 		.dword	__gxx_personality_v0
 9585      00000000 
 9586              		.ident	"GCC: (Ubuntu 9.4.0-1ubuntu1~20.04) 9.4.0"
 9587              		.section	.note.GNU-stack,"",@progbits
GAS LISTING /tmp/ccbuBniB.s 			page 86

