GAS LISTING /tmp/ccZSci1i.s 			page 1


   1              		.file	"riscv.cpp"
   2              		.option pic
   3              		.option norelax
   4              		.text
   5              	.Ltext0:
   6              		.align	2
   7              		.globl	_ZN5RiscV6getPMTEv
   9              	_ZN5RiscV6getPMTEv:
  10              	.LFB42:
  11              		.file 1 "src/riscv.cpp"
   1:src/riscv.cpp **** //
   2:src/riscv.cpp **** // Created by os on 4/28/22.
   3:src/riscv.cpp **** //
   4:src/riscv.cpp **** 
   5:src/riscv.cpp **** #include "../h/riscv.hpp"
   6:src/riscv.cpp **** #include "../h/memoryAllocator.hpp"
   7:src/riscv.cpp **** #include "../h/tcb.hpp"
   8:src/riscv.cpp **** #include "../h/scheduler.hpp"
   9:src/riscv.cpp **** #include "../h/printing.hpp"
  10:src/riscv.cpp **** #include "../h/scb.hpp"
  11:src/riscv.cpp **** 
  12:src/riscv.cpp **** uint64 RiscV::globalTime = 0;
  13:src/riscv.cpp **** bool RiscV::userMainFinished = false;
  14:src/riscv.cpp **** void* RiscV::PMT = nullptr;
  15:src/riscv.cpp **** 
  16:src/riscv.cpp **** void* RiscV::getPMT(){
  12              		.loc 1 16 22
  13              		.cfi_startproc
  14 0000 130101FF 		addi	sp,sp,-16
  15              		.cfi_def_cfa_offset 16
  16 0004 23341100 		sd	ra,8(sp)
  17 0008 23308100 		sd	s0,0(sp)
  18              		.cfi_offset 1, -8
  19              		.cfi_offset 8, -16
  20 000c 13040101 		addi	s0,sp,16
  21              		.cfi_def_cfa 8, 0
  17:src/riscv.cpp ****     void* ret = Buddy::alloc(1);
  22              		.loc 1 17 5
  23              		.loc 1 17 29 is_stmt 0
  24 0010 13051000 		li	a0,1
  25 0014 97000000 		call	_ZN5Buddy5allocEm@plt
  25      E7800000 
  26              	.LVL0:
  18:src/riscv.cpp ****     uint64* arr = (uint64*)ret;
  27              		.loc 1 18 5 is_stmt 1
  19:src/riscv.cpp ****     for(int i=0;i<512;i++)
  28              		.loc 1 19 5
  29              	.LBB90:
  30              		.loc 1 19 13 is_stmt 0
  31 001c 93070000 		li	a5,0
  32              	.LVL1:
  33              	.L3:
  34              		.loc 1 19 18 is_stmt 1 discriminator 3
  35 0020 1307F01F 		li	a4,511
  36 0024 634CF700 		bgt	a5,a4,.L1
  20:src/riscv.cpp ****         arr[i] = 0;
  37              		.loc 1 20 9 discriminator 2
GAS LISTING /tmp/ccZSci1i.s 			page 2


  38              		.loc 1 20 14 is_stmt 0 discriminator 2
  39 0028 13973700 		slli	a4,a5,3
  40 002c 3307E500 		add	a4,a0,a4
  41              		.loc 1 20 16 discriminator 2
  42 0030 23300700 		sd	zero,0(a4)
  19:src/riscv.cpp ****     for(int i=0;i<512;i++)
  43              		.loc 1 19 5 is_stmt 1 discriminator 2
  44 0034 9B871700 		addiw	a5,a5,1
  45              	.LVL2:
  46 0038 6FF09FFE 		j	.L3
  47              	.LVL3:
  48              	.L1:
  49              	.LBE90:
  21:src/riscv.cpp ****     return ret;
  22:src/riscv.cpp **** }
  50              		.loc 1 22 1 is_stmt 0
  51 003c 83308100 		ld	ra,8(sp)
  52              		.cfi_restore 1
  53 0040 03340100 		ld	s0,0(sp)
  54              		.cfi_restore 8
  55              		.cfi_def_cfa 2, 16
  56 0044 13010101 		addi	sp,sp,16
  57              		.cfi_def_cfa_offset 0
  58 0048 67800000 		jr	ra
  59              		.cfi_endproc
  60              	.LFE42:
  62              		.align	2
  63              		.globl	_ZN5RiscV15handlePageFaultEmm
  65              	_ZN5RiscV15handlePageFaultEmm:
  66              	.LFB43:
  23:src/riscv.cpp **** 
  24:src/riscv.cpp **** void RiscV::handlePageFault(uint64 addr, uint64 mask){
  67              		.loc 1 24 54 is_stmt 1
  68              		.cfi_startproc
  69              	.LVL4:
  70 004c 130101FC 		addi	sp,sp,-64
  71              		.cfi_def_cfa_offset 64
  72 0050 233C1102 		sd	ra,56(sp)
  73 0054 23388102 		sd	s0,48(sp)
  74 0058 23349102 		sd	s1,40(sp)
  75 005c 23302103 		sd	s2,32(sp)
  76 0060 233C3101 		sd	s3,24(sp)
  77 0064 23384101 		sd	s4,16(sp)
  78 0068 23345101 		sd	s5,8(sp)
  79              		.cfi_offset 1, -8
  80              		.cfi_offset 8, -16
  81              		.cfi_offset 9, -24
  82              		.cfi_offset 18, -32
  83              		.cfi_offset 19, -40
  84              		.cfi_offset 20, -48
  85              		.cfi_offset 21, -56
  86 006c 13040104 		addi	s0,sp,64
  87              		.cfi_def_cfa 8, 0
  88 0070 93890500 		mv	s3,a1
  25:src/riscv.cpp ****     uint64 pmt2Entry = (addr >> 30) & (0x1ff);;
  89              		.loc 1 25 5
  90              		.loc 1 25 30 is_stmt 0
GAS LISTING /tmp/ccZSci1i.s 			page 3


  91 0074 935AE501 		srli	s5,a0,30
  92              		.loc 1 25 12
  93 0078 93FAFA1F 		andi	s5,s5,511
  94              	.LVL5:
  95              		.loc 1 25 47 is_stmt 1
  26:src/riscv.cpp ****     uint64 pmt1Entry = (addr >> 21) & (0x1ff);
  96              		.loc 1 26 5
  97              		.loc 1 26 30 is_stmt 0
  98 007c 13595501 		srli	s2,a0,21
  99              		.loc 1 26 12
 100 0080 1379F91F 		andi	s2,s2,511
 101              	.LVL6:
  27:src/riscv.cpp ****     uint64 pmt0Entry = (addr >> 12) & (0x1ff);
 102              		.loc 1 27 5 is_stmt 1
 103              		.loc 1 27 30 is_stmt 0
 104 0084 9354C500 		srli	s1,a0,12
 105              		.loc 1 27 12
 106 0088 13FAF41F 		andi	s4,s1,511
 107              	.LVL7:
  28:src/riscv.cpp ****     uint64 pmt2Desc = ((uint64*)PMT)[pmt2Entry];
 108              		.loc 1 28 5 is_stmt 1
 109              		.loc 1 28 47 is_stmt 0
 110 008c 939A3A00 		slli	s5,s5,3
 111              	.LVL8:
 112 0090 97070000 		ld	a5,.LANCHOR0
 112      83B70700 
 113 0098 B3875701 		add	a5,a5,s5
 114              		.loc 1 28 12
 115 009c 03B50700 		ld	a0,0(a5)
 116              	.LVL9:
  29:src/riscv.cpp ****     void* pmt1 = nullptr;
 117              		.loc 1 29 5 is_stmt 1
  30:src/riscv.cpp ****     if(pmt2Desc == 0){
 118              		.loc 1 30 5
 119 00a0 63020506 		beqz	a0,.L12
  31:src/riscv.cpp ****         pmt1 = RiscV::getPMT();
  32:src/riscv.cpp ****         ((uint64*)PMT)[pmt2Entry] = (((uint64)pmt1 >> 12) << 10) | (uint64)1;
  33:src/riscv.cpp ****     }
  34:src/riscv.cpp ****     else
  35:src/riscv.cpp ****         pmt1 = (void*)((pmt2Desc >> 10) << 12);
 120              		.loc 1 35 9
 121              		.loc 1 35 34 is_stmt 0
 122 00a4 1355A500 		srli	a0,a0,10
 123              	.LVL10:
 124              		.loc 1 35 41
 125 00a8 1315C500 		slli	a0,a0,12
 126              	.LVL11:
 127              	.L7:
  36:src/riscv.cpp ****     uint64 pmt1Desc = ((uint64*)pmt1)[pmt1Entry];
 128              		.loc 1 36 5 is_stmt 1
 129              		.loc 1 36 48 is_stmt 0
 130 00ac 13193900 		slli	s2,s2,3
 131              	.LVL12:
 132 00b0 33092501 		add	s2,a0,s2
 133              		.loc 1 36 12
 134 00b4 03350900 		ld	a0,0(s2)
 135              	.LVL13:
GAS LISTING /tmp/ccZSci1i.s 			page 4


  37:src/riscv.cpp ****     void* pmt0 = nullptr;
 136              		.loc 1 37 5 is_stmt 1
  38:src/riscv.cpp ****     if(pmt1Desc == 0){
 137              		.loc 1 38 5
 138 00b8 630A0506 		beqz	a0,.L13
  39:src/riscv.cpp ****         pmt0 = RiscV::getPMT();
  40:src/riscv.cpp ****         ((uint64*)pmt1)[pmt1Entry] = (((uint64)pmt0 >> 12) << 10) | (uint64)1;
  41:src/riscv.cpp ****     }
  42:src/riscv.cpp ****     else
  43:src/riscv.cpp ****         pmt0 = (void*)((pmt1Desc >> 10) << 12);
 139              		.loc 1 43 9
 140              		.loc 1 43 34 is_stmt 0
 141 00bc 1355A500 		srli	a0,a0,10
 142              	.LVL14:
 143              		.loc 1 43 41
 144 00c0 1315C500 		slli	a0,a0,12
 145              	.LVL15:
 146              	.L9:
  44:src/riscv.cpp ****     uint64 pmt0Desc = ((uint64*)pmt0)[pmt0Entry];
 147              		.loc 1 44 5 is_stmt 1
 148              		.loc 1 44 48 is_stmt 0
 149 00c4 131A3A00 		slli	s4,s4,3
 150              	.LVL16:
 151 00c8 33054501 		add	a0,a0,s4
 152              	.LVL17:
 153              		.loc 1 44 12
 154 00cc 83370500 		ld	a5,0(a0)
 155              	.LVL18:
  45:src/riscv.cpp ****     if(pmt0Desc == 0)
 156              		.loc 1 45 5 is_stmt 1
 157 00d0 63980700 		bnez	a5,.L5
  46:src/riscv.cpp ****         ((uint64*)pmt0)[pmt0Entry] = ((addr >> 12) << 10) | mask;
 158              		.loc 1 46 9
 159              		.loc 1 46 52 is_stmt 0
 160 00d4 9394A400 		slli	s1,s1,10
 161              	.LVL19:
 162              		.loc 1 46 59
 163 00d8 B3E93401 		or	s3,s1,s3
 164              	.LVL20:
 165              		.loc 1 46 36
 166 00dc 23303501 		sd	s3,0(a0)
 167              	.L5:
  47:src/riscv.cpp **** }
 168              		.loc 1 47 1
 169 00e0 83308103 		ld	ra,56(sp)
 170              		.cfi_remember_state
 171              		.cfi_restore 1
 172 00e4 03340103 		ld	s0,48(sp)
 173              		.cfi_restore 8
 174              		.cfi_def_cfa 2, 64
 175 00e8 83348102 		ld	s1,40(sp)
 176              		.cfi_restore 9
 177 00ec 03390102 		ld	s2,32(sp)
 178              		.cfi_restore 18
 179 00f0 83398101 		ld	s3,24(sp)
 180              		.cfi_restore 19
 181 00f4 033A0101 		ld	s4,16(sp)
GAS LISTING /tmp/ccZSci1i.s 			page 5


 182              		.cfi_restore 20
 183 00f8 833A8100 		ld	s5,8(sp)
 184              		.cfi_restore 21
 185 00fc 13010104 		addi	sp,sp,64
 186              		.cfi_def_cfa_offset 0
 187 0100 67800000 		jr	ra
 188              	.LVL21:
 189              	.L12:
 190              		.cfi_restore_state
  31:src/riscv.cpp ****         ((uint64*)PMT)[pmt2Entry] = (((uint64)pmt1 >> 12) << 10) | (uint64)1;
 191              		.loc 1 31 9 is_stmt 1
  31:src/riscv.cpp ****         ((uint64*)PMT)[pmt2Entry] = (((uint64)pmt1 >> 12) << 10) | (uint64)1;
 192              		.loc 1 31 29 is_stmt 0
 193 0104 97000000 		call	_ZN5RiscV6getPMTEv
 193      E7800000 
 194              	.LVL22:
  32:src/riscv.cpp ****     }
 195              		.loc 1 32 9 is_stmt 1
  32:src/riscv.cpp ****     }
 196              		.loc 1 32 52 is_stmt 0
 197 010c 9357C500 		srli	a5,a0,12
  32:src/riscv.cpp ****     }
 198              		.loc 1 32 59
 199 0110 9397A700 		slli	a5,a5,10
  32:src/riscv.cpp ****     }
 200              		.loc 1 32 10
 201 0114 17070000 		ld	a4,.LANCHOR0
 201      03370700 
  32:src/riscv.cpp ****     }
 202              		.loc 1 32 33
 203 011c B30A5701 		add	s5,a4,s5
  32:src/riscv.cpp ****     }
 204              		.loc 1 32 66
 205 0120 93E71700 		ori	a5,a5,1
  32:src/riscv.cpp ****     }
 206              		.loc 1 32 35
 207 0124 23B0FA00 		sd	a5,0(s5)
 208 0128 6FF05FF8 		j	.L7
 209              	.LVL23:
 210              	.L13:
  39:src/riscv.cpp ****         ((uint64*)pmt1)[pmt1Entry] = (((uint64)pmt0 >> 12) << 10) | (uint64)1;
 211              		.loc 1 39 9 is_stmt 1
  39:src/riscv.cpp ****         ((uint64*)pmt1)[pmt1Entry] = (((uint64)pmt0 >> 12) << 10) | (uint64)1;
 212              		.loc 1 39 29 is_stmt 0
 213 012c 97000000 		call	_ZN5RiscV6getPMTEv
 213      E7800000 
 214              	.LVL24:
  40:src/riscv.cpp ****     }
 215              		.loc 1 40 9 is_stmt 1
  40:src/riscv.cpp ****     }
 216              		.loc 1 40 53 is_stmt 0
 217 0134 9357C500 		srli	a5,a0,12
  40:src/riscv.cpp ****     }
 218              		.loc 1 40 60
 219 0138 9397A700 		slli	a5,a5,10
  40:src/riscv.cpp ****     }
 220              		.loc 1 40 67
GAS LISTING /tmp/ccZSci1i.s 			page 6


 221 013c 93E71700 		ori	a5,a5,1
  40:src/riscv.cpp ****     }
 222              		.loc 1 40 36
 223 0140 2330F900 		sd	a5,0(s2)
 224 0144 6FF01FF8 		j	.L9
 225              		.cfi_endproc
 226              	.LFE43:
 228              		.align	2
 229              		.globl	_ZN5RiscV10initializeEv
 231              	_ZN5RiscV10initializeEv:
 232              	.LFB44:
  48:src/riscv.cpp **** //initailize each of the key components and switch to user mode for user code execution
  49:src/riscv.cpp **** void RiscV::initialize(){
 233              		.loc 1 49 25 is_stmt 1
 234              		.cfi_startproc
 235 0148 130101FE 		addi	sp,sp,-32
 236              		.cfi_def_cfa_offset 32
 237 014c 233C1100 		sd	ra,24(sp)
 238 0150 23388100 		sd	s0,16(sp)
 239 0154 23349100 		sd	s1,8(sp)
 240              		.cfi_offset 1, -8
 241              		.cfi_offset 8, -16
 242              		.cfi_offset 9, -24
 243 0158 13040102 		addi	s0,sp,32
 244              		.cfi_def_cfa 8, 0
  50:src/riscv.cpp ****     RiscV::w_stvec((uint64) &RiscV::supervisorTrap);
 245              		.loc 1 50 5
 246              		.loc 1 50 19 is_stmt 0
 247 015c 97070000 		la	a5,_ZN5RiscV14supervisorTrapEv
 247      83B70700 
 248              	.LVL25:
 249              	.LBB91:
 250              	.LBB92:
 251              		.file 2 "src/../h/riscv.hpp"
   1:src/../h/riscv.hpp **** //
   2:src/../h/riscv.hpp **** // Created by os on 4/28/22.
   3:src/../h/riscv.hpp **** //
   4:src/../h/riscv.hpp **** 
   5:src/../h/riscv.hpp **** #ifndef OS1_KERNEL_RISCV_HPP
   6:src/../h/riscv.hpp **** #define OS1_KERNEL_RISCV_HPP
   7:src/../h/riscv.hpp **** #include "../lib/hw.h"
   8:src/../h/riscv.hpp **** 
   9:src/../h/riscv.hpp **** 
  10:src/../h/riscv.hpp **** class RiscV{
  11:src/../h/riscv.hpp **** 
  12:src/../h/riscv.hpp ****     static uint64 globalTime;
  13:src/../h/riscv.hpp **** 
  14:src/../h/riscv.hpp ****     static void* PMT;
  15:src/../h/riscv.hpp **** 
  16:src/../h/riscv.hpp ****     static bool userMainFinished;
  17:src/../h/riscv.hpp **** 
  18:src/../h/riscv.hpp ****     enum BitMaskSstatus{
  19:src/../h/riscv.hpp ****         SSTATUS_SIE = (1<<1),
  20:src/../h/riscv.hpp ****         SSTATUS_SPIE = (1<<5),
  21:src/../h/riscv.hpp ****         SSTATUS_SPP = (1<<8),
  22:src/../h/riscv.hpp ****     };
  23:src/../h/riscv.hpp **** 
GAS LISTING /tmp/ccZSci1i.s 			page 7


  24:src/../h/riscv.hpp ****     enum BitMaskSip{
  25:src/../h/riscv.hpp ****         SIP_SSIE = (1<<1),
  26:src/../h/riscv.hpp ****         SIP_STIE = (1<<5),
  27:src/../h/riscv.hpp ****         SIP_SEIE = (1<<9),
  28:src/../h/riscv.hpp ****     };
  29:src/../h/riscv.hpp **** 
  30:src/../h/riscv.hpp ****     static void executeMemAllocSyscall();   //wrapper function for moving parameters and calling Me
  31:src/../h/riscv.hpp **** 
  32:src/../h/riscv.hpp ****     static void executeMemFreeSyscall();    //wrapper function for moving parameters and calling Me
  33:src/../h/riscv.hpp **** 
  34:src/../h/riscv.hpp ****     static void executeThreadCreateSyscall();
  35:src/../h/riscv.hpp **** 
  36:src/../h/riscv.hpp ****     static void executeThreadExitSyscall();
  37:src/../h/riscv.hpp **** 
  38:src/../h/riscv.hpp ****     static void executeThreadDispatchSyscall();
  39:src/../h/riscv.hpp **** 
  40:src/../h/riscv.hpp ****     static void executeThreadAttachBodySyscall();
  41:src/../h/riscv.hpp **** 
  42:src/../h/riscv.hpp ****     static void executeThreadStartSyscall();
  43:src/../h/riscv.hpp **** 
  44:src/../h/riscv.hpp ****     static void executeSemOpenSyscall();
  45:src/../h/riscv.hpp **** 
  46:src/../h/riscv.hpp ****     static void executeSemCloseSyscall();
  47:src/../h/riscv.hpp **** 
  48:src/../h/riscv.hpp ****     static void executeSemWaitSyscall();
  49:src/../h/riscv.hpp **** 
  50:src/../h/riscv.hpp ****     static void executeSemSignalSyscall();
  51:src/../h/riscv.hpp **** 
  52:src/../h/riscv.hpp ****     static void executeTimeSleepSyscall();
  53:src/../h/riscv.hpp **** 
  54:src/../h/riscv.hpp ****     static void executeGetcSyscall();
  55:src/../h/riscv.hpp **** 
  56:src/../h/riscv.hpp ****     static void executePutcSyscall();
  57:src/../h/riscv.hpp **** 
  58:src/../h/riscv.hpp ****     static void executePutcUtilSyscall();
  59:src/../h/riscv.hpp **** 
  60:src/../h/riscv.hpp ****     static void executeThreadFreeSyscall();
  61:src/../h/riscv.hpp **** 
  62:src/../h/riscv.hpp ****     static void executeSemaphoreFreeSyscall();
  63:src/../h/riscv.hpp **** 
  64:src/../h/riscv.hpp ****     static void executeForkSyscall();
  65:src/../h/riscv.hpp **** 
  66:src/../h/riscv.hpp ****     static void putcWrapper(void *arg);
  67:src/../h/riscv.hpp **** 
  68:src/../h/riscv.hpp ****     static uint64 r_scause();
  69:src/../h/riscv.hpp **** 
  70:src/../h/riscv.hpp ****     static void w_scause(uint64 scause);
  71:src/../h/riscv.hpp **** 
  72:src/../h/riscv.hpp ****     static uint64 r_sepc();
  73:src/../h/riscv.hpp **** 
  74:src/../h/riscv.hpp ****     static void w_sepc(uint64 sepc);
  75:src/../h/riscv.hpp **** 
  76:src/../h/riscv.hpp ****     static uint64 r_stvec();
  77:src/../h/riscv.hpp **** 
  78:src/../h/riscv.hpp ****     static void w_stvec(uint64 stvec);
  79:src/../h/riscv.hpp **** 
  80:src/../h/riscv.hpp ****     static uint64 r_sstatus();
GAS LISTING /tmp/ccZSci1i.s 			page 8


  81:src/../h/riscv.hpp **** 
  82:src/../h/riscv.hpp ****     static void w_sstatus(uint64 sstatus);
  83:src/../h/riscv.hpp **** 
  84:src/../h/riscv.hpp ****     static void ms_sstatus(uint64 mask);
  85:src/../h/riscv.hpp **** 
  86:src/../h/riscv.hpp ****     static void mc_sstatus(uint64 mask);
  87:src/../h/riscv.hpp **** 
  88:src/../h/riscv.hpp ****     static void ms_sip(uint64 mask);
  89:src/../h/riscv.hpp **** 
  90:src/../h/riscv.hpp ****     static void mc_sip(uint64 mask);
  91:src/../h/riscv.hpp **** 
  92:src/../h/riscv.hpp ****     static void ms_sie(uint64 mask);
  93:src/../h/riscv.hpp **** 
  94:src/../h/riscv.hpp ****     static void mc_sie(uint64 mask);
  95:src/../h/riscv.hpp **** 
  96:src/../h/riscv.hpp ****     static void saveA0toSscratch();
  97:src/../h/riscv.hpp **** 
  98:src/../h/riscv.hpp ****     static void jumpToDesignatedPrivilegeMode();
  99:src/../h/riscv.hpp **** 
 100:src/../h/riscv.hpp ****     static void popSppSpie();
 101:src/../h/riscv.hpp **** 
 102:src/../h/riscv.hpp ****     static void getPC();
 103:src/../h/riscv.hpp **** 
 104:src/../h/riscv.hpp ****     static void supervisorTrap();      //supervisorTrap defined in /src/supervisorTrap.S
 105:src/../h/riscv.hpp **** 
 106:src/../h/riscv.hpp ****     static void handleSupervisorTrap();
 107:src/../h/riscv.hpp **** 
 108:src/../h/riscv.hpp ****     static void enableInterrupts();
 109:src/../h/riscv.hpp **** 
 110:src/../h/riscv.hpp ****     static void disableInterrupts();
 111:src/../h/riscv.hpp **** 
 112:src/../h/riscv.hpp ****     static void enableHardwareInterrupts();
 113:src/../h/riscv.hpp **** 
 114:src/../h/riscv.hpp ****     static void disableHardwareInterrupts();
 115:src/../h/riscv.hpp **** 
 116:src/../h/riscv.hpp ****     static void enableTimerInterrupts();
 117:src/../h/riscv.hpp **** 
 118:src/../h/riscv.hpp ****     static void disableTimerInterrupts();
 119:src/../h/riscv.hpp **** 
 120:src/../h/riscv.hpp ****     static void handlePageFault(uint64 addr, uint64 mask);
 121:src/../h/riscv.hpp **** 
 122:src/../h/riscv.hpp ****     static void initialize();
 123:src/../h/riscv.hpp **** 
 124:src/../h/riscv.hpp ****     static void finalize();
 125:src/../h/riscv.hpp **** 
 126:src/../h/riscv.hpp ****     static void* getPMT();
 127:src/../h/riscv.hpp **** 
 128:src/../h/riscv.hpp ****     friend class TCB;
 129:src/../h/riscv.hpp **** 
 130:src/../h/riscv.hpp ****     friend class System;
 131:src/../h/riscv.hpp **** 
 132:src/../h/riscv.hpp ****     friend class Scheduler;
 133:src/../h/riscv.hpp **** 
 134:src/../h/riscv.hpp ****     friend class ConsoleUtil;
 135:src/../h/riscv.hpp **** };
 136:src/../h/riscv.hpp **** 
 137:src/../h/riscv.hpp **** inline uint64 RiscV::r_scause(){
GAS LISTING /tmp/ccZSci1i.s 			page 9


 138:src/../h/riscv.hpp ****     uint64 volatile scause;
 139:src/../h/riscv.hpp ****     asm("csrr %[scause], scause" : [scause] "=r" (scause));
 140:src/../h/riscv.hpp ****     return scause;
 141:src/../h/riscv.hpp **** }
 142:src/../h/riscv.hpp **** 
 143:src/../h/riscv.hpp **** inline void RiscV::w_scause(uint64 scause){
 144:src/../h/riscv.hpp ****     asm("csrw scause, %[scause]" : : [scause] "r" (scause));
 145:src/../h/riscv.hpp **** }
 146:src/../h/riscv.hpp **** 
 147:src/../h/riscv.hpp **** inline uint64 RiscV::r_sepc(){
 148:src/../h/riscv.hpp ****     uint64 sepc;
 149:src/../h/riscv.hpp ****     asm("csrr %[sepc], sepc" : [sepc] "=r" (sepc));
 150:src/../h/riscv.hpp ****     return sepc;
 151:src/../h/riscv.hpp **** }
 152:src/../h/riscv.hpp **** 
 153:src/../h/riscv.hpp **** inline void RiscV::w_sepc(uint64 sepc){
 154:src/../h/riscv.hpp ****     asm("csrw sepc, %[sepc]" : : [sepc] "r" (sepc));
 155:src/../h/riscv.hpp **** }
 156:src/../h/riscv.hpp **** 
 157:src/../h/riscv.hpp **** inline uint64 RiscV::r_stvec(){
 158:src/../h/riscv.hpp ****     uint64 stvec;
 159:src/../h/riscv.hpp ****     asm("csrr %[stvec], stvec" : [stvec] "=r" (stvec));
 160:src/../h/riscv.hpp ****     return stvec;
 161:src/../h/riscv.hpp **** }
 162:src/../h/riscv.hpp **** 
 163:src/../h/riscv.hpp **** inline void RiscV::w_sstatus(uint64 sstatus){
 164:src/../h/riscv.hpp ****     asm("csrw sstatus, %[sstatus]" : : [sstatus] "r" (sstatus));
 165:src/../h/riscv.hpp **** }
 166:src/../h/riscv.hpp **** 
 167:src/../h/riscv.hpp **** inline uint64 RiscV::r_sstatus(){
 168:src/../h/riscv.hpp ****     uint64 sstatus;
 169:src/../h/riscv.hpp ****     asm("csrr %[sstatus], sstatus" : [sstatus] "=r" (sstatus));
 170:src/../h/riscv.hpp ****     return sstatus;
 171:src/../h/riscv.hpp **** }
 172:src/../h/riscv.hpp **** 
 173:src/../h/riscv.hpp **** inline void RiscV::w_stvec(uint64 stvec){
 174:src/../h/riscv.hpp ****     asm("csrw stvec, %[stvec]" : : [stvec] "r" (stvec));
 252              		.loc 2 174 5 is_stmt 1
 253              		.loc 2 174 56 is_stmt 0
 254              	#APP
 255              	# 174 "src/../h/riscv.hpp" 1
 175              	}
 256              		csrw stvec, a5
 257              	# 0 "" 2
 258              	.LVL26:
 259              	#NO_APP
 260              	.LBE92:
 261              	.LBE91:
  51:src/riscv.cpp ****     kmem_init(BUDDY_START_ADDR_CONST, 4096);
 262              		.loc 1 51 5 is_stmt 1
 263              		.loc 1 51 15 is_stmt 0
 264 0168 97070000 		la	a5,HEAP_START_ADDR
 264      83B70700 
 265 0170 03B50700 		ld	a0,0(a5)
 266 0174 1355C500 		srli	a0,a0,12
 267 0178 13052500 		addi	a0,a0,2
 268              		.loc 1 51 14
GAS LISTING /tmp/ccZSci1i.s 			page 10


 269 017c B7150000 		li	a1,4096
 270 0180 1315C500 		slli	a0,a0,12
 271 0184 97000000 		call	_Z9kmem_initPvi@plt
 271      E7800000 
 272              	.LVL27:
  52:src/riscv.cpp ****     MemoryAllocator::initialize();
 273              		.loc 1 52 5 is_stmt 1
 274              		.loc 1 52 32 is_stmt 0
 275 018c 97000000 		call	_ZN15MemoryAllocator10initializeEv@plt
 275      E7800000 
 276              	.LVL28:
  53:src/riscv.cpp ****     Scheduler::initialize();
 277              		.loc 1 53 5 is_stmt 1
 278              		.loc 1 53 26 is_stmt 0
 279 0194 97000000 		call	_ZN9Scheduler10initializeEv@plt
 279      E7800000 
 280              	.LVL29:
  54:src/riscv.cpp ****     TCB::initialize();
 281              		.loc 1 54 5 is_stmt 1
 282              		.loc 1 54 20 is_stmt 0
 283 019c 97000000 		call	_ZN3TCB10initializeEv@plt
 283      E7800000 
 284              	.LVL30:
  55:src/riscv.cpp ****     SCB::initialize();
 285              		.loc 1 55 5 is_stmt 1
 286              		.loc 1 55 20 is_stmt 0
 287 01a4 97000000 		call	_ZN3SCB10initializeEv@plt
 287      E7800000 
 288              	.LVL31:
  56:src/riscv.cpp ****     ConsoleUtil::initialize();
 289              		.loc 1 56 5 is_stmt 1
 290              		.loc 1 56 28 is_stmt 0
 291 01ac 97000000 		call	_ZN11ConsoleUtil10initializeEv@plt
 291      E7800000 
 292              	.LVL32:
  57:src/riscv.cpp ****     RiscV::PMT = getPMT();
 293              		.loc 1 57 5 is_stmt 1
 294              		.loc 1 57 24 is_stmt 0
 295 01b4 97000000 		call	_ZN5RiscV6getPMTEv
 295      E7800000 
 296              	.LVL33:
 297              		.loc 1 57 16
 298 01bc 97070000 		sd	a0,.LANCHOR0,a5
 298      23B0A700 
  58:src/riscv.cpp ****     for(uint64 i=0x80000000;i<(uint64)HEAP_END_ADDR;i+=4096)
 299              		.loc 1 58 5 is_stmt 1
 300              	.LVL34:
 301              	.LBB93:
 302              		.loc 1 58 16 is_stmt 0
 303 01c4 93041000 		li	s1,1
 304 01c8 9394F401 		slli	s1,s1,31
 305              	.LVL35:
 306              	.L16:
 307              		.loc 1 58 30 is_stmt 1 discriminator 3
 308 01cc 97070000 		la	a5,HEAP_END_ADDR
 308      83B70700 
 309 01d4 83B70700 		ld	a5,0(a5)
GAS LISTING /tmp/ccZSci1i.s 			page 11


 310 01d8 63F0F402 		bleu	a5,s1,.L15
  59:src/riscv.cpp ****         handlePageFault(i,0xf);
 311              		.loc 1 59 9 discriminator 2
 312              		.loc 1 59 24 is_stmt 0 discriminator 2
 313 01dc 9305F000 		li	a1,15
 314 01e0 13850400 		mv	a0,s1
 315 01e4 97000000 		call	_ZN5RiscV15handlePageFaultEmm
 315      E7800000 
 316              	.LVL36:
  58:src/riscv.cpp ****     for(uint64 i=0x80000000;i<(uint64)HEAP_END_ADDR;i+=4096)
 317              		.loc 1 58 5 is_stmt 1 discriminator 2
  58:src/riscv.cpp ****     for(uint64 i=0x80000000;i<(uint64)HEAP_END_ADDR;i+=4096)
 318              		.loc 1 58 54 is_stmt 0 discriminator 2
 319 01ec B7170000 		li	a5,4096
 320 01f0 B384F400 		add	s1,s1,a5
 321              	.LVL37:
  58:src/riscv.cpp ****     for(uint64 i=0x80000000;i<(uint64)HEAP_END_ADDR;i+=4096)
 322              		.loc 1 58 5 discriminator 2
 323 01f4 6FF09FFD 		j	.L16
 324              	.L15:
 325              	.LBE93:
  60:src/riscv.cpp **** //    for(int i=0;i<512;i++)
  61:src/riscv.cpp **** //        if(((uint64*)PMT)[i] != 0){
  62:src/riscv.cpp **** //            void* pmt1 =(void*)((((uint64*)PMT)[i]>>10)<<12);
  63:src/riscv.cpp **** //            ConsoleUtil::print("pmt1: ",(uint64)pmt1, "\n",16);
  64:src/riscv.cpp **** //            for(int i=0;i<512;i++)
  65:src/riscv.cpp **** //                if(((uint64*)pmt1)[i] != 0){
  66:src/riscv.cpp **** //                    void* pmt0 =(void*)((((uint64*)pmt1)[i]>>10)<<12);
  67:src/riscv.cpp **** //                    for(int i=0;i<512;i++)
  68:src/riscv.cpp **** //                        if(((uint64*)pmt0)[i] != 0){
  69:src/riscv.cpp **** //                            ConsoleUtil::print("i: ",i," ",10);
  70:src/riscv.cpp **** //                            ConsoleUtil::print("desc: ",((uint64*)pmt0)[i]>>10,"\n",16);
  71:src/riscv.cpp **** //                        }
  72:src/riscv.cpp **** //                }
  73:src/riscv.cpp **** //        }
  74:src/riscv.cpp **** 
  75:src/riscv.cpp ****     handlePageFault((uint64)CONSOLE_IRQ,0xf);
 326              		.loc 1 75 5 is_stmt 1
 327              		.loc 1 75 20 is_stmt 0
 328 01f8 9305F000 		li	a1,15
 329 01fc 1305A000 		li	a0,10
 330 0200 97000000 		call	_ZN5RiscV15handlePageFaultEmm
 330      E7800000 
 331              	.LVL38:
  76:src/riscv.cpp ****     handlePageFault((uint64)CONSOLE_RX_STATUS_BIT,0xf);
 332              		.loc 1 76 5 is_stmt 1
 333              		.loc 1 76 20 is_stmt 0
 334 0208 9305F000 		li	a1,15
 335 020c 13051000 		li	a0,1
 336 0210 97000000 		call	_ZN5RiscV15handlePageFaultEmm
 336      E7800000 
 337              	.LVL39:
  77:src/riscv.cpp ****     handlePageFault((uint64)CONSOLE_TX_STATUS_BIT,0xf);
 338              		.loc 1 77 5 is_stmt 1
 339              		.loc 1 77 20 is_stmt 0
 340 0218 9305F000 		li	a1,15
 341 021c 13050002 		li	a0,32
GAS LISTING /tmp/ccZSci1i.s 			page 12


 342 0220 97000000 		call	_ZN5RiscV15handlePageFaultEmm
 342      E7800000 
 343              	.LVL40:
  78:src/riscv.cpp ****     handlePageFault((uint64)CONSOLE_RX_DATA,0xf);
 344              		.loc 1 78 5 is_stmt 1
 345              		.loc 1 78 20 is_stmt 0
 346 0228 9305F000 		li	a1,15
 347 022c 97070000 		la	a5,CONSOLE_RX_DATA
 347      83B70700 
 348 0234 03B50700 		ld	a0,0(a5)
 349 0238 97000000 		call	_ZN5RiscV15handlePageFaultEmm
 349      E7800000 
 350              	.LVL41:
  79:src/riscv.cpp ****     handlePageFault((uint64)CONSOLE_TX_DATA,0xf);
 351              		.loc 1 79 5 is_stmt 1
 352              		.loc 1 79 20 is_stmt 0
 353 0240 9305F000 		li	a1,15
 354 0244 97070000 		la	a5,CONSOLE_TX_DATA
 354      83B70700 
 355 024c 03B50700 		ld	a0,0(a5)
 356 0250 97000000 		call	_ZN5RiscV15handlePageFaultEmm
 356      E7800000 
 357              	.LVL42:
  80:src/riscv.cpp ****     handlePageFault((uint64)CONSOLE_STATUS,0xf);
 358              		.loc 1 80 5 is_stmt 1
 359              		.loc 1 80 20 is_stmt 0
 360 0258 9305F000 		li	a1,15
 361 025c 97070000 		la	a5,CONSOLE_STATUS
 361      83B70700 
 362 0264 03B50700 		ld	a0,0(a5)
 363 0268 97000000 		call	_ZN5RiscV15handlePageFaultEmm
 363      E7800000 
 364              	.LVL43:
  81:src/riscv.cpp ****     handlePageFault((uint64)0xc201004,0xf);
 365              		.loc 1 81 5 is_stmt 1
 366              		.loc 1 81 20 is_stmt 0
 367 0270 9305F000 		li	a1,15
 368 0274 3715200C 		li	a0,203427840
 369 0278 13054500 		addi	a0,a0,4
 370 027c 97000000 		call	_ZN5RiscV15handlePageFaultEmm
 370      E7800000 
 371              	.LVL44:
  82:src/riscv.cpp **** 
  83:src/riscv.cpp ****     uint64 satp = ((uint64)1<<63) | ((uint64)(RiscV::PMT)>>12);
 372              		.loc 1 83 5 is_stmt 1
 373              		.loc 1 83 58 is_stmt 0
 374 0284 97070000 		ld	a5,.LANCHOR0
 374      83B70700 
 375 028c 93D7C700 		srli	a5,a5,12
 376              		.loc 1 83 12
 377 0290 1307F0FF 		li	a4,-1
 378 0294 1317F703 		slli	a4,a4,63
 379 0298 B3E7E700 		or	a5,a5,a4
 380              	.LVL45:
  84:src/riscv.cpp ****     asm("csrw satp, %[satp]" : : [satp] "r" (satp));
 381              		.loc 1 84 5 is_stmt 1
 382              		.loc 1 84 52 is_stmt 0
GAS LISTING /tmp/ccZSci1i.s 			page 13


 383              	#APP
 384              	# 84 "src/riscv.cpp" 1
  85              	
  86:src/riscv.cpp ****     RiscV::enableInterrupts();
 385              		csrw satp, a5
 386              	# 0 "" 2
 387              		.loc 1 86 5 is_stmt 1
 176:src/../h/riscv.hpp **** 
 177:src/../h/riscv.hpp **** inline void  RiscV::ms_sstatus(uint64 mask) {
 178:src/../h/riscv.hpp ****     asm("csrs sstatus, %[mask]" : : [mask] "r" (mask));
 179:src/../h/riscv.hpp **** }
 180:src/../h/riscv.hpp **** 
 181:src/../h/riscv.hpp **** inline void  RiscV::mc_sstatus(uint64 mask) {
 182:src/../h/riscv.hpp ****     asm("csrc sstatus, %[mask]" : : [mask] "r" (mask));
 183:src/../h/riscv.hpp **** }
 184:src/../h/riscv.hpp **** 
 185:src/../h/riscv.hpp **** inline void  RiscV::ms_sip(uint64 mask) {
 186:src/../h/riscv.hpp ****     asm("csrs sip, %[mask]" : : [mask] "r" (mask));
 187:src/../h/riscv.hpp **** }
 188:src/../h/riscv.hpp **** 
 189:src/../h/riscv.hpp **** inline void  RiscV::mc_sip(uint64 mask) {
 190:src/../h/riscv.hpp ****     asm("csrc sip, %[mask]" : : [mask] "r" (mask));
 191:src/../h/riscv.hpp **** }
 192:src/../h/riscv.hpp **** 
 193:src/../h/riscv.hpp **** inline void  RiscV::ms_sie(uint64 mask) {
 194:src/../h/riscv.hpp ****     asm("csrs sie, %[mask]" : : [mask] "r" (mask));
 195:src/../h/riscv.hpp **** }
 196:src/../h/riscv.hpp **** 
 197:src/../h/riscv.hpp **** inline void  RiscV::mc_sie(uint64 mask){
 198:src/../h/riscv.hpp ****     asm("csrc sie, %[mask]" : : [mask] "r" (mask));
 199:src/../h/riscv.hpp **** }
 200:src/../h/riscv.hpp **** 
 201:src/../h/riscv.hpp **** inline void RiscV::enableInterrupts() {
 202:src/../h/riscv.hpp ****     RiscV::ms_sie(SIP_SSIE);
 388              		.loc 2 202 5
 389              	.LVL46:
 390              	#NO_APP
 391              	.LBB94:
 392              	.LBB95:
 393              	.LBB96:
 194:src/../h/riscv.hpp **** }
 394              		.loc 2 194 5
 194:src/../h/riscv.hpp **** }
 395              		.loc 2 194 51 is_stmt 0
 396 02a0 93072000 		li	a5,2
 397              	.LVL47:
 398              	#APP
 399              	# 194 "src/../h/riscv.hpp" 1
 400              		csrs sie, a5
 401              	# 0 "" 2
 402              	.LVL48:
 403              	#NO_APP
 404              	.LBE96:
 405              	.LBE95:
 406              	.LBE94:
 203:src/../h/riscv.hpp ****     RiscV::ms_sie(SIP_SEIE);
 407              		.loc 2 203 5 is_stmt 1
GAS LISTING /tmp/ccZSci1i.s 			page 14


 408              	.LBB101:
 409              	.LBB97:
 410              	.LBB98:
 194:src/../h/riscv.hpp **** }
 411              		.loc 2 194 5
 194:src/../h/riscv.hpp **** }
 412              		.loc 2 194 51 is_stmt 0
 413 02a8 13070020 		li	a4,512
 414              	.LVL49:
 415              	#APP
 416              	# 194 "src/../h/riscv.hpp" 1
 417              		csrs sie, a4
 418              	# 0 "" 2
 419              	.LVL50:
 420              	#NO_APP
 421              	.LBE98:
 422              	.LBE97:
 423              	.LBE101:
 204:src/../h/riscv.hpp ****     RiscV::ms_sstatus(SSTATUS_SIE);
 424              		.loc 2 204 5 is_stmt 1
 425              	.LBB102:
 426              	.LBB99:
 427              	.LBB100:
 178:src/../h/riscv.hpp **** }
 428              		.loc 2 178 5
 178:src/../h/riscv.hpp **** }
 429              		.loc 2 178 55 is_stmt 0
 430              	#APP
 431              	# 178 "src/../h/riscv.hpp" 1
 432              		csrs sstatus, a5
 433              	# 0 "" 2
 434              	.LVL51:
 435              	#NO_APP
 436              	.LBE100:
 437              	.LBE99:
 438              	.LBE102:
  87:src/riscv.cpp **** //    RiscV::enableHardwareInterrupts();
  88:src/riscv.cpp **** }
 439              		.loc 1 88 1
 440 02b4 83308101 		ld	ra,24(sp)
 441              		.cfi_restore 1
 442 02b8 03340101 		ld	s0,16(sp)
 443              		.cfi_restore 8
 444              		.cfi_def_cfa 2, 32
 445 02bc 83348100 		ld	s1,8(sp)
 446              		.cfi_restore 9
 447              	.LVL52:
 448 02c0 13010102 		addi	sp,sp,32
 449              		.cfi_def_cfa_offset 0
 450 02c4 67800000 		jr	ra
 451              		.cfi_endproc
 452              	.LFE44:
 454              		.align	2
 455              		.globl	_ZN5RiscV10popSppSpieEv
 457              	_ZN5RiscV10popSppSpieEv:
 458              	.LFB45:
  89:src/riscv.cpp **** 
GAS LISTING /tmp/ccZSci1i.s 			page 15


  90:src/riscv.cpp **** //get previous privilege and previous interrupt status
  91:src/riscv.cpp **** void RiscV::popSppSpie() {
 459              		.loc 1 91 26 is_stmt 1
 460              		.cfi_startproc
 461 02c8 130101FF 		addi	sp,sp,-16
 462              		.cfi_def_cfa_offset 16
 463 02cc 23348100 		sd	s0,8(sp)
 464              		.cfi_offset 8, -8
 465 02d0 13040101 		addi	s0,sp,16
 466              		.cfi_def_cfa 8, 0
  92:src/riscv.cpp ****     asm("csrw sepc, ra");
 467              		.loc 1 92 5
 468              		.loc 1 92 25 is_stmt 0
 469              	#APP
 470              	# 92 "src/riscv.cpp" 1
  93              	    asm("sret");
 471              		csrw sepc, ra
 472              	# 0 "" 2
 473              		.loc 1 93 5 is_stmt 1
 474              		.loc 1 93 16 is_stmt 0
 475              	# 93 "src/riscv.cpp" 1
  94              	}
 476              		sret
 477              	# 0 "" 2
 478              		.loc 1 94 1
 479              	#NO_APP
 480 02dc 03348100 		ld	s0,8(sp)
 481              		.cfi_restore 8
 482              		.cfi_def_cfa 2, 16
 483 02e0 13010101 		addi	sp,sp,16
 484              		.cfi_def_cfa_offset 0
 485 02e4 67800000 		jr	ra
 486              		.cfi_endproc
 487              	.LFE45:
 489              		.align	2
 490              		.globl	_ZN5RiscV28executeThreadDispatchSyscallEv
 492              	_ZN5RiscV28executeThreadDispatchSyscallEv:
 493              	.LFB53:
  95:src/riscv.cpp **** 
  96:src/riscv.cpp **** //handler function for traps
  97:src/riscv.cpp **** void RiscV::handleSupervisorTrap() {
  98:src/riscv.cpp **** 
  99:src/riscv.cpp ****     //read scause
 100:src/riscv.cpp ****     uint64 volatile scause = RiscV::r_scause();
 101:src/riscv.cpp **** 
 102:src/riscv.cpp ****     asm("csrr %[sscratch], sscratch" : [sscratch] "=r" (TCB::running->a0Location));
 103:src/riscv.cpp **** 
 104:src/riscv.cpp ****     //interrupt from ecall (both user and supervisor mode)
 105:src/riscv.cpp ****     if(scause == 0x09 || scause == 0x08) {
 106:src/riscv.cpp **** 
 107:src/riscv.cpp ****         //save sstatus and sepc
 108:src/riscv.cpp ****         //sepc should be increased by 4, since this is an ecall trap
 109:src/riscv.cpp ****         uint64 volatile sstatus = RiscV::r_sstatus();
 110:src/riscv.cpp ****         uint64 volatile sepc = RiscV::r_sepc()+4;
 111:src/riscv.cpp ****         TCB::running->sepc = sepc;
 112:src/riscv.cpp ****         TCB::running->sstatus = sstatus;
 113:src/riscv.cpp **** 
GAS LISTING /tmp/ccZSci1i.s 			page 16


 114:src/riscv.cpp ****         //get the syscall ID from a0
 115:src/riscv.cpp ****         uint64 syscallID;
 116:src/riscv.cpp ****         asm("mv %[syscallID], a0" : [syscallID] "=r" (syscallID));
 117:src/riscv.cpp **** 
 118:src/riscv.cpp ****         switch(syscallID){
 119:src/riscv.cpp ****             case 0x01 : executeMemAllocSyscall();break;
 120:src/riscv.cpp ****             case 0x02 : executeMemFreeSyscall();break;
 121:src/riscv.cpp ****             case 0x11 : executeThreadCreateSyscall();break;
 122:src/riscv.cpp ****             case 0x12 : executeThreadExitSyscall();break;
 123:src/riscv.cpp ****             case 0x13 : executeThreadDispatchSyscall();break;
 124:src/riscv.cpp ****             case 0x14 : executeThreadAttachBodySyscall();break;
 125:src/riscv.cpp ****             case 0x15 : executeThreadStartSyscall();break;
 126:src/riscv.cpp ****             case 0x21 : executeSemOpenSyscall();break;
 127:src/riscv.cpp ****             case 0x22 : executeSemCloseSyscall();break;
 128:src/riscv.cpp ****             case 0x23 : executeSemWaitSyscall();break;
 129:src/riscv.cpp ****             case 0x24 : executeSemSignalSyscall();break;
 130:src/riscv.cpp ****             case 0x31 : executeTimeSleepSyscall();break;
 131:src/riscv.cpp ****             case 0x41 : executeGetcSyscall();break;
 132:src/riscv.cpp ****             case 0x42 : executePutcSyscall();break;
 133:src/riscv.cpp ****             case 0x43 : executePutcUtilSyscall();break;
 134:src/riscv.cpp ****             case 0x51 : executeThreadFreeSyscall();break;
 135:src/riscv.cpp ****             case 0x52 : executeSemaphoreFreeSyscall();break;
 136:src/riscv.cpp ****             //in this case we need to save SP and PC at this point so that newly created thread
 137:src/riscv.cpp ****             //can return to this point and exit trap routine regularly
 138:src/riscv.cpp ****             //note that getPC() returns PC incremented by 8 to skip executeForkSyscall
 139:src/riscv.cpp ****             case 0x61 : asm("mv %[sp], sp" : [sp] "=r"(TCB::currentSP));
 140:src/riscv.cpp ****                         RiscV::getPC();
 141:src/riscv.cpp ****                         executeForkSyscall();
 142:src/riscv.cpp ****                         break;
 143:src/riscv.cpp ****         }
 144:src/riscv.cpp **** 
 145:src/riscv.cpp ****         //write previously save sstatus and incremented sepc
 146:src/riscv.cpp ****         RiscV::w_sstatus(TCB::running->sstatus);
 147:src/riscv.cpp ****         RiscV::w_sepc(TCB::running->sepc);
 148:src/riscv.cpp ****     }
 149:src/riscv.cpp **** 
 150:src/riscv.cpp ****     //timer interrupt (in this system's implementation, timer tick is manifested as software interr
 151:src/riscv.cpp ****     else if(scause == (0x01UL<<63 | 0x1)){
 152:src/riscv.cpp **** 
 153:src/riscv.cpp ****         //save sstatus and sepc
 154:src/riscv.cpp ****         //this time sepc remains the same
 155:src/riscv.cpp ****         uint64 volatile sstatus = RiscV::r_sstatus();
 156:src/riscv.cpp ****         uint64 volatile sepc = RiscV::r_sepc();
 157:src/riscv.cpp **** 
 158:src/riscv.cpp ****         //clear the SIP bit for software interrupt
 159:src/riscv.cpp ****         mc_sip(SIP_SSIE);
 160:src/riscv.cpp **** 
 161:src/riscv.cpp **** 
 162:src/riscv.cpp ****         //increase global time and try to awake threads that are asleep
 163:src/riscv.cpp ****         globalTime += 1;
 164:src/riscv.cpp ****         Scheduler::awake();
 165:src/riscv.cpp **** 
 166:src/riscv.cpp ****         //check whether time slice has run out for running thread
 167:src/riscv.cpp ****         //if so, dispatch
 168:src/riscv.cpp ****         TCB::timeSliceCounter++;
 169:src/riscv.cpp ****         if(TCB::timeSliceCounter >= TCB::running->timeSlice) {
 170:src/riscv.cpp **** 
GAS LISTING /tmp/ccZSci1i.s 			page 17


 171:src/riscv.cpp ****             TCB::timeSliceCounter = 0;
 172:src/riscv.cpp **** 
 173:src/riscv.cpp ****             TCB* old = TCB::running;
 174:src/riscv.cpp **** 
 175:src/riscv.cpp ****             old->status = TCB::Status::READY;
 176:src/riscv.cpp **** 
 177:src/riscv.cpp ****             TCB::dispatch();
 178:src/riscv.cpp ****         }
 179:src/riscv.cpp **** 
 180:src/riscv.cpp ****         //write previously save sstatus and sepc
 181:src/riscv.cpp ****         RiscV::w_sstatus(sstatus);
 182:src/riscv.cpp ****         RiscV::w_sepc(sepc);
 183:src/riscv.cpp ****     }
 184:src/riscv.cpp **** 
 185:src/riscv.cpp ****     //hardware interrupt, from console (note that here we only check for keyboard interrupts, handl
 186:src/riscv.cpp ****     else if(scause == (0x01UL<<63 | 0x9)){
 187:src/riscv.cpp ****         //save sstatus and sepc
 188:src/riscv.cpp ****         //this time sepc remains the same
 189:src/riscv.cpp ****         uint64 volatile sstatus = RiscV::r_sstatus();
 190:src/riscv.cpp ****         uint64 volatile sepc = RiscV::r_sepc();
 191:src/riscv.cpp **** 
 192:src/riscv.cpp ****         //get the console status register location, and console status reg value
 193:src/riscv.cpp ****         uint64 status = CONSOLE_STATUS;
 194:src/riscv.cpp ****         asm("mv a0, %[status]" : : [status] "r" (status));
 195:src/riscv.cpp ****         asm("lb a1, 0(a0)");
 196:src/riscv.cpp ****         asm("mv %[status], a1" : [status] "=r" (status));
 197:src/riscv.cpp **** 
 198:src/riscv.cpp ****         //if keyboard is ready to send data
 199:src/riscv.cpp ****         if(status & 1UL)
 200:src/riscv.cpp ****         {
 201:src/riscv.cpp ****             //fetch the character from CONSOLE_TX_DATA register
 202:src/riscv.cpp ****             uint64 data;
 203:src/riscv.cpp ****             char c;
 204:src/riscv.cpp ****             data = CONSOLE_TX_DATA;
 205:src/riscv.cpp ****             asm("mv a0, %[data]" : : [data] "r" (data));
 206:src/riscv.cpp ****             asm("lb a1, 0(a0)");
 207:src/riscv.cpp ****             asm("mv %[c], a1" : [c] "=r" (c));
 208:src/riscv.cpp **** 
 209:src/riscv.cpp ****             //if there was a getc request put the character into the input buffer, othrewise ignore
 210:src/riscv.cpp ****             if(ConsoleUtil::pendingGetc!=0) {
 211:src/riscv.cpp ****                 ConsoleUtil::pendingGetc--;
 212:src/riscv.cpp ****                 ConsoleUtil::putInput(c);
 213:src/riscv.cpp ****             }
 214:src/riscv.cpp ****         }
 215:src/riscv.cpp ****         plic_complete(plic_claim());
 216:src/riscv.cpp **** 
 217:src/riscv.cpp ****         RiscV::w_sstatus(sstatus);
 218:src/riscv.cpp ****         RiscV::w_sepc(sepc);
 219:src/riscv.cpp ****     }
 220:src/riscv.cpp **** 
 221:src/riscv.cpp ****     //illegal instruction, exit running thread
 222:src/riscv.cpp ****     else if(scause == 0x02){
 223:src/riscv.cpp ****         TCB* old = TCB::running;
 224:src/riscv.cpp ****         old->status = TCB::Status::FINISHED;
 225:src/riscv.cpp ****         ConsoleUtil::printString("sepc: ");
 226:src/riscv.cpp ****         uint64 sepc = RiscV::r_sepc();
 227:src/riscv.cpp ****         ConsoleUtil::printInt(sepc,16);
GAS LISTING /tmp/ccZSci1i.s 			page 18


 228:src/riscv.cpp ****         ConsoleUtil::printString("\n");
 229:src/riscv.cpp ****         ConsoleUtil::printString("Illegal instruction\nExiting thread...\n");
 230:src/riscv.cpp ****         TCB::dispatch();
 231:src/riscv.cpp ****     }
 232:src/riscv.cpp **** 
 233:src/riscv.cpp ****     //some other kind of error, for more information check out RiscV handbook
 234:src/riscv.cpp ****     else{
 235:src/riscv.cpp ****         ConsoleUtil::printString("Error: \n");
 236:src/riscv.cpp ****         ConsoleUtil::printString("scause: ");
 237:src/riscv.cpp ****         uint64  scause = RiscV::r_scause();
 238:src/riscv.cpp ****         ConsoleUtil::printInt(scause);
 239:src/riscv.cpp ****         ConsoleUtil::printString("sepc: ");
 240:src/riscv.cpp ****         uint64 sepc = RiscV::r_sepc();
 241:src/riscv.cpp ****         ConsoleUtil::printInt(sepc,16);
 242:src/riscv.cpp ****         ConsoleUtil::printString("\n");
 243:src/riscv.cpp ****         TCB* old = TCB::running;
 244:src/riscv.cpp ****         old->status = TCB::Status::FINISHED;
 245:src/riscv.cpp ****         ConsoleUtil::printString("Exiting thread...\n");
 246:src/riscv.cpp ****         TCB::dispatch();
 247:src/riscv.cpp ****     }
 248:src/riscv.cpp **** 
 249:src/riscv.cpp ****     RiscV::jumpToDesignatedPrivilegeMode();
 250:src/riscv.cpp **** }
 251:src/riscv.cpp **** 
 252:src/riscv.cpp **** void RiscV::executeMemAllocSyscall(){
 253:src/riscv.cpp **** 
 254:src/riscv.cpp ****     //fetch the arguments from a0-a7 registers
 255:src/riscv.cpp ****     uint64 size;
 256:src/riscv.cpp ****     asm("mv %[size], a1" : [size] "=r" (size));
 257:src/riscv.cpp **** 
 258:src/riscv.cpp ****     //call internal allocator and return the address in a0
 259:src/riscv.cpp ****     uint64 addr =(uint64)MemoryAllocator::kmalloc(size);
 260:src/riscv.cpp **** 
 261:src/riscv.cpp ****     asm("mv a0, %[addr]" : : [addr] "r" (addr));
 262:src/riscv.cpp **** 
 263:src/riscv.cpp ****     RiscV::saveA0toSscratch();
 264:src/riscv.cpp **** }
 265:src/riscv.cpp **** 
 266:src/riscv.cpp **** void RiscV::executeMemFreeSyscall() {
 267:src/riscv.cpp **** 
 268:src/riscv.cpp ****     //fetch the arguments from a0-a7 registers
 269:src/riscv.cpp ****     uint64 iaddr, status;
 270:src/riscv.cpp **** 
 271:src/riscv.cpp **** 
 272:src/riscv.cpp ****     if(MemoryAllocator::initialized) {
 273:src/riscv.cpp ****         //call internal allocator and free memory which iaddr points to
 274:src/riscv.cpp ****         asm("mv %[iaddr], a1" : [iaddr] "=r"(iaddr));
 275:src/riscv.cpp ****         status = MemoryAllocator::kfree((void *) iaddr);;
 276:src/riscv.cpp ****     }
 277:src/riscv.cpp ****     else
 278:src/riscv.cpp ****         status = -1;
 279:src/riscv.cpp **** 
 280:src/riscv.cpp ****     //return status
 281:src/riscv.cpp ****     asm("mv a0, %[status]" : : [status] "r" (status));
 282:src/riscv.cpp **** 
 283:src/riscv.cpp ****     RiscV::saveA0toSscratch();
 284:src/riscv.cpp **** }
GAS LISTING /tmp/ccZSci1i.s 			page 19


 285:src/riscv.cpp **** 
 286:src/riscv.cpp **** void RiscV::executeThreadCreateSyscall(){
 287:src/riscv.cpp **** 
 288:src/riscv.cpp ****     //fetch the arguments from a0-a7 registers
 289:src/riscv.cpp ****     uint64 iroutine, iargs, ihandle, istack;
 290:src/riscv.cpp **** 
 291:src/riscv.cpp ****     asm("mv %[istack], a7" : [istack] "=r"(istack));
 292:src/riscv.cpp ****     asm("mv %[ihandle], a1" : [ihandle] "=r"(ihandle));
 293:src/riscv.cpp ****     asm("mv %[iroutine], a2" : [iroutine] "=r"(iroutine));
 294:src/riscv.cpp ****     asm("mv %[iargs], a3" : [iargs] "=r"(iargs));
 295:src/riscv.cpp **** 
 296:src/riscv.cpp ****     //call constructor for Thread Control Block and if not null, write thread address into ihandle
 297:src/riscv.cpp ****     TCB *tcb = new TCB((TCB::Body)iroutine, (void*)iargs, (uint64*)istack, DEFAULT_TIME_SLICE);
 298:src/riscv.cpp **** 
 299:src/riscv.cpp ****     uint64 status = 0;
 300:src/riscv.cpp **** 
 301:src/riscv.cpp ****     if(tcb == nullptr){
 302:src/riscv.cpp ****         status = -1;
 303:src/riscv.cpp ****     }
 304:src/riscv.cpp ****     else{
 305:src/riscv.cpp ****         if(tcb->body)
 306:src/riscv.cpp ****             Scheduler::put(tcb);
 307:src/riscv.cpp ****         *((TCB**)ihandle) = tcb;
 308:src/riscv.cpp ****     }
 309:src/riscv.cpp **** 
 310:src/riscv.cpp ****     //return status
 311:src/riscv.cpp ****     asm("mv a0, %[status]" : : [status] "r" (status));
 312:src/riscv.cpp **** 
 313:src/riscv.cpp ****     RiscV::saveA0toSscratch();
 314:src/riscv.cpp **** }
 315:src/riscv.cpp **** 
 316:src/riscv.cpp **** void RiscV::executeThreadAttachBodySyscall(){
 317:src/riscv.cpp **** 
 318:src/riscv.cpp ****     //fetch the arguments from a0-a7 registers
 319:src/riscv.cpp ****     uint64 iroutine, iargs, ihandle, istack;
 320:src/riscv.cpp **** 
 321:src/riscv.cpp **** 
 322:src/riscv.cpp ****     asm("mv %[istack], a7" : [istack] "=r"(istack));
 323:src/riscv.cpp ****     asm("mv %[ihandle], a1" : [ihandle] "=r"(ihandle));
 324:src/riscv.cpp ****     asm("mv %[iroutine], a2" : [iroutine] "=r"(iroutine));
 325:src/riscv.cpp ****     asm("mv %[iargs], a3" : [iargs] "=r"(iargs));
 326:src/riscv.cpp **** 
 327:src/riscv.cpp ****     TCB *tcb = new TCB((TCB::Body)iroutine, (void*)iargs, (uint64*)istack, DEFAULT_TIME_SLICE);
 328:src/riscv.cpp **** 
 329:src/riscv.cpp ****     uint64 status = 0;
 330:src/riscv.cpp **** 
 331:src/riscv.cpp ****     if(tcb == nullptr){
 332:src/riscv.cpp ****         status = -1;
 333:src/riscv.cpp ****     }
 334:src/riscv.cpp ****     else{
 335:src/riscv.cpp ****         tcb->body = (TCB::Body)iroutine;
 336:src/riscv.cpp ****         tcb->args = (void*)iargs;
 337:src/riscv.cpp ****         *((TCB**)ihandle) = tcb;
 338:src/riscv.cpp ****     }
 339:src/riscv.cpp **** 
 340:src/riscv.cpp ****     asm("mv a0, %[status]" : : [status] "r" (status));
 341:src/riscv.cpp **** 
GAS LISTING /tmp/ccZSci1i.s 			page 20


 342:src/riscv.cpp ****     RiscV::saveA0toSscratch();
 343:src/riscv.cpp **** }
 344:src/riscv.cpp **** 
 345:src/riscv.cpp **** void RiscV::executeThreadStartSyscall(){
 346:src/riscv.cpp **** 
 347:src/riscv.cpp ****     //fetch the arguments from a0-a7 registers
 348:src/riscv.cpp ****     uint64 ihandle;
 349:src/riscv.cpp **** 
 350:src/riscv.cpp ****     asm("mv %[ihandle], a1" : [ihandle] "=r"(ihandle));
 351:src/riscv.cpp **** 
 352:src/riscv.cpp ****     //get the handle and put tcb in scheduler if not null
 353:src/riscv.cpp ****     TCB* tcb =(TCB*)ihandle;
 354:src/riscv.cpp **** 
 355:src/riscv.cpp ****     uint64 status = 0;
 356:src/riscv.cpp **** 
 357:src/riscv.cpp ****     if(tcb == nullptr){
 358:src/riscv.cpp ****         status = -1;
 359:src/riscv.cpp ****     }
 360:src/riscv.cpp ****     else{
 361:src/riscv.cpp ****         tcb->status = TCB::Status::READY;
 362:src/riscv.cpp ****         Scheduler::put(tcb);
 363:src/riscv.cpp ****         TCB::dispatch();
 364:src/riscv.cpp ****     }
 365:src/riscv.cpp **** 
 366:src/riscv.cpp ****     //return status
 367:src/riscv.cpp ****     asm("mv a0, %[status]" : : [status] "r" (status));
 368:src/riscv.cpp **** 
 369:src/riscv.cpp ****     RiscV::saveA0toSscratch();
 370:src/riscv.cpp **** }
 371:src/riscv.cpp **** 
 372:src/riscv.cpp **** void RiscV::executeThreadExitSyscall() {
 373:src/riscv.cpp **** 
 374:src/riscv.cpp ****     //fetch the arguments from a0-a7 registers
 375:src/riscv.cpp ****     uint64 status = 0;
 376:src/riscv.cpp **** 
 377:src/riscv.cpp ****     //if thread not null, set status to finished and dispatch
 378:src/riscv.cpp ****     if(TCB::running == nullptr){
 379:src/riscv.cpp ****         status = -1;
 380:src/riscv.cpp ****     }
 381:src/riscv.cpp ****     else{
 382:src/riscv.cpp ****         TCB* old = TCB::running;
 383:src/riscv.cpp ****         old->status = TCB::Status::FINISHED;
 384:src/riscv.cpp ****         TCB::dispatch();
 385:src/riscv.cpp ****     }
 386:src/riscv.cpp **** 
 387:src/riscv.cpp ****     asm("mv a0, %[status]" : : [status] "r" (status));
 388:src/riscv.cpp **** 
 389:src/riscv.cpp ****     RiscV::saveA0toSscratch();
 390:src/riscv.cpp **** }
 391:src/riscv.cpp **** 
 392:src/riscv.cpp **** void RiscV::executeThreadDispatchSyscall(){
 494              		.loc 1 392 43 is_stmt 1
 495              		.cfi_startproc
 496 02e8 130101FF 		addi	sp,sp,-16
 497              		.cfi_def_cfa_offset 16
 498 02ec 23341100 		sd	ra,8(sp)
 499 02f0 23308100 		sd	s0,0(sp)
GAS LISTING /tmp/ccZSci1i.s 			page 21


 500              		.cfi_offset 1, -8
 501              		.cfi_offset 8, -16
 502 02f4 13040101 		addi	s0,sp,16
 503              		.cfi_def_cfa 8, 0
 393:src/riscv.cpp **** 
 394:src/riscv.cpp ****     //dispatch current running thread
 395:src/riscv.cpp ****     TCB* old = TCB::running;
 504              		.loc 1 395 5
 505              		.loc 1 395 10 is_stmt 0
 506 02f8 97070000 		la	a5,_ZN3TCB7runningE
 506      83B70700 
 507 0300 83B70700 		ld	a5,0(a5)
 508              	.LVL53:
 396:src/riscv.cpp ****     old->status = TCB::Status::READY;
 509              		.loc 1 396 5 is_stmt 1
 510              		.loc 1 396 17 is_stmt 0
 511 0304 13071000 		li	a4,1
 512 0308 23A8E700 		sw	a4,16(a5)
 397:src/riscv.cpp ****     TCB::dispatch();
 513              		.loc 1 397 5 is_stmt 1
 514              		.loc 1 397 18 is_stmt 0
 515 030c 97000000 		call	_ZN3TCB8dispatchEv@plt
 515      E7800000 
 516              	.LVL54:
 398:src/riscv.cpp **** }
 517              		.loc 1 398 1
 518 0314 83308100 		ld	ra,8(sp)
 519              		.cfi_restore 1
 520 0318 03340100 		ld	s0,0(sp)
 521              		.cfi_restore 8
 522              		.cfi_def_cfa 2, 16
 523 031c 13010101 		addi	sp,sp,16
 524              		.cfi_def_cfa_offset 0
 525 0320 67800000 		jr	ra
 526              		.cfi_endproc
 527              	.LFE53:
 529              		.align	2
 530              		.globl	_ZN5RiscV18executePutcSyscallEv
 532              	_ZN5RiscV18executePutcSyscallEv:
 533              	.LFB60:
 399:src/riscv.cpp **** 
 400:src/riscv.cpp **** void RiscV::executeSemOpenSyscall() {
 401:src/riscv.cpp **** 
 402:src/riscv.cpp ****     //fetch the arguments from a0-a7 registers
 403:src/riscv.cpp ****     uint64 ihandle, iinit;
 404:src/riscv.cpp **** 
 405:src/riscv.cpp ****     asm("mv %[ihandle], a1" : [ihandle] "=r"(ihandle));
 406:src/riscv.cpp ****     asm("mv %[iinit], a2" : [iinit] "=r"(iinit));
 407:src/riscv.cpp **** 
 408:src/riscv.cpp ****     //create new Semaphore Control Block and write it into ihandle if not null
 409:src/riscv.cpp ****     SCB *scb = new SCB(iinit);
 410:src/riscv.cpp **** 
 411:src/riscv.cpp ****     uint64 status = 0;
 412:src/riscv.cpp **** 
 413:src/riscv.cpp ****     if(scb == nullptr){
 414:src/riscv.cpp ****         status = -1;
 415:src/riscv.cpp ****     }
GAS LISTING /tmp/ccZSci1i.s 			page 22


 416:src/riscv.cpp ****     else{
 417:src/riscv.cpp ****         *((SCB**)ihandle) = scb;
 418:src/riscv.cpp ****     }
 419:src/riscv.cpp **** 
 420:src/riscv.cpp ****     //return status
 421:src/riscv.cpp ****     asm("mv a0, %[status]" : : [status] "r" (status));
 422:src/riscv.cpp **** 
 423:src/riscv.cpp ****     RiscV::saveA0toSscratch();
 424:src/riscv.cpp **** 
 425:src/riscv.cpp **** }
 426:src/riscv.cpp **** 
 427:src/riscv.cpp **** void RiscV::executeSemCloseSyscall() {
 428:src/riscv.cpp **** 
 429:src/riscv.cpp ****     //fetch the arguments from a0-a7 registers
 430:src/riscv.cpp ****     uint64 ihandle;
 431:src/riscv.cpp **** 
 432:src/riscv.cpp ****     asm("mv %[ihandle], a1" : [ihandle] "=r"(ihandle));
 433:src/riscv.cpp **** 
 434:src/riscv.cpp ****     //delete scb if not null
 435:src/riscv.cpp ****     SCB *scb = (SCB*)ihandle;
 436:src/riscv.cpp ****     uint64 status = 0;
 437:src/riscv.cpp **** 
 438:src/riscv.cpp ****     if(scb == nullptr){
 439:src/riscv.cpp ****         status = -1;
 440:src/riscv.cpp ****     }
 441:src/riscv.cpp ****     else
 442:src/riscv.cpp ****         delete (SCB*)ihandle;
 443:src/riscv.cpp **** 
 444:src/riscv.cpp ****     //return status
 445:src/riscv.cpp ****     asm("mv a0, %[status]" : : [status] "r" (status));
 446:src/riscv.cpp **** 
 447:src/riscv.cpp ****     RiscV::saveA0toSscratch();
 448:src/riscv.cpp **** }
 449:src/riscv.cpp **** 
 450:src/riscv.cpp **** void RiscV::executeSemWaitSyscall() {
 451:src/riscv.cpp **** 
 452:src/riscv.cpp ****     //fetch the arguments from a0-a7 registers
 453:src/riscv.cpp ****     uint64 ihandle;
 454:src/riscv.cpp **** 
 455:src/riscv.cpp ****     asm("mv %[ihandle], a1" : [ihandle] "=r"(ihandle));
 456:src/riscv.cpp **** 
 457:src/riscv.cpp ****     uint64 status = 0;
 458:src/riscv.cpp ****     //call wait method on ihandle scb
 459:src/riscv.cpp **** 
 460:src/riscv.cpp ****     if(((SCB*)ihandle) != nullptr)
 461:src/riscv.cpp ****         ((SCB*)ihandle)->wait();
 462:src/riscv.cpp ****     else
 463:src/riscv.cpp ****         status = -1;
 464:src/riscv.cpp **** 
 465:src/riscv.cpp ****     if(TCB::running->semError != nullptr)
 466:src/riscv.cpp ****         status = -1;
 467:src/riscv.cpp ****     else
 468:src/riscv.cpp ****         status = 0;
 469:src/riscv.cpp **** 
 470:src/riscv.cpp ****     //return status
 471:src/riscv.cpp ****     asm("mv a0, %[status]" : : [status] "r" (status));
 472:src/riscv.cpp **** 
GAS LISTING /tmp/ccZSci1i.s 			page 23


 473:src/riscv.cpp ****     RiscV::saveA0toSscratch();
 474:src/riscv.cpp **** 
 475:src/riscv.cpp **** }
 476:src/riscv.cpp **** 
 477:src/riscv.cpp **** void RiscV::executeSemSignalSyscall() {
 478:src/riscv.cpp **** 
 479:src/riscv.cpp ****     //fetch the arguments from a0-a7 registers
 480:src/riscv.cpp ****     uint64 ihandle;
 481:src/riscv.cpp **** 
 482:src/riscv.cpp ****     asm("mv %[ihandle], a1" : [ihandle] "=r"(ihandle));
 483:src/riscv.cpp **** 
 484:src/riscv.cpp ****     //call signal method on ihandle scb
 485:src/riscv.cpp **** 
 486:src/riscv.cpp ****     uint64 status = 0;
 487:src/riscv.cpp **** 
 488:src/riscv.cpp ****     if(((SCB*)ihandle) != nullptr)
 489:src/riscv.cpp ****         ((SCB*)ihandle)->signal();
 490:src/riscv.cpp ****     else
 491:src/riscv.cpp ****         status = -1;
 492:src/riscv.cpp **** 
 493:src/riscv.cpp ****     //return status
 494:src/riscv.cpp ****     asm("mv a0, %[status]" : : [status] "r" (status));
 495:src/riscv.cpp **** 
 496:src/riscv.cpp ****     RiscV::saveA0toSscratch();
 497:src/riscv.cpp **** }
 498:src/riscv.cpp **** 
 499:src/riscv.cpp **** void RiscV::executeTimeSleepSyscall() {
 500:src/riscv.cpp **** 
 501:src/riscv.cpp ****     //fetch the arguments from a0-a7 registers
 502:src/riscv.cpp ****     uint64 itime;
 503:src/riscv.cpp **** 
 504:src/riscv.cpp ****     asm("mv %[itime], a1" : [itime] "=r"(itime));
 505:src/riscv.cpp **** 
 506:src/riscv.cpp ****     //calculate wake time for running thread and put it to sleep
 507:src/riscv.cpp ****     //fetch new running with dispatch
 508:src/riscv.cpp ****     TCB* tcb = TCB::running;
 509:src/riscv.cpp ****     tcb->sleepTime = globalTime;
 510:src/riscv.cpp ****     tcb->wakeTime = globalTime + itime;
 511:src/riscv.cpp **** 
 512:src/riscv.cpp ****     Scheduler::sleep(tcb);
 513:src/riscv.cpp **** 
 514:src/riscv.cpp ****     tcb->status = TCB::Status::BLOCKED;
 515:src/riscv.cpp **** 
 516:src/riscv.cpp ****     TCB::dispatch();
 517:src/riscv.cpp **** 
 518:src/riscv.cpp ****     uint64 status = 0;
 519:src/riscv.cpp **** 
 520:src/riscv.cpp ****     //return status
 521:src/riscv.cpp ****     asm("mv a0, %[status]" : : [status] "r" (status));
 522:src/riscv.cpp **** 
 523:src/riscv.cpp ****     RiscV::saveA0toSscratch();
 524:src/riscv.cpp **** }
 525:src/riscv.cpp **** 
 526:src/riscv.cpp **** void RiscV::executeGetcSyscall() {
 527:src/riscv.cpp **** 
 528:src/riscv.cpp ****     //register a pending getc call
 529:src/riscv.cpp ****     if(!userMainFinished)
GAS LISTING /tmp/ccZSci1i.s 			page 24


 530:src/riscv.cpp ****         ConsoleUtil::pendingGetc++;
 531:src/riscv.cpp **** 
 532:src/riscv.cpp ****     //get character from input buffer
 533:src/riscv.cpp ****     char c = ConsoleUtil::getInput();
 534:src/riscv.cpp **** 
 535:src/riscv.cpp ****     //if char == \n echo it as LF and CR
 536:src/riscv.cpp ****     if(c==13) {
 537:src/riscv.cpp ****         ConsoleUtil::putOutput(13);
 538:src/riscv.cpp ****         ConsoleUtil::putOutput(10);
 539:src/riscv.cpp ****     }
 540:src/riscv.cpp ****     //if not ESC character, echo it to console
 541:src/riscv.cpp ****     else if(c!=0x01b)
 542:src/riscv.cpp ****         ConsoleUtil::putOutput(c);
 543:src/riscv.cpp **** 
 544:src/riscv.cpp ****     //return character
 545:src/riscv.cpp ****     asm("mv a0, %[c]" : : [c] "r" (c));
 546:src/riscv.cpp **** 
 547:src/riscv.cpp ****     RiscV::saveA0toSscratch();
 548:src/riscv.cpp **** }
 549:src/riscv.cpp **** 
 550:src/riscv.cpp **** void RiscV::executePutcSyscall() {
 534              		.loc 1 550 34 is_stmt 1
 535              		.cfi_startproc
 536 0324 130101FF 		addi	sp,sp,-16
 537              		.cfi_def_cfa_offset 16
 538 0328 23341100 		sd	ra,8(sp)
 539 032c 23308100 		sd	s0,0(sp)
 540              		.cfi_offset 1, -8
 541              		.cfi_offset 8, -16
 542 0330 13040101 		addi	s0,sp,16
 543              		.cfi_def_cfa 8, 0
 551:src/riscv.cpp **** 
 552:src/riscv.cpp ****     //register a pending putc call
 553:src/riscv.cpp ****     if(!userMainFinished)
 544              		.loc 1 553 5
 545              		.loc 1 553 8 is_stmt 0
 546 0334 97070000 		lbu	a5,.LANCHOR0+8
 546      83C70700 
 547              		.loc 1 553 5
 548 033c 639C0700 		bnez	a5,.L23
 554:src/riscv.cpp ****         ConsoleUtil::pendingPutc++;
 549              		.loc 1 554 9 is_stmt 1
 550              		.loc 1 554 33 is_stmt 0
 551 0340 17070000 		la	a4,_ZN11ConsoleUtil11pendingPutcE
 551      03370700 
 552 0348 83370700 		ld	a5,0(a4)
 553 034c 93871700 		addi	a5,a5,1
 554 0350 2330F700 		sd	a5,0(a4)
 555              	.L23:
 555:src/riscv.cpp **** 
 556:src/riscv.cpp ****     char c;
 556              		.loc 1 556 5 is_stmt 1
 557:src/riscv.cpp **** 
 558:src/riscv.cpp ****     asm("mv %[c], a1" : [c] "=r"(c));
 557              		.loc 1 558 5
 558              		.loc 1 558 37 is_stmt 0
 559              	#APP
GAS LISTING /tmp/ccZSci1i.s 			page 25


 560              	# 558 "src/riscv.cpp" 1
 559              	
 561              		mv a0, a1
 562              	# 0 "" 2
 563              	.LVL55:
 560:src/riscv.cpp ****     //put character in output buffer
 561:src/riscv.cpp ****     ConsoleUtil::putOutput(c);
 564              		.loc 1 561 5 is_stmt 1
 565              		.loc 1 561 27 is_stmt 0
 566              	#NO_APP
 567 0358 1375F50F 		andi	a0,a0,0xff
 568 035c 97000000 		call	_ZN11ConsoleUtil9putOutputEc@plt
 568      E7800000 
 569              	.LVL56:
 562:src/riscv.cpp **** }
 570              		.loc 1 562 1
 571 0364 83308100 		ld	ra,8(sp)
 572              		.cfi_restore 1
 573 0368 03340100 		ld	s0,0(sp)
 574              		.cfi_restore 8
 575              		.cfi_def_cfa 2, 16
 576 036c 13010101 		addi	sp,sp,16
 577              		.cfi_def_cfa_offset 0
 578 0370 67800000 		jr	ra
 579              		.cfi_endproc
 580              	.LFE60:
 582              		.align	2
 583              		.globl	_ZN5RiscV11putcWrapperEPv
 585              	_ZN5RiscV11putcWrapperEPv:
 586              	.LFB61:
 563:src/riscv.cpp **** 
 564:src/riscv.cpp **** //wrapper function for putcThread
 565:src/riscv.cpp **** //spins in a while loop and checks whether console is ready to take output
 566:src/riscv.cpp **** //if ready read data from output buffer
 567:src/riscv.cpp **** void RiscV::putcWrapper(void* arg)
 568:src/riscv.cpp **** {
 587              		.loc 1 568 1 is_stmt 1
 588              		.cfi_startproc
 589              	.LVL57:
 590 0374 130101FE 		addi	sp,sp,-32
 591              		.cfi_def_cfa_offset 32
 592 0378 233C1100 		sd	ra,24(sp)
 593 037c 23388100 		sd	s0,16(sp)
 594              		.cfi_offset 1, -8
 595              		.cfi_offset 8, -16
 596 0380 13040102 		addi	s0,sp,32
 597              		.cfi_def_cfa 8, 0
 598 0384 6F00C000 		j	.L26
 599              	.LVL58:
 600              	.L27:
 601              	.LBB103:
 602              	.LBB104:
 569:src/riscv.cpp ****     while(true)
 570:src/riscv.cpp ****     {
 571:src/riscv.cpp ****         //read console status from status register
 572:src/riscv.cpp ****         uint64 status = CONSOLE_STATUS;
 573:src/riscv.cpp ****         asm("mv a0, %[status]" : : [status] "r" (status));
GAS LISTING /tmp/ccZSci1i.s 			page 26


 574:src/riscv.cpp ****         asm("lb a1, 0(a0)");
 575:src/riscv.cpp ****         asm("mv %[status], a1" : [status] "=r" (status));
 576:src/riscv.cpp **** 
 577:src/riscv.cpp ****         //if console ready..
 578:src/riscv.cpp ****         if(status & 1UL<<5){
 579:src/riscv.cpp **** 
 580:src/riscv.cpp ****             //get character from output buffer with possible block if nothing in buffer
 581:src/riscv.cpp ****                 char volatile c = ConsoleUtil::putcUtilSyscall();
 582:src/riscv.cpp ****                 uint64 data = CONSOLE_RX_DATA;
 583:src/riscv.cpp ****                 asm("mv a0, %[data]" : : [data] "r"(data));
 584:src/riscv.cpp ****                 asm("mv a1, %[c]" : : [c] "r"(c));
 585:src/riscv.cpp ****                 asm("sb a1,0(a0)");
 586:src/riscv.cpp **** 
 587:src/riscv.cpp ****             //decrement number of pending putc requests
 588:src/riscv.cpp ****             if(ConsoleUtil::pendingPutc>0)
 589:src/riscv.cpp ****                 ConsoleUtil::pendingPutc--;
 590:src/riscv.cpp ****         }
 591:src/riscv.cpp ****         else
 592:src/riscv.cpp ****             thread_dispatch();
 603              		.loc 1 592 13
 604              		.loc 1 592 28 is_stmt 0
 605 0388 97000000 		call	_Z15thread_dispatchv@plt
 605      E7800000 
 606              	.LVL59:
 607              	.L26:
 608              	.LBE104:
 609              	.LBE103:
 569:src/riscv.cpp ****     while(true)
 610              		.loc 1 569 5 is_stmt 1
 611              	.LBB107:
 572:src/riscv.cpp ****         asm("mv a0, %[status]" : : [status] "r" (status));
 612              		.loc 1 572 9
 572:src/riscv.cpp ****         asm("mv a0, %[status]" : : [status] "r" (status));
 613              		.loc 1 572 16 is_stmt 0
 614 0390 97070000 		la	a5,CONSOLE_STATUS
 614      83B70700 
 615 0398 83B70700 		ld	a5,0(a5)
 616              	.LVL60:
 573:src/riscv.cpp ****         asm("lb a1, 0(a0)");
 617              		.loc 1 573 9 is_stmt 1
 573:src/riscv.cpp ****         asm("lb a1, 0(a0)");
 618              		.loc 1 573 58 is_stmt 0
 619              	#APP
 620              	# 573 "src/riscv.cpp" 1
 574:src/riscv.cpp ****         asm("mv %[status], a1" : [status] "=r" (status));
 621              		mv a0, a5
 622              	# 0 "" 2
 623              		.loc 1 574 9 is_stmt 1
 574:src/riscv.cpp ****         asm("mv %[status], a1" : [status] "=r" (status));
 624              		.loc 1 574 28 is_stmt 0
 625              	# 574 "src/riscv.cpp" 1
 575:src/riscv.cpp **** 
 626              		lb a1, 0(a0)
 627              	# 0 "" 2
 628              		.loc 1 575 9 is_stmt 1
 575:src/riscv.cpp **** 
 629              		.loc 1 575 57 is_stmt 0
GAS LISTING /tmp/ccZSci1i.s 			page 27


 630              	# 575 "src/riscv.cpp" 1
 631              		mv a5, a1
 632              	# 0 "" 2
 633              	.LVL61:
 578:src/riscv.cpp **** 
 634              		.loc 1 578 9 is_stmt 1
 635              	#NO_APP
 636              	.LBB106:
 578:src/riscv.cpp **** 
 637              		.loc 1 578 19 is_stmt 0
 638 03a8 93F70702 		andi	a5,a5,32
 639              	.LVL62:
 578:src/riscv.cpp **** 
 640              		.loc 1 578 9
 641 03ac E38E07FC 		beqz	a5,.L27
 642              	.LBB105:
 581:src/riscv.cpp ****                 uint64 data = CONSOLE_RX_DATA;
 643              		.loc 1 581 17 is_stmt 1
 581:src/riscv.cpp ****                 uint64 data = CONSOLE_RX_DATA;
 644              		.loc 1 581 63 is_stmt 0
 645 03b0 97000000 		call	_ZN11ConsoleUtil15putcUtilSyscallEv@plt
 645      E7800000 
 646              	.LVL63:
 581:src/riscv.cpp ****                 uint64 data = CONSOLE_RX_DATA;
 647              		.loc 1 581 64
 648 03b8 A307A4FE 		sb	a0,-17(s0)
 582:src/riscv.cpp ****                 asm("mv a0, %[data]" : : [data] "r"(data));
 649              		.loc 1 582 17 is_stmt 1
 582:src/riscv.cpp ****                 asm("mv a0, %[data]" : : [data] "r"(data));
 650              		.loc 1 582 24 is_stmt 0
 651 03bc 97070000 		la	a5,CONSOLE_RX_DATA
 651      83B70700 
 652 03c4 83B70700 		ld	a5,0(a5)
 653              	.LVL64:
 583:src/riscv.cpp ****                 asm("mv a1, %[c]" : : [c] "r"(c));
 654              		.loc 1 583 17 is_stmt 1
 583:src/riscv.cpp ****                 asm("mv a1, %[c]" : : [c] "r"(c));
 655              		.loc 1 583 59 is_stmt 0
 656              	#APP
 657              	# 583 "src/riscv.cpp" 1
 584:src/riscv.cpp ****                 asm("sb a1,0(a0)");
 658              		mv a0, a5
 659              	# 0 "" 2
 660              		.loc 1 584 17 is_stmt 1
 584:src/riscv.cpp ****                 asm("sb a1,0(a0)");
 661              		.loc 1 584 47 is_stmt 0
 662              	#NO_APP
 663 03cc 8347F4FE 		lbu	a5,-17(s0)
 664              	.LVL65:
 584:src/riscv.cpp ****                 asm("sb a1,0(a0)");
 665              		.loc 1 584 50
 666              	#APP
 667              	# 584 "src/riscv.cpp" 1
 585:src/riscv.cpp **** 
 668              		mv a1, a5
 669              	# 0 "" 2
 670              		.loc 1 585 17 is_stmt 1
GAS LISTING /tmp/ccZSci1i.s 			page 28


 585:src/riscv.cpp **** 
 671              		.loc 1 585 35 is_stmt 0
 672              	# 585 "src/riscv.cpp" 1
 588:src/riscv.cpp ****                 ConsoleUtil::pendingPutc--;
 673              		sb a1,0(a0)
 674              	# 0 "" 2
 675              		.loc 1 588 13 is_stmt 1
 588:src/riscv.cpp ****                 ConsoleUtil::pendingPutc--;
 676              		.loc 1 588 40 is_stmt 0
 677              	#NO_APP
 678 03d8 97070000 		la	a5,_ZN11ConsoleUtil11pendingPutcE
 678      83B70700 
 679 03e0 83B70700 		ld	a5,0(a5)
 588:src/riscv.cpp ****                 ConsoleUtil::pendingPutc--;
 680              		.loc 1 588 13
 681 03e4 E38607FA 		beqz	a5,.L26
 589:src/riscv.cpp ****         }
 682              		.loc 1 589 17 is_stmt 1
 589:src/riscv.cpp ****         }
 683              		.loc 1 589 41 is_stmt 0
 684 03e8 9387F7FF 		addi	a5,a5,-1
 685 03ec 17070000 		la	a4,_ZN11ConsoleUtil11pendingPutcE
 685      03370700 
 686 03f4 2330F700 		sd	a5,0(a4)
 687 03f8 6FF09FF9 		j	.L26
 688              	.LBE105:
 689              	.LBE106:
 690              	.LBE107:
 691              		.cfi_endproc
 692              	.LFE61:
 694              		.align	2
 695              		.globl	_ZN5RiscV29jumpToDesignatedPrivilegeModeEv
 697              	_ZN5RiscV29jumpToDesignatedPrivilegeModeEv:
 698              	.LFB63:
 593:src/riscv.cpp ****     }
 594:src/riscv.cpp **** }
 595:src/riscv.cpp **** 
 596:src/riscv.cpp **** //utility syscall to get character from output buffer
 597:src/riscv.cpp **** //syscall is needed because we don't want to fiddle with kernel structures from anywhere but the tr
 598:src/riscv.cpp **** void RiscV::executePutcUtilSyscall() {
 599:src/riscv.cpp ****     char c = ConsoleUtil::getOutput();
 600:src/riscv.cpp ****     asm("mv a0, %[c]" : : [c] "r" ((uint64)(c)) );
 601:src/riscv.cpp **** 
 602:src/riscv.cpp ****     RiscV::saveA0toSscratch();
 603:src/riscv.cpp **** }
 604:src/riscv.cpp **** 
 605:src/riscv.cpp **** //return to privilege that was given at creation
 606:src/riscv.cpp **** void RiscV::jumpToDesignatedPrivilegeMode() {
 699              		.loc 1 606 45 is_stmt 1
 700              		.cfi_startproc
 701 03fc 130101FF 		addi	sp,sp,-16
 702              		.cfi_def_cfa_offset 16
 703 0400 23348100 		sd	s0,8(sp)
 704              		.cfi_offset 8, -8
 705 0404 13040101 		addi	s0,sp,16
 706              		.cfi_def_cfa 8, 0
 607:src/riscv.cpp ****     if(TCB::running->mode == TCB::Mode::SUPERVISOR) {
GAS LISTING /tmp/ccZSci1i.s 			page 29


 707              		.loc 1 607 5
 708              		.loc 1 607 22 is_stmt 0
 709 0408 97070000 		la	a5,_ZN3TCB7runningE
 709      83B70700 
 710 0410 83B70700 		ld	a5,0(a5)
 711 0414 03A74701 		lw	a4,20(a5)
 712              		.loc 1 607 5
 713 0418 93071000 		li	a5,1
 714 041c 630CF700 		beq	a4,a5,.L34
 608:src/riscv.cpp ****         RiscV::ms_sstatus(RiscV::SSTATUS_SPP);
 609:src/riscv.cpp ****     }
 610:src/riscv.cpp ****     else {
 611:src/riscv.cpp ****         RiscV::mc_sstatus(RiscV::SSTATUS_SPP);
 715              		.loc 1 611 9 is_stmt 1
 716              	.LVL66:
 717              	.LBB108:
 718              	.LBB109:
 182:src/../h/riscv.hpp **** }
 719              		.loc 2 182 5
 182:src/../h/riscv.hpp **** }
 720              		.loc 2 182 55 is_stmt 0
 721 0420 93070010 		li	a5,256
 722              	#APP
 723              	# 182 "src/../h/riscv.hpp" 1
 724              		csrc sstatus, a5
 725              	# 0 "" 2
 726              	.LVL67:
 727              	#NO_APP
 728              	.L30:
 729              	.LBE109:
 730              	.LBE108:
 612:src/riscv.cpp ****     }
 613:src/riscv.cpp **** }
 731              		.loc 1 613 1
 732 0428 03348100 		ld	s0,8(sp)
 733              		.cfi_remember_state
 734              		.cfi_restore 8
 735              		.cfi_def_cfa 2, 16
 736 042c 13010101 		addi	sp,sp,16
 737              		.cfi_def_cfa_offset 0
 738 0430 67800000 		jr	ra
 739              	.L34:
 740              		.cfi_restore_state
 608:src/riscv.cpp ****     }
 741              		.loc 1 608 9 is_stmt 1
 742              	.LVL68:
 743              	.LBB110:
 744              	.LBB111:
 178:src/../h/riscv.hpp **** }
 745              		.loc 2 178 5
 178:src/../h/riscv.hpp **** }
 746              		.loc 2 178 55 is_stmt 0
 747 0434 93070010 		li	a5,256
 748              	#APP
 749              	# 178 "src/../h/riscv.hpp" 1
 179:src/../h/riscv.hpp **** 
 750              		csrs sstatus, a5
GAS LISTING /tmp/ccZSci1i.s 			page 30


 751              	# 0 "" 2
 752              		.loc 2 179 1
 753              	#NO_APP
 754 043c 6FF0DFFE 		j	.L30
 755              	.LBE111:
 756              	.LBE110:
 757              		.cfi_endproc
 758              	.LFE63:
 760              		.align	2
 761              		.globl	_ZN5RiscV8finalizeEv
 763              	_ZN5RiscV8finalizeEv:
 764              	.LFB64:
 614:src/riscv.cpp **** 
 615:src/riscv.cpp **** 
 616:src/riscv.cpp **** //clear out the scheduler and let console finish remaining outputs if there are any
 617:src/riscv.cpp **** void RiscV::finalize() {
 765              		.loc 1 617 24 is_stmt 1
 766              		.cfi_startproc
 767 0440 130101FF 		addi	sp,sp,-16
 768              		.cfi_def_cfa_offset 16
 769 0444 23341100 		sd	ra,8(sp)
 770 0448 23308100 		sd	s0,0(sp)
 771              		.cfi_offset 1, -8
 772              		.cfi_offset 8, -16
 773 044c 13040101 		addi	s0,sp,16
 774              		.cfi_def_cfa 8, 0
 618:src/riscv.cpp ****     userMainFinished = true;
 775              		.loc 1 618 5
 776              		.loc 1 618 22 is_stmt 0
 777 0450 93071000 		li	a5,1
 778 0454 17070000 		sb	a5,.LANCHOR0+8,a4
 778      2300F700 
 619:src/riscv.cpp **** 
 620:src/riscv.cpp ****     ConsoleUtil::pendingPutc = 0;
 779              		.loc 1 620 5 is_stmt 1
 780              		.loc 1 620 30 is_stmt 0
 781 045c 97070000 		la	a5,_ZN11ConsoleUtil11pendingPutcE
 781      83B70700 
 782 0464 23B00700 		sd	zero,0(a5)
 621:src/riscv.cpp ****     ConsoleUtil::pendingGetc = 0;
 783              		.loc 1 621 5 is_stmt 1
 784              		.loc 1 621 30 is_stmt 0
 785 0468 97070000 		la	a5,_ZN11ConsoleUtil11pendingGetcE
 785      83B70700 
 786 0470 23B00700 		sd	zero,0(a5)
 622:src/riscv.cpp **** 
 623:src/riscv.cpp ****     RiscV::disableInterrupts();
 787              		.loc 1 623 5 is_stmt 1
 788              	.LBB112:
 789              	.LBB113:
 205:src/../h/riscv.hpp **** }
 206:src/../h/riscv.hpp **** 
 207:src/../h/riscv.hpp **** inline void RiscV::disableInterrupts() {
 208:src/../h/riscv.hpp ****     disableTimerInterrupts();
 790              		.loc 2 208 5
 791              	.LBE113:
 792              	.LBE112:
GAS LISTING /tmp/ccZSci1i.s 			page 31


 209:src/../h/riscv.hpp ****     disableHardwareInterrupts();
 210:src/../h/riscv.hpp **** }
 211:src/../h/riscv.hpp **** 
 212:src/../h/riscv.hpp **** inline void RiscV::enableHardwareInterrupts() {
 213:src/../h/riscv.hpp ****     RiscV::mc_sie(SIP_SSIE);
 214:src/../h/riscv.hpp ****     RiscV::ms_sstatus(SSTATUS_SIE);
 215:src/../h/riscv.hpp ****     RiscV::ms_sie(SIP_SEIE);
 216:src/../h/riscv.hpp **** }
 217:src/../h/riscv.hpp **** 
 218:src/../h/riscv.hpp **** inline void RiscV::disableHardwareInterrupts(){
 219:src/../h/riscv.hpp ****     RiscV::mc_sie(SIP_SEIE);
 220:src/../h/riscv.hpp **** }
 221:src/../h/riscv.hpp **** 
 222:src/../h/riscv.hpp **** inline void RiscV::enableTimerInterrupts() {
 223:src/../h/riscv.hpp ****     RiscV::mc_sie(SIP_SEIE);
 224:src/../h/riscv.hpp ****     RiscV::ms_sstatus(SSTATUS_SIE);
 225:src/../h/riscv.hpp ****     RiscV::ms_sie(SIP_SSIE);
 226:src/../h/riscv.hpp **** }
 227:src/../h/riscv.hpp **** 
 228:src/../h/riscv.hpp **** inline void RiscV::disableTimerInterrupts(){
 229:src/../h/riscv.hpp ****     RiscV::mc_sie(SIP_SSIE);
 793              		.loc 2 229 5
 794              	.LVL69:
 795              	.LBB122:
 796              	.LBB120:
 797              	.LBB114:
 798              	.LBB115:
 799              	.LBB116:
 198:src/../h/riscv.hpp **** }
 800              		.loc 2 198 5
 198:src/../h/riscv.hpp **** }
 801              		.loc 2 198 51 is_stmt 0
 802 0474 93072000 		li	a5,2
 803              	#APP
 804              	# 198 "src/../h/riscv.hpp" 1
 805              		csrc sie, a5
 806              	# 0 "" 2
 807              	.LVL70:
 808              	#NO_APP
 809              	.LBE116:
 810              	.LBE115:
 811              	.LBE114:
 209:src/../h/riscv.hpp ****     disableHardwareInterrupts();
 812              		.loc 2 209 5 is_stmt 1
 813              	.LBE120:
 814              	.LBE122:
 219:src/../h/riscv.hpp **** }
 815              		.loc 2 219 5
 816              	.LBB123:
 817              	.LBB121:
 818              	.LBB117:
 819              	.LBB118:
 820              	.LBB119:
 198:src/../h/riscv.hpp **** }
 821              		.loc 2 198 5
 198:src/../h/riscv.hpp **** }
 822              		.loc 2 198 51 is_stmt 0
GAS LISTING /tmp/ccZSci1i.s 			page 32


 823 047c 93070020 		li	a5,512
 824              	#APP
 825              	# 198 "src/../h/riscv.hpp" 1
 826              		csrc sie, a5
 827              	# 0 "" 2
 828              	.LVL71:
 829              	#NO_APP
 830              	.L37:
 831              	.LBE119:
 832              	.LBE118:
 833              	.LBE117:
 834              	.LBE121:
 835              	.LBE123:
 624:src/riscv.cpp **** 
 625:src/riscv.cpp ****     while(Scheduler::readyHead != nullptr)
 836              		.loc 1 625 5 is_stmt 1
 837              		.loc 1 625 32
 838 0484 97070000 		la	a5,_ZN9Scheduler9readyHeadE
 838      83B70700 
 839 048c 83B70700 		ld	a5,0(a5)
 840 0490 638C0700 		beqz	a5,.L36
 626:src/riscv.cpp ****         Scheduler::readyHead = Scheduler::readyHead->next;
 841              		.loc 1 626 9
 842              		.loc 1 626 54 is_stmt 0
 843 0494 03B78704 		ld	a4,72(a5)
 844              		.loc 1 626 30
 845 0498 97070000 		la	a5,_ZN9Scheduler9readyHeadE
 845      83B70700 
 846 04a0 23B0E700 		sd	a4,0(a5)
 625:src/riscv.cpp ****         Scheduler::readyHead = Scheduler::readyHead->next;
 847              		.loc 1 625 5
 848 04a4 6FF01FFE 		j	.L37
 849              	.L36:
 627:src/riscv.cpp **** 
 628:src/riscv.cpp ****     Scheduler::put(TCB::putcThread);
 850              		.loc 1 628 5 is_stmt 1
 851              		.loc 1 628 19 is_stmt 0
 852 04a8 97070000 		la	a5,_ZN3TCB10putcThreadE
 852      83B70700 
 853 04b0 03B50700 		ld	a0,0(a5)
 854 04b4 97000000 		call	_ZN9Scheduler3putEP3TCB@plt
 854      E7800000 
 855              	.LVL72:
 856              	.L39:
 629:src/riscv.cpp **** 
 630:src/riscv.cpp ****     while(ConsoleUtil::outputHead != ConsoleUtil::outputTail)
 857              		.loc 1 630 5 is_stmt 1
 858              		.loc 1 630 35
 859 04bc 97070000 		la	a5,_ZN11ConsoleUtil10outputHeadE
 859      83B70700 
 860 04c4 03B70700 		ld	a4,0(a5)
 861 04c8 97070000 		la	a5,_ZN11ConsoleUtil10outputTailE
 861      83B70700 
 862 04d0 83B70700 		ld	a5,0(a5)
 863 04d4 6308F700 		beq	a4,a5,.L35
 631:src/riscv.cpp ****         thread_dispatch();
 864              		.loc 1 631 9
GAS LISTING /tmp/ccZSci1i.s 			page 33


 865              		.loc 1 631 24 is_stmt 0
 866 04d8 97000000 		call	_Z15thread_dispatchv@plt
 866      E7800000 
 867              	.LVL73:
 630:src/riscv.cpp ****         thread_dispatch();
 868              		.loc 1 630 5
 869 04e0 6FF0DFFD 		j	.L39
 870              	.L35:
 632:src/riscv.cpp **** }
 871              		.loc 1 632 1
 872 04e4 83308100 		ld	ra,8(sp)
 873              		.cfi_restore 1
 874 04e8 03340100 		ld	s0,0(sp)
 875              		.cfi_restore 8
 876              		.cfi_def_cfa 2, 16
 877 04ec 13010101 		addi	sp,sp,16
 878              		.cfi_def_cfa_offset 0
 879 04f0 67800000 		jr	ra
 880              		.cfi_endproc
 881              	.LFE64:
 883              		.align	2
 884              		.globl	_ZN5RiscV16saveA0toSscratchEv
 886              	_ZN5RiscV16saveA0toSscratchEv:
 887              	.LFB65:
 633:src/riscv.cpp **** 
 634:src/riscv.cpp **** //write value in a0 to a memory location where a0 is store on stack for currently running thread
 635:src/riscv.cpp **** void RiscV::saveA0toSscratch()
 636:src/riscv.cpp **** {
 888              		.loc 1 636 1 is_stmt 1
 889              		.cfi_startproc
 890 04f4 130101FF 		addi	sp,sp,-16
 891              		.cfi_def_cfa_offset 16
 892 04f8 23348100 		sd	s0,8(sp)
 893              		.cfi_offset 8, -8
 894 04fc 13040101 		addi	s0,sp,16
 895              		.cfi_def_cfa 8, 0
 637:src/riscv.cpp ****     uint64 a1;
 896              		.loc 1 637 5
 638:src/riscv.cpp ****     asm("mv %[a1], a1": [a1] "=r"(a1));
 897              		.loc 1 638 5
 898              		.loc 1 638 39 is_stmt 0
 899              	#APP
 900              	# 638 "src/riscv.cpp" 1
 639              	    asm("mv a1, %[a0]" : :  [a0] "r"(TCB::running->a0Location));
 901              		mv a5, a1
 902              	# 0 "" 2
 903              		.loc 1 639 5 is_stmt 1
 904              		.loc 1 639 52 is_stmt 0
 905              	#NO_APP
 906 0504 17070000 		la	a4,_ZN3TCB7runningE
 906      03370700 
 907 050c 03370700 		ld	a4,0(a4)
 908 0510 03378706 		ld	a4,104(a4)
 909              		.loc 1 639 64
 910              	#APP
 911              	# 639 "src/riscv.cpp" 1
 640              	    asm("sd a0, 80(a1)");
GAS LISTING /tmp/ccZSci1i.s 			page 34


 912              		mv a1, a4
 913              	# 0 "" 2
 914              		.loc 1 640 5 is_stmt 1
 915              		.loc 1 640 25 is_stmt 0
 916              	# 640 "src/riscv.cpp" 1
 641              	    asm("mv a1,%[a1]"::  [a1]"r"(a1));
 917              		sd a0, 80(a1)
 918              	# 0 "" 2
 919              		.loc 1 641 5 is_stmt 1
 920              		.loc 1 641 38 is_stmt 0
 921              	# 641 "src/riscv.cpp" 1
 642              	}
 922              		mv a1,a5
 923              	# 0 "" 2
 924              		.loc 1 642 1
 925              	#NO_APP
 926 0520 03348100 		ld	s0,8(sp)
 927              		.cfi_restore 8
 928              		.cfi_def_cfa 2, 16
 929 0524 13010101 		addi	sp,sp,16
 930              		.cfi_def_cfa_offset 0
 931 0528 67800000 		jr	ra
 932              		.cfi_endproc
 933              	.LFE65:
 935              		.align	2
 936              		.globl	_ZN5RiscV22executeMemAllocSyscallEv
 938              	_ZN5RiscV22executeMemAllocSyscallEv:
 939              	.LFB47:
 252:src/riscv.cpp **** 
 940              		.loc 1 252 37 is_stmt 1
 941              		.cfi_startproc
 942 052c 130101FF 		addi	sp,sp,-16
 943              		.cfi_def_cfa_offset 16
 944 0530 23341100 		sd	ra,8(sp)
 945 0534 23308100 		sd	s0,0(sp)
 946              		.cfi_offset 1, -8
 947              		.cfi_offset 8, -16
 948 0538 13040101 		addi	s0,sp,16
 949              		.cfi_def_cfa 8, 0
 255:src/riscv.cpp ****     asm("mv %[size], a1" : [size] "=r" (size));
 950              		.loc 1 255 5
 256:src/riscv.cpp **** 
 951              		.loc 1 256 5
 256:src/riscv.cpp **** 
 952              		.loc 1 256 47 is_stmt 0
 953              	#APP
 954              	# 256 "src/riscv.cpp" 1
 955              		mv a0, a1
 956              	# 0 "" 2
 957              	.LVL74:
 259:src/riscv.cpp **** 
 958              		.loc 1 259 5 is_stmt 1
 259:src/riscv.cpp **** 
 959              		.loc 1 259 50 is_stmt 0
 960              	#NO_APP
 961 0540 97000000 		call	_ZN15MemoryAllocator7kmallocEm@plt
 961      E7800000 
GAS LISTING /tmp/ccZSci1i.s 			page 35


 962              	.LVL75:
 261:src/riscv.cpp **** 
 963              		.loc 1 261 5 is_stmt 1
 261:src/riscv.cpp **** 
 964              		.loc 1 261 48 is_stmt 0
 965              	#APP
 966              	# 261 "src/riscv.cpp" 1
 263:src/riscv.cpp **** }
 967              		mv a0, a0
 968              	# 0 "" 2
 969              		.loc 1 263 5 is_stmt 1
 263:src/riscv.cpp **** }
 970              		.loc 1 263 28 is_stmt 0
 971              	#NO_APP
 972 054c 97000000 		call	_ZN5RiscV16saveA0toSscratchEv
 972      E7800000 
 973              	.LVL76:
 264:src/riscv.cpp **** 
 974              		.loc 1 264 1
 975 0554 83308100 		ld	ra,8(sp)
 976              		.cfi_restore 1
 977 0558 03340100 		ld	s0,0(sp)
 978              		.cfi_restore 8
 979              		.cfi_def_cfa 2, 16
 980 055c 13010101 		addi	sp,sp,16
 981              		.cfi_def_cfa_offset 0
 982 0560 67800000 		jr	ra
 983              		.cfi_endproc
 984              	.LFE47:
 986              		.align	2
 987              		.globl	_ZN5RiscV21executeMemFreeSyscallEv
 989              	_ZN5RiscV21executeMemFreeSyscallEv:
 990              	.LFB48:
 266:src/riscv.cpp **** 
 991              		.loc 1 266 37 is_stmt 1
 992              		.cfi_startproc
 993 0564 130101FF 		addi	sp,sp,-16
 994              		.cfi_def_cfa_offset 16
 995 0568 23341100 		sd	ra,8(sp)
 996 056c 23308100 		sd	s0,0(sp)
 997              		.cfi_offset 1, -8
 998              		.cfi_offset 8, -16
 999 0570 13040101 		addi	s0,sp,16
 1000              		.cfi_def_cfa 8, 0
 269:src/riscv.cpp **** 
 1001              		.loc 1 269 5
 272:src/riscv.cpp ****         //call internal allocator and free memory which iaddr points to
 1002              		.loc 1 272 5
 1003 0574 97070000 		la	a5,_ZN15MemoryAllocator11initializedE
 1003      83B70700 
 1004 057c 83C70700 		lbu	a5,0(a5)
 1005 0580 63920702 		bnez	a5,.L49
 278:src/riscv.cpp **** 
 1006              		.loc 1 278 16 is_stmt 0
 1007 0584 1305F0FF 		li	a0,-1
 1008              	.L46:
 1009              	.LVL77:
GAS LISTING /tmp/ccZSci1i.s 			page 36


 281:src/riscv.cpp **** 
 1010              		.loc 1 281 5 is_stmt 1
 281:src/riscv.cpp **** 
 1011              		.loc 1 281 54 is_stmt 0
 1012              	#APP
 1013              	# 281 "src/riscv.cpp" 1
 283:src/riscv.cpp **** }
 1014              		mv a0, a0
 1015              	# 0 "" 2
 1016              		.loc 1 283 5 is_stmt 1
 283:src/riscv.cpp **** }
 1017              		.loc 1 283 28 is_stmt 0
 1018              	#NO_APP
 1019 058c 97000000 		call	_ZN5RiscV16saveA0toSscratchEv
 1019      E7800000 
 1020              	.LVL78:
 284:src/riscv.cpp **** 
 1021              		.loc 1 284 1
 1022 0594 83308100 		ld	ra,8(sp)
 1023              		.cfi_remember_state
 1024              		.cfi_restore 1
 1025 0598 03340100 		ld	s0,0(sp)
 1026              		.cfi_restore 8
 1027              		.cfi_def_cfa 2, 16
 1028 059c 13010101 		addi	sp,sp,16
 1029              		.cfi_def_cfa_offset 0
 1030 05a0 67800000 		jr	ra
 1031              	.L49:
 1032              		.cfi_restore_state
 274:src/riscv.cpp ****         status = MemoryAllocator::kfree((void *) iaddr);;
 1033              		.loc 1 274 9 is_stmt 1
 274:src/riscv.cpp ****         status = MemoryAllocator::kfree((void *) iaddr);;
 1034              		.loc 1 274 53 is_stmt 0
 1035              	#APP
 1036              	# 274 "src/riscv.cpp" 1
 1037              		mv a0, a1
 1038              	# 0 "" 2
 1039              	.LVL79:
 275:src/riscv.cpp ****     }
 1040              		.loc 1 275 9 is_stmt 1
 275:src/riscv.cpp ****     }
 1041              		.loc 1 275 40 is_stmt 0
 1042              	#NO_APP
 1043 05a8 97000000 		call	_ZN15MemoryAllocator5kfreeEPv@plt
 1043      E7800000 
 1044              	.LVL80:
 275:src/riscv.cpp ****     }
 1045              		.loc 1 275 57 is_stmt 1
 1046 05b0 6FF09FFD 		j	.L46
 1047              		.cfi_endproc
 1048              	.LFE48:
 1050              		.align	2
 1051              		.globl	_ZN5RiscV26executeThreadCreateSyscallEv
 1053              	_ZN5RiscV26executeThreadCreateSyscallEv:
 1054              	.LFB49:
 286:src/riscv.cpp **** 
 1055              		.loc 1 286 41
GAS LISTING /tmp/ccZSci1i.s 			page 37


 1056              		.cfi_startproc
 1057              		.cfi_personality 0x9b,DW.ref.__gxx_personality_v0
 1058              		.cfi_lsda 0x1b,.LLSDA49
 1059 05b4 130101FC 		addi	sp,sp,-64
 1060              		.cfi_def_cfa_offset 64
 1061 05b8 233C1102 		sd	ra,56(sp)
 1062 05bc 23388102 		sd	s0,48(sp)
 1063 05c0 23349102 		sd	s1,40(sp)
 1064 05c4 23302103 		sd	s2,32(sp)
 1065 05c8 233C3101 		sd	s3,24(sp)
 1066 05cc 23384101 		sd	s4,16(sp)
 1067 05d0 23345101 		sd	s5,8(sp)
 1068              		.cfi_offset 1, -8
 1069              		.cfi_offset 8, -16
 1070              		.cfi_offset 9, -24
 1071              		.cfi_offset 18, -32
 1072              		.cfi_offset 19, -40
 1073              		.cfi_offset 20, -48
 1074              		.cfi_offset 21, -56
 1075 05d4 13040104 		addi	s0,sp,64
 1076              		.cfi_def_cfa 8, 0
 289:src/riscv.cpp **** 
 1077              		.loc 1 289 5
 291:src/riscv.cpp ****     asm("mv %[ihandle], a1" : [ihandle] "=r"(ihandle));
 1078              		.loc 1 291 5
 291:src/riscv.cpp ****     asm("mv %[ihandle], a1" : [ihandle] "=r"(ihandle));
 1079              		.loc 1 291 52 is_stmt 0
 1080              	#APP
 1081              	# 291 "src/riscv.cpp" 1
 1082              		mv s5, a7
 1083              	# 0 "" 2
 1084              	.LVL81:
 292:src/riscv.cpp ****     asm("mv %[iroutine], a2" : [iroutine] "=r"(iroutine));
 1085              		.loc 1 292 5 is_stmt 1
 292:src/riscv.cpp ****     asm("mv %[iroutine], a2" : [iroutine] "=r"(iroutine));
 1086              		.loc 1 292 55 is_stmt 0
 1087              	# 292 "src/riscv.cpp" 1
 1088              		mv s2, a1
 1089              	# 0 "" 2
 1090              	.LVL82:
 293:src/riscv.cpp ****     asm("mv %[iargs], a3" : [iargs] "=r"(iargs));
 1091              		.loc 1 293 5 is_stmt 1
 293:src/riscv.cpp ****     asm("mv %[iargs], a3" : [iargs] "=r"(iargs));
 1092              		.loc 1 293 58 is_stmt 0
 1093              	# 293 "src/riscv.cpp" 1
 1094              		mv s3, a2
 1095              	# 0 "" 2
 1096              	.LVL83:
 294:src/riscv.cpp **** 
 1097              		.loc 1 294 5 is_stmt 1
 294:src/riscv.cpp **** 
 1098              		.loc 1 294 49 is_stmt 0
 1099              	# 294 "src/riscv.cpp" 1
 1100              		mv s4, a3
 1101              	# 0 "" 2
 1102              	.LVL84:
 297:src/riscv.cpp **** 
GAS LISTING /tmp/ccZSci1i.s 			page 38


 1103              		.loc 1 297 5 is_stmt 1
 297:src/riscv.cpp **** 
 1104              		.loc 1 297 94 is_stmt 0
 1105              	#NO_APP
 1106 05e8 13050007 		li	a0,112
 1107              	.LEHB0:
 1108 05ec 97000000 		call	_ZN3TCBnwEm@plt
 1108      E7800000 
 1109              	.LVL85:
 1110              	.LEHE0:
 1111 05f4 93040500 		mv	s1,a0
 1112 05f8 630E0500 		beqz	a0,.L51
 297:src/riscv.cpp **** 
 1113              		.loc 1 297 94 discriminator 1
 1114 05fc 13072000 		li	a4,2
 1115 0600 93860A00 		mv	a3,s5
 1116 0604 13060A00 		mv	a2,s4
 1117 0608 93850900 		mv	a1,s3
 1118              	.LEHB1:
 1119 060c 97000000 		call	_ZN3TCBC1EPFvPvES0_Pmm@plt
 1119      E7800000 
 1120              	.LVL86:
 1121              	.LEHE1:
 1122              	.L51:
 299:src/riscv.cpp **** 
 1123              		.loc 1 299 5 is_stmt 1 discriminator 6
 301:src/riscv.cpp ****         status = -1;
 1124              		.loc 1 301 5 discriminator 6
 1125 0614 63880404 		beqz	s1,.L55
 305:src/riscv.cpp ****             Scheduler::put(tcb);
 1126              		.loc 1 305 9
 305:src/riscv.cpp ****             Scheduler::put(tcb);
 1127              		.loc 1 305 17 is_stmt 0
 1128 0618 83B78401 		ld	a5,24(s1)
 305:src/riscv.cpp ****             Scheduler::put(tcb);
 1129              		.loc 1 305 9
 1130 061c 63880700 		beqz	a5,.L53
 306:src/riscv.cpp ****         *((TCB**)ihandle) = tcb;
 1131              		.loc 1 306 13 is_stmt 1
 306:src/riscv.cpp ****         *((TCB**)ihandle) = tcb;
 1132              		.loc 1 306 27 is_stmt 0
 1133 0620 13850400 		mv	a0,s1
 1134              	.LEHB2:
 1135 0624 97000000 		call	_ZN9Scheduler3putEP3TCB@plt
 1135      E7800000 
 1136              	.LVL87:
 1137              	.LEHE2:
 1138              	.L53:
 307:src/riscv.cpp ****     }
 1139              		.loc 1 307 9 is_stmt 1
 307:src/riscv.cpp ****     }
 1140              		.loc 1 307 27 is_stmt 0
 1141 062c 23309900 		sd	s1,0(s2)
 299:src/riscv.cpp **** 
 1142              		.loc 1 299 12
 1143 0630 93070000 		li	a5,0
 1144              	.L52:
GAS LISTING /tmp/ccZSci1i.s 			page 39


 1145              	.LVL88:
 311:src/riscv.cpp **** 
 1146              		.loc 1 311 5 is_stmt 1
 311:src/riscv.cpp **** 
 1147              		.loc 1 311 54 is_stmt 0
 1148              	#APP
 1149              	# 311 "src/riscv.cpp" 1
 313:src/riscv.cpp **** }
 1150              		mv a0, a5
 1151              	# 0 "" 2
 1152              		.loc 1 313 5 is_stmt 1
 313:src/riscv.cpp **** }
 1153              		.loc 1 313 28 is_stmt 0
 1154              	#NO_APP
 1155 0638 97000000 		call	_ZN5RiscV16saveA0toSscratchEv
 1155      E7800000 
 1156              	.LVL89:
 314:src/riscv.cpp **** 
 1157              		.loc 1 314 1
 1158 0640 83308103 		ld	ra,56(sp)
 1159              		.cfi_remember_state
 1160              		.cfi_restore 1
 1161 0644 03340103 		ld	s0,48(sp)
 1162              		.cfi_restore 8
 1163              		.cfi_def_cfa 2, 64
 1164 0648 83348102 		ld	s1,40(sp)
 1165              		.cfi_restore 9
 1166              	.LVL90:
 1167 064c 03390102 		ld	s2,32(sp)
 1168              		.cfi_restore 18
 1169              	.LVL91:
 1170 0650 83398101 		ld	s3,24(sp)
 1171              		.cfi_restore 19
 1172              	.LVL92:
 1173 0654 033A0101 		ld	s4,16(sp)
 1174              		.cfi_restore 20
 1175              	.LVL93:
 1176 0658 833A8100 		ld	s5,8(sp)
 1177              		.cfi_restore 21
 1178              	.LVL94:
 1179 065c 13010104 		addi	sp,sp,64
 1180              		.cfi_def_cfa_offset 0
 1181 0660 67800000 		jr	ra
 1182              	.LVL95:
 1183              	.L55:
 1184              		.cfi_restore_state
 302:src/riscv.cpp ****     }
 1185              		.loc 1 302 16
 1186 0664 9307F0FF 		li	a5,-1
 1187 0668 6FF0DFFC 		j	.L52
 1188              	.LVL96:
 1189              	.L56:
 1190 066c 13090500 		mv	s2,a0
 1191              	.LVL97:
 297:src/riscv.cpp **** 
 1192              		.loc 1 297 94
 1193 0670 13850400 		mv	a0,s1
GAS LISTING /tmp/ccZSci1i.s 			page 40


 1194 0674 97000000 		call	_ZN3TCBdlEPv@plt
 1194      E7800000 
 1195              	.LVL98:
 1196 067c 13050900 		mv	a0,s2
 1197              	.LEHB3:
 1198 0680 97000000 		call	_Unwind_Resume@plt
 1198      E7800000 
 1199              	.LVL99:
 1200              	.LEHE3:
 1201              		.cfi_endproc
 1202              	.LFE49:
 1203              		.globl	__gxx_personality_v0
 1204              		.section	.gcc_except_table,"a",@progbits
 1205              	.LLSDA49:
 1206 0000 FF       		.byte	0xff
 1207 0001 FF       		.byte	0xff
 1208 0002 03       		.byte	0x3
 1209 0003 34       		.byte	0x34
 1210 0004 00000000 		.4byte	.LEHB0-.LFB49
 1211 0008 00000000 		.4byte	.LEHE0-.LEHB0
 1212 000c 00000000 		.4byte	0
 1213 0010 00       		.byte	0
 1214 0011 00000000 		.4byte	.LEHB1-.LFB49
 1215 0015 00000000 		.4byte	.LEHE1-.LEHB1
 1216 0019 00000000 		.4byte	.L56-.LFB49
 1217 001d 00       		.byte	0
 1218 001e 00000000 		.4byte	.LEHB2-.LFB49
 1219 0022 00000000 		.4byte	.LEHE2-.LEHB2
 1220 0026 00000000 		.4byte	0
 1221 002a 00       		.byte	0
 1222 002b 00000000 		.4byte	.LEHB3-.LFB49
 1223 002f 00000000 		.4byte	.LEHE3-.LEHB3
 1224 0033 00000000 		.4byte	0
 1225 0037 00       		.byte	0
 1226              		.text
 1228              		.align	2
 1229              		.globl	_ZN5RiscV30executeThreadAttachBodySyscallEv
 1231              	_ZN5RiscV30executeThreadAttachBodySyscallEv:
 1232              	.LFB50:
 316:src/riscv.cpp **** 
 1233              		.loc 1 316 45 is_stmt 1
 1234              		.cfi_startproc
 1235              		.cfi_personality 0x9b,DW.ref.__gxx_personality_v0
 1236              		.cfi_lsda 0x1b,.LLSDA50
 1237 0688 130101FC 		addi	sp,sp,-64
 1238              		.cfi_def_cfa_offset 64
 1239 068c 233C1102 		sd	ra,56(sp)
 1240 0690 23388102 		sd	s0,48(sp)
 1241 0694 23349102 		sd	s1,40(sp)
 1242 0698 23302103 		sd	s2,32(sp)
 1243 069c 233C3101 		sd	s3,24(sp)
 1244 06a0 23384101 		sd	s4,16(sp)
 1245 06a4 23345101 		sd	s5,8(sp)
 1246              		.cfi_offset 1, -8
 1247              		.cfi_offset 8, -16
 1248              		.cfi_offset 9, -24
 1249              		.cfi_offset 18, -32
GAS LISTING /tmp/ccZSci1i.s 			page 41


 1250              		.cfi_offset 19, -40
 1251              		.cfi_offset 20, -48
 1252              		.cfi_offset 21, -56
 1253 06a8 13040104 		addi	s0,sp,64
 1254              		.cfi_def_cfa 8, 0
 319:src/riscv.cpp **** 
 1255              		.loc 1 319 5
 322:src/riscv.cpp ****     asm("mv %[ihandle], a1" : [ihandle] "=r"(ihandle));
 1256              		.loc 1 322 5
 322:src/riscv.cpp ****     asm("mv %[ihandle], a1" : [ihandle] "=r"(ihandle));
 1257              		.loc 1 322 52 is_stmt 0
 1258              	#APP
 1259              	# 322 "src/riscv.cpp" 1
 1260              		mv s5, a7
 1261              	# 0 "" 2
 1262              	.LVL100:
 323:src/riscv.cpp ****     asm("mv %[iroutine], a2" : [iroutine] "=r"(iroutine));
 1263              		.loc 1 323 5 is_stmt 1
 323:src/riscv.cpp ****     asm("mv %[iroutine], a2" : [iroutine] "=r"(iroutine));
 1264              		.loc 1 323 55 is_stmt 0
 1265              	# 323 "src/riscv.cpp" 1
 1266              		mv s4, a1
 1267              	# 0 "" 2
 1268              	.LVL101:
 324:src/riscv.cpp ****     asm("mv %[iargs], a3" : [iargs] "=r"(iargs));
 1269              		.loc 1 324 5 is_stmt 1
 324:src/riscv.cpp ****     asm("mv %[iargs], a3" : [iargs] "=r"(iargs));
 1270              		.loc 1 324 58 is_stmt 0
 1271              	# 324 "src/riscv.cpp" 1
 1272              		mv s3, a2
 1273              	# 0 "" 2
 1274              	.LVL102:
 325:src/riscv.cpp **** 
 1275              		.loc 1 325 5 is_stmt 1
 325:src/riscv.cpp **** 
 1276              		.loc 1 325 49 is_stmt 0
 1277              	# 325 "src/riscv.cpp" 1
 1278              		mv s2, a3
 1279              	# 0 "" 2
 1280              	.LVL103:
 327:src/riscv.cpp **** 
 1281              		.loc 1 327 5 is_stmt 1
 327:src/riscv.cpp **** 
 1282              		.loc 1 327 94 is_stmt 0
 1283              	#NO_APP
 1284 06bc 13050007 		li	a0,112
 1285              	.LEHB4:
 1286 06c0 97000000 		call	_ZN3TCBnwEm@plt
 1286      E7800000 
 1287              	.LVL104:
 1288              	.LEHE4:
 1289 06c8 93040500 		mv	s1,a0
 1290 06cc 630E0500 		beqz	a0,.L60
 327:src/riscv.cpp **** 
 1291              		.loc 1 327 94 discriminator 1
 1292 06d0 13072000 		li	a4,2
 1293 06d4 93860A00 		mv	a3,s5
GAS LISTING /tmp/ccZSci1i.s 			page 42


 1294 06d8 13060900 		mv	a2,s2
 1295 06dc 93850900 		mv	a1,s3
 1296              	.LEHB5:
 1297 06e0 97000000 		call	_ZN3TCBC1EPFvPvES0_Pmm@plt
 1297      E7800000 
 1298              	.LVL105:
 1299              	.LEHE5:
 1300              	.L60:
 329:src/riscv.cpp **** 
 1301              		.loc 1 329 5 is_stmt 1 discriminator 6
 331:src/riscv.cpp ****         status = -1;
 1302              		.loc 1 331 5 discriminator 6
 1303 06e8 63820404 		beqz	s1,.L63
 335:src/riscv.cpp ****         tcb->args = (void*)iargs;
 1304              		.loc 1 335 9
 335:src/riscv.cpp ****         tcb->args = (void*)iargs;
 1305              		.loc 1 335 19 is_stmt 0
 1306 06ec 23BC3401 		sd	s3,24(s1)
 336:src/riscv.cpp ****         *((TCB**)ihandle) = tcb;
 1307              		.loc 1 336 9 is_stmt 1
 336:src/riscv.cpp ****         *((TCB**)ihandle) = tcb;
 1308              		.loc 1 336 19 is_stmt 0
 1309 06f0 23B02403 		sd	s2,32(s1)
 337:src/riscv.cpp ****     }
 1310              		.loc 1 337 9 is_stmt 1
 337:src/riscv.cpp ****     }
 1311              		.loc 1 337 27 is_stmt 0
 1312 06f4 23309A00 		sd	s1,0(s4)
 329:src/riscv.cpp **** 
 1313              		.loc 1 329 12
 1314 06f8 93070000 		li	a5,0
 1315              	.L61:
 1316              	.LVL106:
 340:src/riscv.cpp **** 
 1317              		.loc 1 340 5 is_stmt 1
 340:src/riscv.cpp **** 
 1318              		.loc 1 340 54 is_stmt 0
 1319              	#APP
 1320              	# 340 "src/riscv.cpp" 1
 342:src/riscv.cpp **** }
 1321              		mv a0, a5
 1322              	# 0 "" 2
 1323              		.loc 1 342 5 is_stmt 1
 342:src/riscv.cpp **** }
 1324              		.loc 1 342 28 is_stmt 0
 1325              	#NO_APP
 1326 0700 97000000 		call	_ZN5RiscV16saveA0toSscratchEv
 1326      E7800000 
 1327              	.LVL107:
 343:src/riscv.cpp **** 
 1328              		.loc 1 343 1
 1329 0708 83308103 		ld	ra,56(sp)
 1330              		.cfi_remember_state
 1331              		.cfi_restore 1
 1332 070c 03340103 		ld	s0,48(sp)
 1333              		.cfi_restore 8
 1334              		.cfi_def_cfa 2, 64
GAS LISTING /tmp/ccZSci1i.s 			page 43


 1335 0710 83348102 		ld	s1,40(sp)
 1336              		.cfi_restore 9
 1337              	.LVL108:
 1338 0714 03390102 		ld	s2,32(sp)
 1339              		.cfi_restore 18
 1340              	.LVL109:
 1341 0718 83398101 		ld	s3,24(sp)
 1342              		.cfi_restore 19
 1343              	.LVL110:
 1344 071c 033A0101 		ld	s4,16(sp)
 1345              		.cfi_restore 20
 1346              	.LVL111:
 1347 0720 833A8100 		ld	s5,8(sp)
 1348              		.cfi_restore 21
 1349              	.LVL112:
 1350 0724 13010104 		addi	sp,sp,64
 1351              		.cfi_def_cfa_offset 0
 1352 0728 67800000 		jr	ra
 1353              	.LVL113:
 1354              	.L63:
 1355              		.cfi_restore_state
 332:src/riscv.cpp ****     }
 1356              		.loc 1 332 16
 1357 072c 9307F0FF 		li	a5,-1
 1358 0730 6FF0DFFC 		j	.L61
 1359              	.LVL114:
 1360              	.L64:
 1361 0734 13090500 		mv	s2,a0
 1362              	.LVL115:
 327:src/riscv.cpp **** 
 1363              		.loc 1 327 94
 1364 0738 13850400 		mv	a0,s1
 1365 073c 97000000 		call	_ZN3TCBdlEPv@plt
 1365      E7800000 
 1366              	.LVL116:
 1367 0744 13050900 		mv	a0,s2
 1368              	.LEHB6:
 1369 0748 97000000 		call	_Unwind_Resume@plt
 1369      E7800000 
 1370              	.LVL117:
 1371              	.LEHE6:
 1372              		.cfi_endproc
 1373              	.LFE50:
 1374              		.section	.gcc_except_table
 1375              	.LLSDA50:
 1376 0038 FF       		.byte	0xff
 1377 0039 FF       		.byte	0xff
 1378 003a 03       		.byte	0x3
 1379 003b 27       		.byte	0x27
 1380 003c 00000000 		.4byte	.LEHB4-.LFB50
 1381 0040 00000000 		.4byte	.LEHE4-.LEHB4
 1382 0044 00000000 		.4byte	0
 1383 0048 00       		.byte	0
 1384 0049 00000000 		.4byte	.LEHB5-.LFB50
 1385 004d 00000000 		.4byte	.LEHE5-.LEHB5
 1386 0051 00000000 		.4byte	.L64-.LFB50
 1387 0055 00       		.byte	0
GAS LISTING /tmp/ccZSci1i.s 			page 44


 1388 0056 00000000 		.4byte	.LEHB6-.LFB50
 1389 005a 00000000 		.4byte	.LEHE6-.LEHB6
 1390 005e 00000000 		.4byte	0
 1391 0062 00       		.byte	0
 1392              		.text
 1394              		.align	2
 1395              		.globl	_ZN5RiscV25executeThreadStartSyscallEv
 1397              	_ZN5RiscV25executeThreadStartSyscallEv:
 1398              	.LFB51:
 345:src/riscv.cpp **** 
 1399              		.loc 1 345 40 is_stmt 1
 1400              		.cfi_startproc
 1401 0750 130101FF 		addi	sp,sp,-16
 1402              		.cfi_def_cfa_offset 16
 1403 0754 23341100 		sd	ra,8(sp)
 1404 0758 23308100 		sd	s0,0(sp)
 1405              		.cfi_offset 1, -8
 1406              		.cfi_offset 8, -16
 1407 075c 13040101 		addi	s0,sp,16
 1408              		.cfi_def_cfa 8, 0
 348:src/riscv.cpp **** 
 1409              		.loc 1 348 5
 350:src/riscv.cpp **** 
 1410              		.loc 1 350 5
 350:src/riscv.cpp **** 
 1411              		.loc 1 350 55 is_stmt 0
 1412              	#APP
 1413              	# 350 "src/riscv.cpp" 1
 1414              		mv a0, a1
 1415              	# 0 "" 2
 1416              	.LVL118:
 353:src/riscv.cpp **** 
 1417              		.loc 1 353 5 is_stmt 1
 355:src/riscv.cpp **** 
 1418              		.loc 1 355 5
 357:src/riscv.cpp ****         status = -1;
 1419              		.loc 1 357 5
 1420              	#NO_APP
 1421 0764 63120502 		bnez	a0,.L71
 358:src/riscv.cpp ****     }
 1422              		.loc 1 358 16 is_stmt 0
 1423 0768 9307F0FF 		li	a5,-1
 1424              	.LVL119:
 1425              	.L68:
 367:src/riscv.cpp **** 
 1426              		.loc 1 367 5 is_stmt 1
 367:src/riscv.cpp **** 
 1427              		.loc 1 367 54 is_stmt 0
 1428              	#APP
 1429              	# 367 "src/riscv.cpp" 1
 369:src/riscv.cpp **** }
 1430              		mv a0, a5
 1431              	# 0 "" 2
 1432              		.loc 1 369 5 is_stmt 1
 369:src/riscv.cpp **** }
 1433              		.loc 1 369 28 is_stmt 0
 1434              	#NO_APP
GAS LISTING /tmp/ccZSci1i.s 			page 45


 1435 0770 97000000 		call	_ZN5RiscV16saveA0toSscratchEv
 1435      E7800000 
 1436              	.LVL120:
 370:src/riscv.cpp **** 
 1437              		.loc 1 370 1
 1438 0778 83308100 		ld	ra,8(sp)
 1439              		.cfi_remember_state
 1440              		.cfi_restore 1
 1441 077c 03340100 		ld	s0,0(sp)
 1442              		.cfi_restore 8
 1443              		.cfi_def_cfa 2, 16
 1444 0780 13010101 		addi	sp,sp,16
 1445              		.cfi_def_cfa_offset 0
 1446 0784 67800000 		jr	ra
 1447              	.LVL121:
 1448              	.L71:
 1449              		.cfi_restore_state
 361:src/riscv.cpp ****         Scheduler::put(tcb);
 1450              		.loc 1 361 9 is_stmt 1
 361:src/riscv.cpp ****         Scheduler::put(tcb);
 1451              		.loc 1 361 21 is_stmt 0
 1452 0788 93071000 		li	a5,1
 1453 078c 2328F500 		sw	a5,16(a0)
 362:src/riscv.cpp ****         TCB::dispatch();
 1454              		.loc 1 362 9 is_stmt 1
 362:src/riscv.cpp ****         TCB::dispatch();
 1455              		.loc 1 362 23 is_stmt 0
 1456 0790 97000000 		call	_ZN9Scheduler3putEP3TCB@plt
 1456      E7800000 
 1457              	.LVL122:
 363:src/riscv.cpp ****     }
 1458              		.loc 1 363 9 is_stmt 1
 363:src/riscv.cpp ****     }
 1459              		.loc 1 363 22 is_stmt 0
 1460 0798 97000000 		call	_ZN3TCB8dispatchEv@plt
 1460      E7800000 
 1461              	.LVL123:
 355:src/riscv.cpp **** 
 1462              		.loc 1 355 12
 1463 07a0 93070000 		li	a5,0
 1464 07a4 6FF09FFC 		j	.L68
 1465              		.cfi_endproc
 1466              	.LFE51:
 1468              		.align	2
 1469              		.globl	_ZN5RiscV24executeThreadExitSyscallEv
 1471              	_ZN5RiscV24executeThreadExitSyscallEv:
 1472              	.LFB52:
 372:src/riscv.cpp **** 
 1473              		.loc 1 372 40 is_stmt 1
 1474              		.cfi_startproc
 1475 07a8 130101FF 		addi	sp,sp,-16
 1476              		.cfi_def_cfa_offset 16
 1477 07ac 23341100 		sd	ra,8(sp)
 1478 07b0 23308100 		sd	s0,0(sp)
 1479              		.cfi_offset 1, -8
 1480              		.cfi_offset 8, -16
 1481 07b4 13040101 		addi	s0,sp,16
GAS LISTING /tmp/ccZSci1i.s 			page 46


 1482              		.cfi_def_cfa 8, 0
 375:src/riscv.cpp **** 
 1483              		.loc 1 375 5
 1484              	.LVL124:
 378:src/riscv.cpp ****         status = -1;
 1485              		.loc 1 378 5
 1486              	.LBB124:
 378:src/riscv.cpp ****         status = -1;
 1487              		.loc 1 378 21 is_stmt 0
 1488 07b8 97070000 		la	a5,_ZN3TCB7runningE
 1488      83B70700 
 1489 07c0 83B70700 		ld	a5,0(a5)
 378:src/riscv.cpp ****         status = -1;
 1490              		.loc 1 378 5
 1491 07c4 638A0702 		beqz	a5,.L74
 1492              	.LBB125:
 382:src/riscv.cpp ****         old->status = TCB::Status::FINISHED;
 1493              		.loc 1 382 9 is_stmt 1
 1494              	.LVL125:
 383:src/riscv.cpp ****         TCB::dispatch();
 1495              		.loc 1 383 9
 383:src/riscv.cpp ****         TCB::dispatch();
 1496              		.loc 1 383 21 is_stmt 0
 1497 07c8 13072000 		li	a4,2
 1498 07cc 23A8E700 		sw	a4,16(a5)
 384:src/riscv.cpp ****     }
 1499              		.loc 1 384 9 is_stmt 1
 384:src/riscv.cpp ****     }
 1500              		.loc 1 384 22 is_stmt 0
 1501 07d0 97000000 		call	_ZN3TCB8dispatchEv@plt
 1501      E7800000 
 1502              	.LVL126:
 1503              	.LBE125:
 1504              	.LBE124:
 375:src/riscv.cpp **** 
 1505              		.loc 1 375 12
 1506 07d8 93070000 		li	a5,0
 1507              	.L73:
 1508              	.LVL127:
 387:src/riscv.cpp **** 
 1509              		.loc 1 387 5 is_stmt 1
 387:src/riscv.cpp **** 
 1510              		.loc 1 387 54 is_stmt 0
 1511              	#APP
 1512              	# 387 "src/riscv.cpp" 1
 389:src/riscv.cpp **** }
 1513              		mv a0, a5
 1514              	# 0 "" 2
 1515              		.loc 1 389 5 is_stmt 1
 389:src/riscv.cpp **** }
 1516              		.loc 1 389 28 is_stmt 0
 1517              	#NO_APP
 1518 07e0 97000000 		call	_ZN5RiscV16saveA0toSscratchEv
 1518      E7800000 
 1519              	.LVL128:
 390:src/riscv.cpp **** 
 1520              		.loc 1 390 1
GAS LISTING /tmp/ccZSci1i.s 			page 47


 1521 07e8 83308100 		ld	ra,8(sp)
 1522              		.cfi_remember_state
 1523              		.cfi_restore 1
 1524 07ec 03340100 		ld	s0,0(sp)
 1525              		.cfi_restore 8
 1526              		.cfi_def_cfa 2, 16
 1527 07f0 13010101 		addi	sp,sp,16
 1528              		.cfi_def_cfa_offset 0
 1529 07f4 67800000 		jr	ra
 1530              	.LVL129:
 1531              	.L74:
 1532              		.cfi_restore_state
 1533              	.LBB126:
 379:src/riscv.cpp ****     }
 1534              		.loc 1 379 16
 1535 07f8 9307F0FF 		li	a5,-1
 1536 07fc 6FF01FFE 		j	.L73
 1537              	.LBE126:
 1538              		.cfi_endproc
 1539              	.LFE52:
 1541              		.align	2
 1542              		.globl	_ZN5RiscV21executeSemOpenSyscallEv
 1544              	_ZN5RiscV21executeSemOpenSyscallEv:
 1545              	.LFB54:
 400:src/riscv.cpp **** 
 1546              		.loc 1 400 37 is_stmt 1
 1547              		.cfi_startproc
 1548              		.cfi_personality 0x9b,DW.ref.__gxx_personality_v0
 1549              		.cfi_lsda 0x1b,.LLSDA54
 1550 0800 130101FD 		addi	sp,sp,-48
 1551              		.cfi_def_cfa_offset 48
 1552 0804 23341102 		sd	ra,40(sp)
 1553 0808 23308102 		sd	s0,32(sp)
 1554 080c 233C9100 		sd	s1,24(sp)
 1555 0810 23382101 		sd	s2,16(sp)
 1556 0814 23343101 		sd	s3,8(sp)
 1557              		.cfi_offset 1, -8
 1558              		.cfi_offset 8, -16
 1559              		.cfi_offset 9, -24
 1560              		.cfi_offset 18, -32
 1561              		.cfi_offset 19, -40
 1562 0818 13040103 		addi	s0,sp,48
 1563              		.cfi_def_cfa 8, 0
 403:src/riscv.cpp **** 
 1564              		.loc 1 403 5
 405:src/riscv.cpp ****     asm("mv %[iinit], a2" : [iinit] "=r"(iinit));
 1565              		.loc 1 405 5
 405:src/riscv.cpp ****     asm("mv %[iinit], a2" : [iinit] "=r"(iinit));
 1566              		.loc 1 405 55 is_stmt 0
 1567              	#APP
 1568              	# 405 "src/riscv.cpp" 1
 1569              		mv s2, a1
 1570              	# 0 "" 2
 1571              	.LVL130:
 406:src/riscv.cpp **** 
 1572              		.loc 1 406 5 is_stmt 1
 406:src/riscv.cpp **** 
GAS LISTING /tmp/ccZSci1i.s 			page 48


 1573              		.loc 1 406 49 is_stmt 0
 1574              	# 406 "src/riscv.cpp" 1
 1575              		mv s3, a2
 1576              	# 0 "" 2
 1577              	.LVL131:
 409:src/riscv.cpp **** 
 1578              		.loc 1 409 5 is_stmt 1
 409:src/riscv.cpp **** 
 1579              		.loc 1 409 29 is_stmt 0
 1580              	#NO_APP
 1581 0824 13058001 		li	a0,24
 1582              	.LEHB7:
 1583 0828 97000000 		call	_ZN3SCBnwEm@plt
 1583      E7800000 
 1584              	.LVL132:
 1585              	.LEHE7:
 1586 0830 93040500 		mv	s1,a0
 1587 0834 63080500 		beqz	a0,.L77
 409:src/riscv.cpp **** 
 1588              		.loc 1 409 29 discriminator 1
 1589 0838 93850900 		mv	a1,s3
 1590              	.LEHB8:
 1591 083c 97000000 		call	_ZN3SCBC1Em@plt
 1591      E7800000 
 1592              	.LVL133:
 1593              	.LEHE8:
 1594              	.L77:
 411:src/riscv.cpp **** 
 1595              		.loc 1 411 5 is_stmt 1 discriminator 6
 413:src/riscv.cpp ****         status = -1;
 1596              		.loc 1 413 5 discriminator 6
 1597 0844 638A0402 		beqz	s1,.L80
 417:src/riscv.cpp ****     }
 1598              		.loc 1 417 9
 417:src/riscv.cpp ****     }
 1599              		.loc 1 417 27 is_stmt 0
 1600 0848 23309900 		sd	s1,0(s2)
 411:src/riscv.cpp **** 
 1601              		.loc 1 411 12
 1602 084c 93070000 		li	a5,0
 1603              	.L78:
 1604              	.LVL134:
 421:src/riscv.cpp **** 
 1605              		.loc 1 421 5 is_stmt 1
 421:src/riscv.cpp **** 
 1606              		.loc 1 421 54 is_stmt 0
 1607              	#APP
 1608              	# 421 "src/riscv.cpp" 1
 423:src/riscv.cpp **** 
 1609              		mv a0, a5
 1610              	# 0 "" 2
 1611              		.loc 1 423 5 is_stmt 1
 423:src/riscv.cpp **** 
 1612              		.loc 1 423 28 is_stmt 0
 1613              	#NO_APP
 1614 0854 97000000 		call	_ZN5RiscV16saveA0toSscratchEv
 1614      E7800000 
GAS LISTING /tmp/ccZSci1i.s 			page 49


 1615              	.LVL135:
 425:src/riscv.cpp **** 
 1616              		.loc 1 425 1
 1617 085c 83308102 		ld	ra,40(sp)
 1618              		.cfi_remember_state
 1619              		.cfi_restore 1
 1620 0860 03340102 		ld	s0,32(sp)
 1621              		.cfi_restore 8
 1622              		.cfi_def_cfa 2, 48
 1623 0864 83348101 		ld	s1,24(sp)
 1624              		.cfi_restore 9
 1625              	.LVL136:
 1626 0868 03390101 		ld	s2,16(sp)
 1627              		.cfi_restore 18
 1628              	.LVL137:
 1629 086c 83398100 		ld	s3,8(sp)
 1630              		.cfi_restore 19
 1631              	.LVL138:
 1632 0870 13010103 		addi	sp,sp,48
 1633              		.cfi_def_cfa_offset 0
 1634 0874 67800000 		jr	ra
 1635              	.LVL139:
 1636              	.L80:
 1637              		.cfi_restore_state
 414:src/riscv.cpp ****     }
 1638              		.loc 1 414 16
 1639 0878 9307F0FF 		li	a5,-1
 1640 087c 6FF05FFD 		j	.L78
 1641              	.LVL140:
 1642              	.L81:
 1643 0880 13090500 		mv	s2,a0
 1644              	.LVL141:
 409:src/riscv.cpp **** 
 1645              		.loc 1 409 29
 1646 0884 13850400 		mv	a0,s1
 1647 0888 97000000 		call	_ZN3SCBdlEPv@plt
 1647      E7800000 
 1648              	.LVL142:
 1649 0890 13050900 		mv	a0,s2
 1650              	.LEHB9:
 1651 0894 97000000 		call	_Unwind_Resume@plt
 1651      E7800000 
 1652              	.LVL143:
 1653              	.LEHE9:
 1654              		.cfi_endproc
 1655              	.LFE54:
 1656              		.section	.gcc_except_table
 1657              	.LLSDA54:
 1658 0063 FF       		.byte	0xff
 1659 0064 FF       		.byte	0xff
 1660 0065 03       		.byte	0x3
 1661 0066 27       		.byte	0x27
 1662 0067 00000000 		.4byte	.LEHB7-.LFB54
 1663 006b 00000000 		.4byte	.LEHE7-.LEHB7
 1664 006f 00000000 		.4byte	0
 1665 0073 00       		.byte	0
 1666 0074 00000000 		.4byte	.LEHB8-.LFB54
GAS LISTING /tmp/ccZSci1i.s 			page 50


 1667 0078 00000000 		.4byte	.LEHE8-.LEHB8
 1668 007c 00000000 		.4byte	.L81-.LFB54
 1669 0080 00       		.byte	0
 1670 0081 00000000 		.4byte	.LEHB9-.LFB54
 1671 0085 00000000 		.4byte	.LEHE9-.LEHB9
 1672 0089 00000000 		.4byte	0
 1673 008d 00       		.byte	0
 1674              		.text
 1676              		.align	2
 1677              		.globl	_ZN5RiscV22executeSemCloseSyscallEv
 1679              	_ZN5RiscV22executeSemCloseSyscallEv:
 1680              	.LFB55:
 427:src/riscv.cpp **** 
 1681              		.loc 1 427 38 is_stmt 1
 1682              		.cfi_startproc
 1683 089c 130101FE 		addi	sp,sp,-32
 1684              		.cfi_def_cfa_offset 32
 1685 08a0 233C1100 		sd	ra,24(sp)
 1686 08a4 23388100 		sd	s0,16(sp)
 1687 08a8 23349100 		sd	s1,8(sp)
 1688              		.cfi_offset 1, -8
 1689              		.cfi_offset 8, -16
 1690              		.cfi_offset 9, -24
 1691 08ac 13040102 		addi	s0,sp,32
 1692              		.cfi_def_cfa 8, 0
 430:src/riscv.cpp **** 
 1693              		.loc 1 430 5
 432:src/riscv.cpp **** 
 1694              		.loc 1 432 5
 432:src/riscv.cpp **** 
 1695              		.loc 1 432 55 is_stmt 0
 1696              	#APP
 1697              	# 432 "src/riscv.cpp" 1
 1698              		mv s1, a1
 1699              	# 0 "" 2
 1700              	.LVL144:
 435:src/riscv.cpp ****     uint64 status = 0;
 1701              		.loc 1 435 5 is_stmt 1
 436:src/riscv.cpp **** 
 1702              		.loc 1 436 5
 438:src/riscv.cpp ****         status = -1;
 1703              		.loc 1 438 5
 1704              	#NO_APP
 1705 08b4 63940402 		bnez	s1,.L88
 439:src/riscv.cpp ****     }
 1706              		.loc 1 439 16 is_stmt 0
 1707 08b8 9307F0FF 		li	a5,-1
 1708              	.L85:
 1709              	.LVL145:
 445:src/riscv.cpp **** 
 1710              		.loc 1 445 5 is_stmt 1
 445:src/riscv.cpp **** 
 1711              		.loc 1 445 54 is_stmt 0
 1712              	#APP
 1713              	# 445 "src/riscv.cpp" 1
 447:src/riscv.cpp **** }
 1714              		mv a0, a5
GAS LISTING /tmp/ccZSci1i.s 			page 51


 1715              	# 0 "" 2
 1716              		.loc 1 447 5 is_stmt 1
 447:src/riscv.cpp **** }
 1717              		.loc 1 447 28 is_stmt 0
 1718              	#NO_APP
 1719 08c0 97000000 		call	_ZN5RiscV16saveA0toSscratchEv
 1719      E7800000 
 1720              	.LVL146:
 448:src/riscv.cpp **** 
 1721              		.loc 1 448 1
 1722 08c8 83308101 		ld	ra,24(sp)
 1723              		.cfi_remember_state
 1724              		.cfi_restore 1
 1725 08cc 03340101 		ld	s0,16(sp)
 1726              		.cfi_restore 8
 1727              		.cfi_def_cfa 2, 32
 1728 08d0 83348100 		ld	s1,8(sp)
 1729              		.cfi_restore 9
 1730              	.LVL147:
 1731 08d4 13010102 		addi	sp,sp,32
 1732              		.cfi_def_cfa_offset 0
 1733 08d8 67800000 		jr	ra
 1734              	.LVL148:
 1735              	.L88:
 1736              		.cfi_restore_state
 442:src/riscv.cpp **** 
 1737              		.loc 1 442 9 is_stmt 1 discriminator 1
 442:src/riscv.cpp **** 
 1738              		.loc 1 442 22 is_stmt 0 discriminator 1
 1739 08dc 13850400 		mv	a0,s1
 1740 08e0 97000000 		call	_ZN3SCBD1Ev@plt
 1740      E7800000 
 1741              	.LVL149:
 1742 08e8 13850400 		mv	a0,s1
 1743 08ec 97000000 		call	_ZN3SCBdlEPv@plt
 1743      E7800000 
 1744              	.LVL150:
 436:src/riscv.cpp **** 
 1745              		.loc 1 436 12 discriminator 1
 1746 08f4 93070000 		li	a5,0
 1747 08f8 6FF05FFC 		j	.L85
 1748              		.cfi_endproc
 1749              	.LFE55:
 1751              		.align	2
 1752              		.globl	_ZN5RiscV21executeSemWaitSyscallEv
 1754              	_ZN5RiscV21executeSemWaitSyscallEv:
 1755              	.LFB56:
 450:src/riscv.cpp **** 
 1756              		.loc 1 450 37 is_stmt 1
 1757              		.cfi_startproc
 1758 08fc 130101FF 		addi	sp,sp,-16
 1759              		.cfi_def_cfa_offset 16
 1760 0900 23341100 		sd	ra,8(sp)
 1761 0904 23308100 		sd	s0,0(sp)
 1762              		.cfi_offset 1, -8
 1763              		.cfi_offset 8, -16
 1764 0908 13040101 		addi	s0,sp,16
GAS LISTING /tmp/ccZSci1i.s 			page 52


 1765              		.cfi_def_cfa 8, 0
 453:src/riscv.cpp **** 
 1766              		.loc 1 453 5
 455:src/riscv.cpp **** 
 1767              		.loc 1 455 5
 455:src/riscv.cpp **** 
 1768              		.loc 1 455 55 is_stmt 0
 1769              	#APP
 1770              	# 455 "src/riscv.cpp" 1
 1771              		mv a0, a1
 1772              	# 0 "" 2
 1773              	.LVL151:
 457:src/riscv.cpp ****     //call wait method on ihandle scb
 1774              		.loc 1 457 5 is_stmt 1
 460:src/riscv.cpp ****         ((SCB*)ihandle)->wait();
 1775              		.loc 1 460 5
 1776              	#NO_APP
 1777 0910 631C0502 		bnez	a0,.L94
 1778              	.LVL152:
 1779              	.L90:
 465:src/riscv.cpp ****         status = -1;
 1780              		.loc 1 465 5
 465:src/riscv.cpp ****         status = -1;
 1781              		.loc 1 465 22 is_stmt 0
 1782 0914 97070000 		la	a5,_ZN3TCB7runningE
 1782      83B70700 
 1783 091c 83B70700 		ld	a5,0(a5)
 1784 0920 83B70706 		ld	a5,96(a5)
 465:src/riscv.cpp ****         status = -1;
 1785              		.loc 1 465 5
 1786 0924 63880702 		beqz	a5,.L92
 466:src/riscv.cpp ****     else
 1787              		.loc 1 466 16
 1788 0928 9307F0FF 		li	a5,-1
 1789              	.L91:
 1790              	.LVL153:
 471:src/riscv.cpp **** 
 1791              		.loc 1 471 5 is_stmt 1
 471:src/riscv.cpp **** 
 1792              		.loc 1 471 54 is_stmt 0
 1793              	#APP
 1794              	# 471 "src/riscv.cpp" 1
 473:src/riscv.cpp **** 
 1795              		mv a0, a5
 1796              	# 0 "" 2
 1797              		.loc 1 473 5 is_stmt 1
 473:src/riscv.cpp **** 
 1798              		.loc 1 473 28 is_stmt 0
 1799              	#NO_APP
 1800 0930 97000000 		call	_ZN5RiscV16saveA0toSscratchEv
 1800      E7800000 
 1801              	.LVL154:
 475:src/riscv.cpp **** 
 1802              		.loc 1 475 1
 1803 0938 83308100 		ld	ra,8(sp)
 1804              		.cfi_remember_state
 1805              		.cfi_restore 1
GAS LISTING /tmp/ccZSci1i.s 			page 53


 1806 093c 03340100 		ld	s0,0(sp)
 1807              		.cfi_restore 8
 1808              		.cfi_def_cfa 2, 16
 1809 0940 13010101 		addi	sp,sp,16
 1810              		.cfi_def_cfa_offset 0
 1811 0944 67800000 		jr	ra
 1812              	.LVL155:
 1813              	.L94:
 1814              		.cfi_restore_state
 461:src/riscv.cpp ****     else
 1815              		.loc 1 461 9 is_stmt 1
 461:src/riscv.cpp ****     else
 1816              		.loc 1 461 30 is_stmt 0
 1817 0948 97000000 		call	_ZN3SCB4waitEv@plt
 1817      E7800000 
 1818              	.LVL156:
 1819 0950 6FF05FFC 		j	.L90
 1820              	.LVL157:
 1821              	.L92:
 468:src/riscv.cpp **** 
 1822              		.loc 1 468 16
 1823 0954 93070000 		li	a5,0
 1824 0958 6FF05FFD 		j	.L91
 1825              		.cfi_endproc
 1826              	.LFE56:
 1828              		.align	2
 1829              		.globl	_ZN5RiscV23executeSemSignalSyscallEv
 1831              	_ZN5RiscV23executeSemSignalSyscallEv:
 1832              	.LFB57:
 477:src/riscv.cpp **** 
 1833              		.loc 1 477 39 is_stmt 1
 1834              		.cfi_startproc
 1835 095c 130101FF 		addi	sp,sp,-16
 1836              		.cfi_def_cfa_offset 16
 1837 0960 23341100 		sd	ra,8(sp)
 1838 0964 23308100 		sd	s0,0(sp)
 1839              		.cfi_offset 1, -8
 1840              		.cfi_offset 8, -16
 1841 0968 13040101 		addi	s0,sp,16
 1842              		.cfi_def_cfa 8, 0
 480:src/riscv.cpp **** 
 1843              		.loc 1 480 5
 482:src/riscv.cpp **** 
 1844              		.loc 1 482 5
 482:src/riscv.cpp **** 
 1845              		.loc 1 482 55 is_stmt 0
 1846              	#APP
 1847              	# 482 "src/riscv.cpp" 1
 1848              		mv a0, a1
 1849              	# 0 "" 2
 1850              	.LVL158:
 486:src/riscv.cpp **** 
 1851              		.loc 1 486 5 is_stmt 1
 488:src/riscv.cpp ****         ((SCB*)ihandle)->signal();
 1852              		.loc 1 488 5
 1853              	#NO_APP
 1854 0970 63120502 		bnez	a0,.L99
GAS LISTING /tmp/ccZSci1i.s 			page 54


 491:src/riscv.cpp **** 
 1855              		.loc 1 491 16 is_stmt 0
 1856 0974 9307F0FF 		li	a5,-1
 1857              	.LVL159:
 1858              	.L96:
 494:src/riscv.cpp **** 
 1859              		.loc 1 494 5 is_stmt 1
 494:src/riscv.cpp **** 
 1860              		.loc 1 494 54 is_stmt 0
 1861              	#APP
 1862              	# 494 "src/riscv.cpp" 1
 496:src/riscv.cpp **** }
 1863              		mv a0, a5
 1864              	# 0 "" 2
 1865              		.loc 1 496 5 is_stmt 1
 496:src/riscv.cpp **** }
 1866              		.loc 1 496 28 is_stmt 0
 1867              	#NO_APP
 1868 097c 97000000 		call	_ZN5RiscV16saveA0toSscratchEv
 1868      E7800000 
 1869              	.LVL160:
 497:src/riscv.cpp **** 
 1870              		.loc 1 497 1
 1871 0984 83308100 		ld	ra,8(sp)
 1872              		.cfi_remember_state
 1873              		.cfi_restore 1
 1874 0988 03340100 		ld	s0,0(sp)
 1875              		.cfi_restore 8
 1876              		.cfi_def_cfa 2, 16
 1877 098c 13010101 		addi	sp,sp,16
 1878              		.cfi_def_cfa_offset 0
 1879 0990 67800000 		jr	ra
 1880              	.LVL161:
 1881              	.L99:
 1882              		.cfi_restore_state
 489:src/riscv.cpp ****     else
 1883              		.loc 1 489 9 is_stmt 1
 489:src/riscv.cpp ****     else
 1884              		.loc 1 489 32 is_stmt 0
 1885 0994 97000000 		call	_ZN3SCB6signalEv@plt
 1885      E7800000 
 1886              	.LVL162:
 486:src/riscv.cpp **** 
 1887              		.loc 1 486 12
 1888 099c 93070000 		li	a5,0
 1889 09a0 6FF09FFD 		j	.L96
 1890              		.cfi_endproc
 1891              	.LFE57:
 1893              		.align	2
 1894              		.globl	_ZN5RiscV23executeTimeSleepSyscallEv
 1896              	_ZN5RiscV23executeTimeSleepSyscallEv:
 1897              	.LFB58:
 499:src/riscv.cpp **** 
 1898              		.loc 1 499 39 is_stmt 1
 1899              		.cfi_startproc
 1900 09a4 130101FE 		addi	sp,sp,-32
 1901              		.cfi_def_cfa_offset 32
GAS LISTING /tmp/ccZSci1i.s 			page 55


 1902 09a8 233C1100 		sd	ra,24(sp)
 1903 09ac 23388100 		sd	s0,16(sp)
 1904 09b0 23349100 		sd	s1,8(sp)
 1905              		.cfi_offset 1, -8
 1906              		.cfi_offset 8, -16
 1907              		.cfi_offset 9, -24
 1908 09b4 13040102 		addi	s0,sp,32
 1909              		.cfi_def_cfa 8, 0
 502:src/riscv.cpp **** 
 1910              		.loc 1 502 5
 504:src/riscv.cpp **** 
 1911              		.loc 1 504 5
 504:src/riscv.cpp **** 
 1912              		.loc 1 504 49 is_stmt 0
 1913              	#APP
 1914              	# 504 "src/riscv.cpp" 1
 508:src/riscv.cpp ****     tcb->sleepTime = globalTime;
 1915              		mv a4, a1
 1916              	# 0 "" 2
 1917              		.loc 1 508 5 is_stmt 1
 508:src/riscv.cpp ****     tcb->sleepTime = globalTime;
 1918              		.loc 1 508 10 is_stmt 0
 1919              	#NO_APP
 1920 09bc 97070000 		la	a5,_ZN3TCB7runningE
 1920      83B70700 
 1921 09c4 83B40700 		ld	s1,0(a5)
 1922              	.LVL163:
 509:src/riscv.cpp ****     tcb->wakeTime = globalTime + itime;
 1923              		.loc 1 509 5 is_stmt 1
 509:src/riscv.cpp ****     tcb->wakeTime = globalTime + itime;
 1924              		.loc 1 509 20 is_stmt 0
 1925 09c8 97070000 		ld	a5,.LANCHOR0+16
 1925      83B70700 
 1926 09d0 23B8F404 		sd	a5,80(s1)
 510:src/riscv.cpp **** 
 1927              		.loc 1 510 5 is_stmt 1
 510:src/riscv.cpp **** 
 1928              		.loc 1 510 32 is_stmt 0
 1929 09d4 B387E700 		add	a5,a5,a4
 510:src/riscv.cpp **** 
 1930              		.loc 1 510 19
 1931 09d8 23BCF404 		sd	a5,88(s1)
 512:src/riscv.cpp **** 
 1932              		.loc 1 512 5 is_stmt 1
 512:src/riscv.cpp **** 
 1933              		.loc 1 512 21 is_stmt 0
 1934 09dc 13850400 		mv	a0,s1
 1935 09e0 97000000 		call	_ZN9Scheduler5sleepEP3TCB@plt
 1935      E7800000 
 1936              	.LVL164:
 514:src/riscv.cpp **** 
 1937              		.loc 1 514 5 is_stmt 1
 514:src/riscv.cpp **** 
 1938              		.loc 1 514 17 is_stmt 0
 1939 09e8 93073000 		li	a5,3
 1940 09ec 23A8F400 		sw	a5,16(s1)
 516:src/riscv.cpp **** 
GAS LISTING /tmp/ccZSci1i.s 			page 56


 1941              		.loc 1 516 5 is_stmt 1
 516:src/riscv.cpp **** 
 1942              		.loc 1 516 18 is_stmt 0
 1943 09f0 97000000 		call	_ZN3TCB8dispatchEv@plt
 1943      E7800000 
 1944              	.LVL165:
 518:src/riscv.cpp **** 
 1945              		.loc 1 518 5 is_stmt 1
 521:src/riscv.cpp **** 
 1946              		.loc 1 521 5
 521:src/riscv.cpp **** 
 1947              		.loc 1 521 54 is_stmt 0
 1948 09f8 93070000 		li	a5,0
 1949              	#APP
 1950              	# 521 "src/riscv.cpp" 1
 523:src/riscv.cpp **** }
 1951              		mv a0, a5
 1952              	# 0 "" 2
 1953              		.loc 1 523 5 is_stmt 1
 523:src/riscv.cpp **** }
 1954              		.loc 1 523 28 is_stmt 0
 1955              	#NO_APP
 1956 0a00 97000000 		call	_ZN5RiscV16saveA0toSscratchEv
 1956      E7800000 
 1957              	.LVL166:
 524:src/riscv.cpp **** 
 1958              		.loc 1 524 1
 1959 0a08 83308101 		ld	ra,24(sp)
 1960              		.cfi_restore 1
 1961 0a0c 03340101 		ld	s0,16(sp)
 1962              		.cfi_restore 8
 1963              		.cfi_def_cfa 2, 32
 1964 0a10 83348100 		ld	s1,8(sp)
 1965              		.cfi_restore 9
 1966              	.LVL167:
 1967 0a14 13010102 		addi	sp,sp,32
 1968              		.cfi_def_cfa_offset 0
 1969 0a18 67800000 		jr	ra
 1970              		.cfi_endproc
 1971              	.LFE58:
 1973              		.align	2
 1974              		.globl	_ZN5RiscV18executeGetcSyscallEv
 1976              	_ZN5RiscV18executeGetcSyscallEv:
 1977              	.LFB59:
 526:src/riscv.cpp **** 
 1978              		.loc 1 526 34 is_stmt 1
 1979              		.cfi_startproc
 1980 0a1c 130101FE 		addi	sp,sp,-32
 1981              		.cfi_def_cfa_offset 32
 1982 0a20 233C1100 		sd	ra,24(sp)
 1983 0a24 23388100 		sd	s0,16(sp)
 1984 0a28 23349100 		sd	s1,8(sp)
 1985              		.cfi_offset 1, -8
 1986              		.cfi_offset 8, -16
 1987              		.cfi_offset 9, -24
 1988 0a2c 13040102 		addi	s0,sp,32
 1989              		.cfi_def_cfa 8, 0
GAS LISTING /tmp/ccZSci1i.s 			page 57


 529:src/riscv.cpp ****         ConsoleUtil::pendingGetc++;
 1990              		.loc 1 529 5
 529:src/riscv.cpp ****         ConsoleUtil::pendingGetc++;
 1991              		.loc 1 529 8 is_stmt 0
 1992 0a30 97070000 		lbu	a5,.LANCHOR0+8
 1992      83C70700 
 529:src/riscv.cpp ****         ConsoleUtil::pendingGetc++;
 1993              		.loc 1 529 5
 1994 0a38 639C0700 		bnez	a5,.L103
 530:src/riscv.cpp **** 
 1995              		.loc 1 530 9 is_stmt 1
 530:src/riscv.cpp **** 
 1996              		.loc 1 530 33 is_stmt 0
 1997 0a3c 17070000 		la	a4,_ZN11ConsoleUtil11pendingGetcE
 1997      03370700 
 1998 0a44 83370700 		ld	a5,0(a4)
 1999 0a48 93871700 		addi	a5,a5,1
 2000 0a4c 2330F700 		sd	a5,0(a4)
 2001              	.L103:
 533:src/riscv.cpp **** 
 2002              		.loc 1 533 5 is_stmt 1
 533:src/riscv.cpp **** 
 2003              		.loc 1 533 35 is_stmt 0
 2004 0a50 97000000 		call	_ZN11ConsoleUtil8getInputEv@plt
 2004      E7800000 
 2005              	.LVL168:
 2006 0a58 93040500 		mv	s1,a0
 2007              	.LVL169:
 536:src/riscv.cpp ****         ConsoleUtil::putOutput(13);
 2008              		.loc 1 536 5 is_stmt 1
 2009 0a5c 9307D000 		li	a5,13
 2010 0a60 6306F502 		beq	a0,a5,.L107
 541:src/riscv.cpp ****         ConsoleUtil::putOutput(c);
 2011              		.loc 1 541 10
 2012 0a64 9307B001 		li	a5,27
 2013 0a68 6310F504 		bne	a0,a5,.L108
 2014              	.LVL170:
 2015              	.L105:
 545:src/riscv.cpp **** 
 2016              		.loc 1 545 5
 545:src/riscv.cpp **** 
 2017              		.loc 1 545 39 is_stmt 0
 2018              	#APP
 2019              	# 545 "src/riscv.cpp" 1
 547:src/riscv.cpp **** }
 2020              		mv a0, s1
 2021              	# 0 "" 2
 2022              		.loc 1 547 5 is_stmt 1
 547:src/riscv.cpp **** }
 2023              		.loc 1 547 28 is_stmt 0
 2024              	#NO_APP
 2025 0a70 97000000 		call	_ZN5RiscV16saveA0toSscratchEv
 2025      E7800000 
 2026              	.LVL171:
 548:src/riscv.cpp **** 
 2027              		.loc 1 548 1
 2028 0a78 83308101 		ld	ra,24(sp)
GAS LISTING /tmp/ccZSci1i.s 			page 58


 2029              		.cfi_remember_state
 2030              		.cfi_restore 1
 2031 0a7c 03340101 		ld	s0,16(sp)
 2032              		.cfi_restore 8
 2033              		.cfi_def_cfa 2, 32
 2034 0a80 83348100 		ld	s1,8(sp)
 2035              		.cfi_restore 9
 2036 0a84 13010102 		addi	sp,sp,32
 2037              		.cfi_def_cfa_offset 0
 2038 0a88 67800000 		jr	ra
 2039              	.LVL172:
 2040              	.L107:
 2041              		.cfi_restore_state
 537:src/riscv.cpp ****         ConsoleUtil::putOutput(10);
 2042              		.loc 1 537 9 is_stmt 1
 537:src/riscv.cpp ****         ConsoleUtil::putOutput(10);
 2043              		.loc 1 537 31 is_stmt 0
 2044 0a8c 1305D000 		li	a0,13
 2045              	.LVL173:
 2046 0a90 97000000 		call	_ZN11ConsoleUtil9putOutputEc@plt
 2046      E7800000 
 2047              	.LVL174:
 538:src/riscv.cpp ****     }
 2048              		.loc 1 538 9 is_stmt 1
 538:src/riscv.cpp ****     }
 2049              		.loc 1 538 31 is_stmt 0
 2050 0a98 1305A000 		li	a0,10
 2051 0a9c 97000000 		call	_ZN11ConsoleUtil9putOutputEc@plt
 2051      E7800000 
 2052              	.LVL175:
 2053 0aa4 6FF09FFC 		j	.L105
 2054              	.LVL176:
 2055              	.L108:
 542:src/riscv.cpp **** 
 2056              		.loc 1 542 9 is_stmt 1
 542:src/riscv.cpp **** 
 2057              		.loc 1 542 31 is_stmt 0
 2058 0aa8 97000000 		call	_ZN11ConsoleUtil9putOutputEc@plt
 2058      E7800000 
 2059              	.LVL177:
 2060 0ab0 6FF0DFFB 		j	.L105
 2061              		.cfi_endproc
 2062              	.LFE59:
 2064              		.align	2
 2065              		.globl	_ZN5RiscV22executePutcUtilSyscallEv
 2067              	_ZN5RiscV22executePutcUtilSyscallEv:
 2068              	.LFB62:
 598:src/riscv.cpp ****     char c = ConsoleUtil::getOutput();
 2069              		.loc 1 598 38 is_stmt 1
 2070              		.cfi_startproc
 2071 0ab4 130101FF 		addi	sp,sp,-16
 2072              		.cfi_def_cfa_offset 16
 2073 0ab8 23341100 		sd	ra,8(sp)
 2074 0abc 23308100 		sd	s0,0(sp)
 2075              		.cfi_offset 1, -8
 2076              		.cfi_offset 8, -16
 2077 0ac0 13040101 		addi	s0,sp,16
GAS LISTING /tmp/ccZSci1i.s 			page 59


 2078              		.cfi_def_cfa 8, 0
 599:src/riscv.cpp ****     asm("mv a0, %[c]" : : [c] "r" ((uint64)(c)) );
 2079              		.loc 1 599 5
 599:src/riscv.cpp ****     asm("mv a0, %[c]" : : [c] "r" ((uint64)(c)) );
 2080              		.loc 1 599 36 is_stmt 0
 2081 0ac4 97000000 		call	_ZN11ConsoleUtil9getOutputEv@plt
 2081      E7800000 
 2082              	.LVL178:
 600:src/riscv.cpp **** 
 2083              		.loc 1 600 5 is_stmt 1
 600:src/riscv.cpp **** 
 2084              		.loc 1 600 50 is_stmt 0
 2085              	#APP
 2086              	# 600 "src/riscv.cpp" 1
 602:src/riscv.cpp **** }
 2087              		mv a0, a0
 2088              	# 0 "" 2
 2089              		.loc 1 602 5 is_stmt 1
 602:src/riscv.cpp **** }
 2090              		.loc 1 602 28 is_stmt 0
 2091              	#NO_APP
 2092 0ad0 97000000 		call	_ZN5RiscV16saveA0toSscratchEv
 2092      E7800000 
 2093              	.LVL179:
 603:src/riscv.cpp **** 
 2094              		.loc 1 603 1
 2095 0ad8 83308100 		ld	ra,8(sp)
 2096              		.cfi_restore 1
 2097 0adc 03340100 		ld	s0,0(sp)
 2098              		.cfi_restore 8
 2099              		.cfi_def_cfa 2, 16
 2100 0ae0 13010101 		addi	sp,sp,16
 2101              		.cfi_def_cfa_offset 0
 2102 0ae4 67800000 		jr	ra
 2103              		.cfi_endproc
 2104              	.LFE62:
 2106              		.align	2
 2107              		.globl	_ZN5RiscV24executeThreadFreeSyscallEv
 2109              	_ZN5RiscV24executeThreadFreeSyscallEv:
 2110              	.LFB66:
 643:src/riscv.cpp **** 
 644:src/riscv.cpp **** //syscall to free the space that is allocated for thread
 645:src/riscv.cpp **** void RiscV::executeThreadFreeSyscall() {
 2111              		.loc 1 645 40 is_stmt 1
 2112              		.cfi_startproc
 2113 0ae8 130101FE 		addi	sp,sp,-32
 2114              		.cfi_def_cfa_offset 32
 2115 0aec 233C1100 		sd	ra,24(sp)
 2116 0af0 23388100 		sd	s0,16(sp)
 2117 0af4 23349100 		sd	s1,8(sp)
 2118              		.cfi_offset 1, -8
 2119              		.cfi_offset 8, -16
 2120              		.cfi_offset 9, -24
 2121 0af8 13040102 		addi	s0,sp,32
 2122              		.cfi_def_cfa 8, 0
 646:src/riscv.cpp ****     uint64 iaddr, status;
 2123              		.loc 1 646 5
GAS LISTING /tmp/ccZSci1i.s 			page 60


 647:src/riscv.cpp **** 
 648:src/riscv.cpp ****     asm("mv %[iaddr], a1" : [iaddr] "=r"(iaddr));
 2124              		.loc 1 648 5
 2125              		.loc 1 648 49 is_stmt 0
 2126              	#APP
 2127              	# 648 "src/riscv.cpp" 1
 649              	
 2128              		mv s1, a1
 2129              	# 0 "" 2
 2130              	.LVL180:
 650:src/riscv.cpp ****     TCB *thr = (TCB*)iaddr;
 2131              		.loc 1 650 5 is_stmt 1
 651:src/riscv.cpp **** 
 652:src/riscv.cpp ****     if(thr == nullptr)
 2132              		.loc 1 652 5
 2133              	#NO_APP
 2134 0b00 63940402 		bnez	s1,.L114
 2135              	.L112:
 2136              	.LVL181:
 653:src/riscv.cpp ****         status = -1;
 654:src/riscv.cpp ****     else {
 655:src/riscv.cpp ****         kfree(thr->stack);
 656:src/riscv.cpp ****         delete thr;
 657:src/riscv.cpp ****     }
 658:src/riscv.cpp **** 
 659:src/riscv.cpp ****     //return status
 660:src/riscv.cpp ****     asm("mv a0, %[status]" : : [status] "r" (status));
 2137              		.loc 1 660 5
 2138              		.loc 1 660 54 is_stmt 0
 2139 0b04 9307F0FF 		li	a5,-1
 2140              	#APP
 2141              	# 660 "src/riscv.cpp" 1
 661              	
 662:src/riscv.cpp ****     RiscV::saveA0toSscratch();
 2142              		mv a0, a5
 2143              	# 0 "" 2
 2144              		.loc 1 662 5 is_stmt 1
 2145              		.loc 1 662 28 is_stmt 0
 2146              	#NO_APP
 2147 0b0c 97000000 		call	_ZN5RiscV16saveA0toSscratchEv
 2147      E7800000 
 2148              	.LVL182:
 663:src/riscv.cpp **** }
 2149              		.loc 1 663 1
 2150 0b14 83308101 		ld	ra,24(sp)
 2151              		.cfi_remember_state
 2152              		.cfi_restore 1
 2153 0b18 03340101 		ld	s0,16(sp)
 2154              		.cfi_restore 8
 2155              		.cfi_def_cfa 2, 32
 2156 0b1c 83348100 		ld	s1,8(sp)
 2157              		.cfi_restore 9
 2158              	.LVL183:
 2159 0b20 13010102 		addi	sp,sp,32
 2160              		.cfi_def_cfa_offset 0
 2161 0b24 67800000 		jr	ra
 2162              	.LVL184:
GAS LISTING /tmp/ccZSci1i.s 			page 61


 2163              	.L114:
 2164              		.cfi_restore_state
 655:src/riscv.cpp ****         delete thr;
 2165              		.loc 1 655 9 is_stmt 1
 655:src/riscv.cpp ****         delete thr;
 2166              		.loc 1 655 14 is_stmt 0
 2167 0b28 03B58402 		ld	a0,40(s1)
 2168 0b2c 97000000 		call	_Z5kfreePKv@plt
 2168      E7800000 
 2169              	.LVL185:
 656:src/riscv.cpp ****     }
 2170              		.loc 1 656 9 is_stmt 1
 656:src/riscv.cpp ****     }
 2171              		.loc 1 656 16 is_stmt 0
 2172 0b34 13850400 		mv	a0,s1
 2173 0b38 97000000 		call	_ZN3TCBD1Ev@plt
 2173      E7800000 
 2174              	.LVL186:
 2175 0b40 13850400 		mv	a0,s1
 2176 0b44 97000000 		call	_ZN3TCBdlEPv@plt
 2176      E7800000 
 2177              	.LVL187:
 2178 0b4c 6FF09FFB 		j	.L112
 2179              		.cfi_endproc
 2180              	.LFE66:
 2182              		.align	2
 2183              		.globl	_ZN5RiscV27executeSemaphoreFreeSyscallEv
 2185              	_ZN5RiscV27executeSemaphoreFreeSyscallEv:
 2186              	.LFB67:
 664:src/riscv.cpp **** 
 665:src/riscv.cpp **** //syscall to free the space that is allocated for semaphore
 666:src/riscv.cpp **** void RiscV::executeSemaphoreFreeSyscall() {
 2187              		.loc 1 666 43 is_stmt 1
 2188              		.cfi_startproc
 2189 0b50 130101FE 		addi	sp,sp,-32
 2190              		.cfi_def_cfa_offset 32
 2191 0b54 233C1100 		sd	ra,24(sp)
 2192 0b58 23388100 		sd	s0,16(sp)
 2193 0b5c 23349100 		sd	s1,8(sp)
 2194              		.cfi_offset 1, -8
 2195              		.cfi_offset 8, -16
 2196              		.cfi_offset 9, -24
 2197 0b60 13040102 		addi	s0,sp,32
 2198              		.cfi_def_cfa 8, 0
 667:src/riscv.cpp ****     uint64 iaddr, status;
 2199              		.loc 1 667 5
 668:src/riscv.cpp **** 
 669:src/riscv.cpp ****     //call internal allocator and free memory which iaddr points to
 670:src/riscv.cpp ****     asm("mv %[iaddr], a1" : [iaddr] "=r"(iaddr));
 2200              		.loc 1 670 5
 2201              		.loc 1 670 49 is_stmt 0
 2202              	#APP
 2203              	# 670 "src/riscv.cpp" 1
 671              	
 2204              		mv s1, a1
 2205              	# 0 "" 2
 2206              	.LVL188:
GAS LISTING /tmp/ccZSci1i.s 			page 62


 672:src/riscv.cpp ****     SCB *scb = (SCB*)iaddr;
 2207              		.loc 1 672 5 is_stmt 1
 673:src/riscv.cpp **** 
 674:src/riscv.cpp ****     if(scb == nullptr){
 2208              		.loc 1 674 5
 2209              	#NO_APP
 2210 0b68 63940402 		bnez	s1,.L118
 2211              	.L116:
 2212              	.LVL189:
 675:src/riscv.cpp ****         status = -1;
 676:src/riscv.cpp ****     }
 677:src/riscv.cpp ****     else
 678:src/riscv.cpp ****         delete scb;
 679:src/riscv.cpp **** 
 680:src/riscv.cpp ****     //return status
 681:src/riscv.cpp ****     asm("mv a0, %[status]" : : [status] "r" (status));
 2213              		.loc 1 681 5
 2214              		.loc 1 681 54 is_stmt 0
 2215 0b6c 9307F0FF 		li	a5,-1
 2216              	#APP
 2217              	# 681 "src/riscv.cpp" 1
 682              	
 683:src/riscv.cpp ****     RiscV::saveA0toSscratch();
 2218              		mv a0, a5
 2219              	# 0 "" 2
 2220              		.loc 1 683 5 is_stmt 1
 2221              		.loc 1 683 28 is_stmt 0
 2222              	#NO_APP
 2223 0b74 97000000 		call	_ZN5RiscV16saveA0toSscratchEv
 2223      E7800000 
 2224              	.LVL190:
 684:src/riscv.cpp **** }
 2225              		.loc 1 684 1
 2226 0b7c 83308101 		ld	ra,24(sp)
 2227              		.cfi_remember_state
 2228              		.cfi_restore 1
 2229 0b80 03340101 		ld	s0,16(sp)
 2230              		.cfi_restore 8
 2231              		.cfi_def_cfa 2, 32
 2232 0b84 83348100 		ld	s1,8(sp)
 2233              		.cfi_restore 9
 2234              	.LVL191:
 2235 0b88 13010102 		addi	sp,sp,32
 2236              		.cfi_def_cfa_offset 0
 2237 0b8c 67800000 		jr	ra
 2238              	.LVL192:
 2239              	.L118:
 2240              		.cfi_restore_state
 678:src/riscv.cpp **** 
 2241              		.loc 1 678 9 is_stmt 1 discriminator 1
 678:src/riscv.cpp **** 
 2242              		.loc 1 678 16 is_stmt 0 discriminator 1
 2243 0b90 13850400 		mv	a0,s1
 2244 0b94 97000000 		call	_ZN3SCBD1Ev@plt
 2244      E7800000 
 2245              	.LVL193:
 2246 0b9c 13850400 		mv	a0,s1
GAS LISTING /tmp/ccZSci1i.s 			page 63


 2247 0ba0 97000000 		call	_ZN3SCBdlEPv@plt
 2247      E7800000 
 2248              	.LVL194:
 2249 0ba8 6FF05FFC 		j	.L116
 2250              		.cfi_endproc
 2251              	.LFE67:
 2253              		.align	2
 2254              		.globl	_ZN5RiscV18executeForkSyscallEv
 2256              	_ZN5RiscV18executeForkSyscallEv:
 2257              	.LFB68:
 685:src/riscv.cpp **** 
 686:src/riscv.cpp **** //fork syscall
 687:src/riscv.cpp **** void RiscV::executeForkSyscall() {
 2258              		.loc 1 687 34 is_stmt 1
 2259              		.cfi_startproc
 2260              		.cfi_personality 0x9b,DW.ref.__gxx_personality_v0
 2261              		.cfi_lsda 0x1b,.LLSDA68
 2262 0bac 130101FE 		addi	sp,sp,-32
 2263              		.cfi_def_cfa_offset 32
 2264 0bb0 233C1100 		sd	ra,24(sp)
 2265 0bb4 23388100 		sd	s0,16(sp)
 2266 0bb8 23349100 		sd	s1,8(sp)
 2267 0bbc 23302101 		sd	s2,0(sp)
 2268              		.cfi_offset 1, -8
 2269              		.cfi_offset 8, -16
 2270              		.cfi_offset 9, -24
 2271              		.cfi_offset 18, -32
 2272 0bc0 13040102 		addi	s0,sp,32
 2273              		.cfi_def_cfa 8, 0
 688:src/riscv.cpp **** 
 689:src/riscv.cpp ****     //create new stack and copy stack from currently running stack into the new one
 690:src/riscv.cpp ****     uint64 *stack = (uint64*)kmalloc(DEFAULT_STACK_SIZE);
 2274              		.loc 1 690 5
 2275              		.loc 1 690 37 is_stmt 0
 2276 0bc4 37150000 		li	a0,4096
 2277              	.LEHB10:
 2278 0bc8 97000000 		call	_Z7kmallocm@plt
 2278      E7800000 
 2279              	.LVL195:
 2280 0bd0 13090500 		mv	s2,a0
 2281              	.LVL196:
 691:src/riscv.cpp **** 
 692:src/riscv.cpp ****     MemoryAllocator::memcpy((void*)TCB::running->stack,(void*)stack,DEFAULT_STACK_SIZE);
 2282              		.loc 1 692 5 is_stmt 1
 2283              		.loc 1 692 28 is_stmt 0
 2284 0bd4 97070000 		la	a5,_ZN3TCB7runningE
 2284      83B70700 
 2285 0bdc 83B70700 		ld	a5,0(a5)
 2286 0be0 37160000 		li	a2,4096
 2287 0be4 93050500 		mv	a1,a0
 2288 0be8 03B58702 		ld	a0,40(a5)
 2289              	.LVL197:
 2290 0bec 97000000 		call	_ZN15MemoryAllocator6memcpyEPvS0_m@plt
 2290      E7800000 
 2291              	.LVL198:
 693:src/riscv.cpp **** 
 694:src/riscv.cpp ****     //create new TCB for new thread
GAS LISTING /tmp/ccZSci1i.s 			page 64


 695:src/riscv.cpp ****     TCB *forked = new TCB(nullptr, nullptr, stack, DEFAULT_TIME_SLICE);
 2292              		.loc 1 695 5 is_stmt 1
 2293              		.loc 1 695 70 is_stmt 0
 2294 0bf4 13050007 		li	a0,112
 2295 0bf8 97000000 		call	_ZN3TCBnwEm@plt
 2295      E7800000 
 2296              	.LVL199:
 2297              	.LEHE10:
 2298 0c00 93040500 		mv	s1,a0
 2299 0c04 630E0500 		beqz	a0,.L120
 2300              		.loc 1 695 70 discriminator 1
 2301 0c08 13072000 		li	a4,2
 2302 0c0c 93060900 		mv	a3,s2
 2303 0c10 13060000 		li	a2,0
 2304 0c14 93050000 		li	a1,0
 2305              	.LEHB11:
 2306 0c18 97000000 		call	_ZN3TCBC1EPFvPvES0_Pmm@plt
 2306      E7800000 
 2307              	.LVL200:
 2308              	.LEHE11:
 2309              	.L120:
 696:src/riscv.cpp **** 
 697:src/riscv.cpp ****     uint64 status = 0;
 2310              		.loc 1 697 5 is_stmt 1 discriminator 6
 698:src/riscv.cpp **** 
 699:src/riscv.cpp ****     if(forked) {
 2311              		.loc 1 699 5 discriminator 6
 2312              	.LBB127:
 2313 0c20 638E040A 		beqz	s1,.L123
 2314              	.LBB128:
 700:src/riscv.cpp **** 
 701:src/riscv.cpp ****         //set return address where forked thread should return
 702:src/riscv.cpp ****         forked->context.ra = TCB::currentPC;
 2315              		.loc 1 702 9
 2316              		.loc 1 702 28 is_stmt 0
 2317 0c24 97070000 		la	a5,_ZN3TCB9currentPCE
 2317      83B70700 
 2318 0c2c 83B70700 		ld	a5,0(a5)
 2319 0c30 23B4F400 		sd	a5,8(s1)
 703:src/riscv.cpp **** 
 704:src/riscv.cpp ****         //set SP value where forked thread's stack starts
 705:src/riscv.cpp ****         forked->context.sp = (uint64)((char*)stack + TCB::currentSP - (char*)TCB::running->stack);
 2320              		.loc 1 705 9 is_stmt 1
 2321              		.loc 1 705 59 is_stmt 0
 2322 0c34 97070000 		la	a5,_ZN3TCB9currentSPE
 2322      83B70700 
 2323 0c3c 83B70700 		ld	a5,0(a5)
 2324              		.loc 1 705 52
 2325 0c40 B307F900 		add	a5,s2,a5
 2326              		.loc 1 705 71
 2327 0c44 17070000 		la	a4,_ZN3TCB7runningE
 2327      03370700 
 2328 0c4c 83360700 		ld	a3,0(a4)
 2329              		.loc 1 705 92
 2330 0c50 83B68602 		ld	a3,40(a3)
 2331              		.loc 1 705 69
 2332 0c54 B387D740 		sub	a5,a5,a3
GAS LISTING /tmp/ccZSci1i.s 			page 65


 2333              		.loc 1 705 28
 2334 0c58 23B0F400 		sd	a5,0(s1)
 706:src/riscv.cpp **** 
 707:src/riscv.cpp ****         //get memory location of where registers are stored from previous context switch
 708:src/riscv.cpp ****         uint64 registerStartSP = (uint64)((char*)TCB::running->a0Location - (char*)TCB::running->st
 2335              		.loc 1 708 9 is_stmt 1
 2336              		.loc 1 708 64 is_stmt 0
 2337 0c5c 83370700 		ld	a5,0(a4)
 2338 0c60 03B58706 		ld	a0,104(a5)
 2339              		.loc 1 708 98
 2340 0c64 83B78702 		ld	a5,40(a5)
 2341              		.loc 1 708 75
 2342 0c68 3305F540 		sub	a0,a0,a5
 2343              		.loc 1 708 104
 2344 0c6c 3309A900 		add	s2,s2,a0
 2345              	.LVL201:
 709:src/riscv.cpp **** 
 710:src/riscv.cpp ****         forked->a0Location = registerStartSP;
 2346              		.loc 1 710 9 is_stmt 1
 2347              		.loc 1 710 28 is_stmt 0
 2348 0c70 23B42407 		sd	s2,104(s1)
 711:src/riscv.cpp **** 
 712:src/riscv.cpp ****         uint64 a1,a0;
 2349              		.loc 1 712 9 is_stmt 1
 713:src/riscv.cpp **** 
 714:src/riscv.cpp ****         //write address of stored registers in SP of forked thread so that it can return regularly
 715:src/riscv.cpp ****         asm("mv %[a1], a1": [a1] "=r"(a1));
 2350              		.loc 1 715 9
 2351              		.loc 1 715 43 is_stmt 0
 2352              	#APP
 2353              	# 715 "src/riscv.cpp" 1
 716              	
 717:src/riscv.cpp ****         asm("mv %[a0], a0": [a0] "=r"(a0));
 2354              		mv a3, a1
 2355              	# 0 "" 2
 2356              		.loc 1 717 9 is_stmt 1
 2357              		.loc 1 717 43 is_stmt 0
 2358              	# 717 "src/riscv.cpp" 1
 718              	
 719:src/riscv.cpp ****         asm("mv a0,%[a0]"::  [a0]"r"(registerStartSP));
 2359              		mv a5, a0
 2360              	# 0 "" 2
 2361              		.loc 1 719 9 is_stmt 1
 2362              		.loc 1 719 55 is_stmt 0
 2363              	# 719 "src/riscv.cpp" 1
 720              	
 721:src/riscv.cpp ****         asm("mv a1, %[a0]" : :  [a0] "r"(registerStartSP));
 2364              		mv a0,s2
 2365              	# 0 "" 2
 2366              		.loc 1 721 9 is_stmt 1
 2367              		.loc 1 721 59 is_stmt 0
 2368              	# 721 "src/riscv.cpp" 1
 722              	
 723:src/riscv.cpp ****         asm("sd a0, 16(a1)");
 2369              		mv a1, s2
 2370              	# 0 "" 2
 2371              		.loc 1 723 9 is_stmt 1
GAS LISTING /tmp/ccZSci1i.s 			page 66


 2372              		.loc 1 723 29 is_stmt 0
 2373              	# 723 "src/riscv.cpp" 1
 724              	
 725:src/riscv.cpp ****         //write 0 in a0 register of forked thread because fork should return 0 in context of child,
 726:src/riscv.cpp ****         asm("li a0, 0");
 2374              		sd a0, 16(a1)
 2375              	# 0 "" 2
 2376              		.loc 1 726 9 is_stmt 1
 2377              		.loc 1 726 24 is_stmt 0
 2378              	# 726 "src/riscv.cpp" 1
 727              	
 728:src/riscv.cpp ****         asm("sd a0, 80(a1)");
 2379              		li a0, 0
 2380              	# 0 "" 2
 2381              		.loc 1 728 9 is_stmt 1
 2382              		.loc 1 728 29 is_stmt 0
 2383              	# 728 "src/riscv.cpp" 1
 729              	
 730:src/riscv.cpp ****         asm("mv a1,%[a1]"::  [a1]"r"(a1));
 2384              		sd a0, 80(a1)
 2385              	# 0 "" 2
 2386              		.loc 1 730 9 is_stmt 1
 2387              		.loc 1 730 42 is_stmt 0
 2388              	# 730 "src/riscv.cpp" 1
 731              	
 732:src/riscv.cpp ****         asm("mv a0,%[a0]"::  [a0]"r"(a0));
 2389              		mv a1,a3
 2390              	# 0 "" 2
 2391              		.loc 1 732 9 is_stmt 1
 2392              		.loc 1 732 42 is_stmt 0
 2393              	# 732 "src/riscv.cpp" 1
 733              	
 734:src/riscv.cpp ****         forked->sepc = TCB::running->sepc;
 2394              		mv a0,a5
 2395              	# 0 "" 2
 2396              		.loc 1 734 9 is_stmt 1
 2397              		.loc 1 734 38 is_stmt 0
 2398              	#NO_APP
 2399 0c98 83370700 		ld	a5,0(a4)
 2400 0c9c 03B78703 		ld	a4,56(a5)
 2401              		.loc 1 734 22
 2402 0ca0 23BCE402 		sd	a4,56(s1)
 735:src/riscv.cpp **** 
 736:src/riscv.cpp ****         forked->sstatus = TCB::running->sstatus;
 2403              		.loc 1 736 9 is_stmt 1
 2404              		.loc 1 736 41 is_stmt 0
 2405 0ca4 83B70704 		ld	a5,64(a5)
 2406              		.loc 1 736 25
 2407 0ca8 23B0F404 		sd	a5,64(s1)
 737:src/riscv.cpp **** 
 738:src/riscv.cpp ****         //put forked in scheduler
 739:src/riscv.cpp ****         Scheduler::put(forked);
 2408              		.loc 1 739 9 is_stmt 1
 2409              		.loc 1 739 23 is_stmt 0
 2410 0cac 13850400 		mv	a0,s1
 2411              	.LEHB12:
 2412 0cb0 97000000 		call	_ZN9Scheduler3putEP3TCB@plt
GAS LISTING /tmp/ccZSci1i.s 			page 67


 2412      E7800000 
 2413              	.LVL202:
 2414              	.LEHE12:
 740:src/riscv.cpp **** 
 741:src/riscv.cpp ****         //return address of forked as thread ID
 742:src/riscv.cpp ****         status = (uint64)forked;
 2415              		.loc 1 742 9 is_stmt 1
 2416              	.L121:
 2417              	.LBE128:
 2418              	.LBE127:
 743:src/riscv.cpp ****     }else
 744:src/riscv.cpp ****         status = -1;
 745:src/riscv.cpp **** 
 746:src/riscv.cpp ****     asm("mv a0, %[status]" : : [status] "r" (status));
 2419              		.loc 1 746 5
 2420              		.loc 1 746 54 is_stmt 0
 2421              	#APP
 2422              	# 746 "src/riscv.cpp" 1
 747              	
 748:src/riscv.cpp ****     RiscV::saveA0toSscratch();
 2423              		mv a0, s1
 2424              	# 0 "" 2
 2425              		.loc 1 748 5 is_stmt 1
 2426              		.loc 1 748 28 is_stmt 0
 2427              	#NO_APP
 2428 0cbc 97000000 		call	_ZN5RiscV16saveA0toSscratchEv
 2428      E7800000 
 2429              	.LVL203:
 749:src/riscv.cpp **** 
 750:src/riscv.cpp **** }
 2430              		.loc 1 750 1
 2431 0cc4 83308101 		ld	ra,24(sp)
 2432              		.cfi_remember_state
 2433              		.cfi_restore 1
 2434 0cc8 03340101 		ld	s0,16(sp)
 2435              		.cfi_restore 8
 2436              		.cfi_def_cfa 2, 32
 2437 0ccc 83348100 		ld	s1,8(sp)
 2438              		.cfi_restore 9
 2439              	.LVL204:
 2440 0cd0 03390100 		ld	s2,0(sp)
 2441              		.cfi_restore 18
 2442 0cd4 13010102 		addi	sp,sp,32
 2443              		.cfi_def_cfa_offset 0
 2444 0cd8 67800000 		jr	ra
 2445              	.LVL205:
 2446              	.L123:
 2447              		.cfi_restore_state
 2448              	.LBB129:
 744:src/riscv.cpp **** 
 2449              		.loc 1 744 16
 2450 0cdc 9304F0FF 		li	s1,-1
 2451              	.LVL206:
 2452 0ce0 6FF09FFD 		j	.L121
 2453              	.LVL207:
 2454              	.L124:
 2455 0ce4 13090500 		mv	s2,a0
GAS LISTING /tmp/ccZSci1i.s 			page 68


 2456              	.LVL208:
 2457              	.LBE129:
 695:src/riscv.cpp **** 
 2458              		.loc 1 695 70
 2459 0ce8 13850400 		mv	a0,s1
 2460 0cec 97000000 		call	_ZN3TCBdlEPv@plt
 2460      E7800000 
 2461              	.LVL209:
 2462 0cf4 13050900 		mv	a0,s2
 2463              	.LEHB13:
 2464 0cf8 97000000 		call	_Unwind_Resume@plt
 2464      E7800000 
 2465              	.LVL210:
 2466              	.LEHE13:
 2467              		.cfi_endproc
 2468              	.LFE68:
 2469              		.section	.gcc_except_table
 2470              	.LLSDA68:
 2471 008e FF       		.byte	0xff
 2472 008f FF       		.byte	0xff
 2473 0090 03       		.byte	0x3
 2474 0091 34       		.byte	0x34
 2475 0092 00000000 		.4byte	.LEHB10-.LFB68
 2476 0096 00000000 		.4byte	.LEHE10-.LEHB10
 2477 009a 00000000 		.4byte	0
 2478 009e 00       		.byte	0
 2479 009f 00000000 		.4byte	.LEHB11-.LFB68
 2480 00a3 00000000 		.4byte	.LEHE11-.LEHB11
 2481 00a7 00000000 		.4byte	.L124-.LFB68
 2482 00ab 00       		.byte	0
 2483 00ac 00000000 		.4byte	.LEHB12-.LFB68
 2484 00b0 00000000 		.4byte	.LEHE12-.LEHB12
 2485 00b4 00000000 		.4byte	0
 2486 00b8 00       		.byte	0
 2487 00b9 00000000 		.4byte	.LEHB13-.LFB68
 2488 00bd 00000000 		.4byte	.LEHE13-.LEHB13
 2489 00c1 00000000 		.4byte	0
 2490 00c5 00       		.byte	0
 2491              		.text
 2493              		.align	2
 2494              		.globl	_ZN5RiscV5getPCEv
 2496              	_ZN5RiscV5getPCEv:
 2497              	.LFB69:
 751:src/riscv.cpp **** 
 752:src/riscv.cpp **** void RiscV::getPC(){
 2498              		.loc 1 752 20 is_stmt 1
 2499              		.cfi_startproc
 2500 0d00 130101FF 		addi	sp,sp,-16
 2501              		.cfi_def_cfa_offset 16
 2502 0d04 23348100 		sd	s0,8(sp)
 2503              		.cfi_offset 8, -8
 2504 0d08 13040101 		addi	s0,sp,16
 2505              		.cfi_def_cfa 8, 0
 753:src/riscv.cpp ****     uint64 ra;
 2506              		.loc 1 753 5
 754:src/riscv.cpp **** 
 755:src/riscv.cpp ****     asm("mv %[ra], ra" : [ra] "=r"(ra));
GAS LISTING /tmp/ccZSci1i.s 			page 69


 2507              		.loc 1 755 5
 2508              		.loc 1 755 40 is_stmt 0
 2509              	#APP
 2510              	# 755 "src/riscv.cpp" 1
 756              	
 2511              		mv a5, ra
 2512              	# 0 "" 2
 2513              	.LVL211:
 757:src/riscv.cpp ****     TCB::currentPC = ra + 8;
 2514              		.loc 1 757 5 is_stmt 1
 2515              		.loc 1 757 25 is_stmt 0
 2516              	#NO_APP
 2517 0d10 93878700 		addi	a5,a5,8
 2518              	.LVL212:
 2519              		.loc 1 757 20
 2520 0d14 17070000 		la	a4,_ZN3TCB9currentPCE
 2520      03370700 
 2521 0d1c 2330F700 		sd	a5,0(a4)
 758:src/riscv.cpp **** }
 2522              		.loc 1 758 1
 2523 0d20 03348100 		ld	s0,8(sp)
 2524              		.cfi_restore 8
 2525              		.cfi_def_cfa 2, 16
 2526 0d24 13010101 		addi	sp,sp,16
 2527              		.cfi_def_cfa_offset 0
 2528 0d28 67800000 		jr	ra
 2529              		.cfi_endproc
 2530              	.LFE69:
 2532              		.section	.rodata.str1.8,"aMS",@progbits,1
 2533              		.align	3
 2534              	.LC0:
 2535 0000 73657063 		.string	"sepc: "
 2535      3A2000
 2536 0007 00       		.align	3
 2537              	.LC1:
 2538 0008 0A00     		.string	"\n"
 2539 000a 00000000 		.align	3
 2539      0000
 2540              	.LC2:
 2541 0010 496C6C65 		.string	"Illegal instruction\nExiting thread...\n"
 2541      67616C20 
 2541      696E7374 
 2541      72756374 
 2541      696F6E0A 
 2542 0037 00       		.align	3
 2543              	.LC3:
 2544 0038 4572726F 		.string	"Error: \n"
 2544      723A200A 
 2544      00
 2545 0041 00000000 		.align	3
 2545      000000
 2546              	.LC4:
 2547 0048 73636175 		.string	"scause: "
 2547      73653A20 
 2547      00
 2548 0051 00000000 		.align	3
 2548      000000
GAS LISTING /tmp/ccZSci1i.s 			page 70


 2549              	.LC5:
 2550 0058 45786974 		.string	"Exiting thread...\n"
 2550      696E6720 
 2550      74687265 
 2550      61642E2E 
 2550      2E0A00
 2551              		.text
 2552              		.align	2
 2553              		.globl	_ZN5RiscV20handleSupervisorTrapEv
 2555              	_ZN5RiscV20handleSupervisorTrapEv:
 2556              	.LFB46:
  97:src/riscv.cpp **** 
 2557              		.loc 1 97 36 is_stmt 1
 2558              		.cfi_startproc
 2559 0d2c 130101FA 		addi	sp,sp,-96
 2560              		.cfi_def_cfa_offset 96
 2561 0d30 233C1104 		sd	ra,88(sp)
 2562 0d34 23388104 		sd	s0,80(sp)
 2563              		.cfi_offset 1, -8
 2564              		.cfi_offset 8, -16
 2565 0d38 13040106 		addi	s0,sp,96
 2566              		.cfi_def_cfa 8, 0
 100:src/riscv.cpp **** 
 2567              		.loc 1 100 5
 2568              	.LBB130:
 2569              	.LBB131:
 138:src/../h/riscv.hpp ****     asm("csrr %[scause], scause" : [scause] "=r" (scause));
 2570              		.loc 2 138 5
 139:src/../h/riscv.hpp ****     return scause;
 2571              		.loc 2 139 5
 139:src/../h/riscv.hpp ****     return scause;
 2572              		.loc 2 139 59 is_stmt 0
 2573              	#APP
 2574              	# 139 "src/../h/riscv.hpp" 1
 2575              		csrr a5, scause
 2576              	# 0 "" 2
 2577              	#NO_APP
 2578 0d40 233CF4FC 		sd	a5,-40(s0)
 140:src/../h/riscv.hpp **** }
 2579              		.loc 2 140 5 is_stmt 1
 140:src/../h/riscv.hpp **** }
 2580              		.loc 2 140 12 is_stmt 0
 2581 0d44 833784FD 		ld	a5,-40(s0)
 2582              	.LBE131:
 2583              	.LBE130:
 100:src/riscv.cpp **** 
 2584              		.loc 1 100 46
 2585 0d48 2334F4FE 		sd	a5,-24(s0)
 102:src/riscv.cpp **** 
 2586              		.loc 1 102 5 is_stmt 1
 102:src/riscv.cpp **** 
 2587              		.loc 1 102 71 is_stmt 0
 2588 0d4c 97070000 		la	a5,_ZN3TCB7runningE
 2588      83B70700 
 2589 0d54 83B70700 		ld	a5,0(a5)
 102:src/riscv.cpp **** 
 2590              		.loc 1 102 83
GAS LISTING /tmp/ccZSci1i.s 			page 71


 2591              	#APP
 2592              	# 102 "src/riscv.cpp" 1
 2593              		csrr a4, sscratch
 2594              	# 0 "" 2
 2595              	#NO_APP
 2596 0d5c 23B4E706 		sd	a4,104(a5)
 105:src/riscv.cpp **** 
 2597              		.loc 1 105 5 is_stmt 1
 2598              	.LBB132:
 105:src/riscv.cpp **** 
 2599              		.loc 1 105 15 is_stmt 0
 2600 0d60 033784FE 		ld	a4,-24(s0)
 105:src/riscv.cpp **** 
 2601              		.loc 1 105 23
 2602 0d64 93079000 		li	a5,9
 2603 0d68 6306F70E 		beq	a4,a5,.L130
 105:src/riscv.cpp **** 
 2604              		.loc 1 105 33 discriminator 2
 2605 0d6c 033784FE 		ld	a4,-24(s0)
 105:src/riscv.cpp **** 
 2606              		.loc 1 105 23 discriminator 2
 2607 0d70 93078000 		li	a5,8
 2608 0d74 6300F70E 		beq	a4,a5,.L130
 2609              	.LBE132:
 151:src/riscv.cpp **** 
 2610              		.loc 1 151 10 is_stmt 1
 2611              	.LBB187:
 2612              	.LBB133:
 151:src/riscv.cpp **** 
 2613              		.loc 1 151 20 is_stmt 0
 2614 0d78 033784FE 		ld	a4,-24(s0)
 151:src/riscv.cpp **** 
 2615              		.loc 1 151 10
 2616 0d7c 9307F0FF 		li	a5,-1
 2617 0d80 9397F703 		slli	a5,a5,63
 2618 0d84 93871700 		addi	a5,a5,1
 2619 0d88 6302F724 		beq	a4,a5,.L160
 2620              	.LBE133:
 2621              	.LBE187:
 186:src/riscv.cpp ****         //save sstatus and sepc
 2622              		.loc 1 186 10 is_stmt 1
 2623              	.LBB188:
 2624              	.LBB174:
 2625              	.LBB134:
 186:src/riscv.cpp ****         //save sstatus and sepc
 2626              		.loc 1 186 20 is_stmt 0
 2627 0d8c 033784FE 		ld	a4,-24(s0)
 186:src/riscv.cpp ****         //save sstatus and sepc
 2628              		.loc 1 186 10
 2629 0d90 9307F0FF 		li	a5,-1
 2630 0d94 9397F703 		slli	a5,a5,63
 2631 0d98 93879700 		addi	a5,a5,9
 2632 0d9c 6300F72C 		beq	a4,a5,.L161
 2633              	.LBE134:
 2634              	.LBE174:
 2635              	.LBE188:
 222:src/riscv.cpp ****         TCB* old = TCB::running;
GAS LISTING /tmp/ccZSci1i.s 			page 72


 2636              		.loc 1 222 10 is_stmt 1
 2637              	.LBB189:
 2638              	.LBB175:
 2639              	.LBB158:
 2640              	.LBB135:
 222:src/riscv.cpp ****         TCB* old = TCB::running;
 2641              		.loc 1 222 20 is_stmt 0
 2642 0da0 033784FE 		ld	a4,-24(s0)
 222:src/riscv.cpp ****         TCB* old = TCB::running;
 2643              		.loc 1 222 10
 2644 0da4 93072000 		li	a5,2
 2645 0da8 6308F734 		beq	a4,a5,.L162
 2646              	.LBB136:
 235:src/riscv.cpp ****         ConsoleUtil::printString("scause: ");
 2647              		.loc 1 235 9 is_stmt 1
 235:src/riscv.cpp ****         ConsoleUtil::printString("scause: ");
 2648              		.loc 1 235 33 is_stmt 0
 2649 0dac 17050000 		lla	a0,.LC3
 2649      13050500 
 2650 0db4 97000000 		call	_ZN11ConsoleUtil11printStringEPKc@plt
 2650      E7800000 
 2651              	.LVL213:
 236:src/riscv.cpp ****         uint64  scause = RiscV::r_scause();
 2652              		.loc 1 236 9 is_stmt 1
 236:src/riscv.cpp ****         uint64  scause = RiscV::r_scause();
 2653              		.loc 1 236 33 is_stmt 0
 2654 0dbc 17050000 		lla	a0,.LC4
 2654      13050500 
 2655 0dc4 97000000 		call	_ZN11ConsoleUtil11printStringEPKc@plt
 2655      E7800000 
 2656              	.LVL214:
 237:src/riscv.cpp ****         ConsoleUtil::printInt(scause);
 2657              		.loc 1 237 9 is_stmt 1
 2658              	.LBB137:
 2659              	.LBB138:
 138:src/../h/riscv.hpp ****     asm("csrr %[scause], scause" : [scause] "=r" (scause));
 2660              		.loc 2 138 5
 139:src/../h/riscv.hpp ****     return scause;
 2661              		.loc 2 139 5
 139:src/../h/riscv.hpp ****     return scause;
 2662              		.loc 2 139 59 is_stmt 0
 2663              	#APP
 2664              	# 139 "src/../h/riscv.hpp" 1
 2665              		csrr a5, scause
 2666              	# 0 "" 2
 2667              	#NO_APP
 2668 0dd0 2330F4FE 		sd	a5,-32(s0)
 140:src/../h/riscv.hpp **** }
 2669              		.loc 2 140 5 is_stmt 1
 140:src/../h/riscv.hpp **** }
 2670              		.loc 2 140 12 is_stmt 0
 2671 0dd4 033504FE 		ld	a0,-32(s0)
 2672              	.LVL215:
 2673              	.LBE138:
 2674              	.LBE137:
 238:src/riscv.cpp ****         ConsoleUtil::printString("sepc: ");
 2675              		.loc 1 238 9 is_stmt 1
GAS LISTING /tmp/ccZSci1i.s 			page 73


 238:src/riscv.cpp ****         ConsoleUtil::printString("sepc: ");
 2676              		.loc 1 238 30 is_stmt 0
 2677 0dd8 13060000 		li	a2,0
 2678 0ddc 9305A000 		li	a1,10
 2679 0de0 1B050500 		sext.w	a0,a0
 2680              	.LVL216:
 2681 0de4 97000000 		call	_ZN11ConsoleUtil8printIntEiii@plt
 2681      E7800000 
 2682              	.LVL217:
 239:src/riscv.cpp ****         uint64 sepc = RiscV::r_sepc();
 2683              		.loc 1 239 9 is_stmt 1
 239:src/riscv.cpp ****         uint64 sepc = RiscV::r_sepc();
 2684              		.loc 1 239 33 is_stmt 0
 2685 0dec 17050000 		lla	a0,.LC0
 2685      13050500 
 2686 0df4 97000000 		call	_ZN11ConsoleUtil11printStringEPKc@plt
 2686      E7800000 
 2687              	.LVL218:
 240:src/riscv.cpp ****         ConsoleUtil::printInt(sepc,16);
 2688              		.loc 1 240 9 is_stmt 1
 2689              	.LBB139:
 2690              	.LBB140:
 148:src/../h/riscv.hpp ****     asm("csrr %[sepc], sepc" : [sepc] "=r" (sepc));
 2691              		.loc 2 148 5
 149:src/../h/riscv.hpp ****     return sepc;
 2692              		.loc 2 149 5
 149:src/../h/riscv.hpp ****     return sepc;
 2693              		.loc 2 149 51 is_stmt 0
 2694              	#APP
 2695              	# 149 "src/../h/riscv.hpp" 1
 150:src/../h/riscv.hpp **** }
 2696              		csrr a0, sepc
 2697              	# 0 "" 2
 2698              		.loc 2 150 5 is_stmt 1
 2699              	#NO_APP
 2700              	.LBE140:
 2701              	.LBE139:
 241:src/riscv.cpp ****         ConsoleUtil::printString("\n");
 2702              		.loc 1 241 9
 241:src/riscv.cpp ****         ConsoleUtil::printString("\n");
 2703              		.loc 1 241 30 is_stmt 0
 2704 0e00 13060000 		li	a2,0
 2705 0e04 93050001 		li	a1,16
 2706 0e08 1B050500 		sext.w	a0,a0
 2707 0e0c 97000000 		call	_ZN11ConsoleUtil8printIntEiii@plt
 2707      E7800000 
 2708              	.LVL219:
 242:src/riscv.cpp ****         TCB* old = TCB::running;
 2709              		.loc 1 242 9 is_stmt 1
 242:src/riscv.cpp ****         TCB* old = TCB::running;
 2710              		.loc 1 242 33 is_stmt 0
 2711 0e14 17050000 		lla	a0,.LC1
 2711      13050500 
 2712 0e1c 97000000 		call	_ZN11ConsoleUtil11printStringEPKc@plt
 2712      E7800000 
 2713              	.LVL220:
 243:src/riscv.cpp ****         old->status = TCB::Status::FINISHED;
GAS LISTING /tmp/ccZSci1i.s 			page 74


 2714              		.loc 1 243 9 is_stmt 1
 243:src/riscv.cpp ****         old->status = TCB::Status::FINISHED;
 2715              		.loc 1 243 14 is_stmt 0
 2716 0e24 97070000 		la	a5,_ZN3TCB7runningE
 2716      83B70700 
 2717 0e2c 83B70700 		ld	a5,0(a5)
 2718              	.LVL221:
 244:src/riscv.cpp ****         ConsoleUtil::printString("Exiting thread...\n");
 2719              		.loc 1 244 9 is_stmt 1
 244:src/riscv.cpp ****         ConsoleUtil::printString("Exiting thread...\n");
 2720              		.loc 1 244 21 is_stmt 0
 2721 0e30 13072000 		li	a4,2
 2722 0e34 23A8E700 		sw	a4,16(a5)
 245:src/riscv.cpp ****         TCB::dispatch();
 2723              		.loc 1 245 9 is_stmt 1
 245:src/riscv.cpp ****         TCB::dispatch();
 2724              		.loc 1 245 33 is_stmt 0
 2725 0e38 17050000 		lla	a0,.LC5
 2725      13050500 
 2726 0e40 97000000 		call	_ZN11ConsoleUtil11printStringEPKc@plt
 2726      E7800000 
 2727              	.LVL222:
 246:src/riscv.cpp ****     }
 2728              		.loc 1 246 9 is_stmt 1
 246:src/riscv.cpp ****     }
 2729              		.loc 1 246 22 is_stmt 0
 2730 0e48 97000000 		call	_ZN3TCB8dispatchEv@plt
 2730      E7800000 
 2731              	.LVL223:
 2732 0e50 6F000008 		j	.L153
 2733              	.L130:
 2734              	.LBE136:
 2735              	.LBE135:
 2736              	.LBE158:
 2737              	.LBE175:
 2738              	.LBB176:
 109:src/riscv.cpp ****         uint64 volatile sepc = RiscV::r_sepc()+4;
 2739              		.loc 1 109 9 is_stmt 1
 2740              	.LBB177:
 2741              	.LBB178:
 168:src/../h/riscv.hpp ****     asm("csrr %[sstatus], sstatus" : [sstatus] "=r" (sstatus));
 2742              		.loc 2 168 5
 169:src/../h/riscv.hpp ****     return sstatus;
 2743              		.loc 2 169 5
 169:src/../h/riscv.hpp ****     return sstatus;
 2744              		.loc 2 169 63 is_stmt 0
 2745              	#APP
 2746              	# 169 "src/../h/riscv.hpp" 1
 2747              		csrr a5, sstatus
 2748              	# 0 "" 2
 2749              	.LVL224:
 170:src/../h/riscv.hpp **** }
 2750              		.loc 2 170 5 is_stmt 1
 2751              	#NO_APP
 2752              	.LBE178:
 2753              	.LBE177:
 109:src/riscv.cpp ****         uint64 volatile sepc = RiscV::r_sepc()+4;
GAS LISTING /tmp/ccZSci1i.s 			page 75


 2754              		.loc 1 109 52 is_stmt 0
 2755 0e58 2334F4FA 		sd	a5,-88(s0)
 110:src/riscv.cpp ****         TCB::running->sepc = sepc;
 2756              		.loc 1 110 9 is_stmt 1
 2757              	.LBB179:
 2758              	.LBB180:
 148:src/../h/riscv.hpp ****     asm("csrr %[sepc], sepc" : [sepc] "=r" (sepc));
 2759              		.loc 2 148 5
 149:src/../h/riscv.hpp ****     return sepc;
 2760              		.loc 2 149 5
 149:src/../h/riscv.hpp ****     return sepc;
 2761              		.loc 2 149 51 is_stmt 0
 2762              	#APP
 2763              	# 149 "src/../h/riscv.hpp" 1
 2764              		csrr a5, sepc
 2765              	# 0 "" 2
 2766              	.LVL225:
 150:src/../h/riscv.hpp **** }
 2767              		.loc 2 150 5 is_stmt 1
 2768              	#NO_APP
 2769              	.LBE180:
 2770              	.LBE179:
 110:src/riscv.cpp ****         TCB::running->sepc = sepc;
 2771              		.loc 1 110 47 is_stmt 0
 2772 0e60 93874700 		addi	a5,a5,4
 110:src/riscv.cpp ****         TCB::running->sepc = sepc;
 2773              		.loc 1 110 48
 2774 0e64 2338F4FA 		sd	a5,-80(s0)
 111:src/riscv.cpp ****         TCB::running->sstatus = sstatus;
 2775              		.loc 1 111 9 is_stmt 1
 111:src/riscv.cpp ****         TCB::running->sstatus = sstatus;
 2776              		.loc 1 111 23 is_stmt 0
 2777 0e68 97070000 		la	a5,_ZN3TCB7runningE
 2777      83B70700 
 2778 0e70 83B70700 		ld	a5,0(a5)
 111:src/riscv.cpp ****         TCB::running->sstatus = sstatus;
 2779              		.loc 1 111 28
 2780 0e74 033704FB 		ld	a4,-80(s0)
 2781 0e78 23BCE702 		sd	a4,56(a5)
 112:src/riscv.cpp **** 
 2782              		.loc 1 112 9 is_stmt 1
 112:src/riscv.cpp **** 
 2783              		.loc 1 112 31 is_stmt 0
 2784 0e7c 033784FA 		ld	a4,-88(s0)
 2785 0e80 23B0E704 		sd	a4,64(a5)
 115:src/riscv.cpp ****         asm("mv %[syscallID], a0" : [syscallID] "=r" (syscallID));
 2786              		.loc 1 115 9 is_stmt 1
 116:src/riscv.cpp **** 
 2787              		.loc 1 116 9
 116:src/riscv.cpp **** 
 2788              		.loc 1 116 66 is_stmt 0
 2789              	#APP
 2790              	# 116 "src/riscv.cpp" 1
 2791              		mv a5, a0
 2792              	# 0 "" 2
 2793              	.LVL226:
 118:src/riscv.cpp ****             case 0x01 : executeMemAllocSyscall();break;
GAS LISTING /tmp/ccZSci1i.s 			page 76


 2794              		.loc 1 118 9 is_stmt 1
 2795              	#NO_APP
 2796 0e88 13071006 		li	a4,97
 2797 0e8c 6364F702 		bgtu	a5,a4,.L133
 2798 0e90 93972700 		slli	a5,a5,2
 2799              	.LVL227:
 2800 0e94 17070000 		lla	a4,.L135
 2800      13070700 
 2801 0e9c B387E700 		add	a5,a5,a4
 2802 0ea0 83A70700 		lw	a5,0(a5)
 2803 0ea4 B387E700 		add	a5,a5,a4
 2804 0ea8 67800700 		jr	a5
 2805              		.section	.rodata
 2806              		.align	2
 2807              		.align	2
 2808              	.L135:
 2809 0000 00000000 		.word	.L133-.L135
 2810 0004 00000000 		.word	.L152-.L135
 2811 0008 00000000 		.word	.L151-.L135
 2812 000c 00000000 		.word	.L133-.L135
 2813 0010 00000000 		.word	.L133-.L135
 2814 0014 00000000 		.word	.L133-.L135
 2815 0018 00000000 		.word	.L133-.L135
 2816 001c 00000000 		.word	.L133-.L135
 2817 0020 00000000 		.word	.L133-.L135
 2818 0024 00000000 		.word	.L133-.L135
 2819 0028 00000000 		.word	.L133-.L135
 2820 002c 00000000 		.word	.L133-.L135
 2821 0030 00000000 		.word	.L133-.L135
 2822 0034 00000000 		.word	.L133-.L135
 2823 0038 00000000 		.word	.L133-.L135
 2824 003c 00000000 		.word	.L133-.L135
 2825 0040 00000000 		.word	.L133-.L135
 2826 0044 00000000 		.word	.L150-.L135
 2827 0048 00000000 		.word	.L149-.L135
 2828 004c 00000000 		.word	.L148-.L135
 2829 0050 00000000 		.word	.L147-.L135
 2830 0054 00000000 		.word	.L146-.L135
 2831 0058 00000000 		.word	.L133-.L135
 2832 005c 00000000 		.word	.L133-.L135
 2833 0060 00000000 		.word	.L133-.L135
 2834 0064 00000000 		.word	.L133-.L135
 2835 0068 00000000 		.word	.L133-.L135
 2836 006c 00000000 		.word	.L133-.L135
 2837 0070 00000000 		.word	.L133-.L135
 2838 0074 00000000 		.word	.L133-.L135
 2839 0078 00000000 		.word	.L133-.L135
 2840 007c 00000000 		.word	.L133-.L135
 2841 0080 00000000 		.word	.L133-.L135
 2842 0084 00000000 		.word	.L145-.L135
 2843 0088 00000000 		.word	.L144-.L135
 2844 008c 00000000 		.word	.L143-.L135
 2845 0090 00000000 		.word	.L142-.L135
 2846 0094 00000000 		.word	.L133-.L135
 2847 0098 00000000 		.word	.L133-.L135
 2848 009c 00000000 		.word	.L133-.L135
 2849 00a0 00000000 		.word	.L133-.L135
GAS LISTING /tmp/ccZSci1i.s 			page 77


 2850 00a4 00000000 		.word	.L133-.L135
 2851 00a8 00000000 		.word	.L133-.L135
 2852 00ac 00000000 		.word	.L133-.L135
 2853 00b0 00000000 		.word	.L133-.L135
 2854 00b4 00000000 		.word	.L133-.L135
 2855 00b8 00000000 		.word	.L133-.L135
 2856 00bc 00000000 		.word	.L133-.L135
 2857 00c0 00000000 		.word	.L133-.L135
 2858 00c4 00000000 		.word	.L141-.L135
 2859 00c8 00000000 		.word	.L133-.L135
 2860 00cc 00000000 		.word	.L133-.L135
 2861 00d0 00000000 		.word	.L133-.L135
 2862 00d4 00000000 		.word	.L133-.L135
 2863 00d8 00000000 		.word	.L133-.L135
 2864 00dc 00000000 		.word	.L133-.L135
 2865 00e0 00000000 		.word	.L133-.L135
 2866 00e4 00000000 		.word	.L133-.L135
 2867 00e8 00000000 		.word	.L133-.L135
 2868 00ec 00000000 		.word	.L133-.L135
 2869 00f0 00000000 		.word	.L133-.L135
 2870 00f4 00000000 		.word	.L133-.L135
 2871 00f8 00000000 		.word	.L133-.L135
 2872 00fc 00000000 		.word	.L133-.L135
 2873 0100 00000000 		.word	.L133-.L135
 2874 0104 00000000 		.word	.L140-.L135
 2875 0108 00000000 		.word	.L139-.L135
 2876 010c 00000000 		.word	.L138-.L135
 2877 0110 00000000 		.word	.L133-.L135
 2878 0114 00000000 		.word	.L133-.L135
 2879 0118 00000000 		.word	.L133-.L135
 2880 011c 00000000 		.word	.L133-.L135
 2881 0120 00000000 		.word	.L133-.L135
 2882 0124 00000000 		.word	.L133-.L135
 2883 0128 00000000 		.word	.L133-.L135
 2884 012c 00000000 		.word	.L133-.L135
 2885 0130 00000000 		.word	.L133-.L135
 2886 0134 00000000 		.word	.L133-.L135
 2887 0138 00000000 		.word	.L133-.L135
 2888 013c 00000000 		.word	.L133-.L135
 2889 0140 00000000 		.word	.L133-.L135
 2890 0144 00000000 		.word	.L137-.L135
 2891 0148 00000000 		.word	.L136-.L135
 2892 014c 00000000 		.word	.L133-.L135
 2893 0150 00000000 		.word	.L133-.L135
 2894 0154 00000000 		.word	.L133-.L135
 2895 0158 00000000 		.word	.L133-.L135
 2896 015c 00000000 		.word	.L133-.L135
 2897 0160 00000000 		.word	.L133-.L135
 2898 0164 00000000 		.word	.L133-.L135
 2899 0168 00000000 		.word	.L133-.L135
 2900 016c 00000000 		.word	.L133-.L135
 2901 0170 00000000 		.word	.L133-.L135
 2902 0174 00000000 		.word	.L133-.L135
 2903 0178 00000000 		.word	.L133-.L135
 2904 017c 00000000 		.word	.L133-.L135
 2905 0180 00000000 		.word	.L133-.L135
 2906 0184 00000000 		.word	.L134-.L135
GAS LISTING /tmp/ccZSci1i.s 			page 78


 2907              		.text
 2908              	.L152:
 119:src/riscv.cpp ****             case 0x02 : executeMemFreeSyscall();break;
 2909              		.loc 1 119 13
 119:src/riscv.cpp ****             case 0x02 : executeMemFreeSyscall();break;
 2910              		.loc 1 119 25
 119:src/riscv.cpp ****             case 0x02 : executeMemFreeSyscall();break;
 2911              		.loc 1 119 47 is_stmt 0
 2912 0eac 97000000 		call	_ZN5RiscV22executeMemAllocSyscallEv
 2912      E7800000 
 2913              	.LVL228:
 119:src/riscv.cpp ****             case 0x02 : executeMemFreeSyscall();break;
 2914              		.loc 1 119 50 is_stmt 1
 2915              	.L133:
 146:src/riscv.cpp ****         RiscV::w_sepc(TCB::running->sepc);
 2916              		.loc 1 146 9
 146:src/riscv.cpp ****         RiscV::w_sepc(TCB::running->sepc);
 2917              		.loc 1 146 25 is_stmt 0
 2918 0eb4 97070000 		la	a5,_ZN3TCB7runningE
 2918      83B70700 
 2919 0ebc 83B70700 		ld	a5,0(a5)
 2920 0ec0 03B70704 		ld	a4,64(a5)
 2921              	.LVL229:
 2922              	.LBB181:
 2923              	.LBB182:
 164:src/../h/riscv.hpp **** }
 2924              		.loc 2 164 5 is_stmt 1
 164:src/../h/riscv.hpp **** }
 2925              		.loc 2 164 64 is_stmt 0
 2926              	#APP
 2927              	# 164 "src/../h/riscv.hpp" 1
 2928              		csrw sstatus, a4
 2929              	# 0 "" 2
 2930              	.LVL230:
 2931              	#NO_APP
 2932              	.LBE182:
 2933              	.LBE181:
 147:src/riscv.cpp ****     }
 2934              		.loc 1 147 9 is_stmt 1
 147:src/riscv.cpp ****     }
 2935              		.loc 1 147 22 is_stmt 0
 2936 0ec8 83B78703 		ld	a5,56(a5)
 2937              	.LVL231:
 2938              	.LBB183:
 2939              	.LBB184:
 154:src/../h/riscv.hpp **** }
 2940              		.loc 2 154 5 is_stmt 1
 154:src/../h/riscv.hpp **** }
 2941              		.loc 2 154 52 is_stmt 0
 2942              	#APP
 2943              	# 154 "src/../h/riscv.hpp" 1
 2944              		csrw sepc, a5
 2945              	# 0 "" 2
 2946              	.LVL232:
 2947              	#NO_APP
 2948              	.L153:
 2949              	.LBE184:
GAS LISTING /tmp/ccZSci1i.s 			page 79


 2950              	.LBE183:
 2951              	.LBE176:
 2952              	.LBE189:
 249:src/riscv.cpp **** }
 2953              		.loc 1 249 5 is_stmt 1
 249:src/riscv.cpp **** }
 2954              		.loc 1 249 41 is_stmt 0
 2955 0ed0 97000000 		call	_ZN5RiscV29jumpToDesignatedPrivilegeModeEv
 2955      E7800000 
 2956              	.LVL233:
 250:src/riscv.cpp **** 
 2957              		.loc 1 250 1
 2958 0ed8 83308105 		ld	ra,88(sp)
 2959              		.cfi_remember_state
 2960              		.cfi_restore 1
 2961 0edc 03340105 		ld	s0,80(sp)
 2962              		.cfi_restore 8
 2963              		.cfi_def_cfa 2, 96
 2964 0ee0 13010106 		addi	sp,sp,96
 2965              		.cfi_def_cfa_offset 0
 2966 0ee4 67800000 		jr	ra
 2967              	.L151:
 2968              		.cfi_restore_state
 2969              	.LBB190:
 2970              	.LBB185:
 120:src/riscv.cpp ****             case 0x11 : executeThreadCreateSyscall();break;
 2971              		.loc 1 120 13 is_stmt 1
 120:src/riscv.cpp ****             case 0x11 : executeThreadCreateSyscall();break;
 2972              		.loc 1 120 25
 120:src/riscv.cpp ****             case 0x11 : executeThreadCreateSyscall();break;
 2973              		.loc 1 120 46 is_stmt 0
 2974 0ee8 97000000 		call	_ZN5RiscV21executeMemFreeSyscallEv
 2974      E7800000 
 2975              	.LVL234:
 120:src/riscv.cpp ****             case 0x11 : executeThreadCreateSyscall();break;
 2976              		.loc 1 120 49 is_stmt 1
 2977 0ef0 6FF05FFC 		j	.L133
 2978              	.L150:
 121:src/riscv.cpp ****             case 0x12 : executeThreadExitSyscall();break;
 2979              		.loc 1 121 13
 121:src/riscv.cpp ****             case 0x12 : executeThreadExitSyscall();break;
 2980              		.loc 1 121 25
 121:src/riscv.cpp ****             case 0x12 : executeThreadExitSyscall();break;
 2981              		.loc 1 121 51 is_stmt 0
 2982 0ef4 97000000 		call	_ZN5RiscV26executeThreadCreateSyscallEv
 2982      E7800000 
 2983              	.LVL235:
 121:src/riscv.cpp ****             case 0x12 : executeThreadExitSyscall();break;
 2984              		.loc 1 121 54 is_stmt 1
 2985 0efc 6FF09FFB 		j	.L133
 2986              	.L149:
 122:src/riscv.cpp ****             case 0x13 : executeThreadDispatchSyscall();break;
 2987              		.loc 1 122 13
 122:src/riscv.cpp ****             case 0x13 : executeThreadDispatchSyscall();break;
 2988              		.loc 1 122 25
 122:src/riscv.cpp ****             case 0x13 : executeThreadDispatchSyscall();break;
 2989              		.loc 1 122 49 is_stmt 0
GAS LISTING /tmp/ccZSci1i.s 			page 80


 2990 0f00 97000000 		call	_ZN5RiscV24executeThreadExitSyscallEv
 2990      E7800000 
 2991              	.LVL236:
 122:src/riscv.cpp ****             case 0x13 : executeThreadDispatchSyscall();break;
 2992              		.loc 1 122 52 is_stmt 1
 2993 0f08 6FF0DFFA 		j	.L133
 2994              	.L148:
 123:src/riscv.cpp ****             case 0x14 : executeThreadAttachBodySyscall();break;
 2995              		.loc 1 123 13
 123:src/riscv.cpp ****             case 0x14 : executeThreadAttachBodySyscall();break;
 2996              		.loc 1 123 25
 123:src/riscv.cpp ****             case 0x14 : executeThreadAttachBodySyscall();break;
 2997              		.loc 1 123 53 is_stmt 0
 2998 0f0c 97000000 		call	_ZN5RiscV28executeThreadDispatchSyscallEv
 2998      E7800000 
 2999              	.LVL237:
 123:src/riscv.cpp ****             case 0x14 : executeThreadAttachBodySyscall();break;
 3000              		.loc 1 123 56 is_stmt 1
 3001 0f14 6FF01FFA 		j	.L133
 3002              	.L147:
 124:src/riscv.cpp ****             case 0x15 : executeThreadStartSyscall();break;
 3003              		.loc 1 124 13
 124:src/riscv.cpp ****             case 0x15 : executeThreadStartSyscall();break;
 3004              		.loc 1 124 25
 124:src/riscv.cpp ****             case 0x15 : executeThreadStartSyscall();break;
 3005              		.loc 1 124 55 is_stmt 0
 3006 0f18 97000000 		call	_ZN5RiscV30executeThreadAttachBodySyscallEv
 3006      E7800000 
 3007              	.LVL238:
 124:src/riscv.cpp ****             case 0x15 : executeThreadStartSyscall();break;
 3008              		.loc 1 124 58 is_stmt 1
 3009 0f20 6FF05FF9 		j	.L133
 3010              	.L146:
 125:src/riscv.cpp ****             case 0x21 : executeSemOpenSyscall();break;
 3011              		.loc 1 125 13
 125:src/riscv.cpp ****             case 0x21 : executeSemOpenSyscall();break;
 3012              		.loc 1 125 25
 125:src/riscv.cpp ****             case 0x21 : executeSemOpenSyscall();break;
 3013              		.loc 1 125 50 is_stmt 0
 3014 0f24 97000000 		call	_ZN5RiscV25executeThreadStartSyscallEv
 3014      E7800000 
 3015              	.LVL239:
 125:src/riscv.cpp ****             case 0x21 : executeSemOpenSyscall();break;
 3016              		.loc 1 125 53 is_stmt 1
 3017 0f2c 6FF09FF8 		j	.L133
 3018              	.L145:
 126:src/riscv.cpp ****             case 0x22 : executeSemCloseSyscall();break;
 3019              		.loc 1 126 13
 126:src/riscv.cpp ****             case 0x22 : executeSemCloseSyscall();break;
 3020              		.loc 1 126 25
 126:src/riscv.cpp ****             case 0x22 : executeSemCloseSyscall();break;
 3021              		.loc 1 126 46 is_stmt 0
 3022 0f30 97000000 		call	_ZN5RiscV21executeSemOpenSyscallEv
 3022      E7800000 
 3023              	.LVL240:
 126:src/riscv.cpp ****             case 0x22 : executeSemCloseSyscall();break;
 3024              		.loc 1 126 49 is_stmt 1
GAS LISTING /tmp/ccZSci1i.s 			page 81


 3025 0f38 6FF0DFF7 		j	.L133
 3026              	.L144:
 127:src/riscv.cpp ****             case 0x23 : executeSemWaitSyscall();break;
 3027              		.loc 1 127 13
 127:src/riscv.cpp ****             case 0x23 : executeSemWaitSyscall();break;
 3028              		.loc 1 127 25
 127:src/riscv.cpp ****             case 0x23 : executeSemWaitSyscall();break;
 3029              		.loc 1 127 47 is_stmt 0
 3030 0f3c 97000000 		call	_ZN5RiscV22executeSemCloseSyscallEv
 3030      E7800000 
 3031              	.LVL241:
 127:src/riscv.cpp ****             case 0x23 : executeSemWaitSyscall();break;
 3032              		.loc 1 127 50 is_stmt 1
 3033 0f44 6FF01FF7 		j	.L133
 3034              	.L143:
 128:src/riscv.cpp ****             case 0x24 : executeSemSignalSyscall();break;
 3035              		.loc 1 128 13
 128:src/riscv.cpp ****             case 0x24 : executeSemSignalSyscall();break;
 3036              		.loc 1 128 25
 128:src/riscv.cpp ****             case 0x24 : executeSemSignalSyscall();break;
 3037              		.loc 1 128 46 is_stmt 0
 3038 0f48 97000000 		call	_ZN5RiscV21executeSemWaitSyscallEv
 3038      E7800000 
 3039              	.LVL242:
 128:src/riscv.cpp ****             case 0x24 : executeSemSignalSyscall();break;
 3040              		.loc 1 128 49 is_stmt 1
 3041 0f50 6FF05FF6 		j	.L133
 3042              	.L142:
 129:src/riscv.cpp ****             case 0x31 : executeTimeSleepSyscall();break;
 3043              		.loc 1 129 13
 129:src/riscv.cpp ****             case 0x31 : executeTimeSleepSyscall();break;
 3044              		.loc 1 129 25
 129:src/riscv.cpp ****             case 0x31 : executeTimeSleepSyscall();break;
 3045              		.loc 1 129 48 is_stmt 0
 3046 0f54 97000000 		call	_ZN5RiscV23executeSemSignalSyscallEv
 3046      E7800000 
 3047              	.LVL243:
 129:src/riscv.cpp ****             case 0x31 : executeTimeSleepSyscall();break;
 3048              		.loc 1 129 51 is_stmt 1
 3049 0f5c 6FF09FF5 		j	.L133
 3050              	.L141:
 130:src/riscv.cpp ****             case 0x41 : executeGetcSyscall();break;
 3051              		.loc 1 130 13
 130:src/riscv.cpp ****             case 0x41 : executeGetcSyscall();break;
 3052              		.loc 1 130 25
 130:src/riscv.cpp ****             case 0x41 : executeGetcSyscall();break;
 3053              		.loc 1 130 48 is_stmt 0
 3054 0f60 97000000 		call	_ZN5RiscV23executeTimeSleepSyscallEv
 3054      E7800000 
 3055              	.LVL244:
 130:src/riscv.cpp ****             case 0x41 : executeGetcSyscall();break;
 3056              		.loc 1 130 51 is_stmt 1
 3057 0f68 6FF0DFF4 		j	.L133
 3058              	.L140:
 131:src/riscv.cpp ****             case 0x42 : executePutcSyscall();break;
 3059              		.loc 1 131 13
 131:src/riscv.cpp ****             case 0x42 : executePutcSyscall();break;
GAS LISTING /tmp/ccZSci1i.s 			page 82


 3060              		.loc 1 131 25
 131:src/riscv.cpp ****             case 0x42 : executePutcSyscall();break;
 3061              		.loc 1 131 43 is_stmt 0
 3062 0f6c 97000000 		call	_ZN5RiscV18executeGetcSyscallEv
 3062      E7800000 
 3063              	.LVL245:
 131:src/riscv.cpp ****             case 0x42 : executePutcSyscall();break;
 3064              		.loc 1 131 46 is_stmt 1
 3065 0f74 6FF01FF4 		j	.L133
 3066              	.L139:
 132:src/riscv.cpp ****             case 0x43 : executePutcUtilSyscall();break;
 3067              		.loc 1 132 13
 132:src/riscv.cpp ****             case 0x43 : executePutcUtilSyscall();break;
 3068              		.loc 1 132 25
 132:src/riscv.cpp ****             case 0x43 : executePutcUtilSyscall();break;
 3069              		.loc 1 132 43 is_stmt 0
 3070 0f78 97000000 		call	_ZN5RiscV18executePutcSyscallEv
 3070      E7800000 
 3071              	.LVL246:
 132:src/riscv.cpp ****             case 0x43 : executePutcUtilSyscall();break;
 3072              		.loc 1 132 46 is_stmt 1
 3073 0f80 6FF05FF3 		j	.L133
 3074              	.L138:
 133:src/riscv.cpp ****             case 0x51 : executeThreadFreeSyscall();break;
 3075              		.loc 1 133 13
 133:src/riscv.cpp ****             case 0x51 : executeThreadFreeSyscall();break;
 3076              		.loc 1 133 25
 133:src/riscv.cpp ****             case 0x51 : executeThreadFreeSyscall();break;
 3077              		.loc 1 133 47 is_stmt 0
 3078 0f84 97000000 		call	_ZN5RiscV22executePutcUtilSyscallEv
 3078      E7800000 
 3079              	.LVL247:
 133:src/riscv.cpp ****             case 0x51 : executeThreadFreeSyscall();break;
 3080              		.loc 1 133 50 is_stmt 1
 3081 0f8c 6FF09FF2 		j	.L133
 3082              	.L137:
 134:src/riscv.cpp ****             case 0x52 : executeSemaphoreFreeSyscall();break;
 3083              		.loc 1 134 13
 134:src/riscv.cpp ****             case 0x52 : executeSemaphoreFreeSyscall();break;
 3084              		.loc 1 134 25
 134:src/riscv.cpp ****             case 0x52 : executeSemaphoreFreeSyscall();break;
 3085              		.loc 1 134 49 is_stmt 0
 3086 0f90 97000000 		call	_ZN5RiscV24executeThreadFreeSyscallEv
 3086      E7800000 
 3087              	.LVL248:
 134:src/riscv.cpp ****             case 0x52 : executeSemaphoreFreeSyscall();break;
 3088              		.loc 1 134 52 is_stmt 1
 3089 0f98 6FF0DFF1 		j	.L133
 3090              	.L136:
 135:src/riscv.cpp ****             //in this case we need to save SP and PC at this point so that newly created thread
 3091              		.loc 1 135 13
 135:src/riscv.cpp ****             //in this case we need to save SP and PC at this point so that newly created thread
 3092              		.loc 1 135 25
 135:src/riscv.cpp ****             //in this case we need to save SP and PC at this point so that newly created thread
 3093              		.loc 1 135 52 is_stmt 0
 3094 0f9c 97000000 		call	_ZN5RiscV27executeSemaphoreFreeSyscallEv
 3094      E7800000 
GAS LISTING /tmp/ccZSci1i.s 			page 83


 3095              	.LVL249:
 135:src/riscv.cpp ****             //in this case we need to save SP and PC at this point so that newly created thread
 3096              		.loc 1 135 55 is_stmt 1
 3097 0fa4 6FF01FF1 		j	.L133
 3098              	.L134:
 139:src/riscv.cpp ****                         RiscV::getPC();
 3099              		.loc 1 139 13
 139:src/riscv.cpp ****                         RiscV::getPC();
 3100              		.loc 1 139 25
 139:src/riscv.cpp ****                         RiscV::getPC();
 3101              		.loc 1 139 72 is_stmt 0
 3102              	#APP
 3103              	# 139 "src/riscv.cpp" 1
 3104              		mv a5, sp
 3105              	# 0 "" 2
 3106              	#NO_APP
 3107 0fac 17070000 		la	a4,_ZN3TCB9currentSPE
 3107      03370700 
 3108 0fb4 2330F700 		sd	a5,0(a4)
 140:src/riscv.cpp ****                         executeForkSyscall();
 3109              		.loc 1 140 25 is_stmt 1
 140:src/riscv.cpp ****                         executeForkSyscall();
 3110              		.loc 1 140 37 is_stmt 0
 3111 0fb8 97000000 		call	_ZN5RiscV5getPCEv
 3111      E7800000 
 3112              	.LVL250:
 141:src/riscv.cpp ****                         break;
 3113              		.loc 1 141 25 is_stmt 1
 141:src/riscv.cpp ****                         break;
 3114              		.loc 1 141 43 is_stmt 0
 3115 0fc0 97000000 		call	_ZN5RiscV18executeForkSyscallEv
 3115      E7800000 
 3116              	.LVL251:
 142:src/riscv.cpp ****         }
 3117              		.loc 1 142 25 is_stmt 1
 3118 0fc8 6FF0DFEE 		j	.L133
 3119              	.L160:
 3120              	.LBE185:
 3121              	.LBB186:
 3122              	.LBB159:
 155:src/riscv.cpp ****         uint64 volatile sepc = RiscV::r_sepc();
 3123              		.loc 1 155 9
 3124              	.LBB160:
 3125              	.LBB161:
 168:src/../h/riscv.hpp ****     asm("csrr %[sstatus], sstatus" : [sstatus] "=r" (sstatus));
 3126              		.loc 2 168 5
 169:src/../h/riscv.hpp ****     return sstatus;
 3127              		.loc 2 169 5
 169:src/../h/riscv.hpp ****     return sstatus;
 3128              		.loc 2 169 63 is_stmt 0
 3129              	#APP
 3130              	# 169 "src/../h/riscv.hpp" 1
 3131              		csrr a5, sstatus
 3132              	# 0 "" 2
 3133              	.LVL252:
 170:src/../h/riscv.hpp **** }
 3134              		.loc 2 170 5 is_stmt 1
GAS LISTING /tmp/ccZSci1i.s 			page 84


 3135              	#NO_APP
 3136              	.LBE161:
 3137              	.LBE160:
 155:src/riscv.cpp ****         uint64 volatile sepc = RiscV::r_sepc();
 3138              		.loc 1 155 52 is_stmt 0
 3139 0fd0 233CF4FA 		sd	a5,-72(s0)
 156:src/riscv.cpp **** 
 3140              		.loc 1 156 9 is_stmt 1
 3141              	.LBB162:
 3142              	.LBB163:
 148:src/../h/riscv.hpp ****     asm("csrr %[sepc], sepc" : [sepc] "=r" (sepc));
 3143              		.loc 2 148 5
 149:src/../h/riscv.hpp ****     return sepc;
 3144              		.loc 2 149 5
 149:src/../h/riscv.hpp ****     return sepc;
 3145              		.loc 2 149 51 is_stmt 0
 3146              	#APP
 3147              	# 149 "src/../h/riscv.hpp" 1
 3148              		csrr a5, sepc
 3149              	# 0 "" 2
 3150              	.LVL253:
 150:src/../h/riscv.hpp **** }
 3151              		.loc 2 150 5 is_stmt 1
 3152              	#NO_APP
 3153              	.LBE163:
 3154              	.LBE162:
 156:src/riscv.cpp **** 
 3155              		.loc 1 156 46 is_stmt 0
 3156 0fd8 2330F4FC 		sd	a5,-64(s0)
 159:src/riscv.cpp **** 
 3157              		.loc 1 159 9 is_stmt 1
 3158              	.LVL254:
 3159              	.LBB164:
 3160              	.LBB165:
 190:src/../h/riscv.hpp **** }
 3161              		.loc 2 190 5
 190:src/../h/riscv.hpp **** }
 3162              		.loc 2 190 51 is_stmt 0
 3163 0fdc 93072000 		li	a5,2
 3164              	#APP
 3165              	# 190 "src/../h/riscv.hpp" 1
 3166              		csrc sip, a5
 3167              	# 0 "" 2
 3168              	.LVL255:
 3169              	#NO_APP
 3170              	.LBE165:
 3171              	.LBE164:
 163:src/riscv.cpp ****         Scheduler::awake();
 3172              		.loc 1 163 9 is_stmt 1
 163:src/riscv.cpp ****         Scheduler::awake();
 3173              		.loc 1 163 20 is_stmt 0
 3174 0fe4 17070000 		lla	a4,.LANCHOR0
 3174      13070700 
 3175 0fec 83370701 		ld	a5,16(a4)
 3176 0ff0 93871700 		addi	a5,a5,1
 3177 0ff4 2338F700 		sd	a5,16(a4)
 164:src/riscv.cpp **** 
GAS LISTING /tmp/ccZSci1i.s 			page 85


 3178              		.loc 1 164 9 is_stmt 1
 164:src/riscv.cpp **** 
 3179              		.loc 1 164 25 is_stmt 0
 3180 0ff8 97000000 		call	_ZN9Scheduler5awakeEv@plt
 3180      E7800000 
 3181              	.LVL256:
 168:src/riscv.cpp ****         if(TCB::timeSliceCounter >= TCB::running->timeSlice) {
 3182              		.loc 1 168 9 is_stmt 1
 168:src/riscv.cpp ****         if(TCB::timeSliceCounter >= TCB::running->timeSlice) {
 3183              		.loc 1 168 30 is_stmt 0
 3184 1000 17070000 		la	a4,_ZN3TCB16timeSliceCounterE
 3184      03370700 
 3185 1008 83370700 		ld	a5,0(a4)
 3186 100c 93871700 		addi	a5,a5,1
 3187 1010 2330F700 		sd	a5,0(a4)
 169:src/riscv.cpp **** 
 3188              		.loc 1 169 9 is_stmt 1
 3189              	.LBB166:
 169:src/riscv.cpp **** 
 3190              		.loc 1 169 51 is_stmt 0
 3191 1014 17070000 		la	a4,_ZN3TCB7runningE
 3191      03370700 
 3192 101c 03370700 		ld	a4,0(a4)
 3193 1020 83360703 		ld	a3,48(a4)
 169:src/riscv.cpp **** 
 3194              		.loc 1 169 9
 3195 1024 63FCD700 		bgeu	a5,a3,.L163
 3196              	.L154:
 3197              	.LBE166:
 181:src/riscv.cpp ****         RiscV::w_sepc(sepc);
 3198              		.loc 1 181 9 is_stmt 1
 181:src/riscv.cpp ****         RiscV::w_sepc(sepc);
 3199              		.loc 1 181 25 is_stmt 0
 3200 1028 833784FB 		ld	a5,-72(s0)
 3201              	.LVL257:
 3202              	.LBB168:
 3203              	.LBB169:
 164:src/../h/riscv.hpp **** }
 3204              		.loc 2 164 5 is_stmt 1
 164:src/../h/riscv.hpp **** }
 3205              		.loc 2 164 64 is_stmt 0
 3206              	#APP
 3207              	# 164 "src/../h/riscv.hpp" 1
 3208              		csrw sstatus, a5
 3209              	# 0 "" 2
 3210              	.LVL258:
 3211              	#NO_APP
 3212              	.LBE169:
 3213              	.LBE168:
 182:src/riscv.cpp ****     }
 3214              		.loc 1 182 9 is_stmt 1
 182:src/riscv.cpp ****     }
 3215              		.loc 1 182 22 is_stmt 0
 3216 1030 833704FC 		ld	a5,-64(s0)
 3217              	.LVL259:
 3218              	.LBB170:
 3219              	.LBB171:
GAS LISTING /tmp/ccZSci1i.s 			page 86


 154:src/../h/riscv.hpp **** }
 3220              		.loc 2 154 5 is_stmt 1
 154:src/../h/riscv.hpp **** }
 3221              		.loc 2 154 52 is_stmt 0
 3222              	#APP
 3223              	# 154 "src/../h/riscv.hpp" 1
 155:src/../h/riscv.hpp **** 
 3224              		csrw sepc, a5
 3225              	# 0 "" 2
 3226              		.loc 2 155 1
 3227              	#NO_APP
 3228 1038 6FF09FE9 		j	.L153
 3229              	.LVL260:
 3230              	.L163:
 3231              	.LBE171:
 3232              	.LBE170:
 3233              	.LBB172:
 3234              	.LBB167:
 171:src/riscv.cpp **** 
 3235              		.loc 1 171 13 is_stmt 1
 171:src/riscv.cpp **** 
 3236              		.loc 1 171 35 is_stmt 0
 3237 103c 97070000 		la	a5,_ZN3TCB16timeSliceCounterE
 3237      83B70700 
 3238 1044 23B00700 		sd	zero,0(a5)
 173:src/riscv.cpp **** 
 3239              		.loc 1 173 13 is_stmt 1
 3240              	.LVL261:
 175:src/riscv.cpp **** 
 3241              		.loc 1 175 13
 175:src/riscv.cpp **** 
 3242              		.loc 1 175 25 is_stmt 0
 3243 1048 93071000 		li	a5,1
 3244 104c 2328F700 		sw	a5,16(a4)
 177:src/riscv.cpp ****         }
 3245              		.loc 1 177 13 is_stmt 1
 177:src/riscv.cpp ****         }
 3246              		.loc 1 177 26 is_stmt 0
 3247 1050 97000000 		call	_ZN3TCB8dispatchEv@plt
 3247      E7800000 
 3248              	.LVL262:
 3249              	.LBE167:
 3250 1058 6FF01FFD 		j	.L154
 3251              	.L161:
 3252              	.LBE172:
 3253              	.LBE159:
 3254              	.LBB173:
 3255              	.LBB144:
 189:src/riscv.cpp ****         uint64 volatile sepc = RiscV::r_sepc();
 3256              		.loc 1 189 9 is_stmt 1
 3257              	.LBB145:
 3258              	.LBB146:
 168:src/../h/riscv.hpp ****     asm("csrr %[sstatus], sstatus" : [sstatus] "=r" (sstatus));
 3259              		.loc 2 168 5
 169:src/../h/riscv.hpp ****     return sstatus;
 3260              		.loc 2 169 5
 169:src/../h/riscv.hpp ****     return sstatus;
GAS LISTING /tmp/ccZSci1i.s 			page 87


 3261              		.loc 2 169 63 is_stmt 0
 3262              	#APP
 3263              	# 169 "src/../h/riscv.hpp" 1
 3264              		csrr a5, sstatus
 3265              	# 0 "" 2
 3266              	.LVL263:
 170:src/../h/riscv.hpp **** }
 3267              		.loc 2 170 5 is_stmt 1
 3268              	#NO_APP
 3269              	.LBE146:
 3270              	.LBE145:
 189:src/riscv.cpp ****         uint64 volatile sepc = RiscV::r_sepc();
 3271              		.loc 1 189 52 is_stmt 0
 3272 1060 2334F4FC 		sd	a5,-56(s0)
 190:src/riscv.cpp **** 
 3273              		.loc 1 190 9 is_stmt 1
 3274              	.LBB147:
 3275              	.LBB148:
 148:src/../h/riscv.hpp ****     asm("csrr %[sepc], sepc" : [sepc] "=r" (sepc));
 3276              		.loc 2 148 5
 149:src/../h/riscv.hpp ****     return sepc;
 3277              		.loc 2 149 5
 149:src/../h/riscv.hpp ****     return sepc;
 3278              		.loc 2 149 51 is_stmt 0
 3279              	#APP
 3280              	# 149 "src/../h/riscv.hpp" 1
 3281              		csrr a5, sepc
 3282              	# 0 "" 2
 3283              	.LVL264:
 150:src/../h/riscv.hpp **** }
 3284              		.loc 2 150 5 is_stmt 1
 3285              	#NO_APP
 3286              	.LBE148:
 3287              	.LBE147:
 190:src/riscv.cpp **** 
 3288              		.loc 1 190 46 is_stmt 0
 3289 1068 2338F4FC 		sd	a5,-48(s0)
 193:src/riscv.cpp ****         asm("mv a0, %[status]" : : [status] "r" (status));
 3290              		.loc 1 193 9 is_stmt 1
 193:src/riscv.cpp ****         asm("mv a0, %[status]" : : [status] "r" (status));
 3291              		.loc 1 193 16 is_stmt 0
 3292 106c 97070000 		la	a5,CONSOLE_STATUS
 3292      83B70700 
 3293 1074 83B70700 		ld	a5,0(a5)
 3294              	.LVL265:
 194:src/riscv.cpp ****         asm("lb a1, 0(a0)");
 3295              		.loc 1 194 9 is_stmt 1
 194:src/riscv.cpp ****         asm("lb a1, 0(a0)");
 3296              		.loc 1 194 58 is_stmt 0
 3297              	#APP
 3298              	# 194 "src/riscv.cpp" 1
 195:src/riscv.cpp ****         asm("mv %[status], a1" : [status] "=r" (status));
 3299              		mv a0, a5
 3300              	# 0 "" 2
 3301              		.loc 1 195 9 is_stmt 1
 195:src/riscv.cpp ****         asm("mv %[status], a1" : [status] "=r" (status));
 3302              		.loc 1 195 28 is_stmt 0
GAS LISTING /tmp/ccZSci1i.s 			page 88


 3303              	# 195 "src/riscv.cpp" 1
 196:src/riscv.cpp **** 
 3304              		lb a1, 0(a0)
 3305              	# 0 "" 2
 3306              		.loc 1 196 9 is_stmt 1
 196:src/riscv.cpp **** 
 3307              		.loc 1 196 57 is_stmt 0
 3308              	# 196 "src/riscv.cpp" 1
 3309              		mv a5, a1
 3310              	# 0 "" 2
 3311              	.LVL266:
 199:src/riscv.cpp ****         {
 3312              		.loc 1 199 9 is_stmt 1
 3313              	#NO_APP
 3314              	.LBB149:
 199:src/riscv.cpp ****         {
 3315              		.loc 1 199 19 is_stmt 0
 3316 1084 93F71700 		andi	a5,a5,1
 3317              	.LVL267:
 199:src/riscv.cpp ****         {
 3318              		.loc 1 199 9
 3319 1088 63880702 		beqz	a5,.L156
 3320              	.LBB150:
 202:src/riscv.cpp ****             char c;
 3321              		.loc 1 202 13 is_stmt 1
 203:src/riscv.cpp ****             data = CONSOLE_TX_DATA;
 3322              		.loc 1 203 13
 204:src/riscv.cpp ****             asm("mv a0, %[data]" : : [data] "r" (data));
 3323              		.loc 1 204 13
 204:src/riscv.cpp ****             asm("mv a0, %[data]" : : [data] "r" (data));
 3324              		.loc 1 204 18 is_stmt 0
 3325 108c 97070000 		la	a5,CONSOLE_TX_DATA
 3325      83B70700 
 3326 1094 83B70700 		ld	a5,0(a5)
 3327              	.LVL268:
 205:src/riscv.cpp ****             asm("lb a1, 0(a0)");
 3328              		.loc 1 205 13 is_stmt 1
 205:src/riscv.cpp ****             asm("lb a1, 0(a0)");
 3329              		.loc 1 205 56 is_stmt 0
 3330              	#APP
 3331              	# 205 "src/riscv.cpp" 1
 206:src/riscv.cpp ****             asm("mv %[c], a1" : [c] "=r" (c));
 3332              		mv a0, a5
 3333              	# 0 "" 2
 3334              		.loc 1 206 13 is_stmt 1
 206:src/riscv.cpp ****             asm("mv %[c], a1" : [c] "=r" (c));
 3335              		.loc 1 206 32 is_stmt 0
 3336              	# 206 "src/riscv.cpp" 1
 207:src/riscv.cpp **** 
 3337              		lb a1, 0(a0)
 3338              	# 0 "" 2
 3339              		.loc 1 207 13 is_stmt 1
 207:src/riscv.cpp **** 
 3340              		.loc 1 207 46 is_stmt 0
 3341              	# 207 "src/riscv.cpp" 1
 3342              		mv a0, a1
 3343              	# 0 "" 2
GAS LISTING /tmp/ccZSci1i.s 			page 89


 3344              	#NO_APP
 3345 10a4 1375F50F 		andi	a0,a0,0xff
 3346              	.LVL269:
 210:src/riscv.cpp ****                 ConsoleUtil::pendingGetc--;
 3347              		.loc 1 210 13 is_stmt 1
 210:src/riscv.cpp ****                 ConsoleUtil::pendingGetc--;
 3348              		.loc 1 210 40 is_stmt 0
 3349 10a8 97070000 		la	a5,_ZN11ConsoleUtil11pendingGetcE
 3349      83B70700 
 3350              	.LVL270:
 3351 10b0 83B70700 		ld	a5,0(a5)
 210:src/riscv.cpp ****                 ConsoleUtil::pendingGetc--;
 3352              		.loc 1 210 13
 3353 10b4 63940702 		bnez	a5,.L164
 3354              	.LVL271:
 3355              	.L156:
 3356              	.LBE150:
 3357              	.LBE149:
 215:src/riscv.cpp **** 
 3358              		.loc 1 215 9 is_stmt 1
 215:src/riscv.cpp **** 
 3359              		.loc 1 215 22 is_stmt 0
 3360 10b8 97000000 		call	plic_claim@plt
 3360      E7800000 
 3361              	.LVL272:
 3362 10c0 97000000 		call	plic_complete@plt
 3362      E7800000 
 3363              	.LVL273:
 217:src/riscv.cpp ****         RiscV::w_sepc(sepc);
 3364              		.loc 1 217 9 is_stmt 1
 217:src/riscv.cpp ****         RiscV::w_sepc(sepc);
 3365              		.loc 1 217 25 is_stmt 0
 3366 10c8 833784FC 		ld	a5,-56(s0)
 3367              	.LVL274:
 3368              	.LBB152:
 3369              	.LBB153:
 164:src/../h/riscv.hpp **** }
 3370              		.loc 2 164 5 is_stmt 1
 164:src/../h/riscv.hpp **** }
 3371              		.loc 2 164 64 is_stmt 0
 3372              	#APP
 3373              	# 164 "src/../h/riscv.hpp" 1
 3374              		csrw sstatus, a5
 3375              	# 0 "" 2
 3376              	.LVL275:
 3377              	#NO_APP
 3378              	.LBE153:
 3379              	.LBE152:
 218:src/riscv.cpp ****     }
 3380              		.loc 1 218 9 is_stmt 1
 218:src/riscv.cpp ****     }
 3381              		.loc 1 218 22 is_stmt 0
 3382 10d0 833704FD 		ld	a5,-48(s0)
 3383              	.LVL276:
 3384              	.LBB154:
 3385              	.LBB155:
 154:src/../h/riscv.hpp **** }
GAS LISTING /tmp/ccZSci1i.s 			page 90


 3386              		.loc 2 154 5 is_stmt 1
 154:src/../h/riscv.hpp **** }
 3387              		.loc 2 154 52 is_stmt 0
 3388              	#APP
 3389              	# 154 "src/../h/riscv.hpp" 1
 155:src/../h/riscv.hpp **** 
 3390              		csrw sepc, a5
 3391              	# 0 "" 2
 3392              		.loc 2 155 1
 3393              	#NO_APP
 3394 10d8 6FF09FDF 		j	.L153
 3395              	.LVL277:
 3396              	.L164:
 3397              	.LBE155:
 3398              	.LBE154:
 3399              	.LBB156:
 3400              	.LBB151:
 211:src/riscv.cpp ****                 ConsoleUtil::putInput(c);
 3401              		.loc 1 211 17 is_stmt 1
 211:src/riscv.cpp ****                 ConsoleUtil::putInput(c);
 3402              		.loc 1 211 41 is_stmt 0
 3403 10dc 9387F7FF 		addi	a5,a5,-1
 3404 10e0 17070000 		la	a4,_ZN11ConsoleUtil11pendingGetcE
 3404      03370700 
 3405 10e8 2330F700 		sd	a5,0(a4)
 212:src/riscv.cpp ****             }
 3406              		.loc 1 212 17 is_stmt 1
 212:src/riscv.cpp ****             }
 3407              		.loc 1 212 38 is_stmt 0
 3408 10ec 97000000 		call	_ZN11ConsoleUtil8putInputEc@plt
 3408      E7800000 
 3409              	.LVL278:
 3410 10f4 6FF05FFC 		j	.L156
 3411              	.LVL279:
 3412              	.L162:
 3413              	.LBE151:
 3414              	.LBE156:
 3415              	.LBE144:
 3416              	.LBB157:
 3417              	.LBB141:
 223:src/riscv.cpp ****         old->status = TCB::Status::FINISHED;
 3418              		.loc 1 223 9 is_stmt 1
 223:src/riscv.cpp ****         old->status = TCB::Status::FINISHED;
 3419              		.loc 1 223 14 is_stmt 0
 3420 10f8 97070000 		la	a5,_ZN3TCB7runningE
 3420      83B70700 
 3421 1100 83B70700 		ld	a5,0(a5)
 3422              	.LVL280:
 224:src/riscv.cpp ****         ConsoleUtil::printString("sepc: ");
 3423              		.loc 1 224 9 is_stmt 1
 224:src/riscv.cpp ****         ConsoleUtil::printString("sepc: ");
 3424              		.loc 1 224 21 is_stmt 0
 3425 1104 13072000 		li	a4,2
 3426 1108 23A8E700 		sw	a4,16(a5)
 225:src/riscv.cpp ****         uint64 sepc = RiscV::r_sepc();
 3427              		.loc 1 225 9 is_stmt 1
 225:src/riscv.cpp ****         uint64 sepc = RiscV::r_sepc();
GAS LISTING /tmp/ccZSci1i.s 			page 91


 3428              		.loc 1 225 33 is_stmt 0
 3429 110c 17050000 		lla	a0,.LC0
 3429      13050500 
 3430 1114 97000000 		call	_ZN11ConsoleUtil11printStringEPKc@plt
 3430      E7800000 
 3431              	.LVL281:
 226:src/riscv.cpp ****         ConsoleUtil::printInt(sepc,16);
 3432              		.loc 1 226 9 is_stmt 1
 3433              	.LBB142:
 3434              	.LBB143:
 148:src/../h/riscv.hpp ****     asm("csrr %[sepc], sepc" : [sepc] "=r" (sepc));
 3435              		.loc 2 148 5
 149:src/../h/riscv.hpp ****     return sepc;
 3436              		.loc 2 149 5
 149:src/../h/riscv.hpp ****     return sepc;
 3437              		.loc 2 149 51 is_stmt 0
 3438              	#APP
 3439              	# 149 "src/../h/riscv.hpp" 1
 150:src/../h/riscv.hpp **** }
 3440              		csrr a0, sepc
 3441              	# 0 "" 2
 3442              		.loc 2 150 5 is_stmt 1
 3443              	#NO_APP
 3444              	.LBE143:
 3445              	.LBE142:
 227:src/riscv.cpp ****         ConsoleUtil::printString("\n");
 3446              		.loc 1 227 9
 227:src/riscv.cpp ****         ConsoleUtil::printString("\n");
 3447              		.loc 1 227 30 is_stmt 0
 3448 1120 13060000 		li	a2,0
 3449 1124 93050001 		li	a1,16
 3450 1128 1B050500 		sext.w	a0,a0
 3451 112c 97000000 		call	_ZN11ConsoleUtil8printIntEiii@plt
 3451      E7800000 
 3452              	.LVL282:
 228:src/riscv.cpp ****         ConsoleUtil::printString("Illegal instruction\nExiting thread...\n");
 3453              		.loc 1 228 9 is_stmt 1
 228:src/riscv.cpp ****         ConsoleUtil::printString("Illegal instruction\nExiting thread...\n");
 3454              		.loc 1 228 33 is_stmt 0
 3455 1134 17050000 		lla	a0,.LC1
 3455      13050500 
 3456 113c 97000000 		call	_ZN11ConsoleUtil11printStringEPKc@plt
 3456      E7800000 
 3457              	.LVL283:
 229:src/riscv.cpp ****         TCB::dispatch();
 3458              		.loc 1 229 9 is_stmt 1
 229:src/riscv.cpp ****         TCB::dispatch();
 3459              		.loc 1 229 33 is_stmt 0
 3460 1144 17050000 		lla	a0,.LC2
 3460      13050500 
 3461 114c 97000000 		call	_ZN11ConsoleUtil11printStringEPKc@plt
 3461      E7800000 
 3462              	.LVL284:
 230:src/riscv.cpp ****     }
 3463              		.loc 1 230 9 is_stmt 1
 230:src/riscv.cpp ****     }
 3464              		.loc 1 230 22 is_stmt 0
GAS LISTING /tmp/ccZSci1i.s 			page 92


 3465 1154 97000000 		call	_ZN3TCB8dispatchEv@plt
 3465      E7800000 
 3466              	.LVL285:
 3467              	.LBE141:
 3468 115c 6FF05FD7 		j	.L153
 3469              	.LBE157:
 3470              	.LBE173:
 3471              	.LBE186:
 3472              	.LBE190:
 3473              		.cfi_endproc
 3474              	.LFE46:
 3476              		.globl	_ZN5RiscV3PMTE
 3477              		.globl	_ZN5RiscV16userMainFinishedE
 3478              		.globl	_ZN5RiscV10globalTimeE
 3479              		.bss
 3480              		.align	3
 3481              		.set	.LANCHOR0,. + 0
 3484              	_ZN5RiscV3PMTE:
 3485 0000 00000000 		.zero	8
 3485      00000000 
 3488              	_ZN5RiscV16userMainFinishedE:
 3489 0008 00       		.zero	1
 3490 0009 00000000 		.zero	7
 3490      000000
 3493              	_ZN5RiscV10globalTimeE:
 3494 0010 00000000 		.zero	8
 3494      00000000 
 3495              		.text
 3496              	.Letext0:
 3497              		.file 3 "src/../h/../lib/hw.h"
 3498              		.file 4 "src/../h/../h/utility.hpp"
 3499              		.file 5 "src/../h/memoryAllocator.hpp"
 3500              		.file 6 "src/../h/../h/../h/../h/buddyAllocator.hpp"
 3501              		.file 7 "src/../h/../h/../h/../h/consoleUtil.hpp"
 3502              		.file 8 "src/../h/scb.hpp"
 3503              		.file 9 "src/../h/../h/../h/../h/../h/slab_t.hpp"
 3504              		.file 10 "src/../h/../h/../h/../h/cache_t.hpp"
 3505              		.file 11 "src/../h/tcb.hpp"
 3506              		.file 12 "src/../h/scheduler.hpp"
 3507              		.file 13 "src/../h/../h/slab.hpp"
 3508              		.file 14 "src/../h/syscall_c.h"
 10874              		.align	3
 10877              	DW.ref.__gxx_personality_v0:
 10878 0000 00000000 		.dword	__gxx_personality_v0
 10878      00000000 
 10879              		.ident	"GCC: (Ubuntu 9.4.0-1ubuntu1~20.04) 9.4.0"
 10880              		.section	.note.GNU-stack,"",@progbits
GAS LISTING /tmp/ccZSci1i.s 			page 93


DEFINED SYMBOLS
                            *ABS*:0000000000000000 riscv.cpp
     /tmp/ccZSci1i.s:9      .text:0000000000000000 _ZN5RiscV6getPMTEv
     /tmp/ccZSci1i.s:13     .text:0000000000000000 .L0 
     /tmp/ccZSci1i.s:14     .text:0000000000000000 .L0 
     /tmp/ccZSci1i.s:15     .text:0000000000000004 .L0 
     /tmp/ccZSci1i.s:18     .text:000000000000000c .L0 
     /tmp/ccZSci1i.s:19     .text:000000000000000c .L0 
     /tmp/ccZSci1i.s:21     .text:0000000000000010 .L0 
     /tmp/ccZSci1i.s:23     .text:0000000000000010 .L0 
     /tmp/ccZSci1i.s:24     .text:0000000000000010 .L0 
     /tmp/ccZSci1i.s:28     .text:000000000000001c .L0 
     /tmp/ccZSci1i.s:30     .text:000000000000001c .L0 
     /tmp/ccZSci1i.s:31     .text:000000000000001c .L0 
     /tmp/ccZSci1i.s:35     .text:0000000000000020 .L0 
     /tmp/ccZSci1i.s:38     .text:0000000000000028 .L0 
     /tmp/ccZSci1i.s:39     .text:0000000000000028 .L0 
     /tmp/ccZSci1i.s:42     .text:0000000000000030 .L0 
     /tmp/ccZSci1i.s:44     .text:0000000000000034 .L0 
     /tmp/ccZSci1i.s:51     .text:000000000000003c .L0 
     /tmp/ccZSci1i.s:52     .text:0000000000000040 .L0 
     /tmp/ccZSci1i.s:54     .text:0000000000000044 .L0 
     /tmp/ccZSci1i.s:55     .text:0000000000000044 .L0 
     /tmp/ccZSci1i.s:57     .text:0000000000000048 .L0 
     /tmp/ccZSci1i.s:59     .text:000000000000004c .L0 
     /tmp/ccZSci1i.s:65     .text:000000000000004c _ZN5RiscV15handlePageFaultEmm
     /tmp/ccZSci1i.s:68     .text:000000000000004c .L0 
     /tmp/ccZSci1i.s:70     .text:000000000000004c .L0 
     /tmp/ccZSci1i.s:71     .text:0000000000000050 .L0 
     /tmp/ccZSci1i.s:79     .text:000000000000006c .L0 
     /tmp/ccZSci1i.s:80     .text:000000000000006c .L0 
     /tmp/ccZSci1i.s:81     .text:000000000000006c .L0 
     /tmp/ccZSci1i.s:82     .text:000000000000006c .L0 
     /tmp/ccZSci1i.s:83     .text:000000000000006c .L0 
     /tmp/ccZSci1i.s:84     .text:000000000000006c .L0 
     /tmp/ccZSci1i.s:85     .text:000000000000006c .L0 
     /tmp/ccZSci1i.s:87     .text:0000000000000070 .L0 
     /tmp/ccZSci1i.s:90     .text:0000000000000074 .L0 
     /tmp/ccZSci1i.s:91     .text:0000000000000074 .L0 
     /tmp/ccZSci1i.s:93     .text:0000000000000078 .L0 
     /tmp/ccZSci1i.s:96     .text:000000000000007c .L0 
     /tmp/ccZSci1i.s:97     .text:000000000000007c .L0 
     /tmp/ccZSci1i.s:98     .text:000000000000007c .L0 
     /tmp/ccZSci1i.s:100    .text:0000000000000080 .L0 
     /tmp/ccZSci1i.s:103    .text:0000000000000084 .L0 
     /tmp/ccZSci1i.s:104    .text:0000000000000084 .L0 
     /tmp/ccZSci1i.s:106    .text:0000000000000088 .L0 
     /tmp/ccZSci1i.s:109    .text:000000000000008c .L0 
     /tmp/ccZSci1i.s:110    .text:000000000000008c .L0 
     /tmp/ccZSci1i.s:115    .text:000000000000009c .L0 
     /tmp/ccZSci1i.s:118    .text:00000000000000a0 .L0 
     /tmp/ccZSci1i.s:119    .text:00000000000000a0 .L0 
     /tmp/ccZSci1i.s:121    .text:00000000000000a4 .L0 
     /tmp/ccZSci1i.s:122    .text:00000000000000a4 .L0 
     /tmp/ccZSci1i.s:125    .text:00000000000000a8 .L0 
     /tmp/ccZSci1i.s:129    .text:00000000000000ac .L0 
     /tmp/ccZSci1i.s:130    .text:00000000000000ac .L0 
GAS LISTING /tmp/ccZSci1i.s 			page 94


     /tmp/ccZSci1i.s:134    .text:00000000000000b4 .L0 
     /tmp/ccZSci1i.s:137    .text:00000000000000b8 .L0 
     /tmp/ccZSci1i.s:138    .text:00000000000000b8 .L0 
     /tmp/ccZSci1i.s:140    .text:00000000000000bc .L0 
     /tmp/ccZSci1i.s:141    .text:00000000000000bc .L0 
     /tmp/ccZSci1i.s:144    .text:00000000000000c0 .L0 
     /tmp/ccZSci1i.s:148    .text:00000000000000c4 .L0 
     /tmp/ccZSci1i.s:149    .text:00000000000000c4 .L0 
     /tmp/ccZSci1i.s:154    .text:00000000000000cc .L0 
     /tmp/ccZSci1i.s:157    .text:00000000000000d0 .L0 
     /tmp/ccZSci1i.s:159    .text:00000000000000d4 .L0 
     /tmp/ccZSci1i.s:160    .text:00000000000000d4 .L0 
     /tmp/ccZSci1i.s:163    .text:00000000000000d8 .L0 
     /tmp/ccZSci1i.s:166    .text:00000000000000dc .L0 
     /tmp/ccZSci1i.s:169    .text:00000000000000e0 .L0 
     /tmp/ccZSci1i.s:170    .text:00000000000000e4 .L0 
     /tmp/ccZSci1i.s:171    .text:00000000000000e4 .L0 
     /tmp/ccZSci1i.s:173    .text:00000000000000e8 .L0 
     /tmp/ccZSci1i.s:174    .text:00000000000000e8 .L0 
     /tmp/ccZSci1i.s:176    .text:00000000000000ec .L0 
     /tmp/ccZSci1i.s:178    .text:00000000000000f0 .L0 
     /tmp/ccZSci1i.s:180    .text:00000000000000f4 .L0 
     /tmp/ccZSci1i.s:182    .text:00000000000000f8 .L0 
     /tmp/ccZSci1i.s:184    .text:00000000000000fc .L0 
     /tmp/ccZSci1i.s:186    .text:0000000000000100 .L0 
     /tmp/ccZSci1i.s:190    .text:0000000000000104 .L0 
     /tmp/ccZSci1i.s:192    .text:0000000000000104 .L0 
     /tmp/ccZSci1i.s:193    .text:0000000000000104 .L0 
     /tmp/ccZSci1i.s:196    .text:000000000000010c .L0 
     /tmp/ccZSci1i.s:197    .text:000000000000010c .L0 
     /tmp/ccZSci1i.s:199    .text:0000000000000110 .L0 
     /tmp/ccZSci1i.s:201    .text:0000000000000114 .L0 
     /tmp/ccZSci1i.s:203    .text:000000000000011c .L0 
     /tmp/ccZSci1i.s:205    .text:0000000000000120 .L0 
     /tmp/ccZSci1i.s:207    .text:0000000000000124 .L0 
     /tmp/ccZSci1i.s:212    .text:000000000000012c .L0 
     /tmp/ccZSci1i.s:213    .text:000000000000012c .L0 
     /tmp/ccZSci1i.s:216    .text:0000000000000134 .L0 
     /tmp/ccZSci1i.s:217    .text:0000000000000134 .L0 
     /tmp/ccZSci1i.s:219    .text:0000000000000138 .L0 
     /tmp/ccZSci1i.s:221    .text:000000000000013c .L0 
     /tmp/ccZSci1i.s:223    .text:0000000000000140 .L0 
     /tmp/ccZSci1i.s:225    .text:0000000000000148 .L0 
     /tmp/ccZSci1i.s:231    .text:0000000000000148 _ZN5RiscV10initializeEv
     /tmp/ccZSci1i.s:234    .text:0000000000000148 .L0 
     /tmp/ccZSci1i.s:235    .text:0000000000000148 .L0 
     /tmp/ccZSci1i.s:236    .text:000000000000014c .L0 
     /tmp/ccZSci1i.s:240    .text:0000000000000158 .L0 
     /tmp/ccZSci1i.s:241    .text:0000000000000158 .L0 
     /tmp/ccZSci1i.s:242    .text:0000000000000158 .L0 
     /tmp/ccZSci1i.s:244    .text:000000000000015c .L0 
     /tmp/ccZSci1i.s:246    .text:000000000000015c .L0 
     /tmp/ccZSci1i.s:247    .text:000000000000015c .L0 
     /tmp/ccZSci1i.s:253    .text:0000000000000164 .L0 
  src/../h/riscv.hpp:174    .text:0000000000000164 .L0 
     /tmp/ccZSci1i.s:263    .text:0000000000000168 .L0 
     /tmp/ccZSci1i.s:264    .text:0000000000000168 .L0 
GAS LISTING /tmp/ccZSci1i.s 			page 95


     /tmp/ccZSci1i.s:269    .text:000000000000017c .L0 
     /tmp/ccZSci1i.s:274    .text:000000000000018c .L0 
     /tmp/ccZSci1i.s:275    .text:000000000000018c .L0 
     /tmp/ccZSci1i.s:278    .text:0000000000000194 .L0 
     /tmp/ccZSci1i.s:279    .text:0000000000000194 .L0 
     /tmp/ccZSci1i.s:282    .text:000000000000019c .L0 
     /tmp/ccZSci1i.s:283    .text:000000000000019c .L0 
     /tmp/ccZSci1i.s:286    .text:00000000000001a4 .L0 
     /tmp/ccZSci1i.s:287    .text:00000000000001a4 .L0 
     /tmp/ccZSci1i.s:290    .text:00000000000001ac .L0 
     /tmp/ccZSci1i.s:291    .text:00000000000001ac .L0 
     /tmp/ccZSci1i.s:294    .text:00000000000001b4 .L0 
     /tmp/ccZSci1i.s:295    .text:00000000000001b4 .L0 
     /tmp/ccZSci1i.s:298    .text:00000000000001bc .L0 
     /tmp/ccZSci1i.s:302    .text:00000000000001c4 .L0 
     /tmp/ccZSci1i.s:303    .text:00000000000001c4 .L0 
     /tmp/ccZSci1i.s:308    .text:00000000000001cc .L0 
     /tmp/ccZSci1i.s:312    .text:00000000000001dc .L0 
     /tmp/ccZSci1i.s:313    .text:00000000000001dc .L0 
     /tmp/ccZSci1i.s:318    .text:00000000000001ec .L0 
     /tmp/ccZSci1i.s:319    .text:00000000000001ec .L0 
     /tmp/ccZSci1i.s:323    .text:00000000000001f4 .L0 
     /tmp/ccZSci1i.s:327    .text:00000000000001f8 .L0 
     /tmp/ccZSci1i.s:328    .text:00000000000001f8 .L0 
     /tmp/ccZSci1i.s:333    .text:0000000000000208 .L0 
     /tmp/ccZSci1i.s:334    .text:0000000000000208 .L0 
     /tmp/ccZSci1i.s:339    .text:0000000000000218 .L0 
     /tmp/ccZSci1i.s:340    .text:0000000000000218 .L0 
     /tmp/ccZSci1i.s:345    .text:0000000000000228 .L0 
     /tmp/ccZSci1i.s:346    .text:0000000000000228 .L0 
     /tmp/ccZSci1i.s:352    .text:0000000000000240 .L0 
     /tmp/ccZSci1i.s:353    .text:0000000000000240 .L0 
     /tmp/ccZSci1i.s:359    .text:0000000000000258 .L0 
     /tmp/ccZSci1i.s:360    .text:0000000000000258 .L0 
     /tmp/ccZSci1i.s:366    .text:0000000000000270 .L0 
     /tmp/ccZSci1i.s:367    .text:0000000000000270 .L0 
     /tmp/ccZSci1i.s:373    .text:0000000000000284 .L0 
     /tmp/ccZSci1i.s:374    .text:0000000000000284 .L0 
     /tmp/ccZSci1i.s:377    .text:0000000000000290 .L0 
     /tmp/ccZSci1i.s:382    .text:000000000000029c .L0 
       src/riscv.cpp:84     .text:000000000000029c .L0 
     /tmp/ccZSci1i.s:388    .text:00000000000002a0 .L0 
     /tmp/ccZSci1i.s:394    .text:00000000000002a0 .L0 
     /tmp/ccZSci1i.s:395    .text:00000000000002a0 .L0 
     /tmp/ccZSci1i.s:396    .text:00000000000002a0 .L0 
     /tmp/ccZSci1i.s:411    .text:00000000000002a8 .L0 
     /tmp/ccZSci1i.s:412    .text:00000000000002a8 .L0 
     /tmp/ccZSci1i.s:413    .text:00000000000002a8 .L0 
     /tmp/ccZSci1i.s:428    .text:00000000000002b0 .L0 
     /tmp/ccZSci1i.s:429    .text:00000000000002b0 .L0 
  src/../h/riscv.hpp:178    .text:00000000000002b0 .L0 
     /tmp/ccZSci1i.s:440    .text:00000000000002b4 .L0 
     /tmp/ccZSci1i.s:441    .text:00000000000002b8 .L0 
     /tmp/ccZSci1i.s:443    .text:00000000000002bc .L0 
     /tmp/ccZSci1i.s:444    .text:00000000000002bc .L0 
     /tmp/ccZSci1i.s:446    .text:00000000000002c0 .L0 
     /tmp/ccZSci1i.s:449    .text:00000000000002c4 .L0 
GAS LISTING /tmp/ccZSci1i.s 			page 96


     /tmp/ccZSci1i.s:451    .text:00000000000002c8 .L0 
     /tmp/ccZSci1i.s:457    .text:00000000000002c8 _ZN5RiscV10popSppSpieEv
     /tmp/ccZSci1i.s:460    .text:00000000000002c8 .L0 
     /tmp/ccZSci1i.s:461    .text:00000000000002c8 .L0 
     /tmp/ccZSci1i.s:462    .text:00000000000002cc .L0 
     /tmp/ccZSci1i.s:464    .text:00000000000002d0 .L0 
     /tmp/ccZSci1i.s:466    .text:00000000000002d4 .L0 
     /tmp/ccZSci1i.s:468    .text:00000000000002d4 .L0 
       src/riscv.cpp:92     .text:00000000000002d4 .L0 
     /tmp/ccZSci1i.s:474    .text:00000000000002d8 .L0 
       src/riscv.cpp:93     .text:00000000000002d8 .L0 
     /tmp/ccZSci1i.s:480    .text:00000000000002dc .L0 
     /tmp/ccZSci1i.s:481    .text:00000000000002e0 .L0 
     /tmp/ccZSci1i.s:482    .text:00000000000002e0 .L0 
     /tmp/ccZSci1i.s:484    .text:00000000000002e4 .L0 
     /tmp/ccZSci1i.s:486    .text:00000000000002e8 .L0 
     /tmp/ccZSci1i.s:492    .text:00000000000002e8 _ZN5RiscV28executeThreadDispatchSyscallEv
     /tmp/ccZSci1i.s:495    .text:00000000000002e8 .L0 
     /tmp/ccZSci1i.s:496    .text:00000000000002e8 .L0 
     /tmp/ccZSci1i.s:497    .text:00000000000002ec .L0 
     /tmp/ccZSci1i.s:500    .text:00000000000002f4 .L0 
     /tmp/ccZSci1i.s:501    .text:00000000000002f4 .L0 
     /tmp/ccZSci1i.s:503    .text:00000000000002f8 .L0 
     /tmp/ccZSci1i.s:505    .text:00000000000002f8 .L0 
     /tmp/ccZSci1i.s:506    .text:00000000000002f8 .L0 
     /tmp/ccZSci1i.s:510    .text:0000000000000304 .L0 
     /tmp/ccZSci1i.s:511    .text:0000000000000304 .L0 
     /tmp/ccZSci1i.s:514    .text:000000000000030c .L0 
     /tmp/ccZSci1i.s:515    .text:000000000000030c .L0 
     /tmp/ccZSci1i.s:518    .text:0000000000000314 .L0 
     /tmp/ccZSci1i.s:519    .text:0000000000000318 .L0 
     /tmp/ccZSci1i.s:521    .text:000000000000031c .L0 
     /tmp/ccZSci1i.s:522    .text:000000000000031c .L0 
     /tmp/ccZSci1i.s:524    .text:0000000000000320 .L0 
     /tmp/ccZSci1i.s:526    .text:0000000000000324 .L0 
     /tmp/ccZSci1i.s:532    .text:0000000000000324 _ZN5RiscV18executePutcSyscallEv
     /tmp/ccZSci1i.s:535    .text:0000000000000324 .L0 
     /tmp/ccZSci1i.s:536    .text:0000000000000324 .L0 
     /tmp/ccZSci1i.s:537    .text:0000000000000328 .L0 
     /tmp/ccZSci1i.s:540    .text:0000000000000330 .L0 
     /tmp/ccZSci1i.s:541    .text:0000000000000330 .L0 
     /tmp/ccZSci1i.s:543    .text:0000000000000334 .L0 
     /tmp/ccZSci1i.s:545    .text:0000000000000334 .L0 
     /tmp/ccZSci1i.s:546    .text:0000000000000334 .L0 
     /tmp/ccZSci1i.s:548    .text:000000000000033c .L0 
     /tmp/ccZSci1i.s:550    .text:0000000000000340 .L0 
     /tmp/ccZSci1i.s:551    .text:0000000000000340 .L0 
     /tmp/ccZSci1i.s:557    .text:0000000000000354 .L0 
     /tmp/ccZSci1i.s:558    .text:0000000000000354 .L0 
       src/riscv.cpp:558    .text:0000000000000354 .L0 
     /tmp/ccZSci1i.s:565    .text:0000000000000358 .L0 
     /tmp/ccZSci1i.s:567    .text:0000000000000358 .L0 
     /tmp/ccZSci1i.s:571    .text:0000000000000364 .L0 
     /tmp/ccZSci1i.s:572    .text:0000000000000368 .L0 
     /tmp/ccZSci1i.s:574    .text:000000000000036c .L0 
     /tmp/ccZSci1i.s:575    .text:000000000000036c .L0 
     /tmp/ccZSci1i.s:577    .text:0000000000000370 .L0 
GAS LISTING /tmp/ccZSci1i.s 			page 97


     /tmp/ccZSci1i.s:579    .text:0000000000000374 .L0 
     /tmp/ccZSci1i.s:585    .text:0000000000000374 _ZN5RiscV11putcWrapperEPv
     /tmp/ccZSci1i.s:588    .text:0000000000000374 .L0 
     /tmp/ccZSci1i.s:590    .text:0000000000000374 .L0 
     /tmp/ccZSci1i.s:591    .text:0000000000000378 .L0 
     /tmp/ccZSci1i.s:594    .text:0000000000000380 .L0 
     /tmp/ccZSci1i.s:595    .text:0000000000000380 .L0 
     /tmp/ccZSci1i.s:597    .text:0000000000000384 .L0 
     /tmp/ccZSci1i.s:604    .text:0000000000000388 .L0 
     /tmp/ccZSci1i.s:605    .text:0000000000000388 .L0 
     /tmp/ccZSci1i.s:612    .text:0000000000000390 .L0 
     /tmp/ccZSci1i.s:613    .text:0000000000000390 .L0 
     /tmp/ccZSci1i.s:614    .text:0000000000000390 .L0 
     /tmp/ccZSci1i.s:618    .text:000000000000039c .L0 
       src/riscv.cpp:573    .text:000000000000039c .L0 
     /tmp/ccZSci1i.s:624    .text:00000000000003a0 .L0 
       src/riscv.cpp:574    .text:00000000000003a0 .L0 
     /tmp/ccZSci1i.s:629    .text:00000000000003a4 .L0 
       src/riscv.cpp:575    .text:00000000000003a4 .L0 
     /tmp/ccZSci1i.s:637    .text:00000000000003a8 .L0 
     /tmp/ccZSci1i.s:638    .text:00000000000003a8 .L0 
     /tmp/ccZSci1i.s:641    .text:00000000000003ac .L0 
     /tmp/ccZSci1i.s:644    .text:00000000000003b0 .L0 
     /tmp/ccZSci1i.s:645    .text:00000000000003b0 .L0 
     /tmp/ccZSci1i.s:648    .text:00000000000003b8 .L0 
     /tmp/ccZSci1i.s:650    .text:00000000000003bc .L0 
     /tmp/ccZSci1i.s:651    .text:00000000000003bc .L0 
     /tmp/ccZSci1i.s:655    .text:00000000000003c8 .L0 
       src/riscv.cpp:583    .text:00000000000003c8 .L0 
     /tmp/ccZSci1i.s:661    .text:00000000000003cc .L0 
     /tmp/ccZSci1i.s:663    .text:00000000000003cc .L0 
       src/riscv.cpp:584    .text:00000000000003d0 .L0 
     /tmp/ccZSci1i.s:671    .text:00000000000003d4 .L0 
       src/riscv.cpp:585    .text:00000000000003d4 .L0 
     /tmp/ccZSci1i.s:676    .text:00000000000003d8 .L0 
     /tmp/ccZSci1i.s:678    .text:00000000000003d8 .L0 
     /tmp/ccZSci1i.s:681    .text:00000000000003e4 .L0 
     /tmp/ccZSci1i.s:683    .text:00000000000003e8 .L0 
     /tmp/ccZSci1i.s:684    .text:00000000000003e8 .L0 
     /tmp/ccZSci1i.s:691    .text:00000000000003fc .L0 
     /tmp/ccZSci1i.s:697    .text:00000000000003fc _ZN5RiscV29jumpToDesignatedPrivilegeModeEv
     /tmp/ccZSci1i.s:700    .text:00000000000003fc .L0 
     /tmp/ccZSci1i.s:701    .text:00000000000003fc .L0 
     /tmp/ccZSci1i.s:702    .text:0000000000000400 .L0 
     /tmp/ccZSci1i.s:704    .text:0000000000000404 .L0 
     /tmp/ccZSci1i.s:706    .text:0000000000000408 .L0 
     /tmp/ccZSci1i.s:708    .text:0000000000000408 .L0 
     /tmp/ccZSci1i.s:709    .text:0000000000000408 .L0 
     /tmp/ccZSci1i.s:713    .text:0000000000000418 .L0 
     /tmp/ccZSci1i.s:719    .text:0000000000000420 .L0 
     /tmp/ccZSci1i.s:720    .text:0000000000000420 .L0 
     /tmp/ccZSci1i.s:721    .text:0000000000000420 .L0 
     /tmp/ccZSci1i.s:732    .text:0000000000000428 .L0 
     /tmp/ccZSci1i.s:733    .text:000000000000042c .L0 
     /tmp/ccZSci1i.s:734    .text:000000000000042c .L0 
     /tmp/ccZSci1i.s:735    .text:000000000000042c .L0 
     /tmp/ccZSci1i.s:737    .text:0000000000000430 .L0 
GAS LISTING /tmp/ccZSci1i.s 			page 98


     /tmp/ccZSci1i.s:740    .text:0000000000000434 .L0 
     /tmp/ccZSci1i.s:745    .text:0000000000000434 .L0 
     /tmp/ccZSci1i.s:746    .text:0000000000000434 .L0 
     /tmp/ccZSci1i.s:747    .text:0000000000000434 .L0 
     /tmp/ccZSci1i.s:754    .text:000000000000043c .L0 
     /tmp/ccZSci1i.s:757    .text:0000000000000440 .L0 
     /tmp/ccZSci1i.s:763    .text:0000000000000440 _ZN5RiscV8finalizeEv
     /tmp/ccZSci1i.s:766    .text:0000000000000440 .L0 
     /tmp/ccZSci1i.s:767    .text:0000000000000440 .L0 
     /tmp/ccZSci1i.s:768    .text:0000000000000444 .L0 
     /tmp/ccZSci1i.s:771    .text:000000000000044c .L0 
     /tmp/ccZSci1i.s:772    .text:000000000000044c .L0 
     /tmp/ccZSci1i.s:774    .text:0000000000000450 .L0 
     /tmp/ccZSci1i.s:776    .text:0000000000000450 .L0 
     /tmp/ccZSci1i.s:777    .text:0000000000000450 .L0 
     /tmp/ccZSci1i.s:780    .text:000000000000045c .L0 
     /tmp/ccZSci1i.s:781    .text:000000000000045c .L0 
     /tmp/ccZSci1i.s:784    .text:0000000000000468 .L0 
     /tmp/ccZSci1i.s:785    .text:0000000000000468 .L0 
     /tmp/ccZSci1i.s:790    .text:0000000000000474 .L0 
     /tmp/ccZSci1i.s:793    .text:0000000000000474 .L0 
     /tmp/ccZSci1i.s:800    .text:0000000000000474 .L0 
     /tmp/ccZSci1i.s:801    .text:0000000000000474 .L0 
     /tmp/ccZSci1i.s:802    .text:0000000000000474 .L0 
     /tmp/ccZSci1i.s:815    .text:000000000000047c .L0 
     /tmp/ccZSci1i.s:821    .text:000000000000047c .L0 
     /tmp/ccZSci1i.s:822    .text:000000000000047c .L0 
     /tmp/ccZSci1i.s:823    .text:000000000000047c .L0 
     /tmp/ccZSci1i.s:837    .text:0000000000000484 .L0 
     /tmp/ccZSci1i.s:838    .text:0000000000000484 .L0 
     /tmp/ccZSci1i.s:842    .text:0000000000000494 .L0 
     /tmp/ccZSci1i.s:843    .text:0000000000000494 .L0 
     /tmp/ccZSci1i.s:845    .text:0000000000000498 .L0 
     /tmp/ccZSci1i.s:848    .text:00000000000004a4 .L0 
     /tmp/ccZSci1i.s:851    .text:00000000000004a8 .L0 
     /tmp/ccZSci1i.s:852    .text:00000000000004a8 .L0 
     /tmp/ccZSci1i.s:858    .text:00000000000004bc .L0 
     /tmp/ccZSci1i.s:859    .text:00000000000004bc .L0 
     /tmp/ccZSci1i.s:865    .text:00000000000004d8 .L0 
     /tmp/ccZSci1i.s:866    .text:00000000000004d8 .L0 
     /tmp/ccZSci1i.s:869    .text:00000000000004e0 .L0 
     /tmp/ccZSci1i.s:872    .text:00000000000004e4 .L0 
     /tmp/ccZSci1i.s:873    .text:00000000000004e8 .L0 
     /tmp/ccZSci1i.s:875    .text:00000000000004ec .L0 
     /tmp/ccZSci1i.s:876    .text:00000000000004ec .L0 
     /tmp/ccZSci1i.s:878    .text:00000000000004f0 .L0 
     /tmp/ccZSci1i.s:880    .text:00000000000004f4 .L0 
     /tmp/ccZSci1i.s:886    .text:00000000000004f4 _ZN5RiscV16saveA0toSscratchEv
     /tmp/ccZSci1i.s:889    .text:00000000000004f4 .L0 
     /tmp/ccZSci1i.s:890    .text:00000000000004f4 .L0 
     /tmp/ccZSci1i.s:891    .text:00000000000004f8 .L0 
     /tmp/ccZSci1i.s:893    .text:00000000000004fc .L0 
     /tmp/ccZSci1i.s:895    .text:0000000000000500 .L0 
     /tmp/ccZSci1i.s:897    .text:0000000000000500 .L0 
     /tmp/ccZSci1i.s:898    .text:0000000000000500 .L0 
       src/riscv.cpp:638    .text:0000000000000500 .L0 
     /tmp/ccZSci1i.s:904    .text:0000000000000504 .L0 
GAS LISTING /tmp/ccZSci1i.s 			page 99


     /tmp/ccZSci1i.s:906    .text:0000000000000504 .L0 
       src/riscv.cpp:639    .text:0000000000000514 .L0 
     /tmp/ccZSci1i.s:915    .text:0000000000000518 .L0 
       src/riscv.cpp:640    .text:0000000000000518 .L0 
     /tmp/ccZSci1i.s:920    .text:000000000000051c .L0 
       src/riscv.cpp:641    .text:000000000000051c .L0 
     /tmp/ccZSci1i.s:926    .text:0000000000000520 .L0 
     /tmp/ccZSci1i.s:927    .text:0000000000000524 .L0 
     /tmp/ccZSci1i.s:928    .text:0000000000000524 .L0 
     /tmp/ccZSci1i.s:930    .text:0000000000000528 .L0 
     /tmp/ccZSci1i.s:932    .text:000000000000052c .L0 
     /tmp/ccZSci1i.s:938    .text:000000000000052c _ZN5RiscV22executeMemAllocSyscallEv
     /tmp/ccZSci1i.s:941    .text:000000000000052c .L0 
     /tmp/ccZSci1i.s:942    .text:000000000000052c .L0 
     /tmp/ccZSci1i.s:943    .text:0000000000000530 .L0 
     /tmp/ccZSci1i.s:946    .text:0000000000000538 .L0 
     /tmp/ccZSci1i.s:947    .text:0000000000000538 .L0 
     /tmp/ccZSci1i.s:949    .text:000000000000053c .L0 
     /tmp/ccZSci1i.s:951    .text:000000000000053c .L0 
     /tmp/ccZSci1i.s:952    .text:000000000000053c .L0 
       src/riscv.cpp:256    .text:000000000000053c .L0 
     /tmp/ccZSci1i.s:959    .text:0000000000000540 .L0 
     /tmp/ccZSci1i.s:961    .text:0000000000000540 .L0 
     /tmp/ccZSci1i.s:964    .text:0000000000000548 .L0 
       src/riscv.cpp:261    .text:0000000000000548 .L0 
     /tmp/ccZSci1i.s:970    .text:000000000000054c .L0 
     /tmp/ccZSci1i.s:972    .text:000000000000054c .L0 
     /tmp/ccZSci1i.s:975    .text:0000000000000554 .L0 
     /tmp/ccZSci1i.s:976    .text:0000000000000558 .L0 
     /tmp/ccZSci1i.s:978    .text:000000000000055c .L0 
     /tmp/ccZSci1i.s:979    .text:000000000000055c .L0 
     /tmp/ccZSci1i.s:981    .text:0000000000000560 .L0 
     /tmp/ccZSci1i.s:983    .text:0000000000000564 .L0 
     /tmp/ccZSci1i.s:989    .text:0000000000000564 _ZN5RiscV21executeMemFreeSyscallEv
     /tmp/ccZSci1i.s:992    .text:0000000000000564 .L0 
     /tmp/ccZSci1i.s:993    .text:0000000000000564 .L0 
     /tmp/ccZSci1i.s:994    .text:0000000000000568 .L0 
     /tmp/ccZSci1i.s:997    .text:0000000000000570 .L0 
     /tmp/ccZSci1i.s:998    .text:0000000000000570 .L0 
     /tmp/ccZSci1i.s:1000   .text:0000000000000574 .L0 
     /tmp/ccZSci1i.s:1002   .text:0000000000000574 .L0 
     /tmp/ccZSci1i.s:1003   .text:0000000000000574 .L0 
     /tmp/ccZSci1i.s:1007   .text:0000000000000584 .L0 
     /tmp/ccZSci1i.s:1011   .text:0000000000000588 .L0 
       src/riscv.cpp:281    .text:0000000000000588 .L0 
     /tmp/ccZSci1i.s:1017   .text:000000000000058c .L0 
     /tmp/ccZSci1i.s:1019   .text:000000000000058c .L0 
     /tmp/ccZSci1i.s:1022   .text:0000000000000594 .L0 
     /tmp/ccZSci1i.s:1023   .text:0000000000000598 .L0 
     /tmp/ccZSci1i.s:1024   .text:0000000000000598 .L0 
     /tmp/ccZSci1i.s:1026   .text:000000000000059c .L0 
     /tmp/ccZSci1i.s:1027   .text:000000000000059c .L0 
     /tmp/ccZSci1i.s:1029   .text:00000000000005a0 .L0 
     /tmp/ccZSci1i.s:1032   .text:00000000000005a4 .L0 
     /tmp/ccZSci1i.s:1034   .text:00000000000005a4 .L0 
       src/riscv.cpp:274    .text:00000000000005a4 .L0 
     /tmp/ccZSci1i.s:1041   .text:00000000000005a8 .L0 
GAS LISTING /tmp/ccZSci1i.s 			page 100


     /tmp/ccZSci1i.s:1043   .text:00000000000005a8 .L0 
     /tmp/ccZSci1i.s:1046   .text:00000000000005b0 .L0 
     /tmp/ccZSci1i.s:1047   .text:00000000000005b4 .L0 
     /tmp/ccZSci1i.s:1053   .text:00000000000005b4 _ZN5RiscV26executeThreadCreateSyscallEv
     /tmp/ccZSci1i.s:1056   .text:00000000000005b4 .L0 
     /tmp/ccZSci1i.s:10877  .data.rel.local.DW.ref.__gxx_personality_v0:0000000000000000 DW.ref.__gxx_personality_v0
     /tmp/ccZSci1i.s:1059   .text:00000000000005b4 .L0 
     /tmp/ccZSci1i.s:1060   .text:00000000000005b8 .L0 
     /tmp/ccZSci1i.s:1068   .text:00000000000005d4 .L0 
     /tmp/ccZSci1i.s:1069   .text:00000000000005d4 .L0 
     /tmp/ccZSci1i.s:1070   .text:00000000000005d4 .L0 
     /tmp/ccZSci1i.s:1071   .text:00000000000005d4 .L0 
     /tmp/ccZSci1i.s:1072   .text:00000000000005d4 .L0 
     /tmp/ccZSci1i.s:1073   .text:00000000000005d4 .L0 
     /tmp/ccZSci1i.s:1074   .text:00000000000005d4 .L0 
     /tmp/ccZSci1i.s:1076   .text:00000000000005d8 .L0 
     /tmp/ccZSci1i.s:1078   .text:00000000000005d8 .L0 
     /tmp/ccZSci1i.s:1079   .text:00000000000005d8 .L0 
       src/riscv.cpp:291    .text:00000000000005d8 .L0 
     /tmp/ccZSci1i.s:1086   .text:00000000000005dc .L0 
       src/riscv.cpp:292    .text:00000000000005dc .L0 
     /tmp/ccZSci1i.s:1092   .text:00000000000005e0 .L0 
       src/riscv.cpp:293    .text:00000000000005e0 .L0 
     /tmp/ccZSci1i.s:1098   .text:00000000000005e4 .L0 
       src/riscv.cpp:294    .text:00000000000005e4 .L0 
     /tmp/ccZSci1i.s:1104   .text:00000000000005e8 .L0 
     /tmp/ccZSci1i.s:1106   .text:00000000000005e8 .L0 
     /tmp/ccZSci1i.s:1114   .text:00000000000005fc .L0 
     /tmp/ccZSci1i.s:1124   .text:0000000000000614 .L0 
     /tmp/ccZSci1i.s:1125   .text:0000000000000614 .L0 
     /tmp/ccZSci1i.s:1127   .text:0000000000000618 .L0 
     /tmp/ccZSci1i.s:1128   .text:0000000000000618 .L0 
     /tmp/ccZSci1i.s:1130   .text:000000000000061c .L0 
     /tmp/ccZSci1i.s:1132   .text:0000000000000620 .L0 
     /tmp/ccZSci1i.s:1133   .text:0000000000000620 .L0 
     /tmp/ccZSci1i.s:1140   .text:000000000000062c .L0 
     /tmp/ccZSci1i.s:1141   .text:000000000000062c .L0 
     /tmp/ccZSci1i.s:1143   .text:0000000000000630 .L0 
     /tmp/ccZSci1i.s:1147   .text:0000000000000634 .L0 
       src/riscv.cpp:311    .text:0000000000000634 .L0 
     /tmp/ccZSci1i.s:1153   .text:0000000000000638 .L0 
     /tmp/ccZSci1i.s:1155   .text:0000000000000638 .L0 
     /tmp/ccZSci1i.s:1158   .text:0000000000000640 .L0 
     /tmp/ccZSci1i.s:1159   .text:0000000000000644 .L0 
     /tmp/ccZSci1i.s:1160   .text:0000000000000644 .L0 
     /tmp/ccZSci1i.s:1162   .text:0000000000000648 .L0 
     /tmp/ccZSci1i.s:1163   .text:0000000000000648 .L0 
     /tmp/ccZSci1i.s:1165   .text:000000000000064c .L0 
     /tmp/ccZSci1i.s:1168   .text:0000000000000650 .L0 
     /tmp/ccZSci1i.s:1171   .text:0000000000000654 .L0 
     /tmp/ccZSci1i.s:1174   .text:0000000000000658 .L0 
     /tmp/ccZSci1i.s:1177   .text:000000000000065c .L0 
     /tmp/ccZSci1i.s:1180   .text:0000000000000660 .L0 
     /tmp/ccZSci1i.s:1184   .text:0000000000000664 .L0 
     /tmp/ccZSci1i.s:1186   .text:0000000000000664 .L0 
     /tmp/ccZSci1i.s:1193   .text:0000000000000670 .L0 
     /tmp/ccZSci1i.s:1201   .text:0000000000000688 .L0 
GAS LISTING /tmp/ccZSci1i.s 			page 101


     /tmp/ccZSci1i.s:1231   .text:0000000000000688 _ZN5RiscV30executeThreadAttachBodySyscallEv
     /tmp/ccZSci1i.s:1234   .text:0000000000000688 .L0 
     /tmp/ccZSci1i.s:1237   .text:0000000000000688 .L0 
     /tmp/ccZSci1i.s:1238   .text:000000000000068c .L0 
     /tmp/ccZSci1i.s:1246   .text:00000000000006a8 .L0 
     /tmp/ccZSci1i.s:1247   .text:00000000000006a8 .L0 
     /tmp/ccZSci1i.s:1248   .text:00000000000006a8 .L0 
     /tmp/ccZSci1i.s:1249   .text:00000000000006a8 .L0 
     /tmp/ccZSci1i.s:1250   .text:00000000000006a8 .L0 
     /tmp/ccZSci1i.s:1251   .text:00000000000006a8 .L0 
     /tmp/ccZSci1i.s:1252   .text:00000000000006a8 .L0 
     /tmp/ccZSci1i.s:1254   .text:00000000000006ac .L0 
     /tmp/ccZSci1i.s:1256   .text:00000000000006ac .L0 
     /tmp/ccZSci1i.s:1257   .text:00000000000006ac .L0 
       src/riscv.cpp:322    .text:00000000000006ac .L0 
     /tmp/ccZSci1i.s:1264   .text:00000000000006b0 .L0 
       src/riscv.cpp:323    .text:00000000000006b0 .L0 
     /tmp/ccZSci1i.s:1270   .text:00000000000006b4 .L0 
       src/riscv.cpp:324    .text:00000000000006b4 .L0 
     /tmp/ccZSci1i.s:1276   .text:00000000000006b8 .L0 
       src/riscv.cpp:325    .text:00000000000006b8 .L0 
     /tmp/ccZSci1i.s:1282   .text:00000000000006bc .L0 
     /tmp/ccZSci1i.s:1284   .text:00000000000006bc .L0 
     /tmp/ccZSci1i.s:1292   .text:00000000000006d0 .L0 
     /tmp/ccZSci1i.s:1302   .text:00000000000006e8 .L0 
     /tmp/ccZSci1i.s:1303   .text:00000000000006e8 .L0 
     /tmp/ccZSci1i.s:1305   .text:00000000000006ec .L0 
     /tmp/ccZSci1i.s:1306   .text:00000000000006ec .L0 
     /tmp/ccZSci1i.s:1308   .text:00000000000006f0 .L0 
     /tmp/ccZSci1i.s:1309   .text:00000000000006f0 .L0 
     /tmp/ccZSci1i.s:1311   .text:00000000000006f4 .L0 
     /tmp/ccZSci1i.s:1312   .text:00000000000006f4 .L0 
     /tmp/ccZSci1i.s:1314   .text:00000000000006f8 .L0 
     /tmp/ccZSci1i.s:1318   .text:00000000000006fc .L0 
       src/riscv.cpp:340    .text:00000000000006fc .L0 
     /tmp/ccZSci1i.s:1324   .text:0000000000000700 .L0 
     /tmp/ccZSci1i.s:1326   .text:0000000000000700 .L0 
     /tmp/ccZSci1i.s:1329   .text:0000000000000708 .L0 
     /tmp/ccZSci1i.s:1330   .text:000000000000070c .L0 
     /tmp/ccZSci1i.s:1331   .text:000000000000070c .L0 
     /tmp/ccZSci1i.s:1333   .text:0000000000000710 .L0 
     /tmp/ccZSci1i.s:1334   .text:0000000000000710 .L0 
     /tmp/ccZSci1i.s:1336   .text:0000000000000714 .L0 
     /tmp/ccZSci1i.s:1339   .text:0000000000000718 .L0 
     /tmp/ccZSci1i.s:1342   .text:000000000000071c .L0 
     /tmp/ccZSci1i.s:1345   .text:0000000000000720 .L0 
     /tmp/ccZSci1i.s:1348   .text:0000000000000724 .L0 
     /tmp/ccZSci1i.s:1351   .text:0000000000000728 .L0 
     /tmp/ccZSci1i.s:1355   .text:000000000000072c .L0 
     /tmp/ccZSci1i.s:1357   .text:000000000000072c .L0 
     /tmp/ccZSci1i.s:1364   .text:0000000000000738 .L0 
     /tmp/ccZSci1i.s:1372   .text:0000000000000750 .L0 
     /tmp/ccZSci1i.s:1397   .text:0000000000000750 _ZN5RiscV25executeThreadStartSyscallEv
     /tmp/ccZSci1i.s:1400   .text:0000000000000750 .L0 
     /tmp/ccZSci1i.s:1401   .text:0000000000000750 .L0 
     /tmp/ccZSci1i.s:1402   .text:0000000000000754 .L0 
     /tmp/ccZSci1i.s:1405   .text:000000000000075c .L0 
GAS LISTING /tmp/ccZSci1i.s 			page 102


     /tmp/ccZSci1i.s:1406   .text:000000000000075c .L0 
     /tmp/ccZSci1i.s:1408   .text:0000000000000760 .L0 
     /tmp/ccZSci1i.s:1410   .text:0000000000000760 .L0 
     /tmp/ccZSci1i.s:1411   .text:0000000000000760 .L0 
       src/riscv.cpp:350    .text:0000000000000760 .L0 
     /tmp/ccZSci1i.s:1418   .text:0000000000000764 .L0 
     /tmp/ccZSci1i.s:1419   .text:0000000000000764 .L0 
     /tmp/ccZSci1i.s:1421   .text:0000000000000764 .L0 
     /tmp/ccZSci1i.s:1423   .text:0000000000000768 .L0 
     /tmp/ccZSci1i.s:1427   .text:000000000000076c .L0 
       src/riscv.cpp:367    .text:000000000000076c .L0 
     /tmp/ccZSci1i.s:1433   .text:0000000000000770 .L0 
     /tmp/ccZSci1i.s:1435   .text:0000000000000770 .L0 
     /tmp/ccZSci1i.s:1438   .text:0000000000000778 .L0 
     /tmp/ccZSci1i.s:1439   .text:000000000000077c .L0 
     /tmp/ccZSci1i.s:1440   .text:000000000000077c .L0 
     /tmp/ccZSci1i.s:1442   .text:0000000000000780 .L0 
     /tmp/ccZSci1i.s:1443   .text:0000000000000780 .L0 
     /tmp/ccZSci1i.s:1445   .text:0000000000000784 .L0 
     /tmp/ccZSci1i.s:1449   .text:0000000000000788 .L0 
     /tmp/ccZSci1i.s:1451   .text:0000000000000788 .L0 
     /tmp/ccZSci1i.s:1452   .text:0000000000000788 .L0 
     /tmp/ccZSci1i.s:1455   .text:0000000000000790 .L0 
     /tmp/ccZSci1i.s:1456   .text:0000000000000790 .L0 
     /tmp/ccZSci1i.s:1459   .text:0000000000000798 .L0 
     /tmp/ccZSci1i.s:1460   .text:0000000000000798 .L0 
     /tmp/ccZSci1i.s:1463   .text:00000000000007a0 .L0 
     /tmp/ccZSci1i.s:1465   .text:00000000000007a8 .L0 
     /tmp/ccZSci1i.s:1471   .text:00000000000007a8 _ZN5RiscV24executeThreadExitSyscallEv
     /tmp/ccZSci1i.s:1474   .text:00000000000007a8 .L0 
     /tmp/ccZSci1i.s:1475   .text:00000000000007a8 .L0 
     /tmp/ccZSci1i.s:1476   .text:00000000000007ac .L0 
     /tmp/ccZSci1i.s:1479   .text:00000000000007b4 .L0 
     /tmp/ccZSci1i.s:1480   .text:00000000000007b4 .L0 
     /tmp/ccZSci1i.s:1482   .text:00000000000007b8 .L0 
     /tmp/ccZSci1i.s:1485   .text:00000000000007b8 .L0 
     /tmp/ccZSci1i.s:1487   .text:00000000000007b8 .L0 
     /tmp/ccZSci1i.s:1488   .text:00000000000007b8 .L0 
     /tmp/ccZSci1i.s:1491   .text:00000000000007c4 .L0 
     /tmp/ccZSci1i.s:1495   .text:00000000000007c8 .L0 
     /tmp/ccZSci1i.s:1496   .text:00000000000007c8 .L0 
     /tmp/ccZSci1i.s:1497   .text:00000000000007c8 .L0 
     /tmp/ccZSci1i.s:1500   .text:00000000000007d0 .L0 
     /tmp/ccZSci1i.s:1501   .text:00000000000007d0 .L0 
     /tmp/ccZSci1i.s:1506   .text:00000000000007d8 .L0 
     /tmp/ccZSci1i.s:1510   .text:00000000000007dc .L0 
       src/riscv.cpp:387    .text:00000000000007dc .L0 
     /tmp/ccZSci1i.s:1516   .text:00000000000007e0 .L0 
     /tmp/ccZSci1i.s:1518   .text:00000000000007e0 .L0 
     /tmp/ccZSci1i.s:1521   .text:00000000000007e8 .L0 
     /tmp/ccZSci1i.s:1522   .text:00000000000007ec .L0 
     /tmp/ccZSci1i.s:1523   .text:00000000000007ec .L0 
     /tmp/ccZSci1i.s:1525   .text:00000000000007f0 .L0 
     /tmp/ccZSci1i.s:1526   .text:00000000000007f0 .L0 
     /tmp/ccZSci1i.s:1528   .text:00000000000007f4 .L0 
     /tmp/ccZSci1i.s:1532   .text:00000000000007f8 .L0 
     /tmp/ccZSci1i.s:1535   .text:00000000000007f8 .L0 
GAS LISTING /tmp/ccZSci1i.s 			page 103


     /tmp/ccZSci1i.s:1538   .text:0000000000000800 .L0 
     /tmp/ccZSci1i.s:1544   .text:0000000000000800 _ZN5RiscV21executeSemOpenSyscallEv
     /tmp/ccZSci1i.s:1547   .text:0000000000000800 .L0 
     /tmp/ccZSci1i.s:1550   .text:0000000000000800 .L0 
     /tmp/ccZSci1i.s:1551   .text:0000000000000804 .L0 
     /tmp/ccZSci1i.s:1557   .text:0000000000000818 .L0 
     /tmp/ccZSci1i.s:1558   .text:0000000000000818 .L0 
     /tmp/ccZSci1i.s:1559   .text:0000000000000818 .L0 
     /tmp/ccZSci1i.s:1560   .text:0000000000000818 .L0 
     /tmp/ccZSci1i.s:1561   .text:0000000000000818 .L0 
     /tmp/ccZSci1i.s:1563   .text:000000000000081c .L0 
     /tmp/ccZSci1i.s:1565   .text:000000000000081c .L0 
     /tmp/ccZSci1i.s:1566   .text:000000000000081c .L0 
       src/riscv.cpp:405    .text:000000000000081c .L0 
     /tmp/ccZSci1i.s:1573   .text:0000000000000820 .L0 
       src/riscv.cpp:406    .text:0000000000000820 .L0 
     /tmp/ccZSci1i.s:1579   .text:0000000000000824 .L0 
     /tmp/ccZSci1i.s:1581   .text:0000000000000824 .L0 
     /tmp/ccZSci1i.s:1589   .text:0000000000000838 .L0 
     /tmp/ccZSci1i.s:1596   .text:0000000000000844 .L0 
     /tmp/ccZSci1i.s:1597   .text:0000000000000844 .L0 
     /tmp/ccZSci1i.s:1599   .text:0000000000000848 .L0 
     /tmp/ccZSci1i.s:1600   .text:0000000000000848 .L0 
     /tmp/ccZSci1i.s:1602   .text:000000000000084c .L0 
     /tmp/ccZSci1i.s:1606   .text:0000000000000850 .L0 
       src/riscv.cpp:421    .text:0000000000000850 .L0 
     /tmp/ccZSci1i.s:1612   .text:0000000000000854 .L0 
     /tmp/ccZSci1i.s:1614   .text:0000000000000854 .L0 
     /tmp/ccZSci1i.s:1617   .text:000000000000085c .L0 
     /tmp/ccZSci1i.s:1618   .text:0000000000000860 .L0 
     /tmp/ccZSci1i.s:1619   .text:0000000000000860 .L0 
     /tmp/ccZSci1i.s:1621   .text:0000000000000864 .L0 
     /tmp/ccZSci1i.s:1622   .text:0000000000000864 .L0 
     /tmp/ccZSci1i.s:1624   .text:0000000000000868 .L0 
     /tmp/ccZSci1i.s:1627   .text:000000000000086c .L0 
     /tmp/ccZSci1i.s:1630   .text:0000000000000870 .L0 
     /tmp/ccZSci1i.s:1633   .text:0000000000000874 .L0 
     /tmp/ccZSci1i.s:1637   .text:0000000000000878 .L0 
     /tmp/ccZSci1i.s:1639   .text:0000000000000878 .L0 
     /tmp/ccZSci1i.s:1646   .text:0000000000000884 .L0 
     /tmp/ccZSci1i.s:1654   .text:000000000000089c .L0 
     /tmp/ccZSci1i.s:1679   .text:000000000000089c _ZN5RiscV22executeSemCloseSyscallEv
     /tmp/ccZSci1i.s:1682   .text:000000000000089c .L0 
     /tmp/ccZSci1i.s:1683   .text:000000000000089c .L0 
     /tmp/ccZSci1i.s:1684   .text:00000000000008a0 .L0 
     /tmp/ccZSci1i.s:1688   .text:00000000000008ac .L0 
     /tmp/ccZSci1i.s:1689   .text:00000000000008ac .L0 
     /tmp/ccZSci1i.s:1690   .text:00000000000008ac .L0 
     /tmp/ccZSci1i.s:1692   .text:00000000000008b0 .L0 
     /tmp/ccZSci1i.s:1694   .text:00000000000008b0 .L0 
     /tmp/ccZSci1i.s:1695   .text:00000000000008b0 .L0 
       src/riscv.cpp:432    .text:00000000000008b0 .L0 
     /tmp/ccZSci1i.s:1702   .text:00000000000008b4 .L0 
     /tmp/ccZSci1i.s:1703   .text:00000000000008b4 .L0 
     /tmp/ccZSci1i.s:1705   .text:00000000000008b4 .L0 
     /tmp/ccZSci1i.s:1707   .text:00000000000008b8 .L0 
     /tmp/ccZSci1i.s:1711   .text:00000000000008bc .L0 
GAS LISTING /tmp/ccZSci1i.s 			page 104


       src/riscv.cpp:445    .text:00000000000008bc .L0 
     /tmp/ccZSci1i.s:1717   .text:00000000000008c0 .L0 
     /tmp/ccZSci1i.s:1719   .text:00000000000008c0 .L0 
     /tmp/ccZSci1i.s:1722   .text:00000000000008c8 .L0 
     /tmp/ccZSci1i.s:1723   .text:00000000000008cc .L0 
     /tmp/ccZSci1i.s:1724   .text:00000000000008cc .L0 
     /tmp/ccZSci1i.s:1726   .text:00000000000008d0 .L0 
     /tmp/ccZSci1i.s:1727   .text:00000000000008d0 .L0 
     /tmp/ccZSci1i.s:1729   .text:00000000000008d4 .L0 
     /tmp/ccZSci1i.s:1732   .text:00000000000008d8 .L0 
     /tmp/ccZSci1i.s:1736   .text:00000000000008dc .L0 
     /tmp/ccZSci1i.s:1738   .text:00000000000008dc .L0 
     /tmp/ccZSci1i.s:1739   .text:00000000000008dc .L0 
     /tmp/ccZSci1i.s:1746   .text:00000000000008f4 .L0 
     /tmp/ccZSci1i.s:1748   .text:00000000000008fc .L0 
     /tmp/ccZSci1i.s:1754   .text:00000000000008fc _ZN5RiscV21executeSemWaitSyscallEv
     /tmp/ccZSci1i.s:1757   .text:00000000000008fc .L0 
     /tmp/ccZSci1i.s:1758   .text:00000000000008fc .L0 
     /tmp/ccZSci1i.s:1759   .text:0000000000000900 .L0 
     /tmp/ccZSci1i.s:1762   .text:0000000000000908 .L0 
     /tmp/ccZSci1i.s:1763   .text:0000000000000908 .L0 
     /tmp/ccZSci1i.s:1765   .text:000000000000090c .L0 
     /tmp/ccZSci1i.s:1767   .text:000000000000090c .L0 
     /tmp/ccZSci1i.s:1768   .text:000000000000090c .L0 
       src/riscv.cpp:455    .text:000000000000090c .L0 
     /tmp/ccZSci1i.s:1775   .text:0000000000000910 .L0 
     /tmp/ccZSci1i.s:1777   .text:0000000000000910 .L0 
     /tmp/ccZSci1i.s:1781   .text:0000000000000914 .L0 
     /tmp/ccZSci1i.s:1782   .text:0000000000000914 .L0 
     /tmp/ccZSci1i.s:1786   .text:0000000000000924 .L0 
     /tmp/ccZSci1i.s:1788   .text:0000000000000928 .L0 
     /tmp/ccZSci1i.s:1792   .text:000000000000092c .L0 
       src/riscv.cpp:471    .text:000000000000092c .L0 
     /tmp/ccZSci1i.s:1798   .text:0000000000000930 .L0 
     /tmp/ccZSci1i.s:1800   .text:0000000000000930 .L0 
     /tmp/ccZSci1i.s:1803   .text:0000000000000938 .L0 
     /tmp/ccZSci1i.s:1804   .text:000000000000093c .L0 
     /tmp/ccZSci1i.s:1805   .text:000000000000093c .L0 
     /tmp/ccZSci1i.s:1807   .text:0000000000000940 .L0 
     /tmp/ccZSci1i.s:1808   .text:0000000000000940 .L0 
     /tmp/ccZSci1i.s:1810   .text:0000000000000944 .L0 
     /tmp/ccZSci1i.s:1814   .text:0000000000000948 .L0 
     /tmp/ccZSci1i.s:1816   .text:0000000000000948 .L0 
     /tmp/ccZSci1i.s:1817   .text:0000000000000948 .L0 
     /tmp/ccZSci1i.s:1823   .text:0000000000000954 .L0 
     /tmp/ccZSci1i.s:1825   .text:000000000000095c .L0 
     /tmp/ccZSci1i.s:1831   .text:000000000000095c _ZN5RiscV23executeSemSignalSyscallEv
     /tmp/ccZSci1i.s:1834   .text:000000000000095c .L0 
     /tmp/ccZSci1i.s:1835   .text:000000000000095c .L0 
     /tmp/ccZSci1i.s:1836   .text:0000000000000960 .L0 
     /tmp/ccZSci1i.s:1839   .text:0000000000000968 .L0 
     /tmp/ccZSci1i.s:1840   .text:0000000000000968 .L0 
     /tmp/ccZSci1i.s:1842   .text:000000000000096c .L0 
     /tmp/ccZSci1i.s:1844   .text:000000000000096c .L0 
     /tmp/ccZSci1i.s:1845   .text:000000000000096c .L0 
       src/riscv.cpp:482    .text:000000000000096c .L0 
     /tmp/ccZSci1i.s:1852   .text:0000000000000970 .L0 
GAS LISTING /tmp/ccZSci1i.s 			page 105


     /tmp/ccZSci1i.s:1854   .text:0000000000000970 .L0 
     /tmp/ccZSci1i.s:1856   .text:0000000000000974 .L0 
     /tmp/ccZSci1i.s:1860   .text:0000000000000978 .L0 
       src/riscv.cpp:494    .text:0000000000000978 .L0 
     /tmp/ccZSci1i.s:1866   .text:000000000000097c .L0 
     /tmp/ccZSci1i.s:1868   .text:000000000000097c .L0 
     /tmp/ccZSci1i.s:1871   .text:0000000000000984 .L0 
     /tmp/ccZSci1i.s:1872   .text:0000000000000988 .L0 
     /tmp/ccZSci1i.s:1873   .text:0000000000000988 .L0 
     /tmp/ccZSci1i.s:1875   .text:000000000000098c .L0 
     /tmp/ccZSci1i.s:1876   .text:000000000000098c .L0 
     /tmp/ccZSci1i.s:1878   .text:0000000000000990 .L0 
     /tmp/ccZSci1i.s:1882   .text:0000000000000994 .L0 
     /tmp/ccZSci1i.s:1884   .text:0000000000000994 .L0 
     /tmp/ccZSci1i.s:1885   .text:0000000000000994 .L0 
     /tmp/ccZSci1i.s:1888   .text:000000000000099c .L0 
     /tmp/ccZSci1i.s:1890   .text:00000000000009a4 .L0 
     /tmp/ccZSci1i.s:1896   .text:00000000000009a4 _ZN5RiscV23executeTimeSleepSyscallEv
     /tmp/ccZSci1i.s:1899   .text:00000000000009a4 .L0 
     /tmp/ccZSci1i.s:1900   .text:00000000000009a4 .L0 
     /tmp/ccZSci1i.s:1901   .text:00000000000009a8 .L0 
     /tmp/ccZSci1i.s:1905   .text:00000000000009b4 .L0 
     /tmp/ccZSci1i.s:1906   .text:00000000000009b4 .L0 
     /tmp/ccZSci1i.s:1907   .text:00000000000009b4 .L0 
     /tmp/ccZSci1i.s:1909   .text:00000000000009b8 .L0 
     /tmp/ccZSci1i.s:1911   .text:00000000000009b8 .L0 
     /tmp/ccZSci1i.s:1912   .text:00000000000009b8 .L0 
       src/riscv.cpp:504    .text:00000000000009b8 .L0 
     /tmp/ccZSci1i.s:1918   .text:00000000000009bc .L0 
     /tmp/ccZSci1i.s:1920   .text:00000000000009bc .L0 
     /tmp/ccZSci1i.s:1924   .text:00000000000009c8 .L0 
     /tmp/ccZSci1i.s:1925   .text:00000000000009c8 .L0 
     /tmp/ccZSci1i.s:1928   .text:00000000000009d4 .L0 
     /tmp/ccZSci1i.s:1929   .text:00000000000009d4 .L0 
     /tmp/ccZSci1i.s:1931   .text:00000000000009d8 .L0 
     /tmp/ccZSci1i.s:1933   .text:00000000000009dc .L0 
     /tmp/ccZSci1i.s:1934   .text:00000000000009dc .L0 
     /tmp/ccZSci1i.s:1938   .text:00000000000009e8 .L0 
     /tmp/ccZSci1i.s:1939   .text:00000000000009e8 .L0 
     /tmp/ccZSci1i.s:1942   .text:00000000000009f0 .L0 
     /tmp/ccZSci1i.s:1943   .text:00000000000009f0 .L0 
     /tmp/ccZSci1i.s:1946   .text:00000000000009f8 .L0 
     /tmp/ccZSci1i.s:1947   .text:00000000000009f8 .L0 
     /tmp/ccZSci1i.s:1948   .text:00000000000009f8 .L0 
     /tmp/ccZSci1i.s:1954   .text:0000000000000a00 .L0 
     /tmp/ccZSci1i.s:1956   .text:0000000000000a00 .L0 
     /tmp/ccZSci1i.s:1959   .text:0000000000000a08 .L0 
     /tmp/ccZSci1i.s:1960   .text:0000000000000a0c .L0 
     /tmp/ccZSci1i.s:1962   .text:0000000000000a10 .L0 
     /tmp/ccZSci1i.s:1963   .text:0000000000000a10 .L0 
     /tmp/ccZSci1i.s:1965   .text:0000000000000a14 .L0 
     /tmp/ccZSci1i.s:1968   .text:0000000000000a18 .L0 
     /tmp/ccZSci1i.s:1970   .text:0000000000000a1c .L0 
     /tmp/ccZSci1i.s:1976   .text:0000000000000a1c _ZN5RiscV18executeGetcSyscallEv
     /tmp/ccZSci1i.s:1979   .text:0000000000000a1c .L0 
     /tmp/ccZSci1i.s:1980   .text:0000000000000a1c .L0 
     /tmp/ccZSci1i.s:1981   .text:0000000000000a20 .L0 
GAS LISTING /tmp/ccZSci1i.s 			page 106


     /tmp/ccZSci1i.s:1985   .text:0000000000000a2c .L0 
     /tmp/ccZSci1i.s:1986   .text:0000000000000a2c .L0 
     /tmp/ccZSci1i.s:1987   .text:0000000000000a2c .L0 
     /tmp/ccZSci1i.s:1989   .text:0000000000000a30 .L0 
     /tmp/ccZSci1i.s:1991   .text:0000000000000a30 .L0 
     /tmp/ccZSci1i.s:1992   .text:0000000000000a30 .L0 
     /tmp/ccZSci1i.s:1994   .text:0000000000000a38 .L0 
     /tmp/ccZSci1i.s:1996   .text:0000000000000a3c .L0 
     /tmp/ccZSci1i.s:1997   .text:0000000000000a3c .L0 
     /tmp/ccZSci1i.s:2003   .text:0000000000000a50 .L0 
     /tmp/ccZSci1i.s:2004   .text:0000000000000a50 .L0 
     /tmp/ccZSci1i.s:2009   .text:0000000000000a5c .L0 
     /tmp/ccZSci1i.s:2012   .text:0000000000000a64 .L0 
     /tmp/ccZSci1i.s:2017   .text:0000000000000a6c .L0 
       src/riscv.cpp:545    .text:0000000000000a6c .L0 
     /tmp/ccZSci1i.s:2023   .text:0000000000000a70 .L0 
     /tmp/ccZSci1i.s:2025   .text:0000000000000a70 .L0 
     /tmp/ccZSci1i.s:2028   .text:0000000000000a78 .L0 
     /tmp/ccZSci1i.s:2029   .text:0000000000000a7c .L0 
     /tmp/ccZSci1i.s:2030   .text:0000000000000a7c .L0 
     /tmp/ccZSci1i.s:2032   .text:0000000000000a80 .L0 
     /tmp/ccZSci1i.s:2033   .text:0000000000000a80 .L0 
     /tmp/ccZSci1i.s:2035   .text:0000000000000a84 .L0 
     /tmp/ccZSci1i.s:2037   .text:0000000000000a88 .L0 
     /tmp/ccZSci1i.s:2041   .text:0000000000000a8c .L0 
     /tmp/ccZSci1i.s:2043   .text:0000000000000a8c .L0 
     /tmp/ccZSci1i.s:2044   .text:0000000000000a8c .L0 
     /tmp/ccZSci1i.s:2049   .text:0000000000000a98 .L0 
     /tmp/ccZSci1i.s:2050   .text:0000000000000a98 .L0 
     /tmp/ccZSci1i.s:2057   .text:0000000000000aa8 .L0 
     /tmp/ccZSci1i.s:2058   .text:0000000000000aa8 .L0 
     /tmp/ccZSci1i.s:2061   .text:0000000000000ab4 .L0 
     /tmp/ccZSci1i.s:2067   .text:0000000000000ab4 _ZN5RiscV22executePutcUtilSyscallEv
     /tmp/ccZSci1i.s:2070   .text:0000000000000ab4 .L0 
     /tmp/ccZSci1i.s:2071   .text:0000000000000ab4 .L0 
     /tmp/ccZSci1i.s:2072   .text:0000000000000ab8 .L0 
     /tmp/ccZSci1i.s:2075   .text:0000000000000ac0 .L0 
     /tmp/ccZSci1i.s:2076   .text:0000000000000ac0 .L0 
     /tmp/ccZSci1i.s:2078   .text:0000000000000ac4 .L0 
     /tmp/ccZSci1i.s:2080   .text:0000000000000ac4 .L0 
     /tmp/ccZSci1i.s:2081   .text:0000000000000ac4 .L0 
     /tmp/ccZSci1i.s:2084   .text:0000000000000acc .L0 
       src/riscv.cpp:600    .text:0000000000000acc .L0 
     /tmp/ccZSci1i.s:2090   .text:0000000000000ad0 .L0 
     /tmp/ccZSci1i.s:2092   .text:0000000000000ad0 .L0 
     /tmp/ccZSci1i.s:2095   .text:0000000000000ad8 .L0 
     /tmp/ccZSci1i.s:2096   .text:0000000000000adc .L0 
     /tmp/ccZSci1i.s:2098   .text:0000000000000ae0 .L0 
     /tmp/ccZSci1i.s:2099   .text:0000000000000ae0 .L0 
     /tmp/ccZSci1i.s:2101   .text:0000000000000ae4 .L0 
     /tmp/ccZSci1i.s:2103   .text:0000000000000ae8 .L0 
     /tmp/ccZSci1i.s:2109   .text:0000000000000ae8 _ZN5RiscV24executeThreadFreeSyscallEv
     /tmp/ccZSci1i.s:2112   .text:0000000000000ae8 .L0 
     /tmp/ccZSci1i.s:2113   .text:0000000000000ae8 .L0 
     /tmp/ccZSci1i.s:2114   .text:0000000000000aec .L0 
     /tmp/ccZSci1i.s:2118   .text:0000000000000af8 .L0 
     /tmp/ccZSci1i.s:2119   .text:0000000000000af8 .L0 
GAS LISTING /tmp/ccZSci1i.s 			page 107


     /tmp/ccZSci1i.s:2120   .text:0000000000000af8 .L0 
     /tmp/ccZSci1i.s:2122   .text:0000000000000afc .L0 
     /tmp/ccZSci1i.s:2124   .text:0000000000000afc .L0 
     /tmp/ccZSci1i.s:2125   .text:0000000000000afc .L0 
       src/riscv.cpp:648    .text:0000000000000afc .L0 
     /tmp/ccZSci1i.s:2132   .text:0000000000000b00 .L0 
     /tmp/ccZSci1i.s:2134   .text:0000000000000b00 .L0 
     /tmp/ccZSci1i.s:2138   .text:0000000000000b04 .L0 
     /tmp/ccZSci1i.s:2139   .text:0000000000000b04 .L0 
     /tmp/ccZSci1i.s:2145   .text:0000000000000b0c .L0 
     /tmp/ccZSci1i.s:2147   .text:0000000000000b0c .L0 
     /tmp/ccZSci1i.s:2150   .text:0000000000000b14 .L0 
     /tmp/ccZSci1i.s:2151   .text:0000000000000b18 .L0 
     /tmp/ccZSci1i.s:2152   .text:0000000000000b18 .L0 
     /tmp/ccZSci1i.s:2154   .text:0000000000000b1c .L0 
     /tmp/ccZSci1i.s:2155   .text:0000000000000b1c .L0 
     /tmp/ccZSci1i.s:2157   .text:0000000000000b20 .L0 
     /tmp/ccZSci1i.s:2160   .text:0000000000000b24 .L0 
     /tmp/ccZSci1i.s:2164   .text:0000000000000b28 .L0 
     /tmp/ccZSci1i.s:2166   .text:0000000000000b28 .L0 
     /tmp/ccZSci1i.s:2167   .text:0000000000000b28 .L0 
     /tmp/ccZSci1i.s:2171   .text:0000000000000b34 .L0 
     /tmp/ccZSci1i.s:2172   .text:0000000000000b34 .L0 
     /tmp/ccZSci1i.s:2179   .text:0000000000000b50 .L0 
     /tmp/ccZSci1i.s:2185   .text:0000000000000b50 _ZN5RiscV27executeSemaphoreFreeSyscallEv
     /tmp/ccZSci1i.s:2188   .text:0000000000000b50 .L0 
     /tmp/ccZSci1i.s:2189   .text:0000000000000b50 .L0 
     /tmp/ccZSci1i.s:2190   .text:0000000000000b54 .L0 
     /tmp/ccZSci1i.s:2194   .text:0000000000000b60 .L0 
     /tmp/ccZSci1i.s:2195   .text:0000000000000b60 .L0 
     /tmp/ccZSci1i.s:2196   .text:0000000000000b60 .L0 
     /tmp/ccZSci1i.s:2198   .text:0000000000000b64 .L0 
     /tmp/ccZSci1i.s:2200   .text:0000000000000b64 .L0 
     /tmp/ccZSci1i.s:2201   .text:0000000000000b64 .L0 
       src/riscv.cpp:670    .text:0000000000000b64 .L0 
     /tmp/ccZSci1i.s:2208   .text:0000000000000b68 .L0 
     /tmp/ccZSci1i.s:2210   .text:0000000000000b68 .L0 
     /tmp/ccZSci1i.s:2214   .text:0000000000000b6c .L0 
     /tmp/ccZSci1i.s:2215   .text:0000000000000b6c .L0 
     /tmp/ccZSci1i.s:2221   .text:0000000000000b74 .L0 
     /tmp/ccZSci1i.s:2223   .text:0000000000000b74 .L0 
     /tmp/ccZSci1i.s:2226   .text:0000000000000b7c .L0 
     /tmp/ccZSci1i.s:2227   .text:0000000000000b80 .L0 
     /tmp/ccZSci1i.s:2228   .text:0000000000000b80 .L0 
     /tmp/ccZSci1i.s:2230   .text:0000000000000b84 .L0 
     /tmp/ccZSci1i.s:2231   .text:0000000000000b84 .L0 
     /tmp/ccZSci1i.s:2233   .text:0000000000000b88 .L0 
     /tmp/ccZSci1i.s:2236   .text:0000000000000b8c .L0 
     /tmp/ccZSci1i.s:2240   .text:0000000000000b90 .L0 
     /tmp/ccZSci1i.s:2242   .text:0000000000000b90 .L0 
     /tmp/ccZSci1i.s:2243   .text:0000000000000b90 .L0 
     /tmp/ccZSci1i.s:2250   .text:0000000000000bac .L0 
     /tmp/ccZSci1i.s:2256   .text:0000000000000bac _ZN5RiscV18executeForkSyscallEv
     /tmp/ccZSci1i.s:2259   .text:0000000000000bac .L0 
     /tmp/ccZSci1i.s:2262   .text:0000000000000bac .L0 
     /tmp/ccZSci1i.s:2263   .text:0000000000000bb0 .L0 
     /tmp/ccZSci1i.s:2268   .text:0000000000000bc0 .L0 
GAS LISTING /tmp/ccZSci1i.s 			page 108


     /tmp/ccZSci1i.s:2269   .text:0000000000000bc0 .L0 
     /tmp/ccZSci1i.s:2270   .text:0000000000000bc0 .L0 
     /tmp/ccZSci1i.s:2271   .text:0000000000000bc0 .L0 
     /tmp/ccZSci1i.s:2273   .text:0000000000000bc4 .L0 
     /tmp/ccZSci1i.s:2275   .text:0000000000000bc4 .L0 
     /tmp/ccZSci1i.s:2276   .text:0000000000000bc4 .L0 
     /tmp/ccZSci1i.s:2283   .text:0000000000000bd4 .L0 
     /tmp/ccZSci1i.s:2284   .text:0000000000000bd4 .L0 
     /tmp/ccZSci1i.s:2293   .text:0000000000000bf4 .L0 
     /tmp/ccZSci1i.s:2294   .text:0000000000000bf4 .L0 
     /tmp/ccZSci1i.s:2301   .text:0000000000000c08 .L0 
     /tmp/ccZSci1i.s:2311   .text:0000000000000c20 .L0 
     /tmp/ccZSci1i.s:2313   .text:0000000000000c20 .L0 
     /tmp/ccZSci1i.s:2316   .text:0000000000000c24 .L0 
     /tmp/ccZSci1i.s:2317   .text:0000000000000c24 .L0 
     /tmp/ccZSci1i.s:2321   .text:0000000000000c34 .L0 
     /tmp/ccZSci1i.s:2322   .text:0000000000000c34 .L0 
     /tmp/ccZSci1i.s:2325   .text:0000000000000c40 .L0 
     /tmp/ccZSci1i.s:2327   .text:0000000000000c44 .L0 
     /tmp/ccZSci1i.s:2330   .text:0000000000000c50 .L0 
     /tmp/ccZSci1i.s:2332   .text:0000000000000c54 .L0 
     /tmp/ccZSci1i.s:2334   .text:0000000000000c58 .L0 
     /tmp/ccZSci1i.s:2336   .text:0000000000000c5c .L0 
     /tmp/ccZSci1i.s:2337   .text:0000000000000c5c .L0 
     /tmp/ccZSci1i.s:2340   .text:0000000000000c64 .L0 
     /tmp/ccZSci1i.s:2342   .text:0000000000000c68 .L0 
     /tmp/ccZSci1i.s:2344   .text:0000000000000c6c .L0 
     /tmp/ccZSci1i.s:2347   .text:0000000000000c70 .L0 
     /tmp/ccZSci1i.s:2348   .text:0000000000000c70 .L0 
     /tmp/ccZSci1i.s:2350   .text:0000000000000c74 .L0 
     /tmp/ccZSci1i.s:2351   .text:0000000000000c74 .L0 
       src/riscv.cpp:715    .text:0000000000000c74 .L0 
     /tmp/ccZSci1i.s:2357   .text:0000000000000c78 .L0 
       src/riscv.cpp:717    .text:0000000000000c78 .L0 
     /tmp/ccZSci1i.s:2362   .text:0000000000000c7c .L0 
       src/riscv.cpp:719    .text:0000000000000c7c .L0 
     /tmp/ccZSci1i.s:2367   .text:0000000000000c80 .L0 
       src/riscv.cpp:721    .text:0000000000000c80 .L0 
     /tmp/ccZSci1i.s:2372   .text:0000000000000c84 .L0 
       src/riscv.cpp:723    .text:0000000000000c84 .L0 
     /tmp/ccZSci1i.s:2377   .text:0000000000000c88 .L0 
       src/riscv.cpp:726    .text:0000000000000c88 .L0 
     /tmp/ccZSci1i.s:2382   .text:0000000000000c8c .L0 
       src/riscv.cpp:728    .text:0000000000000c8c .L0 
     /tmp/ccZSci1i.s:2387   .text:0000000000000c90 .L0 
       src/riscv.cpp:730    .text:0000000000000c90 .L0 
     /tmp/ccZSci1i.s:2392   .text:0000000000000c94 .L0 
       src/riscv.cpp:732    .text:0000000000000c94 .L0 
     /tmp/ccZSci1i.s:2397   .text:0000000000000c98 .L0 
     /tmp/ccZSci1i.s:2399   .text:0000000000000c98 .L0 
     /tmp/ccZSci1i.s:2402   .text:0000000000000ca0 .L0 
     /tmp/ccZSci1i.s:2404   .text:0000000000000ca4 .L0 
     /tmp/ccZSci1i.s:2405   .text:0000000000000ca4 .L0 
     /tmp/ccZSci1i.s:2407   .text:0000000000000ca8 .L0 
     /tmp/ccZSci1i.s:2409   .text:0000000000000cac .L0 
     /tmp/ccZSci1i.s:2410   .text:0000000000000cac .L0 
     /tmp/ccZSci1i.s:2419   .text:0000000000000cb8 .L0 
GAS LISTING /tmp/ccZSci1i.s 			page 109


     /tmp/ccZSci1i.s:2420   .text:0000000000000cb8 .L0 
       src/riscv.cpp:746    .text:0000000000000cb8 .L0 
     /tmp/ccZSci1i.s:2426   .text:0000000000000cbc .L0 
     /tmp/ccZSci1i.s:2428   .text:0000000000000cbc .L0 
     /tmp/ccZSci1i.s:2431   .text:0000000000000cc4 .L0 
     /tmp/ccZSci1i.s:2432   .text:0000000000000cc8 .L0 
     /tmp/ccZSci1i.s:2433   .text:0000000000000cc8 .L0 
     /tmp/ccZSci1i.s:2435   .text:0000000000000ccc .L0 
     /tmp/ccZSci1i.s:2436   .text:0000000000000ccc .L0 
     /tmp/ccZSci1i.s:2438   .text:0000000000000cd0 .L0 
     /tmp/ccZSci1i.s:2441   .text:0000000000000cd4 .L0 
     /tmp/ccZSci1i.s:2443   .text:0000000000000cd8 .L0 
     /tmp/ccZSci1i.s:2447   .text:0000000000000cdc .L0 
     /tmp/ccZSci1i.s:2450   .text:0000000000000cdc .L0 
     /tmp/ccZSci1i.s:2459   .text:0000000000000ce8 .L0 
     /tmp/ccZSci1i.s:2467   .text:0000000000000d00 .L0 
     /tmp/ccZSci1i.s:2496   .text:0000000000000d00 _ZN5RiscV5getPCEv
     /tmp/ccZSci1i.s:2499   .text:0000000000000d00 .L0 
     /tmp/ccZSci1i.s:2500   .text:0000000000000d00 .L0 
     /tmp/ccZSci1i.s:2501   .text:0000000000000d04 .L0 
     /tmp/ccZSci1i.s:2503   .text:0000000000000d08 .L0 
     /tmp/ccZSci1i.s:2505   .text:0000000000000d0c .L0 
     /tmp/ccZSci1i.s:2507   .text:0000000000000d0c .L0 
     /tmp/ccZSci1i.s:2508   .text:0000000000000d0c .L0 
       src/riscv.cpp:755    .text:0000000000000d0c .L0 
     /tmp/ccZSci1i.s:2515   .text:0000000000000d10 .L0 
     /tmp/ccZSci1i.s:2517   .text:0000000000000d10 .L0 
     /tmp/ccZSci1i.s:2520   .text:0000000000000d14 .L0 
     /tmp/ccZSci1i.s:2523   .text:0000000000000d20 .L0 
     /tmp/ccZSci1i.s:2524   .text:0000000000000d24 .L0 
     /tmp/ccZSci1i.s:2525   .text:0000000000000d24 .L0 
     /tmp/ccZSci1i.s:2527   .text:0000000000000d28 .L0 
     /tmp/ccZSci1i.s:2529   .text:0000000000000d2c .L0 
     /tmp/ccZSci1i.s:2555   .text:0000000000000d2c _ZN5RiscV20handleSupervisorTrapEv
     /tmp/ccZSci1i.s:2558   .text:0000000000000d2c .L0 
     /tmp/ccZSci1i.s:2559   .text:0000000000000d2c .L0 
     /tmp/ccZSci1i.s:2560   .text:0000000000000d30 .L0 
     /tmp/ccZSci1i.s:2563   .text:0000000000000d38 .L0 
     /tmp/ccZSci1i.s:2564   .text:0000000000000d38 .L0 
     /tmp/ccZSci1i.s:2566   .text:0000000000000d3c .L0 
     /tmp/ccZSci1i.s:2570   .text:0000000000000d3c .L0 
     /tmp/ccZSci1i.s:2571   .text:0000000000000d3c .L0 
     /tmp/ccZSci1i.s:2572   .text:0000000000000d3c .L0 
  src/../h/riscv.hpp:139    .text:0000000000000d3c .L0 
     /tmp/ccZSci1i.s:2580   .text:0000000000000d44 .L0 
     /tmp/ccZSci1i.s:2581   .text:0000000000000d44 .L0 
     /tmp/ccZSci1i.s:2585   .text:0000000000000d48 .L0 
     /tmp/ccZSci1i.s:2587   .text:0000000000000d4c .L0 
     /tmp/ccZSci1i.s:2588   .text:0000000000000d4c .L0 
       src/riscv.cpp:102    .text:0000000000000d58 .L0 
     /tmp/ccZSci1i.s:2599   .text:0000000000000d60 .L0 
     /tmp/ccZSci1i.s:2600   .text:0000000000000d60 .L0 
     /tmp/ccZSci1i.s:2602   .text:0000000000000d64 .L0 
     /tmp/ccZSci1i.s:2605   .text:0000000000000d6c .L0 
     /tmp/ccZSci1i.s:2607   .text:0000000000000d70 .L0 
     /tmp/ccZSci1i.s:2613   .text:0000000000000d78 .L0 
     /tmp/ccZSci1i.s:2614   .text:0000000000000d78 .L0 
GAS LISTING /tmp/ccZSci1i.s 			page 110


     /tmp/ccZSci1i.s:2616   .text:0000000000000d7c .L0 
     /tmp/ccZSci1i.s:2626   .text:0000000000000d8c .L0 
     /tmp/ccZSci1i.s:2627   .text:0000000000000d8c .L0 
     /tmp/ccZSci1i.s:2629   .text:0000000000000d90 .L0 
     /tmp/ccZSci1i.s:2641   .text:0000000000000da0 .L0 
     /tmp/ccZSci1i.s:2642   .text:0000000000000da0 .L0 
     /tmp/ccZSci1i.s:2644   .text:0000000000000da4 .L0 
     /tmp/ccZSci1i.s:2648   .text:0000000000000dac .L0 
     /tmp/ccZSci1i.s:2649   .text:0000000000000dac .L0 
     /tmp/ccZSci1i.s:2653   .text:0000000000000dbc .L0 
     /tmp/ccZSci1i.s:2654   .text:0000000000000dbc .L0 
     /tmp/ccZSci1i.s:2660   .text:0000000000000dcc .L0 
     /tmp/ccZSci1i.s:2661   .text:0000000000000dcc .L0 
     /tmp/ccZSci1i.s:2662   .text:0000000000000dcc .L0 
  src/../h/riscv.hpp:139    .text:0000000000000dcc .L0 
     /tmp/ccZSci1i.s:2670   .text:0000000000000dd4 .L0 
     /tmp/ccZSci1i.s:2671   .text:0000000000000dd4 .L0 
     /tmp/ccZSci1i.s:2676   .text:0000000000000dd8 .L0 
     /tmp/ccZSci1i.s:2677   .text:0000000000000dd8 .L0 
     /tmp/ccZSci1i.s:2684   .text:0000000000000dec .L0 
     /tmp/ccZSci1i.s:2685   .text:0000000000000dec .L0 
     /tmp/ccZSci1i.s:2691   .text:0000000000000dfc .L0 
     /tmp/ccZSci1i.s:2692   .text:0000000000000dfc .L0 
     /tmp/ccZSci1i.s:2693   .text:0000000000000dfc .L0 
  src/../h/riscv.hpp:149    .text:0000000000000dfc .L0 
     /tmp/ccZSci1i.s:2702   .text:0000000000000e00 .L0 
     /tmp/ccZSci1i.s:2703   .text:0000000000000e00 .L0 
     /tmp/ccZSci1i.s:2704   .text:0000000000000e00 .L0 
     /tmp/ccZSci1i.s:2710   .text:0000000000000e14 .L0 
     /tmp/ccZSci1i.s:2711   .text:0000000000000e14 .L0 
     /tmp/ccZSci1i.s:2715   .text:0000000000000e24 .L0 
     /tmp/ccZSci1i.s:2716   .text:0000000000000e24 .L0 
     /tmp/ccZSci1i.s:2720   .text:0000000000000e30 .L0 
     /tmp/ccZSci1i.s:2721   .text:0000000000000e30 .L0 
     /tmp/ccZSci1i.s:2724   .text:0000000000000e38 .L0 
     /tmp/ccZSci1i.s:2725   .text:0000000000000e38 .L0 
     /tmp/ccZSci1i.s:2729   .text:0000000000000e48 .L0 
     /tmp/ccZSci1i.s:2730   .text:0000000000000e48 .L0 
     /tmp/ccZSci1i.s:2742   .text:0000000000000e54 .L0 
     /tmp/ccZSci1i.s:2743   .text:0000000000000e54 .L0 
     /tmp/ccZSci1i.s:2744   .text:0000000000000e54 .L0 
  src/../h/riscv.hpp:169    .text:0000000000000e54 .L0 
     /tmp/ccZSci1i.s:2754   .text:0000000000000e58 .L0 
     /tmp/ccZSci1i.s:2755   .text:0000000000000e58 .L0 
     /tmp/ccZSci1i.s:2759   .text:0000000000000e5c .L0 
     /tmp/ccZSci1i.s:2760   .text:0000000000000e5c .L0 
     /tmp/ccZSci1i.s:2761   .text:0000000000000e5c .L0 
  src/../h/riscv.hpp:149    .text:0000000000000e5c .L0 
     /tmp/ccZSci1i.s:2771   .text:0000000000000e60 .L0 
     /tmp/ccZSci1i.s:2772   .text:0000000000000e60 .L0 
     /tmp/ccZSci1i.s:2774   .text:0000000000000e64 .L0 
     /tmp/ccZSci1i.s:2776   .text:0000000000000e68 .L0 
     /tmp/ccZSci1i.s:2777   .text:0000000000000e68 .L0 
     /tmp/ccZSci1i.s:2780   .text:0000000000000e74 .L0 
     /tmp/ccZSci1i.s:2783   .text:0000000000000e7c .L0 
     /tmp/ccZSci1i.s:2784   .text:0000000000000e7c .L0 
     /tmp/ccZSci1i.s:2787   .text:0000000000000e84 .L0 
GAS LISTING /tmp/ccZSci1i.s 			page 111


     /tmp/ccZSci1i.s:2788   .text:0000000000000e84 .L0 
       src/riscv.cpp:116    .text:0000000000000e84 .L0 
     /tmp/ccZSci1i.s:2796   .text:0000000000000e88 .L0 
     /tmp/ccZSci1i.s:2910   .text:0000000000000eac .L0 
     /tmp/ccZSci1i.s:2911   .text:0000000000000eac .L0 
     /tmp/ccZSci1i.s:2912   .text:0000000000000eac .L0 
     /tmp/ccZSci1i.s:2916   .text:0000000000000eb4 .L0 
     /tmp/ccZSci1i.s:2917   .text:0000000000000eb4 .L0 
     /tmp/ccZSci1i.s:2918   .text:0000000000000eb4 .L0 
     /tmp/ccZSci1i.s:2925   .text:0000000000000ec4 .L0 
  src/../h/riscv.hpp:164    .text:0000000000000ec4 .L0 
     /tmp/ccZSci1i.s:2935   .text:0000000000000ec8 .L0 
     /tmp/ccZSci1i.s:2936   .text:0000000000000ec8 .L0 
     /tmp/ccZSci1i.s:2941   .text:0000000000000ecc .L0 
  src/../h/riscv.hpp:154    .text:0000000000000ecc .L0 
     /tmp/ccZSci1i.s:2954   .text:0000000000000ed0 .L0 
     /tmp/ccZSci1i.s:2955   .text:0000000000000ed0 .L0 
     /tmp/ccZSci1i.s:2958   .text:0000000000000ed8 .L0 
     /tmp/ccZSci1i.s:2959   .text:0000000000000edc .L0 
     /tmp/ccZSci1i.s:2960   .text:0000000000000edc .L0 
     /tmp/ccZSci1i.s:2962   .text:0000000000000ee0 .L0 
     /tmp/ccZSci1i.s:2963   .text:0000000000000ee0 .L0 
     /tmp/ccZSci1i.s:2965   .text:0000000000000ee4 .L0 
     /tmp/ccZSci1i.s:2968   .text:0000000000000ee8 .L0 
     /tmp/ccZSci1i.s:2972   .text:0000000000000ee8 .L0 
     /tmp/ccZSci1i.s:2973   .text:0000000000000ee8 .L0 
     /tmp/ccZSci1i.s:2974   .text:0000000000000ee8 .L0 
     /tmp/ccZSci1i.s:2977   .text:0000000000000ef0 .L0 
     /tmp/ccZSci1i.s:2980   .text:0000000000000ef4 .L0 
     /tmp/ccZSci1i.s:2981   .text:0000000000000ef4 .L0 
     /tmp/ccZSci1i.s:2982   .text:0000000000000ef4 .L0 
     /tmp/ccZSci1i.s:2985   .text:0000000000000efc .L0 
     /tmp/ccZSci1i.s:2988   .text:0000000000000f00 .L0 
     /tmp/ccZSci1i.s:2989   .text:0000000000000f00 .L0 
     /tmp/ccZSci1i.s:2990   .text:0000000000000f00 .L0 
     /tmp/ccZSci1i.s:2993   .text:0000000000000f08 .L0 
     /tmp/ccZSci1i.s:2996   .text:0000000000000f0c .L0 
     /tmp/ccZSci1i.s:2997   .text:0000000000000f0c .L0 
     /tmp/ccZSci1i.s:2998   .text:0000000000000f0c .L0 
     /tmp/ccZSci1i.s:3001   .text:0000000000000f14 .L0 
     /tmp/ccZSci1i.s:3004   .text:0000000000000f18 .L0 
     /tmp/ccZSci1i.s:3005   .text:0000000000000f18 .L0 
     /tmp/ccZSci1i.s:3006   .text:0000000000000f18 .L0 
     /tmp/ccZSci1i.s:3009   .text:0000000000000f20 .L0 
     /tmp/ccZSci1i.s:3012   .text:0000000000000f24 .L0 
     /tmp/ccZSci1i.s:3013   .text:0000000000000f24 .L0 
     /tmp/ccZSci1i.s:3014   .text:0000000000000f24 .L0 
     /tmp/ccZSci1i.s:3017   .text:0000000000000f2c .L0 
     /tmp/ccZSci1i.s:3020   .text:0000000000000f30 .L0 
     /tmp/ccZSci1i.s:3021   .text:0000000000000f30 .L0 
     /tmp/ccZSci1i.s:3022   .text:0000000000000f30 .L0 
     /tmp/ccZSci1i.s:3025   .text:0000000000000f38 .L0 
     /tmp/ccZSci1i.s:3028   .text:0000000000000f3c .L0 
     /tmp/ccZSci1i.s:3029   .text:0000000000000f3c .L0 
     /tmp/ccZSci1i.s:3030   .text:0000000000000f3c .L0 
     /tmp/ccZSci1i.s:3033   .text:0000000000000f44 .L0 
     /tmp/ccZSci1i.s:3036   .text:0000000000000f48 .L0 
GAS LISTING /tmp/ccZSci1i.s 			page 112


     /tmp/ccZSci1i.s:3037   .text:0000000000000f48 .L0 
     /tmp/ccZSci1i.s:3038   .text:0000000000000f48 .L0 
     /tmp/ccZSci1i.s:3041   .text:0000000000000f50 .L0 
     /tmp/ccZSci1i.s:3044   .text:0000000000000f54 .L0 
     /tmp/ccZSci1i.s:3045   .text:0000000000000f54 .L0 
     /tmp/ccZSci1i.s:3046   .text:0000000000000f54 .L0 
     /tmp/ccZSci1i.s:3049   .text:0000000000000f5c .L0 
     /tmp/ccZSci1i.s:3052   .text:0000000000000f60 .L0 
     /tmp/ccZSci1i.s:3053   .text:0000000000000f60 .L0 
     /tmp/ccZSci1i.s:3054   .text:0000000000000f60 .L0 
     /tmp/ccZSci1i.s:3057   .text:0000000000000f68 .L0 
     /tmp/ccZSci1i.s:3060   .text:0000000000000f6c .L0 
     /tmp/ccZSci1i.s:3061   .text:0000000000000f6c .L0 
     /tmp/ccZSci1i.s:3062   .text:0000000000000f6c .L0 
     /tmp/ccZSci1i.s:3065   .text:0000000000000f74 .L0 
     /tmp/ccZSci1i.s:3068   .text:0000000000000f78 .L0 
     /tmp/ccZSci1i.s:3069   .text:0000000000000f78 .L0 
     /tmp/ccZSci1i.s:3070   .text:0000000000000f78 .L0 
     /tmp/ccZSci1i.s:3073   .text:0000000000000f80 .L0 
     /tmp/ccZSci1i.s:3076   .text:0000000000000f84 .L0 
     /tmp/ccZSci1i.s:3077   .text:0000000000000f84 .L0 
     /tmp/ccZSci1i.s:3078   .text:0000000000000f84 .L0 
     /tmp/ccZSci1i.s:3081   .text:0000000000000f8c .L0 
     /tmp/ccZSci1i.s:3084   .text:0000000000000f90 .L0 
     /tmp/ccZSci1i.s:3085   .text:0000000000000f90 .L0 
     /tmp/ccZSci1i.s:3086   .text:0000000000000f90 .L0 
     /tmp/ccZSci1i.s:3089   .text:0000000000000f98 .L0 
     /tmp/ccZSci1i.s:3092   .text:0000000000000f9c .L0 
     /tmp/ccZSci1i.s:3093   .text:0000000000000f9c .L0 
     /tmp/ccZSci1i.s:3094   .text:0000000000000f9c .L0 
     /tmp/ccZSci1i.s:3097   .text:0000000000000fa4 .L0 
     /tmp/ccZSci1i.s:3100   .text:0000000000000fa8 .L0 
     /tmp/ccZSci1i.s:3101   .text:0000000000000fa8 .L0 
       src/riscv.cpp:139    .text:0000000000000fa8 .L0 
     /tmp/ccZSci1i.s:3110   .text:0000000000000fb8 .L0 
     /tmp/ccZSci1i.s:3111   .text:0000000000000fb8 .L0 
     /tmp/ccZSci1i.s:3114   .text:0000000000000fc0 .L0 
     /tmp/ccZSci1i.s:3115   .text:0000000000000fc0 .L0 
     /tmp/ccZSci1i.s:3118   .text:0000000000000fc8 .L0 
     /tmp/ccZSci1i.s:3126   .text:0000000000000fcc .L0 
     /tmp/ccZSci1i.s:3127   .text:0000000000000fcc .L0 
     /tmp/ccZSci1i.s:3128   .text:0000000000000fcc .L0 
  src/../h/riscv.hpp:169    .text:0000000000000fcc .L0 
     /tmp/ccZSci1i.s:3138   .text:0000000000000fd0 .L0 
     /tmp/ccZSci1i.s:3139   .text:0000000000000fd0 .L0 
     /tmp/ccZSci1i.s:3143   .text:0000000000000fd4 .L0 
     /tmp/ccZSci1i.s:3144   .text:0000000000000fd4 .L0 
     /tmp/ccZSci1i.s:3145   .text:0000000000000fd4 .L0 
  src/../h/riscv.hpp:149    .text:0000000000000fd4 .L0 
     /tmp/ccZSci1i.s:3155   .text:0000000000000fd8 .L0 
     /tmp/ccZSci1i.s:3156   .text:0000000000000fd8 .L0 
     /tmp/ccZSci1i.s:3161   .text:0000000000000fdc .L0 
     /tmp/ccZSci1i.s:3162   .text:0000000000000fdc .L0 
     /tmp/ccZSci1i.s:3163   .text:0000000000000fdc .L0 
     /tmp/ccZSci1i.s:3173   .text:0000000000000fe4 .L0 
     /tmp/ccZSci1i.s:3174   .text:0000000000000fe4 .L0 
     /tmp/ccZSci1i.s:3179   .text:0000000000000ff8 .L0 
GAS LISTING /tmp/ccZSci1i.s 			page 113


     /tmp/ccZSci1i.s:3180   .text:0000000000000ff8 .L0 
     /tmp/ccZSci1i.s:3183   .text:0000000000001000 .L0 
     /tmp/ccZSci1i.s:3184   .text:0000000000001000 .L0 
     /tmp/ccZSci1i.s:3190   .text:0000000000001014 .L0 
     /tmp/ccZSci1i.s:3191   .text:0000000000001014 .L0 
     /tmp/ccZSci1i.s:3195   .text:0000000000001024 .L0 
     /tmp/ccZSci1i.s:3199   .text:0000000000001028 .L0 
     /tmp/ccZSci1i.s:3200   .text:0000000000001028 .L0 
     /tmp/ccZSci1i.s:3205   .text:000000000000102c .L0 
  src/../h/riscv.hpp:164    .text:000000000000102c .L0 
     /tmp/ccZSci1i.s:3215   .text:0000000000001030 .L0 
     /tmp/ccZSci1i.s:3216   .text:0000000000001030 .L0 
     /tmp/ccZSci1i.s:3221   .text:0000000000001034 .L0 
  src/../h/riscv.hpp:154    .text:0000000000001034 .L0 
     /tmp/ccZSci1i.s:3228   .text:0000000000001038 .L0 
     /tmp/ccZSci1i.s:3236   .text:000000000000103c .L0 
     /tmp/ccZSci1i.s:3237   .text:000000000000103c .L0 
     /tmp/ccZSci1i.s:3241   .text:0000000000001048 .L0 
     /tmp/ccZSci1i.s:3242   .text:0000000000001048 .L0 
     /tmp/ccZSci1i.s:3243   .text:0000000000001048 .L0 
     /tmp/ccZSci1i.s:3246   .text:0000000000001050 .L0 
     /tmp/ccZSci1i.s:3247   .text:0000000000001050 .L0 
     /tmp/ccZSci1i.s:3259   .text:000000000000105c .L0 
     /tmp/ccZSci1i.s:3260   .text:000000000000105c .L0 
     /tmp/ccZSci1i.s:3261   .text:000000000000105c .L0 
  src/../h/riscv.hpp:169    .text:000000000000105c .L0 
     /tmp/ccZSci1i.s:3271   .text:0000000000001060 .L0 
     /tmp/ccZSci1i.s:3272   .text:0000000000001060 .L0 
     /tmp/ccZSci1i.s:3276   .text:0000000000001064 .L0 
     /tmp/ccZSci1i.s:3277   .text:0000000000001064 .L0 
     /tmp/ccZSci1i.s:3278   .text:0000000000001064 .L0 
  src/../h/riscv.hpp:149    .text:0000000000001064 .L0 
     /tmp/ccZSci1i.s:3288   .text:0000000000001068 .L0 
     /tmp/ccZSci1i.s:3289   .text:0000000000001068 .L0 
     /tmp/ccZSci1i.s:3291   .text:000000000000106c .L0 
     /tmp/ccZSci1i.s:3292   .text:000000000000106c .L0 
     /tmp/ccZSci1i.s:3296   .text:0000000000001078 .L0 
       src/riscv.cpp:194    .text:0000000000001078 .L0 
     /tmp/ccZSci1i.s:3302   .text:000000000000107c .L0 
       src/riscv.cpp:195    .text:000000000000107c .L0 
     /tmp/ccZSci1i.s:3307   .text:0000000000001080 .L0 
       src/riscv.cpp:196    .text:0000000000001080 .L0 
     /tmp/ccZSci1i.s:3315   .text:0000000000001084 .L0 
     /tmp/ccZSci1i.s:3316   .text:0000000000001084 .L0 
     /tmp/ccZSci1i.s:3319   .text:0000000000001088 .L0 
     /tmp/ccZSci1i.s:3322   .text:000000000000108c .L0 
     /tmp/ccZSci1i.s:3323   .text:000000000000108c .L0 
     /tmp/ccZSci1i.s:3324   .text:000000000000108c .L0 
     /tmp/ccZSci1i.s:3325   .text:000000000000108c .L0 
     /tmp/ccZSci1i.s:3329   .text:0000000000001098 .L0 
       src/riscv.cpp:205    .text:0000000000001098 .L0 
     /tmp/ccZSci1i.s:3335   .text:000000000000109c .L0 
       src/riscv.cpp:206    .text:000000000000109c .L0 
     /tmp/ccZSci1i.s:3340   .text:00000000000010a0 .L0 
       src/riscv.cpp:207    .text:00000000000010a0 .L0 
     /tmp/ccZSci1i.s:3348   .text:00000000000010a8 .L0 
     /tmp/ccZSci1i.s:3349   .text:00000000000010a8 .L0 
GAS LISTING /tmp/ccZSci1i.s 			page 114


     /tmp/ccZSci1i.s:3353   .text:00000000000010b4 .L0 
     /tmp/ccZSci1i.s:3359   .text:00000000000010b8 .L0 
     /tmp/ccZSci1i.s:3360   .text:00000000000010b8 .L0 
     /tmp/ccZSci1i.s:3365   .text:00000000000010c8 .L0 
     /tmp/ccZSci1i.s:3366   .text:00000000000010c8 .L0 
     /tmp/ccZSci1i.s:3371   .text:00000000000010cc .L0 
  src/../h/riscv.hpp:164    .text:00000000000010cc .L0 
     /tmp/ccZSci1i.s:3381   .text:00000000000010d0 .L0 
     /tmp/ccZSci1i.s:3382   .text:00000000000010d0 .L0 
     /tmp/ccZSci1i.s:3387   .text:00000000000010d4 .L0 
  src/../h/riscv.hpp:154    .text:00000000000010d4 .L0 
     /tmp/ccZSci1i.s:3394   .text:00000000000010d8 .L0 
     /tmp/ccZSci1i.s:3402   .text:00000000000010dc .L0 
     /tmp/ccZSci1i.s:3403   .text:00000000000010dc .L0 
     /tmp/ccZSci1i.s:3407   .text:00000000000010ec .L0 
     /tmp/ccZSci1i.s:3408   .text:00000000000010ec .L0 
     /tmp/ccZSci1i.s:3419   .text:00000000000010f8 .L0 
     /tmp/ccZSci1i.s:3420   .text:00000000000010f8 .L0 
     /tmp/ccZSci1i.s:3424   .text:0000000000001104 .L0 
     /tmp/ccZSci1i.s:3425   .text:0000000000001104 .L0 
     /tmp/ccZSci1i.s:3428   .text:000000000000110c .L0 
     /tmp/ccZSci1i.s:3429   .text:000000000000110c .L0 
     /tmp/ccZSci1i.s:3435   .text:000000000000111c .L0 
     /tmp/ccZSci1i.s:3436   .text:000000000000111c .L0 
     /tmp/ccZSci1i.s:3437   .text:000000000000111c .L0 
  src/../h/riscv.hpp:149    .text:000000000000111c .L0 
     /tmp/ccZSci1i.s:3446   .text:0000000000001120 .L0 
     /tmp/ccZSci1i.s:3447   .text:0000000000001120 .L0 
     /tmp/ccZSci1i.s:3448   .text:0000000000001120 .L0 
     /tmp/ccZSci1i.s:3454   .text:0000000000001134 .L0 
     /tmp/ccZSci1i.s:3455   .text:0000000000001134 .L0 
     /tmp/ccZSci1i.s:3459   .text:0000000000001144 .L0 
     /tmp/ccZSci1i.s:3460   .text:0000000000001144 .L0 
     /tmp/ccZSci1i.s:3464   .text:0000000000001154 .L0 
     /tmp/ccZSci1i.s:3465   .text:0000000000001154 .L0 
     /tmp/ccZSci1i.s:3473   .text:0000000000001160 .L0 
     /tmp/ccZSci1i.s:3484   .bss:0000000000000000 _ZN5RiscV3PMTE
     /tmp/ccZSci1i.s:3488   .bss:0000000000000008 _ZN5RiscV16userMainFinishedE
     /tmp/ccZSci1i.s:3493   .bss:0000000000000010 _ZN5RiscV10globalTimeE
     /tmp/ccZSci1i.s:3481   .bss:0000000000000000 .LANCHOR0
     /tmp/ccZSci1i.s:3509   .text:0000000000001160 .L0 
     /tmp/ccZSci1i.s:112    .text:0000000000000090 .L0 
     /tmp/ccZSci1i.s:201    .text:0000000000000114 .L0 
     /tmp/ccZSci1i.s:247    .text:000000000000015c .L0 
     /tmp/ccZSci1i.s:264    .text:0000000000000168 .L0 
     /tmp/ccZSci1i.s:298    .text:00000000000001bc .L0 
     /tmp/ccZSci1i.s:308    .text:00000000000001cc .L0 
     /tmp/ccZSci1i.s:347    .text:000000000000022c .L0 
     /tmp/ccZSci1i.s:354    .text:0000000000000244 .L0 
     /tmp/ccZSci1i.s:361    .text:000000000000025c .L0 
     /tmp/ccZSci1i.s:374    .text:0000000000000284 .L0 
     /tmp/ccZSci1i.s:506    .text:00000000000002f8 .L0 
     /tmp/ccZSci1i.s:546    .text:0000000000000334 .L0 
     /tmp/ccZSci1i.s:551    .text:0000000000000340 .L0 
     /tmp/ccZSci1i.s:614    .text:0000000000000390 .L0 
     /tmp/ccZSci1i.s:651    .text:00000000000003bc .L0 
     /tmp/ccZSci1i.s:678    .text:00000000000003d8 .L0 
GAS LISTING /tmp/ccZSci1i.s 			page 115


     /tmp/ccZSci1i.s:685    .text:00000000000003ec .L0 
     /tmp/ccZSci1i.s:709    .text:0000000000000408 .L0 
     /tmp/ccZSci1i.s:778    .text:0000000000000454 .L0 
     /tmp/ccZSci1i.s:781    .text:000000000000045c .L0 
     /tmp/ccZSci1i.s:785    .text:0000000000000468 .L0 
     /tmp/ccZSci1i.s:838    .text:0000000000000484 .L0 
     /tmp/ccZSci1i.s:845    .text:0000000000000498 .L0 
     /tmp/ccZSci1i.s:852    .text:00000000000004a8 .L0 
     /tmp/ccZSci1i.s:859    .text:00000000000004bc .L0 
     /tmp/ccZSci1i.s:861    .text:00000000000004c8 .L0 
     /tmp/ccZSci1i.s:906    .text:0000000000000504 .L0 
     /tmp/ccZSci1i.s:1003   .text:0000000000000574 .L0 
     /tmp/ccZSci1i.s:1488   .text:00000000000007b8 .L0 
     /tmp/ccZSci1i.s:1782   .text:0000000000000914 .L0 
     /tmp/ccZSci1i.s:1920   .text:00000000000009bc .L0 
     /tmp/ccZSci1i.s:1925   .text:00000000000009c8 .L0 
     /tmp/ccZSci1i.s:1992   .text:0000000000000a30 .L0 
     /tmp/ccZSci1i.s:1997   .text:0000000000000a3c .L0 
     /tmp/ccZSci1i.s:2284   .text:0000000000000bd4 .L0 
     /tmp/ccZSci1i.s:2317   .text:0000000000000c24 .L0 
     /tmp/ccZSci1i.s:2322   .text:0000000000000c34 .L0 
     /tmp/ccZSci1i.s:2327   .text:0000000000000c44 .L0 
     /tmp/ccZSci1i.s:2520   .text:0000000000000d14 .L0 
     /tmp/ccZSci1i.s:2588   .text:0000000000000d4c .L0 
     /tmp/ccZSci1i.s:2543   .rodata.str1.8:0000000000000038 .LC3
     /tmp/ccZSci1i.s:2649   .text:0000000000000dac .L0 
     /tmp/ccZSci1i.s:2546   .rodata.str1.8:0000000000000048 .LC4
     /tmp/ccZSci1i.s:2654   .text:0000000000000dbc .L0 
     /tmp/ccZSci1i.s:2534   .rodata.str1.8:0000000000000000 .LC0
     /tmp/ccZSci1i.s:2685   .text:0000000000000dec .L0 
     /tmp/ccZSci1i.s:2537   .rodata.str1.8:0000000000000008 .LC1
     /tmp/ccZSci1i.s:2711   .text:0000000000000e14 .L0 
     /tmp/ccZSci1i.s:2716   .text:0000000000000e24 .L0 
     /tmp/ccZSci1i.s:2549   .rodata.str1.8:0000000000000058 .LC5
     /tmp/ccZSci1i.s:2725   .text:0000000000000e38 .L0 
     /tmp/ccZSci1i.s:2777   .text:0000000000000e68 .L0 
     /tmp/ccZSci1i.s:2808   .rodata:0000000000000000 .L135
     /tmp/ccZSci1i.s:2800   .text:0000000000000e94 .L0 
     /tmp/ccZSci1i.s:2918   .text:0000000000000eb4 .L0 
     /tmp/ccZSci1i.s:3107   .text:0000000000000fac .L0 
     /tmp/ccZSci1i.s:3174   .text:0000000000000fe4 .L0 
     /tmp/ccZSci1i.s:3184   .text:0000000000001000 .L0 
     /tmp/ccZSci1i.s:3191   .text:0000000000001014 .L0 
     /tmp/ccZSci1i.s:3237   .text:000000000000103c .L0 
     /tmp/ccZSci1i.s:3292   .text:000000000000106c .L0 
     /tmp/ccZSci1i.s:3325   .text:000000000000108c .L0 
     /tmp/ccZSci1i.s:3349   .text:00000000000010a8 .L0 
     /tmp/ccZSci1i.s:3404   .text:00000000000010e0 .L0 
     /tmp/ccZSci1i.s:3420   .text:00000000000010f8 .L0 
     /tmp/ccZSci1i.s:3429   .text:000000000000110c .L0 
     /tmp/ccZSci1i.s:3455   .text:0000000000001134 .L0 
     /tmp/ccZSci1i.s:2540   .rodata.str1.8:0000000000000010 .LC2
     /tmp/ccZSci1i.s:3460   .text:0000000000001144 .L0 
     /tmp/ccZSci1i.s:48     .text:000000000000003c .L1
     /tmp/ccZSci1i.s:33     .text:0000000000000020 .L3
     /tmp/ccZSci1i.s:189    .text:0000000000000104 .L12
     /tmp/ccZSci1i.s:210    .text:000000000000012c .L13
GAS LISTING /tmp/ccZSci1i.s 			page 116


     /tmp/ccZSci1i.s:167    .text:00000000000000e0 .L5
     /tmp/ccZSci1i.s:127    .text:00000000000000ac .L7
     /tmp/ccZSci1i.s:146    .text:00000000000000c4 .L9
     /tmp/ccZSci1i.s:324    .text:00000000000001f8 .L15
     /tmp/ccZSci1i.s:306    .text:00000000000001cc .L16
     /tmp/ccZSci1i.s:555    .text:0000000000000354 .L23
     /tmp/ccZSci1i.s:607    .text:0000000000000390 .L26
     /tmp/ccZSci1i.s:600    .text:0000000000000388 .L27
     /tmp/ccZSci1i.s:739    .text:0000000000000434 .L34
     /tmp/ccZSci1i.s:728    .text:0000000000000428 .L30
     /tmp/ccZSci1i.s:849    .text:00000000000004a8 .L36
     /tmp/ccZSci1i.s:830    .text:0000000000000484 .L37
     /tmp/ccZSci1i.s:870    .text:00000000000004e4 .L35
     /tmp/ccZSci1i.s:856    .text:00000000000004bc .L39
     /tmp/ccZSci1i.s:1031   .text:00000000000005a4 .L49
     /tmp/ccZSci1i.s:1008   .text:0000000000000588 .L46
     /tmp/ccZSci1i.s:1122   .text:0000000000000614 .L51
     /tmp/ccZSci1i.s:1183   .text:0000000000000664 .L55
     /tmp/ccZSci1i.s:1138   .text:000000000000062c .L53
     /tmp/ccZSci1i.s:1144   .text:0000000000000634 .L52
     /tmp/ccZSci1i.s:1300   .text:00000000000006e8 .L60
     /tmp/ccZSci1i.s:1354   .text:000000000000072c .L63
     /tmp/ccZSci1i.s:1315   .text:00000000000006fc .L61
     /tmp/ccZSci1i.s:1448   .text:0000000000000788 .L71
     /tmp/ccZSci1i.s:1425   .text:000000000000076c .L68
     /tmp/ccZSci1i.s:1531   .text:00000000000007f8 .L74
     /tmp/ccZSci1i.s:1507   .text:00000000000007dc .L73
     /tmp/ccZSci1i.s:1594   .text:0000000000000844 .L77
     /tmp/ccZSci1i.s:1636   .text:0000000000000878 .L80
     /tmp/ccZSci1i.s:1603   .text:0000000000000850 .L78
     /tmp/ccZSci1i.s:1735   .text:00000000000008dc .L88
     /tmp/ccZSci1i.s:1708   .text:00000000000008bc .L85
     /tmp/ccZSci1i.s:1813   .text:0000000000000948 .L94
     /tmp/ccZSci1i.s:1821   .text:0000000000000954 .L92
     /tmp/ccZSci1i.s:1779   .text:0000000000000914 .L90
     /tmp/ccZSci1i.s:1789   .text:000000000000092c .L91
     /tmp/ccZSci1i.s:1881   .text:0000000000000994 .L99
     /tmp/ccZSci1i.s:1858   .text:0000000000000978 .L96
     /tmp/ccZSci1i.s:2001   .text:0000000000000a50 .L103
     /tmp/ccZSci1i.s:2040   .text:0000000000000a8c .L107
     /tmp/ccZSci1i.s:2055   .text:0000000000000aa8 .L108
     /tmp/ccZSci1i.s:2015   .text:0000000000000a6c .L105
     /tmp/ccZSci1i.s:2163   .text:0000000000000b28 .L114
     /tmp/ccZSci1i.s:2135   .text:0000000000000b04 .L112
     /tmp/ccZSci1i.s:2239   .text:0000000000000b90 .L118
     /tmp/ccZSci1i.s:2211   .text:0000000000000b6c .L116
     /tmp/ccZSci1i.s:2309   .text:0000000000000c20 .L120
     /tmp/ccZSci1i.s:2446   .text:0000000000000cdc .L123
     /tmp/ccZSci1i.s:2416   .text:0000000000000cb8 .L121
     /tmp/ccZSci1i.s:2733   .text:0000000000000e54 .L130
     /tmp/ccZSci1i.s:3119   .text:0000000000000fcc .L160
     /tmp/ccZSci1i.s:3251   .text:000000000000105c .L161
     /tmp/ccZSci1i.s:3412   .text:00000000000010f8 .L162
     /tmp/ccZSci1i.s:2948   .text:0000000000000ed0 .L153
     /tmp/ccZSci1i.s:2915   .text:0000000000000eb4 .L133
     /tmp/ccZSci1i.s:3230   .text:000000000000103c .L163
     /tmp/ccZSci1i.s:3196   .text:0000000000001028 .L154
GAS LISTING /tmp/ccZSci1i.s 			page 117


     /tmp/ccZSci1i.s:3355   .text:00000000000010b8 .L156
     /tmp/ccZSci1i.s:3396   .text:00000000000010dc .L164
     /tmp/ccZSci1i.s:1107   .text:00000000000005ec .LEHB0
     /tmp/ccZSci1i.s:1054   .text:00000000000005b4 .LFB49
     /tmp/ccZSci1i.s:1110   .text:00000000000005f4 .LEHE0
     /tmp/ccZSci1i.s:1118   .text:000000000000060c .LEHB1
     /tmp/ccZSci1i.s:1121   .text:0000000000000614 .LEHE1
     /tmp/ccZSci1i.s:1189   .text:000000000000066c .L56
     /tmp/ccZSci1i.s:1134   .text:0000000000000624 .LEHB2
     /tmp/ccZSci1i.s:1137   .text:000000000000062c .LEHE2
     /tmp/ccZSci1i.s:1197   .text:0000000000000680 .LEHB3
     /tmp/ccZSci1i.s:1200   .text:0000000000000688 .LEHE3
     /tmp/ccZSci1i.s:1285   .text:00000000000006c0 .LEHB4
     /tmp/ccZSci1i.s:1232   .text:0000000000000688 .LFB50
     /tmp/ccZSci1i.s:1288   .text:00000000000006c8 .LEHE4
     /tmp/ccZSci1i.s:1296   .text:00000000000006e0 .LEHB5
     /tmp/ccZSci1i.s:1299   .text:00000000000006e8 .LEHE5
     /tmp/ccZSci1i.s:1360   .text:0000000000000734 .L64
     /tmp/ccZSci1i.s:1368   .text:0000000000000748 .LEHB6
     /tmp/ccZSci1i.s:1371   .text:0000000000000750 .LEHE6
     /tmp/ccZSci1i.s:1582   .text:0000000000000828 .LEHB7
     /tmp/ccZSci1i.s:1545   .text:0000000000000800 .LFB54
     /tmp/ccZSci1i.s:1585   .text:0000000000000830 .LEHE7
     /tmp/ccZSci1i.s:1590   .text:000000000000083c .LEHB8
     /tmp/ccZSci1i.s:1593   .text:0000000000000844 .LEHE8
     /tmp/ccZSci1i.s:1642   .text:0000000000000880 .L81
     /tmp/ccZSci1i.s:1650   .text:0000000000000894 .LEHB9
     /tmp/ccZSci1i.s:1653   .text:000000000000089c .LEHE9
     /tmp/ccZSci1i.s:2277   .text:0000000000000bc8 .LEHB10
     /tmp/ccZSci1i.s:2257   .text:0000000000000bac .LFB68
     /tmp/ccZSci1i.s:2297   .text:0000000000000c00 .LEHE10
     /tmp/ccZSci1i.s:2305   .text:0000000000000c18 .LEHB11
     /tmp/ccZSci1i.s:2308   .text:0000000000000c20 .LEHE11
     /tmp/ccZSci1i.s:2454   .text:0000000000000ce4 .L124
     /tmp/ccZSci1i.s:2411   .text:0000000000000cb0 .LEHB12
     /tmp/ccZSci1i.s:2414   .text:0000000000000cb8 .LEHE12
     /tmp/ccZSci1i.s:2463   .text:0000000000000cf8 .LEHB13
     /tmp/ccZSci1i.s:2466   .text:0000000000000d00 .LEHE13
     /tmp/ccZSci1i.s:2908   .text:0000000000000eac .L152
     /tmp/ccZSci1i.s:2967   .text:0000000000000ee8 .L151
     /tmp/ccZSci1i.s:2978   .text:0000000000000ef4 .L150
     /tmp/ccZSci1i.s:2986   .text:0000000000000f00 .L149
     /tmp/ccZSci1i.s:2994   .text:0000000000000f0c .L148
     /tmp/ccZSci1i.s:3002   .text:0000000000000f18 .L147
     /tmp/ccZSci1i.s:3010   .text:0000000000000f24 .L146
     /tmp/ccZSci1i.s:3018   .text:0000000000000f30 .L145
     /tmp/ccZSci1i.s:3026   .text:0000000000000f3c .L144
     /tmp/ccZSci1i.s:3034   .text:0000000000000f48 .L143
     /tmp/ccZSci1i.s:3042   .text:0000000000000f54 .L142
     /tmp/ccZSci1i.s:3050   .text:0000000000000f60 .L141
     /tmp/ccZSci1i.s:3058   .text:0000000000000f6c .L140
     /tmp/ccZSci1i.s:3066   .text:0000000000000f78 .L139
     /tmp/ccZSci1i.s:3074   .text:0000000000000f84 .L138
     /tmp/ccZSci1i.s:3082   .text:0000000000000f90 .L137
     /tmp/ccZSci1i.s:3090   .text:0000000000000f9c .L136
     /tmp/ccZSci1i.s:3098   .text:0000000000000fa8 .L134
     /tmp/ccZSci1i.s:7764   .debug_abbrev:0000000000000000 .Ldebug_abbrev0
GAS LISTING /tmp/ccZSci1i.s 			page 118


     /tmp/ccZSci1i.s:10815  .debug_str:000000000000149c .LASF341
     /tmp/ccZSci1i.s:10317  .debug_str:0000000000000442 .LASF342
     /tmp/ccZSci1i.s:10739  .debug_str:00000000000011be .LASF343
     /tmp/ccZSci1i.s:5      .text:0000000000000000 .Ltext0
     /tmp/ccZSci1i.s:3496   .text:0000000000001160 .Letext0
     /tmp/ccZSci1i.s:10167  .debug_line:0000000000000000 .Ldebug_line0
     /tmp/ccZSci1i.s:10213  .debug_str:000000000000017a .LASF0
     /tmp/ccZSci1i.s:10811  .debug_str:0000000000001481 .LASF1
     /tmp/ccZSci1i.s:10745  .debug_str:0000000000001221 .LASF2
     /tmp/ccZSci1i.s:10689  .debug_str:0000000000001046 .LASF4
     /tmp/ccZSci1i.s:10707  .debug_str:00000000000010d7 .LASF3
     /tmp/ccZSci1i.s:10361  .debug_str:00000000000005c1 .LASF5
     /tmp/ccZSci1i.s:10427  .debug_str:00000000000007f7 .LASF6
     /tmp/ccZSci1i.s:10617  .debug_str:0000000000000e2b .LASF7
     /tmp/ccZSci1i.s:10255  .debug_str:000000000000029a .LASF8
     /tmp/ccZSci1i.s:10795  .debug_str:00000000000013b4 .LASF9
     /tmp/ccZSci1i.s:10365  .debug_str:00000000000005d3 .LASF10
     /tmp/ccZSci1i.s:10285  .debug_str:0000000000000350 .LASF11
     /tmp/ccZSci1i.s:10459  .debug_str:0000000000000906 .LASF12
     /tmp/ccZSci1i.s:10375  .debug_str:0000000000000628 .LASF13
     /tmp/ccZSci1i.s:10669  .debug_str:0000000000000fc0 .LASF14
     /tmp/ccZSci1i.s:10379  .debug_str:0000000000000644 .LASF15
     /tmp/ccZSci1i.s:10327  .debug_str:00000000000004ba .LASF16
     /tmp/ccZSci1i.s:10267  .debug_str:00000000000002e2 .LASF128
     /tmp/ccZSci1i.s:10433  .debug_str:0000000000000840 .LASF20
     /tmp/ccZSci1i.s:10791  .debug_str:0000000000001395 .LASF17
     /tmp/ccZSci1i.s:10205  .debug_str:0000000000000109 .LASF18
     /tmp/ccZSci1i.s:10397  .debug_str:00000000000006db .LASF19
     /tmp/ccZSci1i.s:10391  .debug_str:000000000000069f .LASF21
     /tmp/ccZSci1i.s:10349  .debug_str:0000000000000579 .LASF22
     /tmp/ccZSci1i.s:10629  .debug_str:0000000000000e91 .LASF23
     /tmp/ccZSci1i.s:10673  .debug_str:0000000000000fdb .LASF24
     /tmp/ccZSci1i.s:10203  .debug_str:00000000000000fe .LASF25
     /tmp/ccZSci1i.s:10713  .debug_str:0000000000001102 .LASF26
     /tmp/ccZSci1i.s:10607  .debug_str:0000000000000df6 .LASF27
     /tmp/ccZSci1i.s:10535  .debug_str:0000000000000b69 .LASF29
     /tmp/ccZSci1i.s:10417  .debug_str:000000000000079b .LASF28
     /tmp/ccZSci1i.s:10797  .debug_str:00000000000013c2 .LASF30
     /tmp/ccZSci1i.s:10253  .debug_str:000000000000027f .LASF31
     /tmp/ccZSci1i.s:10445  .debug_str:000000000000088f .LASF32
     /tmp/ccZSci1i.s:10303  .debug_str:00000000000003cf .LASF33
     /tmp/ccZSci1i.s:10743  .debug_str:00000000000011fb .LASF34
     /tmp/ccZSci1i.s:10551  .debug_str:0000000000000c03 .LASF35
     /tmp/ccZSci1i.s:10585  .debug_str:0000000000000d52 .LASF36
     /tmp/ccZSci1i.s:10207  .debug_str:0000000000000116 .LASF37
     /tmp/ccZSci1i.s:10395  .debug_str:00000000000006af .LASF38
     /tmp/ccZSci1i.s:10411  .debug_str:000000000000076b .LASF39
     /tmp/ccZSci1i.s:10761  .debug_str:000000000000127e .LASF40
     /tmp/ccZSci1i.s:10571  .debug_str:0000000000000ca0 .LASF41
     /tmp/ccZSci1i.s:10325  .debug_str:0000000000000497 .LASF42
     /tmp/ccZSci1i.s:10309  .debug_str:00000000000003fe .LASF43
     /tmp/ccZSci1i.s:10769  .debug_str:00000000000012df .LASF44
     /tmp/ccZSci1i.s:10841  .debug_str:000000000000160e .LASF45
     /tmp/ccZSci1i.s:10575  .debug_str:0000000000000cdb .LASF46
     /tmp/ccZSci1i.s:10239  .debug_str:0000000000000211 .LASF47
     /tmp/ccZSci1i.s:10573  .debug_str:0000000000000cb6 .LASF48
     /tmp/ccZSci1i.s:10767  .debug_str:00000000000012c7 .LASF49
GAS LISTING /tmp/ccZSci1i.s 			page 119


     /tmp/ccZSci1i.s:10401  .debug_str:000000000000070e .LASF50
     /tmp/ccZSci1i.s:10273  .debug_str:0000000000000301 .LASF51
     /tmp/ccZSci1i.s:10475  .debug_str:0000000000000982 .LASF52
     /tmp/ccZSci1i.s:10431  .debug_str:000000000000082d .LASF53
     /tmp/ccZSci1i.s:10499  .debug_str:0000000000000a5b .LASF54
     /tmp/ccZSci1i.s:10183  .debug_str:000000000000005e .LASF55
     /tmp/ccZSci1i.s:10801  .debug_str:0000000000001403 .LASF56
     /tmp/ccZSci1i.s:10839  .debug_str:00000000000015f5 .LASF57
     /tmp/ccZSci1i.s:10371  .debug_str:00000000000005f8 .LASF58
     /tmp/ccZSci1i.s:10387  .debug_str:000000000000067e .LASF59
     /tmp/ccZSci1i.s:10545  .debug_str:0000000000000bbf .LASF60
     /tmp/ccZSci1i.s:10169  .debug_str:0000000000000000 .LASF61
     /tmp/ccZSci1i.s:10697  .debug_str:0000000000001087 .LASF62
     /tmp/ccZSci1i.s:10781  .debug_str:0000000000001360 .LASF63
     /tmp/ccZSci1i.s:10679  .debug_str:0000000000000ff1 .LASF65
     /tmp/ccZSci1i.s:10843  .debug_str:0000000000001624 .LASF67
     /tmp/ccZSci1i.s:10645  .debug_str:0000000000000f16 .LASF69
     /tmp/ccZSci1i.s:10649  .debug_str:0000000000000f3d .LASF64
     /tmp/ccZSci1i.s:10765  .debug_str:00000000000012b2 .LASF66
     /tmp/ccZSci1i.s:10299  .debug_str:00000000000003b8 .LASF68
     /tmp/ccZSci1i.s:10687  .debug_str:0000000000001033 .LASF70
     /tmp/ccZSci1i.s:10355  .debug_str:0000000000000591 .LASF71
     /tmp/ccZSci1i.s:10505  .debug_str:0000000000000a89 .LASF72
     /tmp/ccZSci1i.s:10813  .debug_str:0000000000001494 .LASF73
     /tmp/ccZSci1i.s:10357  .debug_str:0000000000000598 .LASF74
     /tmp/ccZSci1i.s:10659  .debug_str:0000000000000f7e .LASF75
     /tmp/ccZSci1i.s:10665  .debug_str:0000000000000f9d .LASF76
     /tmp/ccZSci1i.s:10373  .debug_str:000000000000061e .LASF77
     /tmp/ccZSci1i.s:10529  .debug_str:0000000000000b44 .LASF78
     /tmp/ccZSci1i.s:10341  .debug_str:000000000000055c .LASF79
     /tmp/ccZSci1i.s:10587  .debug_str:0000000000000d7c .LASF80
     /tmp/ccZSci1i.s:10633  .debug_str:0000000000000eab .LASF81
     /tmp/ccZSci1i.s:10857  .debug_str:000000000000168d .LASF82
     /tmp/ccZSci1i.s:10243  .debug_str:0000000000000232 .LASF83
     /tmp/ccZSci1i.s:10693  .debug_str:0000000000001065 .LASF84
     /tmp/ccZSci1i.s:10757  .debug_str:0000000000001264 .LASF85
     /tmp/ccZSci1i.s:10323  .debug_str:0000000000000484 .LASF86
     /tmp/ccZSci1i.s:10347  .debug_str:0000000000000572 .LASF87
     /tmp/ccZSci1i.s:10381  .debug_str:000000000000065a .LASF88
     /tmp/ccZSci1i.s:10747  .debug_str:000000000000122f .LASF89
     /tmp/ccZSci1i.s:10251  .debug_str:000000000000026c .LASF90
     /tmp/ccZSci1i.s:10423  .debug_str:00000000000007d4 .LASF91
     /tmp/ccZSci1i.s:10853  .debug_str:0000000000001661 .LASF92
     /tmp/ccZSci1i.s:10493  .debug_str:0000000000000a3b .LASF93
     /tmp/ccZSci1i.s:10419  .debug_str:00000000000007b1 .LASF94
     /tmp/ccZSci1i.s:10799  .debug_str:00000000000013e5 .LASF95
     /tmp/ccZSci1i.s:10335  .debug_str:000000000000050b .LASF96
     /tmp/ccZSci1i.s:10619  .debug_str:0000000000000e3e .LASF97
     /tmp/ccZSci1i.s:10597  .debug_str:0000000000000dbc .LASF98
     /tmp/ccZSci1i.s:10591  .debug_str:0000000000000d9b .LASF99
     /tmp/ccZSci1i.s:10513  .debug_str:0000000000000ab8 .LASF100
     /tmp/ccZSci1i.s:10639  .debug_str:0000000000000edc .LASF101
     /tmp/ccZSci1i.s:10425  .debug_str:00000000000007db .LASF102
     /tmp/ccZSci1i.s:10221  .debug_str:0000000000000198 .LASF103
     /tmp/ccZSci1i.s:10485  .debug_str:00000000000009d2 .LASF104
     /tmp/ccZSci1i.s:10869  .debug_str:00000000000016fe .LASF105
     /tmp/ccZSci1i.s:10773  .debug_str:000000000000130c .LASF106
GAS LISTING /tmp/ccZSci1i.s 			page 120


     /tmp/ccZSci1i.s:10859  .debug_str:00000000000016a5 .LASF107
     /tmp/ccZSci1i.s:10727  .debug_str:0000000000001163 .LASF108
     /tmp/ccZSci1i.s:10855  .debug_str:0000000000001674 .LASF109
     /tmp/ccZSci1i.s:10583  .debug_str:0000000000000d2c .LASF110
     /tmp/ccZSci1i.s:10181  .debug_str:0000000000000044 .LASF111
     /tmp/ccZSci1i.s:10399  .debug_str:00000000000006e7 .LASF112
     /tmp/ccZSci1i.s:10321  .debug_str:000000000000046e .LASF113
     /tmp/ccZSci1i.s:10803  .debug_str:0000000000001427 .LASF114
     /tmp/ccZSci1i.s:10237  .debug_str:00000000000001fa .LASF115
     /tmp/ccZSci1i.s:10819  .debug_str:0000000000001573 .LASF116
     /tmp/ccZSci1i.s:10227  .debug_str:00000000000001c3 .LASF117
     /tmp/ccZSci1i.s:10319  .debug_str:0000000000000450 .LASF118
     /tmp/ccZSci1i.s:10363  .debug_str:00000000000005c8 .LASF119
     /tmp/ccZSci1i.s:10691  .debug_str:000000000000104d .LASF120
     /tmp/ccZSci1i.s:10771  .debug_str:0000000000001303 .LASF121
     /tmp/ccZSci1i.s:10621  .debug_str:0000000000000e49 .LASF122
     /tmp/ccZSci1i.s:10463  .debug_str:000000000000091f .LASF123
     /tmp/ccZSci1i.s:10837  .debug_str:00000000000015e2 .LASF124
     /tmp/ccZSci1i.s:10501  .debug_str:0000000000000a7b .LASF125
     /tmp/ccZSci1i.s:10421  .debug_str:00000000000007cf .LASF126
     /tmp/ccZSci1i.s:10721  .debug_str:000000000000113a .LASF127
     /tmp/ccZSci1i.s:10455  .debug_str:00000000000008db .LASF129
     /tmp/ccZSci1i.s:10331  .debug_str:00000000000004e0 .LASF245
     /tmp/ccZSci1i.s:10515  .debug_str:0000000000000aca .LASF130
     /tmp/ccZSci1i.s:10263  .debug_str:00000000000002d1 .LASF131
     /tmp/ccZSci1i.s:10217  .debug_str:000000000000018c .LASF132
     /tmp/ccZSci1i.s:10833  .debug_str:00000000000015ce .LASF133
     /tmp/ccZSci1i.s:10741  .debug_str:00000000000011ef .LASF134
     /tmp/ccZSci1i.s:10201  .debug_str:00000000000000f1 .LASF135
     /tmp/ccZSci1i.s:10821  .debug_str:0000000000001597 .LASF136
     /tmp/ccZSci1i.s:10377  .debug_str:0000000000000638 .LASF137
     /tmp/ccZSci1i.s:10751  .debug_str:0000000000001243 .LASF138
     /tmp/ccZSci1i.s:10777  .debug_str:000000000000133b .LASF140
     /tmp/ccZSci1i.s:10447  .debug_str:00000000000008b7 .LASF139
     /tmp/ccZSci1i.s:10637  .debug_str:0000000000000ebe .LASF141
     /tmp/ccZSci1i.s:10863  .debug_str:00000000000016c3 .LASF142
     /tmp/ccZSci1i.s:10211  .debug_str:000000000000013f .LASF143
     /tmp/ccZSci1i.s:10473  .debug_str:000000000000095f .LASF144
     /tmp/ccZSci1i.s:10831  .debug_str:00000000000015c3 .LASF145
     /tmp/ccZSci1i.s:10287  .debug_str:000000000000035f .LASF146
     /tmp/ccZSci1i.s:10817  .debug_str:000000000000156c .LASF147
     /tmp/ccZSci1i.s:10429  .debug_str:000000000000080a .LASF148
     /tmp/ccZSci1i.s:10715  .debug_str:0000000000001113 .LASF149
     /tmp/ccZSci1i.s:10789  .debug_str:000000000000138f .LASF344
     /tmp/ccZSci1i.s:10469  .debug_str:000000000000093f .LASF150
     /tmp/ccZSci1i.s:10603  .debug_str:0000000000000de8 .LASF155
     /tmp/ccZSci1i.s:10245  .debug_str:000000000000023d .LASF157
     /tmp/ccZSci1i.s:10393  .debug_str:00000000000006aa .LASF151
     /tmp/ccZSci1i.s:10759  .debug_str:000000000000126b .LASF152
     /tmp/ccZSci1i.s:10439  .debug_str:000000000000086b .LASF153
     /tmp/ccZSci1i.s:10195  .debug_str:00000000000000c9 .LASF154
     /tmp/ccZSci1i.s:10223  .debug_str:00000000000001ad .LASF156
     /tmp/ccZSci1i.s:10541  .debug_str:0000000000000ba1 .LASF158
     /tmp/ccZSci1i.s:10359  .debug_str:00000000000005ac .LASF159
     /tmp/ccZSci1i.s:10479  .debug_str:00000000000009b5 .LASF160
     /tmp/ccZSci1i.s:10631  .debug_str:0000000000000e9a .LASF161
     /tmp/ccZSci1i.s:10829  .debug_str:00000000000015bc .LASF345
GAS LISTING /tmp/ccZSci1i.s 			page 121


     /tmp/ccZSci1i.s:10233  .debug_str:00000000000001e8 .LASF162
     /tmp/ccZSci1i.s:10343  .debug_str:0000000000000566 .LASF163
     /tmp/ccZSci1i.s:10657  .debug_str:0000000000000f79 .LASF164
     /tmp/ccZSci1i.s:10269  .debug_str:00000000000002e8 .LASF165
     /tmp/ccZSci1i.s:10345  .debug_str:000000000000056b .LASF166
     /tmp/ccZSci1i.s:10477  .debug_str:00000000000009a2 .LASF167
     /tmp/ccZSci1i.s:10293  .debug_str:00000000000003a3 .LASF168
     /tmp/ccZSci1i.s:10627  .debug_str:0000000000000e73 .LASF169
     /tmp/ccZSci1i.s:10307  .debug_str:00000000000003f7 .LASF170
     /tmp/ccZSci1i.s:10655  .debug_str:0000000000000f64 .LASF171
     /tmp/ccZSci1i.s:10461  .debug_str:0000000000000916 .LASF223
     /tmp/ccZSci1i.s:10595  .debug_str:0000000000000da7 .LASF225
     /tmp/ccZSci1i.s:10861  .debug_str:00000000000016b7 .LASF172
     /tmp/ccZSci1i.s:10313  .debug_str:000000000000042a .LASF173
     /tmp/ccZSci1i.s:10705  .debug_str:00000000000010cb .LASF174
     /tmp/ccZSci1i.s:10731  .debug_str:0000000000001187 .LASF175
     /tmp/ccZSci1i.s:10503  .debug_str:0000000000000a80 .LASF176
     /tmp/ccZSci1i.s:10179  .debug_str:0000000000000039 .LASF177
     /tmp/ccZSci1i.s:10315  .debug_str:0000000000000436 .LASF178
     /tmp/ccZSci1i.s:10749  .debug_str:0000000000001236 .LASF179
     /tmp/ccZSci1i.s:10193  .debug_str:00000000000000bf .LASF180
     /tmp/ccZSci1i.s:10701  .debug_str:00000000000010b7 .LASF181
     /tmp/ccZSci1i.s:10281  .debug_str:0000000000000339 .LASF182
     /tmp/ccZSci1i.s:10197  .debug_str:00000000000000df .LASF183
     /tmp/ccZSci1i.s:10785  .debug_str:0000000000001378 .LASF184
     /tmp/ccZSci1i.s:10683  .debug_str:0000000000001011 .LASF185
     /tmp/ccZSci1i.s:10625  .debug_str:0000000000000e6a .LASF186
     /tmp/ccZSci1i.s:10185  .debug_str:0000000000000075 .LASF187
     /tmp/ccZSci1i.s:10519  .debug_str:0000000000000ad8 .LASF188
     /tmp/ccZSci1i.s:10257  .debug_str:00000000000002aa .LASF189
     /tmp/ccZSci1i.s:10225  .debug_str:00000000000001b9 .LASF190
     /tmp/ccZSci1i.s:10865  .debug_str:00000000000016d2 .LASF191
     /tmp/ccZSci1i.s:10521  .debug_str:0000000000000ae2 .LASF192
     /tmp/ccZSci1i.s:10699  .debug_str:00000000000010a7 .LASF193
     /tmp/ccZSci1i.s:10489  .debug_str:00000000000009fd .LASF194
     /tmp/ccZSci1i.s:10241  .debug_str:0000000000000229 .LASF195
     /tmp/ccZSci1i.s:10643  .debug_str:0000000000000ef8 .LASF196
     /tmp/ccZSci1i.s:10623  .debug_str:0000000000000e5e .LASF197
     /tmp/ccZSci1i.s:10579  .debug_str:0000000000000d05 .LASF198
     /tmp/ccZSci1i.s:10471  .debug_str:0000000000000959 .LASF199
     /tmp/ccZSci1i.s:10527  .debug_str:0000000000000b24 .LASF200
     /tmp/ccZSci1i.s:10517  .debug_str:0000000000000acf .LASF201
     /tmp/ccZSci1i.s:10367  .debug_str:00000000000005e2 .LASF202
     /tmp/ccZSci1i.s:10283  .debug_str:0000000000000344 .LASF203
     /tmp/ccZSci1i.s:10437  .debug_str:000000000000085f .LASF255
     /tmp/ccZSci1i.s:10511  .debug_str:0000000000000ab3 .LASF204
     /tmp/ccZSci1i.s:10177  .debug_str:000000000000002d .LASF205
     /tmp/ccZSci1i.s:10543  .debug_str:0000000000000bba .LASF206
     /tmp/ccZSci1i.s:10867  .debug_str:00000000000016ef .LASF207
     /tmp/ccZSci1i.s:10199  .debug_str:00000000000000ea .LASF208
     /tmp/ccZSci1i.s:10775  .debug_str:000000000000132a .LASF209
     /tmp/ccZSci1i.s:10651  .debug_str:0000000000000f46 .LASF210
     /tmp/ccZSci1i.s:10507  .debug_str:0000000000000a9c .LASF211
     /tmp/ccZSci1i.s:10271  .debug_str:00000000000002f9 .LASF212
     /tmp/ccZSci1i.s:10403  .debug_str:0000000000000733 .LASF213
     /tmp/ccZSci1i.s:10671  .debug_str:0000000000000fcc .LASF214
     /tmp/ccZSci1i.s:10457  .debug_str:00000000000008eb .LASF215
GAS LISTING /tmp/ccZSci1i.s 			page 122


     /tmp/ccZSci1i.s:10553  .debug_str:0000000000000c20 .LASF216
     /tmp/ccZSci1i.s:10231  .debug_str:00000000000001e3 .LASF217
     /tmp/ccZSci1i.s:10809  .debug_str:0000000000001471 .LASF218
     /tmp/ccZSci1i.s:10295  .debug_str:00000000000003a9 .LASF219
     /tmp/ccZSci1i.s:10465  .debug_str:0000000000000926 .LASF220
     /tmp/ccZSci1i.s:10569  .debug_str:0000000000000c93 .LASF221
     /tmp/ccZSci1i.s:10733  .debug_str:0000000000001191 .LASF222
     /tmp/ccZSci1i.s:10563  .debug_str:0000000000000c79 .LASF224
     /tmp/ccZSci1i.s:10641  .debug_str:0000000000000eeb .LASF226
     /tmp/ccZSci1i.s:10443  .debug_str:0000000000000882 .LASF227
     /tmp/ccZSci1i.s:10681  .debug_str:000000000000100b .LASF228
     /tmp/ccZSci1i.s:10675  .debug_str:0000000000000fe4 .LASF229
     /tmp/ccZSci1i.s:10557  .debug_str:0000000000000c5e .LASF230
     /tmp/ccZSci1i.s:10175  .debug_str:0000000000000024 .LASF231
     /tmp/ccZSci1i.s:10709  .debug_str:00000000000010e9 .LASF232
     /tmp/ccZSci1i.s:10783  .debug_str:000000000000136c .LASF233
     /tmp/ccZSci1i.s:10663  .debug_str:0000000000000f94 .LASF234
     /tmp/ccZSci1i.s:10483  .debug_str:00000000000009cd .LASF235
     /tmp/ccZSci1i.s:10509  .debug_str:0000000000000aac .LASF236
     /tmp/ccZSci1i.s:10647  .debug_str:0000000000000f2b .LASF238
     /tmp/ccZSci1i.s:10635  .debug_str:0000000000000eb6 .LASF237
     /tmp/ccZSci1i.s:10793  .debug_str:00000000000013a1 .LASF239
     /tmp/ccZSci1i.s:10667  .debug_str:0000000000000fb1 .LASF240
     /tmp/ccZSci1i.s:10435  .debug_str:000000000000084f .LASF241
     /tmp/ccZSci1i.s:10609  .debug_str:0000000000000e0d .LASF242
     /tmp/ccZSci1i.s:10599  .debug_str:0000000000000dd4 .LASF243
     /tmp/ccZSci1i.s:10601  .debug_str:0000000000000de1 .LASF244
     /tmp/ccZSci1i.s:10605  .debug_str:0000000000000dee .LASF246
     /tmp/ccZSci1i.s:10219  .debug_str:0000000000000191 .LASF247
     /tmp/ccZSci1i.s:10385  .debug_str:0000000000000676 .LASF248
     /tmp/ccZSci1i.s:10497  .debug_str:0000000000000a55 .LASF249
     /tmp/ccZSci1i.s:10487  .debug_str:00000000000009f4 .LASF250
     /tmp/ccZSci1i.s:10677  .debug_str:0000000000000fe9 .LASF251
     /tmp/ccZSci1i.s:10611  .debug_str:0000000000000e17 .LASF252
     /tmp/ccZSci1i.s:10259  .debug_str:00000000000002c7 .LASF253
     /tmp/ccZSci1i.s:10725  .debug_str:0000000000001158 .LASF254
     /tmp/ccZSci1i.s:10173  .debug_str:0000000000000018 .LASF256
     /tmp/ccZSci1i.s:10291  .debug_str:000000000000038c .LASF257
     /tmp/ccZSci1i.s:10389  .debug_str:000000000000069a .LASF258
     /tmp/ccZSci1i.s:10823  .debug_str:00000000000015a4 .LASF259
     /tmp/ccZSci1i.s:10539  .debug_str:0000000000000b95 .LASF260
     /tmp/ccZSci1i.s:10755  .debug_str:000000000000125c .LASF261
     /tmp/ccZSci1i.s:10249  .debug_str:0000000000000259 .LASF262
     /tmp/ccZSci1i.s:10405  .debug_str:0000000000000745 .LASF263
     /tmp/ccZSci1i.s:10235  .debug_str:00000000000001ed .LASF264
     /tmp/ccZSci1i.s:10711  .debug_str:00000000000010f3 .LASF265
     /tmp/ccZSci1i.s:10467  .debug_str:0000000000000936 .LASF266
     /tmp/ccZSci1i.s:10547  .debug_str:0000000000000be8 .LASF267
     /tmp/ccZSci1i.s:10851  .debug_str:000000000000164b .LASF268
     /tmp/ccZSci1i.s:10229  .debug_str:00000000000001d3 .LASF269
     /tmp/ccZSci1i.s:10301  .debug_str:00000000000003bf .LASF270
     /tmp/ccZSci1i.s:10369  .debug_str:00000000000005ee .LASF271
     /tmp/ccZSci1i.s:10247  .debug_str:000000000000024f .LASF272
     /tmp/ccZSci1i.s:10787  .debug_str:0000000000001381 .LASF273
     /tmp/ccZSci1i.s:10555  .debug_str:0000000000000c36 .LASF274
     /tmp/ccZSci1i.s:10189  .debug_str:00000000000000a9 .LASF275
     /tmp/ccZSci1i.s:10653  .debug_str:0000000000000f4c .LASF276
GAS LISTING /tmp/ccZSci1i.s 			page 123


     /tmp/ccZSci1i.s:10549  .debug_str:0000000000000bfb .LASF277
     /tmp/ccZSci1i.s:10453  .debug_str:00000000000008d4 .LASF278
     /tmp/ccZSci1i.s:10261  .debug_str:00000000000002cc .LASF279
     /tmp/ccZSci1i.s:10729  .debug_str:0000000000001182 .LASF280
     /tmp/ccZSci1i.s:10567  .debug_str:0000000000000c8e .LASF281
     /tmp/ccZSci1i.s:10685  .debug_str:000000000000102d .LASF282
     /tmp/ccZSci1i.s:10191  .debug_str:00000000000000b5 .LASF283
     /tmp/ccZSci1i.s:10353  .debug_str:000000000000058c .LASF284
     /tmp/ccZSci1i.s:10537  .debug_str:0000000000000b8d .LASF285
     /tmp/ccZSci1i.s:10209  .debug_str:0000000000000135 .LASF286
     /tmp/ccZSci1i.s:10495  .debug_str:0000000000000a4c .LASF287
     /tmp/ccZSci1i.s:10737  .debug_str:00000000000011b5 .LASF288
     /tmp/ccZSci1i.s:10559  .debug_str:0000000000000c69 .LASF289
     /tmp/ccZSci1i.s:10835  .debug_str:00000000000015da .LASF290
     /tmp/ccZSci1i.s:10847  .debug_str:0000000000001639 .LASF291
     /tmp/ccZSci1i.s:10753  .debug_str:000000000000124b .LASF292
     /tmp/ccZSci1i.s:10827  .debug_str:00000000000015b3 .LASF293
     /tmp/ccZSci1i.s:10289  .debug_str:0000000000000382 .LASF294
     /tmp/ccZSci1i.s:10825  .debug_str:00000000000015a9 .LASF295
     /tmp/ccZSci1i.s:10719  .debug_str:0000000000001130 .LASF296
     /tmp/ccZSci1i.s:10441  .debug_str:0000000000000875 .LASF297
     /tmp/ccZSci1i.s:10735  .debug_str:000000000000119d .LASF346
     /tmp/ccZSci1i.s:10407  .debug_str:0000000000000751 .LASF347
     /tmp/ccZSci1i.s:10779  .debug_str:000000000000135a .LASF298
     /tmp/ccZSci1i.s:10491  .debug_str:0000000000000a21 .LASF299
     /tmp/ccZSci1i.s:10409  .debug_str:0000000000000765 .LASF300
     /tmp/ccZSci1i.s:10723  .debug_str:0000000000001142 .LASF301
     /tmp/ccZSci1i.s:10807  .debug_str:0000000000001455 .LASF302
     /tmp/ccZSci1i.s:10661  .debug_str:0000000000000f86 .LASF303
     /tmp/ccZSci1i.s:10333  .debug_str:00000000000004ec .LASF304
     /tmp/ccZSci1i.s:10763  .debug_str:00000000000012a5 .LASF305
     /tmp/ccZSci1i.s:10339  .debug_str:000000000000053e .LASF306
     /tmp/ccZSci1i.s:10717  .debug_str:0000000000001119 .LASF307
     /tmp/ccZSci1i.s:10525  .debug_str:0000000000000b07 .LASF348
     /tmp/ccZSci1i.s:10305  .debug_str:00000000000003e8 .LASF308
     /tmp/ccZSci1i.s:2497   .text:0000000000000d00 .LFB69
     /tmp/ccZSci1i.s:2530   .text:0000000000000d2c .LFE69
     /tmp/ccZSci1i.s:9138   .debug_loc:0000000000000000 .LLST69
     /tmp/ccZSci1i.s:2468   .text:0000000000000d00 .LFE68
     /tmp/ccZSci1i.s:9151   .debug_loc:0000000000000038 .LLST65
     /tmp/ccZSci1i.s:10481  .debug_str:00000000000009c6 .LASF309
     /tmp/ccZSci1i.s:9170   .debug_loc:0000000000000094 .LLST66
     /tmp/ccZSci1i.s:9181   .debug_loc:00000000000000ca .LLST67
     /tmp/ccZSci1i.s:2314   .text:0000000000000c24 .LBB128
     /tmp/ccZSci1i.s:2417   .text:0000000000000cb8 .LBE128
     /tmp/ccZSci1i.s:10277  .debug_str:0000000000000323 .LASF310
     /tmp/ccZSci1i.s:9198   .debug_loc:0000000000000115 .LLST68
     /tmp/ccZSci1i.s:2413   .text:0000000000000cb8 .LVL202
     /tmp/ccZSci1i.s:2279   .text:0000000000000bd0 .LVL195
     /tmp/ccZSci1i.s:2291   .text:0000000000000bf4 .LVL198
     /tmp/ccZSci1i.s:2296   .text:0000000000000c00 .LVL199
     /tmp/ccZSci1i.s:2307   .text:0000000000000c20 .LVL200
     /tmp/ccZSci1i.s:2429   .text:0000000000000cc4 .LVL203
     /tmp/ccZSci1i.s:2461   .text:0000000000000cf4 .LVL209
     /tmp/ccZSci1i.s:2465   .text:0000000000000d00 .LVL210
     /tmp/ccZSci1i.s:2186   .text:0000000000000b50 .LFB67
     /tmp/ccZSci1i.s:2251   .text:0000000000000bac .LFE67
GAS LISTING /tmp/ccZSci1i.s 			page 124


     /tmp/ccZSci1i.s:10593  .debug_str:0000000000000da1 .LASF311
     /tmp/ccZSci1i.s:9205   .debug_loc:0000000000000138 .LLST62
     /tmp/ccZSci1i.s:9216   .debug_loc:000000000000016e .LLST63
     /tmp/ccZSci1i.s:2224   .text:0000000000000b7c .LVL190
     /tmp/ccZSci1i.s:2245   .text:0000000000000b9c .LVL193
     /tmp/ccZSci1i.s:2248   .text:0000000000000ba8 .LVL194
     /tmp/ccZSci1i.s:2110   .text:0000000000000ae8 .LFB66
     /tmp/ccZSci1i.s:2180   .text:0000000000000b50 .LFE66
     /tmp/ccZSci1i.s:9225   .debug_loc:0000000000000193 .LLST59
     /tmp/ccZSci1i.s:9236   .debug_loc:00000000000001c9 .LLST60
     /tmp/ccZSci1i.s:2148   .text:0000000000000b14 .LVL182
     /tmp/ccZSci1i.s:2169   .text:0000000000000b34 .LVL185
     /tmp/ccZSci1i.s:2174   .text:0000000000000b40 .LVL186
     /tmp/ccZSci1i.s:2177   .text:0000000000000b4c .LVL187
     /tmp/ccZSci1i.s:887    .text:00000000000004f4 .LFB65
     /tmp/ccZSci1i.s:933    .text:000000000000052c .LFE65
     /tmp/ccZSci1i.s:764    .text:0000000000000440 .LFB64
     /tmp/ccZSci1i.s:881    .text:00000000000004f4 .LFE64
     /tmp/ccZSci1i.s:788    .text:0000000000000474 .LBB112
     /tmp/ccZSci1i.s:10131  .debug_ranges:0000000000000000 .Ldebug_ranges0
     /tmp/ccZSci1i.s:797    .text:0000000000000474 .LBB114
     /tmp/ccZSci1i.s:811    .text:000000000000047c .LBE114
     /tmp/ccZSci1i.s:798    .text:0000000000000474 .LBB115
     /tmp/ccZSci1i.s:810    .text:000000000000047c .LBE115
     /tmp/ccZSci1i.s:9245   .debug_loc:00000000000001ee .LLST22
     /tmp/ccZSci1i.s:818    .text:000000000000047c .LBB117
     /tmp/ccZSci1i.s:833    .text:0000000000000484 .LBE117
     /tmp/ccZSci1i.s:819    .text:000000000000047c .LBB118
     /tmp/ccZSci1i.s:832    .text:0000000000000484 .LBE118
     /tmp/ccZSci1i.s:9253   .debug_loc:0000000000000212 .LLST23
     /tmp/ccZSci1i.s:855    .text:00000000000004bc .LVL72
     /tmp/ccZSci1i.s:867    .text:00000000000004e0 .LVL73
     /tmp/ccZSci1i.s:698    .text:00000000000003fc .LFB63
     /tmp/ccZSci1i.s:758    .text:0000000000000440 .LFE63
     /tmp/ccZSci1i.s:717    .text:0000000000000420 .LBB108
     /tmp/ccZSci1i.s:730    .text:0000000000000428 .LBE108
     /tmp/ccZSci1i.s:9262   .debug_loc:0000000000000238 .LLST21
     /tmp/ccZSci1i.s:743    .text:0000000000000434 .LBB110
     /tmp/ccZSci1i.s:756    .text:0000000000000440 .LBE110
     /tmp/ccZSci1i.s:2068   .text:0000000000000ab4 .LFB62
     /tmp/ccZSci1i.s:2104   .text:0000000000000ae8 .LFE62
     /tmp/ccZSci1i.s:9271   .debug_loc:000000000000025e .LLST58
     /tmp/ccZSci1i.s:2082   .text:0000000000000acc .LVL178
     /tmp/ccZSci1i.s:2093   .text:0000000000000ad8 .LVL179
     /tmp/ccZSci1i.s:586    .text:0000000000000374 .LFB61
     /tmp/ccZSci1i.s:692    .text:00000000000003fc .LFE61
     /tmp/ccZSci1i.s:9278   .debug_loc:0000000000000281 .LLST18
     /tmp/ccZSci1i.s:9292   .debug_loc:00000000000002ba .LLST19
     /tmp/ccZSci1i.s:642    .text:00000000000003b0 .LBB105
     /tmp/ccZSci1i.s:688    .text:00000000000003fc .LBE105
     /tmp/ccZSci1i.s:10561  .debug_str:0000000000000c74 .LASF312
     /tmp/ccZSci1i.s:9299   .debug_loc:00000000000002dd .LLST20
     /tmp/ccZSci1i.s:646    .text:00000000000003b8 .LVL63
     /tmp/ccZSci1i.s:606    .text:0000000000000390 .LVL59
     /tmp/ccZSci1i.s:533    .text:0000000000000324 .LFB60
     /tmp/ccZSci1i.s:580    .text:0000000000000374 .LFE60
     /tmp/ccZSci1i.s:9306   .debug_loc:0000000000000300 .LLST17
GAS LISTING /tmp/ccZSci1i.s 			page 125


     /tmp/ccZSci1i.s:569    .text:0000000000000364 .LVL56
     /tmp/ccZSci1i.s:1977   .text:0000000000000a1c .LFB59
     /tmp/ccZSci1i.s:2062   .text:0000000000000ab4 .LFE59
     /tmp/ccZSci1i.s:9313   .debug_loc:0000000000000323 .LLST57
     /tmp/ccZSci1i.s:2005   .text:0000000000000a58 .LVL168
     /tmp/ccZSci1i.s:2026   .text:0000000000000a78 .LVL171
     /tmp/ccZSci1i.s:2047   .text:0000000000000a98 .LVL174
     /tmp/ccZSci1i.s:2052   .text:0000000000000aa4 .LVL175
     /tmp/ccZSci1i.s:2059   .text:0000000000000ab0 .LVL177
     /tmp/ccZSci1i.s:1897   .text:00000000000009a4 .LFB58
     /tmp/ccZSci1i.s:1971   .text:0000000000000a1c .LFE58
     /tmp/ccZSci1i.s:10279  .debug_str:0000000000000333 .LASF313
     /tmp/ccZSci1i.s:9328   .debug_loc:000000000000036c .LLST56
     /tmp/ccZSci1i.s:1936   .text:00000000000009e8 .LVL164
     /tmp/ccZSci1i.s:1944   .text:00000000000009f8 .LVL165
     /tmp/ccZSci1i.s:1957   .text:0000000000000a08 .LVL166
     /tmp/ccZSci1i.s:1832   .text:000000000000095c .LFB57
     /tmp/ccZSci1i.s:1891   .text:00000000000009a4 .LFE57
     /tmp/ccZSci1i.s:10337  .debug_str:0000000000000536 .LASF314
     /tmp/ccZSci1i.s:9335   .debug_loc:000000000000038f .LLST54
     /tmp/ccZSci1i.s:9346   .debug_loc:00000000000003c5 .LLST55
     /tmp/ccZSci1i.s:1869   .text:0000000000000984 .LVL160
     /tmp/ccZSci1i.s:1886   .text:000000000000099c .LVL162
     /tmp/ccZSci1i.s:1755   .text:00000000000008fc .LFB56
     /tmp/ccZSci1i.s:1826   .text:000000000000095c .LFE56
     /tmp/ccZSci1i.s:9363   .debug_loc:0000000000000410 .LLST52
     /tmp/ccZSci1i.s:9374   .debug_loc:0000000000000446 .LLST53
     /tmp/ccZSci1i.s:1801   .text:0000000000000938 .LVL154
     /tmp/ccZSci1i.s:1818   .text:0000000000000950 .LVL156
     /tmp/ccZSci1i.s:1680   .text:000000000000089c .LFB55
     /tmp/ccZSci1i.s:1749   .text:00000000000008fc .LFE55
     /tmp/ccZSci1i.s:9391   .debug_loc:0000000000000491 .LLST49
     /tmp/ccZSci1i.s:9402   .debug_loc:00000000000004c7 .LLST51
     /tmp/ccZSci1i.s:1720   .text:00000000000008c8 .LVL146
     /tmp/ccZSci1i.s:1741   .text:00000000000008e8 .LVL149
     /tmp/ccZSci1i.s:1744   .text:00000000000008f4 .LVL150
     /tmp/ccZSci1i.s:1655   .text:000000000000089c .LFE54
     /tmp/ccZSci1i.s:9419   .debug_loc:0000000000000512 .LLST45
     /tmp/ccZSci1i.s:10523  .debug_str:0000000000000b01 .LASF315
     /tmp/ccZSci1i.s:9430   .debug_loc:0000000000000548 .LLST46
     /tmp/ccZSci1i.s:9441   .debug_loc:000000000000057e .LLST47
     /tmp/ccZSci1i.s:9452   .debug_loc:00000000000005b4 .LLST48
     /tmp/ccZSci1i.s:1584   .text:0000000000000830 .LVL132
     /tmp/ccZSci1i.s:1592   .text:0000000000000844 .LVL133
     /tmp/ccZSci1i.s:1615   .text:000000000000085c .LVL135
     /tmp/ccZSci1i.s:1648   .text:0000000000000890 .LVL142
     /tmp/ccZSci1i.s:1652   .text:000000000000089c .LVL143
     /tmp/ccZSci1i.s:493    .text:00000000000002e8 .LFB53
     /tmp/ccZSci1i.s:527    .text:0000000000000324 .LFE53
     /tmp/ccZSci1i.s:9469   .debug_loc:00000000000005ff .LLST16
     /tmp/ccZSci1i.s:516    .text:0000000000000314 .LVL54
     /tmp/ccZSci1i.s:1472   .text:00000000000007a8 .LFB52
     /tmp/ccZSci1i.s:1539   .text:0000000000000800 .LFE52
     /tmp/ccZSci1i.s:9476   .debug_loc:0000000000000622 .LLST43
     /tmp/ccZSci1i.s:1492   .text:00000000000007c8 .LBB125
     /tmp/ccZSci1i.s:1503   .text:00000000000007d8 .LBE125
     /tmp/ccZSci1i.s:9493   .debug_loc:000000000000066d .LLST44
GAS LISTING /tmp/ccZSci1i.s 			page 126


     /tmp/ccZSci1i.s:1502   .text:00000000000007d8 .LVL126
     /tmp/ccZSci1i.s:1519   .text:00000000000007e8 .LVL128
     /tmp/ccZSci1i.s:1398   .text:0000000000000750 .LFB51
     /tmp/ccZSci1i.s:1466   .text:00000000000007a8 .LFE51
     /tmp/ccZSci1i.s:9500   .debug_loc:0000000000000690 .LLST40
     /tmp/ccZSci1i.s:9511   .debug_loc:00000000000006c6 .LLST42
     /tmp/ccZSci1i.s:1436   .text:0000000000000778 .LVL120
     /tmp/ccZSci1i.s:1457   .text:0000000000000798 .LVL122
     /tmp/ccZSci1i.s:1461   .text:00000000000007a0 .LVL123
     /tmp/ccZSci1i.s:1373   .text:0000000000000750 .LFE50
     /tmp/ccZSci1i.s:10449  .debug_str:00000000000008bd .LASF316
     /tmp/ccZSci1i.s:9528   .debug_loc:0000000000000711 .LLST34
     /tmp/ccZSci1i.s:10415  .debug_str:0000000000000795 .LASF317
     /tmp/ccZSci1i.s:9539   .debug_loc:0000000000000747 .LLST35
     /tmp/ccZSci1i.s:9550   .debug_loc:000000000000077d .LLST36
     /tmp/ccZSci1i.s:10849  .debug_str:0000000000001644 .LASF318
     /tmp/ccZSci1i.s:9561   .debug_loc:00000000000007b3 .LLST37
     /tmp/ccZSci1i.s:9572   .debug_loc:00000000000007e9 .LLST38
     /tmp/ccZSci1i.s:9583   .debug_loc:000000000000081f .LLST39
     /tmp/ccZSci1i.s:1287   .text:00000000000006c8 .LVL104
     /tmp/ccZSci1i.s:1298   .text:00000000000006e8 .LVL105
     /tmp/ccZSci1i.s:1327   .text:0000000000000708 .LVL107
     /tmp/ccZSci1i.s:1366   .text:0000000000000744 .LVL116
     /tmp/ccZSci1i.s:1370   .text:0000000000000750 .LVL117
     /tmp/ccZSci1i.s:1202   .text:0000000000000688 .LFE49
     /tmp/ccZSci1i.s:9600   .debug_loc:000000000000086a .LLST28
     /tmp/ccZSci1i.s:9611   .debug_loc:00000000000008a0 .LLST29
     /tmp/ccZSci1i.s:9622   .debug_loc:00000000000008d6 .LLST30
     /tmp/ccZSci1i.s:9633   .debug_loc:000000000000090c .LLST31
     /tmp/ccZSci1i.s:9644   .debug_loc:0000000000000942 .LLST32
     /tmp/ccZSci1i.s:9655   .debug_loc:0000000000000978 .LLST33
     /tmp/ccZSci1i.s:1109   .text:00000000000005f4 .LVL85
     /tmp/ccZSci1i.s:1120   .text:0000000000000614 .LVL86
     /tmp/ccZSci1i.s:1136   .text:000000000000062c .LVL87
     /tmp/ccZSci1i.s:1156   .text:0000000000000640 .LVL89
     /tmp/ccZSci1i.s:1195   .text:000000000000067c .LVL98
     /tmp/ccZSci1i.s:1199   .text:0000000000000688 .LVL99
     /tmp/ccZSci1i.s:990    .text:0000000000000564 .LFB48
     /tmp/ccZSci1i.s:1048   .text:00000000000005b4 .LFE48
     /tmp/ccZSci1i.s:9672   .debug_loc:00000000000009c3 .LLST26
     /tmp/ccZSci1i.s:9679   .debug_loc:00000000000009e6 .LLST27
     /tmp/ccZSci1i.s:1020   .text:0000000000000594 .LVL78
     /tmp/ccZSci1i.s:1044   .text:00000000000005b0 .LVL80
     /tmp/ccZSci1i.s:939    .text:000000000000052c .LFB47
     /tmp/ccZSci1i.s:984    .text:0000000000000564 .LFE47
     /tmp/ccZSci1i.s:9690   .debug_loc:0000000000000a1c .LLST24
     /tmp/ccZSci1i.s:10581  .debug_str:0000000000000d27 .LASF319
     /tmp/ccZSci1i.s:9697   .debug_loc:0000000000000a3f .LLST25
     /tmp/ccZSci1i.s:962    .text:0000000000000548 .LVL75
     /tmp/ccZSci1i.s:973    .text:0000000000000554 .LVL76
     /tmp/ccZSci1i.s:2556   .text:0000000000000d2c .LFB46
     /tmp/ccZSci1i.s:3474   .text:0000000000001160 .LFE46
     /tmp/ccZSci1i.s:10577  .debug_str:0000000000000cfe .LASF320
     /tmp/ccZSci1i.s:10297  .debug_str:00000000000003ae .LASF321
     /tmp/ccZSci1i.s:9704   .debug_loc:0000000000000a62 .LLST82
     /tmp/ccZSci1i.s:2740   .text:0000000000000e54 .LBB177
     /tmp/ccZSci1i.s:2753   .text:0000000000000e58 .LBE177
GAS LISTING /tmp/ccZSci1i.s 			page 127


     /tmp/ccZSci1i.s:2757   .text:0000000000000e5c .LBB179
     /tmp/ccZSci1i.s:2770   .text:0000000000000e60 .LBE179
     /tmp/ccZSci1i.s:2922   .text:0000000000000ec4 .LBB181
     /tmp/ccZSci1i.s:2933   .text:0000000000000ec8 .LBE181
     /tmp/ccZSci1i.s:9711   .debug_loc:0000000000000a85 .LLST83
     /tmp/ccZSci1i.s:2938   .text:0000000000000ecc .LBB183
     /tmp/ccZSci1i.s:2950   .text:0000000000000ed0 .LBE183
     /tmp/ccZSci1i.s:9718   .debug_loc:0000000000000aa8 .LLST84
     /tmp/ccZSci1i.s:2913   .text:0000000000000eb4 .LVL228
     /tmp/ccZSci1i.s:2975   .text:0000000000000ef0 .LVL234
     /tmp/ccZSci1i.s:2983   .text:0000000000000efc .LVL235
     /tmp/ccZSci1i.s:2991   .text:0000000000000f08 .LVL236
     /tmp/ccZSci1i.s:2999   .text:0000000000000f14 .LVL237
     /tmp/ccZSci1i.s:3007   .text:0000000000000f20 .LVL238
     /tmp/ccZSci1i.s:3015   .text:0000000000000f2c .LVL239
     /tmp/ccZSci1i.s:3023   .text:0000000000000f38 .LVL240
     /tmp/ccZSci1i.s:3031   .text:0000000000000f44 .LVL241
     /tmp/ccZSci1i.s:3039   .text:0000000000000f50 .LVL242
     /tmp/ccZSci1i.s:3047   .text:0000000000000f5c .LVL243
     /tmp/ccZSci1i.s:3055   .text:0000000000000f68 .LVL244
     /tmp/ccZSci1i.s:3063   .text:0000000000000f74 .LVL245
     /tmp/ccZSci1i.s:3071   .text:0000000000000f80 .LVL246
     /tmp/ccZSci1i.s:3079   .text:0000000000000f8c .LVL247
     /tmp/ccZSci1i.s:3087   .text:0000000000000f98 .LVL248
     /tmp/ccZSci1i.s:3095   .text:0000000000000fa4 .LVL249
     /tmp/ccZSci1i.s:3112   .text:0000000000000fc0 .LVL250
     /tmp/ccZSci1i.s:3116   .text:0000000000000fc8 .LVL251
     /tmp/ccZSci1i.s:3122   .text:0000000000000fcc .LBB159
     /tmp/ccZSci1i.s:3253   .text:000000000000105c .LBE159
     /tmp/ccZSci1i.s:3234   .text:000000000000103c .LBB167
     /tmp/ccZSci1i.s:3249   .text:0000000000001058 .LBE167
     /tmp/ccZSci1i.s:9725   .debug_loc:0000000000000acb .LLST79
     /tmp/ccZSci1i.s:3248   .text:0000000000001058 .LVL262
     /tmp/ccZSci1i.s:3124   .text:0000000000000fcc .LBB160
     /tmp/ccZSci1i.s:3137   .text:0000000000000fd0 .LBE160
     /tmp/ccZSci1i.s:3141   .text:0000000000000fd4 .LBB162
     /tmp/ccZSci1i.s:3154   .text:0000000000000fd8 .LBE162
     /tmp/ccZSci1i.s:3159   .text:0000000000000fdc .LBB164
     /tmp/ccZSci1i.s:3171   .text:0000000000000fe4 .LBE164
     /tmp/ccZSci1i.s:9732   .debug_loc:0000000000000aee .LLST78
     /tmp/ccZSci1i.s:3202   .text:000000000000102c .LBB168
     /tmp/ccZSci1i.s:3213   .text:0000000000001030 .LBE168
     /tmp/ccZSci1i.s:9740   .debug_loc:0000000000000b12 .LLST80
     /tmp/ccZSci1i.s:3218   .text:0000000000001034 .LBB170
     /tmp/ccZSci1i.s:3232   .text:000000000000103c .LBE170
     /tmp/ccZSci1i.s:9747   .debug_loc:0000000000000b35 .LLST81
     /tmp/ccZSci1i.s:3181   .text:0000000000001000 .LVL256
     /tmp/ccZSci1i.s:3255   .text:000000000000105c .LBB144
     /tmp/ccZSci1i.s:3415   .text:00000000000010f8 .LBE144
     /tmp/ccZSci1i.s:9754   .debug_loc:0000000000000b58 .LLST73
     /tmp/ccZSci1i.s:9761   .debug_loc:0000000000000b7b .LLST74
     /tmp/ccZSci1i.s:9768   .debug_loc:0000000000000b9e .LLST75
     /tmp/ccZSci1i.s:3409   .text:00000000000010f4 .LVL278
     /tmp/ccZSci1i.s:3257   .text:000000000000105c .LBB145
     /tmp/ccZSci1i.s:3270   .text:0000000000001060 .LBE145
     /tmp/ccZSci1i.s:3274   .text:0000000000001064 .LBB147
     /tmp/ccZSci1i.s:3287   .text:0000000000001068 .LBE147
GAS LISTING /tmp/ccZSci1i.s 			page 128


     /tmp/ccZSci1i.s:3368   .text:00000000000010cc .LBB152
     /tmp/ccZSci1i.s:3379   .text:00000000000010d0 .LBE152
     /tmp/ccZSci1i.s:9779   .debug_loc:0000000000000bd4 .LLST76
     /tmp/ccZSci1i.s:3384   .text:00000000000010d4 .LBB154
     /tmp/ccZSci1i.s:3398   .text:00000000000010dc .LBE154
     /tmp/ccZSci1i.s:9786   .debug_loc:0000000000000bf7 .LLST77
     /tmp/ccZSci1i.s:3361   .text:00000000000010c0 .LVL272
     /tmp/ccZSci1i.s:3363   .text:00000000000010c8 .LVL273
     /tmp/ccZSci1i.s:3417   .text:00000000000010f8 .LBB141
     /tmp/ccZSci1i.s:3467   .text:000000000000115c .LBE141
     /tmp/ccZSci1i.s:9793   .debug_loc:0000000000000c1a .LLST72
     /tmp/ccZSci1i.s:3433   .text:000000000000111c .LBB142
     /tmp/ccZSci1i.s:3445   .text:0000000000001120 .LBE142
     /tmp/ccZSci1i.s:3431   .text:000000000000111c .LVL281
     /tmp/ccZSci1i.s:3452   .text:0000000000001134 .LVL282
     /tmp/ccZSci1i.s:3457   .text:0000000000001144 .LVL283
     /tmp/ccZSci1i.s:3462   .text:0000000000001154 .LVL284
     /tmp/ccZSci1i.s:3466   .text:000000000000115c .LVL285
     /tmp/ccZSci1i.s:2646   .text:0000000000000dac .LBB136
     /tmp/ccZSci1i.s:2734   .text:0000000000000e54 .LBE136
     /tmp/ccZSci1i.s:9800   .debug_loc:0000000000000c3d .LLST70
     /tmp/ccZSci1i.s:9807   .debug_loc:0000000000000c60 .LLST71
     /tmp/ccZSci1i.s:2658   .text:0000000000000dcc .LBB137
     /tmp/ccZSci1i.s:2674   .text:0000000000000dd8 .LBE137
     /tmp/ccZSci1i.s:2689   .text:0000000000000dfc .LBB139
     /tmp/ccZSci1i.s:2701   .text:0000000000000e00 .LBE139
     /tmp/ccZSci1i.s:2651   .text:0000000000000dbc .LVL213
     /tmp/ccZSci1i.s:2656   .text:0000000000000dcc .LVL214
     /tmp/ccZSci1i.s:2682   .text:0000000000000dec .LVL217
     /tmp/ccZSci1i.s:2687   .text:0000000000000dfc .LVL218
     /tmp/ccZSci1i.s:2708   .text:0000000000000e14 .LVL219
     /tmp/ccZSci1i.s:2713   .text:0000000000000e24 .LVL220
     /tmp/ccZSci1i.s:2727   .text:0000000000000e48 .LVL222
     /tmp/ccZSci1i.s:2731   .text:0000000000000e50 .LVL223
     /tmp/ccZSci1i.s:2568   .text:0000000000000d3c .LBB130
     /tmp/ccZSci1i.s:2583   .text:0000000000000d48 .LBE130
     /tmp/ccZSci1i.s:2956   .text:0000000000000ed8 .LVL233
     /tmp/ccZSci1i.s:458    .text:00000000000002c8 .LFB45
     /tmp/ccZSci1i.s:487    .text:00000000000002e8 .LFE45
     /tmp/ccZSci1i.s:232    .text:0000000000000148 .LFB44
     /tmp/ccZSci1i.s:452    .text:00000000000002c8 .LFE44
     /tmp/ccZSci1i.s:10171  .debug_str:0000000000000013 .LASF322
     /tmp/ccZSci1i.s:9814   .debug_loc:0000000000000c83 .LLST11
     /tmp/ccZSci1i.s:301    .text:00000000000001c4 .LBB93
     /tmp/ccZSci1i.s:325    .text:00000000000001f8 .LBE93
     /tmp/ccZSci1i.s:9845   .debug_loc:0000000000000cf3 .LLST12
     /tmp/ccZSci1i.s:316    .text:00000000000001ec .LVL36
     /tmp/ccZSci1i.s:249    .text:0000000000000164 .LBB91
     /tmp/ccZSci1i.s:261    .text:0000000000000168 .LBE91
     /tmp/ccZSci1i.s:391    .text:00000000000002a0 .LBB94
     /tmp/ccZSci1i.s:392    .text:00000000000002a0 .LBB95
     /tmp/ccZSci1i.s:405    .text:00000000000002a8 .LBE95
     /tmp/ccZSci1i.s:9859   .debug_loc:0000000000000d2c .LLST13
     /tmp/ccZSci1i.s:409    .text:00000000000002a8 .LBB97
     /tmp/ccZSci1i.s:422    .text:00000000000002b0 .LBE97
     /tmp/ccZSci1i.s:9867   .debug_loc:0000000000000d50 .LLST14
     /tmp/ccZSci1i.s:426    .text:00000000000002b0 .LBB99
GAS LISTING /tmp/ccZSci1i.s 			page 129


     /tmp/ccZSci1i.s:437    .text:00000000000002b4 .LBE99
     /tmp/ccZSci1i.s:9876   .debug_loc:0000000000000d76 .LLST15
     /tmp/ccZSci1i.s:272    .text:000000000000018c .LVL27
     /tmp/ccZSci1i.s:276    .text:0000000000000194 .LVL28
     /tmp/ccZSci1i.s:280    .text:000000000000019c .LVL29
     /tmp/ccZSci1i.s:284    .text:00000000000001a4 .LVL30
     /tmp/ccZSci1i.s:288    .text:00000000000001ac .LVL31
     /tmp/ccZSci1i.s:292    .text:00000000000001b4 .LVL32
     /tmp/ccZSci1i.s:296    .text:00000000000001bc .LVL33
     /tmp/ccZSci1i.s:331    .text:0000000000000208 .LVL38
     /tmp/ccZSci1i.s:337    .text:0000000000000218 .LVL39
     /tmp/ccZSci1i.s:343    .text:0000000000000228 .LVL40
     /tmp/ccZSci1i.s:350    .text:0000000000000240 .LVL41
     /tmp/ccZSci1i.s:357    .text:0000000000000258 .LVL42
     /tmp/ccZSci1i.s:364    .text:0000000000000270 .LVL43
     /tmp/ccZSci1i.s:371    .text:0000000000000284 .LVL44
     /tmp/ccZSci1i.s:66     .text:000000000000004c .LFB43
     /tmp/ccZSci1i.s:226    .text:0000000000000148 .LFE43
     /tmp/ccZSci1i.s:9884   .debug_loc:0000000000000d9a .LLST1
     /tmp/ccZSci1i.s:10531  .debug_str:0000000000000b5a .LASF323
     /tmp/ccZSci1i.s:9898   .debug_loc:0000000000000dd3 .LLST2
     /tmp/ccZSci1i.s:10695  .debug_str:000000000000107d .LASF324
     /tmp/ccZSci1i.s:9924   .debug_loc:0000000000000e45 .LLST3
     /tmp/ccZSci1i.s:10351  .debug_str:0000000000000582 .LASF325
     /tmp/ccZSci1i.s:9954   .debug_loc:0000000000000e9f .LLST4
     /tmp/ccZSci1i.s:10703  .debug_str:00000000000010c1 .LASF326
     /tmp/ccZSci1i.s:9989   .debug_loc:0000000000000f0d .LLST5
     /tmp/ccZSci1i.s:10589  .debug_str:0000000000000d92 .LASF327
     /tmp/ccZSci1i.s:10021  .debug_loc:0000000000000f78 .LLST6
     /tmp/ccZSci1i.s:10215  .debug_str:0000000000000187 .LASF328
     /tmp/ccZSci1i.s:10037  .debug_loc:0000000000000fc2 .LLST7
     /tmp/ccZSci1i.s:10613  .debug_str:0000000000000e1c .LASF329
     /tmp/ccZSci1i.s:10058  .debug_loc:0000000000001020 .LLST8
     /tmp/ccZSci1i.s:10565  .debug_str:0000000000000c89 .LASF330
     /tmp/ccZSci1i.s:10074  .debug_loc:000000000000106a .LLST9
     /tmp/ccZSci1i.s:10383  .debug_str:000000000000066d .LASF331
     /tmp/ccZSci1i.s:10095  .debug_loc:00000000000010c8 .LLST10
     /tmp/ccZSci1i.s:194    .text:000000000000010c .LVL22
     /tmp/ccZSci1i.s:214    .text:0000000000000134 .LVL24
     /tmp/ccZSci1i.s:10     .text:0000000000000000 .LFB42
     /tmp/ccZSci1i.s:60     .text:000000000000004c .LFE42
     /tmp/ccZSci1i.s:29     .text:000000000000001c .LBB90
     /tmp/ccZSci1i.s:49     .text:000000000000003c .LBE90
     /tmp/ccZSci1i.s:10102  .debug_loc:00000000000010eb .LLST0
     /tmp/ccZSci1i.s:26     .text:000000000000001c .LVL0
     /tmp/ccZSci1i.s:10615  .debug_str:0000000000000e25 .LASF332
     /tmp/ccZSci1i.s:10265  .debug_str:00000000000002d6 .LASF333
     /tmp/ccZSci1i.s:10275  .debug_str:0000000000000314 .LASF349
     /tmp/ccZSci1i.s:10187  .debug_str:0000000000000091 .LASF350
     /tmp/ccZSci1i.s:10845  .debug_str:000000000000162d .LASF334
     /tmp/ccZSci1i.s:10311  .debug_str:0000000000000415 .LASF335
     /tmp/ccZSci1i.s:10329  .debug_str:00000000000004d0 .LASF336
     /tmp/ccZSci1i.s:10805  .debug_str:000000000000144a .LASF337
     /tmp/ccZSci1i.s:10451  .debug_str:00000000000008c6 .LASF338
     /tmp/ccZSci1i.s:10413  .debug_str:0000000000000785 .LASF339
     /tmp/ccZSci1i.s:10533  .debug_str:0000000000000b5f .LASF340
     /tmp/ccZSci1i.s:2513   .text:0000000000000d10 .LVL211
GAS LISTING /tmp/ccZSci1i.s 			page 130


     /tmp/ccZSci1i.s:2518   .text:0000000000000d14 .LVL212
     /tmp/ccZSci1i.s:2281   .text:0000000000000bd4 .LVL196
     /tmp/ccZSci1i.s:2289   .text:0000000000000bec .LVL197
     /tmp/ccZSci1i.s:2345   .text:0000000000000c70 .LVL201
     /tmp/ccZSci1i.s:2445   .text:0000000000000cdc .LVL205
     /tmp/ccZSci1i.s:2456   .text:0000000000000ce8 .LVL208
     /tmp/ccZSci1i.s:2451   .text:0000000000000ce0 .LVL206
     /tmp/ccZSci1i.s:2439   .text:0000000000000cd0 .LVL204
     /tmp/ccZSci1i.s:2453   .text:0000000000000ce4 .LVL207
     /tmp/ccZSci1i.s:2206   .text:0000000000000b68 .LVL188
     /tmp/ccZSci1i.s:2234   .text:0000000000000b88 .LVL191
     /tmp/ccZSci1i.s:2238   .text:0000000000000b90 .LVL192
     /tmp/ccZSci1i.s:2212   .text:0000000000000b6c .LVL189
     /tmp/ccZSci1i.s:2130   .text:0000000000000b00 .LVL180
     /tmp/ccZSci1i.s:2158   .text:0000000000000b20 .LVL183
     /tmp/ccZSci1i.s:2162   .text:0000000000000b28 .LVL184
     /tmp/ccZSci1i.s:2136   .text:0000000000000b04 .LVL181
     /tmp/ccZSci1i.s:794    .text:0000000000000474 .LVL69
     /tmp/ccZSci1i.s:807    .text:000000000000047c .LVL70
     /tmp/ccZSci1i.s:828    .text:0000000000000484 .LVL71
     /tmp/ccZSci1i.s:716    .text:0000000000000420 .LVL66
     /tmp/ccZSci1i.s:726    .text:0000000000000428 .LVL67
     /tmp/ccZSci1i.s:589    .text:0000000000000374 .LVL57
     /tmp/ccZSci1i.s:599    .text:0000000000000388 .LVL58
     /tmp/ccZSci1i.s:616    .text:000000000000039c .LVL60
     /tmp/ccZSci1i.s:639    .text:00000000000003ac .LVL62
     /tmp/ccZSci1i.s:653    .text:00000000000003c8 .LVL64
     /tmp/ccZSci1i.s:664    .text:00000000000003d0 .LVL65
     /tmp/ccZSci1i.s:563    .text:0000000000000358 .LVL55
     /tmp/ccZSci1i.s:2007   .text:0000000000000a5c .LVL169
     /tmp/ccZSci1i.s:2014   .text:0000000000000a6c .LVL170
     /tmp/ccZSci1i.s:2039   .text:0000000000000a8c .LVL172
     /tmp/ccZSci1i.s:2045   .text:0000000000000a90 .LVL173
     /tmp/ccZSci1i.s:2054   .text:0000000000000aa8 .LVL176
     /tmp/ccZSci1i.s:1922   .text:00000000000009c8 .LVL163
     /tmp/ccZSci1i.s:1966   .text:0000000000000a14 .LVL167
     /tmp/ccZSci1i.s:1850   .text:0000000000000970 .LVL158
     /tmp/ccZSci1i.s:1857   .text:0000000000000978 .LVL159
     /tmp/ccZSci1i.s:1880   .text:0000000000000994 .LVL161
     /tmp/ccZSci1i.s:1773   .text:0000000000000910 .LVL151
     /tmp/ccZSci1i.s:1778   .text:0000000000000914 .LVL152
     /tmp/ccZSci1i.s:1812   .text:0000000000000948 .LVL155
     /tmp/ccZSci1i.s:1790   .text:000000000000092c .LVL153
     /tmp/ccZSci1i.s:1820   .text:0000000000000954 .LVL157
     /tmp/ccZSci1i.s:1700   .text:00000000000008b4 .LVL144
     /tmp/ccZSci1i.s:1730   .text:00000000000008d4 .LVL147
     /tmp/ccZSci1i.s:1734   .text:00000000000008dc .LVL148
     /tmp/ccZSci1i.s:1709   .text:00000000000008bc .LVL145
     /tmp/ccZSci1i.s:1571   .text:0000000000000820 .LVL130
     /tmp/ccZSci1i.s:1628   .text:000000000000086c .LVL137
     /tmp/ccZSci1i.s:1635   .text:0000000000000878 .LVL139
     /tmp/ccZSci1i.s:1644   .text:0000000000000884 .LVL141
     /tmp/ccZSci1i.s:1577   .text:0000000000000824 .LVL131
     /tmp/ccZSci1i.s:1631   .text:0000000000000870 .LVL138
     /tmp/ccZSci1i.s:1625   .text:0000000000000868 .LVL136
     /tmp/ccZSci1i.s:1641   .text:0000000000000880 .LVL140
     /tmp/ccZSci1i.s:1604   .text:0000000000000850 .LVL134
GAS LISTING /tmp/ccZSci1i.s 			page 131


     /tmp/ccZSci1i.s:508    .text:0000000000000304 .LVL53
     /tmp/ccZSci1i.s:1484   .text:00000000000007b8 .LVL124
     /tmp/ccZSci1i.s:1508   .text:00000000000007dc .LVL127
     /tmp/ccZSci1i.s:1530   .text:00000000000007f8 .LVL129
     /tmp/ccZSci1i.s:1494   .text:00000000000007c8 .LVL125
     /tmp/ccZSci1i.s:1416   .text:0000000000000764 .LVL118
     /tmp/ccZSci1i.s:1424   .text:000000000000076c .LVL119
     /tmp/ccZSci1i.s:1447   .text:0000000000000788 .LVL121
     /tmp/ccZSci1i.s:1274   .text:00000000000006b8 .LVL102
     /tmp/ccZSci1i.s:1343   .text:000000000000071c .LVL110
     /tmp/ccZSci1i.s:1353   .text:000000000000072c .LVL113
     /tmp/ccZSci1i.s:1280   .text:00000000000006bc .LVL103
     /tmp/ccZSci1i.s:1340   .text:0000000000000718 .LVL109
     /tmp/ccZSci1i.s:1362   .text:0000000000000738 .LVL115
     /tmp/ccZSci1i.s:1268   .text:00000000000006b4 .LVL101
     /tmp/ccZSci1i.s:1346   .text:0000000000000720 .LVL111
     /tmp/ccZSci1i.s:1262   .text:00000000000006b0 .LVL100
     /tmp/ccZSci1i.s:1349   .text:0000000000000724 .LVL112
     /tmp/ccZSci1i.s:1337   .text:0000000000000714 .LVL108
     /tmp/ccZSci1i.s:1359   .text:0000000000000734 .LVL114
     /tmp/ccZSci1i.s:1316   .text:00000000000006fc .LVL106
     /tmp/ccZSci1i.s:1096   .text:00000000000005e4 .LVL83
     /tmp/ccZSci1i.s:1172   .text:0000000000000654 .LVL92
     /tmp/ccZSci1i.s:1182   .text:0000000000000664 .LVL95
     /tmp/ccZSci1i.s:1102   .text:00000000000005e8 .LVL84
     /tmp/ccZSci1i.s:1175   .text:0000000000000658 .LVL93
     /tmp/ccZSci1i.s:1090   .text:00000000000005e0 .LVL82
     /tmp/ccZSci1i.s:1169   .text:0000000000000650 .LVL91
     /tmp/ccZSci1i.s:1191   .text:0000000000000670 .LVL97
     /tmp/ccZSci1i.s:1084   .text:00000000000005dc .LVL81
     /tmp/ccZSci1i.s:1178   .text:000000000000065c .LVL94
     /tmp/ccZSci1i.s:1166   .text:000000000000064c .LVL90
     /tmp/ccZSci1i.s:1188   .text:000000000000066c .LVL96
     /tmp/ccZSci1i.s:1145   .text:0000000000000634 .LVL88
     /tmp/ccZSci1i.s:1039   .text:00000000000005a8 .LVL79
     /tmp/ccZSci1i.s:1009   .text:0000000000000588 .LVL77
     /tmp/ccZSci1i.s:957    .text:0000000000000540 .LVL74
     /tmp/ccZSci1i.s:2793   .text:0000000000000e88 .LVL226
     /tmp/ccZSci1i.s:2799   .text:0000000000000e94 .LVL227
     /tmp/ccZSci1i.s:2921   .text:0000000000000ec4 .LVL229
     /tmp/ccZSci1i.s:2930   .text:0000000000000ec8 .LVL230
     /tmp/ccZSci1i.s:2937   .text:0000000000000ecc .LVL231
     /tmp/ccZSci1i.s:2946   .text:0000000000000ed0 .LVL232
     /tmp/ccZSci1i.s:3240   .text:0000000000001048 .LVL261
     /tmp/ccZSci1i.s:3158   .text:0000000000000fdc .LVL254
     /tmp/ccZSci1i.s:3168   .text:0000000000000fe4 .LVL255
     /tmp/ccZSci1i.s:3201   .text:000000000000102c .LVL257
     /tmp/ccZSci1i.s:3210   .text:0000000000001030 .LVL258
     /tmp/ccZSci1i.s:3217   .text:0000000000001034 .LVL259
     /tmp/ccZSci1i.s:3229   .text:000000000000103c .LVL260
     /tmp/ccZSci1i.s:3294   .text:0000000000001078 .LVL265
     /tmp/ccZSci1i.s:3317   .text:0000000000001088 .LVL267
     /tmp/ccZSci1i.s:3327   .text:0000000000001098 .LVL268
     /tmp/ccZSci1i.s:3350   .text:00000000000010b0 .LVL270
     /tmp/ccZSci1i.s:3346   .text:00000000000010a8 .LVL269
     /tmp/ccZSci1i.s:3354   .text:00000000000010b8 .LVL271
     /tmp/ccZSci1i.s:3395   .text:00000000000010dc .LVL277
GAS LISTING /tmp/ccZSci1i.s 			page 132


     /tmp/ccZSci1i.s:3367   .text:00000000000010cc .LVL274
     /tmp/ccZSci1i.s:3376   .text:00000000000010d0 .LVL275
     /tmp/ccZSci1i.s:3383   .text:00000000000010d4 .LVL276
     /tmp/ccZSci1i.s:3422   .text:0000000000001104 .LVL280
     /tmp/ccZSci1i.s:2672   .text:0000000000000dd8 .LVL215
     /tmp/ccZSci1i.s:2680   .text:0000000000000de4 .LVL216
     /tmp/ccZSci1i.s:2718   .text:0000000000000e30 .LVL221
     /tmp/ccZSci1i.s:380    .text:000000000000029c .LVL45
     /tmp/ccZSci1i.s:397    .text:00000000000002a4 .LVL47
     /tmp/ccZSci1i.s:414    .text:00000000000002ac .LVL49
     /tmp/ccZSci1i.s:300    .text:00000000000001c4 .LVL34
     /tmp/ccZSci1i.s:305    .text:00000000000001cc .LVL35
     /tmp/ccZSci1i.s:447    .text:00000000000002c0 .LVL52
     /tmp/ccZSci1i.s:389    .text:00000000000002a0 .LVL46
     /tmp/ccZSci1i.s:402    .text:00000000000002a8 .LVL48
     /tmp/ccZSci1i.s:419    .text:00000000000002b0 .LVL50
     /tmp/ccZSci1i.s:434    .text:00000000000002b4 .LVL51
     /tmp/ccZSci1i.s:69     .text:000000000000004c .LVL4
     /tmp/ccZSci1i.s:116    .text:00000000000000a0 .LVL9
     /tmp/ccZSci1i.s:126    .text:00000000000000ac .LVL11
     /tmp/ccZSci1i.s:164    .text:00000000000000dc .LVL20
     /tmp/ccZSci1i.s:188    .text:0000000000000104 .LVL21
     /tmp/ccZSci1i.s:94     .text:000000000000007c .LVL5
     /tmp/ccZSci1i.s:111    .text:0000000000000090 .LVL8
     /tmp/ccZSci1i.s:101    .text:0000000000000084 .LVL6
     /tmp/ccZSci1i.s:131    .text:00000000000000b0 .LVL12
     /tmp/ccZSci1i.s:209    .text:000000000000012c .LVL23
     /tmp/ccZSci1i.s:107    .text:000000000000008c .LVL7
     /tmp/ccZSci1i.s:150    .text:00000000000000c8 .LVL16
     /tmp/ccZSci1i.s:161    .text:00000000000000d8 .LVL19
     /tmp/ccZSci1i.s:123    .text:00000000000000a8 .LVL10
     /tmp/ccZSci1i.s:135    .text:00000000000000b8 .LVL13
     /tmp/ccZSci1i.s:142    .text:00000000000000c0 .LVL14
     /tmp/ccZSci1i.s:145    .text:00000000000000c4 .LVL15
     /tmp/ccZSci1i.s:152    .text:00000000000000cc .LVL17
     /tmp/ccZSci1i.s:155    .text:00000000000000d0 .LVL18
     /tmp/ccZSci1i.s:32     .text:0000000000000020 .LVL1
     /tmp/ccZSci1i.s:45     .text:0000000000000038 .LVL2
     /tmp/ccZSci1i.s:47     .text:000000000000003c .LVL3
     /tmp/ccZSci1i.s:3510   .debug_info:0000000000000000 .Ldebug_info0
     /tmp/ccZSci1i.s:406    .text:00000000000002a8 .LBE94
     /tmp/ccZSci1i.s:408    .text:00000000000002a8 .LBB101
     /tmp/ccZSci1i.s:423    .text:00000000000002b0 .LBE101
     /tmp/ccZSci1i.s:425    .text:00000000000002b0 .LBB102
     /tmp/ccZSci1i.s:438    .text:00000000000002b4 .LBE102
     /tmp/ccZSci1i.s:601    .text:0000000000000388 .LBB103
     /tmp/ccZSci1i.s:609    .text:0000000000000390 .LBE103
     /tmp/ccZSci1i.s:611    .text:0000000000000390 .LBB107
     /tmp/ccZSci1i.s:690    .text:00000000000003fc .LBE107
     /tmp/ccZSci1i.s:792    .text:0000000000000474 .LBE112
     /tmp/ccZSci1i.s:795    .text:0000000000000474 .LBB122
     /tmp/ccZSci1i.s:814    .text:000000000000047c .LBE122
     /tmp/ccZSci1i.s:816    .text:000000000000047c .LBB123
     /tmp/ccZSci1i.s:835    .text:0000000000000484 .LBE123
     /tmp/ccZSci1i.s:3320   .text:000000000000108c .LBB150
     /tmp/ccZSci1i.s:3356   .text:00000000000010b8 .LBE150
     /tmp/ccZSci1i.s:3400   .text:00000000000010dc .LBB151
GAS LISTING /tmp/ccZSci1i.s 			page 133


     /tmp/ccZSci1i.s:3413   .text:00000000000010f8 .LBE151
     /tmp/ccZSci1i.s:2738   .text:0000000000000e54 .LBB176
     /tmp/ccZSci1i.s:2951   .text:0000000000000ed0 .LBE176
     /tmp/ccZSci1i.s:2970   .text:0000000000000ee8 .LBB185
     /tmp/ccZSci1i.s:3120   .text:0000000000000fcc .LBE185
     /tmp/ccZSci1i.s:1205   .gcc_except_table:0000000000000000 .LLSDA49
     /tmp/ccZSci1i.s:1375   .gcc_except_table:0000000000000038 .LLSDA50
     /tmp/ccZSci1i.s:1657   .gcc_except_table:0000000000000063 .LLSDA54
     /tmp/ccZSci1i.s:2470   .gcc_except_table:000000000000008e .LLSDA68

UNDEFINED SYMBOLS
_ZN5Buddy5allocEm
_ZN5RiscV14supervisorTrapEv
HEAP_START_ADDR
_Z9kmem_initPvi
_ZN15MemoryAllocator10initializeEv
_ZN9Scheduler10initializeEv
_ZN3TCB10initializeEv
_ZN3SCB10initializeEv
_ZN11ConsoleUtil10initializeEv
HEAP_END_ADDR
CONSOLE_RX_DATA
CONSOLE_TX_DATA
CONSOLE_STATUS
_ZN3TCB7runningE
_ZN3TCB8dispatchEv
_ZN11ConsoleUtil11pendingPutcE
_ZN11ConsoleUtil9putOutputEc
_Z15thread_dispatchv
_ZN11ConsoleUtil15putcUtilSyscallEv
_ZN11ConsoleUtil11pendingGetcE
_ZN9Scheduler9readyHeadE
_ZN3TCB10putcThreadE
_ZN9Scheduler3putEP3TCB
_ZN11ConsoleUtil10outputHeadE
_ZN11ConsoleUtil10outputTailE
_ZN15MemoryAllocator7kmallocEm
_ZN15MemoryAllocator11initializedE
_ZN15MemoryAllocator5kfreeEPv
_ZN3TCBnwEm
_ZN3TCBC1EPFvPvES0_Pmm
_ZN3TCBdlEPv
_Unwind_Resume
__gxx_personality_v0
_ZN3SCBnwEm
_ZN3SCBC1Em
_ZN3SCBdlEPv
_ZN3SCBD1Ev
_ZN3SCB4waitEv
_ZN3SCB6signalEv
_ZN9Scheduler5sleepEP3TCB
_ZN11ConsoleUtil8getInputEv
_ZN11ConsoleUtil9getOutputEv
_Z5kfreePKv
_ZN3TCBD1Ev
_Z7kmallocm
_ZN15MemoryAllocator6memcpyEPvS0_m
GAS LISTING /tmp/ccZSci1i.s 			page 134


_ZN3TCB9currentPCE
_ZN3TCB9currentSPE
_ZN11ConsoleUtil11printStringEPKc
_ZN11ConsoleUtil8printIntEiii
_ZN9Scheduler5awakeEv
_ZN3TCB16timeSliceCounterE
plic_claim
plic_complete
_ZN11ConsoleUtil8putInputEc
