GAS LISTING /tmp/ccvbDvuT.s 			page 1


   1              		.file	"riscv.cpp"
   2              		.option pic
   3              		.option norelax
   4              		.text
   5              	.Ltext0:
   6              		.align	2
   7              		.globl	_ZN5RiscV10initializeEv
   9              	_ZN5RiscV10initializeEv:
  10              	.LFB37:
  11              		.file 1 "src/riscv.cpp"
   1:src/riscv.cpp **** //
   2:src/riscv.cpp **** // Created by os on 4/28/22.
   3:src/riscv.cpp **** //
   4:src/riscv.cpp **** 
   5:src/riscv.cpp **** #include "../h/riscv.hpp"
   6:src/riscv.cpp **** #include "../h/memoryAllocator.hpp"
   7:src/riscv.cpp **** #include "../h/tcb.hpp"
   8:src/riscv.cpp **** #include "../h/scheduler.hpp"
   9:src/riscv.cpp **** #include "../h/printing.hpp"
  10:src/riscv.cpp **** #include "../h/consoleUtil.hpp"
  11:src/riscv.cpp **** #include "../h/slabAllocator.hpp"
  12:src/riscv.cpp **** 
  13:src/riscv.cpp **** uint64 RiscV::globalTime = 0;
  14:src/riscv.cpp **** bool RiscV::userMainFinished = false;
  15:src/riscv.cpp **** 
  16:src/riscv.cpp **** //initailize each of the key components and switch to user mode for user code execution
  17:src/riscv.cpp **** void RiscV::initialize(){
  12              		.loc 1 17 25
  13              		.cfi_startproc
  14 0000 130101FF 		addi	sp,sp,-16
  15              		.cfi_def_cfa_offset 16
  16 0004 23341100 		sd	ra,8(sp)
  17 0008 23308100 		sd	s0,0(sp)
  18              		.cfi_offset 1, -8
  19              		.cfi_offset 8, -16
  20 000c 13040101 		addi	s0,sp,16
  21              		.cfi_def_cfa 8, 0
  18:src/riscv.cpp ****     RiscV::w_stvec((uint64) &RiscV::supervisorTrap);
  22              		.loc 1 18 5
  23              		.loc 1 18 19 is_stmt 0
  24 0010 97070000 		la	a5,_ZN5RiscV14supervisorTrapEv
  24      83B70700 
  25              	.LVL0:
  26              	.LBB89:
  27              	.LBB90:
  28              		.file 2 "src/../h/riscv.hpp"
   1:src/../h/riscv.hpp **** //
   2:src/../h/riscv.hpp **** // Created by os on 4/28/22.
   3:src/../h/riscv.hpp **** //
   4:src/../h/riscv.hpp **** 
   5:src/../h/riscv.hpp **** #ifndef OS1_KERNEL_RISCV_HPP
   6:src/../h/riscv.hpp **** #define OS1_KERNEL_RISCV_HPP
   7:src/../h/riscv.hpp **** #include "../lib/hw.h"
   8:src/../h/riscv.hpp **** 
   9:src/../h/riscv.hpp **** 
  10:src/../h/riscv.hpp **** class RiscV{
  11:src/../h/riscv.hpp **** 
GAS LISTING /tmp/ccvbDvuT.s 			page 2


  12:src/../h/riscv.hpp ****     static uint64 globalTime;
  13:src/../h/riscv.hpp **** 
  14:src/../h/riscv.hpp ****     static bool userMainFinished;
  15:src/../h/riscv.hpp **** 
  16:src/../h/riscv.hpp ****     enum BitMaskSstatus{
  17:src/../h/riscv.hpp ****         SSTATUS_SIE = (1<<1),
  18:src/../h/riscv.hpp ****         SSTATUS_SPIE = (1<<5),
  19:src/../h/riscv.hpp ****         SSTATUS_SPP = (1<<8),
  20:src/../h/riscv.hpp ****     };
  21:src/../h/riscv.hpp **** 
  22:src/../h/riscv.hpp ****     enum BitMaskSip{
  23:src/../h/riscv.hpp ****         SIP_SSIE = (1<<1),
  24:src/../h/riscv.hpp ****         SIP_STIE = (1<<5),
  25:src/../h/riscv.hpp ****         SIP_SEIE = (1<<9),
  26:src/../h/riscv.hpp ****     };
  27:src/../h/riscv.hpp **** 
  28:src/../h/riscv.hpp ****     static void executeMemAllocSyscall();   //wrapper function for moving parameters and calling Me
  29:src/../h/riscv.hpp **** 
  30:src/../h/riscv.hpp ****     static void executeMemFreeSyscall();    //wrapper function for moving parameters and calling Me
  31:src/../h/riscv.hpp **** 
  32:src/../h/riscv.hpp ****     static void executeThreadCreateSyscall();
  33:src/../h/riscv.hpp **** 
  34:src/../h/riscv.hpp ****     static void executeThreadExitSyscall();
  35:src/../h/riscv.hpp **** 
  36:src/../h/riscv.hpp ****     static void executeThreadDispatchSyscall();
  37:src/../h/riscv.hpp **** 
  38:src/../h/riscv.hpp ****     static void executeThreadAttachBodySyscall();
  39:src/../h/riscv.hpp **** 
  40:src/../h/riscv.hpp ****     static void executeThreadStartSyscall();
  41:src/../h/riscv.hpp **** 
  42:src/../h/riscv.hpp ****     static void executeSemOpenSyscall();
  43:src/../h/riscv.hpp **** 
  44:src/../h/riscv.hpp ****     static void executeSemCloseSyscall();
  45:src/../h/riscv.hpp **** 
  46:src/../h/riscv.hpp ****     static void executeSemWaitSyscall();
  47:src/../h/riscv.hpp **** 
  48:src/../h/riscv.hpp ****     static void executeSemSignalSyscall();
  49:src/../h/riscv.hpp **** 
  50:src/../h/riscv.hpp ****     static void executeTimeSleepSyscall();
  51:src/../h/riscv.hpp **** 
  52:src/../h/riscv.hpp ****     static void executeGetcSyscall();
  53:src/../h/riscv.hpp **** 
  54:src/../h/riscv.hpp ****     static void executePutcSyscall();
  55:src/../h/riscv.hpp **** 
  56:src/../h/riscv.hpp ****     static void executePutcUtilSyscall();
  57:src/../h/riscv.hpp **** 
  58:src/../h/riscv.hpp ****     static void executeThreadFreeSyscall();
  59:src/../h/riscv.hpp **** 
  60:src/../h/riscv.hpp ****     static void executeSemaphoreFreeSyscall();
  61:src/../h/riscv.hpp **** 
  62:src/../h/riscv.hpp ****     static void executeForkSyscall();
  63:src/../h/riscv.hpp **** 
  64:src/../h/riscv.hpp ****     static void putcWrapper(void *arg);
  65:src/../h/riscv.hpp **** 
  66:src/../h/riscv.hpp ****     static uint64 r_scause();
  67:src/../h/riscv.hpp **** 
  68:src/../h/riscv.hpp ****     static void w_scause(uint64 scause);
GAS LISTING /tmp/ccvbDvuT.s 			page 3


  69:src/../h/riscv.hpp **** 
  70:src/../h/riscv.hpp ****     static uint64 r_sepc();
  71:src/../h/riscv.hpp **** 
  72:src/../h/riscv.hpp ****     static void w_sepc(uint64 sepc);
  73:src/../h/riscv.hpp **** 
  74:src/../h/riscv.hpp ****     static uint64 r_stvec();
  75:src/../h/riscv.hpp **** 
  76:src/../h/riscv.hpp ****     static void w_stvec(uint64 stvec);
  77:src/../h/riscv.hpp **** 
  78:src/../h/riscv.hpp ****     static uint64 r_sstatus();
  79:src/../h/riscv.hpp **** 
  80:src/../h/riscv.hpp ****     static void w_sstatus(uint64 sstatus);
  81:src/../h/riscv.hpp **** 
  82:src/../h/riscv.hpp ****     static void ms_sstatus(uint64 mask);
  83:src/../h/riscv.hpp **** 
  84:src/../h/riscv.hpp ****     static void mc_sstatus(uint64 mask);
  85:src/../h/riscv.hpp **** 
  86:src/../h/riscv.hpp ****     static void ms_sip(uint64 mask);
  87:src/../h/riscv.hpp **** 
  88:src/../h/riscv.hpp ****     static void mc_sip(uint64 mask);
  89:src/../h/riscv.hpp **** 
  90:src/../h/riscv.hpp ****     static void ms_sie(uint64 mask);
  91:src/../h/riscv.hpp **** 
  92:src/../h/riscv.hpp ****     static void mc_sie(uint64 mask);
  93:src/../h/riscv.hpp **** 
  94:src/../h/riscv.hpp ****     static void saveA0toSscratch();
  95:src/../h/riscv.hpp **** 
  96:src/../h/riscv.hpp ****     static void jumpToDesignatedPrivilegeMode();
  97:src/../h/riscv.hpp **** 
  98:src/../h/riscv.hpp ****     static void popSppSpie();
  99:src/../h/riscv.hpp **** 
 100:src/../h/riscv.hpp ****     static void getPC();
 101:src/../h/riscv.hpp **** 
 102:src/../h/riscv.hpp ****     static void supervisorTrap();      //supervisorTrap defined in /src/supervisorTrap.S
 103:src/../h/riscv.hpp **** 
 104:src/../h/riscv.hpp ****     static void handleSupervisorTrap();
 105:src/../h/riscv.hpp **** 
 106:src/../h/riscv.hpp ****     static void enableInterrupts();
 107:src/../h/riscv.hpp **** 
 108:src/../h/riscv.hpp ****     static void disableInterrupts();
 109:src/../h/riscv.hpp **** 
 110:src/../h/riscv.hpp ****     static void enableHardwareInterrupts();
 111:src/../h/riscv.hpp **** 
 112:src/../h/riscv.hpp ****     static void disableHardwareInterrupts();
 113:src/../h/riscv.hpp **** 
 114:src/../h/riscv.hpp ****     static void enableTimerInterrupts();
 115:src/../h/riscv.hpp **** 
 116:src/../h/riscv.hpp ****     static void disableTimerInterrupts();
 117:src/../h/riscv.hpp **** 
 118:src/../h/riscv.hpp ****     static void initialize();
 119:src/../h/riscv.hpp **** 
 120:src/../h/riscv.hpp ****     static void finalize();
 121:src/../h/riscv.hpp **** 
 122:src/../h/riscv.hpp ****     friend class TCB;
 123:src/../h/riscv.hpp **** 
 124:src/../h/riscv.hpp ****     friend class System;
 125:src/../h/riscv.hpp **** 
GAS LISTING /tmp/ccvbDvuT.s 			page 4


 126:src/../h/riscv.hpp ****     friend class Scheduler;
 127:src/../h/riscv.hpp **** 
 128:src/../h/riscv.hpp ****     friend class ConsoleUtil;
 129:src/../h/riscv.hpp **** };
 130:src/../h/riscv.hpp **** 
 131:src/../h/riscv.hpp **** inline uint64 RiscV::r_scause(){
 132:src/../h/riscv.hpp ****     uint64 volatile scause;
 133:src/../h/riscv.hpp ****     asm("csrr %[scause], scause" : [scause] "=r" (scause));
 134:src/../h/riscv.hpp ****     return scause;
 135:src/../h/riscv.hpp **** }
 136:src/../h/riscv.hpp **** 
 137:src/../h/riscv.hpp **** inline void RiscV::w_scause(uint64 scause){
 138:src/../h/riscv.hpp ****     asm("csrw scause, %[scause]" : : [scause] "r" (scause));
 139:src/../h/riscv.hpp **** }
 140:src/../h/riscv.hpp **** 
 141:src/../h/riscv.hpp **** inline uint64 RiscV::r_sepc(){
 142:src/../h/riscv.hpp ****     uint64 sepc;
 143:src/../h/riscv.hpp ****     asm("csrr %[sepc], sepc" : [sepc] "=r" (sepc));
 144:src/../h/riscv.hpp ****     return sepc;
 145:src/../h/riscv.hpp **** }
 146:src/../h/riscv.hpp **** 
 147:src/../h/riscv.hpp **** inline void RiscV::w_sepc(uint64 sepc){
 148:src/../h/riscv.hpp ****     asm("csrw sepc, %[sepc]" : : [sepc] "r" (sepc));
 149:src/../h/riscv.hpp **** }
 150:src/../h/riscv.hpp **** 
 151:src/../h/riscv.hpp **** inline uint64 RiscV::r_stvec(){
 152:src/../h/riscv.hpp ****     uint64 stvec;
 153:src/../h/riscv.hpp ****     asm("csrr %[stvec], stvec" : [stvec] "=r" (stvec));
 154:src/../h/riscv.hpp ****     return stvec;
 155:src/../h/riscv.hpp **** }
 156:src/../h/riscv.hpp **** 
 157:src/../h/riscv.hpp **** inline void RiscV::w_sstatus(uint64 sstatus){
 158:src/../h/riscv.hpp ****     asm("csrw sstatus, %[sstatus]" : : [sstatus] "r" (sstatus));
 159:src/../h/riscv.hpp **** }
 160:src/../h/riscv.hpp **** 
 161:src/../h/riscv.hpp **** inline uint64 RiscV::r_sstatus(){
 162:src/../h/riscv.hpp ****     uint64 sstatus;
 163:src/../h/riscv.hpp ****     asm("csrr %[sstatus], sstatus" : [sstatus] "=r" (sstatus));
 164:src/../h/riscv.hpp ****     return sstatus;
 165:src/../h/riscv.hpp **** }
 166:src/../h/riscv.hpp **** 
 167:src/../h/riscv.hpp **** inline void RiscV::w_stvec(uint64 stvec){
 168:src/../h/riscv.hpp ****     asm("csrw stvec, %[stvec]" : : [stvec] "r" (stvec));
  29              		.loc 2 168 5 is_stmt 1
  30              		.loc 2 168 56 is_stmt 0
  31              	#APP
  32              	# 168 "src/../h/riscv.hpp" 1
 169              	}
  33              		csrw stvec, a5
  34              	# 0 "" 2
  35              	.LVL1:
  36              	#NO_APP
  37              	.LBE90:
  38              	.LBE89:
  19:src/riscv.cpp ****     MemoryAllocator::initialize();
  39              		.loc 1 19 5 is_stmt 1
  40              		.loc 1 19 32 is_stmt 0
GAS LISTING /tmp/ccvbDvuT.s 			page 5


  41 001c 97000000 		call	_ZN15MemoryAllocator10initializeEv@plt
  41      E7800000 
  42              	.LVL2:
  20:src/riscv.cpp ****     Scheduler::initialize();
  43              		.loc 1 20 5 is_stmt 1
  44              		.loc 1 20 26 is_stmt 0
  45 0024 97000000 		call	_ZN9Scheduler10initializeEv@plt
  45      E7800000 
  46              	.LVL3:
  21:src/riscv.cpp ****     TCB::initialize();
  47              		.loc 1 21 5 is_stmt 1
  48              		.loc 1 21 20 is_stmt 0
  49 002c 97000000 		call	_ZN3TCB10initializeEv@plt
  49      E7800000 
  50              	.LVL4:
  22:src/riscv.cpp ****     ConsoleUtil::initialize();
  51              		.loc 1 22 5 is_stmt 1
  52              		.loc 1 22 28 is_stmt 0
  53 0034 97000000 		call	_ZN11ConsoleUtil10initializeEv@plt
  53      E7800000 
  54              	.LVL5:
  23:src/riscv.cpp ****     SlabAllocator::initialize(BUDDY_START_ADDR_CONST, 4096);
  55              		.loc 1 23 5 is_stmt 1
  56              		.loc 1 23 31 is_stmt 0
  57 003c 97070000 		la	a5,HEAP_START_ADDR
  57      83B70700 
  58 0044 03B50700 		ld	a0,0(a5)
  59 0048 1355C500 		srli	a0,a0,12
  60 004c 13052500 		addi	a0,a0,2
  61              		.loc 1 23 30
  62 0050 B7150000 		li	a1,4096
  63 0054 1315C500 		slli	a0,a0,12
  64 0058 97000000 		call	_ZN13SlabAllocator10initializeEPvm@plt
  64      E7800000 
  65              	.LVL6:
  24:src/riscv.cpp ****     RiscV::enableInterrupts();
  66              		.loc 1 24 5 is_stmt 1
 170:src/../h/riscv.hpp **** 
 171:src/../h/riscv.hpp **** inline void  RiscV::ms_sstatus(uint64 mask) {
 172:src/../h/riscv.hpp ****     asm("csrs sstatus, %[mask]" : : [mask] "r" (mask));
 173:src/../h/riscv.hpp **** }
 174:src/../h/riscv.hpp **** 
 175:src/../h/riscv.hpp **** inline void  RiscV::mc_sstatus(uint64 mask) {
 176:src/../h/riscv.hpp ****     asm("csrc sstatus, %[mask]" : : [mask] "r" (mask));
 177:src/../h/riscv.hpp **** }
 178:src/../h/riscv.hpp **** 
 179:src/../h/riscv.hpp **** inline void  RiscV::ms_sip(uint64 mask) {
 180:src/../h/riscv.hpp ****     asm("csrs sip, %[mask]" : : [mask] "r" (mask));
 181:src/../h/riscv.hpp **** }
 182:src/../h/riscv.hpp **** 
 183:src/../h/riscv.hpp **** inline void  RiscV::mc_sip(uint64 mask) {
 184:src/../h/riscv.hpp ****     asm("csrc sip, %[mask]" : : [mask] "r" (mask));
 185:src/../h/riscv.hpp **** }
 186:src/../h/riscv.hpp **** 
 187:src/../h/riscv.hpp **** inline void  RiscV::ms_sie(uint64 mask) {
 188:src/../h/riscv.hpp ****     asm("csrs sie, %[mask]" : : [mask] "r" (mask));
 189:src/../h/riscv.hpp **** }
GAS LISTING /tmp/ccvbDvuT.s 			page 6


 190:src/../h/riscv.hpp **** 
 191:src/../h/riscv.hpp **** inline void  RiscV::mc_sie(uint64 mask){
 192:src/../h/riscv.hpp ****     asm("csrc sie, %[mask]" : : [mask] "r" (mask));
 193:src/../h/riscv.hpp **** }
 194:src/../h/riscv.hpp **** 
 195:src/../h/riscv.hpp **** inline void RiscV::enableInterrupts() {
 196:src/../h/riscv.hpp ****     RiscV::ms_sie(SIP_SSIE);
  67              		.loc 2 196 5
  68              	.LBB91:
  69              	.LBB92:
  70              	.LBB93:
 188:src/../h/riscv.hpp **** }
  71              		.loc 2 188 5
 188:src/../h/riscv.hpp **** }
  72              		.loc 2 188 51 is_stmt 0
  73 0060 93072000 		li	a5,2
  74              	#APP
  75              	# 188 "src/../h/riscv.hpp" 1
  76              		csrs sie, a5
  77              	# 0 "" 2
  78              	.LVL7:
  79              	#NO_APP
  80              	.LBE93:
  81              	.LBE92:
  82              	.LBE91:
 197:src/../h/riscv.hpp ****     RiscV::ms_sie(SIP_SEIE);
  83              		.loc 2 197 5 is_stmt 1
  84              	.LBB98:
  85              	.LBB94:
  86              	.LBB95:
 188:src/../h/riscv.hpp **** }
  87              		.loc 2 188 5
 188:src/../h/riscv.hpp **** }
  88              		.loc 2 188 51 is_stmt 0
  89 0068 13070020 		li	a4,512
  90              	#APP
  91              	# 188 "src/../h/riscv.hpp" 1
  92              		csrs sie, a4
  93              	# 0 "" 2
  94              	.LVL8:
  95              	#NO_APP
  96              	.LBE95:
  97              	.LBE94:
  98              	.LBE98:
 198:src/../h/riscv.hpp ****     RiscV::ms_sstatus(SSTATUS_SIE);
  99              		.loc 2 198 5 is_stmt 1
 100              	.LBB99:
 101              	.LBB96:
 102              	.LBB97:
 172:src/../h/riscv.hpp **** }
 103              		.loc 2 172 5
 172:src/../h/riscv.hpp **** }
 104              		.loc 2 172 55 is_stmt 0
 105              	#APP
 106              	# 172 "src/../h/riscv.hpp" 1
 107              		csrs sstatus, a5
 108              	# 0 "" 2
GAS LISTING /tmp/ccvbDvuT.s 			page 7


 109              	.LVL9:
 110              	#NO_APP
 111              	.LBE97:
 112              	.LBE96:
 113              	.LBE99:
  25:src/riscv.cpp **** //    RiscV::enableHardwareInterrupts();
  26:src/riscv.cpp **** }
 114              		.loc 1 26 1
 115 0074 83308100 		ld	ra,8(sp)
 116              		.cfi_restore 1
 117 0078 03340100 		ld	s0,0(sp)
 118              		.cfi_restore 8
 119              		.cfi_def_cfa 2, 16
 120 007c 13010101 		addi	sp,sp,16
 121              		.cfi_def_cfa_offset 0
 122 0080 67800000 		jr	ra
 123              		.cfi_endproc
 124              	.LFE37:
 126              		.align	2
 127              		.globl	_ZN5RiscV10popSppSpieEv
 129              	_ZN5RiscV10popSppSpieEv:
 130              	.LFB38:
  27:src/riscv.cpp **** 
  28:src/riscv.cpp **** //get previous privilege and previous interrupt status
  29:src/riscv.cpp **** void RiscV::popSppSpie() {
 131              		.loc 1 29 26 is_stmt 1
 132              		.cfi_startproc
 133 0084 130101FF 		addi	sp,sp,-16
 134              		.cfi_def_cfa_offset 16
 135 0088 23348100 		sd	s0,8(sp)
 136              		.cfi_offset 8, -8
 137 008c 13040101 		addi	s0,sp,16
 138              		.cfi_def_cfa 8, 0
  30:src/riscv.cpp ****     asm("csrw sepc, ra");
 139              		.loc 1 30 5
 140              		.loc 1 30 25 is_stmt 0
 141              	#APP
 142              	# 30 "src/riscv.cpp" 1
  31              	    asm("sret");
 143              		csrw sepc, ra
 144              	# 0 "" 2
 145              		.loc 1 31 5 is_stmt 1
 146              		.loc 1 31 16 is_stmt 0
 147              	# 31 "src/riscv.cpp" 1
  32              	}
 148              		sret
 149              	# 0 "" 2
 150              		.loc 1 32 1
 151              	#NO_APP
 152 0098 03348100 		ld	s0,8(sp)
 153              		.cfi_restore 8
 154              		.cfi_def_cfa 2, 16
 155 009c 13010101 		addi	sp,sp,16
 156              		.cfi_def_cfa_offset 0
 157 00a0 67800000 		jr	ra
 158              		.cfi_endproc
 159              	.LFE38:
GAS LISTING /tmp/ccvbDvuT.s 			page 8


 161              		.align	2
 162              		.globl	_ZN5RiscV28executeThreadDispatchSyscallEv
 164              	_ZN5RiscV28executeThreadDispatchSyscallEv:
 165              	.LFB46:
  33:src/riscv.cpp **** 
  34:src/riscv.cpp **** //handler function for traps
  35:src/riscv.cpp **** void RiscV::handleSupervisorTrap() {
  36:src/riscv.cpp **** 
  37:src/riscv.cpp ****     //read scause
  38:src/riscv.cpp ****     uint64 volatile scause = RiscV::r_scause();
  39:src/riscv.cpp **** 
  40:src/riscv.cpp ****     asm("csrr %[sscratch], sscratch" : [sscratch] "=r" (TCB::running->a0Location));
  41:src/riscv.cpp **** 
  42:src/riscv.cpp ****     //interrupt from ecall (both user and supervisor mode)
  43:src/riscv.cpp ****     if(scause == 0x09 || scause == 0x08) {
  44:src/riscv.cpp **** 
  45:src/riscv.cpp ****         //save sstatus and sepc
  46:src/riscv.cpp ****         //sepc should be increased by 4, since this is an ecall trap
  47:src/riscv.cpp ****         uint64 volatile sstatus = RiscV::r_sstatus();
  48:src/riscv.cpp ****         uint64 volatile sepc = RiscV::r_sepc()+4;
  49:src/riscv.cpp ****         TCB::running->sepc = sepc;
  50:src/riscv.cpp ****         TCB::running->sstatus = sstatus;
  51:src/riscv.cpp **** 
  52:src/riscv.cpp ****         //get the syscall ID from a0
  53:src/riscv.cpp ****         uint64 syscallID;
  54:src/riscv.cpp ****         asm("mv %[syscallID], a0" : [syscallID] "=r" (syscallID));
  55:src/riscv.cpp **** 
  56:src/riscv.cpp ****         switch(syscallID){
  57:src/riscv.cpp ****             case 0x01 : executeMemAllocSyscall();break;
  58:src/riscv.cpp ****             case 0x02 : executeMemFreeSyscall();break;
  59:src/riscv.cpp ****             case 0x11 : executeThreadCreateSyscall();break;
  60:src/riscv.cpp ****             case 0x12 : executeThreadExitSyscall();break;
  61:src/riscv.cpp ****             case 0x13 : executeThreadDispatchSyscall();break;
  62:src/riscv.cpp ****             case 0x14 : executeThreadAttachBodySyscall();break;
  63:src/riscv.cpp ****             case 0x15 : executeThreadStartSyscall();break;
  64:src/riscv.cpp ****             case 0x21 : executeSemOpenSyscall();break;
  65:src/riscv.cpp ****             case 0x22 : executeSemCloseSyscall();break;
  66:src/riscv.cpp ****             case 0x23 : executeSemWaitSyscall();break;
  67:src/riscv.cpp ****             case 0x24 : executeSemSignalSyscall();break;
  68:src/riscv.cpp ****             case 0x31 : executeTimeSleepSyscall();break;
  69:src/riscv.cpp ****             case 0x41 : executeGetcSyscall();break;
  70:src/riscv.cpp ****             case 0x42 : executePutcSyscall();break;
  71:src/riscv.cpp ****             case 0x43 : executePutcUtilSyscall();break;
  72:src/riscv.cpp ****             case 0x51 : executeThreadFreeSyscall();break;
  73:src/riscv.cpp ****             case 0x52 : executeSemaphoreFreeSyscall();break;
  74:src/riscv.cpp ****             //in this case we need to save SP and PC at this point so that newly created thread
  75:src/riscv.cpp ****             //can return to this point and exit trap routine regularly
  76:src/riscv.cpp ****             //note that getPC() returns PC incremented by 8 to skip executeForkSyscall
  77:src/riscv.cpp ****             case 0x61 : asm("mv %[sp], sp" : [sp] "=r"(TCB::currentSP));
  78:src/riscv.cpp ****                         RiscV::getPC();
  79:src/riscv.cpp ****                         executeForkSyscall();
  80:src/riscv.cpp ****                         break;
  81:src/riscv.cpp ****         }
  82:src/riscv.cpp **** 
  83:src/riscv.cpp ****         //write previously save sstatus and incremented sepc
  84:src/riscv.cpp ****         RiscV::w_sstatus(TCB::running->sstatus);
  85:src/riscv.cpp ****         RiscV::w_sepc(TCB::running->sepc);
GAS LISTING /tmp/ccvbDvuT.s 			page 9


  86:src/riscv.cpp ****     }
  87:src/riscv.cpp **** 
  88:src/riscv.cpp ****     //timer interrupt (in this system's implementation, timer tick is manifested as software interr
  89:src/riscv.cpp ****     else if(scause == (0x01UL<<63 | 0x1)){
  90:src/riscv.cpp **** 
  91:src/riscv.cpp ****         //save sstatus and sepc
  92:src/riscv.cpp ****         //this time sepc remains the same
  93:src/riscv.cpp ****         uint64 volatile sstatus = RiscV::r_sstatus();
  94:src/riscv.cpp ****         uint64 volatile sepc = RiscV::r_sepc();
  95:src/riscv.cpp **** 
  96:src/riscv.cpp ****         //clear the SIP bit for software interrupt
  97:src/riscv.cpp ****         mc_sip(SIP_SSIE);
  98:src/riscv.cpp **** 
  99:src/riscv.cpp **** 
 100:src/riscv.cpp ****         //increase global time and try to awake threads that are asleep
 101:src/riscv.cpp ****         globalTime += 1;
 102:src/riscv.cpp ****         Scheduler::awake();
 103:src/riscv.cpp **** 
 104:src/riscv.cpp ****         //check whether time slice has run out for running thread
 105:src/riscv.cpp ****         //if so, dispatch
 106:src/riscv.cpp ****         TCB::timeSliceCounter++;
 107:src/riscv.cpp ****         if(TCB::timeSliceCounter >= TCB::running->timeSlice) {
 108:src/riscv.cpp **** 
 109:src/riscv.cpp ****             TCB::timeSliceCounter = 0;
 110:src/riscv.cpp **** 
 111:src/riscv.cpp ****             TCB* old = TCB::running;
 112:src/riscv.cpp **** 
 113:src/riscv.cpp ****             old->status = TCB::Status::READY;
 114:src/riscv.cpp **** 
 115:src/riscv.cpp ****             TCB::dispatch();
 116:src/riscv.cpp ****         }
 117:src/riscv.cpp **** 
 118:src/riscv.cpp ****         //write previously save sstatus and sepc
 119:src/riscv.cpp ****         RiscV::w_sstatus(sstatus);
 120:src/riscv.cpp ****         RiscV::w_sepc(sepc);
 121:src/riscv.cpp ****     }
 122:src/riscv.cpp **** 
 123:src/riscv.cpp ****     //hardware interrupt, from console (note that here we only check for keyboard interrupts, handl
 124:src/riscv.cpp ****     else if(scause == (0x01UL<<63 | 0x9)){
 125:src/riscv.cpp ****         //save sstatus and sepc
 126:src/riscv.cpp ****         //this time sepc remains the same
 127:src/riscv.cpp ****         uint64 volatile sstatus = RiscV::r_sstatus();
 128:src/riscv.cpp ****         uint64 volatile sepc = RiscV::r_sepc();
 129:src/riscv.cpp **** 
 130:src/riscv.cpp ****         //get the console status register location, and console status reg value
 131:src/riscv.cpp ****         uint64 status = CONSOLE_STATUS;
 132:src/riscv.cpp ****         asm("mv a0, %[status]" : : [status] "r" (status));
 133:src/riscv.cpp ****         asm("lb a1, 0(a0)");
 134:src/riscv.cpp ****         asm("mv %[status], a1" : [status] "=r" (status));
 135:src/riscv.cpp **** 
 136:src/riscv.cpp ****         //if keyboard is ready to send data
 137:src/riscv.cpp ****         if(status & 1UL)
 138:src/riscv.cpp ****         {
 139:src/riscv.cpp ****             //fetch the character from CONSOLE_TX_DATA register
 140:src/riscv.cpp ****             uint64 data;
 141:src/riscv.cpp ****             char c;
 142:src/riscv.cpp ****             data = CONSOLE_TX_DATA;
GAS LISTING /tmp/ccvbDvuT.s 			page 10


 143:src/riscv.cpp ****             asm("mv a0, %[data]" : : [data] "r" (data));
 144:src/riscv.cpp ****             asm("lb a1, 0(a0)");
 145:src/riscv.cpp ****             asm("mv %[c], a1" : [c] "=r" (c));
 146:src/riscv.cpp **** 
 147:src/riscv.cpp ****             //if there was a getc request put the character into the input buffer, othrewise ignore
 148:src/riscv.cpp ****             if(ConsoleUtil::pendingGetc!=0) {
 149:src/riscv.cpp ****                 ConsoleUtil::pendingGetc--;
 150:src/riscv.cpp ****                 ConsoleUtil::putInput(c);
 151:src/riscv.cpp ****             }
 152:src/riscv.cpp ****         }
 153:src/riscv.cpp ****         plic_complete(plic_claim());
 154:src/riscv.cpp **** 
 155:src/riscv.cpp ****         RiscV::w_sstatus(sstatus);
 156:src/riscv.cpp ****         RiscV::w_sepc(sepc);
 157:src/riscv.cpp ****     }
 158:src/riscv.cpp **** 
 159:src/riscv.cpp ****     //illegal instruction, exit running thread
 160:src/riscv.cpp ****     else if(scause == 0x02){
 161:src/riscv.cpp ****         TCB* old = TCB::running;
 162:src/riscv.cpp ****         old->status = TCB::Status::FINISHED;
 163:src/riscv.cpp ****         ConsoleUtil::printString("sepc: ");
 164:src/riscv.cpp ****         uint64 sepc = RiscV::r_sepc();
 165:src/riscv.cpp ****         ConsoleUtil::printInt(sepc,16);
 166:src/riscv.cpp ****         ConsoleUtil::printString("\n");
 167:src/riscv.cpp ****         ConsoleUtil::printString("Illegal instruction\nExiting thread...\n");
 168:src/riscv.cpp ****         TCB::dispatch();
 169:src/riscv.cpp ****     }
 170:src/riscv.cpp **** 
 171:src/riscv.cpp ****     //some other kind of error, for more information check out RiscV handbook
 172:src/riscv.cpp ****     else{
 173:src/riscv.cpp ****         ConsoleUtil::printString("Error: \n");
 174:src/riscv.cpp ****         ConsoleUtil::printString("scause: ");
 175:src/riscv.cpp ****         uint64  scause = RiscV::r_scause();
 176:src/riscv.cpp ****         ConsoleUtil::printInt(scause);
 177:src/riscv.cpp ****         ConsoleUtil::printString("sepc: ");
 178:src/riscv.cpp ****         uint64 sepc = RiscV::r_sepc();
 179:src/riscv.cpp ****         ConsoleUtil::printInt(sepc,16);
 180:src/riscv.cpp ****         ConsoleUtil::printString("\n");
 181:src/riscv.cpp ****         TCB* old = TCB::running;
 182:src/riscv.cpp ****         old->status = TCB::Status::FINISHED;
 183:src/riscv.cpp ****         ConsoleUtil::printString("Exiting thread...\n");
 184:src/riscv.cpp ****         TCB::dispatch();
 185:src/riscv.cpp ****     }
 186:src/riscv.cpp **** 
 187:src/riscv.cpp ****     RiscV::jumpToDesignatedPrivilegeMode();
 188:src/riscv.cpp **** }
 189:src/riscv.cpp **** 
 190:src/riscv.cpp **** void RiscV::executeMemAllocSyscall(){
 191:src/riscv.cpp **** 
 192:src/riscv.cpp ****     //fetch the arguments from a0-a7 registers
 193:src/riscv.cpp ****     uint64 size;
 194:src/riscv.cpp ****     asm("mv %[size], a1" : [size] "=r" (size));
 195:src/riscv.cpp **** 
 196:src/riscv.cpp ****     //call internal allocator and return the address in a0
 197:src/riscv.cpp ****     uint64 addr =(uint64)MemoryAllocator::kmalloc(size);
 198:src/riscv.cpp **** 
 199:src/riscv.cpp ****     asm("mv a0, %[addr]" : : [addr] "r" (addr));
GAS LISTING /tmp/ccvbDvuT.s 			page 11


 200:src/riscv.cpp **** 
 201:src/riscv.cpp ****     RiscV::saveA0toSscratch();
 202:src/riscv.cpp **** }
 203:src/riscv.cpp **** 
 204:src/riscv.cpp **** void RiscV::executeMemFreeSyscall() {
 205:src/riscv.cpp **** 
 206:src/riscv.cpp ****     //fetch the arguments from a0-a7 registers
 207:src/riscv.cpp ****     uint64 iaddr, status;
 208:src/riscv.cpp **** 
 209:src/riscv.cpp **** 
 210:src/riscv.cpp ****     if(MemoryAllocator::initialized) {
 211:src/riscv.cpp ****         //call internal allocator and free memory which iaddr points to
 212:src/riscv.cpp ****         asm("mv %[iaddr], a1" : [iaddr] "=r"(iaddr));
 213:src/riscv.cpp ****         status = MemoryAllocator::kfree((void *) iaddr);;
 214:src/riscv.cpp ****     }
 215:src/riscv.cpp ****     else
 216:src/riscv.cpp ****         status = -1;
 217:src/riscv.cpp **** 
 218:src/riscv.cpp ****     //return status
 219:src/riscv.cpp ****     asm("mv a0, %[status]" : : [status] "r" (status));
 220:src/riscv.cpp **** 
 221:src/riscv.cpp ****     RiscV::saveA0toSscratch();
 222:src/riscv.cpp **** }
 223:src/riscv.cpp **** 
 224:src/riscv.cpp **** void RiscV::executeThreadCreateSyscall(){
 225:src/riscv.cpp **** 
 226:src/riscv.cpp ****     //fetch the arguments from a0-a7 registers
 227:src/riscv.cpp ****     uint64 iroutine, iargs, ihandle, istack;
 228:src/riscv.cpp **** 
 229:src/riscv.cpp ****     asm("mv %[istack], a7" : [istack] "=r"(istack));
 230:src/riscv.cpp ****     asm("mv %[ihandle], a1" : [ihandle] "=r"(ihandle));
 231:src/riscv.cpp ****     asm("mv %[iroutine], a2" : [iroutine] "=r"(iroutine));
 232:src/riscv.cpp ****     asm("mv %[iargs], a3" : [iargs] "=r"(iargs));
 233:src/riscv.cpp **** 
 234:src/riscv.cpp ****     //call constructor for Thread Control Block and if not null, write thread address into ihandle
 235:src/riscv.cpp ****     TCB *tcb = new TCB((TCB::Body)iroutine, (void*)iargs, (uint64*)istack, DEFAULT_TIME_SLICE);
 236:src/riscv.cpp **** 
 237:src/riscv.cpp ****     uint64 status = 0;
 238:src/riscv.cpp **** 
 239:src/riscv.cpp ****     if(tcb == nullptr){
 240:src/riscv.cpp ****         status = -1;
 241:src/riscv.cpp ****     }
 242:src/riscv.cpp ****     else{
 243:src/riscv.cpp ****         if(tcb->body)
 244:src/riscv.cpp ****             Scheduler::put(tcb);
 245:src/riscv.cpp ****         *((TCB**)ihandle) = tcb;
 246:src/riscv.cpp ****     }
 247:src/riscv.cpp **** 
 248:src/riscv.cpp ****     //return status
 249:src/riscv.cpp ****     asm("mv a0, %[status]" : : [status] "r" (status));
 250:src/riscv.cpp **** 
 251:src/riscv.cpp ****     RiscV::saveA0toSscratch();
 252:src/riscv.cpp **** }
 253:src/riscv.cpp **** 
 254:src/riscv.cpp **** void RiscV::executeThreadAttachBodySyscall(){
 255:src/riscv.cpp **** 
 256:src/riscv.cpp ****     //fetch the arguments from a0-a7 registers
GAS LISTING /tmp/ccvbDvuT.s 			page 12


 257:src/riscv.cpp ****     uint64 iroutine, iargs, ihandle, istack;
 258:src/riscv.cpp **** 
 259:src/riscv.cpp **** 
 260:src/riscv.cpp ****     asm("mv %[istack], a7" : [istack] "=r"(istack));
 261:src/riscv.cpp ****     asm("mv %[ihandle], a1" : [ihandle] "=r"(ihandle));
 262:src/riscv.cpp ****     asm("mv %[iroutine], a2" : [iroutine] "=r"(iroutine));
 263:src/riscv.cpp ****     asm("mv %[iargs], a3" : [iargs] "=r"(iargs));
 264:src/riscv.cpp **** 
 265:src/riscv.cpp ****     TCB *tcb = new TCB((TCB::Body)iroutine, (void*)iargs, (uint64*)istack, DEFAULT_TIME_SLICE);
 266:src/riscv.cpp **** 
 267:src/riscv.cpp ****     uint64 status = 0;
 268:src/riscv.cpp **** 
 269:src/riscv.cpp ****     if(tcb == nullptr){
 270:src/riscv.cpp ****         status = -1;
 271:src/riscv.cpp ****     }
 272:src/riscv.cpp ****     else{
 273:src/riscv.cpp ****         tcb->body = (TCB::Body)iroutine;
 274:src/riscv.cpp ****         tcb->args = (void*)iargs;
 275:src/riscv.cpp ****         *((TCB**)ihandle) = tcb;
 276:src/riscv.cpp ****     }
 277:src/riscv.cpp **** 
 278:src/riscv.cpp ****     asm("mv a0, %[status]" : : [status] "r" (status));
 279:src/riscv.cpp **** 
 280:src/riscv.cpp ****     RiscV::saveA0toSscratch();
 281:src/riscv.cpp **** }
 282:src/riscv.cpp **** 
 283:src/riscv.cpp **** void RiscV::executeThreadStartSyscall(){
 284:src/riscv.cpp **** 
 285:src/riscv.cpp ****     //fetch the arguments from a0-a7 registers
 286:src/riscv.cpp ****     uint64 ihandle;
 287:src/riscv.cpp **** 
 288:src/riscv.cpp ****     asm("mv %[ihandle], a1" : [ihandle] "=r"(ihandle));
 289:src/riscv.cpp **** 
 290:src/riscv.cpp ****     //get the handle and put tcb in scheduler if not null
 291:src/riscv.cpp ****     TCB* tcb =(TCB*)ihandle;
 292:src/riscv.cpp **** 
 293:src/riscv.cpp ****     uint64 status = 0;
 294:src/riscv.cpp **** 
 295:src/riscv.cpp ****     if(tcb == nullptr){
 296:src/riscv.cpp ****         status = -1;
 297:src/riscv.cpp ****     }
 298:src/riscv.cpp ****     else{
 299:src/riscv.cpp ****         tcb->status = TCB::Status::READY;
 300:src/riscv.cpp ****         Scheduler::put(tcb);
 301:src/riscv.cpp ****         TCB::dispatch();
 302:src/riscv.cpp ****     }
 303:src/riscv.cpp **** 
 304:src/riscv.cpp ****     //return status
 305:src/riscv.cpp ****     asm("mv a0, %[status]" : : [status] "r" (status));
 306:src/riscv.cpp **** 
 307:src/riscv.cpp ****     RiscV::saveA0toSscratch();
 308:src/riscv.cpp **** }
 309:src/riscv.cpp **** 
 310:src/riscv.cpp **** void RiscV::executeThreadExitSyscall() {
 311:src/riscv.cpp **** 
 312:src/riscv.cpp ****     //fetch the arguments from a0-a7 registers
 313:src/riscv.cpp ****     uint64 status = 0;
GAS LISTING /tmp/ccvbDvuT.s 			page 13


 314:src/riscv.cpp **** 
 315:src/riscv.cpp ****     //if thread not null, set status to finished and dispatch
 316:src/riscv.cpp ****     if(TCB::running == nullptr){
 317:src/riscv.cpp ****         status = -1;
 318:src/riscv.cpp ****     }
 319:src/riscv.cpp ****     else{
 320:src/riscv.cpp ****         TCB* old = TCB::running;
 321:src/riscv.cpp ****         old->status = TCB::Status::FINISHED;
 322:src/riscv.cpp ****         TCB::dispatch();
 323:src/riscv.cpp ****     }
 324:src/riscv.cpp **** 
 325:src/riscv.cpp ****     asm("mv a0, %[status]" : : [status] "r" (status));
 326:src/riscv.cpp **** 
 327:src/riscv.cpp ****     RiscV::saveA0toSscratch();
 328:src/riscv.cpp **** }
 329:src/riscv.cpp **** 
 330:src/riscv.cpp **** void RiscV::executeThreadDispatchSyscall(){
 166              		.loc 1 330 43 is_stmt 1
 167              		.cfi_startproc
 168 00a4 130101FF 		addi	sp,sp,-16
 169              		.cfi_def_cfa_offset 16
 170 00a8 23341100 		sd	ra,8(sp)
 171 00ac 23308100 		sd	s0,0(sp)
 172              		.cfi_offset 1, -8
 173              		.cfi_offset 8, -16
 174 00b0 13040101 		addi	s0,sp,16
 175              		.cfi_def_cfa 8, 0
 331:src/riscv.cpp **** 
 332:src/riscv.cpp ****     //dispatch current running thread
 333:src/riscv.cpp ****     TCB* old = TCB::running;
 176              		.loc 1 333 5
 177              		.loc 1 333 10 is_stmt 0
 178 00b4 97070000 		la	a5,_ZN3TCB7runningE
 178      83B70700 
 179 00bc 83B70700 		ld	a5,0(a5)
 180              	.LVL10:
 334:src/riscv.cpp ****     old->status = TCB::Status::READY;
 181              		.loc 1 334 5 is_stmt 1
 182              		.loc 1 334 17 is_stmt 0
 183 00c0 13071000 		li	a4,1
 184 00c4 23A8E700 		sw	a4,16(a5)
 335:src/riscv.cpp ****     TCB::dispatch();
 185              		.loc 1 335 5 is_stmt 1
 186              		.loc 1 335 18 is_stmt 0
 187 00c8 97000000 		call	_ZN3TCB8dispatchEv@plt
 187      E7800000 
 188              	.LVL11:
 336:src/riscv.cpp **** }
 189              		.loc 1 336 1
 190 00d0 83308100 		ld	ra,8(sp)
 191              		.cfi_restore 1
 192 00d4 03340100 		ld	s0,0(sp)
 193              		.cfi_restore 8
 194              		.cfi_def_cfa 2, 16
 195 00d8 13010101 		addi	sp,sp,16
 196              		.cfi_def_cfa_offset 0
 197 00dc 67800000 		jr	ra
GAS LISTING /tmp/ccvbDvuT.s 			page 14


 198              		.cfi_endproc
 199              	.LFE46:
 201              		.align	2
 202              		.globl	_ZN5RiscV18executePutcSyscallEv
 204              	_ZN5RiscV18executePutcSyscallEv:
 205              	.LFB53:
 337:src/riscv.cpp **** 
 338:src/riscv.cpp **** void RiscV::executeSemOpenSyscall() {
 339:src/riscv.cpp **** 
 340:src/riscv.cpp ****     //fetch the arguments from a0-a7 registers
 341:src/riscv.cpp ****     uint64 ihandle, iinit;
 342:src/riscv.cpp **** 
 343:src/riscv.cpp ****     asm("mv %[ihandle], a1" : [ihandle] "=r"(ihandle));
 344:src/riscv.cpp ****     asm("mv %[iinit], a2" : [iinit] "=r"(iinit));
 345:src/riscv.cpp **** 
 346:src/riscv.cpp ****     //create new Semaphore Control Block and write it into ihandle if not null
 347:src/riscv.cpp ****     SCB *scb = new SCB(iinit);
 348:src/riscv.cpp **** 
 349:src/riscv.cpp ****     uint64 status = 0;
 350:src/riscv.cpp **** 
 351:src/riscv.cpp ****     if(scb == nullptr){
 352:src/riscv.cpp ****         status = -1;
 353:src/riscv.cpp ****     }
 354:src/riscv.cpp ****     else{
 355:src/riscv.cpp ****         *((SCB**)ihandle) = scb;
 356:src/riscv.cpp ****     }
 357:src/riscv.cpp **** 
 358:src/riscv.cpp ****     //return status
 359:src/riscv.cpp ****     asm("mv a0, %[status]" : : [status] "r" (status));
 360:src/riscv.cpp **** 
 361:src/riscv.cpp ****     RiscV::saveA0toSscratch();
 362:src/riscv.cpp **** 
 363:src/riscv.cpp **** }
 364:src/riscv.cpp **** 
 365:src/riscv.cpp **** void RiscV::executeSemCloseSyscall() {
 366:src/riscv.cpp **** 
 367:src/riscv.cpp ****     //fetch the arguments from a0-a7 registers
 368:src/riscv.cpp ****     uint64 ihandle;
 369:src/riscv.cpp **** 
 370:src/riscv.cpp ****     asm("mv %[ihandle], a1" : [ihandle] "=r"(ihandle));
 371:src/riscv.cpp **** 
 372:src/riscv.cpp ****     //delete scb if not null
 373:src/riscv.cpp ****     SCB *scb = (SCB*)ihandle;
 374:src/riscv.cpp ****     uint64 status = 0;
 375:src/riscv.cpp **** 
 376:src/riscv.cpp ****     if(scb == nullptr){
 377:src/riscv.cpp ****         status = -1;
 378:src/riscv.cpp ****     }
 379:src/riscv.cpp ****     else
 380:src/riscv.cpp ****         delete (SCB*)ihandle;
 381:src/riscv.cpp **** 
 382:src/riscv.cpp ****     //return status
 383:src/riscv.cpp ****     asm("mv a0, %[status]" : : [status] "r" (status));
 384:src/riscv.cpp **** 
 385:src/riscv.cpp ****     RiscV::saveA0toSscratch();
 386:src/riscv.cpp **** }
 387:src/riscv.cpp **** 
GAS LISTING /tmp/ccvbDvuT.s 			page 15


 388:src/riscv.cpp **** void RiscV::executeSemWaitSyscall() {
 389:src/riscv.cpp **** 
 390:src/riscv.cpp ****     //fetch the arguments from a0-a7 registers
 391:src/riscv.cpp ****     uint64 ihandle;
 392:src/riscv.cpp **** 
 393:src/riscv.cpp ****     asm("mv %[ihandle], a1" : [ihandle] "=r"(ihandle));
 394:src/riscv.cpp **** 
 395:src/riscv.cpp ****     uint64 status = 0;
 396:src/riscv.cpp ****     //call wait method on ihandle scb
 397:src/riscv.cpp **** 
 398:src/riscv.cpp ****     if(((SCB*)ihandle) != nullptr)
 399:src/riscv.cpp ****         ((SCB*)ihandle)->wait();
 400:src/riscv.cpp ****     else
 401:src/riscv.cpp ****         status = -1;
 402:src/riscv.cpp **** 
 403:src/riscv.cpp ****     if(TCB::running->semError != nullptr)
 404:src/riscv.cpp ****         status = -1;
 405:src/riscv.cpp ****     else
 406:src/riscv.cpp ****         status = 0;
 407:src/riscv.cpp **** 
 408:src/riscv.cpp ****     //return status
 409:src/riscv.cpp ****     asm("mv a0, %[status]" : : [status] "r" (status));
 410:src/riscv.cpp **** 
 411:src/riscv.cpp ****     RiscV::saveA0toSscratch();
 412:src/riscv.cpp **** 
 413:src/riscv.cpp **** }
 414:src/riscv.cpp **** 
 415:src/riscv.cpp **** void RiscV::executeSemSignalSyscall() {
 416:src/riscv.cpp **** 
 417:src/riscv.cpp ****     //fetch the arguments from a0-a7 registers
 418:src/riscv.cpp ****     uint64 ihandle;
 419:src/riscv.cpp **** 
 420:src/riscv.cpp ****     asm("mv %[ihandle], a1" : [ihandle] "=r"(ihandle));
 421:src/riscv.cpp **** 
 422:src/riscv.cpp ****     //call signal method on ihandle scb
 423:src/riscv.cpp **** 
 424:src/riscv.cpp ****     uint64 status = 0;
 425:src/riscv.cpp **** 
 426:src/riscv.cpp ****     if(((SCB*)ihandle) != nullptr)
 427:src/riscv.cpp ****         ((SCB*)ihandle)->signal();
 428:src/riscv.cpp ****     else
 429:src/riscv.cpp ****         status = -1;
 430:src/riscv.cpp **** 
 431:src/riscv.cpp ****     //return status
 432:src/riscv.cpp ****     asm("mv a0, %[status]" : : [status] "r" (status));
 433:src/riscv.cpp **** 
 434:src/riscv.cpp ****     RiscV::saveA0toSscratch();
 435:src/riscv.cpp **** }
 436:src/riscv.cpp **** 
 437:src/riscv.cpp **** void RiscV::executeTimeSleepSyscall() {
 438:src/riscv.cpp **** 
 439:src/riscv.cpp ****     //fetch the arguments from a0-a7 registers
 440:src/riscv.cpp ****     uint64 itime;
 441:src/riscv.cpp **** 
 442:src/riscv.cpp ****     asm("mv %[itime], a1" : [itime] "=r"(itime));
 443:src/riscv.cpp **** 
 444:src/riscv.cpp ****     //calculate wake time for running thread and put it to sleep
GAS LISTING /tmp/ccvbDvuT.s 			page 16


 445:src/riscv.cpp ****     //fetch new running with dispatch
 446:src/riscv.cpp ****     TCB* tcb = TCB::running;
 447:src/riscv.cpp ****     tcb->sleepTime = globalTime;
 448:src/riscv.cpp ****     tcb->wakeTime = globalTime + itime;
 449:src/riscv.cpp **** 
 450:src/riscv.cpp ****     Scheduler::sleep(tcb);
 451:src/riscv.cpp **** 
 452:src/riscv.cpp ****     tcb->status = TCB::Status::BLOCKED;
 453:src/riscv.cpp **** 
 454:src/riscv.cpp ****     TCB::dispatch();
 455:src/riscv.cpp **** 
 456:src/riscv.cpp ****     uint64 status = 0;
 457:src/riscv.cpp **** 
 458:src/riscv.cpp ****     //return status
 459:src/riscv.cpp ****     asm("mv a0, %[status]" : : [status] "r" (status));
 460:src/riscv.cpp **** 
 461:src/riscv.cpp ****     RiscV::saveA0toSscratch();
 462:src/riscv.cpp **** }
 463:src/riscv.cpp **** 
 464:src/riscv.cpp **** void RiscV::executeGetcSyscall() {
 465:src/riscv.cpp **** 
 466:src/riscv.cpp ****     //register a pending getc call
 467:src/riscv.cpp ****     if(!userMainFinished)
 468:src/riscv.cpp ****         ConsoleUtil::pendingGetc++;
 469:src/riscv.cpp **** 
 470:src/riscv.cpp ****     //get character from input buffer
 471:src/riscv.cpp ****     char c = ConsoleUtil::getInput();
 472:src/riscv.cpp **** 
 473:src/riscv.cpp ****     //if char == \n echo it as LF and CR
 474:src/riscv.cpp ****     if(c==13) {
 475:src/riscv.cpp ****         ConsoleUtil::putOutput(13);
 476:src/riscv.cpp ****         ConsoleUtil::putOutput(10);
 477:src/riscv.cpp ****     }
 478:src/riscv.cpp ****     //if not ESC character, echo it to console
 479:src/riscv.cpp ****     else if(c!=0x01b)
 480:src/riscv.cpp ****         ConsoleUtil::putOutput(c);
 481:src/riscv.cpp **** 
 482:src/riscv.cpp ****     //return character
 483:src/riscv.cpp ****     asm("mv a0, %[c]" : : [c] "r" (c));
 484:src/riscv.cpp **** 
 485:src/riscv.cpp ****     RiscV::saveA0toSscratch();
 486:src/riscv.cpp **** }
 487:src/riscv.cpp **** 
 488:src/riscv.cpp **** void RiscV::executePutcSyscall() {
 206              		.loc 1 488 34 is_stmt 1
 207              		.cfi_startproc
 208 00e0 130101FF 		addi	sp,sp,-16
 209              		.cfi_def_cfa_offset 16
 210 00e4 23341100 		sd	ra,8(sp)
 211 00e8 23308100 		sd	s0,0(sp)
 212              		.cfi_offset 1, -8
 213              		.cfi_offset 8, -16
 214 00ec 13040101 		addi	s0,sp,16
 215              		.cfi_def_cfa 8, 0
 489:src/riscv.cpp **** 
 490:src/riscv.cpp ****     //register a pending putc call
 491:src/riscv.cpp ****     if(!userMainFinished)
GAS LISTING /tmp/ccvbDvuT.s 			page 17


 216              		.loc 1 491 5
 217              		.loc 1 491 8 is_stmt 0
 218 00f0 97070000 		lbu	a5,.LANCHOR0
 218      83C70700 
 219              		.loc 1 491 5
 220 00f8 639C0700 		bnez	a5,.L8
 492:src/riscv.cpp ****         ConsoleUtil::pendingPutc++;
 221              		.loc 1 492 9 is_stmt 1
 222              		.loc 1 492 33 is_stmt 0
 223 00fc 17070000 		la	a4,_ZN11ConsoleUtil11pendingPutcE
 223      03370700 
 224 0104 83370700 		ld	a5,0(a4)
 225 0108 93871700 		addi	a5,a5,1
 226 010c 2330F700 		sd	a5,0(a4)
 227              	.L8:
 493:src/riscv.cpp **** 
 494:src/riscv.cpp ****     char c;
 228              		.loc 1 494 5 is_stmt 1
 495:src/riscv.cpp **** 
 496:src/riscv.cpp ****     asm("mv %[c], a1" : [c] "=r"(c));
 229              		.loc 1 496 5
 230              		.loc 1 496 37 is_stmt 0
 231              	#APP
 232              	# 496 "src/riscv.cpp" 1
 497              	
 233              		mv a0, a1
 234              	# 0 "" 2
 235              	.LVL12:
 498:src/riscv.cpp ****     //put character in output buffer
 499:src/riscv.cpp ****     ConsoleUtil::putOutput(c);
 236              		.loc 1 499 5 is_stmt 1
 237              		.loc 1 499 27 is_stmt 0
 238              	#NO_APP
 239 0114 1375F50F 		andi	a0,a0,0xff
 240 0118 97000000 		call	_ZN11ConsoleUtil9putOutputEc@plt
 240      E7800000 
 241              	.LVL13:
 500:src/riscv.cpp **** }
 242              		.loc 1 500 1
 243 0120 83308100 		ld	ra,8(sp)
 244              		.cfi_restore 1
 245 0124 03340100 		ld	s0,0(sp)
 246              		.cfi_restore 8
 247              		.cfi_def_cfa 2, 16
 248 0128 13010101 		addi	sp,sp,16
 249              		.cfi_def_cfa_offset 0
 250 012c 67800000 		jr	ra
 251              		.cfi_endproc
 252              	.LFE53:
 254              		.align	2
 255              		.globl	_ZN5RiscV11putcWrapperEPv
 257              	_ZN5RiscV11putcWrapperEPv:
 258              	.LFB54:
 501:src/riscv.cpp **** 
 502:src/riscv.cpp **** //wrapper function for putcThread
 503:src/riscv.cpp **** //spins in a while loop and checks whether console is ready to take output
 504:src/riscv.cpp **** //if ready read data from output buffer
GAS LISTING /tmp/ccvbDvuT.s 			page 18


 505:src/riscv.cpp **** void RiscV::putcWrapper(void* arg)
 506:src/riscv.cpp **** {
 259              		.loc 1 506 1 is_stmt 1
 260              		.cfi_startproc
 261              	.LVL14:
 262 0130 130101FE 		addi	sp,sp,-32
 263              		.cfi_def_cfa_offset 32
 264 0134 233C1100 		sd	ra,24(sp)
 265 0138 23388100 		sd	s0,16(sp)
 266              		.cfi_offset 1, -8
 267              		.cfi_offset 8, -16
 268 013c 13040102 		addi	s0,sp,32
 269              		.cfi_def_cfa 8, 0
 270 0140 6F00C000 		j	.L11
 271              	.LVL15:
 272              	.L12:
 273              	.LBB100:
 274              	.LBB101:
 507:src/riscv.cpp ****     while(true)
 508:src/riscv.cpp ****     {
 509:src/riscv.cpp ****         //read console status from status register
 510:src/riscv.cpp ****         uint64 status = CONSOLE_STATUS;
 511:src/riscv.cpp ****         asm("mv a0, %[status]" : : [status] "r" (status));
 512:src/riscv.cpp ****         asm("lb a1, 0(a0)");
 513:src/riscv.cpp ****         asm("mv %[status], a1" : [status] "=r" (status));
 514:src/riscv.cpp **** 
 515:src/riscv.cpp ****         //if console ready..
 516:src/riscv.cpp ****         if(status & 1UL<<5){
 517:src/riscv.cpp **** 
 518:src/riscv.cpp ****             //get character from output buffer with possible block if nothing in buffer
 519:src/riscv.cpp ****                 char volatile c = ConsoleUtil::putcUtilSyscall();
 520:src/riscv.cpp ****                 uint64 data = CONSOLE_RX_DATA;
 521:src/riscv.cpp ****                 asm("mv a0, %[data]" : : [data] "r"(data));
 522:src/riscv.cpp ****                 asm("mv a1, %[c]" : : [c] "r"(c));
 523:src/riscv.cpp ****                 asm("sb a1,0(a0)");
 524:src/riscv.cpp **** 
 525:src/riscv.cpp ****             //decrement number of pending putc requests
 526:src/riscv.cpp ****             if(ConsoleUtil::pendingPutc>0)
 527:src/riscv.cpp ****                 ConsoleUtil::pendingPutc--;
 528:src/riscv.cpp ****         }
 529:src/riscv.cpp ****         else
 530:src/riscv.cpp ****             thread_dispatch();
 275              		.loc 1 530 13
 276              		.loc 1 530 28 is_stmt 0
 277 0144 97000000 		call	_Z15thread_dispatchv@plt
 277      E7800000 
 278              	.LVL16:
 279              	.L11:
 280              	.LBE101:
 281              	.LBE100:
 507:src/riscv.cpp ****     while(true)
 282              		.loc 1 507 5 is_stmt 1
 283              	.LBB104:
 510:src/riscv.cpp ****         asm("mv a0, %[status]" : : [status] "r" (status));
 284              		.loc 1 510 9
 510:src/riscv.cpp ****         asm("mv a0, %[status]" : : [status] "r" (status));
 285              		.loc 1 510 16 is_stmt 0
GAS LISTING /tmp/ccvbDvuT.s 			page 19


 286 014c 97070000 		la	a5,CONSOLE_STATUS
 286      83B70700 
 287 0154 83B70700 		ld	a5,0(a5)
 288              	.LVL17:
 511:src/riscv.cpp ****         asm("lb a1, 0(a0)");
 289              		.loc 1 511 9 is_stmt 1
 511:src/riscv.cpp ****         asm("lb a1, 0(a0)");
 290              		.loc 1 511 58 is_stmt 0
 291              	#APP
 292              	# 511 "src/riscv.cpp" 1
 512:src/riscv.cpp ****         asm("mv %[status], a1" : [status] "=r" (status));
 293              		mv a0, a5
 294              	# 0 "" 2
 295              		.loc 1 512 9 is_stmt 1
 512:src/riscv.cpp ****         asm("mv %[status], a1" : [status] "=r" (status));
 296              		.loc 1 512 28 is_stmt 0
 297              	# 512 "src/riscv.cpp" 1
 513:src/riscv.cpp **** 
 298              		lb a1, 0(a0)
 299              	# 0 "" 2
 300              		.loc 1 513 9 is_stmt 1
 513:src/riscv.cpp **** 
 301              		.loc 1 513 57 is_stmt 0
 302              	# 513 "src/riscv.cpp" 1
 303              		mv a5, a1
 304              	# 0 "" 2
 305              	.LVL18:
 516:src/riscv.cpp **** 
 306              		.loc 1 516 9 is_stmt 1
 307              	#NO_APP
 308              	.LBB103:
 516:src/riscv.cpp **** 
 309              		.loc 1 516 19 is_stmt 0
 310 0164 93F70702 		andi	a5,a5,32
 311              	.LVL19:
 516:src/riscv.cpp **** 
 312              		.loc 1 516 9
 313 0168 E38E07FC 		beqz	a5,.L12
 314              	.LBB102:
 519:src/riscv.cpp ****                 uint64 data = CONSOLE_RX_DATA;
 315              		.loc 1 519 17 is_stmt 1
 519:src/riscv.cpp ****                 uint64 data = CONSOLE_RX_DATA;
 316              		.loc 1 519 63 is_stmt 0
 317 016c 97000000 		call	_ZN11ConsoleUtil15putcUtilSyscallEv@plt
 317      E7800000 
 318              	.LVL20:
 519:src/riscv.cpp ****                 uint64 data = CONSOLE_RX_DATA;
 319              		.loc 1 519 64
 320 0174 A307A4FE 		sb	a0,-17(s0)
 520:src/riscv.cpp ****                 asm("mv a0, %[data]" : : [data] "r"(data));
 321              		.loc 1 520 17 is_stmt 1
 520:src/riscv.cpp ****                 asm("mv a0, %[data]" : : [data] "r"(data));
 322              		.loc 1 520 24 is_stmt 0
 323 0178 97070000 		la	a5,CONSOLE_RX_DATA
 323      83B70700 
 324 0180 83B70700 		ld	a5,0(a5)
 325              	.LVL21:
GAS LISTING /tmp/ccvbDvuT.s 			page 20


 521:src/riscv.cpp ****                 asm("mv a1, %[c]" : : [c] "r"(c));
 326              		.loc 1 521 17 is_stmt 1
 521:src/riscv.cpp ****                 asm("mv a1, %[c]" : : [c] "r"(c));
 327              		.loc 1 521 59 is_stmt 0
 328              	#APP
 329              	# 521 "src/riscv.cpp" 1
 522:src/riscv.cpp ****                 asm("sb a1,0(a0)");
 330              		mv a0, a5
 331              	# 0 "" 2
 332              		.loc 1 522 17 is_stmt 1
 522:src/riscv.cpp ****                 asm("sb a1,0(a0)");
 333              		.loc 1 522 47 is_stmt 0
 334              	#NO_APP
 335 0188 8347F4FE 		lbu	a5,-17(s0)
 336              	.LVL22:
 522:src/riscv.cpp ****                 asm("sb a1,0(a0)");
 337              		.loc 1 522 50
 338              	#APP
 339              	# 522 "src/riscv.cpp" 1
 523:src/riscv.cpp **** 
 340              		mv a1, a5
 341              	# 0 "" 2
 342              		.loc 1 523 17 is_stmt 1
 523:src/riscv.cpp **** 
 343              		.loc 1 523 35 is_stmt 0
 344              	# 523 "src/riscv.cpp" 1
 526:src/riscv.cpp ****                 ConsoleUtil::pendingPutc--;
 345              		sb a1,0(a0)
 346              	# 0 "" 2
 347              		.loc 1 526 13 is_stmt 1
 526:src/riscv.cpp ****                 ConsoleUtil::pendingPutc--;
 348              		.loc 1 526 40 is_stmt 0
 349              	#NO_APP
 350 0194 97070000 		la	a5,_ZN11ConsoleUtil11pendingPutcE
 350      83B70700 
 351 019c 83B70700 		ld	a5,0(a5)
 526:src/riscv.cpp ****                 ConsoleUtil::pendingPutc--;
 352              		.loc 1 526 13
 353 01a0 E38607FA 		beqz	a5,.L11
 527:src/riscv.cpp ****         }
 354              		.loc 1 527 17 is_stmt 1
 527:src/riscv.cpp ****         }
 355              		.loc 1 527 41 is_stmt 0
 356 01a4 9387F7FF 		addi	a5,a5,-1
 357 01a8 17070000 		la	a4,_ZN11ConsoleUtil11pendingPutcE
 357      03370700 
 358 01b0 2330F700 		sd	a5,0(a4)
 359 01b4 6FF09FF9 		j	.L11
 360              	.LBE102:
 361              	.LBE103:
 362              	.LBE104:
 363              		.cfi_endproc
 364              	.LFE54:
 366              		.align	2
 367              		.globl	_ZN5RiscV29jumpToDesignatedPrivilegeModeEv
 369              	_ZN5RiscV29jumpToDesignatedPrivilegeModeEv:
 370              	.LFB56:
GAS LISTING /tmp/ccvbDvuT.s 			page 21


 531:src/riscv.cpp ****     }
 532:src/riscv.cpp **** }
 533:src/riscv.cpp **** 
 534:src/riscv.cpp **** //utility syscall to get character from output buffer
 535:src/riscv.cpp **** //syscall is needed because we don't want to fiddle with kernel structures from anywhere but the tr
 536:src/riscv.cpp **** void RiscV::executePutcUtilSyscall() {
 537:src/riscv.cpp ****     char c = ConsoleUtil::getOutput();
 538:src/riscv.cpp ****     asm("mv a0, %[c]" : : [c] "r" ((uint64)(c)) );
 539:src/riscv.cpp **** 
 540:src/riscv.cpp ****     RiscV::saveA0toSscratch();
 541:src/riscv.cpp **** }
 542:src/riscv.cpp **** 
 543:src/riscv.cpp **** //return to privilege that was given at creation
 544:src/riscv.cpp **** void RiscV::jumpToDesignatedPrivilegeMode() {
 371              		.loc 1 544 45 is_stmt 1
 372              		.cfi_startproc
 373 01b8 130101FF 		addi	sp,sp,-16
 374              		.cfi_def_cfa_offset 16
 375 01bc 23348100 		sd	s0,8(sp)
 376              		.cfi_offset 8, -8
 377 01c0 13040101 		addi	s0,sp,16
 378              		.cfi_def_cfa 8, 0
 545:src/riscv.cpp ****     if(TCB::running->mode == TCB::Mode::SUPERVISOR)
 379              		.loc 1 545 5
 380              		.loc 1 545 22 is_stmt 0
 381 01c4 97070000 		la	a5,_ZN3TCB7runningE
 381      83B70700 
 382 01cc 83B70700 		ld	a5,0(a5)
 383 01d0 03A74701 		lw	a4,20(a5)
 384              		.loc 1 545 5
 385 01d4 93071000 		li	a5,1
 386 01d8 630CF700 		beq	a4,a5,.L19
 546:src/riscv.cpp ****         RiscV::ms_sstatus(RiscV::SSTATUS_SPP);
 547:src/riscv.cpp ****     else
 548:src/riscv.cpp ****         RiscV::mc_sstatus(RiscV::SSTATUS_SPP);
 387              		.loc 1 548 9 is_stmt 1
 388              	.LVL23:
 389              	.LBB105:
 390              	.LBB106:
 176:src/../h/riscv.hpp **** }
 391              		.loc 2 176 5
 176:src/../h/riscv.hpp **** }
 392              		.loc 2 176 55 is_stmt 0
 393 01dc 93070010 		li	a5,256
 394              	#APP
 395              	# 176 "src/../h/riscv.hpp" 1
 396              		csrc sstatus, a5
 397              	# 0 "" 2
 398              	.LVL24:
 399              	#NO_APP
 400              	.L15:
 401              	.LBE106:
 402              	.LBE105:
 549:src/riscv.cpp **** }
 403              		.loc 1 549 1
 404 01e4 03348100 		ld	s0,8(sp)
 405              		.cfi_remember_state
GAS LISTING /tmp/ccvbDvuT.s 			page 22


 406              		.cfi_restore 8
 407              		.cfi_def_cfa 2, 16
 408 01e8 13010101 		addi	sp,sp,16
 409              		.cfi_def_cfa_offset 0
 410 01ec 67800000 		jr	ra
 411              	.L19:
 412              		.cfi_restore_state
 546:src/riscv.cpp ****         RiscV::ms_sstatus(RiscV::SSTATUS_SPP);
 413              		.loc 1 546 9 is_stmt 1
 414              	.LVL25:
 415              	.LBB107:
 416              	.LBB108:
 172:src/../h/riscv.hpp **** }
 417              		.loc 2 172 5
 172:src/../h/riscv.hpp **** }
 418              		.loc 2 172 55 is_stmt 0
 419 01f0 93070010 		li	a5,256
 420              	#APP
 421              	# 172 "src/../h/riscv.hpp" 1
 173:src/../h/riscv.hpp **** 
 422              		csrs sstatus, a5
 423              	# 0 "" 2
 424              		.loc 2 173 1
 425              	#NO_APP
 426 01f8 6FF0DFFE 		j	.L15
 427              	.LBE108:
 428              	.LBE107:
 429              		.cfi_endproc
 430              	.LFE56:
 432              		.align	2
 433              		.globl	_ZN5RiscV8finalizeEv
 435              	_ZN5RiscV8finalizeEv:
 436              	.LFB57:
 550:src/riscv.cpp **** 
 551:src/riscv.cpp **** 
 552:src/riscv.cpp **** //clear out the scheduler and let console finish remaining outputs if there are any
 553:src/riscv.cpp **** void RiscV::finalize() {
 437              		.loc 1 553 24 is_stmt 1
 438              		.cfi_startproc
 439 01fc 130101FF 		addi	sp,sp,-16
 440              		.cfi_def_cfa_offset 16
 441 0200 23341100 		sd	ra,8(sp)
 442 0204 23308100 		sd	s0,0(sp)
 443              		.cfi_offset 1, -8
 444              		.cfi_offset 8, -16
 445 0208 13040101 		addi	s0,sp,16
 446              		.cfi_def_cfa 8, 0
 554:src/riscv.cpp ****     userMainFinished = true;
 447              		.loc 1 554 5
 448              		.loc 1 554 22 is_stmt 0
 449 020c 93071000 		li	a5,1
 450 0210 17070000 		sb	a5,.LANCHOR0,a4
 450      2300F700 
 555:src/riscv.cpp **** 
 556:src/riscv.cpp ****     ConsoleUtil::pendingPutc = 0;
 451              		.loc 1 556 5 is_stmt 1
 452              		.loc 1 556 30 is_stmt 0
GAS LISTING /tmp/ccvbDvuT.s 			page 23


 453 0218 97070000 		la	a5,_ZN11ConsoleUtil11pendingPutcE
 453      83B70700 
 454 0220 23B00700 		sd	zero,0(a5)
 557:src/riscv.cpp ****     ConsoleUtil::pendingGetc = 0;
 455              		.loc 1 557 5 is_stmt 1
 456              		.loc 1 557 30 is_stmt 0
 457 0224 97070000 		la	a5,_ZN11ConsoleUtil11pendingGetcE
 457      83B70700 
 458 022c 23B00700 		sd	zero,0(a5)
 558:src/riscv.cpp **** 
 559:src/riscv.cpp ****     RiscV::disableInterrupts();
 459              		.loc 1 559 5 is_stmt 1
 460              	.LBB109:
 461              	.LBB110:
 199:src/../h/riscv.hpp **** }
 200:src/../h/riscv.hpp **** 
 201:src/../h/riscv.hpp **** inline void RiscV::disableInterrupts() {
 202:src/../h/riscv.hpp ****     disableTimerInterrupts();
 462              		.loc 2 202 5
 463              	.LBE110:
 464              	.LBE109:
 203:src/../h/riscv.hpp ****     disableHardwareInterrupts();
 204:src/../h/riscv.hpp **** }
 205:src/../h/riscv.hpp **** 
 206:src/../h/riscv.hpp **** inline void RiscV::enableHardwareInterrupts() {
 207:src/../h/riscv.hpp ****     RiscV::mc_sie(SIP_SSIE);
 208:src/../h/riscv.hpp ****     RiscV::ms_sstatus(SSTATUS_SIE);
 209:src/../h/riscv.hpp ****     RiscV::ms_sie(SIP_SEIE);
 210:src/../h/riscv.hpp **** }
 211:src/../h/riscv.hpp **** 
 212:src/../h/riscv.hpp **** inline void RiscV::disableHardwareInterrupts(){
 213:src/../h/riscv.hpp ****     RiscV::mc_sie(SIP_SEIE);
 214:src/../h/riscv.hpp **** }
 215:src/../h/riscv.hpp **** 
 216:src/../h/riscv.hpp **** inline void RiscV::enableTimerInterrupts() {
 217:src/../h/riscv.hpp ****     RiscV::mc_sie(SIP_SEIE);
 218:src/../h/riscv.hpp ****     RiscV::ms_sstatus(SSTATUS_SIE);
 219:src/../h/riscv.hpp ****     RiscV::ms_sie(SIP_SSIE);
 220:src/../h/riscv.hpp **** }
 221:src/../h/riscv.hpp **** 
 222:src/../h/riscv.hpp **** inline void RiscV::disableTimerInterrupts(){
 223:src/../h/riscv.hpp ****     RiscV::mc_sie(SIP_SSIE);
 465              		.loc 2 223 5
 466              	.LVL26:
 467              	.LBB119:
 468              	.LBB117:
 469              	.LBB111:
 470              	.LBB112:
 471              	.LBB113:
 192:src/../h/riscv.hpp **** }
 472              		.loc 2 192 5
 192:src/../h/riscv.hpp **** }
 473              		.loc 2 192 51 is_stmt 0
 474 0230 93072000 		li	a5,2
 475              	#APP
 476              	# 192 "src/../h/riscv.hpp" 1
 477              		csrc sie, a5
GAS LISTING /tmp/ccvbDvuT.s 			page 24


 478              	# 0 "" 2
 479              	.LVL27:
 480              	#NO_APP
 481              	.LBE113:
 482              	.LBE112:
 483              	.LBE111:
 203:src/../h/riscv.hpp ****     disableHardwareInterrupts();
 484              		.loc 2 203 5 is_stmt 1
 485              	.LBE117:
 486              	.LBE119:
 213:src/../h/riscv.hpp **** }
 487              		.loc 2 213 5
 488              	.LBB120:
 489              	.LBB118:
 490              	.LBB114:
 491              	.LBB115:
 492              	.LBB116:
 192:src/../h/riscv.hpp **** }
 493              		.loc 2 192 5
 192:src/../h/riscv.hpp **** }
 494              		.loc 2 192 51 is_stmt 0
 495 0238 93070020 		li	a5,512
 496              	#APP
 497              	# 192 "src/../h/riscv.hpp" 1
 498              		csrc sie, a5
 499              	# 0 "" 2
 500              	.LVL28:
 501              	#NO_APP
 502              	.L22:
 503              	.LBE116:
 504              	.LBE115:
 505              	.LBE114:
 506              	.LBE118:
 507              	.LBE120:
 560:src/riscv.cpp **** 
 561:src/riscv.cpp ****     while(Scheduler::readyHead != nullptr)
 508              		.loc 1 561 5 is_stmt 1
 509              		.loc 1 561 32
 510 0240 97070000 		la	a5,_ZN9Scheduler9readyHeadE
 510      83B70700 
 511 0248 83B70700 		ld	a5,0(a5)
 512 024c 638C0700 		beqz	a5,.L21
 562:src/riscv.cpp ****         Scheduler::readyHead = Scheduler::readyHead->next;
 513              		.loc 1 562 9
 514              		.loc 1 562 54 is_stmt 0
 515 0250 03B78704 		ld	a4,72(a5)
 516              		.loc 1 562 30
 517 0254 97070000 		la	a5,_ZN9Scheduler9readyHeadE
 517      83B70700 
 518 025c 23B0E700 		sd	a4,0(a5)
 561:src/riscv.cpp ****         Scheduler::readyHead = Scheduler::readyHead->next;
 519              		.loc 1 561 5
 520 0260 6FF01FFE 		j	.L22
 521              	.L21:
 563:src/riscv.cpp **** 
 564:src/riscv.cpp ****     Scheduler::put(TCB::putcThread);
 522              		.loc 1 564 5 is_stmt 1
GAS LISTING /tmp/ccvbDvuT.s 			page 25


 523              		.loc 1 564 19 is_stmt 0
 524 0264 97070000 		la	a5,_ZN3TCB10putcThreadE
 524      83B70700 
 525 026c 03B50700 		ld	a0,0(a5)
 526 0270 97000000 		call	_ZN9Scheduler3putEP3TCB@plt
 526      E7800000 
 527              	.LVL29:
 528              	.L24:
 565:src/riscv.cpp **** 
 566:src/riscv.cpp ****     while(ConsoleUtil::outputHead != ConsoleUtil::outputTail)
 529              		.loc 1 566 5 is_stmt 1
 530              		.loc 1 566 35
 531 0278 97070000 		la	a5,_ZN11ConsoleUtil10outputHeadE
 531      83B70700 
 532 0280 03B70700 		ld	a4,0(a5)
 533 0284 97070000 		la	a5,_ZN11ConsoleUtil10outputTailE
 533      83B70700 
 534 028c 83B70700 		ld	a5,0(a5)
 535 0290 6308F700 		beq	a4,a5,.L20
 567:src/riscv.cpp ****         thread_dispatch();
 536              		.loc 1 567 9
 537              		.loc 1 567 24 is_stmt 0
 538 0294 97000000 		call	_Z15thread_dispatchv@plt
 538      E7800000 
 539              	.LVL30:
 566:src/riscv.cpp ****         thread_dispatch();
 540              		.loc 1 566 5
 541 029c 6FF0DFFD 		j	.L24
 542              	.L20:
 568:src/riscv.cpp **** }
 543              		.loc 1 568 1
 544 02a0 83308100 		ld	ra,8(sp)
 545              		.cfi_restore 1
 546 02a4 03340100 		ld	s0,0(sp)
 547              		.cfi_restore 8
 548              		.cfi_def_cfa 2, 16
 549 02a8 13010101 		addi	sp,sp,16
 550              		.cfi_def_cfa_offset 0
 551 02ac 67800000 		jr	ra
 552              		.cfi_endproc
 553              	.LFE57:
 555              		.align	2
 556              		.globl	_ZN5RiscV16saveA0toSscratchEv
 558              	_ZN5RiscV16saveA0toSscratchEv:
 559              	.LFB58:
 569:src/riscv.cpp **** 
 570:src/riscv.cpp **** //write value in a0 to a memory location where a0 is store on stack for currently running thread
 571:src/riscv.cpp **** void RiscV::saveA0toSscratch()
 572:src/riscv.cpp **** {
 560              		.loc 1 572 1 is_stmt 1
 561              		.cfi_startproc
 562 02b0 130101FF 		addi	sp,sp,-16
 563              		.cfi_def_cfa_offset 16
 564 02b4 23348100 		sd	s0,8(sp)
 565              		.cfi_offset 8, -8
 566 02b8 13040101 		addi	s0,sp,16
 567              		.cfi_def_cfa 8, 0
GAS LISTING /tmp/ccvbDvuT.s 			page 26


 573:src/riscv.cpp ****     uint64 a1;
 568              		.loc 1 573 5
 574:src/riscv.cpp ****     asm("mv %[a1], a1": [a1] "=r"(a1));
 569              		.loc 1 574 5
 570              		.loc 1 574 39 is_stmt 0
 571              	#APP
 572              	# 574 "src/riscv.cpp" 1
 575              	    asm("mv a1, %[a0]" : :  [a0] "r"(TCB::running->a0Location));
 573              		mv a5, a1
 574              	# 0 "" 2
 575              		.loc 1 575 5 is_stmt 1
 576              		.loc 1 575 52 is_stmt 0
 577              	#NO_APP
 578 02c0 17070000 		la	a4,_ZN3TCB7runningE
 578      03370700 
 579 02c8 03370700 		ld	a4,0(a4)
 580 02cc 03378706 		ld	a4,104(a4)
 581              		.loc 1 575 64
 582              	#APP
 583              	# 575 "src/riscv.cpp" 1
 576              	    asm("sd a0, 80(a1)");
 584              		mv a1, a4
 585              	# 0 "" 2
 586              		.loc 1 576 5 is_stmt 1
 587              		.loc 1 576 25 is_stmt 0
 588              	# 576 "src/riscv.cpp" 1
 577              	    asm("mv a1,%[a1]"::  [a1]"r"(a1));
 589              		sd a0, 80(a1)
 590              	# 0 "" 2
 591              		.loc 1 577 5 is_stmt 1
 592              		.loc 1 577 38 is_stmt 0
 593              	# 577 "src/riscv.cpp" 1
 578              	}
 594              		mv a1,a5
 595              	# 0 "" 2
 596              		.loc 1 578 1
 597              	#NO_APP
 598 02dc 03348100 		ld	s0,8(sp)
 599              		.cfi_restore 8
 600              		.cfi_def_cfa 2, 16
 601 02e0 13010101 		addi	sp,sp,16
 602              		.cfi_def_cfa_offset 0
 603 02e4 67800000 		jr	ra
 604              		.cfi_endproc
 605              	.LFE58:
 607              		.align	2
 608              		.globl	_ZN5RiscV22executeMemAllocSyscallEv
 610              	_ZN5RiscV22executeMemAllocSyscallEv:
 611              	.LFB40:
 190:src/riscv.cpp **** 
 612              		.loc 1 190 37 is_stmt 1
 613              		.cfi_startproc
 614 02e8 130101FF 		addi	sp,sp,-16
 615              		.cfi_def_cfa_offset 16
 616 02ec 23341100 		sd	ra,8(sp)
 617 02f0 23308100 		sd	s0,0(sp)
 618              		.cfi_offset 1, -8
GAS LISTING /tmp/ccvbDvuT.s 			page 27


 619              		.cfi_offset 8, -16
 620 02f4 13040101 		addi	s0,sp,16
 621              		.cfi_def_cfa 8, 0
 193:src/riscv.cpp ****     asm("mv %[size], a1" : [size] "=r" (size));
 622              		.loc 1 193 5
 194:src/riscv.cpp **** 
 623              		.loc 1 194 5
 194:src/riscv.cpp **** 
 624              		.loc 1 194 47 is_stmt 0
 625              	#APP
 626              	# 194 "src/riscv.cpp" 1
 627              		mv a0, a1
 628              	# 0 "" 2
 629              	.LVL31:
 197:src/riscv.cpp **** 
 630              		.loc 1 197 5 is_stmt 1
 197:src/riscv.cpp **** 
 631              		.loc 1 197 50 is_stmt 0
 632              	#NO_APP
 633 02fc 97000000 		call	_ZN15MemoryAllocator7kmallocEm@plt
 633      E7800000 
 634              	.LVL32:
 199:src/riscv.cpp **** 
 635              		.loc 1 199 5 is_stmt 1
 199:src/riscv.cpp **** 
 636              		.loc 1 199 48 is_stmt 0
 637              	#APP
 638              	# 199 "src/riscv.cpp" 1
 201:src/riscv.cpp **** }
 639              		mv a0, a0
 640              	# 0 "" 2
 641              		.loc 1 201 5 is_stmt 1
 201:src/riscv.cpp **** }
 642              		.loc 1 201 28 is_stmt 0
 643              	#NO_APP
 644 0308 97000000 		call	_ZN5RiscV16saveA0toSscratchEv
 644      E7800000 
 645              	.LVL33:
 202:src/riscv.cpp **** 
 646              		.loc 1 202 1
 647 0310 83308100 		ld	ra,8(sp)
 648              		.cfi_restore 1
 649 0314 03340100 		ld	s0,0(sp)
 650              		.cfi_restore 8
 651              		.cfi_def_cfa 2, 16
 652 0318 13010101 		addi	sp,sp,16
 653              		.cfi_def_cfa_offset 0
 654 031c 67800000 		jr	ra
 655              		.cfi_endproc
 656              	.LFE40:
 658              		.align	2
 659              		.globl	_ZN5RiscV21executeMemFreeSyscallEv
 661              	_ZN5RiscV21executeMemFreeSyscallEv:
 662              	.LFB41:
 204:src/riscv.cpp **** 
 663              		.loc 1 204 37 is_stmt 1
 664              		.cfi_startproc
GAS LISTING /tmp/ccvbDvuT.s 			page 28


 665 0320 130101FF 		addi	sp,sp,-16
 666              		.cfi_def_cfa_offset 16
 667 0324 23341100 		sd	ra,8(sp)
 668 0328 23308100 		sd	s0,0(sp)
 669              		.cfi_offset 1, -8
 670              		.cfi_offset 8, -16
 671 032c 13040101 		addi	s0,sp,16
 672              		.cfi_def_cfa 8, 0
 207:src/riscv.cpp **** 
 673              		.loc 1 207 5
 210:src/riscv.cpp ****         //call internal allocator and free memory which iaddr points to
 674              		.loc 1 210 5
 675 0330 97070000 		la	a5,_ZN15MemoryAllocator11initializedE
 675      83B70700 
 676 0338 83C70700 		lbu	a5,0(a5)
 677 033c 63920702 		bnez	a5,.L34
 216:src/riscv.cpp **** 
 678              		.loc 1 216 16 is_stmt 0
 679 0340 1305F0FF 		li	a0,-1
 680              	.L31:
 681              	.LVL34:
 219:src/riscv.cpp **** 
 682              		.loc 1 219 5 is_stmt 1
 219:src/riscv.cpp **** 
 683              		.loc 1 219 54 is_stmt 0
 684              	#APP
 685              	# 219 "src/riscv.cpp" 1
 221:src/riscv.cpp **** }
 686              		mv a0, a0
 687              	# 0 "" 2
 688              		.loc 1 221 5 is_stmt 1
 221:src/riscv.cpp **** }
 689              		.loc 1 221 28 is_stmt 0
 690              	#NO_APP
 691 0348 97000000 		call	_ZN5RiscV16saveA0toSscratchEv
 691      E7800000 
 692              	.LVL35:
 222:src/riscv.cpp **** 
 693              		.loc 1 222 1
 694 0350 83308100 		ld	ra,8(sp)
 695              		.cfi_remember_state
 696              		.cfi_restore 1
 697 0354 03340100 		ld	s0,0(sp)
 698              		.cfi_restore 8
 699              		.cfi_def_cfa 2, 16
 700 0358 13010101 		addi	sp,sp,16
 701              		.cfi_def_cfa_offset 0
 702 035c 67800000 		jr	ra
 703              	.L34:
 704              		.cfi_restore_state
 212:src/riscv.cpp ****         status = MemoryAllocator::kfree((void *) iaddr);;
 705              		.loc 1 212 9 is_stmt 1
 212:src/riscv.cpp ****         status = MemoryAllocator::kfree((void *) iaddr);;
 706              		.loc 1 212 53 is_stmt 0
 707              	#APP
 708              	# 212 "src/riscv.cpp" 1
 709              		mv a0, a1
GAS LISTING /tmp/ccvbDvuT.s 			page 29


 710              	# 0 "" 2
 711              	.LVL36:
 213:src/riscv.cpp ****     }
 712              		.loc 1 213 9 is_stmt 1
 213:src/riscv.cpp ****     }
 713              		.loc 1 213 40 is_stmt 0
 714              	#NO_APP
 715 0364 97000000 		call	_ZN15MemoryAllocator5kfreeEPv@plt
 715      E7800000 
 716              	.LVL37:
 213:src/riscv.cpp ****     }
 717              		.loc 1 213 57 is_stmt 1
 718 036c 6FF09FFD 		j	.L31
 719              		.cfi_endproc
 720              	.LFE41:
 722              		.align	2
 723              		.globl	_ZN5RiscV26executeThreadCreateSyscallEv
 725              	_ZN5RiscV26executeThreadCreateSyscallEv:
 726              	.LFB42:
 224:src/riscv.cpp **** 
 727              		.loc 1 224 41
 728              		.cfi_startproc
 729              		.cfi_personality 0x9b,DW.ref.__gxx_personality_v0
 730              		.cfi_lsda 0x1b,.LLSDA42
 731 0370 130101FC 		addi	sp,sp,-64
 732              		.cfi_def_cfa_offset 64
 733 0374 233C1102 		sd	ra,56(sp)
 734 0378 23388102 		sd	s0,48(sp)
 735 037c 23349102 		sd	s1,40(sp)
 736 0380 23302103 		sd	s2,32(sp)
 737 0384 233C3101 		sd	s3,24(sp)
 738 0388 23384101 		sd	s4,16(sp)
 739 038c 23345101 		sd	s5,8(sp)
 740              		.cfi_offset 1, -8
 741              		.cfi_offset 8, -16
 742              		.cfi_offset 9, -24
 743              		.cfi_offset 18, -32
 744              		.cfi_offset 19, -40
 745              		.cfi_offset 20, -48
 746              		.cfi_offset 21, -56
 747 0390 13040104 		addi	s0,sp,64
 748              		.cfi_def_cfa 8, 0
 227:src/riscv.cpp **** 
 749              		.loc 1 227 5
 229:src/riscv.cpp ****     asm("mv %[ihandle], a1" : [ihandle] "=r"(ihandle));
 750              		.loc 1 229 5
 229:src/riscv.cpp ****     asm("mv %[ihandle], a1" : [ihandle] "=r"(ihandle));
 751              		.loc 1 229 52 is_stmt 0
 752              	#APP
 753              	# 229 "src/riscv.cpp" 1
 230:src/riscv.cpp ****     asm("mv %[iroutine], a2" : [iroutine] "=r"(iroutine));
 754              		mv s4, a7
 755              	# 0 "" 2
 756              		.loc 1 230 5 is_stmt 1
 230:src/riscv.cpp ****     asm("mv %[iroutine], a2" : [iroutine] "=r"(iroutine));
 757              		.loc 1 230 55 is_stmt 0
 758              	# 230 "src/riscv.cpp" 1
GAS LISTING /tmp/ccvbDvuT.s 			page 30


 759              		mv s5, a1
 760              	# 0 "" 2
 761              	.LVL38:
 231:src/riscv.cpp ****     asm("mv %[iargs], a3" : [iargs] "=r"(iargs));
 762              		.loc 1 231 5 is_stmt 1
 231:src/riscv.cpp ****     asm("mv %[iargs], a3" : [iargs] "=r"(iargs));
 763              		.loc 1 231 58 is_stmt 0
 764              	# 231 "src/riscv.cpp" 1
 232:src/riscv.cpp **** 
 765              		mv s2, a2
 766              	# 0 "" 2
 767              		.loc 1 232 5 is_stmt 1
 232:src/riscv.cpp **** 
 768              		.loc 1 232 49 is_stmt 0
 769              	# 232 "src/riscv.cpp" 1
 235:src/riscv.cpp **** 
 770              		mv s3, a3
 771              	# 0 "" 2
 772              		.loc 1 235 5 is_stmt 1
 235:src/riscv.cpp **** 
 773              		.loc 1 235 94 is_stmt 0
 774              	#NO_APP
 775 03a4 13050007 		li	a0,112
 776              	.LEHB0:
 777 03a8 97000000 		call	_ZN3TCBnwEm@plt
 777      E7800000 
 778              	.LVL39:
 779              	.LEHE0:
 780 03b0 93040500 		mv	s1,a0
 781 03b4 13072000 		li	a4,2
 782 03b8 93060A00 		mv	a3,s4
 783 03bc 13860900 		mv	a2,s3
 784 03c0 93050900 		mv	a1,s2
 785              	.LEHB1:
 786 03c4 97000000 		call	_ZN3TCBC1EPFvPvES0_Pmm@plt
 786      E7800000 
 787              	.LVL40:
 788              	.LEHE1:
 237:src/riscv.cpp **** 
 789              		.loc 1 237 5 is_stmt 1 discriminator 2
 239:src/riscv.cpp ****         status = -1;
 790              		.loc 1 239 5 discriminator 2
 791 03cc 63880404 		beqz	s1,.L39
 243:src/riscv.cpp ****             Scheduler::put(tcb);
 792              		.loc 1 243 9
 243:src/riscv.cpp ****             Scheduler::put(tcb);
 793              		.loc 1 243 17 is_stmt 0
 794 03d0 83B78401 		ld	a5,24(s1)
 243:src/riscv.cpp ****             Scheduler::put(tcb);
 795              		.loc 1 243 9
 796 03d4 63880700 		beqz	a5,.L37
 244:src/riscv.cpp ****         *((TCB**)ihandle) = tcb;
 797              		.loc 1 244 13 is_stmt 1
 244:src/riscv.cpp ****         *((TCB**)ihandle) = tcb;
 798              		.loc 1 244 27 is_stmt 0
 799 03d8 13850400 		mv	a0,s1
 800              	.LEHB2:
GAS LISTING /tmp/ccvbDvuT.s 			page 31


 801 03dc 97000000 		call	_ZN9Scheduler3putEP3TCB@plt
 801      E7800000 
 802              	.LVL41:
 803              	.LEHE2:
 804              	.L37:
 245:src/riscv.cpp ****     }
 805              		.loc 1 245 9 is_stmt 1
 245:src/riscv.cpp ****     }
 806              		.loc 1 245 27 is_stmt 0
 807 03e4 23B09A00 		sd	s1,0(s5)
 237:src/riscv.cpp **** 
 808              		.loc 1 237 12
 809 03e8 93070000 		li	a5,0
 810              	.L36:
 811              	.LVL42:
 249:src/riscv.cpp **** 
 812              		.loc 1 249 5 is_stmt 1
 249:src/riscv.cpp **** 
 813              		.loc 1 249 54 is_stmt 0
 814              	#APP
 815              	# 249 "src/riscv.cpp" 1
 251:src/riscv.cpp **** }
 816              		mv a0, a5
 817              	# 0 "" 2
 818              		.loc 1 251 5 is_stmt 1
 251:src/riscv.cpp **** }
 819              		.loc 1 251 28 is_stmt 0
 820              	#NO_APP
 821 03f0 97000000 		call	_ZN5RiscV16saveA0toSscratchEv
 821      E7800000 
 822              	.LVL43:
 252:src/riscv.cpp **** 
 823              		.loc 1 252 1
 824 03f8 83308103 		ld	ra,56(sp)
 825              		.cfi_remember_state
 826              		.cfi_restore 1
 827 03fc 03340103 		ld	s0,48(sp)
 828              		.cfi_restore 8
 829              		.cfi_def_cfa 2, 64
 830 0400 83348102 		ld	s1,40(sp)
 831              		.cfi_restore 9
 832              	.LVL44:
 833 0404 03390102 		ld	s2,32(sp)
 834              		.cfi_restore 18
 835 0408 83398101 		ld	s3,24(sp)
 836              		.cfi_restore 19
 837 040c 033A0101 		ld	s4,16(sp)
 838              		.cfi_restore 20
 839 0410 833A8100 		ld	s5,8(sp)
 840              		.cfi_restore 21
 841              	.LVL45:
 842 0414 13010104 		addi	sp,sp,64
 843              		.cfi_def_cfa_offset 0
 844 0418 67800000 		jr	ra
 845              	.LVL46:
 846              	.L39:
 847              		.cfi_restore_state
GAS LISTING /tmp/ccvbDvuT.s 			page 32


 240:src/riscv.cpp ****     }
 848              		.loc 1 240 16
 849 041c 9307F0FF 		li	a5,-1
 850 0420 6FF0DFFC 		j	.L36
 851              	.LVL47:
 852              	.L40:
 853 0424 13090500 		mv	s2,a0
 235:src/riscv.cpp **** 
 854              		.loc 1 235 94
 855 0428 13850400 		mv	a0,s1
 856 042c 97000000 		call	_ZN3TCBdlEPv@plt
 856      E7800000 
 857              	.LVL48:
 858 0434 13050900 		mv	a0,s2
 859              	.LEHB3:
 860 0438 97000000 		call	_Unwind_Resume@plt
 860      E7800000 
 861              	.LVL49:
 862              	.LEHE3:
 863              		.cfi_endproc
 864              	.LFE42:
 865              		.globl	__gxx_personality_v0
 866              		.section	.gcc_except_table,"a",@progbits
 867              	.LLSDA42:
 868 0000 FF       		.byte	0xff
 869 0001 FF       		.byte	0xff
 870 0002 03       		.byte	0x3
 871 0003 34       		.byte	0x34
 872 0004 00000000 		.4byte	.LEHB0-.LFB42
 873 0008 00000000 		.4byte	.LEHE0-.LEHB0
 874 000c 00000000 		.4byte	0
 875 0010 00       		.byte	0
 876 0011 00000000 		.4byte	.LEHB1-.LFB42
 877 0015 00000000 		.4byte	.LEHE1-.LEHB1
 878 0019 00000000 		.4byte	.L40-.LFB42
 879 001d 00       		.byte	0
 880 001e 00000000 		.4byte	.LEHB2-.LFB42
 881 0022 00000000 		.4byte	.LEHE2-.LEHB2
 882 0026 00000000 		.4byte	0
 883 002a 00       		.byte	0
 884 002b 00000000 		.4byte	.LEHB3-.LFB42
 885 002f 00000000 		.4byte	.LEHE3-.LEHB3
 886 0033 00000000 		.4byte	0
 887 0037 00       		.byte	0
 888              		.text
 890              		.align	2
 891              		.globl	_ZN5RiscV30executeThreadAttachBodySyscallEv
 893              	_ZN5RiscV30executeThreadAttachBodySyscallEv:
 894              	.LFB43:
 254:src/riscv.cpp **** 
 895              		.loc 1 254 45 is_stmt 1
 896              		.cfi_startproc
 897              		.cfi_personality 0x9b,DW.ref.__gxx_personality_v0
 898              		.cfi_lsda 0x1b,.LLSDA43
 899 0440 130101FC 		addi	sp,sp,-64
 900              		.cfi_def_cfa_offset 64
 901 0444 233C1102 		sd	ra,56(sp)
GAS LISTING /tmp/ccvbDvuT.s 			page 33


 902 0448 23388102 		sd	s0,48(sp)
 903 044c 23349102 		sd	s1,40(sp)
 904 0450 23302103 		sd	s2,32(sp)
 905 0454 233C3101 		sd	s3,24(sp)
 906 0458 23384101 		sd	s4,16(sp)
 907 045c 23345101 		sd	s5,8(sp)
 908              		.cfi_offset 1, -8
 909              		.cfi_offset 8, -16
 910              		.cfi_offset 9, -24
 911              		.cfi_offset 18, -32
 912              		.cfi_offset 19, -40
 913              		.cfi_offset 20, -48
 914              		.cfi_offset 21, -56
 915 0460 13040104 		addi	s0,sp,64
 916              		.cfi_def_cfa 8, 0
 257:src/riscv.cpp **** 
 917              		.loc 1 257 5
 260:src/riscv.cpp ****     asm("mv %[ihandle], a1" : [ihandle] "=r"(ihandle));
 918              		.loc 1 260 5
 260:src/riscv.cpp ****     asm("mv %[ihandle], a1" : [ihandle] "=r"(ihandle));
 919              		.loc 1 260 52 is_stmt 0
 920              	#APP
 921              	# 260 "src/riscv.cpp" 1
 261:src/riscv.cpp ****     asm("mv %[iroutine], a2" : [iroutine] "=r"(iroutine));
 922              		mv s2, a7
 923              	# 0 "" 2
 924              		.loc 1 261 5 is_stmt 1
 261:src/riscv.cpp ****     asm("mv %[iroutine], a2" : [iroutine] "=r"(iroutine));
 925              		.loc 1 261 55 is_stmt 0
 926              	# 261 "src/riscv.cpp" 1
 927              		mv s5, a1
 928              	# 0 "" 2
 929              	.LVL50:
 262:src/riscv.cpp ****     asm("mv %[iargs], a3" : [iargs] "=r"(iargs));
 930              		.loc 1 262 5 is_stmt 1
 262:src/riscv.cpp ****     asm("mv %[iargs], a3" : [iargs] "=r"(iargs));
 931              		.loc 1 262 58 is_stmt 0
 932              	# 262 "src/riscv.cpp" 1
 933              		mv s4, a2
 934              	# 0 "" 2
 935              	.LVL51:
 263:src/riscv.cpp **** 
 936              		.loc 1 263 5 is_stmt 1
 263:src/riscv.cpp **** 
 937              		.loc 1 263 49 is_stmt 0
 938              	# 263 "src/riscv.cpp" 1
 939              		mv s3, a3
 940              	# 0 "" 2
 941              	.LVL52:
 265:src/riscv.cpp **** 
 942              		.loc 1 265 5 is_stmt 1
 265:src/riscv.cpp **** 
 943              		.loc 1 265 94 is_stmt 0
 944              	#NO_APP
 945 0474 13050007 		li	a0,112
 946              	.LEHB4:
 947 0478 97000000 		call	_ZN3TCBnwEm@plt
GAS LISTING /tmp/ccvbDvuT.s 			page 34


 947      E7800000 
 948              	.LVL53:
 949              	.LEHE4:
 950 0480 93040500 		mv	s1,a0
 951 0484 13072000 		li	a4,2
 952 0488 93060900 		mv	a3,s2
 953 048c 13860900 		mv	a2,s3
 954 0490 93050A00 		mv	a1,s4
 955              	.LEHB5:
 956 0494 97000000 		call	_ZN3TCBC1EPFvPvES0_Pmm@plt
 956      E7800000 
 957              	.LVL54:
 958              	.LEHE5:
 267:src/riscv.cpp **** 
 959              		.loc 1 267 5 is_stmt 1 discriminator 2
 269:src/riscv.cpp ****         status = -1;
 960              		.loc 1 269 5 discriminator 2
 961 049c 63820404 		beqz	s1,.L46
 273:src/riscv.cpp ****         tcb->args = (void*)iargs;
 962              		.loc 1 273 9
 273:src/riscv.cpp ****         tcb->args = (void*)iargs;
 963              		.loc 1 273 19 is_stmt 0
 964 04a0 23BC4401 		sd	s4,24(s1)
 274:src/riscv.cpp ****         *((TCB**)ihandle) = tcb;
 965              		.loc 1 274 9 is_stmt 1
 274:src/riscv.cpp ****         *((TCB**)ihandle) = tcb;
 966              		.loc 1 274 19 is_stmt 0
 967 04a4 23B03403 		sd	s3,32(s1)
 275:src/riscv.cpp ****     }
 968              		.loc 1 275 9 is_stmt 1
 275:src/riscv.cpp ****     }
 969              		.loc 1 275 27 is_stmt 0
 970 04a8 23B09A00 		sd	s1,0(s5)
 267:src/riscv.cpp **** 
 971              		.loc 1 267 12
 972 04ac 93070000 		li	a5,0
 973              	.L44:
 974              	.LVL55:
 278:src/riscv.cpp **** 
 975              		.loc 1 278 5 is_stmt 1
 278:src/riscv.cpp **** 
 976              		.loc 1 278 54 is_stmt 0
 977              	#APP
 978              	# 278 "src/riscv.cpp" 1
 280:src/riscv.cpp **** }
 979              		mv a0, a5
 980              	# 0 "" 2
 981              		.loc 1 280 5 is_stmt 1
 280:src/riscv.cpp **** }
 982              		.loc 1 280 28 is_stmt 0
 983              	#NO_APP
 984 04b4 97000000 		call	_ZN5RiscV16saveA0toSscratchEv
 984      E7800000 
 985              	.LVL56:
 281:src/riscv.cpp **** 
 986              		.loc 1 281 1
 987 04bc 83308103 		ld	ra,56(sp)
GAS LISTING /tmp/ccvbDvuT.s 			page 35


 988              		.cfi_remember_state
 989              		.cfi_restore 1
 990 04c0 03340103 		ld	s0,48(sp)
 991              		.cfi_restore 8
 992              		.cfi_def_cfa 2, 64
 993 04c4 83348102 		ld	s1,40(sp)
 994              		.cfi_restore 9
 995              	.LVL57:
 996 04c8 03390102 		ld	s2,32(sp)
 997              		.cfi_restore 18
 998 04cc 83398101 		ld	s3,24(sp)
 999              		.cfi_restore 19
 1000              	.LVL58:
 1001 04d0 033A0101 		ld	s4,16(sp)
 1002              		.cfi_restore 20
 1003              	.LVL59:
 1004 04d4 833A8100 		ld	s5,8(sp)
 1005              		.cfi_restore 21
 1006              	.LVL60:
 1007 04d8 13010104 		addi	sp,sp,64
 1008              		.cfi_def_cfa_offset 0
 1009 04dc 67800000 		jr	ra
 1010              	.LVL61:
 1011              	.L46:
 1012              		.cfi_restore_state
 270:src/riscv.cpp ****     }
 1013              		.loc 1 270 16
 1014 04e0 9307F0FF 		li	a5,-1
 1015 04e4 6FF0DFFC 		j	.L44
 1016              	.LVL62:
 1017              	.L47:
 1018 04e8 13090500 		mv	s2,a0
 265:src/riscv.cpp **** 
 1019              		.loc 1 265 94
 1020 04ec 13850400 		mv	a0,s1
 1021 04f0 97000000 		call	_ZN3TCBdlEPv@plt
 1021      E7800000 
 1022              	.LVL63:
 1023 04f8 13050900 		mv	a0,s2
 1024              	.LEHB6:
 1025 04fc 97000000 		call	_Unwind_Resume@plt
 1025      E7800000 
 1026              	.LVL64:
 1027              	.LEHE6:
 1028              		.cfi_endproc
 1029              	.LFE43:
 1030              		.section	.gcc_except_table
 1031              	.LLSDA43:
 1032 0038 FF       		.byte	0xff
 1033 0039 FF       		.byte	0xff
 1034 003a 03       		.byte	0x3
 1035 003b 27       		.byte	0x27
 1036 003c 00000000 		.4byte	.LEHB4-.LFB43
 1037 0040 00000000 		.4byte	.LEHE4-.LEHB4
 1038 0044 00000000 		.4byte	0
 1039 0048 00       		.byte	0
 1040 0049 00000000 		.4byte	.LEHB5-.LFB43
GAS LISTING /tmp/ccvbDvuT.s 			page 36


 1041 004d 00000000 		.4byte	.LEHE5-.LEHB5
 1042 0051 00000000 		.4byte	.L47-.LFB43
 1043 0055 00       		.byte	0
 1044 0056 00000000 		.4byte	.LEHB6-.LFB43
 1045 005a 00000000 		.4byte	.LEHE6-.LEHB6
 1046 005e 00000000 		.4byte	0
 1047 0062 00       		.byte	0
 1048              		.text
 1050              		.align	2
 1051              		.globl	_ZN5RiscV25executeThreadStartSyscallEv
 1053              	_ZN5RiscV25executeThreadStartSyscallEv:
 1054              	.LFB44:
 283:src/riscv.cpp **** 
 1055              		.loc 1 283 40 is_stmt 1
 1056              		.cfi_startproc
 1057 0504 130101FF 		addi	sp,sp,-16
 1058              		.cfi_def_cfa_offset 16
 1059 0508 23341100 		sd	ra,8(sp)
 1060 050c 23308100 		sd	s0,0(sp)
 1061              		.cfi_offset 1, -8
 1062              		.cfi_offset 8, -16
 1063 0510 13040101 		addi	s0,sp,16
 1064              		.cfi_def_cfa 8, 0
 286:src/riscv.cpp **** 
 1065              		.loc 1 286 5
 288:src/riscv.cpp **** 
 1066              		.loc 1 288 5
 288:src/riscv.cpp **** 
 1067              		.loc 1 288 55 is_stmt 0
 1068              	#APP
 1069              	# 288 "src/riscv.cpp" 1
 1070              		mv a0, a1
 1071              	# 0 "" 2
 1072              	.LVL65:
 291:src/riscv.cpp **** 
 1073              		.loc 1 291 5 is_stmt 1
 293:src/riscv.cpp **** 
 1074              		.loc 1 293 5
 295:src/riscv.cpp ****         status = -1;
 1075              		.loc 1 295 5
 1076              	#NO_APP
 1077 0518 63120502 		bnez	a0,.L54
 296:src/riscv.cpp ****     }
 1078              		.loc 1 296 16 is_stmt 0
 1079 051c 9307F0FF 		li	a5,-1
 1080              	.LVL66:
 1081              	.L51:
 305:src/riscv.cpp **** 
 1082              		.loc 1 305 5 is_stmt 1
 305:src/riscv.cpp **** 
 1083              		.loc 1 305 54 is_stmt 0
 1084              	#APP
 1085              	# 305 "src/riscv.cpp" 1
 307:src/riscv.cpp **** }
 1086              		mv a0, a5
 1087              	# 0 "" 2
 1088              		.loc 1 307 5 is_stmt 1
GAS LISTING /tmp/ccvbDvuT.s 			page 37


 307:src/riscv.cpp **** }
 1089              		.loc 1 307 28 is_stmt 0
 1090              	#NO_APP
 1091 0524 97000000 		call	_ZN5RiscV16saveA0toSscratchEv
 1091      E7800000 
 1092              	.LVL67:
 308:src/riscv.cpp **** 
 1093              		.loc 1 308 1
 1094 052c 83308100 		ld	ra,8(sp)
 1095              		.cfi_remember_state
 1096              		.cfi_restore 1
 1097 0530 03340100 		ld	s0,0(sp)
 1098              		.cfi_restore 8
 1099              		.cfi_def_cfa 2, 16
 1100 0534 13010101 		addi	sp,sp,16
 1101              		.cfi_def_cfa_offset 0
 1102 0538 67800000 		jr	ra
 1103              	.LVL68:
 1104              	.L54:
 1105              		.cfi_restore_state
 299:src/riscv.cpp ****         Scheduler::put(tcb);
 1106              		.loc 1 299 9 is_stmt 1
 299:src/riscv.cpp ****         Scheduler::put(tcb);
 1107              		.loc 1 299 21 is_stmt 0
 1108 053c 93071000 		li	a5,1
 1109 0540 2328F500 		sw	a5,16(a0)
 300:src/riscv.cpp ****         TCB::dispatch();
 1110              		.loc 1 300 9 is_stmt 1
 300:src/riscv.cpp ****         TCB::dispatch();
 1111              		.loc 1 300 23 is_stmt 0
 1112 0544 97000000 		call	_ZN9Scheduler3putEP3TCB@plt
 1112      E7800000 
 1113              	.LVL69:
 301:src/riscv.cpp ****     }
 1114              		.loc 1 301 9 is_stmt 1
 301:src/riscv.cpp ****     }
 1115              		.loc 1 301 22 is_stmt 0
 1116 054c 97000000 		call	_ZN3TCB8dispatchEv@plt
 1116      E7800000 
 1117              	.LVL70:
 293:src/riscv.cpp **** 
 1118              		.loc 1 293 12
 1119 0554 93070000 		li	a5,0
 1120 0558 6FF09FFC 		j	.L51
 1121              		.cfi_endproc
 1122              	.LFE44:
 1124              		.align	2
 1125              		.globl	_ZN5RiscV24executeThreadExitSyscallEv
 1127              	_ZN5RiscV24executeThreadExitSyscallEv:
 1128              	.LFB45:
 310:src/riscv.cpp **** 
 1129              		.loc 1 310 40 is_stmt 1
 1130              		.cfi_startproc
 1131 055c 130101FF 		addi	sp,sp,-16
 1132              		.cfi_def_cfa_offset 16
 1133 0560 23341100 		sd	ra,8(sp)
 1134 0564 23308100 		sd	s0,0(sp)
GAS LISTING /tmp/ccvbDvuT.s 			page 38


 1135              		.cfi_offset 1, -8
 1136              		.cfi_offset 8, -16
 1137 0568 13040101 		addi	s0,sp,16
 1138              		.cfi_def_cfa 8, 0
 313:src/riscv.cpp **** 
 1139              		.loc 1 313 5
 1140              	.LVL71:
 316:src/riscv.cpp ****         status = -1;
 1141              		.loc 1 316 5
 1142              	.LBB121:
 316:src/riscv.cpp ****         status = -1;
 1143              		.loc 1 316 21 is_stmt 0
 1144 056c 97070000 		la	a5,_ZN3TCB7runningE
 1144      83B70700 
 1145 0574 83B70700 		ld	a5,0(a5)
 316:src/riscv.cpp ****         status = -1;
 1146              		.loc 1 316 5
 1147 0578 638A0702 		beqz	a5,.L57
 1148              	.LBB122:
 320:src/riscv.cpp ****         old->status = TCB::Status::FINISHED;
 1149              		.loc 1 320 9 is_stmt 1
 1150              	.LVL72:
 321:src/riscv.cpp ****         TCB::dispatch();
 1151              		.loc 1 321 9
 321:src/riscv.cpp ****         TCB::dispatch();
 1152              		.loc 1 321 21 is_stmt 0
 1153 057c 13072000 		li	a4,2
 1154 0580 23A8E700 		sw	a4,16(a5)
 322:src/riscv.cpp ****     }
 1155              		.loc 1 322 9 is_stmt 1
 322:src/riscv.cpp ****     }
 1156              		.loc 1 322 22 is_stmt 0
 1157 0584 97000000 		call	_ZN3TCB8dispatchEv@plt
 1157      E7800000 
 1158              	.LVL73:
 1159              	.LBE122:
 1160              	.LBE121:
 313:src/riscv.cpp **** 
 1161              		.loc 1 313 12
 1162 058c 93070000 		li	a5,0
 1163              	.L56:
 1164              	.LVL74:
 325:src/riscv.cpp **** 
 1165              		.loc 1 325 5 is_stmt 1
 325:src/riscv.cpp **** 
 1166              		.loc 1 325 54 is_stmt 0
 1167              	#APP
 1168              	# 325 "src/riscv.cpp" 1
 327:src/riscv.cpp **** }
 1169              		mv a0, a5
 1170              	# 0 "" 2
 1171              		.loc 1 327 5 is_stmt 1
 327:src/riscv.cpp **** }
 1172              		.loc 1 327 28 is_stmt 0
 1173              	#NO_APP
 1174 0594 97000000 		call	_ZN5RiscV16saveA0toSscratchEv
 1174      E7800000 
GAS LISTING /tmp/ccvbDvuT.s 			page 39


 1175              	.LVL75:
 328:src/riscv.cpp **** 
 1176              		.loc 1 328 1
 1177 059c 83308100 		ld	ra,8(sp)
 1178              		.cfi_remember_state
 1179              		.cfi_restore 1
 1180 05a0 03340100 		ld	s0,0(sp)
 1181              		.cfi_restore 8
 1182              		.cfi_def_cfa 2, 16
 1183 05a4 13010101 		addi	sp,sp,16
 1184              		.cfi_def_cfa_offset 0
 1185 05a8 67800000 		jr	ra
 1186              	.LVL76:
 1187              	.L57:
 1188              		.cfi_restore_state
 1189              	.LBB123:
 317:src/riscv.cpp ****     }
 1190              		.loc 1 317 16
 1191 05ac 9307F0FF 		li	a5,-1
 1192 05b0 6FF01FFE 		j	.L56
 1193              	.LBE123:
 1194              		.cfi_endproc
 1195              	.LFE45:
 1197              		.align	2
 1198              		.globl	_ZN5RiscV21executeSemOpenSyscallEv
 1200              	_ZN5RiscV21executeSemOpenSyscallEv:
 1201              	.LFB47:
 338:src/riscv.cpp **** 
 1202              		.loc 1 338 37 is_stmt 1
 1203              		.cfi_startproc
 1204              		.cfi_personality 0x9b,DW.ref.__gxx_personality_v0
 1205              		.cfi_lsda 0x1b,.LLSDA47
 1206 05b4 130101FD 		addi	sp,sp,-48
 1207              		.cfi_def_cfa_offset 48
 1208 05b8 23341102 		sd	ra,40(sp)
 1209 05bc 23308102 		sd	s0,32(sp)
 1210 05c0 233C9100 		sd	s1,24(sp)
 1211 05c4 23382101 		sd	s2,16(sp)
 1212 05c8 23343101 		sd	s3,8(sp)
 1213              		.cfi_offset 1, -8
 1214              		.cfi_offset 8, -16
 1215              		.cfi_offset 9, -24
 1216              		.cfi_offset 18, -32
 1217              		.cfi_offset 19, -40
 1218 05cc 13040103 		addi	s0,sp,48
 1219              		.cfi_def_cfa 8, 0
 341:src/riscv.cpp **** 
 1220              		.loc 1 341 5
 343:src/riscv.cpp ****     asm("mv %[iinit], a2" : [iinit] "=r"(iinit));
 1221              		.loc 1 343 5
 343:src/riscv.cpp ****     asm("mv %[iinit], a2" : [iinit] "=r"(iinit));
 1222              		.loc 1 343 55 is_stmt 0
 1223              	#APP
 1224              	# 343 "src/riscv.cpp" 1
 1225              		mv s3, a1
 1226              	# 0 "" 2
 1227              	.LVL77:
GAS LISTING /tmp/ccvbDvuT.s 			page 40


 344:src/riscv.cpp **** 
 1228              		.loc 1 344 5 is_stmt 1
 344:src/riscv.cpp **** 
 1229              		.loc 1 344 49 is_stmt 0
 1230              	# 344 "src/riscv.cpp" 1
 347:src/riscv.cpp **** 
 1231              		mv s2, a2
 1232              	# 0 "" 2
 1233              		.loc 1 347 5 is_stmt 1
 347:src/riscv.cpp **** 
 1234              		.loc 1 347 29 is_stmt 0
 1235              	#NO_APP
 1236 05d8 13058001 		li	a0,24
 1237              	.LEHB7:
 1238 05dc 97000000 		call	_ZN3SCBnwEm@plt
 1238      E7800000 
 1239              	.LVL78:
 1240              	.LEHE7:
 1241 05e4 93040500 		mv	s1,a0
 1242 05e8 93050900 		mv	a1,s2
 1243              	.LEHB8:
 1244 05ec 97000000 		call	_ZN3SCBC1Em@plt
 1244      E7800000 
 1245              	.LVL79:
 1246              	.LEHE8:
 349:src/riscv.cpp **** 
 1247              		.loc 1 349 5 is_stmt 1 discriminator 2
 351:src/riscv.cpp ****         status = -1;
 1248              		.loc 1 351 5 discriminator 2
 1249 05f4 638A0402 		beqz	s1,.L62
 355:src/riscv.cpp ****     }
 1250              		.loc 1 355 9
 355:src/riscv.cpp ****     }
 1251              		.loc 1 355 27 is_stmt 0
 1252 05f8 23B09900 		sd	s1,0(s3)
 349:src/riscv.cpp **** 
 1253              		.loc 1 349 12
 1254 05fc 93070000 		li	a5,0
 1255              	.L60:
 1256              	.LVL80:
 359:src/riscv.cpp **** 
 1257              		.loc 1 359 5 is_stmt 1
 359:src/riscv.cpp **** 
 1258              		.loc 1 359 54 is_stmt 0
 1259              	#APP
 1260              	# 359 "src/riscv.cpp" 1
 361:src/riscv.cpp **** 
 1261              		mv a0, a5
 1262              	# 0 "" 2
 1263              		.loc 1 361 5 is_stmt 1
 361:src/riscv.cpp **** 
 1264              		.loc 1 361 28 is_stmt 0
 1265              	#NO_APP
 1266 0604 97000000 		call	_ZN5RiscV16saveA0toSscratchEv
 1266      E7800000 
 1267              	.LVL81:
 363:src/riscv.cpp **** 
GAS LISTING /tmp/ccvbDvuT.s 			page 41


 1268              		.loc 1 363 1
 1269 060c 83308102 		ld	ra,40(sp)
 1270              		.cfi_remember_state
 1271              		.cfi_restore 1
 1272 0610 03340102 		ld	s0,32(sp)
 1273              		.cfi_restore 8
 1274              		.cfi_def_cfa 2, 48
 1275 0614 83348101 		ld	s1,24(sp)
 1276              		.cfi_restore 9
 1277              	.LVL82:
 1278 0618 03390101 		ld	s2,16(sp)
 1279              		.cfi_restore 18
 1280 061c 83398100 		ld	s3,8(sp)
 1281              		.cfi_restore 19
 1282              	.LVL83:
 1283 0620 13010103 		addi	sp,sp,48
 1284              		.cfi_def_cfa_offset 0
 1285 0624 67800000 		jr	ra
 1286              	.LVL84:
 1287              	.L62:
 1288              		.cfi_restore_state
 352:src/riscv.cpp ****     }
 1289              		.loc 1 352 16
 1290 0628 9307F0FF 		li	a5,-1
 1291 062c 6FF05FFD 		j	.L60
 1292              	.LVL85:
 1293              	.L63:
 1294 0630 13090500 		mv	s2,a0
 347:src/riscv.cpp **** 
 1295              		.loc 1 347 29
 1296 0634 13850400 		mv	a0,s1
 1297 0638 97000000 		call	_ZN3SCBdlEPv@plt
 1297      E7800000 
 1298              	.LVL86:
 1299 0640 13050900 		mv	a0,s2
 1300              	.LEHB9:
 1301 0644 97000000 		call	_Unwind_Resume@plt
 1301      E7800000 
 1302              	.LVL87:
 1303              	.LEHE9:
 1304              		.cfi_endproc
 1305              	.LFE47:
 1306              		.section	.gcc_except_table
 1307              	.LLSDA47:
 1308 0063 FF       		.byte	0xff
 1309 0064 FF       		.byte	0xff
 1310 0065 03       		.byte	0x3
 1311 0066 27       		.byte	0x27
 1312 0067 00000000 		.4byte	.LEHB7-.LFB47
 1313 006b 00000000 		.4byte	.LEHE7-.LEHB7
 1314 006f 00000000 		.4byte	0
 1315 0073 00       		.byte	0
 1316 0074 00000000 		.4byte	.LEHB8-.LFB47
 1317 0078 00000000 		.4byte	.LEHE8-.LEHB8
 1318 007c 00000000 		.4byte	.L63-.LFB47
 1319 0080 00       		.byte	0
 1320 0081 00000000 		.4byte	.LEHB9-.LFB47
GAS LISTING /tmp/ccvbDvuT.s 			page 42


 1321 0085 00000000 		.4byte	.LEHE9-.LEHB9
 1322 0089 00000000 		.4byte	0
 1323 008d 00       		.byte	0
 1324              		.text
 1326              		.align	2
 1327              		.globl	_ZN5RiscV22executeSemCloseSyscallEv
 1329              	_ZN5RiscV22executeSemCloseSyscallEv:
 1330              	.LFB48:
 365:src/riscv.cpp **** 
 1331              		.loc 1 365 38 is_stmt 1
 1332              		.cfi_startproc
 1333 064c 130101FE 		addi	sp,sp,-32
 1334              		.cfi_def_cfa_offset 32
 1335 0650 233C1100 		sd	ra,24(sp)
 1336 0654 23388100 		sd	s0,16(sp)
 1337 0658 23349100 		sd	s1,8(sp)
 1338              		.cfi_offset 1, -8
 1339              		.cfi_offset 8, -16
 1340              		.cfi_offset 9, -24
 1341 065c 13040102 		addi	s0,sp,32
 1342              		.cfi_def_cfa 8, 0
 368:src/riscv.cpp **** 
 1343              		.loc 1 368 5
 370:src/riscv.cpp **** 
 1344              		.loc 1 370 5
 370:src/riscv.cpp **** 
 1345              		.loc 1 370 55 is_stmt 0
 1346              	#APP
 1347              	# 370 "src/riscv.cpp" 1
 1348              		mv s1, a1
 1349              	# 0 "" 2
 1350              	.LVL88:
 373:src/riscv.cpp ****     uint64 status = 0;
 1351              		.loc 1 373 5 is_stmt 1
 374:src/riscv.cpp **** 
 1352              		.loc 1 374 5
 376:src/riscv.cpp ****         status = -1;
 1353              		.loc 1 376 5
 1354              	#NO_APP
 1355 0664 63940402 		bnez	s1,.L70
 377:src/riscv.cpp ****     }
 1356              		.loc 1 377 16 is_stmt 0
 1357 0668 9307F0FF 		li	a5,-1
 1358              	.L67:
 1359              	.LVL89:
 383:src/riscv.cpp **** 
 1360              		.loc 1 383 5 is_stmt 1
 383:src/riscv.cpp **** 
 1361              		.loc 1 383 54 is_stmt 0
 1362              	#APP
 1363              	# 383 "src/riscv.cpp" 1
 385:src/riscv.cpp **** }
 1364              		mv a0, a5
 1365              	# 0 "" 2
 1366              		.loc 1 385 5 is_stmt 1
 385:src/riscv.cpp **** }
 1367              		.loc 1 385 28 is_stmt 0
GAS LISTING /tmp/ccvbDvuT.s 			page 43


 1368              	#NO_APP
 1369 0670 97000000 		call	_ZN5RiscV16saveA0toSscratchEv
 1369      E7800000 
 1370              	.LVL90:
 386:src/riscv.cpp **** 
 1371              		.loc 1 386 1
 1372 0678 83308101 		ld	ra,24(sp)
 1373              		.cfi_remember_state
 1374              		.cfi_restore 1
 1375 067c 03340101 		ld	s0,16(sp)
 1376              		.cfi_restore 8
 1377              		.cfi_def_cfa 2, 32
 1378 0680 83348100 		ld	s1,8(sp)
 1379              		.cfi_restore 9
 1380              	.LVL91:
 1381 0684 13010102 		addi	sp,sp,32
 1382              		.cfi_def_cfa_offset 0
 1383 0688 67800000 		jr	ra
 1384              	.LVL92:
 1385              	.L70:
 1386              		.cfi_restore_state
 380:src/riscv.cpp **** 
 1387              		.loc 1 380 9 is_stmt 1 discriminator 1
 380:src/riscv.cpp **** 
 1388              		.loc 1 380 22 is_stmt 0 discriminator 1
 1389 068c 13850400 		mv	a0,s1
 1390 0690 97000000 		call	_ZN3SCBD1Ev@plt
 1390      E7800000 
 1391              	.LVL93:
 1392 0698 13850400 		mv	a0,s1
 1393 069c 97000000 		call	_ZN3SCBdlEPv@plt
 1393      E7800000 
 1394              	.LVL94:
 374:src/riscv.cpp **** 
 1395              		.loc 1 374 12 discriminator 1
 1396 06a4 93070000 		li	a5,0
 1397 06a8 6FF05FFC 		j	.L67
 1398              		.cfi_endproc
 1399              	.LFE48:
 1401              		.align	2
 1402              		.globl	_ZN5RiscV21executeSemWaitSyscallEv
 1404              	_ZN5RiscV21executeSemWaitSyscallEv:
 1405              	.LFB49:
 388:src/riscv.cpp **** 
 1406              		.loc 1 388 37 is_stmt 1
 1407              		.cfi_startproc
 1408 06ac 130101FF 		addi	sp,sp,-16
 1409              		.cfi_def_cfa_offset 16
 1410 06b0 23341100 		sd	ra,8(sp)
 1411 06b4 23308100 		sd	s0,0(sp)
 1412              		.cfi_offset 1, -8
 1413              		.cfi_offset 8, -16
 1414 06b8 13040101 		addi	s0,sp,16
 1415              		.cfi_def_cfa 8, 0
 391:src/riscv.cpp **** 
 1416              		.loc 1 391 5
 393:src/riscv.cpp **** 
GAS LISTING /tmp/ccvbDvuT.s 			page 44


 1417              		.loc 1 393 5
 393:src/riscv.cpp **** 
 1418              		.loc 1 393 55 is_stmt 0
 1419              	#APP
 1420              	# 393 "src/riscv.cpp" 1
 1421              		mv a0, a1
 1422              	# 0 "" 2
 1423              	.LVL95:
 395:src/riscv.cpp ****     //call wait method on ihandle scb
 1424              		.loc 1 395 5 is_stmt 1
 398:src/riscv.cpp ****         ((SCB*)ihandle)->wait();
 1425              		.loc 1 398 5
 1426              	#NO_APP
 1427 06c0 631C0502 		bnez	a0,.L76
 1428              	.LVL96:
 1429              	.L72:
 403:src/riscv.cpp ****         status = -1;
 1430              		.loc 1 403 5
 403:src/riscv.cpp ****         status = -1;
 1431              		.loc 1 403 22 is_stmt 0
 1432 06c4 97070000 		la	a5,_ZN3TCB7runningE
 1432      83B70700 
 1433 06cc 83B70700 		ld	a5,0(a5)
 1434 06d0 83B70706 		ld	a5,96(a5)
 403:src/riscv.cpp ****         status = -1;
 1435              		.loc 1 403 5
 1436 06d4 63880702 		beqz	a5,.L74
 404:src/riscv.cpp ****     else
 1437              		.loc 1 404 16
 1438 06d8 9307F0FF 		li	a5,-1
 1439              	.L73:
 1440              	.LVL97:
 409:src/riscv.cpp **** 
 1441              		.loc 1 409 5 is_stmt 1
 409:src/riscv.cpp **** 
 1442              		.loc 1 409 54 is_stmt 0
 1443              	#APP
 1444              	# 409 "src/riscv.cpp" 1
 411:src/riscv.cpp **** 
 1445              		mv a0, a5
 1446              	# 0 "" 2
 1447              		.loc 1 411 5 is_stmt 1
 411:src/riscv.cpp **** 
 1448              		.loc 1 411 28 is_stmt 0
 1449              	#NO_APP
 1450 06e0 97000000 		call	_ZN5RiscV16saveA0toSscratchEv
 1450      E7800000 
 1451              	.LVL98:
 413:src/riscv.cpp **** 
 1452              		.loc 1 413 1
 1453 06e8 83308100 		ld	ra,8(sp)
 1454              		.cfi_remember_state
 1455              		.cfi_restore 1
 1456 06ec 03340100 		ld	s0,0(sp)
 1457              		.cfi_restore 8
 1458              		.cfi_def_cfa 2, 16
 1459 06f0 13010101 		addi	sp,sp,16
GAS LISTING /tmp/ccvbDvuT.s 			page 45


 1460              		.cfi_def_cfa_offset 0
 1461 06f4 67800000 		jr	ra
 1462              	.LVL99:
 1463              	.L76:
 1464              		.cfi_restore_state
 399:src/riscv.cpp ****     else
 1465              		.loc 1 399 9 is_stmt 1
 399:src/riscv.cpp ****     else
 1466              		.loc 1 399 30 is_stmt 0
 1467 06f8 97000000 		call	_ZN3SCB4waitEv@plt
 1467      E7800000 
 1468              	.LVL100:
 1469 0700 6FF05FFC 		j	.L72
 1470              	.LVL101:
 1471              	.L74:
 406:src/riscv.cpp **** 
 1472              		.loc 1 406 16
 1473 0704 93070000 		li	a5,0
 1474 0708 6FF05FFD 		j	.L73
 1475              		.cfi_endproc
 1476              	.LFE49:
 1478              		.align	2
 1479              		.globl	_ZN5RiscV23executeSemSignalSyscallEv
 1481              	_ZN5RiscV23executeSemSignalSyscallEv:
 1482              	.LFB50:
 415:src/riscv.cpp **** 
 1483              		.loc 1 415 39 is_stmt 1
 1484              		.cfi_startproc
 1485 070c 130101FF 		addi	sp,sp,-16
 1486              		.cfi_def_cfa_offset 16
 1487 0710 23341100 		sd	ra,8(sp)
 1488 0714 23308100 		sd	s0,0(sp)
 1489              		.cfi_offset 1, -8
 1490              		.cfi_offset 8, -16
 1491 0718 13040101 		addi	s0,sp,16
 1492              		.cfi_def_cfa 8, 0
 418:src/riscv.cpp **** 
 1493              		.loc 1 418 5
 420:src/riscv.cpp **** 
 1494              		.loc 1 420 5
 420:src/riscv.cpp **** 
 1495              		.loc 1 420 55 is_stmt 0
 1496              	#APP
 1497              	# 420 "src/riscv.cpp" 1
 1498              		mv a0, a1
 1499              	# 0 "" 2
 1500              	.LVL102:
 424:src/riscv.cpp **** 
 1501              		.loc 1 424 5 is_stmt 1
 426:src/riscv.cpp ****         ((SCB*)ihandle)->signal();
 1502              		.loc 1 426 5
 1503              	#NO_APP
 1504 0720 63120502 		bnez	a0,.L81
 429:src/riscv.cpp **** 
 1505              		.loc 1 429 16 is_stmt 0
 1506 0724 9307F0FF 		li	a5,-1
 1507              	.LVL103:
GAS LISTING /tmp/ccvbDvuT.s 			page 46


 1508              	.L78:
 432:src/riscv.cpp **** 
 1509              		.loc 1 432 5 is_stmt 1
 432:src/riscv.cpp **** 
 1510              		.loc 1 432 54 is_stmt 0
 1511              	#APP
 1512              	# 432 "src/riscv.cpp" 1
 434:src/riscv.cpp **** }
 1513              		mv a0, a5
 1514              	# 0 "" 2
 1515              		.loc 1 434 5 is_stmt 1
 434:src/riscv.cpp **** }
 1516              		.loc 1 434 28 is_stmt 0
 1517              	#NO_APP
 1518 072c 97000000 		call	_ZN5RiscV16saveA0toSscratchEv
 1518      E7800000 
 1519              	.LVL104:
 435:src/riscv.cpp **** 
 1520              		.loc 1 435 1
 1521 0734 83308100 		ld	ra,8(sp)
 1522              		.cfi_remember_state
 1523              		.cfi_restore 1
 1524 0738 03340100 		ld	s0,0(sp)
 1525              		.cfi_restore 8
 1526              		.cfi_def_cfa 2, 16
 1527 073c 13010101 		addi	sp,sp,16
 1528              		.cfi_def_cfa_offset 0
 1529 0740 67800000 		jr	ra
 1530              	.LVL105:
 1531              	.L81:
 1532              		.cfi_restore_state
 427:src/riscv.cpp ****     else
 1533              		.loc 1 427 9 is_stmt 1
 427:src/riscv.cpp ****     else
 1534              		.loc 1 427 32 is_stmt 0
 1535 0744 97000000 		call	_ZN3SCB6signalEv@plt
 1535      E7800000 
 1536              	.LVL106:
 424:src/riscv.cpp **** 
 1537              		.loc 1 424 12
 1538 074c 93070000 		li	a5,0
 1539 0750 6FF09FFD 		j	.L78
 1540              		.cfi_endproc
 1541              	.LFE50:
 1543              		.align	2
 1544              		.globl	_ZN5RiscV23executeTimeSleepSyscallEv
 1546              	_ZN5RiscV23executeTimeSleepSyscallEv:
 1547              	.LFB51:
 437:src/riscv.cpp **** 
 1548              		.loc 1 437 39 is_stmt 1
 1549              		.cfi_startproc
 1550 0754 130101FE 		addi	sp,sp,-32
 1551              		.cfi_def_cfa_offset 32
 1552 0758 233C1100 		sd	ra,24(sp)
 1553 075c 23388100 		sd	s0,16(sp)
 1554 0760 23349100 		sd	s1,8(sp)
 1555              		.cfi_offset 1, -8
GAS LISTING /tmp/ccvbDvuT.s 			page 47


 1556              		.cfi_offset 8, -16
 1557              		.cfi_offset 9, -24
 1558 0764 13040102 		addi	s0,sp,32
 1559              		.cfi_def_cfa 8, 0
 440:src/riscv.cpp **** 
 1560              		.loc 1 440 5
 442:src/riscv.cpp **** 
 1561              		.loc 1 442 5
 442:src/riscv.cpp **** 
 1562              		.loc 1 442 49 is_stmt 0
 1563              	#APP
 1564              	# 442 "src/riscv.cpp" 1
 446:src/riscv.cpp ****     tcb->sleepTime = globalTime;
 1565              		mv a4, a1
 1566              	# 0 "" 2
 1567              		.loc 1 446 5 is_stmt 1
 446:src/riscv.cpp ****     tcb->sleepTime = globalTime;
 1568              		.loc 1 446 10 is_stmt 0
 1569              	#NO_APP
 1570 076c 97070000 		la	a5,_ZN3TCB7runningE
 1570      83B70700 
 1571 0774 83B40700 		ld	s1,0(a5)
 1572              	.LVL107:
 447:src/riscv.cpp ****     tcb->wakeTime = globalTime + itime;
 1573              		.loc 1 447 5 is_stmt 1
 447:src/riscv.cpp ****     tcb->wakeTime = globalTime + itime;
 1574              		.loc 1 447 20 is_stmt 0
 1575 0778 97070000 		ld	a5,.LANCHOR0+8
 1575      83B70700 
 1576 0780 23B8F404 		sd	a5,80(s1)
 448:src/riscv.cpp **** 
 1577              		.loc 1 448 5 is_stmt 1
 448:src/riscv.cpp **** 
 1578              		.loc 1 448 32 is_stmt 0
 1579 0784 B387E700 		add	a5,a5,a4
 448:src/riscv.cpp **** 
 1580              		.loc 1 448 19
 1581 0788 23BCF404 		sd	a5,88(s1)
 450:src/riscv.cpp **** 
 1582              		.loc 1 450 5 is_stmt 1
 450:src/riscv.cpp **** 
 1583              		.loc 1 450 21 is_stmt 0
 1584 078c 13850400 		mv	a0,s1
 1585 0790 97000000 		call	_ZN9Scheduler5sleepEP3TCB@plt
 1585      E7800000 
 1586              	.LVL108:
 452:src/riscv.cpp **** 
 1587              		.loc 1 452 5 is_stmt 1
 452:src/riscv.cpp **** 
 1588              		.loc 1 452 17 is_stmt 0
 1589 0798 93073000 		li	a5,3
 1590 079c 23A8F400 		sw	a5,16(s1)
 454:src/riscv.cpp **** 
 1591              		.loc 1 454 5 is_stmt 1
 454:src/riscv.cpp **** 
 1592              		.loc 1 454 18 is_stmt 0
 1593 07a0 97000000 		call	_ZN3TCB8dispatchEv@plt
GAS LISTING /tmp/ccvbDvuT.s 			page 48


 1593      E7800000 
 1594              	.LVL109:
 456:src/riscv.cpp **** 
 1595              		.loc 1 456 5 is_stmt 1
 459:src/riscv.cpp **** 
 1596              		.loc 1 459 5
 459:src/riscv.cpp **** 
 1597              		.loc 1 459 54 is_stmt 0
 1598 07a8 93070000 		li	a5,0
 1599              	#APP
 1600              	# 459 "src/riscv.cpp" 1
 461:src/riscv.cpp **** }
 1601              		mv a0, a5
 1602              	# 0 "" 2
 1603              		.loc 1 461 5 is_stmt 1
 461:src/riscv.cpp **** }
 1604              		.loc 1 461 28 is_stmt 0
 1605              	#NO_APP
 1606 07b0 97000000 		call	_ZN5RiscV16saveA0toSscratchEv
 1606      E7800000 
 1607              	.LVL110:
 462:src/riscv.cpp **** 
 1608              		.loc 1 462 1
 1609 07b8 83308101 		ld	ra,24(sp)
 1610              		.cfi_restore 1
 1611 07bc 03340101 		ld	s0,16(sp)
 1612              		.cfi_restore 8
 1613              		.cfi_def_cfa 2, 32
 1614 07c0 83348100 		ld	s1,8(sp)
 1615              		.cfi_restore 9
 1616              	.LVL111:
 1617 07c4 13010102 		addi	sp,sp,32
 1618              		.cfi_def_cfa_offset 0
 1619 07c8 67800000 		jr	ra
 1620              		.cfi_endproc
 1621              	.LFE51:
 1623              		.align	2
 1624              		.globl	_ZN5RiscV18executeGetcSyscallEv
 1626              	_ZN5RiscV18executeGetcSyscallEv:
 1627              	.LFB52:
 464:src/riscv.cpp **** 
 1628              		.loc 1 464 34 is_stmt 1
 1629              		.cfi_startproc
 1630 07cc 130101FE 		addi	sp,sp,-32
 1631              		.cfi_def_cfa_offset 32
 1632 07d0 233C1100 		sd	ra,24(sp)
 1633 07d4 23388100 		sd	s0,16(sp)
 1634 07d8 23349100 		sd	s1,8(sp)
 1635              		.cfi_offset 1, -8
 1636              		.cfi_offset 8, -16
 1637              		.cfi_offset 9, -24
 1638 07dc 13040102 		addi	s0,sp,32
 1639              		.cfi_def_cfa 8, 0
 467:src/riscv.cpp ****         ConsoleUtil::pendingGetc++;
 1640              		.loc 1 467 5
 467:src/riscv.cpp ****         ConsoleUtil::pendingGetc++;
 1641              		.loc 1 467 8 is_stmt 0
GAS LISTING /tmp/ccvbDvuT.s 			page 49


 1642 07e0 97070000 		lbu	a5,.LANCHOR0
 1642      83C70700 
 467:src/riscv.cpp ****         ConsoleUtil::pendingGetc++;
 1643              		.loc 1 467 5
 1644 07e8 639C0700 		bnez	a5,.L85
 468:src/riscv.cpp **** 
 1645              		.loc 1 468 9 is_stmt 1
 468:src/riscv.cpp **** 
 1646              		.loc 1 468 33 is_stmt 0
 1647 07ec 17070000 		la	a4,_ZN11ConsoleUtil11pendingGetcE
 1647      03370700 
 1648 07f4 83370700 		ld	a5,0(a4)
 1649 07f8 93871700 		addi	a5,a5,1
 1650 07fc 2330F700 		sd	a5,0(a4)
 1651              	.L85:
 471:src/riscv.cpp **** 
 1652              		.loc 1 471 5 is_stmt 1
 471:src/riscv.cpp **** 
 1653              		.loc 1 471 35 is_stmt 0
 1654 0800 97000000 		call	_ZN11ConsoleUtil8getInputEv@plt
 1654      E7800000 
 1655              	.LVL112:
 1656 0808 93040500 		mv	s1,a0
 1657              	.LVL113:
 474:src/riscv.cpp ****         ConsoleUtil::putOutput(13);
 1658              		.loc 1 474 5 is_stmt 1
 1659 080c 9307D000 		li	a5,13
 1660 0810 6306F502 		beq	a0,a5,.L89
 479:src/riscv.cpp ****         ConsoleUtil::putOutput(c);
 1661              		.loc 1 479 10
 1662 0814 9307B001 		li	a5,27
 1663 0818 6310F504 		bne	a0,a5,.L90
 1664              	.LVL114:
 1665              	.L87:
 483:src/riscv.cpp **** 
 1666              		.loc 1 483 5
 483:src/riscv.cpp **** 
 1667              		.loc 1 483 39 is_stmt 0
 1668              	#APP
 1669              	# 483 "src/riscv.cpp" 1
 485:src/riscv.cpp **** }
 1670              		mv a0, s1
 1671              	# 0 "" 2
 1672              		.loc 1 485 5 is_stmt 1
 485:src/riscv.cpp **** }
 1673              		.loc 1 485 28 is_stmt 0
 1674              	#NO_APP
 1675 0820 97000000 		call	_ZN5RiscV16saveA0toSscratchEv
 1675      E7800000 
 1676              	.LVL115:
 486:src/riscv.cpp **** 
 1677              		.loc 1 486 1
 1678 0828 83308101 		ld	ra,24(sp)
 1679              		.cfi_remember_state
 1680              		.cfi_restore 1
 1681 082c 03340101 		ld	s0,16(sp)
 1682              		.cfi_restore 8
GAS LISTING /tmp/ccvbDvuT.s 			page 50


 1683              		.cfi_def_cfa 2, 32
 1684 0830 83348100 		ld	s1,8(sp)
 1685              		.cfi_restore 9
 1686 0834 13010102 		addi	sp,sp,32
 1687              		.cfi_def_cfa_offset 0
 1688 0838 67800000 		jr	ra
 1689              	.LVL116:
 1690              	.L89:
 1691              		.cfi_restore_state
 475:src/riscv.cpp ****         ConsoleUtil::putOutput(10);
 1692              		.loc 1 475 9 is_stmt 1
 475:src/riscv.cpp ****         ConsoleUtil::putOutput(10);
 1693              		.loc 1 475 31 is_stmt 0
 1694 083c 1305D000 		li	a0,13
 1695              	.LVL117:
 1696 0840 97000000 		call	_ZN11ConsoleUtil9putOutputEc@plt
 1696      E7800000 
 1697              	.LVL118:
 476:src/riscv.cpp ****     }
 1698              		.loc 1 476 9 is_stmt 1
 476:src/riscv.cpp ****     }
 1699              		.loc 1 476 31 is_stmt 0
 1700 0848 1305A000 		li	a0,10
 1701 084c 97000000 		call	_ZN11ConsoleUtil9putOutputEc@plt
 1701      E7800000 
 1702              	.LVL119:
 1703 0854 6FF09FFC 		j	.L87
 1704              	.LVL120:
 1705              	.L90:
 480:src/riscv.cpp **** 
 1706              		.loc 1 480 9 is_stmt 1
 480:src/riscv.cpp **** 
 1707              		.loc 1 480 31 is_stmt 0
 1708 0858 97000000 		call	_ZN11ConsoleUtil9putOutputEc@plt
 1708      E7800000 
 1709              	.LVL121:
 1710 0860 6FF0DFFB 		j	.L87
 1711              		.cfi_endproc
 1712              	.LFE52:
 1714              		.align	2
 1715              		.globl	_ZN5RiscV22executePutcUtilSyscallEv
 1717              	_ZN5RiscV22executePutcUtilSyscallEv:
 1718              	.LFB55:
 536:src/riscv.cpp ****     char c = ConsoleUtil::getOutput();
 1719              		.loc 1 536 38 is_stmt 1
 1720              		.cfi_startproc
 1721 0864 130101FF 		addi	sp,sp,-16
 1722              		.cfi_def_cfa_offset 16
 1723 0868 23341100 		sd	ra,8(sp)
 1724 086c 23308100 		sd	s0,0(sp)
 1725              		.cfi_offset 1, -8
 1726              		.cfi_offset 8, -16
 1727 0870 13040101 		addi	s0,sp,16
 1728              		.cfi_def_cfa 8, 0
 537:src/riscv.cpp ****     asm("mv a0, %[c]" : : [c] "r" ((uint64)(c)) );
 1729              		.loc 1 537 5
 537:src/riscv.cpp ****     asm("mv a0, %[c]" : : [c] "r" ((uint64)(c)) );
GAS LISTING /tmp/ccvbDvuT.s 			page 51


 1730              		.loc 1 537 36 is_stmt 0
 1731 0874 97000000 		call	_ZN11ConsoleUtil9getOutputEv@plt
 1731      E7800000 
 1732              	.LVL122:
 538:src/riscv.cpp **** 
 1733              		.loc 1 538 5 is_stmt 1
 538:src/riscv.cpp **** 
 1734              		.loc 1 538 50 is_stmt 0
 1735              	#APP
 1736              	# 538 "src/riscv.cpp" 1
 540:src/riscv.cpp **** }
 1737              		mv a0, a0
 1738              	# 0 "" 2
 1739              		.loc 1 540 5 is_stmt 1
 540:src/riscv.cpp **** }
 1740              		.loc 1 540 28 is_stmt 0
 1741              	#NO_APP
 1742 0880 97000000 		call	_ZN5RiscV16saveA0toSscratchEv
 1742      E7800000 
 1743              	.LVL123:
 541:src/riscv.cpp **** 
 1744              		.loc 1 541 1
 1745 0888 83308100 		ld	ra,8(sp)
 1746              		.cfi_restore 1
 1747 088c 03340100 		ld	s0,0(sp)
 1748              		.cfi_restore 8
 1749              		.cfi_def_cfa 2, 16
 1750 0890 13010101 		addi	sp,sp,16
 1751              		.cfi_def_cfa_offset 0
 1752 0894 67800000 		jr	ra
 1753              		.cfi_endproc
 1754              	.LFE55:
 1756              		.align	2
 1757              		.globl	_ZN5RiscV24executeThreadFreeSyscallEv
 1759              	_ZN5RiscV24executeThreadFreeSyscallEv:
 1760              	.LFB59:
 579:src/riscv.cpp **** 
 580:src/riscv.cpp **** //syscall to free the space that is allocated for thread
 581:src/riscv.cpp **** void RiscV::executeThreadFreeSyscall() {
 1761              		.loc 1 581 40 is_stmt 1
 1762              		.cfi_startproc
 1763 0898 130101FE 		addi	sp,sp,-32
 1764              		.cfi_def_cfa_offset 32
 1765 089c 233C1100 		sd	ra,24(sp)
 1766 08a0 23388100 		sd	s0,16(sp)
 1767 08a4 23349100 		sd	s1,8(sp)
 1768 08a8 23302101 		sd	s2,0(sp)
 1769              		.cfi_offset 1, -8
 1770              		.cfi_offset 8, -16
 1771              		.cfi_offset 9, -24
 1772              		.cfi_offset 18, -32
 1773 08ac 13040102 		addi	s0,sp,32
 1774              		.cfi_def_cfa 8, 0
 582:src/riscv.cpp ****     uint64 iaddr, status;
 1775              		.loc 1 582 5
 583:src/riscv.cpp **** 
 584:src/riscv.cpp ****     asm("mv %[iaddr], a1" : [iaddr] "=r"(iaddr));
GAS LISTING /tmp/ccvbDvuT.s 			page 52


 1776              		.loc 1 584 5
 1777              		.loc 1 584 49 is_stmt 0
 1778              	#APP
 1779              	# 584 "src/riscv.cpp" 1
 585              	
 1780              		mv s1, a1
 1781              	# 0 "" 2
 1782              	.LVL124:
 586:src/riscv.cpp ****     TCB *thr = (TCB*)iaddr;
 1783              		.loc 1 586 5 is_stmt 1
 587:src/riscv.cpp **** 
 588:src/riscv.cpp ****     if(thr == nullptr)
 1784              		.loc 1 588 5
 1785              	#NO_APP
 1786 08b4 63960402 		bnez	s1,.L97
 589:src/riscv.cpp ****         status = -1;
 1787              		.loc 1 589 16 is_stmt 0
 1788 08b8 1309F0FF 		li	s2,-1
 1789              	.L94:
 1790              	.LVL125:
 590:src/riscv.cpp ****     else {
 591:src/riscv.cpp ****         status = MemoryAllocator::kfree(thr->stack);
 592:src/riscv.cpp ****         delete thr;
 593:src/riscv.cpp ****     }
 594:src/riscv.cpp **** 
 595:src/riscv.cpp ****     //return status
 596:src/riscv.cpp ****     asm("mv a0, %[status]" : : [status] "r" (status));
 1791              		.loc 1 596 5 is_stmt 1
 1792              		.loc 1 596 54 is_stmt 0
 1793              	#APP
 1794              	# 596 "src/riscv.cpp" 1
 597              	
 598:src/riscv.cpp ****     RiscV::saveA0toSscratch();
 1795              		mv a0, s2
 1796              	# 0 "" 2
 1797              		.loc 1 598 5 is_stmt 1
 1798              		.loc 1 598 28 is_stmt 0
 1799              	#NO_APP
 1800 08c0 97000000 		call	_ZN5RiscV16saveA0toSscratchEv
 1800      E7800000 
 1801              	.LVL126:
 599:src/riscv.cpp **** }
 1802              		.loc 1 599 1
 1803 08c8 83308101 		ld	ra,24(sp)
 1804              		.cfi_remember_state
 1805              		.cfi_restore 1
 1806 08cc 03340101 		ld	s0,16(sp)
 1807              		.cfi_restore 8
 1808              		.cfi_def_cfa 2, 32
 1809 08d0 83348100 		ld	s1,8(sp)
 1810              		.cfi_restore 9
 1811              	.LVL127:
 1812 08d4 03390100 		ld	s2,0(sp)
 1813              		.cfi_restore 18
 1814              	.LVL128:
 1815 08d8 13010102 		addi	sp,sp,32
 1816              		.cfi_def_cfa_offset 0
GAS LISTING /tmp/ccvbDvuT.s 			page 53


 1817 08dc 67800000 		jr	ra
 1818              	.LVL129:
 1819              	.L97:
 1820              		.cfi_restore_state
 591:src/riscv.cpp ****         delete thr;
 1821              		.loc 1 591 9 is_stmt 1
 591:src/riscv.cpp ****         delete thr;
 1822              		.loc 1 591 40 is_stmt 0
 1823 08e0 03B58402 		ld	a0,40(s1)
 1824 08e4 97000000 		call	_ZN15MemoryAllocator5kfreeEPv@plt
 1824      E7800000 
 1825              	.LVL130:
 1826 08ec 13090500 		mv	s2,a0
 1827              	.LVL131:
 592:src/riscv.cpp ****     }
 1828              		.loc 1 592 9 is_stmt 1
 592:src/riscv.cpp ****     }
 1829              		.loc 1 592 16 is_stmt 0
 1830 08f0 13850400 		mv	a0,s1
 1831              	.LVL132:
 1832 08f4 97000000 		call	_ZN3TCBD1Ev@plt
 1832      E7800000 
 1833              	.LVL133:
 1834 08fc 13850400 		mv	a0,s1
 1835 0900 97000000 		call	_ZN3TCBdlEPv@plt
 1835      E7800000 
 1836              	.LVL134:
 1837 0908 6FF05FFB 		j	.L94
 1838              		.cfi_endproc
 1839              	.LFE59:
 1841              		.align	2
 1842              		.globl	_ZN5RiscV27executeSemaphoreFreeSyscallEv
 1844              	_ZN5RiscV27executeSemaphoreFreeSyscallEv:
 1845              	.LFB60:
 600:src/riscv.cpp **** 
 601:src/riscv.cpp **** //syscall to free the space that is allocated for semaphore
 602:src/riscv.cpp **** void RiscV::executeSemaphoreFreeSyscall() {
 1846              		.loc 1 602 43 is_stmt 1
 1847              		.cfi_startproc
 1848 090c 130101FE 		addi	sp,sp,-32
 1849              		.cfi_def_cfa_offset 32
 1850 0910 233C1100 		sd	ra,24(sp)
 1851 0914 23388100 		sd	s0,16(sp)
 1852 0918 23349100 		sd	s1,8(sp)
 1853              		.cfi_offset 1, -8
 1854              		.cfi_offset 8, -16
 1855              		.cfi_offset 9, -24
 1856 091c 13040102 		addi	s0,sp,32
 1857              		.cfi_def_cfa 8, 0
 603:src/riscv.cpp ****     uint64 iaddr, status;
 1858              		.loc 1 603 5
 604:src/riscv.cpp **** 
 605:src/riscv.cpp ****     //call internal allocator and free memory which iaddr points to
 606:src/riscv.cpp ****     asm("mv %[iaddr], a1" : [iaddr] "=r"(iaddr));
 1859              		.loc 1 606 5
 1860              		.loc 1 606 49 is_stmt 0
 1861              	#APP
GAS LISTING /tmp/ccvbDvuT.s 			page 54


 1862              	# 606 "src/riscv.cpp" 1
 607              	
 1863              		mv s1, a1
 1864              	# 0 "" 2
 1865              	.LVL135:
 608:src/riscv.cpp ****     SCB *scb = (SCB*)iaddr;
 1866              		.loc 1 608 5 is_stmt 1
 609:src/riscv.cpp **** 
 610:src/riscv.cpp ****     if(scb == nullptr){
 1867              		.loc 1 610 5
 1868              	#NO_APP
 1869 0924 63940402 		bnez	s1,.L101
 1870              	.L99:
 1871              	.LVL136:
 611:src/riscv.cpp ****         status = -1;
 612:src/riscv.cpp ****     }
 613:src/riscv.cpp ****     else
 614:src/riscv.cpp ****         delete scb;
 615:src/riscv.cpp **** 
 616:src/riscv.cpp ****     //return status
 617:src/riscv.cpp ****     asm("mv a0, %[status]" : : [status] "r" (status));
 1872              		.loc 1 617 5
 1873              		.loc 1 617 54 is_stmt 0
 1874 0928 9307F0FF 		li	a5,-1
 1875              	#APP
 1876              	# 617 "src/riscv.cpp" 1
 618              	
 619:src/riscv.cpp ****     RiscV::saveA0toSscratch();
 1877              		mv a0, a5
 1878              	# 0 "" 2
 1879              		.loc 1 619 5 is_stmt 1
 1880              		.loc 1 619 28 is_stmt 0
 1881              	#NO_APP
 1882 0930 97000000 		call	_ZN5RiscV16saveA0toSscratchEv
 1882      E7800000 
 1883              	.LVL137:
 620:src/riscv.cpp **** }
 1884              		.loc 1 620 1
 1885 0938 83308101 		ld	ra,24(sp)
 1886              		.cfi_remember_state
 1887              		.cfi_restore 1
 1888 093c 03340101 		ld	s0,16(sp)
 1889              		.cfi_restore 8
 1890              		.cfi_def_cfa 2, 32
 1891 0940 83348100 		ld	s1,8(sp)
 1892              		.cfi_restore 9
 1893              	.LVL138:
 1894 0944 13010102 		addi	sp,sp,32
 1895              		.cfi_def_cfa_offset 0
 1896 0948 67800000 		jr	ra
 1897              	.LVL139:
 1898              	.L101:
 1899              		.cfi_restore_state
 614:src/riscv.cpp **** 
 1900              		.loc 1 614 9 is_stmt 1 discriminator 1
 614:src/riscv.cpp **** 
 1901              		.loc 1 614 16 is_stmt 0 discriminator 1
GAS LISTING /tmp/ccvbDvuT.s 			page 55


 1902 094c 13850400 		mv	a0,s1
 1903 0950 97000000 		call	_ZN3SCBD1Ev@plt
 1903      E7800000 
 1904              	.LVL140:
 1905 0958 13850400 		mv	a0,s1
 1906 095c 97000000 		call	_ZN3SCBdlEPv@plt
 1906      E7800000 
 1907              	.LVL141:
 1908 0964 6FF05FFC 		j	.L99
 1909              		.cfi_endproc
 1910              	.LFE60:
 1912              		.align	2
 1913              		.globl	_ZN5RiscV18executeForkSyscallEv
 1915              	_ZN5RiscV18executeForkSyscallEv:
 1916              	.LFB61:
 621:src/riscv.cpp **** 
 622:src/riscv.cpp **** //fork syscall
 623:src/riscv.cpp **** void RiscV::executeForkSyscall() {
 1917              		.loc 1 623 34 is_stmt 1
 1918              		.cfi_startproc
 1919              		.cfi_personality 0x9b,DW.ref.__gxx_personality_v0
 1920              		.cfi_lsda 0x1b,.LLSDA61
 1921 0968 130101FE 		addi	sp,sp,-32
 1922              		.cfi_def_cfa_offset 32
 1923 096c 233C1100 		sd	ra,24(sp)
 1924 0970 23388100 		sd	s0,16(sp)
 1925 0974 23349100 		sd	s1,8(sp)
 1926 0978 23302101 		sd	s2,0(sp)
 1927              		.cfi_offset 1, -8
 1928              		.cfi_offset 8, -16
 1929              		.cfi_offset 9, -24
 1930              		.cfi_offset 18, -32
 1931 097c 13040102 		addi	s0,sp,32
 1932              		.cfi_def_cfa 8, 0
 624:src/riscv.cpp **** 
 625:src/riscv.cpp ****     //create new stack and copy stack from currently running stack into the new one
 626:src/riscv.cpp ****     uint64 *stack = (uint64*)MemoryAllocator::kmalloc((DEFAULT_STACK_SIZE+MEM_BLOCK_SIZE-1)/MEM_BLO
 1933              		.loc 1 626 5
 1934              		.loc 1 626 54 is_stmt 0
 1935 0980 13050004 		li	a0,64
 1936              	.LEHB10:
 1937 0984 97000000 		call	_ZN15MemoryAllocator7kmallocEm@plt
 1937      E7800000 
 1938              	.LVL142:
 1939 098c 13090500 		mv	s2,a0
 1940              	.LVL143:
 627:src/riscv.cpp **** 
 628:src/riscv.cpp ****     MemoryAllocator::memcpy((void*)TCB::running->stack,(void*)stack,DEFAULT_STACK_SIZE);
 1941              		.loc 1 628 5 is_stmt 1
 1942              		.loc 1 628 28 is_stmt 0
 1943 0990 97070000 		la	a5,_ZN3TCB7runningE
 1943      83B70700 
 1944 0998 83B70700 		ld	a5,0(a5)
 1945 099c 37160000 		li	a2,4096
 1946 09a0 93050500 		mv	a1,a0
 1947 09a4 03B58702 		ld	a0,40(a5)
 1948              	.LVL144:
GAS LISTING /tmp/ccvbDvuT.s 			page 56


 1949 09a8 97000000 		call	_ZN15MemoryAllocator6memcpyEPvS0_m@plt
 1949      E7800000 
 1950              	.LVL145:
 629:src/riscv.cpp **** 
 630:src/riscv.cpp ****     //create new TCB for new thread
 631:src/riscv.cpp ****     TCB *forked = new TCB(nullptr, nullptr, stack, DEFAULT_TIME_SLICE);
 1951              		.loc 1 631 5 is_stmt 1
 1952              		.loc 1 631 70 is_stmt 0
 1953 09b0 13050007 		li	a0,112
 1954 09b4 97000000 		call	_ZN3TCBnwEm@plt
 1954      E7800000 
 1955              	.LVL146:
 1956              	.LEHE10:
 1957 09bc 93040500 		mv	s1,a0
 1958 09c0 13072000 		li	a4,2
 1959 09c4 93060900 		mv	a3,s2
 1960 09c8 13060000 		li	a2,0
 1961 09cc 93050000 		li	a1,0
 1962              	.LEHB11:
 1963 09d0 97000000 		call	_ZN3TCBC1EPFvPvES0_Pmm@plt
 1963      E7800000 
 1964              	.LVL147:
 1965              	.LEHE11:
 632:src/riscv.cpp **** 
 633:src/riscv.cpp ****     uint64 status = 0;
 1966              		.loc 1 633 5 is_stmt 1 discriminator 2
 634:src/riscv.cpp **** 
 635:src/riscv.cpp ****     if(forked) {
 1967              		.loc 1 635 5 discriminator 2
 1968              	.LBB124:
 1969 09d8 638E040A 		beqz	s1,.L105
 1970              	.LBB125:
 636:src/riscv.cpp **** 
 637:src/riscv.cpp ****         //set return address where forked thread should return
 638:src/riscv.cpp ****         forked->context.ra = TCB::currentPC;
 1971              		.loc 1 638 9
 1972              		.loc 1 638 28 is_stmt 0
 1973 09dc 97070000 		la	a5,_ZN3TCB9currentPCE
 1973      83B70700 
 1974 09e4 83B70700 		ld	a5,0(a5)
 1975 09e8 23B4F400 		sd	a5,8(s1)
 639:src/riscv.cpp **** 
 640:src/riscv.cpp ****         //set SP value where forked thread's stack starts
 641:src/riscv.cpp ****         forked->context.sp = (uint64)((char*)stack + TCB::currentSP - (char*)TCB::running->stack);
 1976              		.loc 1 641 9 is_stmt 1
 1977              		.loc 1 641 59 is_stmt 0
 1978 09ec 97070000 		la	a5,_ZN3TCB9currentSPE
 1978      83B70700 
 1979 09f4 83B70700 		ld	a5,0(a5)
 1980              		.loc 1 641 52
 1981 09f8 B307F900 		add	a5,s2,a5
 1982              		.loc 1 641 71
 1983 09fc 17070000 		la	a4,_ZN3TCB7runningE
 1983      03370700 
 1984 0a04 83360700 		ld	a3,0(a4)
 1985              		.loc 1 641 92
 1986 0a08 83B68602 		ld	a3,40(a3)
GAS LISTING /tmp/ccvbDvuT.s 			page 57


 1987              		.loc 1 641 69
 1988 0a0c B387D740 		sub	a5,a5,a3
 1989              		.loc 1 641 28
 1990 0a10 23B0F400 		sd	a5,0(s1)
 642:src/riscv.cpp **** 
 643:src/riscv.cpp ****         //get memory location of where registers are stored from previous context switch
 644:src/riscv.cpp ****         uint64 registerStartSP = (uint64)((char*)TCB::running->a0Location - (char*)TCB::running->st
 1991              		.loc 1 644 9 is_stmt 1
 1992              		.loc 1 644 64 is_stmt 0
 1993 0a14 83370700 		ld	a5,0(a4)
 1994 0a18 03B58706 		ld	a0,104(a5)
 1995              		.loc 1 644 98
 1996 0a1c 83B78702 		ld	a5,40(a5)
 1997              		.loc 1 644 75
 1998 0a20 3305F540 		sub	a0,a0,a5
 1999              		.loc 1 644 104
 2000 0a24 3309A900 		add	s2,s2,a0
 2001              	.LVL148:
 645:src/riscv.cpp **** 
 646:src/riscv.cpp ****         forked->a0Location = registerStartSP;
 2002              		.loc 1 646 9 is_stmt 1
 2003              		.loc 1 646 28 is_stmt 0
 2004 0a28 23B42407 		sd	s2,104(s1)
 647:src/riscv.cpp **** 
 648:src/riscv.cpp ****         uint64 a1,a0;
 2005              		.loc 1 648 9 is_stmt 1
 649:src/riscv.cpp **** 
 650:src/riscv.cpp ****         //write address of stored registers in SP of forked thread so that it can return regularly
 651:src/riscv.cpp ****         asm("mv %[a1], a1": [a1] "=r"(a1));
 2006              		.loc 1 651 9
 2007              		.loc 1 651 43 is_stmt 0
 2008              	#APP
 2009              	# 651 "src/riscv.cpp" 1
 652              	
 653:src/riscv.cpp ****         asm("mv %[a0], a0": [a0] "=r"(a0));
 2010              		mv a3, a1
 2011              	# 0 "" 2
 2012              		.loc 1 653 9 is_stmt 1
 2013              		.loc 1 653 43 is_stmt 0
 2014              	# 653 "src/riscv.cpp" 1
 654              	
 655:src/riscv.cpp ****         asm("mv a0,%[a0]"::  [a0]"r"(registerStartSP));
 2015              		mv a5, a0
 2016              	# 0 "" 2
 2017              		.loc 1 655 9 is_stmt 1
 2018              		.loc 1 655 55 is_stmt 0
 2019              	# 655 "src/riscv.cpp" 1
 656              	
 657:src/riscv.cpp ****         asm("mv a1, %[a0]" : :  [a0] "r"(registerStartSP));
 2020              		mv a0,s2
 2021              	# 0 "" 2
 2022              		.loc 1 657 9 is_stmt 1
 2023              		.loc 1 657 59 is_stmt 0
 2024              	# 657 "src/riscv.cpp" 1
 658              	
 659:src/riscv.cpp ****         asm("sd a0, 16(a1)");
 2025              		mv a1, s2
GAS LISTING /tmp/ccvbDvuT.s 			page 58


 2026              	# 0 "" 2
 2027              		.loc 1 659 9 is_stmt 1
 2028              		.loc 1 659 29 is_stmt 0
 2029              	# 659 "src/riscv.cpp" 1
 660              	
 661:src/riscv.cpp ****         //write 0 in a0 register of forked thread because fork should return 0 in context of child,
 662:src/riscv.cpp ****         asm("li a0, 0");
 2030              		sd a0, 16(a1)
 2031              	# 0 "" 2
 2032              		.loc 1 662 9 is_stmt 1
 2033              		.loc 1 662 24 is_stmt 0
 2034              	# 662 "src/riscv.cpp" 1
 663              	
 664:src/riscv.cpp ****         asm("sd a0, 80(a1)");
 2035              		li a0, 0
 2036              	# 0 "" 2
 2037              		.loc 1 664 9 is_stmt 1
 2038              		.loc 1 664 29 is_stmt 0
 2039              	# 664 "src/riscv.cpp" 1
 665              	
 666:src/riscv.cpp ****         asm("mv a1,%[a1]"::  [a1]"r"(a1));
 2040              		sd a0, 80(a1)
 2041              	# 0 "" 2
 2042              		.loc 1 666 9 is_stmt 1
 2043              		.loc 1 666 42 is_stmt 0
 2044              	# 666 "src/riscv.cpp" 1
 667              	
 668:src/riscv.cpp ****         asm("mv a0,%[a0]"::  [a0]"r"(a0));
 2045              		mv a1,a3
 2046              	# 0 "" 2
 2047              		.loc 1 668 9 is_stmt 1
 2048              		.loc 1 668 42 is_stmt 0
 2049              	# 668 "src/riscv.cpp" 1
 669              	
 670:src/riscv.cpp ****         forked->sepc = TCB::running->sepc;
 2050              		mv a0,a5
 2051              	# 0 "" 2
 2052              		.loc 1 670 9 is_stmt 1
 2053              		.loc 1 670 38 is_stmt 0
 2054              	#NO_APP
 2055 0a50 83370700 		ld	a5,0(a4)
 2056 0a54 03B78703 		ld	a4,56(a5)
 2057              		.loc 1 670 22
 2058 0a58 23BCE402 		sd	a4,56(s1)
 671:src/riscv.cpp **** 
 672:src/riscv.cpp ****         forked->sstatus = TCB::running->sstatus;
 2059              		.loc 1 672 9 is_stmt 1
 2060              		.loc 1 672 41 is_stmt 0
 2061 0a5c 83B70704 		ld	a5,64(a5)
 2062              		.loc 1 672 25
 2063 0a60 23B0F404 		sd	a5,64(s1)
 673:src/riscv.cpp **** 
 674:src/riscv.cpp ****         //put forked in scheduler
 675:src/riscv.cpp ****         Scheduler::put(forked);
 2064              		.loc 1 675 9 is_stmt 1
 2065              		.loc 1 675 23 is_stmt 0
 2066 0a64 13850400 		mv	a0,s1
GAS LISTING /tmp/ccvbDvuT.s 			page 59


 2067              	.LEHB12:
 2068 0a68 97000000 		call	_ZN9Scheduler3putEP3TCB@plt
 2068      E7800000 
 2069              	.LVL149:
 2070              	.LEHE12:
 676:src/riscv.cpp **** 
 677:src/riscv.cpp ****         //return address of forked as thread ID
 678:src/riscv.cpp ****         status = (uint64)forked;
 2071              		.loc 1 678 9 is_stmt 1
 2072              	.L103:
 2073              	.LBE125:
 2074              	.LBE124:
 679:src/riscv.cpp ****     }else
 680:src/riscv.cpp ****         status = -1;
 681:src/riscv.cpp **** 
 682:src/riscv.cpp ****     asm("mv a0, %[status]" : : [status] "r" (status));
 2075              		.loc 1 682 5
 2076              		.loc 1 682 54 is_stmt 0
 2077              	#APP
 2078              	# 682 "src/riscv.cpp" 1
 683              	
 684:src/riscv.cpp ****     RiscV::saveA0toSscratch();
 2079              		mv a0, s1
 2080              	# 0 "" 2
 2081              		.loc 1 684 5 is_stmt 1
 2082              		.loc 1 684 28 is_stmt 0
 2083              	#NO_APP
 2084 0a74 97000000 		call	_ZN5RiscV16saveA0toSscratchEv
 2084      E7800000 
 2085              	.LVL150:
 685:src/riscv.cpp **** 
 686:src/riscv.cpp **** }
 2086              		.loc 1 686 1
 2087 0a7c 83308101 		ld	ra,24(sp)
 2088              		.cfi_remember_state
 2089              		.cfi_restore 1
 2090 0a80 03340101 		ld	s0,16(sp)
 2091              		.cfi_restore 8
 2092              		.cfi_def_cfa 2, 32
 2093 0a84 83348100 		ld	s1,8(sp)
 2094              		.cfi_restore 9
 2095              	.LVL151:
 2096 0a88 03390100 		ld	s2,0(sp)
 2097              		.cfi_restore 18
 2098 0a8c 13010102 		addi	sp,sp,32
 2099              		.cfi_def_cfa_offset 0
 2100 0a90 67800000 		jr	ra
 2101              	.LVL152:
 2102              	.L105:
 2103              		.cfi_restore_state
 2104              	.LBB126:
 680:src/riscv.cpp **** 
 2105              		.loc 1 680 16
 2106 0a94 9304F0FF 		li	s1,-1
 2107              	.LVL153:
 2108 0a98 6FF09FFD 		j	.L103
 2109              	.LVL154:
GAS LISTING /tmp/ccvbDvuT.s 			page 60


 2110              	.L106:
 2111 0a9c 13090500 		mv	s2,a0
 2112              	.LVL155:
 2113              	.LBE126:
 631:src/riscv.cpp **** 
 2114              		.loc 1 631 70
 2115 0aa0 13850400 		mv	a0,s1
 2116 0aa4 97000000 		call	_ZN3TCBdlEPv@plt
 2116      E7800000 
 2117              	.LVL156:
 2118 0aac 13050900 		mv	a0,s2
 2119              	.LEHB13:
 2120 0ab0 97000000 		call	_Unwind_Resume@plt
 2120      E7800000 
 2121              	.LVL157:
 2122              	.LEHE13:
 2123              		.cfi_endproc
 2124              	.LFE61:
 2125              		.section	.gcc_except_table
 2126              	.LLSDA61:
 2127 008e FF       		.byte	0xff
 2128 008f FF       		.byte	0xff
 2129 0090 03       		.byte	0x3
 2130 0091 34       		.byte	0x34
 2131 0092 00000000 		.4byte	.LEHB10-.LFB61
 2132 0096 00000000 		.4byte	.LEHE10-.LEHB10
 2133 009a 00000000 		.4byte	0
 2134 009e 00       		.byte	0
 2135 009f 00000000 		.4byte	.LEHB11-.LFB61
 2136 00a3 00000000 		.4byte	.LEHE11-.LEHB11
 2137 00a7 00000000 		.4byte	.L106-.LFB61
 2138 00ab 00       		.byte	0
 2139 00ac 00000000 		.4byte	.LEHB12-.LFB61
 2140 00b0 00000000 		.4byte	.LEHE12-.LEHB12
 2141 00b4 00000000 		.4byte	0
 2142 00b8 00       		.byte	0
 2143 00b9 00000000 		.4byte	.LEHB13-.LFB61
 2144 00bd 00000000 		.4byte	.LEHE13-.LEHB13
 2145 00c1 00000000 		.4byte	0
 2146 00c5 00       		.byte	0
 2147              		.text
 2149              		.align	2
 2150              		.globl	_ZN5RiscV5getPCEv
 2152              	_ZN5RiscV5getPCEv:
 2153              	.LFB62:
 687:src/riscv.cpp **** 
 688:src/riscv.cpp **** void RiscV::getPC(){
 2154              		.loc 1 688 20 is_stmt 1
 2155              		.cfi_startproc
 2156 0ab8 130101FF 		addi	sp,sp,-16
 2157              		.cfi_def_cfa_offset 16
 2158 0abc 23348100 		sd	s0,8(sp)
 2159              		.cfi_offset 8, -8
 2160 0ac0 13040101 		addi	s0,sp,16
 2161              		.cfi_def_cfa 8, 0
 689:src/riscv.cpp ****     uint64 ra;
 2162              		.loc 1 689 5
GAS LISTING /tmp/ccvbDvuT.s 			page 61


 690:src/riscv.cpp **** 
 691:src/riscv.cpp ****     asm("mv %[ra], ra" : [ra] "=r"(ra));
 2163              		.loc 1 691 5
 2164              		.loc 1 691 40 is_stmt 0
 2165              	#APP
 2166              	# 691 "src/riscv.cpp" 1
 692              	
 2167              		mv a5, ra
 2168              	# 0 "" 2
 2169              	.LVL158:
 693:src/riscv.cpp ****     TCB::currentPC = ra + 8;
 2170              		.loc 1 693 5 is_stmt 1
 2171              		.loc 1 693 25 is_stmt 0
 2172              	#NO_APP
 2173 0ac8 93878700 		addi	a5,a5,8
 2174              	.LVL159:
 2175              		.loc 1 693 20
 2176 0acc 17070000 		la	a4,_ZN3TCB9currentPCE
 2176      03370700 
 2177 0ad4 2330F700 		sd	a5,0(a4)
 694:src/riscv.cpp **** }
 2178              		.loc 1 694 1
 2179 0ad8 03348100 		ld	s0,8(sp)
 2180              		.cfi_restore 8
 2181              		.cfi_def_cfa 2, 16
 2182 0adc 13010101 		addi	sp,sp,16
 2183              		.cfi_def_cfa_offset 0
 2184 0ae0 67800000 		jr	ra
 2185              		.cfi_endproc
 2186              	.LFE62:
 2188              		.section	.rodata.str1.8,"aMS",@progbits,1
 2189              		.align	3
 2190              	.LC0:
 2191 0000 73657063 		.string	"sepc: "
 2191      3A2000
 2192 0007 00       		.align	3
 2193              	.LC1:
 2194 0008 0A00     		.string	"\n"
 2195 000a 00000000 		.align	3
 2195      0000
 2196              	.LC2:
 2197 0010 496C6C65 		.string	"Illegal instruction\nExiting thread...\n"
 2197      67616C20 
 2197      696E7374 
 2197      72756374 
 2197      696F6E0A 
 2198 0037 00       		.align	3
 2199              	.LC3:
 2200 0038 4572726F 		.string	"Error: \n"
 2200      723A200A 
 2200      00
 2201 0041 00000000 		.align	3
 2201      000000
 2202              	.LC4:
 2203 0048 73636175 		.string	"scause: "
 2203      73653A20 
 2203      00
GAS LISTING /tmp/ccvbDvuT.s 			page 62


 2204 0051 00000000 		.align	3
 2204      000000
 2205              	.LC5:
 2206 0058 45786974 		.string	"Exiting thread...\n"
 2206      696E6720 
 2206      74687265 
 2206      61642E2E 
 2206      2E0A00
 2207              		.text
 2208              		.align	2
 2209              		.globl	_ZN5RiscV20handleSupervisorTrapEv
 2211              	_ZN5RiscV20handleSupervisorTrapEv:
 2212              	.LFB39:
  35:src/riscv.cpp **** 
 2213              		.loc 1 35 36 is_stmt 1
 2214              		.cfi_startproc
 2215 0ae4 130101FA 		addi	sp,sp,-96
 2216              		.cfi_def_cfa_offset 96
 2217 0ae8 233C1104 		sd	ra,88(sp)
 2218 0aec 23388104 		sd	s0,80(sp)
 2219              		.cfi_offset 1, -8
 2220              		.cfi_offset 8, -16
 2221 0af0 13040106 		addi	s0,sp,96
 2222              		.cfi_def_cfa 8, 0
  38:src/riscv.cpp **** 
 2223              		.loc 1 38 5
 2224              	.LBB127:
 2225              	.LBB128:
 132:src/../h/riscv.hpp ****     asm("csrr %[scause], scause" : [scause] "=r" (scause));
 2226              		.loc 2 132 5
 133:src/../h/riscv.hpp ****     return scause;
 2227              		.loc 2 133 5
 133:src/../h/riscv.hpp ****     return scause;
 2228              		.loc 2 133 59 is_stmt 0
 2229              	#APP
 2230              	# 133 "src/../h/riscv.hpp" 1
 2231              		csrr a5, scause
 2232              	# 0 "" 2
 2233              	#NO_APP
 2234 0af8 233CF4FC 		sd	a5,-40(s0)
 134:src/../h/riscv.hpp **** }
 2235              		.loc 2 134 5 is_stmt 1
 134:src/../h/riscv.hpp **** }
 2236              		.loc 2 134 12 is_stmt 0
 2237 0afc 833784FD 		ld	a5,-40(s0)
 2238              	.LBE128:
 2239              	.LBE127:
  38:src/riscv.cpp **** 
 2240              		.loc 1 38 46
 2241 0b00 2334F4FE 		sd	a5,-24(s0)
  40:src/riscv.cpp **** 
 2242              		.loc 1 40 5 is_stmt 1
  40:src/riscv.cpp **** 
 2243              		.loc 1 40 71 is_stmt 0
 2244 0b04 97070000 		la	a5,_ZN3TCB7runningE
 2244      83B70700 
 2245 0b0c 83B70700 		ld	a5,0(a5)
GAS LISTING /tmp/ccvbDvuT.s 			page 63


  40:src/riscv.cpp **** 
 2246              		.loc 1 40 83
 2247              	#APP
 2248              	# 40 "src/riscv.cpp" 1
 2249              		csrr a4, sscratch
 2250              	# 0 "" 2
 2251              	#NO_APP
 2252 0b14 23B4E706 		sd	a4,104(a5)
  43:src/riscv.cpp **** 
 2253              		.loc 1 43 5 is_stmt 1
 2254              	.LBB129:
  43:src/riscv.cpp **** 
 2255              		.loc 1 43 15 is_stmt 0
 2256 0b18 033784FE 		ld	a4,-24(s0)
  43:src/riscv.cpp **** 
 2257              		.loc 1 43 23
 2258 0b1c 93079000 		li	a5,9
 2259 0b20 6306F70E 		beq	a4,a5,.L112
  43:src/riscv.cpp **** 
 2260              		.loc 1 43 33 discriminator 2
 2261 0b24 033784FE 		ld	a4,-24(s0)
  43:src/riscv.cpp **** 
 2262              		.loc 1 43 23 discriminator 2
 2263 0b28 93078000 		li	a5,8
 2264 0b2c 6300F70E 		beq	a4,a5,.L112
 2265              	.LBE129:
  89:src/riscv.cpp **** 
 2266              		.loc 1 89 10 is_stmt 1
 2267              	.LBB184:
 2268              	.LBB130:
  89:src/riscv.cpp **** 
 2269              		.loc 1 89 20 is_stmt 0
 2270 0b30 033784FE 		ld	a4,-24(s0)
  89:src/riscv.cpp **** 
 2271              		.loc 1 89 10
 2272 0b34 9307F0FF 		li	a5,-1
 2273 0b38 9397F703 		slli	a5,a5,63
 2274 0b3c 93871700 		addi	a5,a5,1
 2275 0b40 6302F724 		beq	a4,a5,.L142
 2276              	.LBE130:
 2277              	.LBE184:
 124:src/riscv.cpp ****         //save sstatus and sepc
 2278              		.loc 1 124 10 is_stmt 1
 2279              	.LBB185:
 2280              	.LBB171:
 2281              	.LBB131:
 124:src/riscv.cpp ****         //save sstatus and sepc
 2282              		.loc 1 124 20 is_stmt 0
 2283 0b44 033784FE 		ld	a4,-24(s0)
 124:src/riscv.cpp ****         //save sstatus and sepc
 2284              		.loc 1 124 10
 2285 0b48 9307F0FF 		li	a5,-1
 2286 0b4c 9397F703 		slli	a5,a5,63
 2287 0b50 93879700 		addi	a5,a5,9
 2288 0b54 6300F72C 		beq	a4,a5,.L143
 2289              	.LBE131:
 2290              	.LBE171:
GAS LISTING /tmp/ccvbDvuT.s 			page 64


 2291              	.LBE185:
 160:src/riscv.cpp ****         TCB* old = TCB::running;
 2292              		.loc 1 160 10 is_stmt 1
 2293              	.LBB186:
 2294              	.LBB172:
 2295              	.LBB155:
 2296              	.LBB132:
 160:src/riscv.cpp ****         TCB* old = TCB::running;
 2297              		.loc 1 160 20 is_stmt 0
 2298 0b58 033784FE 		ld	a4,-24(s0)
 160:src/riscv.cpp ****         TCB* old = TCB::running;
 2299              		.loc 1 160 10
 2300 0b5c 93072000 		li	a5,2
 2301 0b60 6308F734 		beq	a4,a5,.L144
 2302              	.LBB133:
 173:src/riscv.cpp ****         ConsoleUtil::printString("scause: ");
 2303              		.loc 1 173 9 is_stmt 1
 173:src/riscv.cpp ****         ConsoleUtil::printString("scause: ");
 2304              		.loc 1 173 33 is_stmt 0
 2305 0b64 17050000 		lla	a0,.LC3
 2305      13050500 
 2306 0b6c 97000000 		call	_ZN11ConsoleUtil11printStringEPKc@plt
 2306      E7800000 
 2307              	.LVL160:
 174:src/riscv.cpp ****         uint64  scause = RiscV::r_scause();
 2308              		.loc 1 174 9 is_stmt 1
 174:src/riscv.cpp ****         uint64  scause = RiscV::r_scause();
 2309              		.loc 1 174 33 is_stmt 0
 2310 0b74 17050000 		lla	a0,.LC4
 2310      13050500 
 2311 0b7c 97000000 		call	_ZN11ConsoleUtil11printStringEPKc@plt
 2311      E7800000 
 2312              	.LVL161:
 175:src/riscv.cpp ****         ConsoleUtil::printInt(scause);
 2313              		.loc 1 175 9 is_stmt 1
 2314              	.LBB134:
 2315              	.LBB135:
 132:src/../h/riscv.hpp ****     asm("csrr %[scause], scause" : [scause] "=r" (scause));
 2316              		.loc 2 132 5
 133:src/../h/riscv.hpp ****     return scause;
 2317              		.loc 2 133 5
 133:src/../h/riscv.hpp ****     return scause;
 2318              		.loc 2 133 59 is_stmt 0
 2319              	#APP
 2320              	# 133 "src/../h/riscv.hpp" 1
 2321              		csrr a5, scause
 2322              	# 0 "" 2
 2323              	#NO_APP
 2324 0b88 2330F4FE 		sd	a5,-32(s0)
 134:src/../h/riscv.hpp **** }
 2325              		.loc 2 134 5 is_stmt 1
 134:src/../h/riscv.hpp **** }
 2326              		.loc 2 134 12 is_stmt 0
 2327 0b8c 033504FE 		ld	a0,-32(s0)
 2328              	.LVL162:
 2329              	.LBE135:
 2330              	.LBE134:
GAS LISTING /tmp/ccvbDvuT.s 			page 65


 176:src/riscv.cpp ****         ConsoleUtil::printString("sepc: ");
 2331              		.loc 1 176 9 is_stmt 1
 176:src/riscv.cpp ****         ConsoleUtil::printString("sepc: ");
 2332              		.loc 1 176 30 is_stmt 0
 2333 0b90 13060000 		li	a2,0
 2334 0b94 9305A000 		li	a1,10
 2335 0b98 1B050500 		sext.w	a0,a0
 2336              	.LVL163:
 2337 0b9c 97000000 		call	_ZN11ConsoleUtil8printIntEiii@plt
 2337      E7800000 
 2338              	.LVL164:
 177:src/riscv.cpp ****         uint64 sepc = RiscV::r_sepc();
 2339              		.loc 1 177 9 is_stmt 1
 177:src/riscv.cpp ****         uint64 sepc = RiscV::r_sepc();
 2340              		.loc 1 177 33 is_stmt 0
 2341 0ba4 17050000 		lla	a0,.LC0
 2341      13050500 
 2342 0bac 97000000 		call	_ZN11ConsoleUtil11printStringEPKc@plt
 2342      E7800000 
 2343              	.LVL165:
 178:src/riscv.cpp ****         ConsoleUtil::printInt(sepc,16);
 2344              		.loc 1 178 9 is_stmt 1
 2345              	.LBB136:
 2346              	.LBB137:
 142:src/../h/riscv.hpp ****     asm("csrr %[sepc], sepc" : [sepc] "=r" (sepc));
 2347              		.loc 2 142 5
 143:src/../h/riscv.hpp ****     return sepc;
 2348              		.loc 2 143 5
 143:src/../h/riscv.hpp ****     return sepc;
 2349              		.loc 2 143 51 is_stmt 0
 2350              	#APP
 2351              	# 143 "src/../h/riscv.hpp" 1
 144:src/../h/riscv.hpp **** }
 2352              		csrr a0, sepc
 2353              	# 0 "" 2
 2354              		.loc 2 144 5 is_stmt 1
 2355              	#NO_APP
 2356              	.LBE137:
 2357              	.LBE136:
 179:src/riscv.cpp ****         ConsoleUtil::printString("\n");
 2358              		.loc 1 179 9
 179:src/riscv.cpp ****         ConsoleUtil::printString("\n");
 2359              		.loc 1 179 30 is_stmt 0
 2360 0bb8 13060000 		li	a2,0
 2361 0bbc 93050001 		li	a1,16
 2362 0bc0 1B050500 		sext.w	a0,a0
 2363 0bc4 97000000 		call	_ZN11ConsoleUtil8printIntEiii@plt
 2363      E7800000 
 2364              	.LVL166:
 180:src/riscv.cpp ****         TCB* old = TCB::running;
 2365              		.loc 1 180 9 is_stmt 1
 180:src/riscv.cpp ****         TCB* old = TCB::running;
 2366              		.loc 1 180 33 is_stmt 0
 2367 0bcc 17050000 		lla	a0,.LC1
 2367      13050500 
 2368 0bd4 97000000 		call	_ZN11ConsoleUtil11printStringEPKc@plt
 2368      E7800000 
GAS LISTING /tmp/ccvbDvuT.s 			page 66


 2369              	.LVL167:
 181:src/riscv.cpp ****         old->status = TCB::Status::FINISHED;
 2370              		.loc 1 181 9 is_stmt 1
 181:src/riscv.cpp ****         old->status = TCB::Status::FINISHED;
 2371              		.loc 1 181 14 is_stmt 0
 2372 0bdc 97070000 		la	a5,_ZN3TCB7runningE
 2372      83B70700 
 2373 0be4 83B70700 		ld	a5,0(a5)
 2374              	.LVL168:
 182:src/riscv.cpp ****         ConsoleUtil::printString("Exiting thread...\n");
 2375              		.loc 1 182 9 is_stmt 1
 182:src/riscv.cpp ****         ConsoleUtil::printString("Exiting thread...\n");
 2376              		.loc 1 182 21 is_stmt 0
 2377 0be8 13072000 		li	a4,2
 2378 0bec 23A8E700 		sw	a4,16(a5)
 183:src/riscv.cpp ****         TCB::dispatch();
 2379              		.loc 1 183 9 is_stmt 1
 183:src/riscv.cpp ****         TCB::dispatch();
 2380              		.loc 1 183 33 is_stmt 0
 2381 0bf0 17050000 		lla	a0,.LC5
 2381      13050500 
 2382 0bf8 97000000 		call	_ZN11ConsoleUtil11printStringEPKc@plt
 2382      E7800000 
 2383              	.LVL169:
 184:src/riscv.cpp ****     }
 2384              		.loc 1 184 9 is_stmt 1
 184:src/riscv.cpp ****     }
 2385              		.loc 1 184 22 is_stmt 0
 2386 0c00 97000000 		call	_ZN3TCB8dispatchEv@plt
 2386      E7800000 
 2387              	.LVL170:
 2388 0c08 6F000008 		j	.L135
 2389              	.L112:
 2390              	.LBE133:
 2391              	.LBE132:
 2392              	.LBE155:
 2393              	.LBE172:
 2394              	.LBB173:
  47:src/riscv.cpp ****         uint64 volatile sepc = RiscV::r_sepc()+4;
 2395              		.loc 1 47 9 is_stmt 1
 2396              	.LBB174:
 2397              	.LBB175:
 162:src/../h/riscv.hpp ****     asm("csrr %[sstatus], sstatus" : [sstatus] "=r" (sstatus));
 2398              		.loc 2 162 5
 163:src/../h/riscv.hpp ****     return sstatus;
 2399              		.loc 2 163 5
 163:src/../h/riscv.hpp ****     return sstatus;
 2400              		.loc 2 163 63 is_stmt 0
 2401              	#APP
 2402              	# 163 "src/../h/riscv.hpp" 1
 2403              		csrr a5, sstatus
 2404              	# 0 "" 2
 2405              	.LVL171:
 164:src/../h/riscv.hpp **** }
 2406              		.loc 2 164 5 is_stmt 1
 2407              	#NO_APP
 2408              	.LBE175:
GAS LISTING /tmp/ccvbDvuT.s 			page 67


 2409              	.LBE174:
  47:src/riscv.cpp ****         uint64 volatile sepc = RiscV::r_sepc()+4;
 2410              		.loc 1 47 52 is_stmt 0
 2411 0c10 2334F4FA 		sd	a5,-88(s0)
  48:src/riscv.cpp ****         TCB::running->sepc = sepc;
 2412              		.loc 1 48 9 is_stmt 1
 2413              	.LBB176:
 2414              	.LBB177:
 142:src/../h/riscv.hpp ****     asm("csrr %[sepc], sepc" : [sepc] "=r" (sepc));
 2415              		.loc 2 142 5
 143:src/../h/riscv.hpp ****     return sepc;
 2416              		.loc 2 143 5
 143:src/../h/riscv.hpp ****     return sepc;
 2417              		.loc 2 143 51 is_stmt 0
 2418              	#APP
 2419              	# 143 "src/../h/riscv.hpp" 1
 2420              		csrr a5, sepc
 2421              	# 0 "" 2
 2422              	.LVL172:
 144:src/../h/riscv.hpp **** }
 2423              		.loc 2 144 5 is_stmt 1
 2424              	#NO_APP
 2425              	.LBE177:
 2426              	.LBE176:
  48:src/riscv.cpp ****         TCB::running->sepc = sepc;
 2427              		.loc 1 48 47 is_stmt 0
 2428 0c18 93874700 		addi	a5,a5,4
  48:src/riscv.cpp ****         TCB::running->sepc = sepc;
 2429              		.loc 1 48 48
 2430 0c1c 2338F4FA 		sd	a5,-80(s0)
  49:src/riscv.cpp ****         TCB::running->sstatus = sstatus;
 2431              		.loc 1 49 9 is_stmt 1
  49:src/riscv.cpp ****         TCB::running->sstatus = sstatus;
 2432              		.loc 1 49 23 is_stmt 0
 2433 0c20 97070000 		la	a5,_ZN3TCB7runningE
 2433      83B70700 
 2434 0c28 83B70700 		ld	a5,0(a5)
  49:src/riscv.cpp ****         TCB::running->sstatus = sstatus;
 2435              		.loc 1 49 28
 2436 0c2c 033704FB 		ld	a4,-80(s0)
 2437 0c30 23BCE702 		sd	a4,56(a5)
  50:src/riscv.cpp **** 
 2438              		.loc 1 50 9 is_stmt 1
  50:src/riscv.cpp **** 
 2439              		.loc 1 50 31 is_stmt 0
 2440 0c34 033784FA 		ld	a4,-88(s0)
 2441 0c38 23B0E704 		sd	a4,64(a5)
  53:src/riscv.cpp ****         asm("mv %[syscallID], a0" : [syscallID] "=r" (syscallID));
 2442              		.loc 1 53 9 is_stmt 1
  54:src/riscv.cpp **** 
 2443              		.loc 1 54 9
  54:src/riscv.cpp **** 
 2444              		.loc 1 54 66 is_stmt 0
 2445              	#APP
 2446              	# 54 "src/riscv.cpp" 1
 2447              		mv a5, a0
 2448              	# 0 "" 2
GAS LISTING /tmp/ccvbDvuT.s 			page 68


 2449              	.LVL173:
  56:src/riscv.cpp ****             case 0x01 : executeMemAllocSyscall();break;
 2450              		.loc 1 56 9 is_stmt 1
 2451              	#NO_APP
 2452 0c40 13071006 		li	a4,97
 2453 0c44 6364F702 		bgtu	a5,a4,.L115
 2454 0c48 93972700 		slli	a5,a5,2
 2455              	.LVL174:
 2456 0c4c 17070000 		lla	a4,.L117
 2456      13070700 
 2457 0c54 B387E700 		add	a5,a5,a4
 2458 0c58 83A70700 		lw	a5,0(a5)
 2459 0c5c B387E700 		add	a5,a5,a4
 2460 0c60 67800700 		jr	a5
 2461              		.section	.rodata
 2462              		.align	2
 2463              		.align	2
 2464              	.L117:
 2465 0000 00000000 		.word	.L115-.L117
 2466 0004 00000000 		.word	.L134-.L117
 2467 0008 00000000 		.word	.L133-.L117
 2468 000c 00000000 		.word	.L115-.L117
 2469 0010 00000000 		.word	.L115-.L117
 2470 0014 00000000 		.word	.L115-.L117
 2471 0018 00000000 		.word	.L115-.L117
 2472 001c 00000000 		.word	.L115-.L117
 2473 0020 00000000 		.word	.L115-.L117
 2474 0024 00000000 		.word	.L115-.L117
 2475 0028 00000000 		.word	.L115-.L117
 2476 002c 00000000 		.word	.L115-.L117
 2477 0030 00000000 		.word	.L115-.L117
 2478 0034 00000000 		.word	.L115-.L117
 2479 0038 00000000 		.word	.L115-.L117
 2480 003c 00000000 		.word	.L115-.L117
 2481 0040 00000000 		.word	.L115-.L117
 2482 0044 00000000 		.word	.L132-.L117
 2483 0048 00000000 		.word	.L131-.L117
 2484 004c 00000000 		.word	.L130-.L117
 2485 0050 00000000 		.word	.L129-.L117
 2486 0054 00000000 		.word	.L128-.L117
 2487 0058 00000000 		.word	.L115-.L117
 2488 005c 00000000 		.word	.L115-.L117
 2489 0060 00000000 		.word	.L115-.L117
 2490 0064 00000000 		.word	.L115-.L117
 2491 0068 00000000 		.word	.L115-.L117
 2492 006c 00000000 		.word	.L115-.L117
 2493 0070 00000000 		.word	.L115-.L117
 2494 0074 00000000 		.word	.L115-.L117
 2495 0078 00000000 		.word	.L115-.L117
 2496 007c 00000000 		.word	.L115-.L117
 2497 0080 00000000 		.word	.L115-.L117
 2498 0084 00000000 		.word	.L127-.L117
 2499 0088 00000000 		.word	.L126-.L117
 2500 008c 00000000 		.word	.L125-.L117
 2501 0090 00000000 		.word	.L124-.L117
 2502 0094 00000000 		.word	.L115-.L117
 2503 0098 00000000 		.word	.L115-.L117
GAS LISTING /tmp/ccvbDvuT.s 			page 69


 2504 009c 00000000 		.word	.L115-.L117
 2505 00a0 00000000 		.word	.L115-.L117
 2506 00a4 00000000 		.word	.L115-.L117
 2507 00a8 00000000 		.word	.L115-.L117
 2508 00ac 00000000 		.word	.L115-.L117
 2509 00b0 00000000 		.word	.L115-.L117
 2510 00b4 00000000 		.word	.L115-.L117
 2511 00b8 00000000 		.word	.L115-.L117
 2512 00bc 00000000 		.word	.L115-.L117
 2513 00c0 00000000 		.word	.L115-.L117
 2514 00c4 00000000 		.word	.L123-.L117
 2515 00c8 00000000 		.word	.L115-.L117
 2516 00cc 00000000 		.word	.L115-.L117
 2517 00d0 00000000 		.word	.L115-.L117
 2518 00d4 00000000 		.word	.L115-.L117
 2519 00d8 00000000 		.word	.L115-.L117
 2520 00dc 00000000 		.word	.L115-.L117
 2521 00e0 00000000 		.word	.L115-.L117
 2522 00e4 00000000 		.word	.L115-.L117
 2523 00e8 00000000 		.word	.L115-.L117
 2524 00ec 00000000 		.word	.L115-.L117
 2525 00f0 00000000 		.word	.L115-.L117
 2526 00f4 00000000 		.word	.L115-.L117
 2527 00f8 00000000 		.word	.L115-.L117
 2528 00fc 00000000 		.word	.L115-.L117
 2529 0100 00000000 		.word	.L115-.L117
 2530 0104 00000000 		.word	.L122-.L117
 2531 0108 00000000 		.word	.L121-.L117
 2532 010c 00000000 		.word	.L120-.L117
 2533 0110 00000000 		.word	.L115-.L117
 2534 0114 00000000 		.word	.L115-.L117
 2535 0118 00000000 		.word	.L115-.L117
 2536 011c 00000000 		.word	.L115-.L117
 2537 0120 00000000 		.word	.L115-.L117
 2538 0124 00000000 		.word	.L115-.L117
 2539 0128 00000000 		.word	.L115-.L117
 2540 012c 00000000 		.word	.L115-.L117
 2541 0130 00000000 		.word	.L115-.L117
 2542 0134 00000000 		.word	.L115-.L117
 2543 0138 00000000 		.word	.L115-.L117
 2544 013c 00000000 		.word	.L115-.L117
 2545 0140 00000000 		.word	.L115-.L117
 2546 0144 00000000 		.word	.L119-.L117
 2547 0148 00000000 		.word	.L118-.L117
 2548 014c 00000000 		.word	.L115-.L117
 2549 0150 00000000 		.word	.L115-.L117
 2550 0154 00000000 		.word	.L115-.L117
 2551 0158 00000000 		.word	.L115-.L117
 2552 015c 00000000 		.word	.L115-.L117
 2553 0160 00000000 		.word	.L115-.L117
 2554 0164 00000000 		.word	.L115-.L117
 2555 0168 00000000 		.word	.L115-.L117
 2556 016c 00000000 		.word	.L115-.L117
 2557 0170 00000000 		.word	.L115-.L117
 2558 0174 00000000 		.word	.L115-.L117
 2559 0178 00000000 		.word	.L115-.L117
 2560 017c 00000000 		.word	.L115-.L117
GAS LISTING /tmp/ccvbDvuT.s 			page 70


 2561 0180 00000000 		.word	.L115-.L117
 2562 0184 00000000 		.word	.L116-.L117
 2563              		.text
 2564              	.L134:
  57:src/riscv.cpp ****             case 0x02 : executeMemFreeSyscall();break;
 2565              		.loc 1 57 13
  57:src/riscv.cpp ****             case 0x02 : executeMemFreeSyscall();break;
 2566              		.loc 1 57 25
  57:src/riscv.cpp ****             case 0x02 : executeMemFreeSyscall();break;
 2567              		.loc 1 57 47 is_stmt 0
 2568 0c64 97000000 		call	_ZN5RiscV22executeMemAllocSyscallEv
 2568      E7800000 
 2569              	.LVL175:
  57:src/riscv.cpp ****             case 0x02 : executeMemFreeSyscall();break;
 2570              		.loc 1 57 50 is_stmt 1
 2571              	.L115:
  84:src/riscv.cpp ****         RiscV::w_sepc(TCB::running->sepc);
 2572              		.loc 1 84 9
  84:src/riscv.cpp ****         RiscV::w_sepc(TCB::running->sepc);
 2573              		.loc 1 84 25 is_stmt 0
 2574 0c6c 97070000 		la	a5,_ZN3TCB7runningE
 2574      83B70700 
 2575 0c74 83B70700 		ld	a5,0(a5)
 2576 0c78 03B70704 		ld	a4,64(a5)
 2577              	.LVL176:
 2578              	.LBB178:
 2579              	.LBB179:
 158:src/../h/riscv.hpp **** }
 2580              		.loc 2 158 5 is_stmt 1
 158:src/../h/riscv.hpp **** }
 2581              		.loc 2 158 64 is_stmt 0
 2582              	#APP
 2583              	# 158 "src/../h/riscv.hpp" 1
 2584              		csrw sstatus, a4
 2585              	# 0 "" 2
 2586              	.LVL177:
 2587              	#NO_APP
 2588              	.LBE179:
 2589              	.LBE178:
  85:src/riscv.cpp ****     }
 2590              		.loc 1 85 9 is_stmt 1
  85:src/riscv.cpp ****     }
 2591              		.loc 1 85 22 is_stmt 0
 2592 0c80 83B78703 		ld	a5,56(a5)
 2593              	.LVL178:
 2594              	.LBB180:
 2595              	.LBB181:
 148:src/../h/riscv.hpp **** }
 2596              		.loc 2 148 5 is_stmt 1
 148:src/../h/riscv.hpp **** }
 2597              		.loc 2 148 52 is_stmt 0
 2598              	#APP
 2599              	# 148 "src/../h/riscv.hpp" 1
 2600              		csrw sepc, a5
 2601              	# 0 "" 2
 2602              	.LVL179:
 2603              	#NO_APP
GAS LISTING /tmp/ccvbDvuT.s 			page 71


 2604              	.L135:
 2605              	.LBE181:
 2606              	.LBE180:
 2607              	.LBE173:
 2608              	.LBE186:
 187:src/riscv.cpp **** }
 2609              		.loc 1 187 5 is_stmt 1
 187:src/riscv.cpp **** }
 2610              		.loc 1 187 41 is_stmt 0
 2611 0c88 97000000 		call	_ZN5RiscV29jumpToDesignatedPrivilegeModeEv
 2611      E7800000 
 2612              	.LVL180:
 188:src/riscv.cpp **** 
 2613              		.loc 1 188 1
 2614 0c90 83308105 		ld	ra,88(sp)
 2615              		.cfi_remember_state
 2616              		.cfi_restore 1
 2617 0c94 03340105 		ld	s0,80(sp)
 2618              		.cfi_restore 8
 2619              		.cfi_def_cfa 2, 96
 2620 0c98 13010106 		addi	sp,sp,96
 2621              		.cfi_def_cfa_offset 0
 2622 0c9c 67800000 		jr	ra
 2623              	.L133:
 2624              		.cfi_restore_state
 2625              	.LBB187:
 2626              	.LBB182:
  58:src/riscv.cpp ****             case 0x11 : executeThreadCreateSyscall();break;
 2627              		.loc 1 58 13 is_stmt 1
  58:src/riscv.cpp ****             case 0x11 : executeThreadCreateSyscall();break;
 2628              		.loc 1 58 25
  58:src/riscv.cpp ****             case 0x11 : executeThreadCreateSyscall();break;
 2629              		.loc 1 58 46 is_stmt 0
 2630 0ca0 97000000 		call	_ZN5RiscV21executeMemFreeSyscallEv
 2630      E7800000 
 2631              	.LVL181:
  58:src/riscv.cpp ****             case 0x11 : executeThreadCreateSyscall();break;
 2632              		.loc 1 58 49 is_stmt 1
 2633 0ca8 6FF05FFC 		j	.L115
 2634              	.L132:
  59:src/riscv.cpp ****             case 0x12 : executeThreadExitSyscall();break;
 2635              		.loc 1 59 13
  59:src/riscv.cpp ****             case 0x12 : executeThreadExitSyscall();break;
 2636              		.loc 1 59 25
  59:src/riscv.cpp ****             case 0x12 : executeThreadExitSyscall();break;
 2637              		.loc 1 59 51 is_stmt 0
 2638 0cac 97000000 		call	_ZN5RiscV26executeThreadCreateSyscallEv
 2638      E7800000 
 2639              	.LVL182:
  59:src/riscv.cpp ****             case 0x12 : executeThreadExitSyscall();break;
 2640              		.loc 1 59 54 is_stmt 1
 2641 0cb4 6FF09FFB 		j	.L115
 2642              	.L131:
  60:src/riscv.cpp ****             case 0x13 : executeThreadDispatchSyscall();break;
 2643              		.loc 1 60 13
  60:src/riscv.cpp ****             case 0x13 : executeThreadDispatchSyscall();break;
 2644              		.loc 1 60 25
GAS LISTING /tmp/ccvbDvuT.s 			page 72


  60:src/riscv.cpp ****             case 0x13 : executeThreadDispatchSyscall();break;
 2645              		.loc 1 60 49 is_stmt 0
 2646 0cb8 97000000 		call	_ZN5RiscV24executeThreadExitSyscallEv
 2646      E7800000 
 2647              	.LVL183:
  60:src/riscv.cpp ****             case 0x13 : executeThreadDispatchSyscall();break;
 2648              		.loc 1 60 52 is_stmt 1
 2649 0cc0 6FF0DFFA 		j	.L115
 2650              	.L130:
  61:src/riscv.cpp ****             case 0x14 : executeThreadAttachBodySyscall();break;
 2651              		.loc 1 61 13
  61:src/riscv.cpp ****             case 0x14 : executeThreadAttachBodySyscall();break;
 2652              		.loc 1 61 25
  61:src/riscv.cpp ****             case 0x14 : executeThreadAttachBodySyscall();break;
 2653              		.loc 1 61 53 is_stmt 0
 2654 0cc4 97000000 		call	_ZN5RiscV28executeThreadDispatchSyscallEv
 2654      E7800000 
 2655              	.LVL184:
  61:src/riscv.cpp ****             case 0x14 : executeThreadAttachBodySyscall();break;
 2656              		.loc 1 61 56 is_stmt 1
 2657 0ccc 6FF01FFA 		j	.L115
 2658              	.L129:
  62:src/riscv.cpp ****             case 0x15 : executeThreadStartSyscall();break;
 2659              		.loc 1 62 13
  62:src/riscv.cpp ****             case 0x15 : executeThreadStartSyscall();break;
 2660              		.loc 1 62 25
  62:src/riscv.cpp ****             case 0x15 : executeThreadStartSyscall();break;
 2661              		.loc 1 62 55 is_stmt 0
 2662 0cd0 97000000 		call	_ZN5RiscV30executeThreadAttachBodySyscallEv
 2662      E7800000 
 2663              	.LVL185:
  62:src/riscv.cpp ****             case 0x15 : executeThreadStartSyscall();break;
 2664              		.loc 1 62 58 is_stmt 1
 2665 0cd8 6FF05FF9 		j	.L115
 2666              	.L128:
  63:src/riscv.cpp ****             case 0x21 : executeSemOpenSyscall();break;
 2667              		.loc 1 63 13
  63:src/riscv.cpp ****             case 0x21 : executeSemOpenSyscall();break;
 2668              		.loc 1 63 25
  63:src/riscv.cpp ****             case 0x21 : executeSemOpenSyscall();break;
 2669              		.loc 1 63 50 is_stmt 0
 2670 0cdc 97000000 		call	_ZN5RiscV25executeThreadStartSyscallEv
 2670      E7800000 
 2671              	.LVL186:
  63:src/riscv.cpp ****             case 0x21 : executeSemOpenSyscall();break;
 2672              		.loc 1 63 53 is_stmt 1
 2673 0ce4 6FF09FF8 		j	.L115
 2674              	.L127:
  64:src/riscv.cpp ****             case 0x22 : executeSemCloseSyscall();break;
 2675              		.loc 1 64 13
  64:src/riscv.cpp ****             case 0x22 : executeSemCloseSyscall();break;
 2676              		.loc 1 64 25
  64:src/riscv.cpp ****             case 0x22 : executeSemCloseSyscall();break;
 2677              		.loc 1 64 46 is_stmt 0
 2678 0ce8 97000000 		call	_ZN5RiscV21executeSemOpenSyscallEv
 2678      E7800000 
 2679              	.LVL187:
GAS LISTING /tmp/ccvbDvuT.s 			page 73


  64:src/riscv.cpp ****             case 0x22 : executeSemCloseSyscall();break;
 2680              		.loc 1 64 49 is_stmt 1
 2681 0cf0 6FF0DFF7 		j	.L115
 2682              	.L126:
  65:src/riscv.cpp ****             case 0x23 : executeSemWaitSyscall();break;
 2683              		.loc 1 65 13
  65:src/riscv.cpp ****             case 0x23 : executeSemWaitSyscall();break;
 2684              		.loc 1 65 25
  65:src/riscv.cpp ****             case 0x23 : executeSemWaitSyscall();break;
 2685              		.loc 1 65 47 is_stmt 0
 2686 0cf4 97000000 		call	_ZN5RiscV22executeSemCloseSyscallEv
 2686      E7800000 
 2687              	.LVL188:
  65:src/riscv.cpp ****             case 0x23 : executeSemWaitSyscall();break;
 2688              		.loc 1 65 50 is_stmt 1
 2689 0cfc 6FF01FF7 		j	.L115
 2690              	.L125:
  66:src/riscv.cpp ****             case 0x24 : executeSemSignalSyscall();break;
 2691              		.loc 1 66 13
  66:src/riscv.cpp ****             case 0x24 : executeSemSignalSyscall();break;
 2692              		.loc 1 66 25
  66:src/riscv.cpp ****             case 0x24 : executeSemSignalSyscall();break;
 2693              		.loc 1 66 46 is_stmt 0
 2694 0d00 97000000 		call	_ZN5RiscV21executeSemWaitSyscallEv
 2694      E7800000 
 2695              	.LVL189:
  66:src/riscv.cpp ****             case 0x24 : executeSemSignalSyscall();break;
 2696              		.loc 1 66 49 is_stmt 1
 2697 0d08 6FF05FF6 		j	.L115
 2698              	.L124:
  67:src/riscv.cpp ****             case 0x31 : executeTimeSleepSyscall();break;
 2699              		.loc 1 67 13
  67:src/riscv.cpp ****             case 0x31 : executeTimeSleepSyscall();break;
 2700              		.loc 1 67 25
  67:src/riscv.cpp ****             case 0x31 : executeTimeSleepSyscall();break;
 2701              		.loc 1 67 48 is_stmt 0
 2702 0d0c 97000000 		call	_ZN5RiscV23executeSemSignalSyscallEv
 2702      E7800000 
 2703              	.LVL190:
  67:src/riscv.cpp ****             case 0x31 : executeTimeSleepSyscall();break;
 2704              		.loc 1 67 51 is_stmt 1
 2705 0d14 6FF09FF5 		j	.L115
 2706              	.L123:
  68:src/riscv.cpp ****             case 0x41 : executeGetcSyscall();break;
 2707              		.loc 1 68 13
  68:src/riscv.cpp ****             case 0x41 : executeGetcSyscall();break;
 2708              		.loc 1 68 25
  68:src/riscv.cpp ****             case 0x41 : executeGetcSyscall();break;
 2709              		.loc 1 68 48 is_stmt 0
 2710 0d18 97000000 		call	_ZN5RiscV23executeTimeSleepSyscallEv
 2710      E7800000 
 2711              	.LVL191:
  68:src/riscv.cpp ****             case 0x41 : executeGetcSyscall();break;
 2712              		.loc 1 68 51 is_stmt 1
 2713 0d20 6FF0DFF4 		j	.L115
 2714              	.L122:
  69:src/riscv.cpp ****             case 0x42 : executePutcSyscall();break;
GAS LISTING /tmp/ccvbDvuT.s 			page 74


 2715              		.loc 1 69 13
  69:src/riscv.cpp ****             case 0x42 : executePutcSyscall();break;
 2716              		.loc 1 69 25
  69:src/riscv.cpp ****             case 0x42 : executePutcSyscall();break;
 2717              		.loc 1 69 43 is_stmt 0
 2718 0d24 97000000 		call	_ZN5RiscV18executeGetcSyscallEv
 2718      E7800000 
 2719              	.LVL192:
  69:src/riscv.cpp ****             case 0x42 : executePutcSyscall();break;
 2720              		.loc 1 69 46 is_stmt 1
 2721 0d2c 6FF01FF4 		j	.L115
 2722              	.L121:
  70:src/riscv.cpp ****             case 0x43 : executePutcUtilSyscall();break;
 2723              		.loc 1 70 13
  70:src/riscv.cpp ****             case 0x43 : executePutcUtilSyscall();break;
 2724              		.loc 1 70 25
  70:src/riscv.cpp ****             case 0x43 : executePutcUtilSyscall();break;
 2725              		.loc 1 70 43 is_stmt 0
 2726 0d30 97000000 		call	_ZN5RiscV18executePutcSyscallEv
 2726      E7800000 
 2727              	.LVL193:
  70:src/riscv.cpp ****             case 0x43 : executePutcUtilSyscall();break;
 2728              		.loc 1 70 46 is_stmt 1
 2729 0d38 6FF05FF3 		j	.L115
 2730              	.L120:
  71:src/riscv.cpp ****             case 0x51 : executeThreadFreeSyscall();break;
 2731              		.loc 1 71 13
  71:src/riscv.cpp ****             case 0x51 : executeThreadFreeSyscall();break;
 2732              		.loc 1 71 25
  71:src/riscv.cpp ****             case 0x51 : executeThreadFreeSyscall();break;
 2733              		.loc 1 71 47 is_stmt 0
 2734 0d3c 97000000 		call	_ZN5RiscV22executePutcUtilSyscallEv
 2734      E7800000 
 2735              	.LVL194:
  71:src/riscv.cpp ****             case 0x51 : executeThreadFreeSyscall();break;
 2736              		.loc 1 71 50 is_stmt 1
 2737 0d44 6FF09FF2 		j	.L115
 2738              	.L119:
  72:src/riscv.cpp ****             case 0x52 : executeSemaphoreFreeSyscall();break;
 2739              		.loc 1 72 13
  72:src/riscv.cpp ****             case 0x52 : executeSemaphoreFreeSyscall();break;
 2740              		.loc 1 72 25
  72:src/riscv.cpp ****             case 0x52 : executeSemaphoreFreeSyscall();break;
 2741              		.loc 1 72 49 is_stmt 0
 2742 0d48 97000000 		call	_ZN5RiscV24executeThreadFreeSyscallEv
 2742      E7800000 
 2743              	.LVL195:
  72:src/riscv.cpp ****             case 0x52 : executeSemaphoreFreeSyscall();break;
 2744              		.loc 1 72 52 is_stmt 1
 2745 0d50 6FF0DFF1 		j	.L115
 2746              	.L118:
  73:src/riscv.cpp ****             //in this case we need to save SP and PC at this point so that newly created thread
 2747              		.loc 1 73 13
  73:src/riscv.cpp ****             //in this case we need to save SP and PC at this point so that newly created thread
 2748              		.loc 1 73 25
  73:src/riscv.cpp ****             //in this case we need to save SP and PC at this point so that newly created thread
 2749              		.loc 1 73 52 is_stmt 0
GAS LISTING /tmp/ccvbDvuT.s 			page 75


 2750 0d54 97000000 		call	_ZN5RiscV27executeSemaphoreFreeSyscallEv
 2750      E7800000 
 2751              	.LVL196:
  73:src/riscv.cpp ****             //in this case we need to save SP and PC at this point so that newly created thread
 2752              		.loc 1 73 55 is_stmt 1
 2753 0d5c 6FF01FF1 		j	.L115
 2754              	.L116:
  77:src/riscv.cpp ****                         RiscV::getPC();
 2755              		.loc 1 77 13
  77:src/riscv.cpp ****                         RiscV::getPC();
 2756              		.loc 1 77 25
  77:src/riscv.cpp ****                         RiscV::getPC();
 2757              		.loc 1 77 72 is_stmt 0
 2758              	#APP
 2759              	# 77 "src/riscv.cpp" 1
 2760              		mv a5, sp
 2761              	# 0 "" 2
 2762              	#NO_APP
 2763 0d64 17070000 		la	a4,_ZN3TCB9currentSPE
 2763      03370700 
 2764 0d6c 2330F700 		sd	a5,0(a4)
  78:src/riscv.cpp ****                         executeForkSyscall();
 2765              		.loc 1 78 25 is_stmt 1
  78:src/riscv.cpp ****                         executeForkSyscall();
 2766              		.loc 1 78 37 is_stmt 0
 2767 0d70 97000000 		call	_ZN5RiscV5getPCEv
 2767      E7800000 
 2768              	.LVL197:
  79:src/riscv.cpp ****                         break;
 2769              		.loc 1 79 25 is_stmt 1
  79:src/riscv.cpp ****                         break;
 2770              		.loc 1 79 43 is_stmt 0
 2771 0d78 97000000 		call	_ZN5RiscV18executeForkSyscallEv
 2771      E7800000 
 2772              	.LVL198:
  80:src/riscv.cpp ****         }
 2773              		.loc 1 80 25 is_stmt 1
 2774 0d80 6FF0DFEE 		j	.L115
 2775              	.L142:
 2776              	.LBE182:
 2777              	.LBB183:
 2778              	.LBB156:
  93:src/riscv.cpp ****         uint64 volatile sepc = RiscV::r_sepc();
 2779              		.loc 1 93 9
 2780              	.LBB157:
 2781              	.LBB158:
 162:src/../h/riscv.hpp ****     asm("csrr %[sstatus], sstatus" : [sstatus] "=r" (sstatus));
 2782              		.loc 2 162 5
 163:src/../h/riscv.hpp ****     return sstatus;
 2783              		.loc 2 163 5
 163:src/../h/riscv.hpp ****     return sstatus;
 2784              		.loc 2 163 63 is_stmt 0
 2785              	#APP
 2786              	# 163 "src/../h/riscv.hpp" 1
 2787              		csrr a5, sstatus
 2788              	# 0 "" 2
 2789              	.LVL199:
GAS LISTING /tmp/ccvbDvuT.s 			page 76


 164:src/../h/riscv.hpp **** }
 2790              		.loc 2 164 5 is_stmt 1
 2791              	#NO_APP
 2792              	.LBE158:
 2793              	.LBE157:
  93:src/riscv.cpp ****         uint64 volatile sepc = RiscV::r_sepc();
 2794              		.loc 1 93 52 is_stmt 0
 2795 0d88 233CF4FA 		sd	a5,-72(s0)
  94:src/riscv.cpp **** 
 2796              		.loc 1 94 9 is_stmt 1
 2797              	.LBB159:
 2798              	.LBB160:
 142:src/../h/riscv.hpp ****     asm("csrr %[sepc], sepc" : [sepc] "=r" (sepc));
 2799              		.loc 2 142 5
 143:src/../h/riscv.hpp ****     return sepc;
 2800              		.loc 2 143 5
 143:src/../h/riscv.hpp ****     return sepc;
 2801              		.loc 2 143 51 is_stmt 0
 2802              	#APP
 2803              	# 143 "src/../h/riscv.hpp" 1
 2804              		csrr a5, sepc
 2805              	# 0 "" 2
 2806              	.LVL200:
 144:src/../h/riscv.hpp **** }
 2807              		.loc 2 144 5 is_stmt 1
 2808              	#NO_APP
 2809              	.LBE160:
 2810              	.LBE159:
  94:src/riscv.cpp **** 
 2811              		.loc 1 94 46 is_stmt 0
 2812 0d90 2330F4FC 		sd	a5,-64(s0)
  97:src/riscv.cpp **** 
 2813              		.loc 1 97 9 is_stmt 1
 2814              	.LVL201:
 2815              	.LBB161:
 2816              	.LBB162:
 184:src/../h/riscv.hpp **** }
 2817              		.loc 2 184 5
 184:src/../h/riscv.hpp **** }
 2818              		.loc 2 184 51 is_stmt 0
 2819 0d94 93072000 		li	a5,2
 2820              	#APP
 2821              	# 184 "src/../h/riscv.hpp" 1
 2822              		csrc sip, a5
 2823              	# 0 "" 2
 2824              	.LVL202:
 2825              	#NO_APP
 2826              	.LBE162:
 2827              	.LBE161:
 101:src/riscv.cpp ****         Scheduler::awake();
 2828              		.loc 1 101 9 is_stmt 1
 101:src/riscv.cpp ****         Scheduler::awake();
 2829              		.loc 1 101 20 is_stmt 0
 2830 0d9c 17070000 		lla	a4,.LANCHOR0
 2830      13070700 
 2831 0da4 83378700 		ld	a5,8(a4)
 2832 0da8 93871700 		addi	a5,a5,1
GAS LISTING /tmp/ccvbDvuT.s 			page 77


 2833 0dac 2334F700 		sd	a5,8(a4)
 102:src/riscv.cpp **** 
 2834              		.loc 1 102 9 is_stmt 1
 102:src/riscv.cpp **** 
 2835              		.loc 1 102 25 is_stmt 0
 2836 0db0 97000000 		call	_ZN9Scheduler5awakeEv@plt
 2836      E7800000 
 2837              	.LVL203:
 106:src/riscv.cpp ****         if(TCB::timeSliceCounter >= TCB::running->timeSlice) {
 2838              		.loc 1 106 9 is_stmt 1
 106:src/riscv.cpp ****         if(TCB::timeSliceCounter >= TCB::running->timeSlice) {
 2839              		.loc 1 106 30 is_stmt 0
 2840 0db8 17070000 		la	a4,_ZN3TCB16timeSliceCounterE
 2840      03370700 
 2841 0dc0 83370700 		ld	a5,0(a4)
 2842 0dc4 93871700 		addi	a5,a5,1
 2843 0dc8 2330F700 		sd	a5,0(a4)
 107:src/riscv.cpp **** 
 2844              		.loc 1 107 9 is_stmt 1
 2845              	.LBB163:
 107:src/riscv.cpp **** 
 2846              		.loc 1 107 51 is_stmt 0
 2847 0dcc 17070000 		la	a4,_ZN3TCB7runningE
 2847      03370700 
 2848 0dd4 03370700 		ld	a4,0(a4)
 2849 0dd8 83360703 		ld	a3,48(a4)
 107:src/riscv.cpp **** 
 2850              		.loc 1 107 9
 2851 0ddc 63FCD700 		bgeu	a5,a3,.L145
 2852              	.L136:
 2853              	.LBE163:
 119:src/riscv.cpp ****         RiscV::w_sepc(sepc);
 2854              		.loc 1 119 9 is_stmt 1
 119:src/riscv.cpp ****         RiscV::w_sepc(sepc);
 2855              		.loc 1 119 25 is_stmt 0
 2856 0de0 833784FB 		ld	a5,-72(s0)
 2857              	.LVL204:
 2858              	.LBB165:
 2859              	.LBB166:
 158:src/../h/riscv.hpp **** }
 2860              		.loc 2 158 5 is_stmt 1
 158:src/../h/riscv.hpp **** }
 2861              		.loc 2 158 64 is_stmt 0
 2862              	#APP
 2863              	# 158 "src/../h/riscv.hpp" 1
 2864              		csrw sstatus, a5
 2865              	# 0 "" 2
 2866              	.LVL205:
 2867              	#NO_APP
 2868              	.LBE166:
 2869              	.LBE165:
 120:src/riscv.cpp ****     }
 2870              		.loc 1 120 9 is_stmt 1
 120:src/riscv.cpp ****     }
 2871              		.loc 1 120 22 is_stmt 0
 2872 0de8 833704FC 		ld	a5,-64(s0)
 2873              	.LVL206:
GAS LISTING /tmp/ccvbDvuT.s 			page 78


 2874              	.LBB167:
 2875              	.LBB168:
 148:src/../h/riscv.hpp **** }
 2876              		.loc 2 148 5 is_stmt 1
 148:src/../h/riscv.hpp **** }
 2877              		.loc 2 148 52 is_stmt 0
 2878              	#APP
 2879              	# 148 "src/../h/riscv.hpp" 1
 149:src/../h/riscv.hpp **** 
 2880              		csrw sepc, a5
 2881              	# 0 "" 2
 2882              		.loc 2 149 1
 2883              	#NO_APP
 2884 0df0 6FF09FE9 		j	.L135
 2885              	.LVL207:
 2886              	.L145:
 2887              	.LBE168:
 2888              	.LBE167:
 2889              	.LBB169:
 2890              	.LBB164:
 109:src/riscv.cpp **** 
 2891              		.loc 1 109 13 is_stmt 1
 109:src/riscv.cpp **** 
 2892              		.loc 1 109 35 is_stmt 0
 2893 0df4 97070000 		la	a5,_ZN3TCB16timeSliceCounterE
 2893      83B70700 
 2894 0dfc 23B00700 		sd	zero,0(a5)
 111:src/riscv.cpp **** 
 2895              		.loc 1 111 13 is_stmt 1
 2896              	.LVL208:
 113:src/riscv.cpp **** 
 2897              		.loc 1 113 13
 113:src/riscv.cpp **** 
 2898              		.loc 1 113 25 is_stmt 0
 2899 0e00 93071000 		li	a5,1
 2900 0e04 2328F700 		sw	a5,16(a4)
 115:src/riscv.cpp ****         }
 2901              		.loc 1 115 13 is_stmt 1
 115:src/riscv.cpp ****         }
 2902              		.loc 1 115 26 is_stmt 0
 2903 0e08 97000000 		call	_ZN3TCB8dispatchEv@plt
 2903      E7800000 
 2904              	.LVL209:
 2905              	.LBE164:
 2906 0e10 6FF01FFD 		j	.L136
 2907              	.L143:
 2908              	.LBE169:
 2909              	.LBE156:
 2910              	.LBB170:
 2911              	.LBB141:
 127:src/riscv.cpp ****         uint64 volatile sepc = RiscV::r_sepc();
 2912              		.loc 1 127 9 is_stmt 1
 2913              	.LBB142:
 2914              	.LBB143:
 162:src/../h/riscv.hpp ****     asm("csrr %[sstatus], sstatus" : [sstatus] "=r" (sstatus));
 2915              		.loc 2 162 5
 163:src/../h/riscv.hpp ****     return sstatus;
GAS LISTING /tmp/ccvbDvuT.s 			page 79


 2916              		.loc 2 163 5
 163:src/../h/riscv.hpp ****     return sstatus;
 2917              		.loc 2 163 63 is_stmt 0
 2918              	#APP
 2919              	# 163 "src/../h/riscv.hpp" 1
 2920              		csrr a5, sstatus
 2921              	# 0 "" 2
 2922              	.LVL210:
 164:src/../h/riscv.hpp **** }
 2923              		.loc 2 164 5 is_stmt 1
 2924              	#NO_APP
 2925              	.LBE143:
 2926              	.LBE142:
 127:src/riscv.cpp ****         uint64 volatile sepc = RiscV::r_sepc();
 2927              		.loc 1 127 52 is_stmt 0
 2928 0e18 2334F4FC 		sd	a5,-56(s0)
 128:src/riscv.cpp **** 
 2929              		.loc 1 128 9 is_stmt 1
 2930              	.LBB144:
 2931              	.LBB145:
 142:src/../h/riscv.hpp ****     asm("csrr %[sepc], sepc" : [sepc] "=r" (sepc));
 2932              		.loc 2 142 5
 143:src/../h/riscv.hpp ****     return sepc;
 2933              		.loc 2 143 5
 143:src/../h/riscv.hpp ****     return sepc;
 2934              		.loc 2 143 51 is_stmt 0
 2935              	#APP
 2936              	# 143 "src/../h/riscv.hpp" 1
 2937              		csrr a5, sepc
 2938              	# 0 "" 2
 2939              	.LVL211:
 144:src/../h/riscv.hpp **** }
 2940              		.loc 2 144 5 is_stmt 1
 2941              	#NO_APP
 2942              	.LBE145:
 2943              	.LBE144:
 128:src/riscv.cpp **** 
 2944              		.loc 1 128 46 is_stmt 0
 2945 0e20 2338F4FC 		sd	a5,-48(s0)
 131:src/riscv.cpp ****         asm("mv a0, %[status]" : : [status] "r" (status));
 2946              		.loc 1 131 9 is_stmt 1
 131:src/riscv.cpp ****         asm("mv a0, %[status]" : : [status] "r" (status));
 2947              		.loc 1 131 16 is_stmt 0
 2948 0e24 97070000 		la	a5,CONSOLE_STATUS
 2948      83B70700 
 2949 0e2c 83B70700 		ld	a5,0(a5)
 2950              	.LVL212:
 132:src/riscv.cpp ****         asm("lb a1, 0(a0)");
 2951              		.loc 1 132 9 is_stmt 1
 132:src/riscv.cpp ****         asm("lb a1, 0(a0)");
 2952              		.loc 1 132 58 is_stmt 0
 2953              	#APP
 2954              	# 132 "src/riscv.cpp" 1
 133:src/riscv.cpp ****         asm("mv %[status], a1" : [status] "=r" (status));
 2955              		mv a0, a5
 2956              	# 0 "" 2
 2957              		.loc 1 133 9 is_stmt 1
GAS LISTING /tmp/ccvbDvuT.s 			page 80


 133:src/riscv.cpp ****         asm("mv %[status], a1" : [status] "=r" (status));
 2958              		.loc 1 133 28 is_stmt 0
 2959              	# 133 "src/riscv.cpp" 1
 134:src/riscv.cpp **** 
 2960              		lb a1, 0(a0)
 2961              	# 0 "" 2
 2962              		.loc 1 134 9 is_stmt 1
 134:src/riscv.cpp **** 
 2963              		.loc 1 134 57 is_stmt 0
 2964              	# 134 "src/riscv.cpp" 1
 2965              		mv a5, a1
 2966              	# 0 "" 2
 2967              	.LVL213:
 137:src/riscv.cpp ****         {
 2968              		.loc 1 137 9 is_stmt 1
 2969              	#NO_APP
 2970              	.LBB146:
 137:src/riscv.cpp ****         {
 2971              		.loc 1 137 19 is_stmt 0
 2972 0e3c 93F71700 		andi	a5,a5,1
 2973              	.LVL214:
 137:src/riscv.cpp ****         {
 2974              		.loc 1 137 9
 2975 0e40 63880702 		beqz	a5,.L138
 2976              	.LBB147:
 140:src/riscv.cpp ****             char c;
 2977              		.loc 1 140 13 is_stmt 1
 141:src/riscv.cpp ****             data = CONSOLE_TX_DATA;
 2978              		.loc 1 141 13
 142:src/riscv.cpp ****             asm("mv a0, %[data]" : : [data] "r" (data));
 2979              		.loc 1 142 13
 142:src/riscv.cpp ****             asm("mv a0, %[data]" : : [data] "r" (data));
 2980              		.loc 1 142 18 is_stmt 0
 2981 0e44 97070000 		la	a5,CONSOLE_TX_DATA
 2981      83B70700 
 2982 0e4c 83B70700 		ld	a5,0(a5)
 2983              	.LVL215:
 143:src/riscv.cpp ****             asm("lb a1, 0(a0)");
 2984              		.loc 1 143 13 is_stmt 1
 143:src/riscv.cpp ****             asm("lb a1, 0(a0)");
 2985              		.loc 1 143 56 is_stmt 0
 2986              	#APP
 2987              	# 143 "src/riscv.cpp" 1
 144:src/riscv.cpp ****             asm("mv %[c], a1" : [c] "=r" (c));
 2988              		mv a0, a5
 2989              	# 0 "" 2
 2990              		.loc 1 144 13 is_stmt 1
 144:src/riscv.cpp ****             asm("mv %[c], a1" : [c] "=r" (c));
 2991              		.loc 1 144 32 is_stmt 0
 2992              	# 144 "src/riscv.cpp" 1
 145:src/riscv.cpp **** 
 2993              		lb a1, 0(a0)
 2994              	# 0 "" 2
 2995              		.loc 1 145 13 is_stmt 1
 145:src/riscv.cpp **** 
 2996              		.loc 1 145 46 is_stmt 0
 2997              	# 145 "src/riscv.cpp" 1
GAS LISTING /tmp/ccvbDvuT.s 			page 81


 2998              		mv a0, a1
 2999              	# 0 "" 2
 3000              	#NO_APP
 3001 0e5c 1375F50F 		andi	a0,a0,0xff
 3002              	.LVL216:
 148:src/riscv.cpp ****                 ConsoleUtil::pendingGetc--;
 3003              		.loc 1 148 13 is_stmt 1
 148:src/riscv.cpp ****                 ConsoleUtil::pendingGetc--;
 3004              		.loc 1 148 40 is_stmt 0
 3005 0e60 97070000 		la	a5,_ZN11ConsoleUtil11pendingGetcE
 3005      83B70700 
 3006              	.LVL217:
 3007 0e68 83B70700 		ld	a5,0(a5)
 148:src/riscv.cpp ****                 ConsoleUtil::pendingGetc--;
 3008              		.loc 1 148 13
 3009 0e6c 63940702 		bnez	a5,.L146
 3010              	.LVL218:
 3011              	.L138:
 3012              	.LBE147:
 3013              	.LBE146:
 153:src/riscv.cpp **** 
 3014              		.loc 1 153 9 is_stmt 1
 153:src/riscv.cpp **** 
 3015              		.loc 1 153 22 is_stmt 0
 3016 0e70 97000000 		call	plic_claim@plt
 3016      E7800000 
 3017              	.LVL219:
 3018 0e78 97000000 		call	plic_complete@plt
 3018      E7800000 
 3019              	.LVL220:
 155:src/riscv.cpp ****         RiscV::w_sepc(sepc);
 3020              		.loc 1 155 9 is_stmt 1
 155:src/riscv.cpp ****         RiscV::w_sepc(sepc);
 3021              		.loc 1 155 25 is_stmt 0
 3022 0e80 833784FC 		ld	a5,-56(s0)
 3023              	.LVL221:
 3024              	.LBB149:
 3025              	.LBB150:
 158:src/../h/riscv.hpp **** }
 3026              		.loc 2 158 5 is_stmt 1
 158:src/../h/riscv.hpp **** }
 3027              		.loc 2 158 64 is_stmt 0
 3028              	#APP
 3029              	# 158 "src/../h/riscv.hpp" 1
 3030              		csrw sstatus, a5
 3031              	# 0 "" 2
 3032              	.LVL222:
 3033              	#NO_APP
 3034              	.LBE150:
 3035              	.LBE149:
 156:src/riscv.cpp ****     }
 3036              		.loc 1 156 9 is_stmt 1
 156:src/riscv.cpp ****     }
 3037              		.loc 1 156 22 is_stmt 0
 3038 0e88 833704FD 		ld	a5,-48(s0)
 3039              	.LVL223:
 3040              	.LBB151:
GAS LISTING /tmp/ccvbDvuT.s 			page 82


 3041              	.LBB152:
 148:src/../h/riscv.hpp **** }
 3042              		.loc 2 148 5 is_stmt 1
 148:src/../h/riscv.hpp **** }
 3043              		.loc 2 148 52 is_stmt 0
 3044              	#APP
 3045              	# 148 "src/../h/riscv.hpp" 1
 149:src/../h/riscv.hpp **** 
 3046              		csrw sepc, a5
 3047              	# 0 "" 2
 3048              		.loc 2 149 1
 3049              	#NO_APP
 3050 0e90 6FF09FDF 		j	.L135
 3051              	.LVL224:
 3052              	.L146:
 3053              	.LBE152:
 3054              	.LBE151:
 3055              	.LBB153:
 3056              	.LBB148:
 149:src/riscv.cpp ****                 ConsoleUtil::putInput(c);
 3057              		.loc 1 149 17 is_stmt 1
 149:src/riscv.cpp ****                 ConsoleUtil::putInput(c);
 3058              		.loc 1 149 41 is_stmt 0
 3059 0e94 9387F7FF 		addi	a5,a5,-1
 3060 0e98 17070000 		la	a4,_ZN11ConsoleUtil11pendingGetcE
 3060      03370700 
 3061 0ea0 2330F700 		sd	a5,0(a4)
 150:src/riscv.cpp ****             }
 3062              		.loc 1 150 17 is_stmt 1
 150:src/riscv.cpp ****             }
 3063              		.loc 1 150 38 is_stmt 0
 3064 0ea4 97000000 		call	_ZN11ConsoleUtil8putInputEc@plt
 3064      E7800000 
 3065              	.LVL225:
 3066 0eac 6FF05FFC 		j	.L138
 3067              	.LVL226:
 3068              	.L144:
 3069              	.LBE148:
 3070              	.LBE153:
 3071              	.LBE141:
 3072              	.LBB154:
 3073              	.LBB138:
 161:src/riscv.cpp ****         old->status = TCB::Status::FINISHED;
 3074              		.loc 1 161 9 is_stmt 1
 161:src/riscv.cpp ****         old->status = TCB::Status::FINISHED;
 3075              		.loc 1 161 14 is_stmt 0
 3076 0eb0 97070000 		la	a5,_ZN3TCB7runningE
 3076      83B70700 
 3077 0eb8 83B70700 		ld	a5,0(a5)
 3078              	.LVL227:
 162:src/riscv.cpp ****         ConsoleUtil::printString("sepc: ");
 3079              		.loc 1 162 9 is_stmt 1
 162:src/riscv.cpp ****         ConsoleUtil::printString("sepc: ");
 3080              		.loc 1 162 21 is_stmt 0
 3081 0ebc 13072000 		li	a4,2
 3082 0ec0 23A8E700 		sw	a4,16(a5)
 163:src/riscv.cpp ****         uint64 sepc = RiscV::r_sepc();
GAS LISTING /tmp/ccvbDvuT.s 			page 83


 3083              		.loc 1 163 9 is_stmt 1
 163:src/riscv.cpp ****         uint64 sepc = RiscV::r_sepc();
 3084              		.loc 1 163 33 is_stmt 0
 3085 0ec4 17050000 		lla	a0,.LC0
 3085      13050500 
 3086 0ecc 97000000 		call	_ZN11ConsoleUtil11printStringEPKc@plt
 3086      E7800000 
 3087              	.LVL228:
 164:src/riscv.cpp ****         ConsoleUtil::printInt(sepc,16);
 3088              		.loc 1 164 9 is_stmt 1
 3089              	.LBB139:
 3090              	.LBB140:
 142:src/../h/riscv.hpp ****     asm("csrr %[sepc], sepc" : [sepc] "=r" (sepc));
 3091              		.loc 2 142 5
 143:src/../h/riscv.hpp ****     return sepc;
 3092              		.loc 2 143 5
 143:src/../h/riscv.hpp ****     return sepc;
 3093              		.loc 2 143 51 is_stmt 0
 3094              	#APP
 3095              	# 143 "src/../h/riscv.hpp" 1
 144:src/../h/riscv.hpp **** }
 3096              		csrr a0, sepc
 3097              	# 0 "" 2
 3098              		.loc 2 144 5 is_stmt 1
 3099              	#NO_APP
 3100              	.LBE140:
 3101              	.LBE139:
 165:src/riscv.cpp ****         ConsoleUtil::printString("\n");
 3102              		.loc 1 165 9
 165:src/riscv.cpp ****         ConsoleUtil::printString("\n");
 3103              		.loc 1 165 30 is_stmt 0
 3104 0ed8 13060000 		li	a2,0
 3105 0edc 93050001 		li	a1,16
 3106 0ee0 1B050500 		sext.w	a0,a0
 3107 0ee4 97000000 		call	_ZN11ConsoleUtil8printIntEiii@plt
 3107      E7800000 
 3108              	.LVL229:
 166:src/riscv.cpp ****         ConsoleUtil::printString("Illegal instruction\nExiting thread...\n");
 3109              		.loc 1 166 9 is_stmt 1
 166:src/riscv.cpp ****         ConsoleUtil::printString("Illegal instruction\nExiting thread...\n");
 3110              		.loc 1 166 33 is_stmt 0
 3111 0eec 17050000 		lla	a0,.LC1
 3111      13050500 
 3112 0ef4 97000000 		call	_ZN11ConsoleUtil11printStringEPKc@plt
 3112      E7800000 
 3113              	.LVL230:
 167:src/riscv.cpp ****         TCB::dispatch();
 3114              		.loc 1 167 9 is_stmt 1
 167:src/riscv.cpp ****         TCB::dispatch();
 3115              		.loc 1 167 33 is_stmt 0
 3116 0efc 17050000 		lla	a0,.LC2
 3116      13050500 
 3117 0f04 97000000 		call	_ZN11ConsoleUtil11printStringEPKc@plt
 3117      E7800000 
 3118              	.LVL231:
 168:src/riscv.cpp ****     }
 3119              		.loc 1 168 9 is_stmt 1
GAS LISTING /tmp/ccvbDvuT.s 			page 84


 168:src/riscv.cpp ****     }
 3120              		.loc 1 168 22 is_stmt 0
 3121 0f0c 97000000 		call	_ZN3TCB8dispatchEv@plt
 3121      E7800000 
 3122              	.LVL232:
 3123              	.LBE138:
 3124 0f14 6FF05FD7 		j	.L135
 3125              	.LBE154:
 3126              	.LBE170:
 3127              	.LBE183:
 3128              	.LBE187:
 3129              		.cfi_endproc
 3130              	.LFE39:
 3132              		.globl	_ZN5RiscV16userMainFinishedE
 3133              		.globl	_ZN5RiscV10globalTimeE
 3134              		.bss
 3135              		.align	3
 3136              		.set	.LANCHOR0,. + 0
 3139              	_ZN5RiscV16userMainFinishedE:
 3140 0000 00       		.zero	1
 3141 0001 00000000 		.zero	7
 3141      000000
 3144              	_ZN5RiscV10globalTimeE:
 3145 0008 00000000 		.zero	8
 3145      00000000 
 3146              		.text
 3147              	.Letext0:
 3148              		.file 3 "src/../h/../lib/hw.h"
 3149              		.file 4 "src/../h/memoryAllocator.hpp"
 3150              		.file 5 "src/../h/tcb.hpp"
 3151              		.file 6 "src/../h/scb.hpp"
 3152              		.file 7 "src/../h/scheduler.hpp"
 3153              		.file 8 "src/../h/consoleUtil.hpp"
 3154              		.file 9 "src/../h/slabAllocator.hpp"
 3155              		.file 10 "src/../h/syscall_c.h"
 9608              		.align	3
 9611              	DW.ref.__gxx_personality_v0:
 9612 0000 00000000 		.dword	__gxx_personality_v0
 9612      00000000 
 9613              		.ident	"GCC: (Ubuntu 9.4.0-1ubuntu1~20.04) 9.4.0"
 9614              		.section	.note.GNU-stack,"",@progbits
GAS LISTING /tmp/ccvbDvuT.s 			page 85


DEFINED SYMBOLS
                            *ABS*:0000000000000000 riscv.cpp
     /tmp/ccvbDvuT.s:9      .text:0000000000000000 _ZN5RiscV10initializeEv
     /tmp/ccvbDvuT.s:13     .text:0000000000000000 .L0 
     /tmp/ccvbDvuT.s:14     .text:0000000000000000 .L0 
     /tmp/ccvbDvuT.s:15     .text:0000000000000004 .L0 
     /tmp/ccvbDvuT.s:18     .text:000000000000000c .L0 
     /tmp/ccvbDvuT.s:19     .text:000000000000000c .L0 
     /tmp/ccvbDvuT.s:21     .text:0000000000000010 .L0 
     /tmp/ccvbDvuT.s:23     .text:0000000000000010 .L0 
     /tmp/ccvbDvuT.s:24     .text:0000000000000010 .L0 
     /tmp/ccvbDvuT.s:30     .text:0000000000000018 .L0 
  src/../h/riscv.hpp:168    .text:0000000000000018 .L0 
     /tmp/ccvbDvuT.s:40     .text:000000000000001c .L0 
     /tmp/ccvbDvuT.s:41     .text:000000000000001c .L0 
     /tmp/ccvbDvuT.s:44     .text:0000000000000024 .L0 
     /tmp/ccvbDvuT.s:45     .text:0000000000000024 .L0 
     /tmp/ccvbDvuT.s:48     .text:000000000000002c .L0 
     /tmp/ccvbDvuT.s:49     .text:000000000000002c .L0 
     /tmp/ccvbDvuT.s:52     .text:0000000000000034 .L0 
     /tmp/ccvbDvuT.s:53     .text:0000000000000034 .L0 
     /tmp/ccvbDvuT.s:56     .text:000000000000003c .L0 
     /tmp/ccvbDvuT.s:57     .text:000000000000003c .L0 
     /tmp/ccvbDvuT.s:62     .text:0000000000000050 .L0 
     /tmp/ccvbDvuT.s:67     .text:0000000000000060 .L0 
     /tmp/ccvbDvuT.s:71     .text:0000000000000060 .L0 
     /tmp/ccvbDvuT.s:72     .text:0000000000000060 .L0 
     /tmp/ccvbDvuT.s:73     .text:0000000000000060 .L0 
     /tmp/ccvbDvuT.s:87     .text:0000000000000068 .L0 
     /tmp/ccvbDvuT.s:88     .text:0000000000000068 .L0 
     /tmp/ccvbDvuT.s:89     .text:0000000000000068 .L0 
     /tmp/ccvbDvuT.s:103    .text:0000000000000070 .L0 
     /tmp/ccvbDvuT.s:104    .text:0000000000000070 .L0 
  src/../h/riscv.hpp:172    .text:0000000000000070 .L0 
     /tmp/ccvbDvuT.s:115    .text:0000000000000074 .L0 
     /tmp/ccvbDvuT.s:116    .text:0000000000000078 .L0 
     /tmp/ccvbDvuT.s:118    .text:000000000000007c .L0 
     /tmp/ccvbDvuT.s:119    .text:000000000000007c .L0 
     /tmp/ccvbDvuT.s:121    .text:0000000000000080 .L0 
     /tmp/ccvbDvuT.s:123    .text:0000000000000084 .L0 
     /tmp/ccvbDvuT.s:129    .text:0000000000000084 _ZN5RiscV10popSppSpieEv
     /tmp/ccvbDvuT.s:132    .text:0000000000000084 .L0 
     /tmp/ccvbDvuT.s:133    .text:0000000000000084 .L0 
     /tmp/ccvbDvuT.s:134    .text:0000000000000088 .L0 
     /tmp/ccvbDvuT.s:136    .text:000000000000008c .L0 
     /tmp/ccvbDvuT.s:138    .text:0000000000000090 .L0 
     /tmp/ccvbDvuT.s:140    .text:0000000000000090 .L0 
       src/riscv.cpp:30     .text:0000000000000090 .L0 
     /tmp/ccvbDvuT.s:146    .text:0000000000000094 .L0 
       src/riscv.cpp:31     .text:0000000000000094 .L0 
     /tmp/ccvbDvuT.s:152    .text:0000000000000098 .L0 
     /tmp/ccvbDvuT.s:153    .text:000000000000009c .L0 
     /tmp/ccvbDvuT.s:154    .text:000000000000009c .L0 
     /tmp/ccvbDvuT.s:156    .text:00000000000000a0 .L0 
     /tmp/ccvbDvuT.s:158    .text:00000000000000a4 .L0 
     /tmp/ccvbDvuT.s:164    .text:00000000000000a4 _ZN5RiscV28executeThreadDispatchSyscallEv
     /tmp/ccvbDvuT.s:167    .text:00000000000000a4 .L0 
GAS LISTING /tmp/ccvbDvuT.s 			page 86


     /tmp/ccvbDvuT.s:168    .text:00000000000000a4 .L0 
     /tmp/ccvbDvuT.s:169    .text:00000000000000a8 .L0 
     /tmp/ccvbDvuT.s:172    .text:00000000000000b0 .L0 
     /tmp/ccvbDvuT.s:173    .text:00000000000000b0 .L0 
     /tmp/ccvbDvuT.s:175    .text:00000000000000b4 .L0 
     /tmp/ccvbDvuT.s:177    .text:00000000000000b4 .L0 
     /tmp/ccvbDvuT.s:178    .text:00000000000000b4 .L0 
     /tmp/ccvbDvuT.s:182    .text:00000000000000c0 .L0 
     /tmp/ccvbDvuT.s:183    .text:00000000000000c0 .L0 
     /tmp/ccvbDvuT.s:186    .text:00000000000000c8 .L0 
     /tmp/ccvbDvuT.s:187    .text:00000000000000c8 .L0 
     /tmp/ccvbDvuT.s:190    .text:00000000000000d0 .L0 
     /tmp/ccvbDvuT.s:191    .text:00000000000000d4 .L0 
     /tmp/ccvbDvuT.s:193    .text:00000000000000d8 .L0 
     /tmp/ccvbDvuT.s:194    .text:00000000000000d8 .L0 
     /tmp/ccvbDvuT.s:196    .text:00000000000000dc .L0 
     /tmp/ccvbDvuT.s:198    .text:00000000000000e0 .L0 
     /tmp/ccvbDvuT.s:204    .text:00000000000000e0 _ZN5RiscV18executePutcSyscallEv
     /tmp/ccvbDvuT.s:207    .text:00000000000000e0 .L0 
     /tmp/ccvbDvuT.s:208    .text:00000000000000e0 .L0 
     /tmp/ccvbDvuT.s:209    .text:00000000000000e4 .L0 
     /tmp/ccvbDvuT.s:212    .text:00000000000000ec .L0 
     /tmp/ccvbDvuT.s:213    .text:00000000000000ec .L0 
     /tmp/ccvbDvuT.s:215    .text:00000000000000f0 .L0 
     /tmp/ccvbDvuT.s:217    .text:00000000000000f0 .L0 
     /tmp/ccvbDvuT.s:218    .text:00000000000000f0 .L0 
     /tmp/ccvbDvuT.s:220    .text:00000000000000f8 .L0 
     /tmp/ccvbDvuT.s:222    .text:00000000000000fc .L0 
     /tmp/ccvbDvuT.s:223    .text:00000000000000fc .L0 
     /tmp/ccvbDvuT.s:229    .text:0000000000000110 .L0 
     /tmp/ccvbDvuT.s:230    .text:0000000000000110 .L0 
       src/riscv.cpp:496    .text:0000000000000110 .L0 
     /tmp/ccvbDvuT.s:237    .text:0000000000000114 .L0 
     /tmp/ccvbDvuT.s:239    .text:0000000000000114 .L0 
     /tmp/ccvbDvuT.s:243    .text:0000000000000120 .L0 
     /tmp/ccvbDvuT.s:244    .text:0000000000000124 .L0 
     /tmp/ccvbDvuT.s:246    .text:0000000000000128 .L0 
     /tmp/ccvbDvuT.s:247    .text:0000000000000128 .L0 
     /tmp/ccvbDvuT.s:249    .text:000000000000012c .L0 
     /tmp/ccvbDvuT.s:251    .text:0000000000000130 .L0 
     /tmp/ccvbDvuT.s:257    .text:0000000000000130 _ZN5RiscV11putcWrapperEPv
     /tmp/ccvbDvuT.s:260    .text:0000000000000130 .L0 
     /tmp/ccvbDvuT.s:262    .text:0000000000000130 .L0 
     /tmp/ccvbDvuT.s:263    .text:0000000000000134 .L0 
     /tmp/ccvbDvuT.s:266    .text:000000000000013c .L0 
     /tmp/ccvbDvuT.s:267    .text:000000000000013c .L0 
     /tmp/ccvbDvuT.s:269    .text:0000000000000140 .L0 
     /tmp/ccvbDvuT.s:276    .text:0000000000000144 .L0 
     /tmp/ccvbDvuT.s:277    .text:0000000000000144 .L0 
     /tmp/ccvbDvuT.s:284    .text:000000000000014c .L0 
     /tmp/ccvbDvuT.s:285    .text:000000000000014c .L0 
     /tmp/ccvbDvuT.s:286    .text:000000000000014c .L0 
     /tmp/ccvbDvuT.s:290    .text:0000000000000158 .L0 
       src/riscv.cpp:511    .text:0000000000000158 .L0 
     /tmp/ccvbDvuT.s:296    .text:000000000000015c .L0 
       src/riscv.cpp:512    .text:000000000000015c .L0 
     /tmp/ccvbDvuT.s:301    .text:0000000000000160 .L0 
GAS LISTING /tmp/ccvbDvuT.s 			page 87


       src/riscv.cpp:513    .text:0000000000000160 .L0 
     /tmp/ccvbDvuT.s:309    .text:0000000000000164 .L0 
     /tmp/ccvbDvuT.s:310    .text:0000000000000164 .L0 
     /tmp/ccvbDvuT.s:313    .text:0000000000000168 .L0 
     /tmp/ccvbDvuT.s:316    .text:000000000000016c .L0 
     /tmp/ccvbDvuT.s:317    .text:000000000000016c .L0 
     /tmp/ccvbDvuT.s:320    .text:0000000000000174 .L0 
     /tmp/ccvbDvuT.s:322    .text:0000000000000178 .L0 
     /tmp/ccvbDvuT.s:323    .text:0000000000000178 .L0 
     /tmp/ccvbDvuT.s:327    .text:0000000000000184 .L0 
       src/riscv.cpp:521    .text:0000000000000184 .L0 
     /tmp/ccvbDvuT.s:333    .text:0000000000000188 .L0 
     /tmp/ccvbDvuT.s:335    .text:0000000000000188 .L0 
       src/riscv.cpp:522    .text:000000000000018c .L0 
     /tmp/ccvbDvuT.s:343    .text:0000000000000190 .L0 
       src/riscv.cpp:523    .text:0000000000000190 .L0 
     /tmp/ccvbDvuT.s:348    .text:0000000000000194 .L0 
     /tmp/ccvbDvuT.s:350    .text:0000000000000194 .L0 
     /tmp/ccvbDvuT.s:353    .text:00000000000001a0 .L0 
     /tmp/ccvbDvuT.s:355    .text:00000000000001a4 .L0 
     /tmp/ccvbDvuT.s:356    .text:00000000000001a4 .L0 
     /tmp/ccvbDvuT.s:363    .text:00000000000001b8 .L0 
     /tmp/ccvbDvuT.s:369    .text:00000000000001b8 _ZN5RiscV29jumpToDesignatedPrivilegeModeEv
     /tmp/ccvbDvuT.s:372    .text:00000000000001b8 .L0 
     /tmp/ccvbDvuT.s:373    .text:00000000000001b8 .L0 
     /tmp/ccvbDvuT.s:374    .text:00000000000001bc .L0 
     /tmp/ccvbDvuT.s:376    .text:00000000000001c0 .L0 
     /tmp/ccvbDvuT.s:378    .text:00000000000001c4 .L0 
     /tmp/ccvbDvuT.s:380    .text:00000000000001c4 .L0 
     /tmp/ccvbDvuT.s:381    .text:00000000000001c4 .L0 
     /tmp/ccvbDvuT.s:385    .text:00000000000001d4 .L0 
     /tmp/ccvbDvuT.s:391    .text:00000000000001dc .L0 
     /tmp/ccvbDvuT.s:392    .text:00000000000001dc .L0 
     /tmp/ccvbDvuT.s:393    .text:00000000000001dc .L0 
     /tmp/ccvbDvuT.s:404    .text:00000000000001e4 .L0 
     /tmp/ccvbDvuT.s:405    .text:00000000000001e8 .L0 
     /tmp/ccvbDvuT.s:406    .text:00000000000001e8 .L0 
     /tmp/ccvbDvuT.s:407    .text:00000000000001e8 .L0 
     /tmp/ccvbDvuT.s:409    .text:00000000000001ec .L0 
     /tmp/ccvbDvuT.s:412    .text:00000000000001f0 .L0 
     /tmp/ccvbDvuT.s:417    .text:00000000000001f0 .L0 
     /tmp/ccvbDvuT.s:418    .text:00000000000001f0 .L0 
     /tmp/ccvbDvuT.s:419    .text:00000000000001f0 .L0 
     /tmp/ccvbDvuT.s:426    .text:00000000000001f8 .L0 
     /tmp/ccvbDvuT.s:429    .text:00000000000001fc .L0 
     /tmp/ccvbDvuT.s:435    .text:00000000000001fc _ZN5RiscV8finalizeEv
     /tmp/ccvbDvuT.s:438    .text:00000000000001fc .L0 
     /tmp/ccvbDvuT.s:439    .text:00000000000001fc .L0 
     /tmp/ccvbDvuT.s:440    .text:0000000000000200 .L0 
     /tmp/ccvbDvuT.s:443    .text:0000000000000208 .L0 
     /tmp/ccvbDvuT.s:444    .text:0000000000000208 .L0 
     /tmp/ccvbDvuT.s:446    .text:000000000000020c .L0 
     /tmp/ccvbDvuT.s:448    .text:000000000000020c .L0 
     /tmp/ccvbDvuT.s:449    .text:000000000000020c .L0 
     /tmp/ccvbDvuT.s:452    .text:0000000000000218 .L0 
     /tmp/ccvbDvuT.s:453    .text:0000000000000218 .L0 
     /tmp/ccvbDvuT.s:456    .text:0000000000000224 .L0 
GAS LISTING /tmp/ccvbDvuT.s 			page 88


     /tmp/ccvbDvuT.s:457    .text:0000000000000224 .L0 
     /tmp/ccvbDvuT.s:462    .text:0000000000000230 .L0 
     /tmp/ccvbDvuT.s:465    .text:0000000000000230 .L0 
     /tmp/ccvbDvuT.s:472    .text:0000000000000230 .L0 
     /tmp/ccvbDvuT.s:473    .text:0000000000000230 .L0 
     /tmp/ccvbDvuT.s:474    .text:0000000000000230 .L0 
     /tmp/ccvbDvuT.s:487    .text:0000000000000238 .L0 
     /tmp/ccvbDvuT.s:493    .text:0000000000000238 .L0 
     /tmp/ccvbDvuT.s:494    .text:0000000000000238 .L0 
     /tmp/ccvbDvuT.s:495    .text:0000000000000238 .L0 
     /tmp/ccvbDvuT.s:509    .text:0000000000000240 .L0 
     /tmp/ccvbDvuT.s:510    .text:0000000000000240 .L0 
     /tmp/ccvbDvuT.s:514    .text:0000000000000250 .L0 
     /tmp/ccvbDvuT.s:515    .text:0000000000000250 .L0 
     /tmp/ccvbDvuT.s:517    .text:0000000000000254 .L0 
     /tmp/ccvbDvuT.s:520    .text:0000000000000260 .L0 
     /tmp/ccvbDvuT.s:523    .text:0000000000000264 .L0 
     /tmp/ccvbDvuT.s:524    .text:0000000000000264 .L0 
     /tmp/ccvbDvuT.s:530    .text:0000000000000278 .L0 
     /tmp/ccvbDvuT.s:531    .text:0000000000000278 .L0 
     /tmp/ccvbDvuT.s:537    .text:0000000000000294 .L0 
     /tmp/ccvbDvuT.s:538    .text:0000000000000294 .L0 
     /tmp/ccvbDvuT.s:541    .text:000000000000029c .L0 
     /tmp/ccvbDvuT.s:544    .text:00000000000002a0 .L0 
     /tmp/ccvbDvuT.s:545    .text:00000000000002a4 .L0 
     /tmp/ccvbDvuT.s:547    .text:00000000000002a8 .L0 
     /tmp/ccvbDvuT.s:548    .text:00000000000002a8 .L0 
     /tmp/ccvbDvuT.s:550    .text:00000000000002ac .L0 
     /tmp/ccvbDvuT.s:552    .text:00000000000002b0 .L0 
     /tmp/ccvbDvuT.s:558    .text:00000000000002b0 _ZN5RiscV16saveA0toSscratchEv
     /tmp/ccvbDvuT.s:561    .text:00000000000002b0 .L0 
     /tmp/ccvbDvuT.s:562    .text:00000000000002b0 .L0 
     /tmp/ccvbDvuT.s:563    .text:00000000000002b4 .L0 
     /tmp/ccvbDvuT.s:565    .text:00000000000002b8 .L0 
     /tmp/ccvbDvuT.s:567    .text:00000000000002bc .L0 
     /tmp/ccvbDvuT.s:569    .text:00000000000002bc .L0 
     /tmp/ccvbDvuT.s:570    .text:00000000000002bc .L0 
       src/riscv.cpp:574    .text:00000000000002bc .L0 
     /tmp/ccvbDvuT.s:576    .text:00000000000002c0 .L0 
     /tmp/ccvbDvuT.s:578    .text:00000000000002c0 .L0 
       src/riscv.cpp:575    .text:00000000000002d0 .L0 
     /tmp/ccvbDvuT.s:587    .text:00000000000002d4 .L0 
       src/riscv.cpp:576    .text:00000000000002d4 .L0 
     /tmp/ccvbDvuT.s:592    .text:00000000000002d8 .L0 
       src/riscv.cpp:577    .text:00000000000002d8 .L0 
     /tmp/ccvbDvuT.s:598    .text:00000000000002dc .L0 
     /tmp/ccvbDvuT.s:599    .text:00000000000002e0 .L0 
     /tmp/ccvbDvuT.s:600    .text:00000000000002e0 .L0 
     /tmp/ccvbDvuT.s:602    .text:00000000000002e4 .L0 
     /tmp/ccvbDvuT.s:604    .text:00000000000002e8 .L0 
     /tmp/ccvbDvuT.s:610    .text:00000000000002e8 _ZN5RiscV22executeMemAllocSyscallEv
     /tmp/ccvbDvuT.s:613    .text:00000000000002e8 .L0 
     /tmp/ccvbDvuT.s:614    .text:00000000000002e8 .L0 
     /tmp/ccvbDvuT.s:615    .text:00000000000002ec .L0 
     /tmp/ccvbDvuT.s:618    .text:00000000000002f4 .L0 
     /tmp/ccvbDvuT.s:619    .text:00000000000002f4 .L0 
     /tmp/ccvbDvuT.s:621    .text:00000000000002f8 .L0 
GAS LISTING /tmp/ccvbDvuT.s 			page 89


     /tmp/ccvbDvuT.s:623    .text:00000000000002f8 .L0 
     /tmp/ccvbDvuT.s:624    .text:00000000000002f8 .L0 
       src/riscv.cpp:194    .text:00000000000002f8 .L0 
     /tmp/ccvbDvuT.s:631    .text:00000000000002fc .L0 
     /tmp/ccvbDvuT.s:633    .text:00000000000002fc .L0 
     /tmp/ccvbDvuT.s:636    .text:0000000000000304 .L0 
       src/riscv.cpp:199    .text:0000000000000304 .L0 
     /tmp/ccvbDvuT.s:642    .text:0000000000000308 .L0 
     /tmp/ccvbDvuT.s:644    .text:0000000000000308 .L0 
     /tmp/ccvbDvuT.s:647    .text:0000000000000310 .L0 
     /tmp/ccvbDvuT.s:648    .text:0000000000000314 .L0 
     /tmp/ccvbDvuT.s:650    .text:0000000000000318 .L0 
     /tmp/ccvbDvuT.s:651    .text:0000000000000318 .L0 
     /tmp/ccvbDvuT.s:653    .text:000000000000031c .L0 
     /tmp/ccvbDvuT.s:655    .text:0000000000000320 .L0 
     /tmp/ccvbDvuT.s:661    .text:0000000000000320 _ZN5RiscV21executeMemFreeSyscallEv
     /tmp/ccvbDvuT.s:664    .text:0000000000000320 .L0 
     /tmp/ccvbDvuT.s:665    .text:0000000000000320 .L0 
     /tmp/ccvbDvuT.s:666    .text:0000000000000324 .L0 
     /tmp/ccvbDvuT.s:669    .text:000000000000032c .L0 
     /tmp/ccvbDvuT.s:670    .text:000000000000032c .L0 
     /tmp/ccvbDvuT.s:672    .text:0000000000000330 .L0 
     /tmp/ccvbDvuT.s:674    .text:0000000000000330 .L0 
     /tmp/ccvbDvuT.s:675    .text:0000000000000330 .L0 
     /tmp/ccvbDvuT.s:679    .text:0000000000000340 .L0 
     /tmp/ccvbDvuT.s:683    .text:0000000000000344 .L0 
       src/riscv.cpp:219    .text:0000000000000344 .L0 
     /tmp/ccvbDvuT.s:689    .text:0000000000000348 .L0 
     /tmp/ccvbDvuT.s:691    .text:0000000000000348 .L0 
     /tmp/ccvbDvuT.s:694    .text:0000000000000350 .L0 
     /tmp/ccvbDvuT.s:695    .text:0000000000000354 .L0 
     /tmp/ccvbDvuT.s:696    .text:0000000000000354 .L0 
     /tmp/ccvbDvuT.s:698    .text:0000000000000358 .L0 
     /tmp/ccvbDvuT.s:699    .text:0000000000000358 .L0 
     /tmp/ccvbDvuT.s:701    .text:000000000000035c .L0 
     /tmp/ccvbDvuT.s:704    .text:0000000000000360 .L0 
     /tmp/ccvbDvuT.s:706    .text:0000000000000360 .L0 
       src/riscv.cpp:212    .text:0000000000000360 .L0 
     /tmp/ccvbDvuT.s:713    .text:0000000000000364 .L0 
     /tmp/ccvbDvuT.s:715    .text:0000000000000364 .L0 
     /tmp/ccvbDvuT.s:718    .text:000000000000036c .L0 
     /tmp/ccvbDvuT.s:719    .text:0000000000000370 .L0 
     /tmp/ccvbDvuT.s:725    .text:0000000000000370 _ZN5RiscV26executeThreadCreateSyscallEv
     /tmp/ccvbDvuT.s:728    .text:0000000000000370 .L0 
     /tmp/ccvbDvuT.s:9611   .data.rel.local.DW.ref.__gxx_personality_v0:0000000000000000 DW.ref.__gxx_personality_v0
     /tmp/ccvbDvuT.s:731    .text:0000000000000370 .L0 
     /tmp/ccvbDvuT.s:732    .text:0000000000000374 .L0 
     /tmp/ccvbDvuT.s:740    .text:0000000000000390 .L0 
     /tmp/ccvbDvuT.s:741    .text:0000000000000390 .L0 
     /tmp/ccvbDvuT.s:742    .text:0000000000000390 .L0 
     /tmp/ccvbDvuT.s:743    .text:0000000000000390 .L0 
     /tmp/ccvbDvuT.s:744    .text:0000000000000390 .L0 
     /tmp/ccvbDvuT.s:745    .text:0000000000000390 .L0 
     /tmp/ccvbDvuT.s:746    .text:0000000000000390 .L0 
     /tmp/ccvbDvuT.s:748    .text:0000000000000394 .L0 
     /tmp/ccvbDvuT.s:750    .text:0000000000000394 .L0 
     /tmp/ccvbDvuT.s:751    .text:0000000000000394 .L0 
GAS LISTING /tmp/ccvbDvuT.s 			page 90


       src/riscv.cpp:229    .text:0000000000000394 .L0 
     /tmp/ccvbDvuT.s:757    .text:0000000000000398 .L0 
       src/riscv.cpp:230    .text:0000000000000398 .L0 
     /tmp/ccvbDvuT.s:763    .text:000000000000039c .L0 
       src/riscv.cpp:231    .text:000000000000039c .L0 
     /tmp/ccvbDvuT.s:768    .text:00000000000003a0 .L0 
       src/riscv.cpp:232    .text:00000000000003a0 .L0 
     /tmp/ccvbDvuT.s:773    .text:00000000000003a4 .L0 
     /tmp/ccvbDvuT.s:775    .text:00000000000003a4 .L0 
     /tmp/ccvbDvuT.s:790    .text:00000000000003cc .L0 
     /tmp/ccvbDvuT.s:791    .text:00000000000003cc .L0 
     /tmp/ccvbDvuT.s:793    .text:00000000000003d0 .L0 
     /tmp/ccvbDvuT.s:794    .text:00000000000003d0 .L0 
     /tmp/ccvbDvuT.s:796    .text:00000000000003d4 .L0 
     /tmp/ccvbDvuT.s:798    .text:00000000000003d8 .L0 
     /tmp/ccvbDvuT.s:799    .text:00000000000003d8 .L0 
     /tmp/ccvbDvuT.s:806    .text:00000000000003e4 .L0 
     /tmp/ccvbDvuT.s:807    .text:00000000000003e4 .L0 
     /tmp/ccvbDvuT.s:809    .text:00000000000003e8 .L0 
     /tmp/ccvbDvuT.s:813    .text:00000000000003ec .L0 
       src/riscv.cpp:249    .text:00000000000003ec .L0 
     /tmp/ccvbDvuT.s:819    .text:00000000000003f0 .L0 
     /tmp/ccvbDvuT.s:821    .text:00000000000003f0 .L0 
     /tmp/ccvbDvuT.s:824    .text:00000000000003f8 .L0 
     /tmp/ccvbDvuT.s:825    .text:00000000000003fc .L0 
     /tmp/ccvbDvuT.s:826    .text:00000000000003fc .L0 
     /tmp/ccvbDvuT.s:828    .text:0000000000000400 .L0 
     /tmp/ccvbDvuT.s:829    .text:0000000000000400 .L0 
     /tmp/ccvbDvuT.s:831    .text:0000000000000404 .L0 
     /tmp/ccvbDvuT.s:834    .text:0000000000000408 .L0 
     /tmp/ccvbDvuT.s:836    .text:000000000000040c .L0 
     /tmp/ccvbDvuT.s:838    .text:0000000000000410 .L0 
     /tmp/ccvbDvuT.s:840    .text:0000000000000414 .L0 
     /tmp/ccvbDvuT.s:843    .text:0000000000000418 .L0 
     /tmp/ccvbDvuT.s:847    .text:000000000000041c .L0 
     /tmp/ccvbDvuT.s:849    .text:000000000000041c .L0 
     /tmp/ccvbDvuT.s:855    .text:0000000000000428 .L0 
     /tmp/ccvbDvuT.s:863    .text:0000000000000440 .L0 
     /tmp/ccvbDvuT.s:893    .text:0000000000000440 _ZN5RiscV30executeThreadAttachBodySyscallEv
     /tmp/ccvbDvuT.s:896    .text:0000000000000440 .L0 
     /tmp/ccvbDvuT.s:899    .text:0000000000000440 .L0 
     /tmp/ccvbDvuT.s:900    .text:0000000000000444 .L0 
     /tmp/ccvbDvuT.s:908    .text:0000000000000460 .L0 
     /tmp/ccvbDvuT.s:909    .text:0000000000000460 .L0 
     /tmp/ccvbDvuT.s:910    .text:0000000000000460 .L0 
     /tmp/ccvbDvuT.s:911    .text:0000000000000460 .L0 
     /tmp/ccvbDvuT.s:912    .text:0000000000000460 .L0 
     /tmp/ccvbDvuT.s:913    .text:0000000000000460 .L0 
     /tmp/ccvbDvuT.s:914    .text:0000000000000460 .L0 
     /tmp/ccvbDvuT.s:916    .text:0000000000000464 .L0 
     /tmp/ccvbDvuT.s:918    .text:0000000000000464 .L0 
     /tmp/ccvbDvuT.s:919    .text:0000000000000464 .L0 
       src/riscv.cpp:260    .text:0000000000000464 .L0 
     /tmp/ccvbDvuT.s:925    .text:0000000000000468 .L0 
       src/riscv.cpp:261    .text:0000000000000468 .L0 
     /tmp/ccvbDvuT.s:931    .text:000000000000046c .L0 
       src/riscv.cpp:262    .text:000000000000046c .L0 
GAS LISTING /tmp/ccvbDvuT.s 			page 91


     /tmp/ccvbDvuT.s:937    .text:0000000000000470 .L0 
       src/riscv.cpp:263    .text:0000000000000470 .L0 
     /tmp/ccvbDvuT.s:943    .text:0000000000000474 .L0 
     /tmp/ccvbDvuT.s:945    .text:0000000000000474 .L0 
     /tmp/ccvbDvuT.s:960    .text:000000000000049c .L0 
     /tmp/ccvbDvuT.s:961    .text:000000000000049c .L0 
     /tmp/ccvbDvuT.s:963    .text:00000000000004a0 .L0 
     /tmp/ccvbDvuT.s:964    .text:00000000000004a0 .L0 
     /tmp/ccvbDvuT.s:966    .text:00000000000004a4 .L0 
     /tmp/ccvbDvuT.s:967    .text:00000000000004a4 .L0 
     /tmp/ccvbDvuT.s:969    .text:00000000000004a8 .L0 
     /tmp/ccvbDvuT.s:970    .text:00000000000004a8 .L0 
     /tmp/ccvbDvuT.s:972    .text:00000000000004ac .L0 
     /tmp/ccvbDvuT.s:976    .text:00000000000004b0 .L0 
       src/riscv.cpp:278    .text:00000000000004b0 .L0 
     /tmp/ccvbDvuT.s:982    .text:00000000000004b4 .L0 
     /tmp/ccvbDvuT.s:984    .text:00000000000004b4 .L0 
     /tmp/ccvbDvuT.s:987    .text:00000000000004bc .L0 
     /tmp/ccvbDvuT.s:988    .text:00000000000004c0 .L0 
     /tmp/ccvbDvuT.s:989    .text:00000000000004c0 .L0 
     /tmp/ccvbDvuT.s:991    .text:00000000000004c4 .L0 
     /tmp/ccvbDvuT.s:992    .text:00000000000004c4 .L0 
     /tmp/ccvbDvuT.s:994    .text:00000000000004c8 .L0 
     /tmp/ccvbDvuT.s:997    .text:00000000000004cc .L0 
     /tmp/ccvbDvuT.s:999    .text:00000000000004d0 .L0 
     /tmp/ccvbDvuT.s:1002   .text:00000000000004d4 .L0 
     /tmp/ccvbDvuT.s:1005   .text:00000000000004d8 .L0 
     /tmp/ccvbDvuT.s:1008   .text:00000000000004dc .L0 
     /tmp/ccvbDvuT.s:1012   .text:00000000000004e0 .L0 
     /tmp/ccvbDvuT.s:1014   .text:00000000000004e0 .L0 
     /tmp/ccvbDvuT.s:1020   .text:00000000000004ec .L0 
     /tmp/ccvbDvuT.s:1028   .text:0000000000000504 .L0 
     /tmp/ccvbDvuT.s:1053   .text:0000000000000504 _ZN5RiscV25executeThreadStartSyscallEv
     /tmp/ccvbDvuT.s:1056   .text:0000000000000504 .L0 
     /tmp/ccvbDvuT.s:1057   .text:0000000000000504 .L0 
     /tmp/ccvbDvuT.s:1058   .text:0000000000000508 .L0 
     /tmp/ccvbDvuT.s:1061   .text:0000000000000510 .L0 
     /tmp/ccvbDvuT.s:1062   .text:0000000000000510 .L0 
     /tmp/ccvbDvuT.s:1064   .text:0000000000000514 .L0 
     /tmp/ccvbDvuT.s:1066   .text:0000000000000514 .L0 
     /tmp/ccvbDvuT.s:1067   .text:0000000000000514 .L0 
       src/riscv.cpp:288    .text:0000000000000514 .L0 
     /tmp/ccvbDvuT.s:1074   .text:0000000000000518 .L0 
     /tmp/ccvbDvuT.s:1075   .text:0000000000000518 .L0 
     /tmp/ccvbDvuT.s:1077   .text:0000000000000518 .L0 
     /tmp/ccvbDvuT.s:1079   .text:000000000000051c .L0 
     /tmp/ccvbDvuT.s:1083   .text:0000000000000520 .L0 
       src/riscv.cpp:305    .text:0000000000000520 .L0 
     /tmp/ccvbDvuT.s:1089   .text:0000000000000524 .L0 
     /tmp/ccvbDvuT.s:1091   .text:0000000000000524 .L0 
     /tmp/ccvbDvuT.s:1094   .text:000000000000052c .L0 
     /tmp/ccvbDvuT.s:1095   .text:0000000000000530 .L0 
     /tmp/ccvbDvuT.s:1096   .text:0000000000000530 .L0 
     /tmp/ccvbDvuT.s:1098   .text:0000000000000534 .L0 
     /tmp/ccvbDvuT.s:1099   .text:0000000000000534 .L0 
     /tmp/ccvbDvuT.s:1101   .text:0000000000000538 .L0 
     /tmp/ccvbDvuT.s:1105   .text:000000000000053c .L0 
GAS LISTING /tmp/ccvbDvuT.s 			page 92


     /tmp/ccvbDvuT.s:1107   .text:000000000000053c .L0 
     /tmp/ccvbDvuT.s:1108   .text:000000000000053c .L0 
     /tmp/ccvbDvuT.s:1111   .text:0000000000000544 .L0 
     /tmp/ccvbDvuT.s:1112   .text:0000000000000544 .L0 
     /tmp/ccvbDvuT.s:1115   .text:000000000000054c .L0 
     /tmp/ccvbDvuT.s:1116   .text:000000000000054c .L0 
     /tmp/ccvbDvuT.s:1119   .text:0000000000000554 .L0 
     /tmp/ccvbDvuT.s:1121   .text:000000000000055c .L0 
     /tmp/ccvbDvuT.s:1127   .text:000000000000055c _ZN5RiscV24executeThreadExitSyscallEv
     /tmp/ccvbDvuT.s:1130   .text:000000000000055c .L0 
     /tmp/ccvbDvuT.s:1131   .text:000000000000055c .L0 
     /tmp/ccvbDvuT.s:1132   .text:0000000000000560 .L0 
     /tmp/ccvbDvuT.s:1135   .text:0000000000000568 .L0 
     /tmp/ccvbDvuT.s:1136   .text:0000000000000568 .L0 
     /tmp/ccvbDvuT.s:1138   .text:000000000000056c .L0 
     /tmp/ccvbDvuT.s:1141   .text:000000000000056c .L0 
     /tmp/ccvbDvuT.s:1143   .text:000000000000056c .L0 
     /tmp/ccvbDvuT.s:1144   .text:000000000000056c .L0 
     /tmp/ccvbDvuT.s:1147   .text:0000000000000578 .L0 
     /tmp/ccvbDvuT.s:1151   .text:000000000000057c .L0 
     /tmp/ccvbDvuT.s:1152   .text:000000000000057c .L0 
     /tmp/ccvbDvuT.s:1153   .text:000000000000057c .L0 
     /tmp/ccvbDvuT.s:1156   .text:0000000000000584 .L0 
     /tmp/ccvbDvuT.s:1157   .text:0000000000000584 .L0 
     /tmp/ccvbDvuT.s:1162   .text:000000000000058c .L0 
     /tmp/ccvbDvuT.s:1166   .text:0000000000000590 .L0 
       src/riscv.cpp:325    .text:0000000000000590 .L0 
     /tmp/ccvbDvuT.s:1172   .text:0000000000000594 .L0 
     /tmp/ccvbDvuT.s:1174   .text:0000000000000594 .L0 
     /tmp/ccvbDvuT.s:1177   .text:000000000000059c .L0 
     /tmp/ccvbDvuT.s:1178   .text:00000000000005a0 .L0 
     /tmp/ccvbDvuT.s:1179   .text:00000000000005a0 .L0 
     /tmp/ccvbDvuT.s:1181   .text:00000000000005a4 .L0 
     /tmp/ccvbDvuT.s:1182   .text:00000000000005a4 .L0 
     /tmp/ccvbDvuT.s:1184   .text:00000000000005a8 .L0 
     /tmp/ccvbDvuT.s:1188   .text:00000000000005ac .L0 
     /tmp/ccvbDvuT.s:1191   .text:00000000000005ac .L0 
     /tmp/ccvbDvuT.s:1194   .text:00000000000005b4 .L0 
     /tmp/ccvbDvuT.s:1200   .text:00000000000005b4 _ZN5RiscV21executeSemOpenSyscallEv
     /tmp/ccvbDvuT.s:1203   .text:00000000000005b4 .L0 
     /tmp/ccvbDvuT.s:1206   .text:00000000000005b4 .L0 
     /tmp/ccvbDvuT.s:1207   .text:00000000000005b8 .L0 
     /tmp/ccvbDvuT.s:1213   .text:00000000000005cc .L0 
     /tmp/ccvbDvuT.s:1214   .text:00000000000005cc .L0 
     /tmp/ccvbDvuT.s:1215   .text:00000000000005cc .L0 
     /tmp/ccvbDvuT.s:1216   .text:00000000000005cc .L0 
     /tmp/ccvbDvuT.s:1217   .text:00000000000005cc .L0 
     /tmp/ccvbDvuT.s:1219   .text:00000000000005d0 .L0 
     /tmp/ccvbDvuT.s:1221   .text:00000000000005d0 .L0 
     /tmp/ccvbDvuT.s:1222   .text:00000000000005d0 .L0 
       src/riscv.cpp:343    .text:00000000000005d0 .L0 
     /tmp/ccvbDvuT.s:1229   .text:00000000000005d4 .L0 
       src/riscv.cpp:344    .text:00000000000005d4 .L0 
     /tmp/ccvbDvuT.s:1234   .text:00000000000005d8 .L0 
     /tmp/ccvbDvuT.s:1236   .text:00000000000005d8 .L0 
     /tmp/ccvbDvuT.s:1248   .text:00000000000005f4 .L0 
     /tmp/ccvbDvuT.s:1249   .text:00000000000005f4 .L0 
GAS LISTING /tmp/ccvbDvuT.s 			page 93


     /tmp/ccvbDvuT.s:1251   .text:00000000000005f8 .L0 
     /tmp/ccvbDvuT.s:1252   .text:00000000000005f8 .L0 
     /tmp/ccvbDvuT.s:1254   .text:00000000000005fc .L0 
     /tmp/ccvbDvuT.s:1258   .text:0000000000000600 .L0 
       src/riscv.cpp:359    .text:0000000000000600 .L0 
     /tmp/ccvbDvuT.s:1264   .text:0000000000000604 .L0 
     /tmp/ccvbDvuT.s:1266   .text:0000000000000604 .L0 
     /tmp/ccvbDvuT.s:1269   .text:000000000000060c .L0 
     /tmp/ccvbDvuT.s:1270   .text:0000000000000610 .L0 
     /tmp/ccvbDvuT.s:1271   .text:0000000000000610 .L0 
     /tmp/ccvbDvuT.s:1273   .text:0000000000000614 .L0 
     /tmp/ccvbDvuT.s:1274   .text:0000000000000614 .L0 
     /tmp/ccvbDvuT.s:1276   .text:0000000000000618 .L0 
     /tmp/ccvbDvuT.s:1279   .text:000000000000061c .L0 
     /tmp/ccvbDvuT.s:1281   .text:0000000000000620 .L0 
     /tmp/ccvbDvuT.s:1284   .text:0000000000000624 .L0 
     /tmp/ccvbDvuT.s:1288   .text:0000000000000628 .L0 
     /tmp/ccvbDvuT.s:1290   .text:0000000000000628 .L0 
     /tmp/ccvbDvuT.s:1296   .text:0000000000000634 .L0 
     /tmp/ccvbDvuT.s:1304   .text:000000000000064c .L0 
     /tmp/ccvbDvuT.s:1329   .text:000000000000064c _ZN5RiscV22executeSemCloseSyscallEv
     /tmp/ccvbDvuT.s:1332   .text:000000000000064c .L0 
     /tmp/ccvbDvuT.s:1333   .text:000000000000064c .L0 
     /tmp/ccvbDvuT.s:1334   .text:0000000000000650 .L0 
     /tmp/ccvbDvuT.s:1338   .text:000000000000065c .L0 
     /tmp/ccvbDvuT.s:1339   .text:000000000000065c .L0 
     /tmp/ccvbDvuT.s:1340   .text:000000000000065c .L0 
     /tmp/ccvbDvuT.s:1342   .text:0000000000000660 .L0 
     /tmp/ccvbDvuT.s:1344   .text:0000000000000660 .L0 
     /tmp/ccvbDvuT.s:1345   .text:0000000000000660 .L0 
       src/riscv.cpp:370    .text:0000000000000660 .L0 
     /tmp/ccvbDvuT.s:1352   .text:0000000000000664 .L0 
     /tmp/ccvbDvuT.s:1353   .text:0000000000000664 .L0 
     /tmp/ccvbDvuT.s:1355   .text:0000000000000664 .L0 
     /tmp/ccvbDvuT.s:1357   .text:0000000000000668 .L0 
     /tmp/ccvbDvuT.s:1361   .text:000000000000066c .L0 
       src/riscv.cpp:383    .text:000000000000066c .L0 
     /tmp/ccvbDvuT.s:1367   .text:0000000000000670 .L0 
     /tmp/ccvbDvuT.s:1369   .text:0000000000000670 .L0 
     /tmp/ccvbDvuT.s:1372   .text:0000000000000678 .L0 
     /tmp/ccvbDvuT.s:1373   .text:000000000000067c .L0 
     /tmp/ccvbDvuT.s:1374   .text:000000000000067c .L0 
     /tmp/ccvbDvuT.s:1376   .text:0000000000000680 .L0 
     /tmp/ccvbDvuT.s:1377   .text:0000000000000680 .L0 
     /tmp/ccvbDvuT.s:1379   .text:0000000000000684 .L0 
     /tmp/ccvbDvuT.s:1382   .text:0000000000000688 .L0 
     /tmp/ccvbDvuT.s:1386   .text:000000000000068c .L0 
     /tmp/ccvbDvuT.s:1388   .text:000000000000068c .L0 
     /tmp/ccvbDvuT.s:1389   .text:000000000000068c .L0 
     /tmp/ccvbDvuT.s:1396   .text:00000000000006a4 .L0 
     /tmp/ccvbDvuT.s:1398   .text:00000000000006ac .L0 
     /tmp/ccvbDvuT.s:1404   .text:00000000000006ac _ZN5RiscV21executeSemWaitSyscallEv
     /tmp/ccvbDvuT.s:1407   .text:00000000000006ac .L0 
     /tmp/ccvbDvuT.s:1408   .text:00000000000006ac .L0 
     /tmp/ccvbDvuT.s:1409   .text:00000000000006b0 .L0 
     /tmp/ccvbDvuT.s:1412   .text:00000000000006b8 .L0 
     /tmp/ccvbDvuT.s:1413   .text:00000000000006b8 .L0 
GAS LISTING /tmp/ccvbDvuT.s 			page 94


     /tmp/ccvbDvuT.s:1415   .text:00000000000006bc .L0 
     /tmp/ccvbDvuT.s:1417   .text:00000000000006bc .L0 
     /tmp/ccvbDvuT.s:1418   .text:00000000000006bc .L0 
       src/riscv.cpp:393    .text:00000000000006bc .L0 
     /tmp/ccvbDvuT.s:1425   .text:00000000000006c0 .L0 
     /tmp/ccvbDvuT.s:1427   .text:00000000000006c0 .L0 
     /tmp/ccvbDvuT.s:1431   .text:00000000000006c4 .L0 
     /tmp/ccvbDvuT.s:1432   .text:00000000000006c4 .L0 
     /tmp/ccvbDvuT.s:1436   .text:00000000000006d4 .L0 
     /tmp/ccvbDvuT.s:1438   .text:00000000000006d8 .L0 
     /tmp/ccvbDvuT.s:1442   .text:00000000000006dc .L0 
       src/riscv.cpp:409    .text:00000000000006dc .L0 
     /tmp/ccvbDvuT.s:1448   .text:00000000000006e0 .L0 
     /tmp/ccvbDvuT.s:1450   .text:00000000000006e0 .L0 
     /tmp/ccvbDvuT.s:1453   .text:00000000000006e8 .L0 
     /tmp/ccvbDvuT.s:1454   .text:00000000000006ec .L0 
     /tmp/ccvbDvuT.s:1455   .text:00000000000006ec .L0 
     /tmp/ccvbDvuT.s:1457   .text:00000000000006f0 .L0 
     /tmp/ccvbDvuT.s:1458   .text:00000000000006f0 .L0 
     /tmp/ccvbDvuT.s:1460   .text:00000000000006f4 .L0 
     /tmp/ccvbDvuT.s:1464   .text:00000000000006f8 .L0 
     /tmp/ccvbDvuT.s:1466   .text:00000000000006f8 .L0 
     /tmp/ccvbDvuT.s:1467   .text:00000000000006f8 .L0 
     /tmp/ccvbDvuT.s:1473   .text:0000000000000704 .L0 
     /tmp/ccvbDvuT.s:1475   .text:000000000000070c .L0 
     /tmp/ccvbDvuT.s:1481   .text:000000000000070c _ZN5RiscV23executeSemSignalSyscallEv
     /tmp/ccvbDvuT.s:1484   .text:000000000000070c .L0 
     /tmp/ccvbDvuT.s:1485   .text:000000000000070c .L0 
     /tmp/ccvbDvuT.s:1486   .text:0000000000000710 .L0 
     /tmp/ccvbDvuT.s:1489   .text:0000000000000718 .L0 
     /tmp/ccvbDvuT.s:1490   .text:0000000000000718 .L0 
     /tmp/ccvbDvuT.s:1492   .text:000000000000071c .L0 
     /tmp/ccvbDvuT.s:1494   .text:000000000000071c .L0 
     /tmp/ccvbDvuT.s:1495   .text:000000000000071c .L0 
       src/riscv.cpp:420    .text:000000000000071c .L0 
     /tmp/ccvbDvuT.s:1502   .text:0000000000000720 .L0 
     /tmp/ccvbDvuT.s:1504   .text:0000000000000720 .L0 
     /tmp/ccvbDvuT.s:1506   .text:0000000000000724 .L0 
     /tmp/ccvbDvuT.s:1510   .text:0000000000000728 .L0 
       src/riscv.cpp:432    .text:0000000000000728 .L0 
     /tmp/ccvbDvuT.s:1516   .text:000000000000072c .L0 
     /tmp/ccvbDvuT.s:1518   .text:000000000000072c .L0 
     /tmp/ccvbDvuT.s:1521   .text:0000000000000734 .L0 
     /tmp/ccvbDvuT.s:1522   .text:0000000000000738 .L0 
     /tmp/ccvbDvuT.s:1523   .text:0000000000000738 .L0 
     /tmp/ccvbDvuT.s:1525   .text:000000000000073c .L0 
     /tmp/ccvbDvuT.s:1526   .text:000000000000073c .L0 
     /tmp/ccvbDvuT.s:1528   .text:0000000000000740 .L0 
     /tmp/ccvbDvuT.s:1532   .text:0000000000000744 .L0 
     /tmp/ccvbDvuT.s:1534   .text:0000000000000744 .L0 
     /tmp/ccvbDvuT.s:1535   .text:0000000000000744 .L0 
     /tmp/ccvbDvuT.s:1538   .text:000000000000074c .L0 
     /tmp/ccvbDvuT.s:1540   .text:0000000000000754 .L0 
     /tmp/ccvbDvuT.s:1546   .text:0000000000000754 _ZN5RiscV23executeTimeSleepSyscallEv
     /tmp/ccvbDvuT.s:1549   .text:0000000000000754 .L0 
     /tmp/ccvbDvuT.s:1550   .text:0000000000000754 .L0 
     /tmp/ccvbDvuT.s:1551   .text:0000000000000758 .L0 
GAS LISTING /tmp/ccvbDvuT.s 			page 95


     /tmp/ccvbDvuT.s:1555   .text:0000000000000764 .L0 
     /tmp/ccvbDvuT.s:1556   .text:0000000000000764 .L0 
     /tmp/ccvbDvuT.s:1557   .text:0000000000000764 .L0 
     /tmp/ccvbDvuT.s:1559   .text:0000000000000768 .L0 
     /tmp/ccvbDvuT.s:1561   .text:0000000000000768 .L0 
     /tmp/ccvbDvuT.s:1562   .text:0000000000000768 .L0 
       src/riscv.cpp:442    .text:0000000000000768 .L0 
     /tmp/ccvbDvuT.s:1568   .text:000000000000076c .L0 
     /tmp/ccvbDvuT.s:1570   .text:000000000000076c .L0 
     /tmp/ccvbDvuT.s:1574   .text:0000000000000778 .L0 
     /tmp/ccvbDvuT.s:1575   .text:0000000000000778 .L0 
     /tmp/ccvbDvuT.s:1578   .text:0000000000000784 .L0 
     /tmp/ccvbDvuT.s:1579   .text:0000000000000784 .L0 
     /tmp/ccvbDvuT.s:1581   .text:0000000000000788 .L0 
     /tmp/ccvbDvuT.s:1583   .text:000000000000078c .L0 
     /tmp/ccvbDvuT.s:1584   .text:000000000000078c .L0 
     /tmp/ccvbDvuT.s:1588   .text:0000000000000798 .L0 
     /tmp/ccvbDvuT.s:1589   .text:0000000000000798 .L0 
     /tmp/ccvbDvuT.s:1592   .text:00000000000007a0 .L0 
     /tmp/ccvbDvuT.s:1593   .text:00000000000007a0 .L0 
     /tmp/ccvbDvuT.s:1596   .text:00000000000007a8 .L0 
     /tmp/ccvbDvuT.s:1597   .text:00000000000007a8 .L0 
     /tmp/ccvbDvuT.s:1598   .text:00000000000007a8 .L0 
     /tmp/ccvbDvuT.s:1604   .text:00000000000007b0 .L0 
     /tmp/ccvbDvuT.s:1606   .text:00000000000007b0 .L0 
     /tmp/ccvbDvuT.s:1609   .text:00000000000007b8 .L0 
     /tmp/ccvbDvuT.s:1610   .text:00000000000007bc .L0 
     /tmp/ccvbDvuT.s:1612   .text:00000000000007c0 .L0 
     /tmp/ccvbDvuT.s:1613   .text:00000000000007c0 .L0 
     /tmp/ccvbDvuT.s:1615   .text:00000000000007c4 .L0 
     /tmp/ccvbDvuT.s:1618   .text:00000000000007c8 .L0 
     /tmp/ccvbDvuT.s:1620   .text:00000000000007cc .L0 
     /tmp/ccvbDvuT.s:1626   .text:00000000000007cc _ZN5RiscV18executeGetcSyscallEv
     /tmp/ccvbDvuT.s:1629   .text:00000000000007cc .L0 
     /tmp/ccvbDvuT.s:1630   .text:00000000000007cc .L0 
     /tmp/ccvbDvuT.s:1631   .text:00000000000007d0 .L0 
     /tmp/ccvbDvuT.s:1635   .text:00000000000007dc .L0 
     /tmp/ccvbDvuT.s:1636   .text:00000000000007dc .L0 
     /tmp/ccvbDvuT.s:1637   .text:00000000000007dc .L0 
     /tmp/ccvbDvuT.s:1639   .text:00000000000007e0 .L0 
     /tmp/ccvbDvuT.s:1641   .text:00000000000007e0 .L0 
     /tmp/ccvbDvuT.s:1642   .text:00000000000007e0 .L0 
     /tmp/ccvbDvuT.s:1644   .text:00000000000007e8 .L0 
     /tmp/ccvbDvuT.s:1646   .text:00000000000007ec .L0 
     /tmp/ccvbDvuT.s:1647   .text:00000000000007ec .L0 
     /tmp/ccvbDvuT.s:1653   .text:0000000000000800 .L0 
     /tmp/ccvbDvuT.s:1654   .text:0000000000000800 .L0 
     /tmp/ccvbDvuT.s:1659   .text:000000000000080c .L0 
     /tmp/ccvbDvuT.s:1662   .text:0000000000000814 .L0 
     /tmp/ccvbDvuT.s:1667   .text:000000000000081c .L0 
       src/riscv.cpp:483    .text:000000000000081c .L0 
     /tmp/ccvbDvuT.s:1673   .text:0000000000000820 .L0 
     /tmp/ccvbDvuT.s:1675   .text:0000000000000820 .L0 
     /tmp/ccvbDvuT.s:1678   .text:0000000000000828 .L0 
     /tmp/ccvbDvuT.s:1679   .text:000000000000082c .L0 
     /tmp/ccvbDvuT.s:1680   .text:000000000000082c .L0 
     /tmp/ccvbDvuT.s:1682   .text:0000000000000830 .L0 
GAS LISTING /tmp/ccvbDvuT.s 			page 96


     /tmp/ccvbDvuT.s:1683   .text:0000000000000830 .L0 
     /tmp/ccvbDvuT.s:1685   .text:0000000000000834 .L0 
     /tmp/ccvbDvuT.s:1687   .text:0000000000000838 .L0 
     /tmp/ccvbDvuT.s:1691   .text:000000000000083c .L0 
     /tmp/ccvbDvuT.s:1693   .text:000000000000083c .L0 
     /tmp/ccvbDvuT.s:1694   .text:000000000000083c .L0 
     /tmp/ccvbDvuT.s:1699   .text:0000000000000848 .L0 
     /tmp/ccvbDvuT.s:1700   .text:0000000000000848 .L0 
     /tmp/ccvbDvuT.s:1707   .text:0000000000000858 .L0 
     /tmp/ccvbDvuT.s:1708   .text:0000000000000858 .L0 
     /tmp/ccvbDvuT.s:1711   .text:0000000000000864 .L0 
     /tmp/ccvbDvuT.s:1717   .text:0000000000000864 _ZN5RiscV22executePutcUtilSyscallEv
     /tmp/ccvbDvuT.s:1720   .text:0000000000000864 .L0 
     /tmp/ccvbDvuT.s:1721   .text:0000000000000864 .L0 
     /tmp/ccvbDvuT.s:1722   .text:0000000000000868 .L0 
     /tmp/ccvbDvuT.s:1725   .text:0000000000000870 .L0 
     /tmp/ccvbDvuT.s:1726   .text:0000000000000870 .L0 
     /tmp/ccvbDvuT.s:1728   .text:0000000000000874 .L0 
     /tmp/ccvbDvuT.s:1730   .text:0000000000000874 .L0 
     /tmp/ccvbDvuT.s:1731   .text:0000000000000874 .L0 
     /tmp/ccvbDvuT.s:1734   .text:000000000000087c .L0 
       src/riscv.cpp:538    .text:000000000000087c .L0 
     /tmp/ccvbDvuT.s:1740   .text:0000000000000880 .L0 
     /tmp/ccvbDvuT.s:1742   .text:0000000000000880 .L0 
     /tmp/ccvbDvuT.s:1745   .text:0000000000000888 .L0 
     /tmp/ccvbDvuT.s:1746   .text:000000000000088c .L0 
     /tmp/ccvbDvuT.s:1748   .text:0000000000000890 .L0 
     /tmp/ccvbDvuT.s:1749   .text:0000000000000890 .L0 
     /tmp/ccvbDvuT.s:1751   .text:0000000000000894 .L0 
     /tmp/ccvbDvuT.s:1753   .text:0000000000000898 .L0 
     /tmp/ccvbDvuT.s:1759   .text:0000000000000898 _ZN5RiscV24executeThreadFreeSyscallEv
     /tmp/ccvbDvuT.s:1762   .text:0000000000000898 .L0 
     /tmp/ccvbDvuT.s:1763   .text:0000000000000898 .L0 
     /tmp/ccvbDvuT.s:1764   .text:000000000000089c .L0 
     /tmp/ccvbDvuT.s:1769   .text:00000000000008ac .L0 
     /tmp/ccvbDvuT.s:1770   .text:00000000000008ac .L0 
     /tmp/ccvbDvuT.s:1771   .text:00000000000008ac .L0 
     /tmp/ccvbDvuT.s:1772   .text:00000000000008ac .L0 
     /tmp/ccvbDvuT.s:1774   .text:00000000000008b0 .L0 
     /tmp/ccvbDvuT.s:1776   .text:00000000000008b0 .L0 
     /tmp/ccvbDvuT.s:1777   .text:00000000000008b0 .L0 
       src/riscv.cpp:584    .text:00000000000008b0 .L0 
     /tmp/ccvbDvuT.s:1784   .text:00000000000008b4 .L0 
     /tmp/ccvbDvuT.s:1786   .text:00000000000008b4 .L0 
     /tmp/ccvbDvuT.s:1788   .text:00000000000008b8 .L0 
     /tmp/ccvbDvuT.s:1792   .text:00000000000008bc .L0 
       src/riscv.cpp:596    .text:00000000000008bc .L0 
     /tmp/ccvbDvuT.s:1798   .text:00000000000008c0 .L0 
     /tmp/ccvbDvuT.s:1800   .text:00000000000008c0 .L0 
     /tmp/ccvbDvuT.s:1803   .text:00000000000008c8 .L0 
     /tmp/ccvbDvuT.s:1804   .text:00000000000008cc .L0 
     /tmp/ccvbDvuT.s:1805   .text:00000000000008cc .L0 
     /tmp/ccvbDvuT.s:1807   .text:00000000000008d0 .L0 
     /tmp/ccvbDvuT.s:1808   .text:00000000000008d0 .L0 
     /tmp/ccvbDvuT.s:1810   .text:00000000000008d4 .L0 
     /tmp/ccvbDvuT.s:1813   .text:00000000000008d8 .L0 
     /tmp/ccvbDvuT.s:1816   .text:00000000000008dc .L0 
GAS LISTING /tmp/ccvbDvuT.s 			page 97


     /tmp/ccvbDvuT.s:1820   .text:00000000000008e0 .L0 
     /tmp/ccvbDvuT.s:1822   .text:00000000000008e0 .L0 
     /tmp/ccvbDvuT.s:1823   .text:00000000000008e0 .L0 
     /tmp/ccvbDvuT.s:1829   .text:00000000000008f0 .L0 
     /tmp/ccvbDvuT.s:1830   .text:00000000000008f0 .L0 
     /tmp/ccvbDvuT.s:1838   .text:000000000000090c .L0 
     /tmp/ccvbDvuT.s:1844   .text:000000000000090c _ZN5RiscV27executeSemaphoreFreeSyscallEv
     /tmp/ccvbDvuT.s:1847   .text:000000000000090c .L0 
     /tmp/ccvbDvuT.s:1848   .text:000000000000090c .L0 
     /tmp/ccvbDvuT.s:1849   .text:0000000000000910 .L0 
     /tmp/ccvbDvuT.s:1853   .text:000000000000091c .L0 
     /tmp/ccvbDvuT.s:1854   .text:000000000000091c .L0 
     /tmp/ccvbDvuT.s:1855   .text:000000000000091c .L0 
     /tmp/ccvbDvuT.s:1857   .text:0000000000000920 .L0 
     /tmp/ccvbDvuT.s:1859   .text:0000000000000920 .L0 
     /tmp/ccvbDvuT.s:1860   .text:0000000000000920 .L0 
       src/riscv.cpp:606    .text:0000000000000920 .L0 
     /tmp/ccvbDvuT.s:1867   .text:0000000000000924 .L0 
     /tmp/ccvbDvuT.s:1869   .text:0000000000000924 .L0 
     /tmp/ccvbDvuT.s:1873   .text:0000000000000928 .L0 
     /tmp/ccvbDvuT.s:1874   .text:0000000000000928 .L0 
     /tmp/ccvbDvuT.s:1880   .text:0000000000000930 .L0 
     /tmp/ccvbDvuT.s:1882   .text:0000000000000930 .L0 
     /tmp/ccvbDvuT.s:1885   .text:0000000000000938 .L0 
     /tmp/ccvbDvuT.s:1886   .text:000000000000093c .L0 
     /tmp/ccvbDvuT.s:1887   .text:000000000000093c .L0 
     /tmp/ccvbDvuT.s:1889   .text:0000000000000940 .L0 
     /tmp/ccvbDvuT.s:1890   .text:0000000000000940 .L0 
     /tmp/ccvbDvuT.s:1892   .text:0000000000000944 .L0 
     /tmp/ccvbDvuT.s:1895   .text:0000000000000948 .L0 
     /tmp/ccvbDvuT.s:1899   .text:000000000000094c .L0 
     /tmp/ccvbDvuT.s:1901   .text:000000000000094c .L0 
     /tmp/ccvbDvuT.s:1902   .text:000000000000094c .L0 
     /tmp/ccvbDvuT.s:1909   .text:0000000000000968 .L0 
     /tmp/ccvbDvuT.s:1915   .text:0000000000000968 _ZN5RiscV18executeForkSyscallEv
     /tmp/ccvbDvuT.s:1918   .text:0000000000000968 .L0 
     /tmp/ccvbDvuT.s:1921   .text:0000000000000968 .L0 
     /tmp/ccvbDvuT.s:1922   .text:000000000000096c .L0 
     /tmp/ccvbDvuT.s:1927   .text:000000000000097c .L0 
     /tmp/ccvbDvuT.s:1928   .text:000000000000097c .L0 
     /tmp/ccvbDvuT.s:1929   .text:000000000000097c .L0 
     /tmp/ccvbDvuT.s:1930   .text:000000000000097c .L0 
     /tmp/ccvbDvuT.s:1932   .text:0000000000000980 .L0 
     /tmp/ccvbDvuT.s:1934   .text:0000000000000980 .L0 
     /tmp/ccvbDvuT.s:1935   .text:0000000000000980 .L0 
     /tmp/ccvbDvuT.s:1942   .text:0000000000000990 .L0 
     /tmp/ccvbDvuT.s:1943   .text:0000000000000990 .L0 
     /tmp/ccvbDvuT.s:1952   .text:00000000000009b0 .L0 
     /tmp/ccvbDvuT.s:1953   .text:00000000000009b0 .L0 
     /tmp/ccvbDvuT.s:1967   .text:00000000000009d8 .L0 
     /tmp/ccvbDvuT.s:1969   .text:00000000000009d8 .L0 
     /tmp/ccvbDvuT.s:1972   .text:00000000000009dc .L0 
     /tmp/ccvbDvuT.s:1973   .text:00000000000009dc .L0 
     /tmp/ccvbDvuT.s:1977   .text:00000000000009ec .L0 
     /tmp/ccvbDvuT.s:1978   .text:00000000000009ec .L0 
     /tmp/ccvbDvuT.s:1981   .text:00000000000009f8 .L0 
     /tmp/ccvbDvuT.s:1983   .text:00000000000009fc .L0 
GAS LISTING /tmp/ccvbDvuT.s 			page 98


     /tmp/ccvbDvuT.s:1986   .text:0000000000000a08 .L0 
     /tmp/ccvbDvuT.s:1988   .text:0000000000000a0c .L0 
     /tmp/ccvbDvuT.s:1990   .text:0000000000000a10 .L0 
     /tmp/ccvbDvuT.s:1992   .text:0000000000000a14 .L0 
     /tmp/ccvbDvuT.s:1993   .text:0000000000000a14 .L0 
     /tmp/ccvbDvuT.s:1996   .text:0000000000000a1c .L0 
     /tmp/ccvbDvuT.s:1998   .text:0000000000000a20 .L0 
     /tmp/ccvbDvuT.s:2000   .text:0000000000000a24 .L0 
     /tmp/ccvbDvuT.s:2003   .text:0000000000000a28 .L0 
     /tmp/ccvbDvuT.s:2004   .text:0000000000000a28 .L0 
     /tmp/ccvbDvuT.s:2006   .text:0000000000000a2c .L0 
     /tmp/ccvbDvuT.s:2007   .text:0000000000000a2c .L0 
       src/riscv.cpp:651    .text:0000000000000a2c .L0 
     /tmp/ccvbDvuT.s:2013   .text:0000000000000a30 .L0 
       src/riscv.cpp:653    .text:0000000000000a30 .L0 
     /tmp/ccvbDvuT.s:2018   .text:0000000000000a34 .L0 
       src/riscv.cpp:655    .text:0000000000000a34 .L0 
     /tmp/ccvbDvuT.s:2023   .text:0000000000000a38 .L0 
       src/riscv.cpp:657    .text:0000000000000a38 .L0 
     /tmp/ccvbDvuT.s:2028   .text:0000000000000a3c .L0 
       src/riscv.cpp:659    .text:0000000000000a3c .L0 
     /tmp/ccvbDvuT.s:2033   .text:0000000000000a40 .L0 
       src/riscv.cpp:662    .text:0000000000000a40 .L0 
     /tmp/ccvbDvuT.s:2038   .text:0000000000000a44 .L0 
       src/riscv.cpp:664    .text:0000000000000a44 .L0 
     /tmp/ccvbDvuT.s:2043   .text:0000000000000a48 .L0 
       src/riscv.cpp:666    .text:0000000000000a48 .L0 
     /tmp/ccvbDvuT.s:2048   .text:0000000000000a4c .L0 
       src/riscv.cpp:668    .text:0000000000000a4c .L0 
     /tmp/ccvbDvuT.s:2053   .text:0000000000000a50 .L0 
     /tmp/ccvbDvuT.s:2055   .text:0000000000000a50 .L0 
     /tmp/ccvbDvuT.s:2058   .text:0000000000000a58 .L0 
     /tmp/ccvbDvuT.s:2060   .text:0000000000000a5c .L0 
     /tmp/ccvbDvuT.s:2061   .text:0000000000000a5c .L0 
     /tmp/ccvbDvuT.s:2063   .text:0000000000000a60 .L0 
     /tmp/ccvbDvuT.s:2065   .text:0000000000000a64 .L0 
     /tmp/ccvbDvuT.s:2066   .text:0000000000000a64 .L0 
     /tmp/ccvbDvuT.s:2075   .text:0000000000000a70 .L0 
     /tmp/ccvbDvuT.s:2076   .text:0000000000000a70 .L0 
       src/riscv.cpp:682    .text:0000000000000a70 .L0 
     /tmp/ccvbDvuT.s:2082   .text:0000000000000a74 .L0 
     /tmp/ccvbDvuT.s:2084   .text:0000000000000a74 .L0 
     /tmp/ccvbDvuT.s:2087   .text:0000000000000a7c .L0 
     /tmp/ccvbDvuT.s:2088   .text:0000000000000a80 .L0 
     /tmp/ccvbDvuT.s:2089   .text:0000000000000a80 .L0 
     /tmp/ccvbDvuT.s:2091   .text:0000000000000a84 .L0 
     /tmp/ccvbDvuT.s:2092   .text:0000000000000a84 .L0 
     /tmp/ccvbDvuT.s:2094   .text:0000000000000a88 .L0 
     /tmp/ccvbDvuT.s:2097   .text:0000000000000a8c .L0 
     /tmp/ccvbDvuT.s:2099   .text:0000000000000a90 .L0 
     /tmp/ccvbDvuT.s:2103   .text:0000000000000a94 .L0 
     /tmp/ccvbDvuT.s:2106   .text:0000000000000a94 .L0 
     /tmp/ccvbDvuT.s:2115   .text:0000000000000aa0 .L0 
     /tmp/ccvbDvuT.s:2123   .text:0000000000000ab8 .L0 
     /tmp/ccvbDvuT.s:2152   .text:0000000000000ab8 _ZN5RiscV5getPCEv
     /tmp/ccvbDvuT.s:2155   .text:0000000000000ab8 .L0 
     /tmp/ccvbDvuT.s:2156   .text:0000000000000ab8 .L0 
GAS LISTING /tmp/ccvbDvuT.s 			page 99


     /tmp/ccvbDvuT.s:2157   .text:0000000000000abc .L0 
     /tmp/ccvbDvuT.s:2159   .text:0000000000000ac0 .L0 
     /tmp/ccvbDvuT.s:2161   .text:0000000000000ac4 .L0 
     /tmp/ccvbDvuT.s:2163   .text:0000000000000ac4 .L0 
     /tmp/ccvbDvuT.s:2164   .text:0000000000000ac4 .L0 
       src/riscv.cpp:691    .text:0000000000000ac4 .L0 
     /tmp/ccvbDvuT.s:2171   .text:0000000000000ac8 .L0 
     /tmp/ccvbDvuT.s:2173   .text:0000000000000ac8 .L0 
     /tmp/ccvbDvuT.s:2176   .text:0000000000000acc .L0 
     /tmp/ccvbDvuT.s:2179   .text:0000000000000ad8 .L0 
     /tmp/ccvbDvuT.s:2180   .text:0000000000000adc .L0 
     /tmp/ccvbDvuT.s:2181   .text:0000000000000adc .L0 
     /tmp/ccvbDvuT.s:2183   .text:0000000000000ae0 .L0 
     /tmp/ccvbDvuT.s:2185   .text:0000000000000ae4 .L0 
     /tmp/ccvbDvuT.s:2211   .text:0000000000000ae4 _ZN5RiscV20handleSupervisorTrapEv
     /tmp/ccvbDvuT.s:2214   .text:0000000000000ae4 .L0 
     /tmp/ccvbDvuT.s:2215   .text:0000000000000ae4 .L0 
     /tmp/ccvbDvuT.s:2216   .text:0000000000000ae8 .L0 
     /tmp/ccvbDvuT.s:2219   .text:0000000000000af0 .L0 
     /tmp/ccvbDvuT.s:2220   .text:0000000000000af0 .L0 
     /tmp/ccvbDvuT.s:2222   .text:0000000000000af4 .L0 
     /tmp/ccvbDvuT.s:2226   .text:0000000000000af4 .L0 
     /tmp/ccvbDvuT.s:2227   .text:0000000000000af4 .L0 
     /tmp/ccvbDvuT.s:2228   .text:0000000000000af4 .L0 
  src/../h/riscv.hpp:133    .text:0000000000000af4 .L0 
     /tmp/ccvbDvuT.s:2236   .text:0000000000000afc .L0 
     /tmp/ccvbDvuT.s:2237   .text:0000000000000afc .L0 
     /tmp/ccvbDvuT.s:2241   .text:0000000000000b00 .L0 
     /tmp/ccvbDvuT.s:2243   .text:0000000000000b04 .L0 
     /tmp/ccvbDvuT.s:2244   .text:0000000000000b04 .L0 
       src/riscv.cpp:40     .text:0000000000000b10 .L0 
     /tmp/ccvbDvuT.s:2255   .text:0000000000000b18 .L0 
     /tmp/ccvbDvuT.s:2256   .text:0000000000000b18 .L0 
     /tmp/ccvbDvuT.s:2258   .text:0000000000000b1c .L0 
     /tmp/ccvbDvuT.s:2261   .text:0000000000000b24 .L0 
     /tmp/ccvbDvuT.s:2263   .text:0000000000000b28 .L0 
     /tmp/ccvbDvuT.s:2269   .text:0000000000000b30 .L0 
     /tmp/ccvbDvuT.s:2270   .text:0000000000000b30 .L0 
     /tmp/ccvbDvuT.s:2272   .text:0000000000000b34 .L0 
     /tmp/ccvbDvuT.s:2282   .text:0000000000000b44 .L0 
     /tmp/ccvbDvuT.s:2283   .text:0000000000000b44 .L0 
     /tmp/ccvbDvuT.s:2285   .text:0000000000000b48 .L0 
     /tmp/ccvbDvuT.s:2297   .text:0000000000000b58 .L0 
     /tmp/ccvbDvuT.s:2298   .text:0000000000000b58 .L0 
     /tmp/ccvbDvuT.s:2300   .text:0000000000000b5c .L0 
     /tmp/ccvbDvuT.s:2304   .text:0000000000000b64 .L0 
     /tmp/ccvbDvuT.s:2305   .text:0000000000000b64 .L0 
     /tmp/ccvbDvuT.s:2309   .text:0000000000000b74 .L0 
     /tmp/ccvbDvuT.s:2310   .text:0000000000000b74 .L0 
     /tmp/ccvbDvuT.s:2316   .text:0000000000000b84 .L0 
     /tmp/ccvbDvuT.s:2317   .text:0000000000000b84 .L0 
     /tmp/ccvbDvuT.s:2318   .text:0000000000000b84 .L0 
  src/../h/riscv.hpp:133    .text:0000000000000b84 .L0 
     /tmp/ccvbDvuT.s:2326   .text:0000000000000b8c .L0 
     /tmp/ccvbDvuT.s:2327   .text:0000000000000b8c .L0 
     /tmp/ccvbDvuT.s:2332   .text:0000000000000b90 .L0 
     /tmp/ccvbDvuT.s:2333   .text:0000000000000b90 .L0 
GAS LISTING /tmp/ccvbDvuT.s 			page 100


     /tmp/ccvbDvuT.s:2340   .text:0000000000000ba4 .L0 
     /tmp/ccvbDvuT.s:2341   .text:0000000000000ba4 .L0 
     /tmp/ccvbDvuT.s:2347   .text:0000000000000bb4 .L0 
     /tmp/ccvbDvuT.s:2348   .text:0000000000000bb4 .L0 
     /tmp/ccvbDvuT.s:2349   .text:0000000000000bb4 .L0 
  src/../h/riscv.hpp:143    .text:0000000000000bb4 .L0 
     /tmp/ccvbDvuT.s:2358   .text:0000000000000bb8 .L0 
     /tmp/ccvbDvuT.s:2359   .text:0000000000000bb8 .L0 
     /tmp/ccvbDvuT.s:2360   .text:0000000000000bb8 .L0 
     /tmp/ccvbDvuT.s:2366   .text:0000000000000bcc .L0 
     /tmp/ccvbDvuT.s:2367   .text:0000000000000bcc .L0 
     /tmp/ccvbDvuT.s:2371   .text:0000000000000bdc .L0 
     /tmp/ccvbDvuT.s:2372   .text:0000000000000bdc .L0 
     /tmp/ccvbDvuT.s:2376   .text:0000000000000be8 .L0 
     /tmp/ccvbDvuT.s:2377   .text:0000000000000be8 .L0 
     /tmp/ccvbDvuT.s:2380   .text:0000000000000bf0 .L0 
     /tmp/ccvbDvuT.s:2381   .text:0000000000000bf0 .L0 
     /tmp/ccvbDvuT.s:2385   .text:0000000000000c00 .L0 
     /tmp/ccvbDvuT.s:2386   .text:0000000000000c00 .L0 
     /tmp/ccvbDvuT.s:2398   .text:0000000000000c0c .L0 
     /tmp/ccvbDvuT.s:2399   .text:0000000000000c0c .L0 
     /tmp/ccvbDvuT.s:2400   .text:0000000000000c0c .L0 
  src/../h/riscv.hpp:163    .text:0000000000000c0c .L0 
     /tmp/ccvbDvuT.s:2410   .text:0000000000000c10 .L0 
     /tmp/ccvbDvuT.s:2411   .text:0000000000000c10 .L0 
     /tmp/ccvbDvuT.s:2415   .text:0000000000000c14 .L0 
     /tmp/ccvbDvuT.s:2416   .text:0000000000000c14 .L0 
     /tmp/ccvbDvuT.s:2417   .text:0000000000000c14 .L0 
  src/../h/riscv.hpp:143    .text:0000000000000c14 .L0 
     /tmp/ccvbDvuT.s:2427   .text:0000000000000c18 .L0 
     /tmp/ccvbDvuT.s:2428   .text:0000000000000c18 .L0 
     /tmp/ccvbDvuT.s:2430   .text:0000000000000c1c .L0 
     /tmp/ccvbDvuT.s:2432   .text:0000000000000c20 .L0 
     /tmp/ccvbDvuT.s:2433   .text:0000000000000c20 .L0 
     /tmp/ccvbDvuT.s:2436   .text:0000000000000c2c .L0 
     /tmp/ccvbDvuT.s:2439   .text:0000000000000c34 .L0 
     /tmp/ccvbDvuT.s:2440   .text:0000000000000c34 .L0 
     /tmp/ccvbDvuT.s:2443   .text:0000000000000c3c .L0 
     /tmp/ccvbDvuT.s:2444   .text:0000000000000c3c .L0 
       src/riscv.cpp:54     .text:0000000000000c3c .L0 
     /tmp/ccvbDvuT.s:2452   .text:0000000000000c40 .L0 
     /tmp/ccvbDvuT.s:2566   .text:0000000000000c64 .L0 
     /tmp/ccvbDvuT.s:2567   .text:0000000000000c64 .L0 
     /tmp/ccvbDvuT.s:2568   .text:0000000000000c64 .L0 
     /tmp/ccvbDvuT.s:2572   .text:0000000000000c6c .L0 
     /tmp/ccvbDvuT.s:2573   .text:0000000000000c6c .L0 
     /tmp/ccvbDvuT.s:2574   .text:0000000000000c6c .L0 
     /tmp/ccvbDvuT.s:2581   .text:0000000000000c7c .L0 
  src/../h/riscv.hpp:158    .text:0000000000000c7c .L0 
     /tmp/ccvbDvuT.s:2591   .text:0000000000000c80 .L0 
     /tmp/ccvbDvuT.s:2592   .text:0000000000000c80 .L0 
     /tmp/ccvbDvuT.s:2597   .text:0000000000000c84 .L0 
  src/../h/riscv.hpp:148    .text:0000000000000c84 .L0 
     /tmp/ccvbDvuT.s:2610   .text:0000000000000c88 .L0 
     /tmp/ccvbDvuT.s:2611   .text:0000000000000c88 .L0 
     /tmp/ccvbDvuT.s:2614   .text:0000000000000c90 .L0 
     /tmp/ccvbDvuT.s:2615   .text:0000000000000c94 .L0 
GAS LISTING /tmp/ccvbDvuT.s 			page 101


     /tmp/ccvbDvuT.s:2616   .text:0000000000000c94 .L0 
     /tmp/ccvbDvuT.s:2618   .text:0000000000000c98 .L0 
     /tmp/ccvbDvuT.s:2619   .text:0000000000000c98 .L0 
     /tmp/ccvbDvuT.s:2621   .text:0000000000000c9c .L0 
     /tmp/ccvbDvuT.s:2624   .text:0000000000000ca0 .L0 
     /tmp/ccvbDvuT.s:2628   .text:0000000000000ca0 .L0 
     /tmp/ccvbDvuT.s:2629   .text:0000000000000ca0 .L0 
     /tmp/ccvbDvuT.s:2630   .text:0000000000000ca0 .L0 
     /tmp/ccvbDvuT.s:2633   .text:0000000000000ca8 .L0 
     /tmp/ccvbDvuT.s:2636   .text:0000000000000cac .L0 
     /tmp/ccvbDvuT.s:2637   .text:0000000000000cac .L0 
     /tmp/ccvbDvuT.s:2638   .text:0000000000000cac .L0 
     /tmp/ccvbDvuT.s:2641   .text:0000000000000cb4 .L0 
     /tmp/ccvbDvuT.s:2644   .text:0000000000000cb8 .L0 
     /tmp/ccvbDvuT.s:2645   .text:0000000000000cb8 .L0 
     /tmp/ccvbDvuT.s:2646   .text:0000000000000cb8 .L0 
     /tmp/ccvbDvuT.s:2649   .text:0000000000000cc0 .L0 
     /tmp/ccvbDvuT.s:2652   .text:0000000000000cc4 .L0 
     /tmp/ccvbDvuT.s:2653   .text:0000000000000cc4 .L0 
     /tmp/ccvbDvuT.s:2654   .text:0000000000000cc4 .L0 
     /tmp/ccvbDvuT.s:2657   .text:0000000000000ccc .L0 
     /tmp/ccvbDvuT.s:2660   .text:0000000000000cd0 .L0 
     /tmp/ccvbDvuT.s:2661   .text:0000000000000cd0 .L0 
     /tmp/ccvbDvuT.s:2662   .text:0000000000000cd0 .L0 
     /tmp/ccvbDvuT.s:2665   .text:0000000000000cd8 .L0 
     /tmp/ccvbDvuT.s:2668   .text:0000000000000cdc .L0 
     /tmp/ccvbDvuT.s:2669   .text:0000000000000cdc .L0 
     /tmp/ccvbDvuT.s:2670   .text:0000000000000cdc .L0 
     /tmp/ccvbDvuT.s:2673   .text:0000000000000ce4 .L0 
     /tmp/ccvbDvuT.s:2676   .text:0000000000000ce8 .L0 
     /tmp/ccvbDvuT.s:2677   .text:0000000000000ce8 .L0 
     /tmp/ccvbDvuT.s:2678   .text:0000000000000ce8 .L0 
     /tmp/ccvbDvuT.s:2681   .text:0000000000000cf0 .L0 
     /tmp/ccvbDvuT.s:2684   .text:0000000000000cf4 .L0 
     /tmp/ccvbDvuT.s:2685   .text:0000000000000cf4 .L0 
     /tmp/ccvbDvuT.s:2686   .text:0000000000000cf4 .L0 
     /tmp/ccvbDvuT.s:2689   .text:0000000000000cfc .L0 
     /tmp/ccvbDvuT.s:2692   .text:0000000000000d00 .L0 
     /tmp/ccvbDvuT.s:2693   .text:0000000000000d00 .L0 
     /tmp/ccvbDvuT.s:2694   .text:0000000000000d00 .L0 
     /tmp/ccvbDvuT.s:2697   .text:0000000000000d08 .L0 
     /tmp/ccvbDvuT.s:2700   .text:0000000000000d0c .L0 
     /tmp/ccvbDvuT.s:2701   .text:0000000000000d0c .L0 
     /tmp/ccvbDvuT.s:2702   .text:0000000000000d0c .L0 
     /tmp/ccvbDvuT.s:2705   .text:0000000000000d14 .L0 
     /tmp/ccvbDvuT.s:2708   .text:0000000000000d18 .L0 
     /tmp/ccvbDvuT.s:2709   .text:0000000000000d18 .L0 
     /tmp/ccvbDvuT.s:2710   .text:0000000000000d18 .L0 
     /tmp/ccvbDvuT.s:2713   .text:0000000000000d20 .L0 
     /tmp/ccvbDvuT.s:2716   .text:0000000000000d24 .L0 
     /tmp/ccvbDvuT.s:2717   .text:0000000000000d24 .L0 
     /tmp/ccvbDvuT.s:2718   .text:0000000000000d24 .L0 
     /tmp/ccvbDvuT.s:2721   .text:0000000000000d2c .L0 
     /tmp/ccvbDvuT.s:2724   .text:0000000000000d30 .L0 
     /tmp/ccvbDvuT.s:2725   .text:0000000000000d30 .L0 
     /tmp/ccvbDvuT.s:2726   .text:0000000000000d30 .L0 
     /tmp/ccvbDvuT.s:2729   .text:0000000000000d38 .L0 
GAS LISTING /tmp/ccvbDvuT.s 			page 102


     /tmp/ccvbDvuT.s:2732   .text:0000000000000d3c .L0 
     /tmp/ccvbDvuT.s:2733   .text:0000000000000d3c .L0 
     /tmp/ccvbDvuT.s:2734   .text:0000000000000d3c .L0 
     /tmp/ccvbDvuT.s:2737   .text:0000000000000d44 .L0 
     /tmp/ccvbDvuT.s:2740   .text:0000000000000d48 .L0 
     /tmp/ccvbDvuT.s:2741   .text:0000000000000d48 .L0 
     /tmp/ccvbDvuT.s:2742   .text:0000000000000d48 .L0 
     /tmp/ccvbDvuT.s:2745   .text:0000000000000d50 .L0 
     /tmp/ccvbDvuT.s:2748   .text:0000000000000d54 .L0 
     /tmp/ccvbDvuT.s:2749   .text:0000000000000d54 .L0 
     /tmp/ccvbDvuT.s:2750   .text:0000000000000d54 .L0 
     /tmp/ccvbDvuT.s:2753   .text:0000000000000d5c .L0 
     /tmp/ccvbDvuT.s:2756   .text:0000000000000d60 .L0 
     /tmp/ccvbDvuT.s:2757   .text:0000000000000d60 .L0 
       src/riscv.cpp:77     .text:0000000000000d60 .L0 
     /tmp/ccvbDvuT.s:2766   .text:0000000000000d70 .L0 
     /tmp/ccvbDvuT.s:2767   .text:0000000000000d70 .L0 
     /tmp/ccvbDvuT.s:2770   .text:0000000000000d78 .L0 
     /tmp/ccvbDvuT.s:2771   .text:0000000000000d78 .L0 
     /tmp/ccvbDvuT.s:2774   .text:0000000000000d80 .L0 
     /tmp/ccvbDvuT.s:2782   .text:0000000000000d84 .L0 
     /tmp/ccvbDvuT.s:2783   .text:0000000000000d84 .L0 
     /tmp/ccvbDvuT.s:2784   .text:0000000000000d84 .L0 
  src/../h/riscv.hpp:163    .text:0000000000000d84 .L0 
     /tmp/ccvbDvuT.s:2794   .text:0000000000000d88 .L0 
     /tmp/ccvbDvuT.s:2795   .text:0000000000000d88 .L0 
     /tmp/ccvbDvuT.s:2799   .text:0000000000000d8c .L0 
     /tmp/ccvbDvuT.s:2800   .text:0000000000000d8c .L0 
     /tmp/ccvbDvuT.s:2801   .text:0000000000000d8c .L0 
  src/../h/riscv.hpp:143    .text:0000000000000d8c .L0 
     /tmp/ccvbDvuT.s:2811   .text:0000000000000d90 .L0 
     /tmp/ccvbDvuT.s:2812   .text:0000000000000d90 .L0 
     /tmp/ccvbDvuT.s:2817   .text:0000000000000d94 .L0 
     /tmp/ccvbDvuT.s:2818   .text:0000000000000d94 .L0 
     /tmp/ccvbDvuT.s:2819   .text:0000000000000d94 .L0 
     /tmp/ccvbDvuT.s:2829   .text:0000000000000d9c .L0 
     /tmp/ccvbDvuT.s:2830   .text:0000000000000d9c .L0 
     /tmp/ccvbDvuT.s:2835   .text:0000000000000db0 .L0 
     /tmp/ccvbDvuT.s:2836   .text:0000000000000db0 .L0 
     /tmp/ccvbDvuT.s:2839   .text:0000000000000db8 .L0 
     /tmp/ccvbDvuT.s:2840   .text:0000000000000db8 .L0 
     /tmp/ccvbDvuT.s:2846   .text:0000000000000dcc .L0 
     /tmp/ccvbDvuT.s:2847   .text:0000000000000dcc .L0 
     /tmp/ccvbDvuT.s:2851   .text:0000000000000ddc .L0 
     /tmp/ccvbDvuT.s:2855   .text:0000000000000de0 .L0 
     /tmp/ccvbDvuT.s:2856   .text:0000000000000de0 .L0 
     /tmp/ccvbDvuT.s:2861   .text:0000000000000de4 .L0 
  src/../h/riscv.hpp:158    .text:0000000000000de4 .L0 
     /tmp/ccvbDvuT.s:2871   .text:0000000000000de8 .L0 
     /tmp/ccvbDvuT.s:2872   .text:0000000000000de8 .L0 
     /tmp/ccvbDvuT.s:2877   .text:0000000000000dec .L0 
  src/../h/riscv.hpp:148    .text:0000000000000dec .L0 
     /tmp/ccvbDvuT.s:2884   .text:0000000000000df0 .L0 
     /tmp/ccvbDvuT.s:2892   .text:0000000000000df4 .L0 
     /tmp/ccvbDvuT.s:2893   .text:0000000000000df4 .L0 
     /tmp/ccvbDvuT.s:2897   .text:0000000000000e00 .L0 
     /tmp/ccvbDvuT.s:2898   .text:0000000000000e00 .L0 
GAS LISTING /tmp/ccvbDvuT.s 			page 103


     /tmp/ccvbDvuT.s:2899   .text:0000000000000e00 .L0 
     /tmp/ccvbDvuT.s:2902   .text:0000000000000e08 .L0 
     /tmp/ccvbDvuT.s:2903   .text:0000000000000e08 .L0 
     /tmp/ccvbDvuT.s:2915   .text:0000000000000e14 .L0 
     /tmp/ccvbDvuT.s:2916   .text:0000000000000e14 .L0 
     /tmp/ccvbDvuT.s:2917   .text:0000000000000e14 .L0 
  src/../h/riscv.hpp:163    .text:0000000000000e14 .L0 
     /tmp/ccvbDvuT.s:2927   .text:0000000000000e18 .L0 
     /tmp/ccvbDvuT.s:2928   .text:0000000000000e18 .L0 
     /tmp/ccvbDvuT.s:2932   .text:0000000000000e1c .L0 
     /tmp/ccvbDvuT.s:2933   .text:0000000000000e1c .L0 
     /tmp/ccvbDvuT.s:2934   .text:0000000000000e1c .L0 
  src/../h/riscv.hpp:143    .text:0000000000000e1c .L0 
     /tmp/ccvbDvuT.s:2944   .text:0000000000000e20 .L0 
     /tmp/ccvbDvuT.s:2945   .text:0000000000000e20 .L0 
     /tmp/ccvbDvuT.s:2947   .text:0000000000000e24 .L0 
     /tmp/ccvbDvuT.s:2948   .text:0000000000000e24 .L0 
     /tmp/ccvbDvuT.s:2952   .text:0000000000000e30 .L0 
       src/riscv.cpp:132    .text:0000000000000e30 .L0 
     /tmp/ccvbDvuT.s:2958   .text:0000000000000e34 .L0 
       src/riscv.cpp:133    .text:0000000000000e34 .L0 
     /tmp/ccvbDvuT.s:2963   .text:0000000000000e38 .L0 
       src/riscv.cpp:134    .text:0000000000000e38 .L0 
     /tmp/ccvbDvuT.s:2971   .text:0000000000000e3c .L0 
     /tmp/ccvbDvuT.s:2972   .text:0000000000000e3c .L0 
     /tmp/ccvbDvuT.s:2975   .text:0000000000000e40 .L0 
     /tmp/ccvbDvuT.s:2978   .text:0000000000000e44 .L0 
     /tmp/ccvbDvuT.s:2979   .text:0000000000000e44 .L0 
     /tmp/ccvbDvuT.s:2980   .text:0000000000000e44 .L0 
     /tmp/ccvbDvuT.s:2981   .text:0000000000000e44 .L0 
     /tmp/ccvbDvuT.s:2985   .text:0000000000000e50 .L0 
       src/riscv.cpp:143    .text:0000000000000e50 .L0 
     /tmp/ccvbDvuT.s:2991   .text:0000000000000e54 .L0 
       src/riscv.cpp:144    .text:0000000000000e54 .L0 
     /tmp/ccvbDvuT.s:2996   .text:0000000000000e58 .L0 
       src/riscv.cpp:145    .text:0000000000000e58 .L0 
     /tmp/ccvbDvuT.s:3004   .text:0000000000000e60 .L0 
     /tmp/ccvbDvuT.s:3005   .text:0000000000000e60 .L0 
     /tmp/ccvbDvuT.s:3009   .text:0000000000000e6c .L0 
     /tmp/ccvbDvuT.s:3015   .text:0000000000000e70 .L0 
     /tmp/ccvbDvuT.s:3016   .text:0000000000000e70 .L0 
     /tmp/ccvbDvuT.s:3021   .text:0000000000000e80 .L0 
     /tmp/ccvbDvuT.s:3022   .text:0000000000000e80 .L0 
     /tmp/ccvbDvuT.s:3027   .text:0000000000000e84 .L0 
  src/../h/riscv.hpp:158    .text:0000000000000e84 .L0 
     /tmp/ccvbDvuT.s:3037   .text:0000000000000e88 .L0 
     /tmp/ccvbDvuT.s:3038   .text:0000000000000e88 .L0 
     /tmp/ccvbDvuT.s:3043   .text:0000000000000e8c .L0 
  src/../h/riscv.hpp:148    .text:0000000000000e8c .L0 
     /tmp/ccvbDvuT.s:3050   .text:0000000000000e90 .L0 
     /tmp/ccvbDvuT.s:3058   .text:0000000000000e94 .L0 
     /tmp/ccvbDvuT.s:3059   .text:0000000000000e94 .L0 
     /tmp/ccvbDvuT.s:3063   .text:0000000000000ea4 .L0 
     /tmp/ccvbDvuT.s:3064   .text:0000000000000ea4 .L0 
     /tmp/ccvbDvuT.s:3075   .text:0000000000000eb0 .L0 
     /tmp/ccvbDvuT.s:3076   .text:0000000000000eb0 .L0 
     /tmp/ccvbDvuT.s:3080   .text:0000000000000ebc .L0 
GAS LISTING /tmp/ccvbDvuT.s 			page 104


     /tmp/ccvbDvuT.s:3081   .text:0000000000000ebc .L0 
     /tmp/ccvbDvuT.s:3084   .text:0000000000000ec4 .L0 
     /tmp/ccvbDvuT.s:3085   .text:0000000000000ec4 .L0 
     /tmp/ccvbDvuT.s:3091   .text:0000000000000ed4 .L0 
     /tmp/ccvbDvuT.s:3092   .text:0000000000000ed4 .L0 
     /tmp/ccvbDvuT.s:3093   .text:0000000000000ed4 .L0 
  src/../h/riscv.hpp:143    .text:0000000000000ed4 .L0 
     /tmp/ccvbDvuT.s:3102   .text:0000000000000ed8 .L0 
     /tmp/ccvbDvuT.s:3103   .text:0000000000000ed8 .L0 
     /tmp/ccvbDvuT.s:3104   .text:0000000000000ed8 .L0 
     /tmp/ccvbDvuT.s:3110   .text:0000000000000eec .L0 
     /tmp/ccvbDvuT.s:3111   .text:0000000000000eec .L0 
     /tmp/ccvbDvuT.s:3115   .text:0000000000000efc .L0 
     /tmp/ccvbDvuT.s:3116   .text:0000000000000efc .L0 
     /tmp/ccvbDvuT.s:3120   .text:0000000000000f0c .L0 
     /tmp/ccvbDvuT.s:3121   .text:0000000000000f0c .L0 
     /tmp/ccvbDvuT.s:3129   .text:0000000000000f18 .L0 
     /tmp/ccvbDvuT.s:3139   .bss:0000000000000000 _ZN5RiscV16userMainFinishedE
     /tmp/ccvbDvuT.s:3144   .bss:0000000000000008 _ZN5RiscV10globalTimeE
     /tmp/ccvbDvuT.s:3136   .bss:0000000000000000 .LANCHOR0
     /tmp/ccvbDvuT.s:3156   .text:0000000000000f18 .L0 
     /tmp/ccvbDvuT.s:24     .text:0000000000000010 .L0 
     /tmp/ccvbDvuT.s:57     .text:000000000000003c .L0 
     /tmp/ccvbDvuT.s:178    .text:00000000000000b4 .L0 
     /tmp/ccvbDvuT.s:218    .text:00000000000000f0 .L0 
     /tmp/ccvbDvuT.s:223    .text:00000000000000fc .L0 
     /tmp/ccvbDvuT.s:286    .text:000000000000014c .L0 
     /tmp/ccvbDvuT.s:323    .text:0000000000000178 .L0 
     /tmp/ccvbDvuT.s:350    .text:0000000000000194 .L0 
     /tmp/ccvbDvuT.s:357    .text:00000000000001a8 .L0 
     /tmp/ccvbDvuT.s:381    .text:00000000000001c4 .L0 
     /tmp/ccvbDvuT.s:450    .text:0000000000000210 .L0 
     /tmp/ccvbDvuT.s:453    .text:0000000000000218 .L0 
     /tmp/ccvbDvuT.s:457    .text:0000000000000224 .L0 
     /tmp/ccvbDvuT.s:510    .text:0000000000000240 .L0 
     /tmp/ccvbDvuT.s:517    .text:0000000000000254 .L0 
     /tmp/ccvbDvuT.s:524    .text:0000000000000264 .L0 
     /tmp/ccvbDvuT.s:531    .text:0000000000000278 .L0 
     /tmp/ccvbDvuT.s:533    .text:0000000000000284 .L0 
     /tmp/ccvbDvuT.s:578    .text:00000000000002c0 .L0 
     /tmp/ccvbDvuT.s:675    .text:0000000000000330 .L0 
     /tmp/ccvbDvuT.s:1144   .text:000000000000056c .L0 
     /tmp/ccvbDvuT.s:1432   .text:00000000000006c4 .L0 
     /tmp/ccvbDvuT.s:1570   .text:000000000000076c .L0 
     /tmp/ccvbDvuT.s:1575   .text:0000000000000778 .L0 
     /tmp/ccvbDvuT.s:1642   .text:00000000000007e0 .L0 
     /tmp/ccvbDvuT.s:1647   .text:00000000000007ec .L0 
     /tmp/ccvbDvuT.s:1943   .text:0000000000000990 .L0 
     /tmp/ccvbDvuT.s:1973   .text:00000000000009dc .L0 
     /tmp/ccvbDvuT.s:1978   .text:00000000000009ec .L0 
     /tmp/ccvbDvuT.s:1983   .text:00000000000009fc .L0 
     /tmp/ccvbDvuT.s:2176   .text:0000000000000acc .L0 
     /tmp/ccvbDvuT.s:2244   .text:0000000000000b04 .L0 
     /tmp/ccvbDvuT.s:2199   .rodata.str1.8:0000000000000038 .LC3
     /tmp/ccvbDvuT.s:2305   .text:0000000000000b64 .L0 
     /tmp/ccvbDvuT.s:2202   .rodata.str1.8:0000000000000048 .LC4
     /tmp/ccvbDvuT.s:2310   .text:0000000000000b74 .L0 
GAS LISTING /tmp/ccvbDvuT.s 			page 105


     /tmp/ccvbDvuT.s:2190   .rodata.str1.8:0000000000000000 .LC0
     /tmp/ccvbDvuT.s:2341   .text:0000000000000ba4 .L0 
     /tmp/ccvbDvuT.s:2193   .rodata.str1.8:0000000000000008 .LC1
     /tmp/ccvbDvuT.s:2367   .text:0000000000000bcc .L0 
     /tmp/ccvbDvuT.s:2372   .text:0000000000000bdc .L0 
     /tmp/ccvbDvuT.s:2205   .rodata.str1.8:0000000000000058 .LC5
     /tmp/ccvbDvuT.s:2381   .text:0000000000000bf0 .L0 
     /tmp/ccvbDvuT.s:2433   .text:0000000000000c20 .L0 
     /tmp/ccvbDvuT.s:2464   .rodata:0000000000000000 .L117
     /tmp/ccvbDvuT.s:2456   .text:0000000000000c4c .L0 
     /tmp/ccvbDvuT.s:2574   .text:0000000000000c6c .L0 
     /tmp/ccvbDvuT.s:2763   .text:0000000000000d64 .L0 
     /tmp/ccvbDvuT.s:2830   .text:0000000000000d9c .L0 
     /tmp/ccvbDvuT.s:2840   .text:0000000000000db8 .L0 
     /tmp/ccvbDvuT.s:2847   .text:0000000000000dcc .L0 
     /tmp/ccvbDvuT.s:2893   .text:0000000000000df4 .L0 
     /tmp/ccvbDvuT.s:2948   .text:0000000000000e24 .L0 
     /tmp/ccvbDvuT.s:2981   .text:0000000000000e44 .L0 
     /tmp/ccvbDvuT.s:3005   .text:0000000000000e60 .L0 
     /tmp/ccvbDvuT.s:3060   .text:0000000000000e98 .L0 
     /tmp/ccvbDvuT.s:3076   .text:0000000000000eb0 .L0 
     /tmp/ccvbDvuT.s:3085   .text:0000000000000ec4 .L0 
     /tmp/ccvbDvuT.s:3111   .text:0000000000000eec .L0 
     /tmp/ccvbDvuT.s:2196   .rodata.str1.8:0000000000000010 .LC2
     /tmp/ccvbDvuT.s:3116   .text:0000000000000efc .L0 
     /tmp/ccvbDvuT.s:227    .text:0000000000000110 .L8
     /tmp/ccvbDvuT.s:279    .text:000000000000014c .L11
     /tmp/ccvbDvuT.s:272    .text:0000000000000144 .L12
     /tmp/ccvbDvuT.s:411    .text:00000000000001f0 .L19
     /tmp/ccvbDvuT.s:400    .text:00000000000001e4 .L15
     /tmp/ccvbDvuT.s:521    .text:0000000000000264 .L21
     /tmp/ccvbDvuT.s:502    .text:0000000000000240 .L22
     /tmp/ccvbDvuT.s:542    .text:00000000000002a0 .L20
     /tmp/ccvbDvuT.s:528    .text:0000000000000278 .L24
     /tmp/ccvbDvuT.s:703    .text:0000000000000360 .L34
     /tmp/ccvbDvuT.s:680    .text:0000000000000344 .L31
     /tmp/ccvbDvuT.s:846    .text:000000000000041c .L39
     /tmp/ccvbDvuT.s:804    .text:00000000000003e4 .L37
     /tmp/ccvbDvuT.s:810    .text:00000000000003ec .L36
     /tmp/ccvbDvuT.s:1011   .text:00000000000004e0 .L46
     /tmp/ccvbDvuT.s:973    .text:00000000000004b0 .L44
     /tmp/ccvbDvuT.s:1104   .text:000000000000053c .L54
     /tmp/ccvbDvuT.s:1081   .text:0000000000000520 .L51
     /tmp/ccvbDvuT.s:1187   .text:00000000000005ac .L57
     /tmp/ccvbDvuT.s:1163   .text:0000000000000590 .L56
     /tmp/ccvbDvuT.s:1287   .text:0000000000000628 .L62
     /tmp/ccvbDvuT.s:1255   .text:0000000000000600 .L60
     /tmp/ccvbDvuT.s:1385   .text:000000000000068c .L70
     /tmp/ccvbDvuT.s:1358   .text:000000000000066c .L67
     /tmp/ccvbDvuT.s:1463   .text:00000000000006f8 .L76
     /tmp/ccvbDvuT.s:1471   .text:0000000000000704 .L74
     /tmp/ccvbDvuT.s:1429   .text:00000000000006c4 .L72
     /tmp/ccvbDvuT.s:1439   .text:00000000000006dc .L73
     /tmp/ccvbDvuT.s:1531   .text:0000000000000744 .L81
     /tmp/ccvbDvuT.s:1508   .text:0000000000000728 .L78
     /tmp/ccvbDvuT.s:1651   .text:0000000000000800 .L85
     /tmp/ccvbDvuT.s:1690   .text:000000000000083c .L89
GAS LISTING /tmp/ccvbDvuT.s 			page 106


     /tmp/ccvbDvuT.s:1705   .text:0000000000000858 .L90
     /tmp/ccvbDvuT.s:1665   .text:000000000000081c .L87
     /tmp/ccvbDvuT.s:1819   .text:00000000000008e0 .L97
     /tmp/ccvbDvuT.s:1789   .text:00000000000008bc .L94
     /tmp/ccvbDvuT.s:1898   .text:000000000000094c .L101
     /tmp/ccvbDvuT.s:1870   .text:0000000000000928 .L99
     /tmp/ccvbDvuT.s:2102   .text:0000000000000a94 .L105
     /tmp/ccvbDvuT.s:2072   .text:0000000000000a70 .L103
     /tmp/ccvbDvuT.s:2389   .text:0000000000000c0c .L112
     /tmp/ccvbDvuT.s:2775   .text:0000000000000d84 .L142
     /tmp/ccvbDvuT.s:2907   .text:0000000000000e14 .L143
     /tmp/ccvbDvuT.s:3068   .text:0000000000000eb0 .L144
     /tmp/ccvbDvuT.s:2604   .text:0000000000000c88 .L135
     /tmp/ccvbDvuT.s:2571   .text:0000000000000c6c .L115
     /tmp/ccvbDvuT.s:2886   .text:0000000000000df4 .L145
     /tmp/ccvbDvuT.s:2852   .text:0000000000000de0 .L136
     /tmp/ccvbDvuT.s:3011   .text:0000000000000e70 .L138
     /tmp/ccvbDvuT.s:3052   .text:0000000000000e94 .L146
     /tmp/ccvbDvuT.s:776    .text:00000000000003a8 .LEHB0
     /tmp/ccvbDvuT.s:726    .text:0000000000000370 .LFB42
     /tmp/ccvbDvuT.s:779    .text:00000000000003b0 .LEHE0
     /tmp/ccvbDvuT.s:785    .text:00000000000003c4 .LEHB1
     /tmp/ccvbDvuT.s:788    .text:00000000000003cc .LEHE1
     /tmp/ccvbDvuT.s:852    .text:0000000000000424 .L40
     /tmp/ccvbDvuT.s:800    .text:00000000000003dc .LEHB2
     /tmp/ccvbDvuT.s:803    .text:00000000000003e4 .LEHE2
     /tmp/ccvbDvuT.s:859    .text:0000000000000438 .LEHB3
     /tmp/ccvbDvuT.s:862    .text:0000000000000440 .LEHE3
     /tmp/ccvbDvuT.s:946    .text:0000000000000478 .LEHB4
     /tmp/ccvbDvuT.s:894    .text:0000000000000440 .LFB43
     /tmp/ccvbDvuT.s:949    .text:0000000000000480 .LEHE4
     /tmp/ccvbDvuT.s:955    .text:0000000000000494 .LEHB5
     /tmp/ccvbDvuT.s:958    .text:000000000000049c .LEHE5
     /tmp/ccvbDvuT.s:1017   .text:00000000000004e8 .L47
     /tmp/ccvbDvuT.s:1024   .text:00000000000004fc .LEHB6
     /tmp/ccvbDvuT.s:1027   .text:0000000000000504 .LEHE6
     /tmp/ccvbDvuT.s:1237   .text:00000000000005dc .LEHB7
     /tmp/ccvbDvuT.s:1201   .text:00000000000005b4 .LFB47
     /tmp/ccvbDvuT.s:1240   .text:00000000000005e4 .LEHE7
     /tmp/ccvbDvuT.s:1243   .text:00000000000005ec .LEHB8
     /tmp/ccvbDvuT.s:1246   .text:00000000000005f4 .LEHE8
     /tmp/ccvbDvuT.s:1293   .text:0000000000000630 .L63
     /tmp/ccvbDvuT.s:1300   .text:0000000000000644 .LEHB9
     /tmp/ccvbDvuT.s:1303   .text:000000000000064c .LEHE9
     /tmp/ccvbDvuT.s:1936   .text:0000000000000984 .LEHB10
     /tmp/ccvbDvuT.s:1916   .text:0000000000000968 .LFB61
     /tmp/ccvbDvuT.s:1956   .text:00000000000009bc .LEHE10
     /tmp/ccvbDvuT.s:1962   .text:00000000000009d0 .LEHB11
     /tmp/ccvbDvuT.s:1965   .text:00000000000009d8 .LEHE11
     /tmp/ccvbDvuT.s:2110   .text:0000000000000a9c .L106
     /tmp/ccvbDvuT.s:2067   .text:0000000000000a68 .LEHB12
     /tmp/ccvbDvuT.s:2070   .text:0000000000000a70 .LEHE12
     /tmp/ccvbDvuT.s:2119   .text:0000000000000ab0 .LEHB13
     /tmp/ccvbDvuT.s:2122   .text:0000000000000ab8 .LEHE13
     /tmp/ccvbDvuT.s:2564   .text:0000000000000c64 .L134
     /tmp/ccvbDvuT.s:2623   .text:0000000000000ca0 .L133
     /tmp/ccvbDvuT.s:2634   .text:0000000000000cac .L132
GAS LISTING /tmp/ccvbDvuT.s 			page 107


     /tmp/ccvbDvuT.s:2642   .text:0000000000000cb8 .L131
     /tmp/ccvbDvuT.s:2650   .text:0000000000000cc4 .L130
     /tmp/ccvbDvuT.s:2658   .text:0000000000000cd0 .L129
     /tmp/ccvbDvuT.s:2666   .text:0000000000000cdc .L128
     /tmp/ccvbDvuT.s:2674   .text:0000000000000ce8 .L127
     /tmp/ccvbDvuT.s:2682   .text:0000000000000cf4 .L126
     /tmp/ccvbDvuT.s:2690   .text:0000000000000d00 .L125
     /tmp/ccvbDvuT.s:2698   .text:0000000000000d0c .L124
     /tmp/ccvbDvuT.s:2706   .text:0000000000000d18 .L123
     /tmp/ccvbDvuT.s:2714   .text:0000000000000d24 .L122
     /tmp/ccvbDvuT.s:2722   .text:0000000000000d30 .L121
     /tmp/ccvbDvuT.s:2730   .text:0000000000000d3c .L120
     /tmp/ccvbDvuT.s:2738   .text:0000000000000d48 .L119
     /tmp/ccvbDvuT.s:2746   .text:0000000000000d54 .L118
     /tmp/ccvbDvuT.s:2754   .text:0000000000000d60 .L116
     /tmp/ccvbDvuT.s:6946   .debug_abbrev:0000000000000000 .Ldebug_abbrev0
     /tmp/ccvbDvuT.s:9463   .debug_str:0000000000001066 .LASF303
     /tmp/ccvbDvuT.s:9555   .debug_str:00000000000013ed .LASF304
     /tmp/ccvbDvuT.s:9021   .debug_str:0000000000000156 .LASF305
     /tmp/ccvbDvuT.s:5      .text:0000000000000000 .Ltext0
     /tmp/ccvbDvuT.s:3147   .text:0000000000000f18 .Letext0
     /tmp/ccvbDvuT.s:8977   .debug_line:0000000000000000 .Ldebug_line0
     /tmp/ccvbDvuT.s:9179   .debug_str:00000000000006b7 .LASF0
     /tmp/ccvbDvuT.s:9219   .debug_str:000000000000082b .LASF1
     /tmp/ccvbDvuT.s:9373   .debug_str:0000000000000da2 .LASF2
     /tmp/ccvbDvuT.s:9381   .debug_str:0000000000000dea .LASF4
     /tmp/ccvbDvuT.s:9195   .debug_str:000000000000072a .LASF3
     /tmp/ccvbDvuT.s:8993   .debug_str:000000000000009c .LASF5
     /tmp/ccvbDvuT.s:9309   .debug_str:0000000000000b85 .LASF6
     /tmp/ccvbDvuT.s:9205   .debug_str:0000000000000783 .LASF7
     /tmp/ccvbDvuT.s:9145   .debug_str:0000000000000551 .LASF8
     /tmp/ccvbDvuT.s:9159   .debug_str:00000000000005ec .LASF9
     /tmp/ccvbDvuT.s:9055   .debug_str:0000000000000275 .LASF10
     /tmp/ccvbDvuT.s:9133   .debug_str:00000000000004f9 .LASF11
     /tmp/ccvbDvuT.s:9075   .debug_str:0000000000000351 .LASF12
     /tmp/ccvbDvuT.s:9053   .debug_str:0000000000000265 .LASF13
     /tmp/ccvbDvuT.s:9433   .debug_str:0000000000000fb0 .LASF14
     /tmp/ccvbDvuT.s:9115   .debug_str:000000000000047a .LASF15
     /tmp/ccvbDvuT.s:9415   .debug_str:0000000000000f10 .LASF16
     /tmp/ccvbDvuT.s:9497   .debug_str:000000000000125b .LASF122
     /tmp/ccvbDvuT.s:9515   .debug_str:00000000000012c5 .LASF20
     /tmp/ccvbDvuT.s:9125   .debug_str:00000000000004d1 .LASF17
     /tmp/ccvbDvuT.s:9461   .debug_str:0000000000001059 .LASF18
     /tmp/ccvbDvuT.s:9095   .debug_str:0000000000000403 .LASF19
     /tmp/ccvbDvuT.s:9347   .debug_str:0000000000000ce6 .LASF21
     /tmp/ccvbDvuT.s:9209   .debug_str:00000000000007b3 .LASF22
     /tmp/ccvbDvuT.s:9111   .debug_str:0000000000000464 .LASF23
     /tmp/ccvbDvuT.s:9545   .debug_str:0000000000001396 .LASF24
     /tmp/ccvbDvuT.s:9155   .debug_str:00000000000005dc .LASF25
     /tmp/ccvbDvuT.s:9455   .debug_str:0000000000001030 .LASF26
     /tmp/ccvbDvuT.s:9393   .debug_str:0000000000000e55 .LASF27
     /tmp/ccvbDvuT.s:9077   .debug_str:0000000000000361 .LASF29
     /tmp/ccvbDvuT.s:9345   .debug_str:0000000000000cd0 .LASF28
     /tmp/ccvbDvuT.s:9037   .debug_str:00000000000001ea .LASF30
     /tmp/ccvbDvuT.s:9421   .debug_str:0000000000000f50 .LASF31
     /tmp/ccvbDvuT.s:9441   .debug_str:0000000000000fd9 .LASF32
     /tmp/ccvbDvuT.s:9313   .debug_str:0000000000000bc3 .LASF33
GAS LISTING /tmp/ccvbDvuT.s 			page 108


     /tmp/ccvbDvuT.s:9247   .debug_str:0000000000000939 .LASF34
     /tmp/ccvbDvuT.s:9207   .debug_str:0000000000000796 .LASF35
     /tmp/ccvbDvuT.s:8981   .debug_str:0000000000000017 .LASF36
     /tmp/ccvbDvuT.s:9471   .debug_str:0000000000001146 .LASF37
     /tmp/ccvbDvuT.s:9177   .debug_str:000000000000068b .LASF38
     /tmp/ccvbDvuT.s:9349   .debug_str:0000000000000cf1 .LASF39
     /tmp/ccvbDvuT.s:9147   .debug_str:0000000000000561 .LASF40
     /tmp/ccvbDvuT.s:9335   .debug_str:0000000000000c6d .LASF41
     /tmp/ccvbDvuT.s:9307   .debug_str:0000000000000b62 .LASF42
     /tmp/ccvbDvuT.s:8979   .debug_str:0000000000000000 .LASF43
     /tmp/ccvbDvuT.s:9581   .debug_str:00000000000014bc .LASF44
     /tmp/ccvbDvuT.s:9233   .debug_str:00000000000008ac .LASF45
     /tmp/ccvbDvuT.s:9599   .debug_str:0000000000001562 .LASF46
     /tmp/ccvbDvuT.s:9539   .debug_str:0000000000001370 .LASF47
     /tmp/ccvbDvuT.s:9151   .debug_str:00000000000005ab .LASF48
     /tmp/ccvbDvuT.s:9117   .debug_str:0000000000000490 .LASF49
     /tmp/ccvbDvuT.s:9557   .debug_str:00000000000013fb .LASF50
     /tmp/ccvbDvuT.s:9413   .debug_str:0000000000000efd .LASF51
     /tmp/ccvbDvuT.s:9191   .debug_str:0000000000000705 .LASF52
     /tmp/ccvbDvuT.s:9229   .debug_str:0000000000000891 .LASF53
     /tmp/ccvbDvuT.s:9487   .debug_str:00000000000011e3 .LASF54
     /tmp/ccvbDvuT.s:9009   .debug_str:000000000000010c .LASF55
     /tmp/ccvbDvuT.s:9237   .debug_str:00000000000008e4 .LASF56
     /tmp/ccvbDvuT.s:9397   .debug_str:0000000000000e76 .LASF57
     /tmp/ccvbDvuT.s:9141   .debug_str:0000000000000521 .LASF58
     /tmp/ccvbDvuT.s:9597   .debug_str:0000000000001546 .LASF59
     /tmp/ccvbDvuT.s:9211   .debug_str:00000000000007bc .LASF60
     /tmp/ccvbDvuT.s:9527   .debug_str:000000000000132c .LASF61
     /tmp/ccvbDvuT.s:9023   .debug_str:0000000000000187 .LASF62
     /tmp/ccvbDvuT.s:9241   .debug_str:0000000000000913 .LASF63
     /tmp/ccvbDvuT.s:9477   .debug_str:0000000000001192 .LASF65
     /tmp/ccvbDvuT.s:9505   .debug_str:000000000000128c .LASF67
     /tmp/ccvbDvuT.s:9573   .debug_str:000000000000147c .LASF69
     /tmp/ccvbDvuT.s:9369   .debug_str:0000000000000d8e .LASF64
     /tmp/ccvbDvuT.s:9575   .debug_str:0000000000001491 .LASF66
     /tmp/ccvbDvuT.s:9519   .debug_str:00000000000012e0 .LASF68
     /tmp/ccvbDvuT.s:9217   .debug_str:0000000000000818 .LASF70
     /tmp/ccvbDvuT.s:9277   .debug_str:0000000000000a62 .LASF71
     /tmp/ccvbDvuT.s:9083   .debug_str:00000000000003ae .LASF72
     /tmp/ccvbDvuT.s:9553   .debug_str:00000000000013e5 .LASF73
     /tmp/ccvbDvuT.s:9243   .debug_str:000000000000091f .LASF74
     /tmp/ccvbDvuT.s:9273   .debug_str:0000000000000a51 .LASF75
     /tmp/ccvbDvuT.s:9089   .debug_str:00000000000003d4 .LASF76
     /tmp/ccvbDvuT.s:9537   .debug_str:0000000000001366 .LASF77
     /tmp/ccvbDvuT.s:9215   .debug_str:0000000000000802 .LASF78
     /tmp/ccvbDvuT.s:9529   .debug_str:000000000000133f .LASF79
     /tmp/ccvbDvuT.s:9119   .debug_str:00000000000004a8 .LASF80
     /tmp/ccvbDvuT.s:8995   .debug_str:00000000000000a3 .LASF81
     /tmp/ccvbDvuT.s:9479   .debug_str:00000000000011ac .LASF82
     /tmp/ccvbDvuT.s:9371   .debug_str:0000000000000d97 .LASF83
     /tmp/ccvbDvuT.s:9063   .debug_str:00000000000002df .LASF84
     /tmp/ccvbDvuT.s:9429   .debug_str:0000000000000f9a .LASF85
     /tmp/ccvbDvuT.s:9073   .debug_str:000000000000033e .LASF86
     /tmp/ccvbDvuT.s:9387   .debug_str:0000000000000e17 .LASF87
     /tmp/ccvbDvuT.s:9263   .debug_str:00000000000009db .LASF88
     /tmp/ccvbDvuT.s:9411   .debug_str:0000000000000ef6 .LASF89
     /tmp/ccvbDvuT.s:9067   .debug_str:0000000000000303 .LASF90
GAS LISTING /tmp/ccvbDvuT.s 			page 109


     /tmp/ccvbDvuT.s:9375   .debug_str:0000000000000db0 .LASF91
     /tmp/ccvbDvuT.s:9337   .debug_str:0000000000000c83 .LASF92
     /tmp/ccvbDvuT.s:9357   .debug_str:0000000000000d40 .LASF93
     /tmp/ccvbDvuT.s:9201   .debug_str:0000000000000760 .LASF94
     /tmp/ccvbDvuT.s:9069   .debug_str:0000000000000316 .LASF95
     /tmp/ccvbDvuT.s:9311   .debug_str:0000000000000b98 .LASF96
     /tmp/ccvbDvuT.s:9169   .debug_str:0000000000000652 .LASF97
     /tmp/ccvbDvuT.s:9267   .debug_str:0000000000000a10 .LASF98
     /tmp/ccvbDvuT.s:9447   .debug_str:0000000000001014 .LASF99
     /tmp/ccvbDvuT.s:9425   .debug_str:0000000000000f82 .LASF100
     /tmp/ccvbDvuT.s:9549   .debug_str:00000000000013a8 .LASF101
     /tmp/ccvbDvuT.s:9499   .debug_str:0000000000001261 .LASF102
     /tmp/ccvbDvuT.s:9317   .debug_str:0000000000000be6 .LASF103
     /tmp/ccvbDvuT.s:9079   .debug_str:0000000000000385 .LASF104
     /tmp/ccvbDvuT.s:9051   .debug_str:0000000000000254 .LASF105
     /tmp/ccvbDvuT.s:9339   .debug_str:0000000000000c96 .LASF106
     /tmp/ccvbDvuT.s:8991   .debug_str:000000000000008a .LASF107
     /tmp/ccvbDvuT.s:9491   .debug_str:000000000000121b .LASF108
     /tmp/ccvbDvuT.s:9403   .debug_str:0000000000000ea3 .LASF109
     /tmp/ccvbDvuT.s:9389   .debug_str:0000000000000e1e .LASF110
     /tmp/ccvbDvuT.s:9589   .debug_str:00000000000014f8 .LASF111
     /tmp/ccvbDvuT.s:9603   .debug_str:00000000000015a9 .LASF112
     /tmp/ccvbDvuT.s:9355   .debug_str:0000000000000d2a .LASF113
     /tmp/ccvbDvuT.s:9407   .debug_str:0000000000000ec8 .LASF114
     /tmp/ccvbDvuT.s:9107   .debug_str:000000000000043f .LASF115
     /tmp/ccvbDvuT.s:9287   .debug_str:0000000000000aaf .LASF116
     /tmp/ccvbDvuT.s:9409   .debug_str:0000000000000eeb .LASF117
     /tmp/ccvbDvuT.s:9383   .debug_str:0000000000000df1 .LASF118
     /tmp/ccvbDvuT.s:8999   .debug_str:00000000000000b8 .LASF119
     /tmp/ccvbDvuT.s:9049   .debug_str:000000000000023f .LASF120
     /tmp/ccvbDvuT.s:9359   .debug_str:0000000000000d51 .LASF121
     /tmp/ccvbDvuT.s:9301   .debug_str:0000000000000b38 .LASF123
     /tmp/ccvbDvuT.s:9401   .debug_str:0000000000000e97 .LASF143
     /tmp/ccvbDvuT.s:9085   .debug_str:00000000000003c1 .LASF124
     /tmp/ccvbDvuT.s:9011   .debug_str:0000000000000123 .LASF125
     /tmp/ccvbDvuT.s:9057   .debug_str:0000000000000284 .LASF126
     /tmp/ccvbDvuT.s:9361   .debug_str:0000000000000d56 .LASF127
     /tmp/ccvbDvuT.s:9041   .debug_str:0000000000000212 .LASF128
     /tmp/ccvbDvuT.s:9113   .debug_str:000000000000046d .LASF129
     /tmp/ccvbDvuT.s:9293   .debug_str:0000000000000ae5 .LASF130
     /tmp/ccvbDvuT.s:9175   .debug_str:000000000000067f .LASF131
     /tmp/ccvbDvuT.s:9135   .debug_str:0000000000000508 .LASF132
     /tmp/ccvbDvuT.s:9249   .debug_str:000000000000095f .LASF134
     /tmp/ccvbDvuT.s:9139   .debug_str:000000000000051b .LASF133
     /tmp/ccvbDvuT.s:9295   .debug_str:0000000000000af2 .LASF135
     /tmp/ccvbDvuT.s:9353   .debug_str:0000000000000d1b .LASF136
     /tmp/ccvbDvuT.s:9059   .debug_str:0000000000000289 .LASF137
     /tmp/ccvbDvuT.s:9419   .debug_str:0000000000000f2d .LASF138
     /tmp/ccvbDvuT.s:9443   .debug_str:0000000000001001 .LASF139
     /tmp/ccvbDvuT.s:9149   .debug_str:0000000000000588 .LASF140
     /tmp/ccvbDvuT.s:9121   .debug_str:00000000000004be .LASF141
     /tmp/ccvbDvuT.s:9299   .debug_str:0000000000000b15 .LASF142
     /tmp/ccvbDvuT.s:9445   .debug_str:000000000000100c .LASF144
     /tmp/ccvbDvuT.s:9579   .debug_str:00000000000014b5 .LASF145
     /tmp/ccvbDvuT.s:9399   .debug_str:0000000000000e8f .LASF146
     /tmp/ccvbDvuT.s:9047   .debug_str:0000000000000239 .LASF147
     /tmp/ccvbDvuT.s:9033   .debug_str:00000000000001d5 .LASF148
GAS LISTING /tmp/ccvbDvuT.s 			page 110


     /tmp/ccvbDvuT.s:9321   .debug_str:0000000000000c09 .LASF149
     /tmp/ccvbDvuT.s:9163   .debug_str:0000000000000627 .LASF150
     /tmp/ccvbDvuT.s:9193   .debug_str:0000000000000725 .LASF151
     /tmp/ccvbDvuT.s:9189   .debug_str:00000000000006fa .LASF152
     /tmp/ccvbDvuT.s:9065   .debug_str:00000000000002f7 .LASF153
     /tmp/ccvbDvuT.s:9423   .debug_str:0000000000000f6b .LASF154
     /tmp/ccvbDvuT.s:9297   .debug_str:0000000000000b10 .LASF155
     /tmp/ccvbDvuT.s:9291   .debug_str:0000000000000ae0 .LASF156
     /tmp/ccvbDvuT.s:8989   .debug_str:000000000000007e .LASF157
     /tmp/ccvbDvuT.s:9231   .debug_str:00000000000008a4 .LASF158
     /tmp/ccvbDvuT.s:9507   .debug_str:0000000000001295 .LASF159
     /tmp/ccvbDvuT.s:9591   .debug_str:0000000000001512 .LASF160
     /tmp/ccvbDvuT.s:9153   .debug_str:00000000000005d0 .LASF161
     /tmp/ccvbDvuT.s:8985   .debug_str:0000000000000046 .LASF162
     /tmp/ccvbDvuT.s:9289   .debug_str:0000000000000ad3 .LASF163
     /tmp/ccvbDvuT.s:9493   .debug_str:000000000000123a .LASF164
     /tmp/ccvbDvuT.s:9093   .debug_str:00000000000003f4 .LASF165
     /tmp/ccvbDvuT.s:9099   .debug_str:000000000000041e .LASF166
     /tmp/ccvbDvuT.s:9341   .debug_str:0000000000000cb4 .LASF167
     /tmp/ccvbDvuT.s:9029   .debug_str:00000000000001b5 .LASF168
     /tmp/ccvbDvuT.s:9315   .debug_str:0000000000000bdc .LASF169
     /tmp/ccvbDvuT.s:9071   .debug_str:0000000000000334 .LASF170
     /tmp/ccvbDvuT.s:9087   .debug_str:00000000000003c6 .LASF171
     /tmp/ccvbDvuT.s:8987   .debug_str:0000000000000056 .LASF172
     /tmp/ccvbDvuT.s:9517   .debug_str:00000000000012d4 .LASF173
     /tmp/ccvbDvuT.s:9489   .debug_str:0000000000001203 .LASF174
     /tmp/ccvbDvuT.s:9569   .debug_str:000000000000146a .LASF175
     /tmp/ccvbDvuT.s:9525   .debug_str:0000000000001325 .LASF176
     /tmp/ccvbDvuT.s:9453   .debug_str:000000000000102b .LASF177
     /tmp/ccvbDvuT.s:8983   .debug_str:0000000000000041 .LASF178
     /tmp/ccvbDvuT.s:9585   .debug_str:00000000000014e8 .LASF179
     /tmp/ccvbDvuT.s:9245   .debug_str:0000000000000933 .LASF180
     /tmp/ccvbDvuT.s:9473   .debug_str:0000000000001165 .LASF181
     /tmp/ccvbDvuT.s:9467   .debug_str:0000000000001136 .LASF182
     /tmp/ccvbDvuT.s:9543   .debug_str:000000000000138e .LASF183
     /tmp/ccvbDvuT.s:9483   .debug_str:00000000000011d4 .LASF184
     /tmp/ccvbDvuT.s:9251   .debug_str:000000000000097e .LASF185
     /tmp/ccvbDvuT.s:9547   .debug_str:000000000000139f .LASF186
     /tmp/ccvbDvuT.s:9013   .debug_str:0000000000000128 .LASF187
     /tmp/ccvbDvuT.s:9459   .debug_str:0000000000001051 .LASF188
     /tmp/ccvbDvuT.s:9103   .debug_str:000000000000042c .LASF189
     /tmp/ccvbDvuT.s:9391   .debug_str:0000000000000e44 .LASF190
     /tmp/ccvbDvuT.s:9183   .debug_str:00000000000006ce .LASF191
     /tmp/ccvbDvuT.s:9091   .debug_str:00000000000003e8 .LASF192
     /tmp/ccvbDvuT.s:9035   .debug_str:00000000000001de .LASF193
     /tmp/ccvbDvuT.s:9501   .debug_str:000000000000127d .LASF194
     /tmp/ccvbDvuT.s:9279   .debug_str:0000000000000a69 .LASF195
     /tmp/ccvbDvuT.s:9101   .debug_str:0000000000000427 .LASF196
     /tmp/ccvbDvuT.s:9431   .debug_str:0000000000000fa1 .LASF197
     /tmp/ccvbDvuT.s:9437   .debug_str:0000000000000fc9 .LASF198
     /tmp/ccvbDvuT.s:9303   .debug_str:0000000000000b48 .LASF199
     /tmp/ccvbDvuT.s:9563   .debug_str:000000000000143c .LASF200
     /tmp/ccvbDvuT.s:9327   .debug_str:0000000000000c29 .LASF201
     /tmp/ccvbDvuT.s:9583   .debug_str:00000000000014e0 .LASF202
     /tmp/ccvbDvuT.s:9561   .debug_str:000000000000142a .LASF203
     /tmp/ccvbDvuT.s:9325   .debug_str:0000000000000c1a .LASF204
     /tmp/ccvbDvuT.s:9061   .debug_str:00000000000002c4 .LASF205
GAS LISTING /tmp/ccvbDvuT.s 			page 111


     /tmp/ccvbDvuT.s:9451   .debug_str:000000000000101f .LASF206
     /tmp/ccvbDvuT.s:9435   .debug_str:0000000000000fbc .LASF306
     /tmp/ccvbDvuT.s:9143   .debug_str:0000000000000547 .LASF207
     /tmp/ccvbDvuT.s:9171   .debug_str:000000000000065d .LASF208
     /tmp/ccvbDvuT.s:9533   .debug_str:0000000000001356 .LASF209
     /tmp/ccvbDvuT.s:9127   .debug_str:00000000000004dd .LASF210
     /tmp/ccvbDvuT.s:9173   .debug_str:0000000000000667 .LASF307
     /tmp/ccvbDvuT.s:9377   .debug_str:0000000000000db7 .LASF308
     /tmp/ccvbDvuT.s:9223   .debug_str:0000000000000849 .LASF211
     /tmp/ccvbDvuT.s:9185   .debug_str:00000000000006da .LASF212
     /tmp/ccvbDvuT.s:9593   .debug_str:000000000000151f .LASF213
     /tmp/ccvbDvuT.s:9227   .debug_str:000000000000087b .LASF214
     /tmp/ccvbDvuT.s:9567   .debug_str:000000000000144e .LASF215
     /tmp/ccvbDvuT.s:9109   .debug_str:0000000000000456 .LASF216
     /tmp/ccvbDvuT.s:9379   .debug_str:0000000000000dcb .LASF217
     /tmp/ccvbDvuT.s:9007   .debug_str:00000000000000ff .LASF218
     /tmp/ccvbDvuT.s:9331   .debug_str:0000000000000c45 .LASF219
     /tmp/ccvbDvuT.s:9465   .debug_str:000000000000112a .LASF220
     /tmp/ccvbDvuT.s:9259   .debug_str:00000000000009ba .LASF221
     /tmp/ccvbDvuT.s:9329   .debug_str:0000000000000c39 .LASF222
     /tmp/ccvbDvuT.s:9559   .debug_str:0000000000001420 .LASF223
     /tmp/ccvbDvuT.s:9439   .debug_str:0000000000000fd0 .LASF224
     /tmp/ccvbDvuT.s:9469   .debug_str:000000000000113b .LASF279
     /tmp/ccvbDvuT.s:9509   .debug_str:00000000000012a8 .LASF225
     /tmp/ccvbDvuT.s:9001   .debug_str:00000000000000c1 .LASF226
     /tmp/ccvbDvuT.s:9181   .debug_str:00000000000006c4 .LASF227
     /tmp/ccvbDvuT.s:9333   .debug_str:0000000000000c63 .LASF228
     /tmp/ccvbDvuT.s:9221   .debug_str:000000000000083e .LASF229
     /tmp/ccvbDvuT.s:9513   .debug_str:00000000000012ba .LASF230
     /tmp/ccvbDvuT.s:9323   .debug_str:0000000000000c11 .LASF231
     /tmp/ccvbDvuT.s:9495   .debug_str:000000000000123f .LASF232
     /tmp/ccvbDvuT.s:9275   .debug_str:0000000000000a59 .LASF233
     /tmp/ccvbDvuT.s:9271   .debug_str:0000000000000a35 .LASF234
     /tmp/ccvbDvuT.s:9367   .debug_str:0000000000000d84 .LASF235
     /tmp/ccvbDvuT.s:9365   .debug_str:0000000000000d67 .LASF236
     /tmp/ccvbDvuT.s:9031   .debug_str:00000000000001cb .LASF237
     /tmp/ccvbDvuT.s:9213   .debug_str:00000000000007e5 .LASF238
     /tmp/ccvbDvuT.s:9521   .debug_str:00000000000012e7 .LASF239
     /tmp/ccvbDvuT.s:9481   .debug_str:00000000000011c4 .LASF240
     /tmp/ccvbDvuT.s:9601   .debug_str:0000000000001585 .LASF241
     /tmp/ccvbDvuT.s:9131   .debug_str:00000000000004f0 .LASF242
     /tmp/ccvbDvuT.s:9257   .debug_str:000000000000099c .LASF243
     /tmp/ccvbDvuT.s:9565   .debug_str:0000000000001442 .LASF244
     /tmp/ccvbDvuT.s:9235   .debug_str:00000000000008c2 .LASF245
     /tmp/ccvbDvuT.s:9045   .debug_str:0000000000000233 .LASF246
     /tmp/ccvbDvuT.s:9523   .debug_str:0000000000001306 .LASF247
     /tmp/ccvbDvuT.s:9449   .debug_str:000000000000101a .LASF248
     /tmp/ccvbDvuT.s:9385   .debug_str:0000000000000e09 .LASF249
     /tmp/ccvbDvuT.s:9255   .debug_str:0000000000000997 .LASF259
     /tmp/ccvbDvuT.s:9417   .debug_str:0000000000000f26 .LASF250
     /tmp/ccvbDvuT.s:9595   .debug_str:0000000000001525 .LASF252
     /tmp/ccvbDvuT.s:9105   .debug_str:0000000000000437 .LASF251
     /tmp/ccvbDvuT.s:9265   .debug_str:00000000000009ee .LASF253
     /tmp/ccvbDvuT.s:9097   .debug_str:000000000000040f .LASF254
     /tmp/ccvbDvuT.s:9457   .debug_str:0000000000001041 .LASF255
     /tmp/ccvbDvuT.s:9587   .debug_str:00000000000014ed .LASF256
     /tmp/ccvbDvuT.s:9281   .debug_str:0000000000000a75 .LASF257
GAS LISTING /tmp/ccvbDvuT.s 			page 112


     /tmp/ccvbDvuT.s:9531   .debug_str:0000000000001349 .LASF258
     /tmp/ccvbDvuT.s:9511   .debug_str:00000000000012b4 .LASF260
     /tmp/ccvbDvuT.s:9203   .debug_str:000000000000077e .LASF261
     /tmp/ccvbDvuT.s:9343   .debug_str:0000000000000cc7 .LASF262
     /tmp/ccvbDvuT.s:9363   .debug_str:0000000000000d62 .LASF263
     /tmp/ccvbDvuT.s:9157   .debug_str:00000000000005e7 .LASF264
     /tmp/ccvbDvuT.s:9503   .debug_str:0000000000001282 .LASF265
     /tmp/ccvbDvuT.s:9123   .debug_str:00000000000004c5 .LASF266
     /tmp/ccvbDvuT.s:9305   .debug_str:0000000000000b59 .LASF267
     /tmp/ccvbDvuT.s:9475   .debug_str:000000000000116f .LASF268
     /tmp/ccvbDvuT.s:9405   .debug_str:0000000000000ebc .LASF271
     /tmp/ccvbDvuT.s:9551   .debug_str:00000000000013b7 .LASF273
     /tmp/ccvbDvuT.s:9269   .debug_str:0000000000000a28 .LASF269
     /tmp/ccvbDvuT.s:9161   .debug_str:00000000000005fa .LASF270
     /tmp/ccvbDvuT.s:9199   .debug_str:0000000000000753 .LASF272
     /tmp/ccvbDvuT.s:9225   .debug_str:000000000000084f .LASF274
     /tmp/ccvbDvuT.s:9395   .debug_str:0000000000000e6c .LASF275
     /tmp/ccvbDvuT.s:9285   .debug_str:0000000000000a87 .LASF276
     /tmp/ccvbDvuT.s:9137   .debug_str:0000000000000510 .LASF277
     /tmp/ccvbDvuT.s:9003   .debug_str:00000000000000ce .LASF278
     /tmp/ccvbDvuT.s:9427   .debug_str:0000000000000f94 .LASF280
     /tmp/ccvbDvuT.s:9535   .debug_str:0000000000001360 .LASF281
     /tmp/ccvbDvuT.s:9571   .debug_str:0000000000001472 .LASF282
     /tmp/ccvbDvuT.s:9043   .debug_str:000000000000021e .LASF283
     /tmp/ccvbDvuT.s:9197   .debug_str:000000000000073c .LASF309
     /tmp/ccvbDvuT.s:9167   .debug_str:0000000000000635 .LASF310
     /tmp/ccvbDvuT.s:2153   .text:0000000000000ab8 .LFB62
     /tmp/ccvbDvuT.s:2186   .text:0000000000000ae4 .LFE62
     /tmp/ccvbDvuT.s:8276   .debug_loc:0000000000000000 .LLST51
     /tmp/ccvbDvuT.s:2124   .text:0000000000000ab8 .LFE61
     /tmp/ccvbDvuT.s:8289   .debug_loc:0000000000000038 .LLST47
     /tmp/ccvbDvuT.s:9027   .debug_str:00000000000001ae .LASF284
     /tmp/ccvbDvuT.s:8308   .debug_loc:0000000000000094 .LLST48
     /tmp/ccvbDvuT.s:8319   .debug_loc:00000000000000ca .LLST49
     /tmp/ccvbDvuT.s:1970   .text:00000000000009dc .LBB125
     /tmp/ccvbDvuT.s:2073   .text:0000000000000a70 .LBE125
     /tmp/ccvbDvuT.s:9253   .debug_str:0000000000000987 .LASF285
     /tmp/ccvbDvuT.s:8336   .debug_loc:0000000000000115 .LLST50
     /tmp/ccvbDvuT.s:2069   .text:0000000000000a70 .LVL149
     /tmp/ccvbDvuT.s:1938   .text:000000000000098c .LVL142
     /tmp/ccvbDvuT.s:1950   .text:00000000000009b0 .LVL145
     /tmp/ccvbDvuT.s:1955   .text:00000000000009bc .LVL146
     /tmp/ccvbDvuT.s:1964   .text:00000000000009d8 .LVL147
     /tmp/ccvbDvuT.s:2085   .text:0000000000000a7c .LVL150
     /tmp/ccvbDvuT.s:2117   .text:0000000000000aac .LVL156
     /tmp/ccvbDvuT.s:2121   .text:0000000000000ab8 .LVL157
     /tmp/ccvbDvuT.s:1845   .text:000000000000090c .LFB60
     /tmp/ccvbDvuT.s:1910   .text:0000000000000968 .LFE60
     /tmp/ccvbDvuT.s:9019   .debug_str:0000000000000150 .LASF286
     /tmp/ccvbDvuT.s:8343   .debug_loc:0000000000000138 .LLST44
     /tmp/ccvbDvuT.s:8354   .debug_loc:000000000000016e .LLST45
     /tmp/ccvbDvuT.s:1883   .text:0000000000000938 .LVL137
     /tmp/ccvbDvuT.s:1904   .text:0000000000000958 .LVL140
     /tmp/ccvbDvuT.s:1907   .text:0000000000000964 .LVL141
     /tmp/ccvbDvuT.s:1760   .text:0000000000000898 .LFB59
     /tmp/ccvbDvuT.s:1839   .text:000000000000090c .LFE59
     /tmp/ccvbDvuT.s:8363   .debug_loc:0000000000000193 .LLST41
GAS LISTING /tmp/ccvbDvuT.s 			page 113


     /tmp/ccvbDvuT.s:8374   .debug_loc:00000000000001c9 .LLST42
     /tmp/ccvbDvuT.s:1801   .text:00000000000008c8 .LVL126
     /tmp/ccvbDvuT.s:1825   .text:00000000000008ec .LVL130
     /tmp/ccvbDvuT.s:1833   .text:00000000000008fc .LVL133
     /tmp/ccvbDvuT.s:1836   .text:0000000000000908 .LVL134
     /tmp/ccvbDvuT.s:559    .text:00000000000002b0 .LFB58
     /tmp/ccvbDvuT.s:605    .text:00000000000002e8 .LFE58
     /tmp/ccvbDvuT.s:436    .text:00000000000001fc .LFB57
     /tmp/ccvbDvuT.s:553    .text:00000000000002b0 .LFE57
     /tmp/ccvbDvuT.s:460    .text:0000000000000230 .LBB109
     /tmp/ccvbDvuT.s:8941   .debug_ranges:0000000000000000 .Ldebug_ranges0
     /tmp/ccvbDvuT.s:469    .text:0000000000000230 .LBB111
     /tmp/ccvbDvuT.s:483    .text:0000000000000238 .LBE111
     /tmp/ccvbDvuT.s:470    .text:0000000000000230 .LBB112
     /tmp/ccvbDvuT.s:482    .text:0000000000000238 .LBE112
     /tmp/ccvbDvuT.s:8389   .debug_loc:0000000000000212 .LLST9
     /tmp/ccvbDvuT.s:490    .text:0000000000000238 .LBB114
     /tmp/ccvbDvuT.s:505    .text:0000000000000240 .LBE114
     /tmp/ccvbDvuT.s:491    .text:0000000000000238 .LBB115
     /tmp/ccvbDvuT.s:504    .text:0000000000000240 .LBE115
     /tmp/ccvbDvuT.s:8397   .debug_loc:0000000000000236 .LLST10
     /tmp/ccvbDvuT.s:527    .text:0000000000000278 .LVL29
     /tmp/ccvbDvuT.s:539    .text:000000000000029c .LVL30
     /tmp/ccvbDvuT.s:370    .text:00000000000001b8 .LFB56
     /tmp/ccvbDvuT.s:430    .text:00000000000001fc .LFE56
     /tmp/ccvbDvuT.s:389    .text:00000000000001dc .LBB105
     /tmp/ccvbDvuT.s:402    .text:00000000000001e4 .LBE105
     /tmp/ccvbDvuT.s:8406   .debug_loc:000000000000025c .LLST8
     /tmp/ccvbDvuT.s:415    .text:00000000000001f0 .LBB107
     /tmp/ccvbDvuT.s:428    .text:00000000000001fc .LBE107
     /tmp/ccvbDvuT.s:1718   .text:0000000000000864 .LFB55
     /tmp/ccvbDvuT.s:1754   .text:0000000000000898 .LFE55
     /tmp/ccvbDvuT.s:8415   .debug_loc:0000000000000282 .LLST40
     /tmp/ccvbDvuT.s:1732   .text:000000000000087c .LVL122
     /tmp/ccvbDvuT.s:1743   .text:0000000000000888 .LVL123
     /tmp/ccvbDvuT.s:258    .text:0000000000000130 .LFB54
     /tmp/ccvbDvuT.s:364    .text:00000000000001b8 .LFE54
     /tmp/ccvbDvuT.s:8422   .debug_loc:00000000000002a5 .LLST5
     /tmp/ccvbDvuT.s:8436   .debug_loc:00000000000002de .LLST6
     /tmp/ccvbDvuT.s:314    .text:000000000000016c .LBB102
     /tmp/ccvbDvuT.s:360    .text:00000000000001b8 .LBE102
     /tmp/ccvbDvuT.s:9485   .debug_str:00000000000011de .LASF287
     /tmp/ccvbDvuT.s:8443   .debug_loc:0000000000000301 .LLST7
     /tmp/ccvbDvuT.s:318    .text:0000000000000174 .LVL20
     /tmp/ccvbDvuT.s:278    .text:000000000000014c .LVL16
     /tmp/ccvbDvuT.s:205    .text:00000000000000e0 .LFB53
     /tmp/ccvbDvuT.s:252    .text:0000000000000130 .LFE53
     /tmp/ccvbDvuT.s:8450   .debug_loc:0000000000000324 .LLST4
     /tmp/ccvbDvuT.s:241    .text:0000000000000120 .LVL13
     /tmp/ccvbDvuT.s:1627   .text:00000000000007cc .LFB52
     /tmp/ccvbDvuT.s:1712   .text:0000000000000864 .LFE52
     /tmp/ccvbDvuT.s:8457   .debug_loc:0000000000000347 .LLST39
     /tmp/ccvbDvuT.s:1655   .text:0000000000000808 .LVL112
     /tmp/ccvbDvuT.s:1676   .text:0000000000000828 .LVL115
     /tmp/ccvbDvuT.s:1697   .text:0000000000000848 .LVL118
     /tmp/ccvbDvuT.s:1702   .text:0000000000000854 .LVL119
     /tmp/ccvbDvuT.s:1709   .text:0000000000000860 .LVL121
GAS LISTING /tmp/ccvbDvuT.s 			page 114


     /tmp/ccvbDvuT.s:1547   .text:0000000000000754 .LFB51
     /tmp/ccvbDvuT.s:1621   .text:00000000000007cc .LFE51
     /tmp/ccvbDvuT.s:9129   .debug_str:00000000000004ea .LASF288
     /tmp/ccvbDvuT.s:8472   .debug_loc:0000000000000390 .LLST38
     /tmp/ccvbDvuT.s:1586   .text:0000000000000798 .LVL108
     /tmp/ccvbDvuT.s:1594   .text:00000000000007a8 .LVL109
     /tmp/ccvbDvuT.s:1607   .text:00000000000007b8 .LVL110
     /tmp/ccvbDvuT.s:1482   .text:000000000000070c .LFB50
     /tmp/ccvbDvuT.s:1541   .text:0000000000000754 .LFE50
     /tmp/ccvbDvuT.s:9283   .debug_str:0000000000000a7f .LASF289
     /tmp/ccvbDvuT.s:8479   .debug_loc:00000000000003b3 .LLST36
     /tmp/ccvbDvuT.s:8490   .debug_loc:00000000000003e9 .LLST37
     /tmp/ccvbDvuT.s:1519   .text:0000000000000734 .LVL104
     /tmp/ccvbDvuT.s:1536   .text:000000000000074c .LVL106
     /tmp/ccvbDvuT.s:1405   .text:00000000000006ac .LFB49
     /tmp/ccvbDvuT.s:1476   .text:000000000000070c .LFE49
     /tmp/ccvbDvuT.s:8507   .debug_loc:0000000000000434 .LLST34
     /tmp/ccvbDvuT.s:8518   .debug_loc:000000000000046a .LLST35
     /tmp/ccvbDvuT.s:1451   .text:00000000000006e8 .LVL98
     /tmp/ccvbDvuT.s:1468   .text:0000000000000700 .LVL100
     /tmp/ccvbDvuT.s:1330   .text:000000000000064c .LFB48
     /tmp/ccvbDvuT.s:1399   .text:00000000000006ac .LFE48
     /tmp/ccvbDvuT.s:8535   .debug_loc:00000000000004b5 .LLST31
     /tmp/ccvbDvuT.s:8546   .debug_loc:00000000000004eb .LLST33
     /tmp/ccvbDvuT.s:1370   .text:0000000000000678 .LVL90
     /tmp/ccvbDvuT.s:1391   .text:0000000000000698 .LVL93
     /tmp/ccvbDvuT.s:1394   .text:00000000000006a4 .LVL94
     /tmp/ccvbDvuT.s:1305   .text:000000000000064c .LFE47
     /tmp/ccvbDvuT.s:8563   .debug_loc:0000000000000536 .LLST28
     /tmp/ccvbDvuT.s:9005   .debug_str:00000000000000f9 .LASF290
     /tmp/ccvbDvuT.s:8574   .debug_loc:000000000000056c .LLST29
     /tmp/ccvbDvuT.s:8585   .debug_loc:00000000000005a2 .LLST30
     /tmp/ccvbDvuT.s:1239   .text:00000000000005e4 .LVL78
     /tmp/ccvbDvuT.s:1245   .text:00000000000005f4 .LVL79
     /tmp/ccvbDvuT.s:1267   .text:000000000000060c .LVL81
     /tmp/ccvbDvuT.s:1298   .text:0000000000000640 .LVL86
     /tmp/ccvbDvuT.s:1302   .text:000000000000064c .LVL87
     /tmp/ccvbDvuT.s:165    .text:00000000000000a4 .LFB46
     /tmp/ccvbDvuT.s:199    .text:00000000000000e0 .LFE46
     /tmp/ccvbDvuT.s:8602   .debug_loc:00000000000005ed .LLST3
     /tmp/ccvbDvuT.s:188    .text:00000000000000d0 .LVL11
     /tmp/ccvbDvuT.s:1128   .text:000000000000055c .LFB45
     /tmp/ccvbDvuT.s:1195   .text:00000000000005b4 .LFE45
     /tmp/ccvbDvuT.s:8609   .debug_loc:0000000000000610 .LLST26
     /tmp/ccvbDvuT.s:1148   .text:000000000000057c .LBB122
     /tmp/ccvbDvuT.s:1159   .text:000000000000058c .LBE122
     /tmp/ccvbDvuT.s:8626   .debug_loc:000000000000065b .LLST27
     /tmp/ccvbDvuT.s:1158   .text:000000000000058c .LVL73
     /tmp/ccvbDvuT.s:1175   .text:000000000000059c .LVL75
     /tmp/ccvbDvuT.s:1054   .text:0000000000000504 .LFB44
     /tmp/ccvbDvuT.s:1122   .text:000000000000055c .LFE44
     /tmp/ccvbDvuT.s:8633   .debug_loc:000000000000067e .LLST23
     /tmp/ccvbDvuT.s:8644   .debug_loc:00000000000006b4 .LLST25
     /tmp/ccvbDvuT.s:1092   .text:000000000000052c .LVL67
     /tmp/ccvbDvuT.s:1113   .text:000000000000054c .LVL69
     /tmp/ccvbDvuT.s:1117   .text:0000000000000554 .LVL70
     /tmp/ccvbDvuT.s:1029   .text:0000000000000504 .LFE43
GAS LISTING /tmp/ccvbDvuT.s 			page 115


     /tmp/ccvbDvuT.s:9165   .debug_str:000000000000062c .LASF291
     /tmp/ccvbDvuT.s:8661   .debug_loc:00000000000006ff .LLST18
     /tmp/ccvbDvuT.s:9541   .debug_str:0000000000001388 .LASF292
     /tmp/ccvbDvuT.s:8672   .debug_loc:0000000000000735 .LLST19
     /tmp/ccvbDvuT.s:8683   .debug_loc:000000000000076b .LLST20
     /tmp/ccvbDvuT.s:9025   .debug_str:00000000000001a7 .LASF293
     /tmp/ccvbDvuT.s:8694   .debug_loc:00000000000007a1 .LLST21
     /tmp/ccvbDvuT.s:8705   .debug_loc:00000000000007d7 .LLST22
     /tmp/ccvbDvuT.s:948    .text:0000000000000480 .LVL53
     /tmp/ccvbDvuT.s:957    .text:000000000000049c .LVL54
     /tmp/ccvbDvuT.s:985    .text:00000000000004bc .LVL56
     /tmp/ccvbDvuT.s:1022   .text:00000000000004f8 .LVL63
     /tmp/ccvbDvuT.s:1026   .text:0000000000000504 .LVL64
     /tmp/ccvbDvuT.s:864    .text:0000000000000440 .LFE42
     /tmp/ccvbDvuT.s:8722   .debug_loc:0000000000000822 .LLST15
     /tmp/ccvbDvuT.s:8733   .debug_loc:0000000000000858 .LLST16
     /tmp/ccvbDvuT.s:8744   .debug_loc:000000000000088e .LLST17
     /tmp/ccvbDvuT.s:778    .text:00000000000003b0 .LVL39
     /tmp/ccvbDvuT.s:787    .text:00000000000003cc .LVL40
     /tmp/ccvbDvuT.s:802    .text:00000000000003e4 .LVL41
     /tmp/ccvbDvuT.s:822    .text:00000000000003f8 .LVL43
     /tmp/ccvbDvuT.s:857    .text:0000000000000434 .LVL48
     /tmp/ccvbDvuT.s:861    .text:0000000000000440 .LVL49
     /tmp/ccvbDvuT.s:662    .text:0000000000000320 .LFB41
     /tmp/ccvbDvuT.s:720    .text:0000000000000370 .LFE41
     /tmp/ccvbDvuT.s:8761   .debug_loc:00000000000008d9 .LLST13
     /tmp/ccvbDvuT.s:8768   .debug_loc:00000000000008fc .LLST14
     /tmp/ccvbDvuT.s:692    .text:0000000000000350 .LVL35
     /tmp/ccvbDvuT.s:716    .text:000000000000036c .LVL37
     /tmp/ccvbDvuT.s:611    .text:00000000000002e8 .LFB40
     /tmp/ccvbDvuT.s:656    .text:0000000000000320 .LFE40
     /tmp/ccvbDvuT.s:8779   .debug_loc:0000000000000932 .LLST11
     /tmp/ccvbDvuT.s:9039   .debug_str:000000000000020d .LASF294
     /tmp/ccvbDvuT.s:8786   .debug_loc:0000000000000955 .LLST12
     /tmp/ccvbDvuT.s:634    .text:0000000000000304 .LVL32
     /tmp/ccvbDvuT.s:645    .text:0000000000000310 .LVL33
     /tmp/ccvbDvuT.s:2212   .text:0000000000000ae4 .LFB39
     /tmp/ccvbDvuT.s:3130   .text:0000000000000f18 .LFE39
     /tmp/ccvbDvuT.s:9081   .debug_str:00000000000003a7 .LASF295
     /tmp/ccvbDvuT.s:8997   .debug_str:00000000000000ae .LASF296
     /tmp/ccvbDvuT.s:8793   .debug_loc:0000000000000978 .LLST64
     /tmp/ccvbDvuT.s:2396   .text:0000000000000c0c .LBB174
     /tmp/ccvbDvuT.s:2409   .text:0000000000000c10 .LBE174
     /tmp/ccvbDvuT.s:2413   .text:0000000000000c14 .LBB176
     /tmp/ccvbDvuT.s:2426   .text:0000000000000c18 .LBE176
     /tmp/ccvbDvuT.s:2578   .text:0000000000000c7c .LBB178
     /tmp/ccvbDvuT.s:2589   .text:0000000000000c80 .LBE178
     /tmp/ccvbDvuT.s:8800   .debug_loc:000000000000099b .LLST65
     /tmp/ccvbDvuT.s:2594   .text:0000000000000c84 .LBB180
     /tmp/ccvbDvuT.s:2606   .text:0000000000000c88 .LBE180
     /tmp/ccvbDvuT.s:8807   .debug_loc:00000000000009be .LLST66
     /tmp/ccvbDvuT.s:2569   .text:0000000000000c6c .LVL175
     /tmp/ccvbDvuT.s:2631   .text:0000000000000ca8 .LVL181
     /tmp/ccvbDvuT.s:2639   .text:0000000000000cb4 .LVL182
     /tmp/ccvbDvuT.s:2647   .text:0000000000000cc0 .LVL183
     /tmp/ccvbDvuT.s:2655   .text:0000000000000ccc .LVL184
     /tmp/ccvbDvuT.s:2663   .text:0000000000000cd8 .LVL185
GAS LISTING /tmp/ccvbDvuT.s 			page 116


     /tmp/ccvbDvuT.s:2671   .text:0000000000000ce4 .LVL186
     /tmp/ccvbDvuT.s:2679   .text:0000000000000cf0 .LVL187
     /tmp/ccvbDvuT.s:2687   .text:0000000000000cfc .LVL188
     /tmp/ccvbDvuT.s:2695   .text:0000000000000d08 .LVL189
     /tmp/ccvbDvuT.s:2703   .text:0000000000000d14 .LVL190
     /tmp/ccvbDvuT.s:2711   .text:0000000000000d20 .LVL191
     /tmp/ccvbDvuT.s:2719   .text:0000000000000d2c .LVL192
     /tmp/ccvbDvuT.s:2727   .text:0000000000000d38 .LVL193
     /tmp/ccvbDvuT.s:2735   .text:0000000000000d44 .LVL194
     /tmp/ccvbDvuT.s:2743   .text:0000000000000d50 .LVL195
     /tmp/ccvbDvuT.s:2751   .text:0000000000000d5c .LVL196
     /tmp/ccvbDvuT.s:2768   .text:0000000000000d78 .LVL197
     /tmp/ccvbDvuT.s:2772   .text:0000000000000d80 .LVL198
     /tmp/ccvbDvuT.s:2778   .text:0000000000000d84 .LBB156
     /tmp/ccvbDvuT.s:2909   .text:0000000000000e14 .LBE156
     /tmp/ccvbDvuT.s:2890   .text:0000000000000df4 .LBB164
     /tmp/ccvbDvuT.s:2905   .text:0000000000000e10 .LBE164
     /tmp/ccvbDvuT.s:8814   .debug_loc:00000000000009e1 .LLST61
     /tmp/ccvbDvuT.s:2904   .text:0000000000000e10 .LVL209
     /tmp/ccvbDvuT.s:2780   .text:0000000000000d84 .LBB157
     /tmp/ccvbDvuT.s:2793   .text:0000000000000d88 .LBE157
     /tmp/ccvbDvuT.s:2797   .text:0000000000000d8c .LBB159
     /tmp/ccvbDvuT.s:2810   .text:0000000000000d90 .LBE159
     /tmp/ccvbDvuT.s:2815   .text:0000000000000d94 .LBB161
     /tmp/ccvbDvuT.s:2827   .text:0000000000000d9c .LBE161
     /tmp/ccvbDvuT.s:8821   .debug_loc:0000000000000a04 .LLST60
     /tmp/ccvbDvuT.s:2858   .text:0000000000000de4 .LBB165
     /tmp/ccvbDvuT.s:2869   .text:0000000000000de8 .LBE165
     /tmp/ccvbDvuT.s:8829   .debug_loc:0000000000000a28 .LLST62
     /tmp/ccvbDvuT.s:2874   .text:0000000000000dec .LBB167
     /tmp/ccvbDvuT.s:2888   .text:0000000000000df4 .LBE167
     /tmp/ccvbDvuT.s:8836   .debug_loc:0000000000000a4b .LLST63
     /tmp/ccvbDvuT.s:2837   .text:0000000000000db8 .LVL203
     /tmp/ccvbDvuT.s:2911   .text:0000000000000e14 .LBB141
     /tmp/ccvbDvuT.s:3071   .text:0000000000000eb0 .LBE141
     /tmp/ccvbDvuT.s:8843   .debug_loc:0000000000000a6e .LLST55
     /tmp/ccvbDvuT.s:8850   .debug_loc:0000000000000a91 .LLST56
     /tmp/ccvbDvuT.s:8857   .debug_loc:0000000000000ab4 .LLST57
     /tmp/ccvbDvuT.s:3065   .text:0000000000000eac .LVL225
     /tmp/ccvbDvuT.s:2913   .text:0000000000000e14 .LBB142
     /tmp/ccvbDvuT.s:2926   .text:0000000000000e18 .LBE142
     /tmp/ccvbDvuT.s:2930   .text:0000000000000e1c .LBB144
     /tmp/ccvbDvuT.s:2943   .text:0000000000000e20 .LBE144
     /tmp/ccvbDvuT.s:3024   .text:0000000000000e84 .LBB149
     /tmp/ccvbDvuT.s:3035   .text:0000000000000e88 .LBE149
     /tmp/ccvbDvuT.s:8868   .debug_loc:0000000000000aea .LLST58
     /tmp/ccvbDvuT.s:3040   .text:0000000000000e8c .LBB151
     /tmp/ccvbDvuT.s:3054   .text:0000000000000e94 .LBE151
     /tmp/ccvbDvuT.s:8875   .debug_loc:0000000000000b0d .LLST59
     /tmp/ccvbDvuT.s:3017   .text:0000000000000e78 .LVL219
     /tmp/ccvbDvuT.s:3019   .text:0000000000000e80 .LVL220
     /tmp/ccvbDvuT.s:3073   .text:0000000000000eb0 .LBB138
     /tmp/ccvbDvuT.s:3123   .text:0000000000000f14 .LBE138
     /tmp/ccvbDvuT.s:8882   .debug_loc:0000000000000b30 .LLST54
     /tmp/ccvbDvuT.s:3089   .text:0000000000000ed4 .LBB139
     /tmp/ccvbDvuT.s:3101   .text:0000000000000ed8 .LBE139
     /tmp/ccvbDvuT.s:3087   .text:0000000000000ed4 .LVL228
GAS LISTING /tmp/ccvbDvuT.s 			page 117


     /tmp/ccvbDvuT.s:3108   .text:0000000000000eec .LVL229
     /tmp/ccvbDvuT.s:3113   .text:0000000000000efc .LVL230
     /tmp/ccvbDvuT.s:3118   .text:0000000000000f0c .LVL231
     /tmp/ccvbDvuT.s:3122   .text:0000000000000f14 .LVL232
     /tmp/ccvbDvuT.s:2302   .text:0000000000000b64 .LBB133
     /tmp/ccvbDvuT.s:2390   .text:0000000000000c0c .LBE133
     /tmp/ccvbDvuT.s:8889   .debug_loc:0000000000000b53 .LLST52
     /tmp/ccvbDvuT.s:8896   .debug_loc:0000000000000b76 .LLST53
     /tmp/ccvbDvuT.s:2314   .text:0000000000000b84 .LBB134
     /tmp/ccvbDvuT.s:2330   .text:0000000000000b90 .LBE134
     /tmp/ccvbDvuT.s:2345   .text:0000000000000bb4 .LBB136
     /tmp/ccvbDvuT.s:2357   .text:0000000000000bb8 .LBE136
     /tmp/ccvbDvuT.s:2307   .text:0000000000000b74 .LVL160
     /tmp/ccvbDvuT.s:2312   .text:0000000000000b84 .LVL161
     /tmp/ccvbDvuT.s:2338   .text:0000000000000ba4 .LVL164
     /tmp/ccvbDvuT.s:2343   .text:0000000000000bb4 .LVL165
     /tmp/ccvbDvuT.s:2364   .text:0000000000000bcc .LVL166
     /tmp/ccvbDvuT.s:2369   .text:0000000000000bdc .LVL167
     /tmp/ccvbDvuT.s:2383   .text:0000000000000c00 .LVL169
     /tmp/ccvbDvuT.s:2387   .text:0000000000000c08 .LVL170
     /tmp/ccvbDvuT.s:2224   .text:0000000000000af4 .LBB127
     /tmp/ccvbDvuT.s:2239   .text:0000000000000b00 .LBE127
     /tmp/ccvbDvuT.s:2612   .text:0000000000000c90 .LVL180
     /tmp/ccvbDvuT.s:130    .text:0000000000000084 .LFB38
     /tmp/ccvbDvuT.s:159    .text:00000000000000a4 .LFE38
     /tmp/ccvbDvuT.s:10     .text:0000000000000000 .LFB37
     /tmp/ccvbDvuT.s:124    .text:0000000000000084 .LFE37
     /tmp/ccvbDvuT.s:26     .text:0000000000000018 .LBB89
     /tmp/ccvbDvuT.s:38     .text:000000000000001c .LBE89
     /tmp/ccvbDvuT.s:68     .text:0000000000000060 .LBB91
     /tmp/ccvbDvuT.s:69     .text:0000000000000060 .LBB92
     /tmp/ccvbDvuT.s:81     .text:0000000000000068 .LBE92
     /tmp/ccvbDvuT.s:8903   .debug_loc:0000000000000b99 .LLST0
     /tmp/ccvbDvuT.s:85     .text:0000000000000068 .LBB94
     /tmp/ccvbDvuT.s:97     .text:0000000000000070 .LBE94
     /tmp/ccvbDvuT.s:8911   .debug_loc:0000000000000bbd .LLST1
     /tmp/ccvbDvuT.s:101    .text:0000000000000070 .LBB96
     /tmp/ccvbDvuT.s:112    .text:0000000000000074 .LBE96
     /tmp/ccvbDvuT.s:8920   .debug_loc:0000000000000be3 .LLST2
     /tmp/ccvbDvuT.s:42     .text:0000000000000024 .LVL2
     /tmp/ccvbDvuT.s:46     .text:000000000000002c .LVL3
     /tmp/ccvbDvuT.s:50     .text:0000000000000034 .LVL4
     /tmp/ccvbDvuT.s:54     .text:000000000000003c .LVL5
     /tmp/ccvbDvuT.s:65     .text:0000000000000060 .LVL6
     /tmp/ccvbDvuT.s:9015   .debug_str:0000000000000133 .LASF297
     /tmp/ccvbDvuT.s:9187   .debug_str:00000000000006f4 .LASF298
     /tmp/ccvbDvuT.s:9577   .debug_str:00000000000014a6 .LASF311
     /tmp/ccvbDvuT.s:9017   .debug_str:0000000000000138 .LASF312
     /tmp/ccvbDvuT.s:9261   .debug_str:00000000000009c6 .LASF299
     /tmp/ccvbDvuT.s:9351   .debug_str:0000000000000d0b .LASF301
     /tmp/ccvbDvuT.s:9239   .debug_str:0000000000000908 .LASF300
     /tmp/ccvbDvuT.s:9319   .debug_str:0000000000000bfb .LASF302
     /tmp/ccvbDvuT.s:2169   .text:0000000000000ac8 .LVL158
     /tmp/ccvbDvuT.s:2174   .text:0000000000000acc .LVL159
     /tmp/ccvbDvuT.s:1940   .text:0000000000000990 .LVL143
     /tmp/ccvbDvuT.s:1948   .text:00000000000009a8 .LVL144
     /tmp/ccvbDvuT.s:2001   .text:0000000000000a28 .LVL148
GAS LISTING /tmp/ccvbDvuT.s 			page 118


     /tmp/ccvbDvuT.s:2101   .text:0000000000000a94 .LVL152
     /tmp/ccvbDvuT.s:2112   .text:0000000000000aa0 .LVL155
     /tmp/ccvbDvuT.s:2107   .text:0000000000000a98 .LVL153
     /tmp/ccvbDvuT.s:2095   .text:0000000000000a88 .LVL151
     /tmp/ccvbDvuT.s:2109   .text:0000000000000a9c .LVL154
     /tmp/ccvbDvuT.s:1865   .text:0000000000000924 .LVL135
     /tmp/ccvbDvuT.s:1893   .text:0000000000000944 .LVL138
     /tmp/ccvbDvuT.s:1897   .text:000000000000094c .LVL139
     /tmp/ccvbDvuT.s:1871   .text:0000000000000928 .LVL136
     /tmp/ccvbDvuT.s:1782   .text:00000000000008b4 .LVL124
     /tmp/ccvbDvuT.s:1811   .text:00000000000008d4 .LVL127
     /tmp/ccvbDvuT.s:1818   .text:00000000000008e0 .LVL129
     /tmp/ccvbDvuT.s:1790   .text:00000000000008bc .LVL125
     /tmp/ccvbDvuT.s:1814   .text:00000000000008d8 .LVL128
     /tmp/ccvbDvuT.s:1827   .text:00000000000008f0 .LVL131
     /tmp/ccvbDvuT.s:1831   .text:00000000000008f4 .LVL132
     /tmp/ccvbDvuT.s:466    .text:0000000000000230 .LVL26
     /tmp/ccvbDvuT.s:479    .text:0000000000000238 .LVL27
     /tmp/ccvbDvuT.s:500    .text:0000000000000240 .LVL28
     /tmp/ccvbDvuT.s:388    .text:00000000000001dc .LVL23
     /tmp/ccvbDvuT.s:398    .text:00000000000001e4 .LVL24
     /tmp/ccvbDvuT.s:261    .text:0000000000000130 .LVL14
     /tmp/ccvbDvuT.s:271    .text:0000000000000144 .LVL15
     /tmp/ccvbDvuT.s:288    .text:0000000000000158 .LVL17
     /tmp/ccvbDvuT.s:311    .text:0000000000000168 .LVL19
     /tmp/ccvbDvuT.s:325    .text:0000000000000184 .LVL21
     /tmp/ccvbDvuT.s:336    .text:000000000000018c .LVL22
     /tmp/ccvbDvuT.s:235    .text:0000000000000114 .LVL12
     /tmp/ccvbDvuT.s:1657   .text:000000000000080c .LVL113
     /tmp/ccvbDvuT.s:1664   .text:000000000000081c .LVL114
     /tmp/ccvbDvuT.s:1689   .text:000000000000083c .LVL116
     /tmp/ccvbDvuT.s:1695   .text:0000000000000840 .LVL117
     /tmp/ccvbDvuT.s:1704   .text:0000000000000858 .LVL120
     /tmp/ccvbDvuT.s:1572   .text:0000000000000778 .LVL107
     /tmp/ccvbDvuT.s:1616   .text:00000000000007c4 .LVL111
     /tmp/ccvbDvuT.s:1500   .text:0000000000000720 .LVL102
     /tmp/ccvbDvuT.s:1507   .text:0000000000000728 .LVL103
     /tmp/ccvbDvuT.s:1530   .text:0000000000000744 .LVL105
     /tmp/ccvbDvuT.s:1423   .text:00000000000006c0 .LVL95
     /tmp/ccvbDvuT.s:1428   .text:00000000000006c4 .LVL96
     /tmp/ccvbDvuT.s:1462   .text:00000000000006f8 .LVL99
     /tmp/ccvbDvuT.s:1440   .text:00000000000006dc .LVL97
     /tmp/ccvbDvuT.s:1470   .text:0000000000000704 .LVL101
     /tmp/ccvbDvuT.s:1350   .text:0000000000000664 .LVL88
     /tmp/ccvbDvuT.s:1380   .text:0000000000000684 .LVL91
     /tmp/ccvbDvuT.s:1384   .text:000000000000068c .LVL92
     /tmp/ccvbDvuT.s:1359   .text:000000000000066c .LVL89
     /tmp/ccvbDvuT.s:1227   .text:00000000000005d4 .LVL77
     /tmp/ccvbDvuT.s:1282   .text:0000000000000620 .LVL83
     /tmp/ccvbDvuT.s:1286   .text:0000000000000628 .LVL84
     /tmp/ccvbDvuT.s:1277   .text:0000000000000618 .LVL82
     /tmp/ccvbDvuT.s:1292   .text:0000000000000630 .LVL85
     /tmp/ccvbDvuT.s:1256   .text:0000000000000600 .LVL80
     /tmp/ccvbDvuT.s:180    .text:00000000000000c0 .LVL10
     /tmp/ccvbDvuT.s:1140   .text:000000000000056c .LVL71
     /tmp/ccvbDvuT.s:1164   .text:0000000000000590 .LVL74
     /tmp/ccvbDvuT.s:1186   .text:00000000000005ac .LVL76
GAS LISTING /tmp/ccvbDvuT.s 			page 119


     /tmp/ccvbDvuT.s:1150   .text:000000000000057c .LVL72
     /tmp/ccvbDvuT.s:1072   .text:0000000000000518 .LVL65
     /tmp/ccvbDvuT.s:1080   .text:0000000000000520 .LVL66
     /tmp/ccvbDvuT.s:1103   .text:000000000000053c .LVL68
     /tmp/ccvbDvuT.s:935    .text:0000000000000470 .LVL51
     /tmp/ccvbDvuT.s:1003   .text:00000000000004d4 .LVL59
     /tmp/ccvbDvuT.s:1010   .text:00000000000004e0 .LVL61
     /tmp/ccvbDvuT.s:941    .text:0000000000000474 .LVL52
     /tmp/ccvbDvuT.s:1000   .text:00000000000004d0 .LVL58
     /tmp/ccvbDvuT.s:929    .text:000000000000046c .LVL50
     /tmp/ccvbDvuT.s:1006   .text:00000000000004d8 .LVL60
     /tmp/ccvbDvuT.s:995    .text:00000000000004c8 .LVL57
     /tmp/ccvbDvuT.s:1016   .text:00000000000004e8 .LVL62
     /tmp/ccvbDvuT.s:974    .text:00000000000004b0 .LVL55
     /tmp/ccvbDvuT.s:761    .text:000000000000039c .LVL38
     /tmp/ccvbDvuT.s:841    .text:0000000000000414 .LVL45
     /tmp/ccvbDvuT.s:845    .text:000000000000041c .LVL46
     /tmp/ccvbDvuT.s:832    .text:0000000000000404 .LVL44
     /tmp/ccvbDvuT.s:851    .text:0000000000000424 .LVL47
     /tmp/ccvbDvuT.s:811    .text:00000000000003ec .LVL42
     /tmp/ccvbDvuT.s:711    .text:0000000000000364 .LVL36
     /tmp/ccvbDvuT.s:681    .text:0000000000000344 .LVL34
     /tmp/ccvbDvuT.s:629    .text:00000000000002fc .LVL31
     /tmp/ccvbDvuT.s:2449   .text:0000000000000c40 .LVL173
     /tmp/ccvbDvuT.s:2455   .text:0000000000000c4c .LVL174
     /tmp/ccvbDvuT.s:2577   .text:0000000000000c7c .LVL176
     /tmp/ccvbDvuT.s:2586   .text:0000000000000c80 .LVL177
     /tmp/ccvbDvuT.s:2593   .text:0000000000000c84 .LVL178
     /tmp/ccvbDvuT.s:2602   .text:0000000000000c88 .LVL179
     /tmp/ccvbDvuT.s:2896   .text:0000000000000e00 .LVL208
     /tmp/ccvbDvuT.s:2814   .text:0000000000000d94 .LVL201
     /tmp/ccvbDvuT.s:2824   .text:0000000000000d9c .LVL202
     /tmp/ccvbDvuT.s:2857   .text:0000000000000de4 .LVL204
     /tmp/ccvbDvuT.s:2866   .text:0000000000000de8 .LVL205
     /tmp/ccvbDvuT.s:2873   .text:0000000000000dec .LVL206
     /tmp/ccvbDvuT.s:2885   .text:0000000000000df4 .LVL207
     /tmp/ccvbDvuT.s:2950   .text:0000000000000e30 .LVL212
     /tmp/ccvbDvuT.s:2973   .text:0000000000000e40 .LVL214
     /tmp/ccvbDvuT.s:2983   .text:0000000000000e50 .LVL215
     /tmp/ccvbDvuT.s:3006   .text:0000000000000e68 .LVL217
     /tmp/ccvbDvuT.s:3002   .text:0000000000000e60 .LVL216
     /tmp/ccvbDvuT.s:3010   .text:0000000000000e70 .LVL218
     /tmp/ccvbDvuT.s:3051   .text:0000000000000e94 .LVL224
     /tmp/ccvbDvuT.s:3023   .text:0000000000000e84 .LVL221
     /tmp/ccvbDvuT.s:3032   .text:0000000000000e88 .LVL222
     /tmp/ccvbDvuT.s:3039   .text:0000000000000e8c .LVL223
     /tmp/ccvbDvuT.s:3078   .text:0000000000000ebc .LVL227
     /tmp/ccvbDvuT.s:2328   .text:0000000000000b90 .LVL162
     /tmp/ccvbDvuT.s:2336   .text:0000000000000b9c .LVL163
     /tmp/ccvbDvuT.s:2374   .text:0000000000000be8 .LVL168
     /tmp/ccvbDvuT.s:78     .text:0000000000000068 .LVL7
     /tmp/ccvbDvuT.s:94     .text:0000000000000070 .LVL8
     /tmp/ccvbDvuT.s:109    .text:0000000000000074 .LVL9
     /tmp/ccvbDvuT.s:3157   .debug_info:0000000000000000 .Ldebug_info0
     /tmp/ccvbDvuT.s:82     .text:0000000000000068 .LBE91
     /tmp/ccvbDvuT.s:84     .text:0000000000000068 .LBB98
     /tmp/ccvbDvuT.s:98     .text:0000000000000070 .LBE98
GAS LISTING /tmp/ccvbDvuT.s 			page 120


     /tmp/ccvbDvuT.s:100    .text:0000000000000070 .LBB99
     /tmp/ccvbDvuT.s:113    .text:0000000000000074 .LBE99
     /tmp/ccvbDvuT.s:273    .text:0000000000000144 .LBB100
     /tmp/ccvbDvuT.s:281    .text:000000000000014c .LBE100
     /tmp/ccvbDvuT.s:283    .text:000000000000014c .LBB104
     /tmp/ccvbDvuT.s:362    .text:00000000000001b8 .LBE104
     /tmp/ccvbDvuT.s:464    .text:0000000000000230 .LBE109
     /tmp/ccvbDvuT.s:467    .text:0000000000000230 .LBB119
     /tmp/ccvbDvuT.s:486    .text:0000000000000238 .LBE119
     /tmp/ccvbDvuT.s:488    .text:0000000000000238 .LBB120
     /tmp/ccvbDvuT.s:507    .text:0000000000000240 .LBE120
     /tmp/ccvbDvuT.s:2976   .text:0000000000000e44 .LBB147
     /tmp/ccvbDvuT.s:3012   .text:0000000000000e70 .LBE147
     /tmp/ccvbDvuT.s:3056   .text:0000000000000e94 .LBB148
     /tmp/ccvbDvuT.s:3069   .text:0000000000000eb0 .LBE148
     /tmp/ccvbDvuT.s:2394   .text:0000000000000c0c .LBB173
     /tmp/ccvbDvuT.s:2607   .text:0000000000000c88 .LBE173
     /tmp/ccvbDvuT.s:2626   .text:0000000000000ca0 .LBB182
     /tmp/ccvbDvuT.s:2776   .text:0000000000000d84 .LBE182
     /tmp/ccvbDvuT.s:867    .gcc_except_table:0000000000000000 .LLSDA42
     /tmp/ccvbDvuT.s:1031   .gcc_except_table:0000000000000038 .LLSDA43
     /tmp/ccvbDvuT.s:1307   .gcc_except_table:0000000000000063 .LLSDA47
     /tmp/ccvbDvuT.s:2126   .gcc_except_table:000000000000008e .LLSDA61

UNDEFINED SYMBOLS
_ZN5RiscV14supervisorTrapEv
_ZN15MemoryAllocator10initializeEv
_ZN9Scheduler10initializeEv
_ZN3TCB10initializeEv
_ZN11ConsoleUtil10initializeEv
HEAP_START_ADDR
_ZN13SlabAllocator10initializeEPvm
_ZN3TCB7runningE
_ZN3TCB8dispatchEv
_ZN11ConsoleUtil11pendingPutcE
_ZN11ConsoleUtil9putOutputEc
_Z15thread_dispatchv
CONSOLE_STATUS
_ZN11ConsoleUtil15putcUtilSyscallEv
CONSOLE_RX_DATA
_ZN11ConsoleUtil11pendingGetcE
_ZN9Scheduler9readyHeadE
_ZN3TCB10putcThreadE
_ZN9Scheduler3putEP3TCB
_ZN11ConsoleUtil10outputHeadE
_ZN11ConsoleUtil10outputTailE
_ZN15MemoryAllocator7kmallocEm
_ZN15MemoryAllocator11initializedE
_ZN15MemoryAllocator5kfreeEPv
_ZN3TCBnwEm
_ZN3TCBC1EPFvPvES0_Pmm
_ZN3TCBdlEPv
_Unwind_Resume
__gxx_personality_v0
_ZN3SCBnwEm
_ZN3SCBC1Em
_ZN3SCBdlEPv
GAS LISTING /tmp/ccvbDvuT.s 			page 121


_ZN3SCBD1Ev
_ZN3SCB4waitEv
_ZN3SCB6signalEv
_ZN9Scheduler5sleepEP3TCB
_ZN11ConsoleUtil8getInputEv
_ZN11ConsoleUtil9getOutputEv
_ZN3TCBD1Ev
_ZN15MemoryAllocator6memcpyEPvS0_m
_ZN3TCB9currentPCE
_ZN3TCB9currentSPE
_ZN11ConsoleUtil11printStringEPKc
_ZN11ConsoleUtil8printIntEiii
_ZN9Scheduler5awakeEv
_ZN3TCB16timeSliceCounterE
CONSOLE_TX_DATA
plic_claim
plic_complete
_ZN11ConsoleUtil8putInputEc
