GAS LISTING /tmp/cceSRYBb.s 			page 1


   1              		.file	"riscv.cpp"
   2              		.option pic
   3              		.option norelax
   4              		.text
   5              	.Ltext0:
   6              		.align	2
   7              		.globl	_ZN5RiscV10initializeEv
   9              	_ZN5RiscV10initializeEv:
  10              	.LFB42:
  11              		.file 1 "src/riscv.cpp"
   1:src/riscv.cpp **** //
   2:src/riscv.cpp **** // Created by os on 4/28/22.
   3:src/riscv.cpp **** //
   4:src/riscv.cpp **** 
   5:src/riscv.cpp **** #include "../h/riscv.hpp"
   6:src/riscv.cpp **** #include "../h/memoryAllocator.hpp"
   7:src/riscv.cpp **** #include "../h/tcb.hpp"
   8:src/riscv.cpp **** #include "../h/scheduler.hpp"
   9:src/riscv.cpp **** #include "../h/printing.hpp"
  10:src/riscv.cpp **** #include "../h/consoleUtil.hpp"
  11:src/riscv.cpp **** #include "../h/slabAllocator.hpp"
  12:src/riscv.cpp **** #include "../h/slab.hpp"
  13:src/riscv.cpp **** #include "../h/scb.hpp"
  14:src/riscv.cpp **** 
  15:src/riscv.cpp **** uint64 RiscV::globalTime = 0;
  16:src/riscv.cpp **** bool RiscV::userMainFinished = false;
  17:src/riscv.cpp **** 
  18:src/riscv.cpp **** //initailize each of the key components and switch to user mode for user code execution
  19:src/riscv.cpp **** void RiscV::initialize(){
  12              		.loc 1 19 25
  13              		.cfi_startproc
  14 0000 130101FF 		addi	sp,sp,-16
  15              		.cfi_def_cfa_offset 16
  16 0004 23341100 		sd	ra,8(sp)
  17 0008 23308100 		sd	s0,0(sp)
  18              		.cfi_offset 1, -8
  19              		.cfi_offset 8, -16
  20 000c 13040101 		addi	s0,sp,16
  21              		.cfi_def_cfa 8, 0
  20:src/riscv.cpp ****     RiscV::w_stvec((uint64) &RiscV::supervisorTrap);
  22              		.loc 1 20 5
  23              		.loc 1 20 19 is_stmt 0
  24 0010 97070000 		la	a5,_ZN5RiscV14supervisorTrapEv
  24      83B70700 
  25              	.LVL0:
  26              	.LBB89:
  27              	.LBB90:
  28              		.file 2 "src/../h/riscv.hpp"
   1:src/../h/riscv.hpp **** //
   2:src/../h/riscv.hpp **** // Created by os on 4/28/22.
   3:src/../h/riscv.hpp **** //
   4:src/../h/riscv.hpp **** 
   5:src/../h/riscv.hpp **** #ifndef OS1_KERNEL_RISCV_HPP
   6:src/../h/riscv.hpp **** #define OS1_KERNEL_RISCV_HPP
   7:src/../h/riscv.hpp **** #include "../lib/hw.h"
   8:src/../h/riscv.hpp **** 
   9:src/../h/riscv.hpp **** 
GAS LISTING /tmp/cceSRYBb.s 			page 2


  10:src/../h/riscv.hpp **** class RiscV{
  11:src/../h/riscv.hpp **** 
  12:src/../h/riscv.hpp ****     static uint64 globalTime;
  13:src/../h/riscv.hpp **** 
  14:src/../h/riscv.hpp ****     static bool userMainFinished;
  15:src/../h/riscv.hpp **** 
  16:src/../h/riscv.hpp ****     enum BitMaskSstatus{
  17:src/../h/riscv.hpp ****         SSTATUS_SIE = (1<<1),
  18:src/../h/riscv.hpp ****         SSTATUS_SPIE = (1<<5),
  19:src/../h/riscv.hpp ****         SSTATUS_SPP = (1<<8),
  20:src/../h/riscv.hpp ****     };
  21:src/../h/riscv.hpp **** 
  22:src/../h/riscv.hpp ****     enum BitMaskSip{
  23:src/../h/riscv.hpp ****         SIP_SSIE = (1<<1),
  24:src/../h/riscv.hpp ****         SIP_STIE = (1<<5),
  25:src/../h/riscv.hpp ****         SIP_SEIE = (1<<9),
  26:src/../h/riscv.hpp ****     };
  27:src/../h/riscv.hpp **** 
  28:src/../h/riscv.hpp ****     static void executeMemAllocSyscall();   //wrapper function for moving parameters and calling Me
  29:src/../h/riscv.hpp **** 
  30:src/../h/riscv.hpp ****     static void executeMemFreeSyscall();    //wrapper function for moving parameters and calling Me
  31:src/../h/riscv.hpp **** 
  32:src/../h/riscv.hpp ****     static void executeThreadCreateSyscall();
  33:src/../h/riscv.hpp **** 
  34:src/../h/riscv.hpp ****     static void executeThreadExitSyscall();
  35:src/../h/riscv.hpp **** 
  36:src/../h/riscv.hpp ****     static void executeThreadDispatchSyscall();
  37:src/../h/riscv.hpp **** 
  38:src/../h/riscv.hpp ****     static void executeThreadAttachBodySyscall();
  39:src/../h/riscv.hpp **** 
  40:src/../h/riscv.hpp ****     static void executeThreadStartSyscall();
  41:src/../h/riscv.hpp **** 
  42:src/../h/riscv.hpp ****     static void executeSemOpenSyscall();
  43:src/../h/riscv.hpp **** 
  44:src/../h/riscv.hpp ****     static void executeSemCloseSyscall();
  45:src/../h/riscv.hpp **** 
  46:src/../h/riscv.hpp ****     static void executeSemWaitSyscall();
  47:src/../h/riscv.hpp **** 
  48:src/../h/riscv.hpp ****     static void executeSemSignalSyscall();
  49:src/../h/riscv.hpp **** 
  50:src/../h/riscv.hpp ****     static void executeTimeSleepSyscall();
  51:src/../h/riscv.hpp **** 
  52:src/../h/riscv.hpp ****     static void executeGetcSyscall();
  53:src/../h/riscv.hpp **** 
  54:src/../h/riscv.hpp ****     static void executePutcSyscall();
  55:src/../h/riscv.hpp **** 
  56:src/../h/riscv.hpp ****     static void executePutcUtilSyscall();
  57:src/../h/riscv.hpp **** 
  58:src/../h/riscv.hpp ****     static void executeThreadFreeSyscall();
  59:src/../h/riscv.hpp **** 
  60:src/../h/riscv.hpp ****     static void executeSemaphoreFreeSyscall();
  61:src/../h/riscv.hpp **** 
  62:src/../h/riscv.hpp ****     static void executeForkSyscall();
  63:src/../h/riscv.hpp **** 
  64:src/../h/riscv.hpp ****     static void putcWrapper(void *arg);
  65:src/../h/riscv.hpp **** 
  66:src/../h/riscv.hpp ****     static uint64 r_scause();
GAS LISTING /tmp/cceSRYBb.s 			page 3


  67:src/../h/riscv.hpp **** 
  68:src/../h/riscv.hpp ****     static void w_scause(uint64 scause);
  69:src/../h/riscv.hpp **** 
  70:src/../h/riscv.hpp ****     static uint64 r_sepc();
  71:src/../h/riscv.hpp **** 
  72:src/../h/riscv.hpp ****     static void w_sepc(uint64 sepc);
  73:src/../h/riscv.hpp **** 
  74:src/../h/riscv.hpp ****     static uint64 r_stvec();
  75:src/../h/riscv.hpp **** 
  76:src/../h/riscv.hpp ****     static void w_stvec(uint64 stvec);
  77:src/../h/riscv.hpp **** 
  78:src/../h/riscv.hpp ****     static uint64 r_sstatus();
  79:src/../h/riscv.hpp **** 
  80:src/../h/riscv.hpp ****     static void w_sstatus(uint64 sstatus);
  81:src/../h/riscv.hpp **** 
  82:src/../h/riscv.hpp ****     static void ms_sstatus(uint64 mask);
  83:src/../h/riscv.hpp **** 
  84:src/../h/riscv.hpp ****     static void mc_sstatus(uint64 mask);
  85:src/../h/riscv.hpp **** 
  86:src/../h/riscv.hpp ****     static void ms_sip(uint64 mask);
  87:src/../h/riscv.hpp **** 
  88:src/../h/riscv.hpp ****     static void mc_sip(uint64 mask);
  89:src/../h/riscv.hpp **** 
  90:src/../h/riscv.hpp ****     static void ms_sie(uint64 mask);
  91:src/../h/riscv.hpp **** 
  92:src/../h/riscv.hpp ****     static void mc_sie(uint64 mask);
  93:src/../h/riscv.hpp **** 
  94:src/../h/riscv.hpp ****     static void saveA0toSscratch();
  95:src/../h/riscv.hpp **** 
  96:src/../h/riscv.hpp ****     static void jumpToDesignatedPrivilegeMode();
  97:src/../h/riscv.hpp **** 
  98:src/../h/riscv.hpp ****     static void popSppSpie();
  99:src/../h/riscv.hpp **** 
 100:src/../h/riscv.hpp ****     static void getPC();
 101:src/../h/riscv.hpp **** 
 102:src/../h/riscv.hpp ****     static void supervisorTrap();      //supervisorTrap defined in /src/supervisorTrap.S
 103:src/../h/riscv.hpp **** 
 104:src/../h/riscv.hpp ****     static void handleSupervisorTrap();
 105:src/../h/riscv.hpp **** 
 106:src/../h/riscv.hpp ****     static void enableInterrupts();
 107:src/../h/riscv.hpp **** 
 108:src/../h/riscv.hpp ****     static void disableInterrupts();
 109:src/../h/riscv.hpp **** 
 110:src/../h/riscv.hpp ****     static void enableHardwareInterrupts();
 111:src/../h/riscv.hpp **** 
 112:src/../h/riscv.hpp ****     static void disableHardwareInterrupts();
 113:src/../h/riscv.hpp **** 
 114:src/../h/riscv.hpp ****     static void enableTimerInterrupts();
 115:src/../h/riscv.hpp **** 
 116:src/../h/riscv.hpp ****     static void disableTimerInterrupts();
 117:src/../h/riscv.hpp **** 
 118:src/../h/riscv.hpp ****     static void initialize();
 119:src/../h/riscv.hpp **** 
 120:src/../h/riscv.hpp ****     static void finalize();
 121:src/../h/riscv.hpp **** 
 122:src/../h/riscv.hpp ****     friend class TCB;
 123:src/../h/riscv.hpp **** 
GAS LISTING /tmp/cceSRYBb.s 			page 4


 124:src/../h/riscv.hpp ****     friend class System;
 125:src/../h/riscv.hpp **** 
 126:src/../h/riscv.hpp ****     friend class Scheduler;
 127:src/../h/riscv.hpp **** 
 128:src/../h/riscv.hpp ****     friend class ConsoleUtil;
 129:src/../h/riscv.hpp **** };
 130:src/../h/riscv.hpp **** 
 131:src/../h/riscv.hpp **** inline uint64 RiscV::r_scause(){
 132:src/../h/riscv.hpp ****     uint64 volatile scause;
 133:src/../h/riscv.hpp ****     asm("csrr %[scause], scause" : [scause] "=r" (scause));
 134:src/../h/riscv.hpp ****     return scause;
 135:src/../h/riscv.hpp **** }
 136:src/../h/riscv.hpp **** 
 137:src/../h/riscv.hpp **** inline void RiscV::w_scause(uint64 scause){
 138:src/../h/riscv.hpp ****     asm("csrw scause, %[scause]" : : [scause] "r" (scause));
 139:src/../h/riscv.hpp **** }
 140:src/../h/riscv.hpp **** 
 141:src/../h/riscv.hpp **** inline uint64 RiscV::r_sepc(){
 142:src/../h/riscv.hpp ****     uint64 sepc;
 143:src/../h/riscv.hpp ****     asm("csrr %[sepc], sepc" : [sepc] "=r" (sepc));
 144:src/../h/riscv.hpp ****     return sepc;
 145:src/../h/riscv.hpp **** }
 146:src/../h/riscv.hpp **** 
 147:src/../h/riscv.hpp **** inline void RiscV::w_sepc(uint64 sepc){
 148:src/../h/riscv.hpp ****     asm("csrw sepc, %[sepc]" : : [sepc] "r" (sepc));
 149:src/../h/riscv.hpp **** }
 150:src/../h/riscv.hpp **** 
 151:src/../h/riscv.hpp **** inline uint64 RiscV::r_stvec(){
 152:src/../h/riscv.hpp ****     uint64 stvec;
 153:src/../h/riscv.hpp ****     asm("csrr %[stvec], stvec" : [stvec] "=r" (stvec));
 154:src/../h/riscv.hpp ****     return stvec;
 155:src/../h/riscv.hpp **** }
 156:src/../h/riscv.hpp **** 
 157:src/../h/riscv.hpp **** inline void RiscV::w_sstatus(uint64 sstatus){
 158:src/../h/riscv.hpp ****     asm("csrw sstatus, %[sstatus]" : : [sstatus] "r" (sstatus));
 159:src/../h/riscv.hpp **** }
 160:src/../h/riscv.hpp **** 
 161:src/../h/riscv.hpp **** inline uint64 RiscV::r_sstatus(){
 162:src/../h/riscv.hpp ****     uint64 sstatus;
 163:src/../h/riscv.hpp ****     asm("csrr %[sstatus], sstatus" : [sstatus] "=r" (sstatus));
 164:src/../h/riscv.hpp ****     return sstatus;
 165:src/../h/riscv.hpp **** }
 166:src/../h/riscv.hpp **** 
 167:src/../h/riscv.hpp **** inline void RiscV::w_stvec(uint64 stvec){
 168:src/../h/riscv.hpp ****     asm("csrw stvec, %[stvec]" : : [stvec] "r" (stvec));
  29              		.loc 2 168 5 is_stmt 1
  30              		.loc 2 168 56 is_stmt 0
  31              	#APP
  32              	# 168 "src/../h/riscv.hpp" 1
 169              	}
  33              		csrw stvec, a5
  34              	# 0 "" 2
  35              	.LVL1:
  36              	#NO_APP
  37              	.LBE90:
  38              	.LBE89:
  21:src/riscv.cpp ****     kmem_init(BUDDY_START_ADDR_CONST, 4096);
GAS LISTING /tmp/cceSRYBb.s 			page 5


  39              		.loc 1 21 5 is_stmt 1
  40              		.loc 1 21 15 is_stmt 0
  41 001c 97070000 		la	a5,HEAP_START_ADDR
  41      83B70700 
  42 0024 03B50700 		ld	a0,0(a5)
  43 0028 1355C500 		srli	a0,a0,12
  44 002c 13052500 		addi	a0,a0,2
  45              		.loc 1 21 14
  46 0030 B7150000 		li	a1,4096
  47 0034 1315C500 		slli	a0,a0,12
  48 0038 97000000 		call	_Z9kmem_initPvi@plt
  48      E7800000 
  49              	.LVL2:
  22:src/riscv.cpp ****     MemoryAllocator::initialize();
  50              		.loc 1 22 5 is_stmt 1
  51              		.loc 1 22 32 is_stmt 0
  52 0040 97000000 		call	_ZN15MemoryAllocator10initializeEv@plt
  52      E7800000 
  53              	.LVL3:
  23:src/riscv.cpp ****     Scheduler::initialize();
  54              		.loc 1 23 5 is_stmt 1
  55              		.loc 1 23 26 is_stmt 0
  56 0048 97000000 		call	_ZN9Scheduler10initializeEv@plt
  56      E7800000 
  57              	.LVL4:
  24:src/riscv.cpp ****     TCB::initialize();
  58              		.loc 1 24 5 is_stmt 1
  59              		.loc 1 24 20 is_stmt 0
  60 0050 97000000 		call	_ZN3TCB10initializeEv@plt
  60      E7800000 
  61              	.LVL5:
  25:src/riscv.cpp ****     SCB::initialize();
  62              		.loc 1 25 5 is_stmt 1
  63              		.loc 1 25 20 is_stmt 0
  64 0058 97000000 		call	_ZN3SCB10initializeEv@plt
  64      E7800000 
  65              	.LVL6:
  26:src/riscv.cpp ****     ConsoleUtil::initialize();
  66              		.loc 1 26 5 is_stmt 1
  67              		.loc 1 26 28 is_stmt 0
  68 0060 97000000 		call	_ZN11ConsoleUtil10initializeEv@plt
  68      E7800000 
  69              	.LVL7:
  27:src/riscv.cpp ****     RiscV::enableInterrupts();
  70              		.loc 1 27 5 is_stmt 1
 170:src/../h/riscv.hpp **** 
 171:src/../h/riscv.hpp **** inline void  RiscV::ms_sstatus(uint64 mask) {
 172:src/../h/riscv.hpp ****     asm("csrs sstatus, %[mask]" : : [mask] "r" (mask));
 173:src/../h/riscv.hpp **** }
 174:src/../h/riscv.hpp **** 
 175:src/../h/riscv.hpp **** inline void  RiscV::mc_sstatus(uint64 mask) {
 176:src/../h/riscv.hpp ****     asm("csrc sstatus, %[mask]" : : [mask] "r" (mask));
 177:src/../h/riscv.hpp **** }
 178:src/../h/riscv.hpp **** 
 179:src/../h/riscv.hpp **** inline void  RiscV::ms_sip(uint64 mask) {
 180:src/../h/riscv.hpp ****     asm("csrs sip, %[mask]" : : [mask] "r" (mask));
 181:src/../h/riscv.hpp **** }
GAS LISTING /tmp/cceSRYBb.s 			page 6


 182:src/../h/riscv.hpp **** 
 183:src/../h/riscv.hpp **** inline void  RiscV::mc_sip(uint64 mask) {
 184:src/../h/riscv.hpp ****     asm("csrc sip, %[mask]" : : [mask] "r" (mask));
 185:src/../h/riscv.hpp **** }
 186:src/../h/riscv.hpp **** 
 187:src/../h/riscv.hpp **** inline void  RiscV::ms_sie(uint64 mask) {
 188:src/../h/riscv.hpp ****     asm("csrs sie, %[mask]" : : [mask] "r" (mask));
 189:src/../h/riscv.hpp **** }
 190:src/../h/riscv.hpp **** 
 191:src/../h/riscv.hpp **** inline void  RiscV::mc_sie(uint64 mask){
 192:src/../h/riscv.hpp ****     asm("csrc sie, %[mask]" : : [mask] "r" (mask));
 193:src/../h/riscv.hpp **** }
 194:src/../h/riscv.hpp **** 
 195:src/../h/riscv.hpp **** inline void RiscV::enableInterrupts() {
 196:src/../h/riscv.hpp ****     RiscV::ms_sie(SIP_SSIE);
  71              		.loc 2 196 5
  72              	.LBB91:
  73              	.LBB92:
  74              	.LBB93:
 188:src/../h/riscv.hpp **** }
  75              		.loc 2 188 5
 188:src/../h/riscv.hpp **** }
  76              		.loc 2 188 51 is_stmt 0
  77 0068 93072000 		li	a5,2
  78              	#APP
  79              	# 188 "src/../h/riscv.hpp" 1
  80              		csrs sie, a5
  81              	# 0 "" 2
  82              	.LVL8:
  83              	#NO_APP
  84              	.LBE93:
  85              	.LBE92:
  86              	.LBE91:
 197:src/../h/riscv.hpp ****     RiscV::ms_sie(SIP_SEIE);
  87              		.loc 2 197 5 is_stmt 1
  88              	.LBB98:
  89              	.LBB94:
  90              	.LBB95:
 188:src/../h/riscv.hpp **** }
  91              		.loc 2 188 5
 188:src/../h/riscv.hpp **** }
  92              		.loc 2 188 51 is_stmt 0
  93 0070 13070020 		li	a4,512
  94              	#APP
  95              	# 188 "src/../h/riscv.hpp" 1
  96              		csrs sie, a4
  97              	# 0 "" 2
  98              	.LVL9:
  99              	#NO_APP
 100              	.LBE95:
 101              	.LBE94:
 102              	.LBE98:
 198:src/../h/riscv.hpp ****     RiscV::ms_sstatus(SSTATUS_SIE);
 103              		.loc 2 198 5 is_stmt 1
 104              	.LBB99:
 105              	.LBB96:
 106              	.LBB97:
GAS LISTING /tmp/cceSRYBb.s 			page 7


 172:src/../h/riscv.hpp **** }
 107              		.loc 2 172 5
 172:src/../h/riscv.hpp **** }
 108              		.loc 2 172 55 is_stmt 0
 109              	#APP
 110              	# 172 "src/../h/riscv.hpp" 1
 111              		csrs sstatus, a5
 112              	# 0 "" 2
 113              	.LVL10:
 114              	#NO_APP
 115              	.LBE97:
 116              	.LBE96:
 117              	.LBE99:
  28:src/riscv.cpp **** //    RiscV::enableHardwareInterrupts();
  29:src/riscv.cpp **** }
 118              		.loc 1 29 1
 119 007c 83308100 		ld	ra,8(sp)
 120              		.cfi_restore 1
 121 0080 03340100 		ld	s0,0(sp)
 122              		.cfi_restore 8
 123              		.cfi_def_cfa 2, 16
 124 0084 13010101 		addi	sp,sp,16
 125              		.cfi_def_cfa_offset 0
 126 0088 67800000 		jr	ra
 127              		.cfi_endproc
 128              	.LFE42:
 130              		.align	2
 131              		.globl	_ZN5RiscV10popSppSpieEv
 133              	_ZN5RiscV10popSppSpieEv:
 134              	.LFB43:
  30:src/riscv.cpp **** 
  31:src/riscv.cpp **** //get previous privilege and previous interrupt status
  32:src/riscv.cpp **** void RiscV::popSppSpie() {
 135              		.loc 1 32 26 is_stmt 1
 136              		.cfi_startproc
 137 008c 130101FF 		addi	sp,sp,-16
 138              		.cfi_def_cfa_offset 16
 139 0090 23348100 		sd	s0,8(sp)
 140              		.cfi_offset 8, -8
 141 0094 13040101 		addi	s0,sp,16
 142              		.cfi_def_cfa 8, 0
  33:src/riscv.cpp ****     asm("csrw sepc, ra");
 143              		.loc 1 33 5
 144              		.loc 1 33 25 is_stmt 0
 145              	#APP
 146              	# 33 "src/riscv.cpp" 1
  34              	    asm("sret");
 147              		csrw sepc, ra
 148              	# 0 "" 2
 149              		.loc 1 34 5 is_stmt 1
 150              		.loc 1 34 16 is_stmt 0
 151              	# 34 "src/riscv.cpp" 1
  35              	}
 152              		sret
 153              	# 0 "" 2
 154              		.loc 1 35 1
 155              	#NO_APP
GAS LISTING /tmp/cceSRYBb.s 			page 8


 156 00a0 03348100 		ld	s0,8(sp)
 157              		.cfi_restore 8
 158              		.cfi_def_cfa 2, 16
 159 00a4 13010101 		addi	sp,sp,16
 160              		.cfi_def_cfa_offset 0
 161 00a8 67800000 		jr	ra
 162              		.cfi_endproc
 163              	.LFE43:
 165              		.align	2
 166              		.globl	_ZN5RiscV28executeThreadDispatchSyscallEv
 168              	_ZN5RiscV28executeThreadDispatchSyscallEv:
 169              	.LFB51:
  36:src/riscv.cpp **** 
  37:src/riscv.cpp **** //handler function for traps
  38:src/riscv.cpp **** void RiscV::handleSupervisorTrap() {
  39:src/riscv.cpp **** 
  40:src/riscv.cpp ****     //read scause
  41:src/riscv.cpp ****     uint64 volatile scause = RiscV::r_scause();
  42:src/riscv.cpp **** 
  43:src/riscv.cpp ****     asm("csrr %[sscratch], sscratch" : [sscratch] "=r" (TCB::running->a0Location));
  44:src/riscv.cpp **** 
  45:src/riscv.cpp ****     //interrupt from ecall (both user and supervisor mode)
  46:src/riscv.cpp ****     if(scause == 0x09 || scause == 0x08) {
  47:src/riscv.cpp **** 
  48:src/riscv.cpp ****         //save sstatus and sepc
  49:src/riscv.cpp ****         //sepc should be increased by 4, since this is an ecall trap
  50:src/riscv.cpp ****         uint64 volatile sstatus = RiscV::r_sstatus();
  51:src/riscv.cpp ****         uint64 volatile sepc = RiscV::r_sepc()+4;
  52:src/riscv.cpp ****         TCB::running->sepc = sepc;
  53:src/riscv.cpp ****         TCB::running->sstatus = sstatus;
  54:src/riscv.cpp **** 
  55:src/riscv.cpp ****         //get the syscall ID from a0
  56:src/riscv.cpp ****         uint64 syscallID;
  57:src/riscv.cpp ****         asm("mv %[syscallID], a0" : [syscallID] "=r" (syscallID));
  58:src/riscv.cpp **** 
  59:src/riscv.cpp ****         switch(syscallID){
  60:src/riscv.cpp ****             case 0x01 : executeMemAllocSyscall();break;
  61:src/riscv.cpp ****             case 0x02 : executeMemFreeSyscall();break;
  62:src/riscv.cpp ****             case 0x11 : executeThreadCreateSyscall();break;
  63:src/riscv.cpp ****             case 0x12 : executeThreadExitSyscall();break;
  64:src/riscv.cpp ****             case 0x13 : executeThreadDispatchSyscall();break;
  65:src/riscv.cpp ****             case 0x14 : executeThreadAttachBodySyscall();break;
  66:src/riscv.cpp ****             case 0x15 : executeThreadStartSyscall();break;
  67:src/riscv.cpp ****             case 0x21 : executeSemOpenSyscall();break;
  68:src/riscv.cpp ****             case 0x22 : executeSemCloseSyscall();break;
  69:src/riscv.cpp ****             case 0x23 : executeSemWaitSyscall();break;
  70:src/riscv.cpp ****             case 0x24 : executeSemSignalSyscall();break;
  71:src/riscv.cpp ****             case 0x31 : executeTimeSleepSyscall();break;
  72:src/riscv.cpp ****             case 0x41 : executeGetcSyscall();break;
  73:src/riscv.cpp ****             case 0x42 : executePutcSyscall();break;
  74:src/riscv.cpp ****             case 0x43 : executePutcUtilSyscall();break;
  75:src/riscv.cpp ****             case 0x51 : executeThreadFreeSyscall();break;
  76:src/riscv.cpp ****             case 0x52 : executeSemaphoreFreeSyscall();break;
  77:src/riscv.cpp ****             //in this case we need to save SP and PC at this point so that newly created thread
  78:src/riscv.cpp ****             //can return to this point and exit trap routine regularly
  79:src/riscv.cpp ****             //note that getPC() returns PC incremented by 8 to skip executeForkSyscall
  80:src/riscv.cpp ****             case 0x61 : asm("mv %[sp], sp" : [sp] "=r"(TCB::currentSP));
GAS LISTING /tmp/cceSRYBb.s 			page 9


  81:src/riscv.cpp ****                         RiscV::getPC();
  82:src/riscv.cpp ****                         executeForkSyscall();
  83:src/riscv.cpp ****                         break;
  84:src/riscv.cpp ****         }
  85:src/riscv.cpp **** 
  86:src/riscv.cpp ****         //write previously save sstatus and incremented sepc
  87:src/riscv.cpp ****         RiscV::w_sstatus(TCB::running->sstatus);
  88:src/riscv.cpp ****         RiscV::w_sepc(TCB::running->sepc);
  89:src/riscv.cpp ****     }
  90:src/riscv.cpp **** 
  91:src/riscv.cpp ****     //timer interrupt (in this system's implementation, timer tick is manifested as software interr
  92:src/riscv.cpp ****     else if(scause == (0x01UL<<63 | 0x1)){
  93:src/riscv.cpp **** 
  94:src/riscv.cpp ****         //save sstatus and sepc
  95:src/riscv.cpp ****         //this time sepc remains the same
  96:src/riscv.cpp ****         uint64 volatile sstatus = RiscV::r_sstatus();
  97:src/riscv.cpp ****         uint64 volatile sepc = RiscV::r_sepc();
  98:src/riscv.cpp **** 
  99:src/riscv.cpp ****         //clear the SIP bit for software interrupt
 100:src/riscv.cpp ****         mc_sip(SIP_SSIE);
 101:src/riscv.cpp **** 
 102:src/riscv.cpp **** 
 103:src/riscv.cpp ****         //increase global time and try to awake threads that are asleep
 104:src/riscv.cpp ****         globalTime += 1;
 105:src/riscv.cpp ****         Scheduler::awake();
 106:src/riscv.cpp **** 
 107:src/riscv.cpp ****         //check whether time slice has run out for running thread
 108:src/riscv.cpp ****         //if so, dispatch
 109:src/riscv.cpp ****         TCB::timeSliceCounter++;
 110:src/riscv.cpp ****         if(TCB::timeSliceCounter >= TCB::running->timeSlice) {
 111:src/riscv.cpp **** 
 112:src/riscv.cpp ****             TCB::timeSliceCounter = 0;
 113:src/riscv.cpp **** 
 114:src/riscv.cpp ****             TCB* old = TCB::running;
 115:src/riscv.cpp **** 
 116:src/riscv.cpp ****             old->status = TCB::Status::READY;
 117:src/riscv.cpp **** 
 118:src/riscv.cpp ****             TCB::dispatch();
 119:src/riscv.cpp ****         }
 120:src/riscv.cpp **** 
 121:src/riscv.cpp ****         //write previously save sstatus and sepc
 122:src/riscv.cpp ****         RiscV::w_sstatus(sstatus);
 123:src/riscv.cpp ****         RiscV::w_sepc(sepc);
 124:src/riscv.cpp ****     }
 125:src/riscv.cpp **** 
 126:src/riscv.cpp ****     //hardware interrupt, from console (note that here we only check for keyboard interrupts, handl
 127:src/riscv.cpp ****     else if(scause == (0x01UL<<63 | 0x9)){
 128:src/riscv.cpp ****         //save sstatus and sepc
 129:src/riscv.cpp ****         //this time sepc remains the same
 130:src/riscv.cpp ****         uint64 volatile sstatus = RiscV::r_sstatus();
 131:src/riscv.cpp ****         uint64 volatile sepc = RiscV::r_sepc();
 132:src/riscv.cpp **** 
 133:src/riscv.cpp ****         //get the console status register location, and console status reg value
 134:src/riscv.cpp ****         uint64 status = CONSOLE_STATUS;
 135:src/riscv.cpp ****         asm("mv a0, %[status]" : : [status] "r" (status));
 136:src/riscv.cpp ****         asm("lb a1, 0(a0)");
 137:src/riscv.cpp ****         asm("mv %[status], a1" : [status] "=r" (status));
GAS LISTING /tmp/cceSRYBb.s 			page 10


 138:src/riscv.cpp **** 
 139:src/riscv.cpp ****         //if keyboard is ready to send data
 140:src/riscv.cpp ****         if(status & 1UL)
 141:src/riscv.cpp ****         {
 142:src/riscv.cpp ****             //fetch the character from CONSOLE_TX_DATA register
 143:src/riscv.cpp ****             uint64 data;
 144:src/riscv.cpp ****             char c;
 145:src/riscv.cpp ****             data = CONSOLE_TX_DATA;
 146:src/riscv.cpp ****             asm("mv a0, %[data]" : : [data] "r" (data));
 147:src/riscv.cpp ****             asm("lb a1, 0(a0)");
 148:src/riscv.cpp ****             asm("mv %[c], a1" : [c] "=r" (c));
 149:src/riscv.cpp **** 
 150:src/riscv.cpp ****             //if there was a getc request put the character into the input buffer, othrewise ignore
 151:src/riscv.cpp ****             if(ConsoleUtil::pendingGetc!=0) {
 152:src/riscv.cpp ****                 ConsoleUtil::pendingGetc--;
 153:src/riscv.cpp ****                 ConsoleUtil::putInput(c);
 154:src/riscv.cpp ****             }
 155:src/riscv.cpp ****         }
 156:src/riscv.cpp ****         plic_complete(plic_claim());
 157:src/riscv.cpp **** 
 158:src/riscv.cpp ****         RiscV::w_sstatus(sstatus);
 159:src/riscv.cpp ****         RiscV::w_sepc(sepc);
 160:src/riscv.cpp ****     }
 161:src/riscv.cpp **** 
 162:src/riscv.cpp ****     //illegal instruction, exit running thread
 163:src/riscv.cpp ****     else if(scause == 0x02){
 164:src/riscv.cpp ****         TCB* old = TCB::running;
 165:src/riscv.cpp ****         old->status = TCB::Status::FINISHED;
 166:src/riscv.cpp ****         ConsoleUtil::printString("sepc: ");
 167:src/riscv.cpp ****         uint64 sepc = RiscV::r_sepc();
 168:src/riscv.cpp ****         ConsoleUtil::printInt(sepc,16);
 169:src/riscv.cpp ****         ConsoleUtil::printString("\n");
 170:src/riscv.cpp ****         ConsoleUtil::printString("Illegal instruction\nExiting thread...\n");
 171:src/riscv.cpp ****         TCB::dispatch();
 172:src/riscv.cpp ****     }
 173:src/riscv.cpp **** 
 174:src/riscv.cpp ****     //some other kind of error, for more information check out RiscV handbook
 175:src/riscv.cpp ****     else{
 176:src/riscv.cpp ****         ConsoleUtil::printString("Error: \n");
 177:src/riscv.cpp ****         ConsoleUtil::printString("scause: ");
 178:src/riscv.cpp ****         uint64  scause = RiscV::r_scause();
 179:src/riscv.cpp ****         ConsoleUtil::printInt(scause);
 180:src/riscv.cpp ****         ConsoleUtil::printString("sepc: ");
 181:src/riscv.cpp ****         uint64 sepc = RiscV::r_sepc();
 182:src/riscv.cpp ****         ConsoleUtil::printInt(sepc,16);
 183:src/riscv.cpp ****         ConsoleUtil::printString("\n");
 184:src/riscv.cpp ****         TCB* old = TCB::running;
 185:src/riscv.cpp ****         old->status = TCB::Status::FINISHED;
 186:src/riscv.cpp ****         ConsoleUtil::printString("Exiting thread...\n");
 187:src/riscv.cpp ****         TCB::dispatch();
 188:src/riscv.cpp ****     }
 189:src/riscv.cpp **** 
 190:src/riscv.cpp ****     RiscV::jumpToDesignatedPrivilegeMode();
 191:src/riscv.cpp **** }
 192:src/riscv.cpp **** 
 193:src/riscv.cpp **** void RiscV::executeMemAllocSyscall(){
 194:src/riscv.cpp **** 
GAS LISTING /tmp/cceSRYBb.s 			page 11


 195:src/riscv.cpp ****     //fetch the arguments from a0-a7 registers
 196:src/riscv.cpp ****     uint64 size;
 197:src/riscv.cpp ****     asm("mv %[size], a1" : [size] "=r" (size));
 198:src/riscv.cpp **** 
 199:src/riscv.cpp ****     //call internal allocator and return the address in a0
 200:src/riscv.cpp ****     uint64 addr =(uint64)MemoryAllocator::kmalloc(size);
 201:src/riscv.cpp **** 
 202:src/riscv.cpp ****     asm("mv a0, %[addr]" : : [addr] "r" (addr));
 203:src/riscv.cpp **** 
 204:src/riscv.cpp ****     RiscV::saveA0toSscratch();
 205:src/riscv.cpp **** }
 206:src/riscv.cpp **** 
 207:src/riscv.cpp **** void RiscV::executeMemFreeSyscall() {
 208:src/riscv.cpp **** 
 209:src/riscv.cpp ****     //fetch the arguments from a0-a7 registers
 210:src/riscv.cpp ****     uint64 iaddr, status;
 211:src/riscv.cpp **** 
 212:src/riscv.cpp **** 
 213:src/riscv.cpp ****     if(MemoryAllocator::initialized) {
 214:src/riscv.cpp ****         //call internal allocator and free memory which iaddr points to
 215:src/riscv.cpp ****         asm("mv %[iaddr], a1" : [iaddr] "=r"(iaddr));
 216:src/riscv.cpp ****         status = MemoryAllocator::kfree((void *) iaddr);;
 217:src/riscv.cpp ****     }
 218:src/riscv.cpp ****     else
 219:src/riscv.cpp ****         status = -1;
 220:src/riscv.cpp **** 
 221:src/riscv.cpp ****     //return status
 222:src/riscv.cpp ****     asm("mv a0, %[status]" : : [status] "r" (status));
 223:src/riscv.cpp **** 
 224:src/riscv.cpp ****     RiscV::saveA0toSscratch();
 225:src/riscv.cpp **** }
 226:src/riscv.cpp **** 
 227:src/riscv.cpp **** void RiscV::executeThreadCreateSyscall(){
 228:src/riscv.cpp **** 
 229:src/riscv.cpp ****     //fetch the arguments from a0-a7 registers
 230:src/riscv.cpp ****     uint64 iroutine, iargs, ihandle, istack;
 231:src/riscv.cpp **** 
 232:src/riscv.cpp ****     asm("mv %[istack], a7" : [istack] "=r"(istack));
 233:src/riscv.cpp ****     asm("mv %[ihandle], a1" : [ihandle] "=r"(ihandle));
 234:src/riscv.cpp ****     asm("mv %[iroutine], a2" : [iroutine] "=r"(iroutine));
 235:src/riscv.cpp ****     asm("mv %[iargs], a3" : [iargs] "=r"(iargs));
 236:src/riscv.cpp **** 
 237:src/riscv.cpp ****     //call constructor for Thread Control Block and if not null, write thread address into ihandle
 238:src/riscv.cpp ****     TCB *tcb = new TCB((TCB::Body)iroutine, (void*)iargs, (uint64*)istack, DEFAULT_TIME_SLICE);
 239:src/riscv.cpp **** 
 240:src/riscv.cpp ****     uint64 status = 0;
 241:src/riscv.cpp **** 
 242:src/riscv.cpp ****     if(tcb == nullptr){
 243:src/riscv.cpp ****         status = -1;
 244:src/riscv.cpp ****     }
 245:src/riscv.cpp ****     else{
 246:src/riscv.cpp ****         if(tcb->body)
 247:src/riscv.cpp ****             Scheduler::put(tcb);
 248:src/riscv.cpp ****         *((TCB**)ihandle) = tcb;
 249:src/riscv.cpp ****     }
 250:src/riscv.cpp **** 
 251:src/riscv.cpp ****     //return status
GAS LISTING /tmp/cceSRYBb.s 			page 12


 252:src/riscv.cpp ****     asm("mv a0, %[status]" : : [status] "r" (status));
 253:src/riscv.cpp **** 
 254:src/riscv.cpp ****     RiscV::saveA0toSscratch();
 255:src/riscv.cpp **** }
 256:src/riscv.cpp **** 
 257:src/riscv.cpp **** void RiscV::executeThreadAttachBodySyscall(){
 258:src/riscv.cpp **** 
 259:src/riscv.cpp ****     //fetch the arguments from a0-a7 registers
 260:src/riscv.cpp ****     uint64 iroutine, iargs, ihandle, istack;
 261:src/riscv.cpp **** 
 262:src/riscv.cpp **** 
 263:src/riscv.cpp ****     asm("mv %[istack], a7" : [istack] "=r"(istack));
 264:src/riscv.cpp ****     asm("mv %[ihandle], a1" : [ihandle] "=r"(ihandle));
 265:src/riscv.cpp ****     asm("mv %[iroutine], a2" : [iroutine] "=r"(iroutine));
 266:src/riscv.cpp ****     asm("mv %[iargs], a3" : [iargs] "=r"(iargs));
 267:src/riscv.cpp **** 
 268:src/riscv.cpp ****     TCB *tcb = new TCB((TCB::Body)iroutine, (void*)iargs, (uint64*)istack, DEFAULT_TIME_SLICE);
 269:src/riscv.cpp **** 
 270:src/riscv.cpp ****     uint64 status = 0;
 271:src/riscv.cpp **** 
 272:src/riscv.cpp ****     if(tcb == nullptr){
 273:src/riscv.cpp ****         status = -1;
 274:src/riscv.cpp ****     }
 275:src/riscv.cpp ****     else{
 276:src/riscv.cpp ****         tcb->body = (TCB::Body)iroutine;
 277:src/riscv.cpp ****         tcb->args = (void*)iargs;
 278:src/riscv.cpp ****         *((TCB**)ihandle) = tcb;
 279:src/riscv.cpp ****     }
 280:src/riscv.cpp **** 
 281:src/riscv.cpp ****     asm("mv a0, %[status]" : : [status] "r" (status));
 282:src/riscv.cpp **** 
 283:src/riscv.cpp ****     RiscV::saveA0toSscratch();
 284:src/riscv.cpp **** }
 285:src/riscv.cpp **** 
 286:src/riscv.cpp **** void RiscV::executeThreadStartSyscall(){
 287:src/riscv.cpp **** 
 288:src/riscv.cpp ****     //fetch the arguments from a0-a7 registers
 289:src/riscv.cpp ****     uint64 ihandle;
 290:src/riscv.cpp **** 
 291:src/riscv.cpp ****     asm("mv %[ihandle], a1" : [ihandle] "=r"(ihandle));
 292:src/riscv.cpp **** 
 293:src/riscv.cpp ****     //get the handle and put tcb in scheduler if not null
 294:src/riscv.cpp ****     TCB* tcb =(TCB*)ihandle;
 295:src/riscv.cpp **** 
 296:src/riscv.cpp ****     uint64 status = 0;
 297:src/riscv.cpp **** 
 298:src/riscv.cpp ****     if(tcb == nullptr){
 299:src/riscv.cpp ****         status = -1;
 300:src/riscv.cpp ****     }
 301:src/riscv.cpp ****     else{
 302:src/riscv.cpp ****         tcb->status = TCB::Status::READY;
 303:src/riscv.cpp ****         Scheduler::put(tcb);
 304:src/riscv.cpp ****         TCB::dispatch();
 305:src/riscv.cpp ****     }
 306:src/riscv.cpp **** 
 307:src/riscv.cpp ****     //return status
 308:src/riscv.cpp ****     asm("mv a0, %[status]" : : [status] "r" (status));
GAS LISTING /tmp/cceSRYBb.s 			page 13


 309:src/riscv.cpp **** 
 310:src/riscv.cpp ****     RiscV::saveA0toSscratch();
 311:src/riscv.cpp **** }
 312:src/riscv.cpp **** 
 313:src/riscv.cpp **** void RiscV::executeThreadExitSyscall() {
 314:src/riscv.cpp **** 
 315:src/riscv.cpp ****     //fetch the arguments from a0-a7 registers
 316:src/riscv.cpp ****     uint64 status = 0;
 317:src/riscv.cpp **** 
 318:src/riscv.cpp ****     //if thread not null, set status to finished and dispatch
 319:src/riscv.cpp ****     if(TCB::running == nullptr){
 320:src/riscv.cpp ****         status = -1;
 321:src/riscv.cpp ****     }
 322:src/riscv.cpp ****     else{
 323:src/riscv.cpp ****         TCB* old = TCB::running;
 324:src/riscv.cpp ****         old->status = TCB::Status::FINISHED;
 325:src/riscv.cpp ****         TCB::dispatch();
 326:src/riscv.cpp ****     }
 327:src/riscv.cpp **** 
 328:src/riscv.cpp ****     asm("mv a0, %[status]" : : [status] "r" (status));
 329:src/riscv.cpp **** 
 330:src/riscv.cpp ****     RiscV::saveA0toSscratch();
 331:src/riscv.cpp **** }
 332:src/riscv.cpp **** 
 333:src/riscv.cpp **** void RiscV::executeThreadDispatchSyscall(){
 170              		.loc 1 333 43 is_stmt 1
 171              		.cfi_startproc
 172 00ac 130101FF 		addi	sp,sp,-16
 173              		.cfi_def_cfa_offset 16
 174 00b0 23341100 		sd	ra,8(sp)
 175 00b4 23308100 		sd	s0,0(sp)
 176              		.cfi_offset 1, -8
 177              		.cfi_offset 8, -16
 178 00b8 13040101 		addi	s0,sp,16
 179              		.cfi_def_cfa 8, 0
 334:src/riscv.cpp **** 
 335:src/riscv.cpp ****     //dispatch current running thread
 336:src/riscv.cpp ****     TCB* old = TCB::running;
 180              		.loc 1 336 5
 181              		.loc 1 336 10 is_stmt 0
 182 00bc 97070000 		la	a5,_ZN3TCB7runningE
 182      83B70700 
 183 00c4 83B70700 		ld	a5,0(a5)
 184              	.LVL11:
 337:src/riscv.cpp ****     old->status = TCB::Status::READY;
 185              		.loc 1 337 5 is_stmt 1
 186              		.loc 1 337 17 is_stmt 0
 187 00c8 13071000 		li	a4,1
 188 00cc 23A8E700 		sw	a4,16(a5)
 338:src/riscv.cpp ****     TCB::dispatch();
 189              		.loc 1 338 5 is_stmt 1
 190              		.loc 1 338 18 is_stmt 0
 191 00d0 97000000 		call	_ZN3TCB8dispatchEv@plt
 191      E7800000 
 192              	.LVL12:
 339:src/riscv.cpp **** }
 193              		.loc 1 339 1
GAS LISTING /tmp/cceSRYBb.s 			page 14


 194 00d8 83308100 		ld	ra,8(sp)
 195              		.cfi_restore 1
 196 00dc 03340100 		ld	s0,0(sp)
 197              		.cfi_restore 8
 198              		.cfi_def_cfa 2, 16
 199 00e0 13010101 		addi	sp,sp,16
 200              		.cfi_def_cfa_offset 0
 201 00e4 67800000 		jr	ra
 202              		.cfi_endproc
 203              	.LFE51:
 205              		.align	2
 206              		.globl	_ZN5RiscV18executePutcSyscallEv
 208              	_ZN5RiscV18executePutcSyscallEv:
 209              	.LFB58:
 340:src/riscv.cpp **** 
 341:src/riscv.cpp **** void RiscV::executeSemOpenSyscall() {
 342:src/riscv.cpp **** 
 343:src/riscv.cpp ****     //fetch the arguments from a0-a7 registers
 344:src/riscv.cpp ****     uint64 ihandle, iinit;
 345:src/riscv.cpp **** 
 346:src/riscv.cpp ****     asm("mv %[ihandle], a1" : [ihandle] "=r"(ihandle));
 347:src/riscv.cpp ****     asm("mv %[iinit], a2" : [iinit] "=r"(iinit));
 348:src/riscv.cpp **** 
 349:src/riscv.cpp ****     //create new Semaphore Control Block and write it into ihandle if not null
 350:src/riscv.cpp ****     SCB *scb = new SCB(iinit);
 351:src/riscv.cpp **** 
 352:src/riscv.cpp ****     uint64 status = 0;
 353:src/riscv.cpp **** 
 354:src/riscv.cpp ****     if(scb == nullptr){
 355:src/riscv.cpp ****         status = -1;
 356:src/riscv.cpp ****     }
 357:src/riscv.cpp ****     else{
 358:src/riscv.cpp ****         *((SCB**)ihandle) = scb;
 359:src/riscv.cpp ****     }
 360:src/riscv.cpp **** 
 361:src/riscv.cpp ****     //return status
 362:src/riscv.cpp ****     asm("mv a0, %[status]" : : [status] "r" (status));
 363:src/riscv.cpp **** 
 364:src/riscv.cpp ****     RiscV::saveA0toSscratch();
 365:src/riscv.cpp **** 
 366:src/riscv.cpp **** }
 367:src/riscv.cpp **** 
 368:src/riscv.cpp **** void RiscV::executeSemCloseSyscall() {
 369:src/riscv.cpp **** 
 370:src/riscv.cpp ****     //fetch the arguments from a0-a7 registers
 371:src/riscv.cpp ****     uint64 ihandle;
 372:src/riscv.cpp **** 
 373:src/riscv.cpp ****     asm("mv %[ihandle], a1" : [ihandle] "=r"(ihandle));
 374:src/riscv.cpp **** 
 375:src/riscv.cpp ****     //delete scb if not null
 376:src/riscv.cpp ****     SCB *scb = (SCB*)ihandle;
 377:src/riscv.cpp ****     uint64 status = 0;
 378:src/riscv.cpp **** 
 379:src/riscv.cpp ****     if(scb == nullptr){
 380:src/riscv.cpp ****         status = -1;
 381:src/riscv.cpp ****     }
 382:src/riscv.cpp ****     else
GAS LISTING /tmp/cceSRYBb.s 			page 15


 383:src/riscv.cpp ****         delete (SCB*)ihandle;
 384:src/riscv.cpp **** 
 385:src/riscv.cpp ****     //return status
 386:src/riscv.cpp ****     asm("mv a0, %[status]" : : [status] "r" (status));
 387:src/riscv.cpp **** 
 388:src/riscv.cpp ****     RiscV::saveA0toSscratch();
 389:src/riscv.cpp **** }
 390:src/riscv.cpp **** 
 391:src/riscv.cpp **** void RiscV::executeSemWaitSyscall() {
 392:src/riscv.cpp **** 
 393:src/riscv.cpp ****     //fetch the arguments from a0-a7 registers
 394:src/riscv.cpp ****     uint64 ihandle;
 395:src/riscv.cpp **** 
 396:src/riscv.cpp ****     asm("mv %[ihandle], a1" : [ihandle] "=r"(ihandle));
 397:src/riscv.cpp **** 
 398:src/riscv.cpp ****     uint64 status = 0;
 399:src/riscv.cpp ****     //call wait method on ihandle scb
 400:src/riscv.cpp **** 
 401:src/riscv.cpp ****     if(((SCB*)ihandle) != nullptr)
 402:src/riscv.cpp ****         ((SCB*)ihandle)->wait();
 403:src/riscv.cpp ****     else
 404:src/riscv.cpp ****         status = -1;
 405:src/riscv.cpp **** 
 406:src/riscv.cpp ****     if(TCB::running->semError != nullptr)
 407:src/riscv.cpp ****         status = -1;
 408:src/riscv.cpp ****     else
 409:src/riscv.cpp ****         status = 0;
 410:src/riscv.cpp **** 
 411:src/riscv.cpp ****     //return status
 412:src/riscv.cpp ****     asm("mv a0, %[status]" : : [status] "r" (status));
 413:src/riscv.cpp **** 
 414:src/riscv.cpp ****     RiscV::saveA0toSscratch();
 415:src/riscv.cpp **** 
 416:src/riscv.cpp **** }
 417:src/riscv.cpp **** 
 418:src/riscv.cpp **** void RiscV::executeSemSignalSyscall() {
 419:src/riscv.cpp **** 
 420:src/riscv.cpp ****     //fetch the arguments from a0-a7 registers
 421:src/riscv.cpp ****     uint64 ihandle;
 422:src/riscv.cpp **** 
 423:src/riscv.cpp ****     asm("mv %[ihandle], a1" : [ihandle] "=r"(ihandle));
 424:src/riscv.cpp **** 
 425:src/riscv.cpp ****     //call signal method on ihandle scb
 426:src/riscv.cpp **** 
 427:src/riscv.cpp ****     uint64 status = 0;
 428:src/riscv.cpp **** 
 429:src/riscv.cpp ****     if(((SCB*)ihandle) != nullptr)
 430:src/riscv.cpp ****         ((SCB*)ihandle)->signal();
 431:src/riscv.cpp ****     else
 432:src/riscv.cpp ****         status = -1;
 433:src/riscv.cpp **** 
 434:src/riscv.cpp ****     //return status
 435:src/riscv.cpp ****     asm("mv a0, %[status]" : : [status] "r" (status));
 436:src/riscv.cpp **** 
 437:src/riscv.cpp ****     RiscV::saveA0toSscratch();
 438:src/riscv.cpp **** }
 439:src/riscv.cpp **** 
GAS LISTING /tmp/cceSRYBb.s 			page 16


 440:src/riscv.cpp **** void RiscV::executeTimeSleepSyscall() {
 441:src/riscv.cpp **** 
 442:src/riscv.cpp ****     //fetch the arguments from a0-a7 registers
 443:src/riscv.cpp ****     uint64 itime;
 444:src/riscv.cpp **** 
 445:src/riscv.cpp ****     asm("mv %[itime], a1" : [itime] "=r"(itime));
 446:src/riscv.cpp **** 
 447:src/riscv.cpp ****     //calculate wake time for running thread and put it to sleep
 448:src/riscv.cpp ****     //fetch new running with dispatch
 449:src/riscv.cpp ****     TCB* tcb = TCB::running;
 450:src/riscv.cpp ****     tcb->sleepTime = globalTime;
 451:src/riscv.cpp ****     tcb->wakeTime = globalTime + itime;
 452:src/riscv.cpp **** 
 453:src/riscv.cpp ****     Scheduler::sleep(tcb);
 454:src/riscv.cpp **** 
 455:src/riscv.cpp ****     tcb->status = TCB::Status::BLOCKED;
 456:src/riscv.cpp **** 
 457:src/riscv.cpp ****     TCB::dispatch();
 458:src/riscv.cpp **** 
 459:src/riscv.cpp ****     uint64 status = 0;
 460:src/riscv.cpp **** 
 461:src/riscv.cpp ****     //return status
 462:src/riscv.cpp ****     asm("mv a0, %[status]" : : [status] "r" (status));
 463:src/riscv.cpp **** 
 464:src/riscv.cpp ****     RiscV::saveA0toSscratch();
 465:src/riscv.cpp **** }
 466:src/riscv.cpp **** 
 467:src/riscv.cpp **** void RiscV::executeGetcSyscall() {
 468:src/riscv.cpp **** 
 469:src/riscv.cpp ****     //register a pending getc call
 470:src/riscv.cpp ****     if(!userMainFinished)
 471:src/riscv.cpp ****         ConsoleUtil::pendingGetc++;
 472:src/riscv.cpp **** 
 473:src/riscv.cpp ****     //get character from input buffer
 474:src/riscv.cpp ****     char c = ConsoleUtil::getInput();
 475:src/riscv.cpp **** 
 476:src/riscv.cpp ****     //if char == \n echo it as LF and CR
 477:src/riscv.cpp ****     if(c==13) {
 478:src/riscv.cpp ****         ConsoleUtil::putOutput(13);
 479:src/riscv.cpp ****         ConsoleUtil::putOutput(10);
 480:src/riscv.cpp ****     }
 481:src/riscv.cpp ****     //if not ESC character, echo it to console
 482:src/riscv.cpp ****     else if(c!=0x01b)
 483:src/riscv.cpp ****         ConsoleUtil::putOutput(c);
 484:src/riscv.cpp **** 
 485:src/riscv.cpp ****     //return character
 486:src/riscv.cpp ****     asm("mv a0, %[c]" : : [c] "r" (c));
 487:src/riscv.cpp **** 
 488:src/riscv.cpp ****     RiscV::saveA0toSscratch();
 489:src/riscv.cpp **** }
 490:src/riscv.cpp **** 
 491:src/riscv.cpp **** void RiscV::executePutcSyscall() {
 210              		.loc 1 491 34 is_stmt 1
 211              		.cfi_startproc
 212 00e8 130101FF 		addi	sp,sp,-16
 213              		.cfi_def_cfa_offset 16
 214 00ec 23341100 		sd	ra,8(sp)
GAS LISTING /tmp/cceSRYBb.s 			page 17


 215 00f0 23308100 		sd	s0,0(sp)
 216              		.cfi_offset 1, -8
 217              		.cfi_offset 8, -16
 218 00f4 13040101 		addi	s0,sp,16
 219              		.cfi_def_cfa 8, 0
 492:src/riscv.cpp **** 
 493:src/riscv.cpp ****     //register a pending putc call
 494:src/riscv.cpp ****     if(!userMainFinished)
 220              		.loc 1 494 5
 221              		.loc 1 494 8 is_stmt 0
 222 00f8 97070000 		lbu	a5,.LANCHOR0
 222      83C70700 
 223              		.loc 1 494 5
 224 0100 639C0700 		bnez	a5,.L8
 495:src/riscv.cpp ****         ConsoleUtil::pendingPutc++;
 225              		.loc 1 495 9 is_stmt 1
 226              		.loc 1 495 33 is_stmt 0
 227 0104 17070000 		la	a4,_ZN11ConsoleUtil11pendingPutcE
 227      03370700 
 228 010c 83370700 		ld	a5,0(a4)
 229 0110 93871700 		addi	a5,a5,1
 230 0114 2330F700 		sd	a5,0(a4)
 231              	.L8:
 496:src/riscv.cpp **** 
 497:src/riscv.cpp ****     char c;
 232              		.loc 1 497 5 is_stmt 1
 498:src/riscv.cpp **** 
 499:src/riscv.cpp ****     asm("mv %[c], a1" : [c] "=r"(c));
 233              		.loc 1 499 5
 234              		.loc 1 499 37 is_stmt 0
 235              	#APP
 236              	# 499 "src/riscv.cpp" 1
 500              	
 237              		mv a0, a1
 238              	# 0 "" 2
 239              	.LVL13:
 501:src/riscv.cpp ****     //put character in output buffer
 502:src/riscv.cpp ****     ConsoleUtil::putOutput(c);
 240              		.loc 1 502 5 is_stmt 1
 241              		.loc 1 502 27 is_stmt 0
 242              	#NO_APP
 243 011c 1375F50F 		andi	a0,a0,0xff
 244 0120 97000000 		call	_ZN11ConsoleUtil9putOutputEc@plt
 244      E7800000 
 245              	.LVL14:
 503:src/riscv.cpp **** }
 246              		.loc 1 503 1
 247 0128 83308100 		ld	ra,8(sp)
 248              		.cfi_restore 1
 249 012c 03340100 		ld	s0,0(sp)
 250              		.cfi_restore 8
 251              		.cfi_def_cfa 2, 16
 252 0130 13010101 		addi	sp,sp,16
 253              		.cfi_def_cfa_offset 0
 254 0134 67800000 		jr	ra
 255              		.cfi_endproc
 256              	.LFE58:
GAS LISTING /tmp/cceSRYBb.s 			page 18


 258              		.align	2
 259              		.globl	_ZN5RiscV11putcWrapperEPv
 261              	_ZN5RiscV11putcWrapperEPv:
 262              	.LFB59:
 504:src/riscv.cpp **** 
 505:src/riscv.cpp **** //wrapper function for putcThread
 506:src/riscv.cpp **** //spins in a while loop and checks whether console is ready to take output
 507:src/riscv.cpp **** //if ready read data from output buffer
 508:src/riscv.cpp **** void RiscV::putcWrapper(void* arg)
 509:src/riscv.cpp **** {
 263              		.loc 1 509 1 is_stmt 1
 264              		.cfi_startproc
 265              	.LVL15:
 266 0138 130101FE 		addi	sp,sp,-32
 267              		.cfi_def_cfa_offset 32
 268 013c 233C1100 		sd	ra,24(sp)
 269 0140 23388100 		sd	s0,16(sp)
 270              		.cfi_offset 1, -8
 271              		.cfi_offset 8, -16
 272 0144 13040102 		addi	s0,sp,32
 273              		.cfi_def_cfa 8, 0
 274 0148 6F00C000 		j	.L11
 275              	.LVL16:
 276              	.L12:
 277              	.LBB100:
 278              	.LBB101:
 510:src/riscv.cpp ****     while(true)
 511:src/riscv.cpp ****     {
 512:src/riscv.cpp ****         //read console status from status register
 513:src/riscv.cpp ****         uint64 status = CONSOLE_STATUS;
 514:src/riscv.cpp ****         asm("mv a0, %[status]" : : [status] "r" (status));
 515:src/riscv.cpp ****         asm("lb a1, 0(a0)");
 516:src/riscv.cpp ****         asm("mv %[status], a1" : [status] "=r" (status));
 517:src/riscv.cpp **** 
 518:src/riscv.cpp ****         //if console ready..
 519:src/riscv.cpp ****         if(status & 1UL<<5){
 520:src/riscv.cpp **** 
 521:src/riscv.cpp ****             //get character from output buffer with possible block if nothing in buffer
 522:src/riscv.cpp ****                 char volatile c = ConsoleUtil::putcUtilSyscall();
 523:src/riscv.cpp ****                 uint64 data = CONSOLE_RX_DATA;
 524:src/riscv.cpp ****                 asm("mv a0, %[data]" : : [data] "r"(data));
 525:src/riscv.cpp ****                 asm("mv a1, %[c]" : : [c] "r"(c));
 526:src/riscv.cpp ****                 asm("sb a1,0(a0)");
 527:src/riscv.cpp **** 
 528:src/riscv.cpp ****             //decrement number of pending putc requests
 529:src/riscv.cpp ****             if(ConsoleUtil::pendingPutc>0)
 530:src/riscv.cpp ****                 ConsoleUtil::pendingPutc--;
 531:src/riscv.cpp ****         }
 532:src/riscv.cpp ****         else
 533:src/riscv.cpp ****             thread_dispatch();
 279              		.loc 1 533 13
 280              		.loc 1 533 28 is_stmt 0
 281 014c 97000000 		call	_Z15thread_dispatchv@plt
 281      E7800000 
 282              	.LVL17:
 283              	.L11:
 284              	.LBE101:
GAS LISTING /tmp/cceSRYBb.s 			page 19


 285              	.LBE100:
 510:src/riscv.cpp ****     while(true)
 286              		.loc 1 510 5 is_stmt 1
 287              	.LBB104:
 513:src/riscv.cpp ****         asm("mv a0, %[status]" : : [status] "r" (status));
 288              		.loc 1 513 9
 513:src/riscv.cpp ****         asm("mv a0, %[status]" : : [status] "r" (status));
 289              		.loc 1 513 16 is_stmt 0
 290 0154 97070000 		la	a5,CONSOLE_STATUS
 290      83B70700 
 291 015c 83B70700 		ld	a5,0(a5)
 292              	.LVL18:
 514:src/riscv.cpp ****         asm("lb a1, 0(a0)");
 293              		.loc 1 514 9 is_stmt 1
 514:src/riscv.cpp ****         asm("lb a1, 0(a0)");
 294              		.loc 1 514 58 is_stmt 0
 295              	#APP
 296              	# 514 "src/riscv.cpp" 1
 515:src/riscv.cpp ****         asm("mv %[status], a1" : [status] "=r" (status));
 297              		mv a0, a5
 298              	# 0 "" 2
 299              		.loc 1 515 9 is_stmt 1
 515:src/riscv.cpp ****         asm("mv %[status], a1" : [status] "=r" (status));
 300              		.loc 1 515 28 is_stmt 0
 301              	# 515 "src/riscv.cpp" 1
 516:src/riscv.cpp **** 
 302              		lb a1, 0(a0)
 303              	# 0 "" 2
 304              		.loc 1 516 9 is_stmt 1
 516:src/riscv.cpp **** 
 305              		.loc 1 516 57 is_stmt 0
 306              	# 516 "src/riscv.cpp" 1
 307              		mv a5, a1
 308              	# 0 "" 2
 309              	.LVL19:
 519:src/riscv.cpp **** 
 310              		.loc 1 519 9 is_stmt 1
 311              	#NO_APP
 312              	.LBB103:
 519:src/riscv.cpp **** 
 313              		.loc 1 519 19 is_stmt 0
 314 016c 93F70702 		andi	a5,a5,32
 315              	.LVL20:
 519:src/riscv.cpp **** 
 316              		.loc 1 519 9
 317 0170 E38E07FC 		beqz	a5,.L12
 318              	.LBB102:
 522:src/riscv.cpp ****                 uint64 data = CONSOLE_RX_DATA;
 319              		.loc 1 522 17 is_stmt 1
 522:src/riscv.cpp ****                 uint64 data = CONSOLE_RX_DATA;
 320              		.loc 1 522 63 is_stmt 0
 321 0174 97000000 		call	_ZN11ConsoleUtil15putcUtilSyscallEv@plt
 321      E7800000 
 322              	.LVL21:
 522:src/riscv.cpp ****                 uint64 data = CONSOLE_RX_DATA;
 323              		.loc 1 522 64
 324 017c A307A4FE 		sb	a0,-17(s0)
GAS LISTING /tmp/cceSRYBb.s 			page 20


 523:src/riscv.cpp ****                 asm("mv a0, %[data]" : : [data] "r"(data));
 325              		.loc 1 523 17 is_stmt 1
 523:src/riscv.cpp ****                 asm("mv a0, %[data]" : : [data] "r"(data));
 326              		.loc 1 523 24 is_stmt 0
 327 0180 97070000 		la	a5,CONSOLE_RX_DATA
 327      83B70700 
 328 0188 83B70700 		ld	a5,0(a5)
 329              	.LVL22:
 524:src/riscv.cpp ****                 asm("mv a1, %[c]" : : [c] "r"(c));
 330              		.loc 1 524 17 is_stmt 1
 524:src/riscv.cpp ****                 asm("mv a1, %[c]" : : [c] "r"(c));
 331              		.loc 1 524 59 is_stmt 0
 332              	#APP
 333              	# 524 "src/riscv.cpp" 1
 525:src/riscv.cpp ****                 asm("sb a1,0(a0)");
 334              		mv a0, a5
 335              	# 0 "" 2
 336              		.loc 1 525 17 is_stmt 1
 525:src/riscv.cpp ****                 asm("sb a1,0(a0)");
 337              		.loc 1 525 47 is_stmt 0
 338              	#NO_APP
 339 0190 8347F4FE 		lbu	a5,-17(s0)
 340              	.LVL23:
 525:src/riscv.cpp ****                 asm("sb a1,0(a0)");
 341              		.loc 1 525 50
 342              	#APP
 343              	# 525 "src/riscv.cpp" 1
 526:src/riscv.cpp **** 
 344              		mv a1, a5
 345              	# 0 "" 2
 346              		.loc 1 526 17 is_stmt 1
 526:src/riscv.cpp **** 
 347              		.loc 1 526 35 is_stmt 0
 348              	# 526 "src/riscv.cpp" 1
 529:src/riscv.cpp ****                 ConsoleUtil::pendingPutc--;
 349              		sb a1,0(a0)
 350              	# 0 "" 2
 351              		.loc 1 529 13 is_stmt 1
 529:src/riscv.cpp ****                 ConsoleUtil::pendingPutc--;
 352              		.loc 1 529 40 is_stmt 0
 353              	#NO_APP
 354 019c 97070000 		la	a5,_ZN11ConsoleUtil11pendingPutcE
 354      83B70700 
 355 01a4 83B70700 		ld	a5,0(a5)
 529:src/riscv.cpp ****                 ConsoleUtil::pendingPutc--;
 356              		.loc 1 529 13
 357 01a8 E38607FA 		beqz	a5,.L11
 530:src/riscv.cpp ****         }
 358              		.loc 1 530 17 is_stmt 1
 530:src/riscv.cpp ****         }
 359              		.loc 1 530 41 is_stmt 0
 360 01ac 9387F7FF 		addi	a5,a5,-1
 361 01b0 17070000 		la	a4,_ZN11ConsoleUtil11pendingPutcE
 361      03370700 
 362 01b8 2330F700 		sd	a5,0(a4)
 363 01bc 6FF09FF9 		j	.L11
 364              	.LBE102:
GAS LISTING /tmp/cceSRYBb.s 			page 21


 365              	.LBE103:
 366              	.LBE104:
 367              		.cfi_endproc
 368              	.LFE59:
 370              		.align	2
 371              		.globl	_ZN5RiscV29jumpToDesignatedPrivilegeModeEv
 373              	_ZN5RiscV29jumpToDesignatedPrivilegeModeEv:
 374              	.LFB61:
 534:src/riscv.cpp ****     }
 535:src/riscv.cpp **** }
 536:src/riscv.cpp **** 
 537:src/riscv.cpp **** //utility syscall to get character from output buffer
 538:src/riscv.cpp **** //syscall is needed because we don't want to fiddle with kernel structures from anywhere but the tr
 539:src/riscv.cpp **** void RiscV::executePutcUtilSyscall() {
 540:src/riscv.cpp ****     char c = ConsoleUtil::getOutput();
 541:src/riscv.cpp ****     asm("mv a0, %[c]" : : [c] "r" ((uint64)(c)) );
 542:src/riscv.cpp **** 
 543:src/riscv.cpp ****     RiscV::saveA0toSscratch();
 544:src/riscv.cpp **** }
 545:src/riscv.cpp **** 
 546:src/riscv.cpp **** //return to privilege that was given at creation
 547:src/riscv.cpp **** void RiscV::jumpToDesignatedPrivilegeMode() {
 375              		.loc 1 547 45 is_stmt 1
 376              		.cfi_startproc
 377 01c0 130101FF 		addi	sp,sp,-16
 378              		.cfi_def_cfa_offset 16
 379 01c4 23348100 		sd	s0,8(sp)
 380              		.cfi_offset 8, -8
 381 01c8 13040101 		addi	s0,sp,16
 382              		.cfi_def_cfa 8, 0
 548:src/riscv.cpp ****     if(TCB::running->mode == TCB::Mode::SUPERVISOR)
 383              		.loc 1 548 5
 384              		.loc 1 548 22 is_stmt 0
 385 01cc 97070000 		la	a5,_ZN3TCB7runningE
 385      83B70700 
 386 01d4 83B70700 		ld	a5,0(a5)
 387 01d8 03A74701 		lw	a4,20(a5)
 388              		.loc 1 548 5
 389 01dc 93071000 		li	a5,1
 390 01e0 630CF700 		beq	a4,a5,.L19
 549:src/riscv.cpp ****         RiscV::ms_sstatus(RiscV::SSTATUS_SPP);
 550:src/riscv.cpp ****     else
 551:src/riscv.cpp ****         RiscV::mc_sstatus(RiscV::SSTATUS_SPP);
 391              		.loc 1 551 9 is_stmt 1
 392              	.LVL24:
 393              	.LBB105:
 394              	.LBB106:
 176:src/../h/riscv.hpp **** }
 395              		.loc 2 176 5
 176:src/../h/riscv.hpp **** }
 396              		.loc 2 176 55 is_stmt 0
 397 01e4 93070010 		li	a5,256
 398              	#APP
 399              	# 176 "src/../h/riscv.hpp" 1
 400              		csrc sstatus, a5
 401              	# 0 "" 2
 402              	.LVL25:
GAS LISTING /tmp/cceSRYBb.s 			page 22


 403              	#NO_APP
 404              	.L15:
 405              	.LBE106:
 406              	.LBE105:
 552:src/riscv.cpp **** }
 407              		.loc 1 552 1
 408 01ec 03348100 		ld	s0,8(sp)
 409              		.cfi_remember_state
 410              		.cfi_restore 8
 411              		.cfi_def_cfa 2, 16
 412 01f0 13010101 		addi	sp,sp,16
 413              		.cfi_def_cfa_offset 0
 414 01f4 67800000 		jr	ra
 415              	.L19:
 416              		.cfi_restore_state
 549:src/riscv.cpp ****         RiscV::ms_sstatus(RiscV::SSTATUS_SPP);
 417              		.loc 1 549 9 is_stmt 1
 418              	.LVL26:
 419              	.LBB107:
 420              	.LBB108:
 172:src/../h/riscv.hpp **** }
 421              		.loc 2 172 5
 172:src/../h/riscv.hpp **** }
 422              		.loc 2 172 55 is_stmt 0
 423 01f8 93070010 		li	a5,256
 424              	#APP
 425              	# 172 "src/../h/riscv.hpp" 1
 173:src/../h/riscv.hpp **** 
 426              		csrs sstatus, a5
 427              	# 0 "" 2
 428              		.loc 2 173 1
 429              	#NO_APP
 430 0200 6FF0DFFE 		j	.L15
 431              	.LBE108:
 432              	.LBE107:
 433              		.cfi_endproc
 434              	.LFE61:
 436              		.align	2
 437              		.globl	_ZN5RiscV8finalizeEv
 439              	_ZN5RiscV8finalizeEv:
 440              	.LFB62:
 553:src/riscv.cpp **** 
 554:src/riscv.cpp **** 
 555:src/riscv.cpp **** //clear out the scheduler and let console finish remaining outputs if there are any
 556:src/riscv.cpp **** void RiscV::finalize() {
 441              		.loc 1 556 24 is_stmt 1
 442              		.cfi_startproc
 443 0204 130101FF 		addi	sp,sp,-16
 444              		.cfi_def_cfa_offset 16
 445 0208 23341100 		sd	ra,8(sp)
 446 020c 23308100 		sd	s0,0(sp)
 447              		.cfi_offset 1, -8
 448              		.cfi_offset 8, -16
 449 0210 13040101 		addi	s0,sp,16
 450              		.cfi_def_cfa 8, 0
 557:src/riscv.cpp ****     userMainFinished = true;
 451              		.loc 1 557 5
GAS LISTING /tmp/cceSRYBb.s 			page 23


 452              		.loc 1 557 22 is_stmt 0
 453 0214 93071000 		li	a5,1
 454 0218 17070000 		sb	a5,.LANCHOR0,a4
 454      2300F700 
 558:src/riscv.cpp **** 
 559:src/riscv.cpp ****     ConsoleUtil::pendingPutc = 0;
 455              		.loc 1 559 5 is_stmt 1
 456              		.loc 1 559 30 is_stmt 0
 457 0220 97070000 		la	a5,_ZN11ConsoleUtil11pendingPutcE
 457      83B70700 
 458 0228 23B00700 		sd	zero,0(a5)
 560:src/riscv.cpp ****     ConsoleUtil::pendingGetc = 0;
 459              		.loc 1 560 5 is_stmt 1
 460              		.loc 1 560 30 is_stmt 0
 461 022c 97070000 		la	a5,_ZN11ConsoleUtil11pendingGetcE
 461      83B70700 
 462 0234 23B00700 		sd	zero,0(a5)
 561:src/riscv.cpp **** 
 562:src/riscv.cpp ****     RiscV::disableInterrupts();
 463              		.loc 1 562 5 is_stmt 1
 464              	.LBB109:
 465              	.LBB110:
 199:src/../h/riscv.hpp **** }
 200:src/../h/riscv.hpp **** 
 201:src/../h/riscv.hpp **** inline void RiscV::disableInterrupts() {
 202:src/../h/riscv.hpp ****     disableTimerInterrupts();
 466              		.loc 2 202 5
 467              	.LBE110:
 468              	.LBE109:
 203:src/../h/riscv.hpp ****     disableHardwareInterrupts();
 204:src/../h/riscv.hpp **** }
 205:src/../h/riscv.hpp **** 
 206:src/../h/riscv.hpp **** inline void RiscV::enableHardwareInterrupts() {
 207:src/../h/riscv.hpp ****     RiscV::mc_sie(SIP_SSIE);
 208:src/../h/riscv.hpp ****     RiscV::ms_sstatus(SSTATUS_SIE);
 209:src/../h/riscv.hpp ****     RiscV::ms_sie(SIP_SEIE);
 210:src/../h/riscv.hpp **** }
 211:src/../h/riscv.hpp **** 
 212:src/../h/riscv.hpp **** inline void RiscV::disableHardwareInterrupts(){
 213:src/../h/riscv.hpp ****     RiscV::mc_sie(SIP_SEIE);
 214:src/../h/riscv.hpp **** }
 215:src/../h/riscv.hpp **** 
 216:src/../h/riscv.hpp **** inline void RiscV::enableTimerInterrupts() {
 217:src/../h/riscv.hpp ****     RiscV::mc_sie(SIP_SEIE);
 218:src/../h/riscv.hpp ****     RiscV::ms_sstatus(SSTATUS_SIE);
 219:src/../h/riscv.hpp ****     RiscV::ms_sie(SIP_SSIE);
 220:src/../h/riscv.hpp **** }
 221:src/../h/riscv.hpp **** 
 222:src/../h/riscv.hpp **** inline void RiscV::disableTimerInterrupts(){
 223:src/../h/riscv.hpp ****     RiscV::mc_sie(SIP_SSIE);
 469              		.loc 2 223 5
 470              	.LVL27:
 471              	.LBB119:
 472              	.LBB117:
 473              	.LBB111:
 474              	.LBB112:
 475              	.LBB113:
GAS LISTING /tmp/cceSRYBb.s 			page 24


 192:src/../h/riscv.hpp **** }
 476              		.loc 2 192 5
 192:src/../h/riscv.hpp **** }
 477              		.loc 2 192 51 is_stmt 0
 478 0238 93072000 		li	a5,2
 479              	#APP
 480              	# 192 "src/../h/riscv.hpp" 1
 481              		csrc sie, a5
 482              	# 0 "" 2
 483              	.LVL28:
 484              	#NO_APP
 485              	.LBE113:
 486              	.LBE112:
 487              	.LBE111:
 203:src/../h/riscv.hpp ****     disableHardwareInterrupts();
 488              		.loc 2 203 5 is_stmt 1
 489              	.LBE117:
 490              	.LBE119:
 213:src/../h/riscv.hpp **** }
 491              		.loc 2 213 5
 492              	.LBB120:
 493              	.LBB118:
 494              	.LBB114:
 495              	.LBB115:
 496              	.LBB116:
 192:src/../h/riscv.hpp **** }
 497              		.loc 2 192 5
 192:src/../h/riscv.hpp **** }
 498              		.loc 2 192 51 is_stmt 0
 499 0240 93070020 		li	a5,512
 500              	#APP
 501              	# 192 "src/../h/riscv.hpp" 1
 502              		csrc sie, a5
 503              	# 0 "" 2
 504              	.LVL29:
 505              	#NO_APP
 506              	.L22:
 507              	.LBE116:
 508              	.LBE115:
 509              	.LBE114:
 510              	.LBE118:
 511              	.LBE120:
 563:src/riscv.cpp **** 
 564:src/riscv.cpp ****     while(Scheduler::readyHead != nullptr)
 512              		.loc 1 564 5 is_stmt 1
 513              		.loc 1 564 32
 514 0248 97070000 		la	a5,_ZN9Scheduler9readyHeadE
 514      83B70700 
 515 0250 83B70700 		ld	a5,0(a5)
 516 0254 638C0700 		beqz	a5,.L21
 565:src/riscv.cpp ****         Scheduler::readyHead = Scheduler::readyHead->next;
 517              		.loc 1 565 9
 518              		.loc 1 565 54 is_stmt 0
 519 0258 03B78704 		ld	a4,72(a5)
 520              		.loc 1 565 30
 521 025c 97070000 		la	a5,_ZN9Scheduler9readyHeadE
 521      83B70700 
GAS LISTING /tmp/cceSRYBb.s 			page 25


 522 0264 23B0E700 		sd	a4,0(a5)
 564:src/riscv.cpp ****         Scheduler::readyHead = Scheduler::readyHead->next;
 523              		.loc 1 564 5
 524 0268 6FF01FFE 		j	.L22
 525              	.L21:
 566:src/riscv.cpp **** 
 567:src/riscv.cpp ****     Scheduler::put(TCB::putcThread);
 526              		.loc 1 567 5 is_stmt 1
 527              		.loc 1 567 19 is_stmt 0
 528 026c 97070000 		la	a5,_ZN3TCB10putcThreadE
 528      83B70700 
 529 0274 03B50700 		ld	a0,0(a5)
 530 0278 97000000 		call	_ZN9Scheduler3putEP3TCB@plt
 530      E7800000 
 531              	.LVL30:
 532              	.L24:
 568:src/riscv.cpp **** 
 569:src/riscv.cpp ****     while(ConsoleUtil::outputHead != ConsoleUtil::outputTail)
 533              		.loc 1 569 5 is_stmt 1
 534              		.loc 1 569 35
 535 0280 97070000 		la	a5,_ZN11ConsoleUtil10outputHeadE
 535      83B70700 
 536 0288 03B70700 		ld	a4,0(a5)
 537 028c 97070000 		la	a5,_ZN11ConsoleUtil10outputTailE
 537      83B70700 
 538 0294 83B70700 		ld	a5,0(a5)
 539 0298 6308F700 		beq	a4,a5,.L20
 570:src/riscv.cpp ****         thread_dispatch();
 540              		.loc 1 570 9
 541              		.loc 1 570 24 is_stmt 0
 542 029c 97000000 		call	_Z15thread_dispatchv@plt
 542      E7800000 
 543              	.LVL31:
 569:src/riscv.cpp ****         thread_dispatch();
 544              		.loc 1 569 5
 545 02a4 6FF0DFFD 		j	.L24
 546              	.L20:
 571:src/riscv.cpp **** }
 547              		.loc 1 571 1
 548 02a8 83308100 		ld	ra,8(sp)
 549              		.cfi_restore 1
 550 02ac 03340100 		ld	s0,0(sp)
 551              		.cfi_restore 8
 552              		.cfi_def_cfa 2, 16
 553 02b0 13010101 		addi	sp,sp,16
 554              		.cfi_def_cfa_offset 0
 555 02b4 67800000 		jr	ra
 556              		.cfi_endproc
 557              	.LFE62:
 559              		.align	2
 560              		.globl	_ZN5RiscV16saveA0toSscratchEv
 562              	_ZN5RiscV16saveA0toSscratchEv:
 563              	.LFB63:
 572:src/riscv.cpp **** 
 573:src/riscv.cpp **** //write value in a0 to a memory location where a0 is store on stack for currently running thread
 574:src/riscv.cpp **** void RiscV::saveA0toSscratch()
 575:src/riscv.cpp **** {
GAS LISTING /tmp/cceSRYBb.s 			page 26


 564              		.loc 1 575 1 is_stmt 1
 565              		.cfi_startproc
 566 02b8 130101FF 		addi	sp,sp,-16
 567              		.cfi_def_cfa_offset 16
 568 02bc 23348100 		sd	s0,8(sp)
 569              		.cfi_offset 8, -8
 570 02c0 13040101 		addi	s0,sp,16
 571              		.cfi_def_cfa 8, 0
 576:src/riscv.cpp ****     uint64 a1;
 572              		.loc 1 576 5
 577:src/riscv.cpp ****     asm("mv %[a1], a1": [a1] "=r"(a1));
 573              		.loc 1 577 5
 574              		.loc 1 577 39 is_stmt 0
 575              	#APP
 576              	# 577 "src/riscv.cpp" 1
 578              	    asm("mv a1, %[a0]" : :  [a0] "r"(TCB::running->a0Location));
 577              		mv a5, a1
 578              	# 0 "" 2
 579              		.loc 1 578 5 is_stmt 1
 580              		.loc 1 578 52 is_stmt 0
 581              	#NO_APP
 582 02c8 17070000 		la	a4,_ZN3TCB7runningE
 582      03370700 
 583 02d0 03370700 		ld	a4,0(a4)
 584 02d4 03378706 		ld	a4,104(a4)
 585              		.loc 1 578 64
 586              	#APP
 587              	# 578 "src/riscv.cpp" 1
 579              	    asm("sd a0, 80(a1)");
 588              		mv a1, a4
 589              	# 0 "" 2
 590              		.loc 1 579 5 is_stmt 1
 591              		.loc 1 579 25 is_stmt 0
 592              	# 579 "src/riscv.cpp" 1
 580              	    asm("mv a1,%[a1]"::  [a1]"r"(a1));
 593              		sd a0, 80(a1)
 594              	# 0 "" 2
 595              		.loc 1 580 5 is_stmt 1
 596              		.loc 1 580 38 is_stmt 0
 597              	# 580 "src/riscv.cpp" 1
 581              	}
 598              		mv a1,a5
 599              	# 0 "" 2
 600              		.loc 1 581 1
 601              	#NO_APP
 602 02e4 03348100 		ld	s0,8(sp)
 603              		.cfi_restore 8
 604              		.cfi_def_cfa 2, 16
 605 02e8 13010101 		addi	sp,sp,16
 606              		.cfi_def_cfa_offset 0
 607 02ec 67800000 		jr	ra
 608              		.cfi_endproc
 609              	.LFE63:
 611              		.align	2
 612              		.globl	_ZN5RiscV22executeMemAllocSyscallEv
 614              	_ZN5RiscV22executeMemAllocSyscallEv:
 615              	.LFB45:
GAS LISTING /tmp/cceSRYBb.s 			page 27


 193:src/riscv.cpp **** 
 616              		.loc 1 193 37 is_stmt 1
 617              		.cfi_startproc
 618 02f0 130101FF 		addi	sp,sp,-16
 619              		.cfi_def_cfa_offset 16
 620 02f4 23341100 		sd	ra,8(sp)
 621 02f8 23308100 		sd	s0,0(sp)
 622              		.cfi_offset 1, -8
 623              		.cfi_offset 8, -16
 624 02fc 13040101 		addi	s0,sp,16
 625              		.cfi_def_cfa 8, 0
 196:src/riscv.cpp ****     asm("mv %[size], a1" : [size] "=r" (size));
 626              		.loc 1 196 5
 197:src/riscv.cpp **** 
 627              		.loc 1 197 5
 197:src/riscv.cpp **** 
 628              		.loc 1 197 47 is_stmt 0
 629              	#APP
 630              	# 197 "src/riscv.cpp" 1
 631              		mv a0, a1
 632              	# 0 "" 2
 633              	.LVL32:
 200:src/riscv.cpp **** 
 634              		.loc 1 200 5 is_stmt 1
 200:src/riscv.cpp **** 
 635              		.loc 1 200 50 is_stmt 0
 636              	#NO_APP
 637 0304 97000000 		call	_ZN15MemoryAllocator7kmallocEm@plt
 637      E7800000 
 638              	.LVL33:
 202:src/riscv.cpp **** 
 639              		.loc 1 202 5 is_stmt 1
 202:src/riscv.cpp **** 
 640              		.loc 1 202 48 is_stmt 0
 641              	#APP
 642              	# 202 "src/riscv.cpp" 1
 204:src/riscv.cpp **** }
 643              		mv a0, a0
 644              	# 0 "" 2
 645              		.loc 1 204 5 is_stmt 1
 204:src/riscv.cpp **** }
 646              		.loc 1 204 28 is_stmt 0
 647              	#NO_APP
 648 0310 97000000 		call	_ZN5RiscV16saveA0toSscratchEv
 648      E7800000 
 649              	.LVL34:
 205:src/riscv.cpp **** 
 650              		.loc 1 205 1
 651 0318 83308100 		ld	ra,8(sp)
 652              		.cfi_restore 1
 653 031c 03340100 		ld	s0,0(sp)
 654              		.cfi_restore 8
 655              		.cfi_def_cfa 2, 16
 656 0320 13010101 		addi	sp,sp,16
 657              		.cfi_def_cfa_offset 0
 658 0324 67800000 		jr	ra
 659              		.cfi_endproc
GAS LISTING /tmp/cceSRYBb.s 			page 28


 660              	.LFE45:
 662              		.align	2
 663              		.globl	_ZN5RiscV21executeMemFreeSyscallEv
 665              	_ZN5RiscV21executeMemFreeSyscallEv:
 666              	.LFB46:
 207:src/riscv.cpp **** 
 667              		.loc 1 207 37 is_stmt 1
 668              		.cfi_startproc
 669 0328 130101FF 		addi	sp,sp,-16
 670              		.cfi_def_cfa_offset 16
 671 032c 23341100 		sd	ra,8(sp)
 672 0330 23308100 		sd	s0,0(sp)
 673              		.cfi_offset 1, -8
 674              		.cfi_offset 8, -16
 675 0334 13040101 		addi	s0,sp,16
 676              		.cfi_def_cfa 8, 0
 210:src/riscv.cpp **** 
 677              		.loc 1 210 5
 213:src/riscv.cpp ****         //call internal allocator and free memory which iaddr points to
 678              		.loc 1 213 5
 679 0338 97070000 		la	a5,_ZN15MemoryAllocator11initializedE
 679      83B70700 
 680 0340 83C70700 		lbu	a5,0(a5)
 681 0344 63920702 		bnez	a5,.L34
 219:src/riscv.cpp **** 
 682              		.loc 1 219 16 is_stmt 0
 683 0348 1305F0FF 		li	a0,-1
 684              	.L31:
 685              	.LVL35:
 222:src/riscv.cpp **** 
 686              		.loc 1 222 5 is_stmt 1
 222:src/riscv.cpp **** 
 687              		.loc 1 222 54 is_stmt 0
 688              	#APP
 689              	# 222 "src/riscv.cpp" 1
 224:src/riscv.cpp **** }
 690              		mv a0, a0
 691              	# 0 "" 2
 692              		.loc 1 224 5 is_stmt 1
 224:src/riscv.cpp **** }
 693              		.loc 1 224 28 is_stmt 0
 694              	#NO_APP
 695 0350 97000000 		call	_ZN5RiscV16saveA0toSscratchEv
 695      E7800000 
 696              	.LVL36:
 225:src/riscv.cpp **** 
 697              		.loc 1 225 1
 698 0358 83308100 		ld	ra,8(sp)
 699              		.cfi_remember_state
 700              		.cfi_restore 1
 701 035c 03340100 		ld	s0,0(sp)
 702              		.cfi_restore 8
 703              		.cfi_def_cfa 2, 16
 704 0360 13010101 		addi	sp,sp,16
 705              		.cfi_def_cfa_offset 0
 706 0364 67800000 		jr	ra
 707              	.L34:
GAS LISTING /tmp/cceSRYBb.s 			page 29


 708              		.cfi_restore_state
 215:src/riscv.cpp ****         status = MemoryAllocator::kfree((void *) iaddr);;
 709              		.loc 1 215 9 is_stmt 1
 215:src/riscv.cpp ****         status = MemoryAllocator::kfree((void *) iaddr);;
 710              		.loc 1 215 53 is_stmt 0
 711              	#APP
 712              	# 215 "src/riscv.cpp" 1
 713              		mv a0, a1
 714              	# 0 "" 2
 715              	.LVL37:
 216:src/riscv.cpp ****     }
 716              		.loc 1 216 9 is_stmt 1
 216:src/riscv.cpp ****     }
 717              		.loc 1 216 40 is_stmt 0
 718              	#NO_APP
 719 036c 97000000 		call	_ZN15MemoryAllocator5kfreeEPv@plt
 719      E7800000 
 720              	.LVL38:
 216:src/riscv.cpp ****     }
 721              		.loc 1 216 57 is_stmt 1
 722 0374 6FF09FFD 		j	.L31
 723              		.cfi_endproc
 724              	.LFE46:
 726              		.align	2
 727              		.globl	_ZN5RiscV26executeThreadCreateSyscallEv
 729              	_ZN5RiscV26executeThreadCreateSyscallEv:
 730              	.LFB47:
 227:src/riscv.cpp **** 
 731              		.loc 1 227 41
 732              		.cfi_startproc
 733              		.cfi_personality 0x9b,DW.ref.__gxx_personality_v0
 734              		.cfi_lsda 0x1b,.LLSDA47
 735 0378 130101FC 		addi	sp,sp,-64
 736              		.cfi_def_cfa_offset 64
 737 037c 233C1102 		sd	ra,56(sp)
 738 0380 23388102 		sd	s0,48(sp)
 739 0384 23349102 		sd	s1,40(sp)
 740 0388 23302103 		sd	s2,32(sp)
 741 038c 233C3101 		sd	s3,24(sp)
 742 0390 23384101 		sd	s4,16(sp)
 743 0394 23345101 		sd	s5,8(sp)
 744              		.cfi_offset 1, -8
 745              		.cfi_offset 8, -16
 746              		.cfi_offset 9, -24
 747              		.cfi_offset 18, -32
 748              		.cfi_offset 19, -40
 749              		.cfi_offset 20, -48
 750              		.cfi_offset 21, -56
 751 0398 13040104 		addi	s0,sp,64
 752              		.cfi_def_cfa 8, 0
 230:src/riscv.cpp **** 
 753              		.loc 1 230 5
 232:src/riscv.cpp ****     asm("mv %[ihandle], a1" : [ihandle] "=r"(ihandle));
 754              		.loc 1 232 5
 232:src/riscv.cpp ****     asm("mv %[ihandle], a1" : [ihandle] "=r"(ihandle));
 755              		.loc 1 232 52 is_stmt 0
 756              	#APP
GAS LISTING /tmp/cceSRYBb.s 			page 30


 757              	# 232 "src/riscv.cpp" 1
 233:src/riscv.cpp ****     asm("mv %[iroutine], a2" : [iroutine] "=r"(iroutine));
 758              		mv s4, a7
 759              	# 0 "" 2
 760              		.loc 1 233 5 is_stmt 1
 233:src/riscv.cpp ****     asm("mv %[iroutine], a2" : [iroutine] "=r"(iroutine));
 761              		.loc 1 233 55 is_stmt 0
 762              	# 233 "src/riscv.cpp" 1
 763              		mv s5, a1
 764              	# 0 "" 2
 765              	.LVL39:
 234:src/riscv.cpp ****     asm("mv %[iargs], a3" : [iargs] "=r"(iargs));
 766              		.loc 1 234 5 is_stmt 1
 234:src/riscv.cpp ****     asm("mv %[iargs], a3" : [iargs] "=r"(iargs));
 767              		.loc 1 234 58 is_stmt 0
 768              	# 234 "src/riscv.cpp" 1
 235:src/riscv.cpp **** 
 769              		mv s2, a2
 770              	# 0 "" 2
 771              		.loc 1 235 5 is_stmt 1
 235:src/riscv.cpp **** 
 772              		.loc 1 235 49 is_stmt 0
 773              	# 235 "src/riscv.cpp" 1
 238:src/riscv.cpp **** 
 774              		mv s3, a3
 775              	# 0 "" 2
 776              		.loc 1 238 5 is_stmt 1
 238:src/riscv.cpp **** 
 777              		.loc 1 238 94 is_stmt 0
 778              	#NO_APP
 779 03ac 13050007 		li	a0,112
 780              	.LEHB0:
 781 03b0 97000000 		call	_ZN3TCBnwEm@plt
 781      E7800000 
 782              	.LVL40:
 783              	.LEHE0:
 784 03b8 93040500 		mv	s1,a0
 785 03bc 13072000 		li	a4,2
 786 03c0 93060A00 		mv	a3,s4
 787 03c4 13860900 		mv	a2,s3
 788 03c8 93050900 		mv	a1,s2
 789              	.LEHB1:
 790 03cc 97000000 		call	_ZN3TCBC1EPFvPvES0_Pmm@plt
 790      E7800000 
 791              	.LVL41:
 792              	.LEHE1:
 240:src/riscv.cpp **** 
 793              		.loc 1 240 5 is_stmt 1 discriminator 2
 242:src/riscv.cpp ****         status = -1;
 794              		.loc 1 242 5 discriminator 2
 795 03d4 63880404 		beqz	s1,.L39
 246:src/riscv.cpp ****             Scheduler::put(tcb);
 796              		.loc 1 246 9
 246:src/riscv.cpp ****             Scheduler::put(tcb);
 797              		.loc 1 246 17 is_stmt 0
 798 03d8 83B78401 		ld	a5,24(s1)
 246:src/riscv.cpp ****             Scheduler::put(tcb);
GAS LISTING /tmp/cceSRYBb.s 			page 31


 799              		.loc 1 246 9
 800 03dc 63880700 		beqz	a5,.L37
 247:src/riscv.cpp ****         *((TCB**)ihandle) = tcb;
 801              		.loc 1 247 13 is_stmt 1
 247:src/riscv.cpp ****         *((TCB**)ihandle) = tcb;
 802              		.loc 1 247 27 is_stmt 0
 803 03e0 13850400 		mv	a0,s1
 804              	.LEHB2:
 805 03e4 97000000 		call	_ZN9Scheduler3putEP3TCB@plt
 805      E7800000 
 806              	.LVL42:
 807              	.LEHE2:
 808              	.L37:
 248:src/riscv.cpp ****     }
 809              		.loc 1 248 9 is_stmt 1
 248:src/riscv.cpp ****     }
 810              		.loc 1 248 27 is_stmt 0
 811 03ec 23B09A00 		sd	s1,0(s5)
 240:src/riscv.cpp **** 
 812              		.loc 1 240 12
 813 03f0 93070000 		li	a5,0
 814              	.L36:
 815              	.LVL43:
 252:src/riscv.cpp **** 
 816              		.loc 1 252 5 is_stmt 1
 252:src/riscv.cpp **** 
 817              		.loc 1 252 54 is_stmt 0
 818              	#APP
 819              	# 252 "src/riscv.cpp" 1
 254:src/riscv.cpp **** }
 820              		mv a0, a5
 821              	# 0 "" 2
 822              		.loc 1 254 5 is_stmt 1
 254:src/riscv.cpp **** }
 823              		.loc 1 254 28 is_stmt 0
 824              	#NO_APP
 825 03f8 97000000 		call	_ZN5RiscV16saveA0toSscratchEv
 825      E7800000 
 826              	.LVL44:
 255:src/riscv.cpp **** 
 827              		.loc 1 255 1
 828 0400 83308103 		ld	ra,56(sp)
 829              		.cfi_remember_state
 830              		.cfi_restore 1
 831 0404 03340103 		ld	s0,48(sp)
 832              		.cfi_restore 8
 833              		.cfi_def_cfa 2, 64
 834 0408 83348102 		ld	s1,40(sp)
 835              		.cfi_restore 9
 836              	.LVL45:
 837 040c 03390102 		ld	s2,32(sp)
 838              		.cfi_restore 18
 839 0410 83398101 		ld	s3,24(sp)
 840              		.cfi_restore 19
 841 0414 033A0101 		ld	s4,16(sp)
 842              		.cfi_restore 20
 843 0418 833A8100 		ld	s5,8(sp)
GAS LISTING /tmp/cceSRYBb.s 			page 32


 844              		.cfi_restore 21
 845              	.LVL46:
 846 041c 13010104 		addi	sp,sp,64
 847              		.cfi_def_cfa_offset 0
 848 0420 67800000 		jr	ra
 849              	.LVL47:
 850              	.L39:
 851              		.cfi_restore_state
 243:src/riscv.cpp ****     }
 852              		.loc 1 243 16
 853 0424 9307F0FF 		li	a5,-1
 854 0428 6FF0DFFC 		j	.L36
 855              	.LVL48:
 856              	.L40:
 857 042c 13090500 		mv	s2,a0
 238:src/riscv.cpp **** 
 858              		.loc 1 238 94
 859 0430 13850400 		mv	a0,s1
 860 0434 97000000 		call	_ZN3TCBdlEPv@plt
 860      E7800000 
 861              	.LVL49:
 862 043c 13050900 		mv	a0,s2
 863              	.LEHB3:
 864 0440 97000000 		call	_Unwind_Resume@plt
 864      E7800000 
 865              	.LVL50:
 866              	.LEHE3:
 867              		.cfi_endproc
 868              	.LFE47:
 869              		.globl	__gxx_personality_v0
 870              		.section	.gcc_except_table,"a",@progbits
 871              	.LLSDA47:
 872 0000 FF       		.byte	0xff
 873 0001 FF       		.byte	0xff
 874 0002 03       		.byte	0x3
 875 0003 34       		.byte	0x34
 876 0004 00000000 		.4byte	.LEHB0-.LFB47
 877 0008 00000000 		.4byte	.LEHE0-.LEHB0
 878 000c 00000000 		.4byte	0
 879 0010 00       		.byte	0
 880 0011 00000000 		.4byte	.LEHB1-.LFB47
 881 0015 00000000 		.4byte	.LEHE1-.LEHB1
 882 0019 00000000 		.4byte	.L40-.LFB47
 883 001d 00       		.byte	0
 884 001e 00000000 		.4byte	.LEHB2-.LFB47
 885 0022 00000000 		.4byte	.LEHE2-.LEHB2
 886 0026 00000000 		.4byte	0
 887 002a 00       		.byte	0
 888 002b 00000000 		.4byte	.LEHB3-.LFB47
 889 002f 00000000 		.4byte	.LEHE3-.LEHB3
 890 0033 00000000 		.4byte	0
 891 0037 00       		.byte	0
 892              		.text
 894              		.align	2
 895              		.globl	_ZN5RiscV30executeThreadAttachBodySyscallEv
 897              	_ZN5RiscV30executeThreadAttachBodySyscallEv:
 898              	.LFB48:
GAS LISTING /tmp/cceSRYBb.s 			page 33


 257:src/riscv.cpp **** 
 899              		.loc 1 257 45 is_stmt 1
 900              		.cfi_startproc
 901              		.cfi_personality 0x9b,DW.ref.__gxx_personality_v0
 902              		.cfi_lsda 0x1b,.LLSDA48
 903 0448 130101FC 		addi	sp,sp,-64
 904              		.cfi_def_cfa_offset 64
 905 044c 233C1102 		sd	ra,56(sp)
 906 0450 23388102 		sd	s0,48(sp)
 907 0454 23349102 		sd	s1,40(sp)
 908 0458 23302103 		sd	s2,32(sp)
 909 045c 233C3101 		sd	s3,24(sp)
 910 0460 23384101 		sd	s4,16(sp)
 911 0464 23345101 		sd	s5,8(sp)
 912              		.cfi_offset 1, -8
 913              		.cfi_offset 8, -16
 914              		.cfi_offset 9, -24
 915              		.cfi_offset 18, -32
 916              		.cfi_offset 19, -40
 917              		.cfi_offset 20, -48
 918              		.cfi_offset 21, -56
 919 0468 13040104 		addi	s0,sp,64
 920              		.cfi_def_cfa 8, 0
 260:src/riscv.cpp **** 
 921              		.loc 1 260 5
 263:src/riscv.cpp ****     asm("mv %[ihandle], a1" : [ihandle] "=r"(ihandle));
 922              		.loc 1 263 5
 263:src/riscv.cpp ****     asm("mv %[ihandle], a1" : [ihandle] "=r"(ihandle));
 923              		.loc 1 263 52 is_stmt 0
 924              	#APP
 925              	# 263 "src/riscv.cpp" 1
 264:src/riscv.cpp ****     asm("mv %[iroutine], a2" : [iroutine] "=r"(iroutine));
 926              		mv s2, a7
 927              	# 0 "" 2
 928              		.loc 1 264 5 is_stmt 1
 264:src/riscv.cpp ****     asm("mv %[iroutine], a2" : [iroutine] "=r"(iroutine));
 929              		.loc 1 264 55 is_stmt 0
 930              	# 264 "src/riscv.cpp" 1
 931              		mv s5, a1
 932              	# 0 "" 2
 933              	.LVL51:
 265:src/riscv.cpp ****     asm("mv %[iargs], a3" : [iargs] "=r"(iargs));
 934              		.loc 1 265 5 is_stmt 1
 265:src/riscv.cpp ****     asm("mv %[iargs], a3" : [iargs] "=r"(iargs));
 935              		.loc 1 265 58 is_stmt 0
 936              	# 265 "src/riscv.cpp" 1
 937              		mv s4, a2
 938              	# 0 "" 2
 939              	.LVL52:
 266:src/riscv.cpp **** 
 940              		.loc 1 266 5 is_stmt 1
 266:src/riscv.cpp **** 
 941              		.loc 1 266 49 is_stmt 0
 942              	# 266 "src/riscv.cpp" 1
 943              		mv s3, a3
 944              	# 0 "" 2
 945              	.LVL53:
GAS LISTING /tmp/cceSRYBb.s 			page 34


 268:src/riscv.cpp **** 
 946              		.loc 1 268 5 is_stmt 1
 268:src/riscv.cpp **** 
 947              		.loc 1 268 94 is_stmt 0
 948              	#NO_APP
 949 047c 13050007 		li	a0,112
 950              	.LEHB4:
 951 0480 97000000 		call	_ZN3TCBnwEm@plt
 951      E7800000 
 952              	.LVL54:
 953              	.LEHE4:
 954 0488 93040500 		mv	s1,a0
 955 048c 13072000 		li	a4,2
 956 0490 93060900 		mv	a3,s2
 957 0494 13860900 		mv	a2,s3
 958 0498 93050A00 		mv	a1,s4
 959              	.LEHB5:
 960 049c 97000000 		call	_ZN3TCBC1EPFvPvES0_Pmm@plt
 960      E7800000 
 961              	.LVL55:
 962              	.LEHE5:
 270:src/riscv.cpp **** 
 963              		.loc 1 270 5 is_stmt 1 discriminator 2
 272:src/riscv.cpp ****         status = -1;
 964              		.loc 1 272 5 discriminator 2
 965 04a4 63820404 		beqz	s1,.L46
 276:src/riscv.cpp ****         tcb->args = (void*)iargs;
 966              		.loc 1 276 9
 276:src/riscv.cpp ****         tcb->args = (void*)iargs;
 967              		.loc 1 276 19 is_stmt 0
 968 04a8 23BC4401 		sd	s4,24(s1)
 277:src/riscv.cpp ****         *((TCB**)ihandle) = tcb;
 969              		.loc 1 277 9 is_stmt 1
 277:src/riscv.cpp ****         *((TCB**)ihandle) = tcb;
 970              		.loc 1 277 19 is_stmt 0
 971 04ac 23B03403 		sd	s3,32(s1)
 278:src/riscv.cpp ****     }
 972              		.loc 1 278 9 is_stmt 1
 278:src/riscv.cpp ****     }
 973              		.loc 1 278 27 is_stmt 0
 974 04b0 23B09A00 		sd	s1,0(s5)
 270:src/riscv.cpp **** 
 975              		.loc 1 270 12
 976 04b4 93070000 		li	a5,0
 977              	.L44:
 978              	.LVL56:
 281:src/riscv.cpp **** 
 979              		.loc 1 281 5 is_stmt 1
 281:src/riscv.cpp **** 
 980              		.loc 1 281 54 is_stmt 0
 981              	#APP
 982              	# 281 "src/riscv.cpp" 1
 283:src/riscv.cpp **** }
 983              		mv a0, a5
 984              	# 0 "" 2
 985              		.loc 1 283 5 is_stmt 1
 283:src/riscv.cpp **** }
GAS LISTING /tmp/cceSRYBb.s 			page 35


 986              		.loc 1 283 28 is_stmt 0
 987              	#NO_APP
 988 04bc 97000000 		call	_ZN5RiscV16saveA0toSscratchEv
 988      E7800000 
 989              	.LVL57:
 284:src/riscv.cpp **** 
 990              		.loc 1 284 1
 991 04c4 83308103 		ld	ra,56(sp)
 992              		.cfi_remember_state
 993              		.cfi_restore 1
 994 04c8 03340103 		ld	s0,48(sp)
 995              		.cfi_restore 8
 996              		.cfi_def_cfa 2, 64
 997 04cc 83348102 		ld	s1,40(sp)
 998              		.cfi_restore 9
 999              	.LVL58:
 1000 04d0 03390102 		ld	s2,32(sp)
 1001              		.cfi_restore 18
 1002 04d4 83398101 		ld	s3,24(sp)
 1003              		.cfi_restore 19
 1004              	.LVL59:
 1005 04d8 033A0101 		ld	s4,16(sp)
 1006              		.cfi_restore 20
 1007              	.LVL60:
 1008 04dc 833A8100 		ld	s5,8(sp)
 1009              		.cfi_restore 21
 1010              	.LVL61:
 1011 04e0 13010104 		addi	sp,sp,64
 1012              		.cfi_def_cfa_offset 0
 1013 04e4 67800000 		jr	ra
 1014              	.LVL62:
 1015              	.L46:
 1016              		.cfi_restore_state
 273:src/riscv.cpp ****     }
 1017              		.loc 1 273 16
 1018 04e8 9307F0FF 		li	a5,-1
 1019 04ec 6FF0DFFC 		j	.L44
 1020              	.LVL63:
 1021              	.L47:
 1022 04f0 13090500 		mv	s2,a0
 268:src/riscv.cpp **** 
 1023              		.loc 1 268 94
 1024 04f4 13850400 		mv	a0,s1
 1025 04f8 97000000 		call	_ZN3TCBdlEPv@plt
 1025      E7800000 
 1026              	.LVL64:
 1027 0500 13050900 		mv	a0,s2
 1028              	.LEHB6:
 1029 0504 97000000 		call	_Unwind_Resume@plt
 1029      E7800000 
 1030              	.LVL65:
 1031              	.LEHE6:
 1032              		.cfi_endproc
 1033              	.LFE48:
 1034              		.section	.gcc_except_table
 1035              	.LLSDA48:
 1036 0038 FF       		.byte	0xff
GAS LISTING /tmp/cceSRYBb.s 			page 36


 1037 0039 FF       		.byte	0xff
 1038 003a 03       		.byte	0x3
 1039 003b 27       		.byte	0x27
 1040 003c 00000000 		.4byte	.LEHB4-.LFB48
 1041 0040 00000000 		.4byte	.LEHE4-.LEHB4
 1042 0044 00000000 		.4byte	0
 1043 0048 00       		.byte	0
 1044 0049 00000000 		.4byte	.LEHB5-.LFB48
 1045 004d 00000000 		.4byte	.LEHE5-.LEHB5
 1046 0051 00000000 		.4byte	.L47-.LFB48
 1047 0055 00       		.byte	0
 1048 0056 00000000 		.4byte	.LEHB6-.LFB48
 1049 005a 00000000 		.4byte	.LEHE6-.LEHB6
 1050 005e 00000000 		.4byte	0
 1051 0062 00       		.byte	0
 1052              		.text
 1054              		.align	2
 1055              		.globl	_ZN5RiscV25executeThreadStartSyscallEv
 1057              	_ZN5RiscV25executeThreadStartSyscallEv:
 1058              	.LFB49:
 286:src/riscv.cpp **** 
 1059              		.loc 1 286 40 is_stmt 1
 1060              		.cfi_startproc
 1061 050c 130101FF 		addi	sp,sp,-16
 1062              		.cfi_def_cfa_offset 16
 1063 0510 23341100 		sd	ra,8(sp)
 1064 0514 23308100 		sd	s0,0(sp)
 1065              		.cfi_offset 1, -8
 1066              		.cfi_offset 8, -16
 1067 0518 13040101 		addi	s0,sp,16
 1068              		.cfi_def_cfa 8, 0
 289:src/riscv.cpp **** 
 1069              		.loc 1 289 5
 291:src/riscv.cpp **** 
 1070              		.loc 1 291 5
 291:src/riscv.cpp **** 
 1071              		.loc 1 291 55 is_stmt 0
 1072              	#APP
 1073              	# 291 "src/riscv.cpp" 1
 1074              		mv a0, a1
 1075              	# 0 "" 2
 1076              	.LVL66:
 294:src/riscv.cpp **** 
 1077              		.loc 1 294 5 is_stmt 1
 296:src/riscv.cpp **** 
 1078              		.loc 1 296 5
 298:src/riscv.cpp ****         status = -1;
 1079              		.loc 1 298 5
 1080              	#NO_APP
 1081 0520 63120502 		bnez	a0,.L54
 299:src/riscv.cpp ****     }
 1082              		.loc 1 299 16 is_stmt 0
 1083 0524 9307F0FF 		li	a5,-1
 1084              	.LVL67:
 1085              	.L51:
 308:src/riscv.cpp **** 
 1086              		.loc 1 308 5 is_stmt 1
GAS LISTING /tmp/cceSRYBb.s 			page 37


 308:src/riscv.cpp **** 
 1087              		.loc 1 308 54 is_stmt 0
 1088              	#APP
 1089              	# 308 "src/riscv.cpp" 1
 310:src/riscv.cpp **** }
 1090              		mv a0, a5
 1091              	# 0 "" 2
 1092              		.loc 1 310 5 is_stmt 1
 310:src/riscv.cpp **** }
 1093              		.loc 1 310 28 is_stmt 0
 1094              	#NO_APP
 1095 052c 97000000 		call	_ZN5RiscV16saveA0toSscratchEv
 1095      E7800000 
 1096              	.LVL68:
 311:src/riscv.cpp **** 
 1097              		.loc 1 311 1
 1098 0534 83308100 		ld	ra,8(sp)
 1099              		.cfi_remember_state
 1100              		.cfi_restore 1
 1101 0538 03340100 		ld	s0,0(sp)
 1102              		.cfi_restore 8
 1103              		.cfi_def_cfa 2, 16
 1104 053c 13010101 		addi	sp,sp,16
 1105              		.cfi_def_cfa_offset 0
 1106 0540 67800000 		jr	ra
 1107              	.LVL69:
 1108              	.L54:
 1109              		.cfi_restore_state
 302:src/riscv.cpp ****         Scheduler::put(tcb);
 1110              		.loc 1 302 9 is_stmt 1
 302:src/riscv.cpp ****         Scheduler::put(tcb);
 1111              		.loc 1 302 21 is_stmt 0
 1112 0544 93071000 		li	a5,1
 1113 0548 2328F500 		sw	a5,16(a0)
 303:src/riscv.cpp ****         TCB::dispatch();
 1114              		.loc 1 303 9 is_stmt 1
 303:src/riscv.cpp ****         TCB::dispatch();
 1115              		.loc 1 303 23 is_stmt 0
 1116 054c 97000000 		call	_ZN9Scheduler3putEP3TCB@plt
 1116      E7800000 
 1117              	.LVL70:
 304:src/riscv.cpp ****     }
 1118              		.loc 1 304 9 is_stmt 1
 304:src/riscv.cpp ****     }
 1119              		.loc 1 304 22 is_stmt 0
 1120 0554 97000000 		call	_ZN3TCB8dispatchEv@plt
 1120      E7800000 
 1121              	.LVL71:
 296:src/riscv.cpp **** 
 1122              		.loc 1 296 12
 1123 055c 93070000 		li	a5,0
 1124 0560 6FF09FFC 		j	.L51
 1125              		.cfi_endproc
 1126              	.LFE49:
 1128              		.align	2
 1129              		.globl	_ZN5RiscV24executeThreadExitSyscallEv
 1131              	_ZN5RiscV24executeThreadExitSyscallEv:
GAS LISTING /tmp/cceSRYBb.s 			page 38


 1132              	.LFB50:
 313:src/riscv.cpp **** 
 1133              		.loc 1 313 40 is_stmt 1
 1134              		.cfi_startproc
 1135 0564 130101FF 		addi	sp,sp,-16
 1136              		.cfi_def_cfa_offset 16
 1137 0568 23341100 		sd	ra,8(sp)
 1138 056c 23308100 		sd	s0,0(sp)
 1139              		.cfi_offset 1, -8
 1140              		.cfi_offset 8, -16
 1141 0570 13040101 		addi	s0,sp,16
 1142              		.cfi_def_cfa 8, 0
 316:src/riscv.cpp **** 
 1143              		.loc 1 316 5
 1144              	.LVL72:
 319:src/riscv.cpp ****         status = -1;
 1145              		.loc 1 319 5
 1146              	.LBB121:
 319:src/riscv.cpp ****         status = -1;
 1147              		.loc 1 319 21 is_stmt 0
 1148 0574 97070000 		la	a5,_ZN3TCB7runningE
 1148      83B70700 
 1149 057c 83B70700 		ld	a5,0(a5)
 319:src/riscv.cpp ****         status = -1;
 1150              		.loc 1 319 5
 1151 0580 638A0702 		beqz	a5,.L57
 1152              	.LBB122:
 323:src/riscv.cpp ****         old->status = TCB::Status::FINISHED;
 1153              		.loc 1 323 9 is_stmt 1
 1154              	.LVL73:
 324:src/riscv.cpp ****         TCB::dispatch();
 1155              		.loc 1 324 9
 324:src/riscv.cpp ****         TCB::dispatch();
 1156              		.loc 1 324 21 is_stmt 0
 1157 0584 13072000 		li	a4,2
 1158 0588 23A8E700 		sw	a4,16(a5)
 325:src/riscv.cpp ****     }
 1159              		.loc 1 325 9 is_stmt 1
 325:src/riscv.cpp ****     }
 1160              		.loc 1 325 22 is_stmt 0
 1161 058c 97000000 		call	_ZN3TCB8dispatchEv@plt
 1161      E7800000 
 1162              	.LVL74:
 1163              	.LBE122:
 1164              	.LBE121:
 316:src/riscv.cpp **** 
 1165              		.loc 1 316 12
 1166 0594 93070000 		li	a5,0
 1167              	.L56:
 1168              	.LVL75:
 328:src/riscv.cpp **** 
 1169              		.loc 1 328 5 is_stmt 1
 328:src/riscv.cpp **** 
 1170              		.loc 1 328 54 is_stmt 0
 1171              	#APP
 1172              	# 328 "src/riscv.cpp" 1
 330:src/riscv.cpp **** }
GAS LISTING /tmp/cceSRYBb.s 			page 39


 1173              		mv a0, a5
 1174              	# 0 "" 2
 1175              		.loc 1 330 5 is_stmt 1
 330:src/riscv.cpp **** }
 1176              		.loc 1 330 28 is_stmt 0
 1177              	#NO_APP
 1178 059c 97000000 		call	_ZN5RiscV16saveA0toSscratchEv
 1178      E7800000 
 1179              	.LVL76:
 331:src/riscv.cpp **** 
 1180              		.loc 1 331 1
 1181 05a4 83308100 		ld	ra,8(sp)
 1182              		.cfi_remember_state
 1183              		.cfi_restore 1
 1184 05a8 03340100 		ld	s0,0(sp)
 1185              		.cfi_restore 8
 1186              		.cfi_def_cfa 2, 16
 1187 05ac 13010101 		addi	sp,sp,16
 1188              		.cfi_def_cfa_offset 0
 1189 05b0 67800000 		jr	ra
 1190              	.LVL77:
 1191              	.L57:
 1192              		.cfi_restore_state
 1193              	.LBB123:
 320:src/riscv.cpp ****     }
 1194              		.loc 1 320 16
 1195 05b4 9307F0FF 		li	a5,-1
 1196 05b8 6FF01FFE 		j	.L56
 1197              	.LBE123:
 1198              		.cfi_endproc
 1199              	.LFE50:
 1201              		.align	2
 1202              		.globl	_ZN5RiscV21executeSemOpenSyscallEv
 1204              	_ZN5RiscV21executeSemOpenSyscallEv:
 1205              	.LFB52:
 341:src/riscv.cpp **** 
 1206              		.loc 1 341 37 is_stmt 1
 1207              		.cfi_startproc
 1208              		.cfi_personality 0x9b,DW.ref.__gxx_personality_v0
 1209              		.cfi_lsda 0x1b,.LLSDA52
 1210 05bc 130101FD 		addi	sp,sp,-48
 1211              		.cfi_def_cfa_offset 48
 1212 05c0 23341102 		sd	ra,40(sp)
 1213 05c4 23308102 		sd	s0,32(sp)
 1214 05c8 233C9100 		sd	s1,24(sp)
 1215 05cc 23382101 		sd	s2,16(sp)
 1216 05d0 23343101 		sd	s3,8(sp)
 1217              		.cfi_offset 1, -8
 1218              		.cfi_offset 8, -16
 1219              		.cfi_offset 9, -24
 1220              		.cfi_offset 18, -32
 1221              		.cfi_offset 19, -40
 1222 05d4 13040103 		addi	s0,sp,48
 1223              		.cfi_def_cfa 8, 0
 344:src/riscv.cpp **** 
 1224              		.loc 1 344 5
 346:src/riscv.cpp ****     asm("mv %[iinit], a2" : [iinit] "=r"(iinit));
GAS LISTING /tmp/cceSRYBb.s 			page 40


 1225              		.loc 1 346 5
 346:src/riscv.cpp ****     asm("mv %[iinit], a2" : [iinit] "=r"(iinit));
 1226              		.loc 1 346 55 is_stmt 0
 1227              	#APP
 1228              	# 346 "src/riscv.cpp" 1
 1229              		mv s3, a1
 1230              	# 0 "" 2
 1231              	.LVL78:
 347:src/riscv.cpp **** 
 1232              		.loc 1 347 5 is_stmt 1
 347:src/riscv.cpp **** 
 1233              		.loc 1 347 49 is_stmt 0
 1234              	# 347 "src/riscv.cpp" 1
 350:src/riscv.cpp **** 
 1235              		mv s2, a2
 1236              	# 0 "" 2
 1237              		.loc 1 350 5 is_stmt 1
 350:src/riscv.cpp **** 
 1238              		.loc 1 350 29 is_stmt 0
 1239              	#NO_APP
 1240 05e0 13058001 		li	a0,24
 1241              	.LEHB7:
 1242 05e4 97000000 		call	_ZN3SCBnwEm@plt
 1242      E7800000 
 1243              	.LVL79:
 1244              	.LEHE7:
 1245 05ec 93040500 		mv	s1,a0
 1246 05f0 93050900 		mv	a1,s2
 1247              	.LEHB8:
 1248 05f4 97000000 		call	_ZN3SCBC1Em@plt
 1248      E7800000 
 1249              	.LVL80:
 1250              	.LEHE8:
 352:src/riscv.cpp **** 
 1251              		.loc 1 352 5 is_stmt 1 discriminator 2
 354:src/riscv.cpp ****         status = -1;
 1252              		.loc 1 354 5 discriminator 2
 1253 05fc 638A0402 		beqz	s1,.L62
 358:src/riscv.cpp ****     }
 1254              		.loc 1 358 9
 358:src/riscv.cpp ****     }
 1255              		.loc 1 358 27 is_stmt 0
 1256 0600 23B09900 		sd	s1,0(s3)
 352:src/riscv.cpp **** 
 1257              		.loc 1 352 12
 1258 0604 93070000 		li	a5,0
 1259              	.L60:
 1260              	.LVL81:
 362:src/riscv.cpp **** 
 1261              		.loc 1 362 5 is_stmt 1
 362:src/riscv.cpp **** 
 1262              		.loc 1 362 54 is_stmt 0
 1263              	#APP
 1264              	# 362 "src/riscv.cpp" 1
 364:src/riscv.cpp **** 
 1265              		mv a0, a5
 1266              	# 0 "" 2
GAS LISTING /tmp/cceSRYBb.s 			page 41


 1267              		.loc 1 364 5 is_stmt 1
 364:src/riscv.cpp **** 
 1268              		.loc 1 364 28 is_stmt 0
 1269              	#NO_APP
 1270 060c 97000000 		call	_ZN5RiscV16saveA0toSscratchEv
 1270      E7800000 
 1271              	.LVL82:
 366:src/riscv.cpp **** 
 1272              		.loc 1 366 1
 1273 0614 83308102 		ld	ra,40(sp)
 1274              		.cfi_remember_state
 1275              		.cfi_restore 1
 1276 0618 03340102 		ld	s0,32(sp)
 1277              		.cfi_restore 8
 1278              		.cfi_def_cfa 2, 48
 1279 061c 83348101 		ld	s1,24(sp)
 1280              		.cfi_restore 9
 1281              	.LVL83:
 1282 0620 03390101 		ld	s2,16(sp)
 1283              		.cfi_restore 18
 1284 0624 83398100 		ld	s3,8(sp)
 1285              		.cfi_restore 19
 1286              	.LVL84:
 1287 0628 13010103 		addi	sp,sp,48
 1288              		.cfi_def_cfa_offset 0
 1289 062c 67800000 		jr	ra
 1290              	.LVL85:
 1291              	.L62:
 1292              		.cfi_restore_state
 355:src/riscv.cpp ****     }
 1293              		.loc 1 355 16
 1294 0630 9307F0FF 		li	a5,-1
 1295 0634 6FF05FFD 		j	.L60
 1296              	.LVL86:
 1297              	.L63:
 1298 0638 13090500 		mv	s2,a0
 350:src/riscv.cpp **** 
 1299              		.loc 1 350 29
 1300 063c 13850400 		mv	a0,s1
 1301 0640 97000000 		call	_ZN3SCBdlEPv@plt
 1301      E7800000 
 1302              	.LVL87:
 1303 0648 13050900 		mv	a0,s2
 1304              	.LEHB9:
 1305 064c 97000000 		call	_Unwind_Resume@plt
 1305      E7800000 
 1306              	.LVL88:
 1307              	.LEHE9:
 1308              		.cfi_endproc
 1309              	.LFE52:
 1310              		.section	.gcc_except_table
 1311              	.LLSDA52:
 1312 0063 FF       		.byte	0xff
 1313 0064 FF       		.byte	0xff
 1314 0065 03       		.byte	0x3
 1315 0066 27       		.byte	0x27
 1316 0067 00000000 		.4byte	.LEHB7-.LFB52
GAS LISTING /tmp/cceSRYBb.s 			page 42


 1317 006b 00000000 		.4byte	.LEHE7-.LEHB7
 1318 006f 00000000 		.4byte	0
 1319 0073 00       		.byte	0
 1320 0074 00000000 		.4byte	.LEHB8-.LFB52
 1321 0078 00000000 		.4byte	.LEHE8-.LEHB8
 1322 007c 00000000 		.4byte	.L63-.LFB52
 1323 0080 00       		.byte	0
 1324 0081 00000000 		.4byte	.LEHB9-.LFB52
 1325 0085 00000000 		.4byte	.LEHE9-.LEHB9
 1326 0089 00000000 		.4byte	0
 1327 008d 00       		.byte	0
 1328              		.text
 1330              		.align	2
 1331              		.globl	_ZN5RiscV22executeSemCloseSyscallEv
 1333              	_ZN5RiscV22executeSemCloseSyscallEv:
 1334              	.LFB53:
 368:src/riscv.cpp **** 
 1335              		.loc 1 368 38 is_stmt 1
 1336              		.cfi_startproc
 1337 0654 130101FE 		addi	sp,sp,-32
 1338              		.cfi_def_cfa_offset 32
 1339 0658 233C1100 		sd	ra,24(sp)
 1340 065c 23388100 		sd	s0,16(sp)
 1341 0660 23349100 		sd	s1,8(sp)
 1342              		.cfi_offset 1, -8
 1343              		.cfi_offset 8, -16
 1344              		.cfi_offset 9, -24
 1345 0664 13040102 		addi	s0,sp,32
 1346              		.cfi_def_cfa 8, 0
 371:src/riscv.cpp **** 
 1347              		.loc 1 371 5
 373:src/riscv.cpp **** 
 1348              		.loc 1 373 5
 373:src/riscv.cpp **** 
 1349              		.loc 1 373 55 is_stmt 0
 1350              	#APP
 1351              	# 373 "src/riscv.cpp" 1
 1352              		mv s1, a1
 1353              	# 0 "" 2
 1354              	.LVL89:
 376:src/riscv.cpp ****     uint64 status = 0;
 1355              		.loc 1 376 5 is_stmt 1
 377:src/riscv.cpp **** 
 1356              		.loc 1 377 5
 379:src/riscv.cpp ****         status = -1;
 1357              		.loc 1 379 5
 1358              	#NO_APP
 1359 066c 63940402 		bnez	s1,.L70
 380:src/riscv.cpp ****     }
 1360              		.loc 1 380 16 is_stmt 0
 1361 0670 9307F0FF 		li	a5,-1
 1362              	.L67:
 1363              	.LVL90:
 386:src/riscv.cpp **** 
 1364              		.loc 1 386 5 is_stmt 1
 386:src/riscv.cpp **** 
 1365              		.loc 1 386 54 is_stmt 0
GAS LISTING /tmp/cceSRYBb.s 			page 43


 1366              	#APP
 1367              	# 386 "src/riscv.cpp" 1
 388:src/riscv.cpp **** }
 1368              		mv a0, a5
 1369              	# 0 "" 2
 1370              		.loc 1 388 5 is_stmt 1
 388:src/riscv.cpp **** }
 1371              		.loc 1 388 28 is_stmt 0
 1372              	#NO_APP
 1373 0678 97000000 		call	_ZN5RiscV16saveA0toSscratchEv
 1373      E7800000 
 1374              	.LVL91:
 389:src/riscv.cpp **** 
 1375              		.loc 1 389 1
 1376 0680 83308101 		ld	ra,24(sp)
 1377              		.cfi_remember_state
 1378              		.cfi_restore 1
 1379 0684 03340101 		ld	s0,16(sp)
 1380              		.cfi_restore 8
 1381              		.cfi_def_cfa 2, 32
 1382 0688 83348100 		ld	s1,8(sp)
 1383              		.cfi_restore 9
 1384              	.LVL92:
 1385 068c 13010102 		addi	sp,sp,32
 1386              		.cfi_def_cfa_offset 0
 1387 0690 67800000 		jr	ra
 1388              	.LVL93:
 1389              	.L70:
 1390              		.cfi_restore_state
 383:src/riscv.cpp **** 
 1391              		.loc 1 383 9 is_stmt 1 discriminator 1
 383:src/riscv.cpp **** 
 1392              		.loc 1 383 22 is_stmt 0 discriminator 1
 1393 0694 13850400 		mv	a0,s1
 1394 0698 97000000 		call	_ZN3SCBD1Ev@plt
 1394      E7800000 
 1395              	.LVL94:
 1396 06a0 13850400 		mv	a0,s1
 1397 06a4 97000000 		call	_ZN3SCBdlEPv@plt
 1397      E7800000 
 1398              	.LVL95:
 377:src/riscv.cpp **** 
 1399              		.loc 1 377 12 discriminator 1
 1400 06ac 93070000 		li	a5,0
 1401 06b0 6FF05FFC 		j	.L67
 1402              		.cfi_endproc
 1403              	.LFE53:
 1405              		.align	2
 1406              		.globl	_ZN5RiscV21executeSemWaitSyscallEv
 1408              	_ZN5RiscV21executeSemWaitSyscallEv:
 1409              	.LFB54:
 391:src/riscv.cpp **** 
 1410              		.loc 1 391 37 is_stmt 1
 1411              		.cfi_startproc
 1412 06b4 130101FF 		addi	sp,sp,-16
 1413              		.cfi_def_cfa_offset 16
 1414 06b8 23341100 		sd	ra,8(sp)
GAS LISTING /tmp/cceSRYBb.s 			page 44


 1415 06bc 23308100 		sd	s0,0(sp)
 1416              		.cfi_offset 1, -8
 1417              		.cfi_offset 8, -16
 1418 06c0 13040101 		addi	s0,sp,16
 1419              		.cfi_def_cfa 8, 0
 394:src/riscv.cpp **** 
 1420              		.loc 1 394 5
 396:src/riscv.cpp **** 
 1421              		.loc 1 396 5
 396:src/riscv.cpp **** 
 1422              		.loc 1 396 55 is_stmt 0
 1423              	#APP
 1424              	# 396 "src/riscv.cpp" 1
 1425              		mv a0, a1
 1426              	# 0 "" 2
 1427              	.LVL96:
 398:src/riscv.cpp ****     //call wait method on ihandle scb
 1428              		.loc 1 398 5 is_stmt 1
 401:src/riscv.cpp ****         ((SCB*)ihandle)->wait();
 1429              		.loc 1 401 5
 1430              	#NO_APP
 1431 06c8 631C0502 		bnez	a0,.L76
 1432              	.LVL97:
 1433              	.L72:
 406:src/riscv.cpp ****         status = -1;
 1434              		.loc 1 406 5
 406:src/riscv.cpp ****         status = -1;
 1435              		.loc 1 406 22 is_stmt 0
 1436 06cc 97070000 		la	a5,_ZN3TCB7runningE
 1436      83B70700 
 1437 06d4 83B70700 		ld	a5,0(a5)
 1438 06d8 83B70706 		ld	a5,96(a5)
 406:src/riscv.cpp ****         status = -1;
 1439              		.loc 1 406 5
 1440 06dc 63880702 		beqz	a5,.L74
 407:src/riscv.cpp ****     else
 1441              		.loc 1 407 16
 1442 06e0 9307F0FF 		li	a5,-1
 1443              	.L73:
 1444              	.LVL98:
 412:src/riscv.cpp **** 
 1445              		.loc 1 412 5 is_stmt 1
 412:src/riscv.cpp **** 
 1446              		.loc 1 412 54 is_stmt 0
 1447              	#APP
 1448              	# 412 "src/riscv.cpp" 1
 414:src/riscv.cpp **** 
 1449              		mv a0, a5
 1450              	# 0 "" 2
 1451              		.loc 1 414 5 is_stmt 1
 414:src/riscv.cpp **** 
 1452              		.loc 1 414 28 is_stmt 0
 1453              	#NO_APP
 1454 06e8 97000000 		call	_ZN5RiscV16saveA0toSscratchEv
 1454      E7800000 
 1455              	.LVL99:
 416:src/riscv.cpp **** 
GAS LISTING /tmp/cceSRYBb.s 			page 45


 1456              		.loc 1 416 1
 1457 06f0 83308100 		ld	ra,8(sp)
 1458              		.cfi_remember_state
 1459              		.cfi_restore 1
 1460 06f4 03340100 		ld	s0,0(sp)
 1461              		.cfi_restore 8
 1462              		.cfi_def_cfa 2, 16
 1463 06f8 13010101 		addi	sp,sp,16
 1464              		.cfi_def_cfa_offset 0
 1465 06fc 67800000 		jr	ra
 1466              	.LVL100:
 1467              	.L76:
 1468              		.cfi_restore_state
 402:src/riscv.cpp ****     else
 1469              		.loc 1 402 9 is_stmt 1
 402:src/riscv.cpp ****     else
 1470              		.loc 1 402 30 is_stmt 0
 1471 0700 97000000 		call	_ZN3SCB4waitEv@plt
 1471      E7800000 
 1472              	.LVL101:
 1473 0708 6FF05FFC 		j	.L72
 1474              	.LVL102:
 1475              	.L74:
 409:src/riscv.cpp **** 
 1476              		.loc 1 409 16
 1477 070c 93070000 		li	a5,0
 1478 0710 6FF05FFD 		j	.L73
 1479              		.cfi_endproc
 1480              	.LFE54:
 1482              		.align	2
 1483              		.globl	_ZN5RiscV23executeSemSignalSyscallEv
 1485              	_ZN5RiscV23executeSemSignalSyscallEv:
 1486              	.LFB55:
 418:src/riscv.cpp **** 
 1487              		.loc 1 418 39 is_stmt 1
 1488              		.cfi_startproc
 1489 0714 130101FF 		addi	sp,sp,-16
 1490              		.cfi_def_cfa_offset 16
 1491 0718 23341100 		sd	ra,8(sp)
 1492 071c 23308100 		sd	s0,0(sp)
 1493              		.cfi_offset 1, -8
 1494              		.cfi_offset 8, -16
 1495 0720 13040101 		addi	s0,sp,16
 1496              		.cfi_def_cfa 8, 0
 421:src/riscv.cpp **** 
 1497              		.loc 1 421 5
 423:src/riscv.cpp **** 
 1498              		.loc 1 423 5
 423:src/riscv.cpp **** 
 1499              		.loc 1 423 55 is_stmt 0
 1500              	#APP
 1501              	# 423 "src/riscv.cpp" 1
 1502              		mv a0, a1
 1503              	# 0 "" 2
 1504              	.LVL103:
 427:src/riscv.cpp **** 
 1505              		.loc 1 427 5 is_stmt 1
GAS LISTING /tmp/cceSRYBb.s 			page 46


 429:src/riscv.cpp ****         ((SCB*)ihandle)->signal();
 1506              		.loc 1 429 5
 1507              	#NO_APP
 1508 0728 63120502 		bnez	a0,.L81
 432:src/riscv.cpp **** 
 1509              		.loc 1 432 16 is_stmt 0
 1510 072c 9307F0FF 		li	a5,-1
 1511              	.LVL104:
 1512              	.L78:
 435:src/riscv.cpp **** 
 1513              		.loc 1 435 5 is_stmt 1
 435:src/riscv.cpp **** 
 1514              		.loc 1 435 54 is_stmt 0
 1515              	#APP
 1516              	# 435 "src/riscv.cpp" 1
 437:src/riscv.cpp **** }
 1517              		mv a0, a5
 1518              	# 0 "" 2
 1519              		.loc 1 437 5 is_stmt 1
 437:src/riscv.cpp **** }
 1520              		.loc 1 437 28 is_stmt 0
 1521              	#NO_APP
 1522 0734 97000000 		call	_ZN5RiscV16saveA0toSscratchEv
 1522      E7800000 
 1523              	.LVL105:
 438:src/riscv.cpp **** 
 1524              		.loc 1 438 1
 1525 073c 83308100 		ld	ra,8(sp)
 1526              		.cfi_remember_state
 1527              		.cfi_restore 1
 1528 0740 03340100 		ld	s0,0(sp)
 1529              		.cfi_restore 8
 1530              		.cfi_def_cfa 2, 16
 1531 0744 13010101 		addi	sp,sp,16
 1532              		.cfi_def_cfa_offset 0
 1533 0748 67800000 		jr	ra
 1534              	.LVL106:
 1535              	.L81:
 1536              		.cfi_restore_state
 430:src/riscv.cpp ****     else
 1537              		.loc 1 430 9 is_stmt 1
 430:src/riscv.cpp ****     else
 1538              		.loc 1 430 32 is_stmt 0
 1539 074c 97000000 		call	_ZN3SCB6signalEv@plt
 1539      E7800000 
 1540              	.LVL107:
 427:src/riscv.cpp **** 
 1541              		.loc 1 427 12
 1542 0754 93070000 		li	a5,0
 1543 0758 6FF09FFD 		j	.L78
 1544              		.cfi_endproc
 1545              	.LFE55:
 1547              		.align	2
 1548              		.globl	_ZN5RiscV23executeTimeSleepSyscallEv
 1550              	_ZN5RiscV23executeTimeSleepSyscallEv:
 1551              	.LFB56:
 440:src/riscv.cpp **** 
GAS LISTING /tmp/cceSRYBb.s 			page 47


 1552              		.loc 1 440 39 is_stmt 1
 1553              		.cfi_startproc
 1554 075c 130101FE 		addi	sp,sp,-32
 1555              		.cfi_def_cfa_offset 32
 1556 0760 233C1100 		sd	ra,24(sp)
 1557 0764 23388100 		sd	s0,16(sp)
 1558 0768 23349100 		sd	s1,8(sp)
 1559              		.cfi_offset 1, -8
 1560              		.cfi_offset 8, -16
 1561              		.cfi_offset 9, -24
 1562 076c 13040102 		addi	s0,sp,32
 1563              		.cfi_def_cfa 8, 0
 443:src/riscv.cpp **** 
 1564              		.loc 1 443 5
 445:src/riscv.cpp **** 
 1565              		.loc 1 445 5
 445:src/riscv.cpp **** 
 1566              		.loc 1 445 49 is_stmt 0
 1567              	#APP
 1568              	# 445 "src/riscv.cpp" 1
 449:src/riscv.cpp ****     tcb->sleepTime = globalTime;
 1569              		mv a4, a1
 1570              	# 0 "" 2
 1571              		.loc 1 449 5 is_stmt 1
 449:src/riscv.cpp ****     tcb->sleepTime = globalTime;
 1572              		.loc 1 449 10 is_stmt 0
 1573              	#NO_APP
 1574 0774 97070000 		la	a5,_ZN3TCB7runningE
 1574      83B70700 
 1575 077c 83B40700 		ld	s1,0(a5)
 1576              	.LVL108:
 450:src/riscv.cpp ****     tcb->wakeTime = globalTime + itime;
 1577              		.loc 1 450 5 is_stmt 1
 450:src/riscv.cpp ****     tcb->wakeTime = globalTime + itime;
 1578              		.loc 1 450 20 is_stmt 0
 1579 0780 97070000 		ld	a5,.LANCHOR0+8
 1579      83B70700 
 1580 0788 23B8F404 		sd	a5,80(s1)
 451:src/riscv.cpp **** 
 1581              		.loc 1 451 5 is_stmt 1
 451:src/riscv.cpp **** 
 1582              		.loc 1 451 32 is_stmt 0
 1583 078c B387E700 		add	a5,a5,a4
 451:src/riscv.cpp **** 
 1584              		.loc 1 451 19
 1585 0790 23BCF404 		sd	a5,88(s1)
 453:src/riscv.cpp **** 
 1586              		.loc 1 453 5 is_stmt 1
 453:src/riscv.cpp **** 
 1587              		.loc 1 453 21 is_stmt 0
 1588 0794 13850400 		mv	a0,s1
 1589 0798 97000000 		call	_ZN9Scheduler5sleepEP3TCB@plt
 1589      E7800000 
 1590              	.LVL109:
 455:src/riscv.cpp **** 
 1591              		.loc 1 455 5 is_stmt 1
 455:src/riscv.cpp **** 
GAS LISTING /tmp/cceSRYBb.s 			page 48


 1592              		.loc 1 455 17 is_stmt 0
 1593 07a0 93073000 		li	a5,3
 1594 07a4 23A8F400 		sw	a5,16(s1)
 457:src/riscv.cpp **** 
 1595              		.loc 1 457 5 is_stmt 1
 457:src/riscv.cpp **** 
 1596              		.loc 1 457 18 is_stmt 0
 1597 07a8 97000000 		call	_ZN3TCB8dispatchEv@plt
 1597      E7800000 
 1598              	.LVL110:
 459:src/riscv.cpp **** 
 1599              		.loc 1 459 5 is_stmt 1
 462:src/riscv.cpp **** 
 1600              		.loc 1 462 5
 462:src/riscv.cpp **** 
 1601              		.loc 1 462 54 is_stmt 0
 1602 07b0 93070000 		li	a5,0
 1603              	#APP
 1604              	# 462 "src/riscv.cpp" 1
 464:src/riscv.cpp **** }
 1605              		mv a0, a5
 1606              	# 0 "" 2
 1607              		.loc 1 464 5 is_stmt 1
 464:src/riscv.cpp **** }
 1608              		.loc 1 464 28 is_stmt 0
 1609              	#NO_APP
 1610 07b8 97000000 		call	_ZN5RiscV16saveA0toSscratchEv
 1610      E7800000 
 1611              	.LVL111:
 465:src/riscv.cpp **** 
 1612              		.loc 1 465 1
 1613 07c0 83308101 		ld	ra,24(sp)
 1614              		.cfi_restore 1
 1615 07c4 03340101 		ld	s0,16(sp)
 1616              		.cfi_restore 8
 1617              		.cfi_def_cfa 2, 32
 1618 07c8 83348100 		ld	s1,8(sp)
 1619              		.cfi_restore 9
 1620              	.LVL112:
 1621 07cc 13010102 		addi	sp,sp,32
 1622              		.cfi_def_cfa_offset 0
 1623 07d0 67800000 		jr	ra
 1624              		.cfi_endproc
 1625              	.LFE56:
 1627              		.align	2
 1628              		.globl	_ZN5RiscV18executeGetcSyscallEv
 1630              	_ZN5RiscV18executeGetcSyscallEv:
 1631              	.LFB57:
 467:src/riscv.cpp **** 
 1632              		.loc 1 467 34 is_stmt 1
 1633              		.cfi_startproc
 1634 07d4 130101FE 		addi	sp,sp,-32
 1635              		.cfi_def_cfa_offset 32
 1636 07d8 233C1100 		sd	ra,24(sp)
 1637 07dc 23388100 		sd	s0,16(sp)
 1638 07e0 23349100 		sd	s1,8(sp)
 1639              		.cfi_offset 1, -8
GAS LISTING /tmp/cceSRYBb.s 			page 49


 1640              		.cfi_offset 8, -16
 1641              		.cfi_offset 9, -24
 1642 07e4 13040102 		addi	s0,sp,32
 1643              		.cfi_def_cfa 8, 0
 470:src/riscv.cpp ****         ConsoleUtil::pendingGetc++;
 1644              		.loc 1 470 5
 470:src/riscv.cpp ****         ConsoleUtil::pendingGetc++;
 1645              		.loc 1 470 8 is_stmt 0
 1646 07e8 97070000 		lbu	a5,.LANCHOR0
 1646      83C70700 
 470:src/riscv.cpp ****         ConsoleUtil::pendingGetc++;
 1647              		.loc 1 470 5
 1648 07f0 639C0700 		bnez	a5,.L85
 471:src/riscv.cpp **** 
 1649              		.loc 1 471 9 is_stmt 1
 471:src/riscv.cpp **** 
 1650              		.loc 1 471 33 is_stmt 0
 1651 07f4 17070000 		la	a4,_ZN11ConsoleUtil11pendingGetcE
 1651      03370700 
 1652 07fc 83370700 		ld	a5,0(a4)
 1653 0800 93871700 		addi	a5,a5,1
 1654 0804 2330F700 		sd	a5,0(a4)
 1655              	.L85:
 474:src/riscv.cpp **** 
 1656              		.loc 1 474 5 is_stmt 1
 474:src/riscv.cpp **** 
 1657              		.loc 1 474 35 is_stmt 0
 1658 0808 97000000 		call	_ZN11ConsoleUtil8getInputEv@plt
 1658      E7800000 
 1659              	.LVL113:
 1660 0810 93040500 		mv	s1,a0
 1661              	.LVL114:
 477:src/riscv.cpp ****         ConsoleUtil::putOutput(13);
 1662              		.loc 1 477 5 is_stmt 1
 1663 0814 9307D000 		li	a5,13
 1664 0818 6306F502 		beq	a0,a5,.L89
 482:src/riscv.cpp ****         ConsoleUtil::putOutput(c);
 1665              		.loc 1 482 10
 1666 081c 9307B001 		li	a5,27
 1667 0820 6310F504 		bne	a0,a5,.L90
 1668              	.LVL115:
 1669              	.L87:
 486:src/riscv.cpp **** 
 1670              		.loc 1 486 5
 486:src/riscv.cpp **** 
 1671              		.loc 1 486 39 is_stmt 0
 1672              	#APP
 1673              	# 486 "src/riscv.cpp" 1
 488:src/riscv.cpp **** }
 1674              		mv a0, s1
 1675              	# 0 "" 2
 1676              		.loc 1 488 5 is_stmt 1
 488:src/riscv.cpp **** }
 1677              		.loc 1 488 28 is_stmt 0
 1678              	#NO_APP
 1679 0828 97000000 		call	_ZN5RiscV16saveA0toSscratchEv
 1679      E7800000 
GAS LISTING /tmp/cceSRYBb.s 			page 50


 1680              	.LVL116:
 489:src/riscv.cpp **** 
 1681              		.loc 1 489 1
 1682 0830 83308101 		ld	ra,24(sp)
 1683              		.cfi_remember_state
 1684              		.cfi_restore 1
 1685 0834 03340101 		ld	s0,16(sp)
 1686              		.cfi_restore 8
 1687              		.cfi_def_cfa 2, 32
 1688 0838 83348100 		ld	s1,8(sp)
 1689              		.cfi_restore 9
 1690 083c 13010102 		addi	sp,sp,32
 1691              		.cfi_def_cfa_offset 0
 1692 0840 67800000 		jr	ra
 1693              	.LVL117:
 1694              	.L89:
 1695              		.cfi_restore_state
 478:src/riscv.cpp ****         ConsoleUtil::putOutput(10);
 1696              		.loc 1 478 9 is_stmt 1
 478:src/riscv.cpp ****         ConsoleUtil::putOutput(10);
 1697              		.loc 1 478 31 is_stmt 0
 1698 0844 1305D000 		li	a0,13
 1699              	.LVL118:
 1700 0848 97000000 		call	_ZN11ConsoleUtil9putOutputEc@plt
 1700      E7800000 
 1701              	.LVL119:
 479:src/riscv.cpp ****     }
 1702              		.loc 1 479 9 is_stmt 1
 479:src/riscv.cpp ****     }
 1703              		.loc 1 479 31 is_stmt 0
 1704 0850 1305A000 		li	a0,10
 1705 0854 97000000 		call	_ZN11ConsoleUtil9putOutputEc@plt
 1705      E7800000 
 1706              	.LVL120:
 1707 085c 6FF09FFC 		j	.L87
 1708              	.LVL121:
 1709              	.L90:
 483:src/riscv.cpp **** 
 1710              		.loc 1 483 9 is_stmt 1
 483:src/riscv.cpp **** 
 1711              		.loc 1 483 31 is_stmt 0
 1712 0860 97000000 		call	_ZN11ConsoleUtil9putOutputEc@plt
 1712      E7800000 
 1713              	.LVL122:
 1714 0868 6FF0DFFB 		j	.L87
 1715              		.cfi_endproc
 1716              	.LFE57:
 1718              		.align	2
 1719              		.globl	_ZN5RiscV22executePutcUtilSyscallEv
 1721              	_ZN5RiscV22executePutcUtilSyscallEv:
 1722              	.LFB60:
 539:src/riscv.cpp ****     char c = ConsoleUtil::getOutput();
 1723              		.loc 1 539 38 is_stmt 1
 1724              		.cfi_startproc
 1725 086c 130101FF 		addi	sp,sp,-16
 1726              		.cfi_def_cfa_offset 16
 1727 0870 23341100 		sd	ra,8(sp)
GAS LISTING /tmp/cceSRYBb.s 			page 51


 1728 0874 23308100 		sd	s0,0(sp)
 1729              		.cfi_offset 1, -8
 1730              		.cfi_offset 8, -16
 1731 0878 13040101 		addi	s0,sp,16
 1732              		.cfi_def_cfa 8, 0
 540:src/riscv.cpp ****     asm("mv a0, %[c]" : : [c] "r" ((uint64)(c)) );
 1733              		.loc 1 540 5
 540:src/riscv.cpp ****     asm("mv a0, %[c]" : : [c] "r" ((uint64)(c)) );
 1734              		.loc 1 540 36 is_stmt 0
 1735 087c 97000000 		call	_ZN11ConsoleUtil9getOutputEv@plt
 1735      E7800000 
 1736              	.LVL123:
 541:src/riscv.cpp **** 
 1737              		.loc 1 541 5 is_stmt 1
 541:src/riscv.cpp **** 
 1738              		.loc 1 541 50 is_stmt 0
 1739              	#APP
 1740              	# 541 "src/riscv.cpp" 1
 543:src/riscv.cpp **** }
 1741              		mv a0, a0
 1742              	# 0 "" 2
 1743              		.loc 1 543 5 is_stmt 1
 543:src/riscv.cpp **** }
 1744              		.loc 1 543 28 is_stmt 0
 1745              	#NO_APP
 1746 0888 97000000 		call	_ZN5RiscV16saveA0toSscratchEv
 1746      E7800000 
 1747              	.LVL124:
 544:src/riscv.cpp **** 
 1748              		.loc 1 544 1
 1749 0890 83308100 		ld	ra,8(sp)
 1750              		.cfi_restore 1
 1751 0894 03340100 		ld	s0,0(sp)
 1752              		.cfi_restore 8
 1753              		.cfi_def_cfa 2, 16
 1754 0898 13010101 		addi	sp,sp,16
 1755              		.cfi_def_cfa_offset 0
 1756 089c 67800000 		jr	ra
 1757              		.cfi_endproc
 1758              	.LFE60:
 1760              		.align	2
 1761              		.globl	_ZN5RiscV24executeThreadFreeSyscallEv
 1763              	_ZN5RiscV24executeThreadFreeSyscallEv:
 1764              	.LFB64:
 582:src/riscv.cpp **** 
 583:src/riscv.cpp **** //syscall to free the space that is allocated for thread
 584:src/riscv.cpp **** void RiscV::executeThreadFreeSyscall() {
 1765              		.loc 1 584 40 is_stmt 1
 1766              		.cfi_startproc
 1767 08a0 130101FE 		addi	sp,sp,-32
 1768              		.cfi_def_cfa_offset 32
 1769 08a4 233C1100 		sd	ra,24(sp)
 1770 08a8 23388100 		sd	s0,16(sp)
 1771 08ac 23349100 		sd	s1,8(sp)
 1772              		.cfi_offset 1, -8
 1773              		.cfi_offset 8, -16
 1774              		.cfi_offset 9, -24
GAS LISTING /tmp/cceSRYBb.s 			page 52


 1775 08b0 13040102 		addi	s0,sp,32
 1776              		.cfi_def_cfa 8, 0
 585:src/riscv.cpp ****     uint64 iaddr, status;
 1777              		.loc 1 585 5
 586:src/riscv.cpp **** 
 587:src/riscv.cpp ****     asm("mv %[iaddr], a1" : [iaddr] "=r"(iaddr));
 1778              		.loc 1 587 5
 1779              		.loc 1 587 49 is_stmt 0
 1780              	#APP
 1781              	# 587 "src/riscv.cpp" 1
 588              	
 1782              		mv s1, a1
 1783              	# 0 "" 2
 1784              	.LVL125:
 589:src/riscv.cpp ****     TCB *thr = (TCB*)iaddr;
 1785              		.loc 1 589 5 is_stmt 1
 590:src/riscv.cpp **** 
 591:src/riscv.cpp ****     if(thr == nullptr)
 1786              		.loc 1 591 5
 1787              	#NO_APP
 1788 08b8 63940402 		bnez	s1,.L96
 1789              	.L94:
 1790              	.LVL126:
 592:src/riscv.cpp ****         status = -1;
 593:src/riscv.cpp ****     else {
 594:src/riscv.cpp ****         kfree(thr->stack);
 595:src/riscv.cpp ****         delete thr;
 596:src/riscv.cpp ****     }
 597:src/riscv.cpp **** 
 598:src/riscv.cpp ****     //return status
 599:src/riscv.cpp ****     asm("mv a0, %[status]" : : [status] "r" (status));
 1791              		.loc 1 599 5
 1792              		.loc 1 599 54 is_stmt 0
 1793 08bc 9307F0FF 		li	a5,-1
 1794              	#APP
 1795              	# 599 "src/riscv.cpp" 1
 600              	
 601:src/riscv.cpp ****     RiscV::saveA0toSscratch();
 1796              		mv a0, a5
 1797              	# 0 "" 2
 1798              		.loc 1 601 5 is_stmt 1
 1799              		.loc 1 601 28 is_stmt 0
 1800              	#NO_APP
 1801 08c4 97000000 		call	_ZN5RiscV16saveA0toSscratchEv
 1801      E7800000 
 1802              	.LVL127:
 602:src/riscv.cpp **** }
 1803              		.loc 1 602 1
 1804 08cc 83308101 		ld	ra,24(sp)
 1805              		.cfi_remember_state
 1806              		.cfi_restore 1
 1807 08d0 03340101 		ld	s0,16(sp)
 1808              		.cfi_restore 8
 1809              		.cfi_def_cfa 2, 32
 1810 08d4 83348100 		ld	s1,8(sp)
 1811              		.cfi_restore 9
 1812              	.LVL128:
GAS LISTING /tmp/cceSRYBb.s 			page 53


 1813 08d8 13010102 		addi	sp,sp,32
 1814              		.cfi_def_cfa_offset 0
 1815 08dc 67800000 		jr	ra
 1816              	.LVL129:
 1817              	.L96:
 1818              		.cfi_restore_state
 594:src/riscv.cpp ****         delete thr;
 1819              		.loc 1 594 9 is_stmt 1
 594:src/riscv.cpp ****         delete thr;
 1820              		.loc 1 594 14 is_stmt 0
 1821 08e0 03B58402 		ld	a0,40(s1)
 1822 08e4 97000000 		call	_Z5kfreePKv@plt
 1822      E7800000 
 1823              	.LVL130:
 595:src/riscv.cpp ****     }
 1824              		.loc 1 595 9 is_stmt 1
 595:src/riscv.cpp ****     }
 1825              		.loc 1 595 16 is_stmt 0
 1826 08ec 13850400 		mv	a0,s1
 1827 08f0 97000000 		call	_ZN3TCBD1Ev@plt
 1827      E7800000 
 1828              	.LVL131:
 1829 08f8 13850400 		mv	a0,s1
 1830 08fc 97000000 		call	_ZN3TCBdlEPv@plt
 1830      E7800000 
 1831              	.LVL132:
 1832 0904 6FF09FFB 		j	.L94
 1833              		.cfi_endproc
 1834              	.LFE64:
 1836              		.align	2
 1837              		.globl	_ZN5RiscV27executeSemaphoreFreeSyscallEv
 1839              	_ZN5RiscV27executeSemaphoreFreeSyscallEv:
 1840              	.LFB65:
 603:src/riscv.cpp **** 
 604:src/riscv.cpp **** //syscall to free the space that is allocated for semaphore
 605:src/riscv.cpp **** void RiscV::executeSemaphoreFreeSyscall() {
 1841              		.loc 1 605 43 is_stmt 1
 1842              		.cfi_startproc
 1843 0908 130101FE 		addi	sp,sp,-32
 1844              		.cfi_def_cfa_offset 32
 1845 090c 233C1100 		sd	ra,24(sp)
 1846 0910 23388100 		sd	s0,16(sp)
 1847 0914 23349100 		sd	s1,8(sp)
 1848              		.cfi_offset 1, -8
 1849              		.cfi_offset 8, -16
 1850              		.cfi_offset 9, -24
 1851 0918 13040102 		addi	s0,sp,32
 1852              		.cfi_def_cfa 8, 0
 606:src/riscv.cpp ****     uint64 iaddr, status;
 1853              		.loc 1 606 5
 607:src/riscv.cpp **** 
 608:src/riscv.cpp ****     //call internal allocator and free memory which iaddr points to
 609:src/riscv.cpp ****     asm("mv %[iaddr], a1" : [iaddr] "=r"(iaddr));
 1854              		.loc 1 609 5
 1855              		.loc 1 609 49 is_stmt 0
 1856              	#APP
 1857              	# 609 "src/riscv.cpp" 1
GAS LISTING /tmp/cceSRYBb.s 			page 54


 610              	
 1858              		mv s1, a1
 1859              	# 0 "" 2
 1860              	.LVL133:
 611:src/riscv.cpp ****     SCB *scb = (SCB*)iaddr;
 1861              		.loc 1 611 5 is_stmt 1
 612:src/riscv.cpp **** 
 613:src/riscv.cpp ****     if(scb == nullptr){
 1862              		.loc 1 613 5
 1863              	#NO_APP
 1864 0920 63940402 		bnez	s1,.L100
 1865              	.L98:
 1866              	.LVL134:
 614:src/riscv.cpp ****         status = -1;
 615:src/riscv.cpp ****     }
 616:src/riscv.cpp ****     else
 617:src/riscv.cpp ****         delete scb;
 618:src/riscv.cpp **** 
 619:src/riscv.cpp ****     //return status
 620:src/riscv.cpp ****     asm("mv a0, %[status]" : : [status] "r" (status));
 1867              		.loc 1 620 5
 1868              		.loc 1 620 54 is_stmt 0
 1869 0924 9307F0FF 		li	a5,-1
 1870              	#APP
 1871              	# 620 "src/riscv.cpp" 1
 621              	
 622:src/riscv.cpp ****     RiscV::saveA0toSscratch();
 1872              		mv a0, a5
 1873              	# 0 "" 2
 1874              		.loc 1 622 5 is_stmt 1
 1875              		.loc 1 622 28 is_stmt 0
 1876              	#NO_APP
 1877 092c 97000000 		call	_ZN5RiscV16saveA0toSscratchEv
 1877      E7800000 
 1878              	.LVL135:
 623:src/riscv.cpp **** }
 1879              		.loc 1 623 1
 1880 0934 83308101 		ld	ra,24(sp)
 1881              		.cfi_remember_state
 1882              		.cfi_restore 1
 1883 0938 03340101 		ld	s0,16(sp)
 1884              		.cfi_restore 8
 1885              		.cfi_def_cfa 2, 32
 1886 093c 83348100 		ld	s1,8(sp)
 1887              		.cfi_restore 9
 1888              	.LVL136:
 1889 0940 13010102 		addi	sp,sp,32
 1890              		.cfi_def_cfa_offset 0
 1891 0944 67800000 		jr	ra
 1892              	.LVL137:
 1893              	.L100:
 1894              		.cfi_restore_state
 617:src/riscv.cpp **** 
 1895              		.loc 1 617 9 is_stmt 1 discriminator 1
 617:src/riscv.cpp **** 
 1896              		.loc 1 617 16 is_stmt 0 discriminator 1
 1897 0948 13850400 		mv	a0,s1
GAS LISTING /tmp/cceSRYBb.s 			page 55


 1898 094c 97000000 		call	_ZN3SCBD1Ev@plt
 1898      E7800000 
 1899              	.LVL138:
 1900 0954 13850400 		mv	a0,s1
 1901 0958 97000000 		call	_ZN3SCBdlEPv@plt
 1901      E7800000 
 1902              	.LVL139:
 1903 0960 6FF05FFC 		j	.L98
 1904              		.cfi_endproc
 1905              	.LFE65:
 1907              		.align	2
 1908              		.globl	_ZN5RiscV18executeForkSyscallEv
 1910              	_ZN5RiscV18executeForkSyscallEv:
 1911              	.LFB66:
 624:src/riscv.cpp **** 
 625:src/riscv.cpp **** //fork syscall
 626:src/riscv.cpp **** void RiscV::executeForkSyscall() {
 1912              		.loc 1 626 34 is_stmt 1
 1913              		.cfi_startproc
 1914              		.cfi_personality 0x9b,DW.ref.__gxx_personality_v0
 1915              		.cfi_lsda 0x1b,.LLSDA66
 1916 0964 130101FE 		addi	sp,sp,-32
 1917              		.cfi_def_cfa_offset 32
 1918 0968 233C1100 		sd	ra,24(sp)
 1919 096c 23388100 		sd	s0,16(sp)
 1920 0970 23349100 		sd	s1,8(sp)
 1921 0974 23302101 		sd	s2,0(sp)
 1922              		.cfi_offset 1, -8
 1923              		.cfi_offset 8, -16
 1924              		.cfi_offset 9, -24
 1925              		.cfi_offset 18, -32
 1926 0978 13040102 		addi	s0,sp,32
 1927              		.cfi_def_cfa 8, 0
 627:src/riscv.cpp **** 
 628:src/riscv.cpp ****     //create new stack and copy stack from currently running stack into the new one
 629:src/riscv.cpp ****     uint64 *stack = (uint64*)kmalloc(DEFAULT_STACK_SIZE);
 1928              		.loc 1 629 5
 1929              		.loc 1 629 37 is_stmt 0
 1930 097c 37150000 		li	a0,4096
 1931              	.LEHB10:
 1932 0980 97000000 		call	_Z7kmallocm@plt
 1932      E7800000 
 1933              	.LVL140:
 1934 0988 13090500 		mv	s2,a0
 1935              	.LVL141:
 630:src/riscv.cpp **** 
 631:src/riscv.cpp ****     MemoryAllocator::memcpy((void*)TCB::running->stack,(void*)stack,DEFAULT_STACK_SIZE);
 1936              		.loc 1 631 5 is_stmt 1
 1937              		.loc 1 631 28 is_stmt 0
 1938 098c 97070000 		la	a5,_ZN3TCB7runningE
 1938      83B70700 
 1939 0994 83B70700 		ld	a5,0(a5)
 1940 0998 37160000 		li	a2,4096
 1941 099c 93050500 		mv	a1,a0
 1942 09a0 03B58702 		ld	a0,40(a5)
 1943              	.LVL142:
 1944 09a4 97000000 		call	_ZN15MemoryAllocator6memcpyEPvS0_m@plt
GAS LISTING /tmp/cceSRYBb.s 			page 56


 1944      E7800000 
 1945              	.LVL143:
 632:src/riscv.cpp **** 
 633:src/riscv.cpp ****     //create new TCB for new thread
 634:src/riscv.cpp ****     TCB *forked = new TCB(nullptr, nullptr, stack, DEFAULT_TIME_SLICE);
 1946              		.loc 1 634 5 is_stmt 1
 1947              		.loc 1 634 70 is_stmt 0
 1948 09ac 13050007 		li	a0,112
 1949 09b0 97000000 		call	_ZN3TCBnwEm@plt
 1949      E7800000 
 1950              	.LVL144:
 1951              	.LEHE10:
 1952 09b8 93040500 		mv	s1,a0
 1953 09bc 13072000 		li	a4,2
 1954 09c0 93060900 		mv	a3,s2
 1955 09c4 13060000 		li	a2,0
 1956 09c8 93050000 		li	a1,0
 1957              	.LEHB11:
 1958 09cc 97000000 		call	_ZN3TCBC1EPFvPvES0_Pmm@plt
 1958      E7800000 
 1959              	.LVL145:
 1960              	.LEHE11:
 635:src/riscv.cpp **** 
 636:src/riscv.cpp ****     uint64 status = 0;
 1961              		.loc 1 636 5 is_stmt 1 discriminator 2
 637:src/riscv.cpp **** 
 638:src/riscv.cpp ****     if(forked) {
 1962              		.loc 1 638 5 discriminator 2
 1963              	.LBB124:
 1964 09d4 638E040A 		beqz	s1,.L104
 1965              	.LBB125:
 639:src/riscv.cpp **** 
 640:src/riscv.cpp ****         //set return address where forked thread should return
 641:src/riscv.cpp ****         forked->context.ra = TCB::currentPC;
 1966              		.loc 1 641 9
 1967              		.loc 1 641 28 is_stmt 0
 1968 09d8 97070000 		la	a5,_ZN3TCB9currentPCE
 1968      83B70700 
 1969 09e0 83B70700 		ld	a5,0(a5)
 1970 09e4 23B4F400 		sd	a5,8(s1)
 642:src/riscv.cpp **** 
 643:src/riscv.cpp ****         //set SP value where forked thread's stack starts
 644:src/riscv.cpp ****         forked->context.sp = (uint64)((char*)stack + TCB::currentSP - (char*)TCB::running->stack);
 1971              		.loc 1 644 9 is_stmt 1
 1972              		.loc 1 644 59 is_stmt 0
 1973 09e8 97070000 		la	a5,_ZN3TCB9currentSPE
 1973      83B70700 
 1974 09f0 83B70700 		ld	a5,0(a5)
 1975              		.loc 1 644 52
 1976 09f4 B307F900 		add	a5,s2,a5
 1977              		.loc 1 644 71
 1978 09f8 17070000 		la	a4,_ZN3TCB7runningE
 1978      03370700 
 1979 0a00 83360700 		ld	a3,0(a4)
 1980              		.loc 1 644 92
 1981 0a04 83B68602 		ld	a3,40(a3)
 1982              		.loc 1 644 69
GAS LISTING /tmp/cceSRYBb.s 			page 57


 1983 0a08 B387D740 		sub	a5,a5,a3
 1984              		.loc 1 644 28
 1985 0a0c 23B0F400 		sd	a5,0(s1)
 645:src/riscv.cpp **** 
 646:src/riscv.cpp ****         //get memory location of where registers are stored from previous context switch
 647:src/riscv.cpp ****         uint64 registerStartSP = (uint64)((char*)TCB::running->a0Location - (char*)TCB::running->st
 1986              		.loc 1 647 9 is_stmt 1
 1987              		.loc 1 647 64 is_stmt 0
 1988 0a10 83370700 		ld	a5,0(a4)
 1989 0a14 03B58706 		ld	a0,104(a5)
 1990              		.loc 1 647 98
 1991 0a18 83B78702 		ld	a5,40(a5)
 1992              		.loc 1 647 75
 1993 0a1c 3305F540 		sub	a0,a0,a5
 1994              		.loc 1 647 104
 1995 0a20 3309A900 		add	s2,s2,a0
 1996              	.LVL146:
 648:src/riscv.cpp **** 
 649:src/riscv.cpp ****         forked->a0Location = registerStartSP;
 1997              		.loc 1 649 9 is_stmt 1
 1998              		.loc 1 649 28 is_stmt 0
 1999 0a24 23B42407 		sd	s2,104(s1)
 650:src/riscv.cpp **** 
 651:src/riscv.cpp ****         uint64 a1,a0;
 2000              		.loc 1 651 9 is_stmt 1
 652:src/riscv.cpp **** 
 653:src/riscv.cpp ****         //write address of stored registers in SP of forked thread so that it can return regularly
 654:src/riscv.cpp ****         asm("mv %[a1], a1": [a1] "=r"(a1));
 2001              		.loc 1 654 9
 2002              		.loc 1 654 43 is_stmt 0
 2003              	#APP
 2004              	# 654 "src/riscv.cpp" 1
 655              	
 656:src/riscv.cpp ****         asm("mv %[a0], a0": [a0] "=r"(a0));
 2005              		mv a3, a1
 2006              	# 0 "" 2
 2007              		.loc 1 656 9 is_stmt 1
 2008              		.loc 1 656 43 is_stmt 0
 2009              	# 656 "src/riscv.cpp" 1
 657              	
 658:src/riscv.cpp ****         asm("mv a0,%[a0]"::  [a0]"r"(registerStartSP));
 2010              		mv a5, a0
 2011              	# 0 "" 2
 2012              		.loc 1 658 9 is_stmt 1
 2013              		.loc 1 658 55 is_stmt 0
 2014              	# 658 "src/riscv.cpp" 1
 659              	
 660:src/riscv.cpp ****         asm("mv a1, %[a0]" : :  [a0] "r"(registerStartSP));
 2015              		mv a0,s2
 2016              	# 0 "" 2
 2017              		.loc 1 660 9 is_stmt 1
 2018              		.loc 1 660 59 is_stmt 0
 2019              	# 660 "src/riscv.cpp" 1
 661              	
 662:src/riscv.cpp ****         asm("sd a0, 16(a1)");
 2020              		mv a1, s2
 2021              	# 0 "" 2
GAS LISTING /tmp/cceSRYBb.s 			page 58


 2022              		.loc 1 662 9 is_stmt 1
 2023              		.loc 1 662 29 is_stmt 0
 2024              	# 662 "src/riscv.cpp" 1
 663              	
 664:src/riscv.cpp ****         //write 0 in a0 register of forked thread because fork should return 0 in context of child,
 665:src/riscv.cpp ****         asm("li a0, 0");
 2025              		sd a0, 16(a1)
 2026              	# 0 "" 2
 2027              		.loc 1 665 9 is_stmt 1
 2028              		.loc 1 665 24 is_stmt 0
 2029              	# 665 "src/riscv.cpp" 1
 666              	
 667:src/riscv.cpp ****         asm("sd a0, 80(a1)");
 2030              		li a0, 0
 2031              	# 0 "" 2
 2032              		.loc 1 667 9 is_stmt 1
 2033              		.loc 1 667 29 is_stmt 0
 2034              	# 667 "src/riscv.cpp" 1
 668              	
 669:src/riscv.cpp ****         asm("mv a1,%[a1]"::  [a1]"r"(a1));
 2035              		sd a0, 80(a1)
 2036              	# 0 "" 2
 2037              		.loc 1 669 9 is_stmt 1
 2038              		.loc 1 669 42 is_stmt 0
 2039              	# 669 "src/riscv.cpp" 1
 670              	
 671:src/riscv.cpp ****         asm("mv a0,%[a0]"::  [a0]"r"(a0));
 2040              		mv a1,a3
 2041              	# 0 "" 2
 2042              		.loc 1 671 9 is_stmt 1
 2043              		.loc 1 671 42 is_stmt 0
 2044              	# 671 "src/riscv.cpp" 1
 672              	
 673:src/riscv.cpp ****         forked->sepc = TCB::running->sepc;
 2045              		mv a0,a5
 2046              	# 0 "" 2
 2047              		.loc 1 673 9 is_stmt 1
 2048              		.loc 1 673 38 is_stmt 0
 2049              	#NO_APP
 2050 0a4c 83370700 		ld	a5,0(a4)
 2051 0a50 03B78703 		ld	a4,56(a5)
 2052              		.loc 1 673 22
 2053 0a54 23BCE402 		sd	a4,56(s1)
 674:src/riscv.cpp **** 
 675:src/riscv.cpp ****         forked->sstatus = TCB::running->sstatus;
 2054              		.loc 1 675 9 is_stmt 1
 2055              		.loc 1 675 41 is_stmt 0
 2056 0a58 83B70704 		ld	a5,64(a5)
 2057              		.loc 1 675 25
 2058 0a5c 23B0F404 		sd	a5,64(s1)
 676:src/riscv.cpp **** 
 677:src/riscv.cpp ****         //put forked in scheduler
 678:src/riscv.cpp ****         Scheduler::put(forked);
 2059              		.loc 1 678 9 is_stmt 1
 2060              		.loc 1 678 23 is_stmt 0
 2061 0a60 13850400 		mv	a0,s1
 2062              	.LEHB12:
GAS LISTING /tmp/cceSRYBb.s 			page 59


 2063 0a64 97000000 		call	_ZN9Scheduler3putEP3TCB@plt
 2063      E7800000 
 2064              	.LVL147:
 2065              	.LEHE12:
 679:src/riscv.cpp **** 
 680:src/riscv.cpp ****         //return address of forked as thread ID
 681:src/riscv.cpp ****         status = (uint64)forked;
 2066              		.loc 1 681 9 is_stmt 1
 2067              	.L102:
 2068              	.LBE125:
 2069              	.LBE124:
 682:src/riscv.cpp ****     }else
 683:src/riscv.cpp ****         status = -1;
 684:src/riscv.cpp **** 
 685:src/riscv.cpp ****     asm("mv a0, %[status]" : : [status] "r" (status));
 2070              		.loc 1 685 5
 2071              		.loc 1 685 54 is_stmt 0
 2072              	#APP
 2073              	# 685 "src/riscv.cpp" 1
 686              	
 687:src/riscv.cpp ****     RiscV::saveA0toSscratch();
 2074              		mv a0, s1
 2075              	# 0 "" 2
 2076              		.loc 1 687 5 is_stmt 1
 2077              		.loc 1 687 28 is_stmt 0
 2078              	#NO_APP
 2079 0a70 97000000 		call	_ZN5RiscV16saveA0toSscratchEv
 2079      E7800000 
 2080              	.LVL148:
 688:src/riscv.cpp **** 
 689:src/riscv.cpp **** }
 2081              		.loc 1 689 1
 2082 0a78 83308101 		ld	ra,24(sp)
 2083              		.cfi_remember_state
 2084              		.cfi_restore 1
 2085 0a7c 03340101 		ld	s0,16(sp)
 2086              		.cfi_restore 8
 2087              		.cfi_def_cfa 2, 32
 2088 0a80 83348100 		ld	s1,8(sp)
 2089              		.cfi_restore 9
 2090              	.LVL149:
 2091 0a84 03390100 		ld	s2,0(sp)
 2092              		.cfi_restore 18
 2093 0a88 13010102 		addi	sp,sp,32
 2094              		.cfi_def_cfa_offset 0
 2095 0a8c 67800000 		jr	ra
 2096              	.LVL150:
 2097              	.L104:
 2098              		.cfi_restore_state
 2099              	.LBB126:
 683:src/riscv.cpp **** 
 2100              		.loc 1 683 16
 2101 0a90 9304F0FF 		li	s1,-1
 2102              	.LVL151:
 2103 0a94 6FF09FFD 		j	.L102
 2104              	.LVL152:
 2105              	.L105:
GAS LISTING /tmp/cceSRYBb.s 			page 60


 2106 0a98 13090500 		mv	s2,a0
 2107              	.LVL153:
 2108              	.LBE126:
 634:src/riscv.cpp **** 
 2109              		.loc 1 634 70
 2110 0a9c 13850400 		mv	a0,s1
 2111 0aa0 97000000 		call	_ZN3TCBdlEPv@plt
 2111      E7800000 
 2112              	.LVL154:
 2113 0aa8 13050900 		mv	a0,s2
 2114              	.LEHB13:
 2115 0aac 97000000 		call	_Unwind_Resume@plt
 2115      E7800000 
 2116              	.LVL155:
 2117              	.LEHE13:
 2118              		.cfi_endproc
 2119              	.LFE66:
 2120              		.section	.gcc_except_table
 2121              	.LLSDA66:
 2122 008e FF       		.byte	0xff
 2123 008f FF       		.byte	0xff
 2124 0090 03       		.byte	0x3
 2125 0091 34       		.byte	0x34
 2126 0092 00000000 		.4byte	.LEHB10-.LFB66
 2127 0096 00000000 		.4byte	.LEHE10-.LEHB10
 2128 009a 00000000 		.4byte	0
 2129 009e 00       		.byte	0
 2130 009f 00000000 		.4byte	.LEHB11-.LFB66
 2131 00a3 00000000 		.4byte	.LEHE11-.LEHB11
 2132 00a7 00000000 		.4byte	.L105-.LFB66
 2133 00ab 00       		.byte	0
 2134 00ac 00000000 		.4byte	.LEHB12-.LFB66
 2135 00b0 00000000 		.4byte	.LEHE12-.LEHB12
 2136 00b4 00000000 		.4byte	0
 2137 00b8 00       		.byte	0
 2138 00b9 00000000 		.4byte	.LEHB13-.LFB66
 2139 00bd 00000000 		.4byte	.LEHE13-.LEHB13
 2140 00c1 00000000 		.4byte	0
 2141 00c5 00       		.byte	0
 2142              		.text
 2144              		.align	2
 2145              		.globl	_ZN5RiscV5getPCEv
 2147              	_ZN5RiscV5getPCEv:
 2148              	.LFB67:
 690:src/riscv.cpp **** 
 691:src/riscv.cpp **** void RiscV::getPC(){
 2149              		.loc 1 691 20 is_stmt 1
 2150              		.cfi_startproc
 2151 0ab4 130101FF 		addi	sp,sp,-16
 2152              		.cfi_def_cfa_offset 16
 2153 0ab8 23348100 		sd	s0,8(sp)
 2154              		.cfi_offset 8, -8
 2155 0abc 13040101 		addi	s0,sp,16
 2156              		.cfi_def_cfa 8, 0
 692:src/riscv.cpp ****     uint64 ra;
 2157              		.loc 1 692 5
 693:src/riscv.cpp **** 
GAS LISTING /tmp/cceSRYBb.s 			page 61


 694:src/riscv.cpp ****     asm("mv %[ra], ra" : [ra] "=r"(ra));
 2158              		.loc 1 694 5
 2159              		.loc 1 694 40 is_stmt 0
 2160              	#APP
 2161              	# 694 "src/riscv.cpp" 1
 695              	
 2162              		mv a5, ra
 2163              	# 0 "" 2
 2164              	.LVL156:
 696:src/riscv.cpp ****     TCB::currentPC = ra + 8;
 2165              		.loc 1 696 5 is_stmt 1
 2166              		.loc 1 696 25 is_stmt 0
 2167              	#NO_APP
 2168 0ac4 93878700 		addi	a5,a5,8
 2169              	.LVL157:
 2170              		.loc 1 696 20
 2171 0ac8 17070000 		la	a4,_ZN3TCB9currentPCE
 2171      03370700 
 2172 0ad0 2330F700 		sd	a5,0(a4)
 697:src/riscv.cpp **** }
 2173              		.loc 1 697 1
 2174 0ad4 03348100 		ld	s0,8(sp)
 2175              		.cfi_restore 8
 2176              		.cfi_def_cfa 2, 16
 2177 0ad8 13010101 		addi	sp,sp,16
 2178              		.cfi_def_cfa_offset 0
 2179 0adc 67800000 		jr	ra
 2180              		.cfi_endproc
 2181              	.LFE67:
 2183              		.section	.rodata.str1.8,"aMS",@progbits,1
 2184              		.align	3
 2185              	.LC0:
 2186 0000 73657063 		.string	"sepc: "
 2186      3A2000
 2187 0007 00       		.align	3
 2188              	.LC1:
 2189 0008 0A00     		.string	"\n"
 2190 000a 00000000 		.align	3
 2190      0000
 2191              	.LC2:
 2192 0010 496C6C65 		.string	"Illegal instruction\nExiting thread...\n"
 2192      67616C20 
 2192      696E7374 
 2192      72756374 
 2192      696F6E0A 
 2193 0037 00       		.align	3
 2194              	.LC3:
 2195 0038 4572726F 		.string	"Error: \n"
 2195      723A200A 
 2195      00
 2196 0041 00000000 		.align	3
 2196      000000
 2197              	.LC4:
 2198 0048 73636175 		.string	"scause: "
 2198      73653A20 
 2198      00
 2199 0051 00000000 		.align	3
GAS LISTING /tmp/cceSRYBb.s 			page 62


 2199      000000
 2200              	.LC5:
 2201 0058 45786974 		.string	"Exiting thread...\n"
 2201      696E6720 
 2201      74687265 
 2201      61642E2E 
 2201      2E0A00
 2202              		.text
 2203              		.align	2
 2204              		.globl	_ZN5RiscV20handleSupervisorTrapEv
 2206              	_ZN5RiscV20handleSupervisorTrapEv:
 2207              	.LFB44:
  38:src/riscv.cpp **** 
 2208              		.loc 1 38 36 is_stmt 1
 2209              		.cfi_startproc
 2210 0ae0 130101FA 		addi	sp,sp,-96
 2211              		.cfi_def_cfa_offset 96
 2212 0ae4 233C1104 		sd	ra,88(sp)
 2213 0ae8 23388104 		sd	s0,80(sp)
 2214              		.cfi_offset 1, -8
 2215              		.cfi_offset 8, -16
 2216 0aec 13040106 		addi	s0,sp,96
 2217              		.cfi_def_cfa 8, 0
  41:src/riscv.cpp **** 
 2218              		.loc 1 41 5
 2219              	.LBB127:
 2220              	.LBB128:
 132:src/../h/riscv.hpp ****     asm("csrr %[scause], scause" : [scause] "=r" (scause));
 2221              		.loc 2 132 5
 133:src/../h/riscv.hpp ****     return scause;
 2222              		.loc 2 133 5
 133:src/../h/riscv.hpp ****     return scause;
 2223              		.loc 2 133 59 is_stmt 0
 2224              	#APP
 2225              	# 133 "src/../h/riscv.hpp" 1
 2226              		csrr a5, scause
 2227              	# 0 "" 2
 2228              	#NO_APP
 2229 0af4 233CF4FC 		sd	a5,-40(s0)
 134:src/../h/riscv.hpp **** }
 2230              		.loc 2 134 5 is_stmt 1
 134:src/../h/riscv.hpp **** }
 2231              		.loc 2 134 12 is_stmt 0
 2232 0af8 833784FD 		ld	a5,-40(s0)
 2233              	.LBE128:
 2234              	.LBE127:
  41:src/riscv.cpp **** 
 2235              		.loc 1 41 46
 2236 0afc 2334F4FE 		sd	a5,-24(s0)
  43:src/riscv.cpp **** 
 2237              		.loc 1 43 5 is_stmt 1
  43:src/riscv.cpp **** 
 2238              		.loc 1 43 71 is_stmt 0
 2239 0b00 97070000 		la	a5,_ZN3TCB7runningE
 2239      83B70700 
 2240 0b08 83B70700 		ld	a5,0(a5)
  43:src/riscv.cpp **** 
GAS LISTING /tmp/cceSRYBb.s 			page 63


 2241              		.loc 1 43 83
 2242              	#APP
 2243              	# 43 "src/riscv.cpp" 1
 2244              		csrr a4, sscratch
 2245              	# 0 "" 2
 2246              	#NO_APP
 2247 0b10 23B4E706 		sd	a4,104(a5)
  46:src/riscv.cpp **** 
 2248              		.loc 1 46 5 is_stmt 1
 2249              	.LBB129:
  46:src/riscv.cpp **** 
 2250              		.loc 1 46 15 is_stmt 0
 2251 0b14 033784FE 		ld	a4,-24(s0)
  46:src/riscv.cpp **** 
 2252              		.loc 1 46 23
 2253 0b18 93079000 		li	a5,9
 2254 0b1c 6306F70E 		beq	a4,a5,.L111
  46:src/riscv.cpp **** 
 2255              		.loc 1 46 33 discriminator 2
 2256 0b20 033784FE 		ld	a4,-24(s0)
  46:src/riscv.cpp **** 
 2257              		.loc 1 46 23 discriminator 2
 2258 0b24 93078000 		li	a5,8
 2259 0b28 6300F70E 		beq	a4,a5,.L111
 2260              	.LBE129:
  92:src/riscv.cpp **** 
 2261              		.loc 1 92 10 is_stmt 1
 2262              	.LBB184:
 2263              	.LBB130:
  92:src/riscv.cpp **** 
 2264              		.loc 1 92 20 is_stmt 0
 2265 0b2c 033784FE 		ld	a4,-24(s0)
  92:src/riscv.cpp **** 
 2266              		.loc 1 92 10
 2267 0b30 9307F0FF 		li	a5,-1
 2268 0b34 9397F703 		slli	a5,a5,63
 2269 0b38 93871700 		addi	a5,a5,1
 2270 0b3c 6302F724 		beq	a4,a5,.L141
 2271              	.LBE130:
 2272              	.LBE184:
 127:src/riscv.cpp ****         //save sstatus and sepc
 2273              		.loc 1 127 10 is_stmt 1
 2274              	.LBB185:
 2275              	.LBB171:
 2276              	.LBB131:
 127:src/riscv.cpp ****         //save sstatus and sepc
 2277              		.loc 1 127 20 is_stmt 0
 2278 0b40 033784FE 		ld	a4,-24(s0)
 127:src/riscv.cpp ****         //save sstatus and sepc
 2279              		.loc 1 127 10
 2280 0b44 9307F0FF 		li	a5,-1
 2281 0b48 9397F703 		slli	a5,a5,63
 2282 0b4c 93879700 		addi	a5,a5,9
 2283 0b50 6300F72C 		beq	a4,a5,.L142
 2284              	.LBE131:
 2285              	.LBE171:
 2286              	.LBE185:
GAS LISTING /tmp/cceSRYBb.s 			page 64


 163:src/riscv.cpp ****         TCB* old = TCB::running;
 2287              		.loc 1 163 10 is_stmt 1
 2288              	.LBB186:
 2289              	.LBB172:
 2290              	.LBB155:
 2291              	.LBB132:
 163:src/riscv.cpp ****         TCB* old = TCB::running;
 2292              		.loc 1 163 20 is_stmt 0
 2293 0b54 033784FE 		ld	a4,-24(s0)
 163:src/riscv.cpp ****         TCB* old = TCB::running;
 2294              		.loc 1 163 10
 2295 0b58 93072000 		li	a5,2
 2296 0b5c 6308F734 		beq	a4,a5,.L143
 2297              	.LBB133:
 176:src/riscv.cpp ****         ConsoleUtil::printString("scause: ");
 2298              		.loc 1 176 9 is_stmt 1
 176:src/riscv.cpp ****         ConsoleUtil::printString("scause: ");
 2299              		.loc 1 176 33 is_stmt 0
 2300 0b60 17050000 		lla	a0,.LC3
 2300      13050500 
 2301 0b68 97000000 		call	_ZN11ConsoleUtil11printStringEPKc@plt
 2301      E7800000 
 2302              	.LVL158:
 177:src/riscv.cpp ****         uint64  scause = RiscV::r_scause();
 2303              		.loc 1 177 9 is_stmt 1
 177:src/riscv.cpp ****         uint64  scause = RiscV::r_scause();
 2304              		.loc 1 177 33 is_stmt 0
 2305 0b70 17050000 		lla	a0,.LC4
 2305      13050500 
 2306 0b78 97000000 		call	_ZN11ConsoleUtil11printStringEPKc@plt
 2306      E7800000 
 2307              	.LVL159:
 178:src/riscv.cpp ****         ConsoleUtil::printInt(scause);
 2308              		.loc 1 178 9 is_stmt 1
 2309              	.LBB134:
 2310              	.LBB135:
 132:src/../h/riscv.hpp ****     asm("csrr %[scause], scause" : [scause] "=r" (scause));
 2311              		.loc 2 132 5
 133:src/../h/riscv.hpp ****     return scause;
 2312              		.loc 2 133 5
 133:src/../h/riscv.hpp ****     return scause;
 2313              		.loc 2 133 59 is_stmt 0
 2314              	#APP
 2315              	# 133 "src/../h/riscv.hpp" 1
 2316              		csrr a5, scause
 2317              	# 0 "" 2
 2318              	#NO_APP
 2319 0b84 2330F4FE 		sd	a5,-32(s0)
 134:src/../h/riscv.hpp **** }
 2320              		.loc 2 134 5 is_stmt 1
 134:src/../h/riscv.hpp **** }
 2321              		.loc 2 134 12 is_stmt 0
 2322 0b88 033504FE 		ld	a0,-32(s0)
 2323              	.LVL160:
 2324              	.LBE135:
 2325              	.LBE134:
 179:src/riscv.cpp ****         ConsoleUtil::printString("sepc: ");
GAS LISTING /tmp/cceSRYBb.s 			page 65


 2326              		.loc 1 179 9 is_stmt 1
 179:src/riscv.cpp ****         ConsoleUtil::printString("sepc: ");
 2327              		.loc 1 179 30 is_stmt 0
 2328 0b8c 13060000 		li	a2,0
 2329 0b90 9305A000 		li	a1,10
 2330 0b94 1B050500 		sext.w	a0,a0
 2331              	.LVL161:
 2332 0b98 97000000 		call	_ZN11ConsoleUtil8printIntEiii@plt
 2332      E7800000 
 2333              	.LVL162:
 180:src/riscv.cpp ****         uint64 sepc = RiscV::r_sepc();
 2334              		.loc 1 180 9 is_stmt 1
 180:src/riscv.cpp ****         uint64 sepc = RiscV::r_sepc();
 2335              		.loc 1 180 33 is_stmt 0
 2336 0ba0 17050000 		lla	a0,.LC0
 2336      13050500 
 2337 0ba8 97000000 		call	_ZN11ConsoleUtil11printStringEPKc@plt
 2337      E7800000 
 2338              	.LVL163:
 181:src/riscv.cpp ****         ConsoleUtil::printInt(sepc,16);
 2339              		.loc 1 181 9 is_stmt 1
 2340              	.LBB136:
 2341              	.LBB137:
 142:src/../h/riscv.hpp ****     asm("csrr %[sepc], sepc" : [sepc] "=r" (sepc));
 2342              		.loc 2 142 5
 143:src/../h/riscv.hpp ****     return sepc;
 2343              		.loc 2 143 5
 143:src/../h/riscv.hpp ****     return sepc;
 2344              		.loc 2 143 51 is_stmt 0
 2345              	#APP
 2346              	# 143 "src/../h/riscv.hpp" 1
 144:src/../h/riscv.hpp **** }
 2347              		csrr a0, sepc
 2348              	# 0 "" 2
 2349              		.loc 2 144 5 is_stmt 1
 2350              	#NO_APP
 2351              	.LBE137:
 2352              	.LBE136:
 182:src/riscv.cpp ****         ConsoleUtil::printString("\n");
 2353              		.loc 1 182 9
 182:src/riscv.cpp ****         ConsoleUtil::printString("\n");
 2354              		.loc 1 182 30 is_stmt 0
 2355 0bb4 13060000 		li	a2,0
 2356 0bb8 93050001 		li	a1,16
 2357 0bbc 1B050500 		sext.w	a0,a0
 2358 0bc0 97000000 		call	_ZN11ConsoleUtil8printIntEiii@plt
 2358      E7800000 
 2359              	.LVL164:
 183:src/riscv.cpp ****         TCB* old = TCB::running;
 2360              		.loc 1 183 9 is_stmt 1
 183:src/riscv.cpp ****         TCB* old = TCB::running;
 2361              		.loc 1 183 33 is_stmt 0
 2362 0bc8 17050000 		lla	a0,.LC1
 2362      13050500 
 2363 0bd0 97000000 		call	_ZN11ConsoleUtil11printStringEPKc@plt
 2363      E7800000 
 2364              	.LVL165:
GAS LISTING /tmp/cceSRYBb.s 			page 66


 184:src/riscv.cpp ****         old->status = TCB::Status::FINISHED;
 2365              		.loc 1 184 9 is_stmt 1
 184:src/riscv.cpp ****         old->status = TCB::Status::FINISHED;
 2366              		.loc 1 184 14 is_stmt 0
 2367 0bd8 97070000 		la	a5,_ZN3TCB7runningE
 2367      83B70700 
 2368 0be0 83B70700 		ld	a5,0(a5)
 2369              	.LVL166:
 185:src/riscv.cpp ****         ConsoleUtil::printString("Exiting thread...\n");
 2370              		.loc 1 185 9 is_stmt 1
 185:src/riscv.cpp ****         ConsoleUtil::printString("Exiting thread...\n");
 2371              		.loc 1 185 21 is_stmt 0
 2372 0be4 13072000 		li	a4,2
 2373 0be8 23A8E700 		sw	a4,16(a5)
 186:src/riscv.cpp ****         TCB::dispatch();
 2374              		.loc 1 186 9 is_stmt 1
 186:src/riscv.cpp ****         TCB::dispatch();
 2375              		.loc 1 186 33 is_stmt 0
 2376 0bec 17050000 		lla	a0,.LC5
 2376      13050500 
 2377 0bf4 97000000 		call	_ZN11ConsoleUtil11printStringEPKc@plt
 2377      E7800000 
 2378              	.LVL167:
 187:src/riscv.cpp ****     }
 2379              		.loc 1 187 9 is_stmt 1
 187:src/riscv.cpp ****     }
 2380              		.loc 1 187 22 is_stmt 0
 2381 0bfc 97000000 		call	_ZN3TCB8dispatchEv@plt
 2381      E7800000 
 2382              	.LVL168:
 2383 0c04 6F000008 		j	.L134
 2384              	.L111:
 2385              	.LBE133:
 2386              	.LBE132:
 2387              	.LBE155:
 2388              	.LBE172:
 2389              	.LBB173:
  50:src/riscv.cpp ****         uint64 volatile sepc = RiscV::r_sepc()+4;
 2390              		.loc 1 50 9 is_stmt 1
 2391              	.LBB174:
 2392              	.LBB175:
 162:src/../h/riscv.hpp ****     asm("csrr %[sstatus], sstatus" : [sstatus] "=r" (sstatus));
 2393              		.loc 2 162 5
 163:src/../h/riscv.hpp ****     return sstatus;
 2394              		.loc 2 163 5
 163:src/../h/riscv.hpp ****     return sstatus;
 2395              		.loc 2 163 63 is_stmt 0
 2396              	#APP
 2397              	# 163 "src/../h/riscv.hpp" 1
 2398              		csrr a5, sstatus
 2399              	# 0 "" 2
 2400              	.LVL169:
 164:src/../h/riscv.hpp **** }
 2401              		.loc 2 164 5 is_stmt 1
 2402              	#NO_APP
 2403              	.LBE175:
 2404              	.LBE174:
GAS LISTING /tmp/cceSRYBb.s 			page 67


  50:src/riscv.cpp ****         uint64 volatile sepc = RiscV::r_sepc()+4;
 2405              		.loc 1 50 52 is_stmt 0
 2406 0c0c 2334F4FA 		sd	a5,-88(s0)
  51:src/riscv.cpp ****         TCB::running->sepc = sepc;
 2407              		.loc 1 51 9 is_stmt 1
 2408              	.LBB176:
 2409              	.LBB177:
 142:src/../h/riscv.hpp ****     asm("csrr %[sepc], sepc" : [sepc] "=r" (sepc));
 2410              		.loc 2 142 5
 143:src/../h/riscv.hpp ****     return sepc;
 2411              		.loc 2 143 5
 143:src/../h/riscv.hpp ****     return sepc;
 2412              		.loc 2 143 51 is_stmt 0
 2413              	#APP
 2414              	# 143 "src/../h/riscv.hpp" 1
 2415              		csrr a5, sepc
 2416              	# 0 "" 2
 2417              	.LVL170:
 144:src/../h/riscv.hpp **** }
 2418              		.loc 2 144 5 is_stmt 1
 2419              	#NO_APP
 2420              	.LBE177:
 2421              	.LBE176:
  51:src/riscv.cpp ****         TCB::running->sepc = sepc;
 2422              		.loc 1 51 47 is_stmt 0
 2423 0c14 93874700 		addi	a5,a5,4
  51:src/riscv.cpp ****         TCB::running->sepc = sepc;
 2424              		.loc 1 51 48
 2425 0c18 2338F4FA 		sd	a5,-80(s0)
  52:src/riscv.cpp ****         TCB::running->sstatus = sstatus;
 2426              		.loc 1 52 9 is_stmt 1
  52:src/riscv.cpp ****         TCB::running->sstatus = sstatus;
 2427              		.loc 1 52 23 is_stmt 0
 2428 0c1c 97070000 		la	a5,_ZN3TCB7runningE
 2428      83B70700 
 2429 0c24 83B70700 		ld	a5,0(a5)
  52:src/riscv.cpp ****         TCB::running->sstatus = sstatus;
 2430              		.loc 1 52 28
 2431 0c28 033704FB 		ld	a4,-80(s0)
 2432 0c2c 23BCE702 		sd	a4,56(a5)
  53:src/riscv.cpp **** 
 2433              		.loc 1 53 9 is_stmt 1
  53:src/riscv.cpp **** 
 2434              		.loc 1 53 31 is_stmt 0
 2435 0c30 033784FA 		ld	a4,-88(s0)
 2436 0c34 23B0E704 		sd	a4,64(a5)
  56:src/riscv.cpp ****         asm("mv %[syscallID], a0" : [syscallID] "=r" (syscallID));
 2437              		.loc 1 56 9 is_stmt 1
  57:src/riscv.cpp **** 
 2438              		.loc 1 57 9
  57:src/riscv.cpp **** 
 2439              		.loc 1 57 66 is_stmt 0
 2440              	#APP
 2441              	# 57 "src/riscv.cpp" 1
 2442              		mv a5, a0
 2443              	# 0 "" 2
 2444              	.LVL171:
GAS LISTING /tmp/cceSRYBb.s 			page 68


  59:src/riscv.cpp ****             case 0x01 : executeMemAllocSyscall();break;
 2445              		.loc 1 59 9 is_stmt 1
 2446              	#NO_APP
 2447 0c3c 13071006 		li	a4,97
 2448 0c40 6364F702 		bgtu	a5,a4,.L114
 2449 0c44 93972700 		slli	a5,a5,2
 2450              	.LVL172:
 2451 0c48 17070000 		lla	a4,.L116
 2451      13070700 
 2452 0c50 B387E700 		add	a5,a5,a4
 2453 0c54 83A70700 		lw	a5,0(a5)
 2454 0c58 B387E700 		add	a5,a5,a4
 2455 0c5c 67800700 		jr	a5
 2456              		.section	.rodata
 2457              		.align	2
 2458              		.align	2
 2459              	.L116:
 2460 0000 00000000 		.word	.L114-.L116
 2461 0004 00000000 		.word	.L133-.L116
 2462 0008 00000000 		.word	.L132-.L116
 2463 000c 00000000 		.word	.L114-.L116
 2464 0010 00000000 		.word	.L114-.L116
 2465 0014 00000000 		.word	.L114-.L116
 2466 0018 00000000 		.word	.L114-.L116
 2467 001c 00000000 		.word	.L114-.L116
 2468 0020 00000000 		.word	.L114-.L116
 2469 0024 00000000 		.word	.L114-.L116
 2470 0028 00000000 		.word	.L114-.L116
 2471 002c 00000000 		.word	.L114-.L116
 2472 0030 00000000 		.word	.L114-.L116
 2473 0034 00000000 		.word	.L114-.L116
 2474 0038 00000000 		.word	.L114-.L116
 2475 003c 00000000 		.word	.L114-.L116
 2476 0040 00000000 		.word	.L114-.L116
 2477 0044 00000000 		.word	.L131-.L116
 2478 0048 00000000 		.word	.L130-.L116
 2479 004c 00000000 		.word	.L129-.L116
 2480 0050 00000000 		.word	.L128-.L116
 2481 0054 00000000 		.word	.L127-.L116
 2482 0058 00000000 		.word	.L114-.L116
 2483 005c 00000000 		.word	.L114-.L116
 2484 0060 00000000 		.word	.L114-.L116
 2485 0064 00000000 		.word	.L114-.L116
 2486 0068 00000000 		.word	.L114-.L116
 2487 006c 00000000 		.word	.L114-.L116
 2488 0070 00000000 		.word	.L114-.L116
 2489 0074 00000000 		.word	.L114-.L116
 2490 0078 00000000 		.word	.L114-.L116
 2491 007c 00000000 		.word	.L114-.L116
 2492 0080 00000000 		.word	.L114-.L116
 2493 0084 00000000 		.word	.L126-.L116
 2494 0088 00000000 		.word	.L125-.L116
 2495 008c 00000000 		.word	.L124-.L116
 2496 0090 00000000 		.word	.L123-.L116
 2497 0094 00000000 		.word	.L114-.L116
 2498 0098 00000000 		.word	.L114-.L116
 2499 009c 00000000 		.word	.L114-.L116
GAS LISTING /tmp/cceSRYBb.s 			page 69


 2500 00a0 00000000 		.word	.L114-.L116
 2501 00a4 00000000 		.word	.L114-.L116
 2502 00a8 00000000 		.word	.L114-.L116
 2503 00ac 00000000 		.word	.L114-.L116
 2504 00b0 00000000 		.word	.L114-.L116
 2505 00b4 00000000 		.word	.L114-.L116
 2506 00b8 00000000 		.word	.L114-.L116
 2507 00bc 00000000 		.word	.L114-.L116
 2508 00c0 00000000 		.word	.L114-.L116
 2509 00c4 00000000 		.word	.L122-.L116
 2510 00c8 00000000 		.word	.L114-.L116
 2511 00cc 00000000 		.word	.L114-.L116
 2512 00d0 00000000 		.word	.L114-.L116
 2513 00d4 00000000 		.word	.L114-.L116
 2514 00d8 00000000 		.word	.L114-.L116
 2515 00dc 00000000 		.word	.L114-.L116
 2516 00e0 00000000 		.word	.L114-.L116
 2517 00e4 00000000 		.word	.L114-.L116
 2518 00e8 00000000 		.word	.L114-.L116
 2519 00ec 00000000 		.word	.L114-.L116
 2520 00f0 00000000 		.word	.L114-.L116
 2521 00f4 00000000 		.word	.L114-.L116
 2522 00f8 00000000 		.word	.L114-.L116
 2523 00fc 00000000 		.word	.L114-.L116
 2524 0100 00000000 		.word	.L114-.L116
 2525 0104 00000000 		.word	.L121-.L116
 2526 0108 00000000 		.word	.L120-.L116
 2527 010c 00000000 		.word	.L119-.L116
 2528 0110 00000000 		.word	.L114-.L116
 2529 0114 00000000 		.word	.L114-.L116
 2530 0118 00000000 		.word	.L114-.L116
 2531 011c 00000000 		.word	.L114-.L116
 2532 0120 00000000 		.word	.L114-.L116
 2533 0124 00000000 		.word	.L114-.L116
 2534 0128 00000000 		.word	.L114-.L116
 2535 012c 00000000 		.word	.L114-.L116
 2536 0130 00000000 		.word	.L114-.L116
 2537 0134 00000000 		.word	.L114-.L116
 2538 0138 00000000 		.word	.L114-.L116
 2539 013c 00000000 		.word	.L114-.L116
 2540 0140 00000000 		.word	.L114-.L116
 2541 0144 00000000 		.word	.L118-.L116
 2542 0148 00000000 		.word	.L117-.L116
 2543 014c 00000000 		.word	.L114-.L116
 2544 0150 00000000 		.word	.L114-.L116
 2545 0154 00000000 		.word	.L114-.L116
 2546 0158 00000000 		.word	.L114-.L116
 2547 015c 00000000 		.word	.L114-.L116
 2548 0160 00000000 		.word	.L114-.L116
 2549 0164 00000000 		.word	.L114-.L116
 2550 0168 00000000 		.word	.L114-.L116
 2551 016c 00000000 		.word	.L114-.L116
 2552 0170 00000000 		.word	.L114-.L116
 2553 0174 00000000 		.word	.L114-.L116
 2554 0178 00000000 		.word	.L114-.L116
 2555 017c 00000000 		.word	.L114-.L116
 2556 0180 00000000 		.word	.L114-.L116
GAS LISTING /tmp/cceSRYBb.s 			page 70


 2557 0184 00000000 		.word	.L115-.L116
 2558              		.text
 2559              	.L133:
  60:src/riscv.cpp ****             case 0x02 : executeMemFreeSyscall();break;
 2560              		.loc 1 60 13
  60:src/riscv.cpp ****             case 0x02 : executeMemFreeSyscall();break;
 2561              		.loc 1 60 25
  60:src/riscv.cpp ****             case 0x02 : executeMemFreeSyscall();break;
 2562              		.loc 1 60 47 is_stmt 0
 2563 0c60 97000000 		call	_ZN5RiscV22executeMemAllocSyscallEv
 2563      E7800000 
 2564              	.LVL173:
  60:src/riscv.cpp ****             case 0x02 : executeMemFreeSyscall();break;
 2565              		.loc 1 60 50 is_stmt 1
 2566              	.L114:
  87:src/riscv.cpp ****         RiscV::w_sepc(TCB::running->sepc);
 2567              		.loc 1 87 9
  87:src/riscv.cpp ****         RiscV::w_sepc(TCB::running->sepc);
 2568              		.loc 1 87 25 is_stmt 0
 2569 0c68 97070000 		la	a5,_ZN3TCB7runningE
 2569      83B70700 
 2570 0c70 83B70700 		ld	a5,0(a5)
 2571 0c74 03B70704 		ld	a4,64(a5)
 2572              	.LVL174:
 2573              	.LBB178:
 2574              	.LBB179:
 158:src/../h/riscv.hpp **** }
 2575              		.loc 2 158 5 is_stmt 1
 158:src/../h/riscv.hpp **** }
 2576              		.loc 2 158 64 is_stmt 0
 2577              	#APP
 2578              	# 158 "src/../h/riscv.hpp" 1
 2579              		csrw sstatus, a4
 2580              	# 0 "" 2
 2581              	.LVL175:
 2582              	#NO_APP
 2583              	.LBE179:
 2584              	.LBE178:
  88:src/riscv.cpp ****     }
 2585              		.loc 1 88 9 is_stmt 1
  88:src/riscv.cpp ****     }
 2586              		.loc 1 88 22 is_stmt 0
 2587 0c7c 83B78703 		ld	a5,56(a5)
 2588              	.LVL176:
 2589              	.LBB180:
 2590              	.LBB181:
 148:src/../h/riscv.hpp **** }
 2591              		.loc 2 148 5 is_stmt 1
 148:src/../h/riscv.hpp **** }
 2592              		.loc 2 148 52 is_stmt 0
 2593              	#APP
 2594              	# 148 "src/../h/riscv.hpp" 1
 2595              		csrw sepc, a5
 2596              	# 0 "" 2
 2597              	.LVL177:
 2598              	#NO_APP
 2599              	.L134:
GAS LISTING /tmp/cceSRYBb.s 			page 71


 2600              	.LBE181:
 2601              	.LBE180:
 2602              	.LBE173:
 2603              	.LBE186:
 190:src/riscv.cpp **** }
 2604              		.loc 1 190 5 is_stmt 1
 190:src/riscv.cpp **** }
 2605              		.loc 1 190 41 is_stmt 0
 2606 0c84 97000000 		call	_ZN5RiscV29jumpToDesignatedPrivilegeModeEv
 2606      E7800000 
 2607              	.LVL178:
 191:src/riscv.cpp **** 
 2608              		.loc 1 191 1
 2609 0c8c 83308105 		ld	ra,88(sp)
 2610              		.cfi_remember_state
 2611              		.cfi_restore 1
 2612 0c90 03340105 		ld	s0,80(sp)
 2613              		.cfi_restore 8
 2614              		.cfi_def_cfa 2, 96
 2615 0c94 13010106 		addi	sp,sp,96
 2616              		.cfi_def_cfa_offset 0
 2617 0c98 67800000 		jr	ra
 2618              	.L132:
 2619              		.cfi_restore_state
 2620              	.LBB187:
 2621              	.LBB182:
  61:src/riscv.cpp ****             case 0x11 : executeThreadCreateSyscall();break;
 2622              		.loc 1 61 13 is_stmt 1
  61:src/riscv.cpp ****             case 0x11 : executeThreadCreateSyscall();break;
 2623              		.loc 1 61 25
  61:src/riscv.cpp ****             case 0x11 : executeThreadCreateSyscall();break;
 2624              		.loc 1 61 46 is_stmt 0
 2625 0c9c 97000000 		call	_ZN5RiscV21executeMemFreeSyscallEv
 2625      E7800000 
 2626              	.LVL179:
  61:src/riscv.cpp ****             case 0x11 : executeThreadCreateSyscall();break;
 2627              		.loc 1 61 49 is_stmt 1
 2628 0ca4 6FF05FFC 		j	.L114
 2629              	.L131:
  62:src/riscv.cpp ****             case 0x12 : executeThreadExitSyscall();break;
 2630              		.loc 1 62 13
  62:src/riscv.cpp ****             case 0x12 : executeThreadExitSyscall();break;
 2631              		.loc 1 62 25
  62:src/riscv.cpp ****             case 0x12 : executeThreadExitSyscall();break;
 2632              		.loc 1 62 51 is_stmt 0
 2633 0ca8 97000000 		call	_ZN5RiscV26executeThreadCreateSyscallEv
 2633      E7800000 
 2634              	.LVL180:
  62:src/riscv.cpp ****             case 0x12 : executeThreadExitSyscall();break;
 2635              		.loc 1 62 54 is_stmt 1
 2636 0cb0 6FF09FFB 		j	.L114
 2637              	.L130:
  63:src/riscv.cpp ****             case 0x13 : executeThreadDispatchSyscall();break;
 2638              		.loc 1 63 13
  63:src/riscv.cpp ****             case 0x13 : executeThreadDispatchSyscall();break;
 2639              		.loc 1 63 25
  63:src/riscv.cpp ****             case 0x13 : executeThreadDispatchSyscall();break;
GAS LISTING /tmp/cceSRYBb.s 			page 72


 2640              		.loc 1 63 49 is_stmt 0
 2641 0cb4 97000000 		call	_ZN5RiscV24executeThreadExitSyscallEv
 2641      E7800000 
 2642              	.LVL181:
  63:src/riscv.cpp ****             case 0x13 : executeThreadDispatchSyscall();break;
 2643              		.loc 1 63 52 is_stmt 1
 2644 0cbc 6FF0DFFA 		j	.L114
 2645              	.L129:
  64:src/riscv.cpp ****             case 0x14 : executeThreadAttachBodySyscall();break;
 2646              		.loc 1 64 13
  64:src/riscv.cpp ****             case 0x14 : executeThreadAttachBodySyscall();break;
 2647              		.loc 1 64 25
  64:src/riscv.cpp ****             case 0x14 : executeThreadAttachBodySyscall();break;
 2648              		.loc 1 64 53 is_stmt 0
 2649 0cc0 97000000 		call	_ZN5RiscV28executeThreadDispatchSyscallEv
 2649      E7800000 
 2650              	.LVL182:
  64:src/riscv.cpp ****             case 0x14 : executeThreadAttachBodySyscall();break;
 2651              		.loc 1 64 56 is_stmt 1
 2652 0cc8 6FF01FFA 		j	.L114
 2653              	.L128:
  65:src/riscv.cpp ****             case 0x15 : executeThreadStartSyscall();break;
 2654              		.loc 1 65 13
  65:src/riscv.cpp ****             case 0x15 : executeThreadStartSyscall();break;
 2655              		.loc 1 65 25
  65:src/riscv.cpp ****             case 0x15 : executeThreadStartSyscall();break;
 2656              		.loc 1 65 55 is_stmt 0
 2657 0ccc 97000000 		call	_ZN5RiscV30executeThreadAttachBodySyscallEv
 2657      E7800000 
 2658              	.LVL183:
  65:src/riscv.cpp ****             case 0x15 : executeThreadStartSyscall();break;
 2659              		.loc 1 65 58 is_stmt 1
 2660 0cd4 6FF05FF9 		j	.L114
 2661              	.L127:
  66:src/riscv.cpp ****             case 0x21 : executeSemOpenSyscall();break;
 2662              		.loc 1 66 13
  66:src/riscv.cpp ****             case 0x21 : executeSemOpenSyscall();break;
 2663              		.loc 1 66 25
  66:src/riscv.cpp ****             case 0x21 : executeSemOpenSyscall();break;
 2664              		.loc 1 66 50 is_stmt 0
 2665 0cd8 97000000 		call	_ZN5RiscV25executeThreadStartSyscallEv
 2665      E7800000 
 2666              	.LVL184:
  66:src/riscv.cpp ****             case 0x21 : executeSemOpenSyscall();break;
 2667              		.loc 1 66 53 is_stmt 1
 2668 0ce0 6FF09FF8 		j	.L114
 2669              	.L126:
  67:src/riscv.cpp ****             case 0x22 : executeSemCloseSyscall();break;
 2670              		.loc 1 67 13
  67:src/riscv.cpp ****             case 0x22 : executeSemCloseSyscall();break;
 2671              		.loc 1 67 25
  67:src/riscv.cpp ****             case 0x22 : executeSemCloseSyscall();break;
 2672              		.loc 1 67 46 is_stmt 0
 2673 0ce4 97000000 		call	_ZN5RiscV21executeSemOpenSyscallEv
 2673      E7800000 
 2674              	.LVL185:
  67:src/riscv.cpp ****             case 0x22 : executeSemCloseSyscall();break;
GAS LISTING /tmp/cceSRYBb.s 			page 73


 2675              		.loc 1 67 49 is_stmt 1
 2676 0cec 6FF0DFF7 		j	.L114
 2677              	.L125:
  68:src/riscv.cpp ****             case 0x23 : executeSemWaitSyscall();break;
 2678              		.loc 1 68 13
  68:src/riscv.cpp ****             case 0x23 : executeSemWaitSyscall();break;
 2679              		.loc 1 68 25
  68:src/riscv.cpp ****             case 0x23 : executeSemWaitSyscall();break;
 2680              		.loc 1 68 47 is_stmt 0
 2681 0cf0 97000000 		call	_ZN5RiscV22executeSemCloseSyscallEv
 2681      E7800000 
 2682              	.LVL186:
  68:src/riscv.cpp ****             case 0x23 : executeSemWaitSyscall();break;
 2683              		.loc 1 68 50 is_stmt 1
 2684 0cf8 6FF01FF7 		j	.L114
 2685              	.L124:
  69:src/riscv.cpp ****             case 0x24 : executeSemSignalSyscall();break;
 2686              		.loc 1 69 13
  69:src/riscv.cpp ****             case 0x24 : executeSemSignalSyscall();break;
 2687              		.loc 1 69 25
  69:src/riscv.cpp ****             case 0x24 : executeSemSignalSyscall();break;
 2688              		.loc 1 69 46 is_stmt 0
 2689 0cfc 97000000 		call	_ZN5RiscV21executeSemWaitSyscallEv
 2689      E7800000 
 2690              	.LVL187:
  69:src/riscv.cpp ****             case 0x24 : executeSemSignalSyscall();break;
 2691              		.loc 1 69 49 is_stmt 1
 2692 0d04 6FF05FF6 		j	.L114
 2693              	.L123:
  70:src/riscv.cpp ****             case 0x31 : executeTimeSleepSyscall();break;
 2694              		.loc 1 70 13
  70:src/riscv.cpp ****             case 0x31 : executeTimeSleepSyscall();break;
 2695              		.loc 1 70 25
  70:src/riscv.cpp ****             case 0x31 : executeTimeSleepSyscall();break;
 2696              		.loc 1 70 48 is_stmt 0
 2697 0d08 97000000 		call	_ZN5RiscV23executeSemSignalSyscallEv
 2697      E7800000 
 2698              	.LVL188:
  70:src/riscv.cpp ****             case 0x31 : executeTimeSleepSyscall();break;
 2699              		.loc 1 70 51 is_stmt 1
 2700 0d10 6FF09FF5 		j	.L114
 2701              	.L122:
  71:src/riscv.cpp ****             case 0x41 : executeGetcSyscall();break;
 2702              		.loc 1 71 13
  71:src/riscv.cpp ****             case 0x41 : executeGetcSyscall();break;
 2703              		.loc 1 71 25
  71:src/riscv.cpp ****             case 0x41 : executeGetcSyscall();break;
 2704              		.loc 1 71 48 is_stmt 0
 2705 0d14 97000000 		call	_ZN5RiscV23executeTimeSleepSyscallEv
 2705      E7800000 
 2706              	.LVL189:
  71:src/riscv.cpp ****             case 0x41 : executeGetcSyscall();break;
 2707              		.loc 1 71 51 is_stmt 1
 2708 0d1c 6FF0DFF4 		j	.L114
 2709              	.L121:
  72:src/riscv.cpp ****             case 0x42 : executePutcSyscall();break;
 2710              		.loc 1 72 13
GAS LISTING /tmp/cceSRYBb.s 			page 74


  72:src/riscv.cpp ****             case 0x42 : executePutcSyscall();break;
 2711              		.loc 1 72 25
  72:src/riscv.cpp ****             case 0x42 : executePutcSyscall();break;
 2712              		.loc 1 72 43 is_stmt 0
 2713 0d20 97000000 		call	_ZN5RiscV18executeGetcSyscallEv
 2713      E7800000 
 2714              	.LVL190:
  72:src/riscv.cpp ****             case 0x42 : executePutcSyscall();break;
 2715              		.loc 1 72 46 is_stmt 1
 2716 0d28 6FF01FF4 		j	.L114
 2717              	.L120:
  73:src/riscv.cpp ****             case 0x43 : executePutcUtilSyscall();break;
 2718              		.loc 1 73 13
  73:src/riscv.cpp ****             case 0x43 : executePutcUtilSyscall();break;
 2719              		.loc 1 73 25
  73:src/riscv.cpp ****             case 0x43 : executePutcUtilSyscall();break;
 2720              		.loc 1 73 43 is_stmt 0
 2721 0d2c 97000000 		call	_ZN5RiscV18executePutcSyscallEv
 2721      E7800000 
 2722              	.LVL191:
  73:src/riscv.cpp ****             case 0x43 : executePutcUtilSyscall();break;
 2723              		.loc 1 73 46 is_stmt 1
 2724 0d34 6FF05FF3 		j	.L114
 2725              	.L119:
  74:src/riscv.cpp ****             case 0x51 : executeThreadFreeSyscall();break;
 2726              		.loc 1 74 13
  74:src/riscv.cpp ****             case 0x51 : executeThreadFreeSyscall();break;
 2727              		.loc 1 74 25
  74:src/riscv.cpp ****             case 0x51 : executeThreadFreeSyscall();break;
 2728              		.loc 1 74 47 is_stmt 0
 2729 0d38 97000000 		call	_ZN5RiscV22executePutcUtilSyscallEv
 2729      E7800000 
 2730              	.LVL192:
  74:src/riscv.cpp ****             case 0x51 : executeThreadFreeSyscall();break;
 2731              		.loc 1 74 50 is_stmt 1
 2732 0d40 6FF09FF2 		j	.L114
 2733              	.L118:
  75:src/riscv.cpp ****             case 0x52 : executeSemaphoreFreeSyscall();break;
 2734              		.loc 1 75 13
  75:src/riscv.cpp ****             case 0x52 : executeSemaphoreFreeSyscall();break;
 2735              		.loc 1 75 25
  75:src/riscv.cpp ****             case 0x52 : executeSemaphoreFreeSyscall();break;
 2736              		.loc 1 75 49 is_stmt 0
 2737 0d44 97000000 		call	_ZN5RiscV24executeThreadFreeSyscallEv
 2737      E7800000 
 2738              	.LVL193:
  75:src/riscv.cpp ****             case 0x52 : executeSemaphoreFreeSyscall();break;
 2739              		.loc 1 75 52 is_stmt 1
 2740 0d4c 6FF0DFF1 		j	.L114
 2741              	.L117:
  76:src/riscv.cpp ****             //in this case we need to save SP and PC at this point so that newly created thread
 2742              		.loc 1 76 13
  76:src/riscv.cpp ****             //in this case we need to save SP and PC at this point so that newly created thread
 2743              		.loc 1 76 25
  76:src/riscv.cpp ****             //in this case we need to save SP and PC at this point so that newly created thread
 2744              		.loc 1 76 52 is_stmt 0
 2745 0d50 97000000 		call	_ZN5RiscV27executeSemaphoreFreeSyscallEv
GAS LISTING /tmp/cceSRYBb.s 			page 75


 2745      E7800000 
 2746              	.LVL194:
  76:src/riscv.cpp ****             //in this case we need to save SP and PC at this point so that newly created thread
 2747              		.loc 1 76 55 is_stmt 1
 2748 0d58 6FF01FF1 		j	.L114
 2749              	.L115:
  80:src/riscv.cpp ****                         RiscV::getPC();
 2750              		.loc 1 80 13
  80:src/riscv.cpp ****                         RiscV::getPC();
 2751              		.loc 1 80 25
  80:src/riscv.cpp ****                         RiscV::getPC();
 2752              		.loc 1 80 72 is_stmt 0
 2753              	#APP
 2754              	# 80 "src/riscv.cpp" 1
 2755              		mv a5, sp
 2756              	# 0 "" 2
 2757              	#NO_APP
 2758 0d60 17070000 		la	a4,_ZN3TCB9currentSPE
 2758      03370700 
 2759 0d68 2330F700 		sd	a5,0(a4)
  81:src/riscv.cpp ****                         executeForkSyscall();
 2760              		.loc 1 81 25 is_stmt 1
  81:src/riscv.cpp ****                         executeForkSyscall();
 2761              		.loc 1 81 37 is_stmt 0
 2762 0d6c 97000000 		call	_ZN5RiscV5getPCEv
 2762      E7800000 
 2763              	.LVL195:
  82:src/riscv.cpp ****                         break;
 2764              		.loc 1 82 25 is_stmt 1
  82:src/riscv.cpp ****                         break;
 2765              		.loc 1 82 43 is_stmt 0
 2766 0d74 97000000 		call	_ZN5RiscV18executeForkSyscallEv
 2766      E7800000 
 2767              	.LVL196:
  83:src/riscv.cpp ****         }
 2768              		.loc 1 83 25 is_stmt 1
 2769 0d7c 6FF0DFEE 		j	.L114
 2770              	.L141:
 2771              	.LBE182:
 2772              	.LBB183:
 2773              	.LBB156:
  96:src/riscv.cpp ****         uint64 volatile sepc = RiscV::r_sepc();
 2774              		.loc 1 96 9
 2775              	.LBB157:
 2776              	.LBB158:
 162:src/../h/riscv.hpp ****     asm("csrr %[sstatus], sstatus" : [sstatus] "=r" (sstatus));
 2777              		.loc 2 162 5
 163:src/../h/riscv.hpp ****     return sstatus;
 2778              		.loc 2 163 5
 163:src/../h/riscv.hpp ****     return sstatus;
 2779              		.loc 2 163 63 is_stmt 0
 2780              	#APP
 2781              	# 163 "src/../h/riscv.hpp" 1
 2782              		csrr a5, sstatus
 2783              	# 0 "" 2
 2784              	.LVL197:
 164:src/../h/riscv.hpp **** }
GAS LISTING /tmp/cceSRYBb.s 			page 76


 2785              		.loc 2 164 5 is_stmt 1
 2786              	#NO_APP
 2787              	.LBE158:
 2788              	.LBE157:
  96:src/riscv.cpp ****         uint64 volatile sepc = RiscV::r_sepc();
 2789              		.loc 1 96 52 is_stmt 0
 2790 0d84 233CF4FA 		sd	a5,-72(s0)
  97:src/riscv.cpp **** 
 2791              		.loc 1 97 9 is_stmt 1
 2792              	.LBB159:
 2793              	.LBB160:
 142:src/../h/riscv.hpp ****     asm("csrr %[sepc], sepc" : [sepc] "=r" (sepc));
 2794              		.loc 2 142 5
 143:src/../h/riscv.hpp ****     return sepc;
 2795              		.loc 2 143 5
 143:src/../h/riscv.hpp ****     return sepc;
 2796              		.loc 2 143 51 is_stmt 0
 2797              	#APP
 2798              	# 143 "src/../h/riscv.hpp" 1
 2799              		csrr a5, sepc
 2800              	# 0 "" 2
 2801              	.LVL198:
 144:src/../h/riscv.hpp **** }
 2802              		.loc 2 144 5 is_stmt 1
 2803              	#NO_APP
 2804              	.LBE160:
 2805              	.LBE159:
  97:src/riscv.cpp **** 
 2806              		.loc 1 97 46 is_stmt 0
 2807 0d8c 2330F4FC 		sd	a5,-64(s0)
 100:src/riscv.cpp **** 
 2808              		.loc 1 100 9 is_stmt 1
 2809              	.LVL199:
 2810              	.LBB161:
 2811              	.LBB162:
 184:src/../h/riscv.hpp **** }
 2812              		.loc 2 184 5
 184:src/../h/riscv.hpp **** }
 2813              		.loc 2 184 51 is_stmt 0
 2814 0d90 93072000 		li	a5,2
 2815              	#APP
 2816              	# 184 "src/../h/riscv.hpp" 1
 2817              		csrc sip, a5
 2818              	# 0 "" 2
 2819              	.LVL200:
 2820              	#NO_APP
 2821              	.LBE162:
 2822              	.LBE161:
 104:src/riscv.cpp ****         Scheduler::awake();
 2823              		.loc 1 104 9 is_stmt 1
 104:src/riscv.cpp ****         Scheduler::awake();
 2824              		.loc 1 104 20 is_stmt 0
 2825 0d98 17070000 		lla	a4,.LANCHOR0
 2825      13070700 
 2826 0da0 83378700 		ld	a5,8(a4)
 2827 0da4 93871700 		addi	a5,a5,1
 2828 0da8 2334F700 		sd	a5,8(a4)
GAS LISTING /tmp/cceSRYBb.s 			page 77


 105:src/riscv.cpp **** 
 2829              		.loc 1 105 9 is_stmt 1
 105:src/riscv.cpp **** 
 2830              		.loc 1 105 25 is_stmt 0
 2831 0dac 97000000 		call	_ZN9Scheduler5awakeEv@plt
 2831      E7800000 
 2832              	.LVL201:
 109:src/riscv.cpp ****         if(TCB::timeSliceCounter >= TCB::running->timeSlice) {
 2833              		.loc 1 109 9 is_stmt 1
 109:src/riscv.cpp ****         if(TCB::timeSliceCounter >= TCB::running->timeSlice) {
 2834              		.loc 1 109 30 is_stmt 0
 2835 0db4 17070000 		la	a4,_ZN3TCB16timeSliceCounterE
 2835      03370700 
 2836 0dbc 83370700 		ld	a5,0(a4)
 2837 0dc0 93871700 		addi	a5,a5,1
 2838 0dc4 2330F700 		sd	a5,0(a4)
 110:src/riscv.cpp **** 
 2839              		.loc 1 110 9 is_stmt 1
 2840              	.LBB163:
 110:src/riscv.cpp **** 
 2841              		.loc 1 110 51 is_stmt 0
 2842 0dc8 17070000 		la	a4,_ZN3TCB7runningE
 2842      03370700 
 2843 0dd0 03370700 		ld	a4,0(a4)
 2844 0dd4 83360703 		ld	a3,48(a4)
 110:src/riscv.cpp **** 
 2845              		.loc 1 110 9
 2846 0dd8 63FCD700 		bgeu	a5,a3,.L144
 2847              	.L135:
 2848              	.LBE163:
 122:src/riscv.cpp ****         RiscV::w_sepc(sepc);
 2849              		.loc 1 122 9 is_stmt 1
 122:src/riscv.cpp ****         RiscV::w_sepc(sepc);
 2850              		.loc 1 122 25 is_stmt 0
 2851 0ddc 833784FB 		ld	a5,-72(s0)
 2852              	.LVL202:
 2853              	.LBB165:
 2854              	.LBB166:
 158:src/../h/riscv.hpp **** }
 2855              		.loc 2 158 5 is_stmt 1
 158:src/../h/riscv.hpp **** }
 2856              		.loc 2 158 64 is_stmt 0
 2857              	#APP
 2858              	# 158 "src/../h/riscv.hpp" 1
 2859              		csrw sstatus, a5
 2860              	# 0 "" 2
 2861              	.LVL203:
 2862              	#NO_APP
 2863              	.LBE166:
 2864              	.LBE165:
 123:src/riscv.cpp ****     }
 2865              		.loc 1 123 9 is_stmt 1
 123:src/riscv.cpp ****     }
 2866              		.loc 1 123 22 is_stmt 0
 2867 0de4 833704FC 		ld	a5,-64(s0)
 2868              	.LVL204:
 2869              	.LBB167:
GAS LISTING /tmp/cceSRYBb.s 			page 78


 2870              	.LBB168:
 148:src/../h/riscv.hpp **** }
 2871              		.loc 2 148 5 is_stmt 1
 148:src/../h/riscv.hpp **** }
 2872              		.loc 2 148 52 is_stmt 0
 2873              	#APP
 2874              	# 148 "src/../h/riscv.hpp" 1
 149:src/../h/riscv.hpp **** 
 2875              		csrw sepc, a5
 2876              	# 0 "" 2
 2877              		.loc 2 149 1
 2878              	#NO_APP
 2879 0dec 6FF09FE9 		j	.L134
 2880              	.LVL205:
 2881              	.L144:
 2882              	.LBE168:
 2883              	.LBE167:
 2884              	.LBB169:
 2885              	.LBB164:
 112:src/riscv.cpp **** 
 2886              		.loc 1 112 13 is_stmt 1
 112:src/riscv.cpp **** 
 2887              		.loc 1 112 35 is_stmt 0
 2888 0df0 97070000 		la	a5,_ZN3TCB16timeSliceCounterE
 2888      83B70700 
 2889 0df8 23B00700 		sd	zero,0(a5)
 114:src/riscv.cpp **** 
 2890              		.loc 1 114 13 is_stmt 1
 2891              	.LVL206:
 116:src/riscv.cpp **** 
 2892              		.loc 1 116 13
 116:src/riscv.cpp **** 
 2893              		.loc 1 116 25 is_stmt 0
 2894 0dfc 93071000 		li	a5,1
 2895 0e00 2328F700 		sw	a5,16(a4)
 118:src/riscv.cpp ****         }
 2896              		.loc 1 118 13 is_stmt 1
 118:src/riscv.cpp ****         }
 2897              		.loc 1 118 26 is_stmt 0
 2898 0e04 97000000 		call	_ZN3TCB8dispatchEv@plt
 2898      E7800000 
 2899              	.LVL207:
 2900              	.LBE164:
 2901 0e0c 6FF01FFD 		j	.L135
 2902              	.L142:
 2903              	.LBE169:
 2904              	.LBE156:
 2905              	.LBB170:
 2906              	.LBB141:
 130:src/riscv.cpp ****         uint64 volatile sepc = RiscV::r_sepc();
 2907              		.loc 1 130 9 is_stmt 1
 2908              	.LBB142:
 2909              	.LBB143:
 162:src/../h/riscv.hpp ****     asm("csrr %[sstatus], sstatus" : [sstatus] "=r" (sstatus));
 2910              		.loc 2 162 5
 163:src/../h/riscv.hpp ****     return sstatus;
 2911              		.loc 2 163 5
GAS LISTING /tmp/cceSRYBb.s 			page 79


 163:src/../h/riscv.hpp ****     return sstatus;
 2912              		.loc 2 163 63 is_stmt 0
 2913              	#APP
 2914              	# 163 "src/../h/riscv.hpp" 1
 2915              		csrr a5, sstatus
 2916              	# 0 "" 2
 2917              	.LVL208:
 164:src/../h/riscv.hpp **** }
 2918              		.loc 2 164 5 is_stmt 1
 2919              	#NO_APP
 2920              	.LBE143:
 2921              	.LBE142:
 130:src/riscv.cpp ****         uint64 volatile sepc = RiscV::r_sepc();
 2922              		.loc 1 130 52 is_stmt 0
 2923 0e14 2334F4FC 		sd	a5,-56(s0)
 131:src/riscv.cpp **** 
 2924              		.loc 1 131 9 is_stmt 1
 2925              	.LBB144:
 2926              	.LBB145:
 142:src/../h/riscv.hpp ****     asm("csrr %[sepc], sepc" : [sepc] "=r" (sepc));
 2927              		.loc 2 142 5
 143:src/../h/riscv.hpp ****     return sepc;
 2928              		.loc 2 143 5
 143:src/../h/riscv.hpp ****     return sepc;
 2929              		.loc 2 143 51 is_stmt 0
 2930              	#APP
 2931              	# 143 "src/../h/riscv.hpp" 1
 2932              		csrr a5, sepc
 2933              	# 0 "" 2
 2934              	.LVL209:
 144:src/../h/riscv.hpp **** }
 2935              		.loc 2 144 5 is_stmt 1
 2936              	#NO_APP
 2937              	.LBE145:
 2938              	.LBE144:
 131:src/riscv.cpp **** 
 2939              		.loc 1 131 46 is_stmt 0
 2940 0e1c 2338F4FC 		sd	a5,-48(s0)
 134:src/riscv.cpp ****         asm("mv a0, %[status]" : : [status] "r" (status));
 2941              		.loc 1 134 9 is_stmt 1
 134:src/riscv.cpp ****         asm("mv a0, %[status]" : : [status] "r" (status));
 2942              		.loc 1 134 16 is_stmt 0
 2943 0e20 97070000 		la	a5,CONSOLE_STATUS
 2943      83B70700 
 2944 0e28 83B70700 		ld	a5,0(a5)
 2945              	.LVL210:
 135:src/riscv.cpp ****         asm("lb a1, 0(a0)");
 2946              		.loc 1 135 9 is_stmt 1
 135:src/riscv.cpp ****         asm("lb a1, 0(a0)");
 2947              		.loc 1 135 58 is_stmt 0
 2948              	#APP
 2949              	# 135 "src/riscv.cpp" 1
 136:src/riscv.cpp ****         asm("mv %[status], a1" : [status] "=r" (status));
 2950              		mv a0, a5
 2951              	# 0 "" 2
 2952              		.loc 1 136 9 is_stmt 1
 136:src/riscv.cpp ****         asm("mv %[status], a1" : [status] "=r" (status));
GAS LISTING /tmp/cceSRYBb.s 			page 80


 2953              		.loc 1 136 28 is_stmt 0
 2954              	# 136 "src/riscv.cpp" 1
 137:src/riscv.cpp **** 
 2955              		lb a1, 0(a0)
 2956              	# 0 "" 2
 2957              		.loc 1 137 9 is_stmt 1
 137:src/riscv.cpp **** 
 2958              		.loc 1 137 57 is_stmt 0
 2959              	# 137 "src/riscv.cpp" 1
 2960              		mv a5, a1
 2961              	# 0 "" 2
 2962              	.LVL211:
 140:src/riscv.cpp ****         {
 2963              		.loc 1 140 9 is_stmt 1
 2964              	#NO_APP
 2965              	.LBB146:
 140:src/riscv.cpp ****         {
 2966              		.loc 1 140 19 is_stmt 0
 2967 0e38 93F71700 		andi	a5,a5,1
 2968              	.LVL212:
 140:src/riscv.cpp ****         {
 2969              		.loc 1 140 9
 2970 0e3c 63880702 		beqz	a5,.L137
 2971              	.LBB147:
 143:src/riscv.cpp ****             char c;
 2972              		.loc 1 143 13 is_stmt 1
 144:src/riscv.cpp ****             data = CONSOLE_TX_DATA;
 2973              		.loc 1 144 13
 145:src/riscv.cpp ****             asm("mv a0, %[data]" : : [data] "r" (data));
 2974              		.loc 1 145 13
 145:src/riscv.cpp ****             asm("mv a0, %[data]" : : [data] "r" (data));
 2975              		.loc 1 145 18 is_stmt 0
 2976 0e40 97070000 		la	a5,CONSOLE_TX_DATA
 2976      83B70700 
 2977 0e48 83B70700 		ld	a5,0(a5)
 2978              	.LVL213:
 146:src/riscv.cpp ****             asm("lb a1, 0(a0)");
 2979              		.loc 1 146 13 is_stmt 1
 146:src/riscv.cpp ****             asm("lb a1, 0(a0)");
 2980              		.loc 1 146 56 is_stmt 0
 2981              	#APP
 2982              	# 146 "src/riscv.cpp" 1
 147:src/riscv.cpp ****             asm("mv %[c], a1" : [c] "=r" (c));
 2983              		mv a0, a5
 2984              	# 0 "" 2
 2985              		.loc 1 147 13 is_stmt 1
 147:src/riscv.cpp ****             asm("mv %[c], a1" : [c] "=r" (c));
 2986              		.loc 1 147 32 is_stmt 0
 2987              	# 147 "src/riscv.cpp" 1
 148:src/riscv.cpp **** 
 2988              		lb a1, 0(a0)
 2989              	# 0 "" 2
 2990              		.loc 1 148 13 is_stmt 1
 148:src/riscv.cpp **** 
 2991              		.loc 1 148 46 is_stmt 0
 2992              	# 148 "src/riscv.cpp" 1
 2993              		mv a0, a1
GAS LISTING /tmp/cceSRYBb.s 			page 81


 2994              	# 0 "" 2
 2995              	#NO_APP
 2996 0e58 1375F50F 		andi	a0,a0,0xff
 2997              	.LVL214:
 151:src/riscv.cpp ****                 ConsoleUtil::pendingGetc--;
 2998              		.loc 1 151 13 is_stmt 1
 151:src/riscv.cpp ****                 ConsoleUtil::pendingGetc--;
 2999              		.loc 1 151 40 is_stmt 0
 3000 0e5c 97070000 		la	a5,_ZN11ConsoleUtil11pendingGetcE
 3000      83B70700 
 3001              	.LVL215:
 3002 0e64 83B70700 		ld	a5,0(a5)
 151:src/riscv.cpp ****                 ConsoleUtil::pendingGetc--;
 3003              		.loc 1 151 13
 3004 0e68 63940702 		bnez	a5,.L145
 3005              	.LVL216:
 3006              	.L137:
 3007              	.LBE147:
 3008              	.LBE146:
 156:src/riscv.cpp **** 
 3009              		.loc 1 156 9 is_stmt 1
 156:src/riscv.cpp **** 
 3010              		.loc 1 156 22 is_stmt 0
 3011 0e6c 97000000 		call	plic_claim@plt
 3011      E7800000 
 3012              	.LVL217:
 3013 0e74 97000000 		call	plic_complete@plt
 3013      E7800000 
 3014              	.LVL218:
 158:src/riscv.cpp ****         RiscV::w_sepc(sepc);
 3015              		.loc 1 158 9 is_stmt 1
 158:src/riscv.cpp ****         RiscV::w_sepc(sepc);
 3016              		.loc 1 158 25 is_stmt 0
 3017 0e7c 833784FC 		ld	a5,-56(s0)
 3018              	.LVL219:
 3019              	.LBB149:
 3020              	.LBB150:
 158:src/../h/riscv.hpp **** }
 3021              		.loc 2 158 5 is_stmt 1
 158:src/../h/riscv.hpp **** }
 3022              		.loc 2 158 64 is_stmt 0
 3023              	#APP
 3024              	# 158 "src/../h/riscv.hpp" 1
 3025              		csrw sstatus, a5
 3026              	# 0 "" 2
 3027              	.LVL220:
 3028              	#NO_APP
 3029              	.LBE150:
 3030              	.LBE149:
 159:src/riscv.cpp ****     }
 3031              		.loc 1 159 9 is_stmt 1
 159:src/riscv.cpp ****     }
 3032              		.loc 1 159 22 is_stmt 0
 3033 0e84 833704FD 		ld	a5,-48(s0)
 3034              	.LVL221:
 3035              	.LBB151:
 3036              	.LBB152:
GAS LISTING /tmp/cceSRYBb.s 			page 82


 148:src/../h/riscv.hpp **** }
 3037              		.loc 2 148 5 is_stmt 1
 148:src/../h/riscv.hpp **** }
 3038              		.loc 2 148 52 is_stmt 0
 3039              	#APP
 3040              	# 148 "src/../h/riscv.hpp" 1
 149:src/../h/riscv.hpp **** 
 3041              		csrw sepc, a5
 3042              	# 0 "" 2
 3043              		.loc 2 149 1
 3044              	#NO_APP
 3045 0e8c 6FF09FDF 		j	.L134
 3046              	.LVL222:
 3047              	.L145:
 3048              	.LBE152:
 3049              	.LBE151:
 3050              	.LBB153:
 3051              	.LBB148:
 152:src/riscv.cpp ****                 ConsoleUtil::putInput(c);
 3052              		.loc 1 152 17 is_stmt 1
 152:src/riscv.cpp ****                 ConsoleUtil::putInput(c);
 3053              		.loc 1 152 41 is_stmt 0
 3054 0e90 9387F7FF 		addi	a5,a5,-1
 3055 0e94 17070000 		la	a4,_ZN11ConsoleUtil11pendingGetcE
 3055      03370700 
 3056 0e9c 2330F700 		sd	a5,0(a4)
 153:src/riscv.cpp ****             }
 3057              		.loc 1 153 17 is_stmt 1
 153:src/riscv.cpp ****             }
 3058              		.loc 1 153 38 is_stmt 0
 3059 0ea0 97000000 		call	_ZN11ConsoleUtil8putInputEc@plt
 3059      E7800000 
 3060              	.LVL223:
 3061 0ea8 6FF05FFC 		j	.L137
 3062              	.LVL224:
 3063              	.L143:
 3064              	.LBE148:
 3065              	.LBE153:
 3066              	.LBE141:
 3067              	.LBB154:
 3068              	.LBB138:
 164:src/riscv.cpp ****         old->status = TCB::Status::FINISHED;
 3069              		.loc 1 164 9 is_stmt 1
 164:src/riscv.cpp ****         old->status = TCB::Status::FINISHED;
 3070              		.loc 1 164 14 is_stmt 0
 3071 0eac 97070000 		la	a5,_ZN3TCB7runningE
 3071      83B70700 
 3072 0eb4 83B70700 		ld	a5,0(a5)
 3073              	.LVL225:
 165:src/riscv.cpp ****         ConsoleUtil::printString("sepc: ");
 3074              		.loc 1 165 9 is_stmt 1
 165:src/riscv.cpp ****         ConsoleUtil::printString("sepc: ");
 3075              		.loc 1 165 21 is_stmt 0
 3076 0eb8 13072000 		li	a4,2
 3077 0ebc 23A8E700 		sw	a4,16(a5)
 166:src/riscv.cpp ****         uint64 sepc = RiscV::r_sepc();
 3078              		.loc 1 166 9 is_stmt 1
GAS LISTING /tmp/cceSRYBb.s 			page 83


 166:src/riscv.cpp ****         uint64 sepc = RiscV::r_sepc();
 3079              		.loc 1 166 33 is_stmt 0
 3080 0ec0 17050000 		lla	a0,.LC0
 3080      13050500 
 3081 0ec8 97000000 		call	_ZN11ConsoleUtil11printStringEPKc@plt
 3081      E7800000 
 3082              	.LVL226:
 167:src/riscv.cpp ****         ConsoleUtil::printInt(sepc,16);
 3083              		.loc 1 167 9 is_stmt 1
 3084              	.LBB139:
 3085              	.LBB140:
 142:src/../h/riscv.hpp ****     asm("csrr %[sepc], sepc" : [sepc] "=r" (sepc));
 3086              		.loc 2 142 5
 143:src/../h/riscv.hpp ****     return sepc;
 3087              		.loc 2 143 5
 143:src/../h/riscv.hpp ****     return sepc;
 3088              		.loc 2 143 51 is_stmt 0
 3089              	#APP
 3090              	# 143 "src/../h/riscv.hpp" 1
 144:src/../h/riscv.hpp **** }
 3091              		csrr a0, sepc
 3092              	# 0 "" 2
 3093              		.loc 2 144 5 is_stmt 1
 3094              	#NO_APP
 3095              	.LBE140:
 3096              	.LBE139:
 168:src/riscv.cpp ****         ConsoleUtil::printString("\n");
 3097              		.loc 1 168 9
 168:src/riscv.cpp ****         ConsoleUtil::printString("\n");
 3098              		.loc 1 168 30 is_stmt 0
 3099 0ed4 13060000 		li	a2,0
 3100 0ed8 93050001 		li	a1,16
 3101 0edc 1B050500 		sext.w	a0,a0
 3102 0ee0 97000000 		call	_ZN11ConsoleUtil8printIntEiii@plt
 3102      E7800000 
 3103              	.LVL227:
 169:src/riscv.cpp ****         ConsoleUtil::printString("Illegal instruction\nExiting thread...\n");
 3104              		.loc 1 169 9 is_stmt 1
 169:src/riscv.cpp ****         ConsoleUtil::printString("Illegal instruction\nExiting thread...\n");
 3105              		.loc 1 169 33 is_stmt 0
 3106 0ee8 17050000 		lla	a0,.LC1
 3106      13050500 
 3107 0ef0 97000000 		call	_ZN11ConsoleUtil11printStringEPKc@plt
 3107      E7800000 
 3108              	.LVL228:
 170:src/riscv.cpp ****         TCB::dispatch();
 3109              		.loc 1 170 9 is_stmt 1
 170:src/riscv.cpp ****         TCB::dispatch();
 3110              		.loc 1 170 33 is_stmt 0
 3111 0ef8 17050000 		lla	a0,.LC2
 3111      13050500 
 3112 0f00 97000000 		call	_ZN11ConsoleUtil11printStringEPKc@plt
 3112      E7800000 
 3113              	.LVL229:
 171:src/riscv.cpp ****     }
 3114              		.loc 1 171 9 is_stmt 1
 171:src/riscv.cpp ****     }
GAS LISTING /tmp/cceSRYBb.s 			page 84


 3115              		.loc 1 171 22 is_stmt 0
 3116 0f08 97000000 		call	_ZN3TCB8dispatchEv@plt
 3116      E7800000 
 3117              	.LVL230:
 3118              	.LBE138:
 3119 0f10 6FF05FD7 		j	.L134
 3120              	.LBE154:
 3121              	.LBE170:
 3122              	.LBE183:
 3123              	.LBE187:
 3124              		.cfi_endproc
 3125              	.LFE44:
 3127              		.globl	_ZN5RiscV16userMainFinishedE
 3128              		.globl	_ZN5RiscV10globalTimeE
 3129              		.bss
 3130              		.align	3
 3131              		.set	.LANCHOR0,. + 0
 3134              	_ZN5RiscV16userMainFinishedE:
 3135 0000 00       		.zero	1
 3136 0001 00000000 		.zero	7
 3136      000000
 3139              	_ZN5RiscV10globalTimeE:
 3140 0008 00000000 		.zero	8
 3140      00000000 
 3141              		.text
 3142              	.Letext0:
 3143              		.file 3 "src/../h/../lib/hw.h"
 3144              		.file 4 "src/../h/../h/utility.hpp"
 3145              		.file 5 "src/../h/memoryAllocator.hpp"
 3146              		.file 6 "src/../h/../h/../h/../h/consoleUtil.hpp"
 3147              		.file 7 "src/../h/scb.hpp"
 3148              		.file 8 "src/../h/../h/../h/../h/../h/slab_t.hpp"
 3149              		.file 9 "src/../h/../h/../h/../h/cache_t.hpp"
 3150              		.file 10 "src/../h/tcb.hpp"
 3151              		.file 11 "src/../h/scheduler.hpp"
 3152              		.file 12 "src/../h/../h/slab.hpp"
 3153              		.file 13 "src/../h/syscall_c.h"
 9447              		.align	3
 9450              	DW.ref.__gxx_personality_v0:
 9451 0000 00000000 		.dword	__gxx_personality_v0
 9451      00000000 
 9452              		.ident	"GCC: (Ubuntu 9.4.0-1ubuntu1~20.04) 9.4.0"
 9453              		.section	.note.GNU-stack,"",@progbits
GAS LISTING /tmp/cceSRYBb.s 			page 85


DEFINED SYMBOLS
                            *ABS*:0000000000000000 riscv.cpp
     /tmp/cceSRYBb.s:9      .text:0000000000000000 _ZN5RiscV10initializeEv
     /tmp/cceSRYBb.s:13     .text:0000000000000000 .L0 
     /tmp/cceSRYBb.s:14     .text:0000000000000000 .L0 
     /tmp/cceSRYBb.s:15     .text:0000000000000004 .L0 
     /tmp/cceSRYBb.s:18     .text:000000000000000c .L0 
     /tmp/cceSRYBb.s:19     .text:000000000000000c .L0 
     /tmp/cceSRYBb.s:21     .text:0000000000000010 .L0 
     /tmp/cceSRYBb.s:23     .text:0000000000000010 .L0 
     /tmp/cceSRYBb.s:24     .text:0000000000000010 .L0 
     /tmp/cceSRYBb.s:30     .text:0000000000000018 .L0 
  src/../h/riscv.hpp:168    .text:0000000000000018 .L0 
     /tmp/cceSRYBb.s:40     .text:000000000000001c .L0 
     /tmp/cceSRYBb.s:41     .text:000000000000001c .L0 
     /tmp/cceSRYBb.s:46     .text:0000000000000030 .L0 
     /tmp/cceSRYBb.s:51     .text:0000000000000040 .L0 
     /tmp/cceSRYBb.s:52     .text:0000000000000040 .L0 
     /tmp/cceSRYBb.s:55     .text:0000000000000048 .L0 
     /tmp/cceSRYBb.s:56     .text:0000000000000048 .L0 
     /tmp/cceSRYBb.s:59     .text:0000000000000050 .L0 
     /tmp/cceSRYBb.s:60     .text:0000000000000050 .L0 
     /tmp/cceSRYBb.s:63     .text:0000000000000058 .L0 
     /tmp/cceSRYBb.s:64     .text:0000000000000058 .L0 
     /tmp/cceSRYBb.s:67     .text:0000000000000060 .L0 
     /tmp/cceSRYBb.s:68     .text:0000000000000060 .L0 
     /tmp/cceSRYBb.s:71     .text:0000000000000068 .L0 
     /tmp/cceSRYBb.s:75     .text:0000000000000068 .L0 
     /tmp/cceSRYBb.s:76     .text:0000000000000068 .L0 
     /tmp/cceSRYBb.s:77     .text:0000000000000068 .L0 
     /tmp/cceSRYBb.s:91     .text:0000000000000070 .L0 
     /tmp/cceSRYBb.s:92     .text:0000000000000070 .L0 
     /tmp/cceSRYBb.s:93     .text:0000000000000070 .L0 
     /tmp/cceSRYBb.s:107    .text:0000000000000078 .L0 
     /tmp/cceSRYBb.s:108    .text:0000000000000078 .L0 
  src/../h/riscv.hpp:172    .text:0000000000000078 .L0 
     /tmp/cceSRYBb.s:119    .text:000000000000007c .L0 
     /tmp/cceSRYBb.s:120    .text:0000000000000080 .L0 
     /tmp/cceSRYBb.s:122    .text:0000000000000084 .L0 
     /tmp/cceSRYBb.s:123    .text:0000000000000084 .L0 
     /tmp/cceSRYBb.s:125    .text:0000000000000088 .L0 
     /tmp/cceSRYBb.s:127    .text:000000000000008c .L0 
     /tmp/cceSRYBb.s:133    .text:000000000000008c _ZN5RiscV10popSppSpieEv
     /tmp/cceSRYBb.s:136    .text:000000000000008c .L0 
     /tmp/cceSRYBb.s:137    .text:000000000000008c .L0 
     /tmp/cceSRYBb.s:138    .text:0000000000000090 .L0 
     /tmp/cceSRYBb.s:140    .text:0000000000000094 .L0 
     /tmp/cceSRYBb.s:142    .text:0000000000000098 .L0 
     /tmp/cceSRYBb.s:144    .text:0000000000000098 .L0 
       src/riscv.cpp:33     .text:0000000000000098 .L0 
     /tmp/cceSRYBb.s:150    .text:000000000000009c .L0 
       src/riscv.cpp:34     .text:000000000000009c .L0 
     /tmp/cceSRYBb.s:156    .text:00000000000000a0 .L0 
     /tmp/cceSRYBb.s:157    .text:00000000000000a4 .L0 
     /tmp/cceSRYBb.s:158    .text:00000000000000a4 .L0 
     /tmp/cceSRYBb.s:160    .text:00000000000000a8 .L0 
     /tmp/cceSRYBb.s:162    .text:00000000000000ac .L0 
GAS LISTING /tmp/cceSRYBb.s 			page 86


     /tmp/cceSRYBb.s:168    .text:00000000000000ac _ZN5RiscV28executeThreadDispatchSyscallEv
     /tmp/cceSRYBb.s:171    .text:00000000000000ac .L0 
     /tmp/cceSRYBb.s:172    .text:00000000000000ac .L0 
     /tmp/cceSRYBb.s:173    .text:00000000000000b0 .L0 
     /tmp/cceSRYBb.s:176    .text:00000000000000b8 .L0 
     /tmp/cceSRYBb.s:177    .text:00000000000000b8 .L0 
     /tmp/cceSRYBb.s:179    .text:00000000000000bc .L0 
     /tmp/cceSRYBb.s:181    .text:00000000000000bc .L0 
     /tmp/cceSRYBb.s:182    .text:00000000000000bc .L0 
     /tmp/cceSRYBb.s:186    .text:00000000000000c8 .L0 
     /tmp/cceSRYBb.s:187    .text:00000000000000c8 .L0 
     /tmp/cceSRYBb.s:190    .text:00000000000000d0 .L0 
     /tmp/cceSRYBb.s:191    .text:00000000000000d0 .L0 
     /tmp/cceSRYBb.s:194    .text:00000000000000d8 .L0 
     /tmp/cceSRYBb.s:195    .text:00000000000000dc .L0 
     /tmp/cceSRYBb.s:197    .text:00000000000000e0 .L0 
     /tmp/cceSRYBb.s:198    .text:00000000000000e0 .L0 
     /tmp/cceSRYBb.s:200    .text:00000000000000e4 .L0 
     /tmp/cceSRYBb.s:202    .text:00000000000000e8 .L0 
     /tmp/cceSRYBb.s:208    .text:00000000000000e8 _ZN5RiscV18executePutcSyscallEv
     /tmp/cceSRYBb.s:211    .text:00000000000000e8 .L0 
     /tmp/cceSRYBb.s:212    .text:00000000000000e8 .L0 
     /tmp/cceSRYBb.s:213    .text:00000000000000ec .L0 
     /tmp/cceSRYBb.s:216    .text:00000000000000f4 .L0 
     /tmp/cceSRYBb.s:217    .text:00000000000000f4 .L0 
     /tmp/cceSRYBb.s:219    .text:00000000000000f8 .L0 
     /tmp/cceSRYBb.s:221    .text:00000000000000f8 .L0 
     /tmp/cceSRYBb.s:222    .text:00000000000000f8 .L0 
     /tmp/cceSRYBb.s:224    .text:0000000000000100 .L0 
     /tmp/cceSRYBb.s:226    .text:0000000000000104 .L0 
     /tmp/cceSRYBb.s:227    .text:0000000000000104 .L0 
     /tmp/cceSRYBb.s:233    .text:0000000000000118 .L0 
     /tmp/cceSRYBb.s:234    .text:0000000000000118 .L0 
       src/riscv.cpp:499    .text:0000000000000118 .L0 
     /tmp/cceSRYBb.s:241    .text:000000000000011c .L0 
     /tmp/cceSRYBb.s:243    .text:000000000000011c .L0 
     /tmp/cceSRYBb.s:247    .text:0000000000000128 .L0 
     /tmp/cceSRYBb.s:248    .text:000000000000012c .L0 
     /tmp/cceSRYBb.s:250    .text:0000000000000130 .L0 
     /tmp/cceSRYBb.s:251    .text:0000000000000130 .L0 
     /tmp/cceSRYBb.s:253    .text:0000000000000134 .L0 
     /tmp/cceSRYBb.s:255    .text:0000000000000138 .L0 
     /tmp/cceSRYBb.s:261    .text:0000000000000138 _ZN5RiscV11putcWrapperEPv
     /tmp/cceSRYBb.s:264    .text:0000000000000138 .L0 
     /tmp/cceSRYBb.s:266    .text:0000000000000138 .L0 
     /tmp/cceSRYBb.s:267    .text:000000000000013c .L0 
     /tmp/cceSRYBb.s:270    .text:0000000000000144 .L0 
     /tmp/cceSRYBb.s:271    .text:0000000000000144 .L0 
     /tmp/cceSRYBb.s:273    .text:0000000000000148 .L0 
     /tmp/cceSRYBb.s:280    .text:000000000000014c .L0 
     /tmp/cceSRYBb.s:281    .text:000000000000014c .L0 
     /tmp/cceSRYBb.s:288    .text:0000000000000154 .L0 
     /tmp/cceSRYBb.s:289    .text:0000000000000154 .L0 
     /tmp/cceSRYBb.s:290    .text:0000000000000154 .L0 
     /tmp/cceSRYBb.s:294    .text:0000000000000160 .L0 
       src/riscv.cpp:514    .text:0000000000000160 .L0 
     /tmp/cceSRYBb.s:300    .text:0000000000000164 .L0 
GAS LISTING /tmp/cceSRYBb.s 			page 87


       src/riscv.cpp:515    .text:0000000000000164 .L0 
     /tmp/cceSRYBb.s:305    .text:0000000000000168 .L0 
       src/riscv.cpp:516    .text:0000000000000168 .L0 
     /tmp/cceSRYBb.s:313    .text:000000000000016c .L0 
     /tmp/cceSRYBb.s:314    .text:000000000000016c .L0 
     /tmp/cceSRYBb.s:317    .text:0000000000000170 .L0 
     /tmp/cceSRYBb.s:320    .text:0000000000000174 .L0 
     /tmp/cceSRYBb.s:321    .text:0000000000000174 .L0 
     /tmp/cceSRYBb.s:324    .text:000000000000017c .L0 
     /tmp/cceSRYBb.s:326    .text:0000000000000180 .L0 
     /tmp/cceSRYBb.s:327    .text:0000000000000180 .L0 
     /tmp/cceSRYBb.s:331    .text:000000000000018c .L0 
       src/riscv.cpp:524    .text:000000000000018c .L0 
     /tmp/cceSRYBb.s:337    .text:0000000000000190 .L0 
     /tmp/cceSRYBb.s:339    .text:0000000000000190 .L0 
       src/riscv.cpp:525    .text:0000000000000194 .L0 
     /tmp/cceSRYBb.s:347    .text:0000000000000198 .L0 
       src/riscv.cpp:526    .text:0000000000000198 .L0 
     /tmp/cceSRYBb.s:352    .text:000000000000019c .L0 
     /tmp/cceSRYBb.s:354    .text:000000000000019c .L0 
     /tmp/cceSRYBb.s:357    .text:00000000000001a8 .L0 
     /tmp/cceSRYBb.s:359    .text:00000000000001ac .L0 
     /tmp/cceSRYBb.s:360    .text:00000000000001ac .L0 
     /tmp/cceSRYBb.s:367    .text:00000000000001c0 .L0 
     /tmp/cceSRYBb.s:373    .text:00000000000001c0 _ZN5RiscV29jumpToDesignatedPrivilegeModeEv
     /tmp/cceSRYBb.s:376    .text:00000000000001c0 .L0 
     /tmp/cceSRYBb.s:377    .text:00000000000001c0 .L0 
     /tmp/cceSRYBb.s:378    .text:00000000000001c4 .L0 
     /tmp/cceSRYBb.s:380    .text:00000000000001c8 .L0 
     /tmp/cceSRYBb.s:382    .text:00000000000001cc .L0 
     /tmp/cceSRYBb.s:384    .text:00000000000001cc .L0 
     /tmp/cceSRYBb.s:385    .text:00000000000001cc .L0 
     /tmp/cceSRYBb.s:389    .text:00000000000001dc .L0 
     /tmp/cceSRYBb.s:395    .text:00000000000001e4 .L0 
     /tmp/cceSRYBb.s:396    .text:00000000000001e4 .L0 
     /tmp/cceSRYBb.s:397    .text:00000000000001e4 .L0 
     /tmp/cceSRYBb.s:408    .text:00000000000001ec .L0 
     /tmp/cceSRYBb.s:409    .text:00000000000001f0 .L0 
     /tmp/cceSRYBb.s:410    .text:00000000000001f0 .L0 
     /tmp/cceSRYBb.s:411    .text:00000000000001f0 .L0 
     /tmp/cceSRYBb.s:413    .text:00000000000001f4 .L0 
     /tmp/cceSRYBb.s:416    .text:00000000000001f8 .L0 
     /tmp/cceSRYBb.s:421    .text:00000000000001f8 .L0 
     /tmp/cceSRYBb.s:422    .text:00000000000001f8 .L0 
     /tmp/cceSRYBb.s:423    .text:00000000000001f8 .L0 
     /tmp/cceSRYBb.s:430    .text:0000000000000200 .L0 
     /tmp/cceSRYBb.s:433    .text:0000000000000204 .L0 
     /tmp/cceSRYBb.s:439    .text:0000000000000204 _ZN5RiscV8finalizeEv
     /tmp/cceSRYBb.s:442    .text:0000000000000204 .L0 
     /tmp/cceSRYBb.s:443    .text:0000000000000204 .L0 
     /tmp/cceSRYBb.s:444    .text:0000000000000208 .L0 
     /tmp/cceSRYBb.s:447    .text:0000000000000210 .L0 
     /tmp/cceSRYBb.s:448    .text:0000000000000210 .L0 
     /tmp/cceSRYBb.s:450    .text:0000000000000214 .L0 
     /tmp/cceSRYBb.s:452    .text:0000000000000214 .L0 
     /tmp/cceSRYBb.s:453    .text:0000000000000214 .L0 
     /tmp/cceSRYBb.s:456    .text:0000000000000220 .L0 
GAS LISTING /tmp/cceSRYBb.s 			page 88


     /tmp/cceSRYBb.s:457    .text:0000000000000220 .L0 
     /tmp/cceSRYBb.s:460    .text:000000000000022c .L0 
     /tmp/cceSRYBb.s:461    .text:000000000000022c .L0 
     /tmp/cceSRYBb.s:466    .text:0000000000000238 .L0 
     /tmp/cceSRYBb.s:469    .text:0000000000000238 .L0 
     /tmp/cceSRYBb.s:476    .text:0000000000000238 .L0 
     /tmp/cceSRYBb.s:477    .text:0000000000000238 .L0 
     /tmp/cceSRYBb.s:478    .text:0000000000000238 .L0 
     /tmp/cceSRYBb.s:491    .text:0000000000000240 .L0 
     /tmp/cceSRYBb.s:497    .text:0000000000000240 .L0 
     /tmp/cceSRYBb.s:498    .text:0000000000000240 .L0 
     /tmp/cceSRYBb.s:499    .text:0000000000000240 .L0 
     /tmp/cceSRYBb.s:513    .text:0000000000000248 .L0 
     /tmp/cceSRYBb.s:514    .text:0000000000000248 .L0 
     /tmp/cceSRYBb.s:518    .text:0000000000000258 .L0 
     /tmp/cceSRYBb.s:519    .text:0000000000000258 .L0 
     /tmp/cceSRYBb.s:521    .text:000000000000025c .L0 
     /tmp/cceSRYBb.s:524    .text:0000000000000268 .L0 
     /tmp/cceSRYBb.s:527    .text:000000000000026c .L0 
     /tmp/cceSRYBb.s:528    .text:000000000000026c .L0 
     /tmp/cceSRYBb.s:534    .text:0000000000000280 .L0 
     /tmp/cceSRYBb.s:535    .text:0000000000000280 .L0 
     /tmp/cceSRYBb.s:541    .text:000000000000029c .L0 
     /tmp/cceSRYBb.s:542    .text:000000000000029c .L0 
     /tmp/cceSRYBb.s:545    .text:00000000000002a4 .L0 
     /tmp/cceSRYBb.s:548    .text:00000000000002a8 .L0 
     /tmp/cceSRYBb.s:549    .text:00000000000002ac .L0 
     /tmp/cceSRYBb.s:551    .text:00000000000002b0 .L0 
     /tmp/cceSRYBb.s:552    .text:00000000000002b0 .L0 
     /tmp/cceSRYBb.s:554    .text:00000000000002b4 .L0 
     /tmp/cceSRYBb.s:556    .text:00000000000002b8 .L0 
     /tmp/cceSRYBb.s:562    .text:00000000000002b8 _ZN5RiscV16saveA0toSscratchEv
     /tmp/cceSRYBb.s:565    .text:00000000000002b8 .L0 
     /tmp/cceSRYBb.s:566    .text:00000000000002b8 .L0 
     /tmp/cceSRYBb.s:567    .text:00000000000002bc .L0 
     /tmp/cceSRYBb.s:569    .text:00000000000002c0 .L0 
     /tmp/cceSRYBb.s:571    .text:00000000000002c4 .L0 
     /tmp/cceSRYBb.s:573    .text:00000000000002c4 .L0 
     /tmp/cceSRYBb.s:574    .text:00000000000002c4 .L0 
       src/riscv.cpp:577    .text:00000000000002c4 .L0 
     /tmp/cceSRYBb.s:580    .text:00000000000002c8 .L0 
     /tmp/cceSRYBb.s:582    .text:00000000000002c8 .L0 
       src/riscv.cpp:578    .text:00000000000002d8 .L0 
     /tmp/cceSRYBb.s:591    .text:00000000000002dc .L0 
       src/riscv.cpp:579    .text:00000000000002dc .L0 
     /tmp/cceSRYBb.s:596    .text:00000000000002e0 .L0 
       src/riscv.cpp:580    .text:00000000000002e0 .L0 
     /tmp/cceSRYBb.s:602    .text:00000000000002e4 .L0 
     /tmp/cceSRYBb.s:603    .text:00000000000002e8 .L0 
     /tmp/cceSRYBb.s:604    .text:00000000000002e8 .L0 
     /tmp/cceSRYBb.s:606    .text:00000000000002ec .L0 
     /tmp/cceSRYBb.s:608    .text:00000000000002f0 .L0 
     /tmp/cceSRYBb.s:614    .text:00000000000002f0 _ZN5RiscV22executeMemAllocSyscallEv
     /tmp/cceSRYBb.s:617    .text:00000000000002f0 .L0 
     /tmp/cceSRYBb.s:618    .text:00000000000002f0 .L0 
     /tmp/cceSRYBb.s:619    .text:00000000000002f4 .L0 
     /tmp/cceSRYBb.s:622    .text:00000000000002fc .L0 
GAS LISTING /tmp/cceSRYBb.s 			page 89


     /tmp/cceSRYBb.s:623    .text:00000000000002fc .L0 
     /tmp/cceSRYBb.s:625    .text:0000000000000300 .L0 
     /tmp/cceSRYBb.s:627    .text:0000000000000300 .L0 
     /tmp/cceSRYBb.s:628    .text:0000000000000300 .L0 
       src/riscv.cpp:197    .text:0000000000000300 .L0 
     /tmp/cceSRYBb.s:635    .text:0000000000000304 .L0 
     /tmp/cceSRYBb.s:637    .text:0000000000000304 .L0 
     /tmp/cceSRYBb.s:640    .text:000000000000030c .L0 
       src/riscv.cpp:202    .text:000000000000030c .L0 
     /tmp/cceSRYBb.s:646    .text:0000000000000310 .L0 
     /tmp/cceSRYBb.s:648    .text:0000000000000310 .L0 
     /tmp/cceSRYBb.s:651    .text:0000000000000318 .L0 
     /tmp/cceSRYBb.s:652    .text:000000000000031c .L0 
     /tmp/cceSRYBb.s:654    .text:0000000000000320 .L0 
     /tmp/cceSRYBb.s:655    .text:0000000000000320 .L0 
     /tmp/cceSRYBb.s:657    .text:0000000000000324 .L0 
     /tmp/cceSRYBb.s:659    .text:0000000000000328 .L0 
     /tmp/cceSRYBb.s:665    .text:0000000000000328 _ZN5RiscV21executeMemFreeSyscallEv
     /tmp/cceSRYBb.s:668    .text:0000000000000328 .L0 
     /tmp/cceSRYBb.s:669    .text:0000000000000328 .L0 
     /tmp/cceSRYBb.s:670    .text:000000000000032c .L0 
     /tmp/cceSRYBb.s:673    .text:0000000000000334 .L0 
     /tmp/cceSRYBb.s:674    .text:0000000000000334 .L0 
     /tmp/cceSRYBb.s:676    .text:0000000000000338 .L0 
     /tmp/cceSRYBb.s:678    .text:0000000000000338 .L0 
     /tmp/cceSRYBb.s:679    .text:0000000000000338 .L0 
     /tmp/cceSRYBb.s:683    .text:0000000000000348 .L0 
     /tmp/cceSRYBb.s:687    .text:000000000000034c .L0 
       src/riscv.cpp:222    .text:000000000000034c .L0 
     /tmp/cceSRYBb.s:693    .text:0000000000000350 .L0 
     /tmp/cceSRYBb.s:695    .text:0000000000000350 .L0 
     /tmp/cceSRYBb.s:698    .text:0000000000000358 .L0 
     /tmp/cceSRYBb.s:699    .text:000000000000035c .L0 
     /tmp/cceSRYBb.s:700    .text:000000000000035c .L0 
     /tmp/cceSRYBb.s:702    .text:0000000000000360 .L0 
     /tmp/cceSRYBb.s:703    .text:0000000000000360 .L0 
     /tmp/cceSRYBb.s:705    .text:0000000000000364 .L0 
     /tmp/cceSRYBb.s:708    .text:0000000000000368 .L0 
     /tmp/cceSRYBb.s:710    .text:0000000000000368 .L0 
       src/riscv.cpp:215    .text:0000000000000368 .L0 
     /tmp/cceSRYBb.s:717    .text:000000000000036c .L0 
     /tmp/cceSRYBb.s:719    .text:000000000000036c .L0 
     /tmp/cceSRYBb.s:722    .text:0000000000000374 .L0 
     /tmp/cceSRYBb.s:723    .text:0000000000000378 .L0 
     /tmp/cceSRYBb.s:729    .text:0000000000000378 _ZN5RiscV26executeThreadCreateSyscallEv
     /tmp/cceSRYBb.s:732    .text:0000000000000378 .L0 
     /tmp/cceSRYBb.s:9450   .data.rel.local.DW.ref.__gxx_personality_v0:0000000000000000 DW.ref.__gxx_personality_v0
     /tmp/cceSRYBb.s:735    .text:0000000000000378 .L0 
     /tmp/cceSRYBb.s:736    .text:000000000000037c .L0 
     /tmp/cceSRYBb.s:744    .text:0000000000000398 .L0 
     /tmp/cceSRYBb.s:745    .text:0000000000000398 .L0 
     /tmp/cceSRYBb.s:746    .text:0000000000000398 .L0 
     /tmp/cceSRYBb.s:747    .text:0000000000000398 .L0 
     /tmp/cceSRYBb.s:748    .text:0000000000000398 .L0 
     /tmp/cceSRYBb.s:749    .text:0000000000000398 .L0 
     /tmp/cceSRYBb.s:750    .text:0000000000000398 .L0 
     /tmp/cceSRYBb.s:752    .text:000000000000039c .L0 
GAS LISTING /tmp/cceSRYBb.s 			page 90


     /tmp/cceSRYBb.s:754    .text:000000000000039c .L0 
     /tmp/cceSRYBb.s:755    .text:000000000000039c .L0 
       src/riscv.cpp:232    .text:000000000000039c .L0 
     /tmp/cceSRYBb.s:761    .text:00000000000003a0 .L0 
       src/riscv.cpp:233    .text:00000000000003a0 .L0 
     /tmp/cceSRYBb.s:767    .text:00000000000003a4 .L0 
       src/riscv.cpp:234    .text:00000000000003a4 .L0 
     /tmp/cceSRYBb.s:772    .text:00000000000003a8 .L0 
       src/riscv.cpp:235    .text:00000000000003a8 .L0 
     /tmp/cceSRYBb.s:777    .text:00000000000003ac .L0 
     /tmp/cceSRYBb.s:779    .text:00000000000003ac .L0 
     /tmp/cceSRYBb.s:794    .text:00000000000003d4 .L0 
     /tmp/cceSRYBb.s:795    .text:00000000000003d4 .L0 
     /tmp/cceSRYBb.s:797    .text:00000000000003d8 .L0 
     /tmp/cceSRYBb.s:798    .text:00000000000003d8 .L0 
     /tmp/cceSRYBb.s:800    .text:00000000000003dc .L0 
     /tmp/cceSRYBb.s:802    .text:00000000000003e0 .L0 
     /tmp/cceSRYBb.s:803    .text:00000000000003e0 .L0 
     /tmp/cceSRYBb.s:810    .text:00000000000003ec .L0 
     /tmp/cceSRYBb.s:811    .text:00000000000003ec .L0 
     /tmp/cceSRYBb.s:813    .text:00000000000003f0 .L0 
     /tmp/cceSRYBb.s:817    .text:00000000000003f4 .L0 
       src/riscv.cpp:252    .text:00000000000003f4 .L0 
     /tmp/cceSRYBb.s:823    .text:00000000000003f8 .L0 
     /tmp/cceSRYBb.s:825    .text:00000000000003f8 .L0 
     /tmp/cceSRYBb.s:828    .text:0000000000000400 .L0 
     /tmp/cceSRYBb.s:829    .text:0000000000000404 .L0 
     /tmp/cceSRYBb.s:830    .text:0000000000000404 .L0 
     /tmp/cceSRYBb.s:832    .text:0000000000000408 .L0 
     /tmp/cceSRYBb.s:833    .text:0000000000000408 .L0 
     /tmp/cceSRYBb.s:835    .text:000000000000040c .L0 
     /tmp/cceSRYBb.s:838    .text:0000000000000410 .L0 
     /tmp/cceSRYBb.s:840    .text:0000000000000414 .L0 
     /tmp/cceSRYBb.s:842    .text:0000000000000418 .L0 
     /tmp/cceSRYBb.s:844    .text:000000000000041c .L0 
     /tmp/cceSRYBb.s:847    .text:0000000000000420 .L0 
     /tmp/cceSRYBb.s:851    .text:0000000000000424 .L0 
     /tmp/cceSRYBb.s:853    .text:0000000000000424 .L0 
     /tmp/cceSRYBb.s:859    .text:0000000000000430 .L0 
     /tmp/cceSRYBb.s:867    .text:0000000000000448 .L0 
     /tmp/cceSRYBb.s:897    .text:0000000000000448 _ZN5RiscV30executeThreadAttachBodySyscallEv
     /tmp/cceSRYBb.s:900    .text:0000000000000448 .L0 
     /tmp/cceSRYBb.s:903    .text:0000000000000448 .L0 
     /tmp/cceSRYBb.s:904    .text:000000000000044c .L0 
     /tmp/cceSRYBb.s:912    .text:0000000000000468 .L0 
     /tmp/cceSRYBb.s:913    .text:0000000000000468 .L0 
     /tmp/cceSRYBb.s:914    .text:0000000000000468 .L0 
     /tmp/cceSRYBb.s:915    .text:0000000000000468 .L0 
     /tmp/cceSRYBb.s:916    .text:0000000000000468 .L0 
     /tmp/cceSRYBb.s:917    .text:0000000000000468 .L0 
     /tmp/cceSRYBb.s:918    .text:0000000000000468 .L0 
     /tmp/cceSRYBb.s:920    .text:000000000000046c .L0 
     /tmp/cceSRYBb.s:922    .text:000000000000046c .L0 
     /tmp/cceSRYBb.s:923    .text:000000000000046c .L0 
       src/riscv.cpp:263    .text:000000000000046c .L0 
     /tmp/cceSRYBb.s:929    .text:0000000000000470 .L0 
       src/riscv.cpp:264    .text:0000000000000470 .L0 
GAS LISTING /tmp/cceSRYBb.s 			page 91


     /tmp/cceSRYBb.s:935    .text:0000000000000474 .L0 
       src/riscv.cpp:265    .text:0000000000000474 .L0 
     /tmp/cceSRYBb.s:941    .text:0000000000000478 .L0 
       src/riscv.cpp:266    .text:0000000000000478 .L0 
     /tmp/cceSRYBb.s:947    .text:000000000000047c .L0 
     /tmp/cceSRYBb.s:949    .text:000000000000047c .L0 
     /tmp/cceSRYBb.s:964    .text:00000000000004a4 .L0 
     /tmp/cceSRYBb.s:965    .text:00000000000004a4 .L0 
     /tmp/cceSRYBb.s:967    .text:00000000000004a8 .L0 
     /tmp/cceSRYBb.s:968    .text:00000000000004a8 .L0 
     /tmp/cceSRYBb.s:970    .text:00000000000004ac .L0 
     /tmp/cceSRYBb.s:971    .text:00000000000004ac .L0 
     /tmp/cceSRYBb.s:973    .text:00000000000004b0 .L0 
     /tmp/cceSRYBb.s:974    .text:00000000000004b0 .L0 
     /tmp/cceSRYBb.s:976    .text:00000000000004b4 .L0 
     /tmp/cceSRYBb.s:980    .text:00000000000004b8 .L0 
       src/riscv.cpp:281    .text:00000000000004b8 .L0 
     /tmp/cceSRYBb.s:986    .text:00000000000004bc .L0 
     /tmp/cceSRYBb.s:988    .text:00000000000004bc .L0 
     /tmp/cceSRYBb.s:991    .text:00000000000004c4 .L0 
     /tmp/cceSRYBb.s:992    .text:00000000000004c8 .L0 
     /tmp/cceSRYBb.s:993    .text:00000000000004c8 .L0 
     /tmp/cceSRYBb.s:995    .text:00000000000004cc .L0 
     /tmp/cceSRYBb.s:996    .text:00000000000004cc .L0 
     /tmp/cceSRYBb.s:998    .text:00000000000004d0 .L0 
     /tmp/cceSRYBb.s:1001   .text:00000000000004d4 .L0 
     /tmp/cceSRYBb.s:1003   .text:00000000000004d8 .L0 
     /tmp/cceSRYBb.s:1006   .text:00000000000004dc .L0 
     /tmp/cceSRYBb.s:1009   .text:00000000000004e0 .L0 
     /tmp/cceSRYBb.s:1012   .text:00000000000004e4 .L0 
     /tmp/cceSRYBb.s:1016   .text:00000000000004e8 .L0 
     /tmp/cceSRYBb.s:1018   .text:00000000000004e8 .L0 
     /tmp/cceSRYBb.s:1024   .text:00000000000004f4 .L0 
     /tmp/cceSRYBb.s:1032   .text:000000000000050c .L0 
     /tmp/cceSRYBb.s:1057   .text:000000000000050c _ZN5RiscV25executeThreadStartSyscallEv
     /tmp/cceSRYBb.s:1060   .text:000000000000050c .L0 
     /tmp/cceSRYBb.s:1061   .text:000000000000050c .L0 
     /tmp/cceSRYBb.s:1062   .text:0000000000000510 .L0 
     /tmp/cceSRYBb.s:1065   .text:0000000000000518 .L0 
     /tmp/cceSRYBb.s:1066   .text:0000000000000518 .L0 
     /tmp/cceSRYBb.s:1068   .text:000000000000051c .L0 
     /tmp/cceSRYBb.s:1070   .text:000000000000051c .L0 
     /tmp/cceSRYBb.s:1071   .text:000000000000051c .L0 
       src/riscv.cpp:291    .text:000000000000051c .L0 
     /tmp/cceSRYBb.s:1078   .text:0000000000000520 .L0 
     /tmp/cceSRYBb.s:1079   .text:0000000000000520 .L0 
     /tmp/cceSRYBb.s:1081   .text:0000000000000520 .L0 
     /tmp/cceSRYBb.s:1083   .text:0000000000000524 .L0 
     /tmp/cceSRYBb.s:1087   .text:0000000000000528 .L0 
       src/riscv.cpp:308    .text:0000000000000528 .L0 
     /tmp/cceSRYBb.s:1093   .text:000000000000052c .L0 
     /tmp/cceSRYBb.s:1095   .text:000000000000052c .L0 
     /tmp/cceSRYBb.s:1098   .text:0000000000000534 .L0 
     /tmp/cceSRYBb.s:1099   .text:0000000000000538 .L0 
     /tmp/cceSRYBb.s:1100   .text:0000000000000538 .L0 
     /tmp/cceSRYBb.s:1102   .text:000000000000053c .L0 
     /tmp/cceSRYBb.s:1103   .text:000000000000053c .L0 
GAS LISTING /tmp/cceSRYBb.s 			page 92


     /tmp/cceSRYBb.s:1105   .text:0000000000000540 .L0 
     /tmp/cceSRYBb.s:1109   .text:0000000000000544 .L0 
     /tmp/cceSRYBb.s:1111   .text:0000000000000544 .L0 
     /tmp/cceSRYBb.s:1112   .text:0000000000000544 .L0 
     /tmp/cceSRYBb.s:1115   .text:000000000000054c .L0 
     /tmp/cceSRYBb.s:1116   .text:000000000000054c .L0 
     /tmp/cceSRYBb.s:1119   .text:0000000000000554 .L0 
     /tmp/cceSRYBb.s:1120   .text:0000000000000554 .L0 
     /tmp/cceSRYBb.s:1123   .text:000000000000055c .L0 
     /tmp/cceSRYBb.s:1125   .text:0000000000000564 .L0 
     /tmp/cceSRYBb.s:1131   .text:0000000000000564 _ZN5RiscV24executeThreadExitSyscallEv
     /tmp/cceSRYBb.s:1134   .text:0000000000000564 .L0 
     /tmp/cceSRYBb.s:1135   .text:0000000000000564 .L0 
     /tmp/cceSRYBb.s:1136   .text:0000000000000568 .L0 
     /tmp/cceSRYBb.s:1139   .text:0000000000000570 .L0 
     /tmp/cceSRYBb.s:1140   .text:0000000000000570 .L0 
     /tmp/cceSRYBb.s:1142   .text:0000000000000574 .L0 
     /tmp/cceSRYBb.s:1145   .text:0000000000000574 .L0 
     /tmp/cceSRYBb.s:1147   .text:0000000000000574 .L0 
     /tmp/cceSRYBb.s:1148   .text:0000000000000574 .L0 
     /tmp/cceSRYBb.s:1151   .text:0000000000000580 .L0 
     /tmp/cceSRYBb.s:1155   .text:0000000000000584 .L0 
     /tmp/cceSRYBb.s:1156   .text:0000000000000584 .L0 
     /tmp/cceSRYBb.s:1157   .text:0000000000000584 .L0 
     /tmp/cceSRYBb.s:1160   .text:000000000000058c .L0 
     /tmp/cceSRYBb.s:1161   .text:000000000000058c .L0 
     /tmp/cceSRYBb.s:1166   .text:0000000000000594 .L0 
     /tmp/cceSRYBb.s:1170   .text:0000000000000598 .L0 
       src/riscv.cpp:328    .text:0000000000000598 .L0 
     /tmp/cceSRYBb.s:1176   .text:000000000000059c .L0 
     /tmp/cceSRYBb.s:1178   .text:000000000000059c .L0 
     /tmp/cceSRYBb.s:1181   .text:00000000000005a4 .L0 
     /tmp/cceSRYBb.s:1182   .text:00000000000005a8 .L0 
     /tmp/cceSRYBb.s:1183   .text:00000000000005a8 .L0 
     /tmp/cceSRYBb.s:1185   .text:00000000000005ac .L0 
     /tmp/cceSRYBb.s:1186   .text:00000000000005ac .L0 
     /tmp/cceSRYBb.s:1188   .text:00000000000005b0 .L0 
     /tmp/cceSRYBb.s:1192   .text:00000000000005b4 .L0 
     /tmp/cceSRYBb.s:1195   .text:00000000000005b4 .L0 
     /tmp/cceSRYBb.s:1198   .text:00000000000005bc .L0 
     /tmp/cceSRYBb.s:1204   .text:00000000000005bc _ZN5RiscV21executeSemOpenSyscallEv
     /tmp/cceSRYBb.s:1207   .text:00000000000005bc .L0 
     /tmp/cceSRYBb.s:1210   .text:00000000000005bc .L0 
     /tmp/cceSRYBb.s:1211   .text:00000000000005c0 .L0 
     /tmp/cceSRYBb.s:1217   .text:00000000000005d4 .L0 
     /tmp/cceSRYBb.s:1218   .text:00000000000005d4 .L0 
     /tmp/cceSRYBb.s:1219   .text:00000000000005d4 .L0 
     /tmp/cceSRYBb.s:1220   .text:00000000000005d4 .L0 
     /tmp/cceSRYBb.s:1221   .text:00000000000005d4 .L0 
     /tmp/cceSRYBb.s:1223   .text:00000000000005d8 .L0 
     /tmp/cceSRYBb.s:1225   .text:00000000000005d8 .L0 
     /tmp/cceSRYBb.s:1226   .text:00000000000005d8 .L0 
       src/riscv.cpp:346    .text:00000000000005d8 .L0 
     /tmp/cceSRYBb.s:1233   .text:00000000000005dc .L0 
       src/riscv.cpp:347    .text:00000000000005dc .L0 
     /tmp/cceSRYBb.s:1238   .text:00000000000005e0 .L0 
     /tmp/cceSRYBb.s:1240   .text:00000000000005e0 .L0 
GAS LISTING /tmp/cceSRYBb.s 			page 93


     /tmp/cceSRYBb.s:1252   .text:00000000000005fc .L0 
     /tmp/cceSRYBb.s:1253   .text:00000000000005fc .L0 
     /tmp/cceSRYBb.s:1255   .text:0000000000000600 .L0 
     /tmp/cceSRYBb.s:1256   .text:0000000000000600 .L0 
     /tmp/cceSRYBb.s:1258   .text:0000000000000604 .L0 
     /tmp/cceSRYBb.s:1262   .text:0000000000000608 .L0 
       src/riscv.cpp:362    .text:0000000000000608 .L0 
     /tmp/cceSRYBb.s:1268   .text:000000000000060c .L0 
     /tmp/cceSRYBb.s:1270   .text:000000000000060c .L0 
     /tmp/cceSRYBb.s:1273   .text:0000000000000614 .L0 
     /tmp/cceSRYBb.s:1274   .text:0000000000000618 .L0 
     /tmp/cceSRYBb.s:1275   .text:0000000000000618 .L0 
     /tmp/cceSRYBb.s:1277   .text:000000000000061c .L0 
     /tmp/cceSRYBb.s:1278   .text:000000000000061c .L0 
     /tmp/cceSRYBb.s:1280   .text:0000000000000620 .L0 
     /tmp/cceSRYBb.s:1283   .text:0000000000000624 .L0 
     /tmp/cceSRYBb.s:1285   .text:0000000000000628 .L0 
     /tmp/cceSRYBb.s:1288   .text:000000000000062c .L0 
     /tmp/cceSRYBb.s:1292   .text:0000000000000630 .L0 
     /tmp/cceSRYBb.s:1294   .text:0000000000000630 .L0 
     /tmp/cceSRYBb.s:1300   .text:000000000000063c .L0 
     /tmp/cceSRYBb.s:1308   .text:0000000000000654 .L0 
     /tmp/cceSRYBb.s:1333   .text:0000000000000654 _ZN5RiscV22executeSemCloseSyscallEv
     /tmp/cceSRYBb.s:1336   .text:0000000000000654 .L0 
     /tmp/cceSRYBb.s:1337   .text:0000000000000654 .L0 
     /tmp/cceSRYBb.s:1338   .text:0000000000000658 .L0 
     /tmp/cceSRYBb.s:1342   .text:0000000000000664 .L0 
     /tmp/cceSRYBb.s:1343   .text:0000000000000664 .L0 
     /tmp/cceSRYBb.s:1344   .text:0000000000000664 .L0 
     /tmp/cceSRYBb.s:1346   .text:0000000000000668 .L0 
     /tmp/cceSRYBb.s:1348   .text:0000000000000668 .L0 
     /tmp/cceSRYBb.s:1349   .text:0000000000000668 .L0 
       src/riscv.cpp:373    .text:0000000000000668 .L0 
     /tmp/cceSRYBb.s:1356   .text:000000000000066c .L0 
     /tmp/cceSRYBb.s:1357   .text:000000000000066c .L0 
     /tmp/cceSRYBb.s:1359   .text:000000000000066c .L0 
     /tmp/cceSRYBb.s:1361   .text:0000000000000670 .L0 
     /tmp/cceSRYBb.s:1365   .text:0000000000000674 .L0 
       src/riscv.cpp:386    .text:0000000000000674 .L0 
     /tmp/cceSRYBb.s:1371   .text:0000000000000678 .L0 
     /tmp/cceSRYBb.s:1373   .text:0000000000000678 .L0 
     /tmp/cceSRYBb.s:1376   .text:0000000000000680 .L0 
     /tmp/cceSRYBb.s:1377   .text:0000000000000684 .L0 
     /tmp/cceSRYBb.s:1378   .text:0000000000000684 .L0 
     /tmp/cceSRYBb.s:1380   .text:0000000000000688 .L0 
     /tmp/cceSRYBb.s:1381   .text:0000000000000688 .L0 
     /tmp/cceSRYBb.s:1383   .text:000000000000068c .L0 
     /tmp/cceSRYBb.s:1386   .text:0000000000000690 .L0 
     /tmp/cceSRYBb.s:1390   .text:0000000000000694 .L0 
     /tmp/cceSRYBb.s:1392   .text:0000000000000694 .L0 
     /tmp/cceSRYBb.s:1393   .text:0000000000000694 .L0 
     /tmp/cceSRYBb.s:1400   .text:00000000000006ac .L0 
     /tmp/cceSRYBb.s:1402   .text:00000000000006b4 .L0 
     /tmp/cceSRYBb.s:1408   .text:00000000000006b4 _ZN5RiscV21executeSemWaitSyscallEv
     /tmp/cceSRYBb.s:1411   .text:00000000000006b4 .L0 
     /tmp/cceSRYBb.s:1412   .text:00000000000006b4 .L0 
     /tmp/cceSRYBb.s:1413   .text:00000000000006b8 .L0 
GAS LISTING /tmp/cceSRYBb.s 			page 94


     /tmp/cceSRYBb.s:1416   .text:00000000000006c0 .L0 
     /tmp/cceSRYBb.s:1417   .text:00000000000006c0 .L0 
     /tmp/cceSRYBb.s:1419   .text:00000000000006c4 .L0 
     /tmp/cceSRYBb.s:1421   .text:00000000000006c4 .L0 
     /tmp/cceSRYBb.s:1422   .text:00000000000006c4 .L0 
       src/riscv.cpp:396    .text:00000000000006c4 .L0 
     /tmp/cceSRYBb.s:1429   .text:00000000000006c8 .L0 
     /tmp/cceSRYBb.s:1431   .text:00000000000006c8 .L0 
     /tmp/cceSRYBb.s:1435   .text:00000000000006cc .L0 
     /tmp/cceSRYBb.s:1436   .text:00000000000006cc .L0 
     /tmp/cceSRYBb.s:1440   .text:00000000000006dc .L0 
     /tmp/cceSRYBb.s:1442   .text:00000000000006e0 .L0 
     /tmp/cceSRYBb.s:1446   .text:00000000000006e4 .L0 
       src/riscv.cpp:412    .text:00000000000006e4 .L0 
     /tmp/cceSRYBb.s:1452   .text:00000000000006e8 .L0 
     /tmp/cceSRYBb.s:1454   .text:00000000000006e8 .L0 
     /tmp/cceSRYBb.s:1457   .text:00000000000006f0 .L0 
     /tmp/cceSRYBb.s:1458   .text:00000000000006f4 .L0 
     /tmp/cceSRYBb.s:1459   .text:00000000000006f4 .L0 
     /tmp/cceSRYBb.s:1461   .text:00000000000006f8 .L0 
     /tmp/cceSRYBb.s:1462   .text:00000000000006f8 .L0 
     /tmp/cceSRYBb.s:1464   .text:00000000000006fc .L0 
     /tmp/cceSRYBb.s:1468   .text:0000000000000700 .L0 
     /tmp/cceSRYBb.s:1470   .text:0000000000000700 .L0 
     /tmp/cceSRYBb.s:1471   .text:0000000000000700 .L0 
     /tmp/cceSRYBb.s:1477   .text:000000000000070c .L0 
     /tmp/cceSRYBb.s:1479   .text:0000000000000714 .L0 
     /tmp/cceSRYBb.s:1485   .text:0000000000000714 _ZN5RiscV23executeSemSignalSyscallEv
     /tmp/cceSRYBb.s:1488   .text:0000000000000714 .L0 
     /tmp/cceSRYBb.s:1489   .text:0000000000000714 .L0 
     /tmp/cceSRYBb.s:1490   .text:0000000000000718 .L0 
     /tmp/cceSRYBb.s:1493   .text:0000000000000720 .L0 
     /tmp/cceSRYBb.s:1494   .text:0000000000000720 .L0 
     /tmp/cceSRYBb.s:1496   .text:0000000000000724 .L0 
     /tmp/cceSRYBb.s:1498   .text:0000000000000724 .L0 
     /tmp/cceSRYBb.s:1499   .text:0000000000000724 .L0 
       src/riscv.cpp:423    .text:0000000000000724 .L0 
     /tmp/cceSRYBb.s:1506   .text:0000000000000728 .L0 
     /tmp/cceSRYBb.s:1508   .text:0000000000000728 .L0 
     /tmp/cceSRYBb.s:1510   .text:000000000000072c .L0 
     /tmp/cceSRYBb.s:1514   .text:0000000000000730 .L0 
       src/riscv.cpp:435    .text:0000000000000730 .L0 
     /tmp/cceSRYBb.s:1520   .text:0000000000000734 .L0 
     /tmp/cceSRYBb.s:1522   .text:0000000000000734 .L0 
     /tmp/cceSRYBb.s:1525   .text:000000000000073c .L0 
     /tmp/cceSRYBb.s:1526   .text:0000000000000740 .L0 
     /tmp/cceSRYBb.s:1527   .text:0000000000000740 .L0 
     /tmp/cceSRYBb.s:1529   .text:0000000000000744 .L0 
     /tmp/cceSRYBb.s:1530   .text:0000000000000744 .L0 
     /tmp/cceSRYBb.s:1532   .text:0000000000000748 .L0 
     /tmp/cceSRYBb.s:1536   .text:000000000000074c .L0 
     /tmp/cceSRYBb.s:1538   .text:000000000000074c .L0 
     /tmp/cceSRYBb.s:1539   .text:000000000000074c .L0 
     /tmp/cceSRYBb.s:1542   .text:0000000000000754 .L0 
     /tmp/cceSRYBb.s:1544   .text:000000000000075c .L0 
     /tmp/cceSRYBb.s:1550   .text:000000000000075c _ZN5RiscV23executeTimeSleepSyscallEv
     /tmp/cceSRYBb.s:1553   .text:000000000000075c .L0 
GAS LISTING /tmp/cceSRYBb.s 			page 95


     /tmp/cceSRYBb.s:1554   .text:000000000000075c .L0 
     /tmp/cceSRYBb.s:1555   .text:0000000000000760 .L0 
     /tmp/cceSRYBb.s:1559   .text:000000000000076c .L0 
     /tmp/cceSRYBb.s:1560   .text:000000000000076c .L0 
     /tmp/cceSRYBb.s:1561   .text:000000000000076c .L0 
     /tmp/cceSRYBb.s:1563   .text:0000000000000770 .L0 
     /tmp/cceSRYBb.s:1565   .text:0000000000000770 .L0 
     /tmp/cceSRYBb.s:1566   .text:0000000000000770 .L0 
       src/riscv.cpp:445    .text:0000000000000770 .L0 
     /tmp/cceSRYBb.s:1572   .text:0000000000000774 .L0 
     /tmp/cceSRYBb.s:1574   .text:0000000000000774 .L0 
     /tmp/cceSRYBb.s:1578   .text:0000000000000780 .L0 
     /tmp/cceSRYBb.s:1579   .text:0000000000000780 .L0 
     /tmp/cceSRYBb.s:1582   .text:000000000000078c .L0 
     /tmp/cceSRYBb.s:1583   .text:000000000000078c .L0 
     /tmp/cceSRYBb.s:1585   .text:0000000000000790 .L0 
     /tmp/cceSRYBb.s:1587   .text:0000000000000794 .L0 
     /tmp/cceSRYBb.s:1588   .text:0000000000000794 .L0 
     /tmp/cceSRYBb.s:1592   .text:00000000000007a0 .L0 
     /tmp/cceSRYBb.s:1593   .text:00000000000007a0 .L0 
     /tmp/cceSRYBb.s:1596   .text:00000000000007a8 .L0 
     /tmp/cceSRYBb.s:1597   .text:00000000000007a8 .L0 
     /tmp/cceSRYBb.s:1600   .text:00000000000007b0 .L0 
     /tmp/cceSRYBb.s:1601   .text:00000000000007b0 .L0 
     /tmp/cceSRYBb.s:1602   .text:00000000000007b0 .L0 
     /tmp/cceSRYBb.s:1608   .text:00000000000007b8 .L0 
     /tmp/cceSRYBb.s:1610   .text:00000000000007b8 .L0 
     /tmp/cceSRYBb.s:1613   .text:00000000000007c0 .L0 
     /tmp/cceSRYBb.s:1614   .text:00000000000007c4 .L0 
     /tmp/cceSRYBb.s:1616   .text:00000000000007c8 .L0 
     /tmp/cceSRYBb.s:1617   .text:00000000000007c8 .L0 
     /tmp/cceSRYBb.s:1619   .text:00000000000007cc .L0 
     /tmp/cceSRYBb.s:1622   .text:00000000000007d0 .L0 
     /tmp/cceSRYBb.s:1624   .text:00000000000007d4 .L0 
     /tmp/cceSRYBb.s:1630   .text:00000000000007d4 _ZN5RiscV18executeGetcSyscallEv
     /tmp/cceSRYBb.s:1633   .text:00000000000007d4 .L0 
     /tmp/cceSRYBb.s:1634   .text:00000000000007d4 .L0 
     /tmp/cceSRYBb.s:1635   .text:00000000000007d8 .L0 
     /tmp/cceSRYBb.s:1639   .text:00000000000007e4 .L0 
     /tmp/cceSRYBb.s:1640   .text:00000000000007e4 .L0 
     /tmp/cceSRYBb.s:1641   .text:00000000000007e4 .L0 
     /tmp/cceSRYBb.s:1643   .text:00000000000007e8 .L0 
     /tmp/cceSRYBb.s:1645   .text:00000000000007e8 .L0 
     /tmp/cceSRYBb.s:1646   .text:00000000000007e8 .L0 
     /tmp/cceSRYBb.s:1648   .text:00000000000007f0 .L0 
     /tmp/cceSRYBb.s:1650   .text:00000000000007f4 .L0 
     /tmp/cceSRYBb.s:1651   .text:00000000000007f4 .L0 
     /tmp/cceSRYBb.s:1657   .text:0000000000000808 .L0 
     /tmp/cceSRYBb.s:1658   .text:0000000000000808 .L0 
     /tmp/cceSRYBb.s:1663   .text:0000000000000814 .L0 
     /tmp/cceSRYBb.s:1666   .text:000000000000081c .L0 
     /tmp/cceSRYBb.s:1671   .text:0000000000000824 .L0 
       src/riscv.cpp:486    .text:0000000000000824 .L0 
     /tmp/cceSRYBb.s:1677   .text:0000000000000828 .L0 
     /tmp/cceSRYBb.s:1679   .text:0000000000000828 .L0 
     /tmp/cceSRYBb.s:1682   .text:0000000000000830 .L0 
     /tmp/cceSRYBb.s:1683   .text:0000000000000834 .L0 
GAS LISTING /tmp/cceSRYBb.s 			page 96


     /tmp/cceSRYBb.s:1684   .text:0000000000000834 .L0 
     /tmp/cceSRYBb.s:1686   .text:0000000000000838 .L0 
     /tmp/cceSRYBb.s:1687   .text:0000000000000838 .L0 
     /tmp/cceSRYBb.s:1689   .text:000000000000083c .L0 
     /tmp/cceSRYBb.s:1691   .text:0000000000000840 .L0 
     /tmp/cceSRYBb.s:1695   .text:0000000000000844 .L0 
     /tmp/cceSRYBb.s:1697   .text:0000000000000844 .L0 
     /tmp/cceSRYBb.s:1698   .text:0000000000000844 .L0 
     /tmp/cceSRYBb.s:1703   .text:0000000000000850 .L0 
     /tmp/cceSRYBb.s:1704   .text:0000000000000850 .L0 
     /tmp/cceSRYBb.s:1711   .text:0000000000000860 .L0 
     /tmp/cceSRYBb.s:1712   .text:0000000000000860 .L0 
     /tmp/cceSRYBb.s:1715   .text:000000000000086c .L0 
     /tmp/cceSRYBb.s:1721   .text:000000000000086c _ZN5RiscV22executePutcUtilSyscallEv
     /tmp/cceSRYBb.s:1724   .text:000000000000086c .L0 
     /tmp/cceSRYBb.s:1725   .text:000000000000086c .L0 
     /tmp/cceSRYBb.s:1726   .text:0000000000000870 .L0 
     /tmp/cceSRYBb.s:1729   .text:0000000000000878 .L0 
     /tmp/cceSRYBb.s:1730   .text:0000000000000878 .L0 
     /tmp/cceSRYBb.s:1732   .text:000000000000087c .L0 
     /tmp/cceSRYBb.s:1734   .text:000000000000087c .L0 
     /tmp/cceSRYBb.s:1735   .text:000000000000087c .L0 
     /tmp/cceSRYBb.s:1738   .text:0000000000000884 .L0 
       src/riscv.cpp:541    .text:0000000000000884 .L0 
     /tmp/cceSRYBb.s:1744   .text:0000000000000888 .L0 
     /tmp/cceSRYBb.s:1746   .text:0000000000000888 .L0 
     /tmp/cceSRYBb.s:1749   .text:0000000000000890 .L0 
     /tmp/cceSRYBb.s:1750   .text:0000000000000894 .L0 
     /tmp/cceSRYBb.s:1752   .text:0000000000000898 .L0 
     /tmp/cceSRYBb.s:1753   .text:0000000000000898 .L0 
     /tmp/cceSRYBb.s:1755   .text:000000000000089c .L0 
     /tmp/cceSRYBb.s:1757   .text:00000000000008a0 .L0 
     /tmp/cceSRYBb.s:1763   .text:00000000000008a0 _ZN5RiscV24executeThreadFreeSyscallEv
     /tmp/cceSRYBb.s:1766   .text:00000000000008a0 .L0 
     /tmp/cceSRYBb.s:1767   .text:00000000000008a0 .L0 
     /tmp/cceSRYBb.s:1768   .text:00000000000008a4 .L0 
     /tmp/cceSRYBb.s:1772   .text:00000000000008b0 .L0 
     /tmp/cceSRYBb.s:1773   .text:00000000000008b0 .L0 
     /tmp/cceSRYBb.s:1774   .text:00000000000008b0 .L0 
     /tmp/cceSRYBb.s:1776   .text:00000000000008b4 .L0 
     /tmp/cceSRYBb.s:1778   .text:00000000000008b4 .L0 
     /tmp/cceSRYBb.s:1779   .text:00000000000008b4 .L0 
       src/riscv.cpp:587    .text:00000000000008b4 .L0 
     /tmp/cceSRYBb.s:1786   .text:00000000000008b8 .L0 
     /tmp/cceSRYBb.s:1788   .text:00000000000008b8 .L0 
     /tmp/cceSRYBb.s:1792   .text:00000000000008bc .L0 
     /tmp/cceSRYBb.s:1793   .text:00000000000008bc .L0 
     /tmp/cceSRYBb.s:1799   .text:00000000000008c4 .L0 
     /tmp/cceSRYBb.s:1801   .text:00000000000008c4 .L0 
     /tmp/cceSRYBb.s:1804   .text:00000000000008cc .L0 
     /tmp/cceSRYBb.s:1805   .text:00000000000008d0 .L0 
     /tmp/cceSRYBb.s:1806   .text:00000000000008d0 .L0 
     /tmp/cceSRYBb.s:1808   .text:00000000000008d4 .L0 
     /tmp/cceSRYBb.s:1809   .text:00000000000008d4 .L0 
     /tmp/cceSRYBb.s:1811   .text:00000000000008d8 .L0 
     /tmp/cceSRYBb.s:1814   .text:00000000000008dc .L0 
     /tmp/cceSRYBb.s:1818   .text:00000000000008e0 .L0 
GAS LISTING /tmp/cceSRYBb.s 			page 97


     /tmp/cceSRYBb.s:1820   .text:00000000000008e0 .L0 
     /tmp/cceSRYBb.s:1821   .text:00000000000008e0 .L0 
     /tmp/cceSRYBb.s:1825   .text:00000000000008ec .L0 
     /tmp/cceSRYBb.s:1826   .text:00000000000008ec .L0 
     /tmp/cceSRYBb.s:1833   .text:0000000000000908 .L0 
     /tmp/cceSRYBb.s:1839   .text:0000000000000908 _ZN5RiscV27executeSemaphoreFreeSyscallEv
     /tmp/cceSRYBb.s:1842   .text:0000000000000908 .L0 
     /tmp/cceSRYBb.s:1843   .text:0000000000000908 .L0 
     /tmp/cceSRYBb.s:1844   .text:000000000000090c .L0 
     /tmp/cceSRYBb.s:1848   .text:0000000000000918 .L0 
     /tmp/cceSRYBb.s:1849   .text:0000000000000918 .L0 
     /tmp/cceSRYBb.s:1850   .text:0000000000000918 .L0 
     /tmp/cceSRYBb.s:1852   .text:000000000000091c .L0 
     /tmp/cceSRYBb.s:1854   .text:000000000000091c .L0 
     /tmp/cceSRYBb.s:1855   .text:000000000000091c .L0 
       src/riscv.cpp:609    .text:000000000000091c .L0 
     /tmp/cceSRYBb.s:1862   .text:0000000000000920 .L0 
     /tmp/cceSRYBb.s:1864   .text:0000000000000920 .L0 
     /tmp/cceSRYBb.s:1868   .text:0000000000000924 .L0 
     /tmp/cceSRYBb.s:1869   .text:0000000000000924 .L0 
     /tmp/cceSRYBb.s:1875   .text:000000000000092c .L0 
     /tmp/cceSRYBb.s:1877   .text:000000000000092c .L0 
     /tmp/cceSRYBb.s:1880   .text:0000000000000934 .L0 
     /tmp/cceSRYBb.s:1881   .text:0000000000000938 .L0 
     /tmp/cceSRYBb.s:1882   .text:0000000000000938 .L0 
     /tmp/cceSRYBb.s:1884   .text:000000000000093c .L0 
     /tmp/cceSRYBb.s:1885   .text:000000000000093c .L0 
     /tmp/cceSRYBb.s:1887   .text:0000000000000940 .L0 
     /tmp/cceSRYBb.s:1890   .text:0000000000000944 .L0 
     /tmp/cceSRYBb.s:1894   .text:0000000000000948 .L0 
     /tmp/cceSRYBb.s:1896   .text:0000000000000948 .L0 
     /tmp/cceSRYBb.s:1897   .text:0000000000000948 .L0 
     /tmp/cceSRYBb.s:1904   .text:0000000000000964 .L0 
     /tmp/cceSRYBb.s:1910   .text:0000000000000964 _ZN5RiscV18executeForkSyscallEv
     /tmp/cceSRYBb.s:1913   .text:0000000000000964 .L0 
     /tmp/cceSRYBb.s:1916   .text:0000000000000964 .L0 
     /tmp/cceSRYBb.s:1917   .text:0000000000000968 .L0 
     /tmp/cceSRYBb.s:1922   .text:0000000000000978 .L0 
     /tmp/cceSRYBb.s:1923   .text:0000000000000978 .L0 
     /tmp/cceSRYBb.s:1924   .text:0000000000000978 .L0 
     /tmp/cceSRYBb.s:1925   .text:0000000000000978 .L0 
     /tmp/cceSRYBb.s:1927   .text:000000000000097c .L0 
     /tmp/cceSRYBb.s:1929   .text:000000000000097c .L0 
     /tmp/cceSRYBb.s:1930   .text:000000000000097c .L0 
     /tmp/cceSRYBb.s:1937   .text:000000000000098c .L0 
     /tmp/cceSRYBb.s:1938   .text:000000000000098c .L0 
     /tmp/cceSRYBb.s:1947   .text:00000000000009ac .L0 
     /tmp/cceSRYBb.s:1948   .text:00000000000009ac .L0 
     /tmp/cceSRYBb.s:1962   .text:00000000000009d4 .L0 
     /tmp/cceSRYBb.s:1964   .text:00000000000009d4 .L0 
     /tmp/cceSRYBb.s:1967   .text:00000000000009d8 .L0 
     /tmp/cceSRYBb.s:1968   .text:00000000000009d8 .L0 
     /tmp/cceSRYBb.s:1972   .text:00000000000009e8 .L0 
     /tmp/cceSRYBb.s:1973   .text:00000000000009e8 .L0 
     /tmp/cceSRYBb.s:1976   .text:00000000000009f4 .L0 
     /tmp/cceSRYBb.s:1978   .text:00000000000009f8 .L0 
     /tmp/cceSRYBb.s:1981   .text:0000000000000a04 .L0 
GAS LISTING /tmp/cceSRYBb.s 			page 98


     /tmp/cceSRYBb.s:1983   .text:0000000000000a08 .L0 
     /tmp/cceSRYBb.s:1985   .text:0000000000000a0c .L0 
     /tmp/cceSRYBb.s:1987   .text:0000000000000a10 .L0 
     /tmp/cceSRYBb.s:1988   .text:0000000000000a10 .L0 
     /tmp/cceSRYBb.s:1991   .text:0000000000000a18 .L0 
     /tmp/cceSRYBb.s:1993   .text:0000000000000a1c .L0 
     /tmp/cceSRYBb.s:1995   .text:0000000000000a20 .L0 
     /tmp/cceSRYBb.s:1998   .text:0000000000000a24 .L0 
     /tmp/cceSRYBb.s:1999   .text:0000000000000a24 .L0 
     /tmp/cceSRYBb.s:2001   .text:0000000000000a28 .L0 
     /tmp/cceSRYBb.s:2002   .text:0000000000000a28 .L0 
       src/riscv.cpp:654    .text:0000000000000a28 .L0 
     /tmp/cceSRYBb.s:2008   .text:0000000000000a2c .L0 
       src/riscv.cpp:656    .text:0000000000000a2c .L0 
     /tmp/cceSRYBb.s:2013   .text:0000000000000a30 .L0 
       src/riscv.cpp:658    .text:0000000000000a30 .L0 
     /tmp/cceSRYBb.s:2018   .text:0000000000000a34 .L0 
       src/riscv.cpp:660    .text:0000000000000a34 .L0 
     /tmp/cceSRYBb.s:2023   .text:0000000000000a38 .L0 
       src/riscv.cpp:662    .text:0000000000000a38 .L0 
     /tmp/cceSRYBb.s:2028   .text:0000000000000a3c .L0 
       src/riscv.cpp:665    .text:0000000000000a3c .L0 
     /tmp/cceSRYBb.s:2033   .text:0000000000000a40 .L0 
       src/riscv.cpp:667    .text:0000000000000a40 .L0 
     /tmp/cceSRYBb.s:2038   .text:0000000000000a44 .L0 
       src/riscv.cpp:669    .text:0000000000000a44 .L0 
     /tmp/cceSRYBb.s:2043   .text:0000000000000a48 .L0 
       src/riscv.cpp:671    .text:0000000000000a48 .L0 
     /tmp/cceSRYBb.s:2048   .text:0000000000000a4c .L0 
     /tmp/cceSRYBb.s:2050   .text:0000000000000a4c .L0 
     /tmp/cceSRYBb.s:2053   .text:0000000000000a54 .L0 
     /tmp/cceSRYBb.s:2055   .text:0000000000000a58 .L0 
     /tmp/cceSRYBb.s:2056   .text:0000000000000a58 .L0 
     /tmp/cceSRYBb.s:2058   .text:0000000000000a5c .L0 
     /tmp/cceSRYBb.s:2060   .text:0000000000000a60 .L0 
     /tmp/cceSRYBb.s:2061   .text:0000000000000a60 .L0 
     /tmp/cceSRYBb.s:2070   .text:0000000000000a6c .L0 
     /tmp/cceSRYBb.s:2071   .text:0000000000000a6c .L0 
       src/riscv.cpp:685    .text:0000000000000a6c .L0 
     /tmp/cceSRYBb.s:2077   .text:0000000000000a70 .L0 
     /tmp/cceSRYBb.s:2079   .text:0000000000000a70 .L0 
     /tmp/cceSRYBb.s:2082   .text:0000000000000a78 .L0 
     /tmp/cceSRYBb.s:2083   .text:0000000000000a7c .L0 
     /tmp/cceSRYBb.s:2084   .text:0000000000000a7c .L0 
     /tmp/cceSRYBb.s:2086   .text:0000000000000a80 .L0 
     /tmp/cceSRYBb.s:2087   .text:0000000000000a80 .L0 
     /tmp/cceSRYBb.s:2089   .text:0000000000000a84 .L0 
     /tmp/cceSRYBb.s:2092   .text:0000000000000a88 .L0 
     /tmp/cceSRYBb.s:2094   .text:0000000000000a8c .L0 
     /tmp/cceSRYBb.s:2098   .text:0000000000000a90 .L0 
     /tmp/cceSRYBb.s:2101   .text:0000000000000a90 .L0 
     /tmp/cceSRYBb.s:2110   .text:0000000000000a9c .L0 
     /tmp/cceSRYBb.s:2118   .text:0000000000000ab4 .L0 
     /tmp/cceSRYBb.s:2147   .text:0000000000000ab4 _ZN5RiscV5getPCEv
     /tmp/cceSRYBb.s:2150   .text:0000000000000ab4 .L0 
     /tmp/cceSRYBb.s:2151   .text:0000000000000ab4 .L0 
     /tmp/cceSRYBb.s:2152   .text:0000000000000ab8 .L0 
GAS LISTING /tmp/cceSRYBb.s 			page 99


     /tmp/cceSRYBb.s:2154   .text:0000000000000abc .L0 
     /tmp/cceSRYBb.s:2156   .text:0000000000000ac0 .L0 
     /tmp/cceSRYBb.s:2158   .text:0000000000000ac0 .L0 
     /tmp/cceSRYBb.s:2159   .text:0000000000000ac0 .L0 
       src/riscv.cpp:694    .text:0000000000000ac0 .L0 
     /tmp/cceSRYBb.s:2166   .text:0000000000000ac4 .L0 
     /tmp/cceSRYBb.s:2168   .text:0000000000000ac4 .L0 
     /tmp/cceSRYBb.s:2171   .text:0000000000000ac8 .L0 
     /tmp/cceSRYBb.s:2174   .text:0000000000000ad4 .L0 
     /tmp/cceSRYBb.s:2175   .text:0000000000000ad8 .L0 
     /tmp/cceSRYBb.s:2176   .text:0000000000000ad8 .L0 
     /tmp/cceSRYBb.s:2178   .text:0000000000000adc .L0 
     /tmp/cceSRYBb.s:2180   .text:0000000000000ae0 .L0 
     /tmp/cceSRYBb.s:2206   .text:0000000000000ae0 _ZN5RiscV20handleSupervisorTrapEv
     /tmp/cceSRYBb.s:2209   .text:0000000000000ae0 .L0 
     /tmp/cceSRYBb.s:2210   .text:0000000000000ae0 .L0 
     /tmp/cceSRYBb.s:2211   .text:0000000000000ae4 .L0 
     /tmp/cceSRYBb.s:2214   .text:0000000000000aec .L0 
     /tmp/cceSRYBb.s:2215   .text:0000000000000aec .L0 
     /tmp/cceSRYBb.s:2217   .text:0000000000000af0 .L0 
     /tmp/cceSRYBb.s:2221   .text:0000000000000af0 .L0 
     /tmp/cceSRYBb.s:2222   .text:0000000000000af0 .L0 
     /tmp/cceSRYBb.s:2223   .text:0000000000000af0 .L0 
  src/../h/riscv.hpp:133    .text:0000000000000af0 .L0 
     /tmp/cceSRYBb.s:2231   .text:0000000000000af8 .L0 
     /tmp/cceSRYBb.s:2232   .text:0000000000000af8 .L0 
     /tmp/cceSRYBb.s:2236   .text:0000000000000afc .L0 
     /tmp/cceSRYBb.s:2238   .text:0000000000000b00 .L0 
     /tmp/cceSRYBb.s:2239   .text:0000000000000b00 .L0 
       src/riscv.cpp:43     .text:0000000000000b0c .L0 
     /tmp/cceSRYBb.s:2250   .text:0000000000000b14 .L0 
     /tmp/cceSRYBb.s:2251   .text:0000000000000b14 .L0 
     /tmp/cceSRYBb.s:2253   .text:0000000000000b18 .L0 
     /tmp/cceSRYBb.s:2256   .text:0000000000000b20 .L0 
     /tmp/cceSRYBb.s:2258   .text:0000000000000b24 .L0 
     /tmp/cceSRYBb.s:2264   .text:0000000000000b2c .L0 
     /tmp/cceSRYBb.s:2265   .text:0000000000000b2c .L0 
     /tmp/cceSRYBb.s:2267   .text:0000000000000b30 .L0 
     /tmp/cceSRYBb.s:2277   .text:0000000000000b40 .L0 
     /tmp/cceSRYBb.s:2278   .text:0000000000000b40 .L0 
     /tmp/cceSRYBb.s:2280   .text:0000000000000b44 .L0 
     /tmp/cceSRYBb.s:2292   .text:0000000000000b54 .L0 
     /tmp/cceSRYBb.s:2293   .text:0000000000000b54 .L0 
     /tmp/cceSRYBb.s:2295   .text:0000000000000b58 .L0 
     /tmp/cceSRYBb.s:2299   .text:0000000000000b60 .L0 
     /tmp/cceSRYBb.s:2300   .text:0000000000000b60 .L0 
     /tmp/cceSRYBb.s:2304   .text:0000000000000b70 .L0 
     /tmp/cceSRYBb.s:2305   .text:0000000000000b70 .L0 
     /tmp/cceSRYBb.s:2311   .text:0000000000000b80 .L0 
     /tmp/cceSRYBb.s:2312   .text:0000000000000b80 .L0 
     /tmp/cceSRYBb.s:2313   .text:0000000000000b80 .L0 
  src/../h/riscv.hpp:133    .text:0000000000000b80 .L0 
     /tmp/cceSRYBb.s:2321   .text:0000000000000b88 .L0 
     /tmp/cceSRYBb.s:2322   .text:0000000000000b88 .L0 
     /tmp/cceSRYBb.s:2327   .text:0000000000000b8c .L0 
     /tmp/cceSRYBb.s:2328   .text:0000000000000b8c .L0 
     /tmp/cceSRYBb.s:2335   .text:0000000000000ba0 .L0 
GAS LISTING /tmp/cceSRYBb.s 			page 100


     /tmp/cceSRYBb.s:2336   .text:0000000000000ba0 .L0 
     /tmp/cceSRYBb.s:2342   .text:0000000000000bb0 .L0 
     /tmp/cceSRYBb.s:2343   .text:0000000000000bb0 .L0 
     /tmp/cceSRYBb.s:2344   .text:0000000000000bb0 .L0 
  src/../h/riscv.hpp:143    .text:0000000000000bb0 .L0 
     /tmp/cceSRYBb.s:2353   .text:0000000000000bb4 .L0 
     /tmp/cceSRYBb.s:2354   .text:0000000000000bb4 .L0 
     /tmp/cceSRYBb.s:2355   .text:0000000000000bb4 .L0 
     /tmp/cceSRYBb.s:2361   .text:0000000000000bc8 .L0 
     /tmp/cceSRYBb.s:2362   .text:0000000000000bc8 .L0 
     /tmp/cceSRYBb.s:2366   .text:0000000000000bd8 .L0 
     /tmp/cceSRYBb.s:2367   .text:0000000000000bd8 .L0 
     /tmp/cceSRYBb.s:2371   .text:0000000000000be4 .L0 
     /tmp/cceSRYBb.s:2372   .text:0000000000000be4 .L0 
     /tmp/cceSRYBb.s:2375   .text:0000000000000bec .L0 
     /tmp/cceSRYBb.s:2376   .text:0000000000000bec .L0 
     /tmp/cceSRYBb.s:2380   .text:0000000000000bfc .L0 
     /tmp/cceSRYBb.s:2381   .text:0000000000000bfc .L0 
     /tmp/cceSRYBb.s:2393   .text:0000000000000c08 .L0 
     /tmp/cceSRYBb.s:2394   .text:0000000000000c08 .L0 
     /tmp/cceSRYBb.s:2395   .text:0000000000000c08 .L0 
  src/../h/riscv.hpp:163    .text:0000000000000c08 .L0 
     /tmp/cceSRYBb.s:2405   .text:0000000000000c0c .L0 
     /tmp/cceSRYBb.s:2406   .text:0000000000000c0c .L0 
     /tmp/cceSRYBb.s:2410   .text:0000000000000c10 .L0 
     /tmp/cceSRYBb.s:2411   .text:0000000000000c10 .L0 
     /tmp/cceSRYBb.s:2412   .text:0000000000000c10 .L0 
  src/../h/riscv.hpp:143    .text:0000000000000c10 .L0 
     /tmp/cceSRYBb.s:2422   .text:0000000000000c14 .L0 
     /tmp/cceSRYBb.s:2423   .text:0000000000000c14 .L0 
     /tmp/cceSRYBb.s:2425   .text:0000000000000c18 .L0 
     /tmp/cceSRYBb.s:2427   .text:0000000000000c1c .L0 
     /tmp/cceSRYBb.s:2428   .text:0000000000000c1c .L0 
     /tmp/cceSRYBb.s:2431   .text:0000000000000c28 .L0 
     /tmp/cceSRYBb.s:2434   .text:0000000000000c30 .L0 
     /tmp/cceSRYBb.s:2435   .text:0000000000000c30 .L0 
     /tmp/cceSRYBb.s:2438   .text:0000000000000c38 .L0 
     /tmp/cceSRYBb.s:2439   .text:0000000000000c38 .L0 
       src/riscv.cpp:57     .text:0000000000000c38 .L0 
     /tmp/cceSRYBb.s:2447   .text:0000000000000c3c .L0 
     /tmp/cceSRYBb.s:2561   .text:0000000000000c60 .L0 
     /tmp/cceSRYBb.s:2562   .text:0000000000000c60 .L0 
     /tmp/cceSRYBb.s:2563   .text:0000000000000c60 .L0 
     /tmp/cceSRYBb.s:2567   .text:0000000000000c68 .L0 
     /tmp/cceSRYBb.s:2568   .text:0000000000000c68 .L0 
     /tmp/cceSRYBb.s:2569   .text:0000000000000c68 .L0 
     /tmp/cceSRYBb.s:2576   .text:0000000000000c78 .L0 
  src/../h/riscv.hpp:158    .text:0000000000000c78 .L0 
     /tmp/cceSRYBb.s:2586   .text:0000000000000c7c .L0 
     /tmp/cceSRYBb.s:2587   .text:0000000000000c7c .L0 
     /tmp/cceSRYBb.s:2592   .text:0000000000000c80 .L0 
  src/../h/riscv.hpp:148    .text:0000000000000c80 .L0 
     /tmp/cceSRYBb.s:2605   .text:0000000000000c84 .L0 
     /tmp/cceSRYBb.s:2606   .text:0000000000000c84 .L0 
     /tmp/cceSRYBb.s:2609   .text:0000000000000c8c .L0 
     /tmp/cceSRYBb.s:2610   .text:0000000000000c90 .L0 
     /tmp/cceSRYBb.s:2611   .text:0000000000000c90 .L0 
GAS LISTING /tmp/cceSRYBb.s 			page 101


     /tmp/cceSRYBb.s:2613   .text:0000000000000c94 .L0 
     /tmp/cceSRYBb.s:2614   .text:0000000000000c94 .L0 
     /tmp/cceSRYBb.s:2616   .text:0000000000000c98 .L0 
     /tmp/cceSRYBb.s:2619   .text:0000000000000c9c .L0 
     /tmp/cceSRYBb.s:2623   .text:0000000000000c9c .L0 
     /tmp/cceSRYBb.s:2624   .text:0000000000000c9c .L0 
     /tmp/cceSRYBb.s:2625   .text:0000000000000c9c .L0 
     /tmp/cceSRYBb.s:2628   .text:0000000000000ca4 .L0 
     /tmp/cceSRYBb.s:2631   .text:0000000000000ca8 .L0 
     /tmp/cceSRYBb.s:2632   .text:0000000000000ca8 .L0 
     /tmp/cceSRYBb.s:2633   .text:0000000000000ca8 .L0 
     /tmp/cceSRYBb.s:2636   .text:0000000000000cb0 .L0 
     /tmp/cceSRYBb.s:2639   .text:0000000000000cb4 .L0 
     /tmp/cceSRYBb.s:2640   .text:0000000000000cb4 .L0 
     /tmp/cceSRYBb.s:2641   .text:0000000000000cb4 .L0 
     /tmp/cceSRYBb.s:2644   .text:0000000000000cbc .L0 
     /tmp/cceSRYBb.s:2647   .text:0000000000000cc0 .L0 
     /tmp/cceSRYBb.s:2648   .text:0000000000000cc0 .L0 
     /tmp/cceSRYBb.s:2649   .text:0000000000000cc0 .L0 
     /tmp/cceSRYBb.s:2652   .text:0000000000000cc8 .L0 
     /tmp/cceSRYBb.s:2655   .text:0000000000000ccc .L0 
     /tmp/cceSRYBb.s:2656   .text:0000000000000ccc .L0 
     /tmp/cceSRYBb.s:2657   .text:0000000000000ccc .L0 
     /tmp/cceSRYBb.s:2660   .text:0000000000000cd4 .L0 
     /tmp/cceSRYBb.s:2663   .text:0000000000000cd8 .L0 
     /tmp/cceSRYBb.s:2664   .text:0000000000000cd8 .L0 
     /tmp/cceSRYBb.s:2665   .text:0000000000000cd8 .L0 
     /tmp/cceSRYBb.s:2668   .text:0000000000000ce0 .L0 
     /tmp/cceSRYBb.s:2671   .text:0000000000000ce4 .L0 
     /tmp/cceSRYBb.s:2672   .text:0000000000000ce4 .L0 
     /tmp/cceSRYBb.s:2673   .text:0000000000000ce4 .L0 
     /tmp/cceSRYBb.s:2676   .text:0000000000000cec .L0 
     /tmp/cceSRYBb.s:2679   .text:0000000000000cf0 .L0 
     /tmp/cceSRYBb.s:2680   .text:0000000000000cf0 .L0 
     /tmp/cceSRYBb.s:2681   .text:0000000000000cf0 .L0 
     /tmp/cceSRYBb.s:2684   .text:0000000000000cf8 .L0 
     /tmp/cceSRYBb.s:2687   .text:0000000000000cfc .L0 
     /tmp/cceSRYBb.s:2688   .text:0000000000000cfc .L0 
     /tmp/cceSRYBb.s:2689   .text:0000000000000cfc .L0 
     /tmp/cceSRYBb.s:2692   .text:0000000000000d04 .L0 
     /tmp/cceSRYBb.s:2695   .text:0000000000000d08 .L0 
     /tmp/cceSRYBb.s:2696   .text:0000000000000d08 .L0 
     /tmp/cceSRYBb.s:2697   .text:0000000000000d08 .L0 
     /tmp/cceSRYBb.s:2700   .text:0000000000000d10 .L0 
     /tmp/cceSRYBb.s:2703   .text:0000000000000d14 .L0 
     /tmp/cceSRYBb.s:2704   .text:0000000000000d14 .L0 
     /tmp/cceSRYBb.s:2705   .text:0000000000000d14 .L0 
     /tmp/cceSRYBb.s:2708   .text:0000000000000d1c .L0 
     /tmp/cceSRYBb.s:2711   .text:0000000000000d20 .L0 
     /tmp/cceSRYBb.s:2712   .text:0000000000000d20 .L0 
     /tmp/cceSRYBb.s:2713   .text:0000000000000d20 .L0 
     /tmp/cceSRYBb.s:2716   .text:0000000000000d28 .L0 
     /tmp/cceSRYBb.s:2719   .text:0000000000000d2c .L0 
     /tmp/cceSRYBb.s:2720   .text:0000000000000d2c .L0 
     /tmp/cceSRYBb.s:2721   .text:0000000000000d2c .L0 
     /tmp/cceSRYBb.s:2724   .text:0000000000000d34 .L0 
     /tmp/cceSRYBb.s:2727   .text:0000000000000d38 .L0 
GAS LISTING /tmp/cceSRYBb.s 			page 102


     /tmp/cceSRYBb.s:2728   .text:0000000000000d38 .L0 
     /tmp/cceSRYBb.s:2729   .text:0000000000000d38 .L0 
     /tmp/cceSRYBb.s:2732   .text:0000000000000d40 .L0 
     /tmp/cceSRYBb.s:2735   .text:0000000000000d44 .L0 
     /tmp/cceSRYBb.s:2736   .text:0000000000000d44 .L0 
     /tmp/cceSRYBb.s:2737   .text:0000000000000d44 .L0 
     /tmp/cceSRYBb.s:2740   .text:0000000000000d4c .L0 
     /tmp/cceSRYBb.s:2743   .text:0000000000000d50 .L0 
     /tmp/cceSRYBb.s:2744   .text:0000000000000d50 .L0 
     /tmp/cceSRYBb.s:2745   .text:0000000000000d50 .L0 
     /tmp/cceSRYBb.s:2748   .text:0000000000000d58 .L0 
     /tmp/cceSRYBb.s:2751   .text:0000000000000d5c .L0 
     /tmp/cceSRYBb.s:2752   .text:0000000000000d5c .L0 
       src/riscv.cpp:80     .text:0000000000000d5c .L0 
     /tmp/cceSRYBb.s:2761   .text:0000000000000d6c .L0 
     /tmp/cceSRYBb.s:2762   .text:0000000000000d6c .L0 
     /tmp/cceSRYBb.s:2765   .text:0000000000000d74 .L0 
     /tmp/cceSRYBb.s:2766   .text:0000000000000d74 .L0 
     /tmp/cceSRYBb.s:2769   .text:0000000000000d7c .L0 
     /tmp/cceSRYBb.s:2777   .text:0000000000000d80 .L0 
     /tmp/cceSRYBb.s:2778   .text:0000000000000d80 .L0 
     /tmp/cceSRYBb.s:2779   .text:0000000000000d80 .L0 
  src/../h/riscv.hpp:163    .text:0000000000000d80 .L0 
     /tmp/cceSRYBb.s:2789   .text:0000000000000d84 .L0 
     /tmp/cceSRYBb.s:2790   .text:0000000000000d84 .L0 
     /tmp/cceSRYBb.s:2794   .text:0000000000000d88 .L0 
     /tmp/cceSRYBb.s:2795   .text:0000000000000d88 .L0 
     /tmp/cceSRYBb.s:2796   .text:0000000000000d88 .L0 
  src/../h/riscv.hpp:143    .text:0000000000000d88 .L0 
     /tmp/cceSRYBb.s:2806   .text:0000000000000d8c .L0 
     /tmp/cceSRYBb.s:2807   .text:0000000000000d8c .L0 
     /tmp/cceSRYBb.s:2812   .text:0000000000000d90 .L0 
     /tmp/cceSRYBb.s:2813   .text:0000000000000d90 .L0 
     /tmp/cceSRYBb.s:2814   .text:0000000000000d90 .L0 
     /tmp/cceSRYBb.s:2824   .text:0000000000000d98 .L0 
     /tmp/cceSRYBb.s:2825   .text:0000000000000d98 .L0 
     /tmp/cceSRYBb.s:2830   .text:0000000000000dac .L0 
     /tmp/cceSRYBb.s:2831   .text:0000000000000dac .L0 
     /tmp/cceSRYBb.s:2834   .text:0000000000000db4 .L0 
     /tmp/cceSRYBb.s:2835   .text:0000000000000db4 .L0 
     /tmp/cceSRYBb.s:2841   .text:0000000000000dc8 .L0 
     /tmp/cceSRYBb.s:2842   .text:0000000000000dc8 .L0 
     /tmp/cceSRYBb.s:2846   .text:0000000000000dd8 .L0 
     /tmp/cceSRYBb.s:2850   .text:0000000000000ddc .L0 
     /tmp/cceSRYBb.s:2851   .text:0000000000000ddc .L0 
     /tmp/cceSRYBb.s:2856   .text:0000000000000de0 .L0 
  src/../h/riscv.hpp:158    .text:0000000000000de0 .L0 
     /tmp/cceSRYBb.s:2866   .text:0000000000000de4 .L0 
     /tmp/cceSRYBb.s:2867   .text:0000000000000de4 .L0 
     /tmp/cceSRYBb.s:2872   .text:0000000000000de8 .L0 
  src/../h/riscv.hpp:148    .text:0000000000000de8 .L0 
     /tmp/cceSRYBb.s:2879   .text:0000000000000dec .L0 
     /tmp/cceSRYBb.s:2887   .text:0000000000000df0 .L0 
     /tmp/cceSRYBb.s:2888   .text:0000000000000df0 .L0 
     /tmp/cceSRYBb.s:2892   .text:0000000000000dfc .L0 
     /tmp/cceSRYBb.s:2893   .text:0000000000000dfc .L0 
     /tmp/cceSRYBb.s:2894   .text:0000000000000dfc .L0 
GAS LISTING /tmp/cceSRYBb.s 			page 103


     /tmp/cceSRYBb.s:2897   .text:0000000000000e04 .L0 
     /tmp/cceSRYBb.s:2898   .text:0000000000000e04 .L0 
     /tmp/cceSRYBb.s:2910   .text:0000000000000e10 .L0 
     /tmp/cceSRYBb.s:2911   .text:0000000000000e10 .L0 
     /tmp/cceSRYBb.s:2912   .text:0000000000000e10 .L0 
  src/../h/riscv.hpp:163    .text:0000000000000e10 .L0 
     /tmp/cceSRYBb.s:2922   .text:0000000000000e14 .L0 
     /tmp/cceSRYBb.s:2923   .text:0000000000000e14 .L0 
     /tmp/cceSRYBb.s:2927   .text:0000000000000e18 .L0 
     /tmp/cceSRYBb.s:2928   .text:0000000000000e18 .L0 
     /tmp/cceSRYBb.s:2929   .text:0000000000000e18 .L0 
  src/../h/riscv.hpp:143    .text:0000000000000e18 .L0 
     /tmp/cceSRYBb.s:2939   .text:0000000000000e1c .L0 
     /tmp/cceSRYBb.s:2940   .text:0000000000000e1c .L0 
     /tmp/cceSRYBb.s:2942   .text:0000000000000e20 .L0 
     /tmp/cceSRYBb.s:2943   .text:0000000000000e20 .L0 
     /tmp/cceSRYBb.s:2947   .text:0000000000000e2c .L0 
       src/riscv.cpp:135    .text:0000000000000e2c .L0 
     /tmp/cceSRYBb.s:2953   .text:0000000000000e30 .L0 
       src/riscv.cpp:136    .text:0000000000000e30 .L0 
     /tmp/cceSRYBb.s:2958   .text:0000000000000e34 .L0 
       src/riscv.cpp:137    .text:0000000000000e34 .L0 
     /tmp/cceSRYBb.s:2966   .text:0000000000000e38 .L0 
     /tmp/cceSRYBb.s:2967   .text:0000000000000e38 .L0 
     /tmp/cceSRYBb.s:2970   .text:0000000000000e3c .L0 
     /tmp/cceSRYBb.s:2973   .text:0000000000000e40 .L0 
     /tmp/cceSRYBb.s:2974   .text:0000000000000e40 .L0 
     /tmp/cceSRYBb.s:2975   .text:0000000000000e40 .L0 
     /tmp/cceSRYBb.s:2976   .text:0000000000000e40 .L0 
     /tmp/cceSRYBb.s:2980   .text:0000000000000e4c .L0 
       src/riscv.cpp:146    .text:0000000000000e4c .L0 
     /tmp/cceSRYBb.s:2986   .text:0000000000000e50 .L0 
       src/riscv.cpp:147    .text:0000000000000e50 .L0 
     /tmp/cceSRYBb.s:2991   .text:0000000000000e54 .L0 
       src/riscv.cpp:148    .text:0000000000000e54 .L0 
     /tmp/cceSRYBb.s:2999   .text:0000000000000e5c .L0 
     /tmp/cceSRYBb.s:3000   .text:0000000000000e5c .L0 
     /tmp/cceSRYBb.s:3004   .text:0000000000000e68 .L0 
     /tmp/cceSRYBb.s:3010   .text:0000000000000e6c .L0 
     /tmp/cceSRYBb.s:3011   .text:0000000000000e6c .L0 
     /tmp/cceSRYBb.s:3016   .text:0000000000000e7c .L0 
     /tmp/cceSRYBb.s:3017   .text:0000000000000e7c .L0 
     /tmp/cceSRYBb.s:3022   .text:0000000000000e80 .L0 
  src/../h/riscv.hpp:158    .text:0000000000000e80 .L0 
     /tmp/cceSRYBb.s:3032   .text:0000000000000e84 .L0 
     /tmp/cceSRYBb.s:3033   .text:0000000000000e84 .L0 
     /tmp/cceSRYBb.s:3038   .text:0000000000000e88 .L0 
  src/../h/riscv.hpp:148    .text:0000000000000e88 .L0 
     /tmp/cceSRYBb.s:3045   .text:0000000000000e8c .L0 
     /tmp/cceSRYBb.s:3053   .text:0000000000000e90 .L0 
     /tmp/cceSRYBb.s:3054   .text:0000000000000e90 .L0 
     /tmp/cceSRYBb.s:3058   .text:0000000000000ea0 .L0 
     /tmp/cceSRYBb.s:3059   .text:0000000000000ea0 .L0 
     /tmp/cceSRYBb.s:3070   .text:0000000000000eac .L0 
     /tmp/cceSRYBb.s:3071   .text:0000000000000eac .L0 
     /tmp/cceSRYBb.s:3075   .text:0000000000000eb8 .L0 
     /tmp/cceSRYBb.s:3076   .text:0000000000000eb8 .L0 
GAS LISTING /tmp/cceSRYBb.s 			page 104


     /tmp/cceSRYBb.s:3079   .text:0000000000000ec0 .L0 
     /tmp/cceSRYBb.s:3080   .text:0000000000000ec0 .L0 
     /tmp/cceSRYBb.s:3086   .text:0000000000000ed0 .L0 
     /tmp/cceSRYBb.s:3087   .text:0000000000000ed0 .L0 
     /tmp/cceSRYBb.s:3088   .text:0000000000000ed0 .L0 
  src/../h/riscv.hpp:143    .text:0000000000000ed0 .L0 
     /tmp/cceSRYBb.s:3097   .text:0000000000000ed4 .L0 
     /tmp/cceSRYBb.s:3098   .text:0000000000000ed4 .L0 
     /tmp/cceSRYBb.s:3099   .text:0000000000000ed4 .L0 
     /tmp/cceSRYBb.s:3105   .text:0000000000000ee8 .L0 
     /tmp/cceSRYBb.s:3106   .text:0000000000000ee8 .L0 
     /tmp/cceSRYBb.s:3110   .text:0000000000000ef8 .L0 
     /tmp/cceSRYBb.s:3111   .text:0000000000000ef8 .L0 
     /tmp/cceSRYBb.s:3115   .text:0000000000000f08 .L0 
     /tmp/cceSRYBb.s:3116   .text:0000000000000f08 .L0 
     /tmp/cceSRYBb.s:3124   .text:0000000000000f14 .L0 
     /tmp/cceSRYBb.s:3134   .bss:0000000000000000 _ZN5RiscV16userMainFinishedE
     /tmp/cceSRYBb.s:3139   .bss:0000000000000008 _ZN5RiscV10globalTimeE
     /tmp/cceSRYBb.s:3131   .bss:0000000000000000 .LANCHOR0
     /tmp/cceSRYBb.s:3154   .text:0000000000000f14 .L0 
     /tmp/cceSRYBb.s:24     .text:0000000000000010 .L0 
     /tmp/cceSRYBb.s:41     .text:000000000000001c .L0 
     /tmp/cceSRYBb.s:182    .text:00000000000000bc .L0 
     /tmp/cceSRYBb.s:222    .text:00000000000000f8 .L0 
     /tmp/cceSRYBb.s:227    .text:0000000000000104 .L0 
     /tmp/cceSRYBb.s:290    .text:0000000000000154 .L0 
     /tmp/cceSRYBb.s:327    .text:0000000000000180 .L0 
     /tmp/cceSRYBb.s:354    .text:000000000000019c .L0 
     /tmp/cceSRYBb.s:361    .text:00000000000001b0 .L0 
     /tmp/cceSRYBb.s:385    .text:00000000000001cc .L0 
     /tmp/cceSRYBb.s:454    .text:0000000000000218 .L0 
     /tmp/cceSRYBb.s:457    .text:0000000000000220 .L0 
     /tmp/cceSRYBb.s:461    .text:000000000000022c .L0 
     /tmp/cceSRYBb.s:514    .text:0000000000000248 .L0 
     /tmp/cceSRYBb.s:521    .text:000000000000025c .L0 
     /tmp/cceSRYBb.s:528    .text:000000000000026c .L0 
     /tmp/cceSRYBb.s:535    .text:0000000000000280 .L0 
     /tmp/cceSRYBb.s:537    .text:000000000000028c .L0 
     /tmp/cceSRYBb.s:582    .text:00000000000002c8 .L0 
     /tmp/cceSRYBb.s:679    .text:0000000000000338 .L0 
     /tmp/cceSRYBb.s:1148   .text:0000000000000574 .L0 
     /tmp/cceSRYBb.s:1436   .text:00000000000006cc .L0 
     /tmp/cceSRYBb.s:1574   .text:0000000000000774 .L0 
     /tmp/cceSRYBb.s:1579   .text:0000000000000780 .L0 
     /tmp/cceSRYBb.s:1646   .text:00000000000007e8 .L0 
     /tmp/cceSRYBb.s:1651   .text:00000000000007f4 .L0 
     /tmp/cceSRYBb.s:1938   .text:000000000000098c .L0 
     /tmp/cceSRYBb.s:1968   .text:00000000000009d8 .L0 
     /tmp/cceSRYBb.s:1973   .text:00000000000009e8 .L0 
     /tmp/cceSRYBb.s:1978   .text:00000000000009f8 .L0 
     /tmp/cceSRYBb.s:2171   .text:0000000000000ac8 .L0 
     /tmp/cceSRYBb.s:2239   .text:0000000000000b00 .L0 
     /tmp/cceSRYBb.s:2194   .rodata.str1.8:0000000000000038 .LC3
     /tmp/cceSRYBb.s:2300   .text:0000000000000b60 .L0 
     /tmp/cceSRYBb.s:2197   .rodata.str1.8:0000000000000048 .LC4
     /tmp/cceSRYBb.s:2305   .text:0000000000000b70 .L0 
     /tmp/cceSRYBb.s:2185   .rodata.str1.8:0000000000000000 .LC0
GAS LISTING /tmp/cceSRYBb.s 			page 105


     /tmp/cceSRYBb.s:2336   .text:0000000000000ba0 .L0 
     /tmp/cceSRYBb.s:2188   .rodata.str1.8:0000000000000008 .LC1
     /tmp/cceSRYBb.s:2362   .text:0000000000000bc8 .L0 
     /tmp/cceSRYBb.s:2367   .text:0000000000000bd8 .L0 
     /tmp/cceSRYBb.s:2200   .rodata.str1.8:0000000000000058 .LC5
     /tmp/cceSRYBb.s:2376   .text:0000000000000bec .L0 
     /tmp/cceSRYBb.s:2428   .text:0000000000000c1c .L0 
     /tmp/cceSRYBb.s:2459   .rodata:0000000000000000 .L116
     /tmp/cceSRYBb.s:2451   .text:0000000000000c48 .L0 
     /tmp/cceSRYBb.s:2569   .text:0000000000000c68 .L0 
     /tmp/cceSRYBb.s:2758   .text:0000000000000d60 .L0 
     /tmp/cceSRYBb.s:2825   .text:0000000000000d98 .L0 
     /tmp/cceSRYBb.s:2835   .text:0000000000000db4 .L0 
     /tmp/cceSRYBb.s:2842   .text:0000000000000dc8 .L0 
     /tmp/cceSRYBb.s:2888   .text:0000000000000df0 .L0 
     /tmp/cceSRYBb.s:2943   .text:0000000000000e20 .L0 
     /tmp/cceSRYBb.s:2976   .text:0000000000000e40 .L0 
     /tmp/cceSRYBb.s:3000   .text:0000000000000e5c .L0 
     /tmp/cceSRYBb.s:3055   .text:0000000000000e94 .L0 
     /tmp/cceSRYBb.s:3071   .text:0000000000000eac .L0 
     /tmp/cceSRYBb.s:3080   .text:0000000000000ec0 .L0 
     /tmp/cceSRYBb.s:3106   .text:0000000000000ee8 .L0 
     /tmp/cceSRYBb.s:2191   .rodata.str1.8:0000000000000010 .LC2
     /tmp/cceSRYBb.s:3111   .text:0000000000000ef8 .L0 
     /tmp/cceSRYBb.s:231    .text:0000000000000118 .L8
     /tmp/cceSRYBb.s:283    .text:0000000000000154 .L11
     /tmp/cceSRYBb.s:276    .text:000000000000014c .L12
     /tmp/cceSRYBb.s:415    .text:00000000000001f8 .L19
     /tmp/cceSRYBb.s:404    .text:00000000000001ec .L15
     /tmp/cceSRYBb.s:525    .text:000000000000026c .L21
     /tmp/cceSRYBb.s:506    .text:0000000000000248 .L22
     /tmp/cceSRYBb.s:546    .text:00000000000002a8 .L20
     /tmp/cceSRYBb.s:532    .text:0000000000000280 .L24
     /tmp/cceSRYBb.s:707    .text:0000000000000368 .L34
     /tmp/cceSRYBb.s:684    .text:000000000000034c .L31
     /tmp/cceSRYBb.s:850    .text:0000000000000424 .L39
     /tmp/cceSRYBb.s:808    .text:00000000000003ec .L37
     /tmp/cceSRYBb.s:814    .text:00000000000003f4 .L36
     /tmp/cceSRYBb.s:1015   .text:00000000000004e8 .L46
     /tmp/cceSRYBb.s:977    .text:00000000000004b8 .L44
     /tmp/cceSRYBb.s:1108   .text:0000000000000544 .L54
     /tmp/cceSRYBb.s:1085   .text:0000000000000528 .L51
     /tmp/cceSRYBb.s:1191   .text:00000000000005b4 .L57
     /tmp/cceSRYBb.s:1167   .text:0000000000000598 .L56
     /tmp/cceSRYBb.s:1291   .text:0000000000000630 .L62
     /tmp/cceSRYBb.s:1259   .text:0000000000000608 .L60
     /tmp/cceSRYBb.s:1389   .text:0000000000000694 .L70
     /tmp/cceSRYBb.s:1362   .text:0000000000000674 .L67
     /tmp/cceSRYBb.s:1467   .text:0000000000000700 .L76
     /tmp/cceSRYBb.s:1475   .text:000000000000070c .L74
     /tmp/cceSRYBb.s:1433   .text:00000000000006cc .L72
     /tmp/cceSRYBb.s:1443   .text:00000000000006e4 .L73
     /tmp/cceSRYBb.s:1535   .text:000000000000074c .L81
     /tmp/cceSRYBb.s:1512   .text:0000000000000730 .L78
     /tmp/cceSRYBb.s:1655   .text:0000000000000808 .L85
     /tmp/cceSRYBb.s:1694   .text:0000000000000844 .L89
     /tmp/cceSRYBb.s:1709   .text:0000000000000860 .L90
GAS LISTING /tmp/cceSRYBb.s 			page 106


     /tmp/cceSRYBb.s:1669   .text:0000000000000824 .L87
     /tmp/cceSRYBb.s:1817   .text:00000000000008e0 .L96
     /tmp/cceSRYBb.s:1789   .text:00000000000008bc .L94
     /tmp/cceSRYBb.s:1893   .text:0000000000000948 .L100
     /tmp/cceSRYBb.s:1865   .text:0000000000000924 .L98
     /tmp/cceSRYBb.s:2097   .text:0000000000000a90 .L104
     /tmp/cceSRYBb.s:2067   .text:0000000000000a6c .L102
     /tmp/cceSRYBb.s:2384   .text:0000000000000c08 .L111
     /tmp/cceSRYBb.s:2770   .text:0000000000000d80 .L141
     /tmp/cceSRYBb.s:2902   .text:0000000000000e10 .L142
     /tmp/cceSRYBb.s:3063   .text:0000000000000eac .L143
     /tmp/cceSRYBb.s:2599   .text:0000000000000c84 .L134
     /tmp/cceSRYBb.s:2566   .text:0000000000000c68 .L114
     /tmp/cceSRYBb.s:2881   .text:0000000000000df0 .L144
     /tmp/cceSRYBb.s:2847   .text:0000000000000ddc .L135
     /tmp/cceSRYBb.s:3006   .text:0000000000000e6c .L137
     /tmp/cceSRYBb.s:3047   .text:0000000000000e90 .L145
     /tmp/cceSRYBb.s:780    .text:00000000000003b0 .LEHB0
     /tmp/cceSRYBb.s:730    .text:0000000000000378 .LFB47
     /tmp/cceSRYBb.s:783    .text:00000000000003b8 .LEHE0
     /tmp/cceSRYBb.s:789    .text:00000000000003cc .LEHB1
     /tmp/cceSRYBb.s:792    .text:00000000000003d4 .LEHE1
     /tmp/cceSRYBb.s:856    .text:000000000000042c .L40
     /tmp/cceSRYBb.s:804    .text:00000000000003e4 .LEHB2
     /tmp/cceSRYBb.s:807    .text:00000000000003ec .LEHE2
     /tmp/cceSRYBb.s:863    .text:0000000000000440 .LEHB3
     /tmp/cceSRYBb.s:866    .text:0000000000000448 .LEHE3
     /tmp/cceSRYBb.s:950    .text:0000000000000480 .LEHB4
     /tmp/cceSRYBb.s:898    .text:0000000000000448 .LFB48
     /tmp/cceSRYBb.s:953    .text:0000000000000488 .LEHE4
     /tmp/cceSRYBb.s:959    .text:000000000000049c .LEHB5
     /tmp/cceSRYBb.s:962    .text:00000000000004a4 .LEHE5
     /tmp/cceSRYBb.s:1021   .text:00000000000004f0 .L47
     /tmp/cceSRYBb.s:1028   .text:0000000000000504 .LEHB6
     /tmp/cceSRYBb.s:1031   .text:000000000000050c .LEHE6
     /tmp/cceSRYBb.s:1241   .text:00000000000005e4 .LEHB7
     /tmp/cceSRYBb.s:1205   .text:00000000000005bc .LFB52
     /tmp/cceSRYBb.s:1244   .text:00000000000005ec .LEHE7
     /tmp/cceSRYBb.s:1247   .text:00000000000005f4 .LEHB8
     /tmp/cceSRYBb.s:1250   .text:00000000000005fc .LEHE8
     /tmp/cceSRYBb.s:1297   .text:0000000000000638 .L63
     /tmp/cceSRYBb.s:1304   .text:000000000000064c .LEHB9
     /tmp/cceSRYBb.s:1307   .text:0000000000000654 .LEHE9
     /tmp/cceSRYBb.s:1931   .text:0000000000000980 .LEHB10
     /tmp/cceSRYBb.s:1911   .text:0000000000000964 .LFB66
     /tmp/cceSRYBb.s:1951   .text:00000000000009b8 .LEHE10
     /tmp/cceSRYBb.s:1957   .text:00000000000009cc .LEHB11
     /tmp/cceSRYBb.s:1960   .text:00000000000009d4 .LEHE11
     /tmp/cceSRYBb.s:2105   .text:0000000000000a98 .L105
     /tmp/cceSRYBb.s:2062   .text:0000000000000a64 .LEHB12
     /tmp/cceSRYBb.s:2065   .text:0000000000000a6c .LEHE12
     /tmp/cceSRYBb.s:2114   .text:0000000000000aac .LEHB13
     /tmp/cceSRYBb.s:2117   .text:0000000000000ab4 .LEHE13
     /tmp/cceSRYBb.s:2559   .text:0000000000000c60 .L133
     /tmp/cceSRYBb.s:2618   .text:0000000000000c9c .L132
     /tmp/cceSRYBb.s:2629   .text:0000000000000ca8 .L131
     /tmp/cceSRYBb.s:2637   .text:0000000000000cb4 .L130
GAS LISTING /tmp/cceSRYBb.s 			page 107


     /tmp/cceSRYBb.s:2645   .text:0000000000000cc0 .L129
     /tmp/cceSRYBb.s:2653   .text:0000000000000ccc .L128
     /tmp/cceSRYBb.s:2661   .text:0000000000000cd8 .L127
     /tmp/cceSRYBb.s:2669   .text:0000000000000ce4 .L126
     /tmp/cceSRYBb.s:2677   .text:0000000000000cf0 .L125
     /tmp/cceSRYBb.s:2685   .text:0000000000000cfc .L124
     /tmp/cceSRYBb.s:2693   .text:0000000000000d08 .L123
     /tmp/cceSRYBb.s:2701   .text:0000000000000d14 .L122
     /tmp/cceSRYBb.s:2709   .text:0000000000000d20 .L121
     /tmp/cceSRYBb.s:2717   .text:0000000000000d2c .L120
     /tmp/cceSRYBb.s:2725   .text:0000000000000d38 .L119
     /tmp/cceSRYBb.s:2733   .text:0000000000000d44 .L118
     /tmp/cceSRYBb.s:2741   .text:0000000000000d50 .L117
     /tmp/cceSRYBb.s:2749   .text:0000000000000d5c .L115
     /tmp/cceSRYBb.s:6890   .debug_abbrev:0000000000000000 .Ldebug_abbrev0
     /tmp/cceSRYBb.s:9326   .debug_str:0000000000000ffe .LASF299
     /tmp/cceSRYBb.s:8952   .debug_str:00000000000003b2 .LASF300
     /tmp/cceSRYBb.s:9324   .debug_str:0000000000000fcd .LASF301
     /tmp/cceSRYBb.s:5      .text:0000000000000000 .Ltext0
     /tmp/cceSRYBb.s:3142   .text:0000000000000f14 .Letext0
     /tmp/cceSRYBb.s:8826   .debug_line:0000000000000000 .Ldebug_line0
     /tmp/cceSRYBb.s:8868   .debug_str:000000000000015f .LASF0
     /tmp/cceSRYBb.s:9390   .debug_str:0000000000001323 .LASF1
     /tmp/cceSRYBb.s:9330   .debug_str:00000000000010e8 .LASF2
     /tmp/cceSRYBb.s:9282   .debug_str:0000000000000e79 .LASF4
     /tmp/cceSRYBb.s:9296   .debug_str:0000000000000ef6 .LASF3
     /tmp/cceSRYBb.s:8986   .debug_str:00000000000004e8 .LASF5
     /tmp/cceSRYBb.s:9050   .debug_str:0000000000000715 .LASF6
     /tmp/cceSRYBb.s:9218   .debug_str:0000000000000ca7 .LASF7
     /tmp/cceSRYBb.s:8900   .debug_str:0000000000000247 .LASF8
     /tmp/cceSRYBb.s:9376   .debug_str:0000000000001266 .LASF9
     /tmp/cceSRYBb.s:8990   .debug_str:00000000000004fa .LASF10
     /tmp/cceSRYBb.s:8928   .debug_str:00000000000002ec .LASF11
     /tmp/cceSRYBb.s:9084   .debug_str:000000000000083e .LASF12
     /tmp/cceSRYBb.s:9000   .debug_str:000000000000054f .LASF13
     /tmp/cceSRYBb.s:9262   .debug_str:0000000000000df3 .LASF14
     /tmp/cceSRYBb.s:9004   .debug_str:000000000000056b .LASF15
     /tmp/cceSRYBb.s:8960   .debug_str:000000000000040c .LASF16
     /tmp/cceSRYBb.s:8912   .debug_str:000000000000028f .LASF124
     /tmp/cceSRYBb.s:9056   .debug_str:000000000000075e .LASF20
     /tmp/cceSRYBb.s:9372   .debug_str:0000000000001247 .LASF17
     /tmp/cceSRYBb.s:8860   .debug_str:00000000000000ee .LASF18
     /tmp/cceSRYBb.s:9020   .debug_str:00000000000005f9 .LASF19
     /tmp/cceSRYBb.s:9014   .debug_str:00000000000005bd .LASF21
     /tmp/cceSRYBb.s:8978   .debug_str:00000000000004bf .LASF22
     /tmp/cceSRYBb.s:9228   .debug_str:0000000000000cef .LASF23
     /tmp/cceSRYBb.s:9266   .debug_str:0000000000000e0e .LASF24
     /tmp/cceSRYBb.s:8858   .debug_str:00000000000000e3 .LASF25
     /tmp/cceSRYBb.s:9302   .debug_str:0000000000000f21 .LASF26
     /tmp/cceSRYBb.s:9210   .debug_str:0000000000000c7b .LASF27
     /tmp/cceSRYBb.s:9146   .debug_str:0000000000000a25 .LASF29
     /tmp/cceSRYBb.s:9040   .debug_str:00000000000006b9 .LASF28
     /tmp/cceSRYBb.s:9378   .debug_str:0000000000001274 .LASF30
     /tmp/cceSRYBb.s:8898   .debug_str:000000000000022c .LASF31
     /tmp/cceSRYBb.s:9068   .debug_str:00000000000007a8 .LASF32
     /tmp/cceSRYBb.s:8942   .debug_str:0000000000000355 .LASF33
     /tmp/cceSRYBb.s:9328   .debug_str:00000000000010c2 .LASF34
GAS LISTING /tmp/cceSRYBb.s 			page 108


     /tmp/cceSRYBb.s:9160   .debug_str:0000000000000aa6 .LASF35
     /tmp/cceSRYBb.s:9192   .debug_str:0000000000000bf5 .LASF36
     /tmp/cceSRYBb.s:8862   .debug_str:00000000000000fb .LASF37
     /tmp/cceSRYBb.s:9018   .debug_str:00000000000005cd .LASF38
     /tmp/cceSRYBb.s:9034   .debug_str:0000000000000689 .LASF39
     /tmp/cceSRYBb.s:9344   .debug_str:0000000000001136 .LASF40
     /tmp/cceSRYBb.s:9178   .debug_str:0000000000000b43 .LASF41
     /tmp/cceSRYBb.s:8958   .debug_str:00000000000003e9 .LASF42
     /tmp/cceSRYBb.s:8944   .debug_str:000000000000036e .LASF43
     /tmp/cceSRYBb.s:9352   .debug_str:0000000000001197 .LASF44
     /tmp/cceSRYBb.s:9414   .debug_str:00000000000013c6 .LASF45
     /tmp/cceSRYBb.s:9182   .debug_str:0000000000000b7e .LASF46
     /tmp/cceSRYBb.s:8888   .debug_str:00000000000001e3 .LASF47
     /tmp/cceSRYBb.s:9180   .debug_str:0000000000000b59 .LASF48
     /tmp/cceSRYBb.s:9350   .debug_str:000000000000117f .LASF49
     /tmp/cceSRYBb.s:9024   .debug_str:000000000000062c .LASF50
     /tmp/cceSRYBb.s:8916   .debug_str:000000000000029d .LASF51
     /tmp/cceSRYBb.s:9092   .debug_str:0000000000000882 .LASF52
     /tmp/cceSRYBb.s:9054   .debug_str:000000000000074b .LASF53
     /tmp/cceSRYBb.s:9112   .debug_str:0000000000000937 .LASF54
     /tmp/cceSRYBb.s:8840   .debug_str:0000000000000059 .LASF55
     /tmp/cceSRYBb.s:9382   .debug_str:00000000000012b5 .LASF56
     /tmp/cceSRYBb.s:9412   .debug_str:00000000000013ad .LASF57
     /tmp/cceSRYBb.s:8996   .debug_str:000000000000051f .LASF58
     /tmp/cceSRYBb.s:9010   .debug_str:000000000000059c .LASF59
     /tmp/cceSRYBb.s:9154   .debug_str:0000000000000a62 .LASF60
     /tmp/cceSRYBb.s:8828   .debug_str:0000000000000000 .LASF61
     /tmp/cceSRYBb.s:9288   .debug_str:0000000000000eb0 .LASF62
     /tmp/cceSRYBb.s:9364   .debug_str:0000000000001218 .LASF63
     /tmp/cceSRYBb.s:9272   .debug_str:0000000000000e24 .LASF65
     /tmp/cceSRYBb.s:9416   .debug_str:00000000000013dc .LASF67
     /tmp/cceSRYBb.s:9242   .debug_str:0000000000000d63 .LASF69
     /tmp/cceSRYBb.s:9246   .debug_str:0000000000000d8a .LASF64
     /tmp/cceSRYBb.s:9348   .debug_str:000000000000116a .LASF66
     /tmp/cceSRYBb.s:8940   .debug_str:000000000000034e .LASF68
     /tmp/cceSRYBb.s:9280   .debug_str:0000000000000e66 .LASF70
     /tmp/cceSRYBb.s:8982   .debug_str:00000000000004cd .LASF71
     /tmp/cceSRYBb.s:9118   .debug_str:0000000000000965 .LASF72
     /tmp/cceSRYBb.s:9392   .debug_str:0000000000001336 .LASF73
     /tmp/cceSRYBb.s:8984   .debug_str:00000000000004d4 .LASF74
     /tmp/cceSRYBb.s:9252   .debug_str:0000000000000db1 .LASF75
     /tmp/cceSRYBb.s:9258   .debug_str:0000000000000dd0 .LASF76
     /tmp/cceSRYBb.s:8998   .debug_str:0000000000000545 .LASF77
     /tmp/cceSRYBb.s:9140   .debug_str:0000000000000a00 .LASF78
     /tmp/cceSRYBb.s:8974   .debug_str:00000000000004ae .LASF79
     /tmp/cceSRYBb.s:9194   .debug_str:0000000000000c1f .LASF80
     /tmp/cceSRYBb.s:9230   .debug_str:0000000000000cf8 .LASF81
     /tmp/cceSRYBb.s:9430   .debug_str:0000000000001445 .LASF82
     /tmp/cceSRYBb.s:8892   .debug_str:0000000000000204 .LASF83
     /tmp/cceSRYBb.s:9286   .debug_str:0000000000000e98 .LASF84
     /tmp/cceSRYBb.s:9342   .debug_str:000000000000112f .LASF85
     /tmp/cceSRYBb.s:8956   .debug_str:00000000000003d6 .LASF86
     /tmp/cceSRYBb.s:8976   .debug_str:00000000000004b8 .LASF87
     /tmp/cceSRYBb.s:9006   .debug_str:0000000000000581 .LASF88
     /tmp/cceSRYBb.s:9332   .debug_str:00000000000010f6 .LASF89
     /tmp/cceSRYBb.s:8896   .debug_str:0000000000000219 .LASF90
     /tmp/cceSRYBb.s:9046   .debug_str:00000000000006f2 .LASF91
GAS LISTING /tmp/cceSRYBb.s 			page 109


     /tmp/cceSRYBb.s:9426   .debug_str:0000000000001419 .LASF92
     /tmp/cceSRYBb.s:9106   .debug_str:0000000000000917 .LASF93
     /tmp/cceSRYBb.s:9042   .debug_str:00000000000006cf .LASF94
     /tmp/cceSRYBb.s:9380   .debug_str:0000000000001297 .LASF95
     /tmp/cceSRYBb.s:8968   .debug_str:000000000000045d .LASF96
     /tmp/cceSRYBb.s:9220   .debug_str:0000000000000cba .LASF97
     /tmp/cceSRYBb.s:9202   .debug_str:0000000000000c47 .LASF98
     /tmp/cceSRYBb.s:9196   .debug_str:0000000000000c35 .LASF99
     /tmp/cceSRYBb.s:9126   .debug_str:0000000000000994 .LASF100
     /tmp/cceSRYBb.s:9236   .debug_str:0000000000000d29 .LASF101
     /tmp/cceSRYBb.s:9048   .debug_str:00000000000006f9 .LASF102
     /tmp/cceSRYBb.s:8874   .debug_str:0000000000000178 .LASF103
     /tmp/cceSRYBb.s:9098   .debug_str:00000000000008ae .LASF104
     /tmp/cceSRYBb.s:9442   .debug_str:00000000000014b6 .LASF105
     /tmp/cceSRYBb.s:9356   .debug_str:00000000000011c4 .LASF106
     /tmp/cceSRYBb.s:9432   .debug_str:000000000000145d .LASF107
     /tmp/cceSRYBb.s:9314   .debug_str:0000000000000f7c .LASF108
     /tmp/cceSRYBb.s:9428   .debug_str:000000000000142c .LASF109
     /tmp/cceSRYBb.s:9190   .debug_str:0000000000000bcf .LASF110
     /tmp/cceSRYBb.s:8838   .debug_str:000000000000003f .LASF111
     /tmp/cceSRYBb.s:9022   .debug_str:0000000000000605 .LASF112
     /tmp/cceSRYBb.s:8954   .debug_str:00000000000003c0 .LASF113
     /tmp/cceSRYBb.s:9384   .debug_str:00000000000012d9 .LASF114
     /tmp/cceSRYBb.s:8886   .debug_str:00000000000001cc .LASF115
     /tmp/cceSRYBb.s:9396   .debug_str:0000000000001345 .LASF116
     /tmp/cceSRYBb.s:8988   .debug_str:00000000000004ef .LASF117
     /tmp/cceSRYBb.s:9284   .debug_str:0000000000000e80 .LASF118
     /tmp/cceSRYBb.s:9354   .debug_str:00000000000011bb .LASF119
     /tmp/cceSRYBb.s:9222   .debug_str:0000000000000cc5 .LASF120
     /tmp/cceSRYBb.s:9114   .debug_str:0000000000000957 .LASF121
     /tmp/cceSRYBb.s:9044   .debug_str:00000000000006ed .LASF122
     /tmp/cceSRYBb.s:9310   .debug_str:0000000000000f69 .LASF123
     /tmp/cceSRYBb.s:9080   .debug_str:0000000000000813 .LASF125
     /tmp/cceSRYBb.s:8964   .debug_str:0000000000000432 .LASF211
     /tmp/cceSRYBb.s:9128   .debug_str:00000000000009a6 .LASF126
     /tmp/cceSRYBb.s:8908   .debug_str:000000000000027e .LASF127
     /tmp/cceSRYBb.s:8870   .debug_str:000000000000016c .LASF128
     /tmp/cceSRYBb.s:9408   .debug_str:0000000000001399 .LASF129
     /tmp/cceSRYBb.s:9340   .debug_str:0000000000001123 .LASF130
     /tmp/cceSRYBb.s:8856   .debug_str:00000000000000d6 .LASF131
     /tmp/cceSRYBb.s:9398   .debug_str:0000000000001369 .LASF132
     /tmp/cceSRYBb.s:9002   .debug_str:000000000000055f .LASF133
     /tmp/cceSRYBb.s:9336   .debug_str:000000000000110a .LASF134
     /tmp/cceSRYBb.s:9360   .debug_str:00000000000011f3 .LASF136
     /tmp/cceSRYBb.s:9070   .debug_str:00000000000007d0 .LASF135
     /tmp/cceSRYBb.s:9234   .debug_str:0000000000000d0b .LASF137
     /tmp/cceSRYBb.s:9436   .debug_str:000000000000147b .LASF138
     /tmp/cceSRYBb.s:8866   .debug_str:0000000000000124 .LASF139
     /tmp/cceSRYBb.s:9090   .debug_str:000000000000085f .LASF140
     /tmp/cceSRYBb.s:9406   .debug_str:000000000000138e .LASF141
     /tmp/cceSRYBb.s:8930   .debug_str:00000000000002fb .LASF142
     /tmp/cceSRYBb.s:9394   .debug_str:000000000000133e .LASF143
     /tmp/cceSRYBb.s:9052   .debug_str:0000000000000728 .LASF144
     /tmp/cceSRYBb.s:9434   .debug_str:000000000000146f .LASF145
     /tmp/cceSRYBb.s:8948   .debug_str:000000000000039a .LASF146
     /tmp/cceSRYBb.s:9294   .debug_str:0000000000000eea .LASF147
     /tmp/cceSRYBb.s:9176   .debug_str:0000000000000b39 .LASF148
GAS LISTING /tmp/cceSRYBb.s 			page 110


     /tmp/cceSRYBb.s:9116   .debug_str:000000000000095c .LASF149
     /tmp/cceSRYBb.s:8836   .debug_str:0000000000000034 .LASF302
     /tmp/cceSRYBb.s:8950   .debug_str:00000000000003a6 .LASF150
     /tmp/cceSRYBb.s:9334   .debug_str:00000000000010fd .LASF151
     /tmp/cceSRYBb.s:8850   .debug_str:00000000000000ba .LASF152
     /tmp/cceSRYBb.s:9292   .debug_str:0000000000000ee0 .LASF153
     /tmp/cceSRYBb.s:8924   .debug_str:00000000000002d5 .LASF154
     /tmp/cceSRYBb.s:8852   .debug_str:00000000000000c4 .LASF155
     /tmp/cceSRYBb.s:9368   .debug_str:0000000000001230 .LASF156
     /tmp/cceSRYBb.s:9276   .debug_str:0000000000000e44 .LASF157
     /tmp/cceSRYBb.s:9226   .debug_str:0000000000000ce6 .LASF158
     /tmp/cceSRYBb.s:8842   .debug_str:0000000000000070 .LASF159
     /tmp/cceSRYBb.s:9132   .debug_str:00000000000009b4 .LASF160
     /tmp/cceSRYBb.s:8902   .debug_str:0000000000000257 .LASF161
     /tmp/cceSRYBb.s:8876   .debug_str:000000000000018d .LASF162
     /tmp/cceSRYBb.s:9438   .debug_str:000000000000148a .LASF163
     /tmp/cceSRYBb.s:9134   .debug_str:00000000000009be .LASF164
     /tmp/cceSRYBb.s:9290   .debug_str:0000000000000ed0 .LASF165
     /tmp/cceSRYBb.s:9102   .debug_str:00000000000008d9 .LASF166
     /tmp/cceSRYBb.s:8890   .debug_str:00000000000001fb .LASF167
     /tmp/cceSRYBb.s:9240   .debug_str:0000000000000d45 .LASF168
     /tmp/cceSRYBb.s:9224   .debug_str:0000000000000cda .LASF169
     /tmp/cceSRYBb.s:9186   .debug_str:0000000000000ba8 .LASF170
     /tmp/cceSRYBb.s:9200   .debug_str:0000000000000c41 .LASF171
     /tmp/cceSRYBb.s:9078   .debug_str:00000000000007f4 .LASF172
     /tmp/cceSRYBb.s:9130   .debug_str:00000000000009ab .LASF173
     /tmp/cceSRYBb.s:8992   .debug_str:0000000000000509 .LASF174
     /tmp/cceSRYBb.s:8926   .debug_str:00000000000002e0 .LASF175
     /tmp/cceSRYBb.s:9060   .debug_str:000000000000077d .LASF221
     /tmp/cceSRYBb.s:9124   .debug_str:000000000000098f .LASF176
     /tmp/cceSRYBb.s:8834   .debug_str:0000000000000028 .LASF177
     /tmp/cceSRYBb.s:9152   .debug_str:0000000000000a5d .LASF178
     /tmp/cceSRYBb.s:9440   .debug_str:00000000000014a7 .LASF179
     /tmp/cceSRYBb.s:8854   .debug_str:00000000000000cf .LASF180
     /tmp/cceSRYBb.s:9358   .debug_str:00000000000011e2 .LASF181
     /tmp/cceSRYBb.s:9248   .debug_str:0000000000000d93 .LASF182
     /tmp/cceSRYBb.s:9120   .debug_str:0000000000000978 .LASF183
     /tmp/cceSRYBb.s:8914   .debug_str:0000000000000295 .LASF184
     /tmp/cceSRYBb.s:9026   .debug_str:0000000000000651 .LASF185
     /tmp/cceSRYBb.s:9264   .debug_str:0000000000000dff .LASF186
     /tmp/cceSRYBb.s:9082   .debug_str:0000000000000823 .LASF187
     /tmp/cceSRYBb.s:9162   .debug_str:0000000000000ac3 .LASF188
     /tmp/cceSRYBb.s:9174   .debug_str:0000000000000b2c .LASF189
     /tmp/cceSRYBb.s:9318   .debug_str:0000000000000fa0 .LASF190
     /tmp/cceSRYBb.s:9170   .debug_str:0000000000000b17 .LASF230
     /tmp/cceSRYBb.s:9238   .debug_str:0000000000000d38 .LASF303
     /tmp/cceSRYBb.s:9066   .debug_str:000000000000079b .LASF191
     /tmp/cceSRYBb.s:9274   .debug_str:0000000000000e3e .LASF192
     /tmp/cceSRYBb.s:9268   .debug_str:0000000000000e17 .LASF193
     /tmp/cceSRYBb.s:9166   .debug_str:0000000000000b01 .LASF194
     /tmp/cceSRYBb.s:8832   .debug_str:000000000000001f .LASF195
     /tmp/cceSRYBb.s:8882   .debug_str:00000000000001ba .LASF196
     /tmp/cceSRYBb.s:8936   .debug_str:000000000000033f .LASF197
     /tmp/cceSRYBb.s:9298   .debug_str:0000000000000f08 .LASF198
     /tmp/cceSRYBb.s:9366   .debug_str:0000000000001224 .LASF199
     /tmp/cceSRYBb.s:9256   .debug_str:0000000000000dc7 .LASF200
     /tmp/cceSRYBb.s:9096   .debug_str:00000000000008a9 .LASF201
GAS LISTING /tmp/cceSRYBb.s 			page 111


     /tmp/cceSRYBb.s:9122   .debug_str:0000000000000988 .LASF202
     /tmp/cceSRYBb.s:9244   .debug_str:0000000000000d78 .LASF204
     /tmp/cceSRYBb.s:9232   .debug_str:0000000000000d03 .LASF203
     /tmp/cceSRYBb.s:9374   .debug_str:0000000000001253 .LASF205
     /tmp/cceSRYBb.s:9260   .debug_str:0000000000000de4 .LASF206
     /tmp/cceSRYBb.s:9058   .debug_str:000000000000076d .LASF207
     /tmp/cceSRYBb.s:9212   .debug_str:0000000000000c92 .LASF208
     /tmp/cceSRYBb.s:9204   .debug_str:0000000000000c5f .LASF209
     /tmp/cceSRYBb.s:9206   .debug_str:0000000000000c6c .LASF210
     /tmp/cceSRYBb.s:9208   .debug_str:0000000000000c73 .LASF212
     /tmp/cceSRYBb.s:8872   .debug_str:0000000000000171 .LASF213
     /tmp/cceSRYBb.s:9008   .debug_str:0000000000000594 .LASF214
     /tmp/cceSRYBb.s:9110   .debug_str:0000000000000931 .LASF215
     /tmp/cceSRYBb.s:9100   .debug_str:00000000000008d0 .LASF216
     /tmp/cceSRYBb.s:9270   .debug_str:0000000000000e1c .LASF217
     /tmp/cceSRYBb.s:9214   .debug_str:0000000000000c9c .LASF218
     /tmp/cceSRYBb.s:8904   .debug_str:0000000000000274 .LASF219
     /tmp/cceSRYBb.s:9312   .debug_str:0000000000000f71 .LASF220
     /tmp/cceSRYBb.s:8830   .debug_str:0000000000000013 .LASF222
     /tmp/cceSRYBb.s:8934   .debug_str:0000000000000328 .LASF223
     /tmp/cceSRYBb.s:9012   .debug_str:00000000000005b8 .LASF224
     /tmp/cceSRYBb.s:9400   .debug_str:0000000000001376 .LASF225
     /tmp/cceSRYBb.s:9150   .debug_str:0000000000000a51 .LASF226
     /tmp/cceSRYBb.s:9086   .debug_str:000000000000084e .LASF227
     /tmp/cceSRYBb.s:8878   .debug_str:0000000000000197 .LASF228
     /tmp/cceSRYBb.s:9028   .debug_str:0000000000000663 .LASF229
     /tmp/cceSRYBb.s:8884   .debug_str:00000000000001bf .LASF231
     /tmp/cceSRYBb.s:9016   .debug_str:00000000000005c8 .LASF232
     /tmp/cceSRYBb.s:9300   .debug_str:0000000000000f12 .LASF233
     /tmp/cceSRYBb.s:9088   .debug_str:0000000000000856 .LASF234
     /tmp/cceSRYBb.s:9156   .debug_str:0000000000000a8b .LASF235
     /tmp/cceSRYBb.s:9424   .debug_str:0000000000001403 .LASF236
     /tmp/cceSRYBb.s:8880   .debug_str:00000000000001aa .LASF237
     /tmp/cceSRYBb.s:8994   .debug_str:0000000000000515 .LASF238
     /tmp/cceSRYBb.s:8894   .debug_str:000000000000020f .LASF239
     /tmp/cceSRYBb.s:9370   .debug_str:0000000000001239 .LASF240
     /tmp/cceSRYBb.s:9164   .debug_str:0000000000000ad9 .LASF241
     /tmp/cceSRYBb.s:8846   .debug_str:00000000000000a4 .LASF242
     /tmp/cceSRYBb.s:9250   .debug_str:0000000000000d99 .LASF243
     /tmp/cceSRYBb.s:9158   .debug_str:0000000000000a9e .LASF244
     /tmp/cceSRYBb.s:9076   .debug_str:00000000000007ed .LASF245
     /tmp/cceSRYBb.s:8906   .debug_str:0000000000000279 .LASF246
     /tmp/cceSRYBb.s:9316   .debug_str:0000000000000f9b .LASF247
     /tmp/cceSRYBb.s:9172   .debug_str:0000000000000b27 .LASF248
     /tmp/cceSRYBb.s:9278   .debug_str:0000000000000e60 .LASF249
     /tmp/cceSRYBb.s:8848   .debug_str:00000000000000b0 .LASF250
     /tmp/cceSRYBb.s:8980   .debug_str:00000000000004c8 .LASF251
     /tmp/cceSRYBb.s:9148   .debug_str:0000000000000a49 .LASF252
     /tmp/cceSRYBb.s:8864   .debug_str:000000000000011a .LASF253
     /tmp/cceSRYBb.s:9108   .debug_str:0000000000000928 .LASF254
     /tmp/cceSRYBb.s:9322   .debug_str:0000000000000fc4 .LASF255
     /tmp/cceSRYBb.s:9168   .debug_str:0000000000000b0c .LASF256
     /tmp/cceSRYBb.s:9410   .debug_str:00000000000013a5 .LASF257
     /tmp/cceSRYBb.s:9420   .debug_str:00000000000013f1 .LASF258
     /tmp/cceSRYBb.s:9338   .debug_str:0000000000001112 .LASF259
     /tmp/cceSRYBb.s:9404   .debug_str:0000000000001385 .LASF260
     /tmp/cceSRYBb.s:8932   .debug_str:000000000000031e .LASF261
GAS LISTING /tmp/cceSRYBb.s 			page 112


     /tmp/cceSRYBb.s:9402   .debug_str:000000000000137b .LASF262
     /tmp/cceSRYBb.s:9308   .debug_str:0000000000000f5f .LASF263
     /tmp/cceSRYBb.s:9064   .debug_str:000000000000078e .LASF264
     /tmp/cceSRYBb.s:9320   .debug_str:0000000000000fac .LASF304
     /tmp/cceSRYBb.s:9030   .debug_str:000000000000066f .LASF305
     /tmp/cceSRYBb.s:9362   .debug_str:0000000000001212 .LASF265
     /tmp/cceSRYBb.s:9104   .debug_str:00000000000008fd .LASF266
     /tmp/cceSRYBb.s:9032   .debug_str:0000000000000683 .LASF267
     /tmp/cceSRYBb.s:9304   .debug_str:0000000000000f32 .LASF268
     /tmp/cceSRYBb.s:9388   .debug_str:0000000000001307 .LASF269
     /tmp/cceSRYBb.s:9254   .debug_str:0000000000000db9 .LASF270
     /tmp/cceSRYBb.s:8966   .debug_str:000000000000043e .LASF271
     /tmp/cceSRYBb.s:9346   .debug_str:000000000000115d .LASF272
     /tmp/cceSRYBb.s:8972   .debug_str:0000000000000490 .LASF273
     /tmp/cceSRYBb.s:9306   .debug_str:0000000000000f48 .LASF274
     /tmp/cceSRYBb.s:9138   .debug_str:00000000000009e3 .LASF275
     /tmp/cceSRYBb.s:2148   .text:0000000000000ab4 .LFB67
     /tmp/cceSRYBb.s:2181   .text:0000000000000ae0 .LFE67
     /tmp/cceSRYBb.s:8131   .debug_loc:0000000000000000 .LLST51
     /tmp/cceSRYBb.s:2119   .text:0000000000000ab4 .LFE66
     /tmp/cceSRYBb.s:8144   .debug_loc:0000000000000038 .LLST47
     /tmp/cceSRYBb.s:9094   .debug_str:00000000000008a2 .LASF276
     /tmp/cceSRYBb.s:8163   .debug_loc:0000000000000094 .LLST48
     /tmp/cceSRYBb.s:8174   .debug_loc:00000000000000ca .LLST49
     /tmp/cceSRYBb.s:1965   .text:00000000000009d8 .LBB125
     /tmp/cceSRYBb.s:2068   .text:0000000000000a6c .LBE125
     /tmp/cceSRYBb.s:8920   .debug_str:00000000000002bf .LASF277
     /tmp/cceSRYBb.s:8191   .debug_loc:0000000000000115 .LLST50
     /tmp/cceSRYBb.s:2064   .text:0000000000000a6c .LVL147
     /tmp/cceSRYBb.s:1933   .text:0000000000000988 .LVL140
     /tmp/cceSRYBb.s:1945   .text:00000000000009ac .LVL143
     /tmp/cceSRYBb.s:1950   .text:00000000000009b8 .LVL144
     /tmp/cceSRYBb.s:1959   .text:00000000000009d4 .LVL145
     /tmp/cceSRYBb.s:2080   .text:0000000000000a78 .LVL148
     /tmp/cceSRYBb.s:2112   .text:0000000000000aa8 .LVL154
     /tmp/cceSRYBb.s:2116   .text:0000000000000ab4 .LVL155
     /tmp/cceSRYBb.s:1840   .text:0000000000000908 .LFB65
     /tmp/cceSRYBb.s:1905   .text:0000000000000964 .LFE65
     /tmp/cceSRYBb.s:9198   .debug_str:0000000000000c3b .LASF278
     /tmp/cceSRYBb.s:8198   .debug_loc:0000000000000138 .LLST44
     /tmp/cceSRYBb.s:8209   .debug_loc:000000000000016e .LLST45
     /tmp/cceSRYBb.s:1878   .text:0000000000000934 .LVL135
     /tmp/cceSRYBb.s:1899   .text:0000000000000954 .LVL138
     /tmp/cceSRYBb.s:1902   .text:0000000000000960 .LVL139
     /tmp/cceSRYBb.s:1764   .text:00000000000008a0 .LFB64
     /tmp/cceSRYBb.s:1834   .text:0000000000000908 .LFE64
     /tmp/cceSRYBb.s:8218   .debug_loc:0000000000000193 .LLST41
     /tmp/cceSRYBb.s:8229   .debug_loc:00000000000001c9 .LLST42
     /tmp/cceSRYBb.s:1802   .text:00000000000008cc .LVL127
     /tmp/cceSRYBb.s:1823   .text:00000000000008ec .LVL130
     /tmp/cceSRYBb.s:1828   .text:00000000000008f8 .LVL131
     /tmp/cceSRYBb.s:1831   .text:0000000000000904 .LVL132
     /tmp/cceSRYBb.s:563    .text:00000000000002b8 .LFB63
     /tmp/cceSRYBb.s:609    .text:00000000000002f0 .LFE63
     /tmp/cceSRYBb.s:440    .text:0000000000000204 .LFB62
     /tmp/cceSRYBb.s:557    .text:00000000000002b8 .LFE62
     /tmp/cceSRYBb.s:464    .text:0000000000000238 .LBB109
GAS LISTING /tmp/cceSRYBb.s 			page 113


     /tmp/cceSRYBb.s:8790   .debug_ranges:0000000000000000 .Ldebug_ranges0
     /tmp/cceSRYBb.s:473    .text:0000000000000238 .LBB111
     /tmp/cceSRYBb.s:487    .text:0000000000000240 .LBE111
     /tmp/cceSRYBb.s:474    .text:0000000000000238 .LBB112
     /tmp/cceSRYBb.s:486    .text:0000000000000240 .LBE112
     /tmp/cceSRYBb.s:8238   .debug_loc:00000000000001ee .LLST9
     /tmp/cceSRYBb.s:494    .text:0000000000000240 .LBB114
     /tmp/cceSRYBb.s:509    .text:0000000000000248 .LBE114
     /tmp/cceSRYBb.s:495    .text:0000000000000240 .LBB115
     /tmp/cceSRYBb.s:508    .text:0000000000000248 .LBE115
     /tmp/cceSRYBb.s:8246   .debug_loc:0000000000000212 .LLST10
     /tmp/cceSRYBb.s:531    .text:0000000000000280 .LVL30
     /tmp/cceSRYBb.s:543    .text:00000000000002a4 .LVL31
     /tmp/cceSRYBb.s:374    .text:00000000000001c0 .LFB61
     /tmp/cceSRYBb.s:434    .text:0000000000000204 .LFE61
     /tmp/cceSRYBb.s:393    .text:00000000000001e4 .LBB105
     /tmp/cceSRYBb.s:406    .text:00000000000001ec .LBE105
     /tmp/cceSRYBb.s:8255   .debug_loc:0000000000000238 .LLST8
     /tmp/cceSRYBb.s:419    .text:00000000000001f8 .LBB107
     /tmp/cceSRYBb.s:432    .text:0000000000000204 .LBE107
     /tmp/cceSRYBb.s:1722   .text:000000000000086c .LFB60
     /tmp/cceSRYBb.s:1758   .text:00000000000008a0 .LFE60
     /tmp/cceSRYBb.s:8264   .debug_loc:000000000000025e .LLST40
     /tmp/cceSRYBb.s:1736   .text:0000000000000884 .LVL123
     /tmp/cceSRYBb.s:1747   .text:0000000000000890 .LVL124
     /tmp/cceSRYBb.s:262    .text:0000000000000138 .LFB59
     /tmp/cceSRYBb.s:368    .text:00000000000001c0 .LFE59
     /tmp/cceSRYBb.s:8271   .debug_loc:0000000000000281 .LLST5
     /tmp/cceSRYBb.s:8285   .debug_loc:00000000000002ba .LLST6
     /tmp/cceSRYBb.s:318    .text:0000000000000174 .LBB102
     /tmp/cceSRYBb.s:364    .text:00000000000001c0 .LBE102
     /tmp/cceSRYBb.s:9062   .debug_str:0000000000000789 .LASF279
     /tmp/cceSRYBb.s:8292   .debug_loc:00000000000002dd .LLST7
     /tmp/cceSRYBb.s:322    .text:000000000000017c .LVL21
     /tmp/cceSRYBb.s:282    .text:0000000000000154 .LVL17
     /tmp/cceSRYBb.s:209    .text:00000000000000e8 .LFB58
     /tmp/cceSRYBb.s:256    .text:0000000000000138 .LFE58
     /tmp/cceSRYBb.s:8299   .debug_loc:0000000000000300 .LLST4
     /tmp/cceSRYBb.s:245    .text:0000000000000128 .LVL14
     /tmp/cceSRYBb.s:1631   .text:00000000000007d4 .LFB57
     /tmp/cceSRYBb.s:1716   .text:000000000000086c .LFE57
     /tmp/cceSRYBb.s:8306   .debug_loc:0000000000000323 .LLST39
     /tmp/cceSRYBb.s:1659   .text:0000000000000810 .LVL113
     /tmp/cceSRYBb.s:1680   .text:0000000000000830 .LVL116
     /tmp/cceSRYBb.s:1701   .text:0000000000000850 .LVL119
     /tmp/cceSRYBb.s:1706   .text:000000000000085c .LVL120
     /tmp/cceSRYBb.s:1713   .text:0000000000000868 .LVL122
     /tmp/cceSRYBb.s:1551   .text:000000000000075c .LFB56
     /tmp/cceSRYBb.s:1625   .text:00000000000007d4 .LFE56
     /tmp/cceSRYBb.s:8922   .debug_str:00000000000002cf .LASF280
     /tmp/cceSRYBb.s:8321   .debug_loc:000000000000036c .LLST38
     /tmp/cceSRYBb.s:1590   .text:00000000000007a0 .LVL109
     /tmp/cceSRYBb.s:1598   .text:00000000000007b0 .LVL110
     /tmp/cceSRYBb.s:1611   .text:00000000000007c0 .LVL111
     /tmp/cceSRYBb.s:1486   .text:0000000000000714 .LFB55
     /tmp/cceSRYBb.s:1545   .text:000000000000075c .LFE55
     /tmp/cceSRYBb.s:8970   .debug_str:0000000000000488 .LASF281
GAS LISTING /tmp/cceSRYBb.s 			page 114


     /tmp/cceSRYBb.s:8328   .debug_loc:000000000000038f .LLST36
     /tmp/cceSRYBb.s:8339   .debug_loc:00000000000003c5 .LLST37
     /tmp/cceSRYBb.s:1523   .text:000000000000073c .LVL105
     /tmp/cceSRYBb.s:1540   .text:0000000000000754 .LVL107
     /tmp/cceSRYBb.s:1409   .text:00000000000006b4 .LFB54
     /tmp/cceSRYBb.s:1480   .text:0000000000000714 .LFE54
     /tmp/cceSRYBb.s:8356   .debug_loc:0000000000000410 .LLST34
     /tmp/cceSRYBb.s:8367   .debug_loc:0000000000000446 .LLST35
     /tmp/cceSRYBb.s:1455   .text:00000000000006f0 .LVL99
     /tmp/cceSRYBb.s:1472   .text:0000000000000708 .LVL101
     /tmp/cceSRYBb.s:1334   .text:0000000000000654 .LFB53
     /tmp/cceSRYBb.s:1403   .text:00000000000006b4 .LFE53
     /tmp/cceSRYBb.s:8384   .debug_loc:0000000000000491 .LLST31
     /tmp/cceSRYBb.s:8395   .debug_loc:00000000000004c7 .LLST33
     /tmp/cceSRYBb.s:1374   .text:0000000000000680 .LVL91
     /tmp/cceSRYBb.s:1395   .text:00000000000006a0 .LVL94
     /tmp/cceSRYBb.s:1398   .text:00000000000006ac .LVL95
     /tmp/cceSRYBb.s:1309   .text:0000000000000654 .LFE52
     /tmp/cceSRYBb.s:8412   .debug_loc:0000000000000512 .LLST28
     /tmp/cceSRYBb.s:9136   .debug_str:00000000000009dd .LASF282
     /tmp/cceSRYBb.s:8423   .debug_loc:0000000000000548 .LLST29
     /tmp/cceSRYBb.s:8434   .debug_loc:000000000000057e .LLST30
     /tmp/cceSRYBb.s:1243   .text:00000000000005ec .LVL79
     /tmp/cceSRYBb.s:1249   .text:00000000000005fc .LVL80
     /tmp/cceSRYBb.s:1271   .text:0000000000000614 .LVL82
     /tmp/cceSRYBb.s:1302   .text:0000000000000648 .LVL87
     /tmp/cceSRYBb.s:1306   .text:0000000000000654 .LVL88
     /tmp/cceSRYBb.s:169    .text:00000000000000ac .LFB51
     /tmp/cceSRYBb.s:203    .text:00000000000000e8 .LFE51
     /tmp/cceSRYBb.s:8451   .debug_loc:00000000000005c9 .LLST3
     /tmp/cceSRYBb.s:192    .text:00000000000000d8 .LVL12
     /tmp/cceSRYBb.s:1132   .text:0000000000000564 .LFB50
     /tmp/cceSRYBb.s:1199   .text:00000000000005bc .LFE50
     /tmp/cceSRYBb.s:8458   .debug_loc:00000000000005ec .LLST26
     /tmp/cceSRYBb.s:1152   .text:0000000000000584 .LBB122
     /tmp/cceSRYBb.s:1163   .text:0000000000000594 .LBE122
     /tmp/cceSRYBb.s:8475   .debug_loc:0000000000000637 .LLST27
     /tmp/cceSRYBb.s:1162   .text:0000000000000594 .LVL74
     /tmp/cceSRYBb.s:1179   .text:00000000000005a4 .LVL76
     /tmp/cceSRYBb.s:1058   .text:000000000000050c .LFB49
     /tmp/cceSRYBb.s:1126   .text:0000000000000564 .LFE49
     /tmp/cceSRYBb.s:8482   .debug_loc:000000000000065a .LLST23
     /tmp/cceSRYBb.s:8493   .debug_loc:0000000000000690 .LLST25
     /tmp/cceSRYBb.s:1096   .text:0000000000000534 .LVL68
     /tmp/cceSRYBb.s:1117   .text:0000000000000554 .LVL70
     /tmp/cceSRYBb.s:1121   .text:000000000000055c .LVL71
     /tmp/cceSRYBb.s:1033   .text:000000000000050c .LFE48
     /tmp/cceSRYBb.s:9072   .debug_str:00000000000007d6 .LASF283
     /tmp/cceSRYBb.s:8510   .debug_loc:00000000000006db .LLST18
     /tmp/cceSRYBb.s:9038   .debug_str:00000000000006b3 .LASF284
     /tmp/cceSRYBb.s:8521   .debug_loc:0000000000000711 .LLST19
     /tmp/cceSRYBb.s:8532   .debug_loc:0000000000000747 .LLST20
     /tmp/cceSRYBb.s:9422   .debug_str:00000000000013fc .LASF285
     /tmp/cceSRYBb.s:8543   .debug_loc:000000000000077d .LLST21
     /tmp/cceSRYBb.s:8554   .debug_loc:00000000000007b3 .LLST22
     /tmp/cceSRYBb.s:952    .text:0000000000000488 .LVL54
     /tmp/cceSRYBb.s:961    .text:00000000000004a4 .LVL55
GAS LISTING /tmp/cceSRYBb.s 			page 115


     /tmp/cceSRYBb.s:989    .text:00000000000004c4 .LVL57
     /tmp/cceSRYBb.s:1026   .text:0000000000000500 .LVL64
     /tmp/cceSRYBb.s:1030   .text:000000000000050c .LVL65
     /tmp/cceSRYBb.s:868    .text:0000000000000448 .LFE47
     /tmp/cceSRYBb.s:8571   .debug_loc:00000000000007fe .LLST15
     /tmp/cceSRYBb.s:8582   .debug_loc:0000000000000834 .LLST16
     /tmp/cceSRYBb.s:8593   .debug_loc:000000000000086a .LLST17
     /tmp/cceSRYBb.s:782    .text:00000000000003b8 .LVL40
     /tmp/cceSRYBb.s:791    .text:00000000000003d4 .LVL41
     /tmp/cceSRYBb.s:806    .text:00000000000003ec .LVL42
     /tmp/cceSRYBb.s:826    .text:0000000000000400 .LVL44
     /tmp/cceSRYBb.s:861    .text:000000000000043c .LVL49
     /tmp/cceSRYBb.s:865    .text:0000000000000448 .LVL50
     /tmp/cceSRYBb.s:666    .text:0000000000000328 .LFB46
     /tmp/cceSRYBb.s:724    .text:0000000000000378 .LFE46
     /tmp/cceSRYBb.s:8610   .debug_loc:00000000000008b5 .LLST13
     /tmp/cceSRYBb.s:8617   .debug_loc:00000000000008d8 .LLST14
     /tmp/cceSRYBb.s:696    .text:0000000000000358 .LVL36
     /tmp/cceSRYBb.s:720    .text:0000000000000374 .LVL38
     /tmp/cceSRYBb.s:615    .text:00000000000002f0 .LFB45
     /tmp/cceSRYBb.s:660    .text:0000000000000328 .LFE45
     /tmp/cceSRYBb.s:8628   .debug_loc:000000000000090e .LLST11
     /tmp/cceSRYBb.s:9188   .debug_str:0000000000000bca .LASF286
     /tmp/cceSRYBb.s:8635   .debug_loc:0000000000000931 .LLST12
     /tmp/cceSRYBb.s:638    .text:000000000000030c .LVL33
     /tmp/cceSRYBb.s:649    .text:0000000000000318 .LVL34
     /tmp/cceSRYBb.s:2207   .text:0000000000000ae0 .LFB44
     /tmp/cceSRYBb.s:3125   .text:0000000000000f14 .LFE44
     /tmp/cceSRYBb.s:9184   .debug_str:0000000000000ba1 .LASF287
     /tmp/cceSRYBb.s:8938   .debug_str:0000000000000344 .LASF288
     /tmp/cceSRYBb.s:8642   .debug_loc:0000000000000954 .LLST64
     /tmp/cceSRYBb.s:2391   .text:0000000000000c08 .LBB174
     /tmp/cceSRYBb.s:2404   .text:0000000000000c0c .LBE174
     /tmp/cceSRYBb.s:2408   .text:0000000000000c10 .LBB176
     /tmp/cceSRYBb.s:2421   .text:0000000000000c14 .LBE176
     /tmp/cceSRYBb.s:2573   .text:0000000000000c78 .LBB178
     /tmp/cceSRYBb.s:2584   .text:0000000000000c7c .LBE178
     /tmp/cceSRYBb.s:8649   .debug_loc:0000000000000977 .LLST65
     /tmp/cceSRYBb.s:2589   .text:0000000000000c80 .LBB180
     /tmp/cceSRYBb.s:2601   .text:0000000000000c84 .LBE180
     /tmp/cceSRYBb.s:8656   .debug_loc:000000000000099a .LLST66
     /tmp/cceSRYBb.s:2564   .text:0000000000000c68 .LVL173
     /tmp/cceSRYBb.s:2626   .text:0000000000000ca4 .LVL179
     /tmp/cceSRYBb.s:2634   .text:0000000000000cb0 .LVL180
     /tmp/cceSRYBb.s:2642   .text:0000000000000cbc .LVL181
     /tmp/cceSRYBb.s:2650   .text:0000000000000cc8 .LVL182
     /tmp/cceSRYBb.s:2658   .text:0000000000000cd4 .LVL183
     /tmp/cceSRYBb.s:2666   .text:0000000000000ce0 .LVL184
     /tmp/cceSRYBb.s:2674   .text:0000000000000cec .LVL185
     /tmp/cceSRYBb.s:2682   .text:0000000000000cf8 .LVL186
     /tmp/cceSRYBb.s:2690   .text:0000000000000d04 .LVL187
     /tmp/cceSRYBb.s:2698   .text:0000000000000d10 .LVL188
     /tmp/cceSRYBb.s:2706   .text:0000000000000d1c .LVL189
     /tmp/cceSRYBb.s:2714   .text:0000000000000d28 .LVL190
     /tmp/cceSRYBb.s:2722   .text:0000000000000d34 .LVL191
     /tmp/cceSRYBb.s:2730   .text:0000000000000d40 .LVL192
     /tmp/cceSRYBb.s:2738   .text:0000000000000d4c .LVL193
GAS LISTING /tmp/cceSRYBb.s 			page 116


     /tmp/cceSRYBb.s:2746   .text:0000000000000d58 .LVL194
     /tmp/cceSRYBb.s:2763   .text:0000000000000d74 .LVL195
     /tmp/cceSRYBb.s:2767   .text:0000000000000d7c .LVL196
     /tmp/cceSRYBb.s:2773   .text:0000000000000d80 .LBB156
     /tmp/cceSRYBb.s:2904   .text:0000000000000e10 .LBE156
     /tmp/cceSRYBb.s:2885   .text:0000000000000df0 .LBB164
     /tmp/cceSRYBb.s:2900   .text:0000000000000e0c .LBE164
     /tmp/cceSRYBb.s:8663   .debug_loc:00000000000009bd .LLST61
     /tmp/cceSRYBb.s:2899   .text:0000000000000e0c .LVL207
     /tmp/cceSRYBb.s:2775   .text:0000000000000d80 .LBB157
     /tmp/cceSRYBb.s:2788   .text:0000000000000d84 .LBE157
     /tmp/cceSRYBb.s:2792   .text:0000000000000d88 .LBB159
     /tmp/cceSRYBb.s:2805   .text:0000000000000d8c .LBE159
     /tmp/cceSRYBb.s:2810   .text:0000000000000d90 .LBB161
     /tmp/cceSRYBb.s:2822   .text:0000000000000d98 .LBE161
     /tmp/cceSRYBb.s:8670   .debug_loc:00000000000009e0 .LLST60
     /tmp/cceSRYBb.s:2853   .text:0000000000000de0 .LBB165
     /tmp/cceSRYBb.s:2864   .text:0000000000000de4 .LBE165
     /tmp/cceSRYBb.s:8678   .debug_loc:0000000000000a04 .LLST62
     /tmp/cceSRYBb.s:2869   .text:0000000000000de8 .LBB167
     /tmp/cceSRYBb.s:2883   .text:0000000000000df0 .LBE167
     /tmp/cceSRYBb.s:8685   .debug_loc:0000000000000a27 .LLST63
     /tmp/cceSRYBb.s:2832   .text:0000000000000db4 .LVL201
     /tmp/cceSRYBb.s:2906   .text:0000000000000e10 .LBB141
     /tmp/cceSRYBb.s:3066   .text:0000000000000eac .LBE141
     /tmp/cceSRYBb.s:8692   .debug_loc:0000000000000a4a .LLST55
     /tmp/cceSRYBb.s:8699   .debug_loc:0000000000000a6d .LLST56
     /tmp/cceSRYBb.s:8706   .debug_loc:0000000000000a90 .LLST57
     /tmp/cceSRYBb.s:3060   .text:0000000000000ea8 .LVL223
     /tmp/cceSRYBb.s:2908   .text:0000000000000e10 .LBB142
     /tmp/cceSRYBb.s:2921   .text:0000000000000e14 .LBE142
     /tmp/cceSRYBb.s:2925   .text:0000000000000e18 .LBB144
     /tmp/cceSRYBb.s:2938   .text:0000000000000e1c .LBE144
     /tmp/cceSRYBb.s:3019   .text:0000000000000e80 .LBB149
     /tmp/cceSRYBb.s:3030   .text:0000000000000e84 .LBE149
     /tmp/cceSRYBb.s:8717   .debug_loc:0000000000000ac6 .LLST58
     /tmp/cceSRYBb.s:3035   .text:0000000000000e88 .LBB151
     /tmp/cceSRYBb.s:3049   .text:0000000000000e90 .LBE151
     /tmp/cceSRYBb.s:8724   .debug_loc:0000000000000ae9 .LLST59
     /tmp/cceSRYBb.s:3012   .text:0000000000000e74 .LVL217
     /tmp/cceSRYBb.s:3014   .text:0000000000000e7c .LVL218
     /tmp/cceSRYBb.s:3068   .text:0000000000000eac .LBB138
     /tmp/cceSRYBb.s:3118   .text:0000000000000f10 .LBE138
     /tmp/cceSRYBb.s:8731   .debug_loc:0000000000000b0c .LLST54
     /tmp/cceSRYBb.s:3084   .text:0000000000000ed0 .LBB139
     /tmp/cceSRYBb.s:3096   .text:0000000000000ed4 .LBE139
     /tmp/cceSRYBb.s:3082   .text:0000000000000ed0 .LVL226
     /tmp/cceSRYBb.s:3103   .text:0000000000000ee8 .LVL227
     /tmp/cceSRYBb.s:3108   .text:0000000000000ef8 .LVL228
     /tmp/cceSRYBb.s:3113   .text:0000000000000f08 .LVL229
     /tmp/cceSRYBb.s:3117   .text:0000000000000f10 .LVL230
     /tmp/cceSRYBb.s:2297   .text:0000000000000b60 .LBB133
     /tmp/cceSRYBb.s:2385   .text:0000000000000c08 .LBE133
     /tmp/cceSRYBb.s:8738   .debug_loc:0000000000000b2f .LLST52
     /tmp/cceSRYBb.s:8745   .debug_loc:0000000000000b52 .LLST53
     /tmp/cceSRYBb.s:2309   .text:0000000000000b80 .LBB134
     /tmp/cceSRYBb.s:2325   .text:0000000000000b8c .LBE134
GAS LISTING /tmp/cceSRYBb.s 			page 117


     /tmp/cceSRYBb.s:2340   .text:0000000000000bb0 .LBB136
     /tmp/cceSRYBb.s:2352   .text:0000000000000bb4 .LBE136
     /tmp/cceSRYBb.s:2302   .text:0000000000000b70 .LVL158
     /tmp/cceSRYBb.s:2307   .text:0000000000000b80 .LVL159
     /tmp/cceSRYBb.s:2333   .text:0000000000000ba0 .LVL162
     /tmp/cceSRYBb.s:2338   .text:0000000000000bb0 .LVL163
     /tmp/cceSRYBb.s:2359   .text:0000000000000bc8 .LVL164
     /tmp/cceSRYBb.s:2364   .text:0000000000000bd8 .LVL165
     /tmp/cceSRYBb.s:2378   .text:0000000000000bfc .LVL167
     /tmp/cceSRYBb.s:2382   .text:0000000000000c04 .LVL168
     /tmp/cceSRYBb.s:2219   .text:0000000000000af0 .LBB127
     /tmp/cceSRYBb.s:2234   .text:0000000000000afc .LBE127
     /tmp/cceSRYBb.s:2607   .text:0000000000000c8c .LVL178
     /tmp/cceSRYBb.s:134    .text:000000000000008c .LFB43
     /tmp/cceSRYBb.s:163    .text:00000000000000ac .LFE43
     /tmp/cceSRYBb.s:10     .text:0000000000000000 .LFB42
     /tmp/cceSRYBb.s:128    .text:000000000000008c .LFE42
     /tmp/cceSRYBb.s:26     .text:0000000000000018 .LBB89
     /tmp/cceSRYBb.s:38     .text:000000000000001c .LBE89
     /tmp/cceSRYBb.s:72     .text:0000000000000068 .LBB91
     /tmp/cceSRYBb.s:73     .text:0000000000000068 .LBB92
     /tmp/cceSRYBb.s:85     .text:0000000000000070 .LBE92
     /tmp/cceSRYBb.s:8752   .debug_loc:0000000000000b75 .LLST0
     /tmp/cceSRYBb.s:89     .text:0000000000000070 .LBB94
     /tmp/cceSRYBb.s:101    .text:0000000000000078 .LBE94
     /tmp/cceSRYBb.s:8760   .debug_loc:0000000000000b99 .LLST1
     /tmp/cceSRYBb.s:105    .text:0000000000000078 .LBB96
     /tmp/cceSRYBb.s:116    .text:000000000000007c .LBE96
     /tmp/cceSRYBb.s:8769   .debug_loc:0000000000000bbf .LLST2
     /tmp/cceSRYBb.s:49     .text:0000000000000040 .LVL2
     /tmp/cceSRYBb.s:53     .text:0000000000000048 .LVL3
     /tmp/cceSRYBb.s:57     .text:0000000000000050 .LVL4
     /tmp/cceSRYBb.s:61     .text:0000000000000058 .LVL5
     /tmp/cceSRYBb.s:65     .text:0000000000000060 .LVL6
     /tmp/cceSRYBb.s:69     .text:0000000000000068 .LVL7
     /tmp/cceSRYBb.s:9142   .debug_str:0000000000000a16 .LASF289
     /tmp/cceSRYBb.s:9216   .debug_str:0000000000000ca1 .LASF290
     /tmp/cceSRYBb.s:8910   .debug_str:0000000000000283 .LASF291
     /tmp/cceSRYBb.s:8918   .debug_str:00000000000002b0 .LASF306
     /tmp/cceSRYBb.s:8844   .debug_str:000000000000008c .LASF307
     /tmp/cceSRYBb.s:9418   .debug_str:00000000000013e5 .LASF292
     /tmp/cceSRYBb.s:8946   .debug_str:0000000000000385 .LASF293
     /tmp/cceSRYBb.s:8962   .debug_str:0000000000000422 .LASF294
     /tmp/cceSRYBb.s:9386   .debug_str:00000000000012fc .LASF295
     /tmp/cceSRYBb.s:9074   .debug_str:00000000000007df .LASF296
     /tmp/cceSRYBb.s:9036   .debug_str:00000000000006a3 .LASF297
     /tmp/cceSRYBb.s:9144   .debug_str:0000000000000a1b .LASF298
     /tmp/cceSRYBb.s:2164   .text:0000000000000ac4 .LVL156
     /tmp/cceSRYBb.s:2169   .text:0000000000000ac8 .LVL157
     /tmp/cceSRYBb.s:1935   .text:000000000000098c .LVL141
     /tmp/cceSRYBb.s:1943   .text:00000000000009a4 .LVL142
     /tmp/cceSRYBb.s:1996   .text:0000000000000a24 .LVL146
     /tmp/cceSRYBb.s:2096   .text:0000000000000a90 .LVL150
     /tmp/cceSRYBb.s:2107   .text:0000000000000a9c .LVL153
     /tmp/cceSRYBb.s:2102   .text:0000000000000a94 .LVL151
     /tmp/cceSRYBb.s:2090   .text:0000000000000a84 .LVL149
     /tmp/cceSRYBb.s:2104   .text:0000000000000a98 .LVL152
GAS LISTING /tmp/cceSRYBb.s 			page 118


     /tmp/cceSRYBb.s:1860   .text:0000000000000920 .LVL133
     /tmp/cceSRYBb.s:1888   .text:0000000000000940 .LVL136
     /tmp/cceSRYBb.s:1892   .text:0000000000000948 .LVL137
     /tmp/cceSRYBb.s:1866   .text:0000000000000924 .LVL134
     /tmp/cceSRYBb.s:1784   .text:00000000000008b8 .LVL125
     /tmp/cceSRYBb.s:1812   .text:00000000000008d8 .LVL128
     /tmp/cceSRYBb.s:1816   .text:00000000000008e0 .LVL129
     /tmp/cceSRYBb.s:1790   .text:00000000000008bc .LVL126
     /tmp/cceSRYBb.s:470    .text:0000000000000238 .LVL27
     /tmp/cceSRYBb.s:483    .text:0000000000000240 .LVL28
     /tmp/cceSRYBb.s:504    .text:0000000000000248 .LVL29
     /tmp/cceSRYBb.s:392    .text:00000000000001e4 .LVL24
     /tmp/cceSRYBb.s:402    .text:00000000000001ec .LVL25
     /tmp/cceSRYBb.s:265    .text:0000000000000138 .LVL15
     /tmp/cceSRYBb.s:275    .text:000000000000014c .LVL16
     /tmp/cceSRYBb.s:292    .text:0000000000000160 .LVL18
     /tmp/cceSRYBb.s:315    .text:0000000000000170 .LVL20
     /tmp/cceSRYBb.s:329    .text:000000000000018c .LVL22
     /tmp/cceSRYBb.s:340    .text:0000000000000194 .LVL23
     /tmp/cceSRYBb.s:239    .text:000000000000011c .LVL13
     /tmp/cceSRYBb.s:1661   .text:0000000000000814 .LVL114
     /tmp/cceSRYBb.s:1668   .text:0000000000000824 .LVL115
     /tmp/cceSRYBb.s:1693   .text:0000000000000844 .LVL117
     /tmp/cceSRYBb.s:1699   .text:0000000000000848 .LVL118
     /tmp/cceSRYBb.s:1708   .text:0000000000000860 .LVL121
     /tmp/cceSRYBb.s:1576   .text:0000000000000780 .LVL108
     /tmp/cceSRYBb.s:1620   .text:00000000000007cc .LVL112
     /tmp/cceSRYBb.s:1504   .text:0000000000000728 .LVL103
     /tmp/cceSRYBb.s:1511   .text:0000000000000730 .LVL104
     /tmp/cceSRYBb.s:1534   .text:000000000000074c .LVL106
     /tmp/cceSRYBb.s:1427   .text:00000000000006c8 .LVL96
     /tmp/cceSRYBb.s:1432   .text:00000000000006cc .LVL97
     /tmp/cceSRYBb.s:1466   .text:0000000000000700 .LVL100
     /tmp/cceSRYBb.s:1444   .text:00000000000006e4 .LVL98
     /tmp/cceSRYBb.s:1474   .text:000000000000070c .LVL102
     /tmp/cceSRYBb.s:1354   .text:000000000000066c .LVL89
     /tmp/cceSRYBb.s:1384   .text:000000000000068c .LVL92
     /tmp/cceSRYBb.s:1388   .text:0000000000000694 .LVL93
     /tmp/cceSRYBb.s:1363   .text:0000000000000674 .LVL90
     /tmp/cceSRYBb.s:1231   .text:00000000000005dc .LVL78
     /tmp/cceSRYBb.s:1286   .text:0000000000000628 .LVL84
     /tmp/cceSRYBb.s:1290   .text:0000000000000630 .LVL85
     /tmp/cceSRYBb.s:1281   .text:0000000000000620 .LVL83
     /tmp/cceSRYBb.s:1296   .text:0000000000000638 .LVL86
     /tmp/cceSRYBb.s:1260   .text:0000000000000608 .LVL81
     /tmp/cceSRYBb.s:184    .text:00000000000000c8 .LVL11
     /tmp/cceSRYBb.s:1144   .text:0000000000000574 .LVL72
     /tmp/cceSRYBb.s:1168   .text:0000000000000598 .LVL75
     /tmp/cceSRYBb.s:1190   .text:00000000000005b4 .LVL77
     /tmp/cceSRYBb.s:1154   .text:0000000000000584 .LVL73
     /tmp/cceSRYBb.s:1076   .text:0000000000000520 .LVL66
     /tmp/cceSRYBb.s:1084   .text:0000000000000528 .LVL67
     /tmp/cceSRYBb.s:1107   .text:0000000000000544 .LVL69
     /tmp/cceSRYBb.s:939    .text:0000000000000478 .LVL52
     /tmp/cceSRYBb.s:1007   .text:00000000000004dc .LVL60
     /tmp/cceSRYBb.s:1014   .text:00000000000004e8 .LVL62
     /tmp/cceSRYBb.s:945    .text:000000000000047c .LVL53
GAS LISTING /tmp/cceSRYBb.s 			page 119


     /tmp/cceSRYBb.s:1004   .text:00000000000004d8 .LVL59
     /tmp/cceSRYBb.s:933    .text:0000000000000474 .LVL51
     /tmp/cceSRYBb.s:1010   .text:00000000000004e0 .LVL61
     /tmp/cceSRYBb.s:999    .text:00000000000004d0 .LVL58
     /tmp/cceSRYBb.s:1020   .text:00000000000004f0 .LVL63
     /tmp/cceSRYBb.s:978    .text:00000000000004b8 .LVL56
     /tmp/cceSRYBb.s:765    .text:00000000000003a4 .LVL39
     /tmp/cceSRYBb.s:845    .text:000000000000041c .LVL46
     /tmp/cceSRYBb.s:849    .text:0000000000000424 .LVL47
     /tmp/cceSRYBb.s:836    .text:000000000000040c .LVL45
     /tmp/cceSRYBb.s:855    .text:000000000000042c .LVL48
     /tmp/cceSRYBb.s:815    .text:00000000000003f4 .LVL43
     /tmp/cceSRYBb.s:715    .text:000000000000036c .LVL37
     /tmp/cceSRYBb.s:685    .text:000000000000034c .LVL35
     /tmp/cceSRYBb.s:633    .text:0000000000000304 .LVL32
     /tmp/cceSRYBb.s:2444   .text:0000000000000c3c .LVL171
     /tmp/cceSRYBb.s:2450   .text:0000000000000c48 .LVL172
     /tmp/cceSRYBb.s:2572   .text:0000000000000c78 .LVL174
     /tmp/cceSRYBb.s:2581   .text:0000000000000c7c .LVL175
     /tmp/cceSRYBb.s:2588   .text:0000000000000c80 .LVL176
     /tmp/cceSRYBb.s:2597   .text:0000000000000c84 .LVL177
     /tmp/cceSRYBb.s:2891   .text:0000000000000dfc .LVL206
     /tmp/cceSRYBb.s:2809   .text:0000000000000d90 .LVL199
     /tmp/cceSRYBb.s:2819   .text:0000000000000d98 .LVL200
     /tmp/cceSRYBb.s:2852   .text:0000000000000de0 .LVL202
     /tmp/cceSRYBb.s:2861   .text:0000000000000de4 .LVL203
     /tmp/cceSRYBb.s:2868   .text:0000000000000de8 .LVL204
     /tmp/cceSRYBb.s:2880   .text:0000000000000df0 .LVL205
     /tmp/cceSRYBb.s:2945   .text:0000000000000e2c .LVL210
     /tmp/cceSRYBb.s:2968   .text:0000000000000e3c .LVL212
     /tmp/cceSRYBb.s:2978   .text:0000000000000e4c .LVL213
     /tmp/cceSRYBb.s:3001   .text:0000000000000e64 .LVL215
     /tmp/cceSRYBb.s:2997   .text:0000000000000e5c .LVL214
     /tmp/cceSRYBb.s:3005   .text:0000000000000e6c .LVL216
     /tmp/cceSRYBb.s:3046   .text:0000000000000e90 .LVL222
     /tmp/cceSRYBb.s:3018   .text:0000000000000e80 .LVL219
     /tmp/cceSRYBb.s:3027   .text:0000000000000e84 .LVL220
     /tmp/cceSRYBb.s:3034   .text:0000000000000e88 .LVL221
     /tmp/cceSRYBb.s:3073   .text:0000000000000eb8 .LVL225
     /tmp/cceSRYBb.s:2323   .text:0000000000000b8c .LVL160
     /tmp/cceSRYBb.s:2331   .text:0000000000000b98 .LVL161
     /tmp/cceSRYBb.s:2369   .text:0000000000000be4 .LVL166
     /tmp/cceSRYBb.s:82     .text:0000000000000070 .LVL8
     /tmp/cceSRYBb.s:98     .text:0000000000000078 .LVL9
     /tmp/cceSRYBb.s:113    .text:000000000000007c .LVL10
     /tmp/cceSRYBb.s:3155   .debug_info:0000000000000000 .Ldebug_info0
     /tmp/cceSRYBb.s:86     .text:0000000000000070 .LBE91
     /tmp/cceSRYBb.s:88     .text:0000000000000070 .LBB98
     /tmp/cceSRYBb.s:102    .text:0000000000000078 .LBE98
     /tmp/cceSRYBb.s:104    .text:0000000000000078 .LBB99
     /tmp/cceSRYBb.s:117    .text:000000000000007c .LBE99
     /tmp/cceSRYBb.s:277    .text:000000000000014c .LBB100
     /tmp/cceSRYBb.s:285    .text:0000000000000154 .LBE100
     /tmp/cceSRYBb.s:287    .text:0000000000000154 .LBB104
     /tmp/cceSRYBb.s:366    .text:00000000000001c0 .LBE104
     /tmp/cceSRYBb.s:468    .text:0000000000000238 .LBE109
     /tmp/cceSRYBb.s:471    .text:0000000000000238 .LBB119
GAS LISTING /tmp/cceSRYBb.s 			page 120


     /tmp/cceSRYBb.s:490    .text:0000000000000240 .LBE119
     /tmp/cceSRYBb.s:492    .text:0000000000000240 .LBB120
     /tmp/cceSRYBb.s:511    .text:0000000000000248 .LBE120
     /tmp/cceSRYBb.s:2971   .text:0000000000000e40 .LBB147
     /tmp/cceSRYBb.s:3007   .text:0000000000000e6c .LBE147
     /tmp/cceSRYBb.s:3051   .text:0000000000000e90 .LBB148
     /tmp/cceSRYBb.s:3064   .text:0000000000000eac .LBE148
     /tmp/cceSRYBb.s:2389   .text:0000000000000c08 .LBB173
     /tmp/cceSRYBb.s:2602   .text:0000000000000c84 .LBE173
     /tmp/cceSRYBb.s:2621   .text:0000000000000c9c .LBB182
     /tmp/cceSRYBb.s:2771   .text:0000000000000d80 .LBE182
     /tmp/cceSRYBb.s:871    .gcc_except_table:0000000000000000 .LLSDA47
     /tmp/cceSRYBb.s:1035   .gcc_except_table:0000000000000038 .LLSDA48
     /tmp/cceSRYBb.s:1311   .gcc_except_table:0000000000000063 .LLSDA52
     /tmp/cceSRYBb.s:2121   .gcc_except_table:000000000000008e .LLSDA66

UNDEFINED SYMBOLS
_ZN5RiscV14supervisorTrapEv
HEAP_START_ADDR
_Z9kmem_initPvi
_ZN15MemoryAllocator10initializeEv
_ZN9Scheduler10initializeEv
_ZN3TCB10initializeEv
_ZN3SCB10initializeEv
_ZN11ConsoleUtil10initializeEv
_ZN3TCB7runningE
_ZN3TCB8dispatchEv
_ZN11ConsoleUtil11pendingPutcE
_ZN11ConsoleUtil9putOutputEc
_Z15thread_dispatchv
CONSOLE_STATUS
_ZN11ConsoleUtil15putcUtilSyscallEv
CONSOLE_RX_DATA
_ZN11ConsoleUtil11pendingGetcE
_ZN9Scheduler9readyHeadE
_ZN3TCB10putcThreadE
_ZN9Scheduler3putEP3TCB
_ZN11ConsoleUtil10outputHeadE
_ZN11ConsoleUtil10outputTailE
_ZN15MemoryAllocator7kmallocEm
_ZN15MemoryAllocator11initializedE
_ZN15MemoryAllocator5kfreeEPv
_ZN3TCBnwEm
_ZN3TCBC1EPFvPvES0_Pmm
_ZN3TCBdlEPv
_Unwind_Resume
__gxx_personality_v0
_ZN3SCBnwEm
_ZN3SCBC1Em
_ZN3SCBdlEPv
_ZN3SCBD1Ev
_ZN3SCB4waitEv
_ZN3SCB6signalEv
_ZN9Scheduler5sleepEP3TCB
_ZN11ConsoleUtil8getInputEv
_ZN11ConsoleUtil9getOutputEv
_Z5kfreePKv
GAS LISTING /tmp/cceSRYBb.s 			page 121


_ZN3TCBD1Ev
_Z7kmallocm
_ZN15MemoryAllocator6memcpyEPvS0_m
_ZN3TCB9currentPCE
_ZN3TCB9currentSPE
_ZN11ConsoleUtil11printStringEPKc
_ZN11ConsoleUtil8printIntEiii
_ZN9Scheduler5awakeEv
_ZN3TCB16timeSliceCounterE
CONSOLE_TX_DATA
plic_claim
plic_complete
_ZN11ConsoleUtil8putInputEc
