GAS LISTING /tmp/ccZmhVEo.s 			page 1


   1              		.file	"scb.cpp"
   2              		.option pic
   3              		.option norelax
   4              		.text
   5              	.Ltext0:
   6              		.align	2
   7              		.globl	_ZN3SCBC2Em
   9              	_ZN3SCBC2Em:
  10              	.LFB33:
  11              		.file 1 "src/scb.cpp"
   1:src/scb.cpp   **** //
   2:src/scb.cpp   **** // Created by os on 5/23/22.
   3:src/scb.cpp   **** //
   4:src/scb.cpp   **** 
   5:src/scb.cpp   **** #include "../h/scb.hpp"
   6:src/scb.cpp   **** #include "../h/scheduler.hpp"
   7:src/scb.cpp   **** #include "../h/memoryAllocator.hpp"
   8:src/scb.cpp   **** #include "../h/printing.hpp"
   9:src/scb.cpp   **** #include "../h/consoleUtil.hpp"
  10:src/scb.cpp   **** 
  11:src/scb.cpp   **** 
  12:src/scb.cpp   **** SCB::SCB(uint64 init){
  12              		.loc 1 12 1
  13              		.cfi_startproc
  14              	.LVL0:
  15 0000 130101FF 		addi	sp,sp,-16
  16              		.cfi_def_cfa_offset 16
  17 0004 23348100 		sd	s0,8(sp)
  18              		.cfi_offset 8, -8
  19 0008 13040101 		addi	s0,sp,16
  20              		.cfi_def_cfa 8, 0
  21              	.LBB2:
  13:src/scb.cpp   ****     val = init;
  22              		.loc 1 13 5
  23              		.loc 1 13 9 is_stmt 0
  24 000c 2320B500 		sw	a1,0(a0)
  14:src/scb.cpp   ****     blockedHead = nullptr;
  25              		.loc 1 14 5 is_stmt 1
  26              		.loc 1 14 17 is_stmt 0
  27 0010 23340500 		sd	zero,8(a0)
  15:src/scb.cpp   ****     blockedTail = nullptr;
  28              		.loc 1 15 5 is_stmt 1
  29              		.loc 1 15 17 is_stmt 0
  30 0014 23380500 		sd	zero,16(a0)
  31              	.LBE2:
  16:src/scb.cpp   **** }
  32              		.loc 1 16 1
  33 0018 03348100 		ld	s0,8(sp)
  34              		.cfi_restore 8
  35              		.cfi_def_cfa 2, 16
  36 001c 13010101 		addi	sp,sp,16
  37              		.cfi_def_cfa_offset 0
  38 0020 67800000 		jr	ra
  39              		.cfi_endproc
  40              	.LFE33:
  42              		.globl	_ZN3SCBC1Em
  43              		.set	_ZN3SCBC1Em,_ZN3SCBC2Em
GAS LISTING /tmp/ccZmhVEo.s 			page 2


  44              		.align	2
  45              		.globl	_ZN3SCBD2Ev
  47              	_ZN3SCBD2Ev:
  48              	.LFB36:
  17:src/scb.cpp   **** 
  18:src/scb.cpp   **** //if there are any threads that are still blocked on semaphore when it is being deleted
  19:src/scb.cpp   **** //free those threads and set their semError field to point to this semaphore
  20:src/scb.cpp   **** SCB::~SCB(){
  49              		.loc 1 20 1 is_stmt 1
  50              		.cfi_startproc
  51              		.cfi_personality 0x9b,DW.ref.__gxx_personality_v0
  52              		.cfi_lsda 0x1b,.LLSDA36
  53              	.LVL1:
  54 0024 130101FE 		addi	sp,sp,-32
  55              		.cfi_def_cfa_offset 32
  56 0028 233C1100 		sd	ra,24(sp)
  57 002c 23388100 		sd	s0,16(sp)
  58 0030 23349100 		sd	s1,8(sp)
  59 0034 23302101 		sd	s2,0(sp)
  60              		.cfi_offset 1, -8
  61              		.cfi_offset 8, -16
  62              		.cfi_offset 9, -24
  63              		.cfi_offset 18, -32
  64 0038 13040102 		addi	s0,sp,32
  65              		.cfi_def_cfa 8, 0
  66 003c 13090500 		mv	s2,a0
  67              	.LBB3:
  21:src/scb.cpp   ****     TCB* iter = blockedHead;
  68              		.loc 1 21 5
  69              		.loc 1 21 10 is_stmt 0
  70 0040 03358500 		ld	a0,8(a0)
  71              	.LVL2:
  72              	.L5:
  22:src/scb.cpp   ****     while(iter !=nullptr) {
  73              		.loc 1 22 5 is_stmt 1
  74              		.loc 1 22 16
  75 0044 63000502 		beqz	a0,.L3
  76              	.LBB4:
  23:src/scb.cpp   ****         TCB* tmp = iter;
  77              		.loc 1 23 9
  78              	.LVL3:
  24:src/scb.cpp   ****         iter = iter->next;
  79              		.loc 1 24 9
  80              		.loc 1 24 14 is_stmt 0
  81 0048 83348504 		ld	s1,72(a0)
  82              	.LVL4:
  25:src/scb.cpp   ****         tmp->next = 0;
  83              		.loc 1 25 9 is_stmt 1
  84              		.loc 1 25 19 is_stmt 0
  85 004c 23340504 		sd	zero,72(a0)
  26:src/scb.cpp   ****         tmp->semError = this;
  86              		.loc 1 26 9 is_stmt 1
  87              		.loc 1 26 23 is_stmt 0
  88 0050 23302507 		sd	s2,96(a0)
  27:src/scb.cpp   ****         Scheduler::put(tmp);
  89              		.loc 1 27 9 is_stmt 1
  90              		.loc 1 27 23 is_stmt 0
GAS LISTING /tmp/ccZmhVEo.s 			page 3


  91 0054 97000000 		call	_ZN9Scheduler3putEP3TCB@plt
  91      E7800000 
  92              	.LVL5:
  24:src/scb.cpp   ****         tmp->next = 0;
  93              		.loc 1 24 14
  94 005c 13850400 		mv	a0,s1
  95              	.LBE4:
  22:src/scb.cpp   ****         TCB* tmp = iter;
  96              		.loc 1 22 5
  97 0060 6FF05FFE 		j	.L5
  98              	.LVL6:
  99              	.L3:
 100              	.LBE3:
  28:src/scb.cpp   ****     }
  29:src/scb.cpp   **** }
 101              		.loc 1 29 1
 102 0064 83308101 		ld	ra,24(sp)
 103              		.cfi_restore 1
 104 0068 03340101 		ld	s0,16(sp)
 105              		.cfi_restore 8
 106              		.cfi_def_cfa 2, 32
 107 006c 83348100 		ld	s1,8(sp)
 108              		.cfi_restore 9
 109 0070 03390100 		ld	s2,0(sp)
 110              		.cfi_restore 18
 111              	.LVL7:
 112 0074 13010102 		addi	sp,sp,32
 113              		.cfi_def_cfa_offset 0
 114 0078 67800000 		jr	ra
 115              		.cfi_endproc
 116              	.LFE36:
 117              		.globl	__gxx_personality_v0
 118              		.section	.gcc_except_table,"a",@progbits
 119              	.LLSDA36:
 120 0000 FF       		.byte	0xff
 121 0001 FF       		.byte	0xff
 122 0002 03       		.byte	0x3
 123 0003 00       		.byte	0
 124              		.text
 126              		.globl	_ZN3SCBD1Ev
 127              		.set	_ZN3SCBD1Ev,_ZN3SCBD2Ev
 128              		.align	2
 129              		.globl	_ZN3SCB5blockEv
 131              	_ZN3SCB5blockEv:
 132              	.LFB38:
  30:src/scb.cpp   **** 
  31:src/scb.cpp   **** //block a thread by putting running thread at the end of blocked queue
  32:src/scb.cpp   **** void SCB::block() {
 133              		.loc 1 32 19 is_stmt 1
 134              		.cfi_startproc
 135              	.LVL8:
 136 007c 130101FF 		addi	sp,sp,-16
 137              		.cfi_def_cfa_offset 16
 138 0080 23341100 		sd	ra,8(sp)
 139 0084 23308100 		sd	s0,0(sp)
 140              		.cfi_offset 1, -8
 141              		.cfi_offset 8, -16
GAS LISTING /tmp/ccZmhVEo.s 			page 4


 142 0088 13040101 		addi	s0,sp,16
 143              		.cfi_def_cfa 8, 0
  33:src/scb.cpp   ****     blockedTail = (!blockedHead ? blockedHead : blockedTail->next) = TCB::running;
 144              		.loc 1 33 5
 145              		.loc 1 33 21 is_stmt 0
 146 008c 83378500 		ld	a5,8(a0)
 147              		.loc 1 33 68
 148 0090 63800704 		beqz	a5,.L11
 149              		.loc 1 33 49 discriminator 2
 150 0094 03370501 		ld	a4,16(a0)
 151              		.loc 1 33 68 discriminator 2
 152 0098 97070000 		la	a5,_ZN3TCB7runningE
 152      83B70700 
 153 00a0 83B70700 		ld	a5,0(a5)
 154 00a4 2334F704 		sd	a5,72(a4)
 155              	.L9:
 156              		.loc 1 33 17 discriminator 4
 157 00a8 2338F500 		sd	a5,16(a0)
  34:src/scb.cpp   ****     TCB::running->next = nullptr;
 158              		.loc 1 34 5 is_stmt 1 discriminator 4
 159              		.loc 1 34 24 is_stmt 0 discriminator 4
 160 00ac 23B40704 		sd	zero,72(a5)
  35:src/scb.cpp   ****     TCB::running->status = TCB::BLOCKED;
 161              		.loc 1 35 5 is_stmt 1 discriminator 4
 162              		.loc 1 35 26 is_stmt 0 discriminator 4
 163 00b0 13073000 		li	a4,3
 164 00b4 23A8E700 		sw	a4,16(a5)
  36:src/scb.cpp   ****     TCB::dispatch();
 165              		.loc 1 36 5 is_stmt 1 discriminator 4
 166              		.loc 1 36 18 is_stmt 0 discriminator 4
 167 00b8 97000000 		call	_ZN3TCB8dispatchEv@plt
 167      E7800000 
 168              	.LVL9:
  37:src/scb.cpp   **** }
 169              		.loc 1 37 1 discriminator 4
 170 00c0 83308100 		ld	ra,8(sp)
 171              		.cfi_remember_state
 172              		.cfi_restore 1
 173 00c4 03340100 		ld	s0,0(sp)
 174              		.cfi_restore 8
 175              		.cfi_def_cfa 2, 16
 176 00c8 13010101 		addi	sp,sp,16
 177              		.cfi_def_cfa_offset 0
 178 00cc 67800000 		jr	ra
 179              	.LVL10:
 180              	.L11:
 181              		.cfi_restore_state
  33:src/scb.cpp   ****     TCB::running->next = nullptr;
 182              		.loc 1 33 68 discriminator 1
 183 00d0 97070000 		la	a5,_ZN3TCB7runningE
 183      83B70700 
 184 00d8 83B70700 		ld	a5,0(a5)
 185 00dc 2334F500 		sd	a5,8(a0)
 186 00e0 6FF09FFC 		j	.L9
 187              		.cfi_endproc
 188              	.LFE38:
 190              		.align	2
GAS LISTING /tmp/ccZmhVEo.s 			page 5


 191              		.globl	_ZN3SCB7deblockEv
 193              	_ZN3SCB7deblockEv:
 194              	.LFB39:
  38:src/scb.cpp   **** 
  39:src/scb.cpp   **** //unblock a thread by fetching first from the blocked queue and putting it in scheduler
  40:src/scb.cpp   **** void SCB::deblock(){
 195              		.loc 1 40 20 is_stmt 1
 196              		.cfi_startproc
 197              	.LVL11:
 198 00e4 93070500 		mv	a5,a0
  41:src/scb.cpp   ****     TCB* tcb = blockedHead;
 199              		.loc 1 41 5
 200              		.loc 1 41 10 is_stmt 0
 201 00e8 03358500 		ld	a0,8(a0)
 202              	.LVL12:
  42:src/scb.cpp   ****     blockedHead = blockedHead->next;
 203              		.loc 1 42 5 is_stmt 1
 204              		.loc 1 42 32 is_stmt 0
 205 00ec 03378504 		ld	a4,72(a0)
 206              		.loc 1 42 17
 207 00f0 23B4E700 		sd	a4,8(a5)
  43:src/scb.cpp   ****     tcb->next = nullptr;
 208              		.loc 1 43 5 is_stmt 1
 209              		.loc 1 43 15 is_stmt 0
 210 00f4 23340504 		sd	zero,72(a0)
  44:src/scb.cpp   ****     if(tcb) {
 211              		.loc 1 44 5 is_stmt 1
 212 00f8 630A0502 		beqz	a0,.L15
  40:src/scb.cpp   ****     TCB* tcb = blockedHead;
 213              		.loc 1 40 20 is_stmt 0
 214 00fc 130101FF 		addi	sp,sp,-16
 215              		.cfi_def_cfa_offset 16
 216 0100 23341100 		sd	ra,8(sp)
 217 0104 23308100 		sd	s0,0(sp)
 218              		.cfi_offset 1, -8
 219              		.cfi_offset 8, -16
 220 0108 13040101 		addi	s0,sp,16
 221              		.cfi_def_cfa 8, 0
  45:src/scb.cpp   ****         tcb->status = TCB::READY;
 222              		.loc 1 45 9 is_stmt 1
 223              		.loc 1 45 21 is_stmt 0
 224 010c 93071000 		li	a5,1
 225              	.LVL13:
 226 0110 2328F500 		sw	a5,16(a0)
  46:src/scb.cpp   ****         Scheduler::put(tcb);
 227              		.loc 1 46 9 is_stmt 1
 228              		.loc 1 46 23 is_stmt 0
 229 0114 97000000 		call	_ZN9Scheduler3putEP3TCB@plt
 229      E7800000 
 230              	.LVL14:
  47:src/scb.cpp   ****     }
  48:src/scb.cpp   **** }
 231              		.loc 1 48 1
 232 011c 83308100 		ld	ra,8(sp)
 233              		.cfi_restore 1
 234 0120 03340100 		ld	s0,0(sp)
 235              		.cfi_restore 8
GAS LISTING /tmp/ccZmhVEo.s 			page 6


 236              		.cfi_def_cfa 2, 16
 237 0124 13010101 		addi	sp,sp,16
 238              		.cfi_def_cfa_offset 0
 239 0128 67800000 		jr	ra
 240              	.LVL15:
 241              	.L15:
 242 012c 67800000 		ret
 243              		.cfi_endproc
 244              	.LFE39:
 246              		.align	2
 247              		.globl	_ZN3SCB4waitEv
 249              	_ZN3SCB4waitEv:
 250              	.LFB40:
  49:src/scb.cpp   **** 
  50:src/scb.cpp   **** void SCB::wait() {
 251              		.loc 1 50 18 is_stmt 1
 252              		.cfi_startproc
 253              	.LVL16:
  51:src/scb.cpp   ****     TCB::running->semError = nullptr;
 254              		.loc 1 51 5
 255              		.loc 1 51 19 is_stmt 0
 256 0130 97070000 		la	a5,_ZN3TCB7runningE
 256      83B70700 
 257 0138 83B70700 		ld	a5,0(a5)
 258              		.loc 1 51 28
 259 013c 23B00706 		sd	zero,96(a5)
  52:src/scb.cpp   ****     if (--val < 0)
 260              		.loc 1 52 5 is_stmt 1
 261              		.loc 1 52 11 is_stmt 0
 262 0140 83270500 		lw	a5,0(a0)
 263              		.loc 1 52 9
 264 0144 9B87F7FF 		addiw	a5,a5,-1
 265              		.loc 1 52 15
 266 0148 2320F500 		sw	a5,0(a0)
 267              		.loc 1 52 5
 268 014c 13970702 		slli	a4,a5,32
 269 0150 63440700 		bltz	a4,.L24
 270 0154 67800000 		ret
 271              	.L24:
  50:src/scb.cpp   ****     TCB::running->semError = nullptr;
 272              		.loc 1 50 18
 273 0158 130101FF 		addi	sp,sp,-16
 274              		.cfi_def_cfa_offset 16
 275 015c 23341100 		sd	ra,8(sp)
 276 0160 23308100 		sd	s0,0(sp)
 277              		.cfi_offset 1, -8
 278              		.cfi_offset 8, -16
 279 0164 13040101 		addi	s0,sp,16
 280              		.cfi_def_cfa 8, 0
  53:src/scb.cpp   ****         block();
 281              		.loc 1 53 9 is_stmt 1
 282              		.loc 1 53 14 is_stmt 0
 283 0168 97000000 		call	_ZN3SCB5blockEv
 283      E7800000 
 284              	.LVL17:
  54:src/scb.cpp   **** }
 285              		.loc 1 54 1
GAS LISTING /tmp/ccZmhVEo.s 			page 7


 286 0170 83308100 		ld	ra,8(sp)
 287              		.cfi_restore 1
 288 0174 03340100 		ld	s0,0(sp)
 289              		.cfi_restore 8
 290              		.cfi_def_cfa 2, 16
 291 0178 13010101 		addi	sp,sp,16
 292              		.cfi_def_cfa_offset 0
 293 017c 67800000 		jr	ra
 294              		.cfi_endproc
 295              	.LFE40:
 297              		.align	2
 298              		.globl	_ZN3SCB6signalEv
 300              	_ZN3SCB6signalEv:
 301              	.LFB41:
  55:src/scb.cpp   **** 
  56:src/scb.cpp   **** void SCB::signal(){
 302              		.loc 1 56 19 is_stmt 1
 303              		.cfi_startproc
 304              	.LVL18:
  57:src/scb.cpp   ****     if(val++<0)
 305              		.loc 1 57 5
 306              		.loc 1 57 8 is_stmt 0
 307 0180 83270500 		lw	a5,0(a0)
 308              		.loc 1 57 11
 309 0184 1B871700 		addiw	a4,a5,1
 310 0188 2320E500 		sw	a4,0(a0)
 311              		.loc 1 57 5
 312 018c 63C40700 		bltz	a5,.L31
 313 0190 67800000 		ret
 314              	.L31:
  56:src/scb.cpp   ****     if(val++<0)
 315              		.loc 1 56 19
 316 0194 130101FF 		addi	sp,sp,-16
 317              		.cfi_def_cfa_offset 16
 318 0198 23341100 		sd	ra,8(sp)
 319 019c 23308100 		sd	s0,0(sp)
 320              		.cfi_offset 1, -8
 321              		.cfi_offset 8, -16
 322 01a0 13040101 		addi	s0,sp,16
 323              		.cfi_def_cfa 8, 0
  58:src/scb.cpp   ****         deblock();
 324              		.loc 1 58 9 is_stmt 1
 325              		.loc 1 58 16 is_stmt 0
 326 01a4 97000000 		call	_ZN3SCB7deblockEv
 326      E7800000 
 327              	.LVL19:
  59:src/scb.cpp   **** }
 328              		.loc 1 59 1
 329 01ac 83308100 		ld	ra,8(sp)
 330              		.cfi_restore 1
 331 01b0 03340100 		ld	s0,0(sp)
 332              		.cfi_restore 8
 333              		.cfi_def_cfa 2, 16
 334 01b4 13010101 		addi	sp,sp,16
 335              		.cfi_def_cfa_offset 0
 336 01b8 67800000 		jr	ra
 337              		.cfi_endproc
GAS LISTING /tmp/ccZmhVEo.s 			page 8


 338              	.LFE41:
 340              		.align	2
 341              		.globl	_ZN3SCBnwEm
 343              	_ZN3SCBnwEm:
 344              	.LFB42:
  60:src/scb.cpp   **** 
  61:src/scb.cpp   **** //overload operator new, to not use system call for every kernel object that is being allocated
  62:src/scb.cpp   **** void* SCB::operator new(size_t size){
 345              		.loc 1 62 37 is_stmt 1
 346              		.cfi_startproc
 347              	.LVL20:
 348 01bc 130101FF 		addi	sp,sp,-16
 349              		.cfi_def_cfa_offset 16
 350 01c0 23341100 		sd	ra,8(sp)
 351 01c4 23308100 		sd	s0,0(sp)
 352              		.cfi_offset 1, -8
 353              		.cfi_offset 8, -16
 354 01c8 13040101 		addi	s0,sp,16
 355              		.cfi_def_cfa 8, 0
  63:src/scb.cpp   ****     return MemoryAllocator::kmalloc(size);
 356              		.loc 1 63 5
 357              		.loc 1 63 36 is_stmt 0
 358 01cc 97000000 		call	_ZN15MemoryAllocator7kmallocEm@plt
 358      E7800000 
 359              	.LVL21:
  64:src/scb.cpp   **** }
 360              		.loc 1 64 1
 361 01d4 83308100 		ld	ra,8(sp)
 362              		.cfi_restore 1
 363 01d8 03340100 		ld	s0,0(sp)
 364              		.cfi_restore 8
 365              		.cfi_def_cfa 2, 16
 366 01dc 13010101 		addi	sp,sp,16
 367              		.cfi_def_cfa_offset 0
 368 01e0 67800000 		jr	ra
 369              		.cfi_endproc
 370              	.LFE42:
 372              		.align	2
 373              		.globl	_ZN3SCBdlEPv
 375              	_ZN3SCBdlEPv:
 376              	.LFB43:
  65:src/scb.cpp   **** 
  66:src/scb.cpp   **** //overload operator delete, to not use system call for every kernel object that is being deallocate
  67:src/scb.cpp   **** void SCB::operator delete(void *addr){
 377              		.loc 1 67 38 is_stmt 1
 378              		.cfi_startproc
 379              	.LVL22:
 380 01e4 130101FF 		addi	sp,sp,-16
 381              		.cfi_def_cfa_offset 16
 382 01e8 23341100 		sd	ra,8(sp)
 383 01ec 23308100 		sd	s0,0(sp)
 384              		.cfi_offset 1, -8
 385              		.cfi_offset 8, -16
 386 01f0 13040101 		addi	s0,sp,16
 387              		.cfi_def_cfa 8, 0
  68:src/scb.cpp   ****     MemoryAllocator::kfree(addr);
 388              		.loc 1 68 5
GAS LISTING /tmp/ccZmhVEo.s 			page 9


 389              		.loc 1 68 27 is_stmt 0
 390 01f4 97000000 		call	_ZN15MemoryAllocator5kfreeEPv@plt
 390      E7800000 
 391              	.LVL23:
  69:src/scb.cpp   **** }
 392              		.loc 1 69 1
 393 01fc 83308100 		ld	ra,8(sp)
 394              		.cfi_restore 1
 395 0200 03340100 		ld	s0,0(sp)
 396              		.cfi_restore 8
 397              		.cfi_def_cfa 2, 16
 398 0204 13010101 		addi	sp,sp,16
 399              		.cfi_def_cfa_offset 0
 400 0208 67800000 		jr	ra
 401              		.cfi_endproc
 402              	.LFE43:
 404              		.align	2
 405              		.globl	_ZN3SCB14semaphore_freeEPv
 407              	_ZN3SCB14semaphore_freeEPv:
 408              	.LFB44:
  70:src/scb.cpp   **** 
  71:src/scb.cpp   **** //syscall to free space that is taken up by semaphore
  72:src/scb.cpp   **** int SCB::semaphore_free(void *addr) {
 409              		.loc 1 72 37 is_stmt 1
 410              		.cfi_startproc
 411              	.LVL24:
 412 020c 130101FF 		addi	sp,sp,-16
 413              		.cfi_def_cfa_offset 16
 414 0210 23348100 		sd	s0,8(sp)
 415              		.cfi_offset 8, -8
 416 0214 13040101 		addi	s0,sp,16
 417              		.cfi_def_cfa 8, 0
  73:src/scb.cpp   ****     uint64 iptr = (uint64)addr;
 418              		.loc 1 73 5
 419              	.LVL25:
  74:src/scb.cpp   **** 
  75:src/scb.cpp   ****     asm("mv a1, %[iptr]" : : [iptr] "r" (iptr));  //put address in a1
 420              		.loc 1 75 5
 421              		.loc 1 75 48 is_stmt 0
 422              	#APP
 423              	# 75 "src/scb.cpp" 1
  76              	    asm("li a0, 0x52");  //put number of syscall in a0
 424              		mv a1, a0
 425              	# 0 "" 2
 426              		.loc 1 76 5 is_stmt 1
 427              		.loc 1 76 23 is_stmt 0
 428              	# 76 "src/scb.cpp" 1
  77              	    asm("ecall");
 429              		li a0, 0x52
 430              	# 0 "" 2
 431              		.loc 1 77 5 is_stmt 1
 432              		.loc 1 77 17 is_stmt 0
 433              	# 77 "src/scb.cpp" 1
  78              	
  79:src/scb.cpp   ****     uint64 status; //return status of mem_free
 434              		ecall
 435              	# 0 "" 2
GAS LISTING /tmp/ccZmhVEo.s 			page 10


 436              		.loc 1 79 5 is_stmt 1
  80:src/scb.cpp   **** 
  81:src/scb.cpp   ****     asm("mv %[status], a0" : [status] "=r" (status));
 437              		.loc 1 81 5
 438              		.loc 1 81 53 is_stmt 0
 439              	# 81 "src/scb.cpp" 1
  82              	    return status;
 440              		mv a0, a0
 441              	# 0 "" 2
 442              	.LVL26:
 443              		.loc 1 82 5 is_stmt 1
  83:src/scb.cpp   **** }
 444              		.loc 1 83 1 is_stmt 0
 445              	#NO_APP
 446 0228 1B050500 		sext.w	a0,a0
 447              	.LVL27:
 448 022c 03348100 		ld	s0,8(sp)
 449              		.cfi_restore 8
 450              		.cfi_def_cfa 2, 16
 451 0230 13010101 		addi	sp,sp,16
 452              		.cfi_def_cfa_offset 0
 453 0234 67800000 		jr	ra
 454              		.cfi_endproc
 455              	.LFE44:
 457              	.Letext0:
 458              		.file 2 "src/../h/../lib/hw.h"
 459              		.file 3 "src/../h/tcb.hpp"
 460              		.file 4 "src/../h/scb.hpp"
 461              		.file 5 "src/../h/scheduler.hpp"
 462              		.file 6 "src/../h/../h/utility.hpp"
 463              		.file 7 "src/../h/memoryAllocator.hpp"
 2928              		.align	3
 2931              	DW.ref.__gxx_personality_v0:
 2932 0000 00000000 		.dword	__gxx_personality_v0
 2932      00000000 
 2933              		.ident	"GCC: (Ubuntu 9.4.0-1ubuntu1~20.04) 9.4.0"
 2934              		.section	.note.GNU-stack,"",@progbits
GAS LISTING /tmp/ccZmhVEo.s 			page 11


DEFINED SYMBOLS
                            *ABS*:0000000000000000 scb.cpp
     /tmp/ccZmhVEo.s:9      .text:0000000000000000 _ZN3SCBC2Em
     /tmp/ccZmhVEo.s:13     .text:0000000000000000 .L0 
     /tmp/ccZmhVEo.s:15     .text:0000000000000000 .L0 
     /tmp/ccZmhVEo.s:16     .text:0000000000000004 .L0 
     /tmp/ccZmhVEo.s:18     .text:0000000000000008 .L0 
     /tmp/ccZmhVEo.s:20     .text:000000000000000c .L0 
     /tmp/ccZmhVEo.s:23     .text:000000000000000c .L0 
     /tmp/ccZmhVEo.s:24     .text:000000000000000c .L0 
     /tmp/ccZmhVEo.s:26     .text:0000000000000010 .L0 
     /tmp/ccZmhVEo.s:27     .text:0000000000000010 .L0 
     /tmp/ccZmhVEo.s:29     .text:0000000000000014 .L0 
     /tmp/ccZmhVEo.s:30     .text:0000000000000014 .L0 
     /tmp/ccZmhVEo.s:33     .text:0000000000000018 .L0 
     /tmp/ccZmhVEo.s:34     .text:000000000000001c .L0 
     /tmp/ccZmhVEo.s:35     .text:000000000000001c .L0 
     /tmp/ccZmhVEo.s:37     .text:0000000000000020 .L0 
     /tmp/ccZmhVEo.s:39     .text:0000000000000024 .L0 
     /tmp/ccZmhVEo.s:9      .text:0000000000000000 _ZN3SCBC1Em
     /tmp/ccZmhVEo.s:47     .text:0000000000000024 _ZN3SCBD2Ev
     /tmp/ccZmhVEo.s:50     .text:0000000000000024 .L0 
     /tmp/ccZmhVEo.s:2931   .data.rel.local.DW.ref.__gxx_personality_v0:0000000000000000 DW.ref.__gxx_personality_v0
     /tmp/ccZmhVEo.s:54     .text:0000000000000024 .L0 
     /tmp/ccZmhVEo.s:55     .text:0000000000000028 .L0 
     /tmp/ccZmhVEo.s:60     .text:0000000000000038 .L0 
     /tmp/ccZmhVEo.s:61     .text:0000000000000038 .L0 
     /tmp/ccZmhVEo.s:62     .text:0000000000000038 .L0 
     /tmp/ccZmhVEo.s:63     .text:0000000000000038 .L0 
     /tmp/ccZmhVEo.s:65     .text:000000000000003c .L0 
     /tmp/ccZmhVEo.s:69     .text:0000000000000040 .L0 
     /tmp/ccZmhVEo.s:70     .text:0000000000000040 .L0 
     /tmp/ccZmhVEo.s:74     .text:0000000000000044 .L0 
     /tmp/ccZmhVEo.s:75     .text:0000000000000044 .L0 
     /tmp/ccZmhVEo.s:79     .text:0000000000000048 .L0 
     /tmp/ccZmhVEo.s:80     .text:0000000000000048 .L0 
     /tmp/ccZmhVEo.s:81     .text:0000000000000048 .L0 
     /tmp/ccZmhVEo.s:84     .text:000000000000004c .L0 
     /tmp/ccZmhVEo.s:85     .text:000000000000004c .L0 
     /tmp/ccZmhVEo.s:87     .text:0000000000000050 .L0 
     /tmp/ccZmhVEo.s:88     .text:0000000000000050 .L0 
     /tmp/ccZmhVEo.s:90     .text:0000000000000054 .L0 
     /tmp/ccZmhVEo.s:91     .text:0000000000000054 .L0 
     /tmp/ccZmhVEo.s:94     .text:000000000000005c .L0 
     /tmp/ccZmhVEo.s:97     .text:0000000000000060 .L0 
     /tmp/ccZmhVEo.s:102    .text:0000000000000064 .L0 
     /tmp/ccZmhVEo.s:103    .text:0000000000000068 .L0 
     /tmp/ccZmhVEo.s:105    .text:000000000000006c .L0 
     /tmp/ccZmhVEo.s:106    .text:000000000000006c .L0 
     /tmp/ccZmhVEo.s:108    .text:0000000000000070 .L0 
     /tmp/ccZmhVEo.s:110    .text:0000000000000074 .L0 
     /tmp/ccZmhVEo.s:113    .text:0000000000000078 .L0 
     /tmp/ccZmhVEo.s:115    .text:000000000000007c .L0 
     /tmp/ccZmhVEo.s:47     .text:0000000000000024 _ZN3SCBD1Ev
     /tmp/ccZmhVEo.s:131    .text:000000000000007c _ZN3SCB5blockEv
     /tmp/ccZmhVEo.s:134    .text:000000000000007c .L0 
     /tmp/ccZmhVEo.s:136    .text:000000000000007c .L0 
GAS LISTING /tmp/ccZmhVEo.s 			page 12


     /tmp/ccZmhVEo.s:137    .text:0000000000000080 .L0 
     /tmp/ccZmhVEo.s:140    .text:0000000000000088 .L0 
     /tmp/ccZmhVEo.s:141    .text:0000000000000088 .L0 
     /tmp/ccZmhVEo.s:143    .text:000000000000008c .L0 
     /tmp/ccZmhVEo.s:145    .text:000000000000008c .L0 
     /tmp/ccZmhVEo.s:146    .text:000000000000008c .L0 
     /tmp/ccZmhVEo.s:148    .text:0000000000000090 .L0 
     /tmp/ccZmhVEo.s:150    .text:0000000000000094 .L0 
     /tmp/ccZmhVEo.s:152    .text:0000000000000098 .L0 
     /tmp/ccZmhVEo.s:157    .text:00000000000000a8 .L0 
     /tmp/ccZmhVEo.s:159    .text:00000000000000ac .L0 
     /tmp/ccZmhVEo.s:160    .text:00000000000000ac .L0 
     /tmp/ccZmhVEo.s:162    .text:00000000000000b0 .L0 
     /tmp/ccZmhVEo.s:163    .text:00000000000000b0 .L0 
     /tmp/ccZmhVEo.s:166    .text:00000000000000b8 .L0 
     /tmp/ccZmhVEo.s:167    .text:00000000000000b8 .L0 
     /tmp/ccZmhVEo.s:170    .text:00000000000000c0 .L0 
     /tmp/ccZmhVEo.s:171    .text:00000000000000c4 .L0 
     /tmp/ccZmhVEo.s:172    .text:00000000000000c4 .L0 
     /tmp/ccZmhVEo.s:174    .text:00000000000000c8 .L0 
     /tmp/ccZmhVEo.s:175    .text:00000000000000c8 .L0 
     /tmp/ccZmhVEo.s:177    .text:00000000000000cc .L0 
     /tmp/ccZmhVEo.s:181    .text:00000000000000d0 .L0 
     /tmp/ccZmhVEo.s:183    .text:00000000000000d0 .L0 
     /tmp/ccZmhVEo.s:187    .text:00000000000000e4 .L0 
     /tmp/ccZmhVEo.s:193    .text:00000000000000e4 _ZN3SCB7deblockEv
     /tmp/ccZmhVEo.s:196    .text:00000000000000e4 .L0 
     /tmp/ccZmhVEo.s:198    .text:00000000000000e4 .L0 
     /tmp/ccZmhVEo.s:200    .text:00000000000000e8 .L0 
     /tmp/ccZmhVEo.s:201    .text:00000000000000e8 .L0 
     /tmp/ccZmhVEo.s:204    .text:00000000000000ec .L0 
     /tmp/ccZmhVEo.s:205    .text:00000000000000ec .L0 
     /tmp/ccZmhVEo.s:207    .text:00000000000000f0 .L0 
     /tmp/ccZmhVEo.s:209    .text:00000000000000f4 .L0 
     /tmp/ccZmhVEo.s:210    .text:00000000000000f4 .L0 
     /tmp/ccZmhVEo.s:212    .text:00000000000000f8 .L0 
     /tmp/ccZmhVEo.s:214    .text:00000000000000fc .L0 
     /tmp/ccZmhVEo.s:215    .text:0000000000000100 .L0 
     /tmp/ccZmhVEo.s:218    .text:0000000000000108 .L0 
     /tmp/ccZmhVEo.s:219    .text:0000000000000108 .L0 
     /tmp/ccZmhVEo.s:221    .text:000000000000010c .L0 
     /tmp/ccZmhVEo.s:223    .text:000000000000010c .L0 
     /tmp/ccZmhVEo.s:224    .text:000000000000010c .L0 
     /tmp/ccZmhVEo.s:228    .text:0000000000000114 .L0 
     /tmp/ccZmhVEo.s:229    .text:0000000000000114 .L0 
     /tmp/ccZmhVEo.s:232    .text:000000000000011c .L0 
     /tmp/ccZmhVEo.s:233    .text:0000000000000120 .L0 
     /tmp/ccZmhVEo.s:235    .text:0000000000000124 .L0 
     /tmp/ccZmhVEo.s:236    .text:0000000000000124 .L0 
     /tmp/ccZmhVEo.s:238    .text:0000000000000128 .L0 
     /tmp/ccZmhVEo.s:243    .text:0000000000000130 .L0 
     /tmp/ccZmhVEo.s:249    .text:0000000000000130 _ZN3SCB4waitEv
     /tmp/ccZmhVEo.s:252    .text:0000000000000130 .L0 
     /tmp/ccZmhVEo.s:254    .text:0000000000000130 .L0 
     /tmp/ccZmhVEo.s:255    .text:0000000000000130 .L0 
     /tmp/ccZmhVEo.s:256    .text:0000000000000130 .L0 
     /tmp/ccZmhVEo.s:259    .text:000000000000013c .L0 
GAS LISTING /tmp/ccZmhVEo.s 			page 13


     /tmp/ccZmhVEo.s:261    .text:0000000000000140 .L0 
     /tmp/ccZmhVEo.s:262    .text:0000000000000140 .L0 
     /tmp/ccZmhVEo.s:264    .text:0000000000000144 .L0 
     /tmp/ccZmhVEo.s:266    .text:0000000000000148 .L0 
     /tmp/ccZmhVEo.s:268    .text:000000000000014c .L0 
     /tmp/ccZmhVEo.s:273    .text:0000000000000158 .L0 
     /tmp/ccZmhVEo.s:274    .text:000000000000015c .L0 
     /tmp/ccZmhVEo.s:277    .text:0000000000000164 .L0 
     /tmp/ccZmhVEo.s:278    .text:0000000000000164 .L0 
     /tmp/ccZmhVEo.s:280    .text:0000000000000168 .L0 
     /tmp/ccZmhVEo.s:282    .text:0000000000000168 .L0 
     /tmp/ccZmhVEo.s:283    .text:0000000000000168 .L0 
     /tmp/ccZmhVEo.s:286    .text:0000000000000170 .L0 
     /tmp/ccZmhVEo.s:287    .text:0000000000000174 .L0 
     /tmp/ccZmhVEo.s:289    .text:0000000000000178 .L0 
     /tmp/ccZmhVEo.s:290    .text:0000000000000178 .L0 
     /tmp/ccZmhVEo.s:292    .text:000000000000017c .L0 
     /tmp/ccZmhVEo.s:294    .text:0000000000000180 .L0 
     /tmp/ccZmhVEo.s:300    .text:0000000000000180 _ZN3SCB6signalEv
     /tmp/ccZmhVEo.s:303    .text:0000000000000180 .L0 
     /tmp/ccZmhVEo.s:305    .text:0000000000000180 .L0 
     /tmp/ccZmhVEo.s:306    .text:0000000000000180 .L0 
     /tmp/ccZmhVEo.s:307    .text:0000000000000180 .L0 
     /tmp/ccZmhVEo.s:309    .text:0000000000000184 .L0 
     /tmp/ccZmhVEo.s:312    .text:000000000000018c .L0 
     /tmp/ccZmhVEo.s:316    .text:0000000000000194 .L0 
     /tmp/ccZmhVEo.s:317    .text:0000000000000198 .L0 
     /tmp/ccZmhVEo.s:320    .text:00000000000001a0 .L0 
     /tmp/ccZmhVEo.s:321    .text:00000000000001a0 .L0 
     /tmp/ccZmhVEo.s:323    .text:00000000000001a4 .L0 
     /tmp/ccZmhVEo.s:325    .text:00000000000001a4 .L0 
     /tmp/ccZmhVEo.s:326    .text:00000000000001a4 .L0 
     /tmp/ccZmhVEo.s:329    .text:00000000000001ac .L0 
     /tmp/ccZmhVEo.s:330    .text:00000000000001b0 .L0 
     /tmp/ccZmhVEo.s:332    .text:00000000000001b4 .L0 
     /tmp/ccZmhVEo.s:333    .text:00000000000001b4 .L0 
     /tmp/ccZmhVEo.s:335    .text:00000000000001b8 .L0 
     /tmp/ccZmhVEo.s:337    .text:00000000000001bc .L0 
     /tmp/ccZmhVEo.s:343    .text:00000000000001bc _ZN3SCBnwEm
     /tmp/ccZmhVEo.s:346    .text:00000000000001bc .L0 
     /tmp/ccZmhVEo.s:348    .text:00000000000001bc .L0 
     /tmp/ccZmhVEo.s:349    .text:00000000000001c0 .L0 
     /tmp/ccZmhVEo.s:352    .text:00000000000001c8 .L0 
     /tmp/ccZmhVEo.s:353    .text:00000000000001c8 .L0 
     /tmp/ccZmhVEo.s:355    .text:00000000000001cc .L0 
     /tmp/ccZmhVEo.s:357    .text:00000000000001cc .L0 
     /tmp/ccZmhVEo.s:358    .text:00000000000001cc .L0 
     /tmp/ccZmhVEo.s:361    .text:00000000000001d4 .L0 
     /tmp/ccZmhVEo.s:362    .text:00000000000001d8 .L0 
     /tmp/ccZmhVEo.s:364    .text:00000000000001dc .L0 
     /tmp/ccZmhVEo.s:365    .text:00000000000001dc .L0 
     /tmp/ccZmhVEo.s:367    .text:00000000000001e0 .L0 
     /tmp/ccZmhVEo.s:369    .text:00000000000001e4 .L0 
     /tmp/ccZmhVEo.s:375    .text:00000000000001e4 _ZN3SCBdlEPv
     /tmp/ccZmhVEo.s:378    .text:00000000000001e4 .L0 
     /tmp/ccZmhVEo.s:380    .text:00000000000001e4 .L0 
     /tmp/ccZmhVEo.s:381    .text:00000000000001e8 .L0 
GAS LISTING /tmp/ccZmhVEo.s 			page 14


     /tmp/ccZmhVEo.s:384    .text:00000000000001f0 .L0 
     /tmp/ccZmhVEo.s:385    .text:00000000000001f0 .L0 
     /tmp/ccZmhVEo.s:387    .text:00000000000001f4 .L0 
     /tmp/ccZmhVEo.s:389    .text:00000000000001f4 .L0 
     /tmp/ccZmhVEo.s:390    .text:00000000000001f4 .L0 
     /tmp/ccZmhVEo.s:393    .text:00000000000001fc .L0 
     /tmp/ccZmhVEo.s:394    .text:0000000000000200 .L0 
     /tmp/ccZmhVEo.s:396    .text:0000000000000204 .L0 
     /tmp/ccZmhVEo.s:397    .text:0000000000000204 .L0 
     /tmp/ccZmhVEo.s:399    .text:0000000000000208 .L0 
     /tmp/ccZmhVEo.s:401    .text:000000000000020c .L0 
     /tmp/ccZmhVEo.s:407    .text:000000000000020c _ZN3SCB14semaphore_freeEPv
     /tmp/ccZmhVEo.s:410    .text:000000000000020c .L0 
     /tmp/ccZmhVEo.s:412    .text:000000000000020c .L0 
     /tmp/ccZmhVEo.s:413    .text:0000000000000210 .L0 
     /tmp/ccZmhVEo.s:415    .text:0000000000000214 .L0 
     /tmp/ccZmhVEo.s:417    .text:0000000000000218 .L0 
     /tmp/ccZmhVEo.s:420    .text:0000000000000218 .L0 
     /tmp/ccZmhVEo.s:421    .text:0000000000000218 .L0 
         src/scb.cpp:75     .text:0000000000000218 .L0 
     /tmp/ccZmhVEo.s:427    .text:000000000000021c .L0 
         src/scb.cpp:76     .text:000000000000021c .L0 
     /tmp/ccZmhVEo.s:432    .text:0000000000000220 .L0 
         src/scb.cpp:77     .text:0000000000000220 .L0 
     /tmp/ccZmhVEo.s:437    .text:0000000000000224 .L0 
     /tmp/ccZmhVEo.s:438    .text:0000000000000224 .L0 
         src/scb.cpp:81     .text:0000000000000224 .L0 
     /tmp/ccZmhVEo.s:444    .text:0000000000000228 .L0 
     /tmp/ccZmhVEo.s:446    .text:0000000000000228 .L0 
     /tmp/ccZmhVEo.s:449    .text:0000000000000230 .L0 
     /tmp/ccZmhVEo.s:450    .text:0000000000000230 .L0 
     /tmp/ccZmhVEo.s:452    .text:0000000000000234 .L0 
     /tmp/ccZmhVEo.s:454    .text:0000000000000238 .L0 
     /tmp/ccZmhVEo.s:464    .text:0000000000000238 .L0 
     /tmp/ccZmhVEo.s:152    .text:0000000000000098 .L0 
     /tmp/ccZmhVEo.s:183    .text:00000000000000d0 .L0 
     /tmp/ccZmhVEo.s:256    .text:0000000000000130 .L0 
     /tmp/ccZmhVEo.s:99     .text:0000000000000064 .L3
     /tmp/ccZmhVEo.s:72     .text:0000000000000044 .L5
     /tmp/ccZmhVEo.s:180    .text:00000000000000d0 .L11
     /tmp/ccZmhVEo.s:155    .text:00000000000000a8 .L9
     /tmp/ccZmhVEo.s:241    .text:000000000000012c .L15
     /tmp/ccZmhVEo.s:271    .text:0000000000000158 .L24
     /tmp/ccZmhVEo.s:314    .text:0000000000000194 .L31
     /tmp/ccZmhVEo.s:1591   .debug_abbrev:0000000000000000 .Ldebug_abbrev0
     /tmp/ccZmhVEo.s:2871   .debug_str:00000000000005c6 .LASF123
     /tmp/ccZmhVEo.s:2877   .debug_str:0000000000000699 .LASF124
     /tmp/ccZmhVEo.s:2685   .debug_str:0000000000000089 .LASF125
     /tmp/ccZmhVEo.s:5      .text:0000000000000000 .Ltext0
     /tmp/ccZmhVEo.s:457    .text:0000000000000238 .Letext0
     /tmp/ccZmhVEo.s:2659   .debug_line:0000000000000000 .Ldebug_line0
     /tmp/ccZmhVEo.s:2757   .debug_str:0000000000000290 .LASF0
     /tmp/ccZmhVEo.s:2771   .debug_str:00000000000002ea .LASF1
     /tmp/ccZmhVEo.s:2823   .debug_str:000000000000047f .LASF2
     /tmp/ccZmhVEo.s:2827   .debug_str:00000000000004ac .LASF4
     /tmp/ccZmhVEo.s:2763   .debug_str:00000000000002ad .LASF3
     /tmp/ccZmhVEo.s:2675   .debug_str:0000000000000060 .LASF5
GAS LISTING /tmp/ccZmhVEo.s 			page 15


     /tmp/ccZmhVEo.s:2803   .debug_str:00000000000003d1 .LASF6
     /tmp/ccZmhVEo.s:2767   .debug_str:00000000000002d2 .LASF7
     /tmp/ccZmhVEo.s:2743   .debug_str:0000000000000237 .LASF8
     /tmp/ccZmhVEo.s:2747   .debug_str:0000000000000253 .LASF9
     /tmp/ccZmhVEo.s:2699   .debug_str:0000000000000104 .LASF10
     /tmp/ccZmhVEo.s:2735   .debug_str:0000000000000213 .LASF11
     /tmp/ccZmhVEo.s:2711   .debug_str:0000000000000184 .LASF12
     /tmp/ccZmhVEo.s:2697   .debug_str:00000000000000f4 .LASF13
     /tmp/ccZmhVEo.s:2851   .debug_str:000000000000056f .LASF14
     /tmp/ccZmhVEo.s:2731   .debug_str:00000000000001f6 .LASF15
     /tmp/ccZmhVEo.s:2843   .debug_str:00000000000004fc .LASF16
     /tmp/ccZmhVEo.s:2777   .debug_str:0000000000000319 .LASF17
     /tmp/ccZmhVEo.s:2859   .debug_str:000000000000059a .LASF98
     /tmp/ccZmhVEo.s:2913   .debug_str:000000000000077b .LASF22
     /tmp/ccZmhVEo.s:2835   .debug_str:00000000000004d1 .LASF18
     /tmp/ccZmhVEo.s:2861   .debug_str:00000000000005a2 .LASF19
     /tmp/ccZmhVEo.s:2689   .debug_str:00000000000000bf .LASF20
     /tmp/ccZmhVEo.s:2663   .debug_str:0000000000000005 .LASF21
     /tmp/ccZmhVEo.s:2749   .debug_str:0000000000000261 .LASF23
     /tmp/ccZmhVEo.s:2761   .debug_str:00000000000002a8 .LASF24
     /tmp/ccZmhVEo.s:2759   .debug_str:000000000000029d .LASF25
     /tmp/ccZmhVEo.s:2707   .debug_str:000000000000016e .LASF26
     /tmp/ccZmhVEo.s:2847   .debug_str:0000000000000535 .LASF27
     /tmp/ccZmhVEo.s:2795   .debug_str:0000000000000395 .LASF28
     /tmp/ccZmhVEo.s:2829   .debug_str:00000000000004b3 .LASF29
     /tmp/ccZmhVEo.s:2671   .debug_str:000000000000004a .LASF31
     /tmp/ccZmhVEo.s:2889   .debug_str:00000000000006e7 .LASF33
     /tmp/ccZmhVEo.s:2887   .debug_str:00000000000006d4 .LASF35
     /tmp/ccZmhVEo.s:2923   .debug_str:00000000000007af .LASF30
     /tmp/ccZmhVEo.s:2745   .debug_str:0000000000000247 .LASF32
     /tmp/ccZmhVEo.s:2667   .debug_str:0000000000000012 .LASF34
     /tmp/ccZmhVEo.s:2789   .debug_str:000000000000035d .LASF36
     /tmp/ccZmhVEo.s:2701   .debug_str:0000000000000113 .LASF37
     /tmp/ccZmhVEo.s:2719   .debug_str:00000000000001b3 .LASF38
     /tmp/ccZmhVEo.s:2721   .debug_str:00000000000001c2 .LASF39
     /tmp/ccZmhVEo.s:2765   .debug_str:00000000000002bf .LASF41
     /tmp/ccZmhVEo.s:2841   .debug_str:00000000000004f1 .LASF40
     /tmp/ccZmhVEo.s:2797   .debug_str:000000000000039a .LASF42
     /tmp/ccZmhVEo.s:2805   .debug_str:00000000000003e4 .LASF43
     /tmp/ccZmhVEo.s:2709   .debug_str:000000000000017a .LASF44
     /tmp/ccZmhVEo.s:2715   .debug_str:0000000000000199 .LASF45
     /tmp/ccZmhVEo.s:2669   .debug_str:0000000000000022 .LASF46
     /tmp/ccZmhVEo.s:2891   .debug_str:00000000000006ef .LASF47
     /tmp/ccZmhVEo.s:2881   .debug_str:00000000000006af .LASF48
     /tmp/ccZmhVEo.s:2883   .debug_str:00000000000006c7 .LASF49
     /tmp/ccZmhVEo.s:2895   .debug_str:0000000000000707 .LASF50
     /tmp/ccZmhVEo.s:2867   .debug_str:00000000000005b9 .LASF51
     /tmp/ccZmhVEo.s:2665   .debug_str:000000000000000d .LASF52
     /tmp/ccZmhVEo.s:2921   .debug_str:00000000000007aa .LASF53
     /tmp/ccZmhVEo.s:2779   .debug_str:000000000000031e .LASF54
     /tmp/ccZmhVEo.s:2875   .debug_str:000000000000068f .LASF55
     /tmp/ccZmhVEo.s:2873   .debug_str:000000000000068a .LASF56
     /tmp/ccZmhVEo.s:2901   .debug_str:0000000000000725 .LASF57
     /tmp/ccZmhVEo.s:2677   .debug_str:0000000000000067 .LASF58
     /tmp/ccZmhVEo.s:2879   .debug_str:00000000000006a5 .LASF59
     /tmp/ccZmhVEo.s:2783   .debug_str:0000000000000343 .LASF60
     /tmp/ccZmhVEo.s:2905   .debug_str:000000000000073c .LASF61
GAS LISTING /tmp/ccZmhVEo.s 			page 16


     /tmp/ccZmhVEo.s:2683   .debug_str:000000000000007e .LASF62
     /tmp/ccZmhVEo.s:2869   .debug_str:00000000000005be .LASF63
     /tmp/ccZmhVEo.s:2725   .debug_str:00000000000001d0 .LASF64
     /tmp/ccZmhVEo.s:2831   .debug_str:00000000000004b8 .LASF65
     /tmp/ccZmhVEo.s:2839   .debug_str:00000000000004e5 .LASF66
     /tmp/ccZmhVEo.s:2717   .debug_str:00000000000001a7 .LASF67
     /tmp/ccZmhVEo.s:2815   .debug_str:000000000000044e .LASF68
     /tmp/ccZmhVEo.s:2885   .debug_str:00000000000006cf .LASF69
     /tmp/ccZmhVEo.s:2787   .debug_str:0000000000000351 .LASF70
     /tmp/ccZmhVEo.s:2723   .debug_str:00000000000001cb .LASF71
     /tmp/ccZmhVEo.s:2903   .debug_str:000000000000072d .LASF72
     /tmp/ccZmhVEo.s:2855   .debug_str:0000000000000588 .LASF73
     /tmp/ccZmhVEo.s:2801   .debug_str:00000000000003c0 .LASF74
     /tmp/ccZmhVEo.s:2755   .debug_str:000000000000028a .LASF75
     /tmp/ccZmhVEo.s:2811   .debug_str:0000000000000420 .LASF76
     /tmp/ccZmhVEo.s:2917   .debug_str:0000000000000796 .LASF77
     /tmp/ccZmhVEo.s:2909   .debug_str:000000000000074d .LASF78
     /tmp/ccZmhVEo.s:2809   .debug_str:0000000000000411 .LASF79
     /tmp/ccZmhVEo.s:2705   .debug_str:0000000000000153 .LASF80
     /tmp/ccZmhVEo.s:2865   .debug_str:00000000000005ad .LASF81
     /tmp/ccZmhVEo.s:2853   .debug_str:000000000000057b .LASF126
     /tmp/ccZmhVEo.s:2741   .debug_str:000000000000022d .LASF82
     /tmp/ccZmhVEo.s:2821   .debug_str:0000000000000475 .LASF83
     /tmp/ccZmhVEo.s:2897   .debug_str:000000000000070e .LASF84
     /tmp/ccZmhVEo.s:2693   .debug_str:00000000000000e2 .LASF85
     /tmp/ccZmhVEo.s:2751   .debug_str:0000000000000266 .LASF127
     /tmp/ccZmhVEo.s:2915   .debug_str:0000000000000782 .LASF128
     /tmp/ccZmhVEo.s:2773   .debug_str:00000000000002fd .LASF86
     /tmp/ccZmhVEo.s:2691   .debug_str:00000000000000c8 .LASF87
     /tmp/ccZmhVEo.s:2681   .debug_str:0000000000000078 .LASF88
     /tmp/ccZmhVEo.s:2775   .debug_str:0000000000000303 .LASF89
     /tmp/ccZmhVEo.s:2911   .debug_str:000000000000075f .LASF90
     /tmp/ccZmhVEo.s:2727   .debug_str:00000000000001db .LASF91
     /tmp/ccZmhVEo.s:2825   .debug_str:000000000000048d .LASF93
     /tmp/ccZmhVEo.s:2899   .debug_str:0000000000000718 .LASF92
     /tmp/ccZmhVEo.s:2813   .debug_str:0000000000000430 .LASF94
     /tmp/ccZmhVEo.s:2863   .debug_str:00000000000005a8 .LASF95
     /tmp/ccZmhVEo.s:2833   .debug_str:00000000000004c9 .LASF96
     /tmp/ccZmhVEo.s:2799   .debug_str:00000000000003b0 .LASF97
     /tmp/ccZmhVEo.s:2837   .debug_str:00000000000004d9 .LASF99
     /tmp/ccZmhVEo.s:2769   .debug_str:00000000000002e5 .LASF100
     /tmp/ccZmhVEo.s:2661   .debug_str:0000000000000000 .LASF101
     /tmp/ccZmhVEo.s:2819   .debug_str:0000000000000469 .LASF102
     /tmp/ccZmhVEo.s:2679   .debug_str:000000000000006c .LASF103
     /tmp/ccZmhVEo.s:2729   .debug_str:00000000000001e9 .LASF104
     /tmp/ccZmhVEo.s:2791   .debug_str:000000000000036a .LASF105
     /tmp/ccZmhVEo.s:2753   .debug_str:000000000000027e .LASF106
     /tmp/ccZmhVEo.s:2907   .debug_str:0000000000000745 .LASF107
     /tmp/ccZmhVEo.s:2781   .debug_str:0000000000000324 .LASF108
     /tmp/ccZmhVEo.s:2739   .debug_str:0000000000000227 .LASF109
     /tmp/ccZmhVEo.s:2793   .debug_str:0000000000000377 .LASF110
     /tmp/ccZmhVEo.s:2817   .debug_str:000000000000045a .LASF111
     /tmp/ccZmhVEo.s:2703   .debug_str:0000000000000118 .LASF112
     /tmp/ccZmhVEo.s:2845   .debug_str:0000000000000512 .LASF113
     /tmp/ccZmhVEo.s:2857   .debug_str:000000000000058f .LASF114
     /tmp/ccZmhVEo.s:2849   .debug_str:000000000000054c .LASF115
     /tmp/ccZmhVEo.s:2733   .debug_str:000000000000020c .LASF116
GAS LISTING /tmp/ccZmhVEo.s 			page 17


     /tmp/ccZmhVEo.s:2807   .debug_str:00000000000003ee .LASF117
     /tmp/ccZmhVEo.s:408    .text:000000000000020c .LFB44
     /tmp/ccZmhVEo.s:455    .text:0000000000000238 .LFE44
     /tmp/ccZmhVEo.s:2695   .debug_str:00000000000000ef .LASF119
     /tmp/ccZmhVEo.s:2464   .debug_loc:0000000000000000 .LLST10
     /tmp/ccZmhVEo.s:2713   .debug_str:0000000000000194 .LASF118
     /tmp/ccZmhVEo.s:2478   .debug_loc:0000000000000039 .LLST11
     /tmp/ccZmhVEo.s:2492   .debug_loc:0000000000000072 .LLST12
     /tmp/ccZmhVEo.s:376    .text:00000000000001e4 .LFB43
     /tmp/ccZmhVEo.s:402    .text:000000000000020c .LFE43
     /tmp/ccZmhVEo.s:2499   .debug_loc:0000000000000095 .LLST9
     /tmp/ccZmhVEo.s:391    .text:00000000000001fc .LVL23
     /tmp/ccZmhVEo.s:344    .text:00000000000001bc .LFB42
     /tmp/ccZmhVEo.s:370    .text:00000000000001e4 .LFE42
     /tmp/ccZmhVEo.s:2513   .debug_loc:00000000000000ce .LLST8
     /tmp/ccZmhVEo.s:359    .text:00000000000001d4 .LVL21
     /tmp/ccZmhVEo.s:301    .text:0000000000000180 .LFB41
     /tmp/ccZmhVEo.s:338    .text:00000000000001bc .LFE41
     /tmp/ccZmhVEo.s:2737   .debug_str:0000000000000222 .LASF120
     /tmp/ccZmhVEo.s:2527   .debug_loc:0000000000000107 .LLST7
     /tmp/ccZmhVEo.s:327    .text:00000000000001ac .LVL19
     /tmp/ccZmhVEo.s:250    .text:0000000000000130 .LFB40
     /tmp/ccZmhVEo.s:295    .text:0000000000000180 .LFE40
     /tmp/ccZmhVEo.s:2541   .debug_loc:0000000000000140 .LLST6
     /tmp/ccZmhVEo.s:284    .text:0000000000000170 .LVL17
     /tmp/ccZmhVEo.s:194    .text:00000000000000e4 .LFB39
     /tmp/ccZmhVEo.s:244    .text:0000000000000130 .LFE39
     /tmp/ccZmhVEo.s:2555   .debug_loc:0000000000000179 .LLST4
     /tmp/ccZmhVEo.s:2577   .debug_loc:00000000000001d8 .LLST5
     /tmp/ccZmhVEo.s:230    .text:000000000000011c .LVL14
     /tmp/ccZmhVEo.s:132    .text:000000000000007c .LFB38
     /tmp/ccZmhVEo.s:188    .text:00000000000000e4 .LFE38
     /tmp/ccZmhVEo.s:2588   .debug_loc:000000000000020e .LLST3
     /tmp/ccZmhVEo.s:168    .text:00000000000000c0 .LVL9
     /tmp/ccZmhVEo.s:2673   .debug_str:0000000000000056 .LASF121
     /tmp/ccZmhVEo.s:2785   .debug_str:000000000000034c .LASF122
     /tmp/ccZmhVEo.s:2893   .debug_str:00000000000006fb .LASF129
     /tmp/ccZmhVEo.s:48     .text:0000000000000024 .LFB36
     /tmp/ccZmhVEo.s:116    .text:000000000000007c .LFE36
     /tmp/ccZmhVEo.s:2606   .debug_loc:000000000000025a .LLST0
     /tmp/ccZmhVEo.s:92     .text:000000000000005c .LVL5
     /tmp/ccZmhVEo.s:67     .text:0000000000000040 .LBB3
     /tmp/ccZmhVEo.s:100    .text:0000000000000064 .LBE3
     /tmp/ccZmhVEo.s:2624   .debug_loc:00000000000002a6 .LLST1
     /tmp/ccZmhVEo.s:76     .text:0000000000000048 .LBB4
     /tmp/ccZmhVEo.s:95     .text:0000000000000060 .LBE4
     /tmp/ccZmhVEo.s:2639   .debug_loc:00000000000002ef .LLST2
     /tmp/ccZmhVEo.s:2687   .debug_str:00000000000000ba .LASF130
     /tmp/ccZmhVEo.s:2919   .debug_str:000000000000079e .LASF131
     /tmp/ccZmhVEo.s:10     .text:0000000000000000 .LFB33
     /tmp/ccZmhVEo.s:40     .text:0000000000000024 .LFE33
     /tmp/ccZmhVEo.s:411    .text:000000000000020c .LVL24
     /tmp/ccZmhVEo.s:442    .text:0000000000000228 .LVL26
     /tmp/ccZmhVEo.s:419    .text:0000000000000218 .LVL25
     /tmp/ccZmhVEo.s:447    .text:000000000000022c .LVL27
     /tmp/ccZmhVEo.s:379    .text:00000000000001e4 .LVL22
     /tmp/ccZmhVEo.s:347    .text:00000000000001bc .LVL20
GAS LISTING /tmp/ccZmhVEo.s 			page 18


     /tmp/ccZmhVEo.s:304    .text:0000000000000180 .LVL18
     /tmp/ccZmhVEo.s:253    .text:0000000000000130 .LVL16
     /tmp/ccZmhVEo.s:197    .text:00000000000000e4 .LVL11
     /tmp/ccZmhVEo.s:202    .text:00000000000000ec .LVL12
     /tmp/ccZmhVEo.s:225    .text:0000000000000110 .LVL13
     /tmp/ccZmhVEo.s:240    .text:000000000000012c .LVL15
     /tmp/ccZmhVEo.s:135    .text:000000000000007c .LVL8
     /tmp/ccZmhVEo.s:179    .text:00000000000000d0 .LVL10
     /tmp/ccZmhVEo.s:53     .text:0000000000000024 .LVL1
     /tmp/ccZmhVEo.s:71     .text:0000000000000044 .LVL2
     /tmp/ccZmhVEo.s:111    .text:0000000000000074 .LVL7
     /tmp/ccZmhVEo.s:82     .text:000000000000004c .LVL4
     /tmp/ccZmhVEo.s:98     .text:0000000000000064 .LVL6
     /tmp/ccZmhVEo.s:78     .text:0000000000000048 .LVL3
     /tmp/ccZmhVEo.s:465    .debug_info:0000000000000000 .Ldebug_info0
     /tmp/ccZmhVEo.s:119    .gcc_except_table:0000000000000000 .LLSDA36

UNDEFINED SYMBOLS
_ZN9Scheduler3putEP3TCB
__gxx_personality_v0
_ZN3TCB7runningE
_ZN3TCB8dispatchEv
_ZN15MemoryAllocator7kmallocEm
_ZN15MemoryAllocator5kfreeEPv
