GAS LISTING /tmp/ccTGSfYM.s 			page 1


   1              		.file	"scb.cpp"
   2              		.option pic
   3              		.option norelax
   4              		.text
   5              	.Ltext0:
   6              		.align	2
   7              		.globl	_ZN3SCB4ctorEPv
   9              	_ZN3SCB4ctorEPv:
  10              	.LFB36:
  11              		.file 1 "src/scb.cpp"
   1:src/scb.cpp   **** //
   2:src/scb.cpp   **** // Created by os on 5/23/22.
   3:src/scb.cpp   **** //
   4:src/scb.cpp   **** 
   5:src/scb.cpp   **** #include "../h/scb.hpp"
   6:src/scb.cpp   **** #include "../h/scheduler.hpp"
   7:src/scb.cpp   **** #include "../h/memoryAllocator.hpp"
   8:src/scb.cpp   **** #include "../h/printing.hpp"
   9:src/scb.cpp   **** #include "../h/consoleUtil.hpp"
  10:src/scb.cpp   **** 
  11:src/scb.cpp   **** kmem_cache_t* SCB::scbCache = nullptr;
  12:src/scb.cpp   **** 
  13:src/scb.cpp   **** void SCB::initialize() {
  14:src/scb.cpp   ****     SCB::scbCache = kmem_cache_create("SCB Cache", sizeof(SCB), SCB::ctor, SCB::dtor);
  15:src/scb.cpp   **** }
  16:src/scb.cpp   **** 
  17:src/scb.cpp   **** SCB::SCB(uint64 init){
  18:src/scb.cpp   ****     val = init;
  19:src/scb.cpp   **** }
  20:src/scb.cpp   **** 
  21:src/scb.cpp   **** //if there are any threads that are still blocked on semaphore when it is being deleted
  22:src/scb.cpp   **** //free those threads and set their semError field to point to this semaphore
  23:src/scb.cpp   **** SCB::~SCB(){
  24:src/scb.cpp   ****     TCB* iter = blockedHead;
  25:src/scb.cpp   ****     while(iter !=nullptr) {
  26:src/scb.cpp   ****         TCB* tmp = iter;
  27:src/scb.cpp   ****         iter = iter->next;
  28:src/scb.cpp   ****         tmp->next = 0;
  29:src/scb.cpp   ****         tmp->semError = this;
  30:src/scb.cpp   ****         Scheduler::put(tmp);
  31:src/scb.cpp   ****     }
  32:src/scb.cpp   **** }
  33:src/scb.cpp   **** 
  34:src/scb.cpp   **** //block a thread by putting running thread at the end of blocked queue
  35:src/scb.cpp   **** void SCB::block() {
  36:src/scb.cpp   ****     blockedTail = (!blockedHead ? blockedHead : blockedTail->next) = TCB::running;
  37:src/scb.cpp   ****     TCB::running->next = nullptr;
  38:src/scb.cpp   ****     TCB::running->status = TCB::BLOCKED;
  39:src/scb.cpp   ****     TCB::dispatch();
  40:src/scb.cpp   **** }
  41:src/scb.cpp   **** 
  42:src/scb.cpp   **** //unblock a thread by fetching first from the blocked queue and putting it in scheduler
  43:src/scb.cpp   **** void SCB::deblock(){
  44:src/scb.cpp   ****     TCB* tcb = blockedHead;
  45:src/scb.cpp   ****     blockedHead = blockedHead->next;
  46:src/scb.cpp   ****     tcb->next = nullptr;
  47:src/scb.cpp   ****     if(tcb) {
GAS LISTING /tmp/ccTGSfYM.s 			page 2


  48:src/scb.cpp   ****         tcb->status = TCB::READY;
  49:src/scb.cpp   ****         Scheduler::put(tcb);
  50:src/scb.cpp   ****     }
  51:src/scb.cpp   **** }
  52:src/scb.cpp   **** 
  53:src/scb.cpp   **** void SCB::wait() {
  54:src/scb.cpp   ****     TCB::running->semError = nullptr;
  55:src/scb.cpp   ****     if (--val < 0)
  56:src/scb.cpp   ****         block();
  57:src/scb.cpp   **** }
  58:src/scb.cpp   **** 
  59:src/scb.cpp   **** void SCB::signal(){
  60:src/scb.cpp   ****     if(val++<0)
  61:src/scb.cpp   ****         deblock();
  62:src/scb.cpp   **** }
  63:src/scb.cpp   **** 
  64:src/scb.cpp   **** //overload operator new, to not use system call for every kernel object that is being allocated
  65:src/scb.cpp   **** void* SCB::operator new(size_t size){
  66:src/scb.cpp   ****     return kmem_cache_alloc(SCB::scbCache);
  67:src/scb.cpp   **** }
  68:src/scb.cpp   **** 
  69:src/scb.cpp   **** //overload operator delete, to not use system call for every kernel object that is being deallocate
  70:src/scb.cpp   **** void SCB::operator delete(void *addr){
  71:src/scb.cpp   ****     kmem_cache_free(SCB::scbCache, addr);
  72:src/scb.cpp   **** }
  73:src/scb.cpp   **** 
  74:src/scb.cpp   **** //syscall to free space that is taken up by semaphore
  75:src/scb.cpp   **** int SCB::semaphore_free(void *addr) {
  76:src/scb.cpp   ****     uint64 iptr = (uint64)addr;
  77:src/scb.cpp   **** 
  78:src/scb.cpp   ****     asm("mv a1, %[iptr]" : : [iptr] "r" (iptr));  //put address in a1
  79:src/scb.cpp   ****     asm("li a0, 0x52");  //put number of syscall in a0
  80:src/scb.cpp   ****     asm("ecall");
  81:src/scb.cpp   **** 
  82:src/scb.cpp   ****     uint64 status; //return status of mem_free
  83:src/scb.cpp   **** 
  84:src/scb.cpp   ****     asm("mv %[status], a0" : [status] "=r" (status));
  85:src/scb.cpp   ****     return status;
  86:src/scb.cpp   **** }
  87:src/scb.cpp   **** 
  88:src/scb.cpp   **** void SCB::ctor(void* scb){
  12              		.loc 1 88 26
  13              		.cfi_startproc
  14              	.LVL0:
  15 0000 130101FF 		addi	sp,sp,-16
  16              		.cfi_def_cfa_offset 16
  17 0004 23348100 		sd	s0,8(sp)
  18              		.cfi_offset 8, -8
  19 0008 13040101 		addi	s0,sp,16
  20              		.cfi_def_cfa 8, 0
  89:src/scb.cpp   ****     ((SCB*)scb)->blockedHead = nullptr;
  21              		.loc 1 89 5
  22              		.loc 1 89 30 is_stmt 0
  23 000c 23340500 		sd	zero,8(a0)
  90:src/scb.cpp   ****     ((SCB*)scb)->blockedTail = nullptr;
  24              		.loc 1 90 5 is_stmt 1
  25              		.loc 1 90 30 is_stmt 0
GAS LISTING /tmp/ccTGSfYM.s 			page 3


  26 0010 23380500 		sd	zero,16(a0)
  91:src/scb.cpp   **** }
  27              		.loc 1 91 1
  28 0014 03348100 		ld	s0,8(sp)
  29              		.cfi_restore 8
  30              		.cfi_def_cfa 2, 16
  31 0018 13010101 		addi	sp,sp,16
  32              		.cfi_def_cfa_offset 0
  33 001c 67800000 		jr	ra
  34              		.cfi_endproc
  35              	.LFE36:
  37              		.align	2
  38              		.globl	_ZN3SCB4dtorEPv
  40              	_ZN3SCB4dtorEPv:
  41              	.LFB37:
  92:src/scb.cpp   **** 
  93:src/scb.cpp   **** void SCB::dtor(void* scb){
  42              		.loc 1 93 26 is_stmt 1
  43              		.cfi_startproc
  44              	.LVL1:
  45 0020 130101FF 		addi	sp,sp,-16
  46              		.cfi_def_cfa_offset 16
  47 0024 23348100 		sd	s0,8(sp)
  48              		.cfi_offset 8, -8
  49 0028 13040101 		addi	s0,sp,16
  50              		.cfi_def_cfa 8, 0
  94:src/scb.cpp   **** 
  95:src/scb.cpp   **** }...
  51              		.loc 1 95 1 is_stmt 0
  52 002c 03348100 		ld	s0,8(sp)
  53              		.cfi_restore 8
  54              		.cfi_def_cfa 2, 16
  55 0030 13010101 		addi	sp,sp,16
  56              		.cfi_def_cfa_offset 0
  57 0034 67800000 		jr	ra
  58              		.cfi_endproc
  59              	.LFE37:
  61              		.section	.rodata.str1.8,"aMS",@progbits,1
  62              		.align	3
  63              	.LC0:
  64 0000 53434220 		.string	"SCB Cache"
  64      43616368 
  64      6500
  65              		.text
  66              		.align	2
  67              		.globl	_ZN3SCB10initializeEv
  69              	_ZN3SCB10initializeEv:
  70              	.LFB22:
  13:src/scb.cpp   **** void SCB::initialize() {
  71              		.loc 1 13 24 is_stmt 1
  72              		.cfi_startproc
  73 0038 130101FF 		addi	sp,sp,-16
  74              		.cfi_def_cfa_offset 16
  75 003c 23341100 		sd	ra,8(sp)
  76 0040 23308100 		sd	s0,0(sp)
  77              		.cfi_offset 1, -8
  78              		.cfi_offset 8, -16
GAS LISTING /tmp/ccTGSfYM.s 			page 4


  79 0044 13040101 		addi	s0,sp,16
  80              		.cfi_def_cfa 8, 0
  14:src/scb.cpp   ****     SCB::scbCache = kmem_cache_create("SCB Cache", sizeof(SCB), SCB::ctor, SCB::dtor);
  81              		.loc 1 14 5
  14:src/scb.cpp   ****     SCB::scbCache = kmem_cache_create("SCB Cache", sizeof(SCB), SCB::ctor, SCB::dtor);
  82              		.loc 1 14 38 is_stmt 0
  83 0048 97060000 		lla	a3,_ZN3SCB4dtorEPv
  83      93860600 
  84 0050 17060000 		lla	a2,_ZN3SCB4ctorEPv
  84      13060600 
  85 0058 93058001 		li	a1,24
  86 005c 17050000 		lla	a0,.LC0
  86      13050500 
  87 0064 97000000 		call	_Z17kmem_cache_createPKcmPFvPvES3_@plt
  87      E7800000 
  88              	.LVL2:
  14:src/scb.cpp   ****     SCB::scbCache = kmem_cache_create("SCB Cache", sizeof(SCB), SCB::ctor, SCB::dtor);
  89              		.loc 1 14 19
  90 006c 97070000 		sd	a0,.LANCHOR0,a5
  90      23B0A700 
  15:src/scb.cpp   **** }
  91              		.loc 1 15 1
  92 0074 83308100 		ld	ra,8(sp)
  93              		.cfi_restore 1
  94 0078 03340100 		ld	s0,0(sp)
  95              		.cfi_restore 8
  96              		.cfi_def_cfa 2, 16
  97 007c 13010101 		addi	sp,sp,16
  98              		.cfi_def_cfa_offset 0
  99 0080 67800000 		jr	ra
 100              		.cfi_endproc
 101              	.LFE22:
 103              		.align	2
 104              		.globl	_ZN3SCBC2Em
 106              	_ZN3SCBC2Em:
 107              	.LFB24:
  17:src/scb.cpp   **** SCB::SCB(uint64 init){
 108              		.loc 1 17 1 is_stmt 1
 109              		.cfi_startproc
 110              	.LVL3:
 111 0084 130101FF 		addi	sp,sp,-16
 112              		.cfi_def_cfa_offset 16
 113 0088 23348100 		sd	s0,8(sp)
 114              		.cfi_offset 8, -8
 115 008c 13040101 		addi	s0,sp,16
 116              		.cfi_def_cfa 8, 0
 117              	.LBB2:
  18:src/scb.cpp   ****     val = init;
 118              		.loc 1 18 5
  18:src/scb.cpp   ****     val = init;
 119              		.loc 1 18 9 is_stmt 0
 120 0090 2320B500 		sw	a1,0(a0)
 121              	.LBE2:
  19:src/scb.cpp   **** }
 122              		.loc 1 19 1
 123 0094 03348100 		ld	s0,8(sp)
 124              		.cfi_restore 8
GAS LISTING /tmp/ccTGSfYM.s 			page 5


 125              		.cfi_def_cfa 2, 16
 126 0098 13010101 		addi	sp,sp,16
 127              		.cfi_def_cfa_offset 0
 128 009c 67800000 		jr	ra
 129              		.cfi_endproc
 130              	.LFE24:
 132              		.globl	_ZN3SCBC1Em
 133              		.set	_ZN3SCBC1Em,_ZN3SCBC2Em
 134              		.align	2
 135              		.globl	_ZN3SCBD2Ev
 137              	_ZN3SCBD2Ev:
 138              	.LFB27:
  23:src/scb.cpp   **** SCB::~SCB(){
 139              		.loc 1 23 1 is_stmt 1
 140              		.cfi_startproc
 141              		.cfi_personality 0x9b,DW.ref.__gxx_personality_v0
 142              		.cfi_lsda 0x1b,.LLSDA27
 143              	.LVL4:
 144 00a0 130101FE 		addi	sp,sp,-32
 145              		.cfi_def_cfa_offset 32
 146 00a4 233C1100 		sd	ra,24(sp)
 147 00a8 23388100 		sd	s0,16(sp)
 148 00ac 23349100 		sd	s1,8(sp)
 149 00b0 23302101 		sd	s2,0(sp)
 150              		.cfi_offset 1, -8
 151              		.cfi_offset 8, -16
 152              		.cfi_offset 9, -24
 153              		.cfi_offset 18, -32
 154 00b4 13040102 		addi	s0,sp,32
 155              		.cfi_def_cfa 8, 0
 156 00b8 13090500 		mv	s2,a0
 157              	.LBB3:
  24:src/scb.cpp   ****     TCB* iter = blockedHead;
 158              		.loc 1 24 5
  24:src/scb.cpp   ****     TCB* iter = blockedHead;
 159              		.loc 1 24 10 is_stmt 0
 160 00bc 03358500 		ld	a0,8(a0)
 161              	.LVL5:
 162              	.L11:
  25:src/scb.cpp   ****     while(iter !=nullptr) {
 163              		.loc 1 25 5 is_stmt 1
  25:src/scb.cpp   ****     while(iter !=nullptr) {
 164              		.loc 1 25 16
 165 00c0 63000502 		beqz	a0,.L9
 166              	.LBB4:
  26:src/scb.cpp   ****         TCB* tmp = iter;
 167              		.loc 1 26 9
 168              	.LVL6:
  27:src/scb.cpp   ****         iter = iter->next;
 169              		.loc 1 27 9
  27:src/scb.cpp   ****         iter = iter->next;
 170              		.loc 1 27 14 is_stmt 0
 171 00c4 83348504 		ld	s1,72(a0)
 172              	.LVL7:
  28:src/scb.cpp   ****         tmp->next = 0;
 173              		.loc 1 28 9 is_stmt 1
  28:src/scb.cpp   ****         tmp->next = 0;
GAS LISTING /tmp/ccTGSfYM.s 			page 6


 174              		.loc 1 28 19 is_stmt 0
 175 00c8 23340504 		sd	zero,72(a0)
  29:src/scb.cpp   ****         tmp->semError = this;
 176              		.loc 1 29 9 is_stmt 1
  29:src/scb.cpp   ****         tmp->semError = this;
 177              		.loc 1 29 23 is_stmt 0
 178 00cc 23302507 		sd	s2,96(a0)
  30:src/scb.cpp   ****         Scheduler::put(tmp);
 179              		.loc 1 30 9 is_stmt 1
  30:src/scb.cpp   ****         Scheduler::put(tmp);
 180              		.loc 1 30 23 is_stmt 0
 181 00d0 97000000 		call	_ZN9Scheduler3putEP3TCB@plt
 181      E7800000 
 182              	.LVL8:
  27:src/scb.cpp   ****         iter = iter->next;
 183              		.loc 1 27 14
 184 00d8 13850400 		mv	a0,s1
 185              	.LBE4:
  25:src/scb.cpp   ****     while(iter !=nullptr) {
 186              		.loc 1 25 5
 187 00dc 6FF05FFE 		j	.L11
 188              	.LVL9:
 189              	.L9:
 190              	.LBE3:
  32:src/scb.cpp   **** }
 191              		.loc 1 32 1
 192 00e0 83308101 		ld	ra,24(sp)
 193              		.cfi_restore 1
 194 00e4 03340101 		ld	s0,16(sp)
 195              		.cfi_restore 8
 196              		.cfi_def_cfa 2, 32
 197 00e8 83348100 		ld	s1,8(sp)
 198              		.cfi_restore 9
 199 00ec 03390100 		ld	s2,0(sp)
 200              		.cfi_restore 18
 201              	.LVL10:
 202 00f0 13010102 		addi	sp,sp,32
 203              		.cfi_def_cfa_offset 0
 204 00f4 67800000 		jr	ra
 205              		.cfi_endproc
 206              	.LFE27:
 207              		.globl	__gxx_personality_v0
 208              		.section	.gcc_except_table,"a",@progbits
 209              	.LLSDA27:
 210 0000 FF       		.byte	0xff
 211 0001 FF       		.byte	0xff
 212 0002 03       		.byte	0x3
 213 0003 00       		.byte	0
 214              		.text
 216              		.globl	_ZN3SCBD1Ev
 217              		.set	_ZN3SCBD1Ev,_ZN3SCBD2Ev
 218              		.align	2
 219              		.globl	_ZN3SCB5blockEv
 221              	_ZN3SCB5blockEv:
 222              	.LFB29:
  35:src/scb.cpp   **** void SCB::block() {
 223              		.loc 1 35 19 is_stmt 1
GAS LISTING /tmp/ccTGSfYM.s 			page 7


 224              		.cfi_startproc
 225              	.LVL11:
 226 00f8 130101FF 		addi	sp,sp,-16
 227              		.cfi_def_cfa_offset 16
 228 00fc 23341100 		sd	ra,8(sp)
 229 0100 23308100 		sd	s0,0(sp)
 230              		.cfi_offset 1, -8
 231              		.cfi_offset 8, -16
 232 0104 13040101 		addi	s0,sp,16
 233              		.cfi_def_cfa 8, 0
  36:src/scb.cpp   ****     blockedTail = (!blockedHead ? blockedHead : blockedTail->next) = TCB::running;
 234              		.loc 1 36 5
  36:src/scb.cpp   ****     blockedTail = (!blockedHead ? blockedHead : blockedTail->next) = TCB::running;
 235              		.loc 1 36 21 is_stmt 0
 236 0108 83378500 		ld	a5,8(a0)
  36:src/scb.cpp   ****     blockedTail = (!blockedHead ? blockedHead : blockedTail->next) = TCB::running;
 237              		.loc 1 36 68
 238 010c 63800704 		beqz	a5,.L17
  36:src/scb.cpp   ****     blockedTail = (!blockedHead ? blockedHead : blockedTail->next) = TCB::running;
 239              		.loc 1 36 49 discriminator 2
 240 0110 03370501 		ld	a4,16(a0)
  36:src/scb.cpp   ****     blockedTail = (!blockedHead ? blockedHead : blockedTail->next) = TCB::running;
 241              		.loc 1 36 68 discriminator 2
 242 0114 97070000 		la	a5,_ZN3TCB7runningE
 242      83B70700 
 243 011c 83B70700 		ld	a5,0(a5)
 244 0120 2334F704 		sd	a5,72(a4)
 245              	.L15:
  36:src/scb.cpp   ****     blockedTail = (!blockedHead ? blockedHead : blockedTail->next) = TCB::running;
 246              		.loc 1 36 17 discriminator 4
 247 0124 2338F500 		sd	a5,16(a0)
  37:src/scb.cpp   ****     TCB::running->next = nullptr;
 248              		.loc 1 37 5 is_stmt 1 discriminator 4
  37:src/scb.cpp   ****     TCB::running->next = nullptr;
 249              		.loc 1 37 24 is_stmt 0 discriminator 4
 250 0128 23B40704 		sd	zero,72(a5)
  38:src/scb.cpp   ****     TCB::running->status = TCB::BLOCKED;
 251              		.loc 1 38 5 is_stmt 1 discriminator 4
  38:src/scb.cpp   ****     TCB::running->status = TCB::BLOCKED;
 252              		.loc 1 38 26 is_stmt 0 discriminator 4
 253 012c 13073000 		li	a4,3
 254 0130 23A8E700 		sw	a4,16(a5)
  39:src/scb.cpp   ****     TCB::dispatch();
 255              		.loc 1 39 5 is_stmt 1 discriminator 4
  39:src/scb.cpp   ****     TCB::dispatch();
 256              		.loc 1 39 18 is_stmt 0 discriminator 4
 257 0134 97000000 		call	_ZN3TCB8dispatchEv@plt
 257      E7800000 
 258              	.LVL12:
  40:src/scb.cpp   **** }
 259              		.loc 1 40 1 discriminator 4
 260 013c 83308100 		ld	ra,8(sp)
 261              		.cfi_remember_state
 262              		.cfi_restore 1
 263 0140 03340100 		ld	s0,0(sp)
 264              		.cfi_restore 8
 265              		.cfi_def_cfa 2, 16
GAS LISTING /tmp/ccTGSfYM.s 			page 8


 266 0144 13010101 		addi	sp,sp,16
 267              		.cfi_def_cfa_offset 0
 268 0148 67800000 		jr	ra
 269              	.LVL13:
 270              	.L17:
 271              		.cfi_restore_state
  36:src/scb.cpp   ****     blockedTail = (!blockedHead ? blockedHead : blockedTail->next) = TCB::running;
 272              		.loc 1 36 68 discriminator 1
 273 014c 97070000 		la	a5,_ZN3TCB7runningE
 273      83B70700 
 274 0154 83B70700 		ld	a5,0(a5)
 275 0158 2334F500 		sd	a5,8(a0)
 276 015c 6FF09FFC 		j	.L15
 277              		.cfi_endproc
 278              	.LFE29:
 280              		.align	2
 281              		.globl	_ZN3SCB7deblockEv
 283              	_ZN3SCB7deblockEv:
 284              	.LFB30:
  43:src/scb.cpp   **** void SCB::deblock(){
 285              		.loc 1 43 20 is_stmt 1
 286              		.cfi_startproc
 287              	.LVL14:
 288 0160 93070500 		mv	a5,a0
  44:src/scb.cpp   ****     TCB* tcb = blockedHead;
 289              		.loc 1 44 5
  44:src/scb.cpp   ****     TCB* tcb = blockedHead;
 290              		.loc 1 44 10 is_stmt 0
 291 0164 03358500 		ld	a0,8(a0)
 292              	.LVL15:
  45:src/scb.cpp   ****     blockedHead = blockedHead->next;
 293              		.loc 1 45 5 is_stmt 1
  45:src/scb.cpp   ****     blockedHead = blockedHead->next;
 294              		.loc 1 45 32 is_stmt 0
 295 0168 03378504 		ld	a4,72(a0)
  45:src/scb.cpp   ****     blockedHead = blockedHead->next;
 296              		.loc 1 45 17
 297 016c 23B4E700 		sd	a4,8(a5)
  46:src/scb.cpp   ****     tcb->next = nullptr;
 298              		.loc 1 46 5 is_stmt 1
  46:src/scb.cpp   ****     tcb->next = nullptr;
 299              		.loc 1 46 15 is_stmt 0
 300 0170 23340504 		sd	zero,72(a0)
  47:src/scb.cpp   ****     if(tcb) {
 301              		.loc 1 47 5 is_stmt 1
 302 0174 630A0502 		beqz	a0,.L21
  43:src/scb.cpp   **** void SCB::deblock(){
 303              		.loc 1 43 20 is_stmt 0
 304 0178 130101FF 		addi	sp,sp,-16
 305              		.cfi_def_cfa_offset 16
 306 017c 23341100 		sd	ra,8(sp)
 307 0180 23308100 		sd	s0,0(sp)
 308              		.cfi_offset 1, -8
 309              		.cfi_offset 8, -16
 310 0184 13040101 		addi	s0,sp,16
 311              		.cfi_def_cfa 8, 0
  48:src/scb.cpp   ****         tcb->status = TCB::READY;
GAS LISTING /tmp/ccTGSfYM.s 			page 9


 312              		.loc 1 48 9 is_stmt 1
  48:src/scb.cpp   ****         tcb->status = TCB::READY;
 313              		.loc 1 48 21 is_stmt 0
 314 0188 93071000 		li	a5,1
 315              	.LVL16:
 316 018c 2328F500 		sw	a5,16(a0)
  49:src/scb.cpp   ****         Scheduler::put(tcb);
 317              		.loc 1 49 9 is_stmt 1
  49:src/scb.cpp   ****         Scheduler::put(tcb);
 318              		.loc 1 49 23 is_stmt 0
 319 0190 97000000 		call	_ZN9Scheduler3putEP3TCB@plt
 319      E7800000 
 320              	.LVL17:
  51:src/scb.cpp   **** }
 321              		.loc 1 51 1
 322 0198 83308100 		ld	ra,8(sp)
 323              		.cfi_restore 1
 324 019c 03340100 		ld	s0,0(sp)
 325              		.cfi_restore 8
 326              		.cfi_def_cfa 2, 16
 327 01a0 13010101 		addi	sp,sp,16
 328              		.cfi_def_cfa_offset 0
 329 01a4 67800000 		jr	ra
 330              	.LVL18:
 331              	.L21:
 332 01a8 67800000 		ret
 333              		.cfi_endproc
 334              	.LFE30:
 336              		.align	2
 337              		.globl	_ZN3SCB4waitEv
 339              	_ZN3SCB4waitEv:
 340              	.LFB31:
  53:src/scb.cpp   **** void SCB::wait() {
 341              		.loc 1 53 18 is_stmt 1
 342              		.cfi_startproc
 343              	.LVL19:
  54:src/scb.cpp   ****     TCB::running->semError = nullptr;
 344              		.loc 1 54 5
  54:src/scb.cpp   ****     TCB::running->semError = nullptr;
 345              		.loc 1 54 19 is_stmt 0
 346 01ac 97070000 		la	a5,_ZN3TCB7runningE
 346      83B70700 
 347 01b4 83B70700 		ld	a5,0(a5)
  54:src/scb.cpp   ****     TCB::running->semError = nullptr;
 348              		.loc 1 54 28
 349 01b8 23B00706 		sd	zero,96(a5)
  55:src/scb.cpp   ****     if (--val < 0)
 350              		.loc 1 55 5 is_stmt 1
  55:src/scb.cpp   ****     if (--val < 0)
 351              		.loc 1 55 11 is_stmt 0
 352 01bc 83270500 		lw	a5,0(a0)
  55:src/scb.cpp   ****     if (--val < 0)
 353              		.loc 1 55 9
 354 01c0 9B87F7FF 		addiw	a5,a5,-1
  55:src/scb.cpp   ****     if (--val < 0)
 355              		.loc 1 55 15
 356 01c4 2320F500 		sw	a5,0(a0)
GAS LISTING /tmp/ccTGSfYM.s 			page 10


  55:src/scb.cpp   ****     if (--val < 0)
 357              		.loc 1 55 5
 358 01c8 13970702 		slli	a4,a5,32
 359 01cc 63440700 		bltz	a4,.L30
 360 01d0 67800000 		ret
 361              	.L30:
  53:src/scb.cpp   **** void SCB::wait() {
 362              		.loc 1 53 18
 363 01d4 130101FF 		addi	sp,sp,-16
 364              		.cfi_def_cfa_offset 16
 365 01d8 23341100 		sd	ra,8(sp)
 366 01dc 23308100 		sd	s0,0(sp)
 367              		.cfi_offset 1, -8
 368              		.cfi_offset 8, -16
 369 01e0 13040101 		addi	s0,sp,16
 370              		.cfi_def_cfa 8, 0
  56:src/scb.cpp   ****         block();
 371              		.loc 1 56 9 is_stmt 1
  56:src/scb.cpp   ****         block();
 372              		.loc 1 56 14 is_stmt 0
 373 01e4 97000000 		call	_ZN3SCB5blockEv
 373      E7800000 
 374              	.LVL20:
  57:src/scb.cpp   **** }
 375              		.loc 1 57 1
 376 01ec 83308100 		ld	ra,8(sp)
 377              		.cfi_restore 1
 378 01f0 03340100 		ld	s0,0(sp)
 379              		.cfi_restore 8
 380              		.cfi_def_cfa 2, 16
 381 01f4 13010101 		addi	sp,sp,16
 382              		.cfi_def_cfa_offset 0
 383 01f8 67800000 		jr	ra
 384              		.cfi_endproc
 385              	.LFE31:
 387              		.align	2
 388              		.globl	_ZN3SCB6signalEv
 390              	_ZN3SCB6signalEv:
 391              	.LFB32:
  59:src/scb.cpp   **** void SCB::signal(){
 392              		.loc 1 59 19 is_stmt 1
 393              		.cfi_startproc
 394              	.LVL21:
  60:src/scb.cpp   ****     if(val++<0)
 395              		.loc 1 60 5
  60:src/scb.cpp   ****     if(val++<0)
 396              		.loc 1 60 8 is_stmt 0
 397 01fc 83270500 		lw	a5,0(a0)
  60:src/scb.cpp   ****     if(val++<0)
 398              		.loc 1 60 11
 399 0200 1B871700 		addiw	a4,a5,1
 400 0204 2320E500 		sw	a4,0(a0)
  60:src/scb.cpp   ****     if(val++<0)
 401              		.loc 1 60 5
 402 0208 63C40700 		bltz	a5,.L37
 403 020c 67800000 		ret
 404              	.L37:
GAS LISTING /tmp/ccTGSfYM.s 			page 11


  59:src/scb.cpp   **** void SCB::signal(){
 405              		.loc 1 59 19
 406 0210 130101FF 		addi	sp,sp,-16
 407              		.cfi_def_cfa_offset 16
 408 0214 23341100 		sd	ra,8(sp)
 409 0218 23308100 		sd	s0,0(sp)
 410              		.cfi_offset 1, -8
 411              		.cfi_offset 8, -16
 412 021c 13040101 		addi	s0,sp,16
 413              		.cfi_def_cfa 8, 0
  61:src/scb.cpp   ****         deblock();
 414              		.loc 1 61 9 is_stmt 1
  61:src/scb.cpp   ****         deblock();
 415              		.loc 1 61 16 is_stmt 0
 416 0220 97000000 		call	_ZN3SCB7deblockEv
 416      E7800000 
 417              	.LVL22:
  62:src/scb.cpp   **** }
 418              		.loc 1 62 1
 419 0228 83308100 		ld	ra,8(sp)
 420              		.cfi_restore 1
 421 022c 03340100 		ld	s0,0(sp)
 422              		.cfi_restore 8
 423              		.cfi_def_cfa 2, 16
 424 0230 13010101 		addi	sp,sp,16
 425              		.cfi_def_cfa_offset 0
 426 0234 67800000 		jr	ra
 427              		.cfi_endproc
 428              	.LFE32:
 430              		.align	2
 431              		.globl	_ZN3SCBnwEm
 433              	_ZN3SCBnwEm:
 434              	.LFB33:
  65:src/scb.cpp   **** void* SCB::operator new(size_t size){
 435              		.loc 1 65 37 is_stmt 1
 436              		.cfi_startproc
 437              	.LVL23:
 438 0238 130101FF 		addi	sp,sp,-16
 439              		.cfi_def_cfa_offset 16
 440 023c 23341100 		sd	ra,8(sp)
 441 0240 23308100 		sd	s0,0(sp)
 442              		.cfi_offset 1, -8
 443              		.cfi_offset 8, -16
 444 0244 13040101 		addi	s0,sp,16
 445              		.cfi_def_cfa 8, 0
  66:src/scb.cpp   ****     return kmem_cache_alloc(SCB::scbCache);
 446              		.loc 1 66 5
  66:src/scb.cpp   ****     return kmem_cache_alloc(SCB::scbCache);
 447              		.loc 1 66 28 is_stmt 0
 448 0248 17050000 		ld	a0,.LANCHOR0
 448      03350500 
 449              	.LVL24:
 450 0250 97000000 		call	_Z16kmem_cache_allocP5Cache@plt
 450      E7800000 
 451              	.LVL25:
  67:src/scb.cpp   **** }
 452              		.loc 1 67 1
GAS LISTING /tmp/ccTGSfYM.s 			page 12


 453 0258 83308100 		ld	ra,8(sp)
 454              		.cfi_restore 1
 455 025c 03340100 		ld	s0,0(sp)
 456              		.cfi_restore 8
 457              		.cfi_def_cfa 2, 16
 458 0260 13010101 		addi	sp,sp,16
 459              		.cfi_def_cfa_offset 0
 460 0264 67800000 		jr	ra
 461              		.cfi_endproc
 462              	.LFE33:
 464              		.align	2
 465              		.globl	_ZN3SCBdlEPv
 467              	_ZN3SCBdlEPv:
 468              	.LFB34:
  70:src/scb.cpp   **** void SCB::operator delete(void *addr){
 469              		.loc 1 70 38 is_stmt 1
 470              		.cfi_startproc
 471              	.LVL26:
 472 0268 130101FF 		addi	sp,sp,-16
 473              		.cfi_def_cfa_offset 16
 474 026c 23341100 		sd	ra,8(sp)
 475 0270 23308100 		sd	s0,0(sp)
 476              		.cfi_offset 1, -8
 477              		.cfi_offset 8, -16
 478 0274 13040101 		addi	s0,sp,16
 479              		.cfi_def_cfa 8, 0
 480 0278 93050500 		mv	a1,a0
  71:src/scb.cpp   ****     kmem_cache_free(SCB::scbCache, addr);
 481              		.loc 1 71 5
  71:src/scb.cpp   ****     kmem_cache_free(SCB::scbCache, addr);
 482              		.loc 1 71 20 is_stmt 0
 483 027c 17050000 		ld	a0,.LANCHOR0
 483      03350500 
 484              	.LVL27:
 485 0284 97000000 		call	_Z15kmem_cache_freeP5CachePv@plt
 485      E7800000 
 486              	.LVL28:
  72:src/scb.cpp   **** }
 487              		.loc 1 72 1
 488 028c 83308100 		ld	ra,8(sp)
 489              		.cfi_restore 1
 490 0290 03340100 		ld	s0,0(sp)
 491              		.cfi_restore 8
 492              		.cfi_def_cfa 2, 16
 493 0294 13010101 		addi	sp,sp,16
 494              		.cfi_def_cfa_offset 0
 495 0298 67800000 		jr	ra
 496              		.cfi_endproc
 497              	.LFE34:
 499              		.align	2
 500              		.globl	_ZN3SCB14semaphore_freeEPv
 502              	_ZN3SCB14semaphore_freeEPv:
 503              	.LFB35:
  75:src/scb.cpp   **** int SCB::semaphore_free(void *addr) {
 504              		.loc 1 75 37 is_stmt 1
 505              		.cfi_startproc
 506              	.LVL29:
GAS LISTING /tmp/ccTGSfYM.s 			page 13


 507 029c 130101FF 		addi	sp,sp,-16
 508              		.cfi_def_cfa_offset 16
 509 02a0 23348100 		sd	s0,8(sp)
 510              		.cfi_offset 8, -8
 511 02a4 13040101 		addi	s0,sp,16
 512              		.cfi_def_cfa 8, 0
  76:src/scb.cpp   ****     uint64 iptr = (uint64)addr;
 513              		.loc 1 76 5
 514              	.LVL30:
  78:src/scb.cpp   ****     asm("mv a1, %[iptr]" : : [iptr] "r" (iptr));  //put address in a1
 515              		.loc 1 78 5
  78:src/scb.cpp   ****     asm("mv a1, %[iptr]" : : [iptr] "r" (iptr));  //put address in a1
 516              		.loc 1 78 48 is_stmt 0
 517              	#APP
 518              	# 78 "src/scb.cpp" 1
  79:src/scb.cpp   ****     asm("li a0, 0x52");  //put number of syscall in a0
 519              		mv a1, a0
 520              	# 0 "" 2
 521              		.loc 1 79 5 is_stmt 1
  79:src/scb.cpp   ****     asm("li a0, 0x52");  //put number of syscall in a0
 522              		.loc 1 79 23 is_stmt 0
 523              	# 79 "src/scb.cpp" 1
  80:src/scb.cpp   ****     asm("ecall");
 524              		li a0, 0x52
 525              	# 0 "" 2
 526              		.loc 1 80 5 is_stmt 1
  80:src/scb.cpp   ****     asm("ecall");
 527              		.loc 1 80 17 is_stmt 0
 528              	# 80 "src/scb.cpp" 1
  82:src/scb.cpp   ****     uint64 status; //return status of mem_free
 529              		ecall
 530              	# 0 "" 2
 531              		.loc 1 82 5 is_stmt 1
  84:src/scb.cpp   ****     asm("mv %[status], a0" : [status] "=r" (status));
 532              		.loc 1 84 5
  84:src/scb.cpp   ****     asm("mv %[status], a0" : [status] "=r" (status));
 533              		.loc 1 84 53 is_stmt 0
 534              	# 84 "src/scb.cpp" 1
 535              		mv a0, a0
 536              	# 0 "" 2
 537              	.LVL31:
  85:src/scb.cpp   ****     return status;
 538              		.loc 1 85 5 is_stmt 1
  86:src/scb.cpp   **** }
 539              		.loc 1 86 1 is_stmt 0
 540              	#NO_APP
 541 02b8 1B050500 		sext.w	a0,a0
 542              	.LVL32:
 543 02bc 03348100 		ld	s0,8(sp)
 544              		.cfi_restore 8
 545              		.cfi_def_cfa 2, 16
 546 02c0 13010101 		addi	sp,sp,16
 547              		.cfi_def_cfa_offset 0
 548 02c4 67800000 		jr	ra
 549              		.cfi_endproc
 550              	.LFE35:
 552              		.globl	_ZN3SCB8scbCacheE
GAS LISTING /tmp/ccTGSfYM.s 			page 14


 553              		.bss
 554              		.align	3
 555              		.set	.LANCHOR0,. + 0
 558              	_ZN3SCB8scbCacheE:
 559 0000 00000000 		.zero	8
 559      00000000 
 560              		.text
 561              	.Letext0:
 562              		.file 2 "src/../h/../lib/hw.h"
 563              		.file 3 "src/../h/../h/../h/../h/utility.hpp"
 564              		.file 4 "src/../h/scb.hpp"
 565              		.file 5 "src/../h/../h/../h/../h/../h/slab_t.hpp"
 566              		.file 6 "src/../h/../h/../h/../h/cache_t.hpp"
 567              		.file 7 "src/../h/tcb.hpp"
 568              		.file 8 "src/../h/scheduler.hpp"
 569              		.file 9 "src/../h/../h/slab.hpp"
 3337              		.align	3
 3340              	DW.ref.__gxx_personality_v0:
 3341 0000 00000000 		.dword	__gxx_personality_v0
 3341      00000000 
 3342              		.ident	"GCC: (Ubuntu 9.4.0-1ubuntu1~20.04) 9.4.0"
 3343              		.section	.note.GNU-stack,"",@progbits
GAS LISTING /tmp/ccTGSfYM.s 			page 15

