GAS LISTING /tmp/cc3K9YXg.s 			page 1


   1              		.file	"scheduler.cpp"
   2              		.option pic
   3              		.option norelax
   4              		.text
   5              	.Ltext0:
   6              		.align	2
   7              		.globl	_ZN9Scheduler10initializeEv
   9              	_ZN9Scheduler10initializeEv:
  10              	.LFB32:
  11              		.file 1 "src/scheduler.cpp"
   1:src/scheduler.cpp **** //
   2:src/scheduler.cpp **** // Created by os on 5/18/22.
   3:src/scheduler.cpp **** //
   4:src/scheduler.cpp **** 
   5:src/scheduler.cpp **** #include "../h/scheduler.hpp"
   6:src/scheduler.cpp **** #include "../h/printing.hpp"
   7:src/scheduler.cpp **** #include "../h/consoleUtil.hpp"
   8:src/scheduler.cpp **** 
   9:src/scheduler.cpp **** TCB* Scheduler::readyHead = nullptr;
  10:src/scheduler.cpp **** TCB* Scheduler::readyTail = nullptr;
  11:src/scheduler.cpp **** TCB* Scheduler::sleepingHead = nullptr;
  12:src/scheduler.cpp **** 
  13:src/scheduler.cpp **** 
  14:src/scheduler.cpp **** void Scheduler::initialize(){
  12              		.loc 1 14 29
  13              		.cfi_startproc
  14 0000 130101FF 		addi	sp,sp,-16
  15              		.cfi_def_cfa_offset 16
  16 0004 23348100 		sd	s0,8(sp)
  17              		.cfi_offset 8, -8
  18 0008 13040101 		addi	s0,sp,16
  19              		.cfi_def_cfa 8, 0
  15:src/scheduler.cpp **** }
  20              		.loc 1 15 1 is_stmt 0
  21 000c 03348100 		ld	s0,8(sp)
  22              		.cfi_restore 8
  23              		.cfi_def_cfa 2, 16
  24 0010 13010101 		addi	sp,sp,16
  25              		.cfi_def_cfa_offset 0
  26 0014 67800000 		jr	ra
  27              		.cfi_endproc
  28              	.LFE32:
  30              		.align	2
  31              		.globl	_ZN9Scheduler3putEP3TCB
  33              	_ZN9Scheduler3putEP3TCB:
  34              	.LFB33:
  16:src/scheduler.cpp **** 
  17:src/scheduler.cpp **** //put a TCB in scheduler
  18:src/scheduler.cpp **** //each TCB has a pointer to next TCB, so no external list/queue structures needed
  19:src/scheduler.cpp **** void Scheduler::put(TCB *tcb) {
  35              		.loc 1 19 31 is_stmt 1
  36              		.cfi_startproc
  37              	.LVL0:
  38 0018 130101FF 		addi	sp,sp,-16
  39              		.cfi_def_cfa_offset 16
  40 001c 23348100 		sd	s0,8(sp)
  41              		.cfi_offset 8, -8
GAS LISTING /tmp/cc3K9YXg.s 			page 2


  42 0020 13040101 		addi	s0,sp,16
  43              		.cfi_def_cfa 8, 0
  20:src/scheduler.cpp ****     tcb->next = nullptr;
  44              		.loc 1 20 5
  45              		.loc 1 20 15 is_stmt 0
  46 0024 23340504 		sd	zero,72(a0)
  21:src/scheduler.cpp ****     readyTail = (!readyHead ? readyHead : readyTail->next) = tcb;
  47              		.loc 1 21 5 is_stmt 1
  48              		.loc 1 21 18 is_stmt 0
  49 0028 97070000 		ld	a5,.LANCHOR0
  49      83B70700 
  50              		.loc 1 21 60
  51 0030 63820702 		beqz	a5,.L7
  52              		.loc 1 21 54 discriminator 2
  53 0034 97070000 		ld	a5,.LANCHOR0+8
  53      83B70700 
  54              		.loc 1 21 60 discriminator 2
  55 003c 23B4A704 		sd	a0,72(a5)
  56              	.L5:
  57              		.loc 1 21 15 discriminator 4
  58 0040 97070000 		sd	a0,.LANCHOR0+8,a5
  58      23B0A700 
  22:src/scheduler.cpp **** }
  59              		.loc 1 22 1 discriminator 4
  60 0048 03348100 		ld	s0,8(sp)
  61              		.cfi_remember_state
  62              		.cfi_restore 8
  63              		.cfi_def_cfa 2, 16
  64 004c 13010101 		addi	sp,sp,16
  65              		.cfi_def_cfa_offset 0
  66 0050 67800000 		jr	ra
  67              	.L7:
  68              		.cfi_restore_state
  21:src/scheduler.cpp ****     readyTail = (!readyHead ? readyHead : readyTail->next) = tcb;
  69              		.loc 1 21 60 discriminator 1
  70 0054 97070000 		sd	a0,.LANCHOR0,a5
  70      23B0A700 
  71 005c 6FF05FFE 		j	.L5
  72              		.cfi_endproc
  73              	.LFE33:
  75              		.align	2
  76              		.globl	_ZN9Scheduler3getEv
  78              	_ZN9Scheduler3getEv:
  79              	.LFB34:
  23:src/scheduler.cpp **** 
  24:src/scheduler.cpp **** 
  25:src/scheduler.cpp **** //get new TCB from scheduler
  26:src/scheduler.cpp **** TCB* Scheduler::get(){
  80              		.loc 1 26 22 is_stmt 1
  81              		.cfi_startproc
  82 0060 130101FF 		addi	sp,sp,-16
  83              		.cfi_def_cfa_offset 16
  84 0064 23348100 		sd	s0,8(sp)
  85              		.cfi_offset 8, -8
  86 0068 13040101 		addi	s0,sp,16
  87              		.cfi_def_cfa 8, 0
  27:src/scheduler.cpp ****     if(readyHead == nullptr)
GAS LISTING /tmp/cc3K9YXg.s 			page 3


  88              		.loc 1 27 5
  89              		.loc 1 27 18 is_stmt 0
  90 006c 17050000 		ld	a0,.LANCHOR0
  90      03350500 
  91              		.loc 1 27 5
  92 0074 630A0500 		beqz	a0,.L8
  28:src/scheduler.cpp ****         return nullptr;
  29:src/scheduler.cpp ****     TCB* tmp = readyHead;
  93              		.loc 1 29 5 is_stmt 1
  94              	.LVL1:
  30:src/scheduler.cpp ****     readyHead = readyHead->next;
  95              		.loc 1 30 5
  96              		.loc 1 30 28 is_stmt 0
  97 0078 83378504 		ld	a5,72(a0)
  98              		.loc 1 30 15
  99 007c 17070000 		sd	a5,.LANCHOR0,a4
  99      2330F700 
  31:src/scheduler.cpp ****     tmp->next = nullptr;
 100              		.loc 1 31 5 is_stmt 1
 101              		.loc 1 31 15 is_stmt 0
 102 0084 23340504 		sd	zero,72(a0)
  32:src/scheduler.cpp ****     return tmp;
 103              		.loc 1 32 5 is_stmt 1
 104              	.LVL2:
 105              	.L8:
  33:src/scheduler.cpp **** }
 106              		.loc 1 33 1 is_stmt 0
 107 0088 03348100 		ld	s0,8(sp)
 108              		.cfi_restore 8
 109              		.cfi_def_cfa 2, 16
 110 008c 13010101 		addi	sp,sp,16
 111              		.cfi_def_cfa_offset 0
 112 0090 67800000 		jr	ra
 113              		.cfi_endproc
 114              	.LFE34:
 116              		.align	2
 117              		.globl	_ZN9Scheduler5sleepEP3TCB
 119              	_ZN9Scheduler5sleepEP3TCB:
 120              	.LFB35:
  34:src/scheduler.cpp **** 
  35:src/scheduler.cpp **** //put a thread to sleep by linking it in sleeping queue (same thing as with ready threads, link by 
  36:src/scheduler.cpp **** void Scheduler::sleep(TCB *t) {
 121              		.loc 1 36 31 is_stmt 1
 122              		.cfi_startproc
 123              	.LVL3:
 124 0094 130101FF 		addi	sp,sp,-16
 125              		.cfi_def_cfa_offset 16
 126 0098 23348100 		sd	s0,8(sp)
 127              		.cfi_offset 8, -8
 128 009c 13040101 		addi	s0,sp,16
 129              		.cfi_def_cfa 8, 0
  37:src/scheduler.cpp ****     TCB* iter = sleepingHead, *prev = nullptr;
 130              		.loc 1 37 5
 131              		.loc 1 37 10 is_stmt 0
 132 00a0 97070000 		ld	a5,.LANCHOR0+16
 132      83B70700 
 133              	.LVL4:
GAS LISTING /tmp/cc3K9YXg.s 			page 4


 134              		.loc 1 37 32
 135 00a8 13060000 		li	a2,0
 136              	.LVL5:
 137              	.L13:
  38:src/scheduler.cpp ****     for(; iter!= nullptr; prev = iter, iter=iter->next)
 138              		.loc 1 38 5 is_stmt 1 discriminator 1
 139              		.loc 1 38 15 discriminator 1
 140 00ac 638E0700 		beqz	a5,.L12
  39:src/scheduler.cpp ****         if(iter->wakeTime>t->wakeTime)
 141              		.loc 1 39 9
 142              		.loc 1 39 18 is_stmt 0
 143 00b0 83B68705 		ld	a3,88(a5)
 144              		.loc 1 39 30
 145 00b4 03378505 		ld	a4,88(a0)
 146              		.loc 1 39 9
 147 00b8 6368D700 		bgtu	a3,a4,.L12
  38:src/scheduler.cpp ****     for(; iter!= nullptr; prev = iter, iter=iter->next)
 148              		.loc 1 38 5 is_stmt 1
 149              	.LVL6:
  38:src/scheduler.cpp ****     for(; iter!= nullptr; prev = iter, iter=iter->next)
 150              		.loc 1 38 32 is_stmt 0
 151 00bc 13860700 		mv	a2,a5
  38:src/scheduler.cpp ****     for(; iter!= nullptr; prev = iter, iter=iter->next)
 152              		.loc 1 38 44
 153 00c0 83B78704 		ld	a5,72(a5)
 154              	.LVL7:
  38:src/scheduler.cpp ****     for(; iter!= nullptr; prev = iter, iter=iter->next)
 155              		.loc 1 38 5
 156 00c4 6FF09FFE 		j	.L13
 157              	.L12:
  40:src/scheduler.cpp ****             break;
  41:src/scheduler.cpp ****     t->next = iter;
 158              		.loc 1 41 5 is_stmt 1
 159              		.loc 1 41 13 is_stmt 0
 160 00c8 2334F504 		sd	a5,72(a0)
  42:src/scheduler.cpp ****     if(prev)
 161              		.loc 1 42 5 is_stmt 1
 162 00cc 630A0600 		beqz	a2,.L14
  43:src/scheduler.cpp ****         prev->next = t;
 163              		.loc 1 43 9
 164              		.loc 1 43 20 is_stmt 0
 165 00d0 2334A604 		sd	a0,72(a2)
 166              	.LVL8:
 167              	.L11:
  44:src/scheduler.cpp ****     else
  45:src/scheduler.cpp ****         sleepingHead = t;
  46:src/scheduler.cpp **** }
 168              		.loc 1 46 1
 169 00d4 03348100 		ld	s0,8(sp)
 170              		.cfi_remember_state
 171              		.cfi_restore 8
 172              		.cfi_def_cfa 2, 16
 173 00d8 13010101 		addi	sp,sp,16
 174              		.cfi_def_cfa_offset 0
 175 00dc 67800000 		jr	ra
 176              	.LVL9:
 177              	.L14:
GAS LISTING /tmp/cc3K9YXg.s 			page 5


 178              		.cfi_restore_state
  45:src/scheduler.cpp **** }
 179              		.loc 1 45 9 is_stmt 1
  45:src/scheduler.cpp **** }
 180              		.loc 1 45 22 is_stmt 0
 181 00e0 97070000 		sd	a0,.LANCHOR0+16,a5
 181      23B0A700 
 182              	.LVL10:
 183              		.loc 1 46 1
 184 00e8 6FF0DFFE 		j	.L11
 185              		.cfi_endproc
 186              	.LFE35:
 188              		.align	2
 189              		.globl	_ZN9Scheduler5awakeEv
 191              	_ZN9Scheduler5awakeEv:
 192              	.LFB36:
  47:src/scheduler.cpp **** 
  48:src/scheduler.cpp **** //try and awake all threads whose awake time is less than global time
  49:src/scheduler.cpp **** void Scheduler::awake(){
 193              		.loc 1 49 24 is_stmt 1
 194              		.cfi_startproc
 195 00ec 130101FE 		addi	sp,sp,-32
 196              		.cfi_def_cfa_offset 32
 197 00f0 233C1100 		sd	ra,24(sp)
 198 00f4 23388100 		sd	s0,16(sp)
 199 00f8 23349100 		sd	s1,8(sp)
 200              		.cfi_offset 1, -8
 201              		.cfi_offset 8, -16
 202              		.cfi_offset 9, -24
 203 00fc 13040102 		addi	s0,sp,32
 204              		.cfi_def_cfa 8, 0
 205              	.L19:
  50:src/scheduler.cpp ****     while(sleepingHead){
 206              		.loc 1 50 5
 207              		.loc 1 50 11
 208 0100 97040000 		ld	s1,.LANCHOR0+16
 208      83B40400 
 209 0108 638C0402 		beqz	s1,.L17
 210              	.LBB2:
  51:src/scheduler.cpp ****         TCB* tmp = sleepingHead;
 211              		.loc 1 51 9
 212              	.LVL11:
  52:src/scheduler.cpp **** 
  53:src/scheduler.cpp ****         if(tmp->wakeTime <= RiscV::globalTime){
 213              		.loc 1 53 9
 214              		.loc 1 53 17 is_stmt 0
 215 010c 03B78405 		ld	a4,88(s1)
 216              		.loc 1 53 26
 217 0110 97070000 		la	a5,_ZN5RiscV10globalTimeE
 217      83B70700 
 218 0118 83B70700 		ld	a5,0(a5)
 219              		.loc 1 53 9
 220 011c 63E2E702 		bgtu	a4,a5,.L17
  54:src/scheduler.cpp ****             sleepingHead = sleepingHead->next;
 221              		.loc 1 54 13 is_stmt 1
 222              		.loc 1 54 42 is_stmt 0
 223 0120 83B78404 		ld	a5,72(s1)
GAS LISTING /tmp/cc3K9YXg.s 			page 6


 224              		.loc 1 54 26
 225 0124 17070000 		sd	a5,.LANCHOR0+16,a4
 225      2330F700 
  55:src/scheduler.cpp ****             put(tmp);
 226              		.loc 1 55 13 is_stmt 1
 227              		.loc 1 55 16 is_stmt 0
 228 012c 13850400 		mv	a0,s1
 229 0130 97000000 		call	_ZN9Scheduler3putEP3TCB
 229      E7800000 
 230              	.LVL12:
  56:src/scheduler.cpp ****             tmp->next = nullptr;
 231              		.loc 1 56 13 is_stmt 1
 232              		.loc 1 56 23 is_stmt 0
 233 0138 23B40404 		sd	zero,72(s1)
 234              	.LBE2:
  50:src/scheduler.cpp ****         TCB* tmp = sleepingHead;
 235              		.loc 1 50 5
 236 013c 6FF05FFC 		j	.L19
 237              	.LVL13:
 238              	.L17:
  57:src/scheduler.cpp ****         }
  58:src/scheduler.cpp ****         else{
  59:src/scheduler.cpp ****             break;
  60:src/scheduler.cpp ****         }
  61:src/scheduler.cpp ****     }
  62:src/scheduler.cpp **** }
 239              		.loc 1 62 1
 240 0140 83308101 		ld	ra,24(sp)
 241              		.cfi_restore 1
 242 0144 03340101 		ld	s0,16(sp)
 243              		.cfi_restore 8
 244              		.cfi_def_cfa 2, 32
 245 0148 83348100 		ld	s1,8(sp)
 246              		.cfi_restore 9
 247 014c 13010102 		addi	sp,sp,32
 248              		.cfi_def_cfa_offset 0
 249 0150 67800000 		jr	ra
 250              		.cfi_endproc
 251              	.LFE36:
 253              		.section	.rodata.str1.8,"aMS",@progbits,1
 254              		.align	3
 255              	.LC0:
 256 0000 0A00     		.string	"\n"
 257              		.text
 258              		.align	2
 259              		.globl	_ZN9Scheduler13showSchedulerEv
 261              	_ZN9Scheduler13showSchedulerEv:
 262              	.LFB37:
  63:src/scheduler.cpp **** 
  64:src/scheduler.cpp **** //utility function to print all threads currently in scheduler
  65:src/scheduler.cpp **** void Scheduler::showScheduler() {
 263              		.loc 1 65 33 is_stmt 1
 264              		.cfi_startproc
 265 0154 130101FE 		addi	sp,sp,-32
 266              		.cfi_def_cfa_offset 32
 267 0158 233C1100 		sd	ra,24(sp)
 268 015c 23388100 		sd	s0,16(sp)
GAS LISTING /tmp/cc3K9YXg.s 			page 7


 269 0160 23349100 		sd	s1,8(sp)
 270              		.cfi_offset 1, -8
 271              		.cfi_offset 8, -16
 272              		.cfi_offset 9, -24
 273 0164 13040102 		addi	s0,sp,32
 274              		.cfi_def_cfa 8, 0
  66:src/scheduler.cpp ****     TCB* iter = readyHead;
 275              		.loc 1 66 5
 276              		.loc 1 66 10 is_stmt 0
 277 0168 97040000 		ld	s1,.LANCHOR0
 277      83B40400 
 278              	.LVL14:
 279              	.L23:
  67:src/scheduler.cpp ****     while(iter){
 280              		.loc 1 67 5 is_stmt 1
 281              		.loc 1 67 11
 282 0170 63880402 		beqz	s1,.L21
  68:src/scheduler.cpp ****         ConsoleUtil::printInt((uint64)iter, 16);
 283              		.loc 1 68 9
 284              		.loc 1 68 30 is_stmt 0
 285 0174 13060000 		li	a2,0
 286 0178 93050001 		li	a1,16
 287 017c 1B850400 		sext.w	a0,s1
 288 0180 97000000 		call	_ZN11ConsoleUtil8printIntEiii@plt
 288      E7800000 
 289              	.LVL15:
  69:src/scheduler.cpp ****         ConsoleUtil::printString("\n");
 290              		.loc 1 69 9 is_stmt 1
 291              		.loc 1 69 33 is_stmt 0
 292 0188 17050000 		lla	a0,.LC0
 292      13050500 
 293 0190 97000000 		call	_ZN11ConsoleUtil11printStringEPKc@plt
 293      E7800000 
 294              	.LVL16:
  70:src/scheduler.cpp ****         iter = iter->next;
 295              		.loc 1 70 9 is_stmt 1
 296              		.loc 1 70 14 is_stmt 0
 297 0198 83B48404 		ld	s1,72(s1)
 298              	.LVL17:
  67:src/scheduler.cpp ****         ConsoleUtil::printInt((uint64)iter, 16);
 299              		.loc 1 67 5
 300 019c 6FF05FFD 		j	.L23
 301              	.L21:
  71:src/scheduler.cpp ****     }
  72:src/scheduler.cpp **** }
 302              		.loc 1 72 1
 303 01a0 83308101 		ld	ra,24(sp)
 304              		.cfi_restore 1
 305 01a4 03340101 		ld	s0,16(sp)
 306              		.cfi_restore 8
 307              		.cfi_def_cfa 2, 32
 308 01a8 83348100 		ld	s1,8(sp)
 309              		.cfi_restore 9
 310              	.LVL18:
 311 01ac 13010102 		addi	sp,sp,32
 312              		.cfi_def_cfa_offset 0
 313 01b0 67800000 		jr	ra
GAS LISTING /tmp/cc3K9YXg.s 			page 8


 314              		.cfi_endproc
 315              	.LFE37:
 317              		.align	2
 318              		.globl	_ZN9Scheduler12showSleepingEv
 320              	_ZN9Scheduler12showSleepingEv:
 321              	.LFB38:
  73:src/scheduler.cpp **** 
  74:src/scheduler.cpp **** //utility function to print all threads currently in sleep
  75:src/scheduler.cpp **** void Scheduler::showSleeping(){
 322              		.loc 1 75 31 is_stmt 1
 323              		.cfi_startproc
 324 01b4 130101FE 		addi	sp,sp,-32
 325              		.cfi_def_cfa_offset 32
 326 01b8 233C1100 		sd	ra,24(sp)
 327 01bc 23388100 		sd	s0,16(sp)
 328 01c0 23349100 		sd	s1,8(sp)
 329              		.cfi_offset 1, -8
 330              		.cfi_offset 8, -16
 331              		.cfi_offset 9, -24
 332 01c4 13040102 		addi	s0,sp,32
 333              		.cfi_def_cfa 8, 0
  76:src/scheduler.cpp ****     TCB* iter = sleepingHead;
 334              		.loc 1 76 5
 335              		.loc 1 76 10 is_stmt 0
 336 01c8 97040000 		ld	s1,.LANCHOR0+16
 336      83B40400 
 337              	.LVL19:
 338              	.L27:
  77:src/scheduler.cpp ****     while(iter){
 339              		.loc 1 77 5 is_stmt 1
 340              		.loc 1 77 11
 341 01d0 63880402 		beqz	s1,.L25
  78:src/scheduler.cpp ****         printInt((uint64)iter, 16);
 342              		.loc 1 78 9
 343              		.loc 1 78 17 is_stmt 0
 344 01d4 13060000 		li	a2,0
 345 01d8 93050001 		li	a1,16
 346 01dc 1B850400 		sext.w	a0,s1
 347 01e0 97000000 		call	_Z8printIntiii@plt
 347      E7800000 
 348              	.LVL20:
  79:src/scheduler.cpp ****         printString("\n");
 349              		.loc 1 79 9 is_stmt 1
 350              		.loc 1 79 20 is_stmt 0
 351 01e8 17050000 		lla	a0,.LC0
 351      13050500 
 352 01f0 97000000 		call	_Z11printStringPKc@plt
 352      E7800000 
 353              	.LVL21:
  80:src/scheduler.cpp ****         iter = iter->next;
 354              		.loc 1 80 9 is_stmt 1
 355              		.loc 1 80 14 is_stmt 0
 356 01f8 83B48404 		ld	s1,72(s1)
 357              	.LVL22:
  77:src/scheduler.cpp ****         printInt((uint64)iter, 16);
 358              		.loc 1 77 5
 359 01fc 6FF05FFD 		j	.L27
GAS LISTING /tmp/cc3K9YXg.s 			page 9


 360              	.L25:
  81:src/scheduler.cpp ****     }
  82:src/scheduler.cpp **** }...
 361              		.loc 1 82 1
 362 0200 83308101 		ld	ra,24(sp)
 363              		.cfi_restore 1
 364 0204 03340101 		ld	s0,16(sp)
 365              		.cfi_restore 8
 366              		.cfi_def_cfa 2, 32
 367 0208 83348100 		ld	s1,8(sp)
 368              		.cfi_restore 9
 369              	.LVL23:
 370 020c 13010102 		addi	sp,sp,32
 371              		.cfi_def_cfa_offset 0
 372 0210 67800000 		jr	ra
 373              		.cfi_endproc
 374              	.LFE38:
 376              		.globl	_ZN9Scheduler12sleepingHeadE
 377              		.globl	_ZN9Scheduler9readyTailE
 378              		.globl	_ZN9Scheduler9readyHeadE
 379              		.bss
 380              		.align	3
 381              		.set	.LANCHOR0,. + 0
 384              	_ZN9Scheduler9readyHeadE:
 385 0000 00000000 		.zero	8
 385      00000000 
 388              	_ZN9Scheduler9readyTailE:
 389 0008 00000000 		.zero	8
 389      00000000 
 392              	_ZN9Scheduler12sleepingHeadE:
 393 0010 00000000 		.zero	8
 393      00000000 
 394              		.text
 395              	.Letext0:
 396              		.file 2 "src/../h/../h/../lib/hw.h"
 397              		.file 3 "src/../h/../h/tcb.hpp"
 398              		.file 4 "src/../h/scb.hpp"
 399              		.file 5 "src/../h/scheduler.hpp"
 400              		.file 6 "src/../h/consoleUtil.hpp"
 401              		.file 7 "src/../h/printing.hpp"
GAS LISTING /tmp/cc3K9YXg.s 			page 10

