GAS LISTING /tmp/ccidsuBt.s 			page 1


   1              		.file	"scheduler.cpp"
   2              		.option pic
   3              		.option norelax
   4              		.text
   5              	.Ltext0:
   6              		.align	2
   7              		.globl	_ZN9Scheduler10initializeEv
   9              	_ZN9Scheduler10initializeEv:
  10              	.LFB42:
  11              		.file 1 "src/scheduler.cpp"
   1:src/scheduler.cpp **** //
   2:src/scheduler.cpp **** // Created by os on 5/18/22.
   3:src/scheduler.cpp **** //
   4:src/scheduler.cpp **** 
   5:src/scheduler.cpp **** #include "../h/scheduler.hpp"
   6:src/scheduler.cpp **** #include "../h/printing.hpp"
   7:src/scheduler.cpp **** #include "../h/consoleUtil.hpp"
   8:src/scheduler.cpp **** #include "../h/riscv.hpp"
   9:src/scheduler.cpp **** 
  10:src/scheduler.cpp **** TCB* Scheduler::readyHead = nullptr;
  11:src/scheduler.cpp **** TCB* Scheduler::readyTail = nullptr;
  12:src/scheduler.cpp **** TCB* Scheduler::sleepingHead = nullptr;
  13:src/scheduler.cpp **** 
  14:src/scheduler.cpp **** 
  15:src/scheduler.cpp **** void Scheduler::initialize(){
  12              		.loc 1 15 29
  13              		.cfi_startproc
  14 0000 130101FF 		addi	sp,sp,-16
  15              		.cfi_def_cfa_offset 16
  16 0004 23348100 		sd	s0,8(sp)
  17              		.cfi_offset 8, -8
  18 0008 13040101 		addi	s0,sp,16
  19              		.cfi_def_cfa 8, 0
  16:src/scheduler.cpp **** }
  20              		.loc 1 16 1 is_stmt 0
  21 000c 03348100 		ld	s0,8(sp)
  22              		.cfi_restore 8
  23              		.cfi_def_cfa 2, 16
  24 0010 13010101 		addi	sp,sp,16
  25              		.cfi_def_cfa_offset 0
  26 0014 67800000 		jr	ra
  27              		.cfi_endproc
  28              	.LFE42:
  30              		.align	2
  31              		.globl	_ZN9Scheduler3putEP3TCB
  33              	_ZN9Scheduler3putEP3TCB:
  34              	.LFB43:
  17:src/scheduler.cpp **** 
  18:src/scheduler.cpp **** //put a TCB in scheduler
  19:src/scheduler.cpp **** //each TCB has a pointer to next TCB, so no external list/queue structures needed
  20:src/scheduler.cpp **** void Scheduler::put(TCB *tcb) {
  35              		.loc 1 20 31 is_stmt 1
  36              		.cfi_startproc
  37              	.LVL0:
  38 0018 130101FF 		addi	sp,sp,-16
  39              		.cfi_def_cfa_offset 16
  40 001c 23348100 		sd	s0,8(sp)
GAS LISTING /tmp/ccidsuBt.s 			page 2


  41              		.cfi_offset 8, -8
  42 0020 13040101 		addi	s0,sp,16
  43              		.cfi_def_cfa 8, 0
  21:src/scheduler.cpp ****     tcb->next = nullptr;
  44              		.loc 1 21 5
  45              		.loc 1 21 15 is_stmt 0
  46 0024 23340504 		sd	zero,72(a0)
  22:src/scheduler.cpp ****     readyTail = (!readyHead ? readyHead : readyTail->next) = tcb;
  47              		.loc 1 22 5 is_stmt 1
  48              		.loc 1 22 18 is_stmt 0
  49 0028 97070000 		ld	a5,.LANCHOR0
  49      83B70700 
  50              		.loc 1 22 60
  51 0030 63820702 		beqz	a5,.L7
  52              		.loc 1 22 54 discriminator 2
  53 0034 97070000 		ld	a5,.LANCHOR0+8
  53      83B70700 
  54              		.loc 1 22 60 discriminator 2
  55 003c 23B4A704 		sd	a0,72(a5)
  56              	.L5:
  57              		.loc 1 22 15 discriminator 4
  58 0040 97070000 		sd	a0,.LANCHOR0+8,a5
  58      23B0A700 
  23:src/scheduler.cpp **** }
  59              		.loc 1 23 1 discriminator 4
  60 0048 03348100 		ld	s0,8(sp)
  61              		.cfi_remember_state
  62              		.cfi_restore 8
  63              		.cfi_def_cfa 2, 16
  64 004c 13010101 		addi	sp,sp,16
  65              		.cfi_def_cfa_offset 0
  66 0050 67800000 		jr	ra
  67              	.L7:
  68              		.cfi_restore_state
  22:src/scheduler.cpp ****     readyTail = (!readyHead ? readyHead : readyTail->next) = tcb;
  69              		.loc 1 22 60 discriminator 1
  70 0054 97070000 		sd	a0,.LANCHOR0,a5
  70      23B0A700 
  71 005c 6FF05FFE 		j	.L5
  72              		.cfi_endproc
  73              	.LFE43:
  75              		.align	2
  76              		.globl	_ZN9Scheduler3getEv
  78              	_ZN9Scheduler3getEv:
  79              	.LFB44:
  24:src/scheduler.cpp **** 
  25:src/scheduler.cpp **** 
  26:src/scheduler.cpp **** //get new TCB from scheduler
  27:src/scheduler.cpp **** TCB* Scheduler::get(){
  80              		.loc 1 27 22 is_stmt 1
  81              		.cfi_startproc
  82 0060 130101FF 		addi	sp,sp,-16
  83              		.cfi_def_cfa_offset 16
  84 0064 23348100 		sd	s0,8(sp)
  85              		.cfi_offset 8, -8
  86 0068 13040101 		addi	s0,sp,16
  87              		.cfi_def_cfa 8, 0
GAS LISTING /tmp/ccidsuBt.s 			page 3


  28:src/scheduler.cpp ****     if(readyHead == nullptr)
  88              		.loc 1 28 5
  89              		.loc 1 28 18 is_stmt 0
  90 006c 17050000 		ld	a0,.LANCHOR0
  90      03350500 
  91              		.loc 1 28 5
  92 0074 630A0500 		beqz	a0,.L8
  29:src/scheduler.cpp ****         return nullptr;
  30:src/scheduler.cpp ****     TCB* tmp = readyHead;
  93              		.loc 1 30 5 is_stmt 1
  94              	.LVL1:
  31:src/scheduler.cpp ****     readyHead = readyHead->next;
  95              		.loc 1 31 5
  96              		.loc 1 31 28 is_stmt 0
  97 0078 83378504 		ld	a5,72(a0)
  98              		.loc 1 31 15
  99 007c 17070000 		sd	a5,.LANCHOR0,a4
  99      2330F700 
  32:src/scheduler.cpp ****     tmp->next = nullptr;
 100              		.loc 1 32 5 is_stmt 1
 101              		.loc 1 32 15 is_stmt 0
 102 0084 23340504 		sd	zero,72(a0)
  33:src/scheduler.cpp ****     return tmp;
 103              		.loc 1 33 5 is_stmt 1
 104              	.LVL2:
 105              	.L8:
  34:src/scheduler.cpp **** }
 106              		.loc 1 34 1 is_stmt 0
 107 0088 03348100 		ld	s0,8(sp)
 108              		.cfi_restore 8
 109              		.cfi_def_cfa 2, 16
 110 008c 13010101 		addi	sp,sp,16
 111              		.cfi_def_cfa_offset 0
 112 0090 67800000 		jr	ra
 113              		.cfi_endproc
 114              	.LFE44:
 116              		.align	2
 117              		.globl	_ZN9Scheduler5sleepEP3TCB
 119              	_ZN9Scheduler5sleepEP3TCB:
 120              	.LFB45:
  35:src/scheduler.cpp **** 
  36:src/scheduler.cpp **** //put a thread to sleep by linking it in sleeping queue (same thing as with ready threads, link by 
  37:src/scheduler.cpp **** void Scheduler::sleep(TCB *t) {
 121              		.loc 1 37 31 is_stmt 1
 122              		.cfi_startproc
 123              	.LVL3:
 124 0094 130101FF 		addi	sp,sp,-16
 125              		.cfi_def_cfa_offset 16
 126 0098 23348100 		sd	s0,8(sp)
 127              		.cfi_offset 8, -8
 128 009c 13040101 		addi	s0,sp,16
 129              		.cfi_def_cfa 8, 0
  38:src/scheduler.cpp ****     TCB* iter = sleepingHead, *prev = nullptr;
 130              		.loc 1 38 5
 131              		.loc 1 38 10 is_stmt 0
 132 00a0 97070000 		ld	a5,.LANCHOR0+16
 132      83B70700 
GAS LISTING /tmp/ccidsuBt.s 			page 4


 133              	.LVL4:
 134              		.loc 1 38 32
 135 00a8 13060000 		li	a2,0
 136              	.LVL5:
 137              	.L13:
  39:src/scheduler.cpp ****     for(; iter!= nullptr; prev = iter, iter=iter->next)
 138              		.loc 1 39 5 is_stmt 1 discriminator 1
 139              		.loc 1 39 15 discriminator 1
 140 00ac 638E0700 		beqz	a5,.L12
  40:src/scheduler.cpp ****         if(iter->wakeTime>t->wakeTime)
 141              		.loc 1 40 9
 142              		.loc 1 40 18 is_stmt 0
 143 00b0 83B68705 		ld	a3,88(a5)
 144              		.loc 1 40 30
 145 00b4 03378505 		ld	a4,88(a0)
 146              		.loc 1 40 9
 147 00b8 6368D700 		bgtu	a3,a4,.L12
  39:src/scheduler.cpp ****     for(; iter!= nullptr; prev = iter, iter=iter->next)
 148              		.loc 1 39 5 is_stmt 1
 149              	.LVL6:
  39:src/scheduler.cpp ****     for(; iter!= nullptr; prev = iter, iter=iter->next)
 150              		.loc 1 39 32 is_stmt 0
 151 00bc 13860700 		mv	a2,a5
  39:src/scheduler.cpp ****     for(; iter!= nullptr; prev = iter, iter=iter->next)
 152              		.loc 1 39 44
 153 00c0 83B78704 		ld	a5,72(a5)
 154              	.LVL7:
  39:src/scheduler.cpp ****     for(; iter!= nullptr; prev = iter, iter=iter->next)
 155              		.loc 1 39 5
 156 00c4 6FF09FFE 		j	.L13
 157              	.L12:
  41:src/scheduler.cpp ****             break;
  42:src/scheduler.cpp ****     t->next = iter;
 158              		.loc 1 42 5 is_stmt 1
 159              		.loc 1 42 13 is_stmt 0
 160 00c8 2334F504 		sd	a5,72(a0)
  43:src/scheduler.cpp ****     if(prev)
 161              		.loc 1 43 5 is_stmt 1
 162 00cc 630A0600 		beqz	a2,.L14
  44:src/scheduler.cpp ****         prev->next = t;
 163              		.loc 1 44 9
 164              		.loc 1 44 20 is_stmt 0
 165 00d0 2334A604 		sd	a0,72(a2)
 166              	.LVL8:
 167              	.L11:
  45:src/scheduler.cpp ****     else
  46:src/scheduler.cpp ****         sleepingHead = t;
  47:src/scheduler.cpp **** }
 168              		.loc 1 47 1
 169 00d4 03348100 		ld	s0,8(sp)
 170              		.cfi_remember_state
 171              		.cfi_restore 8
 172              		.cfi_def_cfa 2, 16
 173 00d8 13010101 		addi	sp,sp,16
 174              		.cfi_def_cfa_offset 0
 175 00dc 67800000 		jr	ra
 176              	.LVL9:
GAS LISTING /tmp/ccidsuBt.s 			page 5


 177              	.L14:
 178              		.cfi_restore_state
  46:src/scheduler.cpp **** }
 179              		.loc 1 46 9 is_stmt 1
  46:src/scheduler.cpp **** }
 180              		.loc 1 46 22 is_stmt 0
 181 00e0 97070000 		sd	a0,.LANCHOR0+16,a5
 181      23B0A700 
 182              	.LVL10:
 183              		.loc 1 47 1
 184 00e8 6FF0DFFE 		j	.L11
 185              		.cfi_endproc
 186              	.LFE45:
 188              		.align	2
 189              		.globl	_ZN9Scheduler5awakeEv
 191              	_ZN9Scheduler5awakeEv:
 192              	.LFB46:
  48:src/scheduler.cpp **** 
  49:src/scheduler.cpp **** //try and awake all threads whose awake time is less than global time
  50:src/scheduler.cpp **** void Scheduler::awake(){
 193              		.loc 1 50 24 is_stmt 1
 194              		.cfi_startproc
 195 00ec 130101FE 		addi	sp,sp,-32
 196              		.cfi_def_cfa_offset 32
 197 00f0 233C1100 		sd	ra,24(sp)
 198 00f4 23388100 		sd	s0,16(sp)
 199 00f8 23349100 		sd	s1,8(sp)
 200              		.cfi_offset 1, -8
 201              		.cfi_offset 8, -16
 202              		.cfi_offset 9, -24
 203 00fc 13040102 		addi	s0,sp,32
 204              		.cfi_def_cfa 8, 0
 205              	.L19:
  51:src/scheduler.cpp ****     while(sleepingHead){
 206              		.loc 1 51 5
 207              		.loc 1 51 11
 208 0100 97040000 		ld	s1,.LANCHOR0+16
 208      83B40400 
 209 0108 638C0402 		beqz	s1,.L17
 210              	.LBB2:
  52:src/scheduler.cpp ****         TCB* tmp = sleepingHead;
 211              		.loc 1 52 9
 212              	.LVL11:
  53:src/scheduler.cpp **** 
  54:src/scheduler.cpp ****         if(tmp->wakeTime <= RiscV::globalTime){
 213              		.loc 1 54 9
 214              		.loc 1 54 17 is_stmt 0
 215 010c 03B78405 		ld	a4,88(s1)
 216              		.loc 1 54 26
 217 0110 97070000 		la	a5,_ZN5RiscV10globalTimeE
 217      83B70700 
 218 0118 83B70700 		ld	a5,0(a5)
 219              		.loc 1 54 9
 220 011c 63E2E702 		bgtu	a4,a5,.L17
  55:src/scheduler.cpp ****             sleepingHead = sleepingHead->next;
 221              		.loc 1 55 13 is_stmt 1
 222              		.loc 1 55 42 is_stmt 0
GAS LISTING /tmp/ccidsuBt.s 			page 6


 223 0120 83B78404 		ld	a5,72(s1)
 224              		.loc 1 55 26
 225 0124 17070000 		sd	a5,.LANCHOR0+16,a4
 225      2330F700 
  56:src/scheduler.cpp ****             put(tmp);
 226              		.loc 1 56 13 is_stmt 1
 227              		.loc 1 56 16 is_stmt 0
 228 012c 13850400 		mv	a0,s1
 229 0130 97000000 		call	_ZN9Scheduler3putEP3TCB
 229      E7800000 
 230              	.LVL12:
  57:src/scheduler.cpp ****             tmp->next = nullptr;
 231              		.loc 1 57 13 is_stmt 1
 232              		.loc 1 57 23 is_stmt 0
 233 0138 23B40404 		sd	zero,72(s1)
 234              	.LBE2:
  51:src/scheduler.cpp ****         TCB* tmp = sleepingHead;
 235              		.loc 1 51 5
 236 013c 6FF05FFC 		j	.L19
 237              	.LVL13:
 238              	.L17:
  58:src/scheduler.cpp ****         }
  59:src/scheduler.cpp ****         else{
  60:src/scheduler.cpp ****             break;
  61:src/scheduler.cpp ****         }
  62:src/scheduler.cpp ****     }
  63:src/scheduler.cpp **** }
 239              		.loc 1 63 1
 240 0140 83308101 		ld	ra,24(sp)
 241              		.cfi_restore 1
 242 0144 03340101 		ld	s0,16(sp)
 243              		.cfi_restore 8
 244              		.cfi_def_cfa 2, 32
 245 0148 83348100 		ld	s1,8(sp)
 246              		.cfi_restore 9
 247 014c 13010102 		addi	sp,sp,32
 248              		.cfi_def_cfa_offset 0
 249 0150 67800000 		jr	ra
 250              		.cfi_endproc
 251              	.LFE46:
 253              		.section	.rodata.str1.8,"aMS",@progbits,1
 254              		.align	3
 255              	.LC0:
 256 0000 0A00     		.string	"\n"
 257              		.text
 258              		.align	2
 259              		.globl	_ZN9Scheduler13showSchedulerEv
 261              	_ZN9Scheduler13showSchedulerEv:
 262              	.LFB47:
  64:src/scheduler.cpp **** 
  65:src/scheduler.cpp **** //utility function to print all threads currently in scheduler
  66:src/scheduler.cpp **** void Scheduler::showScheduler() {
 263              		.loc 1 66 33 is_stmt 1
 264              		.cfi_startproc
 265 0154 130101FE 		addi	sp,sp,-32
 266              		.cfi_def_cfa_offset 32
 267 0158 233C1100 		sd	ra,24(sp)
GAS LISTING /tmp/ccidsuBt.s 			page 7


 268 015c 23388100 		sd	s0,16(sp)
 269 0160 23349100 		sd	s1,8(sp)
 270              		.cfi_offset 1, -8
 271              		.cfi_offset 8, -16
 272              		.cfi_offset 9, -24
 273 0164 13040102 		addi	s0,sp,32
 274              		.cfi_def_cfa 8, 0
  67:src/scheduler.cpp ****     TCB* iter = readyHead;
 275              		.loc 1 67 5
 276              		.loc 1 67 10 is_stmt 0
 277 0168 97040000 		ld	s1,.LANCHOR0
 277      83B40400 
 278              	.LVL14:
 279              	.L23:
  68:src/scheduler.cpp ****     while(iter){
 280              		.loc 1 68 5 is_stmt 1
 281              		.loc 1 68 11
 282 0170 63880402 		beqz	s1,.L21
  69:src/scheduler.cpp ****         ConsoleUtil::printInt((uint64)iter, 16);
 283              		.loc 1 69 9
 284              		.loc 1 69 30 is_stmt 0
 285 0174 13060000 		li	a2,0
 286 0178 93050001 		li	a1,16
 287 017c 1B850400 		sext.w	a0,s1
 288 0180 97000000 		call	_ZN11ConsoleUtil8printIntEiii@plt
 288      E7800000 
 289              	.LVL15:
  70:src/scheduler.cpp ****         ConsoleUtil::printString("\n");
 290              		.loc 1 70 9 is_stmt 1
 291              		.loc 1 70 33 is_stmt 0
 292 0188 17050000 		lla	a0,.LC0
 292      13050500 
 293 0190 97000000 		call	_ZN11ConsoleUtil11printStringEPKc@plt
 293      E7800000 
 294              	.LVL16:
  71:src/scheduler.cpp ****         iter = iter->next;
 295              		.loc 1 71 9 is_stmt 1
 296              		.loc 1 71 14 is_stmt 0
 297 0198 83B48404 		ld	s1,72(s1)
 298              	.LVL17:
  68:src/scheduler.cpp ****         ConsoleUtil::printInt((uint64)iter, 16);
 299              		.loc 1 68 5
 300 019c 6FF05FFD 		j	.L23
 301              	.L21:
  72:src/scheduler.cpp ****     }
  73:src/scheduler.cpp **** }
 302              		.loc 1 73 1
 303 01a0 83308101 		ld	ra,24(sp)
 304              		.cfi_restore 1
 305 01a4 03340101 		ld	s0,16(sp)
 306              		.cfi_restore 8
 307              		.cfi_def_cfa 2, 32
 308 01a8 83348100 		ld	s1,8(sp)
 309              		.cfi_restore 9
 310              	.LVL18:
 311 01ac 13010102 		addi	sp,sp,32
 312              		.cfi_def_cfa_offset 0
GAS LISTING /tmp/ccidsuBt.s 			page 8


 313 01b0 67800000 		jr	ra
 314              		.cfi_endproc
 315              	.LFE47:
 317              		.align	2
 318              		.globl	_ZN9Scheduler12showSleepingEv
 320              	_ZN9Scheduler12showSleepingEv:
 321              	.LFB48:
  74:src/scheduler.cpp **** 
  75:src/scheduler.cpp **** //utility function to print all threads currently in sleep
  76:src/scheduler.cpp **** void Scheduler::showSleeping(){
 322              		.loc 1 76 31 is_stmt 1
 323              		.cfi_startproc
 324 01b4 130101FE 		addi	sp,sp,-32
 325              		.cfi_def_cfa_offset 32
 326 01b8 233C1100 		sd	ra,24(sp)
 327 01bc 23388100 		sd	s0,16(sp)
 328 01c0 23349100 		sd	s1,8(sp)
 329              		.cfi_offset 1, -8
 330              		.cfi_offset 8, -16
 331              		.cfi_offset 9, -24
 332 01c4 13040102 		addi	s0,sp,32
 333              		.cfi_def_cfa 8, 0
  77:src/scheduler.cpp ****     TCB* iter = sleepingHead;
 334              		.loc 1 77 5
 335              		.loc 1 77 10 is_stmt 0
 336 01c8 97040000 		ld	s1,.LANCHOR0+16
 336      83B40400 
 337              	.LVL19:
 338              	.L27:
  78:src/scheduler.cpp ****     while(iter){
 339              		.loc 1 78 5 is_stmt 1
 340              		.loc 1 78 11
 341 01d0 63880402 		beqz	s1,.L25
  79:src/scheduler.cpp ****         printInt((uint64)iter, 16);
 342              		.loc 1 79 9
 343              		.loc 1 79 17 is_stmt 0
 344 01d4 13060000 		li	a2,0
 345 01d8 93050001 		li	a1,16
 346 01dc 1B850400 		sext.w	a0,s1
 347 01e0 97000000 		call	_Z8printIntiii@plt
 347      E7800000 
 348              	.LVL20:
  80:src/scheduler.cpp ****         printString("\n");
 349              		.loc 1 80 9 is_stmt 1
 350              		.loc 1 80 20 is_stmt 0
 351 01e8 17050000 		lla	a0,.LC0
 351      13050500 
 352 01f0 97000000 		call	_Z11printStringPKc@plt
 352      E7800000 
 353              	.LVL21:
  81:src/scheduler.cpp ****         iter = iter->next;
 354              		.loc 1 81 9 is_stmt 1
 355              		.loc 1 81 14 is_stmt 0
 356 01f8 83B48404 		ld	s1,72(s1)
 357              	.LVL22:
  78:src/scheduler.cpp ****         printInt((uint64)iter, 16);
 358              		.loc 1 78 5
GAS LISTING /tmp/ccidsuBt.s 			page 9


 359 01fc 6FF05FFD 		j	.L27
 360              	.L25:
  82:src/scheduler.cpp ****     }
  83:src/scheduler.cpp **** }...
 361              		.loc 1 83 1
 362 0200 83308101 		ld	ra,24(sp)
 363              		.cfi_restore 1
 364 0204 03340101 		ld	s0,16(sp)
 365              		.cfi_restore 8
 366              		.cfi_def_cfa 2, 32
 367 0208 83348100 		ld	s1,8(sp)
 368              		.cfi_restore 9
 369              	.LVL23:
 370 020c 13010102 		addi	sp,sp,32
 371              		.cfi_def_cfa_offset 0
 372 0210 67800000 		jr	ra
 373              		.cfi_endproc
 374              	.LFE48:
 376              		.globl	_ZN9Scheduler12sleepingHeadE
 377              		.globl	_ZN9Scheduler9readyTailE
 378              		.globl	_ZN9Scheduler9readyHeadE
 379              		.bss
 380              		.align	3
 381              		.set	.LANCHOR0,. + 0
 384              	_ZN9Scheduler9readyHeadE:
 385 0000 00000000 		.zero	8
 385      00000000 
 388              	_ZN9Scheduler9readyTailE:
 389 0008 00000000 		.zero	8
 389      00000000 
 392              	_ZN9Scheduler12sleepingHeadE:
 393 0010 00000000 		.zero	8
 393      00000000 
 394              		.text
 395              	.Letext0:
 396              		.file 2 "src/../h/../h/../lib/hw.h"
 397              		.file 3 "src/../h/../h/../h/../h/../h/utility.hpp"
 398              		.file 4 "src/../h/../h/../h/../h/../h/consoleUtil.hpp"
 399              		.file 5 "src/../h/../h/../h/../h/../h/../h/slab_t.hpp"
 400              		.file 6 "src/../h/../h/../h/../h/../h/cache_t.hpp"
 401              		.file 7 "src/../h/../h/tcb.hpp"
 402              		.file 8 "src/../h/scheduler.hpp"
 403              		.file 9 "src/../h/printing.hpp"
GAS LISTING /tmp/ccidsuBt.s 			page 10


DEFINED SYMBOLS
                            *ABS*:0000000000000000 scheduler.cpp
     /tmp/ccidsuBt.s:9      .text:0000000000000000 _ZN9Scheduler10initializeEv
     /tmp/ccidsuBt.s:13     .text:0000000000000000 .L0 
     /tmp/ccidsuBt.s:14     .text:0000000000000000 .L0 
     /tmp/ccidsuBt.s:15     .text:0000000000000004 .L0 
     /tmp/ccidsuBt.s:17     .text:0000000000000008 .L0 
     /tmp/ccidsuBt.s:19     .text:000000000000000c .L0 
     /tmp/ccidsuBt.s:21     .text:000000000000000c .L0 
     /tmp/ccidsuBt.s:22     .text:0000000000000010 .L0 
     /tmp/ccidsuBt.s:23     .text:0000000000000010 .L0 
     /tmp/ccidsuBt.s:25     .text:0000000000000014 .L0 
     /tmp/ccidsuBt.s:27     .text:0000000000000018 .L0 
     /tmp/ccidsuBt.s:33     .text:0000000000000018 _ZN9Scheduler3putEP3TCB
     /tmp/ccidsuBt.s:36     .text:0000000000000018 .L0 
     /tmp/ccidsuBt.s:38     .text:0000000000000018 .L0 
     /tmp/ccidsuBt.s:39     .text:000000000000001c .L0 
     /tmp/ccidsuBt.s:41     .text:0000000000000020 .L0 
     /tmp/ccidsuBt.s:43     .text:0000000000000024 .L0 
     /tmp/ccidsuBt.s:45     .text:0000000000000024 .L0 
     /tmp/ccidsuBt.s:46     .text:0000000000000024 .L0 
     /tmp/ccidsuBt.s:48     .text:0000000000000028 .L0 
     /tmp/ccidsuBt.s:49     .text:0000000000000028 .L0 
     /tmp/ccidsuBt.s:51     .text:0000000000000030 .L0 
     /tmp/ccidsuBt.s:53     .text:0000000000000034 .L0 
     /tmp/ccidsuBt.s:55     .text:000000000000003c .L0 
     /tmp/ccidsuBt.s:58     .text:0000000000000040 .L0 
     /tmp/ccidsuBt.s:60     .text:0000000000000048 .L0 
     /tmp/ccidsuBt.s:61     .text:000000000000004c .L0 
     /tmp/ccidsuBt.s:62     .text:000000000000004c .L0 
     /tmp/ccidsuBt.s:63     .text:000000000000004c .L0 
     /tmp/ccidsuBt.s:65     .text:0000000000000050 .L0 
     /tmp/ccidsuBt.s:68     .text:0000000000000054 .L0 
     /tmp/ccidsuBt.s:70     .text:0000000000000054 .L0 
     /tmp/ccidsuBt.s:72     .text:0000000000000060 .L0 
     /tmp/ccidsuBt.s:78     .text:0000000000000060 _ZN9Scheduler3getEv
     /tmp/ccidsuBt.s:81     .text:0000000000000060 .L0 
     /tmp/ccidsuBt.s:82     .text:0000000000000060 .L0 
     /tmp/ccidsuBt.s:83     .text:0000000000000064 .L0 
     /tmp/ccidsuBt.s:85     .text:0000000000000068 .L0 
     /tmp/ccidsuBt.s:87     .text:000000000000006c .L0 
     /tmp/ccidsuBt.s:89     .text:000000000000006c .L0 
     /tmp/ccidsuBt.s:90     .text:000000000000006c .L0 
     /tmp/ccidsuBt.s:92     .text:0000000000000074 .L0 
     /tmp/ccidsuBt.s:95     .text:0000000000000078 .L0 
     /tmp/ccidsuBt.s:96     .text:0000000000000078 .L0 
     /tmp/ccidsuBt.s:97     .text:0000000000000078 .L0 
     /tmp/ccidsuBt.s:99     .text:000000000000007c .L0 
     /tmp/ccidsuBt.s:101    .text:0000000000000084 .L0 
     /tmp/ccidsuBt.s:102    .text:0000000000000084 .L0 
     /tmp/ccidsuBt.s:106    .text:0000000000000088 .L0 
     /tmp/ccidsuBt.s:107    .text:0000000000000088 .L0 
     /tmp/ccidsuBt.s:108    .text:000000000000008c .L0 
     /tmp/ccidsuBt.s:109    .text:000000000000008c .L0 
     /tmp/ccidsuBt.s:111    .text:0000000000000090 .L0 
     /tmp/ccidsuBt.s:113    .text:0000000000000094 .L0 
     /tmp/ccidsuBt.s:119    .text:0000000000000094 _ZN9Scheduler5sleepEP3TCB
GAS LISTING /tmp/ccidsuBt.s 			page 11


     /tmp/ccidsuBt.s:122    .text:0000000000000094 .L0 
     /tmp/ccidsuBt.s:124    .text:0000000000000094 .L0 
     /tmp/ccidsuBt.s:125    .text:0000000000000098 .L0 
     /tmp/ccidsuBt.s:127    .text:000000000000009c .L0 
     /tmp/ccidsuBt.s:129    .text:00000000000000a0 .L0 
     /tmp/ccidsuBt.s:131    .text:00000000000000a0 .L0 
     /tmp/ccidsuBt.s:132    .text:00000000000000a0 .L0 
     /tmp/ccidsuBt.s:135    .text:00000000000000a8 .L0 
     /tmp/ccidsuBt.s:139    .text:00000000000000ac .L0 
     /tmp/ccidsuBt.s:140    .text:00000000000000ac .L0 
     /tmp/ccidsuBt.s:142    .text:00000000000000b0 .L0 
     /tmp/ccidsuBt.s:143    .text:00000000000000b0 .L0 
     /tmp/ccidsuBt.s:145    .text:00000000000000b4 .L0 
     /tmp/ccidsuBt.s:147    .text:00000000000000b8 .L0 
     /tmp/ccidsuBt.s:150    .text:00000000000000bc .L0 
     /tmp/ccidsuBt.s:151    .text:00000000000000bc .L0 
     /tmp/ccidsuBt.s:153    .text:00000000000000c0 .L0 
     /tmp/ccidsuBt.s:156    .text:00000000000000c4 .L0 
     /tmp/ccidsuBt.s:159    .text:00000000000000c8 .L0 
     /tmp/ccidsuBt.s:160    .text:00000000000000c8 .L0 
     /tmp/ccidsuBt.s:162    .text:00000000000000cc .L0 
     /tmp/ccidsuBt.s:164    .text:00000000000000d0 .L0 
     /tmp/ccidsuBt.s:165    .text:00000000000000d0 .L0 
     /tmp/ccidsuBt.s:169    .text:00000000000000d4 .L0 
     /tmp/ccidsuBt.s:170    .text:00000000000000d8 .L0 
     /tmp/ccidsuBt.s:171    .text:00000000000000d8 .L0 
     /tmp/ccidsuBt.s:172    .text:00000000000000d8 .L0 
     /tmp/ccidsuBt.s:174    .text:00000000000000dc .L0 
     /tmp/ccidsuBt.s:178    .text:00000000000000e0 .L0 
     /tmp/ccidsuBt.s:180    .text:00000000000000e0 .L0 
     /tmp/ccidsuBt.s:181    .text:00000000000000e0 .L0 
     /tmp/ccidsuBt.s:184    .text:00000000000000e8 .L0 
     /tmp/ccidsuBt.s:185    .text:00000000000000ec .L0 
     /tmp/ccidsuBt.s:191    .text:00000000000000ec _ZN9Scheduler5awakeEv
     /tmp/ccidsuBt.s:194    .text:00000000000000ec .L0 
     /tmp/ccidsuBt.s:195    .text:00000000000000ec .L0 
     /tmp/ccidsuBt.s:196    .text:00000000000000f0 .L0 
     /tmp/ccidsuBt.s:200    .text:00000000000000fc .L0 
     /tmp/ccidsuBt.s:201    .text:00000000000000fc .L0 
     /tmp/ccidsuBt.s:202    .text:00000000000000fc .L0 
     /tmp/ccidsuBt.s:204    .text:0000000000000100 .L0 
     /tmp/ccidsuBt.s:207    .text:0000000000000100 .L0 
     /tmp/ccidsuBt.s:208    .text:0000000000000100 .L0 
     /tmp/ccidsuBt.s:213    .text:000000000000010c .L0 
     /tmp/ccidsuBt.s:214    .text:000000000000010c .L0 
     /tmp/ccidsuBt.s:215    .text:000000000000010c .L0 
     /tmp/ccidsuBt.s:217    .text:0000000000000110 .L0 
     /tmp/ccidsuBt.s:220    .text:000000000000011c .L0 
     /tmp/ccidsuBt.s:222    .text:0000000000000120 .L0 
     /tmp/ccidsuBt.s:223    .text:0000000000000120 .L0 
     /tmp/ccidsuBt.s:225    .text:0000000000000124 .L0 
     /tmp/ccidsuBt.s:227    .text:000000000000012c .L0 
     /tmp/ccidsuBt.s:228    .text:000000000000012c .L0 
     /tmp/ccidsuBt.s:232    .text:0000000000000138 .L0 
     /tmp/ccidsuBt.s:233    .text:0000000000000138 .L0 
     /tmp/ccidsuBt.s:236    .text:000000000000013c .L0 
     /tmp/ccidsuBt.s:240    .text:0000000000000140 .L0 
GAS LISTING /tmp/ccidsuBt.s 			page 12


     /tmp/ccidsuBt.s:241    .text:0000000000000144 .L0 
     /tmp/ccidsuBt.s:243    .text:0000000000000148 .L0 
     /tmp/ccidsuBt.s:244    .text:0000000000000148 .L0 
     /tmp/ccidsuBt.s:246    .text:000000000000014c .L0 
     /tmp/ccidsuBt.s:248    .text:0000000000000150 .L0 
     /tmp/ccidsuBt.s:250    .text:0000000000000154 .L0 
     /tmp/ccidsuBt.s:261    .text:0000000000000154 _ZN9Scheduler13showSchedulerEv
     /tmp/ccidsuBt.s:264    .text:0000000000000154 .L0 
     /tmp/ccidsuBt.s:265    .text:0000000000000154 .L0 
     /tmp/ccidsuBt.s:266    .text:0000000000000158 .L0 
     /tmp/ccidsuBt.s:270    .text:0000000000000164 .L0 
     /tmp/ccidsuBt.s:271    .text:0000000000000164 .L0 
     /tmp/ccidsuBt.s:272    .text:0000000000000164 .L0 
     /tmp/ccidsuBt.s:274    .text:0000000000000168 .L0 
     /tmp/ccidsuBt.s:276    .text:0000000000000168 .L0 
     /tmp/ccidsuBt.s:277    .text:0000000000000168 .L0 
     /tmp/ccidsuBt.s:281    .text:0000000000000170 .L0 
     /tmp/ccidsuBt.s:282    .text:0000000000000170 .L0 
     /tmp/ccidsuBt.s:284    .text:0000000000000174 .L0 
     /tmp/ccidsuBt.s:285    .text:0000000000000174 .L0 
     /tmp/ccidsuBt.s:291    .text:0000000000000188 .L0 
     /tmp/ccidsuBt.s:292    .text:0000000000000188 .L0 
     /tmp/ccidsuBt.s:296    .text:0000000000000198 .L0 
     /tmp/ccidsuBt.s:297    .text:0000000000000198 .L0 
     /tmp/ccidsuBt.s:300    .text:000000000000019c .L0 
     /tmp/ccidsuBt.s:303    .text:00000000000001a0 .L0 
     /tmp/ccidsuBt.s:304    .text:00000000000001a4 .L0 
     /tmp/ccidsuBt.s:306    .text:00000000000001a8 .L0 
     /tmp/ccidsuBt.s:307    .text:00000000000001a8 .L0 
     /tmp/ccidsuBt.s:309    .text:00000000000001ac .L0 
     /tmp/ccidsuBt.s:312    .text:00000000000001b0 .L0 
     /tmp/ccidsuBt.s:314    .text:00000000000001b4 .L0 
     /tmp/ccidsuBt.s:320    .text:00000000000001b4 _ZN9Scheduler12showSleepingEv
     /tmp/ccidsuBt.s:323    .text:00000000000001b4 .L0 
     /tmp/ccidsuBt.s:324    .text:00000000000001b4 .L0 
     /tmp/ccidsuBt.s:325    .text:00000000000001b8 .L0 
     /tmp/ccidsuBt.s:329    .text:00000000000001c4 .L0 
     /tmp/ccidsuBt.s:330    .text:00000000000001c4 .L0 
     /tmp/ccidsuBt.s:331    .text:00000000000001c4 .L0 
     /tmp/ccidsuBt.s:333    .text:00000000000001c8 .L0 
     /tmp/ccidsuBt.s:335    .text:00000000000001c8 .L0 
     /tmp/ccidsuBt.s:336    .text:00000000000001c8 .L0 
     /tmp/ccidsuBt.s:340    .text:00000000000001d0 .L0 
     /tmp/ccidsuBt.s:341    .text:00000000000001d0 .L0 
     /tmp/ccidsuBt.s:343    .text:00000000000001d4 .L0 
     /tmp/ccidsuBt.s:344    .text:00000000000001d4 .L0 
     /tmp/ccidsuBt.s:350    .text:00000000000001e8 .L0 
     /tmp/ccidsuBt.s:351    .text:00000000000001e8 .L0 
     /tmp/ccidsuBt.s:355    .text:00000000000001f8 .L0 
     /tmp/ccidsuBt.s:356    .text:00000000000001f8 .L0 
     /tmp/ccidsuBt.s:359    .text:00000000000001fc .L0 
     /tmp/ccidsuBt.s:362    .text:0000000000000200 .L0 
     /tmp/ccidsuBt.s:363    .text:0000000000000204 .L0 
     /tmp/ccidsuBt.s:365    .text:0000000000000208 .L0 
     /tmp/ccidsuBt.s:366    .text:0000000000000208 .L0 
     /tmp/ccidsuBt.s:368    .text:000000000000020c .L0 
     /tmp/ccidsuBt.s:371    .text:0000000000000210 .L0 
GAS LISTING /tmp/ccidsuBt.s 			page 13


     /tmp/ccidsuBt.s:373    .text:0000000000000214 .L0 
     /tmp/ccidsuBt.s:392    .bss:0000000000000010 _ZN9Scheduler12sleepingHeadE
     /tmp/ccidsuBt.s:388    .bss:0000000000000008 _ZN9Scheduler9readyTailE
     /tmp/ccidsuBt.s:384    .bss:0000000000000000 _ZN9Scheduler9readyHeadE
     /tmp/ccidsuBt.s:381    .bss:0000000000000000 .LANCHOR0
     /tmp/ccidsuBt.s:404    .text:0000000000000214 .L0 
     /tmp/ccidsuBt.s:49     .text:0000000000000028 .L0 
     /tmp/ccidsuBt.s:53     .text:0000000000000034 .L0 
     /tmp/ccidsuBt.s:58     .text:0000000000000040 .L0 
     /tmp/ccidsuBt.s:70     .text:0000000000000054 .L0 
     /tmp/ccidsuBt.s:90     .text:000000000000006c .L0 
     /tmp/ccidsuBt.s:99     .text:000000000000007c .L0 
     /tmp/ccidsuBt.s:132    .text:00000000000000a0 .L0 
     /tmp/ccidsuBt.s:181    .text:00000000000000e0 .L0 
     /tmp/ccidsuBt.s:208    .text:0000000000000100 .L0 
     /tmp/ccidsuBt.s:217    .text:0000000000000110 .L0 
     /tmp/ccidsuBt.s:225    .text:0000000000000124 .L0 
     /tmp/ccidsuBt.s:277    .text:0000000000000168 .L0 
     /tmp/ccidsuBt.s:255    .rodata.str1.8:0000000000000000 .LC0
     /tmp/ccidsuBt.s:292    .text:0000000000000188 .L0 
     /tmp/ccidsuBt.s:336    .text:00000000000001c8 .L0 
     /tmp/ccidsuBt.s:351    .text:00000000000001e8 .L0 
     /tmp/ccidsuBt.s:67     .text:0000000000000054 .L7
     /tmp/ccidsuBt.s:56     .text:0000000000000040 .L5
     /tmp/ccidsuBt.s:105    .text:0000000000000088 .L8
     /tmp/ccidsuBt.s:157    .text:00000000000000c8 .L12
     /tmp/ccidsuBt.s:137    .text:00000000000000ac .L13
     /tmp/ccidsuBt.s:177    .text:00000000000000e0 .L14
     /tmp/ccidsuBt.s:167    .text:00000000000000d4 .L11
     /tmp/ccidsuBt.s:238    .text:0000000000000140 .L17
     /tmp/ccidsuBt.s:205    .text:0000000000000100 .L19
     /tmp/ccidsuBt.s:301    .text:00000000000001a0 .L21
     /tmp/ccidsuBt.s:279    .text:0000000000000170 .L23
     /tmp/ccidsuBt.s:360    .text:0000000000000200 .L25
     /tmp/ccidsuBt.s:338    .text:00000000000001d0 .L27
     /tmp/ccidsuBt.s:1607   .debug_abbrev:0000000000000000 .Ldebug_abbrev0
     /tmp/ccidsuBt.s:2488   .debug_str:0000000000000067 .LASF140
     /tmp/ccidsuBt.s:2630   .debug_str:00000000000004ed .LASF141
     /tmp/ccidsuBt.s:2494   .debug_str:0000000000000147 .LASF142
     /tmp/ccidsuBt.s:5      .text:0000000000000000 .Ltext0
     /tmp/ccidsuBt.s:395    .text:0000000000000214 .Letext0
     /tmp/ccidsuBt.s:2470   .debug_line:0000000000000000 .Ldebug_line0
     /tmp/ccidsuBt.s:2558   .debug_str:000000000000030f .LASF0
     /tmp/ccidsuBt.s:2574   .debug_str:0000000000000373 .LASF1
     /tmp/ccidsuBt.s:2642   .debug_str:000000000000054e .LASF2
     /tmp/ccidsuBt.s:2646   .debug_str:000000000000057b .LASF4
     /tmp/ccidsuBt.s:2566   .debug_str:0000000000000336 .LASF3
     /tmp/ccidsuBt.s:2484   .debug_str:0000000000000050 .LASF5
     /tmp/ccidsuBt.s:2620   .debug_str:000000000000049d .LASF6
     /tmp/ccidsuBt.s:2572   .debug_str:0000000000000360 .LASF7
     /tmp/ccidsuBt.s:2546   .debug_str:00000000000002c6 .LASF8
     /tmp/ccidsuBt.s:2550   .debug_str:00000000000002df .LASF9
     /tmp/ccidsuBt.s:2506   .debug_str:00000000000001bb .LASF10
     /tmp/ccidsuBt.s:2542   .debug_str:00000000000002ad .LASF11
     /tmp/ccidsuBt.s:2514   .debug_str:00000000000001e5 .LASF12
     /tmp/ccidsuBt.s:2504   .debug_str:00000000000001ab .LASF13
     /tmp/ccidsuBt.s:2668   .debug_str:00000000000005ff .LASF14
GAS LISTING /tmp/ccidsuBt.s 			page 14


     /tmp/ccidsuBt.s:2534   .debug_str:0000000000000262 .LASF15
     /tmp/ccidsuBt.s:2658   .debug_str:00000000000005b3 .LASF16
     /tmp/ccidsuBt.s:2676   .debug_str:000000000000063f .LASF17
     /tmp/ccidsuBt.s:2652   .debug_str:0000000000000598 .LASF18
     /tmp/ccidsuBt.s:2590   .debug_str:00000000000003e1 .LASF19
     /tmp/ccidsuBt.s:2686   .debug_str:000000000000067c .LASF48
     /tmp/ccidsuBt.s:2602   .debug_str:000000000000041d .LASF20
     /tmp/ccidsuBt.s:2626   .debug_str:00000000000004c3 .LASF21
     /tmp/ccidsuBt.s:2738   .debug_str:00000000000007d4 .LASF22
     /tmp/ccidsuBt.s:2520   .debug_str:0000000000000219 .LASF23
     /tmp/ccidsuBt.s:2682   .debug_str:0000000000000669 .LASF24
     /tmp/ccidsuBt.s:2710   .debug_str:000000000000071b .LASF25
     /tmp/ccidsuBt.s:2726   .debug_str:000000000000078b .LASF26
     /tmp/ccidsuBt.s:2560   .debug_str:000000000000031c .LASF27
     /tmp/ccidsuBt.s:2500   .debug_str:000000000000019b .LASF28
     /tmp/ccidsuBt.s:2576   .debug_str:0000000000000386 .LASF29
     /tmp/ccidsuBt.s:2716   .debug_str:0000000000000746 .LASF30
     /tmp/ccidsuBt.s:2636   .debug_str:0000000000000518 .LASF31
     /tmp/ccidsuBt.s:2704   .debug_str:00000000000006e2 .LASF33
     /tmp/ccidsuBt.s:2606   .debug_str:0000000000000446 .LASF35
     /tmp/ccidsuBt.s:2672   .debug_str:000000000000061b .LASF37
     /tmp/ccidsuBt.s:2632   .debug_str:00000000000004ff .LASF32
     /tmp/ccidsuBt.s:2638   .debug_str:0000000000000521 .LASF34
     /tmp/ccidsuBt.s:2692   .debug_str:0000000000000697 .LASF36
     /tmp/ccidsuBt.s:2756   .debug_str:0000000000000851 .LASF38
     /tmp/ccidsuBt.s:2656   .debug_str:00000000000005a8 .LASF91
     /tmp/ccidsuBt.s:2722   .debug_str:0000000000000765 .LASF93
     /tmp/ccidsuBt.s:2670   .debug_str:000000000000060b .LASF39
     /tmp/ccidsuBt.s:2762   .debug_str:0000000000000881 .LASF40
     /tmp/ccidsuBt.s:2622   .debug_str:00000000000004b0 .LASF41
     /tmp/ccidsuBt.s:2600   .debug_str:00000000000003ff .LASF43
     /tmp/ccidsuBt.s:2742   .debug_str:00000000000007f1 .LASF42
     /tmp/ccidsuBt.s:2584   .debug_str:00000000000003b0 .LASF44
     /tmp/ccidsuBt.s:2478   .debug_str:0000000000000016 .LASF45
     /tmp/ccidsuBt.s:2678   .debug_str:0000000000000644 .LASF46
     /tmp/ccidsuBt.s:2540   .debug_str:00000000000002a0 .LASF47
     /tmp/ccidsuBt.s:2714   .debug_str:0000000000000740 .LASF49
     /tmp/ccidsuBt.s:2570   .debug_str:000000000000035b .LASF50
     /tmp/ccidsuBt.s:2754   .debug_str:0000000000000846 .LASF51
     /tmp/ccidsuBt.s:2612   .debug_str:0000000000000466 .LASF52
     /tmp/ccidsuBt.s:2588   .debug_str:00000000000003dc .LASF53
     /tmp/ccidsuBt.s:2556   .debug_str:000000000000030a .LASF54
     /tmp/ccidsuBt.s:2706   .debug_str:00000000000006fe .LASF55
     /tmp/ccidsuBt.s:2618   .debug_str:0000000000000491 .LASF56
     /tmp/ccidsuBt.s:2548   .debug_str:00000000000002d6 .LASF57
     /tmp/ccidsuBt.s:2598   .debug_str:00000000000003fa .LASF58
     /tmp/ccidsuBt.s:2660   .debug_str:00000000000005c9 .LASF59
     /tmp/ccidsuBt.s:2696   .debug_str:00000000000006ab .LASF61
     /tmp/ccidsuBt.s:2530   .debug_str:000000000000024c .LASF60
     /tmp/ccidsuBt.s:2740   .debug_str:00000000000007de .LASF62
     /tmp/ccidsuBt.s:2490   .debug_str:0000000000000137 .LASF63
     /tmp/ccidsuBt.s:2508   .debug_str:00000000000001ca .LASF64
     /tmp/ccidsuBt.s:2522   .debug_str:0000000000000222 .LASF65
     /tmp/ccidsuBt.s:2486   .debug_str:0000000000000057 .LASF66
     /tmp/ccidsuBt.s:2608   .debug_str:000000000000044f .LASF67
     /tmp/ccidsuBt.s:2728   .debug_str:0000000000000798 .LASF68
     /tmp/ccidsuBt.s:2526   .debug_str:000000000000023a .LASF69
GAS LISTING /tmp/ccidsuBt.s 			page 15


     /tmp/ccidsuBt.s:2674   .debug_str:0000000000000637 .LASF143
     /tmp/ccidsuBt.s:2746   .debug_str:0000000000000819 .LASF74
     /tmp/ccidsuBt.s:2654   .debug_str:00000000000005a0 .LASF70
     /tmp/ccidsuBt.s:2502   .debug_str:00000000000001a5 .LASF71
     /tmp/ccidsuBt.s:2496   .debug_str:0000000000000178 .LASF72
     /tmp/ccidsuBt.s:2474   .debug_str:0000000000000009 .LASF73
     /tmp/ccidsuBt.s:2552   .debug_str:00000000000002ed .LASF75
     /tmp/ccidsuBt.s:2564   .debug_str:0000000000000331 .LASF76
     /tmp/ccidsuBt.s:2562   .debug_str:0000000000000326 .LASF77
     /tmp/ccidsuBt.s:2510   .debug_str:00000000000001cf .LASF78
     /tmp/ccidsuBt.s:2662   .debug_str:00000000000005d0 .LASF79
     /tmp/ccidsuBt.s:2666   .debug_str:00000000000005fa .LASF80
     /tmp/ccidsuBt.s:2648   .debug_str:0000000000000582 .LASF81
     /tmp/ccidsuBt.s:2482   .debug_str:0000000000000044 .LASF82
     /tmp/ccidsuBt.s:2718   .debug_str:0000000000000751 .LASF83
     /tmp/ccidsuBt.s:2708   .debug_str:0000000000000708 .LASF84
     /tmp/ccidsuBt.s:2758   .debug_str:000000000000086e .LASF85
     /tmp/ccidsuBt.s:2616   .debug_str:0000000000000485 .LASF86
     /tmp/ccidsuBt.s:2640   .debug_str:000000000000053e .LASF87
     /tmp/ccidsuBt.s:2610   .debug_str:0000000000000459 .LASF88
     /tmp/ccidsuBt.s:2702   .debug_str:00000000000006dd .LASF89
     /tmp/ccidsuBt.s:2634   .debug_str:0000000000000509 .LASF90
     /tmp/ccidsuBt.s:2524   .debug_str:0000000000000231 .LASF92
     /tmp/ccidsuBt.s:2568   .debug_str:0000000000000348 .LASF94
     /tmp/ccidsuBt.s:2614   .debug_str:000000000000046f .LASF95
     /tmp/ccidsuBt.s:2580   .debug_str:0000000000000397 .LASF96
     /tmp/ccidsuBt.s:2736   .debug_str:00000000000007c4 .LASF97
     /tmp/ccidsuBt.s:2624   .debug_str:00000000000004b9 .LASF98
     /tmp/ccidsuBt.s:2512   .debug_str:00000000000001db .LASF99
     /tmp/ccidsuBt.s:2516   .debug_str:00000000000001f5 .LASF100
     /tmp/ccidsuBt.s:2480   .debug_str:000000000000001c .LASF101
     /tmp/ccidsuBt.s:2720   .debug_str:0000000000000759 .LASF102
     /tmp/ccidsuBt.s:2698   .debug_str:00000000000006bd .LASF103
     /tmp/ccidsuBt.s:2700   .debug_str:00000000000006d5 .LASF104
     /tmp/ccidsuBt.s:2724   .debug_str:0000000000000784 .LASF105
     /tmp/ccidsuBt.s:2680   .debug_str:0000000000000664 .LASF106
     /tmp/ccidsuBt.s:2476   .debug_str:0000000000000011 .LASF107
     /tmp/ccidsuBt.s:2752   .debug_str:0000000000000841 .LASF108
     /tmp/ccidsuBt.s:2592   .debug_str:00000000000003e6 .LASF109
     /tmp/ccidsuBt.s:2690   .debug_str:000000000000068d .LASF110
     /tmp/ccidsuBt.s:2688   .debug_str:0000000000000688 .LASF111
     /tmp/ccidsuBt.s:2734   .debug_str:00000000000007bc .LASF112
     /tmp/ccidsuBt.s:2694   .debug_str:00000000000006a1 .LASF113
     /tmp/ccidsuBt.s:2594   .debug_str:00000000000003ec .LASF114
     /tmp/ccidsuBt.s:2472   .debug_str:0000000000000000 .LASF115
     /tmp/ccidsuBt.s:2492   .debug_str:000000000000013c .LASF116
     /tmp/ccidsuBt.s:2684   .debug_str:0000000000000674 .LASF117
     /tmp/ccidsuBt.s:2528   .debug_str:0000000000000241 .LASF118
     /tmp/ccidsuBt.s:2650   .debug_str:0000000000000587 .LASF119
     /tmp/ccidsuBt.s:2582   .debug_str:00000000000003a7 .LASF120
     /tmp/ccidsuBt.s:2544   .debug_str:00000000000002bc .LASF121
     /tmp/ccidsuBt.s:2586   .debug_str:00000000000003d2 .LASF122
     /tmp/ccidsuBt.s:2730   .debug_str:00000000000007a5 .LASF123
     /tmp/ccidsuBt.s:2750   .debug_str:0000000000000834 .LASF124
     /tmp/ccidsuBt.s:2554   .debug_str:00000000000002f2 .LASF144
     /tmp/ccidsuBt.s:2748   .debug_str:0000000000000820 .LASF145
     /tmp/ccidsuBt.s:2578   .debug_str:0000000000000391 .LASF125
GAS LISTING /tmp/ccidsuBt.s 			page 16


     /tmp/ccidsuBt.s:2498   .debug_str:0000000000000181 .LASF126
     /tmp/ccidsuBt.s:2760   .debug_str:000000000000087b .LASF127
     /tmp/ccidsuBt.s:2518   .debug_str:0000000000000203 .LASF128
     /tmp/ccidsuBt.s:2744   .debug_str:00000000000007fd .LASF129
     /tmp/ccidsuBt.s:2532   .debug_str:0000000000000254 .LASF130
     /tmp/ccidsuBt.s:2644   .debug_str:000000000000055c .LASF131
     /tmp/ccidsuBt.s:2732   .debug_str:00000000000007af .LASF132
     /tmp/ccidsuBt.s:2628   .debug_str:00000000000004cf .LASF133
     /tmp/ccidsuBt.s:2536   .debug_str:0000000000000278 .LASF134
     /tmp/ccidsuBt.s:2712   .debug_str:0000000000000727 .LASF135
     /tmp/ccidsuBt.s:2604   .debug_str:0000000000000429 .LASF136
     /tmp/ccidsuBt.s:321    .text:00000000000001b4 .LFB48
     /tmp/ccidsuBt.s:374    .text:0000000000000214 .LFE48
     /tmp/ccidsuBt.s:2596   .debug_str:00000000000003f5 .LASF137
     /tmp/ccidsuBt.s:2384   .debug_loc:0000000000000000 .LLST5
     /tmp/ccidsuBt.s:348    .text:00000000000001e8 .LVL20
     /tmp/ccidsuBt.s:353    .text:00000000000001f8 .LVL21
     /tmp/ccidsuBt.s:262    .text:0000000000000154 .LFB47
     /tmp/ccidsuBt.s:315    .text:00000000000001b4 .LFE47
     /tmp/ccidsuBt.s:2391   .debug_loc:0000000000000023 .LLST4
     /tmp/ccidsuBt.s:289    .text:0000000000000188 .LVL15
     /tmp/ccidsuBt.s:294    .text:0000000000000198 .LVL16
     /tmp/ccidsuBt.s:192    .text:00000000000000ec .LFB46
     /tmp/ccidsuBt.s:251    .text:0000000000000154 .LFE46
     /tmp/ccidsuBt.s:210    .text:000000000000010c .LBB2
     /tmp/ccidsuBt.s:234    .text:000000000000013c .LBE2
     /tmp/ccidsuBt.s:2398   .debug_loc:0000000000000046 .LLST3
     /tmp/ccidsuBt.s:230    .text:0000000000000138 .LVL12
     /tmp/ccidsuBt.s:120    .text:0000000000000094 .LFB45
     /tmp/ccidsuBt.s:186    .text:00000000000000ec .LFE45
     /tmp/ccidsuBt.s:2405   .debug_loc:0000000000000069 .LLST1
     /tmp/ccidsuBt.s:2430   .debug_loc:00000000000000dc .LLST2
     /tmp/ccidsuBt.s:79     .text:0000000000000060 .LFB44
     /tmp/ccidsuBt.s:114    .text:0000000000000094 .LFE44
     /tmp/ccidsuBt.s:2450   .debug_loc:0000000000000139 .LLST0
     /tmp/ccidsuBt.s:34     .text:0000000000000018 .LFB43
     /tmp/ccidsuBt.s:73     .text:0000000000000060 .LFE43
     /tmp/ccidsuBt.s:10     .text:0000000000000000 .LFB42
     /tmp/ccidsuBt.s:28     .text:0000000000000018 .LFE42
     /tmp/ccidsuBt.s:2538   .debug_str:0000000000000291 .LASF138
     /tmp/ccidsuBt.s:2664   .debug_str:00000000000005e7 .LASF139
     /tmp/ccidsuBt.s:337    .text:00000000000001d0 .LVL19
     /tmp/ccidsuBt.s:369    .text:000000000000020c .LVL23
     /tmp/ccidsuBt.s:278    .text:0000000000000170 .LVL14
     /tmp/ccidsuBt.s:310    .text:00000000000001ac .LVL18
     /tmp/ccidsuBt.s:212    .text:000000000000010c .LVL11
     /tmp/ccidsuBt.s:237    .text:0000000000000140 .LVL13
     /tmp/ccidsuBt.s:133    .text:00000000000000a8 .LVL4
     /tmp/ccidsuBt.s:149    .text:00000000000000bc .LVL6
     /tmp/ccidsuBt.s:154    .text:00000000000000c4 .LVL7
     /tmp/ccidsuBt.s:166    .text:00000000000000d4 .LVL8
     /tmp/ccidsuBt.s:176    .text:00000000000000e0 .LVL9
     /tmp/ccidsuBt.s:182    .text:00000000000000e8 .LVL10
     /tmp/ccidsuBt.s:136    .text:00000000000000ac .LVL5
     /tmp/ccidsuBt.s:94     .text:0000000000000078 .LVL1
     /tmp/ccidsuBt.s:104    .text:0000000000000088 .LVL2
     /tmp/ccidsuBt.s:405    .debug_info:0000000000000000 .Ldebug_info0
GAS LISTING /tmp/ccidsuBt.s 			page 17



UNDEFINED SYMBOLS
_ZN5RiscV10globalTimeE
_ZN11ConsoleUtil8printIntEiii
_ZN11ConsoleUtil11printStringEPKc
_Z8printIntiii
_Z11printStringPKc
