GAS LISTING /tmp/cckEsuR6.s 			page 1


   1              		.file	"slab.cpp"
   2              		.option pic
   3              		.option norelax
   4              		.text
   5              	.Ltext0:
   6              		.align	2
   7              		.globl	_Z9kmem_initPvi
   9              	_Z9kmem_initPvi:
  10              	.LFB30:
  11              		.file 1 "src/slab.cpp"
   1:src/slab.cpp  **** //
   2:src/slab.cpp  **** // Created by os on 1/2/23.
   3:src/slab.cpp  **** //
   4:src/slab.cpp  **** #include "../h/slab.hpp"
   5:src/slab.cpp  **** 
   6:src/slab.cpp  **** void kmem_init(void* space, int block_num){
  12              		.loc 1 6 43
  13              		.cfi_startproc
  14              	.LVL0:
  15 0000 130101FF 		addi	sp,sp,-16
  16              		.cfi_def_cfa_offset 16
  17 0004 23341100 		sd	ra,8(sp)
  18 0008 23308100 		sd	s0,0(sp)
  19              		.cfi_offset 1, -8
  20              		.cfi_offset 8, -16
  21 000c 13040101 		addi	s0,sp,16
  22              		.cfi_def_cfa 8, 0
   7:src/slab.cpp  ****     SlabAllocator::initialize(space, block_num);
  23              		.loc 1 7 5
  24              		.loc 1 7 30 is_stmt 0
  25 0010 97000000 		call	_ZN13SlabAllocator10initializeEPvm@plt
  25      E7800000 
  26              	.LVL1:
   8:src/slab.cpp  **** }
  27              		.loc 1 8 1
  28 0018 83308100 		ld	ra,8(sp)
  29              		.cfi_restore 1
  30 001c 03340100 		ld	s0,0(sp)
  31              		.cfi_restore 8
  32              		.cfi_def_cfa 2, 16
  33 0020 13010101 		addi	sp,sp,16
  34              		.cfi_def_cfa_offset 0
  35 0024 67800000 		jr	ra
  36              		.cfi_endproc
  37              	.LFE30:
  39              		.align	2
  40              		.globl	_Z17kmem_cache_createPKcmPFvPvES3_
  42              	_Z17kmem_cache_createPKcmPFvPvES3_:
  43              	.LFB31:
   9:src/slab.cpp  **** 
  10:src/slab.cpp  **** kmem_cache_t* kmem_cache_create(const char* name, size_t size, void (*ctor)(void*), void (*dtor)(vo
  44              		.loc 1 10 105 is_stmt 1
  45              		.cfi_startproc
  46              	.LVL2:
  47 0028 130101FF 		addi	sp,sp,-16
  48              		.cfi_def_cfa_offset 16
  49 002c 23341100 		sd	ra,8(sp)
GAS LISTING /tmp/cckEsuR6.s 			page 2


  50 0030 23308100 		sd	s0,0(sp)
  51              		.cfi_offset 1, -8
  52              		.cfi_offset 8, -16
  53 0034 13040101 		addi	s0,sp,16
  54              		.cfi_def_cfa 8, 0
  11:src/slab.cpp  ****     return SlabAllocator::createCache(name, size, ctor, dtor);
  55              		.loc 1 11 5
  56              		.loc 1 11 38 is_stmt 0
  57 0038 97000000 		call	_ZN13SlabAllocator11createCacheEPKcmPFvPvES4_@plt
  57      E7800000 
  58              	.LVL3:
  12:src/slab.cpp  **** }
  59              		.loc 1 12 1
  60 0040 83308100 		ld	ra,8(sp)
  61              		.cfi_restore 1
  62 0044 03340100 		ld	s0,0(sp)
  63              		.cfi_restore 8
  64              		.cfi_def_cfa 2, 16
  65 0048 13010101 		addi	sp,sp,16
  66              		.cfi_def_cfa_offset 0
  67 004c 67800000 		jr	ra
  68              		.cfi_endproc
  69              	.LFE31:
  71              		.align	2
  72              		.globl	_Z16kmem_cache_allocP5Cache
  74              	_Z16kmem_cache_allocP5Cache:
  75              	.LFB32:
  13:src/slab.cpp  **** 
  14:src/slab.cpp  **** void* kmem_cache_alloc(kmem_cache_t* cachep){
  76              		.loc 1 14 45 is_stmt 1
  77              		.cfi_startproc
  78              	.LVL4:
  79 0050 130101FF 		addi	sp,sp,-16
  80              		.cfi_def_cfa_offset 16
  81 0054 23341100 		sd	ra,8(sp)
  82 0058 23308100 		sd	s0,0(sp)
  83              		.cfi_offset 1, -8
  84              		.cfi_offset 8, -16
  85 005c 13040101 		addi	s0,sp,16
  86              		.cfi_def_cfa 8, 0
  15:src/slab.cpp  ****     return SlabAllocator::allocateObject(cachep);
  87              		.loc 1 15 5
  88              		.loc 1 15 41 is_stmt 0
  89 0060 97000000 		call	_ZN13SlabAllocator14allocateObjectEP5Cache@plt
  89      E7800000 
  90              	.LVL5:
  16:src/slab.cpp  **** }
  91              		.loc 1 16 1
  92 0068 83308100 		ld	ra,8(sp)
  93              		.cfi_restore 1
  94 006c 03340100 		ld	s0,0(sp)
  95              		.cfi_restore 8
  96              		.cfi_def_cfa 2, 16
  97 0070 13010101 		addi	sp,sp,16
  98              		.cfi_def_cfa_offset 0
  99 0074 67800000 		jr	ra
 100              		.cfi_endproc
GAS LISTING /tmp/cckEsuR6.s 			page 3


 101              	.LFE32:
 103              		.align	2
 104              		.globl	_Z15kmem_cache_freeP5CachePv
 106              	_Z15kmem_cache_freeP5CachePv:
 107              	.LFB33:
  17:src/slab.cpp  **** 
  18:src/slab.cpp  **** void kmem_cache_free(kmem_cache_t* cachep, void* objp){
 108              		.loc 1 18 55 is_stmt 1
 109              		.cfi_startproc
 110              	.LVL6:
 111 0078 130101FF 		addi	sp,sp,-16
 112              		.cfi_def_cfa_offset 16
 113 007c 23341100 		sd	ra,8(sp)
 114 0080 23308100 		sd	s0,0(sp)
 115              		.cfi_offset 1, -8
 116              		.cfi_offset 8, -16
 117 0084 13040101 		addi	s0,sp,16
 118              		.cfi_def_cfa 8, 0
  19:src/slab.cpp  ****     SlabAllocator::freeObject(cachep, objp);
 119              		.loc 1 19 5
 120              		.loc 1 19 30 is_stmt 0
 121 0088 97000000 		call	_ZN13SlabAllocator10freeObjectEP5CachePKv@plt
 121      E7800000 
 122              	.LVL7:
  20:src/slab.cpp  **** }
 123              		.loc 1 20 1
 124 0090 83308100 		ld	ra,8(sp)
 125              		.cfi_restore 1
 126 0094 03340100 		ld	s0,0(sp)
 127              		.cfi_restore 8
 128              		.cfi_def_cfa 2, 16
 129 0098 13010101 		addi	sp,sp,16
 130              		.cfi_def_cfa_offset 0
 131 009c 67800000 		jr	ra
 132              		.cfi_endproc
 133              	.LFE33:
 135              		.align	2
 136              		.globl	_Z18kmem_cache_destroyP5Cache
 138              	_Z18kmem_cache_destroyP5Cache:
 139              	.LFB34:
  21:src/slab.cpp  **** 
  22:src/slab.cpp  **** void kmem_cache_destroy(kmem_cache_t* cachep){
 140              		.loc 1 22 46 is_stmt 1
 141              		.cfi_startproc
 142              	.LVL8:
 143 00a0 130101FE 		addi	sp,sp,-32
 144              		.cfi_def_cfa_offset 32
 145 00a4 233C1100 		sd	ra,24(sp)
 146 00a8 23388100 		sd	s0,16(sp)
 147              		.cfi_offset 1, -8
 148              		.cfi_offset 8, -16
 149 00ac 13040102 		addi	s0,sp,32
 150              		.cfi_def_cfa 8, 0
 151 00b0 2334A4FE 		sd	a0,-24(s0)
  23:src/slab.cpp  ****     SlabAllocator::deleteCache(cachep);
 152              		.loc 1 23 5
 153              		.loc 1 23 31 is_stmt 0
GAS LISTING /tmp/cckEsuR6.s 			page 4


 154 00b4 130584FE 		addi	a0,s0,-24
 155              	.LVL9:
 156 00b8 97000000 		call	_ZN13SlabAllocator11deleteCacheERP5Cache@plt
 156      E7800000 
 157              	.LVL10:
  24:src/slab.cpp  **** }
 158              		.loc 1 24 1
 159 00c0 83308101 		ld	ra,24(sp)
 160              		.cfi_restore 1
 161 00c4 03340101 		ld	s0,16(sp)
 162              		.cfi_restore 8
 163              		.cfi_def_cfa 2, 32
 164 00c8 13010102 		addi	sp,sp,32
 165              		.cfi_def_cfa_offset 0
 166 00cc 67800000 		jr	ra
 167              		.cfi_endproc
 168              	.LFE34:
 170              		.align	2
 171              		.globl	_Z15kmem_cache_infoP5Cache
 173              	_Z15kmem_cache_infoP5Cache:
 174              	.LFB35:
  25:src/slab.cpp  **** 
  26:src/slab.cpp  **** void kmem_cache_info(kmem_cache_t* cachep){
 175              		.loc 1 26 43 is_stmt 1
 176              		.cfi_startproc
 177              	.LVL11:
 178 00d0 130101FF 		addi	sp,sp,-16
 179              		.cfi_def_cfa_offset 16
 180 00d4 23341100 		sd	ra,8(sp)
 181 00d8 23308100 		sd	s0,0(sp)
 182              		.cfi_offset 1, -8
 183              		.cfi_offset 8, -16
 184 00dc 13040101 		addi	s0,sp,16
 185              		.cfi_def_cfa 8, 0
  27:src/slab.cpp  ****     SlabAllocator::printCache(cachep);
 186              		.loc 1 27 5
 187              		.loc 1 27 30 is_stmt 0
 188 00e0 97000000 		call	_ZN13SlabAllocator10printCacheEP5Cache@plt
 188      E7800000 
 189              	.LVL12:
  28:src/slab.cpp  **** }
 190              		.loc 1 28 1
 191 00e8 83308100 		ld	ra,8(sp)
 192              		.cfi_restore 1
 193 00ec 03340100 		ld	s0,0(sp)
 194              		.cfi_restore 8
 195              		.cfi_def_cfa 2, 16
 196 00f0 13010101 		addi	sp,sp,16
 197              		.cfi_def_cfa_offset 0
 198 00f4 67800000 		jr	ra
 199              		.cfi_endproc
 200              	.LFE35:
 202              		.align	2
 203              		.globl	_Z17kmem_cache_shrinkP5Cache
 205              	_Z17kmem_cache_shrinkP5Cache:
 206              	.LFB36:
  29:src/slab.cpp  **** 
GAS LISTING /tmp/cckEsuR6.s 			page 5


  30:src/slab.cpp  **** int kmem_cache_shrink(kmem_cache_t* cachep){
 207              		.loc 1 30 44 is_stmt 1
 208              		.cfi_startproc
 209              	.LVL13:
 210 00f8 130101FF 		addi	sp,sp,-16
 211              		.cfi_def_cfa_offset 16
 212 00fc 23341100 		sd	ra,8(sp)
 213 0100 23308100 		sd	s0,0(sp)
 214              		.cfi_offset 1, -8
 215              		.cfi_offset 8, -16
 216 0104 13040101 		addi	s0,sp,16
 217              		.cfi_def_cfa 8, 0
  31:src/slab.cpp  ****     return SlabAllocator::shrinkCache(cachep);
 218              		.loc 1 31 5
 219              		.loc 1 31 38 is_stmt 0
 220 0108 97000000 		call	_ZN13SlabAllocator11shrinkCacheEP5Cache@plt
 220      E7800000 
 221              	.LVL14:
  32:src/slab.cpp  **** }
 222              		.loc 1 32 1
 223 0110 83308100 		ld	ra,8(sp)
 224              		.cfi_restore 1
 225 0114 03340100 		ld	s0,0(sp)
 226              		.cfi_restore 8
 227              		.cfi_def_cfa 2, 16
 228 0118 13010101 		addi	sp,sp,16
 229              		.cfi_def_cfa_offset 0
 230 011c 67800000 		jr	ra
 231              		.cfi_endproc
 232              	.LFE36:
 234              		.align	2
 235              		.globl	_Z7kmallocm
 237              	_Z7kmallocm:
 238              	.LFB37:
  33:src/slab.cpp  **** void* kmalloc(size_t size){
 239              		.loc 1 33 27 is_stmt 1
 240              		.cfi_startproc
 241              	.LVL15:
 242 0120 130101FF 		addi	sp,sp,-16
 243              		.cfi_def_cfa_offset 16
 244 0124 23341100 		sd	ra,8(sp)
 245 0128 23308100 		sd	s0,0(sp)
 246              		.cfi_offset 1, -8
 247              		.cfi_offset 8, -16
 248 012c 13040101 		addi	s0,sp,16
 249              		.cfi_def_cfa 8, 0
  34:src/slab.cpp  ****     return SlabAllocator::allocateBuffer(size);
 250              		.loc 1 34 5
 251              		.loc 1 34 41 is_stmt 0
 252 0130 97000000 		call	_ZN13SlabAllocator14allocateBufferEm@plt
 252      E7800000 
 253              	.LVL16:
  35:src/slab.cpp  **** }
 254              		.loc 1 35 1
 255 0138 83308100 		ld	ra,8(sp)
 256              		.cfi_restore 1
 257 013c 03340100 		ld	s0,0(sp)
GAS LISTING /tmp/cckEsuR6.s 			page 6


 258              		.cfi_restore 8
 259              		.cfi_def_cfa 2, 16
 260 0140 13010101 		addi	sp,sp,16
 261              		.cfi_def_cfa_offset 0
 262 0144 67800000 		jr	ra
 263              		.cfi_endproc
 264              	.LFE37:
 266              		.align	2
 267              		.globl	_Z5kfreePKv
 269              	_Z5kfreePKv:
 270              	.LFB38:
  36:src/slab.cpp  **** 
  37:src/slab.cpp  **** void kfree(const void* objp){
 271              		.loc 1 37 29 is_stmt 1
 272              		.cfi_startproc
 273              	.LVL17:
 274 0148 130101FF 		addi	sp,sp,-16
 275              		.cfi_def_cfa_offset 16
 276 014c 23341100 		sd	ra,8(sp)
 277 0150 23308100 		sd	s0,0(sp)
 278              		.cfi_offset 1, -8
 279              		.cfi_offset 8, -16
 280 0154 13040101 		addi	s0,sp,16
 281              		.cfi_def_cfa 8, 0
  38:src/slab.cpp  ****     SlabAllocator::freeBuffer(objp);
 282              		.loc 1 38 5
 283              		.loc 1 38 30 is_stmt 0
 284 0158 97000000 		call	_ZN13SlabAllocator10freeBufferEPKv@plt
 284      E7800000 
 285              	.LVL18:
  39:src/slab.cpp  **** }...
 286              		.loc 1 39 1
 287 0160 83308100 		ld	ra,8(sp)
 288              		.cfi_restore 1
 289 0164 03340100 		ld	s0,0(sp)
 290              		.cfi_restore 8
 291              		.cfi_def_cfa 2, 16
 292 0168 13010101 		addi	sp,sp,16
 293              		.cfi_def_cfa_offset 0
 294 016c 67800000 		jr	ra
 295              		.cfi_endproc
 296              	.LFE38:
 298              	.Letext0:
 299              		.file 2 "src/../h/../h/../h/../lib/hw.h"
 300              		.file 3 "src/../h/../h/../h/utility.hpp"
 301              		.file 4 "src/../h/../h/../h/../h/slab_t.hpp"
 302              		.file 5 "src/../h/../h/../h/cache_t.hpp"
 303              		.file 6 "src/../h/../h/slabAllocator.hpp"
GAS LISTING /tmp/cckEsuR6.s 			page 7


DEFINED SYMBOLS
                            *ABS*:0000000000000000 slab.cpp
     /tmp/cckEsuR6.s:9      .text:0000000000000000 _Z9kmem_initPvi
     /tmp/cckEsuR6.s:13     .text:0000000000000000 .L0 
     /tmp/cckEsuR6.s:15     .text:0000000000000000 .L0 
     /tmp/cckEsuR6.s:16     .text:0000000000000004 .L0 
     /tmp/cckEsuR6.s:19     .text:000000000000000c .L0 
     /tmp/cckEsuR6.s:20     .text:000000000000000c .L0 
     /tmp/cckEsuR6.s:22     .text:0000000000000010 .L0 
     /tmp/cckEsuR6.s:24     .text:0000000000000010 .L0 
     /tmp/cckEsuR6.s:25     .text:0000000000000010 .L0 
     /tmp/cckEsuR6.s:28     .text:0000000000000018 .L0 
     /tmp/cckEsuR6.s:29     .text:000000000000001c .L0 
     /tmp/cckEsuR6.s:31     .text:0000000000000020 .L0 
     /tmp/cckEsuR6.s:32     .text:0000000000000020 .L0 
     /tmp/cckEsuR6.s:34     .text:0000000000000024 .L0 
     /tmp/cckEsuR6.s:36     .text:0000000000000028 .L0 
     /tmp/cckEsuR6.s:42     .text:0000000000000028 _Z17kmem_cache_createPKcmPFvPvES3_
     /tmp/cckEsuR6.s:45     .text:0000000000000028 .L0 
     /tmp/cckEsuR6.s:47     .text:0000000000000028 .L0 
     /tmp/cckEsuR6.s:48     .text:000000000000002c .L0 
     /tmp/cckEsuR6.s:51     .text:0000000000000034 .L0 
     /tmp/cckEsuR6.s:52     .text:0000000000000034 .L0 
     /tmp/cckEsuR6.s:54     .text:0000000000000038 .L0 
     /tmp/cckEsuR6.s:56     .text:0000000000000038 .L0 
     /tmp/cckEsuR6.s:57     .text:0000000000000038 .L0 
     /tmp/cckEsuR6.s:60     .text:0000000000000040 .L0 
     /tmp/cckEsuR6.s:61     .text:0000000000000044 .L0 
     /tmp/cckEsuR6.s:63     .text:0000000000000048 .L0 
     /tmp/cckEsuR6.s:64     .text:0000000000000048 .L0 
     /tmp/cckEsuR6.s:66     .text:000000000000004c .L0 
     /tmp/cckEsuR6.s:68     .text:0000000000000050 .L0 
     /tmp/cckEsuR6.s:74     .text:0000000000000050 _Z16kmem_cache_allocP5Cache
     /tmp/cckEsuR6.s:77     .text:0000000000000050 .L0 
     /tmp/cckEsuR6.s:79     .text:0000000000000050 .L0 
     /tmp/cckEsuR6.s:80     .text:0000000000000054 .L0 
     /tmp/cckEsuR6.s:83     .text:000000000000005c .L0 
     /tmp/cckEsuR6.s:84     .text:000000000000005c .L0 
     /tmp/cckEsuR6.s:86     .text:0000000000000060 .L0 
     /tmp/cckEsuR6.s:88     .text:0000000000000060 .L0 
     /tmp/cckEsuR6.s:89     .text:0000000000000060 .L0 
     /tmp/cckEsuR6.s:92     .text:0000000000000068 .L0 
     /tmp/cckEsuR6.s:93     .text:000000000000006c .L0 
     /tmp/cckEsuR6.s:95     .text:0000000000000070 .L0 
     /tmp/cckEsuR6.s:96     .text:0000000000000070 .L0 
     /tmp/cckEsuR6.s:98     .text:0000000000000074 .L0 
     /tmp/cckEsuR6.s:100    .text:0000000000000078 .L0 
     /tmp/cckEsuR6.s:106    .text:0000000000000078 _Z15kmem_cache_freeP5CachePv
     /tmp/cckEsuR6.s:109    .text:0000000000000078 .L0 
     /tmp/cckEsuR6.s:111    .text:0000000000000078 .L0 
     /tmp/cckEsuR6.s:112    .text:000000000000007c .L0 
     /tmp/cckEsuR6.s:115    .text:0000000000000084 .L0 
     /tmp/cckEsuR6.s:116    .text:0000000000000084 .L0 
     /tmp/cckEsuR6.s:118    .text:0000000000000088 .L0 
     /tmp/cckEsuR6.s:120    .text:0000000000000088 .L0 
     /tmp/cckEsuR6.s:121    .text:0000000000000088 .L0 
     /tmp/cckEsuR6.s:124    .text:0000000000000090 .L0 
GAS LISTING /tmp/cckEsuR6.s 			page 8


     /tmp/cckEsuR6.s:125    .text:0000000000000094 .L0 
     /tmp/cckEsuR6.s:127    .text:0000000000000098 .L0 
     /tmp/cckEsuR6.s:128    .text:0000000000000098 .L0 
     /tmp/cckEsuR6.s:130    .text:000000000000009c .L0 
     /tmp/cckEsuR6.s:132    .text:00000000000000a0 .L0 
     /tmp/cckEsuR6.s:138    .text:00000000000000a0 _Z18kmem_cache_destroyP5Cache
     /tmp/cckEsuR6.s:141    .text:00000000000000a0 .L0 
     /tmp/cckEsuR6.s:143    .text:00000000000000a0 .L0 
     /tmp/cckEsuR6.s:144    .text:00000000000000a4 .L0 
     /tmp/cckEsuR6.s:147    .text:00000000000000ac .L0 
     /tmp/cckEsuR6.s:148    .text:00000000000000ac .L0 
     /tmp/cckEsuR6.s:150    .text:00000000000000b0 .L0 
     /tmp/cckEsuR6.s:153    .text:00000000000000b4 .L0 
     /tmp/cckEsuR6.s:154    .text:00000000000000b4 .L0 
     /tmp/cckEsuR6.s:159    .text:00000000000000c0 .L0 
     /tmp/cckEsuR6.s:160    .text:00000000000000c4 .L0 
     /tmp/cckEsuR6.s:162    .text:00000000000000c8 .L0 
     /tmp/cckEsuR6.s:163    .text:00000000000000c8 .L0 
     /tmp/cckEsuR6.s:165    .text:00000000000000cc .L0 
     /tmp/cckEsuR6.s:167    .text:00000000000000d0 .L0 
     /tmp/cckEsuR6.s:173    .text:00000000000000d0 _Z15kmem_cache_infoP5Cache
     /tmp/cckEsuR6.s:176    .text:00000000000000d0 .L0 
     /tmp/cckEsuR6.s:178    .text:00000000000000d0 .L0 
     /tmp/cckEsuR6.s:179    .text:00000000000000d4 .L0 
     /tmp/cckEsuR6.s:182    .text:00000000000000dc .L0 
     /tmp/cckEsuR6.s:183    .text:00000000000000dc .L0 
     /tmp/cckEsuR6.s:185    .text:00000000000000e0 .L0 
     /tmp/cckEsuR6.s:187    .text:00000000000000e0 .L0 
     /tmp/cckEsuR6.s:188    .text:00000000000000e0 .L0 
     /tmp/cckEsuR6.s:191    .text:00000000000000e8 .L0 
     /tmp/cckEsuR6.s:192    .text:00000000000000ec .L0 
     /tmp/cckEsuR6.s:194    .text:00000000000000f0 .L0 
     /tmp/cckEsuR6.s:195    .text:00000000000000f0 .L0 
     /tmp/cckEsuR6.s:197    .text:00000000000000f4 .L0 
     /tmp/cckEsuR6.s:199    .text:00000000000000f8 .L0 
     /tmp/cckEsuR6.s:205    .text:00000000000000f8 _Z17kmem_cache_shrinkP5Cache
     /tmp/cckEsuR6.s:208    .text:00000000000000f8 .L0 
     /tmp/cckEsuR6.s:210    .text:00000000000000f8 .L0 
     /tmp/cckEsuR6.s:211    .text:00000000000000fc .L0 
     /tmp/cckEsuR6.s:214    .text:0000000000000104 .L0 
     /tmp/cckEsuR6.s:215    .text:0000000000000104 .L0 
     /tmp/cckEsuR6.s:217    .text:0000000000000108 .L0 
     /tmp/cckEsuR6.s:219    .text:0000000000000108 .L0 
     /tmp/cckEsuR6.s:220    .text:0000000000000108 .L0 
     /tmp/cckEsuR6.s:223    .text:0000000000000110 .L0 
     /tmp/cckEsuR6.s:224    .text:0000000000000114 .L0 
     /tmp/cckEsuR6.s:226    .text:0000000000000118 .L0 
     /tmp/cckEsuR6.s:227    .text:0000000000000118 .L0 
     /tmp/cckEsuR6.s:229    .text:000000000000011c .L0 
     /tmp/cckEsuR6.s:231    .text:0000000000000120 .L0 
     /tmp/cckEsuR6.s:237    .text:0000000000000120 _Z7kmallocm
     /tmp/cckEsuR6.s:240    .text:0000000000000120 .L0 
     /tmp/cckEsuR6.s:242    .text:0000000000000120 .L0 
     /tmp/cckEsuR6.s:243    .text:0000000000000124 .L0 
     /tmp/cckEsuR6.s:246    .text:000000000000012c .L0 
     /tmp/cckEsuR6.s:247    .text:000000000000012c .L0 
     /tmp/cckEsuR6.s:249    .text:0000000000000130 .L0 
GAS LISTING /tmp/cckEsuR6.s 			page 9


     /tmp/cckEsuR6.s:251    .text:0000000000000130 .L0 
     /tmp/cckEsuR6.s:252    .text:0000000000000130 .L0 
     /tmp/cckEsuR6.s:255    .text:0000000000000138 .L0 
     /tmp/cckEsuR6.s:256    .text:000000000000013c .L0 
     /tmp/cckEsuR6.s:258    .text:0000000000000140 .L0 
     /tmp/cckEsuR6.s:259    .text:0000000000000140 .L0 
     /tmp/cckEsuR6.s:261    .text:0000000000000144 .L0 
     /tmp/cckEsuR6.s:263    .text:0000000000000148 .L0 
     /tmp/cckEsuR6.s:269    .text:0000000000000148 _Z5kfreePKv
     /tmp/cckEsuR6.s:272    .text:0000000000000148 .L0 
     /tmp/cckEsuR6.s:274    .text:0000000000000148 .L0 
     /tmp/cckEsuR6.s:275    .text:000000000000014c .L0 
     /tmp/cckEsuR6.s:278    .text:0000000000000154 .L0 
     /tmp/cckEsuR6.s:279    .text:0000000000000154 .L0 
     /tmp/cckEsuR6.s:281    .text:0000000000000158 .L0 
     /tmp/cckEsuR6.s:283    .text:0000000000000158 .L0 
     /tmp/cckEsuR6.s:284    .text:0000000000000158 .L0 
     /tmp/cckEsuR6.s:287    .text:0000000000000160 .L0 
     /tmp/cckEsuR6.s:288    .text:0000000000000164 .L0 
     /tmp/cckEsuR6.s:290    .text:0000000000000168 .L0 
     /tmp/cckEsuR6.s:291    .text:0000000000000168 .L0 
     /tmp/cckEsuR6.s:293    .text:000000000000016c .L0 
     /tmp/cckEsuR6.s:295    .text:0000000000000170 .L0 
     /tmp/cckEsuR6.s:304    .text:0000000000000170 .L0 
     /tmp/cckEsuR6.s:1294   .debug_abbrev:0000000000000000 .Ldebug_abbrev0
     /tmp/cckEsuR6.s:2185   .debug_str:0000000000000633 .LASF110
     /tmp/cckEsuR6.s:2067   .debug_str:0000000000000250 .LASF111
     /tmp/cckEsuR6.s:2017   .debug_str:000000000000008a .LASF112
     /tmp/cckEsuR6.s:5      .text:0000000000000000 .Ltext0
     /tmp/cckEsuR6.s:298    .text:0000000000000170 .Letext0
     /tmp/cckEsuR6.s:2003   .debug_line:0000000000000000 .Ldebug_line0
     /tmp/cckEsuR6.s:2085   .debug_str:00000000000002dc .LASF0
     /tmp/cckEsuR6.s:2101   .debug_str:0000000000000364 .LASF1
     /tmp/cckEsuR6.s:2145   .debug_str:0000000000000510 .LASF2
     /tmp/cckEsuR6.s:2149   .debug_str:000000000000052e .LASF4
     /tmp/cckEsuR6.s:2089   .debug_str:000000000000030c .LASF3
     /tmp/cckEsuR6.s:2009   .debug_str:0000000000000044 .LASF5
     /tmp/cckEsuR6.s:2141   .debug_str:00000000000004ef .LASF6
     /tmp/cckEsuR6.s:2097   .debug_str:000000000000034c .LASF7
     /tmp/cckEsuR6.s:2065   .debug_str:0000000000000240 .LASF8
     /tmp/cckEsuR6.s:2073   .debug_str:0000000000000294 .LASF9
     /tmp/cckEsuR6.s:2029   .debug_str:000000000000013a .LASF10
     /tmp/cckEsuR6.s:2059   .debug_str:0000000000000220 .LASF11
     /tmp/cckEsuR6.s:2037   .debug_str:000000000000015e .LASF12
     /tmp/cckEsuR6.s:2027   .debug_str:000000000000012a .LASF13
     /tmp/cckEsuR6.s:2173   .debug_str:00000000000005f2 .LASF14
     /tmp/cckEsuR6.s:2049   .debug_str:00000000000001cb .LASF15
     /tmp/cckEsuR6.s:2165   .debug_str:00000000000005b9 .LASF16
     /tmp/cckEsuR6.s:2177   .debug_str:0000000000000610 .LASF17
     /tmp/cckEsuR6.s:2153   .debug_str:0000000000000543 .LASF18
     /tmp/cckEsuR6.s:2119   .debug_str:0000000000000423 .LASF19
     /tmp/cckEsuR6.s:2057   .debug_str:0000000000000213 .LASF20
     /tmp/cckEsuR6.s:2199   .debug_str:0000000000000781 .LASF29
     /tmp/cckEsuR6.s:2095   .debug_str:0000000000000347 .LASF21
     /tmp/cckEsuR6.s:2221   .debug_str:0000000000000877 .LASF22
     /tmp/cckEsuR6.s:2135   .debug_str:00000000000004ce .LASF23
     /tmp/cckEsuR6.s:2117   .debug_str:000000000000041e .LASF24
GAS LISTING /tmp/cckEsuR6.s 			page 10


     /tmp/cckEsuR6.s:2083   .debug_str:00000000000002d7 .LASF25
     /tmp/cckEsuR6.s:2197   .debug_str:0000000000000777 .LASF26
     /tmp/cckEsuR6.s:2139   .debug_str:00000000000004e3 .LASF27
     /tmp/cckEsuR6.s:2069   .debug_str:000000000000025d .LASF28
     /tmp/cckEsuR6.s:2179   .debug_str:0000000000000615 .LASF30
     /tmp/cckEsuR6.s:2169   .debug_str:00000000000005db .LASF31
     /tmp/cckEsuR6.s:2125   .debug_str:000000000000045e .LASF33
     /tmp/cckEsuR6.s:2045   .debug_str:0000000000000195 .LASF32
     /tmp/cckEsuR6.s:2219   .debug_str:0000000000000864 .LASF34
     /tmp/cckEsuR6.s:2015   .debug_str:0000000000000085 .LASF35
     /tmp/cckEsuR6.s:2031   .debug_str:0000000000000149 .LASF36
     /tmp/cckEsuR6.s:2041   .debug_str:000000000000017f .LASF37
     /tmp/cckEsuR6.s:2011   .debug_str:000000000000004b .LASF38
     /tmp/cckEsuR6.s:2131   .debug_str:00000000000004a6 .LASF39
     /tmp/cckEsuR6.s:2207   .debug_str:00000000000007bc .LASF40
     /tmp/cckEsuR6.s:2043   .debug_str:000000000000018e .LASF41
     /tmp/cckEsuR6.s:2151   .debug_str:0000000000000535 .LASF42
     /tmp/cckEsuR6.s:2159   .debug_str:000000000000057b .LASF43
     /tmp/cckEsuR6.s:2195   .debug_str:0000000000000754 .LASF45
     /tmp/cckEsuR6.s:2157   .debug_str:000000000000056f .LASF47
     /tmp/cckEsuR6.s:2047   .debug_str:000000000000019d .LASF49
     /tmp/cckEsuR6.s:2137   .debug_str:00000000000004d7 .LASF44
     /tmp/cckEsuR6.s:2231   .debug_str:00000000000008c6 .LASF46
     /tmp/cckEsuR6.s:2129   .debug_str:0000000000000499 .LASF48
     /tmp/cckEsuR6.s:2127   .debug_str:0000000000000470 .LASF50
     /tmp/cckEsuR6.s:2167   .debug_str:00000000000005cf .LASF51
     /tmp/cckEsuR6.s:2217   .debug_str:000000000000083c .LASF52
     /tmp/cckEsuR6.s:2093   .debug_str:000000000000033a .LASF53
     /tmp/cckEsuR6.s:2113   .debug_str:00000000000003e6 .LASF54
     /tmp/cckEsuR6.s:2181   .debug_str:000000000000061a .LASF55
     /tmp/cckEsuR6.s:2025   .debug_str:00000000000000ff .LASF56
     /tmp/cckEsuR6.s:2121   .debug_str:0000000000000428 .LASF57
     /tmp/cckEsuR6.s:2211   .debug_str:00000000000007e6 .LASF58
     /tmp/cckEsuR6.s:2223   .debug_str:0000000000000882 .LASF59
     /tmp/cckEsuR6.s:2019   .debug_str:00000000000000bb .LASF60
     /tmp/cckEsuR6.s:2189   .debug_str:0000000000000722 .LASF61
     /tmp/cckEsuR6.s:2013   .debug_str:000000000000005b .LASF62
     /tmp/cckEsuR6.s:2033   .debug_str:000000000000014e .LASF63
     /tmp/cckEsuR6.s:2087   .debug_str:00000000000002e9 .LASF64
     /tmp/cckEsuR6.s:2111   .debug_str:00000000000003dc .LASF65
     /tmp/cckEsuR6.s:2155   .debug_str:000000000000054b .LASF66
     /tmp/cckEsuR6.s:2061   .debug_str:000000000000022f .LASF67
     /tmp/cckEsuR6.s:2123   .debug_str:0000000000000437 .LASF68
     /tmp/cckEsuR6.s:2201   .debug_str:0000000000000787 .LASF69
     /tmp/cckEsuR6.s:2229   .debug_str:00000000000008c0 .LASF70
     /tmp/cckEsuR6.s:2183   .debug_str:0000000000000629 .LASF71
     /tmp/cckEsuR6.s:2023   .debug_str:00000000000000ea .LASF72
     /tmp/cckEsuR6.s:2081   .debug_str:00000000000002c8 .LASF73
     /tmp/cckEsuR6.s:2161   .debug_str:0000000000000586 .LASF75
     /tmp/cckEsuR6.s:2225   .debug_str:000000000000088b .LASF74
     /tmp/cckEsuR6.s:2071   .debug_str:0000000000000266 .LASF76
     /tmp/cckEsuR6.s:2035   .debug_str:0000000000000159 .LASF77
     /tmp/cckEsuR6.s:2227   .debug_str:000000000000089a .LASF78
     /tmp/cckEsuR6.s:2077   .debug_str:00000000000002b3 .LASF79
     /tmp/cckEsuR6.s:2215   .debug_str:0000000000000813 .LASF80
     /tmp/cckEsuR6.s:2143   .debug_str:0000000000000502 .LASF81
     /tmp/cckEsuR6.s:2007   .debug_str:000000000000001b .LASF82
GAS LISTING /tmp/cckEsuR6.s 			page 11


     /tmp/cckEsuR6.s:2075   .debug_str:00000000000002a2 .LASF83
     /tmp/cckEsuR6.s:2107   .debug_str:0000000000000389 .LASF84
     /tmp/cckEsuR6.s:2055   .debug_str:0000000000000206 .LASF85
     /tmp/cckEsuR6.s:2187   .debug_str:00000000000006f7 .LASF86
     /tmp/cckEsuR6.s:2021   .debug_str:00000000000000df .LASF113
     /tmp/cckEsuR6.s:2109   .debug_str:00000000000003b5 .LASF114
     /tmp/cckEsuR6.s:2063   .debug_str:000000000000023a .LASF87
     /tmp/cckEsuR6.s:2105   .debug_str:000000000000037d .LASF88
     /tmp/cckEsuR6.s:270    .text:0000000000000148 .LFB38
     /tmp/cckEsuR6.s:296    .text:0000000000000170 .LFE38
     /tmp/cckEsuR6.s:2163   .debug_str:00000000000005b4 .LASF89
     /tmp/cckEsuR6.s:1796   .debug_loc:0000000000000000 .LLST13
     /tmp/cckEsuR6.s:285    .text:0000000000000160 .LVL18
     /tmp/cckEsuR6.s:2213   .debug_str:000000000000080b .LASF91
     /tmp/cckEsuR6.s:2205   .debug_str:00000000000007b0 .LASF93
     /tmp/cckEsuR6.s:238    .text:0000000000000120 .LFB37
     /tmp/cckEsuR6.s:264    .text:0000000000000148 .LFE37
     /tmp/cckEsuR6.s:2099   .debug_str:000000000000035f .LASF90
     /tmp/cckEsuR6.s:1810   .debug_loc:0000000000000039 .LLST12
     /tmp/cckEsuR6.s:253    .text:0000000000000138 .LVL16
     /tmp/cckEsuR6.s:2175   .debug_str:00000000000005fe .LASF92
     /tmp/cckEsuR6.s:2209   .debug_str:00000000000007c9 .LASF94
     /tmp/cckEsuR6.s:206    .text:00000000000000f8 .LFB36
     /tmp/cckEsuR6.s:232    .text:0000000000000120 .LFE36
     /tmp/cckEsuR6.s:2079   .debug_str:00000000000002c1 .LASF95
     /tmp/cckEsuR6.s:1824   .debug_loc:0000000000000072 .LLST11
     /tmp/cckEsuR6.s:221    .text:0000000000000110 .LVL14
     /tmp/cckEsuR6.s:2147   .debug_str:000000000000051e .LASF96
     /tmp/cckEsuR6.s:2005   .debug_str:0000000000000000 .LASF97
     /tmp/cckEsuR6.s:174    .text:00000000000000d0 .LFB35
     /tmp/cckEsuR6.s:200    .text:00000000000000f8 .LFE35
     /tmp/cckEsuR6.s:1838   .debug_loc:00000000000000ab .LLST10
     /tmp/cckEsuR6.s:189    .text:00000000000000e8 .LVL12
     /tmp/cckEsuR6.s:2051   .debug_str:00000000000001e1 .LASF98
     /tmp/cckEsuR6.s:2133   .debug_str:00000000000004b0 .LASF99
     /tmp/cckEsuR6.s:139    .text:00000000000000a0 .LFB34
     /tmp/cckEsuR6.s:168    .text:00000000000000d0 .LFE34
     /tmp/cckEsuR6.s:1852   .debug_loc:00000000000000e4 .LLST9
     /tmp/cckEsuR6.s:157    .text:00000000000000c0 .LVL10
     /tmp/cckEsuR6.s:2171   .debug_str:00000000000005e2 .LASF100
     /tmp/cckEsuR6.s:2191   .debug_str:000000000000072d .LASF101
     /tmp/cckEsuR6.s:107    .text:0000000000000078 .LFB33
     /tmp/cckEsuR6.s:133    .text:00000000000000a0 .LFE33
     /tmp/cckEsuR6.s:1864   .debug_loc:000000000000011b .LLST7
     /tmp/cckEsuR6.s:1878   .debug_loc:0000000000000154 .LLST8
     /tmp/cckEsuR6.s:122    .text:0000000000000090 .LVL7
     /tmp/cckEsuR6.s:2039   .debug_str:000000000000016e .LASF102
     /tmp/cckEsuR6.s:2091   .debug_str:000000000000031e .LASF103
     /tmp/cckEsuR6.s:75     .text:0000000000000050 .LFB32
     /tmp/cckEsuR6.s:101    .text:0000000000000078 .LFE32
     /tmp/cckEsuR6.s:1892   .debug_loc:000000000000018d .LLST6
     /tmp/cckEsuR6.s:90     .text:0000000000000068 .LVL5
     /tmp/cckEsuR6.s:2053   .debug_str:00000000000001f4 .LASF104
     /tmp/cckEsuR6.s:2203   .debug_str:000000000000078d .LASF105
     /tmp/cckEsuR6.s:43     .text:0000000000000028 .LFB31
     /tmp/cckEsuR6.s:69     .text:0000000000000050 .LFE31
     /tmp/cckEsuR6.s:1906   .debug_loc:00000000000001c6 .LLST2
GAS LISTING /tmp/cckEsuR6.s 			page 12


     /tmp/cckEsuR6.s:1920   .debug_loc:00000000000001ff .LLST3
     /tmp/cckEsuR6.s:1934   .debug_loc:0000000000000238 .LLST4
     /tmp/cckEsuR6.s:1948   .debug_loc:0000000000000271 .LLST5
     /tmp/cckEsuR6.s:58     .text:0000000000000040 .LVL3
     /tmp/cckEsuR6.s:2193   .debug_str:000000000000074a .LASF106
     /tmp/cckEsuR6.s:2115   .debug_str:000000000000040e .LASF107
     /tmp/cckEsuR6.s:10     .text:0000000000000000 .LFB30
     /tmp/cckEsuR6.s:37     .text:0000000000000028 .LFE30
     /tmp/cckEsuR6.s:2103   .debug_str:0000000000000377 .LASF108
     /tmp/cckEsuR6.s:1962   .debug_loc:00000000000002aa .LLST0
     /tmp/cckEsuR6.s:2233   .debug_str:00000000000008ef .LASF109
     /tmp/cckEsuR6.s:1976   .debug_loc:00000000000002e3 .LLST1
     /tmp/cckEsuR6.s:26     .text:0000000000000018 .LVL1
     /tmp/cckEsuR6.s:273    .text:0000000000000148 .LVL17
     /tmp/cckEsuR6.s:241    .text:0000000000000120 .LVL15
     /tmp/cckEsuR6.s:209    .text:00000000000000f8 .LVL13
     /tmp/cckEsuR6.s:177    .text:00000000000000d0 .LVL11
     /tmp/cckEsuR6.s:142    .text:00000000000000a0 .LVL8
     /tmp/cckEsuR6.s:155    .text:00000000000000b8 .LVL9
     /tmp/cckEsuR6.s:110    .text:0000000000000078 .LVL6
     /tmp/cckEsuR6.s:78     .text:0000000000000050 .LVL4
     /tmp/cckEsuR6.s:46     .text:0000000000000028 .LVL2
     /tmp/cckEsuR6.s:14     .text:0000000000000000 .LVL0
     /tmp/cckEsuR6.s:305    .debug_info:0000000000000000 .Ldebug_info0

UNDEFINED SYMBOLS
_ZN13SlabAllocator10initializeEPvm
_ZN13SlabAllocator11createCacheEPKcmPFvPvES4_
_ZN13SlabAllocator14allocateObjectEP5Cache
_ZN13SlabAllocator10freeObjectEP5CachePKv
_ZN13SlabAllocator11deleteCacheERP5Cache
_ZN13SlabAllocator10printCacheEP5Cache
_ZN13SlabAllocator11shrinkCacheEP5Cache
_ZN13SlabAllocator14allocateBufferEm
_ZN13SlabAllocator10freeBufferEPKv
