GAS LISTING /tmp/ccPBFWaG.s 			page 1


   1              		.file	"slab.cpp"
   2              		.option pic
   3              		.option norelax
   4              		.text
   5              	.Ltext0:
   6              		.align	2
   7              		.globl	_Z9kmem_initPvi
   9              	_Z9kmem_initPvi:
  10              	.LFB10:
  11              		.file 1 "src/slab.cpp"
   1:src/slab.cpp  **** //
   2:src/slab.cpp  **** // Created by os on 1/2/23.
   3:src/slab.cpp  **** //
   4:src/slab.cpp  **** #include "../h/slab.hpp"
   5:src/slab.cpp  **** 
   6:src/slab.cpp  **** void kmem_init(void* space, int block_num){
  12              		.loc 1 6 43
  13              		.cfi_startproc
  14              	.LVL0:
  15 0000 130101FF 		addi	sp,sp,-16
  16              		.cfi_def_cfa_offset 16
  17 0004 23341100 		sd	ra,8(sp)
  18 0008 23308100 		sd	s0,0(sp)
  19              		.cfi_offset 1, -8
  20              		.cfi_offset 8, -16
  21 000c 13040101 		addi	s0,sp,16
  22              		.cfi_def_cfa 8, 0
   7:src/slab.cpp  ****     SlabAllocator::initialize(space, block_num);
  23              		.loc 1 7 5
  24              		.loc 1 7 30 is_stmt 0
  25 0010 97000000 		call	_ZN13SlabAllocator10initializeEPvm@plt
  25      E7800000 
  26              	.LVL1:
   8:src/slab.cpp  **** }
  27              		.loc 1 8 1
  28 0018 83308100 		ld	ra,8(sp)
  29              		.cfi_restore 1
  30 001c 03340100 		ld	s0,0(sp)
  31              		.cfi_restore 8
  32              		.cfi_def_cfa 2, 16
  33 0020 13010101 		addi	sp,sp,16
  34              		.cfi_def_cfa_offset 0
  35 0024 67800000 		jr	ra
  36              		.cfi_endproc
  37              	.LFE10:
  39              		.align	2
  40              		.globl	_Z17kmem_cache_createPKcmPFvPvES3_
  42              	_Z17kmem_cache_createPKcmPFvPvES3_:
  43              	.LFB11:
   9:src/slab.cpp  **** 
  10:src/slab.cpp  **** kmem_cache_t* kmem_cache_create(const char* name, size_t size, void (*ctor)(void*), void (*dtor)(vo
  44              		.loc 1 10 105 is_stmt 1
  45              		.cfi_startproc
  46              	.LVL2:
  47 0028 130101FF 		addi	sp,sp,-16
  48              		.cfi_def_cfa_offset 16
  49 002c 23341100 		sd	ra,8(sp)
GAS LISTING /tmp/ccPBFWaG.s 			page 2


  50 0030 23308100 		sd	s0,0(sp)
  51              		.cfi_offset 1, -8
  52              		.cfi_offset 8, -16
  53 0034 13040101 		addi	s0,sp,16
  54              		.cfi_def_cfa 8, 0
  11:src/slab.cpp  ****     return SlabAllocator::createCache(name, size, ctor, dtor);
  55              		.loc 1 11 5
  56              		.loc 1 11 38 is_stmt 0
  57 0038 97000000 		call	_ZN13SlabAllocator11createCacheEPKcmPFvPvES4_@plt
  57      E7800000 
  58              	.LVL3:
  12:src/slab.cpp  **** }
  59              		.loc 1 12 1
  60 0040 83308100 		ld	ra,8(sp)
  61              		.cfi_restore 1
  62 0044 03340100 		ld	s0,0(sp)
  63              		.cfi_restore 8
  64              		.cfi_def_cfa 2, 16
  65 0048 13010101 		addi	sp,sp,16
  66              		.cfi_def_cfa_offset 0
  67 004c 67800000 		jr	ra
  68              		.cfi_endproc
  69              	.LFE11:
  71              		.align	2
  72              		.globl	_Z16kmem_cache_allocP5Cache
  74              	_Z16kmem_cache_allocP5Cache:
  75              	.LFB12:
  13:src/slab.cpp  **** 
  14:src/slab.cpp  **** void* kmem_cache_alloc(kmem_cache_t* cachep){
  76              		.loc 1 14 45 is_stmt 1
  77              		.cfi_startproc
  78              	.LVL4:
  79 0050 130101FF 		addi	sp,sp,-16
  80              		.cfi_def_cfa_offset 16
  81 0054 23341100 		sd	ra,8(sp)
  82 0058 23308100 		sd	s0,0(sp)
  83              		.cfi_offset 1, -8
  84              		.cfi_offset 8, -16
  85 005c 13040101 		addi	s0,sp,16
  86              		.cfi_def_cfa 8, 0
  15:src/slab.cpp  ****     return SlabAllocator::allocateObject(cachep);
  87              		.loc 1 15 5
  88              		.loc 1 15 41 is_stmt 0
  89 0060 97000000 		call	_ZN13SlabAllocator14allocateObjectEP5Cache@plt
  89      E7800000 
  90              	.LVL5:
  16:src/slab.cpp  **** }
  91              		.loc 1 16 1
  92 0068 83308100 		ld	ra,8(sp)
  93              		.cfi_restore 1
  94 006c 03340100 		ld	s0,0(sp)
  95              		.cfi_restore 8
  96              		.cfi_def_cfa 2, 16
  97 0070 13010101 		addi	sp,sp,16
  98              		.cfi_def_cfa_offset 0
  99 0074 67800000 		jr	ra
 100              		.cfi_endproc
GAS LISTING /tmp/ccPBFWaG.s 			page 3


 101              	.LFE12:
 103              		.align	2
 104              		.globl	_Z15kmem_cache_freeP5CachePv
 106              	_Z15kmem_cache_freeP5CachePv:
 107              	.LFB13:
  17:src/slab.cpp  **** 
  18:src/slab.cpp  **** void kmem_cache_free(kmem_cache_t* cachep, void* objp){
 108              		.loc 1 18 55 is_stmt 1
 109              		.cfi_startproc
 110              	.LVL6:
 111 0078 130101FF 		addi	sp,sp,-16
 112              		.cfi_def_cfa_offset 16
 113 007c 23341100 		sd	ra,8(sp)
 114 0080 23308100 		sd	s0,0(sp)
 115              		.cfi_offset 1, -8
 116              		.cfi_offset 8, -16
 117 0084 13040101 		addi	s0,sp,16
 118              		.cfi_def_cfa 8, 0
  19:src/slab.cpp  ****     SlabAllocator::freeObject(cachep, objp);
 119              		.loc 1 19 5
 120              		.loc 1 19 30 is_stmt 0
 121 0088 97000000 		call	_ZN13SlabAllocator10freeObjectEP5CachePKv@plt
 121      E7800000 
 122              	.LVL7:
  20:src/slab.cpp  **** }
 123              		.loc 1 20 1
 124 0090 83308100 		ld	ra,8(sp)
 125              		.cfi_restore 1
 126 0094 03340100 		ld	s0,0(sp)
 127              		.cfi_restore 8
 128              		.cfi_def_cfa 2, 16
 129 0098 13010101 		addi	sp,sp,16
 130              		.cfi_def_cfa_offset 0
 131 009c 67800000 		jr	ra
 132              		.cfi_endproc
 133              	.LFE13:
 135              		.align	2
 136              		.globl	_Z18kmem_cache_destroyP5Cache
 138              	_Z18kmem_cache_destroyP5Cache:
 139              	.LFB14:
  21:src/slab.cpp  **** 
  22:src/slab.cpp  **** void kmem_cache_destroy(kmem_cache_t* cachep){
 140              		.loc 1 22 46 is_stmt 1
 141              		.cfi_startproc
 142              	.LVL8:
 143 00a0 130101FE 		addi	sp,sp,-32
 144              		.cfi_def_cfa_offset 32
 145 00a4 233C1100 		sd	ra,24(sp)
 146 00a8 23388100 		sd	s0,16(sp)
 147              		.cfi_offset 1, -8
 148              		.cfi_offset 8, -16
 149 00ac 13040102 		addi	s0,sp,32
 150              		.cfi_def_cfa 8, 0
 151 00b0 2334A4FE 		sd	a0,-24(s0)
  23:src/slab.cpp  ****     SlabAllocator::deleteCache(cachep);
 152              		.loc 1 23 5
 153              		.loc 1 23 31 is_stmt 0
GAS LISTING /tmp/ccPBFWaG.s 			page 4


 154 00b4 130584FE 		addi	a0,s0,-24
 155              	.LVL9:
 156 00b8 97000000 		call	_ZN13SlabAllocator11deleteCacheERP5Cache@plt
 156      E7800000 
 157              	.LVL10:
  24:src/slab.cpp  **** }
 158              		.loc 1 24 1
 159 00c0 83308101 		ld	ra,24(sp)
 160              		.cfi_restore 1
 161 00c4 03340101 		ld	s0,16(sp)
 162              		.cfi_restore 8
 163              		.cfi_def_cfa 2, 32
 164 00c8 13010102 		addi	sp,sp,32
 165              		.cfi_def_cfa_offset 0
 166 00cc 67800000 		jr	ra
 167              		.cfi_endproc
 168              	.LFE14:
 170              		.align	2
 171              		.globl	_Z15kmem_cache_infoP5Cache
 173              	_Z15kmem_cache_infoP5Cache:
 174              	.LFB15:
  25:src/slab.cpp  **** 
  26:src/slab.cpp  **** void kmem_cache_info(kmem_cache_t* cachep){
 175              		.loc 1 26 43 is_stmt 1
 176              		.cfi_startproc
 177              	.LVL11:
 178 00d0 130101FF 		addi	sp,sp,-16
 179              		.cfi_def_cfa_offset 16
 180 00d4 23341100 		sd	ra,8(sp)
 181 00d8 23308100 		sd	s0,0(sp)
 182              		.cfi_offset 1, -8
 183              		.cfi_offset 8, -16
 184 00dc 13040101 		addi	s0,sp,16
 185              		.cfi_def_cfa 8, 0
  27:src/slab.cpp  ****     SlabAllocator::printCache(cachep);
 186              		.loc 1 27 5
 187              		.loc 1 27 30 is_stmt 0
 188 00e0 97000000 		call	_ZN13SlabAllocator10printCacheEP5Cache@plt
 188      E7800000 
 189              	.LVL12:
  28:src/slab.cpp  **** }
 190              		.loc 1 28 1
 191 00e8 83308100 		ld	ra,8(sp)
 192              		.cfi_restore 1
 193 00ec 03340100 		ld	s0,0(sp)
 194              		.cfi_restore 8
 195              		.cfi_def_cfa 2, 16
 196 00f0 13010101 		addi	sp,sp,16
 197              		.cfi_def_cfa_offset 0
 198 00f4 67800000 		jr	ra
 199              		.cfi_endproc
 200              	.LFE15:
 202              		.align	2
 203              		.globl	_Z17kmem_cache_shrinkP5Cache
 205              	_Z17kmem_cache_shrinkP5Cache:
 206              	.LFB16:
  29:src/slab.cpp  **** 
GAS LISTING /tmp/ccPBFWaG.s 			page 5


  30:src/slab.cpp  **** int kmem_cache_shrink(kmem_cache_t* cachep){
 207              		.loc 1 30 44 is_stmt 1
 208              		.cfi_startproc
 209              	.LVL13:
 210 00f8 130101FF 		addi	sp,sp,-16
 211              		.cfi_def_cfa_offset 16
 212 00fc 23341100 		sd	ra,8(sp)
 213 0100 23308100 		sd	s0,0(sp)
 214              		.cfi_offset 1, -8
 215              		.cfi_offset 8, -16
 216 0104 13040101 		addi	s0,sp,16
 217              		.cfi_def_cfa 8, 0
  31:src/slab.cpp  ****     return SlabAllocator::shrinkCache(cachep);
 218              		.loc 1 31 5
 219              		.loc 1 31 38 is_stmt 0
 220 0108 97000000 		call	_ZN13SlabAllocator11shrinkCacheEP5Cache@plt
 220      E7800000 
 221              	.LVL14:
  32:src/slab.cpp  **** }
 222              		.loc 1 32 1
 223 0110 83308100 		ld	ra,8(sp)
 224              		.cfi_restore 1
 225 0114 03340100 		ld	s0,0(sp)
 226              		.cfi_restore 8
 227              		.cfi_def_cfa 2, 16
 228 0118 13010101 		addi	sp,sp,16
 229              		.cfi_def_cfa_offset 0
 230 011c 67800000 		jr	ra
 231              		.cfi_endproc
 232              	.LFE16:
 234              		.align	2
 235              		.globl	_Z7kmallocm
 237              	_Z7kmallocm:
 238              	.LFB17:
  33:src/slab.cpp  **** void* kmalloc(size_t size){
 239              		.loc 1 33 27 is_stmt 1
 240              		.cfi_startproc
 241              	.LVL15:
 242 0120 130101FF 		addi	sp,sp,-16
 243              		.cfi_def_cfa_offset 16
 244 0124 23341100 		sd	ra,8(sp)
 245 0128 23308100 		sd	s0,0(sp)
 246              		.cfi_offset 1, -8
 247              		.cfi_offset 8, -16
 248 012c 13040101 		addi	s0,sp,16
 249              		.cfi_def_cfa 8, 0
  34:src/slab.cpp  ****     return SlabAllocator::allocateBuffer(size);
 250              		.loc 1 34 5
 251              		.loc 1 34 41 is_stmt 0
 252 0130 97000000 		call	_ZN13SlabAllocator14allocateBufferEm@plt
 252      E7800000 
 253              	.LVL16:
  35:src/slab.cpp  **** }
 254              		.loc 1 35 1
 255 0138 83308100 		ld	ra,8(sp)
 256              		.cfi_restore 1
 257 013c 03340100 		ld	s0,0(sp)
GAS LISTING /tmp/ccPBFWaG.s 			page 6


 258              		.cfi_restore 8
 259              		.cfi_def_cfa 2, 16
 260 0140 13010101 		addi	sp,sp,16
 261              		.cfi_def_cfa_offset 0
 262 0144 67800000 		jr	ra
 263              		.cfi_endproc
 264              	.LFE17:
 266              		.align	2
 267              		.globl	_Z5kfreePKv
 269              	_Z5kfreePKv:
 270              	.LFB18:
  36:src/slab.cpp  **** 
  37:src/slab.cpp  **** void kfree(const void* objp){
 271              		.loc 1 37 29 is_stmt 1
 272              		.cfi_startproc
 273              	.LVL17:
 274 0148 130101FF 		addi	sp,sp,-16
 275              		.cfi_def_cfa_offset 16
 276 014c 23341100 		sd	ra,8(sp)
 277 0150 23308100 		sd	s0,0(sp)
 278              		.cfi_offset 1, -8
 279              		.cfi_offset 8, -16
 280 0154 13040101 		addi	s0,sp,16
 281              		.cfi_def_cfa 8, 0
  38:src/slab.cpp  ****     SlabAllocator::freeBuffer(objp);
 282              		.loc 1 38 5
 283              		.loc 1 38 30 is_stmt 0
 284 0158 97000000 		call	_ZN13SlabAllocator10freeBufferEPKv@plt
 284      E7800000 
 285              	.LVL18:
  39:src/slab.cpp  **** }...
 286              		.loc 1 39 1
 287 0160 83308100 		ld	ra,8(sp)
 288              		.cfi_restore 1
 289 0164 03340100 		ld	s0,0(sp)
 290              		.cfi_restore 8
 291              		.cfi_def_cfa 2, 16
 292 0168 13010101 		addi	sp,sp,16
 293              		.cfi_def_cfa_offset 0
 294 016c 67800000 		jr	ra
 295              		.cfi_endproc
 296              	.LFE18:
 298              	.Letext0:
 299              		.file 2 "src/../h/../h/../h/../lib/hw.h"
 300              		.file 3 "src/../h/../h/../h/utility.hpp"
 301              		.file 4 "src/../h/../h/../h/../h/slab_t.hpp"
 302              		.file 5 "src/../h/../h/../h/cache_t.hpp"
 303              		.file 6 "src/../h/../h/slabAllocator.hpp"
GAS LISTING /tmp/ccPBFWaG.s 			page 7


DEFINED SYMBOLS
                            *ABS*:0000000000000000 slab.cpp
     /tmp/ccPBFWaG.s:9      .text:0000000000000000 _Z9kmem_initPvi
     /tmp/ccPBFWaG.s:13     .text:0000000000000000 .L0 
     /tmp/ccPBFWaG.s:15     .text:0000000000000000 .L0 
     /tmp/ccPBFWaG.s:16     .text:0000000000000004 .L0 
     /tmp/ccPBFWaG.s:19     .text:000000000000000c .L0 
     /tmp/ccPBFWaG.s:20     .text:000000000000000c .L0 
     /tmp/ccPBFWaG.s:22     .text:0000000000000010 .L0 
     /tmp/ccPBFWaG.s:24     .text:0000000000000010 .L0 
     /tmp/ccPBFWaG.s:25     .text:0000000000000010 .L0 
     /tmp/ccPBFWaG.s:28     .text:0000000000000018 .L0 
     /tmp/ccPBFWaG.s:29     .text:000000000000001c .L0 
     /tmp/ccPBFWaG.s:31     .text:0000000000000020 .L0 
     /tmp/ccPBFWaG.s:32     .text:0000000000000020 .L0 
     /tmp/ccPBFWaG.s:34     .text:0000000000000024 .L0 
     /tmp/ccPBFWaG.s:36     .text:0000000000000028 .L0 
     /tmp/ccPBFWaG.s:42     .text:0000000000000028 _Z17kmem_cache_createPKcmPFvPvES3_
     /tmp/ccPBFWaG.s:45     .text:0000000000000028 .L0 
     /tmp/ccPBFWaG.s:47     .text:0000000000000028 .L0 
     /tmp/ccPBFWaG.s:48     .text:000000000000002c .L0 
     /tmp/ccPBFWaG.s:51     .text:0000000000000034 .L0 
     /tmp/ccPBFWaG.s:52     .text:0000000000000034 .L0 
     /tmp/ccPBFWaG.s:54     .text:0000000000000038 .L0 
     /tmp/ccPBFWaG.s:56     .text:0000000000000038 .L0 
     /tmp/ccPBFWaG.s:57     .text:0000000000000038 .L0 
     /tmp/ccPBFWaG.s:60     .text:0000000000000040 .L0 
     /tmp/ccPBFWaG.s:61     .text:0000000000000044 .L0 
     /tmp/ccPBFWaG.s:63     .text:0000000000000048 .L0 
     /tmp/ccPBFWaG.s:64     .text:0000000000000048 .L0 
     /tmp/ccPBFWaG.s:66     .text:000000000000004c .L0 
     /tmp/ccPBFWaG.s:68     .text:0000000000000050 .L0 
     /tmp/ccPBFWaG.s:74     .text:0000000000000050 _Z16kmem_cache_allocP5Cache
     /tmp/ccPBFWaG.s:77     .text:0000000000000050 .L0 
     /tmp/ccPBFWaG.s:79     .text:0000000000000050 .L0 
     /tmp/ccPBFWaG.s:80     .text:0000000000000054 .L0 
     /tmp/ccPBFWaG.s:83     .text:000000000000005c .L0 
     /tmp/ccPBFWaG.s:84     .text:000000000000005c .L0 
     /tmp/ccPBFWaG.s:86     .text:0000000000000060 .L0 
     /tmp/ccPBFWaG.s:88     .text:0000000000000060 .L0 
     /tmp/ccPBFWaG.s:89     .text:0000000000000060 .L0 
     /tmp/ccPBFWaG.s:92     .text:0000000000000068 .L0 
     /tmp/ccPBFWaG.s:93     .text:000000000000006c .L0 
     /tmp/ccPBFWaG.s:95     .text:0000000000000070 .L0 
     /tmp/ccPBFWaG.s:96     .text:0000000000000070 .L0 
     /tmp/ccPBFWaG.s:98     .text:0000000000000074 .L0 
     /tmp/ccPBFWaG.s:100    .text:0000000000000078 .L0 
     /tmp/ccPBFWaG.s:106    .text:0000000000000078 _Z15kmem_cache_freeP5CachePv
     /tmp/ccPBFWaG.s:109    .text:0000000000000078 .L0 
     /tmp/ccPBFWaG.s:111    .text:0000000000000078 .L0 
     /tmp/ccPBFWaG.s:112    .text:000000000000007c .L0 
     /tmp/ccPBFWaG.s:115    .text:0000000000000084 .L0 
     /tmp/ccPBFWaG.s:116    .text:0000000000000084 .L0 
     /tmp/ccPBFWaG.s:118    .text:0000000000000088 .L0 
     /tmp/ccPBFWaG.s:120    .text:0000000000000088 .L0 
     /tmp/ccPBFWaG.s:121    .text:0000000000000088 .L0 
     /tmp/ccPBFWaG.s:124    .text:0000000000000090 .L0 
GAS LISTING /tmp/ccPBFWaG.s 			page 8


     /tmp/ccPBFWaG.s:125    .text:0000000000000094 .L0 
     /tmp/ccPBFWaG.s:127    .text:0000000000000098 .L0 
     /tmp/ccPBFWaG.s:128    .text:0000000000000098 .L0 
     /tmp/ccPBFWaG.s:130    .text:000000000000009c .L0 
     /tmp/ccPBFWaG.s:132    .text:00000000000000a0 .L0 
     /tmp/ccPBFWaG.s:138    .text:00000000000000a0 _Z18kmem_cache_destroyP5Cache
     /tmp/ccPBFWaG.s:141    .text:00000000000000a0 .L0 
     /tmp/ccPBFWaG.s:143    .text:00000000000000a0 .L0 
     /tmp/ccPBFWaG.s:144    .text:00000000000000a4 .L0 
     /tmp/ccPBFWaG.s:147    .text:00000000000000ac .L0 
     /tmp/ccPBFWaG.s:148    .text:00000000000000ac .L0 
     /tmp/ccPBFWaG.s:150    .text:00000000000000b0 .L0 
     /tmp/ccPBFWaG.s:153    .text:00000000000000b4 .L0 
     /tmp/ccPBFWaG.s:154    .text:00000000000000b4 .L0 
     /tmp/ccPBFWaG.s:159    .text:00000000000000c0 .L0 
     /tmp/ccPBFWaG.s:160    .text:00000000000000c4 .L0 
     /tmp/ccPBFWaG.s:162    .text:00000000000000c8 .L0 
     /tmp/ccPBFWaG.s:163    .text:00000000000000c8 .L0 
     /tmp/ccPBFWaG.s:165    .text:00000000000000cc .L0 
     /tmp/ccPBFWaG.s:167    .text:00000000000000d0 .L0 
     /tmp/ccPBFWaG.s:173    .text:00000000000000d0 _Z15kmem_cache_infoP5Cache
     /tmp/ccPBFWaG.s:176    .text:00000000000000d0 .L0 
     /tmp/ccPBFWaG.s:178    .text:00000000000000d0 .L0 
     /tmp/ccPBFWaG.s:179    .text:00000000000000d4 .L0 
     /tmp/ccPBFWaG.s:182    .text:00000000000000dc .L0 
     /tmp/ccPBFWaG.s:183    .text:00000000000000dc .L0 
     /tmp/ccPBFWaG.s:185    .text:00000000000000e0 .L0 
     /tmp/ccPBFWaG.s:187    .text:00000000000000e0 .L0 
     /tmp/ccPBFWaG.s:188    .text:00000000000000e0 .L0 
     /tmp/ccPBFWaG.s:191    .text:00000000000000e8 .L0 
     /tmp/ccPBFWaG.s:192    .text:00000000000000ec .L0 
     /tmp/ccPBFWaG.s:194    .text:00000000000000f0 .L0 
     /tmp/ccPBFWaG.s:195    .text:00000000000000f0 .L0 
     /tmp/ccPBFWaG.s:197    .text:00000000000000f4 .L0 
     /tmp/ccPBFWaG.s:199    .text:00000000000000f8 .L0 
     /tmp/ccPBFWaG.s:205    .text:00000000000000f8 _Z17kmem_cache_shrinkP5Cache
     /tmp/ccPBFWaG.s:208    .text:00000000000000f8 .L0 
     /tmp/ccPBFWaG.s:210    .text:00000000000000f8 .L0 
     /tmp/ccPBFWaG.s:211    .text:00000000000000fc .L0 
     /tmp/ccPBFWaG.s:214    .text:0000000000000104 .L0 
     /tmp/ccPBFWaG.s:215    .text:0000000000000104 .L0 
     /tmp/ccPBFWaG.s:217    .text:0000000000000108 .L0 
     /tmp/ccPBFWaG.s:219    .text:0000000000000108 .L0 
     /tmp/ccPBFWaG.s:220    .text:0000000000000108 .L0 
     /tmp/ccPBFWaG.s:223    .text:0000000000000110 .L0 
     /tmp/ccPBFWaG.s:224    .text:0000000000000114 .L0 
     /tmp/ccPBFWaG.s:226    .text:0000000000000118 .L0 
     /tmp/ccPBFWaG.s:227    .text:0000000000000118 .L0 
     /tmp/ccPBFWaG.s:229    .text:000000000000011c .L0 
     /tmp/ccPBFWaG.s:231    .text:0000000000000120 .L0 
     /tmp/ccPBFWaG.s:237    .text:0000000000000120 _Z7kmallocm
     /tmp/ccPBFWaG.s:240    .text:0000000000000120 .L0 
     /tmp/ccPBFWaG.s:242    .text:0000000000000120 .L0 
     /tmp/ccPBFWaG.s:243    .text:0000000000000124 .L0 
     /tmp/ccPBFWaG.s:246    .text:000000000000012c .L0 
     /tmp/ccPBFWaG.s:247    .text:000000000000012c .L0 
     /tmp/ccPBFWaG.s:249    .text:0000000000000130 .L0 
GAS LISTING /tmp/ccPBFWaG.s 			page 9


     /tmp/ccPBFWaG.s:251    .text:0000000000000130 .L0 
     /tmp/ccPBFWaG.s:252    .text:0000000000000130 .L0 
     /tmp/ccPBFWaG.s:255    .text:0000000000000138 .L0 
     /tmp/ccPBFWaG.s:256    .text:000000000000013c .L0 
     /tmp/ccPBFWaG.s:258    .text:0000000000000140 .L0 
     /tmp/ccPBFWaG.s:259    .text:0000000000000140 .L0 
     /tmp/ccPBFWaG.s:261    .text:0000000000000144 .L0 
     /tmp/ccPBFWaG.s:263    .text:0000000000000148 .L0 
     /tmp/ccPBFWaG.s:269    .text:0000000000000148 _Z5kfreePKv
     /tmp/ccPBFWaG.s:272    .text:0000000000000148 .L0 
     /tmp/ccPBFWaG.s:274    .text:0000000000000148 .L0 
     /tmp/ccPBFWaG.s:275    .text:000000000000014c .L0 
     /tmp/ccPBFWaG.s:278    .text:0000000000000154 .L0 
     /tmp/ccPBFWaG.s:279    .text:0000000000000154 .L0 
     /tmp/ccPBFWaG.s:281    .text:0000000000000158 .L0 
     /tmp/ccPBFWaG.s:283    .text:0000000000000158 .L0 
     /tmp/ccPBFWaG.s:284    .text:0000000000000158 .L0 
     /tmp/ccPBFWaG.s:287    .text:0000000000000160 .L0 
     /tmp/ccPBFWaG.s:288    .text:0000000000000164 .L0 
     /tmp/ccPBFWaG.s:290    .text:0000000000000168 .L0 
     /tmp/ccPBFWaG.s:291    .text:0000000000000168 .L0 
     /tmp/ccPBFWaG.s:293    .text:000000000000016c .L0 
     /tmp/ccPBFWaG.s:295    .text:0000000000000170 .L0 
     /tmp/ccPBFWaG.s:304    .text:0000000000000170 .L0 
     /tmp/ccPBFWaG.s:1301   .debug_abbrev:0000000000000000 .Ldebug_abbrev0
     /tmp/ccPBFWaG.s:2070   .debug_str:000000000000025f .LASF113
     /tmp/ccPBFWaG.s:2188   .debug_str:0000000000000728 .LASF114
     /tmp/ccPBFWaG.s:2242   .debug_str:00000000000008da .LASF115
     /tmp/ccPBFWaG.s:5      .text:0000000000000000 .Ltext0
     /tmp/ccPBFWaG.s:298    .text:0000000000000170 .Letext0
     /tmp/ccPBFWaG.s:2010   .debug_line:0000000000000000 .Ldebug_line0
     /tmp/ccPBFWaG.s:2134   .debug_str:000000000000054e .LASF0
     /tmp/ccPBFWaG.s:2148   .debug_str:00000000000005d5 .LASF1
     /tmp/ccPBFWaG.s:2126   .debug_str:00000000000004db .LASF2
     /tmp/ccPBFWaG.s:2102   .debug_str:0000000000000400 .LASF4
     /tmp/ccPBFWaG.s:2174   .debug_str:00000000000006ba .LASF3
     /tmp/ccPBFWaG.s:2034   .debug_str:00000000000000fc .LASF5
     /tmp/ccPBFWaG.s:2150   .debug_str:00000000000005e8 .LASF6
     /tmp/ccPBFWaG.s:2132   .debug_str:000000000000053b .LASF7
     /tmp/ccPBFWaG.s:2206   .debug_str:00000000000007ac .LASF8
     /tmp/ccPBFWaG.s:2088   .debug_str:0000000000000383 .LASF9
     /tmp/ccPBFWaG.s:2160   .debug_str:0000000000000628 .LASF10
     /tmp/ccPBFWaG.s:2198   .debug_str:0000000000000776 .LASF11
     /tmp/ccPBFWaG.s:2038   .debug_str:000000000000010d .LASF12
     /tmp/ccPBFWaG.s:2018   .debug_str:0000000000000022 .LASF13
     /tmp/ccPBFWaG.s:2044   .debug_str:0000000000000135 .LASF14
     /tmp/ccPBFWaG.s:2172   .debug_str:00000000000006a4 .LASF15
     /tmp/ccPBFWaG.s:2062   .debug_str:0000000000000226 .LASF16
     /tmp/ccPBFWaG.s:2152   .debug_str:00000000000005fb .LASF17
     /tmp/ccPBFWaG.s:2066   .debug_str:000000000000024b .LASF18
     /tmp/ccPBFWaG.s:2078   .debug_str:0000000000000349 .LASF19
     /tmp/ccPBFWaG.s:2210   .debug_str:00000000000007e0 .LASF20
     /tmp/ccPBFWaG.s:2104   .debug_str:0000000000000407 .LASF29
     /tmp/ccPBFWaG.s:2118   .debug_str:000000000000049b .LASF21
     /tmp/ccPBFWaG.s:2106   .debug_str:000000000000040d .LASF22
     /tmp/ccPBFWaG.s:2086   .debug_str:000000000000037a .LASF23
     /tmp/ccPBFWaG.s:2190   .debug_str:0000000000000735 .LASF24
GAS LISTING /tmp/ccPBFWaG.s 			page 10


     /tmp/ccPBFWaG.s:2072   .debug_str:000000000000032f .LASF25
     /tmp/ccPBFWaG.s:2100   .debug_str:00000000000003f6 .LASF26
     /tmp/ccPBFWaG.s:2166   .debug_str:0000000000000671 .LASF27
     /tmp/ccPBFWaG.s:2200   .debug_str:0000000000000785 .LASF28
     /tmp/ccPBFWaG.s:2236   .debug_str:00000000000008cb .LASF30
     /tmp/ccPBFWaG.s:2082   .debug_str:000000000000036c .LASF31
     /tmp/ccPBFWaG.s:2212   .debug_str:00000000000007ed .LASF33
     /tmp/ccPBFWaG.s:2054   .debug_str:00000000000001d0 .LASF32
     /tmp/ccPBFWaG.s:2156   .debug_str:000000000000060f .LASF34
     /tmp/ccPBFWaG.s:2224   .debug_str:0000000000000852 .LASF35
     /tmp/ccPBFWaG.s:2240   .debug_str:00000000000008d5 .LASF36
     /tmp/ccPBFWaG.s:2196   .debug_str:0000000000000767 .LASF37
     /tmp/ccPBFWaG.s:2096   .debug_str:00000000000003d3 .LASF38
     /tmp/ccPBFWaG.s:2092   .debug_str:00000000000003b4 .LASF39
     /tmp/ccPBFWaG.s:2024   .debug_str:0000000000000089 .LASF40
     /tmp/ccPBFWaG.s:2084   .debug_str:0000000000000373 .LASF41
     /tmp/ccPBFWaG.s:2182   .debug_str:000000000000070d .LASF42
     /tmp/ccPBFWaG.s:2124   .debug_str:00000000000004d0 .LASF43
     /tmp/ccPBFWaG.s:2108   .debug_str:0000000000000418 .LASF45
     /tmp/ccPBFWaG.s:2218   .debug_str:0000000000000815 .LASF47
     /tmp/ccPBFWaG.s:2020   .debug_str:0000000000000032 .LASF49
     /tmp/ccPBFWaG.s:2068   .debug_str:0000000000000253 .LASF44
     /tmp/ccPBFWaG.s:2026   .debug_str:0000000000000096 .LASF46
     /tmp/ccPBFWaG.s:2040   .debug_str:000000000000011d .LASF48
     /tmp/ccPBFWaG.s:2022   .debug_str:0000000000000060 .LASF50
     /tmp/ccPBFWaG.s:2180   .debug_str:0000000000000701 .LASF51
     /tmp/ccPBFWaG.s:2032   .debug_str:00000000000000d4 .LASF52
     /tmp/ccPBFWaG.s:2220   .debug_str:0000000000000821 .LASF53
     /tmp/ccPBFWaG.s:2116   .debug_str:0000000000000473 .LASF54
     /tmp/ccPBFWaG.s:2154   .debug_str:0000000000000600 .LASF55
     /tmp/ccPBFWaG.s:2060   .debug_str:00000000000001fb .LASF56
     /tmp/ccPBFWaG.s:2202   .debug_str:000000000000078e .LASF57
     /tmp/ccPBFWaG.s:2176   .debug_str:00000000000006cc .LASF58
     /tmp/ccPBFWaG.s:2216   .debug_str:000000000000080c .LASF59
     /tmp/ccPBFWaG.s:2208   .debug_str:00000000000007bc .LASF60
     /tmp/ccPBFWaG.s:2030   .debug_str:00000000000000c9 .LASF61
     /tmp/ccPBFWaG.s:2120   .debug_str:00000000000004a0 .LASF62
     /tmp/ccPBFWaG.s:2114   .debug_str:0000000000000468 .LASF63
     /tmp/ccPBFWaG.s:2144   .debug_str:00000000000005ac .LASF64
     /tmp/ccPBFWaG.s:2014   .debug_str:0000000000000006 .LASF65
     /tmp/ccPBFWaG.s:2222   .debug_str:000000000000082e .LASF66
     /tmp/ccPBFWaG.s:2042   .debug_str:000000000000012a .LASF67
     /tmp/ccPBFWaG.s:2048   .debug_str:000000000000016f .LASF68
     /tmp/ccPBFWaG.s:2122   .debug_str:00000000000004ca .LASF69
     /tmp/ccPBFWaG.s:2146   .debug_str:00000000000005cf .LASF70
     /tmp/ccPBFWaG.s:2028   .debug_str:00000000000000bf .LASF71
     /tmp/ccPBFWaG.s:2094   .debug_str:00000000000003be .LASF72
     /tmp/ccPBFWaG.s:2204   .debug_str:000000000000079d .LASF73
     /tmp/ccPBFWaG.s:2046   .debug_str:0000000000000141 .LASF75
     /tmp/ccPBFWaG.s:2064   .debug_str:000000000000023c .LASF74
     /tmp/ccPBFWaG.s:2162   .debug_str:0000000000000637 .LASF76
     /tmp/ccPBFWaG.s:2238   .debug_str:00000000000008d0 .LASF77
     /tmp/ccPBFWaG.s:2230   .debug_str:000000000000088e .LASF78
     /tmp/ccPBFWaG.s:2142   .debug_str:000000000000059e .LASF79
     /tmp/ccPBFWaG.s:2050   .debug_str:0000000000000196 .LASF80
     /tmp/ccPBFWaG.s:2228   .debug_str:0000000000000880 .LASF81
     /tmp/ccPBFWaG.s:2226   .debug_str:0000000000000857 .LASF82
GAS LISTING /tmp/ccPBFWaG.s 			page 11


     /tmp/ccPBFWaG.s:2140   .debug_str:000000000000058d .LASF83
     /tmp/ccPBFWaG.s:2136   .debug_str:000000000000055b .LASF84
     /tmp/ccPBFWaG.s:2214   .debug_str:00000000000007ff .LASF85
     /tmp/ccPBFWaG.s:2130   .debug_str:0000000000000510 .LASF86
     /tmp/ccPBFWaG.s:2076   .debug_str:000000000000033e .LASF87
     /tmp/ccPBFWaG.s:2128   .debug_str:00000000000004e9 .LASF88
     /tmp/ccPBFWaG.s:2138   .debug_str:0000000000000587 .LASF89
     /tmp/ccPBFWaG.s:2158   .debug_str:0000000000000622 .LASF90
     /tmp/ccPBFWaG.s:2164   .debug_str:0000000000000665 .LASF91
     /tmp/ccPBFWaG.s:270    .text:0000000000000148 .LFB18
     /tmp/ccPBFWaG.s:296    .text:0000000000000170 .LFE18
     /tmp/ccPBFWaG.s:2234   .debug_str:00000000000008c6 .LASF92
     /tmp/ccPBFWaG.s:1803   .debug_loc:0000000000000000 .LLST13
     /tmp/ccPBFWaG.s:285    .text:0000000000000160 .LVL18
     /tmp/ccPBFWaG.s:2184   .debug_str:000000000000071b .LASF94
     /tmp/ccPBFWaG.s:2170   .debug_str:0000000000000698 .LASF96
     /tmp/ccPBFWaG.s:238    .text:0000000000000120 .LFB17
     /tmp/ccPBFWaG.s:264    .text:0000000000000148 .LFE17
     /tmp/ccPBFWaG.s:2186   .debug_str:0000000000000723 .LASF93
     /tmp/ccPBFWaG.s:1817   .debug_loc:0000000000000039 .LLST12
     /tmp/ccPBFWaG.s:253    .text:0000000000000138 .LVL16
     /tmp/ccPBFWaG.s:2016   .debug_str:0000000000000010 .LASF95
     /tmp/ccPBFWaG.s:2110   .debug_str:000000000000043b .LASF97
     /tmp/ccPBFWaG.s:206    .text:00000000000000f8 .LFB16
     /tmp/ccPBFWaG.s:232    .text:0000000000000120 .LFE16
     /tmp/ccPBFWaG.s:2056   .debug_str:00000000000001d8 .LASF98
     /tmp/ccPBFWaG.s:1831   .debug_loc:0000000000000072 .LLST11
     /tmp/ccPBFWaG.s:221    .text:0000000000000110 .LVL14
     /tmp/ccPBFWaG.s:2194   .debug_str:0000000000000757 .LASF99
     /tmp/ccPBFWaG.s:2168   .debug_str:000000000000067d .LASF100
     /tmp/ccPBFWaG.s:174    .text:00000000000000d0 .LFB15
     /tmp/ccPBFWaG.s:200    .text:00000000000000f8 .LFE15
     /tmp/ccPBFWaG.s:1845   .debug_loc:00000000000000ab .LLST10
     /tmp/ccPBFWaG.s:189    .text:00000000000000e8 .LVL12
     /tmp/ccPBFWaG.s:2098   .debug_str:00000000000003e3 .LASF101
     /tmp/ccPBFWaG.s:2080   .debug_str:000000000000034e .LASF102
     /tmp/ccPBFWaG.s:139    .text:00000000000000a0 .LFB14
     /tmp/ccPBFWaG.s:168    .text:00000000000000d0 .LFE14
     /tmp/ccPBFWaG.s:1859   .debug_loc:00000000000000e4 .LLST9
     /tmp/ccPBFWaG.s:157    .text:00000000000000c0 .LVL10
     /tmp/ccPBFWaG.s:2112   .debug_str:0000000000000458 .LASF103
     /tmp/ccPBFWaG.s:2192   .debug_str:000000000000073a .LASF104
     /tmp/ccPBFWaG.s:107    .text:0000000000000078 .LFB13
     /tmp/ccPBFWaG.s:133    .text:00000000000000a0 .LFE13
     /tmp/ccPBFWaG.s:1871   .debug_loc:000000000000011b .LLST7
     /tmp/ccPBFWaG.s:1885   .debug_loc:0000000000000154 .LLST8
     /tmp/ccPBFWaG.s:122    .text:0000000000000090 .LVL7
     /tmp/ccPBFWaG.s:2052   .debug_str:00000000000001bf .LASF105
     /tmp/ccPBFWaG.s:2058   .debug_str:00000000000001df .LASF106
     /tmp/ccPBFWaG.s:75     .text:0000000000000050 .LFB12
     /tmp/ccPBFWaG.s:101    .text:0000000000000078 .LFE12
     /tmp/ccPBFWaG.s:1899   .debug_loc:000000000000018d .LLST6
     /tmp/ccPBFWaG.s:90     .text:0000000000000068 .LVL5
     /tmp/ccPBFWaG.s:2232   .debug_str:00000000000008b4 .LASF107
     /tmp/ccPBFWaG.s:2090   .debug_str:0000000000000391 .LASF108
     /tmp/ccPBFWaG.s:43     .text:0000000000000028 .LFB11
     /tmp/ccPBFWaG.s:69     .text:0000000000000050 .LFE11
GAS LISTING /tmp/ccPBFWaG.s 			page 12


     /tmp/ccPBFWaG.s:1913   .debug_loc:00000000000001c6 .LLST2
     /tmp/ccPBFWaG.s:1927   .debug_loc:00000000000001ff .LLST3
     /tmp/ccPBFWaG.s:1941   .debug_loc:0000000000000238 .LLST4
     /tmp/ccPBFWaG.s:1955   .debug_loc:0000000000000271 .LLST5
     /tmp/ccPBFWaG.s:58     .text:0000000000000040 .LVL3
     /tmp/ccPBFWaG.s:2074   .debug_str:0000000000000334 .LASF109
     /tmp/ccPBFWaG.s:2178   .debug_str:00000000000006f1 .LASF110
     /tmp/ccPBFWaG.s:10     .text:0000000000000000 .LFB10
     /tmp/ccPBFWaG.s:37     .text:0000000000000028 .LFE10
     /tmp/ccPBFWaG.s:2012   .debug_str:0000000000000000 .LASF111
     /tmp/ccPBFWaG.s:1969   .debug_loc:00000000000002aa .LLST0
     /tmp/ccPBFWaG.s:2036   .debug_str:0000000000000103 .LASF112
     /tmp/ccPBFWaG.s:1983   .debug_loc:00000000000002e3 .LLST1
     /tmp/ccPBFWaG.s:26     .text:0000000000000018 .LVL1
     /tmp/ccPBFWaG.s:273    .text:0000000000000148 .LVL17
     /tmp/ccPBFWaG.s:241    .text:0000000000000120 .LVL15
     /tmp/ccPBFWaG.s:209    .text:00000000000000f8 .LVL13
     /tmp/ccPBFWaG.s:177    .text:00000000000000d0 .LVL11
     /tmp/ccPBFWaG.s:142    .text:00000000000000a0 .LVL8
     /tmp/ccPBFWaG.s:155    .text:00000000000000b8 .LVL9
     /tmp/ccPBFWaG.s:110    .text:0000000000000078 .LVL6
     /tmp/ccPBFWaG.s:78     .text:0000000000000050 .LVL4
     /tmp/ccPBFWaG.s:46     .text:0000000000000028 .LVL2
     /tmp/ccPBFWaG.s:14     .text:0000000000000000 .LVL0
     /tmp/ccPBFWaG.s:305    .debug_info:0000000000000000 .Ldebug_info0

UNDEFINED SYMBOLS
_ZN13SlabAllocator10initializeEPvm
_ZN13SlabAllocator11createCacheEPKcmPFvPvES4_
_ZN13SlabAllocator14allocateObjectEP5Cache
_ZN13SlabAllocator10freeObjectEP5CachePKv
_ZN13SlabAllocator11deleteCacheERP5Cache
_ZN13SlabAllocator10printCacheEP5Cache
_ZN13SlabAllocator11shrinkCacheEP5Cache
_ZN13SlabAllocator14allocateBufferEm
_ZN13SlabAllocator10freeBufferEPKv
