GAS LISTING /tmp/cc0qNp5H.s 			page 1


   1              		.file	"slab.cpp"
   2              		.option pic
   3              		.option norelax
   4              		.text
   5              	.Ltext0:
   6              		.align	2
   7              		.globl	_Z9kmem_initPvi
   9              	_Z9kmem_initPvi:
  10              	.LFB25:
  11              		.file 1 "src/slab.cpp"
   1:src/slab.cpp  **** //
   2:src/slab.cpp  **** // Created by os on 1/2/23.
   3:src/slab.cpp  **** //
   4:src/slab.cpp  **** #include "../h/slab.hpp"
   5:src/slab.cpp  **** 
   6:src/slab.cpp  **** void kmem_init(void* space, int block_num){
  12              		.loc 1 6 43
  13              		.cfi_startproc
  14              	.LVL0:
  15 0000 130101FF 		addi	sp,sp,-16
  16              		.cfi_def_cfa_offset 16
  17 0004 23341100 		sd	ra,8(sp)
  18 0008 23308100 		sd	s0,0(sp)
  19              		.cfi_offset 1, -8
  20              		.cfi_offset 8, -16
  21 000c 13040101 		addi	s0,sp,16
  22              		.cfi_def_cfa 8, 0
   7:src/slab.cpp  ****     SlabAllocator::initialize(space, block_num);
  23              		.loc 1 7 5
  24              		.loc 1 7 30 is_stmt 0
  25 0010 97000000 		call	_ZN13SlabAllocator10initializeEPvm@plt
  25      E7800000 
  26              	.LVL1:
   8:src/slab.cpp  **** }...
  27              		.loc 1 8 1
  28 0018 83308100 		ld	ra,8(sp)
  29              		.cfi_restore 1
  30 001c 03340100 		ld	s0,0(sp)
  31              		.cfi_restore 8
  32              		.cfi_def_cfa 2, 16
  33 0020 13010101 		addi	sp,sp,16
  34              		.cfi_def_cfa_offset 0
  35 0024 67800000 		jr	ra
  36              		.cfi_endproc
  37              	.LFE25:
  39              	.Letext0:
  40              		.file 2 "src/../h/../h/../h/../lib/hw.h"
  41              		.file 3 "src/../h/../h/slabAllocator.hpp"
GAS LISTING /tmp/cc0qNp5H.s 			page 2

