GAS LISTING /tmp/ccNMnrKP.s 			page 1


   1              		.file	"syscall_cpp.cpp"
   2              		.option pic
   3              		.option norelax
   4              		.text
   5              	.Ltext0:
   6              		.section	.text._ZN6Thread3runEv,"axG",@progbits,_ZN6Thread3runEv,comdat
   7              		.align	2
   8              		.weak	_ZN6Thread3runEv
  10              	_ZN6Thread3runEv:
  11              	.LFB12:
  12              		.file 1 "src/../h/syscall_cpp.hpp"
   1:src/../h/syscall_cpp.hpp **** //
   2:src/../h/syscall_cpp.hpp **** // Created by os on 4/28/22.
   3:src/../h/syscall_cpp.hpp **** //
   4:src/../h/syscall_cpp.hpp **** 
   5:src/../h/syscall_cpp.hpp **** #ifndef SYSCALL_CPP_HPP
   6:src/../h/syscall_cpp.hpp **** #define SYSCALL_CPP_HPP
   7:src/../h/syscall_cpp.hpp **** 
   8:src/../h/syscall_cpp.hpp **** #include "../lib/hw.h"
   9:src/../h/syscall_cpp.hpp **** #include "../h/syscall_c.h"
  10:src/../h/syscall_cpp.hpp **** 
  11:src/../h/syscall_cpp.hpp **** void* operator new (size_t sz);
  12:src/../h/syscall_cpp.hpp **** 
  13:src/../h/syscall_cpp.hpp **** void* operator new[](size_t sz);
  14:src/../h/syscall_cpp.hpp **** 
  15:src/../h/syscall_cpp.hpp **** void operator delete (void *ptr);
  16:src/../h/syscall_cpp.hpp **** 
  17:src/../h/syscall_cpp.hpp **** class Semaphore{
  18:src/../h/syscall_cpp.hpp **** 
  19:src/../h/syscall_cpp.hpp **** public:
  20:src/../h/syscall_cpp.hpp ****     Semaphore(unsigned init = 1);
  21:src/../h/syscall_cpp.hpp ****     virtual ~Semaphore();
  22:src/../h/syscall_cpp.hpp **** 
  23:src/../h/syscall_cpp.hpp ****     int wait();
  24:src/../h/syscall_cpp.hpp **** 
  25:src/../h/syscall_cpp.hpp ****     int signal();
  26:src/../h/syscall_cpp.hpp **** 
  27:src/../h/syscall_cpp.hpp **** private:
  28:src/../h/syscall_cpp.hpp ****     sem_t myHandle;
  29:src/../h/syscall_cpp.hpp **** };
  30:src/../h/syscall_cpp.hpp **** 
  31:src/../h/syscall_cpp.hpp **** class Thread{
  32:src/../h/syscall_cpp.hpp **** 
  33:src/../h/syscall_cpp.hpp **** public:
  34:src/../h/syscall_cpp.hpp **** 
  35:src/../h/syscall_cpp.hpp ****     Thread(void(*body)(void*), void*arg);
  36:src/../h/syscall_cpp.hpp ****     virtual ~Thread();
  37:src/../h/syscall_cpp.hpp **** 
  38:src/../h/syscall_cpp.hpp ****     int start();
  39:src/../h/syscall_cpp.hpp **** 
  40:src/../h/syscall_cpp.hpp ****     static void dispatch();
  41:src/../h/syscall_cpp.hpp ****     static int sleep(time_t time);
  42:src/../h/syscall_cpp.hpp **** 
  43:src/../h/syscall_cpp.hpp **** protected:
  44:src/../h/syscall_cpp.hpp ****     Thread();
  45:src/../h/syscall_cpp.hpp ****     virtual void run(){}
  13              		.loc 1 45 18
GAS LISTING /tmp/ccNMnrKP.s 			page 2


  14              		.cfi_startproc
  15              	.LVL0:
  16 0000 130101FF 		addi	sp,sp,-16
  17              		.cfi_def_cfa_offset 16
  18 0004 23348100 		sd	s0,8(sp)
  19              		.cfi_offset 8, -8
  20 0008 13040101 		addi	s0,sp,16
  21              		.cfi_def_cfa 8, 0
  22              		.loc 1 45 24 is_stmt 0
  23 000c 03348100 		ld	s0,8(sp)
  24              		.cfi_restore 8
  25              		.cfi_def_cfa 2, 16
  26 0010 13010101 		addi	sp,sp,16
  27              		.cfi_def_cfa_offset 0
  28 0014 67800000 		jr	ra
  29              		.cfi_endproc
  30              	.LFE12:
  32              		.section	.text._ZN14PeriodicThread18periodicActivationEv,"axG",@progbits,_ZN14PeriodicThread18peri
  33              		.align	2
  34              		.weak	_ZN14PeriodicThread18periodicActivationEv
  36              	_ZN14PeriodicThread18periodicActivationEv:
  37              	.LFB13:
  46:src/../h/syscall_cpp.hpp **** 
  47:src/../h/syscall_cpp.hpp **** private:
  48:src/../h/syscall_cpp.hpp ****     thread_t myHandle;
  49:src/../h/syscall_cpp.hpp ****     static void wrapper(void *arg);
  50:src/../h/syscall_cpp.hpp **** };
  51:src/../h/syscall_cpp.hpp **** 
  52:src/../h/syscall_cpp.hpp **** class PeriodicThread : public Thread{
  53:src/../h/syscall_cpp.hpp ****     static void wrapper(void *arg);
  54:src/../h/syscall_cpp.hpp **** protected:
  55:src/../h/syscall_cpp.hpp ****     PeriodicThread(time_t period);
  56:src/../h/syscall_cpp.hpp ****     virtual void periodicActivation(){}
  38              		.loc 1 56 18 is_stmt 1
  39              		.cfi_startproc
  40              	.LVL1:
  41 0000 130101FF 		addi	sp,sp,-16
  42              		.cfi_def_cfa_offset 16
  43 0004 23348100 		sd	s0,8(sp)
  44              		.cfi_offset 8, -8
  45 0008 13040101 		addi	s0,sp,16
  46              		.cfi_def_cfa 8, 0
  47              		.loc 1 56 39 is_stmt 0
  48 000c 03348100 		ld	s0,8(sp)
  49              		.cfi_restore 8
  50              		.cfi_def_cfa 2, 16
  51 0010 13010101 		addi	sp,sp,16
  52              		.cfi_def_cfa_offset 0
  53 0014 67800000 		jr	ra
  54              		.cfi_endproc
  55              	.LFE13:
  57              		.text
  58              		.align	2
  59              		.globl	_ZN6Thread7wrapperEPv
  61              	_ZN6Thread7wrapperEPv:
  62              	.LFB32:
  63              		.file 2 "src/syscall_cpp.cpp"
GAS LISTING /tmp/ccNMnrKP.s 			page 3


   1:src/syscall_cpp.cpp **** //
   2:src/syscall_cpp.cpp **** // Created by os on 4/28/22.
   3:src/syscall_cpp.cpp **** //
   4:src/syscall_cpp.cpp **** 
   5:src/syscall_cpp.cpp **** #include "../h/syscall_cpp.hpp"
   6:src/syscall_cpp.cpp **** 
   7:src/syscall_cpp.cpp **** //CPP API for Threads, Semaphores, and others that rely on C API layer
   8:src/syscall_cpp.cpp **** //CPP API is implemented in this way, as the task was to not change given interface or add any non-
   9:src/syscall_cpp.cpp **** //Solution is to add only one static wrapper function and then add syscalls where needed to manipul
  10:src/syscall_cpp.cpp **** 
  11:src/syscall_cpp.cpp **** struct Args{
  12:src/syscall_cpp.cpp ****     void* pt;
  13:src/syscall_cpp.cpp ****     uint64 time;
  14:src/syscall_cpp.cpp ****     Args(void *p, uint64 t) : pt(p), time(t){}
  15:src/syscall_cpp.cpp **** };
  16:src/syscall_cpp.cpp **** 
  17:src/syscall_cpp.cpp **** void* operator new(size_t sz){
  18:src/syscall_cpp.cpp ****     return mem_alloc(sz);
  19:src/syscall_cpp.cpp **** }
  20:src/syscall_cpp.cpp **** 
  21:src/syscall_cpp.cpp **** void* operator new[](size_t sz){
  22:src/syscall_cpp.cpp ****     return mem_alloc(sz);
  23:src/syscall_cpp.cpp **** }
  24:src/syscall_cpp.cpp **** 
  25:src/syscall_cpp.cpp **** void operator delete(void *ptr){
  26:src/syscall_cpp.cpp ****     mem_free(ptr);
  27:src/syscall_cpp.cpp **** }
  28:src/syscall_cpp.cpp **** 
  29:src/syscall_cpp.cpp **** Semaphore::Semaphore(unsigned int init) {
  30:src/syscall_cpp.cpp ****     sem_open(&myHandle, init);
  31:src/syscall_cpp.cpp **** }
  32:src/syscall_cpp.cpp **** 
  33:src/syscall_cpp.cpp **** Semaphore::~Semaphore(){
  34:src/syscall_cpp.cpp ****     sem_close(myHandle);
  35:src/syscall_cpp.cpp **** };
  36:src/syscall_cpp.cpp **** 
  37:src/syscall_cpp.cpp **** int Semaphore::wait(){
  38:src/syscall_cpp.cpp ****     return sem_wait(myHandle);
  39:src/syscall_cpp.cpp **** }
  40:src/syscall_cpp.cpp **** 
  41:src/syscall_cpp.cpp **** int Semaphore::signal() {
  42:src/syscall_cpp.cpp ****     return sem_signal(myHandle);
  43:src/syscall_cpp.cpp **** }
  44:src/syscall_cpp.cpp **** 
  45:src/syscall_cpp.cpp **** Thread::Thread(void (*body)(void*), void *arg) {
  46:src/syscall_cpp.cpp ****     int status = thread_attach_body(&myHandle, body, arg);
  47:src/syscall_cpp.cpp ****     if(status == -1)
  48:src/syscall_cpp.cpp ****         myHandle = nullptr;
  49:src/syscall_cpp.cpp **** }
  50:src/syscall_cpp.cpp **** 
  51:src/syscall_cpp.cpp **** void Thread::wrapper(void *arg) {
  64              		.loc 2 51 33 is_stmt 1
  65              		.cfi_startproc
  66              	.LVL2:
  67 0000 130101FF 		addi	sp,sp,-16
  68              		.cfi_def_cfa_offset 16
  69 0004 23341100 		sd	ra,8(sp)
GAS LISTING /tmp/ccNMnrKP.s 			page 4


  70 0008 23308100 		sd	s0,0(sp)
  71              		.cfi_offset 1, -8
  72              		.cfi_offset 8, -16
  73 000c 13040101 		addi	s0,sp,16
  74              		.cfi_def_cfa 8, 0
  52:src/syscall_cpp.cpp ****     Thread* thr = (Thread*)arg;
  75              		.loc 2 52 5
  76              	.LVL3:
  53:src/syscall_cpp.cpp ****     thr->run();
  77              		.loc 2 53 5
  78              		.loc 2 53 14 is_stmt 0
  79 0010 83370500 		ld	a5,0(a0)
  80 0014 83B70701 		ld	a5,16(a5)
  81              		.loc 2 53 13
  82 0018 E7800700 		jalr	a5
  83              	.LVL4:
  54:src/syscall_cpp.cpp **** }
  84              		.loc 2 54 1
  85 001c 83308100 		ld	ra,8(sp)
  86              		.cfi_restore 1
  87 0020 03340100 		ld	s0,0(sp)
  88              		.cfi_restore 8
  89              		.cfi_def_cfa 2, 16
  90 0024 13010101 		addi	sp,sp,16
  91              		.cfi_def_cfa_offset 0
  92 0028 67800000 		jr	ra
  93              		.cfi_endproc
  94              	.LFE32:
  96              		.align	2
  97              		.globl	_ZN9SemaphoreD2Ev
  99              	_ZN9SemaphoreD2Ev:
 100              	.LFB24:
  33:src/syscall_cpp.cpp ****     sem_close(myHandle);
 101              		.loc 2 33 1 is_stmt 1
 102              		.cfi_startproc
 103              		.cfi_personality 0x9b,DW.ref.__gxx_personality_v0
 104              		.cfi_lsda 0x1b,.LLSDA24
 105              	.LVL5:
 106 002c 130101FF 		addi	sp,sp,-16
 107              		.cfi_def_cfa_offset 16
 108 0030 23341100 		sd	ra,8(sp)
 109 0034 23308100 		sd	s0,0(sp)
 110              		.cfi_offset 1, -8
 111              		.cfi_offset 8, -16
 112 0038 13040101 		addi	s0,sp,16
 113              		.cfi_def_cfa 8, 0
 114              	.LBB9:
  33:src/syscall_cpp.cpp ****     sem_close(myHandle);
 115              		.loc 2 33 23 is_stmt 0
 116 003c 97070000 		lla	a5,_ZTV9Semaphore+16
 116      93870700 
 117 0044 2330F500 		sd	a5,0(a0)
  34:src/syscall_cpp.cpp **** };
 118              		.loc 2 34 5 is_stmt 1
  34:src/syscall_cpp.cpp **** };
 119              		.loc 2 34 14 is_stmt 0
 120 0048 03358500 		ld	a0,8(a0)
GAS LISTING /tmp/ccNMnrKP.s 			page 5


 121              	.LVL6:
 122 004c 97000000 		call	_Z9sem_closeP10_semaphore@plt
 122      E7800000 
 123              	.LVL7:
 124              	.LBE9:
  35:src/syscall_cpp.cpp **** 
 125              		.loc 2 35 1
 126 0054 83308100 		ld	ra,8(sp)
 127              		.cfi_restore 1
 128 0058 03340100 		ld	s0,0(sp)
 129              		.cfi_restore 8
 130              		.cfi_def_cfa 2, 16
 131 005c 13010101 		addi	sp,sp,16
 132              		.cfi_def_cfa_offset 0
 133 0060 67800000 		jr	ra
 134              		.cfi_endproc
 135              	.LFE24:
 136              		.globl	__gxx_personality_v0
 137              		.section	.gcc_except_table,"a",@progbits
 138              	.LLSDA24:
 139 0000 FF       		.byte	0xff
 140 0001 FF       		.byte	0xff
 141 0002 03       		.byte	0x3
 142 0003 00       		.byte	0
 143              		.text
 145              		.globl	_ZN9SemaphoreD1Ev
 146              		.set	_ZN9SemaphoreD1Ev,_ZN9SemaphoreD2Ev
 147              		.align	2
 148              		.globl	_ZN6ThreadD2Ev
 150              	_ZN6ThreadD2Ev:
 151              	.LFB40:
  55:src/syscall_cpp.cpp **** 
  56:src/syscall_cpp.cpp **** Thread::Thread() {
  57:src/syscall_cpp.cpp ****     int status = thread_attach_body(&myHandle, &Thread::wrapper, this);
  58:src/syscall_cpp.cpp ****     if(status == -1)
  59:src/syscall_cpp.cpp ****         myHandle = nullptr;
  60:src/syscall_cpp.cpp **** }
  61:src/syscall_cpp.cpp **** 
  62:src/syscall_cpp.cpp **** int Thread::sleep(time_t time) {
  63:src/syscall_cpp.cpp ****     return time_sleep(time);
  64:src/syscall_cpp.cpp **** }
  65:src/syscall_cpp.cpp **** 
  66:src/syscall_cpp.cpp **** void Thread::dispatch() {
  67:src/syscall_cpp.cpp ****     thread_dispatch();
  68:src/syscall_cpp.cpp **** }
  69:src/syscall_cpp.cpp **** 
  70:src/syscall_cpp.cpp **** int Thread::start() {
  71:src/syscall_cpp.cpp ****     return thread_start(myHandle);
  72:src/syscall_cpp.cpp **** }
  73:src/syscall_cpp.cpp **** 
  74:src/syscall_cpp.cpp **** Thread::~Thread() {
 152              		.loc 2 74 1 is_stmt 1
 153              		.cfi_startproc
 154              		.cfi_personality 0x9b,DW.ref.__gxx_personality_v0
 155              		.cfi_lsda 0x1b,.LLSDA40
 156              	.LVL8:
 157              	.LBB10:
GAS LISTING /tmp/ccNMnrKP.s 			page 6


 158              		.loc 2 74 17 is_stmt 0
 159 0064 97070000 		lla	a5,_ZTV6Thread+16
 159      93870700 
 160 006c 2330F500 		sd	a5,0(a0)
  75:src/syscall_cpp.cpp ****     delete myHandle;
 161              		.loc 2 75 5 is_stmt 1
 162              		.loc 2 75 12 is_stmt 0
 163 0070 03358500 		ld	a0,8(a0)
 164              	.LVL9:
 165              		.loc 2 75 20
 166 0074 63060502 		beqz	a0,.L12
 167              	.LBE10:
  74:src/syscall_cpp.cpp ****     delete myHandle;
 168              		.loc 2 74 1 discriminator 1
 169 0078 130101FF 		addi	sp,sp,-16
 170              		.cfi_def_cfa_offset 16
 171 007c 23341100 		sd	ra,8(sp)
 172 0080 23308100 		sd	s0,0(sp)
 173              		.cfi_offset 1, -8
 174              		.cfi_offset 8, -16
 175 0084 13040101 		addi	s0,sp,16
 176              		.cfi_def_cfa 8, 0
 177              	.LBB11:
 178              		.loc 2 75 12 discriminator 1
 179 0088 97000000 		call	_ZN7_threaddlEPv@plt
 179      E7800000 
 180              	.LVL10:
 181              	.LBE11:
  76:src/syscall_cpp.cpp **** }
 182              		.loc 2 76 1 discriminator 1
 183 0090 83308100 		ld	ra,8(sp)
 184              		.cfi_restore 1
 185 0094 03340100 		ld	s0,0(sp)
 186              		.cfi_restore 8
 187              		.cfi_def_cfa 2, 16
 188 0098 13010101 		addi	sp,sp,16
 189              		.cfi_def_cfa_offset 0
 190 009c 67800000 		jr	ra
 191              	.L12:
 192 00a0 67800000 		ret
 193              		.cfi_endproc
 194              	.LFE40:
 195              		.section	.gcc_except_table
 196              	.LLSDA40:
 197 0004 FF       		.byte	0xff
 198 0005 FF       		.byte	0xff
 199 0006 03       		.byte	0x3
 200 0007 00       		.byte	0
 201              		.text
 203              		.globl	_ZN6ThreadD1Ev
 204              		.set	_ZN6ThreadD1Ev,_ZN6ThreadD2Ev
 205              		.section	.text._ZN14PeriodicThreadD2Ev,"axG",@progbits,_ZN14PeriodicThreadD5Ev,comdat
 206              		.align	2
 207              		.weak	_ZN14PeriodicThreadD2Ev
 209              	_ZN14PeriodicThreadD2Ev:
 210              	.LFB50:
  52:src/../h/syscall_cpp.hpp ****     static void wrapper(void *arg);
GAS LISTING /tmp/ccNMnrKP.s 			page 7


 211              		.loc 1 52 7 is_stmt 1
 212              		.cfi_startproc
 213              	.LVL11:
 214 0000 130101FF 		addi	sp,sp,-16
 215              		.cfi_def_cfa_offset 16
 216 0004 23341100 		sd	ra,8(sp)
 217 0008 23308100 		sd	s0,0(sp)
 218              		.cfi_offset 1, -8
 219              		.cfi_offset 8, -16
 220 000c 13040101 		addi	s0,sp,16
 221              		.cfi_def_cfa 8, 0
 222              	.LBB12:
  52:src/../h/syscall_cpp.hpp ****     static void wrapper(void *arg);
 223              		.loc 1 52 7 is_stmt 0
 224 0010 97070000 		lla	a5,_ZTV14PeriodicThread+16
 224      93870700 
 225 0018 2330F500 		sd	a5,0(a0)
 226 001c 97000000 		call	_ZN6ThreadD2Ev
 226      E7800000 
 227              	.LVL12:
 228              	.LBE12:
 229 0024 83308100 		ld	ra,8(sp)
 230              		.cfi_restore 1
 231 0028 03340100 		ld	s0,0(sp)
 232              		.cfi_restore 8
 233              		.cfi_def_cfa 2, 16
 234 002c 13010101 		addi	sp,sp,16
 235              		.cfi_def_cfa_offset 0
 236 0030 67800000 		jr	ra
 237              		.cfi_endproc
 238              	.LFE50:
 240              		.weak	_ZN14PeriodicThreadD1Ev
 241              		.set	_ZN14PeriodicThreadD1Ev,_ZN14PeriodicThreadD2Ev
 242              		.text
 243              		.align	2
 244              		.globl	_Znwm
 246              	_Znwm:
 247              	.LFB17:
  17:src/syscall_cpp.cpp ****     return mem_alloc(sz);
 248              		.loc 2 17 30 is_stmt 1
 249              		.cfi_startproc
 250              	.LVL13:
 251 00a4 130101FF 		addi	sp,sp,-16
 252              		.cfi_def_cfa_offset 16
 253 00a8 23341100 		sd	ra,8(sp)
 254 00ac 23308100 		sd	s0,0(sp)
 255              		.cfi_offset 1, -8
 256              		.cfi_offset 8, -16
 257 00b0 13040101 		addi	s0,sp,16
 258              		.cfi_def_cfa 8, 0
  18:src/syscall_cpp.cpp **** }
 259              		.loc 2 18 5
  18:src/syscall_cpp.cpp **** }
 260              		.loc 2 18 21 is_stmt 0
 261 00b4 97000000 		call	_Z9mem_allocm@plt
 261      E7800000 
 262              	.LVL14:
GAS LISTING /tmp/ccNMnrKP.s 			page 8


  19:src/syscall_cpp.cpp **** 
 263              		.loc 2 19 1
 264 00bc 83308100 		ld	ra,8(sp)
 265              		.cfi_restore 1
 266 00c0 03340100 		ld	s0,0(sp)
 267              		.cfi_restore 8
 268              		.cfi_def_cfa 2, 16
 269 00c4 13010101 		addi	sp,sp,16
 270              		.cfi_def_cfa_offset 0
 271 00c8 67800000 		jr	ra
 272              		.cfi_endproc
 273              	.LFE17:
 275              		.align	2
 276              		.globl	_Znam
 278              	_Znam:
 279              	.LFB18:
  21:src/syscall_cpp.cpp ****     return mem_alloc(sz);
 280              		.loc 2 21 32 is_stmt 1
 281              		.cfi_startproc
 282              	.LVL15:
 283 00cc 130101FF 		addi	sp,sp,-16
 284              		.cfi_def_cfa_offset 16
 285 00d0 23341100 		sd	ra,8(sp)
 286 00d4 23308100 		sd	s0,0(sp)
 287              		.cfi_offset 1, -8
 288              		.cfi_offset 8, -16
 289 00d8 13040101 		addi	s0,sp,16
 290              		.cfi_def_cfa 8, 0
  22:src/syscall_cpp.cpp **** }
 291              		.loc 2 22 5
  22:src/syscall_cpp.cpp **** }
 292              		.loc 2 22 21 is_stmt 0
 293 00dc 97000000 		call	_Z9mem_allocm@plt
 293      E7800000 
 294              	.LVL16:
  23:src/syscall_cpp.cpp **** 
 295              		.loc 2 23 1
 296 00e4 83308100 		ld	ra,8(sp)
 297              		.cfi_restore 1
 298 00e8 03340100 		ld	s0,0(sp)
 299              		.cfi_restore 8
 300              		.cfi_def_cfa 2, 16
 301 00ec 13010101 		addi	sp,sp,16
 302              		.cfi_def_cfa_offset 0
 303 00f0 67800000 		jr	ra
 304              		.cfi_endproc
 305              	.LFE18:
 307              		.align	2
 308              		.globl	_ZdlPv
 310              	_ZdlPv:
 311              	.LFB19:
  25:src/syscall_cpp.cpp ****     mem_free(ptr);
 312              		.loc 2 25 32 is_stmt 1
 313              		.cfi_startproc
 314              	.LVL17:
 315 00f4 130101FF 		addi	sp,sp,-16
 316              		.cfi_def_cfa_offset 16
GAS LISTING /tmp/ccNMnrKP.s 			page 9


 317 00f8 23341100 		sd	ra,8(sp)
 318 00fc 23308100 		sd	s0,0(sp)
 319              		.cfi_offset 1, -8
 320              		.cfi_offset 8, -16
 321 0100 13040101 		addi	s0,sp,16
 322              		.cfi_def_cfa 8, 0
  26:src/syscall_cpp.cpp **** }
 323              		.loc 2 26 5
  26:src/syscall_cpp.cpp **** }
 324              		.loc 2 26 13 is_stmt 0
 325 0104 97000000 		call	_Z8mem_freePv@plt
 325      E7800000 
 326              	.LVL18:
  27:src/syscall_cpp.cpp **** 
 327              		.loc 2 27 1
 328 010c 83308100 		ld	ra,8(sp)
 329              		.cfi_restore 1
 330 0110 03340100 		ld	s0,0(sp)
 331              		.cfi_restore 8
 332              		.cfi_def_cfa 2, 16
 333 0114 13010101 		addi	sp,sp,16
 334              		.cfi_def_cfa_offset 0
 335 0118 67800000 		jr	ra
 336              		.cfi_endproc
 337              	.LFE19:
 339              		.align	2
 340              		.globl	_ZN9SemaphoreD0Ev
 342              	_ZN9SemaphoreD0Ev:
 343              	.LFB26:
  33:src/syscall_cpp.cpp ****     sem_close(myHandle);
 344              		.loc 2 33 1 is_stmt 1
 345              		.cfi_startproc
 346              	.LVL19:
 347 011c 130101FE 		addi	sp,sp,-32
 348              		.cfi_def_cfa_offset 32
 349 0120 233C1100 		sd	ra,24(sp)
 350 0124 23388100 		sd	s0,16(sp)
 351 0128 23349100 		sd	s1,8(sp)
 352              		.cfi_offset 1, -8
 353              		.cfi_offset 8, -16
 354              		.cfi_offset 9, -24
 355 012c 13040102 		addi	s0,sp,32
 356              		.cfi_def_cfa 8, 0
 357 0130 93040500 		mv	s1,a0
  35:src/syscall_cpp.cpp **** 
 358              		.loc 2 35 1 is_stmt 0
 359 0134 97000000 		call	_ZN9SemaphoreD1Ev
 359      E7800000 
 360              	.LVL20:
 361 013c 13850400 		mv	a0,s1
 362 0140 97000000 		call	_ZdlPv
 362      E7800000 
 363              	.LVL21:
 364 0148 83308101 		ld	ra,24(sp)
 365              		.cfi_restore 1
 366 014c 03340101 		ld	s0,16(sp)
 367              		.cfi_restore 8
GAS LISTING /tmp/ccNMnrKP.s 			page 10


 368              		.cfi_def_cfa 2, 32
 369 0150 83348100 		ld	s1,8(sp)
 370              		.cfi_restore 9
 371              	.LVL22:
 372 0154 13010102 		addi	sp,sp,32
 373              		.cfi_def_cfa_offset 0
 374 0158 67800000 		jr	ra
 375              		.cfi_endproc
 376              	.LFE26:
 378              		.align	2
 379              		.globl	_ZN6ThreadD0Ev
 381              	_ZN6ThreadD0Ev:
 382              	.LFB42:
  74:src/syscall_cpp.cpp ****     delete myHandle;
 383              		.loc 2 74 1 is_stmt 1
 384              		.cfi_startproc
 385              	.LVL23:
 386 015c 130101FE 		addi	sp,sp,-32
 387              		.cfi_def_cfa_offset 32
 388 0160 233C1100 		sd	ra,24(sp)
 389 0164 23388100 		sd	s0,16(sp)
 390 0168 23349100 		sd	s1,8(sp)
 391              		.cfi_offset 1, -8
 392              		.cfi_offset 8, -16
 393              		.cfi_offset 9, -24
 394 016c 13040102 		addi	s0,sp,32
 395              		.cfi_def_cfa 8, 0
 396 0170 93040500 		mv	s1,a0
 397              		.loc 2 76 1 is_stmt 0
 398 0174 97000000 		call	_ZN6ThreadD1Ev
 398      E7800000 
 399              	.LVL24:
 400 017c 13850400 		mv	a0,s1
 401 0180 97000000 		call	_ZdlPv
 401      E7800000 
 402              	.LVL25:
 403 0188 83308101 		ld	ra,24(sp)
 404              		.cfi_restore 1
 405 018c 03340101 		ld	s0,16(sp)
 406              		.cfi_restore 8
 407              		.cfi_def_cfa 2, 32
 408 0190 83348100 		ld	s1,8(sp)
 409              		.cfi_restore 9
 410              	.LVL26:
 411 0194 13010102 		addi	sp,sp,32
 412              		.cfi_def_cfa_offset 0
 413 0198 67800000 		jr	ra
 414              		.cfi_endproc
 415              	.LFE42:
 417              		.section	.text._ZN14PeriodicThreadD0Ev,"axG",@progbits,_ZN14PeriodicThreadD5Ev,comdat
 418              		.align	2
 419              		.weak	_ZN14PeriodicThreadD0Ev
 421              	_ZN14PeriodicThreadD0Ev:
 422              	.LFB52:
  52:src/../h/syscall_cpp.hpp ****     static void wrapper(void *arg);
 423              		.loc 1 52 7 is_stmt 1
 424              		.cfi_startproc
GAS LISTING /tmp/ccNMnrKP.s 			page 11


 425              	.LVL27:
 426 0000 130101FE 		addi	sp,sp,-32
 427              		.cfi_def_cfa_offset 32
 428 0004 233C1100 		sd	ra,24(sp)
 429 0008 23388100 		sd	s0,16(sp)
 430 000c 23349100 		sd	s1,8(sp)
 431              		.cfi_offset 1, -8
 432              		.cfi_offset 8, -16
 433              		.cfi_offset 9, -24
 434 0010 13040102 		addi	s0,sp,32
 435              		.cfi_def_cfa 8, 0
 436 0014 93040500 		mv	s1,a0
 437              	.LVL28:
 438              	.LBB13:
 439              	.LBB14:
  52:src/../h/syscall_cpp.hpp ****     static void wrapper(void *arg);
 440              		.loc 1 52 7 is_stmt 0
 441 0018 97070000 		lla	a5,_ZTV14PeriodicThread+16
 441      93870700 
 442 0020 2330F500 		sd	a5,0(a0)
 443 0024 97000000 		call	_ZN6ThreadD2Ev
 443      E7800000 
 444              	.LVL29:
 445              	.LBE14:
 446              	.LBE13:
 447 002c 13850400 		mv	a0,s1
 448 0030 97000000 		call	_ZdlPv
 448      E7800000 
 449              	.LVL30:
 450 0038 83308101 		ld	ra,24(sp)
 451              		.cfi_restore 1
 452 003c 03340101 		ld	s0,16(sp)
 453              		.cfi_restore 8
 454              		.cfi_def_cfa 2, 32
 455 0040 83348100 		ld	s1,8(sp)
 456              		.cfi_restore 9
 457              	.LVL31:
 458 0044 13010102 		addi	sp,sp,32
 459              		.cfi_def_cfa_offset 0
 460 0048 67800000 		jr	ra
 461              		.cfi_endproc
 462              	.LFE52:
 464              		.text
 465              		.align	2
 466              		.globl	_ZN9SemaphoreC2Ej
 468              	_ZN9SemaphoreC2Ej:
 469              	.LFB21:
  29:src/syscall_cpp.cpp ****     sem_open(&myHandle, init);
 470              		.loc 2 29 1 is_stmt 1
 471              		.cfi_startproc
 472              	.LVL32:
 473 019c 130101FF 		addi	sp,sp,-16
 474              		.cfi_def_cfa_offset 16
 475 01a0 23341100 		sd	ra,8(sp)
 476 01a4 23308100 		sd	s0,0(sp)
 477              		.cfi_offset 1, -8
 478              		.cfi_offset 8, -16
GAS LISTING /tmp/ccNMnrKP.s 			page 12


 479 01a8 13040101 		addi	s0,sp,16
 480              		.cfi_def_cfa 8, 0
 481              	.LBB15:
  29:src/syscall_cpp.cpp ****     sem_open(&myHandle, init);
 482              		.loc 2 29 39 is_stmt 0
 483 01ac 97070000 		lla	a5,_ZTV9Semaphore+16
 483      93870700 
 484 01b4 2330F500 		sd	a5,0(a0)
  30:src/syscall_cpp.cpp **** }
 485              		.loc 2 30 5 is_stmt 1
  30:src/syscall_cpp.cpp **** }
 486              		.loc 2 30 13 is_stmt 0
 487 01b8 13058500 		addi	a0,a0,8
 488              	.LVL33:
 489 01bc 97000000 		call	_Z8sem_openPP10_semaphorej@plt
 489      E7800000 
 490              	.LVL34:
 491              	.LBE15:
  31:src/syscall_cpp.cpp **** 
 492              		.loc 2 31 1
 493 01c4 83308100 		ld	ra,8(sp)
 494              		.cfi_restore 1
 495 01c8 03340100 		ld	s0,0(sp)
 496              		.cfi_restore 8
 497              		.cfi_def_cfa 2, 16
 498 01cc 13010101 		addi	sp,sp,16
 499              		.cfi_def_cfa_offset 0
 500 01d0 67800000 		jr	ra
 501              		.cfi_endproc
 502              	.LFE21:
 504              		.globl	_ZN9SemaphoreC1Ej
 505              		.set	_ZN9SemaphoreC1Ej,_ZN9SemaphoreC2Ej
 506              		.align	2
 507              		.globl	_ZN9Semaphore4waitEv
 509              	_ZN9Semaphore4waitEv:
 510              	.LFB27:
  37:src/syscall_cpp.cpp ****     return sem_wait(myHandle);
 511              		.loc 2 37 22 is_stmt 1
 512              		.cfi_startproc
 513              	.LVL35:
 514 01d4 130101FF 		addi	sp,sp,-16
 515              		.cfi_def_cfa_offset 16
 516 01d8 23341100 		sd	ra,8(sp)
 517 01dc 23308100 		sd	s0,0(sp)
 518              		.cfi_offset 1, -8
 519              		.cfi_offset 8, -16
 520 01e0 13040101 		addi	s0,sp,16
 521              		.cfi_def_cfa 8, 0
  38:src/syscall_cpp.cpp **** }
 522              		.loc 2 38 5
  38:src/syscall_cpp.cpp **** }
 523              		.loc 2 38 20 is_stmt 0
 524 01e4 03358500 		ld	a0,8(a0)
 525              	.LVL36:
 526 01e8 97000000 		call	_Z8sem_waitP10_semaphore@plt
 526      E7800000 
 527              	.LVL37:
GAS LISTING /tmp/ccNMnrKP.s 			page 13


  39:src/syscall_cpp.cpp **** 
 528              		.loc 2 39 1
 529 01f0 83308100 		ld	ra,8(sp)
 530              		.cfi_restore 1
 531 01f4 03340100 		ld	s0,0(sp)
 532              		.cfi_restore 8
 533              		.cfi_def_cfa 2, 16
 534 01f8 13010101 		addi	sp,sp,16
 535              		.cfi_def_cfa_offset 0
 536 01fc 67800000 		jr	ra
 537              		.cfi_endproc
 538              	.LFE27:
 540              		.align	2
 541              		.globl	_ZN9Semaphore6signalEv
 543              	_ZN9Semaphore6signalEv:
 544              	.LFB28:
  41:src/syscall_cpp.cpp ****     return sem_signal(myHandle);
 545              		.loc 2 41 25 is_stmt 1
 546              		.cfi_startproc
 547              	.LVL38:
 548 0200 130101FF 		addi	sp,sp,-16
 549              		.cfi_def_cfa_offset 16
 550 0204 23341100 		sd	ra,8(sp)
 551 0208 23308100 		sd	s0,0(sp)
 552              		.cfi_offset 1, -8
 553              		.cfi_offset 8, -16
 554 020c 13040101 		addi	s0,sp,16
 555              		.cfi_def_cfa 8, 0
  42:src/syscall_cpp.cpp **** }
 556              		.loc 2 42 5
  42:src/syscall_cpp.cpp **** }
 557              		.loc 2 42 22 is_stmt 0
 558 0210 03358500 		ld	a0,8(a0)
 559              	.LVL39:
 560 0214 97000000 		call	_Z10sem_signalP10_semaphore@plt
 560      E7800000 
 561              	.LVL40:
  43:src/syscall_cpp.cpp **** 
 562              		.loc 2 43 1
 563 021c 83308100 		ld	ra,8(sp)
 564              		.cfi_restore 1
 565 0220 03340100 		ld	s0,0(sp)
 566              		.cfi_restore 8
 567              		.cfi_def_cfa 2, 16
 568 0224 13010101 		addi	sp,sp,16
 569              		.cfi_def_cfa_offset 0
 570 0228 67800000 		jr	ra
 571              		.cfi_endproc
 572              	.LFE28:
 574              		.align	2
 575              		.globl	_ZN6ThreadC2EPFvPvES0_
 577              	_ZN6ThreadC2EPFvPvES0_:
 578              	.LFB30:
  45:src/syscall_cpp.cpp ****     int status = thread_attach_body(&myHandle, body, arg);
 579              		.loc 2 45 1 is_stmt 1
 580              		.cfi_startproc
 581              	.LVL41:
GAS LISTING /tmp/ccNMnrKP.s 			page 14


 582 022c 130101FE 		addi	sp,sp,-32
 583              		.cfi_def_cfa_offset 32
 584 0230 233C1100 		sd	ra,24(sp)
 585 0234 23388100 		sd	s0,16(sp)
 586 0238 23349100 		sd	s1,8(sp)
 587              		.cfi_offset 1, -8
 588              		.cfi_offset 8, -16
 589              		.cfi_offset 9, -24
 590 023c 13040102 		addi	s0,sp,32
 591              		.cfi_def_cfa 8, 0
 592 0240 93040500 		mv	s1,a0
 593              	.LBB16:
  45:src/syscall_cpp.cpp ****     int status = thread_attach_body(&myHandle, body, arg);
 594              		.loc 2 45 46 is_stmt 0
 595 0244 97070000 		lla	a5,_ZTV6Thread+16
 595      93870700 
 596 024c 2330F500 		sd	a5,0(a0)
 597              	.LBB17:
  46:src/syscall_cpp.cpp ****     if(status == -1)
 598              		.loc 2 46 5 is_stmt 1
  46:src/syscall_cpp.cpp ****     if(status == -1)
 599              		.loc 2 46 36 is_stmt 0
 600 0250 13058500 		addi	a0,a0,8
 601              	.LVL42:
 602 0254 97000000 		call	_Z18thread_attach_bodyPP7_threadPFvPvES2_@plt
 602      E7800000 
 603              	.LVL43:
  47:src/syscall_cpp.cpp ****         myHandle = nullptr;
 604              		.loc 2 47 5 is_stmt 1
 605 025c 9307F0FF 		li	a5,-1
 606 0260 630CF500 		beq	a0,a5,.L38
 607              	.L35:
 608              	.LBE17:
 609              	.LBE16:
  49:src/syscall_cpp.cpp **** 
 610              		.loc 2 49 1 is_stmt 0
 611 0264 83308101 		ld	ra,24(sp)
 612              		.cfi_remember_state
 613              		.cfi_restore 1
 614 0268 03340101 		ld	s0,16(sp)
 615              		.cfi_restore 8
 616              		.cfi_def_cfa 2, 32
 617 026c 83348100 		ld	s1,8(sp)
 618              		.cfi_restore 9
 619              	.LVL44:
 620 0270 13010102 		addi	sp,sp,32
 621              		.cfi_def_cfa_offset 0
 622 0274 67800000 		jr	ra
 623              	.LVL45:
 624              	.L38:
 625              		.cfi_restore_state
 626              	.LBB19:
 627              	.LBB18:
  48:src/syscall_cpp.cpp **** }
 628              		.loc 2 48 9 is_stmt 1
  48:src/syscall_cpp.cpp **** }
 629              		.loc 2 48 18 is_stmt 0
GAS LISTING /tmp/ccNMnrKP.s 			page 15


 630 0278 23B40400 		sd	zero,8(s1)
 631              	.LBE18:
 632              	.LBE19:
  49:src/syscall_cpp.cpp **** 
 633              		.loc 2 49 1
 634 027c 6FF09FFE 		j	.L35
 635              		.cfi_endproc
 636              	.LFE30:
 638              		.globl	_ZN6ThreadC1EPFvPvES0_
 639              		.set	_ZN6ThreadC1EPFvPvES0_,_ZN6ThreadC2EPFvPvES0_
 640              		.align	2
 641              		.globl	_ZN6ThreadC2Ev
 643              	_ZN6ThreadC2Ev:
 644              	.LFB34:
  56:src/syscall_cpp.cpp ****     int status = thread_attach_body(&myHandle, &Thread::wrapper, this);
 645              		.loc 2 56 1 is_stmt 1
 646              		.cfi_startproc
 647              	.LVL46:
 648 0280 130101FE 		addi	sp,sp,-32
 649              		.cfi_def_cfa_offset 32
 650 0284 233C1100 		sd	ra,24(sp)
 651 0288 23388100 		sd	s0,16(sp)
 652 028c 23349100 		sd	s1,8(sp)
 653              		.cfi_offset 1, -8
 654              		.cfi_offset 8, -16
 655              		.cfi_offset 9, -24
 656 0290 13040102 		addi	s0,sp,32
 657              		.cfi_def_cfa 8, 0
 658 0294 93040500 		mv	s1,a0
 659              	.LBB20:
  56:src/syscall_cpp.cpp ****     int status = thread_attach_body(&myHandle, &Thread::wrapper, this);
 660              		.loc 2 56 16 is_stmt 0
 661 0298 97070000 		lla	a5,_ZTV6Thread+16
 661      93870700 
 662 02a0 2330F500 		sd	a5,0(a0)
 663              	.LBB21:
  57:src/syscall_cpp.cpp ****     if(status == -1)
 664              		.loc 2 57 5 is_stmt 1
  57:src/syscall_cpp.cpp ****     if(status == -1)
 665              		.loc 2 57 36 is_stmt 0
 666 02a4 13060500 		mv	a2,a0
 667 02a8 97050000 		lla	a1,_ZN6Thread7wrapperEPv
 667      93850500 
 668 02b0 13058500 		addi	a0,a0,8
 669              	.LVL47:
 670 02b4 97000000 		call	_Z18thread_attach_bodyPP7_threadPFvPvES2_@plt
 670      E7800000 
 671              	.LVL48:
  58:src/syscall_cpp.cpp ****         myHandle = nullptr;
 672              		.loc 2 58 5 is_stmt 1
 673 02bc 9307F0FF 		li	a5,-1
 674 02c0 630CF500 		beq	a0,a5,.L42
 675              	.L39:
 676              	.LBE21:
 677              	.LBE20:
  60:src/syscall_cpp.cpp **** 
 678              		.loc 2 60 1 is_stmt 0
GAS LISTING /tmp/ccNMnrKP.s 			page 16


 679 02c4 83308101 		ld	ra,24(sp)
 680              		.cfi_remember_state
 681              		.cfi_restore 1
 682 02c8 03340101 		ld	s0,16(sp)
 683              		.cfi_restore 8
 684              		.cfi_def_cfa 2, 32
 685 02cc 83348100 		ld	s1,8(sp)
 686              		.cfi_restore 9
 687              	.LVL49:
 688 02d0 13010102 		addi	sp,sp,32
 689              		.cfi_def_cfa_offset 0
 690 02d4 67800000 		jr	ra
 691              	.LVL50:
 692              	.L42:
 693              		.cfi_restore_state
 694              	.LBB23:
 695              	.LBB22:
  59:src/syscall_cpp.cpp **** }
 696              		.loc 2 59 9 is_stmt 1
  59:src/syscall_cpp.cpp **** }
 697              		.loc 2 59 18 is_stmt 0
 698 02d8 23B40400 		sd	zero,8(s1)
 699              	.LBE22:
 700              	.LBE23:
  60:src/syscall_cpp.cpp **** 
 701              		.loc 2 60 1
 702 02dc 6FF09FFE 		j	.L39
 703              		.cfi_endproc
 704              	.LFE34:
 706              		.globl	_ZN6ThreadC1Ev
 707              		.set	_ZN6ThreadC1Ev,_ZN6ThreadC2Ev
 708              		.align	2
 709              		.globl	_ZN6Thread5sleepEm
 711              	_ZN6Thread5sleepEm:
 712              	.LFB36:
  62:src/syscall_cpp.cpp ****     return time_sleep(time);
 713              		.loc 2 62 32 is_stmt 1
 714              		.cfi_startproc
 715              	.LVL51:
 716 02e0 130101FF 		addi	sp,sp,-16
 717              		.cfi_def_cfa_offset 16
 718 02e4 23341100 		sd	ra,8(sp)
 719 02e8 23308100 		sd	s0,0(sp)
 720              		.cfi_offset 1, -8
 721              		.cfi_offset 8, -16
 722 02ec 13040101 		addi	s0,sp,16
 723              		.cfi_def_cfa 8, 0
  63:src/syscall_cpp.cpp **** }
 724              		.loc 2 63 5
  63:src/syscall_cpp.cpp **** }
 725              		.loc 2 63 22 is_stmt 0
 726 02f0 97000000 		call	_Z10time_sleepm@plt
 726      E7800000 
 727              	.LVL52:
  64:src/syscall_cpp.cpp **** 
 728              		.loc 2 64 1
 729 02f8 83308100 		ld	ra,8(sp)
GAS LISTING /tmp/ccNMnrKP.s 			page 17


 730              		.cfi_restore 1
 731 02fc 03340100 		ld	s0,0(sp)
 732              		.cfi_restore 8
 733              		.cfi_def_cfa 2, 16
 734 0300 13010101 		addi	sp,sp,16
 735              		.cfi_def_cfa_offset 0
 736 0304 67800000 		jr	ra
 737              		.cfi_endproc
 738              	.LFE36:
 740              		.align	2
 741              		.globl	_ZN14PeriodicThread7wrapperEPv
 743              	_ZN14PeriodicThread7wrapperEPv:
 744              	.LFB46:
  77:src/syscall_cpp.cpp **** 
  78:src/syscall_cpp.cpp **** PeriodicThread::PeriodicThread(time_t period) : Thread(&PeriodicThread::wrapper, new Args((void*)th
  79:src/syscall_cpp.cpp **** 
  80:src/syscall_cpp.cpp **** void PeriodicThread::wrapper(void *arg) {
 745              		.loc 2 80 41 is_stmt 1
 746              		.cfi_startproc
 747              	.LVL53:
 748 0308 130101FE 		addi	sp,sp,-32
 749              		.cfi_def_cfa_offset 32
 750 030c 233C1100 		sd	ra,24(sp)
 751 0310 23388100 		sd	s0,16(sp)
 752 0314 23349100 		sd	s1,8(sp)
 753 0318 23302101 		sd	s2,0(sp)
 754              		.cfi_offset 1, -8
 755              		.cfi_offset 8, -16
 756              		.cfi_offset 9, -24
 757              		.cfi_offset 18, -32
 758 031c 13040102 		addi	s0,sp,32
 759              		.cfi_def_cfa 8, 0
  81:src/syscall_cpp.cpp ****     PeriodicThread *pt =(PeriodicThread*) ((Args*)arg)->pt;
 760              		.loc 2 81 5
 761              		.loc 2 81 21 is_stmt 0
 762 0320 83340500 		ld	s1,0(a0)
 763              	.LVL54:
  82:src/syscall_cpp.cpp ****     uint64 time = ((Args*)arg)->time;
 764              		.loc 2 82 5 is_stmt 1
 765              		.loc 2 82 12 is_stmt 0
 766 0324 03398500 		ld	s2,8(a0)
 767              	.LVL55:
 768              	.L46:
  83:src/syscall_cpp.cpp **** 
  84:src/syscall_cpp.cpp ****     while(true){
 769              		.loc 2 84 5 is_stmt 1 discriminator 1
  85:src/syscall_cpp.cpp ****         pt->periodicActivation();
 770              		.loc 2 85 9 discriminator 1
 771              		.loc 2 85 32 is_stmt 0 discriminator 1
 772 0328 83B70400 		ld	a5,0(s1)
 773 032c 83B78701 		ld	a5,24(a5)
 774              		.loc 2 85 31 discriminator 1
 775 0330 13850400 		mv	a0,s1
 776 0334 E7800700 		jalr	a5
 777              	.LVL56:
  86:src/syscall_cpp.cpp ****         pt->sleep(time);
 778              		.loc 2 86 9 is_stmt 1 discriminator 1
GAS LISTING /tmp/ccNMnrKP.s 			page 18


 779              		.loc 2 86 18 is_stmt 0 discriminator 1
 780 0338 13050900 		mv	a0,s2
 781 033c 97000000 		call	_ZN6Thread5sleepEm
 781      E7800000 
 782              	.LVL57:
  84:src/syscall_cpp.cpp ****         pt->periodicActivation();
 783              		.loc 2 84 5 is_stmt 1 discriminator 1
 784 0344 6FF05FFE 		j	.L46
 785              		.cfi_endproc
 786              	.LFE46:
 788              		.align	2
 789              		.globl	_ZN6Thread8dispatchEv
 791              	_ZN6Thread8dispatchEv:
 792              	.LFB37:
  66:src/syscall_cpp.cpp ****     thread_dispatch();
 793              		.loc 2 66 25
 794              		.cfi_startproc
 795 0348 130101FF 		addi	sp,sp,-16
 796              		.cfi_def_cfa_offset 16
 797 034c 23341100 		sd	ra,8(sp)
 798 0350 23308100 		sd	s0,0(sp)
 799              		.cfi_offset 1, -8
 800              		.cfi_offset 8, -16
 801 0354 13040101 		addi	s0,sp,16
 802              		.cfi_def_cfa 8, 0
  67:src/syscall_cpp.cpp **** }
 803              		.loc 2 67 5
  67:src/syscall_cpp.cpp **** }
 804              		.loc 2 67 20 is_stmt 0
 805 0358 97000000 		call	_Z15thread_dispatchv@plt
 805      E7800000 
 806              	.LVL58:
  68:src/syscall_cpp.cpp **** 
 807              		.loc 2 68 1
 808 0360 83308100 		ld	ra,8(sp)
 809              		.cfi_restore 1
 810 0364 03340100 		ld	s0,0(sp)
 811              		.cfi_restore 8
 812              		.cfi_def_cfa 2, 16
 813 0368 13010101 		addi	sp,sp,16
 814              		.cfi_def_cfa_offset 0
 815 036c 67800000 		jr	ra
 816              		.cfi_endproc
 817              	.LFE37:
 819              		.align	2
 820              		.globl	_ZN6Thread5startEv
 822              	_ZN6Thread5startEv:
 823              	.LFB38:
  70:src/syscall_cpp.cpp ****     return thread_start(myHandle);
 824              		.loc 2 70 21 is_stmt 1
 825              		.cfi_startproc
 826              	.LVL59:
 827 0370 130101FF 		addi	sp,sp,-16
 828              		.cfi_def_cfa_offset 16
 829 0374 23341100 		sd	ra,8(sp)
 830 0378 23308100 		sd	s0,0(sp)
 831              		.cfi_offset 1, -8
GAS LISTING /tmp/ccNMnrKP.s 			page 19


 832              		.cfi_offset 8, -16
 833 037c 13040101 		addi	s0,sp,16
 834              		.cfi_def_cfa 8, 0
  71:src/syscall_cpp.cpp **** }
 835              		.loc 2 71 5
  71:src/syscall_cpp.cpp **** }
 836              		.loc 2 71 24 is_stmt 0
 837 0380 03358500 		ld	a0,8(a0)
 838              	.LVL60:
 839 0384 97000000 		call	_Z12thread_startP7_thread@plt
 839      E7800000 
 840              	.LVL61:
  72:src/syscall_cpp.cpp **** 
 841              		.loc 2 72 1
 842 038c 83308100 		ld	ra,8(sp)
 843              		.cfi_restore 1
 844 0390 03340100 		ld	s0,0(sp)
 845              		.cfi_restore 8
 846              		.cfi_def_cfa 2, 16
 847 0394 13010101 		addi	sp,sp,16
 848              		.cfi_def_cfa_offset 0
 849 0398 67800000 		jr	ra
 850              		.cfi_endproc
 851              	.LFE38:
 853              		.align	2
 854              		.globl	_ZN14PeriodicThreadC2Em
 856              	_ZN14PeriodicThreadC2Em:
 857              	.LFB44:
  78:src/syscall_cpp.cpp **** 
 858              		.loc 2 78 1 is_stmt 1
 859              		.cfi_startproc
 860              	.LVL62:
 861 039c 130101FE 		addi	sp,sp,-32
 862              		.cfi_def_cfa_offset 32
 863 03a0 233C1100 		sd	ra,24(sp)
 864 03a4 23388100 		sd	s0,16(sp)
 865 03a8 23349100 		sd	s1,8(sp)
 866 03ac 23302101 		sd	s2,0(sp)
 867              		.cfi_offset 1, -8
 868              		.cfi_offset 8, -16
 869              		.cfi_offset 9, -24
 870              		.cfi_offset 18, -32
 871 03b0 13040102 		addi	s0,sp,32
 872              		.cfi_def_cfa 8, 0
 873 03b4 93040500 		mv	s1,a0
 874 03b8 13890500 		mv	s2,a1
 875              	.LBB24:
  78:src/syscall_cpp.cpp **** 
 876              		.loc 2 78 110 is_stmt 0
 877 03bc 13050001 		li	a0,16
 878              	.LVL63:
 879 03c0 97000000 		call	_Znwm
 879      E7800000 
 880              	.LVL64:
 881 03c8 13060500 		mv	a2,a0
  78:src/syscall_cpp.cpp **** 
 882              		.loc 2 78 82
GAS LISTING /tmp/ccNMnrKP.s 			page 20


 883 03cc 63060500 		beqz	a0,.L53
 884              	.LVL65:
 885              	.LBB25:
 886              	.LBB26:
  14:src/syscall_cpp.cpp **** };
 887              		.loc 2 14 44
 888 03d0 23309500 		sd	s1,0(a0)
 889 03d4 23342501 		sd	s2,8(a0)
 890              	.LVL66:
 891              	.L53:
 892              	.LBE26:
 893              	.LBE25:
  78:src/syscall_cpp.cpp **** 
 894              		.loc 2 78 111 discriminator 4
 895 03d8 97050000 		lla	a1,_ZN14PeriodicThread7wrapperEPv
 895      93850500 
 896 03e0 13850400 		mv	a0,s1
 897 03e4 97000000 		call	_ZN6ThreadC2EPFvPvES0_
 897      E7800000 
 898              	.LVL67:
 899 03ec 97070000 		lla	a5,_ZTV14PeriodicThread+16
 899      93870700 
 900 03f4 23B0F400 		sd	a5,0(s1)
 901              	.LBE24:
  78:src/syscall_cpp.cpp **** 
 902              		.loc 2 78 113 discriminator 4
 903 03f8 83308101 		ld	ra,24(sp)
 904              		.cfi_restore 1
 905 03fc 03340101 		ld	s0,16(sp)
 906              		.cfi_restore 8
 907              		.cfi_def_cfa 2, 32
 908 0400 83348100 		ld	s1,8(sp)
 909              		.cfi_restore 9
 910              	.LVL68:
 911 0404 03390100 		ld	s2,0(sp)
 912              		.cfi_restore 18
 913              	.LVL69:
 914 0408 13010102 		addi	sp,sp,32
 915              		.cfi_def_cfa_offset 0
 916 040c 67800000 		jr	ra
 917              		.cfi_endproc
 918              	.LFE44:
 920              		.globl	_ZN14PeriodicThreadC1Em
 921              		.set	_ZN14PeriodicThreadC1Em,_ZN14PeriodicThreadC2Em
 922              		.align	2
 923              		.globl	_ZN7Console4getcEv
 925              	_ZN7Console4getcEv:
 926              	.LFB47:
  87:src/syscall_cpp.cpp ****     }
  88:src/syscall_cpp.cpp **** }
  89:src/syscall_cpp.cpp **** 
  90:src/syscall_cpp.cpp **** char Console::getc() {
 927              		.loc 2 90 22 is_stmt 1
 928              		.cfi_startproc
 929 0410 130101FF 		addi	sp,sp,-16
 930              		.cfi_def_cfa_offset 16
 931 0414 23341100 		sd	ra,8(sp)
GAS LISTING /tmp/ccNMnrKP.s 			page 21


 932 0418 23308100 		sd	s0,0(sp)
 933              		.cfi_offset 1, -8
 934              		.cfi_offset 8, -16
 935 041c 13040101 		addi	s0,sp,16
 936              		.cfi_def_cfa 8, 0
  91:src/syscall_cpp.cpp ****     return ::getc();
 937              		.loc 2 91 5
 938              		.loc 2 91 18 is_stmt 0
 939 0420 97000000 		call	_Z4getcv@plt
 939      E7800000 
 940              	.LVL70:
  92:src/syscall_cpp.cpp **** }
 941              		.loc 2 92 1
 942 0428 83308100 		ld	ra,8(sp)
 943              		.cfi_restore 1
 944 042c 03340100 		ld	s0,0(sp)
 945              		.cfi_restore 8
 946              		.cfi_def_cfa 2, 16
 947 0430 13010101 		addi	sp,sp,16
 948              		.cfi_def_cfa_offset 0
 949 0434 67800000 		jr	ra
 950              		.cfi_endproc
 951              	.LFE47:
 953              		.align	2
 954              		.globl	_ZN7Console4putcEc
 956              	_ZN7Console4putcEc:
 957              	.LFB48:
  93:src/syscall_cpp.cpp **** 
  94:src/syscall_cpp.cpp **** void Console::putc(char c) {
 958              		.loc 2 94 28 is_stmt 1
 959              		.cfi_startproc
 960              	.LVL71:
 961 0438 130101FF 		addi	sp,sp,-16
 962              		.cfi_def_cfa_offset 16
 963 043c 23341100 		sd	ra,8(sp)
 964 0440 23308100 		sd	s0,0(sp)
 965              		.cfi_offset 1, -8
 966              		.cfi_offset 8, -16
 967 0444 13040101 		addi	s0,sp,16
 968              		.cfi_def_cfa 8, 0
  95:src/syscall_cpp.cpp ****     ::putc(c);
 969              		.loc 2 95 5
 970              		.loc 2 95 11 is_stmt 0
 971 0448 97000000 		call	_Z4putcc@plt
 971      E7800000 
 972              	.LVL72:
  96:src/syscall_cpp.cpp **** }
 973              		.loc 2 96 1
 974 0450 83308100 		ld	ra,8(sp)
 975              		.cfi_restore 1
 976 0454 03340100 		ld	s0,0(sp)
 977              		.cfi_restore 8
 978              		.cfi_def_cfa 2, 16
 979 0458 13010101 		addi	sp,sp,16
 980              		.cfi_def_cfa_offset 0
 981 045c 67800000 		jr	ra
 982              		.cfi_endproc
GAS LISTING /tmp/ccNMnrKP.s 			page 22


 983              	.LFE48:
 985              		.weak	_ZTV14PeriodicThread
 986              		.section	.data.rel.ro.local._ZTV14PeriodicThread,"awG",@progbits,_ZTV14PeriodicThread,comdat
 987              		.align	3
 990              	_ZTV14PeriodicThread:
 991 0000 00000000 		.dword	0
 991      00000000 
 992 0008 00000000 		.dword	0
 992      00000000 
 993 0010 00000000 		.dword	_ZN14PeriodicThreadD1Ev
 993      00000000 
 994 0018 00000000 		.dword	_ZN14PeriodicThreadD0Ev
 994      00000000 
 995 0020 00000000 		.dword	_ZN6Thread3runEv
 995      00000000 
 996 0028 00000000 		.dword	_ZN14PeriodicThread18periodicActivationEv
 996      00000000 
 997              		.weak	_ZTV9Semaphore
 998              		.section	.data.rel.ro.local._ZTV9Semaphore,"awG",@progbits,_ZTV9Semaphore,comdat
 999              		.align	3
 1002              	_ZTV9Semaphore:
 1003 0000 00000000 		.dword	0
 1003      00000000 
 1004 0008 00000000 		.dword	0
 1004      00000000 
 1005 0010 00000000 		.dword	_ZN9SemaphoreD1Ev
 1005      00000000 
 1006 0018 00000000 		.dword	_ZN9SemaphoreD0Ev
 1006      00000000 
 1007              		.weak	_ZTV6Thread
 1008              		.section	.data.rel.ro.local._ZTV6Thread,"awG",@progbits,_ZTV6Thread,comdat
 1009              		.align	3
 1012              	_ZTV6Thread:
 1013 0000 00000000 		.dword	0
 1013      00000000 
 1014 0008 00000000 		.dword	0
 1014      00000000 
 1015 0010 00000000 		.dword	_ZN6ThreadD1Ev
 1015      00000000 
 1016 0018 00000000 		.dword	_ZN6ThreadD0Ev
 1016      00000000 
 1017 0020 00000000 		.dword	_ZN6Thread3runEv
 1017      00000000 
 1018              		.text
 1019              	.Letext0:
 1020              		.file 3 "src/../h/../lib/hw.h"
 1021              		.file 4 "src/../h/../h/../h/_thread.hpp"
 1022              		.file 5 "src/../h/../h/../h/_semaphore.hpp"
 1023              		.file 6 "src/../h/../h/syscall_c.h"
 4505              		.align	3
 4508              	DW.ref.__gxx_personality_v0:
 4509 0000 00000000 		.dword	__gxx_personality_v0
 4509      00000000 
 4510              		.ident	"GCC: (Ubuntu 9.4.0-1ubuntu1~20.04) 9.4.0"
 4511              		.section	.note.GNU-stack,"",@progbits
GAS LISTING /tmp/ccNMnrKP.s 			page 23

