GAS LISTING /tmp/ccNMnrKP.s 			page 1


   1              		.file	"syscall_cpp.cpp"
   2              		.option pic
   3              		.option norelax
   4              		.text
   5              	.Ltext0:
   6              		.section	.text._ZN6Thread3runEv,"axG",@progbits,_ZN6Thread3runEv,comdat
   7              		.align	2
   8              		.weak	_ZN6Thread3runEv
  10              	_ZN6Thread3runEv:
  11              	.LFB12:
  12              		.file 1 "src/../h/syscall_cpp.hpp"
   1:src/../h/syscall_cpp.hpp **** //
   2:src/../h/syscall_cpp.hpp **** // Created by os on 4/28/22.
   3:src/../h/syscall_cpp.hpp **** //
   4:src/../h/syscall_cpp.hpp **** 
   5:src/../h/syscall_cpp.hpp **** #ifndef SYSCALL_CPP_HPP
   6:src/../h/syscall_cpp.hpp **** #define SYSCALL_CPP_HPP
   7:src/../h/syscall_cpp.hpp **** 
   8:src/../h/syscall_cpp.hpp **** #include "../lib/hw.h"
   9:src/../h/syscall_cpp.hpp **** #include "../h/syscall_c.h"
  10:src/../h/syscall_cpp.hpp **** 
  11:src/../h/syscall_cpp.hpp **** void* operator new (size_t sz);
  12:src/../h/syscall_cpp.hpp **** 
  13:src/../h/syscall_cpp.hpp **** void* operator new[](size_t sz);
  14:src/../h/syscall_cpp.hpp **** 
  15:src/../h/syscall_cpp.hpp **** void operator delete (void *ptr);
  16:src/../h/syscall_cpp.hpp **** 
  17:src/../h/syscall_cpp.hpp **** class Semaphore{
  18:src/../h/syscall_cpp.hpp **** 
  19:src/../h/syscall_cpp.hpp **** public:
  20:src/../h/syscall_cpp.hpp ****     Semaphore(unsigned init = 1);
  21:src/../h/syscall_cpp.hpp ****     virtual ~Semaphore();
  22:src/../h/syscall_cpp.hpp **** 
  23:src/../h/syscall_cpp.hpp ****     int wait();
  24:src/../h/syscall_cpp.hpp **** 
  25:src/../h/syscall_cpp.hpp ****     int signal();
  26:src/../h/syscall_cpp.hpp **** 
  27:src/../h/syscall_cpp.hpp **** private:
  28:src/../h/syscall_cpp.hpp ****     sem_t myHandle;
  29:src/../h/syscall_cpp.hpp **** };
  30:src/../h/syscall_cpp.hpp **** 
  31:src/../h/syscall_cpp.hpp **** class Thread{
  32:src/../h/syscall_cpp.hpp **** 
  33:src/../h/syscall_cpp.hpp **** public:
  34:src/../h/syscall_cpp.hpp **** 
  35:src/../h/syscall_cpp.hpp ****     Thread(void(*body)(void*), void*arg);
  36:src/../h/syscall_cpp.hpp ****     virtual ~Thread();
  37:src/../h/syscall_cpp.hpp **** 
  38:src/../h/syscall_cpp.hpp ****     int start();
  39:src/../h/syscall_cpp.hpp **** 
  40:src/../h/syscall_cpp.hpp ****     static void dispatch();
  41:src/../h/syscall_cpp.hpp ****     static int sleep(time_t time);
  42:src/../h/syscall_cpp.hpp **** 
  43:src/../h/syscall_cpp.hpp **** protected:
  44:src/../h/syscall_cpp.hpp ****     Thread();
  45:src/../h/syscall_cpp.hpp ****     virtual void run(){}
  13              		.loc 1 45 18
GAS LISTING /tmp/ccNMnrKP.s 			page 2


  14              		.cfi_startproc
  15              	.LVL0:
  16 0000 130101FF 		addi	sp,sp,-16
  17              		.cfi_def_cfa_offset 16
  18 0004 23348100 		sd	s0,8(sp)
  19              		.cfi_offset 8, -8
  20 0008 13040101 		addi	s0,sp,16
  21              		.cfi_def_cfa 8, 0
  22              		.loc 1 45 24 is_stmt 0
  23 000c 03348100 		ld	s0,8(sp)
  24              		.cfi_restore 8
  25              		.cfi_def_cfa 2, 16
  26 0010 13010101 		addi	sp,sp,16
  27              		.cfi_def_cfa_offset 0
  28 0014 67800000 		jr	ra
  29              		.cfi_endproc
  30              	.LFE12:
  32              		.section	.text._ZN14PeriodicThread18periodicActivationEv,"axG",@progbits,_ZN14PeriodicThread18peri
  33              		.align	2
  34              		.weak	_ZN14PeriodicThread18periodicActivationEv
  36              	_ZN14PeriodicThread18periodicActivationEv:
  37              	.LFB13:
  46:src/../h/syscall_cpp.hpp **** 
  47:src/../h/syscall_cpp.hpp **** private:
  48:src/../h/syscall_cpp.hpp ****     thread_t myHandle;
  49:src/../h/syscall_cpp.hpp ****     static void wrapper(void *arg);
  50:src/../h/syscall_cpp.hpp **** };
  51:src/../h/syscall_cpp.hpp **** 
  52:src/../h/syscall_cpp.hpp **** class PeriodicThread : public Thread{
  53:src/../h/syscall_cpp.hpp ****     static void wrapper(void *arg);
  54:src/../h/syscall_cpp.hpp **** protected:
  55:src/../h/syscall_cpp.hpp ****     PeriodicThread(time_t period);
  56:src/../h/syscall_cpp.hpp ****     virtual void periodicActivation(){}
  38              		.loc 1 56 18 is_stmt 1
  39              		.cfi_startproc
  40              	.LVL1:
  41 0000 130101FF 		addi	sp,sp,-16
  42              		.cfi_def_cfa_offset 16
  43 0004 23348100 		sd	s0,8(sp)
  44              		.cfi_offset 8, -8
  45 0008 13040101 		addi	s0,sp,16
  46              		.cfi_def_cfa 8, 0
  47              		.loc 1 56 39 is_stmt 0
  48 000c 03348100 		ld	s0,8(sp)
  49              		.cfi_restore 8
  50              		.cfi_def_cfa 2, 16
  51 0010 13010101 		addi	sp,sp,16
  52              		.cfi_def_cfa_offset 0
  53 0014 67800000 		jr	ra
  54              		.cfi_endproc
  55              	.LFE13:
  57              		.text
  58              		.align	2
  59              		.globl	_ZN6Thread7wrapperEPv
  61              	_ZN6Thread7wrapperEPv:
  62              	.LFB32:
  63              		.file 2 "src/syscall_cpp.cpp"
GAS LISTING /tmp/ccNMnrKP.s 			page 3


   1:src/syscall_cpp.cpp **** //
   2:src/syscall_cpp.cpp **** // Created by os on 4/28/22.
   3:src/syscall_cpp.cpp **** //
   4:src/syscall_cpp.cpp **** 
   5:src/syscall_cpp.cpp **** #include "../h/syscall_cpp.hpp"
   6:src/syscall_cpp.cpp **** 
   7:src/syscall_cpp.cpp **** //CPP API for Threads, Semaphores, and others that rely on C API layer
   8:src/syscall_cpp.cpp **** //CPP API is implemented in this way, as the task was to not change given interface or add any non-
   9:src/syscall_cpp.cpp **** //Solution is to add only one static wrapper function and then add syscalls where needed to manipul
  10:src/syscall_cpp.cpp **** 
  11:src/syscall_cpp.cpp **** struct Args{
  12:src/syscall_cpp.cpp ****     void* pt;
  13:src/syscall_cpp.cpp ****     uint64 time;
  14:src/syscall_cpp.cpp ****     Args(void *p, uint64 t) : pt(p), time(t){}
  15:src/syscall_cpp.cpp **** };
  16:src/syscall_cpp.cpp **** 
  17:src/syscall_cpp.cpp **** void* operator new(size_t sz){
  18:src/syscall_cpp.cpp ****     return mem_alloc(sz);
  19:src/syscall_cpp.cpp **** }
  20:src/syscall_cpp.cpp **** 
  21:src/syscall_cpp.cpp **** void* operator new[](size_t sz){
  22:src/syscall_cpp.cpp ****     return mem_alloc(sz);
  23:src/syscall_cpp.cpp **** }
  24:src/syscall_cpp.cpp **** 
  25:src/syscall_cpp.cpp **** void operator delete(void *ptr){
  26:src/syscall_cpp.cpp ****     mem_free(ptr);
  27:src/syscall_cpp.cpp **** }
  28:src/syscall_cpp.cpp **** 
  29:src/syscall_cpp.cpp **** Semaphore::Semaphore(unsigned int init) {
  30:src/syscall_cpp.cpp ****     sem_open(&myHandle, init);
  31:src/syscall_cpp.cpp **** }
  32:src/syscall_cpp.cpp **** 
  33:src/syscall_cpp.cpp **** Semaphore::~Semaphore(){
  34:src/syscall_cpp.cpp ****     sem_close(myHandle);
  35:src/syscall_cpp.cpp **** };
  36:src/syscall_cpp.cpp **** 
  37:src/syscall_cpp.cpp **** int Semaphore::wait(){
  38:src/syscall_cpp.cpp ****     return sem_wait(myHandle);
  39:src/syscall_cpp.cpp **** }
  40:src/syscall_cpp.cpp **** 
  41:src/syscall_cpp.cpp **** int Semaphore::signal() {
  42:src/syscall_cpp.cpp ****     return sem_signal(myHandle);
  43:src/syscall_cpp.cpp **** }
  44:src/syscall_cpp.cpp **** 
  45:src/syscall_cpp.cpp **** Thread::Thread(void (*body)(void*), void *arg) {
  46:src/syscall_cpp.cpp ****     int status = thread_attach_body(&myHandle, body, arg);
  47:src/syscall_cpp.cpp ****     if(status == -1)
  48:src/syscall_cpp.cpp ****         myHandle = nullptr;
  49:src/syscall_cpp.cpp **** }
  50:src/syscall_cpp.cpp **** 
  51:src/syscall_cpp.cpp **** void Thread::wrapper(void *arg) {
  64              		.loc 2 51 33 is_stmt 1
  65              		.cfi_startproc
  66              	.LVL2:
  67 0000 130101FF 		addi	sp,sp,-16
  68              		.cfi_def_cfa_offset 16
  69 0004 23341100 		sd	ra,8(sp)
GAS LISTING /tmp/ccNMnrKP.s 			page 4


  70 0008 23308100 		sd	s0,0(sp)
  71              		.cfi_offset 1, -8
  72              		.cfi_offset 8, -16
  73 000c 13040101 		addi	s0,sp,16
  74              		.cfi_def_cfa 8, 0
  52:src/syscall_cpp.cpp ****     Thread* thr = (Thread*)arg;
  75              		.loc 2 52 5
  76              	.LVL3:
  53:src/syscall_cpp.cpp ****     thr->run();
  77              		.loc 2 53 5
  78              		.loc 2 53 14 is_stmt 0
  79 0010 83370500 		ld	a5,0(a0)
  80 0014 83B70701 		ld	a5,16(a5)
  81              		.loc 2 53 13
  82 0018 E7800700 		jalr	a5
  83              	.LVL4:
  54:src/syscall_cpp.cpp **** }
  84              		.loc 2 54 1
  85 001c 83308100 		ld	ra,8(sp)
  86              		.cfi_restore 1
  87 0020 03340100 		ld	s0,0(sp)
  88              		.cfi_restore 8
  89              		.cfi_def_cfa 2, 16
  90 0024 13010101 		addi	sp,sp,16
  91              		.cfi_def_cfa_offset 0
  92 0028 67800000 		jr	ra
  93              		.cfi_endproc
  94              	.LFE32:
  96              		.align	2
  97              		.globl	_ZN9SemaphoreD2Ev
  99              	_ZN9SemaphoreD2Ev:
 100              	.LFB24:
  33:src/syscall_cpp.cpp ****     sem_close(myHandle);
 101              		.loc 2 33 1 is_stmt 1
 102              		.cfi_startproc
 103              		.cfi_personality 0x9b,DW.ref.__gxx_personality_v0
 104              		.cfi_lsda 0x1b,.LLSDA24
 105              	.LVL5:
 106 002c 130101FF 		addi	sp,sp,-16
 107              		.cfi_def_cfa_offset 16
 108 0030 23341100 		sd	ra,8(sp)
 109 0034 23308100 		sd	s0,0(sp)
 110              		.cfi_offset 1, -8
 111              		.cfi_offset 8, -16
 112 0038 13040101 		addi	s0,sp,16
 113              		.cfi_def_cfa 8, 0
 114              	.LBB9:
  33:src/syscall_cpp.cpp ****     sem_close(myHandle);
 115              		.loc 2 33 23 is_stmt 0
 116 003c 97070000 		lla	a5,_ZTV9Semaphore+16
 116      93870700 
 117 0044 2330F500 		sd	a5,0(a0)
  34:src/syscall_cpp.cpp **** };
 118              		.loc 2 34 5 is_stmt 1
  34:src/syscall_cpp.cpp **** };
 119              		.loc 2 34 14 is_stmt 0
 120 0048 03358500 		ld	a0,8(a0)
GAS LISTING /tmp/ccNMnrKP.s 			page 5


 121              	.LVL6:
 122 004c 97000000 		call	_Z9sem_closeP10_semaphore@plt
 122      E7800000 
 123              	.LVL7:
 124              	.LBE9:
  35:src/syscall_cpp.cpp **** 
 125              		.loc 2 35 1
 126 0054 83308100 		ld	ra,8(sp)
 127              		.cfi_restore 1
 128 0058 03340100 		ld	s0,0(sp)
 129              		.cfi_restore 8
 130              		.cfi_def_cfa 2, 16
 131 005c 13010101 		addi	sp,sp,16
 132              		.cfi_def_cfa_offset 0
 133 0060 67800000 		jr	ra
 134              		.cfi_endproc
 135              	.LFE24:
 136              		.globl	__gxx_personality_v0
 137              		.section	.gcc_except_table,"a",@progbits
 138              	.LLSDA24:
 139 0000 FF       		.byte	0xff
 140 0001 FF       		.byte	0xff
 141 0002 03       		.byte	0x3
 142 0003 00       		.byte	0
 143              		.text
 145              		.globl	_ZN9SemaphoreD1Ev
 146              		.set	_ZN9SemaphoreD1Ev,_ZN9SemaphoreD2Ev
 147              		.align	2
 148              		.globl	_ZN6ThreadD2Ev
 150              	_ZN6ThreadD2Ev:
 151              	.LFB40:
  55:src/syscall_cpp.cpp **** 
  56:src/syscall_cpp.cpp **** Thread::Thread() {
  57:src/syscall_cpp.cpp ****     int status = thread_attach_body(&myHandle, &Thread::wrapper, this);
  58:src/syscall_cpp.cpp ****     if(status == -1)
  59:src/syscall_cpp.cpp ****         myHandle = nullptr;
  60:src/syscall_cpp.cpp **** }
  61:src/syscall_cpp.cpp **** 
  62:src/syscall_cpp.cpp **** int Thread::sleep(time_t time) {
  63:src/syscall_cpp.cpp ****     return time_sleep(time);
  64:src/syscall_cpp.cpp **** }
  65:src/syscall_cpp.cpp **** 
  66:src/syscall_cpp.cpp **** void Thread::dispatch() {
  67:src/syscall_cpp.cpp ****     thread_dispatch();
  68:src/syscall_cpp.cpp **** }
  69:src/syscall_cpp.cpp **** 
  70:src/syscall_cpp.cpp **** int Thread::start() {
  71:src/syscall_cpp.cpp ****     return thread_start(myHandle);
  72:src/syscall_cpp.cpp **** }
  73:src/syscall_cpp.cpp **** 
  74:src/syscall_cpp.cpp **** Thread::~Thread() {
 152              		.loc 2 74 1 is_stmt 1
 153              		.cfi_startproc
 154              		.cfi_personality 0x9b,DW.ref.__gxx_personality_v0
 155              		.cfi_lsda 0x1b,.LLSDA40
 156              	.LVL8:
 157              	.LBB10:
GAS LISTING /tmp/ccNMnrKP.s 			page 6


 158              		.loc 2 74 17 is_stmt 0
 159 0064 97070000 		lla	a5,_ZTV6Thread+16
 159      93870700 
 160 006c 2330F500 		sd	a5,0(a0)
  75:src/syscall_cpp.cpp ****     delete myHandle;
 161              		.loc 2 75 5 is_stmt 1
 162              		.loc 2 75 12 is_stmt 0
 163 0070 03358500 		ld	a0,8(a0)
 164              	.LVL9:
 165              		.loc 2 75 20
 166 0074 63060502 		beqz	a0,.L12
 167              	.LBE10:
  74:src/syscall_cpp.cpp ****     delete myHandle;
 168              		.loc 2 74 1 discriminator 1
 169 0078 130101FF 		addi	sp,sp,-16
 170              		.cfi_def_cfa_offset 16
 171 007c 23341100 		sd	ra,8(sp)
 172 0080 23308100 		sd	s0,0(sp)
 173              		.cfi_offset 1, -8
 174              		.cfi_offset 8, -16
 175 0084 13040101 		addi	s0,sp,16
 176              		.cfi_def_cfa 8, 0
 177              	.LBB11:
 178              		.loc 2 75 12 discriminator 1
 179 0088 97000000 		call	_ZN7_threaddlEPv@plt
 179      E7800000 
 180              	.LVL10:
 181              	.LBE11:
  76:src/syscall_cpp.cpp **** }
 182              		.loc 2 76 1 discriminator 1
 183 0090 83308100 		ld	ra,8(sp)
 184              		.cfi_restore 1
 185 0094 03340100 		ld	s0,0(sp)
 186              		.cfi_restore 8
 187              		.cfi_def_cfa 2, 16
 188 0098 13010101 		addi	sp,sp,16
 189              		.cfi_def_cfa_offset 0
 190 009c 67800000 		jr	ra
 191              	.L12:
 192 00a0 67800000 		ret
 193              		.cfi_endproc
 194              	.LFE40:
 195              		.section	.gcc_except_table
 196              	.LLSDA40:
 197 0004 FF       		.byte	0xff
 198 0005 FF       		.byte	0xff
 199 0006 03       		.byte	0x3
 200 0007 00       		.byte	0
 201              		.text
 203              		.globl	_ZN6ThreadD1Ev
 204              		.set	_ZN6ThreadD1Ev,_ZN6ThreadD2Ev
 205              		.section	.text._ZN14PeriodicThreadD2Ev,"axG",@progbits,_ZN14PeriodicThreadD5Ev,comdat
 206              		.align	2
 207              		.weak	_ZN14PeriodicThreadD2Ev
 209              	_ZN14PeriodicThreadD2Ev:
 210              	.LFB50:
  52:src/../h/syscall_cpp.hpp ****     static void wrapper(void *arg);
GAS LISTING /tmp/ccNMnrKP.s 			page 7


 211              		.loc 1 52 7 is_stmt 1
 212              		.cfi_startproc
 213              	.LVL11:
 214 0000 130101FF 		addi	sp,sp,-16
 215              		.cfi_def_cfa_offset 16
 216 0004 23341100 		sd	ra,8(sp)
 217 0008 23308100 		sd	s0,0(sp)
 218              		.cfi_offset 1, -8
 219              		.cfi_offset 8, -16
 220 000c 13040101 		addi	s0,sp,16
 221              		.cfi_def_cfa 8, 0
 222              	.LBB12:
  52:src/../h/syscall_cpp.hpp ****     static void wrapper(void *arg);
 223              		.loc 1 52 7 is_stmt 0
 224 0010 97070000 		lla	a5,_ZTV14PeriodicThread+16
 224      93870700 
 225 0018 2330F500 		sd	a5,0(a0)
 226 001c 97000000 		call	_ZN6ThreadD2Ev
 226      E7800000 
 227              	.LVL12:
 228              	.LBE12:
 229 0024 83308100 		ld	ra,8(sp)
 230              		.cfi_restore 1
 231 0028 03340100 		ld	s0,0(sp)
 232              		.cfi_restore 8
 233              		.cfi_def_cfa 2, 16
 234 002c 13010101 		addi	sp,sp,16
 235              		.cfi_def_cfa_offset 0
 236 0030 67800000 		jr	ra
 237              		.cfi_endproc
 238              	.LFE50:
 240              		.weak	_ZN14PeriodicThreadD1Ev
 241              		.set	_ZN14PeriodicThreadD1Ev,_ZN14PeriodicThreadD2Ev
 242              		.text
 243              		.align	2
 244              		.globl	_Znwm
 246              	_Znwm:
 247              	.LFB17:
  17:src/syscall_cpp.cpp ****     return mem_alloc(sz);
 248              		.loc 2 17 30 is_stmt 1
 249              		.cfi_startproc
 250              	.LVL13:
 251 00a4 130101FF 		addi	sp,sp,-16
 252              		.cfi_def_cfa_offset 16
 253 00a8 23341100 		sd	ra,8(sp)
 254 00ac 23308100 		sd	s0,0(sp)
 255              		.cfi_offset 1, -8
 256              		.cfi_offset 8, -16
 257 00b0 13040101 		addi	s0,sp,16
 258              		.cfi_def_cfa 8, 0
  18:src/syscall_cpp.cpp **** }
 259              		.loc 2 18 5
  18:src/syscall_cpp.cpp **** }
 260              		.loc 2 18 21 is_stmt 0
 261 00b4 97000000 		call	_Z9mem_allocm@plt
 261      E7800000 
 262              	.LVL14:
GAS LISTING /tmp/ccNMnrKP.s 			page 8


  19:src/syscall_cpp.cpp **** 
 263              		.loc 2 19 1
 264 00bc 83308100 		ld	ra,8(sp)
 265              		.cfi_restore 1
 266 00c0 03340100 		ld	s0,0(sp)
 267              		.cfi_restore 8
 268              		.cfi_def_cfa 2, 16
 269 00c4 13010101 		addi	sp,sp,16
 270              		.cfi_def_cfa_offset 0
 271 00c8 67800000 		jr	ra
 272              		.cfi_endproc
 273              	.LFE17:
 275              		.align	2
 276              		.globl	_Znam
 278              	_Znam:
 279              	.LFB18:
  21:src/syscall_cpp.cpp ****     return mem_alloc(sz);
 280              		.loc 2 21 32 is_stmt 1
 281              		.cfi_startproc
 282              	.LVL15:
 283 00cc 130101FF 		addi	sp,sp,-16
 284              		.cfi_def_cfa_offset 16
 285 00d0 23341100 		sd	ra,8(sp)
 286 00d4 23308100 		sd	s0,0(sp)
 287              		.cfi_offset 1, -8
 288              		.cfi_offset 8, -16
 289 00d8 13040101 		addi	s0,sp,16
 290              		.cfi_def_cfa 8, 0
  22:src/syscall_cpp.cpp **** }
 291              		.loc 2 22 5
  22:src/syscall_cpp.cpp **** }
 292              		.loc 2 22 21 is_stmt 0
 293 00dc 97000000 		call	_Z9mem_allocm@plt
 293      E7800000 
 294              	.LVL16:
  23:src/syscall_cpp.cpp **** 
 295              		.loc 2 23 1
 296 00e4 83308100 		ld	ra,8(sp)
 297              		.cfi_restore 1
 298 00e8 03340100 		ld	s0,0(sp)
 299              		.cfi_restore 8
 300              		.cfi_def_cfa 2, 16
 301 00ec 13010101 		addi	sp,sp,16
 302              		.cfi_def_cfa_offset 0
 303 00f0 67800000 		jr	ra
 304              		.cfi_endproc
 305              	.LFE18:
 307              		.align	2
 308              		.globl	_ZdlPv
 310              	_ZdlPv:
 311              	.LFB19:
  25:src/syscall_cpp.cpp ****     mem_free(ptr);
 312              		.loc 2 25 32 is_stmt 1
 313              		.cfi_startproc
 314              	.LVL17:
 315 00f4 130101FF 		addi	sp,sp,-16
 316              		.cfi_def_cfa_offset 16
GAS LISTING /tmp/ccNMnrKP.s 			page 9


 317 00f8 23341100 		sd	ra,8(sp)
 318 00fc 23308100 		sd	s0,0(sp)
 319              		.cfi_offset 1, -8
 320              		.cfi_offset 8, -16
 321 0100 13040101 		addi	s0,sp,16
 322              		.cfi_def_cfa 8, 0
  26:src/syscall_cpp.cpp **** }
 323              		.loc 2 26 5
  26:src/syscall_cpp.cpp **** }
 324              		.loc 2 26 13 is_stmt 0
 325 0104 97000000 		call	_Z8mem_freePv@plt
 325      E7800000 
 326              	.LVL18:
  27:src/syscall_cpp.cpp **** 
 327              		.loc 2 27 1
 328 010c 83308100 		ld	ra,8(sp)
 329              		.cfi_restore 1
 330 0110 03340100 		ld	s0,0(sp)
 331              		.cfi_restore 8
 332              		.cfi_def_cfa 2, 16
 333 0114 13010101 		addi	sp,sp,16
 334              		.cfi_def_cfa_offset 0
 335 0118 67800000 		jr	ra
 336              		.cfi_endproc
 337              	.LFE19:
 339              		.align	2
 340              		.globl	_ZN9SemaphoreD0Ev
 342              	_ZN9SemaphoreD0Ev:
 343              	.LFB26:
  33:src/syscall_cpp.cpp ****     sem_close(myHandle);
 344              		.loc 2 33 1 is_stmt 1
 345              		.cfi_startproc
 346              	.LVL19:
 347 011c 130101FE 		addi	sp,sp,-32
 348              		.cfi_def_cfa_offset 32
 349 0120 233C1100 		sd	ra,24(sp)
 350 0124 23388100 		sd	s0,16(sp)
 351 0128 23349100 		sd	s1,8(sp)
 352              		.cfi_offset 1, -8
 353              		.cfi_offset 8, -16
 354              		.cfi_offset 9, -24
 355 012c 13040102 		addi	s0,sp,32
 356              		.cfi_def_cfa 8, 0
 357 0130 93040500 		mv	s1,a0
  35:src/syscall_cpp.cpp **** 
 358              		.loc 2 35 1 is_stmt 0
 359 0134 97000000 		call	_ZN9SemaphoreD1Ev
 359      E7800000 
 360              	.LVL20:
 361 013c 13850400 		mv	a0,s1
 362 0140 97000000 		call	_ZdlPv
 362      E7800000 
 363              	.LVL21:
 364 0148 83308101 		ld	ra,24(sp)
 365              		.cfi_restore 1
 366 014c 03340101 		ld	s0,16(sp)
 367              		.cfi_restore 8
GAS LISTING /tmp/ccNMnrKP.s 			page 10


 368              		.cfi_def_cfa 2, 32
 369 0150 83348100 		ld	s1,8(sp)
 370              		.cfi_restore 9
 371              	.LVL22:
 372 0154 13010102 		addi	sp,sp,32
 373              		.cfi_def_cfa_offset 0
 374 0158 67800000 		jr	ra
 375              		.cfi_endproc
 376              	.LFE26:
 378              		.align	2
 379              		.globl	_ZN6ThreadD0Ev
 381              	_ZN6ThreadD0Ev:
 382              	.LFB42:
  74:src/syscall_cpp.cpp ****     delete myHandle;
 383              		.loc 2 74 1 is_stmt 1
 384              		.cfi_startproc
 385              	.LVL23:
 386 015c 130101FE 		addi	sp,sp,-32
 387              		.cfi_def_cfa_offset 32
 388 0160 233C1100 		sd	ra,24(sp)
 389 0164 23388100 		sd	s0,16(sp)
 390 0168 23349100 		sd	s1,8(sp)
 391              		.cfi_offset 1, -8
 392              		.cfi_offset 8, -16
 393              		.cfi_offset 9, -24
 394 016c 13040102 		addi	s0,sp,32
 395              		.cfi_def_cfa 8, 0
 396 0170 93040500 		mv	s1,a0
 397              		.loc 2 76 1 is_stmt 0
 398 0174 97000000 		call	_ZN6ThreadD1Ev
 398      E7800000 
 399              	.LVL24:
 400 017c 13850400 		mv	a0,s1
 401 0180 97000000 		call	_ZdlPv
 401      E7800000 
 402              	.LVL25:
 403 0188 83308101 		ld	ra,24(sp)
 404              		.cfi_restore 1
 405 018c 03340101 		ld	s0,16(sp)
 406              		.cfi_restore 8
 407              		.cfi_def_cfa 2, 32
 408 0190 83348100 		ld	s1,8(sp)
 409              		.cfi_restore 9
 410              	.LVL26:
 411 0194 13010102 		addi	sp,sp,32
 412              		.cfi_def_cfa_offset 0
 413 0198 67800000 		jr	ra
 414              		.cfi_endproc
 415              	.LFE42:
 417              		.section	.text._ZN14PeriodicThreadD0Ev,"axG",@progbits,_ZN14PeriodicThreadD5Ev,comdat
 418              		.align	2
 419              		.weak	_ZN14PeriodicThreadD0Ev
 421              	_ZN14PeriodicThreadD0Ev:
 422              	.LFB52:
  52:src/../h/syscall_cpp.hpp ****     static void wrapper(void *arg);
 423              		.loc 1 52 7 is_stmt 1
 424              		.cfi_startproc
GAS LISTING /tmp/ccNMnrKP.s 			page 11


 425              	.LVL27:
 426 0000 130101FE 		addi	sp,sp,-32
 427              		.cfi_def_cfa_offset 32
 428 0004 233C1100 		sd	ra,24(sp)
 429 0008 23388100 		sd	s0,16(sp)
 430 000c 23349100 		sd	s1,8(sp)
 431              		.cfi_offset 1, -8
 432              		.cfi_offset 8, -16
 433              		.cfi_offset 9, -24
 434 0010 13040102 		addi	s0,sp,32
 435              		.cfi_def_cfa 8, 0
 436 0014 93040500 		mv	s1,a0
 437              	.LVL28:
 438              	.LBB13:
 439              	.LBB14:
  52:src/../h/syscall_cpp.hpp ****     static void wrapper(void *arg);
 440              		.loc 1 52 7 is_stmt 0
 441 0018 97070000 		lla	a5,_ZTV14PeriodicThread+16
 441      93870700 
 442 0020 2330F500 		sd	a5,0(a0)
 443 0024 97000000 		call	_ZN6ThreadD2Ev
 443      E7800000 
 444              	.LVL29:
 445              	.LBE14:
 446              	.LBE13:
 447 002c 13850400 		mv	a0,s1
 448 0030 97000000 		call	_ZdlPv
 448      E7800000 
 449              	.LVL30:
 450 0038 83308101 		ld	ra,24(sp)
 451              		.cfi_restore 1
 452 003c 03340101 		ld	s0,16(sp)
 453              		.cfi_restore 8
 454              		.cfi_def_cfa 2, 32
 455 0040 83348100 		ld	s1,8(sp)
 456              		.cfi_restore 9
 457              	.LVL31:
 458 0044 13010102 		addi	sp,sp,32
 459              		.cfi_def_cfa_offset 0
 460 0048 67800000 		jr	ra
 461              		.cfi_endproc
 462              	.LFE52:
 464              		.text
 465              		.align	2
 466              		.globl	_ZN9SemaphoreC2Ej
 468              	_ZN9SemaphoreC2Ej:
 469              	.LFB21:
  29:src/syscall_cpp.cpp ****     sem_open(&myHandle, init);
 470              		.loc 2 29 1 is_stmt 1
 471              		.cfi_startproc
 472              	.LVL32:
 473 019c 130101FF 		addi	sp,sp,-16
 474              		.cfi_def_cfa_offset 16
 475 01a0 23341100 		sd	ra,8(sp)
 476 01a4 23308100 		sd	s0,0(sp)
 477              		.cfi_offset 1, -8
 478              		.cfi_offset 8, -16
GAS LISTING /tmp/ccNMnrKP.s 			page 12


 479 01a8 13040101 		addi	s0,sp,16
 480              		.cfi_def_cfa 8, 0
 481              	.LBB15:
  29:src/syscall_cpp.cpp ****     sem_open(&myHandle, init);
 482              		.loc 2 29 39 is_stmt 0
 483 01ac 97070000 		lla	a5,_ZTV9Semaphore+16
 483      93870700 
 484 01b4 2330F500 		sd	a5,0(a0)
  30:src/syscall_cpp.cpp **** }
 485              		.loc 2 30 5 is_stmt 1
  30:src/syscall_cpp.cpp **** }
 486              		.loc 2 30 13 is_stmt 0
 487 01b8 13058500 		addi	a0,a0,8
 488              	.LVL33:
 489 01bc 97000000 		call	_Z8sem_openPP10_semaphorej@plt
 489      E7800000 
 490              	.LVL34:
 491              	.LBE15:
  31:src/syscall_cpp.cpp **** 
 492              		.loc 2 31 1
 493 01c4 83308100 		ld	ra,8(sp)
 494              		.cfi_restore 1
 495 01c8 03340100 		ld	s0,0(sp)
 496              		.cfi_restore 8
 497              		.cfi_def_cfa 2, 16
 498 01cc 13010101 		addi	sp,sp,16
 499              		.cfi_def_cfa_offset 0
 500 01d0 67800000 		jr	ra
 501              		.cfi_endproc
 502              	.LFE21:
 504              		.globl	_ZN9SemaphoreC1Ej
 505              		.set	_ZN9SemaphoreC1Ej,_ZN9SemaphoreC2Ej
 506              		.align	2
 507              		.globl	_ZN9Semaphore4waitEv
 509              	_ZN9Semaphore4waitEv:
 510              	.LFB27:
  37:src/syscall_cpp.cpp ****     return sem_wait(myHandle);
 511              		.loc 2 37 22 is_stmt 1
 512              		.cfi_startproc
 513              	.LVL35:
 514 01d4 130101FF 		addi	sp,sp,-16
 515              		.cfi_def_cfa_offset 16
 516 01d8 23341100 		sd	ra,8(sp)
 517 01dc 23308100 		sd	s0,0(sp)
 518              		.cfi_offset 1, -8
 519              		.cfi_offset 8, -16
 520 01e0 13040101 		addi	s0,sp,16
 521              		.cfi_def_cfa 8, 0
  38:src/syscall_cpp.cpp **** }
 522              		.loc 2 38 5
  38:src/syscall_cpp.cpp **** }
 523              		.loc 2 38 20 is_stmt 0
 524 01e4 03358500 		ld	a0,8(a0)
 525              	.LVL36:
 526 01e8 97000000 		call	_Z8sem_waitP10_semaphore@plt
 526      E7800000 
 527              	.LVL37:
GAS LISTING /tmp/ccNMnrKP.s 			page 13


  39:src/syscall_cpp.cpp **** 
 528              		.loc 2 39 1
 529 01f0 83308100 		ld	ra,8(sp)
 530              		.cfi_restore 1
 531 01f4 03340100 		ld	s0,0(sp)
 532              		.cfi_restore 8
 533              		.cfi_def_cfa 2, 16
 534 01f8 13010101 		addi	sp,sp,16
 535              		.cfi_def_cfa_offset 0
 536 01fc 67800000 		jr	ra
 537              		.cfi_endproc
 538              	.LFE27:
 540              		.align	2
 541              		.globl	_ZN9Semaphore6signalEv
 543              	_ZN9Semaphore6signalEv:
 544              	.LFB28:
  41:src/syscall_cpp.cpp ****     return sem_signal(myHandle);
 545              		.loc 2 41 25 is_stmt 1
 546              		.cfi_startproc
 547              	.LVL38:
 548 0200 130101FF 		addi	sp,sp,-16
 549              		.cfi_def_cfa_offset 16
 550 0204 23341100 		sd	ra,8(sp)
 551 0208 23308100 		sd	s0,0(sp)
 552              		.cfi_offset 1, -8
 553              		.cfi_offset 8, -16
 554 020c 13040101 		addi	s0,sp,16
 555              		.cfi_def_cfa 8, 0
  42:src/syscall_cpp.cpp **** }
 556              		.loc 2 42 5
  42:src/syscall_cpp.cpp **** }
 557              		.loc 2 42 22 is_stmt 0
 558 0210 03358500 		ld	a0,8(a0)
 559              	.LVL39:
 560 0214 97000000 		call	_Z10sem_signalP10_semaphore@plt
 560      E7800000 
 561              	.LVL40:
  43:src/syscall_cpp.cpp **** 
 562              		.loc 2 43 1
 563 021c 83308100 		ld	ra,8(sp)
 564              		.cfi_restore 1
 565 0220 03340100 		ld	s0,0(sp)
 566              		.cfi_restore 8
 567              		.cfi_def_cfa 2, 16
 568 0224 13010101 		addi	sp,sp,16
 569              		.cfi_def_cfa_offset 0
 570 0228 67800000 		jr	ra
 571              		.cfi_endproc
 572              	.LFE28:
 574              		.align	2
 575              		.globl	_ZN6ThreadC2EPFvPvES0_
 577              	_ZN6ThreadC2EPFvPvES0_:
 578              	.LFB30:
  45:src/syscall_cpp.cpp ****     int status = thread_attach_body(&myHandle, body, arg);
 579              		.loc 2 45 1 is_stmt 1
 580              		.cfi_startproc
 581              	.LVL41:
GAS LISTING /tmp/ccNMnrKP.s 			page 14


 582 022c 130101FE 		addi	sp,sp,-32
 583              		.cfi_def_cfa_offset 32
 584 0230 233C1100 		sd	ra,24(sp)
 585 0234 23388100 		sd	s0,16(sp)
 586 0238 23349100 		sd	s1,8(sp)
 587              		.cfi_offset 1, -8
 588              		.cfi_offset 8, -16
 589              		.cfi_offset 9, -24
 590 023c 13040102 		addi	s0,sp,32
 591              		.cfi_def_cfa 8, 0
 592 0240 93040500 		mv	s1,a0
 593              	.LBB16:
  45:src/syscall_cpp.cpp ****     int status = thread_attach_body(&myHandle, body, arg);
 594              		.loc 2 45 46 is_stmt 0
 595 0244 97070000 		lla	a5,_ZTV6Thread+16
 595      93870700 
 596 024c 2330F500 		sd	a5,0(a0)
 597              	.LBB17:
  46:src/syscall_cpp.cpp ****     if(status == -1)
 598              		.loc 2 46 5 is_stmt 1
  46:src/syscall_cpp.cpp ****     if(status == -1)
 599              		.loc 2 46 36 is_stmt 0
 600 0250 13058500 		addi	a0,a0,8
 601              	.LVL42:
 602 0254 97000000 		call	_Z18thread_attach_bodyPP7_threadPFvPvES2_@plt
 602      E7800000 
 603              	.LVL43:
  47:src/syscall_cpp.cpp ****         myHandle = nullptr;
 604              		.loc 2 47 5 is_stmt 1
 605 025c 9307F0FF 		li	a5,-1
 606 0260 630CF500 		beq	a0,a5,.L38
 607              	.L35:
 608              	.LBE17:
 609              	.LBE16:
  49:src/syscall_cpp.cpp **** 
 610              		.loc 2 49 1 is_stmt 0
 611 0264 83308101 		ld	ra,24(sp)
 612              		.cfi_remember_state
 613              		.cfi_restore 1
 614 0268 03340101 		ld	s0,16(sp)
 615              		.cfi_restore 8
 616              		.cfi_def_cfa 2, 32
 617 026c 83348100 		ld	s1,8(sp)
 618              		.cfi_restore 9
 619              	.LVL44:
 620 0270 13010102 		addi	sp,sp,32
 621              		.cfi_def_cfa_offset 0
 622 0274 67800000 		jr	ra
 623              	.LVL45:
 624              	.L38:
 625              		.cfi_restore_state
 626              	.LBB19:
 627              	.LBB18:
  48:src/syscall_cpp.cpp **** }
 628              		.loc 2 48 9 is_stmt 1
  48:src/syscall_cpp.cpp **** }
 629              		.loc 2 48 18 is_stmt 0
GAS LISTING /tmp/ccNMnrKP.s 			page 15


 630 0278 23B40400 		sd	zero,8(s1)
 631              	.LBE18:
 632              	.LBE19:
  49:src/syscall_cpp.cpp **** 
 633              		.loc 2 49 1
 634 027c 6FF09FFE 		j	.L35
 635              		.cfi_endproc
 636              	.LFE30:
 638              		.globl	_ZN6ThreadC1EPFvPvES0_
 639              		.set	_ZN6ThreadC1EPFvPvES0_,_ZN6ThreadC2EPFvPvES0_
 640              		.align	2
 641              		.globl	_ZN6ThreadC2Ev
 643              	_ZN6ThreadC2Ev:
 644              	.LFB34:
  56:src/syscall_cpp.cpp ****     int status = thread_attach_body(&myHandle, &Thread::wrapper, this);
 645              		.loc 2 56 1 is_stmt 1
 646              		.cfi_startproc
 647              	.LVL46:
 648 0280 130101FE 		addi	sp,sp,-32
 649              		.cfi_def_cfa_offset 32
 650 0284 233C1100 		sd	ra,24(sp)
 651 0288 23388100 		sd	s0,16(sp)
 652 028c 23349100 		sd	s1,8(sp)
 653              		.cfi_offset 1, -8
 654              		.cfi_offset 8, -16
 655              		.cfi_offset 9, -24
 656 0290 13040102 		addi	s0,sp,32
 657              		.cfi_def_cfa 8, 0
 658 0294 93040500 		mv	s1,a0
 659              	.LBB20:
  56:src/syscall_cpp.cpp ****     int status = thread_attach_body(&myHandle, &Thread::wrapper, this);
 660              		.loc 2 56 16 is_stmt 0
 661 0298 97070000 		lla	a5,_ZTV6Thread+16
 661      93870700 
 662 02a0 2330F500 		sd	a5,0(a0)
 663              	.LBB21:
  57:src/syscall_cpp.cpp ****     if(status == -1)
 664              		.loc 2 57 5 is_stmt 1
  57:src/syscall_cpp.cpp ****     if(status == -1)
 665              		.loc 2 57 36 is_stmt 0
 666 02a4 13060500 		mv	a2,a0
 667 02a8 97050000 		lla	a1,_ZN6Thread7wrapperEPv
 667      93850500 
 668 02b0 13058500 		addi	a0,a0,8
 669              	.LVL47:
 670 02b4 97000000 		call	_Z18thread_attach_bodyPP7_threadPFvPvES2_@plt
 670      E7800000 
 671              	.LVL48:
  58:src/syscall_cpp.cpp ****         myHandle = nullptr;
 672              		.loc 2 58 5 is_stmt 1
 673 02bc 9307F0FF 		li	a5,-1
 674 02c0 630CF500 		beq	a0,a5,.L42
 675              	.L39:
 676              	.LBE21:
 677              	.LBE20:
  60:src/syscall_cpp.cpp **** 
 678              		.loc 2 60 1 is_stmt 0
GAS LISTING /tmp/ccNMnrKP.s 			page 16


 679 02c4 83308101 		ld	ra,24(sp)
 680              		.cfi_remember_state
 681              		.cfi_restore 1
 682 02c8 03340101 		ld	s0,16(sp)
 683              		.cfi_restore 8
 684              		.cfi_def_cfa 2, 32
 685 02cc 83348100 		ld	s1,8(sp)
 686              		.cfi_restore 9
 687              	.LVL49:
 688 02d0 13010102 		addi	sp,sp,32
 689              		.cfi_def_cfa_offset 0
 690 02d4 67800000 		jr	ra
 691              	.LVL50:
 692              	.L42:
 693              		.cfi_restore_state
 694              	.LBB23:
 695              	.LBB22:
  59:src/syscall_cpp.cpp **** }
 696              		.loc 2 59 9 is_stmt 1
  59:src/syscall_cpp.cpp **** }
 697              		.loc 2 59 18 is_stmt 0
 698 02d8 23B40400 		sd	zero,8(s1)
 699              	.LBE22:
 700              	.LBE23:
  60:src/syscall_cpp.cpp **** 
 701              		.loc 2 60 1
 702 02dc 6FF09FFE 		j	.L39
 703              		.cfi_endproc
 704              	.LFE34:
 706              		.globl	_ZN6ThreadC1Ev
 707              		.set	_ZN6ThreadC1Ev,_ZN6ThreadC2Ev
 708              		.align	2
 709              		.globl	_ZN6Thread5sleepEm
 711              	_ZN6Thread5sleepEm:
 712              	.LFB36:
  62:src/syscall_cpp.cpp ****     return time_sleep(time);
 713              		.loc 2 62 32 is_stmt 1
 714              		.cfi_startproc
 715              	.LVL51:
 716 02e0 130101FF 		addi	sp,sp,-16
 717              		.cfi_def_cfa_offset 16
 718 02e4 23341100 		sd	ra,8(sp)
 719 02e8 23308100 		sd	s0,0(sp)
 720              		.cfi_offset 1, -8
 721              		.cfi_offset 8, -16
 722 02ec 13040101 		addi	s0,sp,16
 723              		.cfi_def_cfa 8, 0
  63:src/syscall_cpp.cpp **** }
 724              		.loc 2 63 5
  63:src/syscall_cpp.cpp **** }
 725              		.loc 2 63 22 is_stmt 0
 726 02f0 97000000 		call	_Z10time_sleepm@plt
 726      E7800000 
 727              	.LVL52:
  64:src/syscall_cpp.cpp **** 
 728              		.loc 2 64 1
 729 02f8 83308100 		ld	ra,8(sp)
GAS LISTING /tmp/ccNMnrKP.s 			page 17


 730              		.cfi_restore 1
 731 02fc 03340100 		ld	s0,0(sp)
 732              		.cfi_restore 8
 733              		.cfi_def_cfa 2, 16
 734 0300 13010101 		addi	sp,sp,16
 735              		.cfi_def_cfa_offset 0
 736 0304 67800000 		jr	ra
 737              		.cfi_endproc
 738              	.LFE36:
 740              		.align	2
 741              		.globl	_ZN14PeriodicThread7wrapperEPv
 743              	_ZN14PeriodicThread7wrapperEPv:
 744              	.LFB46:
  77:src/syscall_cpp.cpp **** 
  78:src/syscall_cpp.cpp **** PeriodicThread::PeriodicThread(time_t period) : Thread(&PeriodicThread::wrapper, new Args((void*)th
  79:src/syscall_cpp.cpp **** 
  80:src/syscall_cpp.cpp **** void PeriodicThread::wrapper(void *arg) {
 745              		.loc 2 80 41 is_stmt 1
 746              		.cfi_startproc
 747              	.LVL53:
 748 0308 130101FE 		addi	sp,sp,-32
 749              		.cfi_def_cfa_offset 32
 750 030c 233C1100 		sd	ra,24(sp)
 751 0310 23388100 		sd	s0,16(sp)
 752 0314 23349100 		sd	s1,8(sp)
 753 0318 23302101 		sd	s2,0(sp)
 754              		.cfi_offset 1, -8
 755              		.cfi_offset 8, -16
 756              		.cfi_offset 9, -24
 757              		.cfi_offset 18, -32
 758 031c 13040102 		addi	s0,sp,32
 759              		.cfi_def_cfa 8, 0
  81:src/syscall_cpp.cpp ****     PeriodicThread *pt =(PeriodicThread*) ((Args*)arg)->pt;
 760              		.loc 2 81 5
 761              		.loc 2 81 21 is_stmt 0
 762 0320 83340500 		ld	s1,0(a0)
 763              	.LVL54:
  82:src/syscall_cpp.cpp ****     uint64 time = ((Args*)arg)->time;
 764              		.loc 2 82 5 is_stmt 1
 765              		.loc 2 82 12 is_stmt 0
 766 0324 03398500 		ld	s2,8(a0)
 767              	.LVL55:
 768              	.L46:
  83:src/syscall_cpp.cpp **** 
  84:src/syscall_cpp.cpp ****     while(true){
 769              		.loc 2 84 5 is_stmt 1 discriminator 1
  85:src/syscall_cpp.cpp ****         pt->periodicActivation();
 770              		.loc 2 85 9 discriminator 1
 771              		.loc 2 85 32 is_stmt 0 discriminator 1
 772 0328 83B70400 		ld	a5,0(s1)
 773 032c 83B78701 		ld	a5,24(a5)
 774              		.loc 2 85 31 discriminator 1
 775 0330 13850400 		mv	a0,s1
 776 0334 E7800700 		jalr	a5
 777              	.LVL56:
  86:src/syscall_cpp.cpp ****         pt->sleep(time);
 778              		.loc 2 86 9 is_stmt 1 discriminator 1
GAS LISTING /tmp/ccNMnrKP.s 			page 18


 779              		.loc 2 86 18 is_stmt 0 discriminator 1
 780 0338 13050900 		mv	a0,s2
 781 033c 97000000 		call	_ZN6Thread5sleepEm
 781      E7800000 
 782              	.LVL57:
  84:src/syscall_cpp.cpp ****         pt->periodicActivation();
 783              		.loc 2 84 5 is_stmt 1 discriminator 1
 784 0344 6FF05FFE 		j	.L46
 785              		.cfi_endproc
 786              	.LFE46:
 788              		.align	2
 789              		.globl	_ZN6Thread8dispatchEv
 791              	_ZN6Thread8dispatchEv:
 792              	.LFB37:
  66:src/syscall_cpp.cpp ****     thread_dispatch();
 793              		.loc 2 66 25
 794              		.cfi_startproc
 795 0348 130101FF 		addi	sp,sp,-16
 796              		.cfi_def_cfa_offset 16
 797 034c 23341100 		sd	ra,8(sp)
 798 0350 23308100 		sd	s0,0(sp)
 799              		.cfi_offset 1, -8
 800              		.cfi_offset 8, -16
 801 0354 13040101 		addi	s0,sp,16
 802              		.cfi_def_cfa 8, 0
  67:src/syscall_cpp.cpp **** }
 803              		.loc 2 67 5
  67:src/syscall_cpp.cpp **** }
 804              		.loc 2 67 20 is_stmt 0
 805 0358 97000000 		call	_Z15thread_dispatchv@plt
 805      E7800000 
 806              	.LVL58:
  68:src/syscall_cpp.cpp **** 
 807              		.loc 2 68 1
 808 0360 83308100 		ld	ra,8(sp)
 809              		.cfi_restore 1
 810 0364 03340100 		ld	s0,0(sp)
 811              		.cfi_restore 8
 812              		.cfi_def_cfa 2, 16
 813 0368 13010101 		addi	sp,sp,16
 814              		.cfi_def_cfa_offset 0
 815 036c 67800000 		jr	ra
 816              		.cfi_endproc
 817              	.LFE37:
 819              		.align	2
 820              		.globl	_ZN6Thread5startEv
 822              	_ZN6Thread5startEv:
 823              	.LFB38:
  70:src/syscall_cpp.cpp ****     return thread_start(myHandle);
 824              		.loc 2 70 21 is_stmt 1
 825              		.cfi_startproc
 826              	.LVL59:
 827 0370 130101FF 		addi	sp,sp,-16
 828              		.cfi_def_cfa_offset 16
 829 0374 23341100 		sd	ra,8(sp)
 830 0378 23308100 		sd	s0,0(sp)
 831              		.cfi_offset 1, -8
GAS LISTING /tmp/ccNMnrKP.s 			page 19


 832              		.cfi_offset 8, -16
 833 037c 13040101 		addi	s0,sp,16
 834              		.cfi_def_cfa 8, 0
  71:src/syscall_cpp.cpp **** }
 835              		.loc 2 71 5
  71:src/syscall_cpp.cpp **** }
 836              		.loc 2 71 24 is_stmt 0
 837 0380 03358500 		ld	a0,8(a0)
 838              	.LVL60:
 839 0384 97000000 		call	_Z12thread_startP7_thread@plt
 839      E7800000 
 840              	.LVL61:
  72:src/syscall_cpp.cpp **** 
 841              		.loc 2 72 1
 842 038c 83308100 		ld	ra,8(sp)
 843              		.cfi_restore 1
 844 0390 03340100 		ld	s0,0(sp)
 845              		.cfi_restore 8
 846              		.cfi_def_cfa 2, 16
 847 0394 13010101 		addi	sp,sp,16
 848              		.cfi_def_cfa_offset 0
 849 0398 67800000 		jr	ra
 850              		.cfi_endproc
 851              	.LFE38:
 853              		.align	2
 854              		.globl	_ZN14PeriodicThreadC2Em
 856              	_ZN14PeriodicThreadC2Em:
 857              	.LFB44:
  78:src/syscall_cpp.cpp **** 
 858              		.loc 2 78 1 is_stmt 1
 859              		.cfi_startproc
 860              	.LVL62:
 861 039c 130101FE 		addi	sp,sp,-32
 862              		.cfi_def_cfa_offset 32
 863 03a0 233C1100 		sd	ra,24(sp)
 864 03a4 23388100 		sd	s0,16(sp)
 865 03a8 23349100 		sd	s1,8(sp)
 866 03ac 23302101 		sd	s2,0(sp)
 867              		.cfi_offset 1, -8
 868              		.cfi_offset 8, -16
 869              		.cfi_offset 9, -24
 870              		.cfi_offset 18, -32
 871 03b0 13040102 		addi	s0,sp,32
 872              		.cfi_def_cfa 8, 0
 873 03b4 93040500 		mv	s1,a0
 874 03b8 13890500 		mv	s2,a1
 875              	.LBB24:
  78:src/syscall_cpp.cpp **** 
 876              		.loc 2 78 110 is_stmt 0
 877 03bc 13050001 		li	a0,16
 878              	.LVL63:
 879 03c0 97000000 		call	_Znwm
 879      E7800000 
 880              	.LVL64:
 881 03c8 13060500 		mv	a2,a0
  78:src/syscall_cpp.cpp **** 
 882              		.loc 2 78 82
GAS LISTING /tmp/ccNMnrKP.s 			page 20


 883 03cc 63060500 		beqz	a0,.L53
 884              	.LVL65:
 885              	.LBB25:
 886              	.LBB26:
  14:src/syscall_cpp.cpp **** };
 887              		.loc 2 14 44
 888 03d0 23309500 		sd	s1,0(a0)
 889 03d4 23342501 		sd	s2,8(a0)
 890              	.LVL66:
 891              	.L53:
 892              	.LBE26:
 893              	.LBE25:
  78:src/syscall_cpp.cpp **** 
 894              		.loc 2 78 111 discriminator 4
 895 03d8 97050000 		lla	a1,_ZN14PeriodicThread7wrapperEPv
 895      93850500 
 896 03e0 13850400 		mv	a0,s1
 897 03e4 97000000 		call	_ZN6ThreadC2EPFvPvES0_
 897      E7800000 
 898              	.LVL67:
 899 03ec 97070000 		lla	a5,_ZTV14PeriodicThread+16
 899      93870700 
 900 03f4 23B0F400 		sd	a5,0(s1)
 901              	.LBE24:
  78:src/syscall_cpp.cpp **** 
 902              		.loc 2 78 113 discriminator 4
 903 03f8 83308101 		ld	ra,24(sp)
 904              		.cfi_restore 1
 905 03fc 03340101 		ld	s0,16(sp)
 906              		.cfi_restore 8
 907              		.cfi_def_cfa 2, 32
 908 0400 83348100 		ld	s1,8(sp)
 909              		.cfi_restore 9
 910              	.LVL68:
 911 0404 03390100 		ld	s2,0(sp)
 912              		.cfi_restore 18
 913              	.LVL69:
 914 0408 13010102 		addi	sp,sp,32
 915              		.cfi_def_cfa_offset 0
 916 040c 67800000 		jr	ra
 917              		.cfi_endproc
 918              	.LFE44:
 920              		.globl	_ZN14PeriodicThreadC1Em
 921              		.set	_ZN14PeriodicThreadC1Em,_ZN14PeriodicThreadC2Em
 922              		.align	2
 923              		.globl	_ZN7Console4getcEv
 925              	_ZN7Console4getcEv:
 926              	.LFB47:
  87:src/syscall_cpp.cpp ****     }
  88:src/syscall_cpp.cpp **** }
  89:src/syscall_cpp.cpp **** 
  90:src/syscall_cpp.cpp **** char Console::getc() {
 927              		.loc 2 90 22 is_stmt 1
 928              		.cfi_startproc
 929 0410 130101FF 		addi	sp,sp,-16
 930              		.cfi_def_cfa_offset 16
 931 0414 23341100 		sd	ra,8(sp)
GAS LISTING /tmp/ccNMnrKP.s 			page 21


 932 0418 23308100 		sd	s0,0(sp)
 933              		.cfi_offset 1, -8
 934              		.cfi_offset 8, -16
 935 041c 13040101 		addi	s0,sp,16
 936              		.cfi_def_cfa 8, 0
  91:src/syscall_cpp.cpp ****     return ::getc();
 937              		.loc 2 91 5
 938              		.loc 2 91 18 is_stmt 0
 939 0420 97000000 		call	_Z4getcv@plt
 939      E7800000 
 940              	.LVL70:
  92:src/syscall_cpp.cpp **** }
 941              		.loc 2 92 1
 942 0428 83308100 		ld	ra,8(sp)
 943              		.cfi_restore 1
 944 042c 03340100 		ld	s0,0(sp)
 945              		.cfi_restore 8
 946              		.cfi_def_cfa 2, 16
 947 0430 13010101 		addi	sp,sp,16
 948              		.cfi_def_cfa_offset 0
 949 0434 67800000 		jr	ra
 950              		.cfi_endproc
 951              	.LFE47:
 953              		.align	2
 954              		.globl	_ZN7Console4putcEc
 956              	_ZN7Console4putcEc:
 957              	.LFB48:
  93:src/syscall_cpp.cpp **** 
  94:src/syscall_cpp.cpp **** void Console::putc(char c) {
 958              		.loc 2 94 28 is_stmt 1
 959              		.cfi_startproc
 960              	.LVL71:
 961 0438 130101FF 		addi	sp,sp,-16
 962              		.cfi_def_cfa_offset 16
 963 043c 23341100 		sd	ra,8(sp)
 964 0440 23308100 		sd	s0,0(sp)
 965              		.cfi_offset 1, -8
 966              		.cfi_offset 8, -16
 967 0444 13040101 		addi	s0,sp,16
 968              		.cfi_def_cfa 8, 0
  95:src/syscall_cpp.cpp ****     ::putc(c);
 969              		.loc 2 95 5
 970              		.loc 2 95 11 is_stmt 0
 971 0448 97000000 		call	_Z4putcc@plt
 971      E7800000 
 972              	.LVL72:
  96:src/syscall_cpp.cpp **** }
 973              		.loc 2 96 1
 974 0450 83308100 		ld	ra,8(sp)
 975              		.cfi_restore 1
 976 0454 03340100 		ld	s0,0(sp)
 977              		.cfi_restore 8
 978              		.cfi_def_cfa 2, 16
 979 0458 13010101 		addi	sp,sp,16
 980              		.cfi_def_cfa_offset 0
 981 045c 67800000 		jr	ra
 982              		.cfi_endproc
GAS LISTING /tmp/ccNMnrKP.s 			page 22


 983              	.LFE48:
 985              		.weak	_ZTV14PeriodicThread
 986              		.section	.data.rel.ro.local._ZTV14PeriodicThread,"awG",@progbits,_ZTV14PeriodicThread,comdat
 987              		.align	3
 990              	_ZTV14PeriodicThread:
 991 0000 00000000 		.dword	0
 991      00000000 
 992 0008 00000000 		.dword	0
 992      00000000 
 993 0010 00000000 		.dword	_ZN14PeriodicThreadD1Ev
 993      00000000 
 994 0018 00000000 		.dword	_ZN14PeriodicThreadD0Ev
 994      00000000 
 995 0020 00000000 		.dword	_ZN6Thread3runEv
 995      00000000 
 996 0028 00000000 		.dword	_ZN14PeriodicThread18periodicActivationEv
 996      00000000 
 997              		.weak	_ZTV9Semaphore
 998              		.section	.data.rel.ro.local._ZTV9Semaphore,"awG",@progbits,_ZTV9Semaphore,comdat
 999              		.align	3
 1002              	_ZTV9Semaphore:
 1003 0000 00000000 		.dword	0
 1003      00000000 
 1004 0008 00000000 		.dword	0
 1004      00000000 
 1005 0010 00000000 		.dword	_ZN9SemaphoreD1Ev
 1005      00000000 
 1006 0018 00000000 		.dword	_ZN9SemaphoreD0Ev
 1006      00000000 
 1007              		.weak	_ZTV6Thread
 1008              		.section	.data.rel.ro.local._ZTV6Thread,"awG",@progbits,_ZTV6Thread,comdat
 1009              		.align	3
 1012              	_ZTV6Thread:
 1013 0000 00000000 		.dword	0
 1013      00000000 
 1014 0008 00000000 		.dword	0
 1014      00000000 
 1015 0010 00000000 		.dword	_ZN6ThreadD1Ev
 1015      00000000 
 1016 0018 00000000 		.dword	_ZN6ThreadD0Ev
 1016      00000000 
 1017 0020 00000000 		.dword	_ZN6Thread3runEv
 1017      00000000 
 1018              		.text
 1019              	.Letext0:
 1020              		.file 3 "src/../h/../lib/hw.h"
 1021              		.file 4 "src/../h/../h/../h/_thread.hpp"
 1022              		.file 5 "src/../h/../h/../h/_semaphore.hpp"
 1023              		.file 6 "src/../h/../h/syscall_c.h"
 4505              		.align	3
 4508              	DW.ref.__gxx_personality_v0:
 4509 0000 00000000 		.dword	__gxx_personality_v0
 4509      00000000 
 4510              		.ident	"GCC: (Ubuntu 9.4.0-1ubuntu1~20.04) 9.4.0"
 4511              		.section	.note.GNU-stack,"",@progbits
GAS LISTING /tmp/ccNMnrKP.s 			page 23


DEFINED SYMBOLS
                            *ABS*:0000000000000000 syscall_cpp.cpp
     /tmp/ccNMnrKP.s:10     .text._ZN6Thread3runEv:0000000000000000 _ZN6Thread3runEv
     /tmp/ccNMnrKP.s:14     .text._ZN6Thread3runEv:0000000000000000 .L0 
     /tmp/ccNMnrKP.s:16     .text._ZN6Thread3runEv:0000000000000000 .L0 
     /tmp/ccNMnrKP.s:17     .text._ZN6Thread3runEv:0000000000000004 .L0 
     /tmp/ccNMnrKP.s:19     .text._ZN6Thread3runEv:0000000000000008 .L0 
     /tmp/ccNMnrKP.s:21     .text._ZN6Thread3runEv:000000000000000c .L0 
     /tmp/ccNMnrKP.s:23     .text._ZN6Thread3runEv:000000000000000c .L0 
     /tmp/ccNMnrKP.s:24     .text._ZN6Thread3runEv:0000000000000010 .L0 
     /tmp/ccNMnrKP.s:25     .text._ZN6Thread3runEv:0000000000000010 .L0 
     /tmp/ccNMnrKP.s:27     .text._ZN6Thread3runEv:0000000000000014 .L0 
     /tmp/ccNMnrKP.s:29     .text._ZN6Thread3runEv:0000000000000018 .L0 
     /tmp/ccNMnrKP.s:36     .text._ZN14PeriodicThread18periodicActivationEv:0000000000000000 _ZN14PeriodicThread18periodicActivationEv
     /tmp/ccNMnrKP.s:39     .text._ZN14PeriodicThread18periodicActivationEv:0000000000000000 .L0 
     /tmp/ccNMnrKP.s:41     .text._ZN14PeriodicThread18periodicActivationEv:0000000000000000 .L0 
     /tmp/ccNMnrKP.s:42     .text._ZN14PeriodicThread18periodicActivationEv:0000000000000004 .L0 
     /tmp/ccNMnrKP.s:44     .text._ZN14PeriodicThread18periodicActivationEv:0000000000000008 .L0 
     /tmp/ccNMnrKP.s:46     .text._ZN14PeriodicThread18periodicActivationEv:000000000000000c .L0 
     /tmp/ccNMnrKP.s:48     .text._ZN14PeriodicThread18periodicActivationEv:000000000000000c .L0 
     /tmp/ccNMnrKP.s:49     .text._ZN14PeriodicThread18periodicActivationEv:0000000000000010 .L0 
     /tmp/ccNMnrKP.s:50     .text._ZN14PeriodicThread18periodicActivationEv:0000000000000010 .L0 
     /tmp/ccNMnrKP.s:52     .text._ZN14PeriodicThread18periodicActivationEv:0000000000000014 .L0 
     /tmp/ccNMnrKP.s:54     .text._ZN14PeriodicThread18periodicActivationEv:0000000000000018 .L0 
     /tmp/ccNMnrKP.s:61     .text:0000000000000000 _ZN6Thread7wrapperEPv
     /tmp/ccNMnrKP.s:65     .text:0000000000000000 .L0 
     /tmp/ccNMnrKP.s:67     .text:0000000000000000 .L0 
     /tmp/ccNMnrKP.s:68     .text:0000000000000004 .L0 
     /tmp/ccNMnrKP.s:71     .text:000000000000000c .L0 
     /tmp/ccNMnrKP.s:72     .text:000000000000000c .L0 
     /tmp/ccNMnrKP.s:74     .text:0000000000000010 .L0 
     /tmp/ccNMnrKP.s:77     .text:0000000000000010 .L0 
     /tmp/ccNMnrKP.s:78     .text:0000000000000010 .L0 
     /tmp/ccNMnrKP.s:79     .text:0000000000000010 .L0 
     /tmp/ccNMnrKP.s:82     .text:0000000000000018 .L0 
     /tmp/ccNMnrKP.s:85     .text:000000000000001c .L0 
     /tmp/ccNMnrKP.s:86     .text:0000000000000020 .L0 
     /tmp/ccNMnrKP.s:88     .text:0000000000000024 .L0 
     /tmp/ccNMnrKP.s:89     .text:0000000000000024 .L0 
     /tmp/ccNMnrKP.s:91     .text:0000000000000028 .L0 
     /tmp/ccNMnrKP.s:93     .text:000000000000002c .L0 
     /tmp/ccNMnrKP.s:99     .text:000000000000002c _ZN9SemaphoreD2Ev
     /tmp/ccNMnrKP.s:102    .text:000000000000002c .L0 
     /tmp/ccNMnrKP.s:4508   .data.rel.local.DW.ref.__gxx_personality_v0:0000000000000000 DW.ref.__gxx_personality_v0
     /tmp/ccNMnrKP.s:106    .text:000000000000002c .L0 
     /tmp/ccNMnrKP.s:107    .text:0000000000000030 .L0 
     /tmp/ccNMnrKP.s:110    .text:0000000000000038 .L0 
     /tmp/ccNMnrKP.s:111    .text:0000000000000038 .L0 
     /tmp/ccNMnrKP.s:113    .text:000000000000003c .L0 
     /tmp/ccNMnrKP.s:1002   .data.rel.ro.local._ZTV9Semaphore:0000000000000000 _ZTV9Semaphore
     /tmp/ccNMnrKP.s:116    .text:000000000000003c .L0 
     /tmp/ccNMnrKP.s:119    .text:0000000000000048 .L0 
     /tmp/ccNMnrKP.s:120    .text:0000000000000048 .L0 
     /tmp/ccNMnrKP.s:126    .text:0000000000000054 .L0 
     /tmp/ccNMnrKP.s:127    .text:0000000000000058 .L0 
     /tmp/ccNMnrKP.s:129    .text:000000000000005c .L0 
     /tmp/ccNMnrKP.s:130    .text:000000000000005c .L0 
GAS LISTING /tmp/ccNMnrKP.s 			page 24


     /tmp/ccNMnrKP.s:132    .text:0000000000000060 .L0 
     /tmp/ccNMnrKP.s:134    .text:0000000000000064 .L0 
     /tmp/ccNMnrKP.s:99     .text:000000000000002c _ZN9SemaphoreD1Ev
     /tmp/ccNMnrKP.s:150    .text:0000000000000064 _ZN6ThreadD2Ev
     /tmp/ccNMnrKP.s:153    .text:0000000000000064 .L0 
     /tmp/ccNMnrKP.s:158    .text:0000000000000064 .L0 
     /tmp/ccNMnrKP.s:1012   .data.rel.ro.local._ZTV6Thread:0000000000000000 _ZTV6Thread
     /tmp/ccNMnrKP.s:159    .text:0000000000000064 .L0 
     /tmp/ccNMnrKP.s:162    .text:0000000000000070 .L0 
     /tmp/ccNMnrKP.s:163    .text:0000000000000070 .L0 
     /tmp/ccNMnrKP.s:166    .text:0000000000000074 .L0 
     /tmp/ccNMnrKP.s:169    .text:0000000000000078 .L0 
     /tmp/ccNMnrKP.s:170    .text:000000000000007c .L0 
     /tmp/ccNMnrKP.s:173    .text:0000000000000084 .L0 
     /tmp/ccNMnrKP.s:174    .text:0000000000000084 .L0 
     /tmp/ccNMnrKP.s:176    .text:0000000000000088 .L0 
     /tmp/ccNMnrKP.s:179    .text:0000000000000088 .L0 
     /tmp/ccNMnrKP.s:183    .text:0000000000000090 .L0 
     /tmp/ccNMnrKP.s:184    .text:0000000000000094 .L0 
     /tmp/ccNMnrKP.s:186    .text:0000000000000098 .L0 
     /tmp/ccNMnrKP.s:187    .text:0000000000000098 .L0 
     /tmp/ccNMnrKP.s:189    .text:000000000000009c .L0 
     /tmp/ccNMnrKP.s:193    .text:00000000000000a4 .L0 
     /tmp/ccNMnrKP.s:150    .text:0000000000000064 _ZN6ThreadD1Ev
     /tmp/ccNMnrKP.s:209    .text._ZN14PeriodicThreadD2Ev:0000000000000000 _ZN14PeriodicThreadD2Ev
     /tmp/ccNMnrKP.s:212    .text._ZN14PeriodicThreadD2Ev:0000000000000000 .L0 
     /tmp/ccNMnrKP.s:214    .text._ZN14PeriodicThreadD2Ev:0000000000000000 .L0 
     /tmp/ccNMnrKP.s:215    .text._ZN14PeriodicThreadD2Ev:0000000000000004 .L0 
     /tmp/ccNMnrKP.s:218    .text._ZN14PeriodicThreadD2Ev:000000000000000c .L0 
     /tmp/ccNMnrKP.s:219    .text._ZN14PeriodicThreadD2Ev:000000000000000c .L0 
     /tmp/ccNMnrKP.s:221    .text._ZN14PeriodicThreadD2Ev:0000000000000010 .L0 
     /tmp/ccNMnrKP.s:990    .data.rel.ro.local._ZTV14PeriodicThread:0000000000000000 _ZTV14PeriodicThread
     /tmp/ccNMnrKP.s:224    .text._ZN14PeriodicThreadD2Ev:0000000000000010 .L0 
     /tmp/ccNMnrKP.s:230    .text._ZN14PeriodicThreadD2Ev:0000000000000028 .L0 
     /tmp/ccNMnrKP.s:232    .text._ZN14PeriodicThreadD2Ev:000000000000002c .L0 
     /tmp/ccNMnrKP.s:233    .text._ZN14PeriodicThreadD2Ev:000000000000002c .L0 
     /tmp/ccNMnrKP.s:235    .text._ZN14PeriodicThreadD2Ev:0000000000000030 .L0 
     /tmp/ccNMnrKP.s:237    .text._ZN14PeriodicThreadD2Ev:0000000000000034 .L0 
     /tmp/ccNMnrKP.s:209    .text._ZN14PeriodicThreadD2Ev:0000000000000000 _ZN14PeriodicThreadD1Ev
     /tmp/ccNMnrKP.s:246    .text:00000000000000a4 _Znwm
     /tmp/ccNMnrKP.s:249    .text:00000000000000a4 .L0 
     /tmp/ccNMnrKP.s:251    .text:00000000000000a4 .L0 
     /tmp/ccNMnrKP.s:252    .text:00000000000000a8 .L0 
     /tmp/ccNMnrKP.s:255    .text:00000000000000b0 .L0 
     /tmp/ccNMnrKP.s:256    .text:00000000000000b0 .L0 
     /tmp/ccNMnrKP.s:258    .text:00000000000000b4 .L0 
     /tmp/ccNMnrKP.s:260    .text:00000000000000b4 .L0 
     /tmp/ccNMnrKP.s:261    .text:00000000000000b4 .L0 
     /tmp/ccNMnrKP.s:264    .text:00000000000000bc .L0 
     /tmp/ccNMnrKP.s:265    .text:00000000000000c0 .L0 
     /tmp/ccNMnrKP.s:267    .text:00000000000000c4 .L0 
     /tmp/ccNMnrKP.s:268    .text:00000000000000c4 .L0 
     /tmp/ccNMnrKP.s:270    .text:00000000000000c8 .L0 
     /tmp/ccNMnrKP.s:272    .text:00000000000000cc .L0 
     /tmp/ccNMnrKP.s:278    .text:00000000000000cc _Znam
     /tmp/ccNMnrKP.s:281    .text:00000000000000cc .L0 
     /tmp/ccNMnrKP.s:283    .text:00000000000000cc .L0 
GAS LISTING /tmp/ccNMnrKP.s 			page 25


     /tmp/ccNMnrKP.s:284    .text:00000000000000d0 .L0 
     /tmp/ccNMnrKP.s:287    .text:00000000000000d8 .L0 
     /tmp/ccNMnrKP.s:288    .text:00000000000000d8 .L0 
     /tmp/ccNMnrKP.s:290    .text:00000000000000dc .L0 
     /tmp/ccNMnrKP.s:292    .text:00000000000000dc .L0 
     /tmp/ccNMnrKP.s:293    .text:00000000000000dc .L0 
     /tmp/ccNMnrKP.s:296    .text:00000000000000e4 .L0 
     /tmp/ccNMnrKP.s:297    .text:00000000000000e8 .L0 
     /tmp/ccNMnrKP.s:299    .text:00000000000000ec .L0 
     /tmp/ccNMnrKP.s:300    .text:00000000000000ec .L0 
     /tmp/ccNMnrKP.s:302    .text:00000000000000f0 .L0 
     /tmp/ccNMnrKP.s:304    .text:00000000000000f4 .L0 
     /tmp/ccNMnrKP.s:310    .text:00000000000000f4 _ZdlPv
     /tmp/ccNMnrKP.s:313    .text:00000000000000f4 .L0 
     /tmp/ccNMnrKP.s:315    .text:00000000000000f4 .L0 
     /tmp/ccNMnrKP.s:316    .text:00000000000000f8 .L0 
     /tmp/ccNMnrKP.s:319    .text:0000000000000100 .L0 
     /tmp/ccNMnrKP.s:320    .text:0000000000000100 .L0 
     /tmp/ccNMnrKP.s:322    .text:0000000000000104 .L0 
     /tmp/ccNMnrKP.s:324    .text:0000000000000104 .L0 
     /tmp/ccNMnrKP.s:325    .text:0000000000000104 .L0 
     /tmp/ccNMnrKP.s:328    .text:000000000000010c .L0 
     /tmp/ccNMnrKP.s:329    .text:0000000000000110 .L0 
     /tmp/ccNMnrKP.s:331    .text:0000000000000114 .L0 
     /tmp/ccNMnrKP.s:332    .text:0000000000000114 .L0 
     /tmp/ccNMnrKP.s:334    .text:0000000000000118 .L0 
     /tmp/ccNMnrKP.s:336    .text:000000000000011c .L0 
     /tmp/ccNMnrKP.s:342    .text:000000000000011c _ZN9SemaphoreD0Ev
     /tmp/ccNMnrKP.s:345    .text:000000000000011c .L0 
     /tmp/ccNMnrKP.s:347    .text:000000000000011c .L0 
     /tmp/ccNMnrKP.s:348    .text:0000000000000120 .L0 
     /tmp/ccNMnrKP.s:352    .text:000000000000012c .L0 
     /tmp/ccNMnrKP.s:353    .text:000000000000012c .L0 
     /tmp/ccNMnrKP.s:354    .text:000000000000012c .L0 
     /tmp/ccNMnrKP.s:356    .text:0000000000000130 .L0 
     /tmp/ccNMnrKP.s:359    .text:0000000000000134 .L0 
     /tmp/ccNMnrKP.s:365    .text:000000000000014c .L0 
     /tmp/ccNMnrKP.s:367    .text:0000000000000150 .L0 
     /tmp/ccNMnrKP.s:368    .text:0000000000000150 .L0 
     /tmp/ccNMnrKP.s:370    .text:0000000000000154 .L0 
     /tmp/ccNMnrKP.s:373    .text:0000000000000158 .L0 
     /tmp/ccNMnrKP.s:375    .text:000000000000015c .L0 
     /tmp/ccNMnrKP.s:381    .text:000000000000015c _ZN6ThreadD0Ev
     /tmp/ccNMnrKP.s:384    .text:000000000000015c .L0 
     /tmp/ccNMnrKP.s:386    .text:000000000000015c .L0 
     /tmp/ccNMnrKP.s:387    .text:0000000000000160 .L0 
     /tmp/ccNMnrKP.s:391    .text:000000000000016c .L0 
     /tmp/ccNMnrKP.s:392    .text:000000000000016c .L0 
     /tmp/ccNMnrKP.s:393    .text:000000000000016c .L0 
     /tmp/ccNMnrKP.s:395    .text:0000000000000170 .L0 
     /tmp/ccNMnrKP.s:398    .text:0000000000000174 .L0 
     /tmp/ccNMnrKP.s:404    .text:000000000000018c .L0 
     /tmp/ccNMnrKP.s:406    .text:0000000000000190 .L0 
     /tmp/ccNMnrKP.s:407    .text:0000000000000190 .L0 
     /tmp/ccNMnrKP.s:409    .text:0000000000000194 .L0 
     /tmp/ccNMnrKP.s:412    .text:0000000000000198 .L0 
     /tmp/ccNMnrKP.s:414    .text:000000000000019c .L0 
GAS LISTING /tmp/ccNMnrKP.s 			page 26


     /tmp/ccNMnrKP.s:421    .text._ZN14PeriodicThreadD0Ev:0000000000000000 _ZN14PeriodicThreadD0Ev
     /tmp/ccNMnrKP.s:424    .text._ZN14PeriodicThreadD0Ev:0000000000000000 .L0 
     /tmp/ccNMnrKP.s:426    .text._ZN14PeriodicThreadD0Ev:0000000000000000 .L0 
     /tmp/ccNMnrKP.s:427    .text._ZN14PeriodicThreadD0Ev:0000000000000004 .L0 
     /tmp/ccNMnrKP.s:431    .text._ZN14PeriodicThreadD0Ev:0000000000000010 .L0 
     /tmp/ccNMnrKP.s:432    .text._ZN14PeriodicThreadD0Ev:0000000000000010 .L0 
     /tmp/ccNMnrKP.s:433    .text._ZN14PeriodicThreadD0Ev:0000000000000010 .L0 
     /tmp/ccNMnrKP.s:435    .text._ZN14PeriodicThreadD0Ev:0000000000000014 .L0 
     /tmp/ccNMnrKP.s:441    .text._ZN14PeriodicThreadD0Ev:0000000000000018 .L0 
     /tmp/ccNMnrKP.s:451    .text._ZN14PeriodicThreadD0Ev:000000000000003c .L0 
     /tmp/ccNMnrKP.s:453    .text._ZN14PeriodicThreadD0Ev:0000000000000040 .L0 
     /tmp/ccNMnrKP.s:454    .text._ZN14PeriodicThreadD0Ev:0000000000000040 .L0 
     /tmp/ccNMnrKP.s:456    .text._ZN14PeriodicThreadD0Ev:0000000000000044 .L0 
     /tmp/ccNMnrKP.s:459    .text._ZN14PeriodicThreadD0Ev:0000000000000048 .L0 
     /tmp/ccNMnrKP.s:461    .text._ZN14PeriodicThreadD0Ev:000000000000004c .L0 
     /tmp/ccNMnrKP.s:468    .text:000000000000019c _ZN9SemaphoreC2Ej
     /tmp/ccNMnrKP.s:471    .text:000000000000019c .L0 
     /tmp/ccNMnrKP.s:473    .text:000000000000019c .L0 
     /tmp/ccNMnrKP.s:474    .text:00000000000001a0 .L0 
     /tmp/ccNMnrKP.s:477    .text:00000000000001a8 .L0 
     /tmp/ccNMnrKP.s:478    .text:00000000000001a8 .L0 
     /tmp/ccNMnrKP.s:480    .text:00000000000001ac .L0 
     /tmp/ccNMnrKP.s:483    .text:00000000000001ac .L0 
     /tmp/ccNMnrKP.s:486    .text:00000000000001b8 .L0 
     /tmp/ccNMnrKP.s:487    .text:00000000000001b8 .L0 
     /tmp/ccNMnrKP.s:493    .text:00000000000001c4 .L0 
     /tmp/ccNMnrKP.s:494    .text:00000000000001c8 .L0 
     /tmp/ccNMnrKP.s:496    .text:00000000000001cc .L0 
     /tmp/ccNMnrKP.s:497    .text:00000000000001cc .L0 
     /tmp/ccNMnrKP.s:499    .text:00000000000001d0 .L0 
     /tmp/ccNMnrKP.s:501    .text:00000000000001d4 .L0 
     /tmp/ccNMnrKP.s:468    .text:000000000000019c _ZN9SemaphoreC1Ej
     /tmp/ccNMnrKP.s:509    .text:00000000000001d4 _ZN9Semaphore4waitEv
     /tmp/ccNMnrKP.s:512    .text:00000000000001d4 .L0 
     /tmp/ccNMnrKP.s:514    .text:00000000000001d4 .L0 
     /tmp/ccNMnrKP.s:515    .text:00000000000001d8 .L0 
     /tmp/ccNMnrKP.s:518    .text:00000000000001e0 .L0 
     /tmp/ccNMnrKP.s:519    .text:00000000000001e0 .L0 
     /tmp/ccNMnrKP.s:521    .text:00000000000001e4 .L0 
     /tmp/ccNMnrKP.s:523    .text:00000000000001e4 .L0 
     /tmp/ccNMnrKP.s:524    .text:00000000000001e4 .L0 
     /tmp/ccNMnrKP.s:529    .text:00000000000001f0 .L0 
     /tmp/ccNMnrKP.s:530    .text:00000000000001f4 .L0 
     /tmp/ccNMnrKP.s:532    .text:00000000000001f8 .L0 
     /tmp/ccNMnrKP.s:533    .text:00000000000001f8 .L0 
     /tmp/ccNMnrKP.s:535    .text:00000000000001fc .L0 
     /tmp/ccNMnrKP.s:537    .text:0000000000000200 .L0 
     /tmp/ccNMnrKP.s:543    .text:0000000000000200 _ZN9Semaphore6signalEv
     /tmp/ccNMnrKP.s:546    .text:0000000000000200 .L0 
     /tmp/ccNMnrKP.s:548    .text:0000000000000200 .L0 
     /tmp/ccNMnrKP.s:549    .text:0000000000000204 .L0 
     /tmp/ccNMnrKP.s:552    .text:000000000000020c .L0 
     /tmp/ccNMnrKP.s:553    .text:000000000000020c .L0 
     /tmp/ccNMnrKP.s:555    .text:0000000000000210 .L0 
     /tmp/ccNMnrKP.s:557    .text:0000000000000210 .L0 
     /tmp/ccNMnrKP.s:558    .text:0000000000000210 .L0 
     /tmp/ccNMnrKP.s:563    .text:000000000000021c .L0 
GAS LISTING /tmp/ccNMnrKP.s 			page 27


     /tmp/ccNMnrKP.s:564    .text:0000000000000220 .L0 
     /tmp/ccNMnrKP.s:566    .text:0000000000000224 .L0 
     /tmp/ccNMnrKP.s:567    .text:0000000000000224 .L0 
     /tmp/ccNMnrKP.s:569    .text:0000000000000228 .L0 
     /tmp/ccNMnrKP.s:571    .text:000000000000022c .L0 
     /tmp/ccNMnrKP.s:577    .text:000000000000022c _ZN6ThreadC2EPFvPvES0_
     /tmp/ccNMnrKP.s:580    .text:000000000000022c .L0 
     /tmp/ccNMnrKP.s:582    .text:000000000000022c .L0 
     /tmp/ccNMnrKP.s:583    .text:0000000000000230 .L0 
     /tmp/ccNMnrKP.s:587    .text:000000000000023c .L0 
     /tmp/ccNMnrKP.s:588    .text:000000000000023c .L0 
     /tmp/ccNMnrKP.s:589    .text:000000000000023c .L0 
     /tmp/ccNMnrKP.s:591    .text:0000000000000240 .L0 
     /tmp/ccNMnrKP.s:595    .text:0000000000000244 .L0 
     /tmp/ccNMnrKP.s:599    .text:0000000000000250 .L0 
     /tmp/ccNMnrKP.s:600    .text:0000000000000250 .L0 
     /tmp/ccNMnrKP.s:605    .text:000000000000025c .L0 
     /tmp/ccNMnrKP.s:611    .text:0000000000000264 .L0 
     /tmp/ccNMnrKP.s:612    .text:0000000000000268 .L0 
     /tmp/ccNMnrKP.s:613    .text:0000000000000268 .L0 
     /tmp/ccNMnrKP.s:615    .text:000000000000026c .L0 
     /tmp/ccNMnrKP.s:616    .text:000000000000026c .L0 
     /tmp/ccNMnrKP.s:618    .text:0000000000000270 .L0 
     /tmp/ccNMnrKP.s:621    .text:0000000000000274 .L0 
     /tmp/ccNMnrKP.s:625    .text:0000000000000278 .L0 
     /tmp/ccNMnrKP.s:629    .text:0000000000000278 .L0 
     /tmp/ccNMnrKP.s:630    .text:0000000000000278 .L0 
     /tmp/ccNMnrKP.s:634    .text:000000000000027c .L0 
     /tmp/ccNMnrKP.s:635    .text:0000000000000280 .L0 
     /tmp/ccNMnrKP.s:577    .text:000000000000022c _ZN6ThreadC1EPFvPvES0_
     /tmp/ccNMnrKP.s:643    .text:0000000000000280 _ZN6ThreadC2Ev
     /tmp/ccNMnrKP.s:646    .text:0000000000000280 .L0 
     /tmp/ccNMnrKP.s:648    .text:0000000000000280 .L0 
     /tmp/ccNMnrKP.s:649    .text:0000000000000284 .L0 
     /tmp/ccNMnrKP.s:653    .text:0000000000000290 .L0 
     /tmp/ccNMnrKP.s:654    .text:0000000000000290 .L0 
     /tmp/ccNMnrKP.s:655    .text:0000000000000290 .L0 
     /tmp/ccNMnrKP.s:657    .text:0000000000000294 .L0 
     /tmp/ccNMnrKP.s:661    .text:0000000000000298 .L0 
     /tmp/ccNMnrKP.s:665    .text:00000000000002a4 .L0 
     /tmp/ccNMnrKP.s:666    .text:00000000000002a4 .L0 
     /tmp/ccNMnrKP.s:673    .text:00000000000002bc .L0 
     /tmp/ccNMnrKP.s:679    .text:00000000000002c4 .L0 
     /tmp/ccNMnrKP.s:680    .text:00000000000002c8 .L0 
     /tmp/ccNMnrKP.s:681    .text:00000000000002c8 .L0 
     /tmp/ccNMnrKP.s:683    .text:00000000000002cc .L0 
     /tmp/ccNMnrKP.s:684    .text:00000000000002cc .L0 
     /tmp/ccNMnrKP.s:686    .text:00000000000002d0 .L0 
     /tmp/ccNMnrKP.s:689    .text:00000000000002d4 .L0 
     /tmp/ccNMnrKP.s:693    .text:00000000000002d8 .L0 
     /tmp/ccNMnrKP.s:697    .text:00000000000002d8 .L0 
     /tmp/ccNMnrKP.s:698    .text:00000000000002d8 .L0 
     /tmp/ccNMnrKP.s:702    .text:00000000000002dc .L0 
     /tmp/ccNMnrKP.s:703    .text:00000000000002e0 .L0 
     /tmp/ccNMnrKP.s:643    .text:0000000000000280 _ZN6ThreadC1Ev
     /tmp/ccNMnrKP.s:711    .text:00000000000002e0 _ZN6Thread5sleepEm
     /tmp/ccNMnrKP.s:714    .text:00000000000002e0 .L0 
GAS LISTING /tmp/ccNMnrKP.s 			page 28


     /tmp/ccNMnrKP.s:716    .text:00000000000002e0 .L0 
     /tmp/ccNMnrKP.s:717    .text:00000000000002e4 .L0 
     /tmp/ccNMnrKP.s:720    .text:00000000000002ec .L0 
     /tmp/ccNMnrKP.s:721    .text:00000000000002ec .L0 
     /tmp/ccNMnrKP.s:723    .text:00000000000002f0 .L0 
     /tmp/ccNMnrKP.s:725    .text:00000000000002f0 .L0 
     /tmp/ccNMnrKP.s:726    .text:00000000000002f0 .L0 
     /tmp/ccNMnrKP.s:729    .text:00000000000002f8 .L0 
     /tmp/ccNMnrKP.s:730    .text:00000000000002fc .L0 
     /tmp/ccNMnrKP.s:732    .text:0000000000000300 .L0 
     /tmp/ccNMnrKP.s:733    .text:0000000000000300 .L0 
     /tmp/ccNMnrKP.s:735    .text:0000000000000304 .L0 
     /tmp/ccNMnrKP.s:737    .text:0000000000000308 .L0 
     /tmp/ccNMnrKP.s:743    .text:0000000000000308 _ZN14PeriodicThread7wrapperEPv
     /tmp/ccNMnrKP.s:746    .text:0000000000000308 .L0 
     /tmp/ccNMnrKP.s:748    .text:0000000000000308 .L0 
     /tmp/ccNMnrKP.s:749    .text:000000000000030c .L0 
     /tmp/ccNMnrKP.s:754    .text:000000000000031c .L0 
     /tmp/ccNMnrKP.s:755    .text:000000000000031c .L0 
     /tmp/ccNMnrKP.s:756    .text:000000000000031c .L0 
     /tmp/ccNMnrKP.s:757    .text:000000000000031c .L0 
     /tmp/ccNMnrKP.s:759    .text:0000000000000320 .L0 
     /tmp/ccNMnrKP.s:761    .text:0000000000000320 .L0 
     /tmp/ccNMnrKP.s:762    .text:0000000000000320 .L0 
     /tmp/ccNMnrKP.s:765    .text:0000000000000324 .L0 
     /tmp/ccNMnrKP.s:766    .text:0000000000000324 .L0 
     /tmp/ccNMnrKP.s:770    .text:0000000000000328 .L0 
     /tmp/ccNMnrKP.s:771    .text:0000000000000328 .L0 
     /tmp/ccNMnrKP.s:772    .text:0000000000000328 .L0 
     /tmp/ccNMnrKP.s:775    .text:0000000000000330 .L0 
     /tmp/ccNMnrKP.s:779    .text:0000000000000338 .L0 
     /tmp/ccNMnrKP.s:780    .text:0000000000000338 .L0 
     /tmp/ccNMnrKP.s:784    .text:0000000000000344 .L0 
     /tmp/ccNMnrKP.s:785    .text:0000000000000348 .L0 
     /tmp/ccNMnrKP.s:791    .text:0000000000000348 _ZN6Thread8dispatchEv
     /tmp/ccNMnrKP.s:794    .text:0000000000000348 .L0 
     /tmp/ccNMnrKP.s:795    .text:0000000000000348 .L0 
     /tmp/ccNMnrKP.s:796    .text:000000000000034c .L0 
     /tmp/ccNMnrKP.s:799    .text:0000000000000354 .L0 
     /tmp/ccNMnrKP.s:800    .text:0000000000000354 .L0 
     /tmp/ccNMnrKP.s:802    .text:0000000000000358 .L0 
     /tmp/ccNMnrKP.s:804    .text:0000000000000358 .L0 
     /tmp/ccNMnrKP.s:805    .text:0000000000000358 .L0 
     /tmp/ccNMnrKP.s:808    .text:0000000000000360 .L0 
     /tmp/ccNMnrKP.s:809    .text:0000000000000364 .L0 
     /tmp/ccNMnrKP.s:811    .text:0000000000000368 .L0 
     /tmp/ccNMnrKP.s:812    .text:0000000000000368 .L0 
     /tmp/ccNMnrKP.s:814    .text:000000000000036c .L0 
     /tmp/ccNMnrKP.s:816    .text:0000000000000370 .L0 
     /tmp/ccNMnrKP.s:822    .text:0000000000000370 _ZN6Thread5startEv
     /tmp/ccNMnrKP.s:825    .text:0000000000000370 .L0 
     /tmp/ccNMnrKP.s:827    .text:0000000000000370 .L0 
     /tmp/ccNMnrKP.s:828    .text:0000000000000374 .L0 
     /tmp/ccNMnrKP.s:831    .text:000000000000037c .L0 
     /tmp/ccNMnrKP.s:832    .text:000000000000037c .L0 
     /tmp/ccNMnrKP.s:834    .text:0000000000000380 .L0 
     /tmp/ccNMnrKP.s:836    .text:0000000000000380 .L0 
GAS LISTING /tmp/ccNMnrKP.s 			page 29


     /tmp/ccNMnrKP.s:837    .text:0000000000000380 .L0 
     /tmp/ccNMnrKP.s:842    .text:000000000000038c .L0 
     /tmp/ccNMnrKP.s:843    .text:0000000000000390 .L0 
     /tmp/ccNMnrKP.s:845    .text:0000000000000394 .L0 
     /tmp/ccNMnrKP.s:846    .text:0000000000000394 .L0 
     /tmp/ccNMnrKP.s:848    .text:0000000000000398 .L0 
     /tmp/ccNMnrKP.s:850    .text:000000000000039c .L0 
     /tmp/ccNMnrKP.s:856    .text:000000000000039c _ZN14PeriodicThreadC2Em
     /tmp/ccNMnrKP.s:859    .text:000000000000039c .L0 
     /tmp/ccNMnrKP.s:861    .text:000000000000039c .L0 
     /tmp/ccNMnrKP.s:862    .text:00000000000003a0 .L0 
     /tmp/ccNMnrKP.s:867    .text:00000000000003b0 .L0 
     /tmp/ccNMnrKP.s:868    .text:00000000000003b0 .L0 
     /tmp/ccNMnrKP.s:869    .text:00000000000003b0 .L0 
     /tmp/ccNMnrKP.s:870    .text:00000000000003b0 .L0 
     /tmp/ccNMnrKP.s:872    .text:00000000000003b4 .L0 
     /tmp/ccNMnrKP.s:877    .text:00000000000003bc .L0 
     /tmp/ccNMnrKP.s:883    .text:00000000000003cc .L0 
     /tmp/ccNMnrKP.s:888    .text:00000000000003d0 .L0 
     /tmp/ccNMnrKP.s:895    .text:00000000000003d8 .L0 
     /tmp/ccNMnrKP.s:903    .text:00000000000003f8 .L0 
     /tmp/ccNMnrKP.s:904    .text:00000000000003fc .L0 
     /tmp/ccNMnrKP.s:906    .text:0000000000000400 .L0 
     /tmp/ccNMnrKP.s:907    .text:0000000000000400 .L0 
     /tmp/ccNMnrKP.s:909    .text:0000000000000404 .L0 
     /tmp/ccNMnrKP.s:912    .text:0000000000000408 .L0 
     /tmp/ccNMnrKP.s:915    .text:000000000000040c .L0 
     /tmp/ccNMnrKP.s:917    .text:0000000000000410 .L0 
     /tmp/ccNMnrKP.s:856    .text:000000000000039c _ZN14PeriodicThreadC1Em
     /tmp/ccNMnrKP.s:925    .text:0000000000000410 _ZN7Console4getcEv
     /tmp/ccNMnrKP.s:928    .text:0000000000000410 .L0 
     /tmp/ccNMnrKP.s:929    .text:0000000000000410 .L0 
     /tmp/ccNMnrKP.s:930    .text:0000000000000414 .L0 
     /tmp/ccNMnrKP.s:933    .text:000000000000041c .L0 
     /tmp/ccNMnrKP.s:934    .text:000000000000041c .L0 
     /tmp/ccNMnrKP.s:936    .text:0000000000000420 .L0 
     /tmp/ccNMnrKP.s:938    .text:0000000000000420 .L0 
     /tmp/ccNMnrKP.s:939    .text:0000000000000420 .L0 
     /tmp/ccNMnrKP.s:942    .text:0000000000000428 .L0 
     /tmp/ccNMnrKP.s:943    .text:000000000000042c .L0 
     /tmp/ccNMnrKP.s:945    .text:0000000000000430 .L0 
     /tmp/ccNMnrKP.s:946    .text:0000000000000430 .L0 
     /tmp/ccNMnrKP.s:948    .text:0000000000000434 .L0 
     /tmp/ccNMnrKP.s:950    .text:0000000000000438 .L0 
     /tmp/ccNMnrKP.s:956    .text:0000000000000438 _ZN7Console4putcEc
     /tmp/ccNMnrKP.s:959    .text:0000000000000438 .L0 
     /tmp/ccNMnrKP.s:961    .text:0000000000000438 .L0 
     /tmp/ccNMnrKP.s:962    .text:000000000000043c .L0 
     /tmp/ccNMnrKP.s:965    .text:0000000000000444 .L0 
     /tmp/ccNMnrKP.s:966    .text:0000000000000444 .L0 
     /tmp/ccNMnrKP.s:968    .text:0000000000000448 .L0 
     /tmp/ccNMnrKP.s:970    .text:0000000000000448 .L0 
     /tmp/ccNMnrKP.s:971    .text:0000000000000448 .L0 
     /tmp/ccNMnrKP.s:974    .text:0000000000000450 .L0 
     /tmp/ccNMnrKP.s:975    .text:0000000000000454 .L0 
     /tmp/ccNMnrKP.s:977    .text:0000000000000458 .L0 
     /tmp/ccNMnrKP.s:978    .text:0000000000000458 .L0 
GAS LISTING /tmp/ccNMnrKP.s 			page 30


     /tmp/ccNMnrKP.s:980    .text:000000000000045c .L0 
     /tmp/ccNMnrKP.s:982    .text:0000000000000460 .L0 
     /tmp/ccNMnrKP.s:32     .text._ZN6Thread3runEv:0000000000000018 .L0 
     /tmp/ccNMnrKP.s:57     .text._ZN14PeriodicThread18periodicActivationEv:0000000000000018 .L0 
     /tmp/ccNMnrKP.s:1024   .text:0000000000000460 .L0 
     /tmp/ccNMnrKP.s:242    .text._ZN14PeriodicThreadD2Ev:0000000000000034 .L0 
     /tmp/ccNMnrKP.s:464    .text._ZN14PeriodicThreadD0Ev:000000000000004c .L0 
     /tmp/ccNMnrKP.s:116    .text:000000000000003c .L0 
     /tmp/ccNMnrKP.s:159    .text:0000000000000064 .L0 
     /tmp/ccNMnrKP.s:483    .text:00000000000001ac .L0 
     /tmp/ccNMnrKP.s:595    .text:0000000000000244 .L0 
     /tmp/ccNMnrKP.s:661    .text:0000000000000298 .L0 
     /tmp/ccNMnrKP.s:667    .text:00000000000002a8 .L0 
     /tmp/ccNMnrKP.s:895    .text:00000000000003d8 .L0 
     /tmp/ccNMnrKP.s:899    .text:00000000000003ec .L0 
     /tmp/ccNMnrKP.s:191    .text:00000000000000a0 .L12
     /tmp/ccNMnrKP.s:624    .text:0000000000000278 .L38
     /tmp/ccNMnrKP.s:607    .text:0000000000000264 .L35
     /tmp/ccNMnrKP.s:692    .text:00000000000002d8 .L42
     /tmp/ccNMnrKP.s:675    .text:00000000000002c4 .L39
     /tmp/ccNMnrKP.s:768    .text:0000000000000328 .L46
     /tmp/ccNMnrKP.s:891    .text:00000000000003d8 .L53
     /tmp/ccNMnrKP.s:224    .text._ZN14PeriodicThreadD2Ev:0000000000000010 .L0 
     /tmp/ccNMnrKP.s:441    .text._ZN14PeriodicThreadD0Ev:0000000000000018 .L0 
     /tmp/ccNMnrKP.s:2609   .debug_abbrev:0000000000000000 .Ldebug_abbrev0
     /tmp/ccNMnrKP.s:4308   .debug_str:00000000000001a3 .LASF110
     /tmp/ccNMnrKP.s:4440   .debug_str:0000000000000615 .LASF111
     /tmp/ccNMnrKP.s:4496   .debug_str:00000000000007f0 .LASF112
     /tmp/ccNMnrKP.s:4230   .debug_ranges:0000000000000000 .Ldebug_ranges0
     /tmp/ccNMnrKP.s:4256   .debug_line:0000000000000000 .Ldebug_line0
     /tmp/ccNMnrKP.s:4388   .debug_str:000000000000048d .LASF0
     /tmp/ccNMnrKP.s:4400   .debug_str:00000000000004e5 .LASF1
     /tmp/ccNMnrKP.s:4378   .debug_str:000000000000044c .LASF2
     /tmp/ccNMnrKP.s:4356   .debug_str:00000000000003be .LASF4
     /tmp/ccNMnrKP.s:4448   .debug_str:0000000000000653 .LASF3
     /tmp/ccNMnrKP.s:4284   .debug_str:00000000000000d5 .LASF5
     /tmp/ccNMnrKP.s:4306   .debug_str:000000000000019c .LASF6
     /tmp/ccNMnrKP.s:4406   .debug_str:0000000000000512 .LASF7
     /tmp/ccNMnrKP.s:4386   .debug_str:000000000000047a .LASF8
     /tmp/ccNMnrKP.s:4472   .debug_str:000000000000071a .LASF9
     /tmp/ccNMnrKP.s:4342   .debug_str:0000000000000361 .LASF10
     /tmp/ccNMnrKP.s:4422   .debug_str:0000000000000583 .LASF11
     /tmp/ccNMnrKP.s:4462   .debug_str:00000000000006cf .LASF12
     /tmp/ccNMnrKP.s:4286   .debug_str:00000000000000dc .LASF13
     /tmp/ccNMnrKP.s:4262   .debug_str:0000000000000013 .LASF14
     /tmp/ccNMnrKP.s:4296   .debug_str:0000000000000132 .LASF15
     /tmp/ccNMnrKP.s:4444   .debug_str:0000000000000634 .LASF16
     /tmp/ccNMnrKP.s:4304   .debug_str:0000000000000186 .LASF17
     /tmp/ccNMnrKP.s:4352   .debug_str:00000000000003a6 .LASF18
     /tmp/ccNMnrKP.s:4354   .debug_str:00000000000003ae .LASF19
     /tmp/ccNMnrKP.s:4450   .debug_str:0000000000000665 .LASF20
     /tmp/ccNMnrKP.s:4452   .debug_str:0000000000000677 .LASF25
     /tmp/ccNMnrKP.s:4358   .debug_str:00000000000003c5 .LASF26
     /tmp/ccNMnrKP.s:4258   .debug_str:0000000000000000 .LASF21
     /tmp/ccNMnrKP.s:4370   .debug_str:000000000000041a .LASF22
     /tmp/ccNMnrKP.s:4374   .debug_str:000000000000042b .LASF23
     /tmp/ccNMnrKP.s:4456   .debug_str:000000000000068f .LASF24
GAS LISTING /tmp/ccNMnrKP.s 			page 31


     /tmp/ccNMnrKP.s:4272   .debug_str:0000000000000060 .LASF27
     /tmp/ccNMnrKP.s:4314   .debug_str:0000000000000296 .LASF28
     /tmp/ccNMnrKP.s:4350   .debug_str:000000000000039e .LASF29
     /tmp/ccNMnrKP.s:4264   .debug_str:0000000000000023 .LASF89
     /tmp/ccNMnrKP.s:4292   .debug_str:000000000000010d .LASF113
     /tmp/ccNMnrKP.s:4380   .debug_str:000000000000045a .LASF30
     /tmp/ccNMnrKP.s:4402   .debug_str:00000000000004f8 .LASF31
     /tmp/ccNMnrKP.s:4410   .debug_str:0000000000000536 .LASF32
     /tmp/ccNMnrKP.s:4324   .debug_str:00000000000002d2 .LASF34
     /tmp/ccNMnrKP.s:4396   .debug_str:00000000000004da .LASF33
     /tmp/ccNMnrKP.s:4334   .debug_str:0000000000000320 .LASF35
     /tmp/ccNMnrKP.s:4468   .debug_str:0000000000000708 .LASF36
     /tmp/ccNMnrKP.s:4382   .debug_str:000000000000045f .LASF43
     /tmp/ccNMnrKP.s:4376   .debug_str:000000000000043f .LASF45
     /tmp/ccNMnrKP.s:4426   .debug_str:00000000000005a8 .LASF38
     /tmp/ccNMnrKP.s:4368   .debug_str:0000000000000412 .LASF48
     /tmp/ccNMnrKP.s:4290   .debug_str:00000000000000fe .LASF50
     /tmp/ccNMnrKP.s:4398   .debug_str:00000000000004df .LASF52
     /tmp/ccNMnrKP.s:4338   .debug_str:000000000000033f .LASF54
     /tmp/ccNMnrKP.s:4390   .debug_str:000000000000049a .LASF114
     /tmp/ccNMnrKP.s:4330   .debug_str:00000000000002f2 .LASF115
     /tmp/ccNMnrKP.s:4498   .debug_str:0000000000000821 .LASF37
     /tmp/ccNMnrKP.s:4344   .debug_str:000000000000036f .LASF39
     /tmp/ccNMnrKP.s:4340   .debug_str:0000000000000352 .LASF40
     /tmp/ccNMnrKP.s:4408   .debug_str:0000000000000525 .LASF116
     /tmp/ccNMnrKP.s:4494   .debug_str:00000000000007e7 .LASF41
     /tmp/ccNMnrKP.s:4454   .debug_str:0000000000000687 .LASF61
     /tmp/ccNMnrKP.s:4424   .debug_str:0000000000000592 .LASF117
     /tmp/ccNMnrKP.s:4474   .debug_str:000000000000072a .LASF118
     /tmp/ccNMnrKP.s:4260   .debug_str:0000000000000009 .LASF42
     /tmp/ccNMnrKP.s:4488   .debug_str:00000000000007b2 .LASF44
     /tmp/ccNMnrKP.s:4282   .debug_str:00000000000000c5 .LASF46
     /tmp/ccNMnrKP.s:4466   .debug_str:00000000000006f6 .LASF47
     /tmp/ccNMnrKP.s:4438   .debug_str:000000000000060a .LASF49
     /tmp/ccNMnrKP.s:4294   .debug_str:0000000000000120 .LASF51
     /tmp/ccNMnrKP.s:4322   .debug_str:00000000000002cd .LASF53
     /tmp/ccNMnrKP.s:4432   .debug_str:00000000000005d9 .LASF55
     /tmp/ccNMnrKP.s:4412   .debug_str:000000000000053b .LASF56
     /tmp/ccNMnrKP.s:4434   .debug_str:00000000000005ee .LASF57
     /tmp/ccNMnrKP.s:4416   .debug_str:0000000000000555 .LASF58
     /tmp/ccNMnrKP.s:4270   .debug_str:0000000000000046 .LASF59
     /tmp/ccNMnrKP.s:4460   .debug_str:00000000000006b4 .LASF60
     /tmp/ccNMnrKP.s:4394   .debug_str:00000000000004bb .LASF62
     /tmp/ccNMnrKP.s:4278   .debug_str:0000000000000091 .LASF63
     /tmp/ccNMnrKP.s:4364   .debug_str:00000000000003f5 .LASF64
     /tmp/ccNMnrKP.s:4300   .debug_str:000000000000014e .LASF119
     /tmp/ccNMnrKP.s:4492   .debug_str:00000000000007d7 .LASF65
     /tmp/ccNMnrKP.s:4362   .debug_str:00000000000003dd .LASF120
     /tmp/ccNMnrKP.s:4430   .debug_str:00000000000005d4 .LASF66
     /tmp/ccNMnrKP.s:4274   .debug_str:0000000000000075 .LASF67
     /tmp/ccNMnrKP.s:4464   .debug_str:00000000000006de .LASF68
     /tmp/ccNMnrKP.s:422    .text._ZN14PeriodicThreadD0Ev:0000000000000000 .LFB52
     /tmp/ccNMnrKP.s:462    .text._ZN14PeriodicThreadD0Ev:000000000000004c .LFE52
     /tmp/ccNMnrKP.s:3785   .debug_loc:0000000000000000 .LLST10
     /tmp/ccNMnrKP.s:438    .text._ZN14PeriodicThreadD0Ev:0000000000000018 .LBB13
     /tmp/ccNMnrKP.s:446    .text._ZN14PeriodicThreadD0Ev:000000000000002c .LBE13
     /tmp/ccNMnrKP.s:3803   .debug_loc:000000000000004c .LLST11
GAS LISTING /tmp/ccNMnrKP.s 			page 32


     /tmp/ccNMnrKP.s:444    .text._ZN14PeriodicThreadD0Ev:000000000000002c .LVL29
     /tmp/ccNMnrKP.s:449    .text._ZN14PeriodicThreadD0Ev:0000000000000038 .LVL30
     /tmp/ccNMnrKP.s:4392   .debug_str:00000000000004a3 .LASF69
     /tmp/ccNMnrKP.s:210    .text._ZN14PeriodicThreadD2Ev:0000000000000000 .LFB50
     /tmp/ccNMnrKP.s:238    .text._ZN14PeriodicThreadD2Ev:0000000000000034 .LFE50
     /tmp/ccNMnrKP.s:3814   .debug_loc:0000000000000082 .LLST4
     /tmp/ccNMnrKP.s:227    .text._ZN14PeriodicThreadD2Ev:0000000000000024 .LVL12
     /tmp/ccNMnrKP.s:957    .text:0000000000000438 .LFB48
     /tmp/ccNMnrKP.s:983    .text:0000000000000460 .LFE48
     /tmp/ccNMnrKP.s:3828   .debug_loc:00000000000000bb .LLST28
     /tmp/ccNMnrKP.s:972    .text:0000000000000450 .LVL72
     /tmp/ccNMnrKP.s:926    .text:0000000000000410 .LFB47
     /tmp/ccNMnrKP.s:951    .text:0000000000000438 .LFE47
     /tmp/ccNMnrKP.s:940    .text:0000000000000428 .LVL70
     /tmp/ccNMnrKP.s:744    .text:0000000000000308 .LFB46
     /tmp/ccNMnrKP.s:786    .text:0000000000000348 .LFE46
     /tmp/ccNMnrKP.s:3842   .debug_loc:00000000000000f4 .LLST21
     /tmp/ccNMnrKP.s:777    .text:0000000000000338 .LVL56
     /tmp/ccNMnrKP.s:782    .text:0000000000000344 .LVL57
     /tmp/ccNMnrKP.s:4360   .debug_str:00000000000003d6 .LASF74
     /tmp/ccNMnrKP.s:4332   .debug_str:0000000000000308 .LASF70
     /tmp/ccNMnrKP.s:857    .text:000000000000039c .LFB44
     /tmp/ccNMnrKP.s:918    .text:0000000000000410 .LFE44
     /tmp/ccNMnrKP.s:3856   .debug_loc:000000000000012d .LLST23
     /tmp/ccNMnrKP.s:3874   .debug_loc:0000000000000179 .LLST24
     /tmp/ccNMnrKP.s:885    .text:00000000000003d0 .LBB25
     /tmp/ccNMnrKP.s:893    .text:00000000000003d8 .LBE25
     /tmp/ccNMnrKP.s:3892   .debug_loc:00000000000001c5 .LLST25
     /tmp/ccNMnrKP.s:3899   .debug_loc:00000000000001e8 .LLST26
     /tmp/ccNMnrKP.s:3906   .debug_loc:000000000000020b .LLST27
     /tmp/ccNMnrKP.s:880    .text:00000000000003c8 .LVL64
     /tmp/ccNMnrKP.s:898    .text:00000000000003ec .LVL67
     /tmp/ccNMnrKP.s:4266   .debug_str:0000000000000028 .LASF71
     /tmp/ccNMnrKP.s:382    .text:000000000000015c .LFB42
     /tmp/ccNMnrKP.s:415    .text:000000000000019c .LFE42
     /tmp/ccNMnrKP.s:3913   .debug_loc:000000000000022e .LLST9
     /tmp/ccNMnrKP.s:399    .text:000000000000017c .LVL24
     /tmp/ccNMnrKP.s:402    .text:0000000000000188 .LVL25
     /tmp/ccNMnrKP.s:4458   .debug_str:00000000000006a5 .LASF72
     /tmp/ccNMnrKP.s:151    .text:0000000000000064 .LFB40
     /tmp/ccNMnrKP.s:194    .text:00000000000000a4 .LFE40
     /tmp/ccNMnrKP.s:3931   .debug_loc:000000000000027a .LLST3
     /tmp/ccNMnrKP.s:180    .text:0000000000000090 .LVL10
     /tmp/ccNMnrKP.s:823    .text:0000000000000370 .LFB38
     /tmp/ccNMnrKP.s:851    .text:000000000000039c .LFE38
     /tmp/ccNMnrKP.s:3945   .debug_loc:00000000000002b3 .LLST22
     /tmp/ccNMnrKP.s:840    .text:000000000000038c .LVL61
     /tmp/ccNMnrKP.s:792    .text:0000000000000348 .LFB37
     /tmp/ccNMnrKP.s:817    .text:0000000000000370 .LFE37
     /tmp/ccNMnrKP.s:806    .text:0000000000000360 .LVL58
     /tmp/ccNMnrKP.s:712    .text:00000000000002e0 .LFB36
     /tmp/ccNMnrKP.s:738    .text:0000000000000308 .LFE36
     /tmp/ccNMnrKP.s:3959   .debug_loc:00000000000002ec .LLST20
     /tmp/ccNMnrKP.s:727    .text:00000000000002f8 .LVL52
     /tmp/ccNMnrKP.s:4404   .debug_str:000000000000050b .LASF76
     /tmp/ccNMnrKP.s:4478   .debug_str:0000000000000744 .LASF73
     /tmp/ccNMnrKP.s:644    .text:0000000000000280 .LFB34
GAS LISTING /tmp/ccNMnrKP.s 			page 33


     /tmp/ccNMnrKP.s:704    .text:00000000000002e0 .LFE34
     /tmp/ccNMnrKP.s:3973   .debug_loc:0000000000000325 .LLST19
     /tmp/ccNMnrKP.s:671    .text:00000000000002bc .LVL48
     /tmp/ccNMnrKP.s:62     .text:0000000000000000 .LFB32
     /tmp/ccNMnrKP.s:94     .text:000000000000002c .LFE32
     /tmp/ccNMnrKP.s:3995   .debug_loc:0000000000000384 .LLST0
     /tmp/ccNMnrKP.s:4009   .debug_loc:00000000000003bd .LLST1
     /tmp/ccNMnrKP.s:83     .text:000000000000001c .LVL4
     /tmp/ccNMnrKP.s:4436   .debug_str:0000000000000605 .LASF75
     /tmp/ccNMnrKP.s:4348   .debug_str:0000000000000387 .LASF77
     /tmp/ccNMnrKP.s:578    .text:000000000000022c .LFB30
     /tmp/ccNMnrKP.s:636    .text:0000000000000280 .LFE30
     /tmp/ccNMnrKP.s:4023   .debug_loc:00000000000003f6 .LLST16
     /tmp/ccNMnrKP.s:4045   .debug_loc:0000000000000455 .LLST17
     /tmp/ccNMnrKP.s:4059   .debug_loc:000000000000048e .LLST18
     /tmp/ccNMnrKP.s:603    .text:000000000000025c .LVL43
     /tmp/ccNMnrKP.s:544    .text:0000000000000200 .LFB28
     /tmp/ccNMnrKP.s:572    .text:000000000000022c .LFE28
     /tmp/ccNMnrKP.s:4073   .debug_loc:00000000000004c7 .LLST15
     /tmp/ccNMnrKP.s:561    .text:000000000000021c .LVL40
     /tmp/ccNMnrKP.s:510    .text:00000000000001d4 .LFB27
     /tmp/ccNMnrKP.s:538    .text:0000000000000200 .LFE27
     /tmp/ccNMnrKP.s:4087   .debug_loc:0000000000000500 .LLST14
     /tmp/ccNMnrKP.s:527    .text:00000000000001f0 .LVL37
     /tmp/ccNMnrKP.s:4328   .debug_str:00000000000002e0 .LASF78
     /tmp/ccNMnrKP.s:343    .text:000000000000011c .LFB26
     /tmp/ccNMnrKP.s:376    .text:000000000000015c .LFE26
     /tmp/ccNMnrKP.s:4101   .debug_loc:0000000000000539 .LLST8
     /tmp/ccNMnrKP.s:360    .text:000000000000013c .LVL20
     /tmp/ccNMnrKP.s:363    .text:0000000000000148 .LVL21
     /tmp/ccNMnrKP.s:4288   .debug_str:00000000000000ec .LASF79
     /tmp/ccNMnrKP.s:100    .text:000000000000002c .LFB24
     /tmp/ccNMnrKP.s:135    .text:0000000000000064 .LFE24
     /tmp/ccNMnrKP.s:4119   .debug_loc:0000000000000585 .LLST2
     /tmp/ccNMnrKP.s:123    .text:0000000000000054 .LVL7
     /tmp/ccNMnrKP.s:4346   .debug_str:0000000000000382 .LASF80
     /tmp/ccNMnrKP.s:4276   .debug_str:000000000000007f .LASF81
     /tmp/ccNMnrKP.s:469    .text:000000000000019c .LFB21
     /tmp/ccNMnrKP.s:502    .text:00000000000001d4 .LFE21
     /tmp/ccNMnrKP.s:4133   .debug_loc:00000000000005be .LLST12
     /tmp/ccNMnrKP.s:4153   .debug_loc:000000000000060c .LLST13
     /tmp/ccNMnrKP.s:490    .text:00000000000001c4 .LVL34
     /tmp/ccNMnrKP.s:4500   .debug_str:0000000000000827 .LASF82
     /tmp/ccNMnrKP.s:311    .text:00000000000000f4 .LFB19
     /tmp/ccNMnrKP.s:337    .text:000000000000011c .LFE19
     /tmp/ccNMnrKP.s:4167   .debug_loc:0000000000000645 .LLST7
     /tmp/ccNMnrKP.s:326    .text:000000000000010c .LVL18
     /tmp/ccNMnrKP.s:4336   .debug_str:000000000000032f .LASF83
     /tmp/ccNMnrKP.s:4418   .debug_str:0000000000000564 .LASF84
     /tmp/ccNMnrKP.s:279    .text:00000000000000cc .LFB18
     /tmp/ccNMnrKP.s:305    .text:00000000000000f4 .LFE18
     /tmp/ccNMnrKP.s:4181   .debug_loc:000000000000067e .LLST6
     /tmp/ccNMnrKP.s:294    .text:00000000000000e4 .LVL16
     /tmp/ccNMnrKP.s:4480   .debug_str:0000000000000753 .LASF85
     /tmp/ccNMnrKP.s:4372   .debug_str:0000000000000425 .LASF86
     /tmp/ccNMnrKP.s:247    .text:00000000000000a4 .LFB17
     /tmp/ccNMnrKP.s:273    .text:00000000000000cc .LFE17
GAS LISTING /tmp/ccNMnrKP.s 			page 34


     /tmp/ccNMnrKP.s:4195   .debug_loc:00000000000006b7 .LLST5
     /tmp/ccNMnrKP.s:262    .text:00000000000000bc .LVL14
     /tmp/ccNMnrKP.s:4268   .debug_str:0000000000000037 .LASF121
     /tmp/ccNMnrKP.s:37     .text._ZN14PeriodicThread18periodicActivationEv:0000000000000000 .LFB13
     /tmp/ccNMnrKP.s:55     .text._ZN14PeriodicThread18periodicActivationEv:0000000000000018 .LFE13
     /tmp/ccNMnrKP.s:11     .text._ZN6Thread3runEv:0000000000000000 .LFB12
     /tmp/ccNMnrKP.s:30     .text._ZN6Thread3runEv:0000000000000018 .LFE12
     /tmp/ccNMnrKP.s:4326   .debug_str:00000000000002d7 .LASF87
     /tmp/ccNMnrKP.s:4446   .debug_str:000000000000064a .LASF88
     /tmp/ccNMnrKP.s:4310   .debug_str:0000000000000273 .LASF90
     /tmp/ccNMnrKP.s:4318   .debug_str:00000000000002b7 .LASF91
     /tmp/ccNMnrKP.s:4428   .debug_str:00000000000005bf .LASF92
     /tmp/ccNMnrKP.s:4298   .debug_str:000000000000013e .LASF93
     /tmp/ccNMnrKP.s:4490   .debug_str:00000000000007c7 .LASF94
     /tmp/ccNMnrKP.s:4442   .debug_str:0000000000000629 .LASF95
     /tmp/ccNMnrKP.s:4486   .debug_str:0000000000000788 .LASF96
     /tmp/ccNMnrKP.s:4414   .debug_str:0000000000000542 .LASF97
     /tmp/ccNMnrKP.s:4280   .debug_str:00000000000000a9 .LASF98
     /tmp/ccNMnrKP.s:4470   .debug_str:000000000000070f .LASF99
     /tmp/ccNMnrKP.s:4420   .debug_str:000000000000056a .LASF100
     /tmp/ccNMnrKP.s:4384   .debug_str:0000000000000471 .LASF101
     /tmp/ccNMnrKP.s:4482   .debug_str:0000000000000760 .LASF102
     /tmp/ccNMnrKP.s:4366   .debug_str:0000000000000408 .LASF103
     /tmp/ccNMnrKP.s:4316   .debug_str:000000000000029c .LASF104
     /tmp/ccNMnrKP.s:4320   .debug_str:00000000000002c4 .LASF105
     /tmp/ccNMnrKP.s:4484   .debug_str:000000000000077a .LASF106
     /tmp/ccNMnrKP.s:4312   .debug_str:000000000000028d .LASF107
     /tmp/ccNMnrKP.s:4302   .debug_str:0000000000000178 .LASF108
     /tmp/ccNMnrKP.s:4476   .debug_str:000000000000073a .LASF109
     /tmp/ccNMnrKP.s:425    .text._ZN14PeriodicThreadD0Ev:0000000000000000 .LVL27
     /tmp/ccNMnrKP.s:457    .text._ZN14PeriodicThreadD0Ev:0000000000000044 .LVL31
     /tmp/ccNMnrKP.s:437    .text._ZN14PeriodicThreadD0Ev:0000000000000018 .LVL28
     /tmp/ccNMnrKP.s:213    .text._ZN14PeriodicThreadD2Ev:0000000000000000 .LVL11
     /tmp/ccNMnrKP.s:960    .text:0000000000000438 .LVL71
     /tmp/ccNMnrKP.s:747    .text:0000000000000308 .LVL53
     /tmp/ccNMnrKP.s:767    .text:0000000000000328 .LVL55
     /tmp/ccNMnrKP.s:860    .text:000000000000039c .LVL62
     /tmp/ccNMnrKP.s:878    .text:00000000000003c0 .LVL63
     /tmp/ccNMnrKP.s:910    .text:0000000000000404 .LVL68
     /tmp/ccNMnrKP.s:913    .text:0000000000000408 .LVL69
     /tmp/ccNMnrKP.s:884    .text:00000000000003d0 .LVL65
     /tmp/ccNMnrKP.s:890    .text:00000000000003d8 .LVL66
     /tmp/ccNMnrKP.s:385    .text:000000000000015c .LVL23
     /tmp/ccNMnrKP.s:410    .text:0000000000000194 .LVL26
     /tmp/ccNMnrKP.s:156    .text:0000000000000064 .LVL8
     /tmp/ccNMnrKP.s:164    .text:0000000000000074 .LVL9
     /tmp/ccNMnrKP.s:826    .text:0000000000000370 .LVL59
     /tmp/ccNMnrKP.s:838    .text:0000000000000384 .LVL60
     /tmp/ccNMnrKP.s:715    .text:00000000000002e0 .LVL51
     /tmp/ccNMnrKP.s:647    .text:0000000000000280 .LVL46
     /tmp/ccNMnrKP.s:669    .text:00000000000002b4 .LVL47
     /tmp/ccNMnrKP.s:687    .text:00000000000002d0 .LVL49
     /tmp/ccNMnrKP.s:691    .text:00000000000002d8 .LVL50
     /tmp/ccNMnrKP.s:66     .text:0000000000000000 .LVL2
     /tmp/ccNMnrKP.s:76     .text:0000000000000010 .LVL3
     /tmp/ccNMnrKP.s:581    .text:000000000000022c .LVL41
     /tmp/ccNMnrKP.s:601    .text:0000000000000254 .LVL42
GAS LISTING /tmp/ccNMnrKP.s 			page 35


     /tmp/ccNMnrKP.s:619    .text:0000000000000270 .LVL44
     /tmp/ccNMnrKP.s:623    .text:0000000000000278 .LVL45
     /tmp/ccNMnrKP.s:547    .text:0000000000000200 .LVL38
     /tmp/ccNMnrKP.s:559    .text:0000000000000214 .LVL39
     /tmp/ccNMnrKP.s:513    .text:00000000000001d4 .LVL35
     /tmp/ccNMnrKP.s:525    .text:00000000000001e8 .LVL36
     /tmp/ccNMnrKP.s:346    .text:000000000000011c .LVL19
     /tmp/ccNMnrKP.s:371    .text:0000000000000154 .LVL22
     /tmp/ccNMnrKP.s:105    .text:000000000000002c .LVL5
     /tmp/ccNMnrKP.s:121    .text:000000000000004c .LVL6
     /tmp/ccNMnrKP.s:472    .text:000000000000019c .LVL32
     /tmp/ccNMnrKP.s:488    .text:00000000000001bc .LVL33
     /tmp/ccNMnrKP.s:314    .text:00000000000000f4 .LVL17
     /tmp/ccNMnrKP.s:282    .text:00000000000000cc .LVL15
     /tmp/ccNMnrKP.s:250    .text:00000000000000a4 .LVL13
     /tmp/ccNMnrKP.s:1025   .debug_info:0000000000000000 .Ldebug_info0
     /tmp/ccNMnrKP.s:5      .text:0000000000000000 .Ltext0
     /tmp/ccNMnrKP.s:1019   .text:0000000000000460 .Letext0
     /tmp/ccNMnrKP.s:597    .text:0000000000000250 .LBB17
     /tmp/ccNMnrKP.s:608    .text:0000000000000264 .LBE17
     /tmp/ccNMnrKP.s:627    .text:0000000000000278 .LBB18
     /tmp/ccNMnrKP.s:631    .text:000000000000027c .LBE18
     /tmp/ccNMnrKP.s:663    .text:00000000000002a4 .LBB21
     /tmp/ccNMnrKP.s:676    .text:00000000000002c4 .LBE21
     /tmp/ccNMnrKP.s:695    .text:00000000000002d8 .LBB22
     /tmp/ccNMnrKP.s:699    .text:00000000000002dc .LBE22
     /tmp/ccNMnrKP.s:138    .gcc_except_table:0000000000000000 .LLSDA24
     /tmp/ccNMnrKP.s:196    .gcc_except_table:0000000000000004 .LLSDA40
                           .group:0000000000000000 _ZN14PeriodicThreadD5Ev

UNDEFINED SYMBOLS
_Z9sem_closeP10_semaphore
__gxx_personality_v0
_ZN7_threaddlEPv
_Z9mem_allocm
_Z8mem_freePv
_Z8sem_openPP10_semaphorej
_Z8sem_waitP10_semaphore
_Z10sem_signalP10_semaphore
_Z18thread_attach_bodyPP7_threadPFvPvES2_
_Z10time_sleepm
_Z15thread_dispatchv
_Z12thread_startP7_thread
_Z4getcv
_Z4putcc
