GAS LISTING /tmp/ccvhIdW1.s 			page 1


   1              		.file	"system.cpp"
   2              		.option pic
   3              		.option norelax
   4              		.text
   5              	.Ltext0:
   6              		.align	2
   7              		.globl	_ZN6System15userMainWrapperEPv
   9              	_ZN6System15userMainWrapperEPv:
  10              	.LFB40:
  11              		.file 1 "src/system.cpp"
   1:src/system.cpp **** //
   2:src/system.cpp **** // Created by os on 5/31/22.
   3:src/system.cpp **** //
   4:src/system.cpp **** 
   5:src/system.cpp **** #include "../h/system.hpp"
   6:src/system.cpp **** #include "../h/riscv.hpp"
   7:src/system.cpp **** #include "../h/syscall_c.h"
   8:src/system.cpp **** #include "../tests/userMain.hpp"
   9:src/system.cpp **** #include "../h/printing.hpp"
  10:src/system.cpp **** #include "../h/tcb.hpp"
  11:src/system.cpp **** #include "../h/scheduler.hpp"
  12:src/system.cpp **** #include "../h/consoleUtil.hpp"
  13:src/system.cpp **** #include "../h/slabAllocator.hpp"
  14:src/system.cpp **** 
  15:src/system.cpp **** bool System::initialized = false;
  16:src/system.cpp **** 
  17:src/system.cpp **** System::System() {
  18:src/system.cpp ****     //check whether system is already running to prevent user malicious access
  19:src/system.cpp ****     if (!initialized) {
  20:src/system.cpp ****         initialized = true;
  21:src/system.cpp **** 
  22:src/system.cpp ****         //initialize the machine
  23:src/system.cpp ****         RiscV::initialize();
  24:src/system.cpp **** 
  25:src/system.cpp ****         SlabAllocator::Cache *cache = SlabAllocator::cache;
  26:src/system.cpp ****         SlabAllocator::printCache(cache);
  27:src/system.cpp ****         SlabAllocator::Slab *slab = cache->emptyHead;
  28:src/system.cpp ****         SlabAllocator::printSlab(SlabAllocator::cache->emptyHead);
  29:src/system.cpp **** 
  30:src/system.cpp ****         void* all1 = SlabAllocator::allocateSlot(slab);
  31:src/system.cpp ****         void* all2 = SlabAllocator::allocateSlot(slab);
  32:src/system.cpp **** 
  33:src/system.cpp ****         SlabAllocator::printSlab(slab);
  34:src/system.cpp **** 
  35:src/system.cpp ****         ConsoleUtil::print("",(uint64)all1,"\n");
  36:src/system.cpp ****         ConsoleUtil::print("",(uint64)all2,"\n");
  37:src/system.cpp **** 
  38:src/system.cpp ****         all1 = all2;
  39:src/system.cpp ****         all2 = all1;
  40:src/system.cpp **** 
  41:src/system.cpp ****         //creating a thread that will be executing user code
  42:src/system.cpp ****         //this is done as to separate user code execution from main kernel thread
  43:src/system.cpp ****         //also it provides kernel with an idle thread that will run itself if user code gets blocke
  44:src/system.cpp **** 
  45:src/system.cpp ****         thread_t userMainThread;
  46:src/system.cpp ****         thread_create(&userMainThread, userMainWrapper, nullptr);
  47:src/system.cpp **** 
GAS LISTING /tmp/ccvhIdW1.s 			page 2


  48:src/system.cpp ****         //return control to user code until it reaches the end
  49:src/system.cpp ****         //exit only if user is finished and machine is ready to exit (in case there is something st
  50:src/system.cpp ****         while (( (TCB*)userMainThread)->status != TCB::Status::FINISHED) {
  51:src/system.cpp ****             thread_dispatch();
  52:src/system.cpp ****         }
  53:src/system.cpp **** 
  54:src/system.cpp ****         //finalize the machine
  55:src/system.cpp ****         RiscV::finalize();
  56:src/system.cpp ****     }
  57:src/system.cpp **** }
  58:src/system.cpp **** 
  59:src/system.cpp **** //wrapper function for userMain as per POSIX threads
  60:src/system.cpp **** void System::userMainWrapper(void *arg){
  12              		.loc 1 60 40
  13              		.cfi_startproc
  14              	.LVL0:
  15 0000 130101FF 		addi	sp,sp,-16
  16              		.cfi_def_cfa_offset 16
  17 0004 23341100 		sd	ra,8(sp)
  18 0008 23308100 		sd	s0,0(sp)
  19              		.cfi_offset 1, -8
  20              		.cfi_offset 8, -16
  21 000c 13040101 		addi	s0,sp,16
  22              		.cfi_def_cfa 8, 0
  61:src/system.cpp **** //    int ret = fork();
  62:src/system.cpp **** //
  63:src/system.cpp **** //    if(ret == 0){
  64:src/system.cpp **** //        printString("dete\n");
  65:src/system.cpp **** //    }
  66:src/system.cpp **** //    else {
  67:src/system.cpp **** //        printString("otac\n");
  68:src/system.cpp **** //        thread_dispatch();
  69:src/system.cpp **** //    }
  70:src/system.cpp **** //    MemoryAllocator::showMemory();
  71:src/system.cpp ****     userMain();
  23              		.loc 1 71 5
  24              		.loc 1 71 13 is_stmt 0
  25 0010 97000000 		call	_Z8userMainv@plt
  25      E7800000 
  26              	.LVL1:
  72:src/system.cpp **** }...
  27              		.loc 1 72 1
  28 0018 83308100 		ld	ra,8(sp)
  29              		.cfi_restore 1
  30 001c 03340100 		ld	s0,0(sp)
  31              		.cfi_restore 8
  32              		.cfi_def_cfa 2, 16
  33 0020 13010101 		addi	sp,sp,16
  34              		.cfi_def_cfa_offset 0
  35 0024 67800000 		jr	ra
  36              		.cfi_endproc
  37              	.LFE40:
  39              		.section	.rodata.str1.8,"aMS",@progbits,1
  40              		.align	3
  41              	.LC0:
  42 0000 0A00     		.string	"\n"
  43 0002 00000000 		.align	3
GAS LISTING /tmp/ccvhIdW1.s 			page 3


  43      0000
  44              	.LC1:
  45 0008 00       		.string	""
  46              		.text
  47              		.align	2
  48              		.globl	_ZN6SystemC2Ev
  50              	_ZN6SystemC2Ev:
  51              	.LFB38:
  17:src/system.cpp **** System::System() {
  52              		.loc 1 17 1 is_stmt 1
  53              		.cfi_startproc
  54              	.LVL2:
  19:src/system.cpp ****     if (!initialized) {
  55              		.loc 1 19 5
  56              	.LBB2:
  19:src/system.cpp ****     if (!initialized) {
  57              		.loc 1 19 9 is_stmt 0
  58 0028 97070000 		lbu	a5,.LANCHOR0
  58      83C70700 
  19:src/system.cpp ****     if (!initialized) {
  59              		.loc 1 19 5
  60 0030 63840700 		beqz	a5,.L11
  61 0034 67800000 		ret
  62              	.L11:
  63              	.LBE2:
  17:src/system.cpp **** System::System() {
  64              		.loc 1 17 1
  65 0038 130101FC 		addi	sp,sp,-64
  66              		.cfi_def_cfa_offset 64
  67 003c 233C1102 		sd	ra,56(sp)
  68 0040 23388102 		sd	s0,48(sp)
  69 0044 23349102 		sd	s1,40(sp)
  70 0048 23302103 		sd	s2,32(sp)
  71 004c 233C3101 		sd	s3,24(sp)
  72              		.cfi_offset 1, -8
  73              		.cfi_offset 8, -16
  74              		.cfi_offset 9, -24
  75              		.cfi_offset 18, -32
  76              		.cfi_offset 19, -40
  77 0050 13040104 		addi	s0,sp,64
  78              		.cfi_def_cfa 8, 0
  79              	.LBB4:
  80              	.LBB3:
  20:src/system.cpp ****         initialized = true;
  81              		.loc 1 20 9 is_stmt 1
  20:src/system.cpp ****         initialized = true;
  82              		.loc 1 20 21 is_stmt 0
  83 0054 93071000 		li	a5,1
  84 0058 17070000 		sb	a5,.LANCHOR0,a4
  84      2300F700 
  23:src/system.cpp ****         RiscV::initialize();
  85              		.loc 1 23 9 is_stmt 1
  23:src/system.cpp ****         RiscV::initialize();
  86              		.loc 1 23 26 is_stmt 0
  87 0060 97000000 		call	_ZN5RiscV10initializeEv@plt
  87      E7800000 
  88              	.LVL3:
GAS LISTING /tmp/ccvhIdW1.s 			page 4


  25:src/system.cpp ****         SlabAllocator::Cache *cache = SlabAllocator::cache;
  89              		.loc 1 25 9 is_stmt 1
  25:src/system.cpp ****         SlabAllocator::Cache *cache = SlabAllocator::cache;
  90              		.loc 1 25 31 is_stmt 0
  91 0068 97040000 		la	s1,_ZN13SlabAllocator5cacheE
  91      83B40400 
  92 0070 03B90400 		ld	s2,0(s1)
  93              	.LVL4:
  26:src/system.cpp ****         SlabAllocator::printCache(cache);
  94              		.loc 1 26 9 is_stmt 1
  26:src/system.cpp ****         SlabAllocator::printCache(cache);
  95              		.loc 1 26 34 is_stmt 0
  96 0074 13050900 		mv	a0,s2
  97 0078 97000000 		call	_ZN13SlabAllocator10printCacheEPNS_5CacheE@plt
  97      E7800000 
  98              	.LVL5:
  27:src/system.cpp ****         SlabAllocator::Slab *slab = cache->emptyHead;
  99              		.loc 1 27 9 is_stmt 1
  27:src/system.cpp ****         SlabAllocator::Slab *slab = cache->emptyHead;
 100              		.loc 1 27 30 is_stmt 0
 101 0080 83390906 		ld	s3,96(s2)
 102              	.LVL6:
  28:src/system.cpp ****         SlabAllocator::printSlab(SlabAllocator::cache->emptyHead);
 103              		.loc 1 28 9 is_stmt 1
  28:src/system.cpp ****         SlabAllocator::printSlab(SlabAllocator::cache->emptyHead);
 104              		.loc 1 28 33 is_stmt 0
 105 0084 83B70400 		ld	a5,0(s1)
 106 0088 03B50706 		ld	a0,96(a5)
 107 008c 97000000 		call	_ZN13SlabAllocator9printSlabEPNS_4SlabE@plt
 107      E7800000 
 108              	.LVL7:
  30:src/system.cpp ****         void* all1 = SlabAllocator::allocateSlot(slab);
 109              		.loc 1 30 9 is_stmt 1
  30:src/system.cpp ****         void* all1 = SlabAllocator::allocateSlot(slab);
 110              		.loc 1 30 49 is_stmt 0
 111 0094 13850900 		mv	a0,s3
 112 0098 97000000 		call	_ZN13SlabAllocator12allocateSlotEPNS_4SlabE@plt
 112      E7800000 
 113              	.LVL8:
 114 00a0 13090500 		mv	s2,a0
 115              	.LVL9:
  31:src/system.cpp ****         void* all2 = SlabAllocator::allocateSlot(slab);
 116              		.loc 1 31 9 is_stmt 1
  31:src/system.cpp ****         void* all2 = SlabAllocator::allocateSlot(slab);
 117              		.loc 1 31 49 is_stmt 0
 118 00a4 13850900 		mv	a0,s3
 119              	.LVL10:
 120 00a8 97000000 		call	_ZN13SlabAllocator12allocateSlotEPNS_4SlabE@plt
 120      E7800000 
 121              	.LVL11:
 122 00b0 93040500 		mv	s1,a0
 123              	.LVL12:
  33:src/system.cpp ****         SlabAllocator::printSlab(slab);
 124              		.loc 1 33 9 is_stmt 1
  33:src/system.cpp ****         SlabAllocator::printSlab(slab);
 125              		.loc 1 33 33 is_stmt 0
 126 00b4 13850900 		mv	a0,s3
GAS LISTING /tmp/ccvhIdW1.s 			page 5


 127 00b8 97000000 		call	_ZN13SlabAllocator9printSlabEPNS_4SlabE@plt
 127      E7800000 
 128              	.LVL13:
  35:src/system.cpp ****         ConsoleUtil::print("",(uint64)all1,"\n");
 129              		.loc 1 35 9 is_stmt 1
  35:src/system.cpp ****         ConsoleUtil::print("",(uint64)all1,"\n");
 130              		.loc 1 35 27 is_stmt 0
 131 00c0 17060000 		lla	a2,.LC0
 131      13060600 
 132 00c8 9B050900 		sext.w	a1,s2
 133 00cc 17050000 		lla	a0,.LC1
 133      13050500 
 134 00d4 97000000 		call	_ZN11ConsoleUtil5printEPKciS1_@plt
 134      E7800000 
 135              	.LVL14:
  36:src/system.cpp ****         ConsoleUtil::print("",(uint64)all2,"\n");
 136              		.loc 1 36 9 is_stmt 1
  36:src/system.cpp ****         ConsoleUtil::print("",(uint64)all2,"\n");
 137              		.loc 1 36 27 is_stmt 0
 138 00dc 17060000 		lla	a2,.LC0
 138      13060600 
 139 00e4 9B850400 		sext.w	a1,s1
 140 00e8 17050000 		lla	a0,.LC1
 140      13050500 
 141 00f0 97000000 		call	_ZN11ConsoleUtil5printEPKciS1_@plt
 141      E7800000 
 142              	.LVL15:
  38:src/system.cpp ****         all1 = all2;
 143              		.loc 1 38 9 is_stmt 1
  39:src/system.cpp ****         all2 = all1;
 144              		.loc 1 39 9
  45:src/system.cpp ****         thread_t userMainThread;
 145              		.loc 1 45 9
  46:src/system.cpp ****         thread_create(&userMainThread, userMainWrapper, nullptr);
 146              		.loc 1 46 9
  46:src/system.cpp ****         thread_create(&userMainThread, userMainWrapper, nullptr);
 147              		.loc 1 46 22 is_stmt 0
 148 00f8 13060000 		li	a2,0
 149 00fc 97050000 		lla	a1,_ZN6System15userMainWrapperEPv
 149      93850500 
 150 0104 130584FC 		addi	a0,s0,-56
 151 0108 97000000 		call	_Z13thread_createPP7_threadPFvPvES2_@plt
 151      E7800000 
 152              	.LVL16:
 153              	.L6:
  50:src/system.cpp ****         while (( (TCB*)userMainThread)->status != TCB::Status::FINISHED) {
 154              		.loc 1 50 9 is_stmt 1
  50:src/system.cpp ****         while (( (TCB*)userMainThread)->status != TCB::Status::FINISHED) {
 155              		.loc 1 50 48
  50:src/system.cpp ****         while (( (TCB*)userMainThread)->status != TCB::Status::FINISHED) {
 156              		.loc 1 50 18 is_stmt 0
 157 0110 833784FC 		ld	a5,-56(s0)
  50:src/system.cpp ****         while (( (TCB*)userMainThread)->status != TCB::Status::FINISHED) {
 158              		.loc 1 50 41
 159 0114 03A70701 		lw	a4,16(a5)
  50:src/system.cpp ****         while (( (TCB*)userMainThread)->status != TCB::Status::FINISHED) {
 160              		.loc 1 50 48
GAS LISTING /tmp/ccvhIdW1.s 			page 6


 161 0118 93072000 		li	a5,2
 162 011c 6308F700 		beq	a4,a5,.L5
  51:src/system.cpp ****             thread_dispatch();
 163              		.loc 1 51 13 is_stmt 1
  51:src/system.cpp ****             thread_dispatch();
 164              		.loc 1 51 28 is_stmt 0
 165 0120 97000000 		call	_Z15thread_dispatchv@plt
 165      E7800000 
 166              	.LVL17:
 167 0128 6FF09FFE 		j	.L6
 168              	.L5:
  55:src/system.cpp ****         RiscV::finalize();
 169              		.loc 1 55 9 is_stmt 1
  55:src/system.cpp ****         RiscV::finalize();
 170              		.loc 1 55 24 is_stmt 0
 171 012c 97000000 		call	_ZN5RiscV8finalizeEv@plt
 171      E7800000 
 172              	.LVL18:
 173              	.LBE3:
 174              	.LBE4:
  57:src/system.cpp **** }
 175              		.loc 1 57 1
 176 0134 83308103 		ld	ra,56(sp)
 177              		.cfi_restore 1
 178 0138 03340103 		ld	s0,48(sp)
 179              		.cfi_restore 8
 180              		.cfi_def_cfa 2, 64
 181 013c 83348102 		ld	s1,40(sp)
 182              		.cfi_restore 9
 183              	.LVL19:
 184 0140 03390102 		ld	s2,32(sp)
 185              		.cfi_restore 18
 186 0144 83398101 		ld	s3,24(sp)
 187              		.cfi_restore 19
 188              	.LVL20:
 189 0148 13010104 		addi	sp,sp,64
 190              		.cfi_def_cfa_offset 0
 191 014c 67800000 		jr	ra
 192              		.cfi_endproc
 193              	.LFE38:
 195              		.globl	_ZN6SystemC1Ev
 196              		.set	_ZN6SystemC1Ev,_ZN6SystemC2Ev
 197              		.globl	_ZN6System11initializedE
 198              		.bss
 199              		.set	.LANCHOR0,. + 0
 202              	_ZN6System11initializedE:
 203 0000 00       		.zero	1
 204              		.text
 205              	.Letext0:
 206              		.file 2 "src/../h/../lib/hw.h"
 207              		.file 3 "src/../h/system.hpp"
 208              		.file 4 "src/../h/riscv.hpp"
 209              		.file 5 "src/../h/../h/_thread.hpp"
 210              		.file 6 "src/../h/tcb.hpp"
 211              		.file 7 "src/../h/scb.hpp"
 212              		.file 8 "src/../h/consoleUtil.hpp"
 213              		.file 9 "src/../h/slabAllocator.hpp"
GAS LISTING /tmp/ccvhIdW1.s 			page 7


 214              		.file 10 "src/../tests/userMain.hpp"
 215              		.file 11 "src/../h/syscall_c.h"
GAS LISTING /tmp/ccvhIdW1.s 			page 8


DEFINED SYMBOLS
                            *ABS*:0000000000000000 system.cpp
     /tmp/ccvhIdW1.s:9      .text:0000000000000000 _ZN6System15userMainWrapperEPv
     /tmp/ccvhIdW1.s:13     .text:0000000000000000 .L0 
     /tmp/ccvhIdW1.s:15     .text:0000000000000000 .L0 
     /tmp/ccvhIdW1.s:16     .text:0000000000000004 .L0 
     /tmp/ccvhIdW1.s:19     .text:000000000000000c .L0 
     /tmp/ccvhIdW1.s:20     .text:000000000000000c .L0 
     /tmp/ccvhIdW1.s:22     .text:0000000000000010 .L0 
     /tmp/ccvhIdW1.s:24     .text:0000000000000010 .L0 
     /tmp/ccvhIdW1.s:25     .text:0000000000000010 .L0 
     /tmp/ccvhIdW1.s:28     .text:0000000000000018 .L0 
     /tmp/ccvhIdW1.s:29     .text:000000000000001c .L0 
     /tmp/ccvhIdW1.s:31     .text:0000000000000020 .L0 
     /tmp/ccvhIdW1.s:32     .text:0000000000000020 .L0 
     /tmp/ccvhIdW1.s:34     .text:0000000000000024 .L0 
     /tmp/ccvhIdW1.s:36     .text:0000000000000028 .L0 
     /tmp/ccvhIdW1.s:50     .text:0000000000000028 _ZN6SystemC2Ev
     /tmp/ccvhIdW1.s:53     .text:0000000000000028 .L0 
     /tmp/ccvhIdW1.s:55     .text:0000000000000028 .L0 
     /tmp/ccvhIdW1.s:57     .text:0000000000000028 .L0 
     /tmp/ccvhIdW1.s:58     .text:0000000000000028 .L0 
     /tmp/ccvhIdW1.s:60     .text:0000000000000030 .L0 
     /tmp/ccvhIdW1.s:65     .text:0000000000000038 .L0 
     /tmp/ccvhIdW1.s:66     .text:000000000000003c .L0 
     /tmp/ccvhIdW1.s:72     .text:0000000000000050 .L0 
     /tmp/ccvhIdW1.s:73     .text:0000000000000050 .L0 
     /tmp/ccvhIdW1.s:74     .text:0000000000000050 .L0 
     /tmp/ccvhIdW1.s:75     .text:0000000000000050 .L0 
     /tmp/ccvhIdW1.s:76     .text:0000000000000050 .L0 
     /tmp/ccvhIdW1.s:78     .text:0000000000000054 .L0 
     /tmp/ccvhIdW1.s:82     .text:0000000000000054 .L0 
     /tmp/ccvhIdW1.s:83     .text:0000000000000054 .L0 
     /tmp/ccvhIdW1.s:86     .text:0000000000000060 .L0 
     /tmp/ccvhIdW1.s:87     .text:0000000000000060 .L0 
     /tmp/ccvhIdW1.s:90     .text:0000000000000068 .L0 
     /tmp/ccvhIdW1.s:91     .text:0000000000000068 .L0 
     /tmp/ccvhIdW1.s:95     .text:0000000000000074 .L0 
     /tmp/ccvhIdW1.s:96     .text:0000000000000074 .L0 
     /tmp/ccvhIdW1.s:100    .text:0000000000000080 .L0 
     /tmp/ccvhIdW1.s:101    .text:0000000000000080 .L0 
     /tmp/ccvhIdW1.s:104    .text:0000000000000084 .L0 
     /tmp/ccvhIdW1.s:105    .text:0000000000000084 .L0 
     /tmp/ccvhIdW1.s:110    .text:0000000000000094 .L0 
     /tmp/ccvhIdW1.s:111    .text:0000000000000094 .L0 
     /tmp/ccvhIdW1.s:117    .text:00000000000000a4 .L0 
     /tmp/ccvhIdW1.s:118    .text:00000000000000a4 .L0 
     /tmp/ccvhIdW1.s:125    .text:00000000000000b4 .L0 
     /tmp/ccvhIdW1.s:126    .text:00000000000000b4 .L0 
     /tmp/ccvhIdW1.s:130    .text:00000000000000c0 .L0 
     /tmp/ccvhIdW1.s:131    .text:00000000000000c0 .L0 
     /tmp/ccvhIdW1.s:137    .text:00000000000000dc .L0 
     /tmp/ccvhIdW1.s:138    .text:00000000000000dc .L0 
     /tmp/ccvhIdW1.s:144    .text:00000000000000f8 .L0 
     /tmp/ccvhIdW1.s:145    .text:00000000000000f8 .L0 
     /tmp/ccvhIdW1.s:146    .text:00000000000000f8 .L0 
     /tmp/ccvhIdW1.s:147    .text:00000000000000f8 .L0 
GAS LISTING /tmp/ccvhIdW1.s 			page 9


     /tmp/ccvhIdW1.s:148    .text:00000000000000f8 .L0 
     /tmp/ccvhIdW1.s:155    .text:0000000000000110 .L0 
     /tmp/ccvhIdW1.s:156    .text:0000000000000110 .L0 
     /tmp/ccvhIdW1.s:157    .text:0000000000000110 .L0 
     /tmp/ccvhIdW1.s:159    .text:0000000000000114 .L0 
     /tmp/ccvhIdW1.s:161    .text:0000000000000118 .L0 
     /tmp/ccvhIdW1.s:164    .text:0000000000000120 .L0 
     /tmp/ccvhIdW1.s:165    .text:0000000000000120 .L0 
     /tmp/ccvhIdW1.s:170    .text:000000000000012c .L0 
     /tmp/ccvhIdW1.s:171    .text:000000000000012c .L0 
     /tmp/ccvhIdW1.s:176    .text:0000000000000134 .L0 
     /tmp/ccvhIdW1.s:177    .text:0000000000000138 .L0 
     /tmp/ccvhIdW1.s:179    .text:000000000000013c .L0 
     /tmp/ccvhIdW1.s:180    .text:000000000000013c .L0 
     /tmp/ccvhIdW1.s:182    .text:0000000000000140 .L0 
     /tmp/ccvhIdW1.s:185    .text:0000000000000144 .L0 
     /tmp/ccvhIdW1.s:187    .text:0000000000000148 .L0 
     /tmp/ccvhIdW1.s:190    .text:000000000000014c .L0 
     /tmp/ccvhIdW1.s:192    .text:0000000000000150 .L0 
     /tmp/ccvhIdW1.s:50     .text:0000000000000028 _ZN6SystemC1Ev
     /tmp/ccvhIdW1.s:202    .bss:0000000000000000 _ZN6System11initializedE
     /tmp/ccvhIdW1.s:199    .bss:0000000000000000 .LANCHOR0
     /tmp/ccvhIdW1.s:216    .text:0000000000000150 .L0 
     /tmp/ccvhIdW1.s:58     .text:0000000000000028 .L0 
     /tmp/ccvhIdW1.s:84     .text:0000000000000058 .L0 
     /tmp/ccvhIdW1.s:91     .text:0000000000000068 .L0 
     /tmp/ccvhIdW1.s:41     .rodata.str1.8:0000000000000000 .LC0
     /tmp/ccvhIdW1.s:131    .text:00000000000000c0 .L0 
     /tmp/ccvhIdW1.s:44     .rodata.str1.8:0000000000000008 .LC1
     /tmp/ccvhIdW1.s:133    .text:00000000000000cc .L0 
     /tmp/ccvhIdW1.s:138    .text:00000000000000dc .L0 
     /tmp/ccvhIdW1.s:140    .text:00000000000000e8 .L0 
     /tmp/ccvhIdW1.s:149    .text:00000000000000fc .L0 
     /tmp/ccvhIdW1.s:62     .text:0000000000000038 .L11
     /tmp/ccvhIdW1.s:168    .text:000000000000012c .L5
     /tmp/ccvhIdW1.s:153    .text:0000000000000110 .L6
     /tmp/ccvhIdW1.s:2008   .debug_abbrev:0000000000000000 .Ldebug_abbrev0
     /tmp/ccvhIdW1.s:3407   .debug_str:0000000000000dea .LASF263
     /tmp/ccvhIdW1.s:3257   .debug_str:000000000000093e .LASF264
     /tmp/ccvhIdW1.s:3039   .debug_str:000000000000014b .LASF265
     /tmp/ccvhIdW1.s:5      .text:0000000000000000 .Ltext0
     /tmp/ccvhIdW1.s:205    .text:0000000000000150 .Letext0
     /tmp/ccvhIdW1.s:2997   .debug_line:0000000000000000 .Ldebug_line0
     /tmp/ccvhIdW1.s:3149   .debug_str:000000000000055a .LASF0
     /tmp/ccvhIdW1.s:3181   .debug_str:000000000000068e .LASF1
     /tmp/ccvhIdW1.s:3327   .debug_str:0000000000000b97 .LASF2
     /tmp/ccvhIdW1.s:3331   .debug_str:0000000000000bac .LASF4
     /tmp/ccvhIdW1.s:3161   .debug_str:00000000000005ad .LASF3
     /tmp/ccvhIdW1.s:3017   .debug_str:00000000000000a8 .LASF5
     /tmp/ccvhIdW1.s:3269   .debug_str:00000000000009a5 .LASF6
     /tmp/ccvhIdW1.s:3169   .debug_str:00000000000005ef .LASF7
     /tmp/ccvhIdW1.s:3127   .debug_str:000000000000048c .LASF8
     /tmp/ccvhIdW1.s:3139   .debug_str:0000000000000504 .LASF9
     /tmp/ccvhIdW1.s:3061   .debug_str:0000000000000224 .LASF10
     /tmp/ccvhIdW1.s:3121   .debug_str:000000000000044c .LASF11
     /tmp/ccvhIdW1.s:3079   .debug_str:00000000000002d2 .LASF12
     /tmp/ccvhIdW1.s:3059   .debug_str:0000000000000214 .LASF13
GAS LISTING /tmp/ccvhIdW1.s 			page 10


     /tmp/ccvhIdW1.s:3379   .debug_str:0000000000000d42 .LASF14
     /tmp/ccvhIdW1.s:3109   .debug_str:00000000000003ed .LASF15
     /tmp/ccvhIdW1.s:3363   .debug_str:0000000000000cc6 .LASF16
     /tmp/ccvhIdW1.s:3203   .debug_str:0000000000000797 .LASF17
     /tmp/ccvhIdW1.s:2999   .debug_str:0000000000000000 .LASF18
     /tmp/ccvhIdW1.s:3209   .debug_str:00000000000007c8 .LASF59
     /tmp/ccvhIdW1.s:3507   .debug_str:00000000000011ca .LASF61
     /tmp/ccvhIdW1.s:3145   .debug_str:0000000000000522 .LASF20
     /tmp/ccvhIdW1.s:3027   .debug_str:00000000000000fb .LASF120
     /tmp/ccvhIdW1.s:3439   .debug_str:0000000000000fe6 .LASF19
     /tmp/ccvhIdW1.s:3135   .debug_str:00000000000004f4 .LASF21
     /tmp/ccvhIdW1.s:3399   .debug_str:0000000000000db7 .LASF22
     /tmp/ccvhIdW1.s:3343   .debug_str:0000000000000c17 .LASF23
     /tmp/ccvhIdW1.s:3081   .debug_str:00000000000002e2 .LASF25
     /tmp/ccvhIdW1.s:3305   .debug_str:0000000000000ad0 .LASF24
     /tmp/ccvhIdW1.s:3049   .debug_str:00000000000001bb .LASF26
     /tmp/ccvhIdW1.s:3367   .debug_str:0000000000000ce3 .LASF27
     /tmp/ccvhIdW1.s:3387   .debug_str:0000000000000d6b .LASF28
     /tmp/ccvhIdW1.s:3273   .debug_str:00000000000009e3 .LASF29
     /tmp/ccvhIdW1.s:3207   .debug_str:00000000000007a2 .LASF30
     /tmp/ccvhIdW1.s:3171   .debug_str:0000000000000602 .LASF31
     /tmp/ccvhIdW1.s:3003   .debug_str:000000000000001e .LASF32
     /tmp/ccvhIdW1.s:3415   .debug_str:0000000000000ed6 .LASF33
     /tmp/ccvhIdW1.s:3147   .debug_str:000000000000052e .LASF34
     /tmp/ccvhIdW1.s:3307   .debug_str:0000000000000ae6 .LASF35
     /tmp/ccvhIdW1.s:3129   .debug_str:000000000000049c .LASF36
     /tmp/ccvhIdW1.s:3297   .debug_str:0000000000000a76 .LASF37
     /tmp/ccvhIdW1.s:3267   .debug_str:0000000000000982 .LASF38
     /tmp/ccvhIdW1.s:3001   .debug_str:0000000000000007 .LASF39
     /tmp/ccvhIdW1.s:3517   .debug_str:0000000000001222 .LASF40
     /tmp/ccvhIdW1.s:3193   .debug_str:0000000000000702 .LASF41
     /tmp/ccvhIdW1.s:3535   .debug_str:00000000000012db .LASF42
     /tmp/ccvhIdW1.s:3483   .debug_str:0000000000001104 .LASF43
     /tmp/ccvhIdW1.s:3131   .debug_str:00000000000004c3 .LASF44
     /tmp/ccvhIdW1.s:3111   .debug_str:0000000000000403 .LASF45
     /tmp/ccvhIdW1.s:3497   .debug_str:0000000000001178 .LASF46
     /tmp/ccvhIdW1.s:3361   .debug_str:0000000000000cb3 .LASF47
     /tmp/ccvhIdW1.s:3157   .debug_str:0000000000000588 .LASF48
     /tmp/ccvhIdW1.s:3187   .debug_str:00000000000006d8 .LASF49
     /tmp/ccvhIdW1.s:3429   .debug_str:0000000000000f6e .LASF50
     /tmp/ccvhIdW1.s:3029   .debug_str:000000000000010a .LASF51
     /tmp/ccvhIdW1.s:3199   .debug_str:0000000000000767 .LASF52
     /tmp/ccvhIdW1.s:3347   .debug_str:0000000000000c38 .LASF53
     /tmp/ccvhIdW1.s:3125   .debug_str:0000000000000466 .LASF54
     /tmp/ccvhIdW1.s:3533   .debug_str:00000000000012bf .LASF55
     /tmp/ccvhIdW1.s:3173   .debug_str:000000000000061f .LASF56
     /tmp/ccvhIdW1.s:3469   .debug_str:00000000000010b8 .LASF57
     /tmp/ccvhIdW1.s:3041   .debug_str:000000000000017c .LASF58
     /tmp/ccvhIdW1.s:3201   .debug_str:000000000000078b .LASF60
     /tmp/ccvhIdW1.s:3421   .debug_str:0000000000000f22 .LASF62
     /tmp/ccvhIdW1.s:3447   .debug_str:0000000000001017 .LASF65
     /tmp/ccvhIdW1.s:3511   .debug_str:00000000000011f1 .LASF67
     /tmp/ccvhIdW1.s:3323   .debug_str:0000000000000b83 .LASF63
     /tmp/ccvhIdW1.s:3513   .debug_str:0000000000001206 .LASF64
     /tmp/ccvhIdW1.s:3461   .debug_str:000000000000106c .LASF66
     /tmp/ccvhIdW1.s:3179   .debug_str:000000000000067b .LASF68
     /tmp/ccvhIdW1.s:3235   .debug_str:00000000000008a4 .LASF69
GAS LISTING /tmp/ccvhIdW1.s 			page 11


     /tmp/ccvhIdW1.s:3085   .debug_str:0000000000000328 .LASF70
     /tmp/ccvhIdW1.s:3495   .debug_str:0000000000001170 .LASF71
     /tmp/ccvhIdW1.s:3035   .debug_str:000000000000012f .LASF72
     /tmp/ccvhIdW1.s:3231   .debug_str:0000000000000893 .LASF73
     /tmp/ccvhIdW1.s:3089   .debug_str:0000000000000349 .LASF74
     /tmp/ccvhIdW1.s:3481   .debug_str:00000000000010fa .LASF75
     /tmp/ccvhIdW1.s:3177   .debug_str:0000000000000665 .LASF76
     /tmp/ccvhIdW1.s:3473   .debug_str:00000000000010d4 .LASF77
     /tmp/ccvhIdW1.s:3115   .debug_str:0000000000000421 .LASF78
     /tmp/ccvhIdW1.s:3019   .debug_str:00000000000000af .LASF79
     /tmp/ccvhIdW1.s:3423   .debug_str:0000000000000f3c .LASF80
     /tmp/ccvhIdW1.s:3325   .debug_str:0000000000000b8c .LASF81
     /tmp/ccvhIdW1.s:3067   .debug_str:0000000000000260 .LASF82
     /tmp/ccvhIdW1.s:3375   .debug_str:0000000000000d2d .LASF83
     /tmp/ccvhIdW1.s:3077   .debug_str:00000000000002bf .LASF84
     /tmp/ccvhIdW1.s:3337   .debug_str:0000000000000bd9 .LASF85
     /tmp/ccvhIdW1.s:3221   .debug_str:0000000000000829 .LASF86
     /tmp/ccvhIdW1.s:3359   .debug_str:0000000000000cac .LASF87
     /tmp/ccvhIdW1.s:3071   .debug_str:0000000000000284 .LASF88
     /tmp/ccvhIdW1.s:3329   .debug_str:0000000000000ba5 .LASF89
     /tmp/ccvhIdW1.s:3299   .debug_str:0000000000000a8c .LASF90
     /tmp/ccvhIdW1.s:3315   .debug_str:0000000000000b42 .LASF91
     /tmp/ccvhIdW1.s:3165   .debug_str:00000000000005cc .LASF92
     /tmp/ccvhIdW1.s:3073   .debug_str:0000000000000297 .LASF93
     /tmp/ccvhIdW1.s:3271   .debug_str:00000000000009b8 .LASF94
     /tmp/ccvhIdW1.s:3143   .debug_str:0000000000000517 .LASF95
     /tmp/ccvhIdW1.s:3225   .debug_str:000000000000085e .LASF96
     /tmp/ccvhIdW1.s:3391   .debug_str:0000000000000d9b .LASF97
     /tmp/ccvhIdW1.s:3371   .debug_str:0000000000000d15 .LASF98
     /tmp/ccvhIdW1.s:3493   .debug_str:0000000000001161 .LASF99
     /tmp/ccvhIdW1.s:3441   .debug_str:0000000000000fec .LASF100
     /tmp/ccvhIdW1.s:3277   .debug_str:0000000000000a06 .LASF101
     /tmp/ccvhIdW1.s:3083   .debug_str:0000000000000306 .LASF102
     /tmp/ccvhIdW1.s:3457   .debug_str:000000000000104f .LASF103
     /tmp/ccvhIdW1.s:3301   .debug_str:0000000000000a9f .LASF104
     /tmp/ccvhIdW1.s:3015   .debug_str:0000000000000096 .LASF105
     /tmp/ccvhIdW1.s:3433   .debug_str:0000000000000fa6 .LASF106
     /tmp/ccvhIdW1.s:3351   .debug_str:0000000000000c59 .LASF107
     /tmp/ccvhIdW1.s:3339   .debug_str:0000000000000be0 .LASF108
     /tmp/ccvhIdW1.s:3527   .debug_str:0000000000001277 .LASF109
     /tmp/ccvhIdW1.s:3539   .debug_str:0000000000001322 .LASF110
     /tmp/ccvhIdW1.s:3313   .debug_str:0000000000000b2c .LASF111
     /tmp/ccvhIdW1.s:3355   .debug_str:0000000000000c7e .LASF112
     /tmp/ccvhIdW1.s:3105   .debug_str:00000000000003a8 .LASF113
     /tmp/ccvhIdW1.s:3245   .debug_str:00000000000008f8 .LASF114
     /tmp/ccvhIdW1.s:3357   .debug_str:0000000000000ca1 .LASF115
     /tmp/ccvhIdW1.s:3333   .debug_str:0000000000000bb3 .LASF116
     /tmp/ccvhIdW1.s:3021   .debug_str:00000000000000ba .LASF117
     /tmp/ccvhIdW1.s:3057   .debug_str:00000000000001ff .LASF118
     /tmp/ccvhIdW1.s:3037   .debug_str:0000000000000143 .LASF119
     /tmp/ccvhIdW1.s:3229   .debug_str:0000000000000883 .LASF121
     /tmp/ccvhIdW1.s:3063   .debug_str:0000000000000233 .LASF122
     /tmp/ccvhIdW1.s:3009   .debug_str:0000000000000052 .LASF123
     /tmp/ccvhIdW1.s:3411   .debug_str:0000000000000eba .LASF124
     /tmp/ccvhIdW1.s:3471   .debug_str:00000000000010cb .LASF125
     /tmp/ccvhIdW1.s:3389   .debug_str:0000000000000d93 .LASF266
     /tmp/ccvhIdW1.s:3515   .debug_str:000000000000121b .LASF130
GAS LISTING /tmp/ccvhIdW1.s 			page 12


     /tmp/ccvhIdW1.s:3349   .debug_str:0000000000000c51 .LASF126
     /tmp/ccvhIdW1.s:3055   .debug_str:00000000000001f9 .LASF127
     /tmp/ccvhIdW1.s:3045   .debug_str:00000000000001a6 .LASF128
     /tmp/ccvhIdW1.s:3281   .debug_str:0000000000000a24 .LASF129
     /tmp/ccvhIdW1.s:3141   .debug_str:0000000000000512 .LASF131
     /tmp/ccvhIdW1.s:3159   .debug_str:00000000000005a8 .LASF132
     /tmp/ccvhIdW1.s:3155   .debug_str:000000000000057d .LASF133
     /tmp/ccvhIdW1.s:3069   .debug_str:0000000000000278 .LASF134
     /tmp/ccvhIdW1.s:3369   .debug_str:0000000000000cfe .LASF135
     /tmp/ccvhIdW1.s:3255   .debug_str:0000000000000939 .LASF136
     /tmp/ccvhIdW1.s:3249   .debug_str:0000000000000929 .LASF137
     /tmp/ccvhIdW1.s:3013   .debug_str:000000000000008a .LASF138
     /tmp/ccvhIdW1.s:3191   .debug_str:00000000000006fa .LASF139
     /tmp/ccvhIdW1.s:3449   .debug_str:0000000000001020 .LASF140
     /tmp/ccvhIdW1.s:3529   .debug_str:0000000000001291 .LASF141
     /tmp/ccvhIdW1.s:3133   .debug_str:00000000000004e8 .LASF142
     /tmp/ccvhIdW1.s:3247   .debug_str:000000000000091c .LASF143
     /tmp/ccvhIdW1.s:3435   .debug_str:0000000000000fc5 .LASF144
     /tmp/ccvhIdW1.s:3093   .debug_str:0000000000000369 .LASF145
     /tmp/ccvhIdW1.s:3097   .debug_str:0000000000000387 .LASF146
     /tmp/ccvhIdW1.s:3303   .debug_str:0000000000000abd .LASF147
     /tmp/ccvhIdW1.s:3259   .debug_str:000000000000094d .LASF148
     /tmp/ccvhIdW1.s:3275   .debug_str:00000000000009fc .LASF149
     /tmp/ccvhIdW1.s:3075   .debug_str:00000000000002b5 .LASF150
     /tmp/ccvhIdW1.s:3087   .debug_str:000000000000033b .LASF151
     /tmp/ccvhIdW1.s:3011   .debug_str:0000000000000062 .LASF152
     /tmp/ccvhIdW1.s:3459   .debug_str:0000000000001060 .LASF153
     /tmp/ccvhIdW1.s:3431   .debug_str:0000000000000f8e .LASF154
     /tmp/ccvhIdW1.s:3509   .debug_str:00000000000011e9 .LASF155
     /tmp/ccvhIdW1.s:3467   .debug_str:00000000000010b1 .LASF156
     /tmp/ccvhIdW1.s:3397   .debug_str:0000000000000db2 .LASF157
     /tmp/ccvhIdW1.s:3007   .debug_str:000000000000004d .LASF158
     /tmp/ccvhIdW1.s:3523   .debug_str:0000000000001267 .LASF159
     /tmp/ccvhIdW1.s:3205   .debug_str:000000000000079c .LASF160
     /tmp/ccvhIdW1.s:3417   .debug_str:0000000000000ef5 .LASF161
     /tmp/ccvhIdW1.s:3453   .debug_str:000000000000103f .LASF162
     /tmp/ccvhIdW1.s:3485   .debug_str:000000000000111c .LASF163
     /tmp/ccvhIdW1.s:3503   .debug_str:00000000000011b9 .LASF164
     /tmp/ccvhIdW1.s:3427   .debug_str:0000000000000f64 .LASF165
     /tmp/ccvhIdW1.s:3033   .debug_str:0000000000000126 .LASF166
     /tmp/ccvhIdW1.s:3489   .debug_str:0000000000001133 .LASF167
     /tmp/ccvhIdW1.s:3293   .debug_str:0000000000000a61 .LASF168
     /tmp/ccvhIdW1.s:3403   .debug_str:0000000000000dd8 .LASF169
     /tmp/ccvhIdW1.s:3101   .debug_str:0000000000000395 .LASF170
     /tmp/ccvhIdW1.s:3341   .debug_str:0000000000000c06 .LASF171
     /tmp/ccvhIdW1.s:3153   .debug_str:0000000000000571 .LASF172
     /tmp/ccvhIdW1.s:3091   .debug_str:000000000000035d .LASF173
     /tmp/ccvhIdW1.s:3047   .debug_str:00000000000001af .LASF174
     /tmp/ccvhIdW1.s:3443   .debug_str:0000000000001008 .LASF175
     /tmp/ccvhIdW1.s:3237   .debug_str:00000000000008ab .LASF176
     /tmp/ccvhIdW1.s:3099   .debug_str:0000000000000390 .LASF177
     /tmp/ccvhIdW1.s:3487   .debug_str:0000000000001124 .LASF178
     /tmp/ccvhIdW1.s:3383   .debug_str:0000000000000d5b .LASF179
     /tmp/ccvhIdW1.s:3263   .debug_str:0000000000000968 .LASF180
     /tmp/ccvhIdW1.s:3251   .debug_str:000000000000092e .LASF181
     /tmp/ccvhIdW1.s:3289   .debug_str:0000000000000a45 .LASF182
     /tmp/ccvhIdW1.s:3519   .debug_str:0000000000001246 .LASF183
GAS LISTING /tmp/ccvhIdW1.s 			page 13


     /tmp/ccvhIdW1.s:3501   .debug_str:00000000000011a7 .LASF184
     /tmp/ccvhIdW1.s:3287   .debug_str:0000000000000a36 .LASF185
     /tmp/ccvhIdW1.s:3065   .debug_str:0000000000000245 .LASF186
     /tmp/ccvhIdW1.s:3395   .debug_str:0000000000000da6 .LASF187
     /tmp/ccvhIdW1.s:3381   .debug_str:0000000000000d4e .LASF267
     /tmp/ccvhIdW1.s:3409   .debug_str:0000000000000eae .LASF188
     /tmp/ccvhIdW1.s:3217   .debug_str:0000000000000808 .LASF189
     /tmp/ccvhIdW1.s:3291   .debug_str:0000000000000a55 .LASF190
     /tmp/ccvhIdW1.s:3499   .debug_str:000000000000119d .LASF191
     /tmp/ccvhIdW1.s:3385   .debug_str:0000000000000d62 .LASF192
     /tmp/ccvhIdW1.s:3413   .debug_str:0000000000000ecb .LASF248
     /tmp/ccvhIdW1.s:3451   .debug_str:0000000000001033 .LASF193
     /tmp/ccvhIdW1.s:3023   .debug_str:00000000000000c3 .LASF194
     /tmp/ccvhIdW1.s:3151   .debug_str:0000000000000567 .LASF195
     /tmp/ccvhIdW1.s:3295   .debug_str:0000000000000a6c .LASF196
     /tmp/ccvhIdW1.s:3183   .debug_str:00000000000006a1 .LASF197
     /tmp/ccvhIdW1.s:3455   .debug_str:0000000000001044 .LASF198
     /tmp/ccvhIdW1.s:3317   .debug_str:0000000000000b53 .LASF199
     /tmp/ccvhIdW1.s:3437   .debug_str:0000000000000fca .LASF200
     /tmp/ccvhIdW1.s:3233   .debug_str:000000000000089b .LASF201
     /tmp/ccvhIdW1.s:3311   .debug_str:0000000000000b10 .LASF202
     /tmp/ccvhIdW1.s:3321   .debug_str:0000000000000b79 .LASF203
     /tmp/ccvhIdW1.s:3319   .debug_str:0000000000000b5c .LASF204
     /tmp/ccvhIdW1.s:3043   .debug_str:000000000000019c .LASF205
     /tmp/ccvhIdW1.s:3175   .debug_str:0000000000000648 .LASF206
     /tmp/ccvhIdW1.s:3463   .debug_str:0000000000001073 .LASF207
     /tmp/ccvhIdW1.s:3425   .debug_str:0000000000000f54 .LASF208
     /tmp/ccvhIdW1.s:3537   .debug_str:00000000000012fe .LASF209
     /tmp/ccvhIdW1.s:3119   .debug_str:0000000000000443 .LASF210
     /tmp/ccvhIdW1.s:3215   .debug_str:00000000000007ea .LASF211
     /tmp/ccvhIdW1.s:3505   .debug_str:00000000000011be .LASF212
     /tmp/ccvhIdW1.s:3195   .debug_str:0000000000000718 .LASF213
     /tmp/ccvhIdW1.s:3053   .debug_str:00000000000001f3 .LASF214
     /tmp/ccvhIdW1.s:3465   .debug_str:0000000000001092 .LASF215
     /tmp/ccvhIdW1.s:3393   .debug_str:0000000000000da1 .LASF216
     /tmp/ccvhIdW1.s:3335   .debug_str:0000000000000bcb .LASF217
     /tmp/ccvhIdW1.s:3211   .debug_str:00000000000007d8 .LASF228
     /tmp/ccvhIdW1.s:3365   .debug_str:0000000000000cdc .LASF218
     /tmp/ccvhIdW1.s:3531   .debug_str:000000000000129e .LASF220
     /tmp/ccvhIdW1.s:3103   .debug_str:00000000000003a0 .LASF219
     /tmp/ccvhIdW1.s:3223   .debug_str:000000000000083c .LASF221
     /tmp/ccvhIdW1.s:3031   .debug_str:0000000000000121 .LASF222
     /tmp/ccvhIdW1.s:3095   .debug_str:0000000000000378 .LASF223
     /tmp/ccvhIdW1.s:3401   .debug_str:0000000000000dc8 .LASF224
     /tmp/ccvhIdW1.s:3525   .debug_str:000000000000126c .LASF225
     /tmp/ccvhIdW1.s:3239   .debug_str:00000000000008b7 .LASF226
     /tmp/ccvhIdW1.s:3475   .debug_str:00000000000010de .LASF227
     /tmp/ccvhIdW1.s:3113   .debug_str:000000000000041b .LASF229
     /tmp/ccvhIdW1.s:3167   .debug_str:00000000000005ea .LASF230
     /tmp/ccvhIdW1.s:3477   .debug_str:00000000000010eb .LASF231
     /tmp/ccvhIdW1.s:3253   .debug_str:0000000000000934 .LASF232
     /tmp/ccvhIdW1.s:3137   .debug_str:00000000000004ff .LASF233
     /tmp/ccvhIdW1.s:3445   .debug_str:000000000000100d .LASF234
     /tmp/ccvhIdW1.s:3117   .debug_str:0000000000000437 .LASF235
     /tmp/ccvhIdW1.s:3265   .debug_str:0000000000000979 .LASF236
     /tmp/ccvhIdW1.s:3419   .debug_str:0000000000000eff .LASF237
     /tmp/ccvhIdW1.s:3353   .debug_str:0000000000000c72 .LASF240
GAS LISTING /tmp/ccvhIdW1.s 			page 14


     /tmp/ccvhIdW1.s:3107   .debug_str:00000000000003bf .LASF242
     /tmp/ccvhIdW1.s:3227   .debug_str:0000000000000876 .LASF238
     /tmp/ccvhIdW1.s:3197   .debug_str:000000000000073a .LASF239
     /tmp/ccvhIdW1.s:3163   .debug_str:00000000000005bf .LASF241
     /tmp/ccvhIdW1.s:3185   .debug_str:00000000000006ac .LASF243
     /tmp/ccvhIdW1.s:3345   .debug_str:0000000000000c2e .LASF244
     /tmp/ccvhIdW1.s:3243   .debug_str:00000000000008d0 .LASF245
     /tmp/ccvhIdW1.s:3123   .debug_str:000000000000045b .LASF246
     /tmp/ccvhIdW1.s:3025   .debug_str:00000000000000d0 .LASF247
     /tmp/ccvhIdW1.s:3373   .debug_str:0000000000000d27 .LASF249
     /tmp/ccvhIdW1.s:3479   .debug_str:00000000000010f4 .LASF250
     /tmp/ccvhIdW1.s:3405   .debug_str:0000000000000de0 .LASF251
     /tmp/ccvhIdW1.s:3051   .debug_str:00000000000001de .LASF252
     /tmp/ccvhIdW1.s:3521   .debug_str:000000000000124e .LASF268
     /tmp/ccvhIdW1.s:10     .text:0000000000000000 .LFB40
     /tmp/ccvhIdW1.s:37     .text:0000000000000028 .LFE40
     /tmp/ccvhIdW1.s:2920   .debug_loc:0000000000000000 .LLST0
     /tmp/ccvhIdW1.s:26     .text:0000000000000018 .LVL1
     /tmp/ccvhIdW1.s:3005   .debug_str:0000000000000048 .LASF269
     /tmp/ccvhIdW1.s:3261   .debug_str:0000000000000963 .LASF253
     /tmp/ccvhIdW1.s:3283   .debug_str:0000000000000a2c .LASF254
     /tmp/ccvhIdW1.s:3285   .debug_str:0000000000000a31 .LASF255
     /tmp/ccvhIdW1.s:3241   .debug_str:00000000000008c1 .LASF256
     /tmp/ccvhIdW1.s:3189   .debug_str:00000000000006eb .LASF270
     /tmp/ccvhIdW1.s:51     .text:0000000000000028 .LFB38
     /tmp/ccvhIdW1.s:193    .text:0000000000000150 .LFE38
     /tmp/ccvhIdW1.s:2934   .debug_loc:0000000000000039 .LLST1
     /tmp/ccvhIdW1.s:88     .text:0000000000000068 .LVL3
     /tmp/ccvhIdW1.s:98     .text:0000000000000080 .LVL5
     /tmp/ccvhIdW1.s:108    .text:0000000000000094 .LVL7
     /tmp/ccvhIdW1.s:113    .text:00000000000000a0 .LVL8
     /tmp/ccvhIdW1.s:121    .text:00000000000000b0 .LVL11
     /tmp/ccvhIdW1.s:128    .text:00000000000000c0 .LVL13
     /tmp/ccvhIdW1.s:135    .text:00000000000000dc .LVL14
     /tmp/ccvhIdW1.s:142    .text:00000000000000f8 .LVL15
     /tmp/ccvhIdW1.s:152    .text:0000000000000110 .LVL16
     /tmp/ccvhIdW1.s:166    .text:0000000000000128 .LVL17
     /tmp/ccvhIdW1.s:172    .text:0000000000000134 .LVL18
     /tmp/ccvhIdW1.s:80     .text:0000000000000054 .LBB3
     /tmp/ccvhIdW1.s:173    .text:0000000000000134 .LBE3
     /tmp/ccvhIdW1.s:2948   .debug_loc:0000000000000072 .LLST2
     /tmp/ccvhIdW1.s:2955   .debug_loc:0000000000000095 .LLST3
     /tmp/ccvhIdW1.s:2962   .debug_loc:00000000000000b8 .LLST4
     /tmp/ccvhIdW1.s:2977   .debug_loc:0000000000000101 .LLST5
     /tmp/ccvhIdW1.s:3213   .debug_str:00000000000007dd .LASF257
     /tmp/ccvhIdW1.s:3279   .debug_str:0000000000000a1b .LASF259
     /tmp/ccvhIdW1.s:3491   .debug_str:000000000000113c .LASF258
     /tmp/ccvhIdW1.s:3377   .debug_str:0000000000000d34 .LASF260
     /tmp/ccvhIdW1.s:3219   .debug_str:0000000000000814 .LASF261
     /tmp/ccvhIdW1.s:3309   .debug_str:0000000000000b00 .LASF262
     /tmp/ccvhIdW1.s:14     .text:0000000000000000 .LVL0
     /tmp/ccvhIdW1.s:54     .text:0000000000000028 .LVL2
     /tmp/ccvhIdW1.s:93     .text:0000000000000074 .LVL4
     /tmp/ccvhIdW1.s:115    .text:00000000000000a4 .LVL9
     /tmp/ccvhIdW1.s:102    .text:0000000000000084 .LVL6
     /tmp/ccvhIdW1.s:188    .text:0000000000000148 .LVL20
     /tmp/ccvhIdW1.s:119    .text:00000000000000a8 .LVL10
GAS LISTING /tmp/ccvhIdW1.s 			page 15


     /tmp/ccvhIdW1.s:183    .text:0000000000000140 .LVL19
     /tmp/ccvhIdW1.s:123    .text:00000000000000b4 .LVL12
     /tmp/ccvhIdW1.s:217    .debug_info:0000000000000000 .Ldebug_info0

UNDEFINED SYMBOLS
_Z8userMainv
_ZN5RiscV10initializeEv
_ZN13SlabAllocator5cacheE
_ZN13SlabAllocator10printCacheEPNS_5CacheE
_ZN13SlabAllocator9printSlabEPNS_4SlabE
_ZN13SlabAllocator12allocateSlotEPNS_4SlabE
_ZN11ConsoleUtil5printEPKciS1_
_Z13thread_createPP7_threadPFvPvES2_
_Z15thread_dispatchv
_ZN5RiscV8finalizeEv
