GAS LISTING /tmp/ccVDU2Yw.s 			page 1


   1              		.file	"system.cpp"
   2              		.option pic
   3              		.option norelax
   4              		.text
   5              	.Ltext0:
   6              		.align	2
   7              		.globl	_ZN6System15userMainWrapperEPv
   9              	_ZN6System15userMainWrapperEPv:
  10              	.LFB46:
  11              		.file 1 "src/system.cpp"
   1:src/system.cpp **** //
   2:src/system.cpp **** // Created by os on 5/31/22.
   3:src/system.cpp **** //
   4:src/system.cpp **** 
   5:src/system.cpp **** #include "../h/system.hpp"
   6:src/system.cpp **** #include "../h/riscv.hpp"
   7:src/system.cpp **** #include "../h/syscall_c.h"
   8:src/system.cpp **** #include "../tests/userMain.hpp"
   9:src/system.cpp **** #include "../h/printing.hpp"
  10:src/system.cpp **** #include "../h/tcb.hpp"
  11:src/system.cpp **** #include "../h/scheduler.hpp"
  12:src/system.cpp **** //#include "../tests/testUser.hpp"
  13:src/system.cpp **** 
  14:src/system.cpp **** bool System::initialized = false;
  15:src/system.cpp **** 
  16:src/system.cpp **** struct Test{
  17:src/system.cpp ****     uint64 a,b,c,d,e,f;
  18:src/system.cpp **** };
  19:src/system.cpp **** 
  20:src/system.cpp **** void ctor(void* tst){
  21:src/system.cpp ****     ((Test*)tst)->a = 17;
  22:src/system.cpp ****     ((Test*)tst)->b = 32;
  23:src/system.cpp ****     ((Test*)tst)->c = 13;
  24:src/system.cpp **** 
  25:src/system.cpp **** }
  26:src/system.cpp **** 
  27:src/system.cpp **** System::System() {
  28:src/system.cpp ****     //check whether system is already running to prevent user malicious access
  29:src/system.cpp ****     if (!initialized) {
  30:src/system.cpp ****         initialized = true;
  31:src/system.cpp **** 
  32:src/system.cpp ****         //initialize the machine
  33:src/system.cpp ****         RiscV::initialize();
  34:src/system.cpp **** 
  35:src/system.cpp ****         //creating a thread that will be executing user code
  36:src/system.cpp ****         //this is done as to separate user code execution from main kernel thread
  37:src/system.cpp ****         //also it provides kernel with an idle thread that will run itself if user code gets blocke
  38:src/system.cpp **** 
  39:src/system.cpp ****         thread_t userMainThread;
  40:src/system.cpp ****         thread_create(&userMainThread, userMainWrapper, nullptr);
  41:src/system.cpp **** //
  42:src/system.cpp **** //        //return control to user code until it reaches the end
  43:src/system.cpp **** //        //exit only if user is finished and machine is ready to exit (in case there is something 
  44:src/system.cpp ****         while (( (TCB*)userMainThread)->status != TCB::Status::FINISHED) {
  45:src/system.cpp ****             thread_dispatch();
  46:src/system.cpp ****         }
  47:src/system.cpp **** 
GAS LISTING /tmp/ccVDU2Yw.s 			page 2


  48:src/system.cpp ****         //finalize the machine
  49:src/system.cpp ****         RiscV::finalize();
  50:src/system.cpp ****     }
  51:src/system.cpp **** }
  52:src/system.cpp **** 
  53:src/system.cpp **** //wrapper function for userMain as per POSIX threads
  54:src/system.cpp **** void System::userMainWrapper(void *arg){
  12              		.loc 1 54 40
  13              		.cfi_startproc
  14              	.LVL0:
  15 0000 130101FF 		addi	sp,sp,-16
  16              		.cfi_def_cfa_offset 16
  17 0004 23348100 		sd	s0,8(sp)
  18              		.cfi_offset 8, -8
  19 0008 13040101 		addi	s0,sp,16
  20              		.cfi_def_cfa 8, 0
  55:src/system.cpp **** //    int ret = fork();
  56:src/system.cpp **** //
  57:src/system.cpp **** //    if(ret == 0){
  58:src/system.cpp **** //        printString("dete\n");
  59:src/system.cpp **** //    }
  60:src/system.cpp **** //    else {
  61:src/system.cpp **** //        printString("otac\n");
  62:src/system.cpp **** //        thread_dispatch();
  63:src/system.cpp **** //    }
  64:src/system.cpp **** //    MemoryAllocator::showMemory();
  65:src/system.cpp **** //    userMain();
  66:src/system.cpp **** }...
  21              		.loc 1 66 1 is_stmt 0
  22 000c 03348100 		ld	s0,8(sp)
  23              		.cfi_restore 8
  24              		.cfi_def_cfa 2, 16
  25 0010 13010101 		addi	sp,sp,16
  26              		.cfi_def_cfa_offset 0
  27 0014 67800000 		jr	ra
  28              		.cfi_endproc
  29              	.LFE46:
  31              		.align	2
  32              		.globl	_Z4ctorPv
  34              	_Z4ctorPv:
  35              	.LFB42:
  20:src/system.cpp **** void ctor(void* tst){
  36              		.loc 1 20 21 is_stmt 1
  37              		.cfi_startproc
  38              	.LVL1:
  39 0018 130101FF 		addi	sp,sp,-16
  40              		.cfi_def_cfa_offset 16
  41 001c 23348100 		sd	s0,8(sp)
  42              		.cfi_offset 8, -8
  43 0020 13040101 		addi	s0,sp,16
  44              		.cfi_def_cfa 8, 0
  21:src/system.cpp ****     ((Test*)tst)->a = 17;
  45              		.loc 1 21 5
  21:src/system.cpp ****     ((Test*)tst)->a = 17;
  46              		.loc 1 21 21 is_stmt 0
  47 0024 93071001 		li	a5,17
  48 0028 2330F500 		sd	a5,0(a0)
GAS LISTING /tmp/ccVDU2Yw.s 			page 3


  22:src/system.cpp ****     ((Test*)tst)->b = 32;
  49              		.loc 1 22 5 is_stmt 1
  22:src/system.cpp ****     ((Test*)tst)->b = 32;
  50              		.loc 1 22 21 is_stmt 0
  51 002c 93070002 		li	a5,32
  52 0030 2334F500 		sd	a5,8(a0)
  23:src/system.cpp ****     ((Test*)tst)->c = 13;
  53              		.loc 1 23 5 is_stmt 1
  23:src/system.cpp ****     ((Test*)tst)->c = 13;
  54              		.loc 1 23 21 is_stmt 0
  55 0034 9307D000 		li	a5,13
  56 0038 2338F500 		sd	a5,16(a0)
  25:src/system.cpp **** }
  57              		.loc 1 25 1
  58 003c 03348100 		ld	s0,8(sp)
  59              		.cfi_restore 8
  60              		.cfi_def_cfa 2, 16
  61 0040 13010101 		addi	sp,sp,16
  62              		.cfi_def_cfa_offset 0
  63 0044 67800000 		jr	ra
  64              		.cfi_endproc
  65              	.LFE42:
  67              		.align	2
  68              		.globl	_ZN6SystemC2Ev
  70              	_ZN6SystemC2Ev:
  71              	.LFB44:
  27:src/system.cpp **** System::System() {
  72              		.loc 1 27 1 is_stmt 1
  73              		.cfi_startproc
  74              	.LVL2:
  29:src/system.cpp ****     if (!initialized) {
  75              		.loc 1 29 5
  76              	.LBB2:
  29:src/system.cpp ****     if (!initialized) {
  77              		.loc 1 29 9 is_stmt 0
  78 0048 97070000 		lbu	a5,.LANCHOR0
  78      83C70700 
  29:src/system.cpp ****     if (!initialized) {
  79              		.loc 1 29 5
  80 0050 63840700 		beqz	a5,.L13
  81 0054 67800000 		ret
  82              	.L13:
  83              	.LBE2:
  27:src/system.cpp **** System::System() {
  84              		.loc 1 27 1
  85 0058 130101FE 		addi	sp,sp,-32
  86              		.cfi_def_cfa_offset 32
  87 005c 233C1100 		sd	ra,24(sp)
  88 0060 23388100 		sd	s0,16(sp)
  89              		.cfi_offset 1, -8
  90              		.cfi_offset 8, -16
  91 0064 13040102 		addi	s0,sp,32
  92              		.cfi_def_cfa 8, 0
  93              	.LBB4:
  94              	.LBB3:
  30:src/system.cpp ****         initialized = true;
  95              		.loc 1 30 9 is_stmt 1
GAS LISTING /tmp/ccVDU2Yw.s 			page 4


  30:src/system.cpp ****         initialized = true;
  96              		.loc 1 30 21 is_stmt 0
  97 0068 93071000 		li	a5,1
  98 006c 17070000 		sb	a5,.LANCHOR0,a4
  98      2300F700 
  33:src/system.cpp ****         RiscV::initialize();
  99              		.loc 1 33 9 is_stmt 1
  33:src/system.cpp ****         RiscV::initialize();
 100              		.loc 1 33 26 is_stmt 0
 101 0074 97000000 		call	_ZN5RiscV10initializeEv@plt
 101      E7800000 
 102              	.LVL3:
  39:src/system.cpp ****         thread_t userMainThread;
 103              		.loc 1 39 9 is_stmt 1
  40:src/system.cpp ****         thread_create(&userMainThread, userMainWrapper, nullptr);
 104              		.loc 1 40 9
  40:src/system.cpp ****         thread_create(&userMainThread, userMainWrapper, nullptr);
 105              		.loc 1 40 22 is_stmt 0
 106 007c 13060000 		li	a2,0
 107 0080 97050000 		lla	a1,_ZN6System15userMainWrapperEPv
 107      93850500 
 108 0088 130584FE 		addi	a0,s0,-24
 109 008c 97000000 		call	_Z13thread_createPP7_threadPFvPvES2_@plt
 109      E7800000 
 110              	.LVL4:
 111              	.L8:
  44:src/system.cpp ****         while (( (TCB*)userMainThread)->status != TCB::Status::FINISHED) {
 112              		.loc 1 44 9 is_stmt 1
  44:src/system.cpp ****         while (( (TCB*)userMainThread)->status != TCB::Status::FINISHED) {
 113              		.loc 1 44 48
  44:src/system.cpp ****         while (( (TCB*)userMainThread)->status != TCB::Status::FINISHED) {
 114              		.loc 1 44 18 is_stmt 0
 115 0094 833784FE 		ld	a5,-24(s0)
  44:src/system.cpp ****         while (( (TCB*)userMainThread)->status != TCB::Status::FINISHED) {
 116              		.loc 1 44 41
 117 0098 03A70701 		lw	a4,16(a5)
  44:src/system.cpp ****         while (( (TCB*)userMainThread)->status != TCB::Status::FINISHED) {
 118              		.loc 1 44 48
 119 009c 93072000 		li	a5,2
 120 00a0 6308F700 		beq	a4,a5,.L7
  45:src/system.cpp ****             thread_dispatch();
 121              		.loc 1 45 13 is_stmt 1
  45:src/system.cpp ****             thread_dispatch();
 122              		.loc 1 45 28 is_stmt 0
 123 00a4 97000000 		call	_Z15thread_dispatchv@plt
 123      E7800000 
 124              	.LVL5:
 125 00ac 6FF09FFE 		j	.L8
 126              	.L7:
  49:src/system.cpp ****         RiscV::finalize();
 127              		.loc 1 49 9 is_stmt 1
  49:src/system.cpp ****         RiscV::finalize();
 128              		.loc 1 49 24 is_stmt 0
 129 00b0 97000000 		call	_ZN5RiscV8finalizeEv@plt
 129      E7800000 
 130              	.LVL6:
 131              	.LBE3:
GAS LISTING /tmp/ccVDU2Yw.s 			page 5


 132              	.LBE4:
  51:src/system.cpp **** }
 133              		.loc 1 51 1
 134 00b8 83308101 		ld	ra,24(sp)
 135              		.cfi_restore 1
 136 00bc 03340101 		ld	s0,16(sp)
 137              		.cfi_restore 8
 138              		.cfi_def_cfa 2, 32
 139 00c0 13010102 		addi	sp,sp,32
 140              		.cfi_def_cfa_offset 0
 141 00c4 67800000 		jr	ra
 142              		.cfi_endproc
 143              	.LFE44:
 145              		.globl	_ZN6SystemC1Ev
 146              		.set	_ZN6SystemC1Ev,_ZN6SystemC2Ev
 147              		.globl	_ZN6System11initializedE
 148              		.bss
 149              		.set	.LANCHOR0,. + 0
 152              	_ZN6System11initializedE:
 153 0000 00       		.zero	1
 154              		.text
 155              	.Letext0:
 156              		.file 2 "src/../h/../lib/hw.h"
 157              		.file 3 "src/../h/../h/utility.hpp"
 158              		.file 4 "src/../h/system.hpp"
 159              		.file 5 "src/../h/riscv.hpp"
 160              		.file 6 "src/../h/../h/_thread.hpp"
 161              		.file 7 "src/../h/syscall_c.h"
GAS LISTING /tmp/ccVDU2Yw.s 			page 6


DEFINED SYMBOLS
                            *ABS*:0000000000000000 system.cpp
     /tmp/ccVDU2Yw.s:9      .text:0000000000000000 _ZN6System15userMainWrapperEPv
     /tmp/ccVDU2Yw.s:13     .text:0000000000000000 .L0 
     /tmp/ccVDU2Yw.s:15     .text:0000000000000000 .L0 
     /tmp/ccVDU2Yw.s:16     .text:0000000000000004 .L0 
     /tmp/ccVDU2Yw.s:18     .text:0000000000000008 .L0 
     /tmp/ccVDU2Yw.s:20     .text:000000000000000c .L0 
     /tmp/ccVDU2Yw.s:22     .text:000000000000000c .L0 
     /tmp/ccVDU2Yw.s:23     .text:0000000000000010 .L0 
     /tmp/ccVDU2Yw.s:24     .text:0000000000000010 .L0 
     /tmp/ccVDU2Yw.s:26     .text:0000000000000014 .L0 
     /tmp/ccVDU2Yw.s:28     .text:0000000000000018 .L0 
     /tmp/ccVDU2Yw.s:34     .text:0000000000000018 _Z4ctorPv
     /tmp/ccVDU2Yw.s:37     .text:0000000000000018 .L0 
     /tmp/ccVDU2Yw.s:39     .text:0000000000000018 .L0 
     /tmp/ccVDU2Yw.s:40     .text:000000000000001c .L0 
     /tmp/ccVDU2Yw.s:42     .text:0000000000000020 .L0 
     /tmp/ccVDU2Yw.s:44     .text:0000000000000024 .L0 
     /tmp/ccVDU2Yw.s:46     .text:0000000000000024 .L0 
     /tmp/ccVDU2Yw.s:47     .text:0000000000000024 .L0 
     /tmp/ccVDU2Yw.s:50     .text:000000000000002c .L0 
     /tmp/ccVDU2Yw.s:51     .text:000000000000002c .L0 
     /tmp/ccVDU2Yw.s:54     .text:0000000000000034 .L0 
     /tmp/ccVDU2Yw.s:55     .text:0000000000000034 .L0 
     /tmp/ccVDU2Yw.s:58     .text:000000000000003c .L0 
     /tmp/ccVDU2Yw.s:59     .text:0000000000000040 .L0 
     /tmp/ccVDU2Yw.s:60     .text:0000000000000040 .L0 
     /tmp/ccVDU2Yw.s:62     .text:0000000000000044 .L0 
     /tmp/ccVDU2Yw.s:64     .text:0000000000000048 .L0 
     /tmp/ccVDU2Yw.s:70     .text:0000000000000048 _ZN6SystemC2Ev
     /tmp/ccVDU2Yw.s:73     .text:0000000000000048 .L0 
     /tmp/ccVDU2Yw.s:75     .text:0000000000000048 .L0 
     /tmp/ccVDU2Yw.s:77     .text:0000000000000048 .L0 
     /tmp/ccVDU2Yw.s:78     .text:0000000000000048 .L0 
     /tmp/ccVDU2Yw.s:80     .text:0000000000000050 .L0 
     /tmp/ccVDU2Yw.s:85     .text:0000000000000058 .L0 
     /tmp/ccVDU2Yw.s:86     .text:000000000000005c .L0 
     /tmp/ccVDU2Yw.s:89     .text:0000000000000064 .L0 
     /tmp/ccVDU2Yw.s:90     .text:0000000000000064 .L0 
     /tmp/ccVDU2Yw.s:92     .text:0000000000000068 .L0 
     /tmp/ccVDU2Yw.s:96     .text:0000000000000068 .L0 
     /tmp/ccVDU2Yw.s:97     .text:0000000000000068 .L0 
     /tmp/ccVDU2Yw.s:100    .text:0000000000000074 .L0 
     /tmp/ccVDU2Yw.s:101    .text:0000000000000074 .L0 
     /tmp/ccVDU2Yw.s:104    .text:000000000000007c .L0 
     /tmp/ccVDU2Yw.s:105    .text:000000000000007c .L0 
     /tmp/ccVDU2Yw.s:106    .text:000000000000007c .L0 
     /tmp/ccVDU2Yw.s:113    .text:0000000000000094 .L0 
     /tmp/ccVDU2Yw.s:114    .text:0000000000000094 .L0 
     /tmp/ccVDU2Yw.s:115    .text:0000000000000094 .L0 
     /tmp/ccVDU2Yw.s:117    .text:0000000000000098 .L0 
     /tmp/ccVDU2Yw.s:119    .text:000000000000009c .L0 
     /tmp/ccVDU2Yw.s:122    .text:00000000000000a4 .L0 
     /tmp/ccVDU2Yw.s:123    .text:00000000000000a4 .L0 
     /tmp/ccVDU2Yw.s:128    .text:00000000000000b0 .L0 
     /tmp/ccVDU2Yw.s:129    .text:00000000000000b0 .L0 
GAS LISTING /tmp/ccVDU2Yw.s 			page 7


     /tmp/ccVDU2Yw.s:134    .text:00000000000000b8 .L0 
     /tmp/ccVDU2Yw.s:135    .text:00000000000000bc .L0 
     /tmp/ccVDU2Yw.s:137    .text:00000000000000c0 .L0 
     /tmp/ccVDU2Yw.s:138    .text:00000000000000c0 .L0 
     /tmp/ccVDU2Yw.s:140    .text:00000000000000c4 .L0 
     /tmp/ccVDU2Yw.s:142    .text:00000000000000c8 .L0 
     /tmp/ccVDU2Yw.s:70     .text:0000000000000048 _ZN6SystemC1Ev
     /tmp/ccVDU2Yw.s:152    .bss:0000000000000000 _ZN6System11initializedE
     /tmp/ccVDU2Yw.s:149    .bss:0000000000000000 .LANCHOR0
     /tmp/ccVDU2Yw.s:162    .text:00000000000000c8 .L0 
     /tmp/ccVDU2Yw.s:78     .text:0000000000000048 .L0 
     /tmp/ccVDU2Yw.s:98     .text:000000000000006c .L0 
     /tmp/ccVDU2Yw.s:107    .text:0000000000000080 .L0 
     /tmp/ccVDU2Yw.s:82     .text:0000000000000058 .L13
     /tmp/ccVDU2Yw.s:126    .text:00000000000000b0 .L7
     /tmp/ccVDU2Yw.s:111    .text:0000000000000094 .L8
     /tmp/ccVDU2Yw.s:985    .debug_abbrev:0000000000000000 .Ldebug_abbrev0
     /tmp/ccVDU2Yw.s:1916   .debug_str:0000000000000ae5 .LASF138
     /tmp/ccVDU2Yw.s:1682   .debug_str:0000000000000166 .LASF139
     /tmp/ccVDU2Yw.s:1874   .debug_str:00000000000008fa .LASF140
     /tmp/ccVDU2Yw.s:5      .text:0000000000000000 .Ltext0
     /tmp/ccVDU2Yw.s:155    .text:00000000000000c8 .Letext0
     /tmp/ccVDU2Yw.s:1642   .debug_line:0000000000000000 .Ldebug_line0
     /tmp/ccVDU2Yw.s:1656   .debug_str:0000000000000078 .LASF0
     /tmp/ccVDU2Yw.s:1912   .debug_str:0000000000000aca .LASF1
     /tmp/ccVDU2Yw.s:1880   .debug_str:0000000000000956 .LASF2
     /tmp/ccVDU2Yw.s:1860   .debug_str:000000000000086a .LASF4
     /tmp/ccVDU2Yw.s:1868   .debug_str:00000000000008c1 .LASF3
     /tmp/ccVDU2Yw.s:1730   .debug_str:0000000000000304 .LASF5
     /tmp/ccVDU2Yw.s:1770   .debug_str:00000000000004cc .LASF6
     /tmp/ccVDU2Yw.s:1828   .debug_str:000000000000077c .LASF7
     /tmp/ccVDU2Yw.s:1680   .debug_str:0000000000000156 .LASF8
     /tmp/ccVDU2Yw.s:1902   .debug_str:0000000000000a34 .LASF9
     /tmp/ccVDU2Yw.s:1734   .debug_str:0000000000000316 .LASF10
     /tmp/ccVDU2Yw.s:1696   .debug_str:00000000000001e6 .LASF11
     /tmp/ccVDU2Yw.s:1776   .debug_str:000000000000051a .LASF12
     /tmp/ccVDU2Yw.s:1742   .debug_str:0000000000000364 .LASF13
     /tmp/ccVDU2Yw.s:1848   .debug_str:0000000000000813 .LASF14
     /tmp/ccVDU2Yw.s:1746   .debug_str:0000000000000399 .LASF15
     /tmp/ccVDU2Yw.s:1716   .debug_str:00000000000002a6 .LASF16
     /tmp/ccVDU2Yw.s:1764   .debug_str:00000000000004a4 .LASF17
     /tmp/ccVDU2Yw.s:1870   .debug_str:00000000000008d3 .LASF18
     /tmp/ccVDU2Yw.s:1788   .debug_str:00000000000005a4 .LASF19
     /tmp/ccVDU2Yw.s:1822   .debug_str:0000000000000746 .LASF20
     /tmp/ccVDU2Yw.s:1704   .debug_str:0000000000000226 .LASF63
     /tmp/ccVDU2Yw.s:1694   .debug_str:00000000000001c7 .LASF65
     /tmp/ccVDU2Yw.s:1720   .debug_str:00000000000002cc .LASF22
     /tmp/ccVDU2Yw.s:1674   .debug_str:0000000000000119 .LASF128
     /tmp/ccVDU2Yw.s:1684   .debug_str:0000000000000175 .LASF21
     /tmp/ccVDU2Yw.s:1652   .debug_str:000000000000004e .LASF23
     /tmp/ccVDU2Yw.s:1688   .debug_str:000000000000018e .LASF24
     /tmp/ccVDU2Yw.s:1876   .debug_str:000000000000092b .LASF25
     /tmp/ccVDU2Yw.s:1852   .debug_str:0000000000000824 .LASF26
     /tmp/ccVDU2Yw.s:1826   .debug_str:0000000000000765 .LASF27
     /tmp/ccVDU2Yw.s:1796   .debug_str:00000000000005e4 .LASF29
     /tmp/ccVDU2Yw.s:1760   .debug_str:0000000000000470 .LASF28
     /tmp/ccVDU2Yw.s:1904   .debug_str:0000000000000a42 .LASF30
GAS LISTING /tmp/ccVDU2Yw.s 			page 8


     /tmp/ccVDU2Yw.s:1678   .debug_str:000000000000013b .LASF31
     /tmp/ccVDU2Yw.s:1774   .debug_str:00000000000004f2 .LASF32
     /tmp/ccVDU2Yw.s:1702   .debug_str:000000000000020d .LASF33
     /tmp/ccVDU2Yw.s:1878   .debug_str:0000000000000930 .LASF34
     /tmp/ccVDU2Yw.s:1802   .debug_str:000000000000064a .LASF35
     /tmp/ccVDU2Yw.s:1816   .debug_str:0000000000000700 .LASF36
     /tmp/ccVDU2Yw.s:1654   .debug_str:0000000000000059 .LASF37
     /tmp/ccVDU2Yw.s:1752   .debug_str:00000000000003de .LASF38
     /tmp/ccVDU2Yw.s:1758   .debug_str:0000000000000456 .LASF39
     /tmp/ccVDU2Yw.s:1886   .debug_str:0000000000000972 .LASF40
     /tmp/ccVDU2Yw.s:1806   .debug_str:0000000000000677 .LASF41
     /tmp/ccVDU2Yw.s:1714   .debug_str:0000000000000283 .LASF42
     /tmp/ccVDU2Yw.s:1894   .debug_str:00000000000009ea .LASF43
     /tmp/ccVDU2Yw.s:1892   .debug_str:00000000000009c6 .LASF44
     /tmp/ccVDU2Yw.s:1924   .debug_str:0000000000000c05 .LASF45
     /tmp/ccVDU2Yw.s:1810   .debug_str:00000000000006b2 .LASF46
     /tmp/ccVDU2Yw.s:1668   .debug_str:00000000000000e4 .LASF47
     /tmp/ccVDU2Yw.s:1808   .debug_str:000000000000068d .LASF48
     /tmp/ccVDU2Yw.s:1890   .debug_str:00000000000009ae .LASF49
     /tmp/ccVDU2Yw.s:1756   .debug_str:0000000000000431 .LASF50
     /tmp/ccVDU2Yw.s:1686   .debug_str:000000000000017b .LASF51
     /tmp/ccVDU2Yw.s:1780   .debug_str:0000000000000531 .LASF52
     /tmp/ccVDU2Yw.s:1772   .debug_str:00000000000004df .LASF53
     /tmp/ccVDU2Yw.s:1786   .debug_str:0000000000000584 .LASF54
     /tmp/ccVDU2Yw.s:1648   .debug_str:000000000000002d .LASF55
     /tmp/ccVDU2Yw.s:1908   .debug_str:0000000000000a83 .LASF56
     /tmp/ccVDU2Yw.s:1922   .debug_str:0000000000000bec .LASF57
     /tmp/ccVDU2Yw.s:1738   .debug_str:0000000000000334 .LASF58
     /tmp/ccVDU2Yw.s:1750   .debug_str:00000000000003c2 .LASF59
     /tmp/ccVDU2Yw.s:1798   .debug_str:0000000000000608 .LASF60
     /tmp/ccVDU2Yw.s:1644   .debug_str:0000000000000000 .LASF61
     /tmp/ccVDU2Yw.s:1866   .debug_str:00000000000008a1 .LASF62
     /tmp/ccVDU2Yw.s:1900   .debug_str:0000000000000a28 .LASF64
     /tmp/ccVDU2Yw.s:1854   .debug_str:0000000000000835 .LASF66
     /tmp/ccVDU2Yw.s:1926   .debug_str:0000000000000c1b .LASF69
     /tmp/ccVDU2Yw.s:1840   .debug_str:00000000000007d9 .LASF71
     /tmp/ccVDU2Yw.s:1842   .debug_str:00000000000007ee .LASF67
     /tmp/ccVDU2Yw.s:1888   .debug_str:0000000000000999 .LASF68
     /tmp/ccVDU2Yw.s:1700   .debug_str:0000000000000206 .LASF70
     /tmp/ccVDU2Yw.s:1858   .debug_str:0000000000000857 .LASF72
     /tmp/ccVDU2Yw.s:1726   .debug_str:00000000000002e9 .LASF73
     /tmp/ccVDU2Yw.s:1790   .debug_str:00000000000005a9 .LASF74
     /tmp/ccVDU2Yw.s:1914   .debug_str:0000000000000add .LASF75
     /tmp/ccVDU2Yw.s:1728   .debug_str:00000000000002f0 .LASF76
     /tmp/ccVDU2Yw.s:1844   .debug_str:00000000000007f7 .LASF77
     /tmp/ccVDU2Yw.s:1846   .debug_str:00000000000007ff .LASF78
     /tmp/ccVDU2Yw.s:1740   .debug_str:000000000000035a .LASF79
     /tmp/ccVDU2Yw.s:1794   .debug_str:00000000000005ce .LASF80
     /tmp/ccVDU2Yw.s:1722   .debug_str:00000000000002d8 .LASF81
     /tmp/ccVDU2Yw.s:1818   .debug_str:000000000000072a .LASF82
     /tmp/ccVDU2Yw.s:1836   .debug_str:00000000000007bf .LASF83
     /tmp/ccVDU2Yw.s:1934   .debug_str:0000000000000c60 .LASF84
     /tmp/ccVDU2Yw.s:1672   .debug_str:000000000000010e .LASF85
     /tmp/ccVDU2Yw.s:1864   .debug_str:0000000000000889 .LASF86
     /tmp/ccVDU2Yw.s:1884   .debug_str:000000000000096b .LASF87
     /tmp/ccVDU2Yw.s:1712   .debug_str:0000000000000270 .LASF88
     /tmp/ccVDU2Yw.s:1724   .debug_str:00000000000002e2 .LASF89
GAS LISTING /tmp/ccVDU2Yw.s 			page 9


     /tmp/ccVDU2Yw.s:1748   .debug_str:00000000000003af .LASF90
     /tmp/ccVDU2Yw.s:1882   .debug_str:0000000000000964 .LASF91
     /tmp/ccVDU2Yw.s:1676   .debug_str:0000000000000128 .LASF92
     /tmp/ccVDU2Yw.s:1766   .debug_str:00000000000004a9 .LASF93
     /tmp/ccVDU2Yw.s:1928   .debug_str:0000000000000c24 .LASF94
     /tmp/ccVDU2Yw.s:1784   .debug_str:0000000000000573 .LASF95
     /tmp/ccVDU2Yw.s:1762   .debug_str:0000000000000486 .LASF96
     /tmp/ccVDU2Yw.s:1906   .debug_str:0000000000000a65 .LASF97
     /tmp/ccVDU2Yw.s:1692   .debug_str:000000000000019c .LASF98
     /tmp/ccVDU2Yw.s:1830   .debug_str:000000000000078f .LASF99
     /tmp/ccVDU2Yw.s:1824   .debug_str:000000000000074d .LASF100
     /tmp/ccVDU2Yw.s:1820   .debug_str:0000000000000740 .LASF101
     /tmp/ccVDU2Yw.s:1792   .debug_str:00000000000005bc .LASF102
     /tmp/ccVDU2Yw.s:1838   .debug_str:00000000000007ca .LASF103
     /tmp/ccVDU2Yw.s:1768   .debug_str:00000000000004b0 .LASF104
     /tmp/ccVDU2Yw.s:1658   .debug_str:0000000000000085 .LASF105
     /tmp/ccVDU2Yw.s:1782   .debug_str:0000000000000551 .LASF106
     /tmp/ccVDU2Yw.s:1938   .debug_str:0000000000000c8a .LASF107
     /tmp/ccVDU2Yw.s:1898   .debug_str:0000000000000a0a .LASF108
     /tmp/ccVDU2Yw.s:1936   .debug_str:0000000000000c78 .LASF109
     /tmp/ccVDU2Yw.s:1872   .debug_str:00000000000008db .LASF110
     /tmp/ccVDU2Yw.s:1930   .debug_str:0000000000000c37 .LASF111
     /tmp/ccVDU2Yw.s:1814   .debug_str:00000000000006da .LASF112
     /tmp/ccVDU2Yw.s:1646   .debug_str:0000000000000013 .LASF113
     /tmp/ccVDU2Yw.s:1754   .debug_str:000000000000040a .LASF114
     /tmp/ccVDU2Yw.s:1708   .debug_str:000000000000024b .LASF115
     /tmp/ccVDU2Yw.s:1910   .debug_str:0000000000000aa7 .LASF116
     /tmp/ccVDU2Yw.s:1664   .debug_str:00000000000000ad .LASF117
     /tmp/ccVDU2Yw.s:1918   .debug_str:0000000000000bb5 .LASF118
     /tmp/ccVDU2Yw.s:1834   .debug_str:00000000000007af .LASF119
     /tmp/ccVDU2Yw.s:1666   .debug_str:00000000000000c4 .LASF120
     /tmp/ccVDU2Yw.s:1732   .debug_str:000000000000030b .LASF121
     /tmp/ccVDU2Yw.s:1862   .debug_str:0000000000000871 .LASF122
     /tmp/ccVDU2Yw.s:1896   .debug_str:0000000000000a01 .LASF123
     /tmp/ccVDU2Yw.s:1832   .debug_str:000000000000079a .LASF124
     /tmp/ccVDU2Yw.s:1778   .debug_str:000000000000052a .LASF125
     /tmp/ccVDU2Yw.s:1920   .debug_str:0000000000000bd9 .LASF126
     /tmp/ccVDU2Yw.s:1856   .debug_str:000000000000084f .LASF127
     /tmp/ccVDU2Yw.s:1932   .debug_str:0000000000000c50 .LASF129
     /tmp/ccVDU2Yw.s:1670   .debug_str:00000000000000fc .LASF130
     /tmp/ccVDU2Yw.s:1804   .debug_str:0000000000000667 .LASF131
     /tmp/ccVDU2Yw.s:1698   .debug_str:00000000000001f5 .LASF132
     /tmp/ccVDU2Yw.s:1690   .debug_str:0000000000000193 .LASF133
     /tmp/ccVDU2Yw.s:1800   .debug_str:0000000000000631 .LASF141
     /tmp/ccVDU2Yw.s:1850   .debug_str:000000000000081f .LASF142
     /tmp/ccVDU2Yw.s:10     .text:0000000000000000 .LFB46
     /tmp/ccVDU2Yw.s:29     .text:0000000000000018 .LFE46
     /tmp/ccVDU2Yw.s:1812   .debug_str:00000000000006d5 .LASF143
     /tmp/ccVDU2Yw.s:1710   .debug_str:0000000000000261 .LASF144
     /tmp/ccVDU2Yw.s:1736   .debug_str:0000000000000325 .LASF145
     /tmp/ccVDU2Yw.s:71     .text:0000000000000048 .LFB44
     /tmp/ccVDU2Yw.s:143    .text:00000000000000c8 .LFE44
     /tmp/ccVDU2Yw.s:1615   .debug_loc:0000000000000000 .LLST0
     /tmp/ccVDU2Yw.s:102    .text:000000000000007c .LVL3
     /tmp/ccVDU2Yw.s:110    .text:0000000000000094 .LVL4
     /tmp/ccVDU2Yw.s:124    .text:00000000000000ac .LVL5
     /tmp/ccVDU2Yw.s:130    .text:00000000000000b8 .LVL6
GAS LISTING /tmp/ccVDU2Yw.s 			page 10


     /tmp/ccVDU2Yw.s:94     .text:0000000000000068 .LBB3
     /tmp/ccVDU2Yw.s:131    .text:00000000000000b8 .LBE3
     /tmp/ccVDU2Yw.s:1662   .debug_str:00000000000000a8 .LASF146
     /tmp/ccVDU2Yw.s:1650   .debug_str:0000000000000044 .LASF147
     /tmp/ccVDU2Yw.s:35     .text:0000000000000018 .LFB42
     /tmp/ccVDU2Yw.s:65     .text:0000000000000048 .LFE42
     /tmp/ccVDU2Yw.s:1744   .debug_str:0000000000000374 .LASF134
     /tmp/ccVDU2Yw.s:1660   .debug_str:000000000000009a .LASF136
     /tmp/ccVDU2Yw.s:1706   .debug_str:0000000000000236 .LASF135
     /tmp/ccVDU2Yw.s:1718   .debug_str:00000000000002bc .LASF137
     /tmp/ccVDU2Yw.s:74     .text:0000000000000048 .LVL2
     /tmp/ccVDU2Yw.s:163    .debug_info:0000000000000000 .Ldebug_info0

UNDEFINED SYMBOLS
_ZN5RiscV10initializeEv
_Z13thread_createPP7_threadPFvPvES2_
_Z15thread_dispatchv
_ZN5RiscV8finalizeEv
