GAS LISTING /tmp/ccVnBpmS.s 			page 1


   1              		.file	"system.cpp"
   2              		.option pic
   3              		.option norelax
   4              		.text
   5              	.Ltext0:
   6              		.align	2
   7              		.globl	_ZN6System15userMainWrapperEPv
   9              	_ZN6System15userMainWrapperEPv:
  10              	.LFB45:
  11              		.file 1 "src/system.cpp"
   1:src/system.cpp **** //
   2:src/system.cpp **** // Created by os on 5/31/22.
   3:src/system.cpp **** //
   4:src/system.cpp **** 
   5:src/system.cpp **** #include "../h/system.hpp"
   6:src/system.cpp **** #include "../h/riscv.hpp"
   7:src/system.cpp **** #include "../h/syscall_c.h"
   8:src/system.cpp **** #include "../tests/userMain.hpp"
   9:src/system.cpp **** #include "../h/printing.hpp"
  10:src/system.cpp **** #include "../h/tcb.hpp"
  11:src/system.cpp **** #include "../h/scheduler.hpp"
  12:src/system.cpp **** #include "../h/consoleUtil.hpp"
  13:src/system.cpp **** #include "../h/slabAllocator.hpp"
  14:src/system.cpp **** #include "../h/slab.hpp"
  15:src/system.cpp **** 
  16:src/system.cpp **** bool System::initialized = false;
  17:src/system.cpp **** 
  18:src/system.cpp **** System::System() {
  19:src/system.cpp ****     //check whether system is already running to prevent user malicious access
  20:src/system.cpp ****     if (!initialized) {
  21:src/system.cpp ****         initialized = true;
  22:src/system.cpp **** 
  23:src/system.cpp ****         //initialize the machine
  24:src/system.cpp ****         RiscV::initialize();
  25:src/system.cpp **** 
  26:src/system.cpp ****         kmem_init((void*)HEAP_START_ADDR, 4096);
  27:src/system.cpp **** 
  28:src/system.cpp ****         SlabAllocator::allocateBuffer(100);
  29:src/system.cpp **** 
  30:src/system.cpp ****         //creating a thread that will be executing user code
  31:src/system.cpp ****         //this is done as to separate user code execution from main kernel thread
  32:src/system.cpp ****         //also it provides kernel with an idle thread that will run itself if user code gets blocke
  33:src/system.cpp **** 
  34:src/system.cpp ****         thread_t userMainThread;
  35:src/system.cpp ****         thread_create(&userMainThread, userMainWrapper, nullptr);
  36:src/system.cpp **** 
  37:src/system.cpp ****         //return control to user code until it reaches the end
  38:src/system.cpp ****         //exit only if user is finished and machine is ready to exit (in case there is something st
  39:src/system.cpp ****         while (( (TCB*)userMainThread)->status != TCB::Status::FINISHED) {
  40:src/system.cpp ****             thread_dispatch();
  41:src/system.cpp ****         }
  42:src/system.cpp **** 
  43:src/system.cpp ****         //finalize the machine
  44:src/system.cpp ****         RiscV::finalize();
  45:src/system.cpp ****     }
  46:src/system.cpp **** }
  47:src/system.cpp **** 
GAS LISTING /tmp/ccVnBpmS.s 			page 2


  48:src/system.cpp **** //wrapper function for userMain as per POSIX threads
  49:src/system.cpp **** void System::userMainWrapper(void *arg){
  12              		.loc 1 49 40
  13              		.cfi_startproc
  14              	.LVL0:
  15 0000 130101FF 		addi	sp,sp,-16
  16              		.cfi_def_cfa_offset 16
  17 0004 23341100 		sd	ra,8(sp)
  18 0008 23308100 		sd	s0,0(sp)
  19              		.cfi_offset 1, -8
  20              		.cfi_offset 8, -16
  21 000c 13040101 		addi	s0,sp,16
  22              		.cfi_def_cfa 8, 0
  50:src/system.cpp **** //    int ret = fork();
  51:src/system.cpp **** //
  52:src/system.cpp **** //    if(ret == 0){
  53:src/system.cpp **** //        printString("dete\n");
  54:src/system.cpp **** //    }
  55:src/system.cpp **** //    else {
  56:src/system.cpp **** //        printString("otac\n");
  57:src/system.cpp **** //        thread_dispatch();
  58:src/system.cpp **** //    }
  59:src/system.cpp **** //    MemoryAllocator::showMemory();
  60:src/system.cpp ****     userMain();
  23              		.loc 1 60 5
  24              		.loc 1 60 13 is_stmt 0
  25 0010 97000000 		call	_Z8userMainv@plt
  25      E7800000 
  26              	.LVL1:
  61:src/system.cpp **** }...
  27              		.loc 1 61 1
  28 0018 83308100 		ld	ra,8(sp)
  29              		.cfi_restore 1
  30 001c 03340100 		ld	s0,0(sp)
  31              		.cfi_restore 8
  32              		.cfi_def_cfa 2, 16
  33 0020 13010101 		addi	sp,sp,16
  34              		.cfi_def_cfa_offset 0
  35 0024 67800000 		jr	ra
  36              		.cfi_endproc
  37              	.LFE45:
  39              		.align	2
  40              		.globl	_ZN6SystemC2Ev
  42              	_ZN6SystemC2Ev:
  43              	.LFB43:
  18:src/system.cpp **** System::System() {
  44              		.loc 1 18 1 is_stmt 1
  45              		.cfi_startproc
  46              	.LVL2:
  20:src/system.cpp ****     if (!initialized) {
  47              		.loc 1 20 5
  48              	.LBB2:
  20:src/system.cpp ****     if (!initialized) {
  49              		.loc 1 20 9 is_stmt 0
  50 0028 97070000 		lbu	a5,.LANCHOR0
  50      83C70700 
  20:src/system.cpp ****     if (!initialized) {
GAS LISTING /tmp/ccVnBpmS.s 			page 3


  51              		.loc 1 20 5
  52 0030 63840700 		beqz	a5,.L11
  53 0034 67800000 		ret
  54              	.L11:
  55              	.LBE2:
  18:src/system.cpp **** System::System() {
  56              		.loc 1 18 1
  57 0038 130101FE 		addi	sp,sp,-32
  58              		.cfi_def_cfa_offset 32
  59 003c 233C1100 		sd	ra,24(sp)
  60 0040 23388100 		sd	s0,16(sp)
  61              		.cfi_offset 1, -8
  62              		.cfi_offset 8, -16
  63 0044 13040102 		addi	s0,sp,32
  64              		.cfi_def_cfa 8, 0
  65              	.LBB4:
  66              	.LBB3:
  21:src/system.cpp ****         initialized = true;
  67              		.loc 1 21 9 is_stmt 1
  21:src/system.cpp ****         initialized = true;
  68              		.loc 1 21 21 is_stmt 0
  69 0048 93071000 		li	a5,1
  70 004c 17070000 		sb	a5,.LANCHOR0,a4
  70      2300F700 
  24:src/system.cpp ****         RiscV::initialize();
  71              		.loc 1 24 9 is_stmt 1
  24:src/system.cpp ****         RiscV::initialize();
  72              		.loc 1 24 26 is_stmt 0
  73 0054 97000000 		call	_ZN5RiscV10initializeEv@plt
  73      E7800000 
  74              	.LVL3:
  26:src/system.cpp ****         kmem_init((void*)HEAP_START_ADDR, 4096);
  75              		.loc 1 26 9 is_stmt 1
  26:src/system.cpp ****         kmem_init((void*)HEAP_START_ADDR, 4096);
  76              		.loc 1 26 18 is_stmt 0
  77 005c B7150000 		li	a1,4096
  78 0060 97070000 		la	a5,HEAP_START_ADDR
  78      83B70700 
  79 0068 03B50700 		ld	a0,0(a5)
  80 006c 97000000 		call	_Z9kmem_initPvi@plt
  80      E7800000 
  81              	.LVL4:
  28:src/system.cpp ****         SlabAllocator::allocateBuffer(100);
  82              		.loc 1 28 9 is_stmt 1
  28:src/system.cpp ****         SlabAllocator::allocateBuffer(100);
  83              		.loc 1 28 38 is_stmt 0
  84 0074 13054006 		li	a0,100
  85 0078 97000000 		call	_ZN13SlabAllocator14allocateBufferEm@plt
  85      E7800000 
  86              	.LVL5:
  34:src/system.cpp ****         thread_t userMainThread;
  87              		.loc 1 34 9 is_stmt 1
  35:src/system.cpp ****         thread_create(&userMainThread, userMainWrapper, nullptr);
  88              		.loc 1 35 9
  35:src/system.cpp ****         thread_create(&userMainThread, userMainWrapper, nullptr);
  89              		.loc 1 35 22 is_stmt 0
  90 0080 13060000 		li	a2,0
GAS LISTING /tmp/ccVnBpmS.s 			page 4


  91 0084 97050000 		lla	a1,_ZN6System15userMainWrapperEPv
  91      93850500 
  92 008c 130584FE 		addi	a0,s0,-24
  93 0090 97000000 		call	_Z13thread_createPP7_threadPFvPvES2_@plt
  93      E7800000 
  94              	.LVL6:
  95              	.L6:
  39:src/system.cpp ****         while (( (TCB*)userMainThread)->status != TCB::Status::FINISHED) {
  96              		.loc 1 39 9 is_stmt 1
  39:src/system.cpp ****         while (( (TCB*)userMainThread)->status != TCB::Status::FINISHED) {
  97              		.loc 1 39 48
  39:src/system.cpp ****         while (( (TCB*)userMainThread)->status != TCB::Status::FINISHED) {
  98              		.loc 1 39 18 is_stmt 0
  99 0098 833784FE 		ld	a5,-24(s0)
  39:src/system.cpp ****         while (( (TCB*)userMainThread)->status != TCB::Status::FINISHED) {
 100              		.loc 1 39 41
 101 009c 03A70701 		lw	a4,16(a5)
  39:src/system.cpp ****         while (( (TCB*)userMainThread)->status != TCB::Status::FINISHED) {
 102              		.loc 1 39 48
 103 00a0 93072000 		li	a5,2
 104 00a4 6308F700 		beq	a4,a5,.L5
  40:src/system.cpp ****             thread_dispatch();
 105              		.loc 1 40 13 is_stmt 1
  40:src/system.cpp ****             thread_dispatch();
 106              		.loc 1 40 28 is_stmt 0
 107 00a8 97000000 		call	_Z15thread_dispatchv@plt
 107      E7800000 
 108              	.LVL7:
 109 00b0 6FF09FFE 		j	.L6
 110              	.L5:
  44:src/system.cpp ****         RiscV::finalize();
 111              		.loc 1 44 9 is_stmt 1
  44:src/system.cpp ****         RiscV::finalize();
 112              		.loc 1 44 24 is_stmt 0
 113 00b4 97000000 		call	_ZN5RiscV8finalizeEv@plt
 113      E7800000 
 114              	.LVL8:
 115              	.LBE3:
 116              	.LBE4:
  46:src/system.cpp **** }
 117              		.loc 1 46 1
 118 00bc 83308101 		ld	ra,24(sp)
 119              		.cfi_restore 1
 120 00c0 03340101 		ld	s0,16(sp)
 121              		.cfi_restore 8
 122              		.cfi_def_cfa 2, 32
 123 00c4 13010102 		addi	sp,sp,32
 124              		.cfi_def_cfa_offset 0
 125 00c8 67800000 		jr	ra
 126              		.cfi_endproc
 127              	.LFE43:
 129              		.globl	_ZN6SystemC1Ev
 130              		.set	_ZN6SystemC1Ev,_ZN6SystemC2Ev
 131              		.globl	_ZN6System11initializedE
 132              		.bss
 133              		.set	.LANCHOR0,. + 0
 136              	_ZN6System11initializedE:
GAS LISTING /tmp/ccVnBpmS.s 			page 5


 137 0000 00       		.zero	1
 138              		.text
 139              	.Letext0:
 140              		.file 2 "src/../h/../lib/hw.h"
 141              		.file 3 "src/../h/../h/utility.hpp"
 142              		.file 4 "src/../h/system.hpp"
 143              		.file 5 "src/../h/riscv.hpp"
 144              		.file 6 "src/../h/../h/_thread.hpp"
 145              		.file 7 "src/../h/../h/cache_t.hpp"
 146              		.file 8 "src/../h/../h/../h/slab_t.hpp"
 147              		.file 9 "src/../h/slabAllocator.hpp"
 148              		.file 10 "src/../tests/userMain.hpp"
 149              		.file 11 "src/../h/slab.hpp"
 150              		.file 12 "src/../h/syscall_c.h"
GAS LISTING /tmp/ccVnBpmS.s 			page 6


DEFINED SYMBOLS
                            *ABS*:0000000000000000 system.cpp
     /tmp/ccVnBpmS.s:9      .text:0000000000000000 _ZN6System15userMainWrapperEPv
     /tmp/ccVnBpmS.s:13     .text:0000000000000000 .L0 
     /tmp/ccVnBpmS.s:15     .text:0000000000000000 .L0 
     /tmp/ccVnBpmS.s:16     .text:0000000000000004 .L0 
     /tmp/ccVnBpmS.s:19     .text:000000000000000c .L0 
     /tmp/ccVnBpmS.s:20     .text:000000000000000c .L0 
     /tmp/ccVnBpmS.s:22     .text:0000000000000010 .L0 
     /tmp/ccVnBpmS.s:24     .text:0000000000000010 .L0 
     /tmp/ccVnBpmS.s:25     .text:0000000000000010 .L0 
     /tmp/ccVnBpmS.s:28     .text:0000000000000018 .L0 
     /tmp/ccVnBpmS.s:29     .text:000000000000001c .L0 
     /tmp/ccVnBpmS.s:31     .text:0000000000000020 .L0 
     /tmp/ccVnBpmS.s:32     .text:0000000000000020 .L0 
     /tmp/ccVnBpmS.s:34     .text:0000000000000024 .L0 
     /tmp/ccVnBpmS.s:36     .text:0000000000000028 .L0 
     /tmp/ccVnBpmS.s:42     .text:0000000000000028 _ZN6SystemC2Ev
     /tmp/ccVnBpmS.s:45     .text:0000000000000028 .L0 
     /tmp/ccVnBpmS.s:47     .text:0000000000000028 .L0 
     /tmp/ccVnBpmS.s:49     .text:0000000000000028 .L0 
     /tmp/ccVnBpmS.s:50     .text:0000000000000028 .L0 
     /tmp/ccVnBpmS.s:52     .text:0000000000000030 .L0 
     /tmp/ccVnBpmS.s:57     .text:0000000000000038 .L0 
     /tmp/ccVnBpmS.s:58     .text:000000000000003c .L0 
     /tmp/ccVnBpmS.s:61     .text:0000000000000044 .L0 
     /tmp/ccVnBpmS.s:62     .text:0000000000000044 .L0 
     /tmp/ccVnBpmS.s:64     .text:0000000000000048 .L0 
     /tmp/ccVnBpmS.s:68     .text:0000000000000048 .L0 
     /tmp/ccVnBpmS.s:69     .text:0000000000000048 .L0 
     /tmp/ccVnBpmS.s:72     .text:0000000000000054 .L0 
     /tmp/ccVnBpmS.s:73     .text:0000000000000054 .L0 
     /tmp/ccVnBpmS.s:76     .text:000000000000005c .L0 
     /tmp/ccVnBpmS.s:77     .text:000000000000005c .L0 
     /tmp/ccVnBpmS.s:83     .text:0000000000000074 .L0 
     /tmp/ccVnBpmS.s:84     .text:0000000000000074 .L0 
     /tmp/ccVnBpmS.s:88     .text:0000000000000080 .L0 
     /tmp/ccVnBpmS.s:89     .text:0000000000000080 .L0 
     /tmp/ccVnBpmS.s:90     .text:0000000000000080 .L0 
     /tmp/ccVnBpmS.s:97     .text:0000000000000098 .L0 
     /tmp/ccVnBpmS.s:98     .text:0000000000000098 .L0 
     /tmp/ccVnBpmS.s:99     .text:0000000000000098 .L0 
     /tmp/ccVnBpmS.s:101    .text:000000000000009c .L0 
     /tmp/ccVnBpmS.s:103    .text:00000000000000a0 .L0 
     /tmp/ccVnBpmS.s:106    .text:00000000000000a8 .L0 
     /tmp/ccVnBpmS.s:107    .text:00000000000000a8 .L0 
     /tmp/ccVnBpmS.s:112    .text:00000000000000b4 .L0 
     /tmp/ccVnBpmS.s:113    .text:00000000000000b4 .L0 
     /tmp/ccVnBpmS.s:118    .text:00000000000000bc .L0 
     /tmp/ccVnBpmS.s:119    .text:00000000000000c0 .L0 
     /tmp/ccVnBpmS.s:121    .text:00000000000000c4 .L0 
     /tmp/ccVnBpmS.s:122    .text:00000000000000c4 .L0 
     /tmp/ccVnBpmS.s:124    .text:00000000000000c8 .L0 
     /tmp/ccVnBpmS.s:126    .text:00000000000000cc .L0 
     /tmp/ccVnBpmS.s:42     .text:0000000000000028 _ZN6SystemC1Ev
     /tmp/ccVnBpmS.s:136    .bss:0000000000000000 _ZN6System11initializedE
     /tmp/ccVnBpmS.s:133    .bss:0000000000000000 .LANCHOR0
GAS LISTING /tmp/ccVnBpmS.s 			page 7


     /tmp/ccVnBpmS.s:151    .text:00000000000000cc .L0 
     /tmp/ccVnBpmS.s:50     .text:0000000000000028 .L0 
     /tmp/ccVnBpmS.s:70     .text:000000000000004c .L0 
     /tmp/ccVnBpmS.s:78     .text:0000000000000060 .L0 
     /tmp/ccVnBpmS.s:91     .text:0000000000000084 .L0 
     /tmp/ccVnBpmS.s:54     .text:0000000000000038 .L11
     /tmp/ccVnBpmS.s:110    .text:00000000000000b4 .L5
     /tmp/ccVnBpmS.s:95     .text:0000000000000098 .L6
     /tmp/ccVnBpmS.s:1396   .debug_abbrev:0000000000000000 .Ldebug_abbrev0
     /tmp/ccVnBpmS.s:2516   .debug_str:0000000000000dd9 .LASF201
     /tmp/ccVnBpmS.s:2220   .debug_str:00000000000001cb .LASF202
     /tmp/ccVnBpmS.s:2514   .debug_str:0000000000000da8 .LASF203
     /tmp/ccVnBpmS.s:5      .text:0000000000000000 .Ltext0
     /tmp/ccVnBpmS.s:139    .text:00000000000000cc .Letext0
     /tmp/ccVnBpmS.s:2168   .debug_line:0000000000000000 .Ldebug_line0
     /tmp/ccVnBpmS.s:2188   .debug_str:00000000000000ba .LASF0
     /tmp/ccVnBpmS.s:2560   .debug_str:0000000000001092 .LASF1
     /tmp/ccVnBpmS.s:2520   .debug_str:0000000000000ec3 .LASF2
     /tmp/ccVnBpmS.s:2498   .debug_str:0000000000000d0f .LASF4
     /tmp/ccVnBpmS.s:2508   .debug_str:0000000000000d6f .LASF3
     /tmp/ccVnBpmS.s:2284   .debug_str:00000000000003fe .LASF5
     /tmp/ccVnBpmS.s:2332   .debug_str:0000000000000653 .LASF6
     /tmp/ccVnBpmS.s:2444   .debug_str:0000000000000b34 .LASF7
     /tmp/ccVnBpmS.s:2216   .debug_str:00000000000001ae .LASF8
     /tmp/ccVnBpmS.s:2548   .debug_str:0000000000000fce .LASF9
     /tmp/ccVnBpmS.s:2288   .debug_str:0000000000000410 .LASF10
     /tmp/ccVnBpmS.s:2238   .debug_str:0000000000000269 .LASF11
     /tmp/ccVnBpmS.s:2348   .debug_str:000000000000072b .LASF12
     /tmp/ccVnBpmS.s:2296   .debug_str:000000000000045e .LASF13
     /tmp/ccVnBpmS.s:2482   .debug_str:0000000000000ca5 .LASF14
     /tmp/ccVnBpmS.s:2302   .debug_str:00000000000004b7 .LASF15
     /tmp/ccVnBpmS.s:2266   .debug_str:0000000000000389 .LASF16
     /tmp/ccVnBpmS.s:2324   .debug_str:0000000000000600 .LASF17
     /tmp/ccVnBpmS.s:2510   .debug_str:0000000000000d81 .LASF18
     /tmp/ccVnBpmS.s:2364   .debug_str:00000000000007ec .LASF19
     /tmp/ccVnBpmS.s:2426   .debug_str:0000000000000abd .LASF20
     /tmp/ccVnBpmS.s:2250   .debug_str:00000000000002b7 .LASF61
     /tmp/ccVnBpmS.s:2234   .debug_str:000000000000023d .LASF63
     /tmp/ccVnBpmS.s:2270   .debug_str:00000000000003af .LASF22
     /tmp/ccVnBpmS.s:2210   .debug_str:0000000000000171 .LASF122
     /tmp/ccVnBpmS.s:2226   .debug_str:00000000000001f0 .LASF21
     /tmp/ccVnBpmS.s:2184   .debug_str:0000000000000090 .LASF23
     /tmp/ccVnBpmS.s:2486   .debug_str:0000000000000cb6 .LASF24
     /tmp/ccVnBpmS.s:2438   .debug_str:0000000000000b05 .LASF25
     /tmp/ccVnBpmS.s:2382   .debug_str:000000000000089e .LASF27
     /tmp/ccVnBpmS.s:2320   .debug_str:00000000000005cc .LASF26
     /tmp/ccVnBpmS.s:2550   .debug_str:0000000000000fdc .LASF28
     /tmp/ccVnBpmS.s:2214   .debug_str:0000000000000193 .LASF29
     /tmp/ccVnBpmS.s:2342   .debug_str:00000000000006b8 .LASF30
     /tmp/ccVnBpmS.s:2246   .debug_str:0000000000000295 .LASF31
     /tmp/ccVnBpmS.s:2518   .debug_str:0000000000000e9d .LASF32
     /tmp/ccVnBpmS.s:2396   .debug_str:000000000000092f .LASF33
     /tmp/ccVnBpmS.s:2418   .debug_str:0000000000000a6b .LASF34
     /tmp/ccVnBpmS.s:2186   .debug_str:000000000000009b .LASF35
     /tmp/ccVnBpmS.s:2308   .debug_str:00000000000004fc .LASF36
     /tmp/ccVnBpmS.s:2314   .debug_str:0000000000000574 .LASF37
     /tmp/ccVnBpmS.s:2526   .debug_str:0000000000000edf .LASF38
GAS LISTING /tmp/ccVnBpmS.s 			page 8


     /tmp/ccVnBpmS.s:2402   .debug_str:0000000000000962 .LASF39
     /tmp/ccVnBpmS.s:2264   .debug_str:0000000000000366 .LASF40
     /tmp/ccVnBpmS.s:2536   .debug_str:0000000000000f65 .LASF41
     /tmp/ccVnBpmS.s:2534   .debug_str:0000000000000f41 .LASF42
     /tmp/ccVnBpmS.s:2572   .debug_str:00000000000010fe .LASF43
     /tmp/ccVnBpmS.s:2408   .debug_str:00000000000009c5 .LASF44
     /tmp/ccVnBpmS.s:2204   .debug_str:000000000000013c .LASF45
     /tmp/ccVnBpmS.s:2406   .debug_str:00000000000009a0 .LASF46
     /tmp/ccVnBpmS.s:2530   .debug_str:0000000000000f1b .LASF47
     /tmp/ccVnBpmS.s:2312   .debug_str:000000000000054f .LASF48
     /tmp/ccVnBpmS.s:2228   .debug_str:00000000000001f6 .LASF49
     /tmp/ccVnBpmS.s:2354   .debug_str:0000000000000768 .LASF50
     /tmp/ccVnBpmS.s:2334   .debug_str:0000000000000666 .LASF51
     /tmp/ccVnBpmS.s:2362   .debug_str:00000000000007cc .LASF52
     /tmp/ccVnBpmS.s:2180   .debug_str:000000000000006e .LASF53
     /tmp/ccVnBpmS.s:2554   .debug_str:000000000000101d .LASF54
     /tmp/ccVnBpmS.s:2570   .debug_str:00000000000010e5 .LASF55
     /tmp/ccVnBpmS.s:2292   .debug_str:000000000000042e .LASF56
     /tmp/ccVnBpmS.s:2306   .debug_str:00000000000004e0 .LASF57
     /tmp/ccVnBpmS.s:2390   .debug_str:00000000000008e7 .LASF58
     /tmp/ccVnBpmS.s:2170   .debug_str:0000000000000000 .LASF59
     /tmp/ccVnBpmS.s:2504   .debug_str:0000000000000d46 .LASF60
     /tmp/ccVnBpmS.s:2542   .debug_str:0000000000000fa3 .LASF62
     /tmp/ccVnBpmS.s:2490   .debug_str:0000000000000ccc .LASF64
     /tmp/ccVnBpmS.s:2574   .debug_str:0000000000001114 .LASF67
     /tmp/ccVnBpmS.s:2468   .debug_str:0000000000000c41 .LASF69
     /tmp/ccVnBpmS.s:2472   .debug_str:0000000000000c68 .LASF65
     /tmp/ccVnBpmS.s:2528   .debug_str:0000000000000f06 .LASF66
     /tmp/ccVnBpmS.s:2244   .debug_str:000000000000028e .LASF68
     /tmp/ccVnBpmS.s:2496   .debug_str:0000000000000cfc .LASF70
     /tmp/ccVnBpmS.s:2280   .debug_str:00000000000003e3 .LASF71
     /tmp/ccVnBpmS.s:2368   .debug_str:0000000000000800 .LASF72
     /tmp/ccVnBpmS.s:2562   .debug_str:00000000000010a5 .LASF73
     /tmp/ccVnBpmS.s:2282   .debug_str:00000000000003ea .LASF74
     /tmp/ccVnBpmS.s:2474   .debug_str:0000000000000c71 .LASF75
     /tmp/ccVnBpmS.s:2478   .debug_str:0000000000000c82 .LASF76
     /tmp/ccVnBpmS.s:2294   .debug_str:0000000000000454 .LASF77
     /tmp/ccVnBpmS.s:2380   .debug_str:0000000000000888 .LASF78
     /tmp/ccVnBpmS.s:2274   .debug_str:00000000000003c7 .LASF79
     /tmp/ccVnBpmS.s:2420   .debug_str:0000000000000a95 .LASF80
     /tmp/ccVnBpmS.s:2460   .debug_str:0000000000000c15 .LASF81
     /tmp/ccVnBpmS.s:2582   .debug_str:0000000000001159 .LASF82
     /tmp/ccVnBpmS.s:2208   .debug_str:0000000000000166 .LASF83
     /tmp/ccVnBpmS.s:2502   .debug_str:0000000000000d2e .LASF84
     /tmp/ccVnBpmS.s:2524   .debug_str:0000000000000ed8 .LASF85
     /tmp/ccVnBpmS.s:2262   .debug_str:0000000000000353 .LASF86
     /tmp/ccVnBpmS.s:2278   .debug_str:00000000000003dc .LASF87
     /tmp/ccVnBpmS.s:2304   .debug_str:00000000000004cd .LASF88
     /tmp/ccVnBpmS.s:2522   .debug_str:0000000000000ed1 .LASF89
     /tmp/ccVnBpmS.s:2212   .debug_str:0000000000000180 .LASF90
     /tmp/ccVnBpmS.s:2326   .debug_str:0000000000000605 .LASF91
     /tmp/ccVnBpmS.s:2576   .debug_str:000000000000111d .LASF92
     /tmp/ccVnBpmS.s:2360   .debug_str:00000000000007bb .LASF93
     /tmp/ccVnBpmS.s:2322   .debug_str:00000000000005e2 .LASF94
     /tmp/ccVnBpmS.s:2552   .debug_str:0000000000000fff .LASF95
     /tmp/ccVnBpmS.s:2232   .debug_str:0000000000000212 .LASF96
     /tmp/ccVnBpmS.s:2448   .debug_str:0000000000000b70 .LASF97
GAS LISTING /tmp/ccVnBpmS.s 			page 9


     /tmp/ccVnBpmS.s:2428   .debug_str:0000000000000ac4 .LASF98
     /tmp/ccVnBpmS.s:2424   .debug_str:0000000000000ab7 .LASF99
     /tmp/ccVnBpmS.s:2376   .debug_str:0000000000000869 .LASF100
     /tmp/ccVnBpmS.s:2464   .debug_str:0000000000000c28 .LASF101
     /tmp/ccVnBpmS.s:2328   .debug_str:000000000000060c .LASF102
     /tmp/ccVnBpmS.s:2192   .debug_str:00000000000000cc .LASF103
     /tmp/ccVnBpmS.s:2358   .debug_str:0000000000000799 .LASF104
     /tmp/ccVnBpmS.s:2588   .debug_str:0000000000001190 .LASF105
     /tmp/ccVnBpmS.s:2540   .debug_str:0000000000000f85 .LASF106
     /tmp/ccVnBpmS.s:2584   .debug_str:0000000000001171 .LASF107
     /tmp/ccVnBpmS.s:2512   .debug_str:0000000000000d89 .LASF108
     /tmp/ccVnBpmS.s:2578   .debug_str:0000000000001130 .LASF109
     /tmp/ccVnBpmS.s:2414   .debug_str:0000000000000a1e .LASF110
     /tmp/ccVnBpmS.s:2178   .debug_str:0000000000000054 .LASF111
     /tmp/ccVnBpmS.s:2310   .debug_str:0000000000000528 .LASF112
     /tmp/ccVnBpmS.s:2256   .debug_str:0000000000000305 .LASF113
     /tmp/ccVnBpmS.s:2556   .debug_str:0000000000001041 .LASF114
     /tmp/ccVnBpmS.s:2200   .debug_str:00000000000000f9 .LASF115
     /tmp/ccVnBpmS.s:2566   .debug_str:00000000000010bc .LASF116
     /tmp/ccVnBpmS.s:2286   .debug_str:0000000000000405 .LASF117
     /tmp/ccVnBpmS.s:2500   .debug_str:0000000000000d16 .LASF118
     /tmp/ccVnBpmS.s:2538   .debug_str:0000000000000f7c .LASF119
     /tmp/ccVnBpmS.s:2450   .debug_str:0000000000000b7b .LASF120
     /tmp/ccVnBpmS.s:2492   .debug_str:0000000000000ce6 .LASF121
     /tmp/ccVnBpmS.s:2580   .debug_str:0000000000001149 .LASF123
     /tmp/ccVnBpmS.s:2206   .debug_str:0000000000000154 .LASF124
     /tmp/ccVnBpmS.s:2400   .debug_str:0000000000000952 .LASF125
     /tmp/ccVnBpmS.s:2240   .debug_str:0000000000000278 .LASF126
     /tmp/ccVnBpmS.s:2230   .debug_str:0000000000000209 .LASF127
     /tmp/ccVnBpmS.s:2398   .debug_str:000000000000094c .LASF128
     /tmp/ccVnBpmS.s:2488   .debug_str:0000000000000cc7 .LASF129
     /tmp/ccVnBpmS.s:2386   .debug_str:00000000000008cd .LASF130
     /tmp/ccVnBpmS.s:2176   .debug_str:000000000000004b .LASF131
     /tmp/ccVnBpmS.s:2196   .debug_str:00000000000000ef .LASF132
     /tmp/ccVnBpmS.s:2242   .debug_str:0000000000000289 .LASF133
     /tmp/ccVnBpmS.s:2222   .debug_str:00000000000001da .LASF134
     /tmp/ccVnBpmS.s:2544   .debug_str:0000000000000faf .LASF135
     /tmp/ccVnBpmS.s:2476   .debug_str:0000000000000c79 .LASF136
     /tmp/ccVnBpmS.s:2484   .debug_str:0000000000000cb1 .LASF137
     /tmp/ccVnBpmS.s:2370   .debug_str:0000000000000813 .LASF138
     /tmp/ccVnBpmS.s:2470   .debug_str:0000000000000c56 .LASF140
     /tmp/ccVnBpmS.s:2462   .debug_str:0000000000000c20 .LASF139
     /tmp/ccVnBpmS.s:2546   .debug_str:0000000000000fbb .LASF141
     /tmp/ccVnBpmS.s:2198   .debug_str:00000000000000f4 .LASF142
     /tmp/ccVnBpmS.s:2190   .debug_str:00000000000000c7 .LASF143
     /tmp/ccVnBpmS.s:2480   .debug_str:0000000000000c96 .LASF144
     /tmp/ccVnBpmS.s:2336   .debug_str:0000000000000679 .LASF145
     /tmp/ccVnBpmS.s:2440   .debug_str:0000000000000b1c .LASF146
     /tmp/ccVnBpmS.s:2430   .debug_str:0000000000000adc .LASF147
     /tmp/ccVnBpmS.s:2432   .debug_str:0000000000000ae9 .LASF148
     /tmp/ccVnBpmS.s:2532   .debug_str:0000000000000f33 .LASF149
     /tmp/ccVnBpmS.s:2174   .debug_str:0000000000000028 .LASF150
     /tmp/ccVnBpmS.s:2422   .debug_str:0000000000000aab .LASF153
     /tmp/ccVnBpmS.s:2454   .debug_str:0000000000000bba .LASF155
     /tmp/ccVnBpmS.s:2224   .debug_str:00000000000001e4 .LASF151
     /tmp/ccVnBpmS.s:2338   .debug_str:0000000000000689 .LASF152
     /tmp/ccVnBpmS.s:2236   .debug_str:000000000000025c .LASF154
GAS LISTING /tmp/ccVnBpmS.s 			page 10


     /tmp/ccVnBpmS.s:2260   .debug_str:000000000000032a .LASF156
     /tmp/ccVnBpmS.s:2272   .debug_str:00000000000003bb .LASF157
     /tmp/ccVnBpmS.s:2404   .debug_str:0000000000000978 .LASF158
     /tmp/ccVnBpmS.s:2218   .debug_str:00000000000001be .LASF159
     /tmp/ccVnBpmS.s:2458   .debug_str:0000000000000bed .LASF160
     /tmp/ccVnBpmS.s:2564   .debug_str:00000000000010ad .LASF161
     /tmp/ccVnBpmS.s:2372   .debug_str:000000000000081a .LASF162
     /tmp/ccVnBpmS.s:2410   .debug_str:00000000000009e8 .LASF163
     /tmp/ccVnBpmS.s:2346   .debug_str:0000000000000706 .LASF164
     /tmp/ccVnBpmS.s:2506   .debug_str:0000000000000d66 .LASF165
     /tmp/ccVnBpmS.s:2374   .debug_str:0000000000000845 .LASF166
     /tmp/ccVnBpmS.s:2384   .debug_str:00000000000008c2 .LASF167
     /tmp/ccVnBpmS.s:2452   .debug_str:0000000000000b90 .LASF168
     /tmp/ccVnBpmS.s:2276   .debug_str:00000000000003d1 .LASF169
     /tmp/ccVnBpmS.s:2350   .debug_str:000000000000073b .LASF170
     /tmp/ccVnBpmS.s:2352   .debug_str:000000000000075e .LASF171
     /tmp/ccVnBpmS.s:2300   .debug_str:0000000000000493 .LASF172
     /tmp/ccVnBpmS.s:2182   .debug_str:0000000000000085 .LASF173
     /tmp/ccVnBpmS.s:2416   .debug_str:0000000000000a44 .LASF174
     /tmp/ccVnBpmS.s:2340   .debug_str:00000000000006b2 .LASF175
     /tmp/ccVnBpmS.s:2394   .debug_str:0000000000000929 .LASF176
     /tmp/ccVnBpmS.s:2434   .debug_str:0000000000000af0 .LASF177
     /tmp/ccVnBpmS.s:2172   .debug_str:0000000000000013 .LASF178
     /tmp/ccVnBpmS.s:2366   .debug_str:00000000000007f1 .LASF179
     /tmp/ccVnBpmS.s:2558   .debug_str:0000000000001064 .LASF180
     /tmp/ccVnBpmS.s:2388   .debug_str:00000000000008d8 .LASF181
     /tmp/ccVnBpmS.s:2318   .debug_str:000000000000059e .LASF182
     /tmp/ccVnBpmS.s:2456   .debug_str:0000000000000be8 .LASF183
     /tmp/ccVnBpmS.s:2344   .debug_str:00000000000006e0 .LASF184
     /tmp/ccVnBpmS.s:2442   .debug_str:0000000000000b26 .LASF185
     /tmp/ccVnBpmS.s:2254   .debug_str:00000000000002dc .LASF186
     /tmp/ccVnBpmS.s:2494   .debug_str:0000000000000cee .LASF187
     /tmp/ccVnBpmS.s:2446   .debug_str:0000000000000b47 .LASF188
     /tmp/ccVnBpmS.s:2356   .debug_str:0000000000000788 .LASF189
     /tmp/ccVnBpmS.s:2202   .debug_str:0000000000000110 .LASF190
     /tmp/ccVnBpmS.s:2378   .debug_str:000000000000087b .LASF191
     /tmp/ccVnBpmS.s:2330   .debug_str:0000000000000628 .LASF192
     /tmp/ccVnBpmS.s:2436   .debug_str:0000000000000afa .LASF204
     /tmp/ccVnBpmS.s:2412   .debug_str:00000000000009f7 .LASF205
     /tmp/ccVnBpmS.s:2392   .debug_str:0000000000000910 .LASF206
     /tmp/ccVnBpmS.s:10     .text:0000000000000000 .LFB45
     /tmp/ccVnBpmS.s:37     .text:0000000000000028 .LFE45
     /tmp/ccVnBpmS.s:2127   .debug_loc:0000000000000000 .LLST0
     /tmp/ccVnBpmS.s:26     .text:0000000000000018 .LVL1
     /tmp/ccVnBpmS.s:2568   .debug_str:00000000000010e0 .LASF207
     /tmp/ccVnBpmS.s:2258   .debug_str:000000000000031b .LASF208
     /tmp/ccVnBpmS.s:2290   .debug_str:000000000000041f .LASF209
     /tmp/ccVnBpmS.s:43     .text:0000000000000028 .LFB43
     /tmp/ccVnBpmS.s:127    .text:00000000000000cc .LFE43
     /tmp/ccVnBpmS.s:2141   .debug_loc:0000000000000039 .LLST1
     /tmp/ccVnBpmS.s:74     .text:000000000000005c .LVL3
     /tmp/ccVnBpmS.s:81     .text:0000000000000074 .LVL4
     /tmp/ccVnBpmS.s:86     .text:0000000000000080 .LVL5
     /tmp/ccVnBpmS.s:94     .text:0000000000000098 .LVL6
     /tmp/ccVnBpmS.s:108    .text:00000000000000b0 .LVL7
     /tmp/ccVnBpmS.s:114    .text:00000000000000bc .LVL8
     /tmp/ccVnBpmS.s:66     .text:0000000000000048 .LBB3
GAS LISTING /tmp/ccVnBpmS.s 			page 11


     /tmp/ccVnBpmS.s:115    .text:00000000000000bc .LBE3
     /tmp/ccVnBpmS.s:2586   .debug_str:0000000000001183 .LASF193
     /tmp/ccVnBpmS.s:2248   .debug_str:00000000000002ae .LASF195
     /tmp/ccVnBpmS.s:2316   .debug_str:000000000000058e .LASF194
     /tmp/ccVnBpmS.s:2466   .debug_str:0000000000000c37 .LASF196
     /tmp/ccVnBpmS.s:2298   .debug_str:000000000000046e .LASF197
     /tmp/ccVnBpmS.s:2194   .debug_str:00000000000000e1 .LASF198
     /tmp/ccVnBpmS.s:2252   .debug_str:00000000000002c7 .LASF199
     /tmp/ccVnBpmS.s:2268   .debug_str:000000000000039f .LASF200
     /tmp/ccVnBpmS.s:14     .text:0000000000000000 .LVL0
     /tmp/ccVnBpmS.s:46     .text:0000000000000028 .LVL2
     /tmp/ccVnBpmS.s:152    .debug_info:0000000000000000 .Ldebug_info0

UNDEFINED SYMBOLS
_Z8userMainv
_ZN5RiscV10initializeEv
HEAP_START_ADDR
_Z9kmem_initPvi
_ZN13SlabAllocator14allocateBufferEm
_Z13thread_createPP7_threadPFvPvES2_
_Z15thread_dispatchv
_ZN5RiscV8finalizeEv
