GAS LISTING /tmp/ccne3qYw.s 			page 1


   1              		.file	"system.cpp"
   2              		.option pic
   3              		.option norelax
   4              		.text
   5              	.Ltext0:
   6              		.align	2
   7              		.globl	_ZN6System15userMainWrapperEPv
   9              	_ZN6System15userMainWrapperEPv:
  10              	.LFB36:
  11              		.file 1 "src/system.cpp"
   1:src/system.cpp **** //
   2:src/system.cpp **** // Created by os on 5/31/22.
   3:src/system.cpp **** //
   4:src/system.cpp **** 
   5:src/system.cpp **** #include "../h/system.hpp"
   6:src/system.cpp **** #include "../h/riscv.hpp"
   7:src/system.cpp **** #include "../h/syscall_c.h"
   8:src/system.cpp **** #include "../tests/userMain.hpp"
   9:src/system.cpp **** #include "../h/printing.hpp"
  10:src/system.cpp **** #include "../h/tcb.hpp"
  11:src/system.cpp **** #include "../h/scheduler.hpp"
  12:src/system.cpp **** #include "../h/consoleUtil.hpp"
  13:src/system.cpp **** #include "../h/buddy.hpp"
  14:src/system.cpp **** 
  15:src/system.cpp **** bool System::initialized = false;
  16:src/system.cpp **** 
  17:src/system.cpp **** System::System() {
  18:src/system.cpp ****     //check whether system is already running to prevent user malicious access
  19:src/system.cpp ****     if (!initialized) {
  20:src/system.cpp ****         initialized = true;
  21:src/system.cpp **** 
  22:src/system.cpp ****         //initialize the machine
  23:src/system.cpp ****         RiscV::initialize();
  24:src/system.cpp **** 
  25:src/system.cpp ****         Buddy::printList();
  26:src/system.cpp **** 
  27:src/system.cpp ****         void* alloc11 = Buddy::alloc(11);
  28:src/system.cpp ****         void* alloc1 = Buddy::alloc(1);
  29:src/system.cpp **** 
  30:src/system.cpp ****         Buddy::printList();
  31:src/system.cpp **** 
  32:src/system.cpp **** 
  33:src/system.cpp ****         ConsoleUtil::printInt((uint64)alloc1);
  34:src/system.cpp ****         ConsoleUtil::printString("\n");
  35:src/system.cpp ****         Buddy::free(alloc1, 1);
  36:src/system.cpp ****         Buddy::free(alloc11, 11);
  37:src/system.cpp **** 
  38:src/system.cpp **** 
  39:src/system.cpp ****         Buddy::printList();
  40:src/system.cpp **** 
  41:src/system.cpp **** //        ConsoleUtil::printInt((uint64)Buddy::BUDDY_START_ADDR, 10);
  42:src/system.cpp **** 
  43:src/system.cpp ****         //creating a thread that will be executing user code
  44:src/system.cpp ****         //this is done as to separate user code execution from main kernel thread
  45:src/system.cpp ****         //also it provides kernel with an idle thread that will run itself if user code gets blocke
  46:src/system.cpp **** 
  47:src/system.cpp ****         thread_t userMainThread;
GAS LISTING /tmp/ccne3qYw.s 			page 2


  48:src/system.cpp ****         thread_create(&userMainThread, userMainWrapper, nullptr);
  49:src/system.cpp **** 
  50:src/system.cpp ****         //return control to user code until it reaches the end
  51:src/system.cpp ****         //exit only if user is finished and machine is ready to exit (in case there is something st
  52:src/system.cpp ****         while (( (TCB*)userMainThread)->status != TCB::Status::FINISHED) {
  53:src/system.cpp ****             thread_dispatch();
  54:src/system.cpp ****         }
  55:src/system.cpp **** 
  56:src/system.cpp ****         //finalize the machine
  57:src/system.cpp ****         RiscV::finalize();
  58:src/system.cpp ****     }
  59:src/system.cpp **** }
  60:src/system.cpp **** 
  61:src/system.cpp **** //wrapper function for userMain as per POSIX threads
  62:src/system.cpp **** void System::userMainWrapper(void *arg){
  12              		.loc 1 62 40
  13              		.cfi_startproc
  14              	.LVL0:
  15 0000 130101FF 		addi	sp,sp,-16
  16              		.cfi_def_cfa_offset 16
  17 0004 23348100 		sd	s0,8(sp)
  18              		.cfi_offset 8, -8
  19 0008 13040101 		addi	s0,sp,16
  20              		.cfi_def_cfa 8, 0
  63:src/system.cpp **** //    int ret = fork();
  64:src/system.cpp **** //
  65:src/system.cpp **** //    if(ret == 0){
  66:src/system.cpp **** //        printString("dete\n");
  67:src/system.cpp **** //    }
  68:src/system.cpp **** //    else {
  69:src/system.cpp **** //        printString("otac\n");
  70:src/system.cpp **** //        thread_dispatch();
  71:src/system.cpp **** //    }
  72:src/system.cpp **** //    MemoryAllocator::showMemory();
  73:src/system.cpp **** //    userMain();
  74:src/system.cpp **** }...
  21              		.loc 1 74 1 is_stmt 0
  22 000c 03348100 		ld	s0,8(sp)
  23              		.cfi_restore 8
  24              		.cfi_def_cfa 2, 16
  25 0010 13010101 		addi	sp,sp,16
  26              		.cfi_def_cfa_offset 0
  27 0014 67800000 		jr	ra
  28              		.cfi_endproc
  29              	.LFE36:
  31              		.section	.rodata.str1.8,"aMS",@progbits,1
  32              		.align	3
  33              	.LC0:
  34 0000 0A00     		.string	"\n"
  35              		.text
  36              		.align	2
  37              		.globl	_ZN6SystemC2Ev
  39              	_ZN6SystemC2Ev:
  40              	.LFB34:
  17:src/system.cpp **** System::System() {
  41              		.loc 1 17 1 is_stmt 1
  42              		.cfi_startproc
GAS LISTING /tmp/ccne3qYw.s 			page 3


  43              	.LVL1:
  19:src/system.cpp ****     if (!initialized) {
  44              		.loc 1 19 5
  45              	.LBB2:
  19:src/system.cpp ****     if (!initialized) {
  46              		.loc 1 19 9 is_stmt 0
  47 0018 97070000 		lbu	a5,.LANCHOR0
  47      83C70700 
  19:src/system.cpp ****     if (!initialized) {
  48              		.loc 1 19 5
  49 0020 63840700 		beqz	a5,.L11
  50 0024 67800000 		ret
  51              	.L11:
  52              	.LBE2:
  17:src/system.cpp **** System::System() {
  53              		.loc 1 17 1
  54 0028 130101FD 		addi	sp,sp,-48
  55              		.cfi_def_cfa_offset 48
  56 002c 23341102 		sd	ra,40(sp)
  57 0030 23308102 		sd	s0,32(sp)
  58 0034 233C9100 		sd	s1,24(sp)
  59 0038 23382101 		sd	s2,16(sp)
  60              		.cfi_offset 1, -8
  61              		.cfi_offset 8, -16
  62              		.cfi_offset 9, -24
  63              		.cfi_offset 18, -32
  64 003c 13040103 		addi	s0,sp,48
  65              		.cfi_def_cfa 8, 0
  66              	.LBB4:
  67              	.LBB3:
  20:src/system.cpp ****         initialized = true;
  68              		.loc 1 20 9 is_stmt 1
  20:src/system.cpp ****         initialized = true;
  69              		.loc 1 20 21 is_stmt 0
  70 0040 93071000 		li	a5,1
  71 0044 17070000 		sb	a5,.LANCHOR0,a4
  71      2300F700 
  23:src/system.cpp ****         RiscV::initialize();
  72              		.loc 1 23 9 is_stmt 1
  23:src/system.cpp ****         RiscV::initialize();
  73              		.loc 1 23 26 is_stmt 0
  74 004c 97000000 		call	_ZN5RiscV10initializeEv@plt
  74      E7800000 
  75              	.LVL2:
  25:src/system.cpp ****         Buddy::printList();
  76              		.loc 1 25 9 is_stmt 1
  25:src/system.cpp ****         Buddy::printList();
  77              		.loc 1 25 25 is_stmt 0
  78 0054 97000000 		call	_ZN5Buddy9printListEv@plt
  78      E7800000 
  79              	.LVL3:
  27:src/system.cpp ****         void* alloc11 = Buddy::alloc(11);
  80              		.loc 1 27 9 is_stmt 1
  27:src/system.cpp ****         void* alloc11 = Buddy::alloc(11);
  81              		.loc 1 27 37 is_stmt 0
  82 005c 1305B000 		li	a0,11
  83 0060 97000000 		call	_ZN5Buddy5allocEm@plt
GAS LISTING /tmp/ccne3qYw.s 			page 4


  83      E7800000 
  84              	.LVL4:
  85 0068 13090500 		mv	s2,a0
  86              	.LVL5:
  28:src/system.cpp ****         void* alloc1 = Buddy::alloc(1);
  87              		.loc 1 28 9 is_stmt 1
  28:src/system.cpp ****         void* alloc1 = Buddy::alloc(1);
  88              		.loc 1 28 36 is_stmt 0
  89 006c 13051000 		li	a0,1
  90              	.LVL6:
  91 0070 97000000 		call	_ZN5Buddy5allocEm@plt
  91      E7800000 
  92              	.LVL7:
  93 0078 93040500 		mv	s1,a0
  94              	.LVL8:
  30:src/system.cpp ****         Buddy::printList();
  95              		.loc 1 30 9 is_stmt 1
  30:src/system.cpp ****         Buddy::printList();
  96              		.loc 1 30 25 is_stmt 0
  97 007c 97000000 		call	_ZN5Buddy9printListEv@plt
  97      E7800000 
  98              	.LVL9:
  33:src/system.cpp ****         ConsoleUtil::printInt((uint64)alloc1);
  99              		.loc 1 33 9 is_stmt 1
  33:src/system.cpp ****         ConsoleUtil::printInt((uint64)alloc1);
 100              		.loc 1 33 30 is_stmt 0
 101 0084 13060000 		li	a2,0
 102 0088 9305A000 		li	a1,10
 103 008c 1B850400 		sext.w	a0,s1
 104 0090 97000000 		call	_ZN11ConsoleUtil8printIntEiii@plt
 104      E7800000 
 105              	.LVL10:
  34:src/system.cpp ****         ConsoleUtil::printString("\n");
 106              		.loc 1 34 9 is_stmt 1
  34:src/system.cpp ****         ConsoleUtil::printString("\n");
 107              		.loc 1 34 33 is_stmt 0
 108 0098 17050000 		lla	a0,.LC0
 108      13050500 
 109 00a0 97000000 		call	_ZN11ConsoleUtil11printStringEPKc@plt
 109      E7800000 
 110              	.LVL11:
  35:src/system.cpp ****         Buddy::free(alloc1, 1);
 111              		.loc 1 35 9 is_stmt 1
  35:src/system.cpp ****         Buddy::free(alloc1, 1);
 112              		.loc 1 35 20 is_stmt 0
 113 00a8 93051000 		li	a1,1
 114 00ac 13850400 		mv	a0,s1
 115 00b0 97000000 		call	_ZN5Buddy4freeEPvm@plt
 115      E7800000 
 116              	.LVL12:
  36:src/system.cpp ****         Buddy::free(alloc11, 11);
 117              		.loc 1 36 9 is_stmt 1
  36:src/system.cpp ****         Buddy::free(alloc11, 11);
 118              		.loc 1 36 20 is_stmt 0
 119 00b8 9305B000 		li	a1,11
 120 00bc 13050900 		mv	a0,s2
 121 00c0 97000000 		call	_ZN5Buddy4freeEPvm@plt
GAS LISTING /tmp/ccne3qYw.s 			page 5


 121      E7800000 
 122              	.LVL13:
  39:src/system.cpp ****         Buddy::printList();
 123              		.loc 1 39 9 is_stmt 1
  39:src/system.cpp ****         Buddy::printList();
 124              		.loc 1 39 25 is_stmt 0
 125 00c8 97000000 		call	_ZN5Buddy9printListEv@plt
 125      E7800000 
 126              	.LVL14:
  47:src/system.cpp ****         thread_t userMainThread;
 127              		.loc 1 47 9 is_stmt 1
  48:src/system.cpp ****         thread_create(&userMainThread, userMainWrapper, nullptr);
 128              		.loc 1 48 9
  48:src/system.cpp ****         thread_create(&userMainThread, userMainWrapper, nullptr);
 129              		.loc 1 48 22 is_stmt 0
 130 00d0 13060000 		li	a2,0
 131 00d4 97050000 		lla	a1,_ZN6System15userMainWrapperEPv
 131      93850500 
 132 00dc 130584FD 		addi	a0,s0,-40
 133 00e0 97000000 		call	_Z13thread_createPP7_threadPFvPvES2_@plt
 133      E7800000 
 134              	.LVL15:
 135              	.L6:
  52:src/system.cpp ****         while (( (TCB*)userMainThread)->status != TCB::Status::FINISHED) {
 136              		.loc 1 52 9 is_stmt 1
  52:src/system.cpp ****         while (( (TCB*)userMainThread)->status != TCB::Status::FINISHED) {
 137              		.loc 1 52 48
  52:src/system.cpp ****         while (( (TCB*)userMainThread)->status != TCB::Status::FINISHED) {
 138              		.loc 1 52 18 is_stmt 0
 139 00e8 833784FD 		ld	a5,-40(s0)
  52:src/system.cpp ****         while (( (TCB*)userMainThread)->status != TCB::Status::FINISHED) {
 140              		.loc 1 52 41
 141 00ec 03A70701 		lw	a4,16(a5)
  52:src/system.cpp ****         while (( (TCB*)userMainThread)->status != TCB::Status::FINISHED) {
 142              		.loc 1 52 48
 143 00f0 93072000 		li	a5,2
 144 00f4 6308F700 		beq	a4,a5,.L5
  53:src/system.cpp ****             thread_dispatch();
 145              		.loc 1 53 13 is_stmt 1
  53:src/system.cpp ****             thread_dispatch();
 146              		.loc 1 53 28 is_stmt 0
 147 00f8 97000000 		call	_Z15thread_dispatchv@plt
 147      E7800000 
 148              	.LVL16:
 149 0100 6FF09FFE 		j	.L6
 150              	.L5:
  57:src/system.cpp ****         RiscV::finalize();
 151              		.loc 1 57 9 is_stmt 1
  57:src/system.cpp ****         RiscV::finalize();
 152              		.loc 1 57 24 is_stmt 0
 153 0104 97000000 		call	_ZN5RiscV8finalizeEv@plt
 153      E7800000 
 154              	.LVL17:
 155              	.LBE3:
 156              	.LBE4:
  59:src/system.cpp **** }
 157              		.loc 1 59 1
GAS LISTING /tmp/ccne3qYw.s 			page 6


 158 010c 83308102 		ld	ra,40(sp)
 159              		.cfi_restore 1
 160 0110 03340102 		ld	s0,32(sp)
 161              		.cfi_restore 8
 162              		.cfi_def_cfa 2, 48
 163 0114 83348101 		ld	s1,24(sp)
 164              		.cfi_restore 9
 165              	.LVL18:
 166 0118 03390101 		ld	s2,16(sp)
 167              		.cfi_restore 18
 168              	.LVL19:
 169 011c 13010103 		addi	sp,sp,48
 170              		.cfi_def_cfa_offset 0
 171 0120 67800000 		jr	ra
 172              		.cfi_endproc
 173              	.LFE34:
 175              		.globl	_ZN6SystemC1Ev
 176              		.set	_ZN6SystemC1Ev,_ZN6SystemC2Ev
 177              		.globl	_ZN6System11initializedE
 178              		.bss
 179              		.set	.LANCHOR0,. + 0
 182              	_ZN6System11initializedE:
 183 0000 00       		.zero	1
 184              		.text
 185              	.Letext0:
 186              		.file 2 "src/../h/../lib/hw.h"
 187              		.file 3 "src/../h/system.hpp"
 188              		.file 4 "src/../h/riscv.hpp"
 189              		.file 5 "src/../h/../h/_thread.hpp"
 190              		.file 6 "src/../h/tcb.hpp"
 191              		.file 7 "src/../h/scb.hpp"
 192              		.file 8 "src/../h/consoleUtil.hpp"
 193              		.file 9 "src/../h/buddy.hpp"
 194              		.file 10 "src/../h/syscall_c.h"
GAS LISTING /tmp/ccne3qYw.s 			page 7


DEFINED SYMBOLS
                            *ABS*:0000000000000000 system.cpp
     /tmp/ccne3qYw.s:9      .text:0000000000000000 _ZN6System15userMainWrapperEPv
     /tmp/ccne3qYw.s:13     .text:0000000000000000 .L0 
     /tmp/ccne3qYw.s:15     .text:0000000000000000 .L0 
     /tmp/ccne3qYw.s:16     .text:0000000000000004 .L0 
     /tmp/ccne3qYw.s:18     .text:0000000000000008 .L0 
     /tmp/ccne3qYw.s:20     .text:000000000000000c .L0 
     /tmp/ccne3qYw.s:22     .text:000000000000000c .L0 
     /tmp/ccne3qYw.s:23     .text:0000000000000010 .L0 
     /tmp/ccne3qYw.s:24     .text:0000000000000010 .L0 
     /tmp/ccne3qYw.s:26     .text:0000000000000014 .L0 
     /tmp/ccne3qYw.s:28     .text:0000000000000018 .L0 
     /tmp/ccne3qYw.s:39     .text:0000000000000018 _ZN6SystemC2Ev
     /tmp/ccne3qYw.s:42     .text:0000000000000018 .L0 
     /tmp/ccne3qYw.s:44     .text:0000000000000018 .L0 
     /tmp/ccne3qYw.s:46     .text:0000000000000018 .L0 
     /tmp/ccne3qYw.s:47     .text:0000000000000018 .L0 
     /tmp/ccne3qYw.s:49     .text:0000000000000020 .L0 
     /tmp/ccne3qYw.s:54     .text:0000000000000028 .L0 
     /tmp/ccne3qYw.s:55     .text:000000000000002c .L0 
     /tmp/ccne3qYw.s:60     .text:000000000000003c .L0 
     /tmp/ccne3qYw.s:61     .text:000000000000003c .L0 
     /tmp/ccne3qYw.s:62     .text:000000000000003c .L0 
     /tmp/ccne3qYw.s:63     .text:000000000000003c .L0 
     /tmp/ccne3qYw.s:65     .text:0000000000000040 .L0 
     /tmp/ccne3qYw.s:69     .text:0000000000000040 .L0 
     /tmp/ccne3qYw.s:70     .text:0000000000000040 .L0 
     /tmp/ccne3qYw.s:73     .text:000000000000004c .L0 
     /tmp/ccne3qYw.s:74     .text:000000000000004c .L0 
     /tmp/ccne3qYw.s:77     .text:0000000000000054 .L0 
     /tmp/ccne3qYw.s:78     .text:0000000000000054 .L0 
     /tmp/ccne3qYw.s:81     .text:000000000000005c .L0 
     /tmp/ccne3qYw.s:82     .text:000000000000005c .L0 
     /tmp/ccne3qYw.s:88     .text:000000000000006c .L0 
     /tmp/ccne3qYw.s:89     .text:000000000000006c .L0 
     /tmp/ccne3qYw.s:96     .text:000000000000007c .L0 
     /tmp/ccne3qYw.s:97     .text:000000000000007c .L0 
     /tmp/ccne3qYw.s:100    .text:0000000000000084 .L0 
     /tmp/ccne3qYw.s:101    .text:0000000000000084 .L0 
     /tmp/ccne3qYw.s:107    .text:0000000000000098 .L0 
     /tmp/ccne3qYw.s:108    .text:0000000000000098 .L0 
     /tmp/ccne3qYw.s:112    .text:00000000000000a8 .L0 
     /tmp/ccne3qYw.s:113    .text:00000000000000a8 .L0 
     /tmp/ccne3qYw.s:118    .text:00000000000000b8 .L0 
     /tmp/ccne3qYw.s:119    .text:00000000000000b8 .L0 
     /tmp/ccne3qYw.s:124    .text:00000000000000c8 .L0 
     /tmp/ccne3qYw.s:125    .text:00000000000000c8 .L0 
     /tmp/ccne3qYw.s:128    .text:00000000000000d0 .L0 
     /tmp/ccne3qYw.s:129    .text:00000000000000d0 .L0 
     /tmp/ccne3qYw.s:130    .text:00000000000000d0 .L0 
     /tmp/ccne3qYw.s:137    .text:00000000000000e8 .L0 
     /tmp/ccne3qYw.s:138    .text:00000000000000e8 .L0 
     /tmp/ccne3qYw.s:139    .text:00000000000000e8 .L0 
     /tmp/ccne3qYw.s:141    .text:00000000000000ec .L0 
     /tmp/ccne3qYw.s:143    .text:00000000000000f0 .L0 
     /tmp/ccne3qYw.s:146    .text:00000000000000f8 .L0 
GAS LISTING /tmp/ccne3qYw.s 			page 8


     /tmp/ccne3qYw.s:147    .text:00000000000000f8 .L0 
     /tmp/ccne3qYw.s:152    .text:0000000000000104 .L0 
     /tmp/ccne3qYw.s:153    .text:0000000000000104 .L0 
     /tmp/ccne3qYw.s:158    .text:000000000000010c .L0 
     /tmp/ccne3qYw.s:159    .text:0000000000000110 .L0 
     /tmp/ccne3qYw.s:161    .text:0000000000000114 .L0 
     /tmp/ccne3qYw.s:162    .text:0000000000000114 .L0 
     /tmp/ccne3qYw.s:164    .text:0000000000000118 .L0 
     /tmp/ccne3qYw.s:167    .text:000000000000011c .L0 
     /tmp/ccne3qYw.s:170    .text:0000000000000120 .L0 
     /tmp/ccne3qYw.s:172    .text:0000000000000124 .L0 
     /tmp/ccne3qYw.s:39     .text:0000000000000018 _ZN6SystemC1Ev
     /tmp/ccne3qYw.s:182    .bss:0000000000000000 _ZN6System11initializedE
     /tmp/ccne3qYw.s:179    .bss:0000000000000000 .LANCHOR0
     /tmp/ccne3qYw.s:195    .text:0000000000000124 .L0 
     /tmp/ccne3qYw.s:47     .text:0000000000000018 .L0 
     /tmp/ccne3qYw.s:71     .text:0000000000000044 .L0 
     /tmp/ccne3qYw.s:33     .rodata.str1.8:0000000000000000 .LC0
     /tmp/ccne3qYw.s:108    .text:0000000000000098 .L0 
     /tmp/ccne3qYw.s:131    .text:00000000000000d4 .L0 
     /tmp/ccne3qYw.s:51     .text:0000000000000028 .L11
     /tmp/ccne3qYw.s:150    .text:0000000000000104 .L5
     /tmp/ccne3qYw.s:135    .text:00000000000000e8 .L6
     /tmp/ccne3qYw.s:1802   .debug_abbrev:0000000000000000 .Ldebug_abbrev0
     /tmp/ccne3qYw.s:3112   .debug_str:0000000000000cde .LASF241
     /tmp/ccne3qYw.s:2974   .debug_str:0000000000000837 .LASF242
     /tmp/ccne3qYw.s:2770   .debug_str:000000000000013a .LASF243
     /tmp/ccne3qYw.s:5      .text:0000000000000000 .Ltext0
     /tmp/ccne3qYw.s:185    .text:0000000000000124 .Letext0
     /tmp/ccne3qYw.s:2730   .debug_line:0000000000000000 .Ldebug_line0
     /tmp/ccne3qYw.s:2878   .debug_str:0000000000000519 .LASF0
     /tmp/ccne3qYw.s:2914   .debug_str:0000000000000653 .LASF1
     /tmp/ccne3qYw.s:3040   .debug_str:0000000000000a9f .LASF2
     /tmp/ccne3qYw.s:3046   .debug_str:0000000000000ac5 .LASF4
     /tmp/ccne3qYw.s:2894   .debug_str:0000000000000578 .LASF3
     /tmp/ccne3qYw.s:2750   .debug_str:00000000000000c1 .LASF5
     /tmp/ccne3qYw.s:2986   .debug_str:00000000000008b8 .LASF6
     /tmp/ccne3qYw.s:2902   .debug_str:00000000000005b4 .LASF7
     /tmp/ccne3qYw.s:2848   .debug_str:000000000000040e .LASF8
     /tmp/ccne3qYw.s:2858   .debug_str:0000000000000481 .LASF9
     /tmp/ccne3qYw.s:2788   .debug_str:00000000000001f8 .LASF10
     /tmp/ccne3qYw.s:2842   .debug_str:00000000000003d4 .LASF11
     /tmp/ccne3qYw.s:2806   .debug_str:00000000000002a6 .LASF12
     /tmp/ccne3qYw.s:2786   .debug_str:00000000000001e8 .LASF13
     /tmp/ccne3qYw.s:3084   .debug_str:0000000000000c2a .LASF14
     /tmp/ccne3qYw.s:2830   .debug_str:000000000000037c .LASF15
     /tmp/ccne3qYw.s:3072   .debug_str:0000000000000bbb .LASF16
     /tmp/ccne3qYw.s:2932   .debug_str:0000000000000703 .LASF17
     /tmp/ccne3qYw.s:2732   .debug_str:0000000000000000 .LASF18
     /tmp/ccne3qYw.s:2938   .debug_str:0000000000000734 .LASF59
     /tmp/ccne3qYw.s:3206   .debug_str:0000000000001088 .LASF61
     /tmp/ccne3qYw.s:2874   .debug_str:00000000000004e1 .LASF20
     /tmp/ccne3qYw.s:2760   .debug_str:00000000000000ef .LASF120
     /tmp/ccne3qYw.s:3142   .debug_str:0000000000000eb7 .LASF19
     /tmp/ccne3qYw.s:2856   .debug_str:0000000000000476 .LASF21
     /tmp/ccne3qYw.s:3104   .debug_str:0000000000000c9f .LASF22
     /tmp/ccne3qYw.s:3056   .debug_str:0000000000000b22 .LASF23
GAS LISTING /tmp/ccne3qYw.s 			page 9


     /tmp/ccne3qYw.s:2808   .debug_str:00000000000002b6 .LASF25
     /tmp/ccne3qYw.s:3016   .debug_str:00000000000009d0 .LASF24
     /tmp/ccne3qYw.s:2780   .debug_str:00000000000001aa .LASF26
     /tmp/ccne3qYw.s:3074   .debug_str:0000000000000bd1 .LASF27
     /tmp/ccne3qYw.s:3092   .debug_str:0000000000000c53 .LASF28
     /tmp/ccne3qYw.s:2990   .debug_str:00000000000008f6 .LASF29
     /tmp/ccne3qYw.s:2936   .debug_str:000000000000070e .LASF30
     /tmp/ccne3qYw.s:2904   .debug_str:00000000000005c7 .LASF31
     /tmp/ccne3qYw.s:2736   .debug_str:000000000000001e .LASF32
     /tmp/ccne3qYw.s:3120   .debug_str:0000000000000dca .LASF33
     /tmp/ccne3qYw.s:2876   .debug_str:00000000000004ed .LASF34
     /tmp/ccne3qYw.s:3018   .debug_str:00000000000009e6 .LASF35
     /tmp/ccne3qYw.s:2850   .debug_str:000000000000041e .LASF36
     /tmp/ccne3qYw.s:3008   .debug_str:0000000000000976 .LASF37
     /tmp/ccne3qYw.s:2984   .debug_str:0000000000000895 .LASF38
     /tmp/ccne3qYw.s:2734   .debug_str:0000000000000007 .LASF39
     /tmp/ccne3qYw.s:3218   .debug_str:00000000000010f3 .LASF40
     /tmp/ccne3qYw.s:2924   .debug_str:000000000000069b .LASF41
     /tmp/ccne3qYw.s:3232   .debug_str:0000000000001180 .LASF42
     /tmp/ccne3qYw.s:3176   .debug_str:0000000000000f90 .LASF43
     /tmp/ccne3qYw.s:2852   .debug_str:0000000000000445 .LASF44
     /tmp/ccne3qYw.s:2832   .debug_str:0000000000000392 .LASF45
     /tmp/ccne3qYw.s:3194   .debug_str:000000000000102d .LASF46
     /tmp/ccne3qYw.s:3070   .debug_str:0000000000000ba8 .LASF47
     /tmp/ccne3qYw.s:2888   .debug_str:000000000000054e .LASF48
     /tmp/ccne3qYw.s:2918   .debug_str:0000000000000671 .LASF49
     /tmp/ccne3qYw.s:3132   .debug_str:0000000000000e3f .LASF50
     /tmp/ccne3qYw.s:2762   .debug_str:00000000000000fe .LASF51
     /tmp/ccne3qYw.s:2928   .debug_str:00000000000006d3 .LASF52
     /tmp/ccne3qYw.s:3058   .debug_str:0000000000000b39 .LASF53
     /tmp/ccne3qYw.s:2846   .debug_str:00000000000003e8 .LASF54
     /tmp/ccne3qYw.s:3230   .debug_str:0000000000001164 .LASF55
     /tmp/ccne3qYw.s:2906   .debug_str:00000000000005e4 .LASF56
     /tmp/ccne3qYw.s:3168   .debug_str:0000000000000f60 .LASF57
     /tmp/ccne3qYw.s:2772   .debug_str:000000000000016b .LASF58
     /tmp/ccne3qYw.s:2930   .debug_str:00000000000006f7 .LASF60
     /tmp/ccne3qYw.s:3124   .debug_str:0000000000000df3 .LASF62
     /tmp/ccne3qYw.s:3148   .debug_str:0000000000000ede .LASF65
     /tmp/ccne3qYw.s:3212   .debug_str:00000000000010c2 .LASF67
     /tmp/ccne3qYw.s:3036   .debug_str:0000000000000a8b .LASF63
     /tmp/ccne3qYw.s:3214   .debug_str:00000000000010d7 .LASF64
     /tmp/ccne3qYw.s:3162   .debug_str:0000000000000f33 .LASF66
     /tmp/ccne3qYw.s:2912   .debug_str:0000000000000640 .LASF68
     /tmp/ccne3qYw.s:2958   .debug_str:00000000000007d4 .LASF69
     /tmp/ccne3qYw.s:2812   .debug_str:00000000000002fc .LASF70
     /tmp/ccne3qYw.s:3192   .debug_str:0000000000001025 .LASF71
     /tmp/ccne3qYw.s:2766   .debug_str:000000000000011e .LASF72
     /tmp/ccne3qYw.s:2952   .debug_str:00000000000007be .LASF73
     /tmp/ccne3qYw.s:2816   .debug_str:000000000000031d .LASF74
     /tmp/ccne3qYw.s:3174   .debug_str:0000000000000f86 .LASF75
     /tmp/ccne3qYw.s:2910   .debug_str:000000000000062a .LASF76
     /tmp/ccne3qYw.s:3172   .debug_str:0000000000000f7c .LASF77
     /tmp/ccne3qYw.s:2834   .debug_str:00000000000003aa .LASF78
     /tmp/ccne3qYw.s:2752   .debug_str:00000000000000c8 .LASF79
     /tmp/ccne3qYw.s:3126   .debug_str:0000000000000e0d .LASF80
     /tmp/ccne3qYw.s:3038   .debug_str:0000000000000a94 .LASF81
     /tmp/ccne3qYw.s:2794   .debug_str:0000000000000234 .LASF82
GAS LISTING /tmp/ccne3qYw.s 			page 10


     /tmp/ccne3qYw.s:3080   .debug_str:0000000000000c15 .LASF83
     /tmp/ccne3qYw.s:2804   .debug_str:0000000000000293 .LASF84
     /tmp/ccne3qYw.s:3050   .debug_str:0000000000000ae4 .LASF85
     /tmp/ccne3qYw.s:2946   .debug_str:0000000000000783 .LASF86
     /tmp/ccne3qYw.s:3068   .debug_str:0000000000000ba1 .LASF87
     /tmp/ccne3qYw.s:2798   .debug_str:0000000000000258 .LASF88
     /tmp/ccne3qYw.s:3042   .debug_str:0000000000000aad .LASF89
     /tmp/ccne3qYw.s:3010   .debug_str:000000000000098c .LASF90
     /tmp/ccne3qYw.s:3026   .debug_str:0000000000000a42 .LASF91
     /tmp/ccne3qYw.s:2900   .debug_str:0000000000000596 .LASF92
     /tmp/ccne3qYw.s:2800   .debug_str:000000000000026b .LASF93
     /tmp/ccne3qYw.s:2988   .debug_str:00000000000008cb .LASF94
     /tmp/ccne3qYw.s:2866   .debug_str:00000000000004a5 .LASF95
     /tmp/ccne3qYw.s:2948   .debug_str:0000000000000796 .LASF96
     /tmp/ccne3qYw.s:3096   .debug_str:0000000000000c83 .LASF97
     /tmp/ccne3qYw.s:3078   .debug_str:0000000000000c03 .LASF98
     /tmp/ccne3qYw.s:3190   .debug_str:0000000000001016 .LASF99
     /tmp/ccne3qYw.s:3144   .debug_str:0000000000000ebd .LASF100
     /tmp/ccne3qYw.s:2994   .debug_str:0000000000000919 .LASF101
     /tmp/ccne3qYw.s:2810   .debug_str:00000000000002da .LASF102
     /tmp/ccne3qYw.s:3158   .debug_str:0000000000000f16 .LASF103
     /tmp/ccne3qYw.s:3012   .debug_str:000000000000099f .LASF104
     /tmp/ccne3qYw.s:2748   .debug_str:00000000000000af .LASF105
     /tmp/ccne3qYw.s:3136   .debug_str:0000000000000e77 .LASF106
     /tmp/ccne3qYw.s:3062   .debug_str:0000000000000b5a .LASF107
     /tmp/ccne3qYw.s:3052   .debug_str:0000000000000aeb .LASF108
     /tmp/ccne3qYw.s:3226   .debug_str:000000000000113d .LASF109
     /tmp/ccne3qYw.s:3236   .debug_str:00000000000011c7 .LASF110
     /tmp/ccne3qYw.s:3024   .debug_str:0000000000000a2c .LASF111
     /tmp/ccne3qYw.s:3064   .debug_str:0000000000000b73 .LASF112
     /tmp/ccne3qYw.s:2828   .debug_str:0000000000000365 .LASF113
     /tmp/ccne3qYw.s:2964   .debug_str:00000000000007f6 .LASF114
     /tmp/ccne3qYw.s:3066   .debug_str:0000000000000b96 .LASF115
     /tmp/ccne3qYw.s:3048   .debug_str:0000000000000acc .LASF116
     /tmp/ccne3qYw.s:2756   .debug_str:00000000000000d9 .LASF117
     /tmp/ccne3qYw.s:2784   .debug_str:00000000000001d3 .LASF118
     /tmp/ccne3qYw.s:2768   .debug_str:0000000000000132 .LASF119
     /tmp/ccne3qYw.s:2950   .debug_str:00000000000007ae .LASF121
     /tmp/ccne3qYw.s:2790   .debug_str:0000000000000207 .LASF122
     /tmp/ccne3qYw.s:2742   .debug_str:000000000000006b .LASF123
     /tmp/ccne3qYw.s:3116   .debug_str:0000000000000dae .LASF124
     /tmp/ccne3qYw.s:3170   .debug_str:0000000000000f73 .LASF125
     /tmp/ccne3qYw.s:3094   .debug_str:0000000000000c7b .LASF244
     /tmp/ccne3qYw.s:3216   .debug_str:00000000000010ec .LASF130
     /tmp/ccne3qYw.s:3060   .debug_str:0000000000000b52 .LASF126
     /tmp/ccne3qYw.s:2782   .debug_str:00000000000001cd .LASF127
     /tmp/ccne3qYw.s:2776   .debug_str:0000000000000195 .LASF128
     /tmp/ccne3qYw.s:2996   .debug_str:000000000000092e .LASF129
     /tmp/ccne3qYw.s:2862   .debug_str:0000000000000499 .LASF131
     /tmp/ccne3qYw.s:2892   .debug_str:0000000000000573 .LASF132
     /tmp/ccne3qYw.s:2886   .debug_str:0000000000000543 .LASF133
     /tmp/ccne3qYw.s:2796   .debug_str:000000000000024c .LASF134
     /tmp/ccne3qYw.s:3076   .debug_str:0000000000000bec .LASF135
     /tmp/ccne3qYw.s:2972   .debug_str:0000000000000832 .LASF136
     /tmp/ccne3qYw.s:2968   .debug_str:0000000000000827 .LASF137
     /tmp/ccne3qYw.s:2746   .debug_str:00000000000000a3 .LASF138
     /tmp/ccne3qYw.s:2922   .debug_str:0000000000000693 .LASF139
GAS LISTING /tmp/ccne3qYw.s 			page 11


     /tmp/ccne3qYw.s:3150   .debug_str:0000000000000ee7 .LASF140
     /tmp/ccne3qYw.s:3228   .debug_str:0000000000001157 .LASF141
     /tmp/ccne3qYw.s:2854   .debug_str:000000000000046a .LASF142
     /tmp/ccne3qYw.s:2966   .debug_str:000000000000081a .LASF143
     /tmp/ccne3qYw.s:3138   .debug_str:0000000000000e96 .LASF144
     /tmp/ccne3qYw.s:2820   .debug_str:000000000000033d .LASF145
     /tmp/ccne3qYw.s:2822   .debug_str:000000000000034c .LASF146
     /tmp/ccne3qYw.s:3014   .debug_str:00000000000009bd .LASF147
     /tmp/ccne3qYw.s:2976   .debug_str:0000000000000846 .LASF148
     /tmp/ccne3qYw.s:2992   .debug_str:000000000000090f .LASF149
     /tmp/ccne3qYw.s:2802   .debug_str:0000000000000289 .LASF150
     /tmp/ccne3qYw.s:2814   .debug_str:000000000000030f .LASF151
     /tmp/ccne3qYw.s:2744   .debug_str:000000000000007b .LASF152
     /tmp/ccne3qYw.s:3160   .debug_str:0000000000000f27 .LASF153
     /tmp/ccne3qYw.s:3134   .debug_str:0000000000000e5f .LASF154
     /tmp/ccne3qYw.s:3208   .debug_str:00000000000010a7 .LASF155
     /tmp/ccne3qYw.s:3166   .debug_str:0000000000000f59 .LASF156
     /tmp/ccne3qYw.s:3102   .debug_str:0000000000000c9a .LASF157
     /tmp/ccne3qYw.s:2740   .debug_str:0000000000000066 .LASF158
     /tmp/ccne3qYw.s:3224   .debug_str:0000000000001138 .LASF159
     /tmp/ccne3qYw.s:2934   .debug_str:0000000000000708 .LASF160
     /tmp/ccne3qYw.s:3122   .debug_str:0000000000000de9 .LASF161
     /tmp/ccne3qYw.s:3154   .debug_str:0000000000000f06 .LASF162
     /tmp/ccne3qYw.s:3180   .debug_str:0000000000000fb9 .LASF163
     /tmp/ccne3qYw.s:3202   .debug_str:0000000000001077 .LASF164
     /tmp/ccne3qYw.s:3130   .debug_str:0000000000000e35 .LASF165
     /tmp/ccne3qYw.s:2764   .debug_str:0000000000000115 .LASF166
     /tmp/ccne3qYw.s:3184   .debug_str:0000000000000fd0 .LASF167
     /tmp/ccne3qYw.s:3004   .debug_str:0000000000000961 .LASF168
     /tmp/ccne3qYw.s:3110   .debug_str:0000000000000cd6 .LASF169
     /tmp/ccne3qYw.s:2826   .debug_str:000000000000035a .LASF170
     /tmp/ccne3qYw.s:3054   .debug_str:0000000000000b11 .LASF171
     /tmp/ccne3qYw.s:2882   .debug_str:0000000000000530 .LASF172
     /tmp/ccne3qYw.s:2818   .debug_str:0000000000000331 .LASF173
     /tmp/ccne3qYw.s:2778   .debug_str:000000000000019e .LASF174
     /tmp/ccne3qYw.s:3146   .debug_str:0000000000000ed9 .LASF175
     /tmp/ccne3qYw.s:2960   .debug_str:00000000000007db .LASF176
     /tmp/ccne3qYw.s:2824   .debug_str:0000000000000355 .LASF177
     /tmp/ccne3qYw.s:3182   .debug_str:0000000000000fc1 .LASF178
     /tmp/ccne3qYw.s:3088   .debug_str:0000000000000c43 .LASF179
     /tmp/ccne3qYw.s:2980   .debug_str:0000000000000872 .LASF180
     /tmp/ccne3qYw.s:2970   .debug_str:000000000000082c .LASF181
     /tmp/ccne3qYw.s:3000   .debug_str:0000000000000945 .LASF182
     /tmp/ccne3qYw.s:3220   .debug_str:0000000000001117 .LASF183
     /tmp/ccne3qYw.s:3200   .debug_str:0000000000001065 .LASF184
     /tmp/ccne3qYw.s:2998   .debug_str:0000000000000936 .LASF185
     /tmp/ccne3qYw.s:2792   .debug_str:0000000000000219 .LASF186
     /tmp/ccne3qYw.s:3100   .debug_str:0000000000000c8e .LASF187
     /tmp/ccne3qYw.s:3086   .debug_str:0000000000000c36 .LASF232
     /tmp/ccne3qYw.s:3114   .debug_str:0000000000000da2 .LASF188
     /tmp/ccne3qYw.s:2942   .debug_str:0000000000000762 .LASF189
     /tmp/ccne3qYw.s:3002   .debug_str:0000000000000955 .LASF190
     /tmp/ccne3qYw.s:3198   .debug_str:000000000000105b .LASF191
     /tmp/ccne3qYw.s:3090   .debug_str:0000000000000c4a .LASF192
     /tmp/ccne3qYw.s:3118   .debug_str:0000000000000dbf .LASF245
     /tmp/ccne3qYw.s:3152   .debug_str:0000000000000efa .LASF193
     /tmp/ccne3qYw.s:2758   .debug_str:00000000000000e2 .LASF194
GAS LISTING /tmp/ccne3qYw.s 			page 12


     /tmp/ccne3qYw.s:2880   .debug_str:0000000000000526 .LASF195
     /tmp/ccne3qYw.s:3006   .debug_str:000000000000096c .LASF196
     /tmp/ccne3qYw.s:2916   .debug_str:0000000000000666 .LASF197
     /tmp/ccne3qYw.s:3156   .debug_str:0000000000000f0b .LASF198
     /tmp/ccne3qYw.s:3028   .debug_str:0000000000000a53 .LASF199
     /tmp/ccne3qYw.s:3140   .debug_str:0000000000000e9b .LASF200
     /tmp/ccne3qYw.s:2956   .debug_str:00000000000007cb .LASF201
     /tmp/ccne3qYw.s:3022   .debug_str:0000000000000a10 .LASF202
     /tmp/ccne3qYw.s:3034   .debug_str:0000000000000a81 .LASF203
     /tmp/ccne3qYw.s:3032   .debug_str:0000000000000a64 .LASF204
     /tmp/ccne3qYw.s:2774   .debug_str:000000000000018b .LASF205
     /tmp/ccne3qYw.s:2908   .debug_str:000000000000060d .LASF206
     /tmp/ccne3qYw.s:3164   .debug_str:0000000000000f3a .LASF207
     /tmp/ccne3qYw.s:3128   .debug_str:0000000000000e25 .LASF208
     /tmp/ccne3qYw.s:3234   .debug_str:00000000000011a3 .LASF209
     /tmp/ccne3qYw.s:2838   .debug_str:00000000000003c6 .LASF210
     /tmp/ccne3qYw.s:2940   .debug_str:0000000000000744 .LASF211
     /tmp/ccne3qYw.s:3204   .debug_str:000000000000107c .LASF212
     /tmp/ccne3qYw.s:2926   .debug_str:00000000000006b1 .LASF213
     /tmp/ccne3qYw.s:3098   .debug_str:0000000000000c89 .LASF214
     /tmp/ccne3qYw.s:2898   .debug_str:0000000000000590 .LASF215
     /tmp/ccne3qYw.s:2896   .debug_str:000000000000058a .LASF246
     /tmp/ccne3qYw.s:3186   .debug_str:0000000000000fd9 .LASF216
     /tmp/ccne3qYw.s:2754   .debug_str:00000000000000d3 .LASF247
     /tmp/ccne3qYw.s:2982   .debug_str:0000000000000883 .LASF248
     /tmp/ccne3qYw.s:3210   .debug_str:00000000000010af .LASF217
     /tmp/ccne3qYw.s:2860   .debug_str:000000000000048f .LASF218
     /tmp/ccne3qYw.s:2978   .debug_str:000000000000085c .LASF219
     /tmp/ccne3qYw.s:2868   .debug_str:00000000000004b0 .LASF220
     /tmp/ccne3qYw.s:3178   .debug_str:0000000000000fa8 .LASF221
     /tmp/ccne3qYw.s:3106   .debug_str:0000000000000cb0 .LASF222
     /tmp/ccne3qYw.s:2864   .debug_str:000000000000049e .LASF249
     /tmp/ccne3qYw.s:2840   .debug_str:00000000000003cf .LASF223
     /tmp/ccne3qYw.s:2954   .debug_str:00000000000007c6 .LASF224
     /tmp/ccne3qYw.s:2890   .debug_str:000000000000056e .LASF225
     /tmp/ccne3qYw.s:3044   .debug_str:0000000000000ab4 .LASF226
     /tmp/ccne3qYw.s:2836   .debug_str:00000000000003c0 .LASF227
     /tmp/ccne3qYw.s:2738   .debug_str:0000000000000048 .LASF228
     /tmp/ccne3qYw.s:2872   .debug_str:00000000000004da .LASF229
     /tmp/ccne3qYw.s:3108   .debug_str:0000000000000cc1 .LASF230
     /tmp/ccne3qYw.s:3196   .debug_str:0000000000001052 .LASF231
     /tmp/ccne3qYw.s:2870   .debug_str:00000000000004c5 .LASF233
     /tmp/ccne3qYw.s:3222   .debug_str:000000000000111f .LASF250
     /tmp/ccne3qYw.s:10     .text:0000000000000000 .LFB36
     /tmp/ccne3qYw.s:29     .text:0000000000000018 .LFE36
     /tmp/ccne3qYw.s:2844   .debug_str:00000000000003e3 .LASF251
     /tmp/ccne3qYw.s:3030   .debug_str:0000000000000a5c .LASF234
     /tmp/ccne3qYw.s:2884   .debug_str:000000000000053c .LASF235
     /tmp/ccne3qYw.s:2962   .debug_str:00000000000007e7 .LASF236
     /tmp/ccne3qYw.s:2920   .debug_str:0000000000000684 .LASF252
     /tmp/ccne3qYw.s:40     .text:0000000000000018 .LFB34
     /tmp/ccne3qYw.s:173    .text:0000000000000124 .LFE34
     /tmp/ccne3qYw.s:2685   .debug_loc:0000000000000000 .LLST0
     /tmp/ccne3qYw.s:75     .text:0000000000000054 .LVL2
     /tmp/ccne3qYw.s:79     .text:000000000000005c .LVL3
     /tmp/ccne3qYw.s:84     .text:0000000000000068 .LVL4
     /tmp/ccne3qYw.s:92     .text:0000000000000078 .LVL7
GAS LISTING /tmp/ccne3qYw.s 			page 13


     /tmp/ccne3qYw.s:98     .text:0000000000000084 .LVL9
     /tmp/ccne3qYw.s:105    .text:0000000000000098 .LVL10
     /tmp/ccne3qYw.s:110    .text:00000000000000a8 .LVL11
     /tmp/ccne3qYw.s:116    .text:00000000000000b8 .LVL12
     /tmp/ccne3qYw.s:122    .text:00000000000000c8 .LVL13
     /tmp/ccne3qYw.s:126    .text:00000000000000d0 .LVL14
     /tmp/ccne3qYw.s:134    .text:00000000000000e8 .LVL15
     /tmp/ccne3qYw.s:148    .text:0000000000000100 .LVL16
     /tmp/ccne3qYw.s:154    .text:000000000000010c .LVL17
     /tmp/ccne3qYw.s:67     .text:0000000000000040 .LBB3
     /tmp/ccne3qYw.s:155    .text:000000000000010c .LBE3
     /tmp/ccne3qYw.s:2699   .debug_loc:0000000000000039 .LLST1
     /tmp/ccne3qYw.s:2710   .debug_loc:000000000000006f .LLST2
     /tmp/ccne3qYw.s:3188   .debug_str:0000000000000ff1 .LASF237
     /tmp/ccne3qYw.s:3082   .debug_str:0000000000000c1c .LASF239
     /tmp/ccne3qYw.s:2944   .debug_str:000000000000076e .LASF238
     /tmp/ccne3qYw.s:3020   .debug_str:0000000000000a00 .LASF240
     /tmp/ccne3qYw.s:43     .text:0000000000000018 .LVL1
     /tmp/ccne3qYw.s:86     .text:000000000000006c .LVL5
     /tmp/ccne3qYw.s:90     .text:0000000000000070 .LVL6
     /tmp/ccne3qYw.s:168    .text:000000000000011c .LVL19
     /tmp/ccne3qYw.s:94     .text:000000000000007c .LVL8
     /tmp/ccne3qYw.s:165    .text:0000000000000118 .LVL18
     /tmp/ccne3qYw.s:196    .debug_info:0000000000000000 .Ldebug_info0

UNDEFINED SYMBOLS
_ZN5RiscV10initializeEv
_ZN5Buddy9printListEv
_ZN5Buddy5allocEm
_ZN11ConsoleUtil8printIntEiii
_ZN11ConsoleUtil11printStringEPKc
_ZN5Buddy4freeEPvm
_Z13thread_createPP7_threadPFvPvES2_
_Z15thread_dispatchv
_ZN5RiscV8finalizeEv
