GAS LISTING /tmp/ccDVAIIh.s 			page 1


   1              		.file	"system.cpp"
   2              		.option pic
   3              		.option norelax
   4              		.text
   5              	.Ltext0:
   6              		.align	2
   7              		.globl	_ZN6System15userMainWrapperEPv
   9              	_ZN6System15userMainWrapperEPv:
  10              	.LFB45:
  11              		.file 1 "src/system.cpp"
   1:src/system.cpp **** //
   2:src/system.cpp **** // Created by os on 5/31/22.
   3:src/system.cpp **** //
   4:src/system.cpp **** 
   5:src/system.cpp **** #include "../h/system.hpp"
   6:src/system.cpp **** #include "../h/riscv.hpp"
   7:src/system.cpp **** #include "../h/syscall_c.h"
   8:src/system.cpp **** #include "../tests/userMain.hpp"
   9:src/system.cpp **** #include "../h/printing.hpp"
  10:src/system.cpp **** #include "../h/tcb.hpp"
  11:src/system.cpp **** #include "../h/scheduler.hpp"
  12:src/system.cpp **** #include "../h/consoleUtil.hpp"
  13:src/system.cpp **** #include "../h/slabAllocator.hpp"
  14:src/system.cpp **** #include "../h/slab.hpp"
  15:src/system.cpp **** 
  16:src/system.cpp **** bool System::initialized = false;
  17:src/system.cpp **** 
  18:src/system.cpp **** struct Test{
  19:src/system.cpp ****     uint64 a,b,c,d,e,f;
  20:src/system.cpp **** };
  21:src/system.cpp **** 
  22:src/system.cpp **** System::System() {
  23:src/system.cpp ****     //check whether system is already running to prevent user malicious access
  24:src/system.cpp ****     if (!initialized) {
  25:src/system.cpp ****         initialized = true;
  26:src/system.cpp **** 
  27:src/system.cpp ****         //initialize the machine
  28:src/system.cpp ****         RiscV::initialize();
  29:src/system.cpp **** 
  30:src/system.cpp ****         //creating a thread that will be executing user code
  31:src/system.cpp ****         //this is done as to separate user code execution from main kernel thread
  32:src/system.cpp ****         //also it provides kernel with an idle thread that will run itself if user code gets blocke
  33:src/system.cpp **** 
  34:src/system.cpp ****         thread_t userMainThread;
  35:src/system.cpp ****         thread_create(&userMainThread, userMainWrapper, nullptr);
  36:src/system.cpp **** 
  37:src/system.cpp ****         //return control to user code until it reaches the end
  38:src/system.cpp ****         //exit only if user is finished and machine is ready to exit (in case there is something st
  39:src/system.cpp ****         while (( (TCB*)userMainThread)->status != TCB::Status::FINISHED) {
  40:src/system.cpp ****             thread_dispatch();
  41:src/system.cpp ****         }
  42:src/system.cpp **** 
  43:src/system.cpp ****         //finalize the machine
  44:src/system.cpp ****         RiscV::finalize();
  45:src/system.cpp ****     }
  46:src/system.cpp **** }
  47:src/system.cpp **** 
GAS LISTING /tmp/ccDVAIIh.s 			page 2


  48:src/system.cpp **** //wrapper function for userMain as per POSIX threads
  49:src/system.cpp **** void System::userMainWrapper(void *arg){
  12              		.loc 1 49 40
  13              		.cfi_startproc
  14              	.LVL0:
  15 0000 130101FF 		addi	sp,sp,-16
  16              		.cfi_def_cfa_offset 16
  17 0004 23341100 		sd	ra,8(sp)
  18 0008 23308100 		sd	s0,0(sp)
  19              		.cfi_offset 1, -8
  20              		.cfi_offset 8, -16
  21 000c 13040101 		addi	s0,sp,16
  22              		.cfi_def_cfa 8, 0
  50:src/system.cpp **** //    int ret = fork();
  51:src/system.cpp **** //
  52:src/system.cpp **** //    if(ret == 0){
  53:src/system.cpp **** //        printString("dete\n");
  54:src/system.cpp **** //    }
  55:src/system.cpp **** //    else {
  56:src/system.cpp **** //        printString("otac\n");
  57:src/system.cpp **** //        thread_dispatch();
  58:src/system.cpp **** //    }
  59:src/system.cpp **** //    MemoryAllocator::showMemory();
  60:src/system.cpp ****     userMain();
  23              		.loc 1 60 5
  24              		.loc 1 60 13 is_stmt 0
  25 0010 97000000 		call	_Z8userMainv@plt
  25      E7800000 
  26              	.LVL1:
  61:src/system.cpp **** }...
  27              		.loc 1 61 1
  28 0018 83308100 		ld	ra,8(sp)
  29              		.cfi_restore 1
  30 001c 03340100 		ld	s0,0(sp)
  31              		.cfi_restore 8
  32              		.cfi_def_cfa 2, 16
  33 0020 13010101 		addi	sp,sp,16
  34              		.cfi_def_cfa_offset 0
  35 0024 67800000 		jr	ra
  36              		.cfi_endproc
  37              	.LFE45:
  39              		.align	2
  40              		.globl	_ZN6SystemC2Ev
  42              	_ZN6SystemC2Ev:
  43              	.LFB43:
  22:src/system.cpp **** System::System() {
  44              		.loc 1 22 1 is_stmt 1
  45              		.cfi_startproc
  46              	.LVL2:
  24:src/system.cpp ****     if (!initialized) {
  47              		.loc 1 24 5
  48              	.LBB2:
  24:src/system.cpp ****     if (!initialized) {
  49              		.loc 1 24 9 is_stmt 0
  50 0028 97070000 		lbu	a5,.LANCHOR0
  50      83C70700 
  24:src/system.cpp ****     if (!initialized) {
GAS LISTING /tmp/ccDVAIIh.s 			page 3


  51              		.loc 1 24 5
  52 0030 63840700 		beqz	a5,.L11
  53 0034 67800000 		ret
  54              	.L11:
  55              	.LBE2:
  22:src/system.cpp **** System::System() {
  56              		.loc 1 22 1
  57 0038 130101FE 		addi	sp,sp,-32
  58              		.cfi_def_cfa_offset 32
  59 003c 233C1100 		sd	ra,24(sp)
  60 0040 23388100 		sd	s0,16(sp)
  61              		.cfi_offset 1, -8
  62              		.cfi_offset 8, -16
  63 0044 13040102 		addi	s0,sp,32
  64              		.cfi_def_cfa 8, 0
  65              	.LBB4:
  66              	.LBB3:
  25:src/system.cpp ****         initialized = true;
  67              		.loc 1 25 9 is_stmt 1
  25:src/system.cpp ****         initialized = true;
  68              		.loc 1 25 21 is_stmt 0
  69 0048 93071000 		li	a5,1
  70 004c 17070000 		sb	a5,.LANCHOR0,a4
  70      2300F700 
  28:src/system.cpp ****         RiscV::initialize();
  71              		.loc 1 28 9 is_stmt 1
  28:src/system.cpp ****         RiscV::initialize();
  72              		.loc 1 28 26 is_stmt 0
  73 0054 97000000 		call	_ZN5RiscV10initializeEv@plt
  73      E7800000 
  74              	.LVL3:
  34:src/system.cpp ****         thread_t userMainThread;
  75              		.loc 1 34 9 is_stmt 1
  35:src/system.cpp ****         thread_create(&userMainThread, userMainWrapper, nullptr);
  76              		.loc 1 35 9
  35:src/system.cpp ****         thread_create(&userMainThread, userMainWrapper, nullptr);
  77              		.loc 1 35 22 is_stmt 0
  78 005c 13060000 		li	a2,0
  79 0060 97050000 		lla	a1,_ZN6System15userMainWrapperEPv
  79      93850500 
  80 0068 130584FE 		addi	a0,s0,-24
  81 006c 97000000 		call	_Z13thread_createPP7_threadPFvPvES2_@plt
  81      E7800000 
  82              	.LVL4:
  83              	.L6:
  39:src/system.cpp ****         while (( (TCB*)userMainThread)->status != TCB::Status::FINISHED) {
  84              		.loc 1 39 9 is_stmt 1
  39:src/system.cpp ****         while (( (TCB*)userMainThread)->status != TCB::Status::FINISHED) {
  85              		.loc 1 39 48
  39:src/system.cpp ****         while (( (TCB*)userMainThread)->status != TCB::Status::FINISHED) {
  86              		.loc 1 39 18 is_stmt 0
  87 0074 833784FE 		ld	a5,-24(s0)
  39:src/system.cpp ****         while (( (TCB*)userMainThread)->status != TCB::Status::FINISHED) {
  88              		.loc 1 39 41
  89 0078 03A70701 		lw	a4,16(a5)
  39:src/system.cpp ****         while (( (TCB*)userMainThread)->status != TCB::Status::FINISHED) {
  90              		.loc 1 39 48
GAS LISTING /tmp/ccDVAIIh.s 			page 4


  91 007c 93072000 		li	a5,2
  92 0080 6308F700 		beq	a4,a5,.L5
  40:src/system.cpp ****             thread_dispatch();
  93              		.loc 1 40 13 is_stmt 1
  40:src/system.cpp ****             thread_dispatch();
  94              		.loc 1 40 28 is_stmt 0
  95 0084 97000000 		call	_Z15thread_dispatchv@plt
  95      E7800000 
  96              	.LVL5:
  97 008c 6FF09FFE 		j	.L6
  98              	.L5:
  44:src/system.cpp ****         RiscV::finalize();
  99              		.loc 1 44 9 is_stmt 1
  44:src/system.cpp ****         RiscV::finalize();
 100              		.loc 1 44 24 is_stmt 0
 101 0090 97000000 		call	_ZN5RiscV8finalizeEv@plt
 101      E7800000 
 102              	.LVL6:
 103              	.LBE3:
 104              	.LBE4:
  46:src/system.cpp **** }
 105              		.loc 1 46 1
 106 0098 83308101 		ld	ra,24(sp)
 107              		.cfi_restore 1
 108 009c 03340101 		ld	s0,16(sp)
 109              		.cfi_restore 8
 110              		.cfi_def_cfa 2, 32
 111 00a0 13010102 		addi	sp,sp,32
 112              		.cfi_def_cfa_offset 0
 113 00a4 67800000 		jr	ra
 114              		.cfi_endproc
 115              	.LFE43:
 117              		.globl	_ZN6SystemC1Ev
 118              		.set	_ZN6SystemC1Ev,_ZN6SystemC2Ev
 119              		.globl	_ZN6System11initializedE
 120              		.bss
 121              		.set	.LANCHOR0,. + 0
 124              	_ZN6System11initializedE:
 125 0000 00       		.zero	1
 126              		.text
 127              	.Letext0:
 128              		.file 2 "src/../h/../lib/hw.h"
 129              		.file 3 "src/../h/../h/utility.hpp"
 130              		.file 4 "src/../h/system.hpp"
 131              		.file 5 "src/../h/riscv.hpp"
 132              		.file 6 "src/../h/../h/_thread.hpp"
 133              		.file 7 "src/../tests/userMain.hpp"
 134              		.file 8 "src/../h/syscall_c.h"
GAS LISTING /tmp/ccDVAIIh.s 			page 5


DEFINED SYMBOLS
                            *ABS*:0000000000000000 system.cpp
     /tmp/ccDVAIIh.s:9      .text:0000000000000000 _ZN6System15userMainWrapperEPv
     /tmp/ccDVAIIh.s:13     .text:0000000000000000 .L0 
     /tmp/ccDVAIIh.s:15     .text:0000000000000000 .L0 
     /tmp/ccDVAIIh.s:16     .text:0000000000000004 .L0 
     /tmp/ccDVAIIh.s:19     .text:000000000000000c .L0 
     /tmp/ccDVAIIh.s:20     .text:000000000000000c .L0 
     /tmp/ccDVAIIh.s:22     .text:0000000000000010 .L0 
     /tmp/ccDVAIIh.s:24     .text:0000000000000010 .L0 
     /tmp/ccDVAIIh.s:25     .text:0000000000000010 .L0 
     /tmp/ccDVAIIh.s:28     .text:0000000000000018 .L0 
     /tmp/ccDVAIIh.s:29     .text:000000000000001c .L0 
     /tmp/ccDVAIIh.s:31     .text:0000000000000020 .L0 
     /tmp/ccDVAIIh.s:32     .text:0000000000000020 .L0 
     /tmp/ccDVAIIh.s:34     .text:0000000000000024 .L0 
     /tmp/ccDVAIIh.s:36     .text:0000000000000028 .L0 
     /tmp/ccDVAIIh.s:42     .text:0000000000000028 _ZN6SystemC2Ev
     /tmp/ccDVAIIh.s:45     .text:0000000000000028 .L0 
     /tmp/ccDVAIIh.s:47     .text:0000000000000028 .L0 
     /tmp/ccDVAIIh.s:49     .text:0000000000000028 .L0 
     /tmp/ccDVAIIh.s:50     .text:0000000000000028 .L0 
     /tmp/ccDVAIIh.s:52     .text:0000000000000030 .L0 
     /tmp/ccDVAIIh.s:57     .text:0000000000000038 .L0 
     /tmp/ccDVAIIh.s:58     .text:000000000000003c .L0 
     /tmp/ccDVAIIh.s:61     .text:0000000000000044 .L0 
     /tmp/ccDVAIIh.s:62     .text:0000000000000044 .L0 
     /tmp/ccDVAIIh.s:64     .text:0000000000000048 .L0 
     /tmp/ccDVAIIh.s:68     .text:0000000000000048 .L0 
     /tmp/ccDVAIIh.s:69     .text:0000000000000048 .L0 
     /tmp/ccDVAIIh.s:72     .text:0000000000000054 .L0 
     /tmp/ccDVAIIh.s:73     .text:0000000000000054 .L0 
     /tmp/ccDVAIIh.s:76     .text:000000000000005c .L0 
     /tmp/ccDVAIIh.s:77     .text:000000000000005c .L0 
     /tmp/ccDVAIIh.s:78     .text:000000000000005c .L0 
     /tmp/ccDVAIIh.s:85     .text:0000000000000074 .L0 
     /tmp/ccDVAIIh.s:86     .text:0000000000000074 .L0 
     /tmp/ccDVAIIh.s:87     .text:0000000000000074 .L0 
     /tmp/ccDVAIIh.s:89     .text:0000000000000078 .L0 
     /tmp/ccDVAIIh.s:91     .text:000000000000007c .L0 
     /tmp/ccDVAIIh.s:94     .text:0000000000000084 .L0 
     /tmp/ccDVAIIh.s:95     .text:0000000000000084 .L0 
     /tmp/ccDVAIIh.s:100    .text:0000000000000090 .L0 
     /tmp/ccDVAIIh.s:101    .text:0000000000000090 .L0 
     /tmp/ccDVAIIh.s:106    .text:0000000000000098 .L0 
     /tmp/ccDVAIIh.s:107    .text:000000000000009c .L0 
     /tmp/ccDVAIIh.s:109    .text:00000000000000a0 .L0 
     /tmp/ccDVAIIh.s:110    .text:00000000000000a0 .L0 
     /tmp/ccDVAIIh.s:112    .text:00000000000000a4 .L0 
     /tmp/ccDVAIIh.s:114    .text:00000000000000a8 .L0 
     /tmp/ccDVAIIh.s:42     .text:0000000000000028 _ZN6SystemC1Ev
     /tmp/ccDVAIIh.s:124    .bss:0000000000000000 _ZN6System11initializedE
     /tmp/ccDVAIIh.s:121    .bss:0000000000000000 .LANCHOR0
     /tmp/ccDVAIIh.s:135    .text:00000000000000a8 .L0 
     /tmp/ccDVAIIh.s:50     .text:0000000000000028 .L0 
     /tmp/ccDVAIIh.s:70     .text:000000000000004c .L0 
     /tmp/ccDVAIIh.s:79     .text:0000000000000060 .L0 
GAS LISTING /tmp/ccDVAIIh.s 			page 6


     /tmp/ccDVAIIh.s:54     .text:0000000000000038 .L11
     /tmp/ccDVAIIh.s:98     .text:0000000000000090 .L5
     /tmp/ccDVAIIh.s:83     .text:0000000000000074 .L6
     /tmp/ccDVAIIh.s:862    .debug_abbrev:0000000000000000 .Ldebug_abbrev0
     /tmp/ccDVAIIh.s:1694   .debug_str:00000000000008e6 .LASF134
     /tmp/ccDVAIIh.s:1612   .debug_str:00000000000005db .LASF135
     /tmp/ccDVAIIh.s:1496   .debug_str:00000000000000c7 .LASF136
     /tmp/ccDVAIIh.s:5      .text:0000000000000000 .Ltext0
     /tmp/ccDVAIIh.s:127    .text:00000000000000a8 .Letext0
     /tmp/ccDVAIIh.s:1470   .debug_line:0000000000000000 .Ldebug_line0
     /tmp/ccDVAIIh.s:1558   .debug_str:00000000000003a7 .LASF0
     /tmp/ccDVAIIh.s:1576   .debug_str:0000000000000486 .LASF1
     /tmp/ccDVAIIh.s:1646   .debug_str:0000000000000744 .LASF2
     /tmp/ccDVAIIh.s:1650   .debug_str:0000000000000759 .LASF4
     /tmp/ccDVAIIh.s:1562   .debug_str:00000000000003d4 .LASF3
     /tmp/ccDVAIIh.s:1482   .debug_str:000000000000006a .LASF5
     /tmp/ccDVAIIh.s:1616   .debug_str:000000000000060d .LASF6
     /tmp/ccDVAIIh.s:1566   .debug_str:0000000000000404 .LASF7
     /tmp/ccDVAIIh.s:1542   .debug_str:00000000000002ef .LASF8
     /tmp/ccDVAIIh.s:1550   .debug_str:0000000000000356 .LASF9
     /tmp/ccDVAIIh.s:1506   .debug_str:0000000000000160 .LASF10
     /tmp/ccDVAIIh.s:1536   .debug_str:00000000000002b5 .LASF11
     /tmp/ccDVAIIh.s:1518   .debug_str:00000000000001dd .LASF12
     /tmp/ccDVAIIh.s:1504   .debug_str:0000000000000150 .LASF13
     /tmp/ccDVAIIh.s:1684   .debug_str:0000000000000896 .LASF14
     /tmp/ccDVAIIh.s:1530   .debug_str:0000000000000271 .LASF15
     /tmp/ccDVAIIh.s:1674   .debug_str:000000000000083e .LASF16
     /tmp/ccDVAIIh.s:1690   .debug_str:00000000000008d0 .LASF17
     /tmp/ccDVAIIh.s:1660   .debug_str:00000000000007bc .LASF18
     /tmp/ccDVAIIh.s:1588   .debug_str:0000000000000501 .LASF19
     /tmp/ccDVAIIh.s:1472   .debug_str:0000000000000000 .LASF20
     /tmp/ccDVAIIh.s:1592   .debug_str:000000000000052c .LASF61
     /tmp/ccDVAIIh.s:1738   .debug_str:0000000000000b50 .LASF63
     /tmp/ccDVAIIh.s:1554   .debug_str:000000000000036f .LASF22
     /tmp/ccDVAIIh.s:1488   .debug_str:0000000000000085 .LASF122
     /tmp/ccDVAIIh.s:1708   .debug_str:0000000000000a4b .LASF21
     /tmp/ccDVAIIh.s:1548   .debug_str:000000000000034b .LASF23
     /tmp/ccDVAIIh.s:1692   .debug_str:00000000000008d5 .LASF24
     /tmp/ccDVAIIh.s:1658   .debug_str:00000000000007a5 .LASF25
     /tmp/ccDVAIIh.s:1520   .debug_str:00000000000001ed .LASF27
     /tmp/ccDVAIIh.s:1632   .debug_str:00000000000006c9 .LASF26
     /tmp/ccDVAIIh.s:1500   .debug_str:0000000000000118 .LASF28
     /tmp/ccDVAIIh.s:1676   .debug_str:0000000000000854 .LASF29
     /tmp/ccDVAIIh.s:1686   .debug_str:00000000000008a2 .LASF30
     /tmp/ccDVAIIh.s:1620   .debug_str:000000000000064b .LASF31
     /tmp/ccDVAIIh.s:1590   .debug_str:0000000000000506 .LASF32
     /tmp/ccDVAIIh.s:1568   .debug_str:0000000000000417 .LASF33
     /tmp/ccDVAIIh.s:1476   .debug_str:000000000000001e .LASF34
     /tmp/ccDVAIIh.s:1698   .debug_str:00000000000009bb .LASF35
     /tmp/ccDVAIIh.s:1556   .debug_str:000000000000037b .LASF36
     /tmp/ccDVAIIh.s:1634   .debug_str:00000000000006df .LASF37
     /tmp/ccDVAIIh.s:1544   .debug_str:00000000000002ff .LASF38
     /tmp/ccDVAIIh.s:1626   .debug_str:0000000000000682 .LASF39
     /tmp/ccDVAIIh.s:1614   .debug_str:00000000000005ea .LASF40
     /tmp/ccDVAIIh.s:1474   .debug_str:0000000000000007 .LASF41
     /tmp/ccDVAIIh.s:1744   .debug_str:0000000000000b99 .LASF42
     /tmp/ccDVAIIh.s:1582   .debug_str:00000000000004bb .LASF43
GAS LISTING /tmp/ccDVAIIh.s 			page 7


     /tmp/ccDVAIIh.s:1750   .debug_str:0000000000000bf3 .LASF44
     /tmp/ccDVAIIh.s:1728   .debug_str:0000000000000ad7 .LASF45
     /tmp/ccDVAIIh.s:1546   .debug_str:0000000000000326 .LASF46
     /tmp/ccDVAIIh.s:1532   .debug_str:0000000000000287 .LASF47
     /tmp/ccDVAIIh.s:1736   .debug_str:0000000000000b2b .LASF48
     /tmp/ccDVAIIh.s:1672   .debug_str:000000000000082b .LASF49
     /tmp/ccDVAIIh.s:1560   .debug_str:00000000000003b4 .LASF50
     /tmp/ccDVAIIh.s:1578   .debug_str:0000000000000499 .LASF51
     /tmp/ccDVAIIh.s:1704   .debug_str:0000000000000a0c .LASF52
     /tmp/ccDVAIIh.s:1490   .debug_str:0000000000000094 .LASF53
     /tmp/ccDVAIIh.s:1584   .debug_str:00000000000004d1 .LASF54
     /tmp/ccDVAIIh.s:1662   .debug_str:00000000000007c4 .LASF55
     /tmp/ccDVAIIh.s:1540   .debug_str:00000000000002c9 .LASF56
     /tmp/ccDVAIIh.s:1748   .debug_str:0000000000000bd7 .LASF57
     /tmp/ccDVAIIh.s:1570   .debug_str:0000000000000434 .LASF58
     /tmp/ccDVAIIh.s:1720   .debug_str:0000000000000aa7 .LASF59
     /tmp/ccDVAIIh.s:1498   .debug_str:00000000000000f8 .LASF60
     /tmp/ccDVAIIh.s:1586   .debug_str:00000000000004f5 .LASF62
     /tmp/ccDVAIIh.s:1700   .debug_str:00000000000009da .LASF64
     /tmp/ccDVAIIh.s:1712   .debug_str:0000000000000a6d .LASF67
     /tmp/ccDVAIIh.s:1740   .debug_str:0000000000000b6f .LASF69
     /tmp/ccDVAIIh.s:1642   .debug_str:0000000000000730 .LASF65
     /tmp/ccDVAIIh.s:1742   .debug_str:0000000000000b84 .LASF66
     /tmp/ccDVAIIh.s:1718   .debug_str:0000000000000aa0 .LASF68
     /tmp/ccDVAIIh.s:1574   .debug_str:0000000000000473 .LASF70
     /tmp/ccDVAIIh.s:1606   .debug_str:00000000000005a1 .LASF71
     /tmp/ccDVAIIh.s:1524   .debug_str:0000000000000233 .LASF72
     /tmp/ccDVAIIh.s:1734   .debug_str:0000000000000b23 .LASF73
     /tmp/ccDVAIIh.s:1492   .debug_str:00000000000000ab .LASF74
     /tmp/ccDVAIIh.s:1604   .debug_str:0000000000000599 .LASF75
     /tmp/ccDVAIIh.s:1526   .debug_str:0000000000000246 .LASF76
     /tmp/ccDVAIIh.s:1726   .debug_str:0000000000000acd .LASF77
     /tmp/ccDVAIIh.s:1572   .debug_str:000000000000045d .LASF78
     /tmp/ccDVAIIh.s:1724   .debug_str:0000000000000ac3 .LASF79
     /tmp/ccDVAIIh.s:1534   .debug_str:000000000000029f .LASF80
     /tmp/ccDVAIIh.s:1484   .debug_str:0000000000000071 .LASF81
     /tmp/ccDVAIIh.s:1702   .debug_str:00000000000009f4 .LASF82
     /tmp/ccDVAIIh.s:1644   .debug_str:0000000000000739 .LASF83
     /tmp/ccDVAIIh.s:1510   .debug_str:0000000000000181 .LASF84
     /tmp/ccDVAIIh.s:1680   .debug_str:0000000000000881 .LASF85
     /tmp/ccDVAIIh.s:1516   .debug_str:00000000000001ca .LASF86
     /tmp/ccDVAIIh.s:1654   .debug_str:0000000000000778 .LASF87
     /tmp/ccDVAIIh.s:1598   .debug_str:000000000000055e .LASF88
     /tmp/ccDVAIIh.s:1670   .debug_str:0000000000000824 .LASF89
     /tmp/ccDVAIIh.s:1512   .debug_str:0000000000000199 .LASF90
     /tmp/ccDVAIIh.s:1648   .debug_str:0000000000000752 .LASF91
     /tmp/ccDVAIIh.s:1628   .debug_str:0000000000000698 .LASF92
     /tmp/ccDVAIIh.s:1640   .debug_str:000000000000071f .LASF93
     /tmp/ccDVAIIh.s:1564   .debug_str:00000000000003e6 .LASF94
     /tmp/ccDVAIIh.s:1514   .debug_str:00000000000001ac .LASF95
     /tmp/ccDVAIIh.s:1618   .debug_str:0000000000000620 .LASF96
     /tmp/ccDVAIIh.s:1552   .debug_str:0000000000000364 .LASF97
     /tmp/ccDVAIIh.s:1600   .debug_str:0000000000000571 .LASF98
     /tmp/ccDVAIIh.s:1688   .debug_str:00000000000008ca .LASF99
     /tmp/ccDVAIIh.s:1678   .debug_str:000000000000086f .LASF100
     /tmp/ccDVAIIh.s:1732   .debug_str:0000000000000b14 .LASF101
     /tmp/ccDVAIIh.s:1710   .debug_str:0000000000000a51 .LASF102
GAS LISTING /tmp/ccDVAIIh.s 			page 8


     /tmp/ccDVAIIh.s:1622   .debug_str:0000000000000664 .LASF103
     /tmp/ccDVAIIh.s:1522   .debug_str:0000000000000211 .LASF104
     /tmp/ccDVAIIh.s:1716   .debug_str:0000000000000a8f .LASF105
     /tmp/ccDVAIIh.s:1630   .debug_str:00000000000006ab .LASF106
     /tmp/ccDVAIIh.s:1480   .debug_str:0000000000000058 .LASF107
     /tmp/ccDVAIIh.s:1706   .debug_str:0000000000000a2c .LASF108
     /tmp/ccDVAIIh.s:1664   .debug_str:00000000000007dd .LASF109
     /tmp/ccDVAIIh.s:1656   .debug_str:000000000000077f .LASF110
     /tmp/ccDVAIIh.s:1746   .debug_str:0000000000000bbd .LASF111
     /tmp/ccDVAIIh.s:1752   .debug_str:0000000000000c16 .LASF112
     /tmp/ccDVAIIh.s:1638   .debug_str:0000000000000709 .LASF113
     /tmp/ccDVAIIh.s:1666   .debug_str:00000000000007f6 .LASF114
     /tmp/ccDVAIIh.s:1528   .debug_str:000000000000025a .LASF115
     /tmp/ccDVAIIh.s:1610   .debug_str:00000000000005b7 .LASF116
     /tmp/ccDVAIIh.s:1668   .debug_str:0000000000000819 .LASF117
     /tmp/ccDVAIIh.s:1652   .debug_str:0000000000000760 .LASF118
     /tmp/ccDVAIIh.s:1486   .debug_str:000000000000007c .LASF119
     /tmp/ccDVAIIh.s:1502   .debug_str:000000000000013b .LASF120
     /tmp/ccDVAIIh.s:1494   .debug_str:00000000000000bf .LASF121
     /tmp/ccDVAIIh.s:1602   .debug_str:0000000000000589 .LASF123
     /tmp/ccDVAIIh.s:1508   .debug_str:000000000000016f .LASF124
     /tmp/ccDVAIIh.s:1478   .debug_str:0000000000000048 .LASF125
     /tmp/ccDVAIIh.s:1696   .debug_str:00000000000009aa .LASF126
     /tmp/ccDVAIIh.s:1722   .debug_str:0000000000000aba .LASF127
     /tmp/ccDVAIIh.s:1714   .debug_str:0000000000000a76 .LASF137
     /tmp/ccDVAIIh.s:10     .text:0000000000000000 .LFB45
     /tmp/ccDVAIIh.s:37     .text:0000000000000028 .LFE45
     /tmp/ccDVAIIh.s:1429   .debug_loc:0000000000000000 .LLST0
     /tmp/ccDVAIIh.s:26     .text:0000000000000018 .LVL1
     /tmp/ccDVAIIh.s:1538   .debug_str:00000000000002c4 .LASF138
     /tmp/ccDVAIIh.s:1608   .debug_str:00000000000005a8 .LASF139
     /tmp/ccDVAIIh.s:1580   .debug_str:00000000000004ac .LASF140
     /tmp/ccDVAIIh.s:43     .text:0000000000000028 .LFB43
     /tmp/ccDVAIIh.s:115    .text:00000000000000a8 .LFE43
     /tmp/ccDVAIIh.s:1443   .debug_loc:0000000000000039 .LLST1
     /tmp/ccDVAIIh.s:74     .text:000000000000005c .LVL3
     /tmp/ccDVAIIh.s:82     .text:0000000000000074 .LVL4
     /tmp/ccDVAIIh.s:96     .text:000000000000008c .LVL5
     /tmp/ccDVAIIh.s:102    .text:0000000000000098 .LVL6
     /tmp/ccDVAIIh.s:66     .text:0000000000000048 .LBB3
     /tmp/ccDVAIIh.s:103    .text:0000000000000098 .LBE3
     /tmp/ccDVAIIh.s:1594   .debug_str:000000000000053c .LASF128
     /tmp/ccDVAIIh.s:1624   .debug_str:0000000000000679 .LASF130
     /tmp/ccDVAIIh.s:1730   .debug_str:0000000000000aef .LASF129
     /tmp/ccDVAIIh.s:1682   .debug_str:0000000000000888 .LASF131
     /tmp/ccDVAIIh.s:1596   .debug_str:0000000000000549 .LASF132
     /tmp/ccDVAIIh.s:1636   .debug_str:00000000000006f9 .LASF133
     /tmp/ccDVAIIh.s:14     .text:0000000000000000 .LVL0
     /tmp/ccDVAIIh.s:46     .text:0000000000000028 .LVL2
     /tmp/ccDVAIIh.s:136    .debug_info:0000000000000000 .Ldebug_info0

UNDEFINED SYMBOLS
_Z8userMainv
_ZN5RiscV10initializeEv
_Z13thread_createPP7_threadPFvPvES2_
_Z15thread_dispatchv
_ZN5RiscV8finalizeEv
GAS LISTING /tmp/ccDVAIIh.s 			page 9


