GAS LISTING /tmp/ccVDU2Yw.s 			page 1


   1              		.file	"system.cpp"
   2              		.option pic
   3              		.option norelax
   4              		.text
   5              	.Ltext0:
   6              		.align	2
   7              		.globl	_ZN6System15userMainWrapperEPv
   9              	_ZN6System15userMainWrapperEPv:
  10              	.LFB46:
  11              		.file 1 "src/system.cpp"
   1:src/system.cpp **** //
   2:src/system.cpp **** // Created by os on 5/31/22.
   3:src/system.cpp **** //
   4:src/system.cpp **** 
   5:src/system.cpp **** #include "../h/system.hpp"
   6:src/system.cpp **** #include "../h/riscv.hpp"
   7:src/system.cpp **** #include "../h/syscall_c.h"
   8:src/system.cpp **** #include "../tests/userMain.hpp"
   9:src/system.cpp **** #include "../h/printing.hpp"
  10:src/system.cpp **** #include "../h/tcb.hpp"
  11:src/system.cpp **** #include "../h/scheduler.hpp"
  12:src/system.cpp **** //#include "../tests/testUser.hpp"
  13:src/system.cpp **** 
  14:src/system.cpp **** bool System::initialized = false;
  15:src/system.cpp **** 
  16:src/system.cpp **** struct Test{
  17:src/system.cpp ****     uint64 a,b,c,d,e,f;
  18:src/system.cpp **** };
  19:src/system.cpp **** 
  20:src/system.cpp **** void ctor(void* tst){
  21:src/system.cpp ****     ((Test*)tst)->a = 17;
  22:src/system.cpp ****     ((Test*)tst)->b = 32;
  23:src/system.cpp ****     ((Test*)tst)->c = 13;
  24:src/system.cpp **** 
  25:src/system.cpp **** }
  26:src/system.cpp **** 
  27:src/system.cpp **** System::System() {
  28:src/system.cpp ****     //check whether system is already running to prevent user malicious access
  29:src/system.cpp ****     if (!initialized) {
  30:src/system.cpp ****         initialized = true;
  31:src/system.cpp **** 
  32:src/system.cpp ****         //initialize the machine
  33:src/system.cpp ****         RiscV::initialize();
  34:src/system.cpp **** 
  35:src/system.cpp ****         //creating a thread that will be executing user code
  36:src/system.cpp ****         //this is done as to separate user code execution from main kernel thread
  37:src/system.cpp ****         //also it provides kernel with an idle thread that will run itself if user code gets blocke
  38:src/system.cpp **** 
  39:src/system.cpp ****         thread_t userMainThread;
  40:src/system.cpp ****         thread_create(&userMainThread, userMainWrapper, nullptr);
  41:src/system.cpp **** //
  42:src/system.cpp **** //        //return control to user code until it reaches the end
  43:src/system.cpp **** //        //exit only if user is finished and machine is ready to exit (in case there is something 
  44:src/system.cpp ****         while (( (TCB*)userMainThread)->status != TCB::Status::FINISHED) {
  45:src/system.cpp ****             thread_dispatch();
  46:src/system.cpp ****         }
  47:src/system.cpp **** 
GAS LISTING /tmp/ccVDU2Yw.s 			page 2


  48:src/system.cpp ****         //finalize the machine
  49:src/system.cpp ****         RiscV::finalize();
  50:src/system.cpp ****     }
  51:src/system.cpp **** }
  52:src/system.cpp **** 
  53:src/system.cpp **** //wrapper function for userMain as per POSIX threads
  54:src/system.cpp **** void System::userMainWrapper(void *arg){
  12              		.loc 1 54 40
  13              		.cfi_startproc
  14              	.LVL0:
  15 0000 130101FF 		addi	sp,sp,-16
  16              		.cfi_def_cfa_offset 16
  17 0004 23348100 		sd	s0,8(sp)
  18              		.cfi_offset 8, -8
  19 0008 13040101 		addi	s0,sp,16
  20              		.cfi_def_cfa 8, 0
  55:src/system.cpp **** //    int ret = fork();
  56:src/system.cpp **** //
  57:src/system.cpp **** //    if(ret == 0){
  58:src/system.cpp **** //        printString("dete\n");
  59:src/system.cpp **** //    }
  60:src/system.cpp **** //    else {
  61:src/system.cpp **** //        printString("otac\n");
  62:src/system.cpp **** //        thread_dispatch();
  63:src/system.cpp **** //    }
  64:src/system.cpp **** //    MemoryAllocator::showMemory();
  65:src/system.cpp **** //    userMain();
  66:src/system.cpp **** }...
  21              		.loc 1 66 1 is_stmt 0
  22 000c 03348100 		ld	s0,8(sp)
  23              		.cfi_restore 8
  24              		.cfi_def_cfa 2, 16
  25 0010 13010101 		addi	sp,sp,16
  26              		.cfi_def_cfa_offset 0
  27 0014 67800000 		jr	ra
  28              		.cfi_endproc
  29              	.LFE46:
  31              		.align	2
  32              		.globl	_Z4ctorPv
  34              	_Z4ctorPv:
  35              	.LFB42:
  20:src/system.cpp **** void ctor(void* tst){
  36              		.loc 1 20 21 is_stmt 1
  37              		.cfi_startproc
  38              	.LVL1:
  39 0018 130101FF 		addi	sp,sp,-16
  40              		.cfi_def_cfa_offset 16
  41 001c 23348100 		sd	s0,8(sp)
  42              		.cfi_offset 8, -8
  43 0020 13040101 		addi	s0,sp,16
  44              		.cfi_def_cfa 8, 0
  21:src/system.cpp ****     ((Test*)tst)->a = 17;
  45              		.loc 1 21 5
  21:src/system.cpp ****     ((Test*)tst)->a = 17;
  46              		.loc 1 21 21 is_stmt 0
  47 0024 93071001 		li	a5,17
  48 0028 2330F500 		sd	a5,0(a0)
GAS LISTING /tmp/ccVDU2Yw.s 			page 3


  22:src/system.cpp ****     ((Test*)tst)->b = 32;
  49              		.loc 1 22 5 is_stmt 1
  22:src/system.cpp ****     ((Test*)tst)->b = 32;
  50              		.loc 1 22 21 is_stmt 0
  51 002c 93070002 		li	a5,32
  52 0030 2334F500 		sd	a5,8(a0)
  23:src/system.cpp ****     ((Test*)tst)->c = 13;
  53              		.loc 1 23 5 is_stmt 1
  23:src/system.cpp ****     ((Test*)tst)->c = 13;
  54              		.loc 1 23 21 is_stmt 0
  55 0034 9307D000 		li	a5,13
  56 0038 2338F500 		sd	a5,16(a0)
  25:src/system.cpp **** }
  57              		.loc 1 25 1
  58 003c 03348100 		ld	s0,8(sp)
  59              		.cfi_restore 8
  60              		.cfi_def_cfa 2, 16
  61 0040 13010101 		addi	sp,sp,16
  62              		.cfi_def_cfa_offset 0
  63 0044 67800000 		jr	ra
  64              		.cfi_endproc
  65              	.LFE42:
  67              		.align	2
  68              		.globl	_ZN6SystemC2Ev
  70              	_ZN6SystemC2Ev:
  71              	.LFB44:
  27:src/system.cpp **** System::System() {
  72              		.loc 1 27 1 is_stmt 1
  73              		.cfi_startproc
  74              	.LVL2:
  29:src/system.cpp ****     if (!initialized) {
  75              		.loc 1 29 5
  76              	.LBB2:
  29:src/system.cpp ****     if (!initialized) {
  77              		.loc 1 29 9 is_stmt 0
  78 0048 97070000 		lbu	a5,.LANCHOR0
  78      83C70700 
  29:src/system.cpp ****     if (!initialized) {
  79              		.loc 1 29 5
  80 0050 63840700 		beqz	a5,.L13
  81 0054 67800000 		ret
  82              	.L13:
  83              	.LBE2:
  27:src/system.cpp **** System::System() {
  84              		.loc 1 27 1
  85 0058 130101FE 		addi	sp,sp,-32
  86              		.cfi_def_cfa_offset 32
  87 005c 233C1100 		sd	ra,24(sp)
  88 0060 23388100 		sd	s0,16(sp)
  89              		.cfi_offset 1, -8
  90              		.cfi_offset 8, -16
  91 0064 13040102 		addi	s0,sp,32
  92              		.cfi_def_cfa 8, 0
  93              	.LBB4:
  94              	.LBB3:
  30:src/system.cpp ****         initialized = true;
  95              		.loc 1 30 9 is_stmt 1
GAS LISTING /tmp/ccVDU2Yw.s 			page 4


  30:src/system.cpp ****         initialized = true;
  96              		.loc 1 30 21 is_stmt 0
  97 0068 93071000 		li	a5,1
  98 006c 17070000 		sb	a5,.LANCHOR0,a4
  98      2300F700 
  33:src/system.cpp ****         RiscV::initialize();
  99              		.loc 1 33 9 is_stmt 1
  33:src/system.cpp ****         RiscV::initialize();
 100              		.loc 1 33 26 is_stmt 0
 101 0074 97000000 		call	_ZN5RiscV10initializeEv@plt
 101      E7800000 
 102              	.LVL3:
  39:src/system.cpp ****         thread_t userMainThread;
 103              		.loc 1 39 9 is_stmt 1
  40:src/system.cpp ****         thread_create(&userMainThread, userMainWrapper, nullptr);
 104              		.loc 1 40 9
  40:src/system.cpp ****         thread_create(&userMainThread, userMainWrapper, nullptr);
 105              		.loc 1 40 22 is_stmt 0
 106 007c 13060000 		li	a2,0
 107 0080 97050000 		lla	a1,_ZN6System15userMainWrapperEPv
 107      93850500 
 108 0088 130584FE 		addi	a0,s0,-24
 109 008c 97000000 		call	_Z13thread_createPP7_threadPFvPvES2_@plt
 109      E7800000 
 110              	.LVL4:
 111              	.L8:
  44:src/system.cpp ****         while (( (TCB*)userMainThread)->status != TCB::Status::FINISHED) {
 112              		.loc 1 44 9 is_stmt 1
  44:src/system.cpp ****         while (( (TCB*)userMainThread)->status != TCB::Status::FINISHED) {
 113              		.loc 1 44 48
  44:src/system.cpp ****         while (( (TCB*)userMainThread)->status != TCB::Status::FINISHED) {
 114              		.loc 1 44 18 is_stmt 0
 115 0094 833784FE 		ld	a5,-24(s0)
  44:src/system.cpp ****         while (( (TCB*)userMainThread)->status != TCB::Status::FINISHED) {
 116              		.loc 1 44 41
 117 0098 03A70701 		lw	a4,16(a5)
  44:src/system.cpp ****         while (( (TCB*)userMainThread)->status != TCB::Status::FINISHED) {
 118              		.loc 1 44 48
 119 009c 93072000 		li	a5,2
 120 00a0 6308F700 		beq	a4,a5,.L7
  45:src/system.cpp ****             thread_dispatch();
 121              		.loc 1 45 13 is_stmt 1
  45:src/system.cpp ****             thread_dispatch();
 122              		.loc 1 45 28 is_stmt 0
 123 00a4 97000000 		call	_Z15thread_dispatchv@plt
 123      E7800000 
 124              	.LVL5:
 125 00ac 6FF09FFE 		j	.L8
 126              	.L7:
  49:src/system.cpp ****         RiscV::finalize();
 127              		.loc 1 49 9 is_stmt 1
  49:src/system.cpp ****         RiscV::finalize();
 128              		.loc 1 49 24 is_stmt 0
 129 00b0 97000000 		call	_ZN5RiscV8finalizeEv@plt
 129      E7800000 
 130              	.LVL6:
 131              	.LBE3:
GAS LISTING /tmp/ccVDU2Yw.s 			page 5


 132              	.LBE4:
  51:src/system.cpp **** }
 133              		.loc 1 51 1
 134 00b8 83308101 		ld	ra,24(sp)
 135              		.cfi_restore 1
 136 00bc 03340101 		ld	s0,16(sp)
 137              		.cfi_restore 8
 138              		.cfi_def_cfa 2, 32
 139 00c0 13010102 		addi	sp,sp,32
 140              		.cfi_def_cfa_offset 0
 141 00c4 67800000 		jr	ra
 142              		.cfi_endproc
 143              	.LFE44:
 145              		.globl	_ZN6SystemC1Ev
 146              		.set	_ZN6SystemC1Ev,_ZN6SystemC2Ev
 147              		.globl	_ZN6System11initializedE
 148              		.bss
 149              		.set	.LANCHOR0,. + 0
 152              	_ZN6System11initializedE:
 153 0000 00       		.zero	1
 154              		.text
 155              	.Letext0:
 156              		.file 2 "src/../h/../lib/hw.h"
 157              		.file 3 "src/../h/../h/utility.hpp"
 158              		.file 4 "src/../h/system.hpp"
 159              		.file 5 "src/../h/riscv.hpp"
 160              		.file 6 "src/../h/../h/_thread.hpp"
 161              		.file 7 "src/../h/syscall_c.h"
GAS LISTING /tmp/ccVDU2Yw.s 			page 6

