GAS LISTING /tmp/ccSEB4AL.s 			page 1


   1              		.file	"tcb.cpp"
   2              		.option pic
   3              		.option norelax
   4              		.text
   5              	.Ltext0:
   6              		.align	2
   7              		.globl	_ZN3TCB4ctorEPv
   9              	_ZN3TCB4ctorEPv:
  10              	.LFB55:
  11              		.file 1 "src/tcb.cpp"
   1:src/tcb.cpp   **** //
   2:src/tcb.cpp   **** // Created by os on 5/18/22.
   3:src/tcb.cpp   **** //
   4:src/tcb.cpp   **** 
   5:src/tcb.cpp   **** #include "../h/tcb.hpp"
   6:src/tcb.cpp   **** #include "../h/memoryAllocator.hpp"
   7:src/tcb.cpp   **** #include "../h/scheduler.hpp"
   8:src/tcb.cpp   **** #include "../h/syscall_c.h"
   9:src/tcb.cpp   **** #include "../h/printing.hpp"
  10:src/tcb.cpp   **** #include "../h/riscv.hpp"
  11:src/tcb.cpp   **** 
  12:src/tcb.cpp   **** TCB* TCB::running = nullptr;
  13:src/tcb.cpp   **** 
  14:src/tcb.cpp   **** TCB* TCB::putcThread = nullptr;
  15:src/tcb.cpp   **** 
  16:src/tcb.cpp   **** uint64 TCB::currentPC = 0;
  17:src/tcb.cpp   **** 
  18:src/tcb.cpp   **** uint64 TCB::currentSP = 0;
  19:src/tcb.cpp   **** 
  20:src/tcb.cpp   **** uint64 TCB::timeSliceCounter = 0;
  21:src/tcb.cpp   **** 
  22:src/tcb.cpp   **** kmem_cache_t* TCB::tcbCache = nullptr;
  23:src/tcb.cpp   **** 
  24:src/tcb.cpp   **** 
  25:src/tcb.cpp   **** //create a thread for kernel main and a separate thread for console output execution
  26:src/tcb.cpp   **** void TCB::initialize() {
  27:src/tcb.cpp   **** 
  28:src/tcb.cpp   ****     TCB::tcbCache = kmem_cache_create("TCB Cache", sizeof(TCB), TCB::ctor, TCB::dtor);
  29:src/tcb.cpp   **** 
  30:src/tcb.cpp   ****     TCB::running = new TCB(nullptr, nullptr, nullptr, DEFAULT_TIME_SLICE);
  31:src/tcb.cpp   **** 
  32:src/tcb.cpp   ****     TCB::running->mode = Mode::SUPERVISOR;
  33:src/tcb.cpp   ****     //stack for thread that will be running console output
  34:src/tcb.cpp   ****     uint64 *putcStack = (uint64*)kmalloc(DEFAULT_STACK_SIZE);
  35:src/tcb.cpp   **** 
  36:src/tcb.cpp   ****     //console output thread
  37:src/tcb.cpp   ****     putcThread = new TCB(RiscV::putcWrapper, nullptr, putcStack, DEFAULT_TIME_SLICE);
  38:src/tcb.cpp   **** 
  39:src/tcb.cpp   ****     putcThread->mode = Mode::SUPERVISOR;
  40:src/tcb.cpp   **** 
  41:src/tcb.cpp   ****     Scheduler::put(putcThread);
  42:src/tcb.cpp   **** }
  43:src/tcb.cpp   **** 
  44:src/tcb.cpp   **** //tcb constructor
  45:src/tcb.cpp   **** TCB::TCB(Body body, void* args, uint64* stack, uint64 timeSlice){
  46:src/tcb.cpp   **** 
  47:src/tcb.cpp   ****     this->body = body;
GAS LISTING /tmp/ccSEB4AL.s 			page 2


  48:src/tcb.cpp   **** 
  49:src/tcb.cpp   ****     this->args = args;
  50:src/tcb.cpp   **** 
  51:src/tcb.cpp   ****     this->timeSlice = timeSlice;
  52:src/tcb.cpp   **** 
  53:src/tcb.cpp   ****     this->stack = (body == nullptr) ? nullptr : stack;
  54:src/tcb.cpp   **** 
  55:src/tcb.cpp   ****     //initial context for thread
  56:src/tcb.cpp   ****     this->context = {(body == nullptr) ? 0 : (uint64)((char*)stack + DEFAULT_STACK_SIZE),
  57:src/tcb.cpp   ****                      (uint64)&wrapper };
  58:src/tcb.cpp   **** }
  59:src/tcb.cpp   **** 
  60:src/tcb.cpp   **** //deallocate memory for thread stack
  61:src/tcb.cpp   **** void TCB::free(){
  62:src/tcb.cpp   ****     kfree(stack);
  63:src/tcb.cpp   **** }
  64:src/tcb.cpp   **** 
  65:src/tcb.cpp   **** TCB::~TCB(){
  66:src/tcb.cpp   ****     free();
  67:src/tcb.cpp   **** }
  68:src/tcb.cpp   **** 
  69:src/tcb.cpp   **** //if currently running thread is not finished, asleep or blocked, put it in scheduler
  70:src/tcb.cpp   **** //get new thread from scheduler and switch context
  71:src/tcb.cpp   **** void TCB::dispatch() {
  72:src/tcb.cpp   ****     TCB* old = running;
  73:src/tcb.cpp   **** 
  74:src/tcb.cpp   ****     if(old->status == Status::READY || old->status == Status::RUNNING) {
  75:src/tcb.cpp   ****         Scheduler::put(old);
  76:src/tcb.cpp   ****     }
  77:src/tcb.cpp   **** 
  78:src/tcb.cpp   ****     running = Scheduler::get();
  79:src/tcb.cpp   **** 
  80:src/tcb.cpp   ****     if(running) {
  81:src/tcb.cpp   ****         running->status = Status::RUNNING;
  82:src/tcb.cpp   ****         RiscV::jumpToDesignatedPrivilegeMode();
  83:src/tcb.cpp   ****         contextSwitch(&old->context, &running->context);
  84:src/tcb.cpp   ****     }
  85:src/tcb.cpp   **** }
  86:src/tcb.cpp   **** 
  87:src/tcb.cpp   **** //wrapper function to run body function
  88:src/tcb.cpp   **** void TCB::wrapper(void *args) {
  89:src/tcb.cpp   ****     RiscV::popSppSpie();
  90:src/tcb.cpp   **** 
  91:src/tcb.cpp   ****     running->body(running->args);
  92:src/tcb.cpp   **** 
  93:src/tcb.cpp   ****     thread_exit();
  94:src/tcb.cpp   **** }
  95:src/tcb.cpp   **** 
  96:src/tcb.cpp   **** //overload operator new, to not use system call for every kernel object that is being allocated
  97:src/tcb.cpp   **** void* TCB::operator new(size_t size){
  98:src/tcb.cpp   ****     return kmem_cache_alloc(TCB::tcbCache);
  99:src/tcb.cpp   **** }
 100:src/tcb.cpp   **** 
 101:src/tcb.cpp   **** //overload operator delete, to not use system call for every kernel object that is being deallocate
 102:src/tcb.cpp   **** void TCB::operator delete(void *addr){
 103:src/tcb.cpp   ****     kmem_cache_free(TCB::tcbCache, addr);
 104:src/tcb.cpp   **** }
GAS LISTING /tmp/ccSEB4AL.s 			page 3


 105:src/tcb.cpp   **** 
 106:src/tcb.cpp   **** //internal syscall to free space allocated to a thread
 107:src/tcb.cpp   **** int TCB::thread_free(void *addr) {
 108:src/tcb.cpp   ****     uint64 iptr = (uint64)addr;
 109:src/tcb.cpp   **** 
 110:src/tcb.cpp   ****     asm("mv a1, %[iptr]" : : [iptr] "r" (iptr));
 111:src/tcb.cpp   ****     asm("li a0, 0x51");
 112:src/tcb.cpp   ****     asm("ecall");
 113:src/tcb.cpp   **** 
 114:src/tcb.cpp   ****     uint64 status;
 115:src/tcb.cpp   **** 
 116:src/tcb.cpp   ****     asm("mv %[status], a0" : [status] "=r" (status));
 117:src/tcb.cpp   ****     return status;
 118:src/tcb.cpp   **** }
 119:src/tcb.cpp   **** 
 120:src/tcb.cpp   **** void TCB::ctor(void* tcb){
  12              		.loc 1 120 26
  13              		.cfi_startproc
  14              	.LVL0:
  15 0000 130101FF 		addi	sp,sp,-16
  16              		.cfi_def_cfa_offset 16
  17 0004 23348100 		sd	s0,8(sp)
  18              		.cfi_offset 8, -8
  19 0008 13040101 		addi	s0,sp,16
  20              		.cfi_def_cfa 8, 0
 121:src/tcb.cpp   ****     ((TCB*)tcb)->status = Status::READY;
  21              		.loc 1 121 5
  22              		.loc 1 121 25 is_stmt 0
  23 000c 93071000 		li	a5,1
  24 0010 2328F500 		sw	a5,16(a0)
 122:src/tcb.cpp   **** 
 123:src/tcb.cpp   ****     ((TCB*)tcb)->next = nullptr;
  25              		.loc 1 123 5 is_stmt 1
  26              		.loc 1 123 23 is_stmt 0
  27 0014 23340504 		sd	zero,72(a0)
 124:src/tcb.cpp   **** 
 125:src/tcb.cpp   ****     ((TCB*)tcb)->mode = Mode::USER;
  28              		.loc 1 125 5 is_stmt 1
  29              		.loc 1 125 23 is_stmt 0
  30 0018 232A0500 		sw	zero,20(a0)
 126:src/tcb.cpp   **** }
  31              		.loc 1 126 1
  32 001c 03348100 		ld	s0,8(sp)
  33              		.cfi_restore 8
  34              		.cfi_def_cfa 2, 16
  35 0020 13010101 		addi	sp,sp,16
  36              		.cfi_def_cfa_offset 0
  37 0024 67800000 		jr	ra
  38              		.cfi_endproc
  39              	.LFE55:
  41              		.align	2
  42              		.globl	_ZN3TCB4dtorEPv
  44              	_ZN3TCB4dtorEPv:
  45              	.LFB56:
 127:src/tcb.cpp   **** 
 128:src/tcb.cpp   **** void TCB::dtor(void* tcb){
  46              		.loc 1 128 26 is_stmt 1
GAS LISTING /tmp/ccSEB4AL.s 			page 4


  47              		.cfi_startproc
  48              	.LVL1:
  49 0028 130101FF 		addi	sp,sp,-16
  50              		.cfi_def_cfa_offset 16
  51 002c 23348100 		sd	s0,8(sp)
  52              		.cfi_offset 8, -8
  53 0030 13040101 		addi	s0,sp,16
  54              		.cfi_def_cfa 8, 0
 129:src/tcb.cpp   ****     ((TCB*)tcb)->status = Status::READY;
  55              		.loc 1 129 5
  56              		.loc 1 129 25 is_stmt 0
  57 0034 93071000 		li	a5,1
  58 0038 2328F500 		sw	a5,16(a0)
 130:src/tcb.cpp   **** 
 131:src/tcb.cpp   ****     ((TCB*)tcb)->next = nullptr;
  59              		.loc 1 131 5 is_stmt 1
  60              		.loc 1 131 23 is_stmt 0
  61 003c 23340504 		sd	zero,72(a0)
 132:src/tcb.cpp   **** 
 133:src/tcb.cpp   ****     ((TCB*)tcb)->mode = Mode::USER;
  62              		.loc 1 133 5 is_stmt 1
  63              		.loc 1 133 23 is_stmt 0
  64 0040 232A0500 		sw	zero,20(a0)
 134:src/tcb.cpp   **** }...
  65              		.loc 1 134 1
  66 0044 03348100 		ld	s0,8(sp)
  67              		.cfi_restore 8
  68              		.cfi_def_cfa 2, 16
  69 0048 13010101 		addi	sp,sp,16
  70              		.cfi_def_cfa_offset 0
  71 004c 67800000 		jr	ra
  72              		.cfi_endproc
  73              	.LFE56:
  75              		.align	2
  76              		.globl	_ZN3TCB7wrapperEPv
  78              	_ZN3TCB7wrapperEPv:
  79              	.LFB51:
  88:src/tcb.cpp   **** void TCB::wrapper(void *args) {
  80              		.loc 1 88 31 is_stmt 1
  81              		.cfi_startproc
  82              	.LVL2:
  83 0050 130101FF 		addi	sp,sp,-16
  84              		.cfi_def_cfa_offset 16
  85 0054 23341100 		sd	ra,8(sp)
  86 0058 23308100 		sd	s0,0(sp)
  87              		.cfi_offset 1, -8
  88              		.cfi_offset 8, -16
  89 005c 13040101 		addi	s0,sp,16
  90              		.cfi_def_cfa 8, 0
  89:src/tcb.cpp   ****     RiscV::popSppSpie();
  91              		.loc 1 89 5
  89:src/tcb.cpp   ****     RiscV::popSppSpie();
  92              		.loc 1 89 22 is_stmt 0
  93 0060 97000000 		call	_ZN5RiscV10popSppSpieEv@plt
  93      E7800000 
  94              	.LVL3:
  91:src/tcb.cpp   ****     running->body(running->args);
GAS LISTING /tmp/ccSEB4AL.s 			page 5


  95              		.loc 1 91 5 is_stmt 1
  91:src/tcb.cpp   ****     running->body(running->args);
  96              		.loc 1 91 14 is_stmt 0
  97 0068 97070000 		ld	a5,.LANCHOR0
  97      83B70700 
  98 0070 03B78701 		ld	a4,24(a5)
  91:src/tcb.cpp   ****     running->body(running->args);
  99              		.loc 1 91 18
 100 0074 03B50702 		ld	a0,32(a5)
 101 0078 E7000700 		jalr	a4
 102              	.LVL4:
  93:src/tcb.cpp   ****     thread_exit();
 103              		.loc 1 93 5 is_stmt 1
  93:src/tcb.cpp   ****     thread_exit();
 104              		.loc 1 93 16 is_stmt 0
 105 007c 97000000 		call	_Z11thread_exitv@plt
 105      E7800000 
 106              	.LVL5:
  94:src/tcb.cpp   **** }
 107              		.loc 1 94 1
 108 0084 83308100 		ld	ra,8(sp)
 109              		.cfi_restore 1
 110 0088 03340100 		ld	s0,0(sp)
 111              		.cfi_restore 8
 112              		.cfi_def_cfa 2, 16
 113 008c 13010101 		addi	sp,sp,16
 114              		.cfi_def_cfa_offset 0
 115 0090 67800000 		jr	ra
 116              		.cfi_endproc
 117              	.LFE51:
 119              		.align	2
 120              		.globl	_ZN3TCBC2EPFvPvES0_Pmm
 122              	_ZN3TCBC2EPFvPvES0_Pmm:
 123              	.LFB44:
  45:src/tcb.cpp   **** TCB::TCB(Body body, void* args, uint64* stack, uint64 timeSlice){
 124              		.loc 1 45 1 is_stmt 1
 125              		.cfi_startproc
 126              	.LVL6:
 127 0094 130101FF 		addi	sp,sp,-16
 128              		.cfi_def_cfa_offset 16
 129 0098 23348100 		sd	s0,8(sp)
 130              		.cfi_offset 8, -8
 131 009c 13040101 		addi	s0,sp,16
 132              		.cfi_def_cfa 8, 0
 133              	.LBB2:
  45:src/tcb.cpp   **** TCB::TCB(Body body, void* args, uint64* stack, uint64 timeSlice){
 134              		.loc 1 45 64 is_stmt 0
 135 00a0 23380504 		sd	zero,80(a0)
 136 00a4 233C0504 		sd	zero,88(a0)
 137 00a8 23300506 		sd	zero,96(a0)
  47:src/tcb.cpp   ****     this->body = body;
 138              		.loc 1 47 5 is_stmt 1
  47:src/tcb.cpp   ****     this->body = body;
 139              		.loc 1 47 16 is_stmt 0
 140 00ac 233CB500 		sd	a1,24(a0)
  49:src/tcb.cpp   ****     this->args = args;
 141              		.loc 1 49 5 is_stmt 1
GAS LISTING /tmp/ccSEB4AL.s 			page 6


  49:src/tcb.cpp   ****     this->args = args;
 142              		.loc 1 49 16 is_stmt 0
 143 00b0 2330C502 		sd	a2,32(a0)
  51:src/tcb.cpp   ****     this->timeSlice = timeSlice;
 144              		.loc 1 51 5 is_stmt 1
  51:src/tcb.cpp   ****     this->timeSlice = timeSlice;
 145              		.loc 1 51 21 is_stmt 0
 146 00b4 2338E502 		sd	a4,48(a0)
  53:src/tcb.cpp   ****     this->stack = (body == nullptr) ? nullptr : stack;
 147              		.loc 1 53 5 is_stmt 1
  53:src/tcb.cpp   ****     this->stack = (body == nullptr) ? nullptr : stack;
 148              		.loc 1 53 37 is_stmt 0
 149 00b8 638A0502 		beqz	a1,.L10
 150 00bc 93870600 		mv	a5,a3
 151              	.L8:
  53:src/tcb.cpp   ****     this->stack = (body == nullptr) ? nullptr : stack;
 152              		.loc 1 53 17 discriminator 4
 153 00c0 2334F502 		sd	a5,40(a0)
  56:src/tcb.cpp   ****     this->context = {(body == nullptr) ? 0 : (uint64)((char*)stack + DEFAULT_STACK_SIZE),
 154              		.loc 1 56 5 is_stmt 1 discriminator 4
  56:src/tcb.cpp   ****     this->context = {(body == nullptr) ? 0 : (uint64)((char*)stack + DEFAULT_STACK_SIZE),
 155              		.loc 1 56 40 is_stmt 0 discriminator 4
 156 00c4 63880502 		beqz	a1,.L11
  56:src/tcb.cpp   ****     this->context = {(body == nullptr) ? 0 : (uint64)((char*)stack + DEFAULT_STACK_SIZE),
 157              		.loc 1 56 68 discriminator 1
 158 00c8 B7170000 		li	a5,4096
 159 00cc B386F600 		add	a3,a3,a5
 160              	.LVL7:
 161              	.L9:
  56:src/tcb.cpp   ****     this->context = {(body == nullptr) ? 0 : (uint64)((char*)stack + DEFAULT_STACK_SIZE),
 162              		.loc 1 56 19 discriminator 4
 163 00d0 2330D500 		sd	a3,0(a0)
 164 00d4 97070000 		lla	a5,_ZN3TCB7wrapperEPv
 164      93870700 
 165 00dc 2334F500 		sd	a5,8(a0)
 166              	.LBE2:
  58:src/tcb.cpp   **** }
 167              		.loc 1 58 1 discriminator 4
 168 00e0 03348100 		ld	s0,8(sp)
 169              		.cfi_remember_state
 170              		.cfi_restore 8
 171              		.cfi_def_cfa 2, 16
 172 00e4 13010101 		addi	sp,sp,16
 173              		.cfi_def_cfa_offset 0
 174 00e8 67800000 		jr	ra
 175              	.LVL8:
 176              	.L10:
 177              		.cfi_restore_state
 178              	.LBB3:
  53:src/tcb.cpp   ****     this->stack = (body == nullptr) ? nullptr : stack;
 179              		.loc 1 53 37
 180 00ec 93070000 		li	a5,0
 181 00f0 6FF01FFD 		j	.L8
 182              	.L11:
  56:src/tcb.cpp   ****     this->context = {(body == nullptr) ? 0 : (uint64)((char*)stack + DEFAULT_STACK_SIZE),
 183              		.loc 1 56 40
 184 00f4 93060000 		li	a3,0
GAS LISTING /tmp/ccSEB4AL.s 			page 7


 185              	.LVL9:
 186 00f8 6FF09FFD 		j	.L9
 187              	.LBE3:
 188              		.cfi_endproc
 189              	.LFE44:
 191              		.globl	_ZN3TCBC1EPFvPvES0_Pmm
 192              		.set	_ZN3TCBC1EPFvPvES0_Pmm,_ZN3TCBC2EPFvPvES0_Pmm
 193              		.align	2
 194              		.globl	_ZN3TCB4freeEv
 196              	_ZN3TCB4freeEv:
 197              	.LFB46:
  61:src/tcb.cpp   **** void TCB::free(){
 198              		.loc 1 61 17 is_stmt 1
 199              		.cfi_startproc
 200              	.LVL10:
 201 00fc 130101FF 		addi	sp,sp,-16
 202              		.cfi_def_cfa_offset 16
 203 0100 23341100 		sd	ra,8(sp)
 204 0104 23308100 		sd	s0,0(sp)
 205              		.cfi_offset 1, -8
 206              		.cfi_offset 8, -16
 207 0108 13040101 		addi	s0,sp,16
 208              		.cfi_def_cfa 8, 0
  62:src/tcb.cpp   ****     kfree(stack);
 209              		.loc 1 62 5
  62:src/tcb.cpp   ****     kfree(stack);
 210              		.loc 1 62 10 is_stmt 0
 211 010c 03358502 		ld	a0,40(a0)
 212              	.LVL11:
 213 0110 97000000 		call	_Z5kfreePKv@plt
 213      E7800000 
 214              	.LVL12:
  63:src/tcb.cpp   **** }
 215              		.loc 1 63 1
 216 0118 83308100 		ld	ra,8(sp)
 217              		.cfi_restore 1
 218 011c 03340100 		ld	s0,0(sp)
 219              		.cfi_restore 8
 220              		.cfi_def_cfa 2, 16
 221 0120 13010101 		addi	sp,sp,16
 222              		.cfi_def_cfa_offset 0
 223 0124 67800000 		jr	ra
 224              		.cfi_endproc
 225              	.LFE46:
 227              		.align	2
 228              		.globl	_ZN3TCBD2Ev
 230              	_ZN3TCBD2Ev:
 231              	.LFB48:
  65:src/tcb.cpp   **** TCB::~TCB(){
 232              		.loc 1 65 1 is_stmt 1
 233              		.cfi_startproc
 234              		.cfi_personality 0x9b,DW.ref.__gxx_personality_v0
 235              		.cfi_lsda 0x1b,.LLSDA48
 236              	.LVL13:
 237 0128 130101FF 		addi	sp,sp,-16
 238              		.cfi_def_cfa_offset 16
 239 012c 23341100 		sd	ra,8(sp)
GAS LISTING /tmp/ccSEB4AL.s 			page 8


 240 0130 23308100 		sd	s0,0(sp)
 241              		.cfi_offset 1, -8
 242              		.cfi_offset 8, -16
 243 0134 13040101 		addi	s0,sp,16
 244              		.cfi_def_cfa 8, 0
 245              	.LBB4:
  66:src/tcb.cpp   ****     free();
 246              		.loc 1 66 5
  66:src/tcb.cpp   ****     free();
 247              		.loc 1 66 9 is_stmt 0
 248 0138 97000000 		call	_ZN3TCB4freeEv
 248      E7800000 
 249              	.LVL14:
 250              	.LBE4:
  67:src/tcb.cpp   **** }
 251              		.loc 1 67 1
 252 0140 83308100 		ld	ra,8(sp)
 253              		.cfi_restore 1
 254 0144 03340100 		ld	s0,0(sp)
 255              		.cfi_restore 8
 256              		.cfi_def_cfa 2, 16
 257 0148 13010101 		addi	sp,sp,16
 258              		.cfi_def_cfa_offset 0
 259 014c 67800000 		jr	ra
 260              		.cfi_endproc
 261              	.LFE48:
 262              		.globl	__gxx_personality_v0
 263              		.section	.gcc_except_table,"a",@progbits
 264              	.LLSDA48:
 265 0000 FF       		.byte	0xff
 266 0001 FF       		.byte	0xff
 267 0002 03       		.byte	0x3
 268 0003 00       		.byte	0
 269              		.text
 271              		.globl	_ZN3TCBD1Ev
 272              		.set	_ZN3TCBD1Ev,_ZN3TCBD2Ev
 273              		.align	2
 274              		.globl	_ZN3TCB8dispatchEv
 276              	_ZN3TCB8dispatchEv:
 277              	.LFB50:
  71:src/tcb.cpp   **** void TCB::dispatch() {
 278              		.loc 1 71 22 is_stmt 1
 279              		.cfi_startproc
 280 0150 130101FE 		addi	sp,sp,-32
 281              		.cfi_def_cfa_offset 32
 282 0154 233C1100 		sd	ra,24(sp)
 283 0158 23388100 		sd	s0,16(sp)
 284 015c 23349100 		sd	s1,8(sp)
 285              		.cfi_offset 1, -8
 286              		.cfi_offset 8, -16
 287              		.cfi_offset 9, -24
 288 0160 13040102 		addi	s0,sp,32
 289              		.cfi_def_cfa 8, 0
  72:src/tcb.cpp   ****     TCB* old = running;
 290              		.loc 1 72 5
  72:src/tcb.cpp   ****     TCB* old = running;
 291              		.loc 1 72 10 is_stmt 0
GAS LISTING /tmp/ccSEB4AL.s 			page 9


 292 0164 97040000 		ld	s1,.LANCHOR0
 292      83B40400 
 293              	.LVL15:
  74:src/tcb.cpp   ****     if(old->status == Status::READY || old->status == Status::RUNNING) {
 294              		.loc 1 74 5 is_stmt 1
  74:src/tcb.cpp   ****     if(old->status == Status::READY || old->status == Status::RUNNING) {
 295              		.loc 1 74 13 is_stmt 0
 296 016c 03A70401 		lw	a4,16(s1)
  74:src/tcb.cpp   ****     if(old->status == Status::READY || old->status == Status::RUNNING) {
 297              		.loc 1 74 5
 298 0170 93071000 		li	a5,1
 299 0174 63F6E704 		bleu	a4,a5,.L21
 300              	.L18:
  78:src/tcb.cpp   ****     running = Scheduler::get();
 301              		.loc 1 78 5 is_stmt 1
  78:src/tcb.cpp   ****     running = Scheduler::get();
 302              		.loc 1 78 29 is_stmt 0
 303 0178 97000000 		call	_ZN9Scheduler3getEv@plt
 303      E7800000 
 304              	.LVL16:
  78:src/tcb.cpp   ****     running = Scheduler::get();
 305              		.loc 1 78 13
 306 0180 97070000 		sd	a0,.LANCHOR0,a5
 306      23B0A700 
  80:src/tcb.cpp   ****     if(running) {
 307              		.loc 1 80 5 is_stmt 1
 308 0188 63020502 		beqz	a0,.L17
  81:src/tcb.cpp   ****         running->status = Status::RUNNING;
 309              		.loc 1 81 9
  81:src/tcb.cpp   ****         running->status = Status::RUNNING;
 310              		.loc 1 81 25 is_stmt 0
 311 018c 23280500 		sw	zero,16(a0)
  82:src/tcb.cpp   ****         RiscV::jumpToDesignatedPrivilegeMode();
 312              		.loc 1 82 9 is_stmt 1
  82:src/tcb.cpp   ****         RiscV::jumpToDesignatedPrivilegeMode();
 313              		.loc 1 82 45 is_stmt 0
 314 0190 97000000 		call	_ZN5RiscV29jumpToDesignatedPrivilegeModeEv@plt
 314      E7800000 
 315              	.LVL17:
  83:src/tcb.cpp   ****         contextSwitch(&old->context, &running->context);
 316              		.loc 1 83 9 is_stmt 1
  83:src/tcb.cpp   ****         contextSwitch(&old->context, &running->context);
 317              		.loc 1 83 22 is_stmt 0
 318 0198 97050000 		ld	a1,.LANCHOR0
 318      83B50500 
 319 01a0 13850400 		mv	a0,s1
 320 01a4 97000000 		call	_ZN3TCB13contextSwitchEPNS_7ContextES1_@plt
 320      E7800000 
 321              	.LVL18:
 322              	.L17:
  85:src/tcb.cpp   **** }
 323              		.loc 1 85 1
 324 01ac 83308101 		ld	ra,24(sp)
 325              		.cfi_remember_state
 326              		.cfi_restore 1
 327 01b0 03340101 		ld	s0,16(sp)
 328              		.cfi_restore 8
GAS LISTING /tmp/ccSEB4AL.s 			page 10


 329              		.cfi_def_cfa 2, 32
 330 01b4 83348100 		ld	s1,8(sp)
 331              		.cfi_restore 9
 332              	.LVL19:
 333 01b8 13010102 		addi	sp,sp,32
 334              		.cfi_def_cfa_offset 0
 335 01bc 67800000 		jr	ra
 336              	.LVL20:
 337              	.L21:
 338              		.cfi_restore_state
  75:src/tcb.cpp   ****         Scheduler::put(old);
 339              		.loc 1 75 9 is_stmt 1
  75:src/tcb.cpp   ****         Scheduler::put(old);
 340              		.loc 1 75 23 is_stmt 0
 341 01c0 13850400 		mv	a0,s1
 342 01c4 97000000 		call	_ZN9Scheduler3putEP3TCB@plt
 342      E7800000 
 343              	.LVL21:
 344 01cc 6FF0DFFA 		j	.L18
 345              		.cfi_endproc
 346              	.LFE50:
 348              		.align	2
 349              		.globl	_ZN3TCBnwEm
 351              	_ZN3TCBnwEm:
 352              	.LFB52:
  97:src/tcb.cpp   **** void* TCB::operator new(size_t size){
 353              		.loc 1 97 37 is_stmt 1
 354              		.cfi_startproc
 355              	.LVL22:
 356 01d0 130101FF 		addi	sp,sp,-16
 357              		.cfi_def_cfa_offset 16
 358 01d4 23341100 		sd	ra,8(sp)
 359 01d8 23308100 		sd	s0,0(sp)
 360              		.cfi_offset 1, -8
 361              		.cfi_offset 8, -16
 362 01dc 13040101 		addi	s0,sp,16
 363              		.cfi_def_cfa 8, 0
  98:src/tcb.cpp   ****     return kmem_cache_alloc(TCB::tcbCache);
 364              		.loc 1 98 5
  98:src/tcb.cpp   ****     return kmem_cache_alloc(TCB::tcbCache);
 365              		.loc 1 98 28 is_stmt 0
 366 01e0 17050000 		ld	a0,.LANCHOR0+8
 366      03350500 
 367              	.LVL23:
 368 01e8 97000000 		call	_Z16kmem_cache_allocP5Cache@plt
 368      E7800000 
 369              	.LVL24:
  99:src/tcb.cpp   **** }
 370              		.loc 1 99 1
 371 01f0 83308100 		ld	ra,8(sp)
 372              		.cfi_restore 1
 373 01f4 03340100 		ld	s0,0(sp)
 374              		.cfi_restore 8
 375              		.cfi_def_cfa 2, 16
 376 01f8 13010101 		addi	sp,sp,16
 377              		.cfi_def_cfa_offset 0
 378 01fc 67800000 		jr	ra
GAS LISTING /tmp/ccSEB4AL.s 			page 11


 379              		.cfi_endproc
 380              	.LFE52:
 382              		.section	.rodata.str1.8,"aMS",@progbits,1
 383              		.align	3
 384              	.LC0:
 385 0000 54434220 		.string	"TCB Cache"
 385      43616368 
 385      6500
 386              		.text
 387              		.align	2
 388              		.globl	_ZN3TCB10initializeEv
 390              	_ZN3TCB10initializeEv:
 391              	.LFB42:
  26:src/tcb.cpp   **** void TCB::initialize() {
 392              		.loc 1 26 24 is_stmt 1
 393              		.cfi_startproc
 394 0200 130101FE 		addi	sp,sp,-32
 395              		.cfi_def_cfa_offset 32
 396 0204 233C1100 		sd	ra,24(sp)
 397 0208 23388100 		sd	s0,16(sp)
 398 020c 23349100 		sd	s1,8(sp)
 399 0210 23302101 		sd	s2,0(sp)
 400              		.cfi_offset 1, -8
 401              		.cfi_offset 8, -16
 402              		.cfi_offset 9, -24
 403              		.cfi_offset 18, -32
 404 0214 13040102 		addi	s0,sp,32
 405              		.cfi_def_cfa 8, 0
  28:src/tcb.cpp   ****     TCB::tcbCache = kmem_cache_create("TCB Cache", sizeof(TCB), TCB::ctor, TCB::dtor);
 406              		.loc 1 28 5
  28:src/tcb.cpp   ****     TCB::tcbCache = kmem_cache_create("TCB Cache", sizeof(TCB), TCB::ctor, TCB::dtor);
 407              		.loc 1 28 38 is_stmt 0
 408 0218 97060000 		lla	a3,_ZN3TCB4dtorEPv
 408      93860600 
 409 0220 17060000 		lla	a2,_ZN3TCB4ctorEPv
 409      13060600 
 410 0228 93050007 		li	a1,112
 411 022c 17050000 		lla	a0,.LC0
 411      13050500 
 412 0234 97000000 		call	_Z17kmem_cache_createPKcmPFvPvES3_@plt
 412      E7800000 
 413              	.LVL25:
  28:src/tcb.cpp   ****     TCB::tcbCache = kmem_cache_create("TCB Cache", sizeof(TCB), TCB::ctor, TCB::dtor);
 414              		.loc 1 28 19
 415 023c 97070000 		sd	a0,.LANCHOR0+8,a5
 415      23B0A700 
  30:src/tcb.cpp   ****     TCB::running = new TCB(nullptr, nullptr, nullptr, DEFAULT_TIME_SLICE);
 416              		.loc 1 30 5 is_stmt 1
  30:src/tcb.cpp   ****     TCB::running = new TCB(nullptr, nullptr, nullptr, DEFAULT_TIME_SLICE);
 417              		.loc 1 30 73 is_stmt 0
 418 0244 13050007 		li	a0,112
 419 0248 97000000 		call	_ZN3TCBnwEm
 419      E7800000 
 420              	.LVL26:
 421 0250 93040500 		mv	s1,a0
 422 0254 630E0500 		beqz	a0,.L25
  30:src/tcb.cpp   ****     TCB::running = new TCB(nullptr, nullptr, nullptr, DEFAULT_TIME_SLICE);
GAS LISTING /tmp/ccSEB4AL.s 			page 12


 423              		.loc 1 30 73 discriminator 1
 424 0258 13072000 		li	a4,2
 425 025c 93060000 		li	a3,0
 426 0260 13060000 		li	a2,0
 427 0264 93050000 		li	a1,0
 428 0268 97000000 		call	_ZN3TCBC1EPFvPvES0_Pmm
 428      E7800000 
 429              	.LVL27:
 430              	.L25:
  30:src/tcb.cpp   ****     TCB::running = new TCB(nullptr, nullptr, nullptr, DEFAULT_TIME_SLICE);
 431              		.loc 1 30 18 discriminator 4
 432 0270 97070000 		sd	s1,.LANCHOR0,a5
 432      23B09700 
  32:src/tcb.cpp   ****     TCB::running->mode = Mode::SUPERVISOR;
 433              		.loc 1 32 5 is_stmt 1 discriminator 4
  32:src/tcb.cpp   ****     TCB::running->mode = Mode::SUPERVISOR;
 434              		.loc 1 32 24 is_stmt 0 discriminator 4
 435 0278 93071000 		li	a5,1
 436 027c 23AAF400 		sw	a5,20(s1)
  34:src/tcb.cpp   ****     uint64 *putcStack = (uint64*)kmalloc(DEFAULT_STACK_SIZE);
 437              		.loc 1 34 5 is_stmt 1 discriminator 4
  34:src/tcb.cpp   ****     uint64 *putcStack = (uint64*)kmalloc(DEFAULT_STACK_SIZE);
 438              		.loc 1 34 41 is_stmt 0 discriminator 4
 439 0280 37150000 		li	a0,4096
 440 0284 97000000 		call	_Z7kmallocm@plt
 440      E7800000 
 441              	.LVL28:
 442 028c 13090500 		mv	s2,a0
 443              	.LVL29:
  37:src/tcb.cpp   ****     putcThread = new TCB(RiscV::putcWrapper, nullptr, putcStack, DEFAULT_TIME_SLICE);
 444              		.loc 1 37 5 is_stmt 1 discriminator 4
  37:src/tcb.cpp   ****     putcThread = new TCB(RiscV::putcWrapper, nullptr, putcStack, DEFAULT_TIME_SLICE);
 445              		.loc 1 37 84 is_stmt 0 discriminator 4
 446 0290 13050007 		li	a0,112
 447              	.LVL30:
 448 0294 97000000 		call	_ZN3TCBnwEm
 448      E7800000 
 449              	.LVL31:
 450 029c 93040500 		mv	s1,a0
 451 02a0 63000502 		beqz	a0,.L26
  37:src/tcb.cpp   ****     putcThread = new TCB(RiscV::putcWrapper, nullptr, putcStack, DEFAULT_TIME_SLICE);
 452              		.loc 1 37 84 discriminator 1
 453 02a4 13072000 		li	a4,2
 454 02a8 93060900 		mv	a3,s2
 455 02ac 13060000 		li	a2,0
 456 02b0 97050000 		la	a1,_ZN5RiscV11putcWrapperEPv
 456      83B50500 
 457 02b8 97000000 		call	_ZN3TCBC1EPFvPvES0_Pmm
 457      E7800000 
 458              	.LVL32:
 459              	.L26:
  37:src/tcb.cpp   ****     putcThread = new TCB(RiscV::putcWrapper, nullptr, putcStack, DEFAULT_TIME_SLICE);
 460              		.loc 1 37 16 discriminator 4
 461 02c0 97070000 		sd	s1,.LANCHOR0+16,a5
 461      23B09700 
  39:src/tcb.cpp   ****     putcThread->mode = Mode::SUPERVISOR;
 462              		.loc 1 39 5 is_stmt 1 discriminator 4
GAS LISTING /tmp/ccSEB4AL.s 			page 13


  39:src/tcb.cpp   ****     putcThread->mode = Mode::SUPERVISOR;
 463              		.loc 1 39 22 is_stmt 0 discriminator 4
 464 02c8 93071000 		li	a5,1
 465 02cc 23AAF400 		sw	a5,20(s1)
  41:src/tcb.cpp   ****     Scheduler::put(putcThread);
 466              		.loc 1 41 5 is_stmt 1 discriminator 4
  41:src/tcb.cpp   ****     Scheduler::put(putcThread);
 467              		.loc 1 41 19 is_stmt 0 discriminator 4
 468 02d0 13850400 		mv	a0,s1
 469 02d4 97000000 		call	_ZN9Scheduler3putEP3TCB@plt
 469      E7800000 
 470              	.LVL33:
  42:src/tcb.cpp   **** }
 471              		.loc 1 42 1 discriminator 4
 472 02dc 83308101 		ld	ra,24(sp)
 473              		.cfi_restore 1
 474 02e0 03340101 		ld	s0,16(sp)
 475              		.cfi_restore 8
 476              		.cfi_def_cfa 2, 32
 477 02e4 83348100 		ld	s1,8(sp)
 478              		.cfi_restore 9
 479 02e8 03390100 		ld	s2,0(sp)
 480              		.cfi_restore 18
 481              	.LVL34:
 482 02ec 13010102 		addi	sp,sp,32
 483              		.cfi_def_cfa_offset 0
 484 02f0 67800000 		jr	ra
 485              		.cfi_endproc
 486              	.LFE42:
 488              		.align	2
 489              		.globl	_ZN3TCBdlEPv
 491              	_ZN3TCBdlEPv:
 492              	.LFB53:
 102:src/tcb.cpp   **** void TCB::operator delete(void *addr){
 493              		.loc 1 102 38 is_stmt 1
 494              		.cfi_startproc
 495              	.LVL35:
 496 02f4 130101FF 		addi	sp,sp,-16
 497              		.cfi_def_cfa_offset 16
 498 02f8 23341100 		sd	ra,8(sp)
 499 02fc 23308100 		sd	s0,0(sp)
 500              		.cfi_offset 1, -8
 501              		.cfi_offset 8, -16
 502 0300 13040101 		addi	s0,sp,16
 503              		.cfi_def_cfa 8, 0
 504 0304 93050500 		mv	a1,a0
 103:src/tcb.cpp   ****     kmem_cache_free(TCB::tcbCache, addr);
 505              		.loc 1 103 5
 103:src/tcb.cpp   ****     kmem_cache_free(TCB::tcbCache, addr);
 506              		.loc 1 103 20 is_stmt 0
 507 0308 17050000 		ld	a0,.LANCHOR0+8
 507      03350500 
 508              	.LVL36:
 509 0310 97000000 		call	_Z15kmem_cache_freeP5CachePv@plt
 509      E7800000 
 510              	.LVL37:
 104:src/tcb.cpp   **** }
GAS LISTING /tmp/ccSEB4AL.s 			page 14


 511              		.loc 1 104 1
 512 0318 83308100 		ld	ra,8(sp)
 513              		.cfi_restore 1
 514 031c 03340100 		ld	s0,0(sp)
 515              		.cfi_restore 8
 516              		.cfi_def_cfa 2, 16
 517 0320 13010101 		addi	sp,sp,16
 518              		.cfi_def_cfa_offset 0
 519 0324 67800000 		jr	ra
 520              		.cfi_endproc
 521              	.LFE53:
 523              		.align	2
 524              		.globl	_ZN3TCB11thread_freeEPv
 526              	_ZN3TCB11thread_freeEPv:
 527              	.LFB54:
 107:src/tcb.cpp   **** int TCB::thread_free(void *addr) {
 528              		.loc 1 107 34 is_stmt 1
 529              		.cfi_startproc
 530              	.LVL38:
 531 0328 130101FF 		addi	sp,sp,-16
 532              		.cfi_def_cfa_offset 16
 533 032c 23348100 		sd	s0,8(sp)
 534              		.cfi_offset 8, -8
 535 0330 13040101 		addi	s0,sp,16
 536              		.cfi_def_cfa 8, 0
 108:src/tcb.cpp   ****     uint64 iptr = (uint64)addr;
 537              		.loc 1 108 5
 538              	.LVL39:
 110:src/tcb.cpp   ****     asm("mv a1, %[iptr]" : : [iptr] "r" (iptr));
 539              		.loc 1 110 5
 110:src/tcb.cpp   ****     asm("mv a1, %[iptr]" : : [iptr] "r" (iptr));
 540              		.loc 1 110 48 is_stmt 0
 541              	#APP
 542              	# 110 "src/tcb.cpp" 1
 111:src/tcb.cpp   ****     asm("li a0, 0x51");
 543              		mv a1, a0
 544              	# 0 "" 2
 545              		.loc 1 111 5 is_stmt 1
 111:src/tcb.cpp   ****     asm("li a0, 0x51");
 546              		.loc 1 111 23 is_stmt 0
 547              	# 111 "src/tcb.cpp" 1
 112:src/tcb.cpp   ****     asm("ecall");
 548              		li a0, 0x51
 549              	# 0 "" 2
 550              		.loc 1 112 5 is_stmt 1
 112:src/tcb.cpp   ****     asm("ecall");
 551              		.loc 1 112 17 is_stmt 0
 552              	# 112 "src/tcb.cpp" 1
 114:src/tcb.cpp   ****     uint64 status;
 553              		ecall
 554              	# 0 "" 2
 555              		.loc 1 114 5 is_stmt 1
 116:src/tcb.cpp   ****     asm("mv %[status], a0" : [status] "=r" (status));
 556              		.loc 1 116 5
 116:src/tcb.cpp   ****     asm("mv %[status], a0" : [status] "=r" (status));
 557              		.loc 1 116 53 is_stmt 0
 558              	# 116 "src/tcb.cpp" 1
GAS LISTING /tmp/ccSEB4AL.s 			page 15


 559              		mv a0, a0
 560              	# 0 "" 2
 561              	.LVL40:
 117:src/tcb.cpp   ****     return status;
 562              		.loc 1 117 5 is_stmt 1
 118:src/tcb.cpp   **** }
 563              		.loc 1 118 1 is_stmt 0
 564              	#NO_APP
 565 0344 1B050500 		sext.w	a0,a0
 566              	.LVL41:
 567 0348 03348100 		ld	s0,8(sp)
 568              		.cfi_restore 8
 569              		.cfi_def_cfa 2, 16
 570 034c 13010101 		addi	sp,sp,16
 571              		.cfi_def_cfa_offset 0
 572 0350 67800000 		jr	ra
 573              		.cfi_endproc
 574              	.LFE54:
 576              		.globl	_ZN3TCB8tcbCacheE
 577              		.globl	_ZN3TCB16timeSliceCounterE
 578              		.globl	_ZN3TCB9currentSPE
 579              		.globl	_ZN3TCB9currentPCE
 580              		.globl	_ZN3TCB10putcThreadE
 581              		.globl	_ZN3TCB7runningE
 582              		.bss
 583              		.align	3
 584              		.set	.LANCHOR0,. + 0
 587              	_ZN3TCB7runningE:
 588 0000 00000000 		.zero	8
 588      00000000 
 591              	_ZN3TCB8tcbCacheE:
 592 0008 00000000 		.zero	8
 592      00000000 
 595              	_ZN3TCB10putcThreadE:
 596 0010 00000000 		.zero	8
 596      00000000 
 599              	_ZN3TCB16timeSliceCounterE:
 600 0018 00000000 		.zero	8
 600      00000000 
 603              	_ZN3TCB9currentSPE:
 604 0020 00000000 		.zero	8
 604      00000000 
 607              	_ZN3TCB9currentPCE:
 608 0028 00000000 		.zero	8
 608      00000000 
 609              		.text
 610              	.Letext0:
 611              		.file 2 "src/../h/../lib/hw.h"
 612              		.file 3 "src/../h/../h/../h/../h/utility.hpp"
 613              		.file 4 "src/../h/../h/../h/../h/../h/slab_t.hpp"
 614              		.file 5 "src/../h/../h/../h/../h/cache_t.hpp"
 615              		.file 6 "src/../h/tcb.hpp"
 616              		.file 7 "src/../h/scheduler.hpp"
 617              		.file 8 "src/../h/riscv.hpp"
 618              		.file 9 "src/../h/../h/slab.hpp"
 619              		.file 10 "src/../h/syscall_c.h"
 3863              		.align	3
GAS LISTING /tmp/ccSEB4AL.s 			page 16


 3866              	DW.ref.__gxx_personality_v0:
 3867 0000 00000000 		.dword	__gxx_personality_v0
 3867      00000000 
 3868              		.ident	"GCC: (Ubuntu 9.4.0-1ubuntu1~20.04) 9.4.0"
 3869              		.section	.note.GNU-stack,"",@progbits
GAS LISTING /tmp/ccSEB4AL.s 			page 17


DEFINED SYMBOLS
                            *ABS*:0000000000000000 tcb.cpp
     /tmp/ccSEB4AL.s:9      .text:0000000000000000 _ZN3TCB4ctorEPv
     /tmp/ccSEB4AL.s:13     .text:0000000000000000 .L0 
     /tmp/ccSEB4AL.s:15     .text:0000000000000000 .L0 
     /tmp/ccSEB4AL.s:16     .text:0000000000000004 .L0 
     /tmp/ccSEB4AL.s:18     .text:0000000000000008 .L0 
     /tmp/ccSEB4AL.s:20     .text:000000000000000c .L0 
     /tmp/ccSEB4AL.s:22     .text:000000000000000c .L0 
     /tmp/ccSEB4AL.s:23     .text:000000000000000c .L0 
     /tmp/ccSEB4AL.s:26     .text:0000000000000014 .L0 
     /tmp/ccSEB4AL.s:27     .text:0000000000000014 .L0 
     /tmp/ccSEB4AL.s:29     .text:0000000000000018 .L0 
     /tmp/ccSEB4AL.s:30     .text:0000000000000018 .L0 
     /tmp/ccSEB4AL.s:32     .text:000000000000001c .L0 
     /tmp/ccSEB4AL.s:33     .text:0000000000000020 .L0 
     /tmp/ccSEB4AL.s:34     .text:0000000000000020 .L0 
     /tmp/ccSEB4AL.s:36     .text:0000000000000024 .L0 
     /tmp/ccSEB4AL.s:38     .text:0000000000000028 .L0 
     /tmp/ccSEB4AL.s:44     .text:0000000000000028 _ZN3TCB4dtorEPv
     /tmp/ccSEB4AL.s:47     .text:0000000000000028 .L0 
     /tmp/ccSEB4AL.s:49     .text:0000000000000028 .L0 
     /tmp/ccSEB4AL.s:50     .text:000000000000002c .L0 
     /tmp/ccSEB4AL.s:52     .text:0000000000000030 .L0 
     /tmp/ccSEB4AL.s:54     .text:0000000000000034 .L0 
     /tmp/ccSEB4AL.s:56     .text:0000000000000034 .L0 
     /tmp/ccSEB4AL.s:57     .text:0000000000000034 .L0 
     /tmp/ccSEB4AL.s:60     .text:000000000000003c .L0 
     /tmp/ccSEB4AL.s:61     .text:000000000000003c .L0 
     /tmp/ccSEB4AL.s:63     .text:0000000000000040 .L0 
     /tmp/ccSEB4AL.s:64     .text:0000000000000040 .L0 
     /tmp/ccSEB4AL.s:66     .text:0000000000000044 .L0 
     /tmp/ccSEB4AL.s:67     .text:0000000000000048 .L0 
     /tmp/ccSEB4AL.s:68     .text:0000000000000048 .L0 
     /tmp/ccSEB4AL.s:70     .text:000000000000004c .L0 
     /tmp/ccSEB4AL.s:72     .text:0000000000000050 .L0 
     /tmp/ccSEB4AL.s:78     .text:0000000000000050 _ZN3TCB7wrapperEPv
     /tmp/ccSEB4AL.s:81     .text:0000000000000050 .L0 
     /tmp/ccSEB4AL.s:83     .text:0000000000000050 .L0 
     /tmp/ccSEB4AL.s:84     .text:0000000000000054 .L0 
     /tmp/ccSEB4AL.s:87     .text:000000000000005c .L0 
     /tmp/ccSEB4AL.s:88     .text:000000000000005c .L0 
     /tmp/ccSEB4AL.s:90     .text:0000000000000060 .L0 
     /tmp/ccSEB4AL.s:92     .text:0000000000000060 .L0 
     /tmp/ccSEB4AL.s:93     .text:0000000000000060 .L0 
     /tmp/ccSEB4AL.s:96     .text:0000000000000068 .L0 
     /tmp/ccSEB4AL.s:97     .text:0000000000000068 .L0 
     /tmp/ccSEB4AL.s:100    .text:0000000000000074 .L0 
     /tmp/ccSEB4AL.s:104    .text:000000000000007c .L0 
     /tmp/ccSEB4AL.s:105    .text:000000000000007c .L0 
     /tmp/ccSEB4AL.s:108    .text:0000000000000084 .L0 
     /tmp/ccSEB4AL.s:109    .text:0000000000000088 .L0 
     /tmp/ccSEB4AL.s:111    .text:000000000000008c .L0 
     /tmp/ccSEB4AL.s:112    .text:000000000000008c .L0 
     /tmp/ccSEB4AL.s:114    .text:0000000000000090 .L0 
     /tmp/ccSEB4AL.s:116    .text:0000000000000094 .L0 
     /tmp/ccSEB4AL.s:122    .text:0000000000000094 _ZN3TCBC2EPFvPvES0_Pmm
GAS LISTING /tmp/ccSEB4AL.s 			page 18


     /tmp/ccSEB4AL.s:125    .text:0000000000000094 .L0 
     /tmp/ccSEB4AL.s:127    .text:0000000000000094 .L0 
     /tmp/ccSEB4AL.s:128    .text:0000000000000098 .L0 
     /tmp/ccSEB4AL.s:130    .text:000000000000009c .L0 
     /tmp/ccSEB4AL.s:132    .text:00000000000000a0 .L0 
     /tmp/ccSEB4AL.s:135    .text:00000000000000a0 .L0 
     /tmp/ccSEB4AL.s:139    .text:00000000000000ac .L0 
     /tmp/ccSEB4AL.s:140    .text:00000000000000ac .L0 
     /tmp/ccSEB4AL.s:142    .text:00000000000000b0 .L0 
     /tmp/ccSEB4AL.s:143    .text:00000000000000b0 .L0 
     /tmp/ccSEB4AL.s:145    .text:00000000000000b4 .L0 
     /tmp/ccSEB4AL.s:146    .text:00000000000000b4 .L0 
     /tmp/ccSEB4AL.s:148    .text:00000000000000b8 .L0 
     /tmp/ccSEB4AL.s:149    .text:00000000000000b8 .L0 
     /tmp/ccSEB4AL.s:153    .text:00000000000000c0 .L0 
     /tmp/ccSEB4AL.s:155    .text:00000000000000c4 .L0 
     /tmp/ccSEB4AL.s:156    .text:00000000000000c4 .L0 
     /tmp/ccSEB4AL.s:158    .text:00000000000000c8 .L0 
     /tmp/ccSEB4AL.s:163    .text:00000000000000d0 .L0 
     /tmp/ccSEB4AL.s:168    .text:00000000000000e0 .L0 
     /tmp/ccSEB4AL.s:169    .text:00000000000000e4 .L0 
     /tmp/ccSEB4AL.s:170    .text:00000000000000e4 .L0 
     /tmp/ccSEB4AL.s:171    .text:00000000000000e4 .L0 
     /tmp/ccSEB4AL.s:173    .text:00000000000000e8 .L0 
     /tmp/ccSEB4AL.s:177    .text:00000000000000ec .L0 
     /tmp/ccSEB4AL.s:180    .text:00000000000000ec .L0 
     /tmp/ccSEB4AL.s:184    .text:00000000000000f4 .L0 
     /tmp/ccSEB4AL.s:188    .text:00000000000000fc .L0 
     /tmp/ccSEB4AL.s:122    .text:0000000000000094 _ZN3TCBC1EPFvPvES0_Pmm
     /tmp/ccSEB4AL.s:196    .text:00000000000000fc _ZN3TCB4freeEv
     /tmp/ccSEB4AL.s:199    .text:00000000000000fc .L0 
     /tmp/ccSEB4AL.s:201    .text:00000000000000fc .L0 
     /tmp/ccSEB4AL.s:202    .text:0000000000000100 .L0 
     /tmp/ccSEB4AL.s:205    .text:0000000000000108 .L0 
     /tmp/ccSEB4AL.s:206    .text:0000000000000108 .L0 
     /tmp/ccSEB4AL.s:208    .text:000000000000010c .L0 
     /tmp/ccSEB4AL.s:210    .text:000000000000010c .L0 
     /tmp/ccSEB4AL.s:211    .text:000000000000010c .L0 
     /tmp/ccSEB4AL.s:216    .text:0000000000000118 .L0 
     /tmp/ccSEB4AL.s:217    .text:000000000000011c .L0 
     /tmp/ccSEB4AL.s:219    .text:0000000000000120 .L0 
     /tmp/ccSEB4AL.s:220    .text:0000000000000120 .L0 
     /tmp/ccSEB4AL.s:222    .text:0000000000000124 .L0 
     /tmp/ccSEB4AL.s:224    .text:0000000000000128 .L0 
     /tmp/ccSEB4AL.s:230    .text:0000000000000128 _ZN3TCBD2Ev
     /tmp/ccSEB4AL.s:233    .text:0000000000000128 .L0 
     /tmp/ccSEB4AL.s:3866   .data.rel.local.DW.ref.__gxx_personality_v0:0000000000000000 DW.ref.__gxx_personality_v0
     /tmp/ccSEB4AL.s:237    .text:0000000000000128 .L0 
     /tmp/ccSEB4AL.s:238    .text:000000000000012c .L0 
     /tmp/ccSEB4AL.s:241    .text:0000000000000134 .L0 
     /tmp/ccSEB4AL.s:242    .text:0000000000000134 .L0 
     /tmp/ccSEB4AL.s:244    .text:0000000000000138 .L0 
     /tmp/ccSEB4AL.s:247    .text:0000000000000138 .L0 
     /tmp/ccSEB4AL.s:248    .text:0000000000000138 .L0 
     /tmp/ccSEB4AL.s:252    .text:0000000000000140 .L0 
     /tmp/ccSEB4AL.s:253    .text:0000000000000144 .L0 
     /tmp/ccSEB4AL.s:255    .text:0000000000000148 .L0 
GAS LISTING /tmp/ccSEB4AL.s 			page 19


     /tmp/ccSEB4AL.s:256    .text:0000000000000148 .L0 
     /tmp/ccSEB4AL.s:258    .text:000000000000014c .L0 
     /tmp/ccSEB4AL.s:260    .text:0000000000000150 .L0 
     /tmp/ccSEB4AL.s:230    .text:0000000000000128 _ZN3TCBD1Ev
     /tmp/ccSEB4AL.s:276    .text:0000000000000150 _ZN3TCB8dispatchEv
     /tmp/ccSEB4AL.s:279    .text:0000000000000150 .L0 
     /tmp/ccSEB4AL.s:280    .text:0000000000000150 .L0 
     /tmp/ccSEB4AL.s:281    .text:0000000000000154 .L0 
     /tmp/ccSEB4AL.s:285    .text:0000000000000160 .L0 
     /tmp/ccSEB4AL.s:286    .text:0000000000000160 .L0 
     /tmp/ccSEB4AL.s:287    .text:0000000000000160 .L0 
     /tmp/ccSEB4AL.s:289    .text:0000000000000164 .L0 
     /tmp/ccSEB4AL.s:291    .text:0000000000000164 .L0 
     /tmp/ccSEB4AL.s:292    .text:0000000000000164 .L0 
     /tmp/ccSEB4AL.s:295    .text:000000000000016c .L0 
     /tmp/ccSEB4AL.s:296    .text:000000000000016c .L0 
     /tmp/ccSEB4AL.s:298    .text:0000000000000170 .L0 
     /tmp/ccSEB4AL.s:302    .text:0000000000000178 .L0 
     /tmp/ccSEB4AL.s:303    .text:0000000000000178 .L0 
     /tmp/ccSEB4AL.s:306    .text:0000000000000180 .L0 
     /tmp/ccSEB4AL.s:308    .text:0000000000000188 .L0 
     /tmp/ccSEB4AL.s:310    .text:000000000000018c .L0 
     /tmp/ccSEB4AL.s:311    .text:000000000000018c .L0 
     /tmp/ccSEB4AL.s:313    .text:0000000000000190 .L0 
     /tmp/ccSEB4AL.s:314    .text:0000000000000190 .L0 
     /tmp/ccSEB4AL.s:317    .text:0000000000000198 .L0 
     /tmp/ccSEB4AL.s:318    .text:0000000000000198 .L0 
     /tmp/ccSEB4AL.s:324    .text:00000000000001ac .L0 
     /tmp/ccSEB4AL.s:325    .text:00000000000001b0 .L0 
     /tmp/ccSEB4AL.s:326    .text:00000000000001b0 .L0 
     /tmp/ccSEB4AL.s:328    .text:00000000000001b4 .L0 
     /tmp/ccSEB4AL.s:329    .text:00000000000001b4 .L0 
     /tmp/ccSEB4AL.s:331    .text:00000000000001b8 .L0 
     /tmp/ccSEB4AL.s:334    .text:00000000000001bc .L0 
     /tmp/ccSEB4AL.s:338    .text:00000000000001c0 .L0 
     /tmp/ccSEB4AL.s:340    .text:00000000000001c0 .L0 
     /tmp/ccSEB4AL.s:341    .text:00000000000001c0 .L0 
     /tmp/ccSEB4AL.s:345    .text:00000000000001d0 .L0 
     /tmp/ccSEB4AL.s:351    .text:00000000000001d0 _ZN3TCBnwEm
     /tmp/ccSEB4AL.s:354    .text:00000000000001d0 .L0 
     /tmp/ccSEB4AL.s:356    .text:00000000000001d0 .L0 
     /tmp/ccSEB4AL.s:357    .text:00000000000001d4 .L0 
     /tmp/ccSEB4AL.s:360    .text:00000000000001dc .L0 
     /tmp/ccSEB4AL.s:361    .text:00000000000001dc .L0 
     /tmp/ccSEB4AL.s:363    .text:00000000000001e0 .L0 
     /tmp/ccSEB4AL.s:365    .text:00000000000001e0 .L0 
     /tmp/ccSEB4AL.s:366    .text:00000000000001e0 .L0 
     /tmp/ccSEB4AL.s:371    .text:00000000000001f0 .L0 
     /tmp/ccSEB4AL.s:372    .text:00000000000001f4 .L0 
     /tmp/ccSEB4AL.s:374    .text:00000000000001f8 .L0 
     /tmp/ccSEB4AL.s:375    .text:00000000000001f8 .L0 
     /tmp/ccSEB4AL.s:377    .text:00000000000001fc .L0 
     /tmp/ccSEB4AL.s:379    .text:0000000000000200 .L0 
     /tmp/ccSEB4AL.s:390    .text:0000000000000200 _ZN3TCB10initializeEv
     /tmp/ccSEB4AL.s:393    .text:0000000000000200 .L0 
     /tmp/ccSEB4AL.s:394    .text:0000000000000200 .L0 
     /tmp/ccSEB4AL.s:395    .text:0000000000000204 .L0 
GAS LISTING /tmp/ccSEB4AL.s 			page 20


     /tmp/ccSEB4AL.s:400    .text:0000000000000214 .L0 
     /tmp/ccSEB4AL.s:401    .text:0000000000000214 .L0 
     /tmp/ccSEB4AL.s:402    .text:0000000000000214 .L0 
     /tmp/ccSEB4AL.s:403    .text:0000000000000214 .L0 
     /tmp/ccSEB4AL.s:405    .text:0000000000000218 .L0 
     /tmp/ccSEB4AL.s:407    .text:0000000000000218 .L0 
     /tmp/ccSEB4AL.s:408    .text:0000000000000218 .L0 
     /tmp/ccSEB4AL.s:415    .text:000000000000023c .L0 
     /tmp/ccSEB4AL.s:417    .text:0000000000000244 .L0 
     /tmp/ccSEB4AL.s:418    .text:0000000000000244 .L0 
     /tmp/ccSEB4AL.s:424    .text:0000000000000258 .L0 
     /tmp/ccSEB4AL.s:432    .text:0000000000000270 .L0 
     /tmp/ccSEB4AL.s:434    .text:0000000000000278 .L0 
     /tmp/ccSEB4AL.s:435    .text:0000000000000278 .L0 
     /tmp/ccSEB4AL.s:438    .text:0000000000000280 .L0 
     /tmp/ccSEB4AL.s:439    .text:0000000000000280 .L0 
     /tmp/ccSEB4AL.s:445    .text:0000000000000290 .L0 
     /tmp/ccSEB4AL.s:446    .text:0000000000000290 .L0 
     /tmp/ccSEB4AL.s:453    .text:00000000000002a4 .L0 
     /tmp/ccSEB4AL.s:461    .text:00000000000002c0 .L0 
     /tmp/ccSEB4AL.s:463    .text:00000000000002c8 .L0 
     /tmp/ccSEB4AL.s:464    .text:00000000000002c8 .L0 
     /tmp/ccSEB4AL.s:467    .text:00000000000002d0 .L0 
     /tmp/ccSEB4AL.s:468    .text:00000000000002d0 .L0 
     /tmp/ccSEB4AL.s:472    .text:00000000000002dc .L0 
     /tmp/ccSEB4AL.s:473    .text:00000000000002e0 .L0 
     /tmp/ccSEB4AL.s:475    .text:00000000000002e4 .L0 
     /tmp/ccSEB4AL.s:476    .text:00000000000002e4 .L0 
     /tmp/ccSEB4AL.s:478    .text:00000000000002e8 .L0 
     /tmp/ccSEB4AL.s:480    .text:00000000000002ec .L0 
     /tmp/ccSEB4AL.s:483    .text:00000000000002f0 .L0 
     /tmp/ccSEB4AL.s:485    .text:00000000000002f4 .L0 
     /tmp/ccSEB4AL.s:491    .text:00000000000002f4 _ZN3TCBdlEPv
     /tmp/ccSEB4AL.s:494    .text:00000000000002f4 .L0 
     /tmp/ccSEB4AL.s:496    .text:00000000000002f4 .L0 
     /tmp/ccSEB4AL.s:497    .text:00000000000002f8 .L0 
     /tmp/ccSEB4AL.s:500    .text:0000000000000300 .L0 
     /tmp/ccSEB4AL.s:501    .text:0000000000000300 .L0 
     /tmp/ccSEB4AL.s:503    .text:0000000000000304 .L0 
     /tmp/ccSEB4AL.s:506    .text:0000000000000308 .L0 
     /tmp/ccSEB4AL.s:507    .text:0000000000000308 .L0 
     /tmp/ccSEB4AL.s:512    .text:0000000000000318 .L0 
     /tmp/ccSEB4AL.s:513    .text:000000000000031c .L0 
     /tmp/ccSEB4AL.s:515    .text:0000000000000320 .L0 
     /tmp/ccSEB4AL.s:516    .text:0000000000000320 .L0 
     /tmp/ccSEB4AL.s:518    .text:0000000000000324 .L0 
     /tmp/ccSEB4AL.s:520    .text:0000000000000328 .L0 
     /tmp/ccSEB4AL.s:526    .text:0000000000000328 _ZN3TCB11thread_freeEPv
     /tmp/ccSEB4AL.s:529    .text:0000000000000328 .L0 
     /tmp/ccSEB4AL.s:531    .text:0000000000000328 .L0 
     /tmp/ccSEB4AL.s:532    .text:000000000000032c .L0 
     /tmp/ccSEB4AL.s:534    .text:0000000000000330 .L0 
     /tmp/ccSEB4AL.s:536    .text:0000000000000334 .L0 
     /tmp/ccSEB4AL.s:539    .text:0000000000000334 .L0 
     /tmp/ccSEB4AL.s:540    .text:0000000000000334 .L0 
         src/tcb.cpp:110    .text:0000000000000334 .L0 
     /tmp/ccSEB4AL.s:546    .text:0000000000000338 .L0 
GAS LISTING /tmp/ccSEB4AL.s 			page 21


         src/tcb.cpp:111    .text:0000000000000338 .L0 
     /tmp/ccSEB4AL.s:551    .text:000000000000033c .L0 
         src/tcb.cpp:112    .text:000000000000033c .L0 
     /tmp/ccSEB4AL.s:556    .text:0000000000000340 .L0 
     /tmp/ccSEB4AL.s:557    .text:0000000000000340 .L0 
         src/tcb.cpp:116    .text:0000000000000340 .L0 
     /tmp/ccSEB4AL.s:563    .text:0000000000000344 .L0 
     /tmp/ccSEB4AL.s:565    .text:0000000000000344 .L0 
     /tmp/ccSEB4AL.s:568    .text:000000000000034c .L0 
     /tmp/ccSEB4AL.s:569    .text:000000000000034c .L0 
     /tmp/ccSEB4AL.s:571    .text:0000000000000350 .L0 
     /tmp/ccSEB4AL.s:573    .text:0000000000000354 .L0 
     /tmp/ccSEB4AL.s:591    .bss:0000000000000008 _ZN3TCB8tcbCacheE
     /tmp/ccSEB4AL.s:599    .bss:0000000000000018 _ZN3TCB16timeSliceCounterE
     /tmp/ccSEB4AL.s:603    .bss:0000000000000020 _ZN3TCB9currentSPE
     /tmp/ccSEB4AL.s:607    .bss:0000000000000028 _ZN3TCB9currentPCE
     /tmp/ccSEB4AL.s:595    .bss:0000000000000010 _ZN3TCB10putcThreadE
     /tmp/ccSEB4AL.s:587    .bss:0000000000000000 _ZN3TCB7runningE
     /tmp/ccSEB4AL.s:584    .bss:0000000000000000 .LANCHOR0
     /tmp/ccSEB4AL.s:620    .text:0000000000000354 .L0 
     /tmp/ccSEB4AL.s:97     .text:0000000000000068 .L0 
     /tmp/ccSEB4AL.s:164    .text:00000000000000d4 .L0 
     /tmp/ccSEB4AL.s:292    .text:0000000000000164 .L0 
     /tmp/ccSEB4AL.s:306    .text:0000000000000180 .L0 
     /tmp/ccSEB4AL.s:318    .text:0000000000000198 .L0 
     /tmp/ccSEB4AL.s:366    .text:00000000000001e0 .L0 
     /tmp/ccSEB4AL.s:408    .text:0000000000000218 .L0 
     /tmp/ccSEB4AL.s:409    .text:0000000000000220 .L0 
     /tmp/ccSEB4AL.s:384    .rodata.str1.8:0000000000000000 .LC0
     /tmp/ccSEB4AL.s:411    .text:000000000000022c .L0 
     /tmp/ccSEB4AL.s:415    .text:000000000000023c .L0 
     /tmp/ccSEB4AL.s:432    .text:0000000000000270 .L0 
     /tmp/ccSEB4AL.s:456    .text:00000000000002b0 .L0 
     /tmp/ccSEB4AL.s:461    .text:00000000000002c0 .L0 
     /tmp/ccSEB4AL.s:507    .text:0000000000000308 .L0 
     /tmp/ccSEB4AL.s:176    .text:00000000000000ec .L10
     /tmp/ccSEB4AL.s:182    .text:00000000000000f4 .L11
     /tmp/ccSEB4AL.s:151    .text:00000000000000c0 .L8
     /tmp/ccSEB4AL.s:161    .text:00000000000000d0 .L9
     /tmp/ccSEB4AL.s:337    .text:00000000000001c0 .L21
     /tmp/ccSEB4AL.s:322    .text:00000000000001ac .L17
     /tmp/ccSEB4AL.s:300    .text:0000000000000178 .L18
     /tmp/ccSEB4AL.s:430    .text:0000000000000270 .L25
     /tmp/ccSEB4AL.s:459    .text:00000000000002c0 .L26
     /tmp/ccSEB4AL.s:2315   .debug_abbrev:0000000000000000 .Ldebug_abbrev0
     /tmp/ccSEB4AL.s:3418   .debug_str:00000000000000ca .LASF227
     /tmp/ccSEB4AL.s:3562   .debug_str:00000000000006c0 .LASF228
     /tmp/ccSEB4AL.s:3430   .debug_str:00000000000001fd .LASF229
     /tmp/ccSEB4AL.s:5      .text:0000000000000000 .Ltext0
     /tmp/ccSEB4AL.s:610    .text:0000000000000354 .Letext0
     /tmp/ccSEB4AL.s:3392   .debug_line:0000000000000000 .Ldebug_line0
     /tmp/ccSEB4AL.s:3564   .debug_str:00000000000006cc .LASF0
     /tmp/ccSEB4AL.s:3594   .debug_str:00000000000007f2 .LASF1
     /tmp/ccSEB4AL.s:3696   .debug_str:0000000000000b69 .LASF2
     /tmp/ccSEB4AL.s:3704   .debug_str:0000000000000ba9 .LASF4
     /tmp/ccSEB4AL.s:3576   .debug_str:000000000000072a .LASF3
     /tmp/ccSEB4AL.s:3410   .debug_str:0000000000000096 .LASF5
GAS LISTING /tmp/ccSEB4AL.s 			page 22


     /tmp/ccSEB4AL.s:3660   .debug_str:0000000000000a0b .LASF6
     /tmp/ccSEB4AL.s:3584   .debug_str:0000000000000770 .LASF7
     /tmp/ccSEB4AL.s:3538   .debug_str:00000000000005d3 .LASF8
     /tmp/ccSEB4AL.s:3550   .debug_str:0000000000000666 .LASF9
     /tmp/ccSEB4AL.s:3454   .debug_str:0000000000000310 .LASF10
     /tmp/ccSEB4AL.s:3522   .debug_str:0000000000000553 .LASF11
     /tmp/ccSEB4AL.s:3474   .debug_str:00000000000003b3 .LASF12
     /tmp/ccSEB4AL.s:3452   .debug_str:0000000000000300 .LASF13
     /tmp/ccSEB4AL.s:3746   .debug_str:0000000000000d09 .LASF14
     /tmp/ccSEB4AL.s:3510   .debug_str:00000000000004df .LASF15
     /tmp/ccSEB4AL.s:3732   .debug_str:0000000000000c90 .LASF16
     /tmp/ccSEB4AL.s:3752   .debug_str:0000000000000d45 .LASF17
     /tmp/ccSEB4AL.s:3716   .debug_str:0000000000000c0a .LASF18
     /tmp/ccSEB4AL.s:3612   .debug_str:0000000000000879 .LASF19
     /tmp/ccSEB4AL.s:3520   .debug_str:0000000000000546 .LASF20
     /tmp/ccSEB4AL.s:3796   .debug_str:0000000000000e8f .LASF29
     /tmp/ccSEB4AL.s:3582   .debug_str:000000000000076b .LASF21
     /tmp/ccSEB4AL.s:3846   .debug_str:0000000000000ffb .LASF22
     /tmp/ccSEB4AL.s:3648   .debug_str:00000000000009a2 .LASF23
     /tmp/ccSEB4AL.s:3610   .debug_str:0000000000000874 .LASF24
     /tmp/ccSEB4AL.s:3694   .debug_str:0000000000000b64 .LASF25
     /tmp/ccSEB4AL.s:3790   .debug_str:0000000000000e69 .LASF26
     /tmp/ccSEB4AL.s:3658   .debug_str:00000000000009ff .LASF27
     /tmp/ccSEB4AL.s:3546   .debug_str:0000000000000652 .LASF28
     /tmp/ccSEB4AL.s:3756   .debug_str:0000000000000d4f .LASF30
     /tmp/ccSEB4AL.s:3736   .debug_str:0000000000000cb7 .LASF31
     /tmp/ccSEB4AL.s:3624   .debug_str:00000000000008e2 .LASF33
     /tmp/ccSEB4AL.s:3504   .debug_str:00000000000004b2 .LASF32
     /tmp/ccSEB4AL.s:3830   .debug_str:0000000000000f75 .LASF34
     /tmp/ccSEB4AL.s:3420   .debug_str:000000000000019a .LASF35
     /tmp/ccSEB4AL.s:3456   .debug_str:000000000000031f .LASF36
     /tmp/ccSEB4AL.s:3494   .debug_str:0000000000000470 .LASF37
     /tmp/ccSEB4AL.s:3414   .debug_str:00000000000000a8 .LASF38
     /tmp/ccSEB4AL.s:3642   .debug_str:0000000000000967 .LASF39
     /tmp/ccSEB4AL.s:3810   .debug_str:0000000000000ed4 .LASF40
     /tmp/ccSEB4AL.s:3500   .debug_str:00000000000004a0 .LASF41
     /tmp/ccSEB4AL.s:3750   .debug_str:0000000000000d3d .LASF230
     /tmp/ccSEB4AL.s:3838   .debug_str:0000000000000fce .LASF46
     /tmp/ccSEB4AL.s:3720   .debug_str:0000000000000c2b .LASF42
     /tmp/ccSEB4AL.s:3446   .debug_str:00000000000002d4 .LASF43
     /tmp/ccSEB4AL.s:3436   .debug_str:0000000000000272 .LASF44
     /tmp/ccSEB4AL.s:3396   .debug_str:0000000000000009 .LASF45
     /tmp/ccSEB4AL.s:3552   .debug_str:0000000000000674 .LASF47
     /tmp/ccSEB4AL.s:3574   .debug_str:0000000000000725 .LASF48
     /tmp/ccSEB4AL.s:3570   .debug_str:00000000000006fa .LASF49
     /tmp/ccSEB4AL.s:3464   .debug_str:0000000000000359 .LASF50
     /tmp/ccSEB4AL.s:3740   .debug_str:0000000000000cd9 .LASF51
     /tmp/ccSEB4AL.s:3688   .debug_str:0000000000000b51 .LASF52
     /tmp/ccSEB4AL.s:3706   .debug_str:0000000000000bb0 .LASF53
     /tmp/ccSEB4AL.s:3406   .debug_str:0000000000000078 .LASF55
     /tmp/ccSEB4AL.s:3798   .debug_str:0000000000000e95 .LASF57
     /tmp/ccSEB4AL.s:3794   .debug_str:0000000000000e7c .LASF59
     /tmp/ccSEB4AL.s:3850   .debug_str:0000000000001020 .LASF54
     /tmp/ccSEB4AL.s:3656   .debug_str:00000000000009f3 .LASF56
     /tmp/ccSEB4AL.s:3402   .debug_str:0000000000000040 .LASF58
     /tmp/ccSEB4AL.s:3646   .debug_str:0000000000000995 .LASF60
     /tmp/ccSEB4AL.s:3782   .debug_str:0000000000000e38 .LASF61
GAS LISTING /tmp/ccSEB4AL.s 			page 23


     /tmp/ccSEB4AL.s:3492   .debug_str:0000000000000461 .LASF62
     /tmp/ccSEB4AL.s:3498   .debug_str:0000000000000497 .LASF63
     /tmp/ccSEB4AL.s:3580   .debug_str:0000000000000758 .LASF65
     /tmp/ccSEB4AL.s:3726   .debug_str:0000000000000c6b .LASF64
     /tmp/ccSEB4AL.s:3654   .debug_str:00000000000009dd .LASF66
     /tmp/ccSEB4AL.s:3598   .debug_str:000000000000080b .LASF67
     /tmp/ccSEB4AL.s:3820   .debug_str:0000000000000f18 .LASF68
     /tmp/ccSEB4AL.s:3666   .debug_str:0000000000000a62 .LASF69
     /tmp/ccSEB4AL.s:3470   .debug_str:0000000000000396 .LASF70
     /tmp/ccSEB4AL.s:3486   .debug_str:0000000000000426 .LASF71
     /tmp/ccSEB4AL.s:3404   .debug_str:0000000000000050 .LASF72
     /tmp/ccSEB4AL.s:3800   .debug_str:0000000000000e9d .LASF73
     /tmp/ccSEB4AL.s:3778   .debug_str:0000000000000e18 .LASF74
     /tmp/ccSEB4AL.s:3780   .debug_str:0000000000000e30 .LASF75
     /tmp/ccSEB4AL.s:3804   .debug_str:0000000000000eb0 .LASF76
     /tmp/ccSEB4AL.s:3754   .debug_str:0000000000000d4a .LASF77
     /tmp/ccSEB4AL.s:3400   .debug_str:000000000000003b .LASF78
     /tmp/ccSEB4AL.s:3844   .debug_str:0000000000000ff6 .LASF79
     /tmp/ccSEB4AL.s:3614   .debug_str:000000000000087e .LASF80
     /tmp/ccSEB4AL.s:3768   .debug_str:0000000000000db2 .LASF81
     /tmp/ccSEB4AL.s:3762   .debug_str:0000000000000d71 .LASF82
     /tmp/ccSEB4AL.s:3818   .debug_str:0000000000000f10 .LASF83
     /tmp/ccSEB4AL.s:3774   .debug_str:0000000000000dee .LASF84
     /tmp/ccSEB4AL.s:3622   .debug_str:00000000000008d9 .LASF85
     /tmp/ccSEB4AL.s:3394   .debug_str:0000000000000000 .LASF86
     /tmp/ccSEB4AL.s:3422   .debug_str:000000000000019f .LASF87
     /tmp/ccSEB4AL.s:3758   .debug_str:0000000000000d54 .LASF88
     /tmp/ccSEB4AL.s:3502   .debug_str:00000000000004a7 .LASF89
     /tmp/ccSEB4AL.s:3712   .debug_str:0000000000000be2 .LASF90
     /tmp/ccSEB4AL.s:3602   .debug_str:0000000000000827 .LASF91
     /tmp/ccSEB4AL.s:3536   .debug_str:00000000000005c9 .LASF92
     /tmp/ccSEB4AL.s:3606   .debug_str:0000000000000846 .LASF93
     /tmp/ccSEB4AL.s:3812   .debug_str:0000000000000ee1 .LASF94
     /tmp/ccSEB4AL.s:3842   .debug_str:0000000000000fe9 .LASF95
     /tmp/ccSEB4AL.s:3560   .debug_str:00000000000006a8 .LASF231
     /tmp/ccSEB4AL.s:3840   .debug_str:0000000000000fd5 .LASF232
     /tmp/ccSEB4AL.s:3596   .debug_str:0000000000000805 .LASF96
     /tmp/ccSEB4AL.s:3438   .debug_str:000000000000027b .LASF97
     /tmp/ccSEB4AL.s:3852   .debug_str:000000000000102d .LASF98
     /tmp/ccSEB4AL.s:3490   .debug_str:000000000000044b .LASF99
     /tmp/ccSEB4AL.s:3832   .debug_str:0000000000000f88 .LASF100
     /tmp/ccSEB4AL.s:3508   .debug_str:00000000000004d1 .LASF101
     /tmp/ccSEB4AL.s:3702   .debug_str:0000000000000b8a .LASF103
     /tmp/ccSEB4AL.s:3814   .debug_str:0000000000000eeb .LASF102
     /tmp/ccSEB4AL.s:3672   .debug_str:0000000000000a95 .LASF104
     /tmp/ccSEB4AL.s:3784   .debug_str:0000000000000e3d .LASF105
     /tmp/ccSEB4AL.s:3548   .debug_str:000000000000065b .LASF106
     /tmp/ccSEB4AL.s:3824   .debug_str:0000000000000f37 .LASF107
     /tmp/ccSEB4AL.s:3714   .debug_str:0000000000000bf3 .LASF108
     /tmp/ccSEB4AL.s:3476   .debug_str:00000000000003c3 .LASF109
     /tmp/ccSEB4AL.s:3680   .debug_str:0000000000000afa .LASF110
     /tmp/ccSEB4AL.s:3440   .debug_str:0000000000000295 .LASF111
     /tmp/ccSEB4AL.s:3738   .debug_str:0000000000000cbe .LASF112
     /tmp/ccSEB4AL.s:3748   .debug_str:0000000000000d15 .LASF113
     /tmp/ccSEB4AL.s:3664   .debug_str:0000000000000a49 .LASF114
     /tmp/ccSEB4AL.s:3618   .debug_str:00000000000008a7 .LASF115
     /tmp/ccSEB4AL.s:3586   .debug_str:0000000000000783 .LASF116
GAS LISTING /tmp/ccSEB4AL.s 			page 24


     /tmp/ccSEB4AL.s:3398   .debug_str:0000000000000011 .LASF117
     /tmp/ccSEB4AL.s:3766   .debug_str:0000000000000d93 .LASF118
     /tmp/ccSEB4AL.s:3424   .debug_str:00000000000001aa .LASF119
     /tmp/ccSEB4AL.s:3682   .debug_str:0000000000000b10 .LASF120
     /tmp/ccSEB4AL.s:3540   .debug_str:00000000000005e3 .LASF121
     /tmp/ccSEB4AL.s:3674   .debug_str:0000000000000ab3 .LASF122
     /tmp/ccSEB4AL.s:3616   .debug_str:0000000000000884 .LASF123
     /tmp/ccSEB4AL.s:3488   .debug_str:0000000000000434 .LASF124
     /tmp/ccSEB4AL.s:3434   .debug_str:000000000000024e .LASF125
     /tmp/ccSEB4AL.s:3604   .debug_str:0000000000000830 .LASF126
     /tmp/ccSEB4AL.s:3856   .debug_str:000000000000104f .LASF127
     /tmp/ccSEB4AL.s:3816   .debug_str:0000000000000ef8 .LASF128
     /tmp/ccSEB4AL.s:3544   .debug_str:000000000000062d .LASF129
     /tmp/ccSEB4AL.s:3512   .debug_str:00000000000004f5 .LASF130
     /tmp/ccSEB4AL.s:3828   .debug_str:0000000000000f50 .LASF131
     /tmp/ccSEB4AL.s:3730   .debug_str:0000000000000c7d .LASF132
     /tmp/ccSEB4AL.s:3572   .debug_str:0000000000000705 .LASF133
     /tmp/ccSEB4AL.s:3428   .debug_str:00000000000001ea .LASF134
     /tmp/ccSEB4AL.s:3776   .debug_str:0000000000000df8 .LASF135
     /tmp/ccSEB4AL.s:3650   .debug_str:00000000000009ab .LASF136
     /tmp/ccSEB4AL.s:3608   .debug_str:0000000000000850 .LASF137
     /tmp/ccSEB4AL.s:3718   .debug_str:0000000000000c12 .LASF138
     /tmp/ccSEB4AL.s:3532   .debug_str:0000000000000580 .LASF139
     /tmp/ccSEB4AL.s:3854   .debug_str:0000000000001033 .LASF140
     /tmp/ccSEB4AL.s:3588   .debug_str:00000000000007a0 .LASF141
     /tmp/ccSEB4AL.s:3806   .debug_str:0000000000000eb7 .LASF142
     /tmp/ccSEB4AL.s:3432   .debug_str:000000000000022e .LASF143
     /tmp/ccSEB4AL.s:3442   .debug_str:00000000000002b8 .LASF144
     /tmp/ccSEB4AL.s:3770   .debug_str:0000000000000dbc .LASF145
     /tmp/ccSEB4AL.s:3792   .debug_str:0000000000000e73 .LASF146
     /tmp/ccSEB4AL.s:3834   .debug_str:0000000000000fa4 .LASF147
     /tmp/ccSEB4AL.s:3692   .debug_str:0000000000000b5b .LASF148
     /tmp/ccSEB4AL.s:3836   .debug_str:0000000000000fb9 .LASF149
     /tmp/ccSEB4AL.s:3802   .debug_str:0000000000000ea9 .LASF150
     /tmp/ccSEB4AL.s:3592   .debug_str:00000000000007df .LASF151
     /tmp/ccSEB4AL.s:3640   .debug_str:0000000000000960 .LASF152
     /tmp/ccSEB4AL.s:3482   .debug_str:000000000000040e .LASF153
     /tmp/ccSEB4AL.s:3826   .debug_str:0000000000000f48 .LASF154
     /tmp/ccSEB4AL.s:3426   .debug_str:00000000000001d6 .LASF155
     /tmp/ccSEB4AL.s:3638   .debug_str:0000000000000958 .LASF156
     /tmp/ccSEB4AL.s:3670   .debug_str:0000000000000a81 .LASF157
     /tmp/ccSEB4AL.s:3568   .debug_str:00000000000006f0 .LASF158
     /tmp/ccSEB4AL.s:3590   .debug_str:00000000000007c9 .LASF159
     /tmp/ccSEB4AL.s:3808   .debug_str:0000000000000eca .LASF160
     /tmp/ccSEB4AL.s:3514   .debug_str:000000000000050d .LASF161
     /tmp/ccSEB4AL.s:3412   .debug_str:000000000000009d .LASF162
     /tmp/ccSEB4AL.s:3772   .debug_str:0000000000000dd6 .LASF163
     /tmp/ccSEB4AL.s:3524   .debug_str:0000000000000562 .LASF164
     /tmp/ccSEB4AL.s:3462   .debug_str:0000000000000341 .LASF165
     /tmp/ccSEB4AL.s:3744   .debug_str:0000000000000d02 .LASF166
     /tmp/ccSEB4AL.s:3472   .debug_str:00000000000003a0 .LASF167
     /tmp/ccSEB4AL.s:3708   .debug_str:0000000000000bb5 .LASF168
     /tmp/ccSEB4AL.s:3632   .debug_str:000000000000090f .LASF169
     /tmp/ccSEB4AL.s:3728   .debug_str:0000000000000c76 .LASF170
     /tmp/ccSEB4AL.s:3466   .debug_str:0000000000000365 .LASF171
     /tmp/ccSEB4AL.s:3700   .debug_str:0000000000000b83 .LASF172
     /tmp/ccSEB4AL.s:3676   .debug_str:0000000000000ac9 .LASF173
GAS LISTING /tmp/ccSEB4AL.s 			page 25


     /tmp/ccSEB4AL.s:3686   .debug_str:0000000000000b40 .LASF174
     /tmp/ccSEB4AL.s:3636   .debug_str:000000000000093a .LASF175
     /tmp/ccSEB4AL.s:3468   .debug_str:0000000000000378 .LASF176
     /tmp/ccSEB4AL.s:3662   .debug_str:0000000000000a1e .LASF177
     /tmp/ccSEB4AL.s:3558   .debug_str:000000000000069d .LASF178
     /tmp/ccSEB4AL.s:3634   .debug_str:0000000000000922 .LASF179
     /tmp/ccSEB4AL.s:3628   .debug_str:00000000000008fd .LASF180
     /tmp/ccSEB4AL.s:3742   .debug_str:0000000000000cf0 .LASF181
     /tmp/ccSEB4AL.s:3822   .debug_str:0000000000000f28 .LASF182
     /tmp/ccSEB4AL.s:3788   .debug_str:0000000000000e4d .LASF183
     /tmp/ccSEB4AL.s:3668   .debug_str:0000000000000a6c .LASF184
     /tmp/ccSEB4AL.s:3478   .debug_str:00000000000003e7 .LASF185
     /tmp/ccSEB4AL.s:3450   .debug_str:00000000000002ef .LASF186
     /tmp/ccSEB4AL.s:3678   .debug_str:0000000000000adc .LASF187
     /tmp/ccSEB4AL.s:3408   .debug_str:0000000000000084 .LASF188
     /tmp/ccSEB4AL.s:3724   .debug_str:0000000000000c4c .LASF189
     /tmp/ccSEB4AL.s:3722   .debug_str:0000000000000c33 .LASF190
     /tmp/ccSEB4AL.s:3710   .debug_str:0000000000000bbc .LASF191
     /tmp/ccSEB4AL.s:3848   .debug_str:0000000000001006 .LASF192
     /tmp/ccSEB4AL.s:3858   .debug_str:0000000000001072 .LASF193
     /tmp/ccSEB4AL.s:3684   .debug_str:0000000000000b2a .LASF194
     /tmp/ccSEB4AL.s:3542   .debug_str:000000000000060a .LASF195
     /tmp/ccSEB4AL.s:3506   .debug_str:00000000000004ba .LASF196
     /tmp/ccSEB4AL.s:3644   .debug_str:0000000000000971 .LASF197
     /tmp/ccSEB4AL.s:3496   .debug_str:000000000000047f .LASF198
     /tmp/ccSEB4AL.s:3626   .debug_str:00000000000008f4 .LASF199
     /tmp/ccSEB4AL.s:3448   .debug_str:00000000000002da .LASF200
     /tmp/ccSEB4AL.s:3554   .debug_str:0000000000000679 .LASF201
     /tmp/ccSEB4AL.s:3760   .debug_str:0000000000000d5c .LASF202
     /tmp/ccSEB4AL.s:3460   .debug_str:000000000000032e .LASF203
     /tmp/ccSEB4AL.s:3556   .debug_str:000000000000068a .LASF204
     /tmp/ccSEB4AL.s:3652   .debug_str:00000000000009c2 .LASF205
     /tmp/ccSEB4AL.s:3416   .debug_str:00000000000000b8 .LASF206
     /tmp/ccSEB4AL.s:45     .text:0000000000000028 .LFB56
     /tmp/ccSEB4AL.s:73     .text:0000000000000050 .LFE56
     /tmp/ccSEB4AL.s:10     .text:0000000000000000 .LFB55
     /tmp/ccSEB4AL.s:39     .text:0000000000000028 .LFE55
     /tmp/ccSEB4AL.s:527    .text:0000000000000328 .LFB54
     /tmp/ccSEB4AL.s:574    .text:0000000000000354 .LFE54
     /tmp/ccSEB4AL.s:3690   .debug_str:0000000000000b56 .LASF207
     /tmp/ccSEB4AL.s:3223   .debug_loc:0000000000000000 .LLST8
     /tmp/ccSEB4AL.s:3480   .debug_str:0000000000000409 .LASF208
     /tmp/ccSEB4AL.s:3237   .debug_loc:0000000000000039 .LLST9
     /tmp/ccSEB4AL.s:3251   .debug_loc:0000000000000072 .LLST10
     /tmp/ccSEB4AL.s:492    .text:00000000000002f4 .LFB53
     /tmp/ccSEB4AL.s:521    .text:0000000000000328 .LFE53
     /tmp/ccSEB4AL.s:3258   .debug_loc:0000000000000095 .LLST7
     /tmp/ccSEB4AL.s:510    .text:0000000000000318 .LVL37
     /tmp/ccSEB4AL.s:352    .text:00000000000001d0 .LFB52
     /tmp/ccSEB4AL.s:380    .text:0000000000000200 .LFE52
     /tmp/ccSEB4AL.s:3484   .debug_str:0000000000000421 .LASF209
     /tmp/ccSEB4AL.s:3276   .debug_loc:00000000000000e1 .LLST5
     /tmp/ccSEB4AL.s:369    .text:00000000000001f0 .LVL24
     /tmp/ccSEB4AL.s:79     .text:0000000000000050 .LFB51
     /tmp/ccSEB4AL.s:117    .text:0000000000000094 .LFE51
     /tmp/ccSEB4AL.s:3290   .debug_loc:000000000000011a .LLST0
     /tmp/ccSEB4AL.s:94     .text:0000000000000068 .LVL3
GAS LISTING /tmp/ccSEB4AL.s 			page 26


     /tmp/ccSEB4AL.s:106    .text:0000000000000084 .LVL5
     /tmp/ccSEB4AL.s:277    .text:0000000000000150 .LFB50
     /tmp/ccSEB4AL.s:346    .text:00000000000001d0 .LFE50
     /tmp/ccSEB4AL.s:3304   .debug_loc:0000000000000153 .LLST4
     /tmp/ccSEB4AL.s:304    .text:0000000000000180 .LVL16
     /tmp/ccSEB4AL.s:315    .text:0000000000000198 .LVL17
     /tmp/ccSEB4AL.s:321    .text:00000000000001ac .LVL18
     /tmp/ccSEB4AL.s:343    .text:00000000000001cc .LVL21
     /tmp/ccSEB4AL.s:3528   .debug_str:0000000000000575 .LASF210
     /tmp/ccSEB4AL.s:3458   .debug_str:0000000000000324 .LASF211
     /tmp/ccSEB4AL.s:3630   .debug_str:0000000000000903 .LASF212
     /tmp/ccSEB4AL.s:231    .text:0000000000000128 .LFB48
     /tmp/ccSEB4AL.s:261    .text:0000000000000150 .LFE48
     /tmp/ccSEB4AL.s:3315   .debug_loc:0000000000000189 .LLST3
     /tmp/ccSEB4AL.s:249    .text:0000000000000140 .LVL14
     /tmp/ccSEB4AL.s:197    .text:00000000000000fc .LFB46
     /tmp/ccSEB4AL.s:225    .text:0000000000000128 .LFE46
     /tmp/ccSEB4AL.s:3329   .debug_loc:00000000000001c2 .LLST2
     /tmp/ccSEB4AL.s:214    .text:0000000000000118 .LVL12
     /tmp/ccSEB4AL.s:3566   .debug_str:00000000000006d9 .LASF213
     /tmp/ccSEB4AL.s:123    .text:0000000000000094 .LFB44
     /tmp/ccSEB4AL.s:189    .text:00000000000000fc .LFE44
     /tmp/ccSEB4AL.s:3343   .debug_loc:00000000000001fb .LLST1
     /tmp/ccSEB4AL.s:391    .text:0000000000000200 .LFB42
     /tmp/ccSEB4AL.s:486    .text:00000000000002f4 .LFE42
     /tmp/ccSEB4AL.s:3786   .debug_str:0000000000000e43 .LASF214
     /tmp/ccSEB4AL.s:3368   .debug_loc:000000000000025d .LLST6
     /tmp/ccSEB4AL.s:413    .text:000000000000023c .LVL25
     /tmp/ccSEB4AL.s:420    .text:0000000000000250 .LVL26
     /tmp/ccSEB4AL.s:429    .text:0000000000000270 .LVL27
     /tmp/ccSEB4AL.s:441    .text:000000000000028c .LVL28
     /tmp/ccSEB4AL.s:449    .text:000000000000029c .LVL31
     /tmp/ccSEB4AL.s:458    .text:00000000000002c0 .LVL32
     /tmp/ccSEB4AL.s:470    .text:00000000000002dc .LVL33
     /tmp/ccSEB4AL.s:3764   .debug_str:0000000000000d76 .LASF215
     /tmp/ccSEB4AL.s:3444   .debug_str:00000000000002c4 .LASF217
     /tmp/ccSEB4AL.s:3578   .debug_str:000000000000073c .LASF216
     /tmp/ccSEB4AL.s:3516   .debug_str:0000000000000523 .LASF218
     /tmp/ccSEB4AL.s:3734   .debug_str:0000000000000ca6 .LASF219
     /tmp/ccSEB4AL.s:3620   .debug_str:00000000000008cd .LASF220
     /tmp/ccSEB4AL.s:3600   .debug_str:000000000000081b .LASF221
     /tmp/ccSEB4AL.s:3530   .debug_str:000000000000057a .LASF222
     /tmp/ccSEB4AL.s:3534   .debug_str:00000000000005a6 .LASF223
     /tmp/ccSEB4AL.s:3518   .debug_str:0000000000000534 .LASF224
     /tmp/ccSEB4AL.s:3698   .debug_str:0000000000000b77 .LASF225
     /tmp/ccSEB4AL.s:3526   .debug_str:000000000000056d .LASF226
     /tmp/ccSEB4AL.s:530    .text:0000000000000328 .LVL38
     /tmp/ccSEB4AL.s:561    .text:0000000000000344 .LVL40
     /tmp/ccSEB4AL.s:538    .text:0000000000000334 .LVL39
     /tmp/ccSEB4AL.s:566    .text:0000000000000348 .LVL41
     /tmp/ccSEB4AL.s:495    .text:00000000000002f4 .LVL35
     /tmp/ccSEB4AL.s:508    .text:0000000000000310 .LVL36
     /tmp/ccSEB4AL.s:355    .text:00000000000001d0 .LVL22
     /tmp/ccSEB4AL.s:367    .text:00000000000001e8 .LVL23
     /tmp/ccSEB4AL.s:82     .text:0000000000000050 .LVL2
     /tmp/ccSEB4AL.s:293    .text:000000000000016c .LVL15
     /tmp/ccSEB4AL.s:332    .text:00000000000001b8 .LVL19
GAS LISTING /tmp/ccSEB4AL.s 			page 27


     /tmp/ccSEB4AL.s:336    .text:00000000000001c0 .LVL20
     /tmp/ccSEB4AL.s:236    .text:0000000000000128 .LVL13
     /tmp/ccSEB4AL.s:200    .text:00000000000000fc .LVL10
     /tmp/ccSEB4AL.s:212    .text:0000000000000110 .LVL11
     /tmp/ccSEB4AL.s:126    .text:0000000000000094 .LVL6
     /tmp/ccSEB4AL.s:160    .text:00000000000000d0 .LVL7
     /tmp/ccSEB4AL.s:175    .text:00000000000000ec .LVL8
     /tmp/ccSEB4AL.s:185    .text:00000000000000f8 .LVL9
     /tmp/ccSEB4AL.s:443    .text:0000000000000290 .LVL29
     /tmp/ccSEB4AL.s:447    .text:0000000000000294 .LVL30
     /tmp/ccSEB4AL.s:481    .text:00000000000002ec .LVL34
     /tmp/ccSEB4AL.s:621    .debug_info:0000000000000000 .Ldebug_info0
     /tmp/ccSEB4AL.s:264    .gcc_except_table:0000000000000000 .LLSDA48

UNDEFINED SYMBOLS
_ZN5RiscV10popSppSpieEv
_Z11thread_exitv
_Z5kfreePKv
__gxx_personality_v0
_ZN9Scheduler3getEv
_ZN5RiscV29jumpToDesignatedPrivilegeModeEv
_ZN3TCB13contextSwitchEPNS_7ContextES1_
_ZN9Scheduler3putEP3TCB
_Z16kmem_cache_allocP5Cache
_Z17kmem_cache_createPKcmPFvPvES3_
_Z7kmallocm
_ZN5RiscV11putcWrapperEPv
_Z15kmem_cache_freeP5CachePv
