GAS LISTING /tmp/cczeRyx8.s 			page 1


   1              		.file	"tcb.cpp"
   2              		.option pic
   3              		.option norelax
   4              		.text
   5              	.Ltext0:
   6              		.align	2
   7              		.globl	_ZN3TCB4ctorEPv
   9              	_ZN3TCB4ctorEPv:
  10              	.LFB55:
  11              		.file 1 "src/tcb.cpp"
   1:src/tcb.cpp   **** //
   2:src/tcb.cpp   **** // Created by os on 5/18/22.
   3:src/tcb.cpp   **** //
   4:src/tcb.cpp   **** 
   5:src/tcb.cpp   **** #include "../h/tcb.hpp"
   6:src/tcb.cpp   **** #include "../h/memoryAllocator.hpp"
   7:src/tcb.cpp   **** #include "../h/scheduler.hpp"
   8:src/tcb.cpp   **** #include "../h/syscall_c.h"
   9:src/tcb.cpp   **** #include "../h/printing.hpp"
  10:src/tcb.cpp   **** #include "../h/riscv.hpp"
  11:src/tcb.cpp   **** 
  12:src/tcb.cpp   **** TCB* TCB::running = nullptr;
  13:src/tcb.cpp   **** 
  14:src/tcb.cpp   **** TCB* TCB::putcThread = nullptr;
  15:src/tcb.cpp   **** 
  16:src/tcb.cpp   **** uint64 TCB::currentPC = 0;
  17:src/tcb.cpp   **** 
  18:src/tcb.cpp   **** uint64 TCB::currentSP = 0;
  19:src/tcb.cpp   **** 
  20:src/tcb.cpp   **** uint64 TCB::timeSliceCounter = 0;
  21:src/tcb.cpp   **** 
  22:src/tcb.cpp   **** kmem_cache_t* TCB::tcbCache = nullptr;
  23:src/tcb.cpp   **** 
  24:src/tcb.cpp   **** 
  25:src/tcb.cpp   **** //create a thread for kernel main and a separate thread for console output execution
  26:src/tcb.cpp   **** void TCB::initialize() {
  27:src/tcb.cpp   **** 
  28:src/tcb.cpp   ****     TCB::tcbCache = kmem_cache_create("TCB Cache", sizeof(TCB), TCB::ctor, TCB::dtor);
  29:src/tcb.cpp   **** 
  30:src/tcb.cpp   ****     TCB::running = new TCB(nullptr, nullptr, nullptr, DEFAULT_TIME_SLICE);
  31:src/tcb.cpp   **** 
  32:src/tcb.cpp   ****     TCB::running->mode = Mode::SUPERVISOR;
  33:src/tcb.cpp   ****     //stack for thread that will be running console output
  34:src/tcb.cpp   ****     uint64 *putcStack = (uint64*)kmalloc(DEFAULT_STACK_SIZE);
  35:src/tcb.cpp   **** 
  36:src/tcb.cpp   ****     //console output thread
  37:src/tcb.cpp   ****     putcThread = new TCB(RiscV::putcWrapper, nullptr, putcStack, DEFAULT_TIME_SLICE);
  38:src/tcb.cpp   **** 
  39:src/tcb.cpp   ****     putcThread->mode = Mode::SUPERVISOR;
  40:src/tcb.cpp   **** 
  41:src/tcb.cpp   ****     Scheduler::put(putcThread);
  42:src/tcb.cpp   **** }
  43:src/tcb.cpp   **** 
  44:src/tcb.cpp   **** //tcb constructor
  45:src/tcb.cpp   **** TCB::TCB(Body body, void* args, uint64* stack, uint64 timeSlice){
  46:src/tcb.cpp   **** 
  47:src/tcb.cpp   ****     this->body = body;
GAS LISTING /tmp/cczeRyx8.s 			page 2


  48:src/tcb.cpp   **** 
  49:src/tcb.cpp   ****     this->args = args;
  50:src/tcb.cpp   **** 
  51:src/tcb.cpp   ****     this->timeSlice = timeSlice;
  52:src/tcb.cpp   **** 
  53:src/tcb.cpp   ****     this->stack = (body == nullptr) ? nullptr : stack;
  54:src/tcb.cpp   **** 
  55:src/tcb.cpp   ****     //initial context for thread
  56:src/tcb.cpp   ****     this->context = {(body == nullptr) ? 0 : (uint64)((char*)stack + DEFAULT_STACK_SIZE),
  57:src/tcb.cpp   ****                      (uint64)&wrapper };
  58:src/tcb.cpp   **** }
  59:src/tcb.cpp   **** 
  60:src/tcb.cpp   **** //deallocate memory for thread stack
  61:src/tcb.cpp   **** void TCB::free(){
  62:src/tcb.cpp   ****     kfree(stack);
  63:src/tcb.cpp   **** }
  64:src/tcb.cpp   **** 
  65:src/tcb.cpp   **** TCB::~TCB(){
  66:src/tcb.cpp   ****     free();
  67:src/tcb.cpp   **** }
  68:src/tcb.cpp   **** 
  69:src/tcb.cpp   **** //if currently running thread is not finished, asleep or blocked, put it in scheduler
  70:src/tcb.cpp   **** //get new thread from scheduler and switch context
  71:src/tcb.cpp   **** void TCB::dispatch() {
  72:src/tcb.cpp   ****     TCB* old = running;
  73:src/tcb.cpp   **** 
  74:src/tcb.cpp   ****     if(old->status == Status::READY || old->status == Status::RUNNING) {
  75:src/tcb.cpp   ****         Scheduler::put(old);
  76:src/tcb.cpp   ****     }
  77:src/tcb.cpp   **** 
  78:src/tcb.cpp   ****     running = Scheduler::get();
  79:src/tcb.cpp   **** 
  80:src/tcb.cpp   ****     if(running) {
  81:src/tcb.cpp   ****         running->status = Status::RUNNING;
  82:src/tcb.cpp   ****         RiscV::jumpToDesignatedPrivilegeMode();
  83:src/tcb.cpp   ****         contextSwitch(&old->context, &running->context);
  84:src/tcb.cpp   ****     }
  85:src/tcb.cpp   **** }
  86:src/tcb.cpp   **** 
  87:src/tcb.cpp   **** //wrapper function to run body function
  88:src/tcb.cpp   **** void TCB::wrapper(void *args) {
  89:src/tcb.cpp   ****     RiscV::popSppSpie();
  90:src/tcb.cpp   **** 
  91:src/tcb.cpp   ****     running->body(running->args);
  92:src/tcb.cpp   **** 
  93:src/tcb.cpp   ****     thread_exit();
  94:src/tcb.cpp   **** }
  95:src/tcb.cpp   **** 
  96:src/tcb.cpp   **** //overload operator new, to not use system call for every kernel object that is being allocated
  97:src/tcb.cpp   **** void* TCB::operator new(size_t size){
  98:src/tcb.cpp   ****     return kmem_cache_alloc(TCB::tcbCache);
  99:src/tcb.cpp   **** }
 100:src/tcb.cpp   **** 
 101:src/tcb.cpp   **** //overload operator delete, to not use system call for every kernel object that is being deallocate
 102:src/tcb.cpp   **** void TCB::operator delete(void *addr){
 103:src/tcb.cpp   ****     kmem_cache_free(TCB::tcbCache, addr);
 104:src/tcb.cpp   **** }
GAS LISTING /tmp/cczeRyx8.s 			page 3


 105:src/tcb.cpp   **** 
 106:src/tcb.cpp   **** //internal syscall to free space allocated to a thread
 107:src/tcb.cpp   **** int TCB::thread_free(void *addr) {
 108:src/tcb.cpp   ****     uint64 iptr = (uint64)addr;
 109:src/tcb.cpp   **** 
 110:src/tcb.cpp   ****     asm("mv a1, %[iptr]" : : [iptr] "r" (iptr));
 111:src/tcb.cpp   ****     asm("li a0, 0x51");
 112:src/tcb.cpp   ****     asm("ecall");
 113:src/tcb.cpp   **** 
 114:src/tcb.cpp   ****     uint64 status;
 115:src/tcb.cpp   **** 
 116:src/tcb.cpp   ****     asm("mv %[status], a0" : [status] "=r" (status));
 117:src/tcb.cpp   ****     return status;
 118:src/tcb.cpp   **** }
 119:src/tcb.cpp   **** 
 120:src/tcb.cpp   **** void TCB::ctor(void* tcb){
  12              		.loc 1 120 26
  13              		.cfi_startproc
  14              	.LVL0:
  15 0000 130101FF 		addi	sp,sp,-16
  16              		.cfi_def_cfa_offset 16
  17 0004 23348100 		sd	s0,8(sp)
  18              		.cfi_offset 8, -8
  19 0008 13040101 		addi	s0,sp,16
  20              		.cfi_def_cfa 8, 0
 121:src/tcb.cpp   ****     ((TCB*)tcb)->status = Status::READY;
  21              		.loc 1 121 5
  22              		.loc 1 121 25 is_stmt 0
  23 000c 93071000 		li	a5,1
  24 0010 2328F500 		sw	a5,16(a0)
 122:src/tcb.cpp   **** 
 123:src/tcb.cpp   ****     ((TCB*)tcb)->next = nullptr;
  25              		.loc 1 123 5 is_stmt 1
  26              		.loc 1 123 23 is_stmt 0
  27 0014 23340504 		sd	zero,72(a0)
 124:src/tcb.cpp   **** 
 125:src/tcb.cpp   ****     ((TCB*)tcb)->mode = Mode::USER;
  28              		.loc 1 125 5 is_stmt 1
  29              		.loc 1 125 23 is_stmt 0
  30 0018 232A0500 		sw	zero,20(a0)
 126:src/tcb.cpp   **** }
  31              		.loc 1 126 1
  32 001c 03348100 		ld	s0,8(sp)
  33              		.cfi_restore 8
  34              		.cfi_def_cfa 2, 16
  35 0020 13010101 		addi	sp,sp,16
  36              		.cfi_def_cfa_offset 0
  37 0024 67800000 		jr	ra
  38              		.cfi_endproc
  39              	.LFE55:
  41              		.align	2
  42              		.globl	_ZN3TCB4dtorEPv
  44              	_ZN3TCB4dtorEPv:
  45              	.LFB56:
 127:src/tcb.cpp   **** 
 128:src/tcb.cpp   **** void TCB::dtor(void* tcb){
  46              		.loc 1 128 26 is_stmt 1
GAS LISTING /tmp/cczeRyx8.s 			page 4


  47              		.cfi_startproc
  48              	.LVL1:
  49 0028 130101FF 		addi	sp,sp,-16
  50              		.cfi_def_cfa_offset 16
  51 002c 23348100 		sd	s0,8(sp)
  52              		.cfi_offset 8, -8
  53 0030 13040101 		addi	s0,sp,16
  54              		.cfi_def_cfa 8, 0
 129:src/tcb.cpp   **** 
 130:src/tcb.cpp   **** }...
  55              		.loc 1 130 1 is_stmt 0
  56 0034 03348100 		ld	s0,8(sp)
  57              		.cfi_restore 8
  58              		.cfi_def_cfa 2, 16
  59 0038 13010101 		addi	sp,sp,16
  60              		.cfi_def_cfa_offset 0
  61 003c 67800000 		jr	ra
  62              		.cfi_endproc
  63              	.LFE56:
  65              		.align	2
  66              		.globl	_ZN3TCB7wrapperEPv
  68              	_ZN3TCB7wrapperEPv:
  69              	.LFB51:
  88:src/tcb.cpp   **** void TCB::wrapper(void *args) {
  70              		.loc 1 88 31 is_stmt 1
  71              		.cfi_startproc
  72              	.LVL2:
  73 0040 130101FF 		addi	sp,sp,-16
  74              		.cfi_def_cfa_offset 16
  75 0044 23341100 		sd	ra,8(sp)
  76 0048 23308100 		sd	s0,0(sp)
  77              		.cfi_offset 1, -8
  78              		.cfi_offset 8, -16
  79 004c 13040101 		addi	s0,sp,16
  80              		.cfi_def_cfa 8, 0
  89:src/tcb.cpp   ****     RiscV::popSppSpie();
  81              		.loc 1 89 5
  89:src/tcb.cpp   ****     RiscV::popSppSpie();
  82              		.loc 1 89 22 is_stmt 0
  83 0050 97000000 		call	_ZN5RiscV10popSppSpieEv@plt
  83      E7800000 
  84              	.LVL3:
  91:src/tcb.cpp   ****     running->body(running->args);
  85              		.loc 1 91 5 is_stmt 1
  91:src/tcb.cpp   ****     running->body(running->args);
  86              		.loc 1 91 14 is_stmt 0
  87 0058 97070000 		ld	a5,.LANCHOR0
  87      83B70700 
  88 0060 03B78701 		ld	a4,24(a5)
  91:src/tcb.cpp   ****     running->body(running->args);
  89              		.loc 1 91 18
  90 0064 03B50702 		ld	a0,32(a5)
  91 0068 E7000700 		jalr	a4
  92              	.LVL4:
  93:src/tcb.cpp   ****     thread_exit();
  93              		.loc 1 93 5 is_stmt 1
  93:src/tcb.cpp   ****     thread_exit();
GAS LISTING /tmp/cczeRyx8.s 			page 5


  94              		.loc 1 93 16 is_stmt 0
  95 006c 97000000 		call	_Z11thread_exitv@plt
  95      E7800000 
  96              	.LVL5:
  94:src/tcb.cpp   **** }
  97              		.loc 1 94 1
  98 0074 83308100 		ld	ra,8(sp)
  99              		.cfi_restore 1
 100 0078 03340100 		ld	s0,0(sp)
 101              		.cfi_restore 8
 102              		.cfi_def_cfa 2, 16
 103 007c 13010101 		addi	sp,sp,16
 104              		.cfi_def_cfa_offset 0
 105 0080 67800000 		jr	ra
 106              		.cfi_endproc
 107              	.LFE51:
 109              		.align	2
 110              		.globl	_ZN3TCBC2EPFvPvES0_Pmm
 112              	_ZN3TCBC2EPFvPvES0_Pmm:
 113              	.LFB44:
  45:src/tcb.cpp   **** TCB::TCB(Body body, void* args, uint64* stack, uint64 timeSlice){
 114              		.loc 1 45 1 is_stmt 1
 115              		.cfi_startproc
 116              	.LVL6:
 117 0084 130101FF 		addi	sp,sp,-16
 118              		.cfi_def_cfa_offset 16
 119 0088 23348100 		sd	s0,8(sp)
 120              		.cfi_offset 8, -8
 121 008c 13040101 		addi	s0,sp,16
 122              		.cfi_def_cfa 8, 0
 123              	.LBB2:
  45:src/tcb.cpp   **** TCB::TCB(Body body, void* args, uint64* stack, uint64 timeSlice){
 124              		.loc 1 45 64 is_stmt 0
 125 0090 23380504 		sd	zero,80(a0)
 126 0094 233C0504 		sd	zero,88(a0)
 127 0098 23300506 		sd	zero,96(a0)
  47:src/tcb.cpp   ****     this->body = body;
 128              		.loc 1 47 5 is_stmt 1
  47:src/tcb.cpp   ****     this->body = body;
 129              		.loc 1 47 16 is_stmt 0
 130 009c 233CB500 		sd	a1,24(a0)
  49:src/tcb.cpp   ****     this->args = args;
 131              		.loc 1 49 5 is_stmt 1
  49:src/tcb.cpp   ****     this->args = args;
 132              		.loc 1 49 16 is_stmt 0
 133 00a0 2330C502 		sd	a2,32(a0)
  51:src/tcb.cpp   ****     this->timeSlice = timeSlice;
 134              		.loc 1 51 5 is_stmt 1
  51:src/tcb.cpp   ****     this->timeSlice = timeSlice;
 135              		.loc 1 51 21 is_stmt 0
 136 00a4 2338E502 		sd	a4,48(a0)
  53:src/tcb.cpp   ****     this->stack = (body == nullptr) ? nullptr : stack;
 137              		.loc 1 53 5 is_stmt 1
  53:src/tcb.cpp   ****     this->stack = (body == nullptr) ? nullptr : stack;
 138              		.loc 1 53 37 is_stmt 0
 139 00a8 638A0502 		beqz	a1,.L10
 140 00ac 93870600 		mv	a5,a3
GAS LISTING /tmp/cczeRyx8.s 			page 6


 141              	.L8:
  53:src/tcb.cpp   ****     this->stack = (body == nullptr) ? nullptr : stack;
 142              		.loc 1 53 17 discriminator 4
 143 00b0 2334F502 		sd	a5,40(a0)
  56:src/tcb.cpp   ****     this->context = {(body == nullptr) ? 0 : (uint64)((char*)stack + DEFAULT_STACK_SIZE),
 144              		.loc 1 56 5 is_stmt 1 discriminator 4
  56:src/tcb.cpp   ****     this->context = {(body == nullptr) ? 0 : (uint64)((char*)stack + DEFAULT_STACK_SIZE),
 145              		.loc 1 56 40 is_stmt 0 discriminator 4
 146 00b4 63880502 		beqz	a1,.L11
  56:src/tcb.cpp   ****     this->context = {(body == nullptr) ? 0 : (uint64)((char*)stack + DEFAULT_STACK_SIZE),
 147              		.loc 1 56 68 discriminator 1
 148 00b8 B7170000 		li	a5,4096
 149 00bc B386F600 		add	a3,a3,a5
 150              	.LVL7:
 151              	.L9:
  56:src/tcb.cpp   ****     this->context = {(body == nullptr) ? 0 : (uint64)((char*)stack + DEFAULT_STACK_SIZE),
 152              		.loc 1 56 19 discriminator 4
 153 00c0 2330D500 		sd	a3,0(a0)
 154 00c4 97070000 		lla	a5,_ZN3TCB7wrapperEPv
 154      93870700 
 155 00cc 2334F500 		sd	a5,8(a0)
 156              	.LBE2:
  58:src/tcb.cpp   **** }
 157              		.loc 1 58 1 discriminator 4
 158 00d0 03348100 		ld	s0,8(sp)
 159              		.cfi_remember_state
 160              		.cfi_restore 8
 161              		.cfi_def_cfa 2, 16
 162 00d4 13010101 		addi	sp,sp,16
 163              		.cfi_def_cfa_offset 0
 164 00d8 67800000 		jr	ra
 165              	.LVL8:
 166              	.L10:
 167              		.cfi_restore_state
 168              	.LBB3:
  53:src/tcb.cpp   ****     this->stack = (body == nullptr) ? nullptr : stack;
 169              		.loc 1 53 37
 170 00dc 93070000 		li	a5,0
 171 00e0 6FF01FFD 		j	.L8
 172              	.L11:
  56:src/tcb.cpp   ****     this->context = {(body == nullptr) ? 0 : (uint64)((char*)stack + DEFAULT_STACK_SIZE),
 173              		.loc 1 56 40
 174 00e4 93060000 		li	a3,0
 175              	.LVL9:
 176 00e8 6FF09FFD 		j	.L9
 177              	.LBE3:
 178              		.cfi_endproc
 179              	.LFE44:
 181              		.globl	_ZN3TCBC1EPFvPvES0_Pmm
 182              		.set	_ZN3TCBC1EPFvPvES0_Pmm,_ZN3TCBC2EPFvPvES0_Pmm
 183              		.align	2
 184              		.globl	_ZN3TCB4freeEv
 186              	_ZN3TCB4freeEv:
 187              	.LFB46:
  61:src/tcb.cpp   **** void TCB::free(){
 188              		.loc 1 61 17 is_stmt 1
 189              		.cfi_startproc
GAS LISTING /tmp/cczeRyx8.s 			page 7


 190              	.LVL10:
 191 00ec 130101FF 		addi	sp,sp,-16
 192              		.cfi_def_cfa_offset 16
 193 00f0 23341100 		sd	ra,8(sp)
 194 00f4 23308100 		sd	s0,0(sp)
 195              		.cfi_offset 1, -8
 196              		.cfi_offset 8, -16
 197 00f8 13040101 		addi	s0,sp,16
 198              		.cfi_def_cfa 8, 0
  62:src/tcb.cpp   ****     kfree(stack);
 199              		.loc 1 62 5
  62:src/tcb.cpp   ****     kfree(stack);
 200              		.loc 1 62 10 is_stmt 0
 201 00fc 03358502 		ld	a0,40(a0)
 202              	.LVL11:
 203 0100 97000000 		call	_Z5kfreePKv@plt
 203      E7800000 
 204              	.LVL12:
  63:src/tcb.cpp   **** }
 205              		.loc 1 63 1
 206 0108 83308100 		ld	ra,8(sp)
 207              		.cfi_restore 1
 208 010c 03340100 		ld	s0,0(sp)
 209              		.cfi_restore 8
 210              		.cfi_def_cfa 2, 16
 211 0110 13010101 		addi	sp,sp,16
 212              		.cfi_def_cfa_offset 0
 213 0114 67800000 		jr	ra
 214              		.cfi_endproc
 215              	.LFE46:
 217              		.align	2
 218              		.globl	_ZN3TCBD2Ev
 220              	_ZN3TCBD2Ev:
 221              	.LFB48:
  65:src/tcb.cpp   **** TCB::~TCB(){
 222              		.loc 1 65 1 is_stmt 1
 223              		.cfi_startproc
 224              		.cfi_personality 0x9b,DW.ref.__gxx_personality_v0
 225              		.cfi_lsda 0x1b,.LLSDA48
 226              	.LVL13:
 227 0118 130101FF 		addi	sp,sp,-16
 228              		.cfi_def_cfa_offset 16
 229 011c 23341100 		sd	ra,8(sp)
 230 0120 23308100 		sd	s0,0(sp)
 231              		.cfi_offset 1, -8
 232              		.cfi_offset 8, -16
 233 0124 13040101 		addi	s0,sp,16
 234              		.cfi_def_cfa 8, 0
 235              	.LBB4:
  66:src/tcb.cpp   ****     free();
 236              		.loc 1 66 5
  66:src/tcb.cpp   ****     free();
 237              		.loc 1 66 9 is_stmt 0
 238 0128 97000000 		call	_ZN3TCB4freeEv
 238      E7800000 
 239              	.LVL14:
 240              	.LBE4:
GAS LISTING /tmp/cczeRyx8.s 			page 8


  67:src/tcb.cpp   **** }
 241              		.loc 1 67 1
 242 0130 83308100 		ld	ra,8(sp)
 243              		.cfi_restore 1
 244 0134 03340100 		ld	s0,0(sp)
 245              		.cfi_restore 8
 246              		.cfi_def_cfa 2, 16
 247 0138 13010101 		addi	sp,sp,16
 248              		.cfi_def_cfa_offset 0
 249 013c 67800000 		jr	ra
 250              		.cfi_endproc
 251              	.LFE48:
 252              		.globl	__gxx_personality_v0
 253              		.section	.gcc_except_table,"a",@progbits
 254              	.LLSDA48:
 255 0000 FF       		.byte	0xff
 256 0001 FF       		.byte	0xff
 257 0002 03       		.byte	0x3
 258 0003 00       		.byte	0
 259              		.text
 261              		.globl	_ZN3TCBD1Ev
 262              		.set	_ZN3TCBD1Ev,_ZN3TCBD2Ev
 263              		.align	2
 264              		.globl	_ZN3TCB8dispatchEv
 266              	_ZN3TCB8dispatchEv:
 267              	.LFB50:
  71:src/tcb.cpp   **** void TCB::dispatch() {
 268              		.loc 1 71 22 is_stmt 1
 269              		.cfi_startproc
 270 0140 130101FE 		addi	sp,sp,-32
 271              		.cfi_def_cfa_offset 32
 272 0144 233C1100 		sd	ra,24(sp)
 273 0148 23388100 		sd	s0,16(sp)
 274 014c 23349100 		sd	s1,8(sp)
 275              		.cfi_offset 1, -8
 276              		.cfi_offset 8, -16
 277              		.cfi_offset 9, -24
 278 0150 13040102 		addi	s0,sp,32
 279              		.cfi_def_cfa 8, 0
  72:src/tcb.cpp   ****     TCB* old = running;
 280              		.loc 1 72 5
  72:src/tcb.cpp   ****     TCB* old = running;
 281              		.loc 1 72 10 is_stmt 0
 282 0154 97040000 		ld	s1,.LANCHOR0
 282      83B40400 
 283              	.LVL15:
  74:src/tcb.cpp   ****     if(old->status == Status::READY || old->status == Status::RUNNING) {
 284              		.loc 1 74 5 is_stmt 1
  74:src/tcb.cpp   ****     if(old->status == Status::READY || old->status == Status::RUNNING) {
 285              		.loc 1 74 13 is_stmt 0
 286 015c 03A70401 		lw	a4,16(s1)
  74:src/tcb.cpp   ****     if(old->status == Status::READY || old->status == Status::RUNNING) {
 287              		.loc 1 74 5
 288 0160 93071000 		li	a5,1
 289 0164 63F6E704 		bleu	a4,a5,.L21
 290              	.L18:
  78:src/tcb.cpp   ****     running = Scheduler::get();
GAS LISTING /tmp/cczeRyx8.s 			page 9


 291              		.loc 1 78 5 is_stmt 1
  78:src/tcb.cpp   ****     running = Scheduler::get();
 292              		.loc 1 78 29 is_stmt 0
 293 0168 97000000 		call	_ZN9Scheduler3getEv@plt
 293      E7800000 
 294              	.LVL16:
  78:src/tcb.cpp   ****     running = Scheduler::get();
 295              		.loc 1 78 13
 296 0170 97070000 		sd	a0,.LANCHOR0,a5
 296      23B0A700 
  80:src/tcb.cpp   ****     if(running) {
 297              		.loc 1 80 5 is_stmt 1
 298 0178 63020502 		beqz	a0,.L17
  81:src/tcb.cpp   ****         running->status = Status::RUNNING;
 299              		.loc 1 81 9
  81:src/tcb.cpp   ****         running->status = Status::RUNNING;
 300              		.loc 1 81 25 is_stmt 0
 301 017c 23280500 		sw	zero,16(a0)
  82:src/tcb.cpp   ****         RiscV::jumpToDesignatedPrivilegeMode();
 302              		.loc 1 82 9 is_stmt 1
  82:src/tcb.cpp   ****         RiscV::jumpToDesignatedPrivilegeMode();
 303              		.loc 1 82 45 is_stmt 0
 304 0180 97000000 		call	_ZN5RiscV29jumpToDesignatedPrivilegeModeEv@plt
 304      E7800000 
 305              	.LVL17:
  83:src/tcb.cpp   ****         contextSwitch(&old->context, &running->context);
 306              		.loc 1 83 9 is_stmt 1
  83:src/tcb.cpp   ****         contextSwitch(&old->context, &running->context);
 307              		.loc 1 83 22 is_stmt 0
 308 0188 97050000 		ld	a1,.LANCHOR0
 308      83B50500 
 309 0190 13850400 		mv	a0,s1
 310 0194 97000000 		call	_ZN3TCB13contextSwitchEPNS_7ContextES1_@plt
 310      E7800000 
 311              	.LVL18:
 312              	.L17:
  85:src/tcb.cpp   **** }
 313              		.loc 1 85 1
 314 019c 83308101 		ld	ra,24(sp)
 315              		.cfi_remember_state
 316              		.cfi_restore 1
 317 01a0 03340101 		ld	s0,16(sp)
 318              		.cfi_restore 8
 319              		.cfi_def_cfa 2, 32
 320 01a4 83348100 		ld	s1,8(sp)
 321              		.cfi_restore 9
 322              	.LVL19:
 323 01a8 13010102 		addi	sp,sp,32
 324              		.cfi_def_cfa_offset 0
 325 01ac 67800000 		jr	ra
 326              	.LVL20:
 327              	.L21:
 328              		.cfi_restore_state
  75:src/tcb.cpp   ****         Scheduler::put(old);
 329              		.loc 1 75 9 is_stmt 1
  75:src/tcb.cpp   ****         Scheduler::put(old);
 330              		.loc 1 75 23 is_stmt 0
GAS LISTING /tmp/cczeRyx8.s 			page 10


 331 01b0 13850400 		mv	a0,s1
 332 01b4 97000000 		call	_ZN9Scheduler3putEP3TCB@plt
 332      E7800000 
 333              	.LVL21:
 334 01bc 6FF0DFFA 		j	.L18
 335              		.cfi_endproc
 336              	.LFE50:
 338              		.align	2
 339              		.globl	_ZN3TCBnwEm
 341              	_ZN3TCBnwEm:
 342              	.LFB52:
  97:src/tcb.cpp   **** void* TCB::operator new(size_t size){
 343              		.loc 1 97 37 is_stmt 1
 344              		.cfi_startproc
 345              	.LVL22:
 346 01c0 130101FF 		addi	sp,sp,-16
 347              		.cfi_def_cfa_offset 16
 348 01c4 23341100 		sd	ra,8(sp)
 349 01c8 23308100 		sd	s0,0(sp)
 350              		.cfi_offset 1, -8
 351              		.cfi_offset 8, -16
 352 01cc 13040101 		addi	s0,sp,16
 353              		.cfi_def_cfa 8, 0
  98:src/tcb.cpp   ****     return kmem_cache_alloc(TCB::tcbCache);
 354              		.loc 1 98 5
  98:src/tcb.cpp   ****     return kmem_cache_alloc(TCB::tcbCache);
 355              		.loc 1 98 28 is_stmt 0
 356 01d0 17050000 		ld	a0,.LANCHOR0+8
 356      03350500 
 357              	.LVL23:
 358 01d8 97000000 		call	_Z16kmem_cache_allocP5Cache@plt
 358      E7800000 
 359              	.LVL24:
  99:src/tcb.cpp   **** }
 360              		.loc 1 99 1
 361 01e0 83308100 		ld	ra,8(sp)
 362              		.cfi_restore 1
 363 01e4 03340100 		ld	s0,0(sp)
 364              		.cfi_restore 8
 365              		.cfi_def_cfa 2, 16
 366 01e8 13010101 		addi	sp,sp,16
 367              		.cfi_def_cfa_offset 0
 368 01ec 67800000 		jr	ra
 369              		.cfi_endproc
 370              	.LFE52:
 372              		.section	.rodata.str1.8,"aMS",@progbits,1
 373              		.align	3
 374              	.LC0:
 375 0000 54434220 		.string	"TCB Cache"
 375      43616368 
 375      6500
 376              		.text
 377              		.align	2
 378              		.globl	_ZN3TCB10initializeEv
 380              	_ZN3TCB10initializeEv:
 381              	.LFB42:
  26:src/tcb.cpp   **** void TCB::initialize() {
GAS LISTING /tmp/cczeRyx8.s 			page 11


 382              		.loc 1 26 24 is_stmt 1
 383              		.cfi_startproc
 384 01f0 130101FD 		addi	sp,sp,-48
 385              		.cfi_def_cfa_offset 48
 386 01f4 23341102 		sd	ra,40(sp)
 387 01f8 23308102 		sd	s0,32(sp)
 388 01fc 233C9100 		sd	s1,24(sp)
 389 0200 23382101 		sd	s2,16(sp)
 390 0204 23343101 		sd	s3,8(sp)
 391 0208 23304101 		sd	s4,0(sp)
 392              		.cfi_offset 1, -8
 393              		.cfi_offset 8, -16
 394              		.cfi_offset 9, -24
 395              		.cfi_offset 18, -32
 396              		.cfi_offset 19, -40
 397              		.cfi_offset 20, -48
 398 020c 13040103 		addi	s0,sp,48
 399              		.cfi_def_cfa 8, 0
  28:src/tcb.cpp   ****     TCB::tcbCache = kmem_cache_create("TCB Cache", sizeof(TCB), TCB::ctor, TCB::dtor);
 400              		.loc 1 28 5
  28:src/tcb.cpp   ****     TCB::tcbCache = kmem_cache_create("TCB Cache", sizeof(TCB), TCB::ctor, TCB::dtor);
 401              		.loc 1 28 38 is_stmt 0
 402 0210 97060000 		lla	a3,_ZN3TCB4dtorEPv
 402      93860600 
 403 0218 17060000 		lla	a2,_ZN3TCB4ctorEPv
 403      13060600 
 404 0220 93050007 		li	a1,112
 405 0224 17050000 		lla	a0,.LC0
 405      13050500 
 406 022c 97000000 		call	_Z17kmem_cache_createPKcmPFvPvES3_@plt
 406      E7800000 
 407              	.LVL25:
  28:src/tcb.cpp   ****     TCB::tcbCache = kmem_cache_create("TCB Cache", sizeof(TCB), TCB::ctor, TCB::dtor);
 408              		.loc 1 28 19
 409 0234 17090000 		lla	s2,.LANCHOR0
 409      13090900 
 410 023c 2334A900 		sd	a0,8(s2)
  30:src/tcb.cpp   ****     TCB::running = new TCB(nullptr, nullptr, nullptr, DEFAULT_TIME_SLICE);
 411              		.loc 1 30 5 is_stmt 1
  30:src/tcb.cpp   ****     TCB::running = new TCB(nullptr, nullptr, nullptr, DEFAULT_TIME_SLICE);
 412              		.loc 1 30 73 is_stmt 0
 413 0240 13050007 		li	a0,112
 414 0244 97000000 		call	_ZN3TCBnwEm
 414      E7800000 
 415              	.LVL26:
 416 024c 93040500 		mv	s1,a0
 417 0250 13072000 		li	a4,2
 418 0254 93060000 		li	a3,0
 419 0258 13060000 		li	a2,0
 420 025c 93050000 		li	a1,0
 421 0260 97000000 		call	_ZN3TCBC1EPFvPvES0_Pmm
 421      E7800000 
 422              	.LVL27:
  30:src/tcb.cpp   ****     TCB::running = new TCB(nullptr, nullptr, nullptr, DEFAULT_TIME_SLICE);
 423              		.loc 1 30 18
 424 0268 23309900 		sd	s1,0(s2)
  32:src/tcb.cpp   ****     TCB::running->mode = Mode::SUPERVISOR;
GAS LISTING /tmp/cczeRyx8.s 			page 12


 425              		.loc 1 32 5 is_stmt 1
  32:src/tcb.cpp   ****     TCB::running->mode = Mode::SUPERVISOR;
 426              		.loc 1 32 24 is_stmt 0
 427 026c 130A1000 		li	s4,1
 428 0270 23AA4401 		sw	s4,20(s1)
  34:src/tcb.cpp   ****     uint64 *putcStack = (uint64*)kmalloc(DEFAULT_STACK_SIZE);
 429              		.loc 1 34 5 is_stmt 1
  34:src/tcb.cpp   ****     uint64 *putcStack = (uint64*)kmalloc(DEFAULT_STACK_SIZE);
 430              		.loc 1 34 41 is_stmt 0
 431 0274 37150000 		li	a0,4096
 432 0278 97000000 		call	_Z7kmallocm@plt
 432      E7800000 
 433              	.LVL28:
 434 0280 93090500 		mv	s3,a0
 435              	.LVL29:
  37:src/tcb.cpp   ****     putcThread = new TCB(RiscV::putcWrapper, nullptr, putcStack, DEFAULT_TIME_SLICE);
 436              		.loc 1 37 5 is_stmt 1
  37:src/tcb.cpp   ****     putcThread = new TCB(RiscV::putcWrapper, nullptr, putcStack, DEFAULT_TIME_SLICE);
 437              		.loc 1 37 84 is_stmt 0
 438 0284 13050007 		li	a0,112
 439              	.LVL30:
 440 0288 97000000 		call	_ZN3TCBnwEm
 440      E7800000 
 441              	.LVL31:
 442 0290 93040500 		mv	s1,a0
 443 0294 13072000 		li	a4,2
 444 0298 93860900 		mv	a3,s3
 445 029c 13060000 		li	a2,0
 446 02a0 97050000 		la	a1,_ZN5RiscV11putcWrapperEPv
 446      83B50500 
 447 02a8 97000000 		call	_ZN3TCBC1EPFvPvES0_Pmm
 447      E7800000 
 448              	.LVL32:
  37:src/tcb.cpp   ****     putcThread = new TCB(RiscV::putcWrapper, nullptr, putcStack, DEFAULT_TIME_SLICE);
 449              		.loc 1 37 16
 450 02b0 23389900 		sd	s1,16(s2)
  39:src/tcb.cpp   ****     putcThread->mode = Mode::SUPERVISOR;
 451              		.loc 1 39 5 is_stmt 1
  39:src/tcb.cpp   ****     putcThread->mode = Mode::SUPERVISOR;
 452              		.loc 1 39 22 is_stmt 0
 453 02b4 23AA4401 		sw	s4,20(s1)
  41:src/tcb.cpp   ****     Scheduler::put(putcThread);
 454              		.loc 1 41 5 is_stmt 1
  41:src/tcb.cpp   ****     Scheduler::put(putcThread);
 455              		.loc 1 41 19 is_stmt 0
 456 02b8 13850400 		mv	a0,s1
 457 02bc 97000000 		call	_ZN9Scheduler3putEP3TCB@plt
 457      E7800000 
 458              	.LVL33:
  42:src/tcb.cpp   **** }
 459              		.loc 1 42 1
 460 02c4 83308102 		ld	ra,40(sp)
 461              		.cfi_restore 1
 462 02c8 03340102 		ld	s0,32(sp)
 463              		.cfi_restore 8
 464              		.cfi_def_cfa 2, 48
 465 02cc 83348101 		ld	s1,24(sp)
GAS LISTING /tmp/cczeRyx8.s 			page 13


 466              		.cfi_restore 9
 467 02d0 03390101 		ld	s2,16(sp)
 468              		.cfi_restore 18
 469 02d4 83398100 		ld	s3,8(sp)
 470              		.cfi_restore 19
 471              	.LVL34:
 472 02d8 033A0100 		ld	s4,0(sp)
 473              		.cfi_restore 20
 474 02dc 13010103 		addi	sp,sp,48
 475              		.cfi_def_cfa_offset 0
 476 02e0 67800000 		jr	ra
 477              		.cfi_endproc
 478              	.LFE42:
 480              		.align	2
 481              		.globl	_ZN3TCBdlEPv
 483              	_ZN3TCBdlEPv:
 484              	.LFB53:
 102:src/tcb.cpp   **** void TCB::operator delete(void *addr){
 485              		.loc 1 102 38 is_stmt 1
 486              		.cfi_startproc
 487              	.LVL35:
 488 02e4 130101FF 		addi	sp,sp,-16
 489              		.cfi_def_cfa_offset 16
 490 02e8 23341100 		sd	ra,8(sp)
 491 02ec 23308100 		sd	s0,0(sp)
 492              		.cfi_offset 1, -8
 493              		.cfi_offset 8, -16
 494 02f0 13040101 		addi	s0,sp,16
 495              		.cfi_def_cfa 8, 0
 496 02f4 93050500 		mv	a1,a0
 103:src/tcb.cpp   ****     kmem_cache_free(TCB::tcbCache, addr);
 497              		.loc 1 103 5
 103:src/tcb.cpp   ****     kmem_cache_free(TCB::tcbCache, addr);
 498              		.loc 1 103 20 is_stmt 0
 499 02f8 17050000 		ld	a0,.LANCHOR0+8
 499      03350500 
 500              	.LVL36:
 501 0300 97000000 		call	_Z15kmem_cache_freeP5CachePv@plt
 501      E7800000 
 502              	.LVL37:
 104:src/tcb.cpp   **** }
 503              		.loc 1 104 1
 504 0308 83308100 		ld	ra,8(sp)
 505              		.cfi_restore 1
 506 030c 03340100 		ld	s0,0(sp)
 507              		.cfi_restore 8
 508              		.cfi_def_cfa 2, 16
 509 0310 13010101 		addi	sp,sp,16
 510              		.cfi_def_cfa_offset 0
 511 0314 67800000 		jr	ra
 512              		.cfi_endproc
 513              	.LFE53:
 515              		.align	2
 516              		.globl	_ZN3TCB11thread_freeEPv
 518              	_ZN3TCB11thread_freeEPv:
 519              	.LFB54:
 107:src/tcb.cpp   **** int TCB::thread_free(void *addr) {
GAS LISTING /tmp/cczeRyx8.s 			page 14


 520              		.loc 1 107 34 is_stmt 1
 521              		.cfi_startproc
 522              	.LVL38:
 523 0318 130101FF 		addi	sp,sp,-16
 524              		.cfi_def_cfa_offset 16
 525 031c 23348100 		sd	s0,8(sp)
 526              		.cfi_offset 8, -8
 527 0320 13040101 		addi	s0,sp,16
 528              		.cfi_def_cfa 8, 0
 108:src/tcb.cpp   ****     uint64 iptr = (uint64)addr;
 529              		.loc 1 108 5
 530              	.LVL39:
 110:src/tcb.cpp   ****     asm("mv a1, %[iptr]" : : [iptr] "r" (iptr));
 531              		.loc 1 110 5
 110:src/tcb.cpp   ****     asm("mv a1, %[iptr]" : : [iptr] "r" (iptr));
 532              		.loc 1 110 48 is_stmt 0
 533              	#APP
 534              	# 110 "src/tcb.cpp" 1
 111:src/tcb.cpp   ****     asm("li a0, 0x51");
 535              		mv a1, a0
 536              	# 0 "" 2
 537              		.loc 1 111 5 is_stmt 1
 111:src/tcb.cpp   ****     asm("li a0, 0x51");
 538              		.loc 1 111 23 is_stmt 0
 539              	# 111 "src/tcb.cpp" 1
 112:src/tcb.cpp   ****     asm("ecall");
 540              		li a0, 0x51
 541              	# 0 "" 2
 542              		.loc 1 112 5 is_stmt 1
 112:src/tcb.cpp   ****     asm("ecall");
 543              		.loc 1 112 17 is_stmt 0
 544              	# 112 "src/tcb.cpp" 1
 114:src/tcb.cpp   ****     uint64 status;
 545              		ecall
 546              	# 0 "" 2
 547              		.loc 1 114 5 is_stmt 1
 116:src/tcb.cpp   ****     asm("mv %[status], a0" : [status] "=r" (status));
 548              		.loc 1 116 5
 116:src/tcb.cpp   ****     asm("mv %[status], a0" : [status] "=r" (status));
 549              		.loc 1 116 53 is_stmt 0
 550              	# 116 "src/tcb.cpp" 1
 551              		mv a0, a0
 552              	# 0 "" 2
 553              	.LVL40:
 117:src/tcb.cpp   ****     return status;
 554              		.loc 1 117 5 is_stmt 1
 118:src/tcb.cpp   **** }
 555              		.loc 1 118 1 is_stmt 0
 556              	#NO_APP
 557 0334 1B050500 		sext.w	a0,a0
 558              	.LVL41:
 559 0338 03348100 		ld	s0,8(sp)
 560              		.cfi_restore 8
 561              		.cfi_def_cfa 2, 16
 562 033c 13010101 		addi	sp,sp,16
 563              		.cfi_def_cfa_offset 0
 564 0340 67800000 		jr	ra
GAS LISTING /tmp/cczeRyx8.s 			page 15


 565              		.cfi_endproc
 566              	.LFE54:
 568              		.globl	_ZN3TCB8tcbCacheE
 569              		.globl	_ZN3TCB16timeSliceCounterE
 570              		.globl	_ZN3TCB9currentSPE
 571              		.globl	_ZN3TCB9currentPCE
 572              		.globl	_ZN3TCB10putcThreadE
 573              		.globl	_ZN3TCB7runningE
 574              		.bss
 575              		.align	3
 576              		.set	.LANCHOR0,. + 0
 579              	_ZN3TCB7runningE:
 580 0000 00000000 		.zero	8
 580      00000000 
 583              	_ZN3TCB8tcbCacheE:
 584 0008 00000000 		.zero	8
 584      00000000 
 587              	_ZN3TCB10putcThreadE:
 588 0010 00000000 		.zero	8
 588      00000000 
 591              	_ZN3TCB16timeSliceCounterE:
 592 0018 00000000 		.zero	8
 592      00000000 
 595              	_ZN3TCB9currentSPE:
 596 0020 00000000 		.zero	8
 596      00000000 
 599              	_ZN3TCB9currentPCE:
 600 0028 00000000 		.zero	8
 600      00000000 
 601              		.text
 602              	.Letext0:
 603              		.file 2 "src/../h/../lib/hw.h"
 604              		.file 3 "src/../h/../h/../h/../h/utility.hpp"
 605              		.file 4 "src/../h/../h/../h/../h/../h/slab_t.hpp"
 606              		.file 5 "src/../h/../h/../h/../h/cache_t.hpp"
 607              		.file 6 "src/../h/tcb.hpp"
 608              		.file 7 "src/../h/scheduler.hpp"
 609              		.file 8 "src/../h/riscv.hpp"
 610              		.file 9 "src/../h/../h/slab.hpp"
 611              		.file 10 "src/../h/syscall_c.h"
 3855              		.align	3
 3858              	DW.ref.__gxx_personality_v0:
 3859 0000 00000000 		.dword	__gxx_personality_v0
 3859      00000000 
 3860              		.ident	"GCC: (Ubuntu 9.4.0-1ubuntu1~20.04) 9.4.0"
 3861              		.section	.note.GNU-stack,"",@progbits
GAS LISTING /tmp/cczeRyx8.s 			page 16

