GAS LISTING /tmp/ccfVfwaQ.s 			page 1


   1              		.file	"consoleUtil.cpp"
   2              		.option pic
   3              		.option norelax
   4              		.text
   5              	.Ltext0:
   6              		.align	2
   7              		.globl	_ZN11ConsoleUtil10initializeEv
   9              	_ZN11ConsoleUtil10initializeEv:
  10              	.LFB22:
  11              		.file 1 "src/kernel/consoleUtil.cpp"
   1:src/kernel/consoleUtil.cpp **** //
   2:src/kernel/consoleUtil.cpp **** // Created by os on 5/29/22.
   3:src/kernel/consoleUtil.cpp **** //
   4:src/kernel/consoleUtil.cpp **** 
   5:src/kernel/consoleUtil.cpp **** #include "../../h/consoleUtil.hpp"
   6:src/kernel/consoleUtil.cpp **** #include "../../h/printing.hpp"
   7:src/kernel/consoleUtil.cpp **** #include "../../h/scb.hpp"
   8:src/kernel/consoleUtil.cpp **** 
   9:src/kernel/consoleUtil.cpp **** uint64 ConsoleUtil::inputHead = 0;
  10:src/kernel/consoleUtil.cpp **** uint64 ConsoleUtil::inputTail = 0;
  11:src/kernel/consoleUtil.cpp **** uint64 ConsoleUtil::outputHead = 0;
  12:src/kernel/consoleUtil.cpp **** uint64 ConsoleUtil::outputTail = 0;
  13:src/kernel/consoleUtil.cpp **** 
  14:src/kernel/consoleUtil.cpp **** uint64 ConsoleUtil::pendingGetc = 0;
  15:src/kernel/consoleUtil.cpp **** uint64 ConsoleUtil::pendingPutc = 0;
  16:src/kernel/consoleUtil.cpp **** 
  17:src/kernel/consoleUtil.cpp **** SCB* ConsoleUtil::outputSem = nullptr;
  18:src/kernel/consoleUtil.cpp **** SCB* ConsoleUtil::inputSem = nullptr;
  19:src/kernel/consoleUtil.cpp **** 
  20:src/kernel/consoleUtil.cpp **** //char* ConsoleUtil::inputBuffer = nullptr;
  21:src/kernel/consoleUtil.cpp **** //char* ConsoleUtil::outputBuffer = nullptr;
  22:src/kernel/consoleUtil.cpp **** char ConsoleUtil::inputBuffer[8192];
  23:src/kernel/consoleUtil.cpp **** char ConsoleUtil::outputBuffer[8192];
  24:src/kernel/consoleUtil.cpp **** 
  25:src/kernel/consoleUtil.cpp **** uint64 ConsoleUtil::bufferSize = 8192;
  26:src/kernel/consoleUtil.cpp **** 
  27:src/kernel/consoleUtil.cpp **** void ConsoleUtil::initialize() {
  12              		.loc 1 27 32
  13              		.cfi_startproc
  14              		.cfi_personality 0x9b,DW.ref.__gxx_personality_v0
  15              		.cfi_lsda 0x1b,.LLSDA22
  16 0000 130101FE 		addi	sp,sp,-32
  17              		.cfi_def_cfa_offset 32
  18 0004 233C1100 		sd	ra,24(sp)
  19 0008 23388100 		sd	s0,16(sp)
  20 000c 23349100 		sd	s1,8(sp)
  21 0010 23302101 		sd	s2,0(sp)
  22              		.cfi_offset 1, -8
  23              		.cfi_offset 8, -16
  24              		.cfi_offset 9, -24
  25              		.cfi_offset 18, -32
  26 0014 13040102 		addi	s0,sp,32
  27              		.cfi_def_cfa 8, 0
  28:src/kernel/consoleUtil.cpp ****     inputSem = new SCB(0);
  28              		.loc 1 28 5
  29              		.loc 1 28 25 is_stmt 0
  30 0018 13058001 		li	a0,24
GAS LISTING /tmp/ccfVfwaQ.s 			page 2


  31              	.LEHB0:
  32 001c 97000000 		call	_ZN3SCBnwEm@plt
  32      E7800000 
  33              	.LVL0:
  34              	.LEHE0:
  35 0024 93040500 		mv	s1,a0
  36 0028 63080500 		beqz	a0,.L2
  37              		.loc 1 28 25 discriminator 1
  38 002c 93050000 		li	a1,0
  39              	.LEHB1:
  40 0030 97000000 		call	_ZN3SCBC1Em@plt
  40      E7800000 
  41              	.LVL1:
  42              	.LEHE1:
  43              	.L2:
  44              		.loc 1 28 14 discriminator 6
  45 0038 97070000 		sd	s1,.LANCHOR0,a5
  45      23B09700 
  29:src/kernel/consoleUtil.cpp ****     outputSem = new SCB(0);
  46              		.loc 1 29 5 is_stmt 1 discriminator 6
  47              		.loc 1 29 26 is_stmt 0 discriminator 6
  48 0040 13058001 		li	a0,24
  49              	.LEHB2:
  50 0044 97000000 		call	_ZN3SCBnwEm@plt
  50      E7800000 
  51              	.LVL2:
  52              	.LEHE2:
  53 004c 93040500 		mv	s1,a0
  54 0050 63080500 		beqz	a0,.L3
  55              		.loc 1 29 26 discriminator 1
  56 0054 93050000 		li	a1,0
  57              	.LEHB3:
  58 0058 97000000 		call	_ZN3SCBC1Em@plt
  58      E7800000 
  59              	.LVL3:
  60              	.LEHE3:
  61              	.L3:
  62              		.loc 1 29 15 discriminator 6
  63 0060 97070000 		sd	s1,.LANCHOR0+8,a5
  63      23B09700 
  30:src/kernel/consoleUtil.cpp **** //    inputBuffer = (char*)kmalloc(ConsoleUtil::bufferSize);
  31:src/kernel/consoleUtil.cpp **** //    outputBuffer = (char*)kmalloc(ConsoleUtil::bufferSize);
  32:src/kernel/consoleUtil.cpp **** }
  64              		.loc 1 32 1 discriminator 6
  65 0068 83308101 		ld	ra,24(sp)
  66              		.cfi_remember_state
  67              		.cfi_restore 1
  68 006c 03340101 		ld	s0,16(sp)
  69              		.cfi_restore 8
  70              		.cfi_def_cfa 2, 32
  71 0070 83348100 		ld	s1,8(sp)
  72              		.cfi_restore 9
  73 0074 03390100 		ld	s2,0(sp)
  74              		.cfi_restore 18
  75 0078 13010102 		addi	sp,sp,32
  76              		.cfi_def_cfa_offset 0
  77 007c 67800000 		jr	ra
GAS LISTING /tmp/ccfVfwaQ.s 			page 3


  78              	.L6:
  79              		.cfi_restore_state
  80 0080 13090500 		mv	s2,a0
  28:src/kernel/consoleUtil.cpp ****     outputSem = new SCB(0);
  81              		.loc 1 28 25
  82 0084 13850400 		mv	a0,s1
  83 0088 97000000 		call	_ZN3SCBdlEPv@plt
  83      E7800000 
  84              	.LVL4:
  85 0090 13050900 		mv	a0,s2
  86              	.LEHB4:
  87 0094 97000000 		call	_Unwind_Resume@plt
  87      E7800000 
  88              	.LVL5:
  89              	.LEHE4:
  90              	.L7:
  91 009c 13090500 		mv	s2,a0
  29:src/kernel/consoleUtil.cpp ****     outputSem = new SCB(0);
  92              		.loc 1 29 26
  93 00a0 13850400 		mv	a0,s1
  94 00a4 97000000 		call	_ZN3SCBdlEPv@plt
  94      E7800000 
  95              	.LVL6:
  96 00ac 13050900 		mv	a0,s2
  97              	.LEHB5:
  98 00b0 97000000 		call	_Unwind_Resume@plt
  98      E7800000 
  99              	.LVL7:
 100              	.LEHE5:
 101              		.cfi_endproc
 102              	.LFE22:
 103              		.globl	__gxx_personality_v0
 104              		.section	.gcc_except_table,"a",@progbits
 105              	.LLSDA22:
 106 0000 FF       		.byte	0xff
 107 0001 FF       		.byte	0xff
 108 0002 03       		.byte	0x3
 109 0003 4E       		.byte	0x4e
 110 0004 00000000 		.4byte	.LEHB0-.LFB22
 111 0008 00000000 		.4byte	.LEHE0-.LEHB0
 112 000c 00000000 		.4byte	0
 113 0010 00       		.byte	0
 114 0011 00000000 		.4byte	.LEHB1-.LFB22
 115 0015 00000000 		.4byte	.LEHE1-.LEHB1
 116 0019 00000000 		.4byte	.L6-.LFB22
 117 001d 00       		.byte	0
 118 001e 00000000 		.4byte	.LEHB2-.LFB22
 119 0022 00000000 		.4byte	.LEHE2-.LEHB2
 120 0026 00000000 		.4byte	0
 121 002a 00       		.byte	0
 122 002b 00000000 		.4byte	.LEHB3-.LFB22
 123 002f 00000000 		.4byte	.LEHE3-.LEHB3
 124 0033 00000000 		.4byte	.L7-.LFB22
 125 0037 00       		.byte	0
 126 0038 00000000 		.4byte	.LEHB4-.LFB22
 127 003c 00000000 		.4byte	.LEHE4-.LEHB4
 128 0040 00000000 		.4byte	0
GAS LISTING /tmp/ccfVfwaQ.s 			page 4


 129 0044 00       		.byte	0
 130 0045 00000000 		.4byte	.LEHB5-.LFB22
 131 0049 00000000 		.4byte	.LEHE5-.LEHB5
 132 004d 00000000 		.4byte	0
 133 0051 00       		.byte	0
 134              		.text
 136              		.align	2
 137              		.globl	_ZN11ConsoleUtil8putInputEc
 139              	_ZN11ConsoleUtil8putInputEc:
 140              	.LFB23:
  33:src/kernel/consoleUtil.cpp **** 
  34:src/kernel/consoleUtil.cpp **** void ConsoleUtil::putInput(char c) {
 141              		.loc 1 34 36 is_stmt 1
 142              		.cfi_startproc
 143              	.LVL8:
  35:src/kernel/consoleUtil.cpp ****     if((inputTail+1)%bufferSize == inputHead)
 144              		.loc 1 35 5
 145              		.loc 1 35 18 is_stmt 0
 146 00b8 17070000 		lla	a4,.LANCHOR0
 146      13070700 
 147 00c0 83360701 		ld	a3,16(a4)
 148 00c4 93871600 		addi	a5,a3,1
 149              		.loc 1 35 21
 150 00c8 17060000 		ld	a2,.LANCHOR1
 150      03360600 
 151 00d0 B3F7C702 		remu	a5,a5,a2
 152              		.loc 1 35 33
 153 00d4 03378701 		ld	a4,24(a4)
 154              		.loc 1 35 5
 155 00d8 6386E704 		beq	a5,a4,.L13
  34:src/kernel/consoleUtil.cpp ****     if((inputTail+1)%bufferSize == inputHead)
 156              		.loc 1 34 36
 157 00dc 130101FF 		addi	sp,sp,-16
 158              		.cfi_def_cfa_offset 16
 159 00e0 23341100 		sd	ra,8(sp)
 160 00e4 23308100 		sd	s0,0(sp)
 161              		.cfi_offset 1, -8
 162              		.cfi_offset 8, -16
 163 00e8 13040101 		addi	s0,sp,16
 164              		.cfi_def_cfa 8, 0
  36:src/kernel/consoleUtil.cpp ****         return;
  37:src/kernel/consoleUtil.cpp ****     inputBuffer[inputTail] = c;
 165              		.loc 1 37 5 is_stmt 1
 166              		.loc 1 37 28 is_stmt 0
 167 00ec 17070000 		lla	a4,_ZN11ConsoleUtil11inputBufferE
 167      13070700 
 168 00f4 B306D700 		add	a3,a4,a3
 169 00f8 2380A600 		sb	a0,0(a3)
  38:src/kernel/consoleUtil.cpp ****     inputTail = (inputTail+1)%bufferSize;
 170              		.loc 1 38 5 is_stmt 1
 171              		.loc 1 38 15 is_stmt 0
 172 00fc 17070000 		lla	a4,.LANCHOR0
 172      13070700 
 173 0104 2338F700 		sd	a5,16(a4)
  39:src/kernel/consoleUtil.cpp ****     inputSem->signal();
 174              		.loc 1 39 5 is_stmt 1
 175              		.loc 1 39 21 is_stmt 0
GAS LISTING /tmp/ccfVfwaQ.s 			page 5


 176 0108 03350700 		ld	a0,0(a4)
 177              	.LVL9:
 178 010c 97000000 		call	_ZN3SCB6signalEv@plt
 178      E7800000 
 179              	.LVL10:
  40:src/kernel/consoleUtil.cpp **** }
 180              		.loc 1 40 1
 181 0114 83308100 		ld	ra,8(sp)
 182              		.cfi_restore 1
 183 0118 03340100 		ld	s0,0(sp)
 184              		.cfi_restore 8
 185              		.cfi_def_cfa 2, 16
 186 011c 13010101 		addi	sp,sp,16
 187              		.cfi_def_cfa_offset 0
 188 0120 67800000 		jr	ra
 189              	.LVL11:
 190              	.L13:
 191 0124 67800000 		ret
 192              		.cfi_endproc
 193              	.LFE23:
 195              		.align	2
 196              		.globl	_ZN11ConsoleUtil8getInputEv
 198              	_ZN11ConsoleUtil8getInputEv:
 199              	.LFB24:
  41:src/kernel/consoleUtil.cpp **** 
  42:src/kernel/consoleUtil.cpp **** char ConsoleUtil::getInput() {
 200              		.loc 1 42 30 is_stmt 1
 201              		.cfi_startproc
 202 0128 130101FE 		addi	sp,sp,-32
 203              		.cfi_def_cfa_offset 32
 204 012c 233C1100 		sd	ra,24(sp)
 205 0130 23388100 		sd	s0,16(sp)
 206 0134 23349100 		sd	s1,8(sp)
 207              		.cfi_offset 1, -8
 208              		.cfi_offset 8, -16
 209              		.cfi_offset 9, -24
 210 0138 13040102 		addi	s0,sp,32
 211              		.cfi_def_cfa 8, 0
  43:src/kernel/consoleUtil.cpp ****     inputSem->wait();
 212              		.loc 1 43 5
 213              		.loc 1 43 19 is_stmt 0
 214 013c 97040000 		lla	s1,.LANCHOR0
 214      93840400 
 215 0144 03B50400 		ld	a0,0(s1)
 216 0148 97000000 		call	_ZN3SCB4waitEv@plt
 216      E7800000 
 217              	.LVL12:
  44:src/kernel/consoleUtil.cpp **** 
  45:src/kernel/consoleUtil.cpp ****     if(inputHead == inputTail)
 218              		.loc 1 45 5 is_stmt 1
 219              		.loc 1 45 18 is_stmt 0
 220 0150 83B78401 		ld	a5,24(s1)
 221 0154 03B70401 		ld	a4,16(s1)
 222              		.loc 1 45 5
 223 0158 6380E704 		beq	a5,a4,.L18
  46:src/kernel/consoleUtil.cpp ****         return -1;
  47:src/kernel/consoleUtil.cpp ****     char c = inputBuffer[inputHead];
GAS LISTING /tmp/ccfVfwaQ.s 			page 6


 224              		.loc 1 47 5 is_stmt 1
 225              		.loc 1 47 10 is_stmt 0
 226 015c 17070000 		lla	a4,_ZN11ConsoleUtil11inputBufferE
 226      13070700 
 227 0164 3307F700 		add	a4,a4,a5
 228 0168 03450700 		lbu	a0,0(a4)
 229              	.LVL13:
  48:src/kernel/consoleUtil.cpp **** 
  49:src/kernel/consoleUtil.cpp ****     inputHead = (inputHead+1)%bufferSize;
 230              		.loc 1 49 5 is_stmt 1
 231              		.loc 1 49 27 is_stmt 0
 232 016c 93871700 		addi	a5,a5,1
 233              		.loc 1 49 30
 234 0170 17070000 		ld	a4,.LANCHOR1
 234      03370700 
 235 0178 B3F7E702 		remu	a5,a5,a4
 236              		.loc 1 49 15
 237 017c 17070000 		sd	a5,.LANCHOR0+24,a4
 237      2330F700 
  50:src/kernel/consoleUtil.cpp **** 
  51:src/kernel/consoleUtil.cpp ****     return c;
 238              		.loc 1 51 5 is_stmt 1
 239              	.LVL14:
 240              	.L17:
  52:src/kernel/consoleUtil.cpp **** }
 241              		.loc 1 52 1 is_stmt 0
 242 0184 83308101 		ld	ra,24(sp)
 243              		.cfi_remember_state
 244              		.cfi_restore 1
 245 0188 03340101 		ld	s0,16(sp)
 246              		.cfi_restore 8
 247              		.cfi_def_cfa 2, 32
 248 018c 83348100 		ld	s1,8(sp)
 249              		.cfi_restore 9
 250 0190 13010102 		addi	sp,sp,32
 251              		.cfi_def_cfa_offset 0
 252 0194 67800000 		jr	ra
 253              	.L18:
 254              		.cfi_restore_state
  46:src/kernel/consoleUtil.cpp ****     char c = inputBuffer[inputHead];
 255              		.loc 1 46 17
 256 0198 1305F00F 		li	a0,255
 257 019c 6FF09FFE 		j	.L17
 258              		.cfi_endproc
 259              	.LFE24:
 261              		.align	2
 262              		.globl	_ZN11ConsoleUtil9putOutputEc
 264              	_ZN11ConsoleUtil9putOutputEc:
 265              	.LFB25:
  53:src/kernel/consoleUtil.cpp **** 
  54:src/kernel/consoleUtil.cpp **** void ConsoleUtil::putOutput(char c) {
 266              		.loc 1 54 37 is_stmt 1
 267              		.cfi_startproc
 268              	.LVL15:
  55:src/kernel/consoleUtil.cpp ****     pendingPutc++;
 269              		.loc 1 55 5
 270              		.loc 1 55 16 is_stmt 0
GAS LISTING /tmp/ccfVfwaQ.s 			page 7


 271 01a0 97070000 		lla	a5,.LANCHOR0
 271      93870700 
 272 01a8 83B60702 		ld	a3,32(a5)
 273 01ac 13871600 		addi	a4,a3,1
 274 01b0 23B0E702 		sd	a4,32(a5)
  56:src/kernel/consoleUtil.cpp **** 
  57:src/kernel/consoleUtil.cpp ****     if((outputTail+1)%bufferSize == outputHead)
 275              		.loc 1 57 5 is_stmt 1
 276              		.loc 1 57 19 is_stmt 0
 277 01b4 03B68702 		ld	a2,40(a5)
 278 01b8 13071600 		addi	a4,a2,1
 279              		.loc 1 57 22
 280 01bc 97050000 		ld	a1,.LANCHOR1
 280      83B50500 
 281 01c4 3377B702 		remu	a4,a4,a1
 282              		.loc 1 57 34
 283 01c8 83B70703 		ld	a5,48(a5)
 284              		.loc 1 57 5
 285 01cc 6308F704 		beq	a4,a5,.L23
  54:src/kernel/consoleUtil.cpp ****     pendingPutc++;
 286              		.loc 1 54 37
 287 01d0 130101FF 		addi	sp,sp,-16
 288              		.cfi_def_cfa_offset 16
 289 01d4 23341100 		sd	ra,8(sp)
 290 01d8 23308100 		sd	s0,0(sp)
 291              		.cfi_offset 1, -8
 292              		.cfi_offset 8, -16
 293 01dc 13040101 		addi	s0,sp,16
 294              		.cfi_def_cfa 8, 0
  58:src/kernel/consoleUtil.cpp ****         return;
  59:src/kernel/consoleUtil.cpp **** 
  60:src/kernel/consoleUtil.cpp ****     outputBuffer[outputTail] = c;
 295              		.loc 1 60 5 is_stmt 1
 296              		.loc 1 60 30 is_stmt 0
 297 01e0 97070000 		lla	a5,_ZN11ConsoleUtil12outputBufferE
 297      93870700 
 298 01e8 3386C700 		add	a2,a5,a2
 299 01ec 2300A600 		sb	a0,0(a2)
  61:src/kernel/consoleUtil.cpp **** 
  62:src/kernel/consoleUtil.cpp ****     outputTail = (outputTail+1)%bufferSize;
 300              		.loc 1 62 5 is_stmt 1
 301              		.loc 1 62 16 is_stmt 0
 302 01f0 97070000 		lla	a5,.LANCHOR0
 302      93870700 
 303 01f8 23B4E702 		sd	a4,40(a5)
  63:src/kernel/consoleUtil.cpp **** 
  64:src/kernel/consoleUtil.cpp ****     pendingPutc--;
 304              		.loc 1 64 5 is_stmt 1
 305              		.loc 1 64 16 is_stmt 0
 306 01fc 23B0D702 		sd	a3,32(a5)
  65:src/kernel/consoleUtil.cpp **** 
  66:src/kernel/consoleUtil.cpp ****     outputSem->signal();
 307              		.loc 1 66 5 is_stmt 1
 308              		.loc 1 66 22 is_stmt 0
 309 0200 03B58700 		ld	a0,8(a5)
 310              	.LVL16:
 311 0204 97000000 		call	_ZN3SCB6signalEv@plt
GAS LISTING /tmp/ccfVfwaQ.s 			page 8


 311      E7800000 
 312              	.LVL17:
  67:src/kernel/consoleUtil.cpp **** }
 313              		.loc 1 67 1
 314 020c 83308100 		ld	ra,8(sp)
 315              		.cfi_restore 1
 316 0210 03340100 		ld	s0,0(sp)
 317              		.cfi_restore 8
 318              		.cfi_def_cfa 2, 16
 319 0214 13010101 		addi	sp,sp,16
 320              		.cfi_def_cfa_offset 0
 321 0218 67800000 		jr	ra
 322              	.LVL18:
 323              	.L23:
 324 021c 67800000 		ret
 325              		.cfi_endproc
 326              	.LFE25:
 328              		.align	2
 329              		.globl	_ZN11ConsoleUtil9getOutputEv
 331              	_ZN11ConsoleUtil9getOutputEv:
 332              	.LFB26:
  68:src/kernel/consoleUtil.cpp **** 
  69:src/kernel/consoleUtil.cpp **** char ConsoleUtil::getOutput() {
 333              		.loc 1 69 31 is_stmt 1
 334              		.cfi_startproc
 335 0220 130101FE 		addi	sp,sp,-32
 336              		.cfi_def_cfa_offset 32
 337 0224 233C1100 		sd	ra,24(sp)
 338 0228 23388100 		sd	s0,16(sp)
 339 022c 23349100 		sd	s1,8(sp)
 340              		.cfi_offset 1, -8
 341              		.cfi_offset 8, -16
 342              		.cfi_offset 9, -24
 343 0230 13040102 		addi	s0,sp,32
 344              		.cfi_def_cfa 8, 0
  70:src/kernel/consoleUtil.cpp ****     outputSem->wait();
 345              		.loc 1 70 5
 346              		.loc 1 70 20 is_stmt 0
 347 0234 97040000 		lla	s1,.LANCHOR0
 347      93840400 
 348 023c 03B58400 		ld	a0,8(s1)
 349 0240 97000000 		call	_ZN3SCB4waitEv@plt
 349      E7800000 
 350              	.LVL19:
  71:src/kernel/consoleUtil.cpp ****     if(outputHead == outputTail)
 351              		.loc 1 71 5 is_stmt 1
 352              		.loc 1 71 19 is_stmt 0
 353 0248 83B70403 		ld	a5,48(s1)
 354 024c 03B78402 		ld	a4,40(s1)
 355              		.loc 1 71 5
 356 0250 6380E704 		beq	a5,a4,.L28
  72:src/kernel/consoleUtil.cpp ****         return -1;
  73:src/kernel/consoleUtil.cpp **** 
  74:src/kernel/consoleUtil.cpp ****     char c = outputBuffer[outputHead];
 357              		.loc 1 74 5 is_stmt 1
 358              		.loc 1 74 10 is_stmt 0
 359 0254 17070000 		lla	a4,_ZN11ConsoleUtil12outputBufferE
GAS LISTING /tmp/ccfVfwaQ.s 			page 9


 359      13070700 
 360 025c 3307F700 		add	a4,a4,a5
 361 0260 03450700 		lbu	a0,0(a4)
 362              	.LVL20:
  75:src/kernel/consoleUtil.cpp **** 
  76:src/kernel/consoleUtil.cpp ****     outputHead = (outputHead+1)%bufferSize;
 363              		.loc 1 76 5 is_stmt 1
 364              		.loc 1 76 29 is_stmt 0
 365 0264 93871700 		addi	a5,a5,1
 366              		.loc 1 76 32
 367 0268 17070000 		ld	a4,.LANCHOR1
 367      03370700 
 368 0270 B3F7E702 		remu	a5,a5,a4
 369              		.loc 1 76 16
 370 0274 17070000 		sd	a5,.LANCHOR0+48,a4
 370      2330F700 
  77:src/kernel/consoleUtil.cpp **** 
  78:src/kernel/consoleUtil.cpp ****     return c;
 371              		.loc 1 78 5 is_stmt 1
 372              	.LVL21:
 373              	.L27:
  79:src/kernel/consoleUtil.cpp **** }
 374              		.loc 1 79 1 is_stmt 0
 375 027c 83308101 		ld	ra,24(sp)
 376              		.cfi_remember_state
 377              		.cfi_restore 1
 378 0280 03340101 		ld	s0,16(sp)
 379              		.cfi_restore 8
 380              		.cfi_def_cfa 2, 32
 381 0284 83348100 		ld	s1,8(sp)
 382              		.cfi_restore 9
 383 0288 13010102 		addi	sp,sp,32
 384              		.cfi_def_cfa_offset 0
 385 028c 67800000 		jr	ra
 386              	.L28:
 387              		.cfi_restore_state
  72:src/kernel/consoleUtil.cpp **** 
 388              		.loc 1 72 17
 389 0290 1305F00F 		li	a0,255
 390 0294 6FF09FFE 		j	.L27
 391              		.cfi_endproc
 392              	.LFE26:
 394              		.align	2
 395              		.globl	_ZN11ConsoleUtil11printStringEPKc
 397              	_ZN11ConsoleUtil11printStringEPKc:
 398              	.LFB27:
  80:src/kernel/consoleUtil.cpp **** 
  81:src/kernel/consoleUtil.cpp **** void ConsoleUtil::printString(const char *string) {
 399              		.loc 1 81 51 is_stmt 1
 400              		.cfi_startproc
 401              	.LVL22:
 402 0298 130101FE 		addi	sp,sp,-32
 403              		.cfi_def_cfa_offset 32
 404 029c 233C1100 		sd	ra,24(sp)
 405 02a0 23388100 		sd	s0,16(sp)
 406 02a4 23349100 		sd	s1,8(sp)
 407              		.cfi_offset 1, -8
GAS LISTING /tmp/ccfVfwaQ.s 			page 10


 408              		.cfi_offset 8, -16
 409              		.cfi_offset 9, -24
 410 02a8 13040102 		addi	s0,sp,32
 411              		.cfi_def_cfa 8, 0
 412 02ac 93040500 		mv	s1,a0
 413              	.LVL23:
 414              	.L32:
  82:src/kernel/consoleUtil.cpp ****     while (*string != '\0')
 415              		.loc 1 82 5
 416              		.loc 1 82 20
 417              		.loc 1 82 12 is_stmt 0
 418 02b0 03C50400 		lbu	a0,0(s1)
 419              		.loc 1 82 20
 420 02b4 630A0500 		beqz	a0,.L30
  83:src/kernel/consoleUtil.cpp ****     {
  84:src/kernel/consoleUtil.cpp ****         ConsoleUtil::putOutput(*string);
 421              		.loc 1 84 9 is_stmt 1
 422              		.loc 1 84 31 is_stmt 0
 423 02b8 97000000 		call	_ZN11ConsoleUtil9putOutputEc
 423      E7800000 
 424              	.LVL24:
  85:src/kernel/consoleUtil.cpp ****         string++;
 425              		.loc 1 85 9 is_stmt 1
 426              		.loc 1 85 15 is_stmt 0
 427 02c0 93841400 		addi	s1,s1,1
 428              	.LVL25:
  82:src/kernel/consoleUtil.cpp ****     while (*string != '\0')
 429              		.loc 1 82 5
 430 02c4 6FF0DFFE 		j	.L32
 431              	.L30:
  86:src/kernel/consoleUtil.cpp ****     }
  87:src/kernel/consoleUtil.cpp **** }
 432              		.loc 1 87 1
 433 02c8 83308101 		ld	ra,24(sp)
 434              		.cfi_restore 1
 435 02cc 03340101 		ld	s0,16(sp)
 436              		.cfi_restore 8
 437              		.cfi_def_cfa 2, 32
 438 02d0 83348100 		ld	s1,8(sp)
 439              		.cfi_restore 9
 440              	.LVL26:
 441 02d4 13010102 		addi	sp,sp,32
 442              		.cfi_def_cfa_offset 0
 443 02d8 67800000 		jr	ra
 444              		.cfi_endproc
 445              	.LFE27:
 447              		.section	.rodata.str1.8,"aMS",@progbits,1
 448              		.align	3
 449              	.LC0:
 450 0000 30313233 		.string	"0123456789ABCDEF"
 450      34353637 
 450      38394142 
 450      43444546 
 450      00
 451              		.text
 452              		.align	2
 453              		.globl	_ZN11ConsoleUtil8printIntEiii
GAS LISTING /tmp/ccfVfwaQ.s 			page 11


 455              	_ZN11ConsoleUtil8printIntEiii:
 456              	.LFB28:
  88:src/kernel/consoleUtil.cpp **** 
  89:src/kernel/consoleUtil.cpp **** void ConsoleUtil::printInt(int xx, int base, int sgn)
  90:src/kernel/consoleUtil.cpp **** {
 457              		.loc 1 90 1 is_stmt 1
 458              		.cfi_startproc
 459              	.LVL27:
 460 02dc 130101FB 		addi	sp,sp,-80
 461              		.cfi_def_cfa_offset 80
 462 02e0 23341104 		sd	ra,72(sp)
 463 02e4 23308104 		sd	s0,64(sp)
 464 02e8 233C9102 		sd	s1,56(sp)
 465              		.cfi_offset 1, -8
 466              		.cfi_offset 8, -16
 467              		.cfi_offset 9, -24
 468 02ec 13040105 		addi	s0,sp,80
 469              		.cfi_def_cfa 8, 0
  91:src/kernel/consoleUtil.cpp ****     char digits[] = "0123456789ABCDEF";
 470              		.loc 1 91 5
 471              		.loc 1 91 10 is_stmt 0
 472 02f0 97070000 		lla	a5,.LC0
 472      93870700 
 473 02f8 03B70700 		ld	a4,0(a5)
 474 02fc 2334E4FC 		sd	a4,-56(s0)
 475 0300 03B78700 		ld	a4,8(a5)
 476 0304 2338E4FC 		sd	a4,-48(s0)
 477 0308 83C70701 		lbu	a5,16(a5)
 478 030c 230CF4FC 		sb	a5,-40(s0)
  92:src/kernel/consoleUtil.cpp ****     char buf[16];
 479              		.loc 1 92 5 is_stmt 1
  93:src/kernel/consoleUtil.cpp ****     int i, neg;
 480              		.loc 1 93 5
  94:src/kernel/consoleUtil.cpp ****     uint x;
 481              		.loc 1 94 5
  95:src/kernel/consoleUtil.cpp **** 
  96:src/kernel/consoleUtil.cpp ****     neg = 0;
 482              		.loc 1 96 5
 483              	.LVL28:
  97:src/kernel/consoleUtil.cpp ****     if(sgn && xx < 0){
 484              		.loc 1 97 5
 485 0310 63040600 		beqz	a2,.L35
 486              		.loc 1 97 12 is_stmt 0 discriminator 1
 487 0314 63420508 		bltz	a0,.L42
 488              	.L35:
  98:src/kernel/consoleUtil.cpp ****         neg = 1;
  99:src/kernel/consoleUtil.cpp ****         x = -xx;
 100:src/kernel/consoleUtil.cpp ****     } else {
 101:src/kernel/consoleUtil.cpp ****         x = xx;
 489              		.loc 1 101 9 is_stmt 1
 490              		.loc 1 101 11 is_stmt 0
 491 0318 1B050500 		sext.w	a0,a0
 492              	.LVL29:
  96:src/kernel/consoleUtil.cpp ****     if(sgn && xx < 0){
 493              		.loc 1 96 9
 494 031c 13080000 		li	a6,0
 495              	.LVL30:
GAS LISTING /tmp/ccfVfwaQ.s 			page 12


 496              	.L36:
 102:src/kernel/consoleUtil.cpp ****     }
 103:src/kernel/consoleUtil.cpp **** 
 104:src/kernel/consoleUtil.cpp ****     i = 0;
 497              		.loc 1 104 5 is_stmt 1
 498              		.loc 1 104 7 is_stmt 0
 499 0320 93040000 		li	s1,0
 500              	.LVL31:
 501              	.L37:
 105:src/kernel/consoleUtil.cpp ****     do{
 502              		.loc 1 105 5 is_stmt 1
 106:src/kernel/consoleUtil.cpp ****         buf[i++] = digits[x % base];
 503              		.loc 1 106 9
 504              		.loc 1 106 31 is_stmt 0
 505 0324 1B870500 		sext.w	a4,a1
 506              		.loc 1 106 29
 507 0328 BB77B502 		remuw	a5,a0,a1
 508 032c 93860400 		mv	a3,s1
 509              		.loc 1 106 14
 510 0330 9B841400 		addiw	s1,s1,1
 511              	.LVL32:
 512              		.loc 1 106 35
 513 0334 93970702 		slli	a5,a5,32
 514 0338 93D70702 		srli	a5,a5,32
 515 033c 130604FE 		addi	a2,s0,-32
 516 0340 B307F600 		add	a5,a2,a5
 517 0344 03C687FE 		lbu	a2,-24(a5)
 518              		.loc 1 106 18
 519 0348 930704FE 		addi	a5,s0,-32
 520 034c B387D700 		add	a5,a5,a3
 521 0350 238CC7FC 		sb	a2,-40(a5)
 107:src/kernel/consoleUtil.cpp ****     }while((x /= base) != 0);
 522              		.loc 1 107 24 is_stmt 1
 523 0354 1B060500 		sext.w	a2,a0
 524              		.loc 1 107 15 is_stmt 0
 525 0358 3B55B502 		divuw	a0,a0,a1
 526              	.LVL33:
 527              		.loc 1 107 24
 528 035c E374E6FC 		bleu	a4,a2,.L37
 108:src/kernel/consoleUtil.cpp ****     if(neg)
 529              		.loc 1 108 5 is_stmt 1
 530 0360 630C0800 		beqz	a6,.L40
 109:src/kernel/consoleUtil.cpp ****         buf[i++] = '-';
 531              		.loc 1 109 9
 532              	.LVL34:
 533              		.loc 1 109 18 is_stmt 0
 534 0364 930704FE 		addi	a5,s0,-32
 535 0368 B3849700 		add	s1,a5,s1
 536 036c 9307D002 		li	a5,45
 537 0370 238CF4FC 		sb	a5,-40(s1)
 538              		.loc 1 109 14
 539 0374 9B842600 		addiw	s1,a3,2
 540              	.LVL35:
 541              	.L40:
 110:src/kernel/consoleUtil.cpp **** 
 111:src/kernel/consoleUtil.cpp ****     while(--i >= 0)
 542              		.loc 1 111 5 is_stmt 1
GAS LISTING /tmp/ccfVfwaQ.s 			page 13


 543              		.loc 1 111 15
 544 0378 9B84F4FF 		addiw	s1,s1,-1
 545              	.LVL36:
 546 037c 63C40402 		bltz	s1,.L34
 112:src/kernel/consoleUtil.cpp ****         ConsoleUtil::putOutput(buf[i]);
 547              		.loc 1 112 9
 548              		.loc 1 112 31 is_stmt 0
 549 0380 930704FE 		addi	a5,s0,-32
 550 0384 B3879700 		add	a5,a5,s1
 551 0388 03C587FD 		lbu	a0,-40(a5)
 552 038c 97000000 		call	_ZN11ConsoleUtil9putOutputEc
 552      E7800000 
 553              	.LVL37:
 554 0394 6FF05FFE 		j	.L40
 555              	.LVL38:
 556              	.L42:
  98:src/kernel/consoleUtil.cpp ****         x = -xx;
 557              		.loc 1 98 9 is_stmt 1
  99:src/kernel/consoleUtil.cpp ****     } else {
 558              		.loc 1 99 9
  99:src/kernel/consoleUtil.cpp ****     } else {
 559              		.loc 1 99 11 is_stmt 0
 560 0398 3B05A040 		negw	a0,a0
 561              	.LVL39:
  98:src/kernel/consoleUtil.cpp ****         x = -xx;
 562              		.loc 1 98 13
 563 039c 13081000 		li	a6,1
  99:src/kernel/consoleUtil.cpp ****     } else {
 564              		.loc 1 99 11
 565 03a0 6FF01FF8 		j	.L36
 566              	.LVL40:
 567              	.L34:
 113:src/kernel/consoleUtil.cpp **** 
 114:src/kernel/consoleUtil.cpp **** }
 568              		.loc 1 114 1
 569 03a4 83308104 		ld	ra,72(sp)
 570              		.cfi_restore 1
 571 03a8 03340104 		ld	s0,64(sp)
 572              		.cfi_restore 8
 573              		.cfi_def_cfa 2, 80
 574 03ac 83348103 		ld	s1,56(sp)
 575              		.cfi_restore 9
 576 03b0 13010105 		addi	sp,sp,80
 577              		.cfi_def_cfa_offset 0
 578 03b4 67800000 		jr	ra
 579              		.cfi_endproc
 580              	.LFE28:
 582              		.align	2
 583              		.globl	_ZN11ConsoleUtil5printEPKciS1_i
 585              	_ZN11ConsoleUtil5printEPKciS1_i:
 586              	.LFB29:
 115:src/kernel/consoleUtil.cpp **** 
 116:src/kernel/consoleUtil.cpp **** void ConsoleUtil::print(const char *string, int xx, const char *sep, int base) {
 587              		.loc 1 116 80 is_stmt 1
 588              		.cfi_startproc
 589              	.LVL41:
 590 03b8 130101FD 		addi	sp,sp,-48
GAS LISTING /tmp/ccfVfwaQ.s 			page 14


 591              		.cfi_def_cfa_offset 48
 592 03bc 23341102 		sd	ra,40(sp)
 593 03c0 23308102 		sd	s0,32(sp)
 594 03c4 233C9100 		sd	s1,24(sp)
 595 03c8 23382101 		sd	s2,16(sp)
 596 03cc 23343101 		sd	s3,8(sp)
 597              		.cfi_offset 1, -8
 598              		.cfi_offset 8, -16
 599              		.cfi_offset 9, -24
 600              		.cfi_offset 18, -32
 601              		.cfi_offset 19, -40
 602 03d0 13040103 		addi	s0,sp,48
 603              		.cfi_def_cfa 8, 0
 604 03d4 13890500 		mv	s2,a1
 605 03d8 93040600 		mv	s1,a2
 606 03dc 93890600 		mv	s3,a3
 117:src/kernel/consoleUtil.cpp ****     ConsoleUtil::printString(string);
 607              		.loc 1 117 5
 608              		.loc 1 117 29 is_stmt 0
 609 03e0 97000000 		call	_ZN11ConsoleUtil11printStringEPKc
 609      E7800000 
 610              	.LVL42:
 118:src/kernel/consoleUtil.cpp ****     ConsoleUtil::printInt(xx, base);
 611              		.loc 1 118 5 is_stmt 1
 612              		.loc 1 118 26 is_stmt 0
 613 03e8 13060000 		li	a2,0
 614 03ec 93850900 		mv	a1,s3
 615 03f0 13050900 		mv	a0,s2
 616 03f4 97000000 		call	_ZN11ConsoleUtil8printIntEiii
 616      E7800000 
 617              	.LVL43:
 119:src/kernel/consoleUtil.cpp ****     ConsoleUtil::printString(sep);
 618              		.loc 1 119 5 is_stmt 1
 619              		.loc 1 119 29 is_stmt 0
 620 03fc 13850400 		mv	a0,s1
 621 0400 97000000 		call	_ZN11ConsoleUtil11printStringEPKc
 621      E7800000 
 622              	.LVL44:
 120:src/kernel/consoleUtil.cpp **** }
 623              		.loc 1 120 1
 624 0408 83308102 		ld	ra,40(sp)
 625              		.cfi_restore 1
 626 040c 03340102 		ld	s0,32(sp)
 627              		.cfi_restore 8
 628              		.cfi_def_cfa 2, 48
 629 0410 83348101 		ld	s1,24(sp)
 630              		.cfi_restore 9
 631              	.LVL45:
 632 0414 03390101 		ld	s2,16(sp)
 633              		.cfi_restore 18
 634 0418 83398100 		ld	s3,8(sp)
 635              		.cfi_restore 19
 636 041c 13010103 		addi	sp,sp,48
 637              		.cfi_def_cfa_offset 0
 638 0420 67800000 		jr	ra
 639              		.cfi_endproc
 640              	.LFE29:
GAS LISTING /tmp/ccfVfwaQ.s 			page 15


 642              		.align	2
 643              		.globl	_ZN11ConsoleUtil15putcUtilSyscallEv
 645              	_ZN11ConsoleUtil15putcUtilSyscallEv:
 646              	.LFB30:
 121:src/kernel/consoleUtil.cpp **** 
 122:src/kernel/consoleUtil.cpp **** char ConsoleUtil::putcUtilSyscall()
 123:src/kernel/consoleUtil.cpp **** {
 647              		.loc 1 123 1 is_stmt 1
 648              		.cfi_startproc
 649 0424 130101FF 		addi	sp,sp,-16
 650              		.cfi_def_cfa_offset 16
 651 0428 23348100 		sd	s0,8(sp)
 652              		.cfi_offset 8, -8
 653 042c 13040101 		addi	s0,sp,16
 654              		.cfi_def_cfa 8, 0
 124:src/kernel/consoleUtil.cpp ****     asm("li a0, 0x43");
 655              		.loc 1 124 5
 656              		.loc 1 124 23 is_stmt 0
 657              	#APP
 658              	# 124 "src/kernel/consoleUtil.cpp" 1
 125              	
 126:src/kernel/consoleUtil.cpp ****     asm("ecall");
 659              		li a0, 0x43
 660              	# 0 "" 2
 661              		.loc 1 126 5 is_stmt 1
 662              		.loc 1 126 17 is_stmt 0
 663              	# 126 "src/kernel/consoleUtil.cpp" 1
 127              	
 128:src/kernel/consoleUtil.cpp ****     uint64 status;
 664              		ecall
 665              	# 0 "" 2
 666              		.loc 1 128 5 is_stmt 1
 129:src/kernel/consoleUtil.cpp **** 
 130:src/kernel/consoleUtil.cpp ****     asm("mv %0, a0" : [status] "=r" (status));
 667              		.loc 1 130 5
 668              		.loc 1 130 46 is_stmt 0
 669              	# 130 "src/kernel/consoleUtil.cpp" 1
 131              	
 670              		mv a0, a0
 671              	# 0 "" 2
 672              	.LVL46:
 132:src/kernel/consoleUtil.cpp ****     return (char)status;
 673              		.loc 1 132 5 is_stmt 1
 133:src/kernel/consoleUtil.cpp **** }
 674              		.loc 1 133 1 is_stmt 0
 675              	#NO_APP
 676 043c 1375F50F 		andi	a0,a0,0xff
 677              	.LVL47:
 678 0440 03348100 		ld	s0,8(sp)
 679              		.cfi_restore 8
 680              		.cfi_def_cfa 2, 16
 681 0444 13010101 		addi	sp,sp,16
 682              		.cfi_def_cfa_offset 0
 683 0448 67800000 		jr	ra
 684              		.cfi_endproc
 685              	.LFE30:
 687              		.globl	_ZN11ConsoleUtil10bufferSizeE
GAS LISTING /tmp/ccfVfwaQ.s 			page 16


 688              		.globl	_ZN11ConsoleUtil12outputBufferE
 689              		.globl	_ZN11ConsoleUtil11inputBufferE
 690              		.globl	_ZN11ConsoleUtil8inputSemE
 691              		.globl	_ZN11ConsoleUtil9outputSemE
 692              		.globl	_ZN11ConsoleUtil11pendingPutcE
 693              		.globl	_ZN11ConsoleUtil11pendingGetcE
 694              		.globl	_ZN11ConsoleUtil10outputTailE
 695              		.globl	_ZN11ConsoleUtil10outputHeadE
 696              		.globl	_ZN11ConsoleUtil9inputTailE
 697              		.globl	_ZN11ConsoleUtil9inputHeadE
 698              		.data
 699              		.align	3
 700              		.set	.LANCHOR1,. + 0
 703              	_ZN11ConsoleUtil10bufferSizeE:
 704 0000 00200000 		.dword	8192
 704      00000000 
 705              		.bss
 706              		.align	3
 707              		.set	.LANCHOR0,. + 0
 710              	_ZN11ConsoleUtil8inputSemE:
 711 0000 00000000 		.zero	8
 711      00000000 
 714              	_ZN11ConsoleUtil9outputSemE:
 715 0008 00000000 		.zero	8
 715      00000000 
 718              	_ZN11ConsoleUtil9inputTailE:
 719 0010 00000000 		.zero	8
 719      00000000 
 722              	_ZN11ConsoleUtil9inputHeadE:
 723 0018 00000000 		.zero	8
 723      00000000 
 726              	_ZN11ConsoleUtil11pendingPutcE:
 727 0020 00000000 		.zero	8
 727      00000000 
 730              	_ZN11ConsoleUtil10outputTailE:
 731 0028 00000000 		.zero	8
 731      00000000 
 734              	_ZN11ConsoleUtil10outputHeadE:
 735 0030 00000000 		.zero	8
 735      00000000 
 738              	_ZN11ConsoleUtil12outputBufferE:
 739 0038 00000000 		.zero	8192
 739      00000000 
 739      00000000 
 739      00000000 
 739      00000000 
 742              	_ZN11ConsoleUtil11inputBufferE:
 743 2038 00000000 		.zero	8192
 743      00000000 
 743      00000000 
 743      00000000 
 743      00000000 
 746              	_ZN11ConsoleUtil11pendingGetcE:
 747 4038 00000000 		.zero	8
 747      00000000 
 748              		.text
 749              	.Letext0:
GAS LISTING /tmp/ccfVfwaQ.s 			page 17


 750              		.file 2 "src/kernel/../../h/../lib/hw.h"
 751              		.file 3 "src/kernel/../../h/consoleUtil.hpp"
 752              		.file 4 "src/kernel/../../h/scb.hpp"
 753              		.file 5 "src/kernel/../../h/../h/../h/../h/utility.hpp"
 754              		.file 6 "src/kernel/../../h/../h/../h/../h/../h/slab_t.hpp"
 755              		.file 7 "src/kernel/../../h/../h/../h/../h/cache_t.hpp"
 756              		.file 8 "src/kernel/../../h/tcb.hpp"
 3713              		.align	3
 3716              	DW.ref.__gxx_personality_v0:
 3717 0000 00000000 		.dword	__gxx_personality_v0
 3717      00000000 
 3718              		.ident	"GCC: (Ubuntu 9.4.0-1ubuntu1~20.04) 9.4.0"
 3719              		.section	.note.GNU-stack,"",@progbits
GAS LISTING /tmp/ccfVfwaQ.s 			page 18


DEFINED SYMBOLS
                            *ABS*:0000000000000000 consoleUtil.cpp
     /tmp/ccfVfwaQ.s:9      .text:0000000000000000 _ZN11ConsoleUtil10initializeEv
     /tmp/ccfVfwaQ.s:13     .text:0000000000000000 .L0 
     /tmp/ccfVfwaQ.s:3716   .data.rel.local.DW.ref.__gxx_personality_v0:0000000000000000 DW.ref.__gxx_personality_v0
     /tmp/ccfVfwaQ.s:16     .text:0000000000000000 .L0 
     /tmp/ccfVfwaQ.s:17     .text:0000000000000004 .L0 
     /tmp/ccfVfwaQ.s:22     .text:0000000000000014 .L0 
     /tmp/ccfVfwaQ.s:23     .text:0000000000000014 .L0 
     /tmp/ccfVfwaQ.s:24     .text:0000000000000014 .L0 
     /tmp/ccfVfwaQ.s:25     .text:0000000000000014 .L0 
     /tmp/ccfVfwaQ.s:27     .text:0000000000000018 .L0 
     /tmp/ccfVfwaQ.s:29     .text:0000000000000018 .L0 
     /tmp/ccfVfwaQ.s:30     .text:0000000000000018 .L0 
     /tmp/ccfVfwaQ.s:38     .text:000000000000002c .L0 
     /tmp/ccfVfwaQ.s:45     .text:0000000000000038 .L0 
     /tmp/ccfVfwaQ.s:47     .text:0000000000000040 .L0 
     /tmp/ccfVfwaQ.s:48     .text:0000000000000040 .L0 
     /tmp/ccfVfwaQ.s:56     .text:0000000000000054 .L0 
     /tmp/ccfVfwaQ.s:63     .text:0000000000000060 .L0 
     /tmp/ccfVfwaQ.s:65     .text:0000000000000068 .L0 
     /tmp/ccfVfwaQ.s:66     .text:000000000000006c .L0 
     /tmp/ccfVfwaQ.s:67     .text:000000000000006c .L0 
     /tmp/ccfVfwaQ.s:69     .text:0000000000000070 .L0 
     /tmp/ccfVfwaQ.s:70     .text:0000000000000070 .L0 
     /tmp/ccfVfwaQ.s:72     .text:0000000000000074 .L0 
     /tmp/ccfVfwaQ.s:74     .text:0000000000000078 .L0 
     /tmp/ccfVfwaQ.s:76     .text:000000000000007c .L0 
     /tmp/ccfVfwaQ.s:79     .text:0000000000000080 .L0 
     /tmp/ccfVfwaQ.s:82     .text:0000000000000084 .L0 
     /tmp/ccfVfwaQ.s:93     .text:00000000000000a0 .L0 
     /tmp/ccfVfwaQ.s:101    .text:00000000000000b8 .L0 
     /tmp/ccfVfwaQ.s:139    .text:00000000000000b8 _ZN11ConsoleUtil8putInputEc
     /tmp/ccfVfwaQ.s:142    .text:00000000000000b8 .L0 
     /tmp/ccfVfwaQ.s:144    .text:00000000000000b8 .L0 
     /tmp/ccfVfwaQ.s:145    .text:00000000000000b8 .L0 
     /tmp/ccfVfwaQ.s:146    .text:00000000000000b8 .L0 
     /tmp/ccfVfwaQ.s:150    .text:00000000000000c8 .L0 
     /tmp/ccfVfwaQ.s:153    .text:00000000000000d4 .L0 
     /tmp/ccfVfwaQ.s:155    .text:00000000000000d8 .L0 
     /tmp/ccfVfwaQ.s:157    .text:00000000000000dc .L0 
     /tmp/ccfVfwaQ.s:158    .text:00000000000000e0 .L0 
     /tmp/ccfVfwaQ.s:161    .text:00000000000000e8 .L0 
     /tmp/ccfVfwaQ.s:162    .text:00000000000000e8 .L0 
     /tmp/ccfVfwaQ.s:164    .text:00000000000000ec .L0 
     /tmp/ccfVfwaQ.s:166    .text:00000000000000ec .L0 
     /tmp/ccfVfwaQ.s:742    .bss:0000000000002038 _ZN11ConsoleUtil11inputBufferE
     /tmp/ccfVfwaQ.s:167    .text:00000000000000ec .L0 
     /tmp/ccfVfwaQ.s:171    .text:00000000000000fc .L0 
     /tmp/ccfVfwaQ.s:172    .text:00000000000000fc .L0 
     /tmp/ccfVfwaQ.s:175    .text:0000000000000108 .L0 
     /tmp/ccfVfwaQ.s:176    .text:0000000000000108 .L0 
     /tmp/ccfVfwaQ.s:181    .text:0000000000000114 .L0 
     /tmp/ccfVfwaQ.s:182    .text:0000000000000118 .L0 
     /tmp/ccfVfwaQ.s:184    .text:000000000000011c .L0 
     /tmp/ccfVfwaQ.s:185    .text:000000000000011c .L0 
     /tmp/ccfVfwaQ.s:187    .text:0000000000000120 .L0 
GAS LISTING /tmp/ccfVfwaQ.s 			page 19


     /tmp/ccfVfwaQ.s:192    .text:0000000000000128 .L0 
     /tmp/ccfVfwaQ.s:198    .text:0000000000000128 _ZN11ConsoleUtil8getInputEv
     /tmp/ccfVfwaQ.s:201    .text:0000000000000128 .L0 
     /tmp/ccfVfwaQ.s:202    .text:0000000000000128 .L0 
     /tmp/ccfVfwaQ.s:203    .text:000000000000012c .L0 
     /tmp/ccfVfwaQ.s:207    .text:0000000000000138 .L0 
     /tmp/ccfVfwaQ.s:208    .text:0000000000000138 .L0 
     /tmp/ccfVfwaQ.s:209    .text:0000000000000138 .L0 
     /tmp/ccfVfwaQ.s:211    .text:000000000000013c .L0 
     /tmp/ccfVfwaQ.s:213    .text:000000000000013c .L0 
     /tmp/ccfVfwaQ.s:214    .text:000000000000013c .L0 
     /tmp/ccfVfwaQ.s:219    .text:0000000000000150 .L0 
     /tmp/ccfVfwaQ.s:220    .text:0000000000000150 .L0 
     /tmp/ccfVfwaQ.s:223    .text:0000000000000158 .L0 
     /tmp/ccfVfwaQ.s:225    .text:000000000000015c .L0 
     /tmp/ccfVfwaQ.s:226    .text:000000000000015c .L0 
     /tmp/ccfVfwaQ.s:231    .text:000000000000016c .L0 
     /tmp/ccfVfwaQ.s:232    .text:000000000000016c .L0 
     /tmp/ccfVfwaQ.s:234    .text:0000000000000170 .L0 
     /tmp/ccfVfwaQ.s:237    .text:000000000000017c .L0 
     /tmp/ccfVfwaQ.s:241    .text:0000000000000184 .L0 
     /tmp/ccfVfwaQ.s:242    .text:0000000000000184 .L0 
     /tmp/ccfVfwaQ.s:243    .text:0000000000000188 .L0 
     /tmp/ccfVfwaQ.s:244    .text:0000000000000188 .L0 
     /tmp/ccfVfwaQ.s:246    .text:000000000000018c .L0 
     /tmp/ccfVfwaQ.s:247    .text:000000000000018c .L0 
     /tmp/ccfVfwaQ.s:249    .text:0000000000000190 .L0 
     /tmp/ccfVfwaQ.s:251    .text:0000000000000194 .L0 
     /tmp/ccfVfwaQ.s:254    .text:0000000000000198 .L0 
     /tmp/ccfVfwaQ.s:256    .text:0000000000000198 .L0 
     /tmp/ccfVfwaQ.s:258    .text:00000000000001a0 .L0 
     /tmp/ccfVfwaQ.s:264    .text:00000000000001a0 _ZN11ConsoleUtil9putOutputEc
     /tmp/ccfVfwaQ.s:267    .text:00000000000001a0 .L0 
     /tmp/ccfVfwaQ.s:269    .text:00000000000001a0 .L0 
     /tmp/ccfVfwaQ.s:270    .text:00000000000001a0 .L0 
     /tmp/ccfVfwaQ.s:271    .text:00000000000001a0 .L0 
     /tmp/ccfVfwaQ.s:276    .text:00000000000001b4 .L0 
     /tmp/ccfVfwaQ.s:277    .text:00000000000001b4 .L0 
     /tmp/ccfVfwaQ.s:280    .text:00000000000001bc .L0 
     /tmp/ccfVfwaQ.s:283    .text:00000000000001c8 .L0 
     /tmp/ccfVfwaQ.s:285    .text:00000000000001cc .L0 
     /tmp/ccfVfwaQ.s:287    .text:00000000000001d0 .L0 
     /tmp/ccfVfwaQ.s:288    .text:00000000000001d4 .L0 
     /tmp/ccfVfwaQ.s:291    .text:00000000000001dc .L0 
     /tmp/ccfVfwaQ.s:292    .text:00000000000001dc .L0 
     /tmp/ccfVfwaQ.s:294    .text:00000000000001e0 .L0 
     /tmp/ccfVfwaQ.s:296    .text:00000000000001e0 .L0 
     /tmp/ccfVfwaQ.s:738    .bss:0000000000000038 _ZN11ConsoleUtil12outputBufferE
     /tmp/ccfVfwaQ.s:297    .text:00000000000001e0 .L0 
     /tmp/ccfVfwaQ.s:301    .text:00000000000001f0 .L0 
     /tmp/ccfVfwaQ.s:302    .text:00000000000001f0 .L0 
     /tmp/ccfVfwaQ.s:305    .text:00000000000001fc .L0 
     /tmp/ccfVfwaQ.s:306    .text:00000000000001fc .L0 
     /tmp/ccfVfwaQ.s:308    .text:0000000000000200 .L0 
     /tmp/ccfVfwaQ.s:309    .text:0000000000000200 .L0 
     /tmp/ccfVfwaQ.s:314    .text:000000000000020c .L0 
     /tmp/ccfVfwaQ.s:315    .text:0000000000000210 .L0 
GAS LISTING /tmp/ccfVfwaQ.s 			page 20


     /tmp/ccfVfwaQ.s:317    .text:0000000000000214 .L0 
     /tmp/ccfVfwaQ.s:318    .text:0000000000000214 .L0 
     /tmp/ccfVfwaQ.s:320    .text:0000000000000218 .L0 
     /tmp/ccfVfwaQ.s:325    .text:0000000000000220 .L0 
     /tmp/ccfVfwaQ.s:331    .text:0000000000000220 _ZN11ConsoleUtil9getOutputEv
     /tmp/ccfVfwaQ.s:334    .text:0000000000000220 .L0 
     /tmp/ccfVfwaQ.s:335    .text:0000000000000220 .L0 
     /tmp/ccfVfwaQ.s:336    .text:0000000000000224 .L0 
     /tmp/ccfVfwaQ.s:340    .text:0000000000000230 .L0 
     /tmp/ccfVfwaQ.s:341    .text:0000000000000230 .L0 
     /tmp/ccfVfwaQ.s:342    .text:0000000000000230 .L0 
     /tmp/ccfVfwaQ.s:344    .text:0000000000000234 .L0 
     /tmp/ccfVfwaQ.s:346    .text:0000000000000234 .L0 
     /tmp/ccfVfwaQ.s:347    .text:0000000000000234 .L0 
     /tmp/ccfVfwaQ.s:352    .text:0000000000000248 .L0 
     /tmp/ccfVfwaQ.s:353    .text:0000000000000248 .L0 
     /tmp/ccfVfwaQ.s:356    .text:0000000000000250 .L0 
     /tmp/ccfVfwaQ.s:358    .text:0000000000000254 .L0 
     /tmp/ccfVfwaQ.s:359    .text:0000000000000254 .L0 
     /tmp/ccfVfwaQ.s:364    .text:0000000000000264 .L0 
     /tmp/ccfVfwaQ.s:365    .text:0000000000000264 .L0 
     /tmp/ccfVfwaQ.s:367    .text:0000000000000268 .L0 
     /tmp/ccfVfwaQ.s:370    .text:0000000000000274 .L0 
     /tmp/ccfVfwaQ.s:374    .text:000000000000027c .L0 
     /tmp/ccfVfwaQ.s:375    .text:000000000000027c .L0 
     /tmp/ccfVfwaQ.s:376    .text:0000000000000280 .L0 
     /tmp/ccfVfwaQ.s:377    .text:0000000000000280 .L0 
     /tmp/ccfVfwaQ.s:379    .text:0000000000000284 .L0 
     /tmp/ccfVfwaQ.s:380    .text:0000000000000284 .L0 
     /tmp/ccfVfwaQ.s:382    .text:0000000000000288 .L0 
     /tmp/ccfVfwaQ.s:384    .text:000000000000028c .L0 
     /tmp/ccfVfwaQ.s:387    .text:0000000000000290 .L0 
     /tmp/ccfVfwaQ.s:389    .text:0000000000000290 .L0 
     /tmp/ccfVfwaQ.s:391    .text:0000000000000298 .L0 
     /tmp/ccfVfwaQ.s:397    .text:0000000000000298 _ZN11ConsoleUtil11printStringEPKc
     /tmp/ccfVfwaQ.s:400    .text:0000000000000298 .L0 
     /tmp/ccfVfwaQ.s:402    .text:0000000000000298 .L0 
     /tmp/ccfVfwaQ.s:403    .text:000000000000029c .L0 
     /tmp/ccfVfwaQ.s:407    .text:00000000000002a8 .L0 
     /tmp/ccfVfwaQ.s:408    .text:00000000000002a8 .L0 
     /tmp/ccfVfwaQ.s:409    .text:00000000000002a8 .L0 
     /tmp/ccfVfwaQ.s:411    .text:00000000000002ac .L0 
     /tmp/ccfVfwaQ.s:416    .text:00000000000002b0 .L0 
     /tmp/ccfVfwaQ.s:417    .text:00000000000002b0 .L0 
     /tmp/ccfVfwaQ.s:418    .text:00000000000002b0 .L0 
     /tmp/ccfVfwaQ.s:420    .text:00000000000002b4 .L0 
     /tmp/ccfVfwaQ.s:422    .text:00000000000002b8 .L0 
     /tmp/ccfVfwaQ.s:423    .text:00000000000002b8 .L0 
     /tmp/ccfVfwaQ.s:426    .text:00000000000002c0 .L0 
     /tmp/ccfVfwaQ.s:427    .text:00000000000002c0 .L0 
     /tmp/ccfVfwaQ.s:430    .text:00000000000002c4 .L0 
     /tmp/ccfVfwaQ.s:433    .text:00000000000002c8 .L0 
     /tmp/ccfVfwaQ.s:434    .text:00000000000002cc .L0 
     /tmp/ccfVfwaQ.s:436    .text:00000000000002d0 .L0 
     /tmp/ccfVfwaQ.s:437    .text:00000000000002d0 .L0 
     /tmp/ccfVfwaQ.s:439    .text:00000000000002d4 .L0 
     /tmp/ccfVfwaQ.s:442    .text:00000000000002d8 .L0 
GAS LISTING /tmp/ccfVfwaQ.s 			page 21


     /tmp/ccfVfwaQ.s:444    .text:00000000000002dc .L0 
     /tmp/ccfVfwaQ.s:455    .text:00000000000002dc _ZN11ConsoleUtil8printIntEiii
     /tmp/ccfVfwaQ.s:458    .text:00000000000002dc .L0 
     /tmp/ccfVfwaQ.s:460    .text:00000000000002dc .L0 
     /tmp/ccfVfwaQ.s:461    .text:00000000000002e0 .L0 
     /tmp/ccfVfwaQ.s:465    .text:00000000000002ec .L0 
     /tmp/ccfVfwaQ.s:466    .text:00000000000002ec .L0 
     /tmp/ccfVfwaQ.s:467    .text:00000000000002ec .L0 
     /tmp/ccfVfwaQ.s:469    .text:00000000000002f0 .L0 
     /tmp/ccfVfwaQ.s:471    .text:00000000000002f0 .L0 
     /tmp/ccfVfwaQ.s:472    .text:00000000000002f0 .L0 
     /tmp/ccfVfwaQ.s:480    .text:0000000000000310 .L0 
     /tmp/ccfVfwaQ.s:481    .text:0000000000000310 .L0 
     /tmp/ccfVfwaQ.s:482    .text:0000000000000310 .L0 
     /tmp/ccfVfwaQ.s:484    .text:0000000000000310 .L0 
     /tmp/ccfVfwaQ.s:485    .text:0000000000000310 .L0 
     /tmp/ccfVfwaQ.s:487    .text:0000000000000314 .L0 
     /tmp/ccfVfwaQ.s:490    .text:0000000000000318 .L0 
     /tmp/ccfVfwaQ.s:491    .text:0000000000000318 .L0 
     /tmp/ccfVfwaQ.s:494    .text:000000000000031c .L0 
     /tmp/ccfVfwaQ.s:498    .text:0000000000000320 .L0 
     /tmp/ccfVfwaQ.s:499    .text:0000000000000320 .L0 
     /tmp/ccfVfwaQ.s:503    .text:0000000000000324 .L0 
     /tmp/ccfVfwaQ.s:504    .text:0000000000000324 .L0 
     /tmp/ccfVfwaQ.s:505    .text:0000000000000324 .L0 
     /tmp/ccfVfwaQ.s:507    .text:0000000000000328 .L0 
     /tmp/ccfVfwaQ.s:510    .text:0000000000000330 .L0 
     /tmp/ccfVfwaQ.s:513    .text:0000000000000334 .L0 
     /tmp/ccfVfwaQ.s:519    .text:0000000000000348 .L0 
     /tmp/ccfVfwaQ.s:523    .text:0000000000000354 .L0 
     /tmp/ccfVfwaQ.s:525    .text:0000000000000358 .L0 
     /tmp/ccfVfwaQ.s:528    .text:000000000000035c .L0 
     /tmp/ccfVfwaQ.s:530    .text:0000000000000360 .L0 
     /tmp/ccfVfwaQ.s:533    .text:0000000000000364 .L0 
     /tmp/ccfVfwaQ.s:534    .text:0000000000000364 .L0 
     /tmp/ccfVfwaQ.s:539    .text:0000000000000374 .L0 
     /tmp/ccfVfwaQ.s:543    .text:0000000000000378 .L0 
     /tmp/ccfVfwaQ.s:544    .text:0000000000000378 .L0 
     /tmp/ccfVfwaQ.s:548    .text:0000000000000380 .L0 
     /tmp/ccfVfwaQ.s:549    .text:0000000000000380 .L0 
     /tmp/ccfVfwaQ.s:558    .text:0000000000000398 .L0 
     /tmp/ccfVfwaQ.s:559    .text:0000000000000398 .L0 
     /tmp/ccfVfwaQ.s:560    .text:0000000000000398 .L0 
     /tmp/ccfVfwaQ.s:563    .text:000000000000039c .L0 
     /tmp/ccfVfwaQ.s:565    .text:00000000000003a0 .L0 
     /tmp/ccfVfwaQ.s:569    .text:00000000000003a4 .L0 
     /tmp/ccfVfwaQ.s:570    .text:00000000000003a8 .L0 
     /tmp/ccfVfwaQ.s:572    .text:00000000000003ac .L0 
     /tmp/ccfVfwaQ.s:573    .text:00000000000003ac .L0 
     /tmp/ccfVfwaQ.s:575    .text:00000000000003b0 .L0 
     /tmp/ccfVfwaQ.s:577    .text:00000000000003b4 .L0 
     /tmp/ccfVfwaQ.s:579    .text:00000000000003b8 .L0 
     /tmp/ccfVfwaQ.s:585    .text:00000000000003b8 _ZN11ConsoleUtil5printEPKciS1_i
     /tmp/ccfVfwaQ.s:588    .text:00000000000003b8 .L0 
     /tmp/ccfVfwaQ.s:590    .text:00000000000003b8 .L0 
     /tmp/ccfVfwaQ.s:591    .text:00000000000003bc .L0 
     /tmp/ccfVfwaQ.s:597    .text:00000000000003d0 .L0 
GAS LISTING /tmp/ccfVfwaQ.s 			page 22


     /tmp/ccfVfwaQ.s:598    .text:00000000000003d0 .L0 
     /tmp/ccfVfwaQ.s:599    .text:00000000000003d0 .L0 
     /tmp/ccfVfwaQ.s:600    .text:00000000000003d0 .L0 
     /tmp/ccfVfwaQ.s:601    .text:00000000000003d0 .L0 
     /tmp/ccfVfwaQ.s:603    .text:00000000000003d4 .L0 
     /tmp/ccfVfwaQ.s:608    .text:00000000000003e0 .L0 
     /tmp/ccfVfwaQ.s:609    .text:00000000000003e0 .L0 
     /tmp/ccfVfwaQ.s:612    .text:00000000000003e8 .L0 
     /tmp/ccfVfwaQ.s:613    .text:00000000000003e8 .L0 
     /tmp/ccfVfwaQ.s:619    .text:00000000000003fc .L0 
     /tmp/ccfVfwaQ.s:620    .text:00000000000003fc .L0 
     /tmp/ccfVfwaQ.s:624    .text:0000000000000408 .L0 
     /tmp/ccfVfwaQ.s:625    .text:000000000000040c .L0 
     /tmp/ccfVfwaQ.s:627    .text:0000000000000410 .L0 
     /tmp/ccfVfwaQ.s:628    .text:0000000000000410 .L0 
     /tmp/ccfVfwaQ.s:630    .text:0000000000000414 .L0 
     /tmp/ccfVfwaQ.s:633    .text:0000000000000418 .L0 
     /tmp/ccfVfwaQ.s:635    .text:000000000000041c .L0 
     /tmp/ccfVfwaQ.s:637    .text:0000000000000420 .L0 
     /tmp/ccfVfwaQ.s:639    .text:0000000000000424 .L0 
     /tmp/ccfVfwaQ.s:645    .text:0000000000000424 _ZN11ConsoleUtil15putcUtilSyscallEv
     /tmp/ccfVfwaQ.s:648    .text:0000000000000424 .L0 
     /tmp/ccfVfwaQ.s:649    .text:0000000000000424 .L0 
     /tmp/ccfVfwaQ.s:650    .text:0000000000000428 .L0 
     /tmp/ccfVfwaQ.s:652    .text:000000000000042c .L0 
     /tmp/ccfVfwaQ.s:654    .text:0000000000000430 .L0 
     /tmp/ccfVfwaQ.s:656    .text:0000000000000430 .L0 
src/kernel/consoleUtil.cpp:124    .text:0000000000000430 .L0 
     /tmp/ccfVfwaQ.s:662    .text:0000000000000434 .L0 
src/kernel/consoleUtil.cpp:126    .text:0000000000000434 .L0 
     /tmp/ccfVfwaQ.s:667    .text:0000000000000438 .L0 
     /tmp/ccfVfwaQ.s:668    .text:0000000000000438 .L0 
src/kernel/consoleUtil.cpp:130    .text:0000000000000438 .L0 
     /tmp/ccfVfwaQ.s:674    .text:000000000000043c .L0 
     /tmp/ccfVfwaQ.s:676    .text:000000000000043c .L0 
     /tmp/ccfVfwaQ.s:679    .text:0000000000000444 .L0 
     /tmp/ccfVfwaQ.s:680    .text:0000000000000444 .L0 
     /tmp/ccfVfwaQ.s:682    .text:0000000000000448 .L0 
     /tmp/ccfVfwaQ.s:684    .text:000000000000044c .L0 
     /tmp/ccfVfwaQ.s:703    .data:0000000000000000 _ZN11ConsoleUtil10bufferSizeE
     /tmp/ccfVfwaQ.s:710    .bss:0000000000000000 _ZN11ConsoleUtil8inputSemE
     /tmp/ccfVfwaQ.s:714    .bss:0000000000000008 _ZN11ConsoleUtil9outputSemE
     /tmp/ccfVfwaQ.s:726    .bss:0000000000000020 _ZN11ConsoleUtil11pendingPutcE
     /tmp/ccfVfwaQ.s:746    .bss:0000000000004038 _ZN11ConsoleUtil11pendingGetcE
     /tmp/ccfVfwaQ.s:730    .bss:0000000000000028 _ZN11ConsoleUtil10outputTailE
     /tmp/ccfVfwaQ.s:734    .bss:0000000000000030 _ZN11ConsoleUtil10outputHeadE
     /tmp/ccfVfwaQ.s:718    .bss:0000000000000010 _ZN11ConsoleUtil9inputTailE
     /tmp/ccfVfwaQ.s:722    .bss:0000000000000018 _ZN11ConsoleUtil9inputHeadE
     /tmp/ccfVfwaQ.s:700    .data:0000000000000000 .LANCHOR1
     /tmp/ccfVfwaQ.s:707    .bss:0000000000000000 .LANCHOR0
     /tmp/ccfVfwaQ.s:757    .text:000000000000044c .L0 
     /tmp/ccfVfwaQ.s:45     .text:0000000000000038 .L0 
     /tmp/ccfVfwaQ.s:63     .text:0000000000000060 .L0 
     /tmp/ccfVfwaQ.s:146    .text:00000000000000b8 .L0 
     /tmp/ccfVfwaQ.s:150    .text:00000000000000c8 .L0 
     /tmp/ccfVfwaQ.s:167    .text:00000000000000ec .L0 
     /tmp/ccfVfwaQ.s:172    .text:00000000000000fc .L0 
GAS LISTING /tmp/ccfVfwaQ.s 			page 23


     /tmp/ccfVfwaQ.s:214    .text:000000000000013c .L0 
     /tmp/ccfVfwaQ.s:226    .text:000000000000015c .L0 
     /tmp/ccfVfwaQ.s:234    .text:0000000000000170 .L0 
     /tmp/ccfVfwaQ.s:237    .text:000000000000017c .L0 
     /tmp/ccfVfwaQ.s:271    .text:00000000000001a0 .L0 
     /tmp/ccfVfwaQ.s:280    .text:00000000000001bc .L0 
     /tmp/ccfVfwaQ.s:297    .text:00000000000001e0 .L0 
     /tmp/ccfVfwaQ.s:302    .text:00000000000001f0 .L0 
     /tmp/ccfVfwaQ.s:347    .text:0000000000000234 .L0 
     /tmp/ccfVfwaQ.s:359    .text:0000000000000254 .L0 
     /tmp/ccfVfwaQ.s:367    .text:0000000000000268 .L0 
     /tmp/ccfVfwaQ.s:370    .text:0000000000000274 .L0 
     /tmp/ccfVfwaQ.s:449    .rodata.str1.8:0000000000000000 .LC0
     /tmp/ccfVfwaQ.s:472    .text:00000000000002f0 .L0 
     /tmp/ccfVfwaQ.s:43     .text:0000000000000038 .L2
     /tmp/ccfVfwaQ.s:61     .text:0000000000000060 .L3
     /tmp/ccfVfwaQ.s:190    .text:0000000000000124 .L13
     /tmp/ccfVfwaQ.s:253    .text:0000000000000198 .L18
     /tmp/ccfVfwaQ.s:240    .text:0000000000000184 .L17
     /tmp/ccfVfwaQ.s:323    .text:000000000000021c .L23
     /tmp/ccfVfwaQ.s:386    .text:0000000000000290 .L28
     /tmp/ccfVfwaQ.s:373    .text:000000000000027c .L27
     /tmp/ccfVfwaQ.s:431    .text:00000000000002c8 .L30
     /tmp/ccfVfwaQ.s:414    .text:00000000000002b0 .L32
     /tmp/ccfVfwaQ.s:488    .text:0000000000000318 .L35
     /tmp/ccfVfwaQ.s:556    .text:0000000000000398 .L42
     /tmp/ccfVfwaQ.s:501    .text:0000000000000324 .L37
     /tmp/ccfVfwaQ.s:541    .text:0000000000000378 .L40
     /tmp/ccfVfwaQ.s:567    .text:00000000000003a4 .L34
     /tmp/ccfVfwaQ.s:496    .text:0000000000000320 .L36
     /tmp/ccfVfwaQ.s:31     .text:000000000000001c .LEHB0
     /tmp/ccfVfwaQ.s:10     .text:0000000000000000 .LFB22
     /tmp/ccfVfwaQ.s:34     .text:0000000000000024 .LEHE0
     /tmp/ccfVfwaQ.s:39     .text:0000000000000030 .LEHB1
     /tmp/ccfVfwaQ.s:42     .text:0000000000000038 .LEHE1
     /tmp/ccfVfwaQ.s:78     .text:0000000000000080 .L6
     /tmp/ccfVfwaQ.s:49     .text:0000000000000044 .LEHB2
     /tmp/ccfVfwaQ.s:52     .text:000000000000004c .LEHE2
     /tmp/ccfVfwaQ.s:57     .text:0000000000000058 .LEHB3
     /tmp/ccfVfwaQ.s:60     .text:0000000000000060 .LEHE3
     /tmp/ccfVfwaQ.s:90     .text:000000000000009c .L7
     /tmp/ccfVfwaQ.s:86     .text:0000000000000094 .LEHB4
     /tmp/ccfVfwaQ.s:89     .text:000000000000009c .LEHE4
     /tmp/ccfVfwaQ.s:97     .text:00000000000000b0 .LEHB5
     /tmp/ccfVfwaQ.s:100    .text:00000000000000b8 .LEHE5
     /tmp/ccfVfwaQ.s:2321   .debug_abbrev:0000000000000000 .Ldebug_abbrev0
     /tmp/ccfVfwaQ.s:3404   .debug_str:000000000000008e .LASF156
     /tmp/ccfVfwaQ.s:3534   .debug_str:00000000000004eb .LASF157
     /tmp/ccfVfwaQ.s:3410   .debug_str:000000000000016e .LASF158
     /tmp/ccfVfwaQ.s:5      .text:0000000000000000 .Ltext0
     /tmp/ccfVfwaQ.s:749    .text:000000000000044c .Letext0
     /tmp/ccfVfwaQ.s:3382   .debug_line:0000000000000000 .Ldebug_line0
     /tmp/ccfVfwaQ.s:3474   .debug_str:0000000000000351 .LASF0
     /tmp/ccfVfwaQ.s:3564   .debug_str:00000000000005d7 .LASF3
     /tmp/ccfVfwaQ.s:3492   .debug_str:00000000000003cf .LASF1
     /tmp/ccfVfwaQ.s:3576   .debug_str:0000000000000626 .LASF2
     /tmp/ccfVfwaQ.s:3580   .debug_str:0000000000000644 .LASF4
GAS LISTING /tmp/ccfVfwaQ.s 			page 24


     /tmp/ccfVfwaQ.s:3482   .debug_str:0000000000000378 .LASF5
     /tmp/ccfVfwaQ.s:3398   .debug_str:0000000000000070 .LASF6
     /tmp/ccfVfwaQ.s:3542   .debug_str:0000000000000534 .LASF7
     /tmp/ccfVfwaQ.s:3488   .debug_str:00000000000003a0 .LASF8
     /tmp/ccfVfwaQ.s:3458   .debug_str:00000000000002cb .LASF9
     /tmp/ccfVfwaQ.s:3464   .debug_str:00000000000002fc .LASF10
     /tmp/ccfVfwaQ.s:3418   .debug_str:00000000000001be .LASF11
     /tmp/ccfVfwaQ.s:3456   .debug_str:00000000000002bc .LASF12
     /tmp/ccfVfwaQ.s:3430   .debug_str:000000000000021f .LASF13
     /tmp/ccfVfwaQ.s:3416   .debug_str:00000000000001ae .LASF14
     /tmp/ccfVfwaQ.s:3604   .debug_str:00000000000006ca .LASF15
     /tmp/ccfVfwaQ.s:3452   .debug_str:0000000000000299 .LASF16
     /tmp/ccfVfwaQ.s:3596   .debug_str:0000000000000691 .LASF17
     /tmp/ccfVfwaQ.s:3628   .debug_str:0000000000000767 .LASF45
     /tmp/ccfVfwaQ.s:3516   .debug_str:000000000000046c .LASF18
     /tmp/ccfVfwaQ.s:3554   .debug_str:000000000000058f .LASF19
     /tmp/ccfVfwaQ.s:3688   .debug_str:0000000000000924 .LASF20
     /tmp/ccfVfwaQ.s:3438   .debug_str:0000000000000259 .LASF21
     /tmp/ccfVfwaQ.s:3624   .debug_str:0000000000000754 .LASF22
     /tmp/ccfVfwaQ.s:3662   .debug_str:0000000000000863 .LASF23
     /tmp/ccfVfwaQ.s:3676   .debug_str:00000000000008c4 .LASF24
     /tmp/ccfVfwaQ.s:3476   .debug_str:000000000000035e .LASF25
     /tmp/ccfVfwaQ.s:3558   .debug_str:00000000000005b7 .LASF26
     /tmp/ccfVfwaQ.s:3494   .debug_str:00000000000003e2 .LASF27
     /tmp/ccfVfwaQ.s:3666   .debug_str:0000000000000875 .LASF28
     /tmp/ccfVfwaQ.s:3568   .debug_str:00000000000005eb .LASF29
     /tmp/ccfVfwaQ.s:3650   .debug_str:00000000000007f3 .LASF31
     /tmp/ccfVfwaQ.s:3524   .debug_str:00000000000004b6 .LASF33
     /tmp/ccfVfwaQ.s:3610   .debug_str:00000000000006f3 .LASF35
     /tmp/ccfVfwaQ.s:3562   .debug_str:00000000000005cd .LASF30
     /tmp/ccfVfwaQ.s:3570   .debug_str:00000000000005f4 .LASF32
     /tmp/ccfVfwaQ.s:3634   .debug_str:0000000000000782 .LASF34
     /tmp/ccfVfwaQ.s:3704   .debug_str:000000000000097b .LASF36
     /tmp/ccfVfwaQ.s:3592   .debug_str:000000000000067d .LASF61
     /tmp/ccfVfwaQ.s:3672   .debug_str:000000000000089e .LASF62
     /tmp/ccfVfwaQ.s:3608   .debug_str:00000000000006e3 .LASF37
     /tmp/ccfVfwaQ.s:3708   .debug_str:00000000000009a5 .LASF38
     /tmp/ccfVfwaQ.s:3544   .debug_str:0000000000000547 .LASF39
     /tmp/ccfVfwaQ.s:3514   .debug_str:000000000000044e .LASF41
     /tmp/ccfVfwaQ.s:3692   .debug_str:0000000000000941 .LASF40
     /tmp/ccfVfwaQ.s:3502   .debug_str:000000000000040e .LASF42
     /tmp/ccfVfwaQ.s:3390   .debug_str:0000000000000016 .LASF43
     /tmp/ccfVfwaQ.s:3620   .debug_str:000000000000072f .LASF44
     /tmp/ccfVfwaQ.s:3594   .debug_str:0000000000000688 .LASF46
     /tmp/ccfVfwaQ.s:3590   .debug_str:0000000000000671 .LASF47
     /tmp/ccfVfwaQ.s:3436   .debug_str:000000000000024d .LASF48
     /tmp/ccfVfwaQ.s:3560   .debug_str:00000000000005c1 .LASF101
     /tmp/ccfVfwaQ.s:3654   .debug_str:0000000000000822 .LASF49
     /tmp/ccfVfwaQ.s:3526   .debug_str:00000000000004bf .LASF50
     /tmp/ccfVfwaQ.s:3444   .debug_str:000000000000027a .LASF51
     /tmp/ccfVfwaQ.s:3682   .debug_str:00000000000008e6 .LASF52
     /tmp/ccfVfwaQ.s:3612   .debug_str:000000000000070f .LASF53
     /tmp/ccfVfwaQ.s:3484   .debug_str:000000000000038a .LASF54
     /tmp/ccfVfwaQ.s:3472   .debug_str:000000000000034b .LASF55
     /tmp/ccfVfwaQ.s:3552   .debug_str:000000000000057f .LASF56
     /tmp/ccfVfwaQ.s:3698   .debug_str:0000000000000963 .LASF57
     /tmp/ccfVfwaQ.s:3668   .debug_str:0000000000000880 .LASF58
GAS LISTING /tmp/ccfVfwaQ.s 			page 25


     /tmp/ccfVfwaQ.s:3550   .debug_str:0000000000000570 .LASF59
     /tmp/ccfVfwaQ.s:3424   .debug_str:00000000000001ee .LASF60
     /tmp/ccfVfwaQ.s:3548   .debug_str:000000000000055a .LASF63
     /tmp/ccfVfwaQ.s:3504   .debug_str:0000000000000430 .LASF64
     /tmp/ccfVfwaQ.s:3578   .debug_str:0000000000000634 .LASF65
     /tmp/ccfVfwaQ.s:3574   .debug_str:0000000000000621 .LASF66
     /tmp/ccfVfwaQ.s:3432   .debug_str:000000000000022f .LASF67
     /tmp/ccfVfwaQ.s:3706   .debug_str:0000000000000998 .LASF68
     /tmp/ccfVfwaQ.s:3618   .debug_str:0000000000000723 .LASF69
     /tmp/ccfVfwaQ.s:3572   .debug_str:0000000000000611 .LASF110
     /tmp/ccfVfwaQ.s:3606   .debug_str:00000000000006d6 .LASF159
     /tmp/ccfVfwaQ.s:3616   .debug_str:000000000000071e .LASF70
     /tmp/ccfVfwaQ.s:3586   .debug_str:0000000000000661 .LASF71
     /tmp/ccfVfwaQ.s:3506   .debug_str:0000000000000435 .LASF72
     /tmp/ccfVfwaQ.s:3454   .debug_str:00000000000002af .LASF73
     /tmp/ccfVfwaQ.s:3664   .debug_str:000000000000086f .LASF74
     /tmp/ccfVfwaQ.s:3486   .debug_str:000000000000039b .LASF75
     /tmp/ccfVfwaQ.s:3702   .debug_str:0000000000000970 .LASF76
     /tmp/ccfVfwaQ.s:3532   .debug_str:00000000000004e2 .LASF77
     /tmp/ccfVfwaQ.s:3656   .debug_str:0000000000000827 .LASF78
     /tmp/ccfVfwaQ.s:3540   .debug_str:0000000000000528 .LASF79
     /tmp/ccfVfwaQ.s:3460   .debug_str:00000000000002db .LASF80
     /tmp/ccfVfwaQ.s:3512   .debug_str:0000000000000449 .LASF81
     /tmp/ccfVfwaQ.s:3598   .debug_str:00000000000006a7 .LASF82
     /tmp/ccfVfwaQ.s:3638   .debug_str:0000000000000796 .LASF84
     /tmp/ccfVfwaQ.s:3450   .debug_str:0000000000000291 .LASF83
     /tmp/ccfVfwaQ.s:3690   .debug_str:000000000000092e .LASF85
     /tmp/ccfVfwaQ.s:3406   .debug_str:000000000000015e .LASF86
     /tmp/ccfVfwaQ.s:3420   .debug_str:00000000000001cd .LASF87
     /tmp/ccfVfwaQ.s:3440   .debug_str:0000000000000262 .LASF88
     /tmp/ccfVfwaQ.s:3400   .debug_str:0000000000000077 .LASF89
     /tmp/ccfVfwaQ.s:3528   .debug_str:00000000000004cb .LASF90
     /tmp/ccfVfwaQ.s:3678   .debug_str:00000000000008d1 .LASF91
     /tmp/ccfVfwaQ.s:3446   .debug_str:000000000000027f .LASF92
     /tmp/ccfVfwaQ.s:3614   .debug_str:0000000000000716 .LASF160
     /tmp/ccfVfwaQ.s:3696   .debug_str:000000000000095c .LASF97
     /tmp/ccfVfwaQ.s:3588   .debug_str:0000000000000669 .LASF93
     /tmp/ccfVfwaQ.s:3414   .debug_str:00000000000001a8 .LASF94
     /tmp/ccfVfwaQ.s:3412   .debug_str:000000000000019f .LASF95
     /tmp/ccfVfwaQ.s:3386   .debug_str:0000000000000009 .LASF96
     /tmp/ccfVfwaQ.s:3466   .debug_str:000000000000030a .LASF98
     /tmp/ccfVfwaQ.s:3480   .debug_str:0000000000000373 .LASF99
     /tmp/ccfVfwaQ.s:3478   .debug_str:0000000000000368 .LASF100
     /tmp/ccfVfwaQ.s:3426   .debug_str:0000000000000209 .LASF102
     /tmp/ccfVfwaQ.s:3600   .debug_str:00000000000006ae .LASF103
     /tmp/ccfVfwaQ.s:3602   .debug_str:00000000000006c5 .LASF104
     /tmp/ccfVfwaQ.s:3582   .debug_str:000000000000064b .LASF105
     /tmp/ccfVfwaQ.s:3394   .debug_str:0000000000000044 .LASF106
     /tmp/ccfVfwaQ.s:3500   .debug_str:0000000000000406 .LASF107
     /tmp/ccfVfwaQ.s:3658   .debug_str:0000000000000831 .LASF108
     /tmp/ccfVfwaQ.s:3538   .debug_str:000000000000051c .LASF109
     /tmp/ccfVfwaQ.s:3530   .debug_str:00000000000004d5 .LASF111
     /tmp/ccfVfwaQ.s:3648   .debug_str:00000000000007ee .LASF112
     /tmp/ccfVfwaQ.s:3566   .debug_str:00000000000005dc .LASF113
     /tmp/ccfVfwaQ.s:3442   .debug_str:0000000000000271 .LASF114
     /tmp/ccfVfwaQ.s:3652   .debug_str:000000000000080f .LASF115
     /tmp/ccfVfwaQ.s:3536   .debug_str:0000000000000506 .LASF116
GAS LISTING /tmp/ccfVfwaQ.s 			page 26


     /tmp/ccfVfwaQ.s:3496   .debug_str:00000000000003ed .LASF117
     /tmp/ccfVfwaQ.s:3684   .debug_str:00000000000008f5 .LASF118
     /tmp/ccfVfwaQ.s:3546   .debug_str:0000000000000550 .LASF119
     /tmp/ccfVfwaQ.s:3428   .debug_str:0000000000000215 .LASF120
     /tmp/ccfVfwaQ.s:3434   .debug_str:000000000000023f .LASF121
     /tmp/ccfVfwaQ.s:3392   .debug_str:000000000000001c .LASF122
     /tmp/ccfVfwaQ.s:3670   .debug_str:0000000000000892 .LASF123
     /tmp/ccfVfwaQ.s:3644   .debug_str:00000000000007ce .LASF124
     /tmp/ccfVfwaQ.s:3646   .debug_str:00000000000007e6 .LASF125
     /tmp/ccfVfwaQ.s:3674   .debug_str:00000000000008bd .LASF126
     /tmp/ccfVfwaQ.s:3622   .debug_str:000000000000074f .LASF127
     /tmp/ccfVfwaQ.s:3388   .debug_str:0000000000000011 .LASF128
     /tmp/ccfVfwaQ.s:3700   .debug_str:000000000000096b .LASF129
     /tmp/ccfVfwaQ.s:3508   .debug_str:000000000000043a .LASF130
     /tmp/ccfVfwaQ.s:3632   .debug_str:0000000000000778 .LASF131
     /tmp/ccfVfwaQ.s:3630   .debug_str:0000000000000773 .LASF132
     /tmp/ccfVfwaQ.s:3680   .debug_str:00000000000008de .LASF133
     /tmp/ccfVfwaQ.s:3636   .debug_str:000000000000078c .LASF134
     /tmp/ccfVfwaQ.s:3510   .debug_str:0000000000000440 .LASF135
     /tmp/ccfVfwaQ.s:3384   .debug_str:0000000000000000 .LASF136
     /tmp/ccfVfwaQ.s:3408   .debug_str:0000000000000163 .LASF137
     /tmp/ccfVfwaQ.s:3626   .debug_str:000000000000075f .LASF138
     /tmp/ccfVfwaQ.s:3448   .debug_str:0000000000000286 .LASF139
     /tmp/ccfVfwaQ.s:3584   .debug_str:0000000000000650 .LASF140
     /tmp/ccfVfwaQ.s:3498   .debug_str:00000000000003fd .LASF141
     /tmp/ccfVfwaQ.s:3490   .debug_str:00000000000003b3 .LASF142
     /tmp/ccfVfwaQ.s:3556   .debug_str:000000000000059b .LASF143
     /tmp/ccfVfwaQ.s:3522   .debug_str:0000000000000498 .LASF144
     /tmp/ccfVfwaQ.s:3468   .debug_str:000000000000030f .LASF145
     /tmp/ccfVfwaQ.s:3686   .debug_str:0000000000000905 .LASF146
     /tmp/ccfVfwaQ.s:3642   .debug_str:00000000000007af .LASF147
     /tmp/ccfVfwaQ.s:3422   .debug_str:00000000000001d2 .LASF148
     /tmp/ccfVfwaQ.s:3518   .debug_str:0000000000000478 .LASF149
     /tmp/ccfVfwaQ.s:3660   .debug_str:0000000000000844 .LASF150
     /tmp/ccfVfwaQ.s:3396   .debug_str:0000000000000050 .LASF151
     /tmp/ccfVfwaQ.s:3470   .debug_str:000000000000032d .LASF152
     /tmp/ccfVfwaQ.s:646    .text:0000000000000424 .LFB30
     /tmp/ccfVfwaQ.s:685    .text:000000000000044c .LFE30
     /tmp/ccfVfwaQ.s:3087   .debug_loc:0000000000000000 .LLST15
     /tmp/ccfVfwaQ.s:586    .text:00000000000003b8 .LFB29
     /tmp/ccfVfwaQ.s:640    .text:0000000000000424 .LFE29
     /tmp/ccfVfwaQ.s:3402   .debug_str:0000000000000087 .LASF153
     /tmp/ccfVfwaQ.s:3094   .debug_loc:0000000000000023 .LLST11
     /tmp/ccfVfwaQ.s:3108   .debug_loc:000000000000005c .LLST12
     /tmp/ccfVfwaQ.s:3122   .debug_loc:0000000000000095 .LLST13
     /tmp/ccfVfwaQ.s:3520   .debug_str:0000000000000493 .LASF154
     /tmp/ccfVfwaQ.s:3140   .debug_loc:00000000000000e1 .LLST14
     /tmp/ccfVfwaQ.s:610    .text:00000000000003e8 .LVL42
     /tmp/ccfVfwaQ.s:617    .text:00000000000003fc .LVL43
     /tmp/ccfVfwaQ.s:622    .text:0000000000000408 .LVL44
     /tmp/ccfVfwaQ.s:456    .text:00000000000002dc .LFB28
     /tmp/ccfVfwaQ.s:580    .text:00000000000003b8 .LFE28
     /tmp/ccfVfwaQ.s:3154   .debug_loc:000000000000011a .LLST5
     /tmp/ccfVfwaQ.s:3179   .debug_loc:000000000000017c .LLST6
     /tmp/ccfVfwaQ.s:3204   .debug_loc:00000000000001de .LLST7
     /tmp/ccfVfwaQ.s:3640   .debug_str:00000000000007a8 .LASF155
     /tmp/ccfVfwaQ.s:3229   .debug_loc:0000000000000240 .LLST8
GAS LISTING /tmp/ccfVfwaQ.s 			page 27


     /tmp/ccfVfwaQ.s:3251   .debug_loc:000000000000029f .LLST9
     /tmp/ccfVfwaQ.s:3268   .debug_loc:00000000000002ea .LLST10
     /tmp/ccfVfwaQ.s:553    .text:0000000000000394 .LVL37
     /tmp/ccfVfwaQ.s:398    .text:0000000000000298 .LFB27
     /tmp/ccfVfwaQ.s:445    .text:00000000000002dc .LFE27
     /tmp/ccfVfwaQ.s:3298   .debug_loc:0000000000000342 .LLST4
     /tmp/ccfVfwaQ.s:424    .text:00000000000002c0 .LVL24
     /tmp/ccfVfwaQ.s:332    .text:0000000000000220 .LFB26
     /tmp/ccfVfwaQ.s:392    .text:0000000000000298 .LFE26
     /tmp/ccfVfwaQ.s:3309   .debug_loc:0000000000000378 .LLST3
     /tmp/ccfVfwaQ.s:350    .text:0000000000000248 .LVL19
     /tmp/ccfVfwaQ.s:265    .text:00000000000001a0 .LFB25
     /tmp/ccfVfwaQ.s:326    .text:0000000000000220 .LFE25
     /tmp/ccfVfwaQ.s:3316   .debug_loc:000000000000039b .LLST2
     /tmp/ccfVfwaQ.s:312    .text:000000000000020c .LVL17
     /tmp/ccfVfwaQ.s:199    .text:0000000000000128 .LFB24
     /tmp/ccfVfwaQ.s:259    .text:00000000000001a0 .LFE24
     /tmp/ccfVfwaQ.s:3339   .debug_loc:00000000000003fb .LLST1
     /tmp/ccfVfwaQ.s:217    .text:0000000000000150 .LVL12
     /tmp/ccfVfwaQ.s:140    .text:00000000000000b8 .LFB23
     /tmp/ccfVfwaQ.s:193    .text:0000000000000128 .LFE23
     /tmp/ccfVfwaQ.s:3346   .debug_loc:000000000000041e .LLST0
     /tmp/ccfVfwaQ.s:179    .text:0000000000000114 .LVL10
     /tmp/ccfVfwaQ.s:102    .text:00000000000000b8 .LFE22
     /tmp/ccfVfwaQ.s:33     .text:0000000000000024 .LVL0
     /tmp/ccfVfwaQ.s:41     .text:0000000000000038 .LVL1
     /tmp/ccfVfwaQ.s:51     .text:000000000000004c .LVL2
     /tmp/ccfVfwaQ.s:59     .text:0000000000000060 .LVL3
     /tmp/ccfVfwaQ.s:84     .text:0000000000000090 .LVL4
     /tmp/ccfVfwaQ.s:88     .text:000000000000009c .LVL5
     /tmp/ccfVfwaQ.s:95     .text:00000000000000ac .LVL6
     /tmp/ccfVfwaQ.s:99     .text:00000000000000b8 .LVL7
     /tmp/ccfVfwaQ.s:3694   .debug_str:000000000000094d .LASF161
     /tmp/ccfVfwaQ.s:3462   .debug_str:00000000000002e4 .LASF162
     /tmp/ccfVfwaQ.s:672    .text:000000000000043c .LVL46
     /tmp/ccfVfwaQ.s:677    .text:0000000000000440 .LVL47
     /tmp/ccfVfwaQ.s:589    .text:00000000000003b8 .LVL41
     /tmp/ccfVfwaQ.s:631    .text:0000000000000414 .LVL45
     /tmp/ccfVfwaQ.s:459    .text:00000000000002dc .LVL27
     /tmp/ccfVfwaQ.s:495    .text:0000000000000320 .LVL30
     /tmp/ccfVfwaQ.s:555    .text:0000000000000398 .LVL38
     /tmp/ccfVfwaQ.s:561    .text:000000000000039c .LVL39
     /tmp/ccfVfwaQ.s:540    .text:0000000000000378 .LVL35
     /tmp/ccfVfwaQ.s:566    .text:00000000000003a4 .LVL40
     /tmp/ccfVfwaQ.s:500    .text:0000000000000324 .LVL31
     /tmp/ccfVfwaQ.s:511    .text:0000000000000334 .LVL32
     /tmp/ccfVfwaQ.s:532    .text:0000000000000364 .LVL34
     /tmp/ccfVfwaQ.s:545    .text:000000000000037c .LVL36
     /tmp/ccfVfwaQ.s:483    .text:0000000000000310 .LVL28
     /tmp/ccfVfwaQ.s:492    .text:000000000000031c .LVL29
     /tmp/ccfVfwaQ.s:526    .text:000000000000035c .LVL33
     /tmp/ccfVfwaQ.s:401    .text:0000000000000298 .LVL22
     /tmp/ccfVfwaQ.s:413    .text:00000000000002b0 .LVL23
     /tmp/ccfVfwaQ.s:440    .text:00000000000002d4 .LVL26
     /tmp/ccfVfwaQ.s:362    .text:0000000000000264 .LVL20
     /tmp/ccfVfwaQ.s:372    .text:000000000000027c .LVL21
     /tmp/ccfVfwaQ.s:268    .text:00000000000001a0 .LVL15
GAS LISTING /tmp/ccfVfwaQ.s 			page 28


     /tmp/ccfVfwaQ.s:310    .text:0000000000000204 .LVL16
     /tmp/ccfVfwaQ.s:322    .text:000000000000021c .LVL18
     /tmp/ccfVfwaQ.s:229    .text:000000000000016c .LVL13
     /tmp/ccfVfwaQ.s:239    .text:0000000000000184 .LVL14
     /tmp/ccfVfwaQ.s:143    .text:00000000000000b8 .LVL8
     /tmp/ccfVfwaQ.s:177    .text:000000000000010c .LVL9
     /tmp/ccfVfwaQ.s:189    .text:0000000000000124 .LVL11
     /tmp/ccfVfwaQ.s:758    .debug_info:0000000000000000 .Ldebug_info0
     /tmp/ccfVfwaQ.s:105    .gcc_except_table:0000000000000000 .LLSDA22

UNDEFINED SYMBOLS
_ZN3SCBnwEm
_ZN3SCBC1Em
_ZN3SCBdlEPv
_Unwind_Resume
__gxx_personality_v0
_ZN3SCB6signalEv
_ZN3SCB4waitEv
