GAS LISTING /tmp/ccVfGEPJ.s 			page 1


   1              		.file	"consoleUtil.cpp"
   2              		.option pic
   3              		.option norelax
   4              		.text
   5              	.Ltext0:
   6              		.align	2
   7              		.globl	_ZN11ConsoleUtil10initializeEv
   9              	_ZN11ConsoleUtil10initializeEv:
  10              	.LFB22:
  11              		.file 1 "src/kernel/consoleUtil.cpp"
   1:src/kernel/consoleUtil.cpp **** //
   2:src/kernel/consoleUtil.cpp **** // Created by os on 5/29/22.
   3:src/kernel/consoleUtil.cpp **** //
   4:src/kernel/consoleUtil.cpp **** 
   5:src/kernel/consoleUtil.cpp **** #include "../../h/kernel/consoleUtil.hpp"
   6:src/kernel/consoleUtil.cpp **** #include "../../h/user/printing.hpp"
   7:src/kernel/consoleUtil.cpp **** #include "../../h/kernel/scb.hpp"
   8:src/kernel/consoleUtil.cpp **** 
   9:src/kernel/consoleUtil.cpp **** uint64 ConsoleUtil::inputHead = 0;
  10:src/kernel/consoleUtil.cpp **** uint64 ConsoleUtil::inputTail = 0;
  11:src/kernel/consoleUtil.cpp **** uint64 ConsoleUtil::outputHead = 0;
  12:src/kernel/consoleUtil.cpp **** uint64 ConsoleUtil::outputTail = 0;
  13:src/kernel/consoleUtil.cpp **** 
  14:src/kernel/consoleUtil.cpp **** uint64 ConsoleUtil::pendingGetc = 0;
  15:src/kernel/consoleUtil.cpp **** uint64 ConsoleUtil::pendingPutc = 0;
  16:src/kernel/consoleUtil.cpp **** 
  17:src/kernel/consoleUtil.cpp **** SCB* ConsoleUtil::outputSem = nullptr;
  18:src/kernel/consoleUtil.cpp **** SCB* ConsoleUtil::inputSem = nullptr;
  19:src/kernel/consoleUtil.cpp **** 
  20:src/kernel/consoleUtil.cpp **** char* ConsoleUtil::inputBuffer = nullptr;
  21:src/kernel/consoleUtil.cpp **** char* ConsoleUtil::outputBuffer = nullptr;
  22:src/kernel/consoleUtil.cpp **** //char ConsoleUtil::inputBuffer[8192];
  23:src/kernel/consoleUtil.cpp **** //char ConsoleUtil::outputBuffer[8192];
  24:src/kernel/consoleUtil.cpp **** 
  25:src/kernel/consoleUtil.cpp **** uint64 ConsoleUtil::bufferSize = 8192;
  26:src/kernel/consoleUtil.cpp **** 
  27:src/kernel/consoleUtil.cpp **** void ConsoleUtil::initialize() {
  12              		.loc 1 27 32
  13              		.cfi_startproc
  14              		.cfi_personality 0x9b,DW.ref.__gxx_personality_v0
  15              		.cfi_lsda 0x1b,.LLSDA22
  16 0000 130101FE 		addi	sp,sp,-32
  17              		.cfi_def_cfa_offset 32
  18 0004 233C1100 		sd	ra,24(sp)
  19 0008 23388100 		sd	s0,16(sp)
  20 000c 23349100 		sd	s1,8(sp)
  21 0010 23302101 		sd	s2,0(sp)
  22              		.cfi_offset 1, -8
  23              		.cfi_offset 8, -16
  24              		.cfi_offset 9, -24
  25              		.cfi_offset 18, -32
  26 0014 13040102 		addi	s0,sp,32
  27              		.cfi_def_cfa 8, 0
  28:src/kernel/consoleUtil.cpp ****     inputSem = new SCB(0);
  28              		.loc 1 28 5
  29              		.loc 1 28 25 is_stmt 0
  30 0018 13058001 		li	a0,24
GAS LISTING /tmp/ccVfGEPJ.s 			page 2


  31              	.LEHB0:
  32 001c 97000000 		call	_ZN3SCBnwEm@plt
  32      E7800000 
  33              	.LVL0:
  34              	.LEHE0:
  35 0024 93040500 		mv	s1,a0
  36 0028 63080500 		beqz	a0,.L2
  37              		.loc 1 28 25 discriminator 1
  38 002c 93050000 		li	a1,0
  39              	.LEHB1:
  40 0030 97000000 		call	_ZN3SCBC1Em@plt
  40      E7800000 
  41              	.LVL1:
  42              	.LEHE1:
  43              	.L2:
  44              		.loc 1 28 14 discriminator 6
  45 0038 97070000 		sd	s1,.LANCHOR0,a5
  45      23B09700 
  29:src/kernel/consoleUtil.cpp ****     outputSem = new SCB(0);
  46              		.loc 1 29 5 is_stmt 1 discriminator 6
  47              		.loc 1 29 26 is_stmt 0 discriminator 6
  48 0040 13058001 		li	a0,24
  49              	.LEHB2:
  50 0044 97000000 		call	_ZN3SCBnwEm@plt
  50      E7800000 
  51              	.LVL2:
  52              	.LEHE2:
  53 004c 93040500 		mv	s1,a0
  54 0050 63080500 		beqz	a0,.L3
  55              		.loc 1 29 26 discriminator 1
  56 0054 93050000 		li	a1,0
  57              	.LEHB3:
  58 0058 97000000 		call	_ZN3SCBC1Em@plt
  58      E7800000 
  59              	.LVL3:
  60              	.LEHE3:
  61              	.L3:
  62              		.loc 1 29 15 discriminator 6
  63 0060 17090000 		lla	s2,.LANCHOR0
  63      13090900 
  64 0068 23349900 		sd	s1,8(s2)
  30:src/kernel/consoleUtil.cpp ****     inputBuffer = (char*)kmalloc(ConsoleUtil::bufferSize);
  65              		.loc 1 30 5 is_stmt 1 discriminator 6
  66              		.loc 1 30 33 is_stmt 0 discriminator 6
  67 006c 97040000 		lla	s1,.LANCHOR1
  67      93840400 
  68 0074 03B50400 		ld	a0,0(s1)
  69              	.LEHB4:
  70 0078 97000000 		call	_Z7kmallocm@plt
  70      E7800000 
  71              	.LVL4:
  72              		.loc 1 30 17 discriminator 6
  73 0080 2338A900 		sd	a0,16(s2)
  31:src/kernel/consoleUtil.cpp ****     outputBuffer = (char*)kmalloc(ConsoleUtil::bufferSize);
  74              		.loc 1 31 5 is_stmt 1 discriminator 6
  75              		.loc 1 31 34 is_stmt 0 discriminator 6
  76 0084 03B50400 		ld	a0,0(s1)
GAS LISTING /tmp/ccVfGEPJ.s 			page 3


  77 0088 97000000 		call	_Z7kmallocm@plt
  77      E7800000 
  78              	.LVL5:
  79              	.LEHE4:
  80              		.loc 1 31 18 discriminator 6
  81 0090 233CA900 		sd	a0,24(s2)
  32:src/kernel/consoleUtil.cpp **** }
  82              		.loc 1 32 1 discriminator 6
  83 0094 83308101 		ld	ra,24(sp)
  84              		.cfi_remember_state
  85              		.cfi_restore 1
  86 0098 03340101 		ld	s0,16(sp)
  87              		.cfi_restore 8
  88              		.cfi_def_cfa 2, 32
  89 009c 83348100 		ld	s1,8(sp)
  90              		.cfi_restore 9
  91 00a0 03390100 		ld	s2,0(sp)
  92              		.cfi_restore 18
  93 00a4 13010102 		addi	sp,sp,32
  94              		.cfi_def_cfa_offset 0
  95 00a8 67800000 		jr	ra
  96              	.L6:
  97              		.cfi_restore_state
  98 00ac 13090500 		mv	s2,a0
  28:src/kernel/consoleUtil.cpp ****     outputSem = new SCB(0);
  99              		.loc 1 28 25
 100 00b0 13850400 		mv	a0,s1
 101 00b4 97000000 		call	_ZN3SCBdlEPv@plt
 101      E7800000 
 102              	.LVL6:
 103 00bc 13050900 		mv	a0,s2
 104              	.LEHB5:
 105 00c0 97000000 		call	_Unwind_Resume@plt
 105      E7800000 
 106              	.LVL7:
 107              	.LEHE5:
 108              	.L7:
 109 00c8 13090500 		mv	s2,a0
  29:src/kernel/consoleUtil.cpp ****     inputBuffer = (char*)kmalloc(ConsoleUtil::bufferSize);
 110              		.loc 1 29 26
 111 00cc 13850400 		mv	a0,s1
 112 00d0 97000000 		call	_ZN3SCBdlEPv@plt
 112      E7800000 
 113              	.LVL8:
 114 00d8 13050900 		mv	a0,s2
 115              	.LEHB6:
 116 00dc 97000000 		call	_Unwind_Resume@plt
 116      E7800000 
 117              	.LVL9:
 118              	.LEHE6:
 119              		.cfi_endproc
 120              	.LFE22:
 121              		.globl	__gxx_personality_v0
 122              		.section	.gcc_except_table,"a",@progbits
 123              	.LLSDA22:
 124 0000 FF       		.byte	0xff
 125 0001 FF       		.byte	0xff
GAS LISTING /tmp/ccVfGEPJ.s 			page 4


 126 0002 03       		.byte	0x3
 127 0003 5B       		.byte	0x5b
 128 0004 00000000 		.4byte	.LEHB0-.LFB22
 129 0008 00000000 		.4byte	.LEHE0-.LEHB0
 130 000c 00000000 		.4byte	0
 131 0010 00       		.byte	0
 132 0011 00000000 		.4byte	.LEHB1-.LFB22
 133 0015 00000000 		.4byte	.LEHE1-.LEHB1
 134 0019 00000000 		.4byte	.L6-.LFB22
 135 001d 00       		.byte	0
 136 001e 00000000 		.4byte	.LEHB2-.LFB22
 137 0022 00000000 		.4byte	.LEHE2-.LEHB2
 138 0026 00000000 		.4byte	0
 139 002a 00       		.byte	0
 140 002b 00000000 		.4byte	.LEHB3-.LFB22
 141 002f 00000000 		.4byte	.LEHE3-.LEHB3
 142 0033 00000000 		.4byte	.L7-.LFB22
 143 0037 00       		.byte	0
 144 0038 00000000 		.4byte	.LEHB4-.LFB22
 145 003c 00000000 		.4byte	.LEHE4-.LEHB4
 146 0040 00000000 		.4byte	0
 147 0044 00       		.byte	0
 148 0045 00000000 		.4byte	.LEHB5-.LFB22
 149 0049 00000000 		.4byte	.LEHE5-.LEHB5
 150 004d 00000000 		.4byte	0
 151 0051 00       		.byte	0
 152 0052 00000000 		.4byte	.LEHB6-.LFB22
 153 0056 00000000 		.4byte	.LEHE6-.LEHB6
 154 005a 00000000 		.4byte	0
 155 005e 00       		.byte	0
 156              		.text
 158              		.align	2
 159              		.globl	_ZN11ConsoleUtil8putInputEc
 161              	_ZN11ConsoleUtil8putInputEc:
 162              	.LFB23:
  33:src/kernel/consoleUtil.cpp **** 
  34:src/kernel/consoleUtil.cpp **** void ConsoleUtil::putInput(char c) {
 163              		.loc 1 34 36 is_stmt 1
 164              		.cfi_startproc
 165              	.LVL10:
  35:src/kernel/consoleUtil.cpp ****     if((inputTail+1)%bufferSize == inputHead)
 166              		.loc 1 35 5
 167              		.loc 1 35 18 is_stmt 0
 168 00e4 17070000 		lla	a4,.LANCHOR0
 168      13070700 
 169 00ec 83360702 		ld	a3,32(a4)
 170 00f0 93871600 		addi	a5,a3,1
 171              		.loc 1 35 21
 172 00f4 17060000 		ld	a2,.LANCHOR1
 172      03360600 
 173 00fc B3F7C702 		remu	a5,a5,a2
 174              		.loc 1 35 33
 175 0100 03378702 		ld	a4,40(a4)
 176              		.loc 1 35 5
 177 0104 638EE704 		beq	a5,a4,.L13
  34:src/kernel/consoleUtil.cpp ****     if((inputTail+1)%bufferSize == inputHead)
 178              		.loc 1 34 36
GAS LISTING /tmp/ccVfGEPJ.s 			page 5


 179 0108 130101FF 		addi	sp,sp,-16
 180              		.cfi_def_cfa_offset 16
 181 010c 23341100 		sd	ra,8(sp)
 182 0110 23308100 		sd	s0,0(sp)
 183              		.cfi_offset 1, -8
 184              		.cfi_offset 8, -16
 185 0114 13040101 		addi	s0,sp,16
 186              		.cfi_def_cfa 8, 0
  36:src/kernel/consoleUtil.cpp ****         return;
  37:src/kernel/consoleUtil.cpp ****     inputBuffer[inputTail] = c;
 187              		.loc 1 37 5 is_stmt 1
 188              		.loc 1 37 26 is_stmt 0
 189 0118 17070000 		lla	a4,.LANCHOR0
 189      13070700 
 190 0120 83370701 		ld	a5,16(a4)
 191 0124 B386D700 		add	a3,a5,a3
 192              		.loc 1 37 28
 193 0128 2380A600 		sb	a0,0(a3)
  38:src/kernel/consoleUtil.cpp ****     inputTail = (inputTail+1)%bufferSize;
 194              		.loc 1 38 5 is_stmt 1
 195              		.loc 1 38 27 is_stmt 0
 196 012c 83370702 		ld	a5,32(a4)
 197 0130 93871700 		addi	a5,a5,1
 198              		.loc 1 38 30
 199 0134 97060000 		ld	a3,.LANCHOR1
 199      83B60600 
 200 013c B3F7D702 		remu	a5,a5,a3
 201              		.loc 1 38 15
 202 0140 2330F702 		sd	a5,32(a4)
  39:src/kernel/consoleUtil.cpp ****     inputSem->signal();
 203              		.loc 1 39 5 is_stmt 1
 204              		.loc 1 39 21 is_stmt 0
 205 0144 03350700 		ld	a0,0(a4)
 206              	.LVL11:
 207 0148 97000000 		call	_ZN3SCB6signalEv@plt
 207      E7800000 
 208              	.LVL12:
  40:src/kernel/consoleUtil.cpp **** }
 209              		.loc 1 40 1
 210 0150 83308100 		ld	ra,8(sp)
 211              		.cfi_restore 1
 212 0154 03340100 		ld	s0,0(sp)
 213              		.cfi_restore 8
 214              		.cfi_def_cfa 2, 16
 215 0158 13010101 		addi	sp,sp,16
 216              		.cfi_def_cfa_offset 0
 217 015c 67800000 		jr	ra
 218              	.LVL13:
 219              	.L13:
 220 0160 67800000 		ret
 221              		.cfi_endproc
 222              	.LFE23:
 224              		.align	2
 225              		.globl	_ZN11ConsoleUtil8getInputEv
 227              	_ZN11ConsoleUtil8getInputEv:
 228              	.LFB24:
  41:src/kernel/consoleUtil.cpp **** 
GAS LISTING /tmp/ccVfGEPJ.s 			page 6


  42:src/kernel/consoleUtil.cpp **** char ConsoleUtil::getInput() {
 229              		.loc 1 42 30 is_stmt 1
 230              		.cfi_startproc
 231 0164 130101FE 		addi	sp,sp,-32
 232              		.cfi_def_cfa_offset 32
 233 0168 233C1100 		sd	ra,24(sp)
 234 016c 23388100 		sd	s0,16(sp)
 235 0170 23349100 		sd	s1,8(sp)
 236              		.cfi_offset 1, -8
 237              		.cfi_offset 8, -16
 238              		.cfi_offset 9, -24
 239 0174 13040102 		addi	s0,sp,32
 240              		.cfi_def_cfa 8, 0
  43:src/kernel/consoleUtil.cpp ****     inputSem->wait();
 241              		.loc 1 43 5
 242              		.loc 1 43 19 is_stmt 0
 243 0178 97040000 		lla	s1,.LANCHOR0
 243      93840400 
 244 0180 03B50400 		ld	a0,0(s1)
 245 0184 97000000 		call	_ZN3SCB4waitEv@plt
 245      E7800000 
 246              	.LVL14:
  44:src/kernel/consoleUtil.cpp **** 
  45:src/kernel/consoleUtil.cpp ****     if(inputHead == inputTail)
 247              		.loc 1 45 5 is_stmt 1
 248              		.loc 1 45 18 is_stmt 0
 249 018c 83B78402 		ld	a5,40(s1)
 250 0190 03B70402 		ld	a4,32(s1)
 251              		.loc 1 45 5
 252 0194 638CE702 		beq	a5,a4,.L18
  46:src/kernel/consoleUtil.cpp ****         return -1;
  47:src/kernel/consoleUtil.cpp ****     char c = inputBuffer[inputHead];
 253              		.loc 1 47 5 is_stmt 1
 254              		.loc 1 47 35 is_stmt 0
 255 0198 03B70401 		ld	a4,16(s1)
 256 019c 3307F700 		add	a4,a4,a5
 257              		.loc 1 47 10
 258 01a0 03450700 		lbu	a0,0(a4)
 259              	.LVL15:
  48:src/kernel/consoleUtil.cpp **** 
  49:src/kernel/consoleUtil.cpp ****     inputHead = (inputHead+1)%bufferSize;
 260              		.loc 1 49 5 is_stmt 1
 261              		.loc 1 49 27 is_stmt 0
 262 01a4 93871700 		addi	a5,a5,1
 263              		.loc 1 49 30
 264 01a8 17070000 		ld	a4,.LANCHOR1
 264      03370700 
 265 01b0 B3F7E702 		remu	a5,a5,a4
 266              		.loc 1 49 15
 267 01b4 23B4F402 		sd	a5,40(s1)
  50:src/kernel/consoleUtil.cpp **** 
  51:src/kernel/consoleUtil.cpp ****     return c;
 268              		.loc 1 51 5 is_stmt 1
 269              	.LVL16:
 270              	.L17:
  52:src/kernel/consoleUtil.cpp **** }
 271              		.loc 1 52 1 is_stmt 0
GAS LISTING /tmp/ccVfGEPJ.s 			page 7


 272 01b8 83308101 		ld	ra,24(sp)
 273              		.cfi_remember_state
 274              		.cfi_restore 1
 275 01bc 03340101 		ld	s0,16(sp)
 276              		.cfi_restore 8
 277              		.cfi_def_cfa 2, 32
 278 01c0 83348100 		ld	s1,8(sp)
 279              		.cfi_restore 9
 280 01c4 13010102 		addi	sp,sp,32
 281              		.cfi_def_cfa_offset 0
 282 01c8 67800000 		jr	ra
 283              	.L18:
 284              		.cfi_restore_state
  46:src/kernel/consoleUtil.cpp ****     char c = inputBuffer[inputHead];
 285              		.loc 1 46 17
 286 01cc 1305F00F 		li	a0,255
 287 01d0 6FF09FFE 		j	.L17
 288              		.cfi_endproc
 289              	.LFE24:
 291              		.align	2
 292              		.globl	_ZN11ConsoleUtil9putOutputEc
 294              	_ZN11ConsoleUtil9putOutputEc:
 295              	.LFB25:
  53:src/kernel/consoleUtil.cpp **** 
  54:src/kernel/consoleUtil.cpp **** void ConsoleUtil::putOutput(char c) {
 296              		.loc 1 54 37 is_stmt 1
 297              		.cfi_startproc
 298              	.LVL17:
  55:src/kernel/consoleUtil.cpp ****     pendingPutc++;
 299              		.loc 1 55 5
 300              		.loc 1 55 16 is_stmt 0
 301 01d4 97070000 		lla	a5,.LANCHOR0
 301      93870700 
 302 01dc 03B70703 		ld	a4,48(a5)
 303 01e0 13071700 		addi	a4,a4,1
 304 01e4 23B8E702 		sd	a4,48(a5)
  56:src/kernel/consoleUtil.cpp **** 
  57:src/kernel/consoleUtil.cpp ****     if((outputTail+1)%bufferSize == outputHead)
 305              		.loc 1 57 5 is_stmt 1
 306              		.loc 1 57 19 is_stmt 0
 307 01e8 83B68703 		ld	a3,56(a5)
 308 01ec 13871600 		addi	a4,a3,1
 309              		.loc 1 57 22
 310 01f0 17060000 		ld	a2,.LANCHOR1
 310      03360600 
 311 01f8 3377C702 		remu	a4,a4,a2
 312              		.loc 1 57 34
 313 01fc 83B70704 		ld	a5,64(a5)
 314              		.loc 1 57 5
 315 0200 6304F706 		beq	a4,a5,.L23
  54:src/kernel/consoleUtil.cpp ****     pendingPutc++;
 316              		.loc 1 54 37
 317 0204 130101FF 		addi	sp,sp,-16
 318              		.cfi_def_cfa_offset 16
 319 0208 23341100 		sd	ra,8(sp)
 320 020c 23308100 		sd	s0,0(sp)
 321              		.cfi_offset 1, -8
GAS LISTING /tmp/ccVfGEPJ.s 			page 8


 322              		.cfi_offset 8, -16
 323 0210 13040101 		addi	s0,sp,16
 324              		.cfi_def_cfa 8, 0
  58:src/kernel/consoleUtil.cpp ****         return;
  59:src/kernel/consoleUtil.cpp **** 
  60:src/kernel/consoleUtil.cpp ****     outputBuffer[outputTail] = c;
 325              		.loc 1 60 5 is_stmt 1
 326              		.loc 1 60 28 is_stmt 0
 327 0214 97070000 		lla	a5,.LANCHOR0
 327      93870700 
 328 021c 03B78701 		ld	a4,24(a5)
 329 0220 B306D700 		add	a3,a4,a3
 330              		.loc 1 60 30
 331 0224 2380A600 		sb	a0,0(a3)
  61:src/kernel/consoleUtil.cpp **** 
  62:src/kernel/consoleUtil.cpp ****     outputTail = (outputTail+1)%bufferSize;
 332              		.loc 1 62 5 is_stmt 1
 333              		.loc 1 62 29 is_stmt 0
 334 0228 03B78703 		ld	a4,56(a5)
 335 022c 13071700 		addi	a4,a4,1
 336              		.loc 1 62 32
 337 0230 97060000 		ld	a3,.LANCHOR1
 337      83B60600 
 338 0238 3377D702 		remu	a4,a4,a3
 339              		.loc 1 62 16
 340 023c 23BCE702 		sd	a4,56(a5)
  63:src/kernel/consoleUtil.cpp **** 
  64:src/kernel/consoleUtil.cpp ****     pendingPutc--;
 341              		.loc 1 64 5 is_stmt 1
 342              		.loc 1 64 16 is_stmt 0
 343 0240 03B70703 		ld	a4,48(a5)
 344 0244 1307F7FF 		addi	a4,a4,-1
 345 0248 23B8E702 		sd	a4,48(a5)
  65:src/kernel/consoleUtil.cpp **** 
  66:src/kernel/consoleUtil.cpp ****     outputSem->signal();
 346              		.loc 1 66 5 is_stmt 1
 347              		.loc 1 66 22 is_stmt 0
 348 024c 03B58700 		ld	a0,8(a5)
 349              	.LVL18:
 350 0250 97000000 		call	_ZN3SCB6signalEv@plt
 350      E7800000 
 351              	.LVL19:
  67:src/kernel/consoleUtil.cpp **** }
 352              		.loc 1 67 1
 353 0258 83308100 		ld	ra,8(sp)
 354              		.cfi_restore 1
 355 025c 03340100 		ld	s0,0(sp)
 356              		.cfi_restore 8
 357              		.cfi_def_cfa 2, 16
 358 0260 13010101 		addi	sp,sp,16
 359              		.cfi_def_cfa_offset 0
 360 0264 67800000 		jr	ra
 361              	.LVL20:
 362              	.L23:
 363 0268 67800000 		ret
 364              		.cfi_endproc
 365              	.LFE25:
GAS LISTING /tmp/ccVfGEPJ.s 			page 9


 367              		.align	2
 368              		.globl	_ZN11ConsoleUtil9getOutputEv
 370              	_ZN11ConsoleUtil9getOutputEv:
 371              	.LFB26:
  68:src/kernel/consoleUtil.cpp **** 
  69:src/kernel/consoleUtil.cpp **** char ConsoleUtil::getOutput() {
 372              		.loc 1 69 31 is_stmt 1
 373              		.cfi_startproc
 374 026c 130101FE 		addi	sp,sp,-32
 375              		.cfi_def_cfa_offset 32
 376 0270 233C1100 		sd	ra,24(sp)
 377 0274 23388100 		sd	s0,16(sp)
 378 0278 23349100 		sd	s1,8(sp)
 379              		.cfi_offset 1, -8
 380              		.cfi_offset 8, -16
 381              		.cfi_offset 9, -24
 382 027c 13040102 		addi	s0,sp,32
 383              		.cfi_def_cfa 8, 0
  70:src/kernel/consoleUtil.cpp ****     outputSem->wait();
 384              		.loc 1 70 5
 385              		.loc 1 70 20 is_stmt 0
 386 0280 97040000 		lla	s1,.LANCHOR0
 386      93840400 
 387 0288 03B58400 		ld	a0,8(s1)
 388 028c 97000000 		call	_ZN3SCB4waitEv@plt
 388      E7800000 
 389              	.LVL21:
  71:src/kernel/consoleUtil.cpp ****     if(outputHead == outputTail)
 390              		.loc 1 71 5 is_stmt 1
 391              		.loc 1 71 19 is_stmt 0
 392 0294 83B70404 		ld	a5,64(s1)
 393 0298 03B78403 		ld	a4,56(s1)
 394              		.loc 1 71 5
 395 029c 638CE702 		beq	a5,a4,.L28
  72:src/kernel/consoleUtil.cpp ****         return -1;
  73:src/kernel/consoleUtil.cpp **** 
  74:src/kernel/consoleUtil.cpp ****     char c = outputBuffer[outputHead];
 396              		.loc 1 74 5 is_stmt 1
 397              		.loc 1 74 37 is_stmt 0
 398 02a0 03B78401 		ld	a4,24(s1)
 399 02a4 3307F700 		add	a4,a4,a5
 400              		.loc 1 74 10
 401 02a8 03450700 		lbu	a0,0(a4)
 402              	.LVL22:
  75:src/kernel/consoleUtil.cpp **** 
  76:src/kernel/consoleUtil.cpp ****     outputHead = (outputHead+1)%bufferSize;
 403              		.loc 1 76 5 is_stmt 1
 404              		.loc 1 76 29 is_stmt 0
 405 02ac 93871700 		addi	a5,a5,1
 406              		.loc 1 76 32
 407 02b0 17070000 		ld	a4,.LANCHOR1
 407      03370700 
 408 02b8 B3F7E702 		remu	a5,a5,a4
 409              		.loc 1 76 16
 410 02bc 23B0F404 		sd	a5,64(s1)
  77:src/kernel/consoleUtil.cpp **** 
  78:src/kernel/consoleUtil.cpp ****     return c;
GAS LISTING /tmp/ccVfGEPJ.s 			page 10


 411              		.loc 1 78 5 is_stmt 1
 412              	.LVL23:
 413              	.L27:
  79:src/kernel/consoleUtil.cpp **** }
 414              		.loc 1 79 1 is_stmt 0
 415 02c0 83308101 		ld	ra,24(sp)
 416              		.cfi_remember_state
 417              		.cfi_restore 1
 418 02c4 03340101 		ld	s0,16(sp)
 419              		.cfi_restore 8
 420              		.cfi_def_cfa 2, 32
 421 02c8 83348100 		ld	s1,8(sp)
 422              		.cfi_restore 9
 423 02cc 13010102 		addi	sp,sp,32
 424              		.cfi_def_cfa_offset 0
 425 02d0 67800000 		jr	ra
 426              	.L28:
 427              		.cfi_restore_state
  72:src/kernel/consoleUtil.cpp **** 
 428              		.loc 1 72 17
 429 02d4 1305F00F 		li	a0,255
 430 02d8 6FF09FFE 		j	.L27
 431              		.cfi_endproc
 432              	.LFE26:
 434              		.align	2
 435              		.globl	_ZN11ConsoleUtil11printStringEPKc
 437              	_ZN11ConsoleUtil11printStringEPKc:
 438              	.LFB27:
  80:src/kernel/consoleUtil.cpp **** 
  81:src/kernel/consoleUtil.cpp **** void ConsoleUtil::printString(const char *string) {
 439              		.loc 1 81 51 is_stmt 1
 440              		.cfi_startproc
 441              	.LVL24:
 442 02dc 130101FE 		addi	sp,sp,-32
 443              		.cfi_def_cfa_offset 32
 444 02e0 233C1100 		sd	ra,24(sp)
 445 02e4 23388100 		sd	s0,16(sp)
 446 02e8 23349100 		sd	s1,8(sp)
 447              		.cfi_offset 1, -8
 448              		.cfi_offset 8, -16
 449              		.cfi_offset 9, -24
 450 02ec 13040102 		addi	s0,sp,32
 451              		.cfi_def_cfa 8, 0
 452 02f0 93040500 		mv	s1,a0
 453              	.LVL25:
 454              	.L32:
  82:src/kernel/consoleUtil.cpp ****     while (*string != '\0')
 455              		.loc 1 82 5
 456              		.loc 1 82 20
 457              		.loc 1 82 12 is_stmt 0
 458 02f4 03C50400 		lbu	a0,0(s1)
 459              		.loc 1 82 20
 460 02f8 630A0500 		beqz	a0,.L30
  83:src/kernel/consoleUtil.cpp ****     {
  84:src/kernel/consoleUtil.cpp ****         ConsoleUtil::putOutput(*string);
 461              		.loc 1 84 9 is_stmt 1
 462              		.loc 1 84 31 is_stmt 0
GAS LISTING /tmp/ccVfGEPJ.s 			page 11


 463 02fc 97000000 		call	_ZN11ConsoleUtil9putOutputEc
 463      E7800000 
 464              	.LVL26:
  85:src/kernel/consoleUtil.cpp ****         string++;
 465              		.loc 1 85 9 is_stmt 1
 466              		.loc 1 85 15 is_stmt 0
 467 0304 93841400 		addi	s1,s1,1
 468              	.LVL27:
  82:src/kernel/consoleUtil.cpp ****     while (*string != '\0')
 469              		.loc 1 82 5
 470 0308 6FF0DFFE 		j	.L32
 471              	.L30:
  86:src/kernel/consoleUtil.cpp ****     }
  87:src/kernel/consoleUtil.cpp **** }
 472              		.loc 1 87 1
 473 030c 83308101 		ld	ra,24(sp)
 474              		.cfi_restore 1
 475 0310 03340101 		ld	s0,16(sp)
 476              		.cfi_restore 8
 477              		.cfi_def_cfa 2, 32
 478 0314 83348100 		ld	s1,8(sp)
 479              		.cfi_restore 9
 480              	.LVL28:
 481 0318 13010102 		addi	sp,sp,32
 482              		.cfi_def_cfa_offset 0
 483 031c 67800000 		jr	ra
 484              		.cfi_endproc
 485              	.LFE27:
 487              		.section	.rodata.str1.8,"aMS",@progbits,1
 488              		.align	3
 489              	.LC0:
 490 0000 30313233 		.string	"0123456789ABCDEF"
 490      34353637 
 490      38394142 
 490      43444546 
 490      00
 491              		.text
 492              		.align	2
 493              		.globl	_ZN11ConsoleUtil8printIntEiii
 495              	_ZN11ConsoleUtil8printIntEiii:
 496              	.LFB28:
  88:src/kernel/consoleUtil.cpp **** 
  89:src/kernel/consoleUtil.cpp **** void ConsoleUtil::printInt(int xx, int base, int sgn)
  90:src/kernel/consoleUtil.cpp **** {
 497              		.loc 1 90 1 is_stmt 1
 498              		.cfi_startproc
 499              	.LVL29:
 500 0320 130101FB 		addi	sp,sp,-80
 501              		.cfi_def_cfa_offset 80
 502 0324 23341104 		sd	ra,72(sp)
 503 0328 23308104 		sd	s0,64(sp)
 504 032c 233C9102 		sd	s1,56(sp)
 505              		.cfi_offset 1, -8
 506              		.cfi_offset 8, -16
 507              		.cfi_offset 9, -24
 508 0330 13040105 		addi	s0,sp,80
 509              		.cfi_def_cfa 8, 0
GAS LISTING /tmp/ccVfGEPJ.s 			page 12


  91:src/kernel/consoleUtil.cpp ****     char digits[] = "0123456789ABCDEF";
 510              		.loc 1 91 5
 511              		.loc 1 91 10 is_stmt 0
 512 0334 97070000 		lla	a5,.LC0
 512      93870700 
 513 033c 03B70700 		ld	a4,0(a5)
 514 0340 2334E4FC 		sd	a4,-56(s0)
 515 0344 03B78700 		ld	a4,8(a5)
 516 0348 2338E4FC 		sd	a4,-48(s0)
 517 034c 83C70701 		lbu	a5,16(a5)
 518 0350 230CF4FC 		sb	a5,-40(s0)
  92:src/kernel/consoleUtil.cpp ****     char buf[16];
 519              		.loc 1 92 5 is_stmt 1
  93:src/kernel/consoleUtil.cpp ****     int i, neg;
 520              		.loc 1 93 5
  94:src/kernel/consoleUtil.cpp ****     uint x;
 521              		.loc 1 94 5
  95:src/kernel/consoleUtil.cpp **** 
  96:src/kernel/consoleUtil.cpp ****     neg = 0;
 522              		.loc 1 96 5
 523              	.LVL30:
  97:src/kernel/consoleUtil.cpp ****     if(sgn && xx < 0){
 524              		.loc 1 97 5
 525 0354 63040600 		beqz	a2,.L35
 526              		.loc 1 97 12 is_stmt 0 discriminator 1
 527 0358 63420508 		bltz	a0,.L42
 528              	.L35:
  98:src/kernel/consoleUtil.cpp ****         neg = 1;
  99:src/kernel/consoleUtil.cpp ****         x = -xx;
 100:src/kernel/consoleUtil.cpp ****     } else {
 101:src/kernel/consoleUtil.cpp ****         x = xx;
 529              		.loc 1 101 9 is_stmt 1
 530              		.loc 1 101 11 is_stmt 0
 531 035c 1B050500 		sext.w	a0,a0
 532              	.LVL31:
  96:src/kernel/consoleUtil.cpp ****     if(sgn && xx < 0){
 533              		.loc 1 96 9
 534 0360 13080000 		li	a6,0
 535              	.LVL32:
 536              	.L36:
 102:src/kernel/consoleUtil.cpp ****     }
 103:src/kernel/consoleUtil.cpp **** 
 104:src/kernel/consoleUtil.cpp ****     i = 0;
 537              		.loc 1 104 5 is_stmt 1
 538              		.loc 1 104 7 is_stmt 0
 539 0364 93040000 		li	s1,0
 540              	.LVL33:
 541              	.L37:
 105:src/kernel/consoleUtil.cpp ****     do{
 542              		.loc 1 105 5 is_stmt 1
 106:src/kernel/consoleUtil.cpp ****         buf[i++] = digits[x % base];
 543              		.loc 1 106 9
 544              		.loc 1 106 31 is_stmt 0
 545 0368 1B870500 		sext.w	a4,a1
 546              		.loc 1 106 29
 547 036c BB77B502 		remuw	a5,a0,a1
 548 0370 93860400 		mv	a3,s1
GAS LISTING /tmp/ccVfGEPJ.s 			page 13


 549              		.loc 1 106 14
 550 0374 9B841400 		addiw	s1,s1,1
 551              	.LVL34:
 552              		.loc 1 106 35
 553 0378 93970702 		slli	a5,a5,32
 554 037c 93D70702 		srli	a5,a5,32
 555 0380 130604FE 		addi	a2,s0,-32
 556 0384 B307F600 		add	a5,a2,a5
 557 0388 03C687FE 		lbu	a2,-24(a5)
 558              		.loc 1 106 18
 559 038c 930704FE 		addi	a5,s0,-32
 560 0390 B387D700 		add	a5,a5,a3
 561 0394 238CC7FC 		sb	a2,-40(a5)
 107:src/kernel/consoleUtil.cpp ****     }while((x /= base) != 0);
 562              		.loc 1 107 24 is_stmt 1
 563 0398 1B060500 		sext.w	a2,a0
 564              		.loc 1 107 15 is_stmt 0
 565 039c 3B55B502 		divuw	a0,a0,a1
 566              	.LVL35:
 567              		.loc 1 107 24
 568 03a0 E374E6FC 		bleu	a4,a2,.L37
 108:src/kernel/consoleUtil.cpp ****     if(neg)
 569              		.loc 1 108 5 is_stmt 1
 570 03a4 630C0800 		beqz	a6,.L40
 109:src/kernel/consoleUtil.cpp ****         buf[i++] = '-';
 571              		.loc 1 109 9
 572              	.LVL36:
 573              		.loc 1 109 18 is_stmt 0
 574 03a8 930704FE 		addi	a5,s0,-32
 575 03ac B3849700 		add	s1,a5,s1
 576 03b0 9307D002 		li	a5,45
 577 03b4 238CF4FC 		sb	a5,-40(s1)
 578              		.loc 1 109 14
 579 03b8 9B842600 		addiw	s1,a3,2
 580              	.LVL37:
 581              	.L40:
 110:src/kernel/consoleUtil.cpp **** 
 111:src/kernel/consoleUtil.cpp ****     while(--i >= 0)
 582              		.loc 1 111 5 is_stmt 1
 583              		.loc 1 111 15
 584 03bc 9B84F4FF 		addiw	s1,s1,-1
 585              	.LVL38:
 586 03c0 63C40402 		bltz	s1,.L34
 112:src/kernel/consoleUtil.cpp ****         ConsoleUtil::putOutput(buf[i]);
 587              		.loc 1 112 9
 588              		.loc 1 112 31 is_stmt 0
 589 03c4 930704FE 		addi	a5,s0,-32
 590 03c8 B3879700 		add	a5,a5,s1
 591 03cc 03C587FD 		lbu	a0,-40(a5)
 592 03d0 97000000 		call	_ZN11ConsoleUtil9putOutputEc
 592      E7800000 
 593              	.LVL39:
 594 03d8 6FF05FFE 		j	.L40
 595              	.LVL40:
 596              	.L42:
  98:src/kernel/consoleUtil.cpp ****         x = -xx;
 597              		.loc 1 98 9 is_stmt 1
GAS LISTING /tmp/ccVfGEPJ.s 			page 14


  99:src/kernel/consoleUtil.cpp ****     } else {
 598              		.loc 1 99 9
  99:src/kernel/consoleUtil.cpp ****     } else {
 599              		.loc 1 99 11 is_stmt 0
 600 03dc 3B05A040 		negw	a0,a0
 601              	.LVL41:
  98:src/kernel/consoleUtil.cpp ****         x = -xx;
 602              		.loc 1 98 13
 603 03e0 13081000 		li	a6,1
  99:src/kernel/consoleUtil.cpp ****     } else {
 604              		.loc 1 99 11
 605 03e4 6FF01FF8 		j	.L36
 606              	.LVL42:
 607              	.L34:
 113:src/kernel/consoleUtil.cpp **** 
 114:src/kernel/consoleUtil.cpp **** }
 608              		.loc 1 114 1
 609 03e8 83308104 		ld	ra,72(sp)
 610              		.cfi_restore 1
 611 03ec 03340104 		ld	s0,64(sp)
 612              		.cfi_restore 8
 613              		.cfi_def_cfa 2, 80
 614 03f0 83348103 		ld	s1,56(sp)
 615              		.cfi_restore 9
 616 03f4 13010105 		addi	sp,sp,80
 617              		.cfi_def_cfa_offset 0
 618 03f8 67800000 		jr	ra
 619              		.cfi_endproc
 620              	.LFE28:
 622              		.align	2
 623              		.globl	_ZN11ConsoleUtil5printEPKciS1_i
 625              	_ZN11ConsoleUtil5printEPKciS1_i:
 626              	.LFB29:
 115:src/kernel/consoleUtil.cpp **** 
 116:src/kernel/consoleUtil.cpp **** void ConsoleUtil::print(const char *string, int xx, const char *sep, int base) {
 627              		.loc 1 116 80 is_stmt 1
 628              		.cfi_startproc
 629              	.LVL43:
 630 03fc 130101FD 		addi	sp,sp,-48
 631              		.cfi_def_cfa_offset 48
 632 0400 23341102 		sd	ra,40(sp)
 633 0404 23308102 		sd	s0,32(sp)
 634 0408 233C9100 		sd	s1,24(sp)
 635 040c 23382101 		sd	s2,16(sp)
 636 0410 23343101 		sd	s3,8(sp)
 637              		.cfi_offset 1, -8
 638              		.cfi_offset 8, -16
 639              		.cfi_offset 9, -24
 640              		.cfi_offset 18, -32
 641              		.cfi_offset 19, -40
 642 0414 13040103 		addi	s0,sp,48
 643              		.cfi_def_cfa 8, 0
 644 0418 13890500 		mv	s2,a1
 645 041c 93040600 		mv	s1,a2
 646 0420 93890600 		mv	s3,a3
 117:src/kernel/consoleUtil.cpp ****     ConsoleUtil::printString(string);
 647              		.loc 1 117 5
GAS LISTING /tmp/ccVfGEPJ.s 			page 15


 648              		.loc 1 117 29 is_stmt 0
 649 0424 97000000 		call	_ZN11ConsoleUtil11printStringEPKc
 649      E7800000 
 650              	.LVL44:
 118:src/kernel/consoleUtil.cpp ****     ConsoleUtil::printInt(xx, base);
 651              		.loc 1 118 5 is_stmt 1
 652              		.loc 1 118 26 is_stmt 0
 653 042c 13060000 		li	a2,0
 654 0430 93850900 		mv	a1,s3
 655 0434 13050900 		mv	a0,s2
 656 0438 97000000 		call	_ZN11ConsoleUtil8printIntEiii
 656      E7800000 
 657              	.LVL45:
 119:src/kernel/consoleUtil.cpp ****     ConsoleUtil::printString(sep);
 658              		.loc 1 119 5 is_stmt 1
 659              		.loc 1 119 29 is_stmt 0
 660 0440 13850400 		mv	a0,s1
 661 0444 97000000 		call	_ZN11ConsoleUtil11printStringEPKc
 661      E7800000 
 662              	.LVL46:
 120:src/kernel/consoleUtil.cpp **** }
 663              		.loc 1 120 1
 664 044c 83308102 		ld	ra,40(sp)
 665              		.cfi_restore 1
 666 0450 03340102 		ld	s0,32(sp)
 667              		.cfi_restore 8
 668              		.cfi_def_cfa 2, 48
 669 0454 83348101 		ld	s1,24(sp)
 670              		.cfi_restore 9
 671              	.LVL47:
 672 0458 03390101 		ld	s2,16(sp)
 673              		.cfi_restore 18
 674 045c 83398100 		ld	s3,8(sp)
 675              		.cfi_restore 19
 676 0460 13010103 		addi	sp,sp,48
 677              		.cfi_def_cfa_offset 0
 678 0464 67800000 		jr	ra
 679              		.cfi_endproc
 680              	.LFE29:
 682              		.align	2
 683              		.globl	_ZN11ConsoleUtil15putcUtilSyscallEv
 685              	_ZN11ConsoleUtil15putcUtilSyscallEv:
 686              	.LFB30:
 121:src/kernel/consoleUtil.cpp **** 
 122:src/kernel/consoleUtil.cpp **** char ConsoleUtil::putcUtilSyscall()
 123:src/kernel/consoleUtil.cpp **** {
 687              		.loc 1 123 1 is_stmt 1
 688              		.cfi_startproc
 689 0468 130101FF 		addi	sp,sp,-16
 690              		.cfi_def_cfa_offset 16
 691 046c 23348100 		sd	s0,8(sp)
 692              		.cfi_offset 8, -8
 693 0470 13040101 		addi	s0,sp,16
 694              		.cfi_def_cfa 8, 0
 124:src/kernel/consoleUtil.cpp ****     asm("li a0, 0x43");
 695              		.loc 1 124 5
 696              		.loc 1 124 23 is_stmt 0
GAS LISTING /tmp/ccVfGEPJ.s 			page 16


 697              	#APP
 698              	# 124 "src/kernel/consoleUtil.cpp" 1
 125              	
 126:src/kernel/consoleUtil.cpp ****     asm("ecall");
 699              		li a0, 0x43
 700              	# 0 "" 2
 701              		.loc 1 126 5 is_stmt 1
 702              		.loc 1 126 17 is_stmt 0
 703              	# 126 "src/kernel/consoleUtil.cpp" 1
 127              	
 128:src/kernel/consoleUtil.cpp ****     uint64 status;
 704              		ecall
 705              	# 0 "" 2
 706              		.loc 1 128 5 is_stmt 1
 129:src/kernel/consoleUtil.cpp **** 
 130:src/kernel/consoleUtil.cpp ****     asm("mv %0, a0" : [status] "=r" (status));
 707              		.loc 1 130 5
 708              		.loc 1 130 46 is_stmt 0
 709              	# 130 "src/kernel/consoleUtil.cpp" 1
 131              	
 710              		mv a0, a0
 711              	# 0 "" 2
 712              	.LVL48:
 132:src/kernel/consoleUtil.cpp ****     return (char)status;
 713              		.loc 1 132 5 is_stmt 1
 133:src/kernel/consoleUtil.cpp **** }
 714              		.loc 1 133 1 is_stmt 0
 715              	#NO_APP
 716 0480 1375F50F 		andi	a0,a0,0xff
 717              	.LVL49:
 718 0484 03348100 		ld	s0,8(sp)
 719              		.cfi_restore 8
 720              		.cfi_def_cfa 2, 16
 721 0488 13010101 		addi	sp,sp,16
 722              		.cfi_def_cfa_offset 0
 723 048c 67800000 		jr	ra
 724              		.cfi_endproc
 725              	.LFE30:
 727              		.globl	_ZN11ConsoleUtil10bufferSizeE
 728              		.globl	_ZN11ConsoleUtil12outputBufferE
 729              		.globl	_ZN11ConsoleUtil11inputBufferE
 730              		.globl	_ZN11ConsoleUtil8inputSemE
 731              		.globl	_ZN11ConsoleUtil9outputSemE
 732              		.globl	_ZN11ConsoleUtil11pendingPutcE
 733              		.globl	_ZN11ConsoleUtil11pendingGetcE
 734              		.globl	_ZN11ConsoleUtil10outputTailE
 735              		.globl	_ZN11ConsoleUtil10outputHeadE
 736              		.globl	_ZN11ConsoleUtil9inputTailE
 737              		.globl	_ZN11ConsoleUtil9inputHeadE
 738              		.data
 739              		.align	3
 740              		.set	.LANCHOR1,. + 0
 743              	_ZN11ConsoleUtil10bufferSizeE:
 744 0000 00200000 		.dword	8192
 744      00000000 
 745              		.bss
 746              		.align	3
GAS LISTING /tmp/ccVfGEPJ.s 			page 17


 747              		.set	.LANCHOR0,. + 0
 750              	_ZN11ConsoleUtil8inputSemE:
 751 0000 00000000 		.zero	8
 751      00000000 
 754              	_ZN11ConsoleUtil9outputSemE:
 755 0008 00000000 		.zero	8
 755      00000000 
 758              	_ZN11ConsoleUtil11inputBufferE:
 759 0010 00000000 		.zero	8
 759      00000000 
 762              	_ZN11ConsoleUtil12outputBufferE:
 763 0018 00000000 		.zero	8
 763      00000000 
 766              	_ZN11ConsoleUtil9inputTailE:
 767 0020 00000000 		.zero	8
 767      00000000 
 770              	_ZN11ConsoleUtil9inputHeadE:
 771 0028 00000000 		.zero	8
 771      00000000 
 774              	_ZN11ConsoleUtil11pendingPutcE:
 775 0030 00000000 		.zero	8
 775      00000000 
 778              	_ZN11ConsoleUtil10outputTailE:
 779 0038 00000000 		.zero	8
 779      00000000 
 782              	_ZN11ConsoleUtil10outputHeadE:
 783 0040 00000000 		.zero	8
 783      00000000 
 786              	_ZN11ConsoleUtil11pendingGetcE:
 787 0048 00000000 		.zero	8
 787      00000000 
 788              		.text
 789              	.Letext0:
 790              		.file 2 "src/kernel/../../h/kernel/../../lib/hw.h"
 791              		.file 3 "src/kernel/../../h/kernel/consoleUtil.hpp"
 792              		.file 4 "src/kernel/../../h/kernel/scb.hpp"
 793              		.file 5 "src/kernel/../../h/kernel/utility.hpp"
 794              		.file 6 "src/kernel/../../h/kernel/slab_t.hpp"
 795              		.file 7 "src/kernel/../../h/kernel/cache_t.hpp"
 796              		.file 8 "src/kernel/../../h/kernel/tcb.hpp"
 797              		.file 9 "src/kernel/../../h/kernel/slab.hpp"
 3847              		.align	3
 3850              	DW.ref.__gxx_personality_v0:
 3851 0000 00000000 		.dword	__gxx_personality_v0
 3851      00000000 
 3852              		.ident	"GCC: (Ubuntu 9.4.0-1ubuntu1~20.04) 9.4.0"
 3853              		.section	.note.GNU-stack,"",@progbits
GAS LISTING /tmp/ccVfGEPJ.s 			page 18

