GAS LISTING /tmp/ccrE9X6p.s 			page 1


   1              		.file	"main.cpp"
   2              		.option pic
   3              		.option norelax
   4              		.text
   5              	.Ltext0:
   6              		.align	2
   7              		.globl	main
   9              	main:
  10              	.LFB0:
  11              		.file 1 "src/kernel/main.cpp"
   1:src/kernel/main.cpp **** //
   2:src/kernel/main.cpp **** // Created by os on 4/28/22.
   3:src/kernel/main.cpp **** //
   4:src/kernel/main.cpp **** #include "../../h/system.hpp"
   5:src/kernel/main.cpp **** 
   6:src/kernel/main.cpp **** int main() {
  12              		.loc 1 6 12
  13              		.cfi_startproc
  14 0000 130101FE 		addi	sp,sp,-32
  15              		.cfi_def_cfa_offset 32
  16 0004 233C1100 		sd	ra,24(sp)
  17 0008 23388100 		sd	s0,16(sp)
  18              		.cfi_offset 1, -8
  19              		.cfi_offset 8, -16
  20 000c 13040102 		addi	s0,sp,32
  21              		.cfi_def_cfa 8, 0
   7:src/kernel/main.cpp **** 
   8:src/kernel/main.cpp ****     //entry point for user code
   9:src/kernel/main.cpp ****     System();
  22              		.loc 1 9 5
  23 0010 130584FE 		addi	a0,s0,-24
  24 0014 97000000 		call	_ZN6SystemC1Ev@plt
  24      E7800000 
  25              	.LVL0:
  10:src/kernel/main.cpp **** 
  11:src/kernel/main.cpp ****     return 0;
  26              		.loc 1 11 5
  12:src/kernel/main.cpp **** }...
  27              		.loc 1 12 1 is_stmt 0
  28 001c 13050000 		li	a0,0
  29 0020 83308101 		ld	ra,24(sp)
  30              		.cfi_restore 1
  31 0024 03340101 		ld	s0,16(sp)
  32              		.cfi_restore 8
  33              		.cfi_def_cfa 2, 32
  34 0028 13010102 		addi	sp,sp,32
  35              		.cfi_def_cfa_offset 0
  36 002c 67800000 		jr	ra
  37              		.cfi_endproc
  38              	.LFE0:
  40              	.Letext0:
  41              		.file 2 "src/kernel/../../h/../lib/hw.h"
  42              		.file 3 "src/kernel/../../h/../h/utility.hpp"
GAS LISTING /tmp/ccrE9X6p.s 			page 2

