GAS LISTING /tmp/cciGQfDY.s 			page 1


   1              		.file	"riscv.cpp"
   2              		.option pic
   3              		.option norelax
   4              		.text
   5              	.Ltext0:
   6              		.align	2
   7              		.globl	_ZN5RiscV10popSppSpieEv
   9              	_ZN5RiscV10popSppSpieEv:
  10              	.LFB45:
  11              		.file 1 "src/kernel/riscv.cpp"
   1:src/kernel/riscv.cpp **** //
   2:src/kernel/riscv.cpp **** // Created by os on 4/28/22.
   3:src/kernel/riscv.cpp **** //
   4:src/kernel/riscv.cpp **** 
   5:src/kernel/riscv.cpp **** #include "../../h/kernel/riscv.hpp"
   6:src/kernel/riscv.cpp **** #include "../../h/kernel/memoryAllocator.hpp"
   7:src/kernel/riscv.cpp **** #include "../../h/kernel/tcb.hpp"
   8:src/kernel/riscv.cpp **** #include "../../h/kernel/scheduler.hpp"
   9:src/kernel/riscv.cpp **** #include "../../h/user/printing.hpp"
  10:src/kernel/riscv.cpp **** #include "../../h/kernel/scb.hpp"
  11:src/kernel/riscv.cpp **** #include "../../h/user/userWrappers.hpp"
  12:src/kernel/riscv.cpp **** 
  13:src/kernel/riscv.cpp **** uint64 RiscV::globalTime = 0;
  14:src/kernel/riscv.cpp **** bool RiscV::userMainFinished = false;
  15:src/kernel/riscv.cpp **** void* RiscV::kPMT = nullptr;
  16:src/kernel/riscv.cpp **** void* RiscV::uPMT = nullptr;
  17:src/kernel/riscv.cpp **** bool RiscV::initialized = false;
  18:src/kernel/riscv.cpp **** 
  19:src/kernel/riscv.cpp **** //initailize each of the key components and switch to user mode for user code execution
  20:src/kernel/riscv.cpp **** void RiscV::initialize(){
  21:src/kernel/riscv.cpp ****     RiscV::w_stvec((uint64) &RiscV::supervisorTrap);
  22:src/kernel/riscv.cpp ****     kmem_init(BUDDY_START_ADDR_CONST, 4096);
  23:src/kernel/riscv.cpp ****     MemoryAllocator::initialize();
  24:src/kernel/riscv.cpp ****     Scheduler::initialize();
  25:src/kernel/riscv.cpp ****     TCB::initialize();
  26:src/kernel/riscv.cpp ****     SCB::initialize();
  27:src/kernel/riscv.cpp ****     ConsoleUtil::initialize();
  28:src/kernel/riscv.cpp ****     RiscV::buildKernelPMT();
  29:src/kernel/riscv.cpp ****     RiscV::buildUserPMT();
  30:src/kernel/riscv.cpp ****     RiscV::initialized = true;
  31:src/kernel/riscv.cpp ****     RiscV::startVirtualMemory(RiscV::kPMT);
  32:src/kernel/riscv.cpp ****     RiscV::enableInterrupts();
  33:src/kernel/riscv.cpp **** }
  34:src/kernel/riscv.cpp **** 
  35:src/kernel/riscv.cpp **** //get previous privilege and previous interrupt status
  36:src/kernel/riscv.cpp **** void RiscV::popSppSpie() {
  12              		.loc 1 36 26
  13              		.cfi_startproc
  14 0000 130101FF 		addi	sp,sp,-16
  15              		.cfi_def_cfa_offset 16
  16 0004 23348100 		sd	s0,8(sp)
  17              		.cfi_offset 8, -8
  18 0008 13040101 		addi	s0,sp,16
  19              		.cfi_def_cfa 8, 0
  37:src/kernel/riscv.cpp ****     uint64 ra = 0;
  20              		.loc 1 37 5
  21              	.LVL0:
GAS LISTING /tmp/cciGQfDY.s 			page 2


  38:src/kernel/riscv.cpp ****     if(TCB::running->mode == TCB::Mode::SUPERVISOR)
  22              		.loc 1 38 5
  23              		.loc 1 38 22 is_stmt 0
  24 000c 97070000 		la	a5,_ZN3TCB7runningE
  24      83B70700 
  25 0014 83B70700 		ld	a5,0(a5)
  26 0018 83A64701 		lw	a3,20(a5)
  27              		.loc 1 38 5
  28 001c 13071000 		li	a4,1
  29 0020 6388E602 		beq	a3,a4,.L5
  39:src/kernel/riscv.cpp ****         asm("csrw sepc, ra");
  40:src/kernel/riscv.cpp ****     else
  41:src/kernel/riscv.cpp ****     {
  42:src/kernel/riscv.cpp ****         ra = (uint64)bodyWrapper;
  30              		.loc 1 42 9 is_stmt 1
  31              	.LVL1:
  43:src/kernel/riscv.cpp ****         asm("mv a0, %[iarg]" : : [iarg] "r" (TCB::running->body));
  32              		.loc 1 43 9
  33              		.loc 1 43 60 is_stmt 0
  34 0024 03B78701 		ld	a4,24(a5)
  35              		.loc 1 43 66
  36              	#APP
  37              	# 43 "src/kernel/riscv.cpp" 1
  44              	        asm("mv a1, %[iarg]" : : [iarg] "r" (TCB::running->args));
  38              		mv a0, a4
  39              	# 0 "" 2
  40              		.loc 1 44 9 is_stmt 1
  41              		.loc 1 44 60 is_stmt 0
  42              	#NO_APP
  43 002c 83B70702 		ld	a5,32(a5)
  44              		.loc 1 44 66
  45              	#APP
  46              	# 44 "src/kernel/riscv.cpp" 1
  45              	        asm("csrw sepc, %[ra]" : : [ra] "r" (ra));
  47              		mv a1, a5
  48              	# 0 "" 2
  49              		.loc 1 45 9 is_stmt 1
  50              		.loc 1 45 50 is_stmt 0
  51              	#NO_APP
  52 0034 97070000 		la	a5,_Z11bodyWrapperPFvPvES_
  52      83B70700 
  53              	#APP
  54              	# 45 "src/kernel/riscv.cpp" 1
  46              	    }
  55              		csrw sepc, a5
  56              	# 0 "" 2
  57              	.LVL2:
  58              	#NO_APP
  59              	.L3:
  47:src/kernel/riscv.cpp ****     asm("sret");
  60              		.loc 1 47 5 is_stmt 1
  61              		.loc 1 47 16 is_stmt 0
  62              	#APP
  63              	# 47 "src/kernel/riscv.cpp" 1
  48              	}
  64              		sret
  65              	# 0 "" 2
GAS LISTING /tmp/cciGQfDY.s 			page 3


  66              		.loc 1 48 1
  67              	#NO_APP
  68 0044 03348100 		ld	s0,8(sp)
  69              		.cfi_remember_state
  70              		.cfi_restore 8
  71              		.cfi_def_cfa 2, 16
  72 0048 13010101 		addi	sp,sp,16
  73              		.cfi_def_cfa_offset 0
  74 004c 67800000 		jr	ra
  75              	.LVL3:
  76              	.L5:
  77              		.cfi_restore_state
  39:src/kernel/riscv.cpp ****         asm("csrw sepc, ra");
  78              		.loc 1 39 9 is_stmt 1
  39:src/kernel/riscv.cpp ****         asm("csrw sepc, ra");
  79              		.loc 1 39 29 is_stmt 0
  80              	#APP
  81              	# 39 "src/kernel/riscv.cpp" 1
  82              		csrw sepc, ra
  83              	# 0 "" 2
  84              	#NO_APP
  85 0054 6FF0DFFE 		j	.L3
  86              		.cfi_endproc
  87              	.LFE45:
  89              		.align	2
  90              		.globl	_ZN5RiscV28executeThreadDispatchSyscallEv
  92              	_ZN5RiscV28executeThreadDispatchSyscallEv:
  93              	.LFB53:
  49:src/kernel/riscv.cpp **** 
  50:src/kernel/riscv.cpp **** //handler function for traps
  51:src/kernel/riscv.cpp **** void RiscV::handleSupervisorTrap() {
  52:src/kernel/riscv.cpp **** 
  53:src/kernel/riscv.cpp ****     //read scause
  54:src/kernel/riscv.cpp ****     uint64 stval;
  55:src/kernel/riscv.cpp ****     asm("csrr %[stval], stval" : [stval] "=r" (stval));
  56:src/kernel/riscv.cpp ****     uint64 volatile scause = RiscV::r_scause();
  57:src/kernel/riscv.cpp **** 
  58:src/kernel/riscv.cpp ****     asm("csrr %[sscratch], sscratch" : [sscratch] "=r" (TCB::running->a0Location));
  59:src/kernel/riscv.cpp **** 
  60:src/kernel/riscv.cpp ****     if(scause == 0x09 || scause == 0x08) {
  61:src/kernel/riscv.cpp **** 
  62:src/kernel/riscv.cpp ****         //save sstatus and sepc
  63:src/kernel/riscv.cpp ****         //sepc should be increased by 4, since this is an ecall trap
  64:src/kernel/riscv.cpp ****         uint64 volatile sstatus = RiscV::r_sstatus();
  65:src/kernel/riscv.cpp ****         uint64 volatile sepc = RiscV::r_sepc()+4;
  66:src/kernel/riscv.cpp ****         TCB::running->sepc = sepc;
  67:src/kernel/riscv.cpp ****         TCB::running->sstatus = sstatus;
  68:src/kernel/riscv.cpp **** 
  69:src/kernel/riscv.cpp ****         //get the syscall ID from a0
  70:src/kernel/riscv.cpp ****         uint64 syscallID;
  71:src/kernel/riscv.cpp ****         asm("mv %[syscallID], a0" : [syscallID] "=r" (syscallID));
  72:src/kernel/riscv.cpp **** 
  73:src/kernel/riscv.cpp ****         switch(syscallID){
  74:src/kernel/riscv.cpp ****             case 0x01 : executeMemAllocSyscall();break;
  75:src/kernel/riscv.cpp ****             case 0x02 : executeMemFreeSyscall();break;
  76:src/kernel/riscv.cpp ****             case 0x11 : executeThreadCreateSyscall();break;
  77:src/kernel/riscv.cpp ****             case 0x12 : executeThreadExitSyscall();break;
GAS LISTING /tmp/cciGQfDY.s 			page 4


  78:src/kernel/riscv.cpp ****             case 0x13 : executeThreadDispatchSyscall();break;
  79:src/kernel/riscv.cpp ****             case 0x14 : executeThreadAttachBodySyscall();break;
  80:src/kernel/riscv.cpp ****             case 0x15 : executeThreadStartSyscall();break;
  81:src/kernel/riscv.cpp ****             case 0x21 : executeSemOpenSyscall();break;
  82:src/kernel/riscv.cpp ****             case 0x22 : executeSemCloseSyscall();break;
  83:src/kernel/riscv.cpp ****             case 0x23 : executeSemWaitSyscall();break;
  84:src/kernel/riscv.cpp ****             case 0x24 : executeSemSignalSyscall();break;
  85:src/kernel/riscv.cpp ****             case 0x31 : executeTimeSleepSyscall();break;
  86:src/kernel/riscv.cpp ****             case 0x41 : executeGetcSyscall();break;
  87:src/kernel/riscv.cpp ****             case 0x42 : executePutcSyscall();break;
  88:src/kernel/riscv.cpp ****             case 0x43 : executePutcUtilSyscall();break;
  89:src/kernel/riscv.cpp ****             case 0x51 : executeThreadFreeSyscall();break;
  90:src/kernel/riscv.cpp ****             case 0x52 : executeSemaphoreFreeSyscall();break;
  91:src/kernel/riscv.cpp ****             //in this case we need to save SP and PC at this point so that newly created thread
  92:src/kernel/riscv.cpp ****             //can return to this point and exit trap routine regularly
  93:src/kernel/riscv.cpp ****             //note that getPC() returns PC incremented by 8 to skip executeForkSyscall
  94:src/kernel/riscv.cpp ****             case 0x61 : asm("mv %[sp], sp" : [sp] "=r"(TCB::currentSP));
  95:src/kernel/riscv.cpp ****                         RiscV::getPC();
  96:src/kernel/riscv.cpp ****                         executeForkSyscall();
  97:src/kernel/riscv.cpp ****                         break;
  98:src/kernel/riscv.cpp ****         }
  99:src/kernel/riscv.cpp **** 
 100:src/kernel/riscv.cpp ****         //write previously save sstatus and incremented sepc
 101:src/kernel/riscv.cpp ****         RiscV::w_sstatus(TCB::running->sstatus);
 102:src/kernel/riscv.cpp ****         RiscV::w_sepc(TCB::running->sepc);
 103:src/kernel/riscv.cpp ****     }
 104:src/kernel/riscv.cpp **** 
 105:src/kernel/riscv.cpp ****     //timer interrupt (in this system's implementation, timer tick is manifested as software interr
 106:src/kernel/riscv.cpp ****     else if(scause == (0x01UL<<63 | 0x1)){
 107:src/kernel/riscv.cpp **** 
 108:src/kernel/riscv.cpp ****         //save sstatus and sepc
 109:src/kernel/riscv.cpp ****         //this time sepc remains the same
 110:src/kernel/riscv.cpp ****         uint64 volatile sstatus = RiscV::r_sstatus();
 111:src/kernel/riscv.cpp ****         uint64 volatile sepc = RiscV::r_sepc();
 112:src/kernel/riscv.cpp **** 
 113:src/kernel/riscv.cpp ****         //clear the SIP bit for software interrupt
 114:src/kernel/riscv.cpp ****         mc_sip(SIP_SSIE);
 115:src/kernel/riscv.cpp **** 
 116:src/kernel/riscv.cpp **** 
 117:src/kernel/riscv.cpp ****         //increase global time and try to awake threads that are asleep
 118:src/kernel/riscv.cpp ****         globalTime += 1;
 119:src/kernel/riscv.cpp ****         Scheduler::awake();
 120:src/kernel/riscv.cpp **** 
 121:src/kernel/riscv.cpp ****         //check whether time slice has run out for running thread
 122:src/kernel/riscv.cpp ****         //if so, dispatch
 123:src/kernel/riscv.cpp ****         TCB::timeSliceCounter++;
 124:src/kernel/riscv.cpp ****         if(TCB::timeSliceCounter >= TCB::running->timeSlice) {
 125:src/kernel/riscv.cpp **** 
 126:src/kernel/riscv.cpp ****             TCB::timeSliceCounter = 0;
 127:src/kernel/riscv.cpp **** 
 128:src/kernel/riscv.cpp ****             TCB* old = TCB::running;
 129:src/kernel/riscv.cpp **** 
 130:src/kernel/riscv.cpp ****             old->status = TCB::Status::READY;
 131:src/kernel/riscv.cpp **** 
 132:src/kernel/riscv.cpp ****             TCB::dispatch();
 133:src/kernel/riscv.cpp ****         }
 134:src/kernel/riscv.cpp **** 
GAS LISTING /tmp/cciGQfDY.s 			page 5


 135:src/kernel/riscv.cpp ****         //write previously save sstatus and sepc
 136:src/kernel/riscv.cpp ****         RiscV::w_sstatus(sstatus);
 137:src/kernel/riscv.cpp ****         RiscV::w_sepc(sepc);
 138:src/kernel/riscv.cpp ****     }
 139:src/kernel/riscv.cpp **** 
 140:src/kernel/riscv.cpp ****     //hardware interrupt, from console (note that here we only check for keyboard interrupts, handl
 141:src/kernel/riscv.cpp ****     else if(scause == (0x01UL<<63 | 0x9)){
 142:src/kernel/riscv.cpp ****         //save sstatus and sepc
 143:src/kernel/riscv.cpp ****         //this time sepc remains the same
 144:src/kernel/riscv.cpp ****         uint64 volatile sstatus = RiscV::r_sstatus();
 145:src/kernel/riscv.cpp ****         uint64 volatile sepc = RiscV::r_sepc();
 146:src/kernel/riscv.cpp **** 
 147:src/kernel/riscv.cpp ****         //get the console status register location, and console status reg value
 148:src/kernel/riscv.cpp ****         uint64 status = CONSOLE_STATUS;
 149:src/kernel/riscv.cpp ****         asm("mv a0, %[status]" : : [status] "r" (status));
 150:src/kernel/riscv.cpp ****         asm("lb a1, 0(a0)");
 151:src/kernel/riscv.cpp ****         asm("mv %[status], a1" : [status] "=r" (status));
 152:src/kernel/riscv.cpp **** 
 153:src/kernel/riscv.cpp ****         //if keyboard is ready to send data
 154:src/kernel/riscv.cpp ****         if(status & 1UL)
 155:src/kernel/riscv.cpp ****         {
 156:src/kernel/riscv.cpp ****             //fetch the character from CONSOLE_TX_DATA register
 157:src/kernel/riscv.cpp ****             uint64 data;
 158:src/kernel/riscv.cpp ****             char c;
 159:src/kernel/riscv.cpp ****             data = CONSOLE_TX_DATA;
 160:src/kernel/riscv.cpp ****             asm("mv a0, %[data]" : : [data] "r" (data));
 161:src/kernel/riscv.cpp ****             asm("lb a1, 0(a0)");
 162:src/kernel/riscv.cpp ****             asm("mv %[c], a1" : [c] "=r" (c));
 163:src/kernel/riscv.cpp **** 
 164:src/kernel/riscv.cpp ****             //if there was a getc request put the character into the input buffer, othrewise ignore
 165:src/kernel/riscv.cpp ****             if(ConsoleUtil::pendingGetc!=0) {
 166:src/kernel/riscv.cpp ****                 ConsoleUtil::pendingGetc--;
 167:src/kernel/riscv.cpp ****                 ConsoleUtil::putInput(c);
 168:src/kernel/riscv.cpp ****             }
 169:src/kernel/riscv.cpp ****         }
 170:src/kernel/riscv.cpp ****         plic_complete(plic_claim());
 171:src/kernel/riscv.cpp **** 
 172:src/kernel/riscv.cpp ****         RiscV::w_sstatus(sstatus);
 173:src/kernel/riscv.cpp ****         RiscV::w_sepc(sepc);
 174:src/kernel/riscv.cpp ****     }
 175:src/kernel/riscv.cpp **** 
 176:src/kernel/riscv.cpp ****     //illegal instruction, exit running thread
 177:src/kernel/riscv.cpp ****     else if(scause == 0x02){
 178:src/kernel/riscv.cpp ****         TCB* old = TCB::running;
 179:src/kernel/riscv.cpp ****         old->status = TCB::Status::FINISHED;
 180:src/kernel/riscv.cpp ****         ConsoleUtil::printString("sepc: ");
 181:src/kernel/riscv.cpp ****         uint64 sepc = RiscV::r_sepc();
 182:src/kernel/riscv.cpp ****         ConsoleUtil::printInt(sepc,16);
 183:src/kernel/riscv.cpp ****         ConsoleUtil::printString("\n");
 184:src/kernel/riscv.cpp ****         ConsoleUtil::printString("Illegal instruction\nExiting thread...\n");
 185:src/kernel/riscv.cpp ****         TCB::dispatch();
 186:src/kernel/riscv.cpp ****     }
 187:src/kernel/riscv.cpp **** 
 188:src/kernel/riscv.cpp ****     //some other kind of error, for more information check out RiscV handbook
 189:src/kernel/riscv.cpp ****     else{
 190:src/kernel/riscv.cpp ****         ConsoleUtil::printString("Error: \n");
 191:src/kernel/riscv.cpp ****         ConsoleUtil::printString("scause: ");
GAS LISTING /tmp/cciGQfDY.s 			page 6


 192:src/kernel/riscv.cpp ****         uint64  scause = RiscV::r_scause();
 193:src/kernel/riscv.cpp ****         ConsoleUtil::printInt(scause);
 194:src/kernel/riscv.cpp ****         ConsoleUtil::printString("sepc: ");
 195:src/kernel/riscv.cpp ****         uint64 sepc = RiscV::r_sepc();
 196:src/kernel/riscv.cpp ****         ConsoleUtil::printInt(sepc,16);
 197:src/kernel/riscv.cpp ****         ConsoleUtil::printString("\n");
 198:src/kernel/riscv.cpp ****         ConsoleUtil::print("stvec: ",stval,"\n");
 199:src/kernel/riscv.cpp ****         TCB* old = TCB::running;
 200:src/kernel/riscv.cpp ****         old->status = TCB::Status::FINISHED;
 201:src/kernel/riscv.cpp ****         ConsoleUtil::printString("Exiting thread...\n");
 202:src/kernel/riscv.cpp ****         TCB::dispatch();
 203:src/kernel/riscv.cpp ****     }
 204:src/kernel/riscv.cpp **** 
 205:src/kernel/riscv.cpp ****     RiscV::jumpToDesignatedPrivilegeMode();
 206:src/kernel/riscv.cpp **** }
 207:src/kernel/riscv.cpp **** 
 208:src/kernel/riscv.cpp **** void RiscV::executeMemAllocSyscall(){
 209:src/kernel/riscv.cpp **** 
 210:src/kernel/riscv.cpp ****     //fetch the arguments from a0-a7 registers
 211:src/kernel/riscv.cpp ****     uint64 size;
 212:src/kernel/riscv.cpp ****     asm("mv %[size], a1" : [size] "=r" (size));
 213:src/kernel/riscv.cpp **** 
 214:src/kernel/riscv.cpp ****     //call internal allocator and return the address in a0
 215:src/kernel/riscv.cpp ****     uint64 addr =(uint64)MemoryAllocator::kmalloc(size);
 216:src/kernel/riscv.cpp **** 
 217:src/kernel/riscv.cpp ****     asm("mv a0, %[addr]" : : [addr] "r" (addr));
 218:src/kernel/riscv.cpp **** 
 219:src/kernel/riscv.cpp ****     RiscV::saveA0toSscratch();
 220:src/kernel/riscv.cpp **** }
 221:src/kernel/riscv.cpp **** 
 222:src/kernel/riscv.cpp **** void RiscV::executeMemFreeSyscall() {
 223:src/kernel/riscv.cpp **** 
 224:src/kernel/riscv.cpp ****     //fetch the arguments from a0-a7 registers
 225:src/kernel/riscv.cpp ****     uint64 iaddr, status;
 226:src/kernel/riscv.cpp **** 
 227:src/kernel/riscv.cpp **** 
 228:src/kernel/riscv.cpp ****     if(MemoryAllocator::initialized) {
 229:src/kernel/riscv.cpp ****         //call internal allocator and free memory which iaddr points to
 230:src/kernel/riscv.cpp ****         asm("mv %[iaddr], a1" : [iaddr] "=r"(iaddr));
 231:src/kernel/riscv.cpp ****         status = MemoryAllocator::kfree((void *) iaddr);;
 232:src/kernel/riscv.cpp ****     }
 233:src/kernel/riscv.cpp ****     else
 234:src/kernel/riscv.cpp ****         status = -1;
 235:src/kernel/riscv.cpp **** 
 236:src/kernel/riscv.cpp ****     //return status
 237:src/kernel/riscv.cpp ****     asm("mv a0, %[status]" : : [status] "r" (status));
 238:src/kernel/riscv.cpp **** 
 239:src/kernel/riscv.cpp ****     RiscV::saveA0toSscratch();
 240:src/kernel/riscv.cpp **** }
 241:src/kernel/riscv.cpp **** 
 242:src/kernel/riscv.cpp **** void RiscV::executeThreadCreateSyscall(){
 243:src/kernel/riscv.cpp **** 
 244:src/kernel/riscv.cpp ****     //fetch the arguments from a0-a7 registers
 245:src/kernel/riscv.cpp ****     uint64 iroutine, iargs, ihandle, istack;
 246:src/kernel/riscv.cpp **** 
 247:src/kernel/riscv.cpp ****     asm("mv %[istack], a7" : [istack] "=r"(istack));
 248:src/kernel/riscv.cpp ****     asm("mv %[ihandle], a1" : [ihandle] "=r"(ihandle));
GAS LISTING /tmp/cciGQfDY.s 			page 7


 249:src/kernel/riscv.cpp ****     asm("mv %[iroutine], a2" : [iroutine] "=r"(iroutine));
 250:src/kernel/riscv.cpp ****     asm("mv %[iargs], a3" : [iargs] "=r"(iargs));
 251:src/kernel/riscv.cpp **** 
 252:src/kernel/riscv.cpp ****     //call constructor for Thread Control Block and if not null, write thread address into ihandle
 253:src/kernel/riscv.cpp ****     TCB *tcb = new TCB((TCB::Body)iroutine, (void*)iargs, (uint64*)istack, DEFAULT_TIME_SLICE);
 254:src/kernel/riscv.cpp **** 
 255:src/kernel/riscv.cpp ****     uint64 status = 0;
 256:src/kernel/riscv.cpp **** 
 257:src/kernel/riscv.cpp ****     if(tcb == nullptr){
 258:src/kernel/riscv.cpp ****         status = -1;
 259:src/kernel/riscv.cpp ****     }
 260:src/kernel/riscv.cpp ****     else{
 261:src/kernel/riscv.cpp ****         if(tcb->body)
 262:src/kernel/riscv.cpp ****             Scheduler::put(tcb);
 263:src/kernel/riscv.cpp ****         *((TCB**)ihandle) = tcb;
 264:src/kernel/riscv.cpp ****     }
 265:src/kernel/riscv.cpp **** 
 266:src/kernel/riscv.cpp ****     //return status
 267:src/kernel/riscv.cpp ****     asm("mv a0, %[status]" : : [status] "r" (status));
 268:src/kernel/riscv.cpp **** 
 269:src/kernel/riscv.cpp ****     RiscV::saveA0toSscratch();
 270:src/kernel/riscv.cpp **** }
 271:src/kernel/riscv.cpp **** 
 272:src/kernel/riscv.cpp **** void RiscV::executeThreadAttachBodySyscall(){
 273:src/kernel/riscv.cpp **** 
 274:src/kernel/riscv.cpp ****     //fetch the arguments from a0-a7 registers
 275:src/kernel/riscv.cpp ****     uint64 iroutine, iargs, ihandle, istack;
 276:src/kernel/riscv.cpp **** 
 277:src/kernel/riscv.cpp **** 
 278:src/kernel/riscv.cpp ****     asm("mv %[istack], a7" : [istack] "=r"(istack));
 279:src/kernel/riscv.cpp ****     asm("mv %[ihandle], a1" : [ihandle] "=r"(ihandle));
 280:src/kernel/riscv.cpp ****     asm("mv %[iroutine], a2" : [iroutine] "=r"(iroutine));
 281:src/kernel/riscv.cpp ****     asm("mv %[iargs], a3" : [iargs] "=r"(iargs));
 282:src/kernel/riscv.cpp **** 
 283:src/kernel/riscv.cpp ****     TCB *tcb = new TCB((TCB::Body)iroutine, (void*)iargs, (uint64*)istack, DEFAULT_TIME_SLICE);
 284:src/kernel/riscv.cpp **** 
 285:src/kernel/riscv.cpp ****     uint64 status = 0;
 286:src/kernel/riscv.cpp **** 
 287:src/kernel/riscv.cpp ****     if(tcb == nullptr){
 288:src/kernel/riscv.cpp ****         status = -1;
 289:src/kernel/riscv.cpp ****     }
 290:src/kernel/riscv.cpp ****     else{
 291:src/kernel/riscv.cpp ****         tcb->body = (TCB::Body)iroutine;
 292:src/kernel/riscv.cpp ****         tcb->args = (void*)iargs;
 293:src/kernel/riscv.cpp ****         *((TCB**)ihandle) = tcb;
 294:src/kernel/riscv.cpp ****     }
 295:src/kernel/riscv.cpp **** 
 296:src/kernel/riscv.cpp ****     asm("mv a0, %[status]" : : [status] "r" (status));
 297:src/kernel/riscv.cpp **** 
 298:src/kernel/riscv.cpp ****     RiscV::saveA0toSscratch();
 299:src/kernel/riscv.cpp **** }
 300:src/kernel/riscv.cpp **** 
 301:src/kernel/riscv.cpp **** void RiscV::executeThreadStartSyscall(){
 302:src/kernel/riscv.cpp **** 
 303:src/kernel/riscv.cpp ****     //fetch the arguments from a0-a7 registers
 304:src/kernel/riscv.cpp ****     uint64 ihandle;
 305:src/kernel/riscv.cpp **** 
GAS LISTING /tmp/cciGQfDY.s 			page 8


 306:src/kernel/riscv.cpp ****     asm("mv %[ihandle], a1" : [ihandle] "=r"(ihandle));
 307:src/kernel/riscv.cpp **** 
 308:src/kernel/riscv.cpp ****     //get the handle and put tcb in scheduler if not null
 309:src/kernel/riscv.cpp ****     TCB* tcb =(TCB*)ihandle;
 310:src/kernel/riscv.cpp **** 
 311:src/kernel/riscv.cpp ****     uint64 status = 0;
 312:src/kernel/riscv.cpp **** 
 313:src/kernel/riscv.cpp ****     if(tcb == nullptr){
 314:src/kernel/riscv.cpp ****         status = -1;
 315:src/kernel/riscv.cpp ****     }
 316:src/kernel/riscv.cpp ****     else{
 317:src/kernel/riscv.cpp ****         tcb->status = TCB::Status::READY;
 318:src/kernel/riscv.cpp ****         Scheduler::put(tcb);
 319:src/kernel/riscv.cpp ****         TCB::dispatch();
 320:src/kernel/riscv.cpp ****     }
 321:src/kernel/riscv.cpp **** 
 322:src/kernel/riscv.cpp ****     //return status
 323:src/kernel/riscv.cpp ****     asm("mv a0, %[status]" : : [status] "r" (status));
 324:src/kernel/riscv.cpp **** 
 325:src/kernel/riscv.cpp ****     RiscV::saveA0toSscratch();
 326:src/kernel/riscv.cpp **** }
 327:src/kernel/riscv.cpp **** 
 328:src/kernel/riscv.cpp **** void RiscV::executeThreadExitSyscall() {
 329:src/kernel/riscv.cpp **** 
 330:src/kernel/riscv.cpp ****     //fetch the arguments from a0-a7 registers
 331:src/kernel/riscv.cpp ****     uint64 status = 0;
 332:src/kernel/riscv.cpp **** 
 333:src/kernel/riscv.cpp ****     //if thread not null, set status to finished and dispatch
 334:src/kernel/riscv.cpp ****     if(TCB::running == nullptr){
 335:src/kernel/riscv.cpp ****         status = -1;
 336:src/kernel/riscv.cpp ****     }
 337:src/kernel/riscv.cpp ****     else{
 338:src/kernel/riscv.cpp ****         TCB* old = TCB::running;
 339:src/kernel/riscv.cpp ****         old->status = TCB::Status::FINISHED;
 340:src/kernel/riscv.cpp ****         TCB::dispatch();
 341:src/kernel/riscv.cpp ****     }
 342:src/kernel/riscv.cpp **** 
 343:src/kernel/riscv.cpp ****     asm("mv a0, %[status]" : : [status] "r" (status));
 344:src/kernel/riscv.cpp **** 
 345:src/kernel/riscv.cpp ****     RiscV::saveA0toSscratch();
 346:src/kernel/riscv.cpp **** }
 347:src/kernel/riscv.cpp **** 
 348:src/kernel/riscv.cpp **** void RiscV::executeThreadDispatchSyscall(){
  94              		.loc 1 348 43 is_stmt 1
  95              		.cfi_startproc
  96 0058 130101FF 		addi	sp,sp,-16
  97              		.cfi_def_cfa_offset 16
  98 005c 23341100 		sd	ra,8(sp)
  99 0060 23308100 		sd	s0,0(sp)
 100              		.cfi_offset 1, -8
 101              		.cfi_offset 8, -16
 102 0064 13040101 		addi	s0,sp,16
 103              		.cfi_def_cfa 8, 0
 349:src/kernel/riscv.cpp **** 
 350:src/kernel/riscv.cpp ****     //dispatch current running thread
 351:src/kernel/riscv.cpp ****     TCB* old = TCB::running;
 104              		.loc 1 351 5
GAS LISTING /tmp/cciGQfDY.s 			page 9


 105              		.loc 1 351 10 is_stmt 0
 106 0068 97070000 		la	a5,_ZN3TCB7runningE
 106      83B70700 
 107 0070 83B70700 		ld	a5,0(a5)
 108              	.LVL4:
 352:src/kernel/riscv.cpp ****     old->status = TCB::Status::READY;
 109              		.loc 1 352 5 is_stmt 1
 110              		.loc 1 352 17 is_stmt 0
 111 0074 13071000 		li	a4,1
 112 0078 23A8E700 		sw	a4,16(a5)
 353:src/kernel/riscv.cpp ****     TCB::dispatch();
 113              		.loc 1 353 5 is_stmt 1
 114              		.loc 1 353 18 is_stmt 0
 115 007c 97000000 		call	_ZN3TCB8dispatchEv@plt
 115      E7800000 
 116              	.LVL5:
 354:src/kernel/riscv.cpp **** }
 117              		.loc 1 354 1
 118 0084 83308100 		ld	ra,8(sp)
 119              		.cfi_restore 1
 120 0088 03340100 		ld	s0,0(sp)
 121              		.cfi_restore 8
 122              		.cfi_def_cfa 2, 16
 123 008c 13010101 		addi	sp,sp,16
 124              		.cfi_def_cfa_offset 0
 125 0090 67800000 		jr	ra
 126              		.cfi_endproc
 127              	.LFE53:
 129              		.align	2
 130              		.globl	_ZN5RiscV18executePutcSyscallEv
 132              	_ZN5RiscV18executePutcSyscallEv:
 133              	.LFB60:
 355:src/kernel/riscv.cpp **** 
 356:src/kernel/riscv.cpp **** void RiscV::executeSemOpenSyscall() {
 357:src/kernel/riscv.cpp **** 
 358:src/kernel/riscv.cpp ****     //fetch the arguments from a0-a7 registers
 359:src/kernel/riscv.cpp ****     uint64 ihandle, iinit;
 360:src/kernel/riscv.cpp **** 
 361:src/kernel/riscv.cpp ****     asm("mv %[ihandle], a1" : [ihandle] "=r"(ihandle));
 362:src/kernel/riscv.cpp ****     asm("mv %[iinit], a2" : [iinit] "=r"(iinit));
 363:src/kernel/riscv.cpp **** 
 364:src/kernel/riscv.cpp ****     //create new Semaphore Control Block and write it into ihandle if not null
 365:src/kernel/riscv.cpp ****     SCB *scb = new SCB(iinit);
 366:src/kernel/riscv.cpp **** 
 367:src/kernel/riscv.cpp ****     uint64 status = 0;
 368:src/kernel/riscv.cpp **** 
 369:src/kernel/riscv.cpp ****     if(scb == nullptr){
 370:src/kernel/riscv.cpp ****         status = -1;
 371:src/kernel/riscv.cpp ****     }
 372:src/kernel/riscv.cpp ****     else{
 373:src/kernel/riscv.cpp ****         *((SCB**)ihandle) = scb;
 374:src/kernel/riscv.cpp ****     }
 375:src/kernel/riscv.cpp **** 
 376:src/kernel/riscv.cpp ****     //return status
 377:src/kernel/riscv.cpp ****     asm("mv a0, %[status]" : : [status] "r" (status));
 378:src/kernel/riscv.cpp **** 
 379:src/kernel/riscv.cpp ****     RiscV::saveA0toSscratch();
GAS LISTING /tmp/cciGQfDY.s 			page 10


 380:src/kernel/riscv.cpp **** 
 381:src/kernel/riscv.cpp **** }
 382:src/kernel/riscv.cpp **** 
 383:src/kernel/riscv.cpp **** void RiscV::executeSemCloseSyscall() {
 384:src/kernel/riscv.cpp **** 
 385:src/kernel/riscv.cpp ****     //fetch the arguments from a0-a7 registers
 386:src/kernel/riscv.cpp ****     uint64 ihandle;
 387:src/kernel/riscv.cpp **** 
 388:src/kernel/riscv.cpp ****     asm("mv %[ihandle], a1" : [ihandle] "=r"(ihandle));
 389:src/kernel/riscv.cpp **** 
 390:src/kernel/riscv.cpp ****     //delete scb if not null
 391:src/kernel/riscv.cpp ****     SCB *scb = (SCB*)ihandle;
 392:src/kernel/riscv.cpp ****     uint64 status = 0;
 393:src/kernel/riscv.cpp **** 
 394:src/kernel/riscv.cpp ****     if(scb == nullptr){
 395:src/kernel/riscv.cpp ****         status = -1;
 396:src/kernel/riscv.cpp ****     }
 397:src/kernel/riscv.cpp ****     else
 398:src/kernel/riscv.cpp ****         delete (SCB*)ihandle;
 399:src/kernel/riscv.cpp **** 
 400:src/kernel/riscv.cpp ****     //return status
 401:src/kernel/riscv.cpp ****     asm("mv a0, %[status]" : : [status] "r" (status));
 402:src/kernel/riscv.cpp **** 
 403:src/kernel/riscv.cpp ****     RiscV::saveA0toSscratch();
 404:src/kernel/riscv.cpp **** }
 405:src/kernel/riscv.cpp **** 
 406:src/kernel/riscv.cpp **** void RiscV::executeSemWaitSyscall() {
 407:src/kernel/riscv.cpp **** 
 408:src/kernel/riscv.cpp ****     //fetch the arguments from a0-a7 registers
 409:src/kernel/riscv.cpp ****     uint64 ihandle;
 410:src/kernel/riscv.cpp **** 
 411:src/kernel/riscv.cpp ****     asm("mv %[ihandle], a1" : [ihandle] "=r"(ihandle));
 412:src/kernel/riscv.cpp **** 
 413:src/kernel/riscv.cpp ****     uint64 status = 0;
 414:src/kernel/riscv.cpp ****     //call wait method on ihandle scb
 415:src/kernel/riscv.cpp **** 
 416:src/kernel/riscv.cpp ****     if(((SCB*)ihandle) != nullptr)
 417:src/kernel/riscv.cpp ****         ((SCB*)ihandle)->wait();
 418:src/kernel/riscv.cpp ****     else
 419:src/kernel/riscv.cpp ****         status = -1;
 420:src/kernel/riscv.cpp **** 
 421:src/kernel/riscv.cpp ****     if(TCB::running->semError != nullptr)
 422:src/kernel/riscv.cpp ****         status = -1;
 423:src/kernel/riscv.cpp ****     else
 424:src/kernel/riscv.cpp ****         status = 0;
 425:src/kernel/riscv.cpp **** 
 426:src/kernel/riscv.cpp ****     //return status
 427:src/kernel/riscv.cpp ****     asm("mv a0, %[status]" : : [status] "r" (status));
 428:src/kernel/riscv.cpp **** 
 429:src/kernel/riscv.cpp ****     RiscV::saveA0toSscratch();
 430:src/kernel/riscv.cpp **** 
 431:src/kernel/riscv.cpp **** }
 432:src/kernel/riscv.cpp **** 
 433:src/kernel/riscv.cpp **** void RiscV::executeSemSignalSyscall() {
 434:src/kernel/riscv.cpp **** 
 435:src/kernel/riscv.cpp ****     //fetch the arguments from a0-a7 registers
 436:src/kernel/riscv.cpp ****     uint64 ihandle;
GAS LISTING /tmp/cciGQfDY.s 			page 11


 437:src/kernel/riscv.cpp **** 
 438:src/kernel/riscv.cpp ****     asm("mv %[ihandle], a1" : [ihandle] "=r"(ihandle));
 439:src/kernel/riscv.cpp **** 
 440:src/kernel/riscv.cpp ****     //call signal method on ihandle scb
 441:src/kernel/riscv.cpp **** 
 442:src/kernel/riscv.cpp ****     uint64 status = 0;
 443:src/kernel/riscv.cpp **** 
 444:src/kernel/riscv.cpp ****     if(((SCB*)ihandle) != nullptr)
 445:src/kernel/riscv.cpp ****         ((SCB*)ihandle)->signal();
 446:src/kernel/riscv.cpp ****     else
 447:src/kernel/riscv.cpp ****         status = -1;
 448:src/kernel/riscv.cpp **** 
 449:src/kernel/riscv.cpp ****     //return status
 450:src/kernel/riscv.cpp ****     asm("mv a0, %[status]" : : [status] "r" (status));
 451:src/kernel/riscv.cpp **** 
 452:src/kernel/riscv.cpp ****     RiscV::saveA0toSscratch();
 453:src/kernel/riscv.cpp **** }
 454:src/kernel/riscv.cpp **** 
 455:src/kernel/riscv.cpp **** void RiscV::executeTimeSleepSyscall() {
 456:src/kernel/riscv.cpp **** 
 457:src/kernel/riscv.cpp ****     //fetch the arguments from a0-a7 registers
 458:src/kernel/riscv.cpp ****     uint64 itime;
 459:src/kernel/riscv.cpp **** 
 460:src/kernel/riscv.cpp ****     asm("mv %[itime], a1" : [itime] "=r"(itime));
 461:src/kernel/riscv.cpp **** 
 462:src/kernel/riscv.cpp ****     //calculate wake time for running thread and put it to sleep
 463:src/kernel/riscv.cpp ****     //fetch new running with dispatch
 464:src/kernel/riscv.cpp ****     TCB* tcb = TCB::running;
 465:src/kernel/riscv.cpp ****     tcb->sleepTime = globalTime;
 466:src/kernel/riscv.cpp ****     tcb->wakeTime = globalTime + itime;
 467:src/kernel/riscv.cpp **** 
 468:src/kernel/riscv.cpp ****     Scheduler::sleep(tcb);
 469:src/kernel/riscv.cpp **** 
 470:src/kernel/riscv.cpp ****     tcb->status = TCB::Status::BLOCKED;
 471:src/kernel/riscv.cpp **** 
 472:src/kernel/riscv.cpp ****     TCB::dispatch();
 473:src/kernel/riscv.cpp **** 
 474:src/kernel/riscv.cpp ****     uint64 status = 0;
 475:src/kernel/riscv.cpp **** 
 476:src/kernel/riscv.cpp ****     //return status
 477:src/kernel/riscv.cpp ****     asm("mv a0, %[status]" : : [status] "r" (status));
 478:src/kernel/riscv.cpp **** 
 479:src/kernel/riscv.cpp ****     RiscV::saveA0toSscratch();
 480:src/kernel/riscv.cpp **** }
 481:src/kernel/riscv.cpp **** 
 482:src/kernel/riscv.cpp **** void RiscV::executeGetcSyscall() {
 483:src/kernel/riscv.cpp **** 
 484:src/kernel/riscv.cpp ****     //register a pending getc call
 485:src/kernel/riscv.cpp ****     if(!userMainFinished)
 486:src/kernel/riscv.cpp ****         ConsoleUtil::pendingGetc++;
 487:src/kernel/riscv.cpp **** 
 488:src/kernel/riscv.cpp ****     //get character from input buffer
 489:src/kernel/riscv.cpp ****     char c = ConsoleUtil::getInput();
 490:src/kernel/riscv.cpp **** 
 491:src/kernel/riscv.cpp ****     //if char == \n echo it as LF and CR
 492:src/kernel/riscv.cpp ****     if(c==13) {
 493:src/kernel/riscv.cpp ****         ConsoleUtil::putOutput(13);
GAS LISTING /tmp/cciGQfDY.s 			page 12


 494:src/kernel/riscv.cpp ****         ConsoleUtil::putOutput(10);
 495:src/kernel/riscv.cpp ****     }
 496:src/kernel/riscv.cpp ****     //if not ESC character, echo it to console
 497:src/kernel/riscv.cpp ****     else if(c!=0x01b)
 498:src/kernel/riscv.cpp ****         ConsoleUtil::putOutput(c);
 499:src/kernel/riscv.cpp **** 
 500:src/kernel/riscv.cpp ****     //return character
 501:src/kernel/riscv.cpp ****     asm("mv a0, %[c]" : : [c] "r" (c));
 502:src/kernel/riscv.cpp **** 
 503:src/kernel/riscv.cpp ****     RiscV::saveA0toSscratch();
 504:src/kernel/riscv.cpp **** }
 505:src/kernel/riscv.cpp **** 
 506:src/kernel/riscv.cpp **** void RiscV::executePutcSyscall() {
 134              		.loc 1 506 34 is_stmt 1
 135              		.cfi_startproc
 136 0094 130101FF 		addi	sp,sp,-16
 137              		.cfi_def_cfa_offset 16
 138 0098 23341100 		sd	ra,8(sp)
 139 009c 23308100 		sd	s0,0(sp)
 140              		.cfi_offset 1, -8
 141              		.cfi_offset 8, -16
 142 00a0 13040101 		addi	s0,sp,16
 143              		.cfi_def_cfa 8, 0
 507:src/kernel/riscv.cpp **** 
 508:src/kernel/riscv.cpp ****     //register a pending putc call
 509:src/kernel/riscv.cpp ****     if(!userMainFinished)
 144              		.loc 1 509 5
 145              		.loc 1 509 8 is_stmt 0
 146 00a4 97070000 		lbu	a5,.LANCHOR0
 146      83C70700 
 147              		.loc 1 509 5
 148 00ac 639C0700 		bnez	a5,.L9
 510:src/kernel/riscv.cpp ****         ConsoleUtil::pendingPutc++;
 149              		.loc 1 510 9 is_stmt 1
 150              		.loc 1 510 33 is_stmt 0
 151 00b0 17070000 		la	a4,_ZN11ConsoleUtil11pendingPutcE
 151      03370700 
 152 00b8 83370700 		ld	a5,0(a4)
 153 00bc 93871700 		addi	a5,a5,1
 154 00c0 2330F700 		sd	a5,0(a4)
 155              	.L9:
 511:src/kernel/riscv.cpp **** 
 512:src/kernel/riscv.cpp ****     char c;
 156              		.loc 1 512 5 is_stmt 1
 513:src/kernel/riscv.cpp **** 
 514:src/kernel/riscv.cpp ****     asm("mv %[c], a1" : [c] "=r"(c));
 157              		.loc 1 514 5
 158              		.loc 1 514 37 is_stmt 0
 159              	#APP
 160              	# 514 "src/kernel/riscv.cpp" 1
 515              	
 161              		mv a0, a1
 162              	# 0 "" 2
 163              	.LVL6:
 516:src/kernel/riscv.cpp ****     //put character in output buffer
 517:src/kernel/riscv.cpp ****     ConsoleUtil::putOutput(c);
 164              		.loc 1 517 5 is_stmt 1
GAS LISTING /tmp/cciGQfDY.s 			page 13


 165              		.loc 1 517 27 is_stmt 0
 166              	#NO_APP
 167 00c8 1375F50F 		andi	a0,a0,0xff
 168 00cc 97000000 		call	_ZN11ConsoleUtil9putOutputEc@plt
 168      E7800000 
 169              	.LVL7:
 518:src/kernel/riscv.cpp **** }
 170              		.loc 1 518 1
 171 00d4 83308100 		ld	ra,8(sp)
 172              		.cfi_restore 1
 173 00d8 03340100 		ld	s0,0(sp)
 174              		.cfi_restore 8
 175              		.cfi_def_cfa 2, 16
 176 00dc 13010101 		addi	sp,sp,16
 177              		.cfi_def_cfa_offset 0
 178 00e0 67800000 		jr	ra
 179              		.cfi_endproc
 180              	.LFE60:
 182              		.align	2
 183              		.globl	_ZN5RiscV29jumpToDesignatedPrivilegeModeEv
 185              	_ZN5RiscV29jumpToDesignatedPrivilegeModeEv:
 186              	.LFB63:
 519:src/kernel/riscv.cpp **** 
 520:src/kernel/riscv.cpp **** //wrapper function for putcThread
 521:src/kernel/riscv.cpp **** //spins in a while loop and checks whether console is ready to take output
 522:src/kernel/riscv.cpp **** //if ready read data from output buffer
 523:src/kernel/riscv.cpp **** void RiscV::putcWrapper(void* arg)
 524:src/kernel/riscv.cpp **** {
 525:src/kernel/riscv.cpp ****     while(true)
 526:src/kernel/riscv.cpp ****     {
 527:src/kernel/riscv.cpp ****         //read console status from status register
 528:src/kernel/riscv.cpp ****         uint64 status = CONSOLE_STATUS;
 529:src/kernel/riscv.cpp ****         asm("mv a0, %[status]" : : [status] "r" (status));
 530:src/kernel/riscv.cpp ****         asm("lb a1, 0(a0)");
 531:src/kernel/riscv.cpp ****         asm("mv %[status], a1" : [status] "=r" (status));
 532:src/kernel/riscv.cpp **** 
 533:src/kernel/riscv.cpp ****         //if console ready..
 534:src/kernel/riscv.cpp ****         if(status & 1UL<<5){
 535:src/kernel/riscv.cpp **** 
 536:src/kernel/riscv.cpp ****             //get character from output buffer with possible block if nothing in buffer
 537:src/kernel/riscv.cpp ****                 char volatile c = ConsoleUtil::putcUtilSyscall();
 538:src/kernel/riscv.cpp ****                 uint64 data = CONSOLE_RX_DATA;
 539:src/kernel/riscv.cpp ****                 asm("mv a0, %[data]" : : [data] "r"(data));
 540:src/kernel/riscv.cpp ****                 asm("mv a1, %[c]" : : [c] "r"(c));
 541:src/kernel/riscv.cpp ****                 asm("sb a1,0(a0)");
 542:src/kernel/riscv.cpp **** 
 543:src/kernel/riscv.cpp ****             //decrement number of pending putc requests
 544:src/kernel/riscv.cpp ****             if(ConsoleUtil::pendingPutc>0)
 545:src/kernel/riscv.cpp ****                 ConsoleUtil::pendingPutc--;
 546:src/kernel/riscv.cpp ****         }
 547:src/kernel/riscv.cpp ****         else
 548:src/kernel/riscv.cpp ****             RiscV::threadDispatchUtil();
 549:src/kernel/riscv.cpp ****     }
 550:src/kernel/riscv.cpp **** }
 551:src/kernel/riscv.cpp **** 
 552:src/kernel/riscv.cpp **** //utility syscall to get character from output buffer
 553:src/kernel/riscv.cpp **** //syscall is needed because we don't want to fiddle with kernel structures from anywhere but the tr
GAS LISTING /tmp/cciGQfDY.s 			page 14


 554:src/kernel/riscv.cpp **** void RiscV::executePutcUtilSyscall() {
 555:src/kernel/riscv.cpp ****     char c = ConsoleUtil::getOutput();
 556:src/kernel/riscv.cpp ****     asm("mv a0, %[c]" : : [c] "r" ((uint64)(c)) );
 557:src/kernel/riscv.cpp **** 
 558:src/kernel/riscv.cpp ****     RiscV::saveA0toSscratch();
 559:src/kernel/riscv.cpp **** }
 560:src/kernel/riscv.cpp **** 
 561:src/kernel/riscv.cpp **** //return to privilege that was given at creation
 562:src/kernel/riscv.cpp **** void RiscV::jumpToDesignatedPrivilegeMode() {
 187              		.loc 1 562 45 is_stmt 1
 188              		.cfi_startproc
 189 00e4 130101FF 		addi	sp,sp,-16
 190              		.cfi_def_cfa_offset 16
 191 00e8 23348100 		sd	s0,8(sp)
 192              		.cfi_offset 8, -8
 193 00ec 13040101 		addi	s0,sp,16
 194              		.cfi_def_cfa 8, 0
 563:src/kernel/riscv.cpp ****     if(TCB::running->mode == TCB::Mode::SUPERVISOR) {
 195              		.loc 1 563 5
 196              		.loc 1 563 22 is_stmt 0
 197 00f0 97070000 		la	a5,_ZN3TCB7runningE
 197      83B70700 
 198 00f8 83B70700 		ld	a5,0(a5)
 199 00fc 03A74701 		lw	a4,20(a5)
 200              		.loc 1 563 5
 201 0100 93071000 		li	a5,1
 202 0104 630AF702 		beq	a4,a5,.L15
 564:src/kernel/riscv.cpp ****         RiscV::ms_sstatus(RiscV::SSTATUS_SPP);
 565:src/kernel/riscv.cpp ****         RiscV::startVirtualMemory(RiscV::kPMT);
 566:src/kernel/riscv.cpp ****     }
 567:src/kernel/riscv.cpp ****     else {
 568:src/kernel/riscv.cpp ****         RiscV::mc_sstatus(RiscV::SSTATUS_SPP);
 203              		.loc 1 568 9 is_stmt 1
 204              	.LVL8:
 205              	.LBB99:
 206              	.LBB100:
 207              		.file 2 "src/kernel/../../h/kernel/riscv.hpp"
   1:src/kernel/../../h/kernel/riscv.hpp **** //
   2:src/kernel/../../h/kernel/riscv.hpp **** // Created by os on 4/28/22.
   3:src/kernel/../../h/kernel/riscv.hpp **** //
   4:src/kernel/../../h/kernel/riscv.hpp **** 
   5:src/kernel/../../h/kernel/riscv.hpp **** #ifndef OS1_KERNEL_RISCV_HPP
   6:src/kernel/../../h/kernel/riscv.hpp **** #define OS1_KERNEL_RISCV_HPP
   7:src/kernel/../../h/kernel/riscv.hpp **** #include "../../lib/hw.h"
   8:src/kernel/../../h/kernel/riscv.hpp **** class TCB;
   9:src/kernel/../../h/kernel/riscv.hpp **** class SlabAllocator;
  10:src/kernel/../../h/kernel/riscv.hpp **** 
  11:src/kernel/../../h/kernel/riscv.hpp **** class RiscV{
  12:src/kernel/../../h/kernel/riscv.hpp **** 
  13:src/kernel/../../h/kernel/riscv.hpp ****     static uint64 globalTime;
  14:src/kernel/../../h/kernel/riscv.hpp **** 
  15:src/kernel/../../h/kernel/riscv.hpp ****     static void* kPMT;
  16:src/kernel/../../h/kernel/riscv.hpp ****     static void* uPMT;
  17:src/kernel/../../h/kernel/riscv.hpp **** 
  18:src/kernel/../../h/kernel/riscv.hpp ****     static bool initialized;
  19:src/kernel/../../h/kernel/riscv.hpp **** 
  20:src/kernel/../../h/kernel/riscv.hpp ****     static bool userMainFinished;
GAS LISTING /tmp/cciGQfDY.s 			page 15


  21:src/kernel/../../h/kernel/riscv.hpp **** 
  22:src/kernel/../../h/kernel/riscv.hpp ****     enum BitMaskSstatus{
  23:src/kernel/../../h/kernel/riscv.hpp ****         SSTATUS_SIE = (1<<1),
  24:src/kernel/../../h/kernel/riscv.hpp ****         SSTATUS_SPIE = (1<<5),
  25:src/kernel/../../h/kernel/riscv.hpp ****         SSTATUS_SPP = (1<<8),
  26:src/kernel/../../h/kernel/riscv.hpp ****     };
  27:src/kernel/../../h/kernel/riscv.hpp **** 
  28:src/kernel/../../h/kernel/riscv.hpp ****     enum BitMaskSip{
  29:src/kernel/../../h/kernel/riscv.hpp ****         SIP_SSIE = (1<<1),
  30:src/kernel/../../h/kernel/riscv.hpp ****         SIP_STIE = (1<<5),
  31:src/kernel/../../h/kernel/riscv.hpp ****         SIP_SEIE = (1<<9),
  32:src/kernel/../../h/kernel/riscv.hpp ****     };
  33:src/kernel/../../h/kernel/riscv.hpp **** 
  34:src/kernel/../../h/kernel/riscv.hpp ****     static void executeMemAllocSyscall();   //wrapper function for moving parameters and calling Me
  35:src/kernel/../../h/kernel/riscv.hpp **** 
  36:src/kernel/../../h/kernel/riscv.hpp ****     static void executeMemFreeSyscall();    //wrapper function for moving parameters and calling Me
  37:src/kernel/../../h/kernel/riscv.hpp **** 
  38:src/kernel/../../h/kernel/riscv.hpp ****     static void executeThreadCreateSyscall();
  39:src/kernel/../../h/kernel/riscv.hpp **** 
  40:src/kernel/../../h/kernel/riscv.hpp ****     static void executeThreadExitSyscall();
  41:src/kernel/../../h/kernel/riscv.hpp **** 
  42:src/kernel/../../h/kernel/riscv.hpp ****     static void executeThreadDispatchSyscall();
  43:src/kernel/../../h/kernel/riscv.hpp **** 
  44:src/kernel/../../h/kernel/riscv.hpp ****     static void executeThreadAttachBodySyscall();
  45:src/kernel/../../h/kernel/riscv.hpp **** 
  46:src/kernel/../../h/kernel/riscv.hpp ****     static void executeThreadStartSyscall();
  47:src/kernel/../../h/kernel/riscv.hpp **** 
  48:src/kernel/../../h/kernel/riscv.hpp ****     static void executeSemOpenSyscall();
  49:src/kernel/../../h/kernel/riscv.hpp **** 
  50:src/kernel/../../h/kernel/riscv.hpp ****     static void executeSemCloseSyscall();
  51:src/kernel/../../h/kernel/riscv.hpp **** 
  52:src/kernel/../../h/kernel/riscv.hpp ****     static void executeSemWaitSyscall();
  53:src/kernel/../../h/kernel/riscv.hpp **** 
  54:src/kernel/../../h/kernel/riscv.hpp ****     static void executeSemSignalSyscall();
  55:src/kernel/../../h/kernel/riscv.hpp **** 
  56:src/kernel/../../h/kernel/riscv.hpp ****     static void executeTimeSleepSyscall();
  57:src/kernel/../../h/kernel/riscv.hpp **** 
  58:src/kernel/../../h/kernel/riscv.hpp ****     static void executeGetcSyscall();
  59:src/kernel/../../h/kernel/riscv.hpp **** 
  60:src/kernel/../../h/kernel/riscv.hpp ****     static void executePutcSyscall();
  61:src/kernel/../../h/kernel/riscv.hpp **** 
  62:src/kernel/../../h/kernel/riscv.hpp ****     static void executePutcUtilSyscall();
  63:src/kernel/../../h/kernel/riscv.hpp **** 
  64:src/kernel/../../h/kernel/riscv.hpp ****     static void executeThreadFreeSyscall();
  65:src/kernel/../../h/kernel/riscv.hpp **** 
  66:src/kernel/../../h/kernel/riscv.hpp ****     static void executeSemaphoreFreeSyscall();
  67:src/kernel/../../h/kernel/riscv.hpp **** 
  68:src/kernel/../../h/kernel/riscv.hpp ****     static void executeForkSyscall();
  69:src/kernel/../../h/kernel/riscv.hpp **** 
  70:src/kernel/../../h/kernel/riscv.hpp ****     static void putcWrapper(void *arg);
  71:src/kernel/../../h/kernel/riscv.hpp **** 
  72:src/kernel/../../h/kernel/riscv.hpp ****     static void threadCreateUtil(TCB** handle, void(*start_routine)(void*), void *arg);
  73:src/kernel/../../h/kernel/riscv.hpp **** 
  74:src/kernel/../../h/kernel/riscv.hpp ****     static void threadExitUtil();
  75:src/kernel/../../h/kernel/riscv.hpp **** 
  76:src/kernel/../../h/kernel/riscv.hpp ****     static void threadDispatchUtil();
  77:src/kernel/../../h/kernel/riscv.hpp **** 
GAS LISTING /tmp/cciGQfDY.s 			page 16


  78:src/kernel/../../h/kernel/riscv.hpp ****     static uint64 r_scause();
  79:src/kernel/../../h/kernel/riscv.hpp **** 
  80:src/kernel/../../h/kernel/riscv.hpp ****     static void w_scause(uint64 scause);
  81:src/kernel/../../h/kernel/riscv.hpp **** 
  82:src/kernel/../../h/kernel/riscv.hpp ****     static uint64 r_sepc();
  83:src/kernel/../../h/kernel/riscv.hpp **** 
  84:src/kernel/../../h/kernel/riscv.hpp ****     static void w_sepc(uint64 sepc);
  85:src/kernel/../../h/kernel/riscv.hpp **** 
  86:src/kernel/../../h/kernel/riscv.hpp ****     static uint64 r_stvec();
  87:src/kernel/../../h/kernel/riscv.hpp **** 
  88:src/kernel/../../h/kernel/riscv.hpp ****     static void w_stvec(uint64 stvec);
  89:src/kernel/../../h/kernel/riscv.hpp **** 
  90:src/kernel/../../h/kernel/riscv.hpp ****     static uint64 r_sstatus();
  91:src/kernel/../../h/kernel/riscv.hpp **** 
  92:src/kernel/../../h/kernel/riscv.hpp ****     static void w_sstatus(uint64 sstatus);
  93:src/kernel/../../h/kernel/riscv.hpp **** 
  94:src/kernel/../../h/kernel/riscv.hpp ****     static void ms_sstatus(uint64 mask);
  95:src/kernel/../../h/kernel/riscv.hpp **** 
  96:src/kernel/../../h/kernel/riscv.hpp ****     static void mc_sstatus(uint64 mask);
  97:src/kernel/../../h/kernel/riscv.hpp **** 
  98:src/kernel/../../h/kernel/riscv.hpp ****     static void ms_sip(uint64 mask);
  99:src/kernel/../../h/kernel/riscv.hpp **** 
 100:src/kernel/../../h/kernel/riscv.hpp ****     static void mc_sip(uint64 mask);
 101:src/kernel/../../h/kernel/riscv.hpp **** 
 102:src/kernel/../../h/kernel/riscv.hpp ****     static void ms_sie(uint64 mask);
 103:src/kernel/../../h/kernel/riscv.hpp **** 
 104:src/kernel/../../h/kernel/riscv.hpp ****     static void mc_sie(uint64 mask);
 105:src/kernel/../../h/kernel/riscv.hpp **** 
 106:src/kernel/../../h/kernel/riscv.hpp ****     static void startVirtualMemory(void *PMT);
 107:src/kernel/../../h/kernel/riscv.hpp ****     static void shutVirtualMemory();
 108:src/kernel/../../h/kernel/riscv.hpp **** 
 109:src/kernel/../../h/kernel/riscv.hpp ****     static void saveA0toSscratch();
 110:src/kernel/../../h/kernel/riscv.hpp **** 
 111:src/kernel/../../h/kernel/riscv.hpp ****     static void jumpToDesignatedPrivilegeMode();
 112:src/kernel/../../h/kernel/riscv.hpp **** 
 113:src/kernel/../../h/kernel/riscv.hpp ****     static void popSppSpie();
 114:src/kernel/../../h/kernel/riscv.hpp **** 
 115:src/kernel/../../h/kernel/riscv.hpp ****     static void popSppSpie2();
 116:src/kernel/../../h/kernel/riscv.hpp **** 
 117:src/kernel/../../h/kernel/riscv.hpp ****     static void getPC();
 118:src/kernel/../../h/kernel/riscv.hpp **** 
 119:src/kernel/../../h/kernel/riscv.hpp ****     static void supervisorTrap();      //supervisorTrap defined in /src/supervisorTrap.S
 120:src/kernel/../../h/kernel/riscv.hpp **** 
 121:src/kernel/../../h/kernel/riscv.hpp ****     static void handleSupervisorTrap();
 122:src/kernel/../../h/kernel/riscv.hpp **** 
 123:src/kernel/../../h/kernel/riscv.hpp ****     static void enableInterrupts();
 124:src/kernel/../../h/kernel/riscv.hpp **** 
 125:src/kernel/../../h/kernel/riscv.hpp ****     static void disableInterrupts();
 126:src/kernel/../../h/kernel/riscv.hpp **** 
 127:src/kernel/../../h/kernel/riscv.hpp ****     static void enableHardwareInterrupts();
 128:src/kernel/../../h/kernel/riscv.hpp **** 
 129:src/kernel/../../h/kernel/riscv.hpp ****     static void disableHardwareInterrupts();
 130:src/kernel/../../h/kernel/riscv.hpp **** 
 131:src/kernel/../../h/kernel/riscv.hpp ****     static void enableTimerInterrupts();
 132:src/kernel/../../h/kernel/riscv.hpp **** 
 133:src/kernel/../../h/kernel/riscv.hpp ****     static void disableTimerInterrupts();
 134:src/kernel/../../h/kernel/riscv.hpp **** 
GAS LISTING /tmp/cciGQfDY.s 			page 17


 135:src/kernel/../../h/kernel/riscv.hpp ****     static void handlePageFault(void* PMT,uint64 addr, uint64 mask);
 136:src/kernel/../../h/kernel/riscv.hpp **** 
 137:src/kernel/../../h/kernel/riscv.hpp ****     static void initialize();
 138:src/kernel/../../h/kernel/riscv.hpp **** 
 139:src/kernel/../../h/kernel/riscv.hpp ****     static void finalize();
 140:src/kernel/../../h/kernel/riscv.hpp **** 
 141:src/kernel/../../h/kernel/riscv.hpp ****     static void* getPMT();
 142:src/kernel/../../h/kernel/riscv.hpp **** 
 143:src/kernel/../../h/kernel/riscv.hpp ****     static void buildSection(void* PMT, uint64 start, uint64 end, uint64 mask);
 144:src/kernel/../../h/kernel/riscv.hpp **** 
 145:src/kernel/../../h/kernel/riscv.hpp ****     static void buildKernelPMT();
 146:src/kernel/../../h/kernel/riscv.hpp **** 
 147:src/kernel/../../h/kernel/riscv.hpp ****     static void buildUserPMT();
 148:src/kernel/../../h/kernel/riscv.hpp **** 
 149:src/kernel/../../h/kernel/riscv.hpp ****     static void mapConsoleRegisters(void *PMT);
 150:src/kernel/../../h/kernel/riscv.hpp **** 
 151:src/kernel/../../h/kernel/riscv.hpp ****     friend class TCB;
 152:src/kernel/../../h/kernel/riscv.hpp **** 
 153:src/kernel/../../h/kernel/riscv.hpp ****     friend class System;
 154:src/kernel/../../h/kernel/riscv.hpp **** 
 155:src/kernel/../../h/kernel/riscv.hpp ****     friend class Scheduler;
 156:src/kernel/../../h/kernel/riscv.hpp **** 
 157:src/kernel/../../h/kernel/riscv.hpp ****     friend class ConsoleUtil;
 158:src/kernel/../../h/kernel/riscv.hpp **** 
 159:src/kernel/../../h/kernel/riscv.hpp ****     friend class SlabAllocator;
 160:src/kernel/../../h/kernel/riscv.hpp **** };
 161:src/kernel/../../h/kernel/riscv.hpp **** 
 162:src/kernel/../../h/kernel/riscv.hpp **** inline uint64 RiscV::r_scause(){
 163:src/kernel/../../h/kernel/riscv.hpp ****     uint64 volatile scause;
 164:src/kernel/../../h/kernel/riscv.hpp ****     asm("csrr %[scause], scause" : [scause] "=r" (scause));
 165:src/kernel/../../h/kernel/riscv.hpp ****     return scause;
 166:src/kernel/../../h/kernel/riscv.hpp **** }
 167:src/kernel/../../h/kernel/riscv.hpp **** 
 168:src/kernel/../../h/kernel/riscv.hpp **** inline void RiscV::w_scause(uint64 scause){
 169:src/kernel/../../h/kernel/riscv.hpp ****     asm("csrw scause, %[scause]" : : [scause] "r" (scause));
 170:src/kernel/../../h/kernel/riscv.hpp **** }
 171:src/kernel/../../h/kernel/riscv.hpp **** 
 172:src/kernel/../../h/kernel/riscv.hpp **** inline uint64 RiscV::r_sepc(){
 173:src/kernel/../../h/kernel/riscv.hpp ****     uint64 sepc;
 174:src/kernel/../../h/kernel/riscv.hpp ****     asm("csrr %[sepc], sepc" : [sepc] "=r" (sepc));
 175:src/kernel/../../h/kernel/riscv.hpp ****     return sepc;
 176:src/kernel/../../h/kernel/riscv.hpp **** }
 177:src/kernel/../../h/kernel/riscv.hpp **** 
 178:src/kernel/../../h/kernel/riscv.hpp **** inline void RiscV::w_sepc(uint64 sepc){
 179:src/kernel/../../h/kernel/riscv.hpp ****     asm("csrw sepc, %[sepc]" : : [sepc] "r" (sepc));
 180:src/kernel/../../h/kernel/riscv.hpp **** }
 181:src/kernel/../../h/kernel/riscv.hpp **** 
 182:src/kernel/../../h/kernel/riscv.hpp **** inline uint64 RiscV::r_stvec(){
 183:src/kernel/../../h/kernel/riscv.hpp ****     uint64 stvec;
 184:src/kernel/../../h/kernel/riscv.hpp ****     asm("csrr %[stvec], stvec" : [stvec] "=r" (stvec));
 185:src/kernel/../../h/kernel/riscv.hpp ****     return stvec;
 186:src/kernel/../../h/kernel/riscv.hpp **** }
 187:src/kernel/../../h/kernel/riscv.hpp **** 
 188:src/kernel/../../h/kernel/riscv.hpp **** inline void RiscV::w_sstatus(uint64 sstatus){
 189:src/kernel/../../h/kernel/riscv.hpp ****     asm("csrw sstatus, %[sstatus]" : : [sstatus] "r" (sstatus));
 190:src/kernel/../../h/kernel/riscv.hpp **** }
 191:src/kernel/../../h/kernel/riscv.hpp **** 
GAS LISTING /tmp/cciGQfDY.s 			page 18


 192:src/kernel/../../h/kernel/riscv.hpp **** inline uint64 RiscV::r_sstatus(){
 193:src/kernel/../../h/kernel/riscv.hpp ****     uint64 sstatus;
 194:src/kernel/../../h/kernel/riscv.hpp ****     asm("csrr %[sstatus], sstatus" : [sstatus] "=r" (sstatus));
 195:src/kernel/../../h/kernel/riscv.hpp ****     return sstatus;
 196:src/kernel/../../h/kernel/riscv.hpp **** }
 197:src/kernel/../../h/kernel/riscv.hpp **** 
 198:src/kernel/../../h/kernel/riscv.hpp **** inline void RiscV::w_stvec(uint64 stvec){
 199:src/kernel/../../h/kernel/riscv.hpp ****     asm("csrw stvec, %[stvec]" : : [stvec] "r" (stvec));
 200:src/kernel/../../h/kernel/riscv.hpp **** }
 201:src/kernel/../../h/kernel/riscv.hpp **** 
 202:src/kernel/../../h/kernel/riscv.hpp **** inline void  RiscV::ms_sstatus(uint64 mask) {
 203:src/kernel/../../h/kernel/riscv.hpp ****     asm("csrs sstatus, %[mask]" : : [mask] "r" (mask));
 204:src/kernel/../../h/kernel/riscv.hpp **** }
 205:src/kernel/../../h/kernel/riscv.hpp **** 
 206:src/kernel/../../h/kernel/riscv.hpp **** inline void  RiscV::mc_sstatus(uint64 mask) {
 207:src/kernel/../../h/kernel/riscv.hpp ****     asm("csrc sstatus, %[mask]" : : [mask] "r" (mask));
 208              		.loc 2 207 5
 209              		.loc 2 207 55 is_stmt 0
 210 0108 93070010 		li	a5,256
 211              	#APP
 212              	# 207 "src/kernel/../../h/kernel/riscv.hpp" 1
 208              	}
 213              		csrc sstatus, a5
 214              	# 0 "" 2
 215              	.LVL9:
 216              	#NO_APP
 217              	.LBE100:
 218              	.LBE99:
 569:src/kernel/riscv.cpp ****         RiscV::startVirtualMemory(RiscV::uPMT);
 219              		.loc 1 569 9 is_stmt 1
 220              		.loc 1 569 34 is_stmt 0
 221 0110 97070000 		ld	a5,.LANCHOR0+16
 221      83B70700 
 222              	.LVL10:
 223              	.LBB101:
 224              	.LBB102:
 209:src/kernel/../../h/kernel/riscv.hpp **** 
 210:src/kernel/../../h/kernel/riscv.hpp **** inline void  RiscV::ms_sip(uint64 mask) {
 211:src/kernel/../../h/kernel/riscv.hpp ****     asm("csrs sip, %[mask]" : : [mask] "r" (mask));
 212:src/kernel/../../h/kernel/riscv.hpp **** }
 213:src/kernel/../../h/kernel/riscv.hpp **** 
 214:src/kernel/../../h/kernel/riscv.hpp **** inline void  RiscV::mc_sip(uint64 mask) {
 215:src/kernel/../../h/kernel/riscv.hpp ****     asm("csrc sip, %[mask]" : : [mask] "r" (mask));
 216:src/kernel/../../h/kernel/riscv.hpp **** }
 217:src/kernel/../../h/kernel/riscv.hpp **** 
 218:src/kernel/../../h/kernel/riscv.hpp **** inline void  RiscV::ms_sie(uint64 mask) {
 219:src/kernel/../../h/kernel/riscv.hpp ****     asm("csrs sie, %[mask]" : : [mask] "r" (mask));
 220:src/kernel/../../h/kernel/riscv.hpp **** }
 221:src/kernel/../../h/kernel/riscv.hpp **** 
 222:src/kernel/../../h/kernel/riscv.hpp **** inline void  RiscV::mc_sie(uint64 mask){
 223:src/kernel/../../h/kernel/riscv.hpp ****     asm("csrc sie, %[mask]" : : [mask] "r" (mask));
 224:src/kernel/../../h/kernel/riscv.hpp **** }
 225:src/kernel/../../h/kernel/riscv.hpp **** 
 226:src/kernel/../../h/kernel/riscv.hpp **** inline void RiscV::enableInterrupts() {
 227:src/kernel/../../h/kernel/riscv.hpp ****     RiscV::ms_sie(SIP_SSIE);
 228:src/kernel/../../h/kernel/riscv.hpp ****     RiscV::ms_sie(SIP_SEIE);
 229:src/kernel/../../h/kernel/riscv.hpp ****     RiscV::ms_sstatus(SSTATUS_SIE);
GAS LISTING /tmp/cciGQfDY.s 			page 19


 230:src/kernel/../../h/kernel/riscv.hpp **** }
 231:src/kernel/../../h/kernel/riscv.hpp **** 
 232:src/kernel/../../h/kernel/riscv.hpp **** inline void RiscV::disableInterrupts() {
 233:src/kernel/../../h/kernel/riscv.hpp ****     disableTimerInterrupts();
 234:src/kernel/../../h/kernel/riscv.hpp ****     disableHardwareInterrupts();
 235:src/kernel/../../h/kernel/riscv.hpp **** }
 236:src/kernel/../../h/kernel/riscv.hpp **** 
 237:src/kernel/../../h/kernel/riscv.hpp **** inline void RiscV::enableHardwareInterrupts() {
 238:src/kernel/../../h/kernel/riscv.hpp ****     RiscV::mc_sie(SIP_SSIE);
 239:src/kernel/../../h/kernel/riscv.hpp ****     RiscV::ms_sstatus(SSTATUS_SIE);
 240:src/kernel/../../h/kernel/riscv.hpp ****     RiscV::ms_sie(SIP_SEIE);
 241:src/kernel/../../h/kernel/riscv.hpp **** }
 242:src/kernel/../../h/kernel/riscv.hpp **** 
 243:src/kernel/../../h/kernel/riscv.hpp **** inline void RiscV::disableHardwareInterrupts(){
 244:src/kernel/../../h/kernel/riscv.hpp ****     RiscV::mc_sie(SIP_SEIE);
 245:src/kernel/../../h/kernel/riscv.hpp **** }
 246:src/kernel/../../h/kernel/riscv.hpp **** 
 247:src/kernel/../../h/kernel/riscv.hpp **** inline void RiscV::enableTimerInterrupts() {
 248:src/kernel/../../h/kernel/riscv.hpp ****     RiscV::mc_sie(SIP_SEIE);
 249:src/kernel/../../h/kernel/riscv.hpp ****     RiscV::ms_sstatus(SSTATUS_SIE);
 250:src/kernel/../../h/kernel/riscv.hpp ****     RiscV::ms_sie(SIP_SSIE);
 251:src/kernel/../../h/kernel/riscv.hpp **** }
 252:src/kernel/../../h/kernel/riscv.hpp **** 
 253:src/kernel/../../h/kernel/riscv.hpp **** inline void RiscV::disableTimerInterrupts(){
 254:src/kernel/../../h/kernel/riscv.hpp ****     RiscV::mc_sie(SIP_SSIE);
 255:src/kernel/../../h/kernel/riscv.hpp **** }
 256:src/kernel/../../h/kernel/riscv.hpp **** 
 257:src/kernel/../../h/kernel/riscv.hpp **** inline void RiscV::startVirtualMemory(void* PMT) {
 258:src/kernel/../../h/kernel/riscv.hpp ****     uint64 satp = ((uint64)1<<63) | ((uint64)(PMT)>>12);
 225              		.loc 2 258 5 is_stmt 1
 226              		.loc 2 258 51 is_stmt 0
 227 0118 93D7C700 		srli	a5,a5,12
 228              	.LVL11:
 229              		.loc 2 258 12
 230 011c 1307F0FF 		li	a4,-1
 231 0120 1317F703 		slli	a4,a4,63
 232 0124 B3E7E700 		or	a5,a5,a4
 233              	.LVL12:
 259:src/kernel/../../h/kernel/riscv.hpp ****     asm("csrw satp, %[satp]" : : [satp] "r" (satp));
 234              		.loc 2 259 5 is_stmt 1
 235              		.loc 2 259 52 is_stmt 0
 236              	#APP
 237              	# 259 "src/kernel/../../h/kernel/riscv.hpp" 1
 260              	}
 238              		csrw satp, a5
 239              	# 0 "" 2
 240              	.LVL13:
 241              	#NO_APP
 242              	.L11:
 243              	.LBE102:
 244              	.LBE101:
 570:src/kernel/riscv.cpp ****     }
 571:src/kernel/riscv.cpp **** }
 245              		.loc 1 571 1
 246 012c 03348100 		ld	s0,8(sp)
 247              		.cfi_remember_state
 248              		.cfi_restore 8
GAS LISTING /tmp/cciGQfDY.s 			page 20


 249              		.cfi_def_cfa 2, 16
 250 0130 13010101 		addi	sp,sp,16
 251              		.cfi_def_cfa_offset 0
 252 0134 67800000 		jr	ra
 253              	.L15:
 254              		.cfi_restore_state
 564:src/kernel/riscv.cpp ****         RiscV::startVirtualMemory(RiscV::kPMT);
 255              		.loc 1 564 9 is_stmt 1
 256              	.LVL14:
 257              	.LBB103:
 258              	.LBB104:
 203:src/kernel/../../h/kernel/riscv.hpp **** }
 259              		.loc 2 203 5
 203:src/kernel/../../h/kernel/riscv.hpp **** }
 260              		.loc 2 203 55 is_stmt 0
 261 0138 93070010 		li	a5,256
 262              	#APP
 263              	# 203 "src/kernel/../../h/kernel/riscv.hpp" 1
 264              		csrs sstatus, a5
 265              	# 0 "" 2
 266              	.LVL15:
 267              	#NO_APP
 268              	.LBE104:
 269              	.LBE103:
 565:src/kernel/riscv.cpp ****     }
 270              		.loc 1 565 9 is_stmt 1
 565:src/kernel/riscv.cpp ****     }
 271              		.loc 1 565 34 is_stmt 0
 272 0140 97070000 		ld	a5,.LANCHOR0+8
 272      83B70700 
 273              	.LVL16:
 274              	.LBB105:
 275              	.LBB106:
 258:src/kernel/../../h/kernel/riscv.hpp ****     asm("csrw satp, %[satp]" : : [satp] "r" (satp));
 276              		.loc 2 258 5 is_stmt 1
 258:src/kernel/../../h/kernel/riscv.hpp ****     asm("csrw satp, %[satp]" : : [satp] "r" (satp));
 277              		.loc 2 258 51 is_stmt 0
 278 0148 93D7C700 		srli	a5,a5,12
 279              	.LVL17:
 258:src/kernel/../../h/kernel/riscv.hpp ****     asm("csrw satp, %[satp]" : : [satp] "r" (satp));
 280              		.loc 2 258 12
 281 014c 1307F0FF 		li	a4,-1
 282 0150 1317F703 		slli	a4,a4,63
 283 0154 B3E7E700 		or	a5,a5,a4
 284              	.LVL18:
 259:src/kernel/../../h/kernel/riscv.hpp **** }
 285              		.loc 2 259 5 is_stmt 1
 259:src/kernel/../../h/kernel/riscv.hpp **** }
 286              		.loc 2 259 52 is_stmt 0
 287              	#APP
 288              	# 259 "src/kernel/../../h/kernel/riscv.hpp" 1
 289              		csrw satp, a5
 290              	# 0 "" 2
 291              		.loc 2 260 1
 292              	#NO_APP
 293 015c 6FF01FFD 		j	.L11
 294              	.LBE106:
GAS LISTING /tmp/cciGQfDY.s 			page 21


 295              	.LBE105:
 296              		.cfi_endproc
 297              	.LFE63:
 299              		.align	2
 300              		.globl	_ZN5RiscV8finalizeEv
 302              	_ZN5RiscV8finalizeEv:
 303              	.LFB64:
 572:src/kernel/riscv.cpp **** 
 573:src/kernel/riscv.cpp **** 
 574:src/kernel/riscv.cpp **** //clear out the scheduler and let console finish remaining outputs if there are any
 575:src/kernel/riscv.cpp **** void RiscV::finalize() {
 304              		.loc 1 575 24 is_stmt 1
 305              		.cfi_startproc
 306 0160 130101FF 		addi	sp,sp,-16
 307              		.cfi_def_cfa_offset 16
 308 0164 23341100 		sd	ra,8(sp)
 309 0168 23308100 		sd	s0,0(sp)
 310              		.cfi_offset 1, -8
 311              		.cfi_offset 8, -16
 312 016c 13040101 		addi	s0,sp,16
 313              		.cfi_def_cfa 8, 0
 576:src/kernel/riscv.cpp ****     userMainFinished = true;
 314              		.loc 1 576 5
 315              		.loc 1 576 22 is_stmt 0
 316 0170 93071000 		li	a5,1
 317 0174 17070000 		sb	a5,.LANCHOR0,a4
 317      2300F700 
 577:src/kernel/riscv.cpp **** 
 578:src/kernel/riscv.cpp ****     ConsoleUtil::pendingPutc = 0;
 318              		.loc 1 578 5 is_stmt 1
 319              		.loc 1 578 30 is_stmt 0
 320 017c 97070000 		la	a5,_ZN11ConsoleUtil11pendingPutcE
 320      83B70700 
 321 0184 23B00700 		sd	zero,0(a5)
 579:src/kernel/riscv.cpp ****     ConsoleUtil::pendingGetc = 0;
 322              		.loc 1 579 5 is_stmt 1
 323              		.loc 1 579 30 is_stmt 0
 324 0188 97070000 		la	a5,_ZN11ConsoleUtil11pendingGetcE
 324      83B70700 
 325 0190 23B00700 		sd	zero,0(a5)
 580:src/kernel/riscv.cpp **** 
 581:src/kernel/riscv.cpp ****     RiscV::disableInterrupts();
 326              		.loc 1 581 5 is_stmt 1
 327              	.LBB107:
 328              	.LBB108:
 233:src/kernel/../../h/kernel/riscv.hpp ****     disableHardwareInterrupts();
 329              		.loc 2 233 5
 330              	.LBE108:
 331              	.LBE107:
 254:src/kernel/../../h/kernel/riscv.hpp **** }
 332              		.loc 2 254 5
 333              	.LVL19:
 334              	.LBB117:
 335              	.LBB115:
 336              	.LBB109:
 337              	.LBB110:
 338              	.LBB111:
GAS LISTING /tmp/cciGQfDY.s 			page 22


 223:src/kernel/../../h/kernel/riscv.hpp **** }
 339              		.loc 2 223 5
 223:src/kernel/../../h/kernel/riscv.hpp **** }
 340              		.loc 2 223 51 is_stmt 0
 341 0194 93072000 		li	a5,2
 342              	#APP
 343              	# 223 "src/kernel/../../h/kernel/riscv.hpp" 1
 344              		csrc sie, a5
 345              	# 0 "" 2
 346              	.LVL20:
 347              	#NO_APP
 348              	.LBE111:
 349              	.LBE110:
 350              	.LBE109:
 234:src/kernel/../../h/kernel/riscv.hpp **** }
 351              		.loc 2 234 5 is_stmt 1
 352              	.LBE115:
 353              	.LBE117:
 244:src/kernel/../../h/kernel/riscv.hpp **** }
 354              		.loc 2 244 5
 355              	.LBB118:
 356              	.LBB116:
 357              	.LBB112:
 358              	.LBB113:
 359              	.LBB114:
 223:src/kernel/../../h/kernel/riscv.hpp **** }
 360              		.loc 2 223 5
 223:src/kernel/../../h/kernel/riscv.hpp **** }
 361              		.loc 2 223 51 is_stmt 0
 362 019c 93070020 		li	a5,512
 363              	#APP
 364              	# 223 "src/kernel/../../h/kernel/riscv.hpp" 1
 365              		csrc sie, a5
 366              	# 0 "" 2
 367              	.LVL21:
 368              	#NO_APP
 369              	.L18:
 370              	.LBE114:
 371              	.LBE113:
 372              	.LBE112:
 373              	.LBE116:
 374              	.LBE118:
 582:src/kernel/riscv.cpp **** 
 583:src/kernel/riscv.cpp ****     while(Scheduler::readyHead != nullptr)
 375              		.loc 1 583 5 is_stmt 1
 376              		.loc 1 583 32
 377 01a4 97070000 		la	a5,_ZN9Scheduler9readyHeadE
 377      83B70700 
 378 01ac 83B70700 		ld	a5,0(a5)
 379 01b0 638C0700 		beqz	a5,.L17
 584:src/kernel/riscv.cpp ****         Scheduler::readyHead = Scheduler::readyHead->next;
 380              		.loc 1 584 9
 381              		.loc 1 584 54 is_stmt 0
 382 01b4 03B78704 		ld	a4,72(a5)
 383              		.loc 1 584 30
 384 01b8 97070000 		la	a5,_ZN9Scheduler9readyHeadE
 384      83B70700 
GAS LISTING /tmp/cciGQfDY.s 			page 23


 385 01c0 23B0E700 		sd	a4,0(a5)
 583:src/kernel/riscv.cpp ****         Scheduler::readyHead = Scheduler::readyHead->next;
 386              		.loc 1 583 5
 387 01c4 6FF01FFE 		j	.L18
 388              	.L17:
 585:src/kernel/riscv.cpp **** 
 586:src/kernel/riscv.cpp ****     Scheduler::put(TCB::putcThread);
 389              		.loc 1 586 5 is_stmt 1
 390              		.loc 1 586 19 is_stmt 0
 391 01c8 97070000 		la	a5,_ZN3TCB10putcThreadE
 391      83B70700 
 392 01d0 03B50700 		ld	a0,0(a5)
 393 01d4 97000000 		call	_ZN9Scheduler3putEP3TCB@plt
 393      E7800000 
 394              	.LVL22:
 395              	.L20:
 587:src/kernel/riscv.cpp **** 
 588:src/kernel/riscv.cpp ****     while(ConsoleUtil::outputHead != ConsoleUtil::outputTail)
 396              		.loc 1 588 5 is_stmt 1
 397              		.loc 1 588 35
 398 01dc 97070000 		la	a5,_ZN11ConsoleUtil10outputHeadE
 398      83B70700 
 399 01e4 03B70700 		ld	a4,0(a5)
 400 01e8 97070000 		la	a5,_ZN11ConsoleUtil10outputTailE
 400      83B70700 
 401 01f0 83B70700 		ld	a5,0(a5)
 402 01f4 6308F700 		beq	a4,a5,.L16
 589:src/kernel/riscv.cpp ****         TCB::dispatch();
 403              		.loc 1 589 9
 404              		.loc 1 589 22 is_stmt 0
 405 01f8 97000000 		call	_ZN3TCB8dispatchEv@plt
 405      E7800000 
 406              	.LVL23:
 588:src/kernel/riscv.cpp ****         TCB::dispatch();
 407              		.loc 1 588 5
 408 0200 6FF0DFFD 		j	.L20
 409              	.L16:
 590:src/kernel/riscv.cpp **** }
 410              		.loc 1 590 1
 411 0204 83308100 		ld	ra,8(sp)
 412              		.cfi_restore 1
 413 0208 03340100 		ld	s0,0(sp)
 414              		.cfi_restore 8
 415              		.cfi_def_cfa 2, 16
 416 020c 13010101 		addi	sp,sp,16
 417              		.cfi_def_cfa_offset 0
 418 0210 67800000 		jr	ra
 419              		.cfi_endproc
 420              	.LFE64:
 422              		.align	2
 423              		.globl	_ZN5RiscV16saveA0toSscratchEv
 425              	_ZN5RiscV16saveA0toSscratchEv:
 426              	.LFB65:
 591:src/kernel/riscv.cpp **** 
 592:src/kernel/riscv.cpp **** //write value in a0 to a memory location where a0 is store on stack for currently running thread
 593:src/kernel/riscv.cpp **** void RiscV::saveA0toSscratch()
 594:src/kernel/riscv.cpp **** {
GAS LISTING /tmp/cciGQfDY.s 			page 24


 427              		.loc 1 594 1 is_stmt 1
 428              		.cfi_startproc
 429 0214 130101FF 		addi	sp,sp,-16
 430              		.cfi_def_cfa_offset 16
 431 0218 23348100 		sd	s0,8(sp)
 432              		.cfi_offset 8, -8
 433 021c 13040101 		addi	s0,sp,16
 434              		.cfi_def_cfa 8, 0
 595:src/kernel/riscv.cpp ****     uint64 a1;
 435              		.loc 1 595 5
 596:src/kernel/riscv.cpp ****     asm("mv %[a1], a1": [a1] "=r"(a1));
 436              		.loc 1 596 5
 437              		.loc 1 596 39 is_stmt 0
 438              	#APP
 439              	# 596 "src/kernel/riscv.cpp" 1
 597              	    asm("mv a1, %[a0]" : :  [a0] "r"(TCB::running->a0Location));
 440              		mv a5, a1
 441              	# 0 "" 2
 442              		.loc 1 597 5 is_stmt 1
 443              		.loc 1 597 52 is_stmt 0
 444              	#NO_APP
 445 0224 17070000 		la	a4,_ZN3TCB7runningE
 445      03370700 
 446 022c 03370700 		ld	a4,0(a4)
 447 0230 03378706 		ld	a4,104(a4)
 448              		.loc 1 597 64
 449              	#APP
 450              	# 597 "src/kernel/riscv.cpp" 1
 598              	    asm("sd a0, 80(a1)");
 451              		mv a1, a4
 452              	# 0 "" 2
 453              		.loc 1 598 5 is_stmt 1
 454              		.loc 1 598 25 is_stmt 0
 455              	# 598 "src/kernel/riscv.cpp" 1
 599              	    asm("mv a1,%[a1]"::  [a1]"r"(a1));
 456              		sd a0, 80(a1)
 457              	# 0 "" 2
 458              		.loc 1 599 5 is_stmt 1
 459              		.loc 1 599 38 is_stmt 0
 460              	# 599 "src/kernel/riscv.cpp" 1
 600              	}
 461              		mv a1,a5
 462              	# 0 "" 2
 463              		.loc 1 600 1
 464              	#NO_APP
 465 0240 03348100 		ld	s0,8(sp)
 466              		.cfi_restore 8
 467              		.cfi_def_cfa 2, 16
 468 0244 13010101 		addi	sp,sp,16
 469              		.cfi_def_cfa_offset 0
 470 0248 67800000 		jr	ra
 471              		.cfi_endproc
 472              	.LFE65:
 474              		.align	2
 475              		.globl	_ZN5RiscV22executeMemAllocSyscallEv
 477              	_ZN5RiscV22executeMemAllocSyscallEv:
 478              	.LFB47:
GAS LISTING /tmp/cciGQfDY.s 			page 25


 208:src/kernel/riscv.cpp **** 
 479              		.loc 1 208 37 is_stmt 1
 480              		.cfi_startproc
 481 024c 130101FF 		addi	sp,sp,-16
 482              		.cfi_def_cfa_offset 16
 483 0250 23341100 		sd	ra,8(sp)
 484 0254 23308100 		sd	s0,0(sp)
 485              		.cfi_offset 1, -8
 486              		.cfi_offset 8, -16
 487 0258 13040101 		addi	s0,sp,16
 488              		.cfi_def_cfa 8, 0
 211:src/kernel/riscv.cpp ****     asm("mv %[size], a1" : [size] "=r" (size));
 489              		.loc 1 211 5
 212:src/kernel/riscv.cpp **** 
 490              		.loc 1 212 5
 212:src/kernel/riscv.cpp **** 
 491              		.loc 1 212 47 is_stmt 0
 492              	#APP
 493              	# 212 "src/kernel/riscv.cpp" 1
 494              		mv a0, a1
 495              	# 0 "" 2
 496              	.LVL24:
 215:src/kernel/riscv.cpp **** 
 497              		.loc 1 215 5 is_stmt 1
 215:src/kernel/riscv.cpp **** 
 498              		.loc 1 215 50 is_stmt 0
 499              	#NO_APP
 500 0260 97000000 		call	_ZN15MemoryAllocator7kmallocEm@plt
 500      E7800000 
 501              	.LVL25:
 217:src/kernel/riscv.cpp **** 
 502              		.loc 1 217 5 is_stmt 1
 217:src/kernel/riscv.cpp **** 
 503              		.loc 1 217 48 is_stmt 0
 504              	#APP
 505              	# 217 "src/kernel/riscv.cpp" 1
 219:src/kernel/riscv.cpp **** }
 506              		mv a0, a0
 507              	# 0 "" 2
 508              		.loc 1 219 5 is_stmt 1
 219:src/kernel/riscv.cpp **** }
 509              		.loc 1 219 28 is_stmt 0
 510              	#NO_APP
 511 026c 97000000 		call	_ZN5RiscV16saveA0toSscratchEv
 511      E7800000 
 512              	.LVL26:
 220:src/kernel/riscv.cpp **** 
 513              		.loc 1 220 1
 514 0274 83308100 		ld	ra,8(sp)
 515              		.cfi_restore 1
 516 0278 03340100 		ld	s0,0(sp)
 517              		.cfi_restore 8
 518              		.cfi_def_cfa 2, 16
 519 027c 13010101 		addi	sp,sp,16
 520              		.cfi_def_cfa_offset 0
 521 0280 67800000 		jr	ra
 522              		.cfi_endproc
GAS LISTING /tmp/cciGQfDY.s 			page 26


 523              	.LFE47:
 525              		.align	2
 526              		.globl	_ZN5RiscV21executeMemFreeSyscallEv
 528              	_ZN5RiscV21executeMemFreeSyscallEv:
 529              	.LFB48:
 222:src/kernel/riscv.cpp **** 
 530              		.loc 1 222 37 is_stmt 1
 531              		.cfi_startproc
 532 0284 130101FF 		addi	sp,sp,-16
 533              		.cfi_def_cfa_offset 16
 534 0288 23341100 		sd	ra,8(sp)
 535 028c 23308100 		sd	s0,0(sp)
 536              		.cfi_offset 1, -8
 537              		.cfi_offset 8, -16
 538 0290 13040101 		addi	s0,sp,16
 539              		.cfi_def_cfa 8, 0
 225:src/kernel/riscv.cpp **** 
 540              		.loc 1 225 5
 228:src/kernel/riscv.cpp ****         //call internal allocator and free memory which iaddr points to
 541              		.loc 1 228 5
 542 0294 97070000 		la	a5,_ZN15MemoryAllocator11initializedE
 542      83B70700 
 543 029c 83C70700 		lbu	a5,0(a5)
 544 02a0 63920702 		bnez	a5,.L30
 234:src/kernel/riscv.cpp **** 
 545              		.loc 1 234 16 is_stmt 0
 546 02a4 1305F0FF 		li	a0,-1
 547              	.L27:
 548              	.LVL27:
 237:src/kernel/riscv.cpp **** 
 549              		.loc 1 237 5 is_stmt 1
 237:src/kernel/riscv.cpp **** 
 550              		.loc 1 237 54 is_stmt 0
 551              	#APP
 552              	# 237 "src/kernel/riscv.cpp" 1
 239:src/kernel/riscv.cpp **** }
 553              		mv a0, a0
 554              	# 0 "" 2
 555              		.loc 1 239 5 is_stmt 1
 239:src/kernel/riscv.cpp **** }
 556              		.loc 1 239 28 is_stmt 0
 557              	#NO_APP
 558 02ac 97000000 		call	_ZN5RiscV16saveA0toSscratchEv
 558      E7800000 
 559              	.LVL28:
 240:src/kernel/riscv.cpp **** 
 560              		.loc 1 240 1
 561 02b4 83308100 		ld	ra,8(sp)
 562              		.cfi_remember_state
 563              		.cfi_restore 1
 564 02b8 03340100 		ld	s0,0(sp)
 565              		.cfi_restore 8
 566              		.cfi_def_cfa 2, 16
 567 02bc 13010101 		addi	sp,sp,16
 568              		.cfi_def_cfa_offset 0
 569 02c0 67800000 		jr	ra
 570              	.L30:
GAS LISTING /tmp/cciGQfDY.s 			page 27


 571              		.cfi_restore_state
 230:src/kernel/riscv.cpp ****         status = MemoryAllocator::kfree((void *) iaddr);;
 572              		.loc 1 230 9 is_stmt 1
 230:src/kernel/riscv.cpp ****         status = MemoryAllocator::kfree((void *) iaddr);;
 573              		.loc 1 230 53 is_stmt 0
 574              	#APP
 575              	# 230 "src/kernel/riscv.cpp" 1
 576              		mv a0, a1
 577              	# 0 "" 2
 578              	.LVL29:
 231:src/kernel/riscv.cpp ****     }
 579              		.loc 1 231 9 is_stmt 1
 231:src/kernel/riscv.cpp ****     }
 580              		.loc 1 231 40 is_stmt 0
 581              	#NO_APP
 582 02c8 97000000 		call	_ZN15MemoryAllocator5kfreeEPv@plt
 582      E7800000 
 583              	.LVL30:
 231:src/kernel/riscv.cpp ****     }
 584              		.loc 1 231 57 is_stmt 1
 585 02d0 6FF09FFD 		j	.L27
 586              		.cfi_endproc
 587              	.LFE48:
 589              		.align	2
 590              		.globl	_ZN5RiscV26executeThreadCreateSyscallEv
 592              	_ZN5RiscV26executeThreadCreateSyscallEv:
 593              	.LFB49:
 242:src/kernel/riscv.cpp **** 
 594              		.loc 1 242 41
 595              		.cfi_startproc
 596              		.cfi_personality 0x9b,DW.ref.__gxx_personality_v0
 597              		.cfi_lsda 0x1b,.LLSDA49
 598 02d4 130101FC 		addi	sp,sp,-64
 599              		.cfi_def_cfa_offset 64
 600 02d8 233C1102 		sd	ra,56(sp)
 601 02dc 23388102 		sd	s0,48(sp)
 602 02e0 23349102 		sd	s1,40(sp)
 603 02e4 23302103 		sd	s2,32(sp)
 604 02e8 233C3101 		sd	s3,24(sp)
 605 02ec 23384101 		sd	s4,16(sp)
 606 02f0 23345101 		sd	s5,8(sp)
 607              		.cfi_offset 1, -8
 608              		.cfi_offset 8, -16
 609              		.cfi_offset 9, -24
 610              		.cfi_offset 18, -32
 611              		.cfi_offset 19, -40
 612              		.cfi_offset 20, -48
 613              		.cfi_offset 21, -56
 614 02f4 13040104 		addi	s0,sp,64
 615              		.cfi_def_cfa 8, 0
 245:src/kernel/riscv.cpp **** 
 616              		.loc 1 245 5
 247:src/kernel/riscv.cpp ****     asm("mv %[ihandle], a1" : [ihandle] "=r"(ihandle));
 617              		.loc 1 247 5
 247:src/kernel/riscv.cpp ****     asm("mv %[ihandle], a1" : [ihandle] "=r"(ihandle));
 618              		.loc 1 247 52 is_stmt 0
 619              	#APP
GAS LISTING /tmp/cciGQfDY.s 			page 28


 620              	# 247 "src/kernel/riscv.cpp" 1
 621              		mv s5, a7
 622              	# 0 "" 2
 623              	.LVL31:
 248:src/kernel/riscv.cpp ****     asm("mv %[iroutine], a2" : [iroutine] "=r"(iroutine));
 624              		.loc 1 248 5 is_stmt 1
 248:src/kernel/riscv.cpp ****     asm("mv %[iroutine], a2" : [iroutine] "=r"(iroutine));
 625              		.loc 1 248 55 is_stmt 0
 626              	# 248 "src/kernel/riscv.cpp" 1
 627              		mv s2, a1
 628              	# 0 "" 2
 629              	.LVL32:
 249:src/kernel/riscv.cpp ****     asm("mv %[iargs], a3" : [iargs] "=r"(iargs));
 630              		.loc 1 249 5 is_stmt 1
 249:src/kernel/riscv.cpp ****     asm("mv %[iargs], a3" : [iargs] "=r"(iargs));
 631              		.loc 1 249 58 is_stmt 0
 632              	# 249 "src/kernel/riscv.cpp" 1
 633              		mv s3, a2
 634              	# 0 "" 2
 635              	.LVL33:
 250:src/kernel/riscv.cpp **** 
 636              		.loc 1 250 5 is_stmt 1
 250:src/kernel/riscv.cpp **** 
 637              		.loc 1 250 49 is_stmt 0
 638              	# 250 "src/kernel/riscv.cpp" 1
 639              		mv s4, a3
 640              	# 0 "" 2
 641              	.LVL34:
 253:src/kernel/riscv.cpp **** 
 642              		.loc 1 253 5 is_stmt 1
 253:src/kernel/riscv.cpp **** 
 643              		.loc 1 253 94 is_stmt 0
 644              	#NO_APP
 645 0308 13050007 		li	a0,112
 646              	.LEHB0:
 647 030c 97000000 		call	_ZN3TCBnwEm@plt
 647      E7800000 
 648              	.LVL35:
 649              	.LEHE0:
 650 0314 93040500 		mv	s1,a0
 651 0318 630E0500 		beqz	a0,.L32
 253:src/kernel/riscv.cpp **** 
 652              		.loc 1 253 94 discriminator 1
 653 031c 13072000 		li	a4,2
 654 0320 93860A00 		mv	a3,s5
 655 0324 13060A00 		mv	a2,s4
 656 0328 93850900 		mv	a1,s3
 657              	.LEHB1:
 658 032c 97000000 		call	_ZN3TCBC1EPFvPvES0_Pmm@plt
 658      E7800000 
 659              	.LVL36:
 660              	.LEHE1:
 661              	.L32:
 255:src/kernel/riscv.cpp **** 
 662              		.loc 1 255 5 is_stmt 1 discriminator 6
 257:src/kernel/riscv.cpp ****         status = -1;
 663              		.loc 1 257 5 discriminator 6
GAS LISTING /tmp/cciGQfDY.s 			page 29


 664 0334 63880404 		beqz	s1,.L36
 261:src/kernel/riscv.cpp ****             Scheduler::put(tcb);
 665              		.loc 1 261 9
 261:src/kernel/riscv.cpp ****             Scheduler::put(tcb);
 666              		.loc 1 261 17 is_stmt 0
 667 0338 83B78401 		ld	a5,24(s1)
 261:src/kernel/riscv.cpp ****             Scheduler::put(tcb);
 668              		.loc 1 261 9
 669 033c 63880700 		beqz	a5,.L34
 262:src/kernel/riscv.cpp ****         *((TCB**)ihandle) = tcb;
 670              		.loc 1 262 13 is_stmt 1
 262:src/kernel/riscv.cpp ****         *((TCB**)ihandle) = tcb;
 671              		.loc 1 262 27 is_stmt 0
 672 0340 13850400 		mv	a0,s1
 673              	.LEHB2:
 674 0344 97000000 		call	_ZN9Scheduler3putEP3TCB@plt
 674      E7800000 
 675              	.LVL37:
 676              	.LEHE2:
 677              	.L34:
 263:src/kernel/riscv.cpp ****     }
 678              		.loc 1 263 9 is_stmt 1
 263:src/kernel/riscv.cpp ****     }
 679              		.loc 1 263 27 is_stmt 0
 680 034c 23309900 		sd	s1,0(s2)
 255:src/kernel/riscv.cpp **** 
 681              		.loc 1 255 12
 682 0350 93070000 		li	a5,0
 683              	.L33:
 684              	.LVL38:
 267:src/kernel/riscv.cpp **** 
 685              		.loc 1 267 5 is_stmt 1
 267:src/kernel/riscv.cpp **** 
 686              		.loc 1 267 54 is_stmt 0
 687              	#APP
 688              	# 267 "src/kernel/riscv.cpp" 1
 269:src/kernel/riscv.cpp **** }
 689              		mv a0, a5
 690              	# 0 "" 2
 691              		.loc 1 269 5 is_stmt 1
 269:src/kernel/riscv.cpp **** }
 692              		.loc 1 269 28 is_stmt 0
 693              	#NO_APP
 694 0358 97000000 		call	_ZN5RiscV16saveA0toSscratchEv
 694      E7800000 
 695              	.LVL39:
 270:src/kernel/riscv.cpp **** 
 696              		.loc 1 270 1
 697 0360 83308103 		ld	ra,56(sp)
 698              		.cfi_remember_state
 699              		.cfi_restore 1
 700 0364 03340103 		ld	s0,48(sp)
 701              		.cfi_restore 8
 702              		.cfi_def_cfa 2, 64
 703 0368 83348102 		ld	s1,40(sp)
 704              		.cfi_restore 9
 705              	.LVL40:
GAS LISTING /tmp/cciGQfDY.s 			page 30


 706 036c 03390102 		ld	s2,32(sp)
 707              		.cfi_restore 18
 708              	.LVL41:
 709 0370 83398101 		ld	s3,24(sp)
 710              		.cfi_restore 19
 711              	.LVL42:
 712 0374 033A0101 		ld	s4,16(sp)
 713              		.cfi_restore 20
 714              	.LVL43:
 715 0378 833A8100 		ld	s5,8(sp)
 716              		.cfi_restore 21
 717              	.LVL44:
 718 037c 13010104 		addi	sp,sp,64
 719              		.cfi_def_cfa_offset 0
 720 0380 67800000 		jr	ra
 721              	.LVL45:
 722              	.L36:
 723              		.cfi_restore_state
 258:src/kernel/riscv.cpp ****     }
 724              		.loc 1 258 16
 725 0384 9307F0FF 		li	a5,-1
 726 0388 6FF0DFFC 		j	.L33
 727              	.LVL46:
 728              	.L37:
 729 038c 13090500 		mv	s2,a0
 730              	.LVL47:
 253:src/kernel/riscv.cpp **** 
 731              		.loc 1 253 94
 732 0390 13850400 		mv	a0,s1
 733 0394 97000000 		call	_ZN3TCBdlEPv@plt
 733      E7800000 
 734              	.LVL48:
 735 039c 13050900 		mv	a0,s2
 736              	.LEHB3:
 737 03a0 97000000 		call	_Unwind_Resume@plt
 737      E7800000 
 738              	.LVL49:
 739              	.LEHE3:
 740              		.cfi_endproc
 741              	.LFE49:
 742              		.globl	__gxx_personality_v0
 743              		.section	.gcc_except_table,"a",@progbits
 744              	.LLSDA49:
 745 0000 FF       		.byte	0xff
 746 0001 FF       		.byte	0xff
 747 0002 03       		.byte	0x3
 748 0003 34       		.byte	0x34
 749 0004 00000000 		.4byte	.LEHB0-.LFB49
 750 0008 00000000 		.4byte	.LEHE0-.LEHB0
 751 000c 00000000 		.4byte	0
 752 0010 00       		.byte	0
 753 0011 00000000 		.4byte	.LEHB1-.LFB49
 754 0015 00000000 		.4byte	.LEHE1-.LEHB1
 755 0019 00000000 		.4byte	.L37-.LFB49
 756 001d 00       		.byte	0
 757 001e 00000000 		.4byte	.LEHB2-.LFB49
 758 0022 00000000 		.4byte	.LEHE2-.LEHB2
GAS LISTING /tmp/cciGQfDY.s 			page 31


 759 0026 00000000 		.4byte	0
 760 002a 00       		.byte	0
 761 002b 00000000 		.4byte	.LEHB3-.LFB49
 762 002f 00000000 		.4byte	.LEHE3-.LEHB3
 763 0033 00000000 		.4byte	0
 764 0037 00       		.byte	0
 765              		.text
 767              		.align	2
 768              		.globl	_ZN5RiscV30executeThreadAttachBodySyscallEv
 770              	_ZN5RiscV30executeThreadAttachBodySyscallEv:
 771              	.LFB50:
 272:src/kernel/riscv.cpp **** 
 772              		.loc 1 272 45 is_stmt 1
 773              		.cfi_startproc
 774              		.cfi_personality 0x9b,DW.ref.__gxx_personality_v0
 775              		.cfi_lsda 0x1b,.LLSDA50
 776 03a8 130101FC 		addi	sp,sp,-64
 777              		.cfi_def_cfa_offset 64
 778 03ac 233C1102 		sd	ra,56(sp)
 779 03b0 23388102 		sd	s0,48(sp)
 780 03b4 23349102 		sd	s1,40(sp)
 781 03b8 23302103 		sd	s2,32(sp)
 782 03bc 233C3101 		sd	s3,24(sp)
 783 03c0 23384101 		sd	s4,16(sp)
 784 03c4 23345101 		sd	s5,8(sp)
 785              		.cfi_offset 1, -8
 786              		.cfi_offset 8, -16
 787              		.cfi_offset 9, -24
 788              		.cfi_offset 18, -32
 789              		.cfi_offset 19, -40
 790              		.cfi_offset 20, -48
 791              		.cfi_offset 21, -56
 792 03c8 13040104 		addi	s0,sp,64
 793              		.cfi_def_cfa 8, 0
 275:src/kernel/riscv.cpp **** 
 794              		.loc 1 275 5
 278:src/kernel/riscv.cpp ****     asm("mv %[ihandle], a1" : [ihandle] "=r"(ihandle));
 795              		.loc 1 278 5
 278:src/kernel/riscv.cpp ****     asm("mv %[ihandle], a1" : [ihandle] "=r"(ihandle));
 796              		.loc 1 278 52 is_stmt 0
 797              	#APP
 798              	# 278 "src/kernel/riscv.cpp" 1
 799              		mv s5, a7
 800              	# 0 "" 2
 801              	.LVL50:
 279:src/kernel/riscv.cpp ****     asm("mv %[iroutine], a2" : [iroutine] "=r"(iroutine));
 802              		.loc 1 279 5 is_stmt 1
 279:src/kernel/riscv.cpp ****     asm("mv %[iroutine], a2" : [iroutine] "=r"(iroutine));
 803              		.loc 1 279 55 is_stmt 0
 804              	# 279 "src/kernel/riscv.cpp" 1
 805              		mv s4, a1
 806              	# 0 "" 2
 807              	.LVL51:
 280:src/kernel/riscv.cpp ****     asm("mv %[iargs], a3" : [iargs] "=r"(iargs));
 808              		.loc 1 280 5 is_stmt 1
 280:src/kernel/riscv.cpp ****     asm("mv %[iargs], a3" : [iargs] "=r"(iargs));
 809              		.loc 1 280 58 is_stmt 0
GAS LISTING /tmp/cciGQfDY.s 			page 32


 810              	# 280 "src/kernel/riscv.cpp" 1
 811              		mv s3, a2
 812              	# 0 "" 2
 813              	.LVL52:
 281:src/kernel/riscv.cpp **** 
 814              		.loc 1 281 5 is_stmt 1
 281:src/kernel/riscv.cpp **** 
 815              		.loc 1 281 49 is_stmt 0
 816              	# 281 "src/kernel/riscv.cpp" 1
 817              		mv s2, a3
 818              	# 0 "" 2
 819              	.LVL53:
 283:src/kernel/riscv.cpp **** 
 820              		.loc 1 283 5 is_stmt 1
 283:src/kernel/riscv.cpp **** 
 821              		.loc 1 283 94 is_stmt 0
 822              	#NO_APP
 823 03dc 13050007 		li	a0,112
 824              	.LEHB4:
 825 03e0 97000000 		call	_ZN3TCBnwEm@plt
 825      E7800000 
 826              	.LVL54:
 827              	.LEHE4:
 828 03e8 93040500 		mv	s1,a0
 829 03ec 630E0500 		beqz	a0,.L41
 283:src/kernel/riscv.cpp **** 
 830              		.loc 1 283 94 discriminator 1
 831 03f0 13072000 		li	a4,2
 832 03f4 93860A00 		mv	a3,s5
 833 03f8 13060900 		mv	a2,s2
 834 03fc 93850900 		mv	a1,s3
 835              	.LEHB5:
 836 0400 97000000 		call	_ZN3TCBC1EPFvPvES0_Pmm@plt
 836      E7800000 
 837              	.LVL55:
 838              	.LEHE5:
 839              	.L41:
 285:src/kernel/riscv.cpp **** 
 840              		.loc 1 285 5 is_stmt 1 discriminator 6
 287:src/kernel/riscv.cpp ****         status = -1;
 841              		.loc 1 287 5 discriminator 6
 842 0408 63820404 		beqz	s1,.L44
 291:src/kernel/riscv.cpp ****         tcb->args = (void*)iargs;
 843              		.loc 1 291 9
 291:src/kernel/riscv.cpp ****         tcb->args = (void*)iargs;
 844              		.loc 1 291 19 is_stmt 0
 845 040c 23BC3401 		sd	s3,24(s1)
 292:src/kernel/riscv.cpp ****         *((TCB**)ihandle) = tcb;
 846              		.loc 1 292 9 is_stmt 1
 292:src/kernel/riscv.cpp ****         *((TCB**)ihandle) = tcb;
 847              		.loc 1 292 19 is_stmt 0
 848 0410 23B02403 		sd	s2,32(s1)
 293:src/kernel/riscv.cpp ****     }
 849              		.loc 1 293 9 is_stmt 1
 293:src/kernel/riscv.cpp ****     }
 850              		.loc 1 293 27 is_stmt 0
 851 0414 23309A00 		sd	s1,0(s4)
GAS LISTING /tmp/cciGQfDY.s 			page 33


 285:src/kernel/riscv.cpp **** 
 852              		.loc 1 285 12
 853 0418 93070000 		li	a5,0
 854              	.L42:
 855              	.LVL56:
 296:src/kernel/riscv.cpp **** 
 856              		.loc 1 296 5 is_stmt 1
 296:src/kernel/riscv.cpp **** 
 857              		.loc 1 296 54 is_stmt 0
 858              	#APP
 859              	# 296 "src/kernel/riscv.cpp" 1
 298:src/kernel/riscv.cpp **** }
 860              		mv a0, a5
 861              	# 0 "" 2
 862              		.loc 1 298 5 is_stmt 1
 298:src/kernel/riscv.cpp **** }
 863              		.loc 1 298 28 is_stmt 0
 864              	#NO_APP
 865 0420 97000000 		call	_ZN5RiscV16saveA0toSscratchEv
 865      E7800000 
 866              	.LVL57:
 299:src/kernel/riscv.cpp **** 
 867              		.loc 1 299 1
 868 0428 83308103 		ld	ra,56(sp)
 869              		.cfi_remember_state
 870              		.cfi_restore 1
 871 042c 03340103 		ld	s0,48(sp)
 872              		.cfi_restore 8
 873              		.cfi_def_cfa 2, 64
 874 0430 83348102 		ld	s1,40(sp)
 875              		.cfi_restore 9
 876              	.LVL58:
 877 0434 03390102 		ld	s2,32(sp)
 878              		.cfi_restore 18
 879              	.LVL59:
 880 0438 83398101 		ld	s3,24(sp)
 881              		.cfi_restore 19
 882              	.LVL60:
 883 043c 033A0101 		ld	s4,16(sp)
 884              		.cfi_restore 20
 885              	.LVL61:
 886 0440 833A8100 		ld	s5,8(sp)
 887              		.cfi_restore 21
 888              	.LVL62:
 889 0444 13010104 		addi	sp,sp,64
 890              		.cfi_def_cfa_offset 0
 891 0448 67800000 		jr	ra
 892              	.LVL63:
 893              	.L44:
 894              		.cfi_restore_state
 288:src/kernel/riscv.cpp ****     }
 895              		.loc 1 288 16
 896 044c 9307F0FF 		li	a5,-1
 897 0450 6FF0DFFC 		j	.L42
 898              	.LVL64:
 899              	.L45:
 900 0454 13090500 		mv	s2,a0
GAS LISTING /tmp/cciGQfDY.s 			page 34


 901              	.LVL65:
 283:src/kernel/riscv.cpp **** 
 902              		.loc 1 283 94
 903 0458 13850400 		mv	a0,s1
 904 045c 97000000 		call	_ZN3TCBdlEPv@plt
 904      E7800000 
 905              	.LVL66:
 906 0464 13050900 		mv	a0,s2
 907              	.LEHB6:
 908 0468 97000000 		call	_Unwind_Resume@plt
 908      E7800000 
 909              	.LVL67:
 910              	.LEHE6:
 911              		.cfi_endproc
 912              	.LFE50:
 913              		.section	.gcc_except_table
 914              	.LLSDA50:
 915 0038 FF       		.byte	0xff
 916 0039 FF       		.byte	0xff
 917 003a 03       		.byte	0x3
 918 003b 27       		.byte	0x27
 919 003c 00000000 		.4byte	.LEHB4-.LFB50
 920 0040 00000000 		.4byte	.LEHE4-.LEHB4
 921 0044 00000000 		.4byte	0
 922 0048 00       		.byte	0
 923 0049 00000000 		.4byte	.LEHB5-.LFB50
 924 004d 00000000 		.4byte	.LEHE5-.LEHB5
 925 0051 00000000 		.4byte	.L45-.LFB50
 926 0055 00       		.byte	0
 927 0056 00000000 		.4byte	.LEHB6-.LFB50
 928 005a 00000000 		.4byte	.LEHE6-.LEHB6
 929 005e 00000000 		.4byte	0
 930 0062 00       		.byte	0
 931              		.text
 933              		.align	2
 934              		.globl	_ZN5RiscV25executeThreadStartSyscallEv
 936              	_ZN5RiscV25executeThreadStartSyscallEv:
 937              	.LFB51:
 301:src/kernel/riscv.cpp **** 
 938              		.loc 1 301 40 is_stmt 1
 939              		.cfi_startproc
 940 0470 130101FF 		addi	sp,sp,-16
 941              		.cfi_def_cfa_offset 16
 942 0474 23341100 		sd	ra,8(sp)
 943 0478 23308100 		sd	s0,0(sp)
 944              		.cfi_offset 1, -8
 945              		.cfi_offset 8, -16
 946 047c 13040101 		addi	s0,sp,16
 947              		.cfi_def_cfa 8, 0
 304:src/kernel/riscv.cpp **** 
 948              		.loc 1 304 5
 306:src/kernel/riscv.cpp **** 
 949              		.loc 1 306 5
 306:src/kernel/riscv.cpp **** 
 950              		.loc 1 306 55 is_stmt 0
 951              	#APP
 952              	# 306 "src/kernel/riscv.cpp" 1
GAS LISTING /tmp/cciGQfDY.s 			page 35


 953              		mv a0, a1
 954              	# 0 "" 2
 955              	.LVL68:
 309:src/kernel/riscv.cpp **** 
 956              		.loc 1 309 5 is_stmt 1
 311:src/kernel/riscv.cpp **** 
 957              		.loc 1 311 5
 313:src/kernel/riscv.cpp ****         status = -1;
 958              		.loc 1 313 5
 959              	#NO_APP
 960 0484 63120502 		bnez	a0,.L52
 314:src/kernel/riscv.cpp ****     }
 961              		.loc 1 314 16 is_stmt 0
 962 0488 9307F0FF 		li	a5,-1
 963              	.LVL69:
 964              	.L49:
 323:src/kernel/riscv.cpp **** 
 965              		.loc 1 323 5 is_stmt 1
 323:src/kernel/riscv.cpp **** 
 966              		.loc 1 323 54 is_stmt 0
 967              	#APP
 968              	# 323 "src/kernel/riscv.cpp" 1
 325:src/kernel/riscv.cpp **** }
 969              		mv a0, a5
 970              	# 0 "" 2
 971              		.loc 1 325 5 is_stmt 1
 325:src/kernel/riscv.cpp **** }
 972              		.loc 1 325 28 is_stmt 0
 973              	#NO_APP
 974 0490 97000000 		call	_ZN5RiscV16saveA0toSscratchEv
 974      E7800000 
 975              	.LVL70:
 326:src/kernel/riscv.cpp **** 
 976              		.loc 1 326 1
 977 0498 83308100 		ld	ra,8(sp)
 978              		.cfi_remember_state
 979              		.cfi_restore 1
 980 049c 03340100 		ld	s0,0(sp)
 981              		.cfi_restore 8
 982              		.cfi_def_cfa 2, 16
 983 04a0 13010101 		addi	sp,sp,16
 984              		.cfi_def_cfa_offset 0
 985 04a4 67800000 		jr	ra
 986              	.LVL71:
 987              	.L52:
 988              		.cfi_restore_state
 317:src/kernel/riscv.cpp ****         Scheduler::put(tcb);
 989              		.loc 1 317 9 is_stmt 1
 317:src/kernel/riscv.cpp ****         Scheduler::put(tcb);
 990              		.loc 1 317 21 is_stmt 0
 991 04a8 93071000 		li	a5,1
 992 04ac 2328F500 		sw	a5,16(a0)
 318:src/kernel/riscv.cpp ****         TCB::dispatch();
 993              		.loc 1 318 9 is_stmt 1
 318:src/kernel/riscv.cpp ****         TCB::dispatch();
 994              		.loc 1 318 23 is_stmt 0
 995 04b0 97000000 		call	_ZN9Scheduler3putEP3TCB@plt
GAS LISTING /tmp/cciGQfDY.s 			page 36


 995      E7800000 
 996              	.LVL72:
 319:src/kernel/riscv.cpp ****     }
 997              		.loc 1 319 9 is_stmt 1
 319:src/kernel/riscv.cpp ****     }
 998              		.loc 1 319 22 is_stmt 0
 999 04b8 97000000 		call	_ZN3TCB8dispatchEv@plt
 999      E7800000 
 1000              	.LVL73:
 311:src/kernel/riscv.cpp **** 
 1001              		.loc 1 311 12
 1002 04c0 93070000 		li	a5,0
 1003 04c4 6FF09FFC 		j	.L49
 1004              		.cfi_endproc
 1005              	.LFE51:
 1007              		.align	2
 1008              		.globl	_ZN5RiscV24executeThreadExitSyscallEv
 1010              	_ZN5RiscV24executeThreadExitSyscallEv:
 1011              	.LFB52:
 328:src/kernel/riscv.cpp **** 
 1012              		.loc 1 328 40 is_stmt 1
 1013              		.cfi_startproc
 1014 04c8 130101FF 		addi	sp,sp,-16
 1015              		.cfi_def_cfa_offset 16
 1016 04cc 23341100 		sd	ra,8(sp)
 1017 04d0 23308100 		sd	s0,0(sp)
 1018              		.cfi_offset 1, -8
 1019              		.cfi_offset 8, -16
 1020 04d4 13040101 		addi	s0,sp,16
 1021              		.cfi_def_cfa 8, 0
 331:src/kernel/riscv.cpp **** 
 1022              		.loc 1 331 5
 1023              	.LVL74:
 334:src/kernel/riscv.cpp ****         status = -1;
 1024              		.loc 1 334 5
 1025              	.LBB119:
 334:src/kernel/riscv.cpp ****         status = -1;
 1026              		.loc 1 334 21 is_stmt 0
 1027 04d8 97070000 		la	a5,_ZN3TCB7runningE
 1027      83B70700 
 1028 04e0 83B70700 		ld	a5,0(a5)
 334:src/kernel/riscv.cpp ****         status = -1;
 1029              		.loc 1 334 5
 1030 04e4 638A0702 		beqz	a5,.L55
 1031              	.LBB120:
 338:src/kernel/riscv.cpp ****         old->status = TCB::Status::FINISHED;
 1032              		.loc 1 338 9 is_stmt 1
 1033              	.LVL75:
 339:src/kernel/riscv.cpp ****         TCB::dispatch();
 1034              		.loc 1 339 9
 339:src/kernel/riscv.cpp ****         TCB::dispatch();
 1035              		.loc 1 339 21 is_stmt 0
 1036 04e8 13072000 		li	a4,2
 1037 04ec 23A8E700 		sw	a4,16(a5)
 340:src/kernel/riscv.cpp ****     }
 1038              		.loc 1 340 9 is_stmt 1
 340:src/kernel/riscv.cpp ****     }
GAS LISTING /tmp/cciGQfDY.s 			page 37


 1039              		.loc 1 340 22 is_stmt 0
 1040 04f0 97000000 		call	_ZN3TCB8dispatchEv@plt
 1040      E7800000 
 1041              	.LVL76:
 1042              	.LBE120:
 1043              	.LBE119:
 331:src/kernel/riscv.cpp **** 
 1044              		.loc 1 331 12
 1045 04f8 93070000 		li	a5,0
 1046              	.L54:
 1047              	.LVL77:
 343:src/kernel/riscv.cpp **** 
 1048              		.loc 1 343 5 is_stmt 1
 343:src/kernel/riscv.cpp **** 
 1049              		.loc 1 343 54 is_stmt 0
 1050              	#APP
 1051              	# 343 "src/kernel/riscv.cpp" 1
 345:src/kernel/riscv.cpp **** }
 1052              		mv a0, a5
 1053              	# 0 "" 2
 1054              		.loc 1 345 5 is_stmt 1
 345:src/kernel/riscv.cpp **** }
 1055              		.loc 1 345 28 is_stmt 0
 1056              	#NO_APP
 1057 0500 97000000 		call	_ZN5RiscV16saveA0toSscratchEv
 1057      E7800000 
 1058              	.LVL78:
 346:src/kernel/riscv.cpp **** 
 1059              		.loc 1 346 1
 1060 0508 83308100 		ld	ra,8(sp)
 1061              		.cfi_remember_state
 1062              		.cfi_restore 1
 1063 050c 03340100 		ld	s0,0(sp)
 1064              		.cfi_restore 8
 1065              		.cfi_def_cfa 2, 16
 1066 0510 13010101 		addi	sp,sp,16
 1067              		.cfi_def_cfa_offset 0
 1068 0514 67800000 		jr	ra
 1069              	.LVL79:
 1070              	.L55:
 1071              		.cfi_restore_state
 1072              	.LBB121:
 335:src/kernel/riscv.cpp ****     }
 1073              		.loc 1 335 16
 1074 0518 9307F0FF 		li	a5,-1
 1075 051c 6FF01FFE 		j	.L54
 1076              	.LBE121:
 1077              		.cfi_endproc
 1078              	.LFE52:
 1080              		.align	2
 1081              		.globl	_ZN5RiscV21executeSemOpenSyscallEv
 1083              	_ZN5RiscV21executeSemOpenSyscallEv:
 1084              	.LFB54:
 356:src/kernel/riscv.cpp **** 
 1085              		.loc 1 356 37 is_stmt 1
 1086              		.cfi_startproc
 1087              		.cfi_personality 0x9b,DW.ref.__gxx_personality_v0
GAS LISTING /tmp/cciGQfDY.s 			page 38


 1088              		.cfi_lsda 0x1b,.LLSDA54
 1089 0520 130101FD 		addi	sp,sp,-48
 1090              		.cfi_def_cfa_offset 48
 1091 0524 23341102 		sd	ra,40(sp)
 1092 0528 23308102 		sd	s0,32(sp)
 1093 052c 233C9100 		sd	s1,24(sp)
 1094 0530 23382101 		sd	s2,16(sp)
 1095 0534 23343101 		sd	s3,8(sp)
 1096              		.cfi_offset 1, -8
 1097              		.cfi_offset 8, -16
 1098              		.cfi_offset 9, -24
 1099              		.cfi_offset 18, -32
 1100              		.cfi_offset 19, -40
 1101 0538 13040103 		addi	s0,sp,48
 1102              		.cfi_def_cfa 8, 0
 359:src/kernel/riscv.cpp **** 
 1103              		.loc 1 359 5
 361:src/kernel/riscv.cpp ****     asm("mv %[iinit], a2" : [iinit] "=r"(iinit));
 1104              		.loc 1 361 5
 361:src/kernel/riscv.cpp ****     asm("mv %[iinit], a2" : [iinit] "=r"(iinit));
 1105              		.loc 1 361 55 is_stmt 0
 1106              	#APP
 1107              	# 361 "src/kernel/riscv.cpp" 1
 1108              		mv s2, a1
 1109              	# 0 "" 2
 1110              	.LVL80:
 362:src/kernel/riscv.cpp **** 
 1111              		.loc 1 362 5 is_stmt 1
 362:src/kernel/riscv.cpp **** 
 1112              		.loc 1 362 49 is_stmt 0
 1113              	# 362 "src/kernel/riscv.cpp" 1
 1114              		mv s3, a2
 1115              	# 0 "" 2
 1116              	.LVL81:
 365:src/kernel/riscv.cpp **** 
 1117              		.loc 1 365 5 is_stmt 1
 365:src/kernel/riscv.cpp **** 
 1118              		.loc 1 365 29 is_stmt 0
 1119              	#NO_APP
 1120 0544 13058001 		li	a0,24
 1121              	.LEHB7:
 1122 0548 97000000 		call	_ZN3SCBnwEm@plt
 1122      E7800000 
 1123              	.LVL82:
 1124              	.LEHE7:
 1125 0550 93040500 		mv	s1,a0
 1126 0554 63080500 		beqz	a0,.L58
 365:src/kernel/riscv.cpp **** 
 1127              		.loc 1 365 29 discriminator 1
 1128 0558 93850900 		mv	a1,s3
 1129              	.LEHB8:
 1130 055c 97000000 		call	_ZN3SCBC1Em@plt
 1130      E7800000 
 1131              	.LVL83:
 1132              	.LEHE8:
 1133              	.L58:
 367:src/kernel/riscv.cpp **** 
GAS LISTING /tmp/cciGQfDY.s 			page 39


 1134              		.loc 1 367 5 is_stmt 1 discriminator 6
 369:src/kernel/riscv.cpp ****         status = -1;
 1135              		.loc 1 369 5 discriminator 6
 1136 0564 638A0402 		beqz	s1,.L61
 373:src/kernel/riscv.cpp ****     }
 1137              		.loc 1 373 9
 373:src/kernel/riscv.cpp ****     }
 1138              		.loc 1 373 27 is_stmt 0
 1139 0568 23309900 		sd	s1,0(s2)
 367:src/kernel/riscv.cpp **** 
 1140              		.loc 1 367 12
 1141 056c 93070000 		li	a5,0
 1142              	.L59:
 1143              	.LVL84:
 377:src/kernel/riscv.cpp **** 
 1144              		.loc 1 377 5 is_stmt 1
 377:src/kernel/riscv.cpp **** 
 1145              		.loc 1 377 54 is_stmt 0
 1146              	#APP
 1147              	# 377 "src/kernel/riscv.cpp" 1
 379:src/kernel/riscv.cpp **** 
 1148              		mv a0, a5
 1149              	# 0 "" 2
 1150              		.loc 1 379 5 is_stmt 1
 379:src/kernel/riscv.cpp **** 
 1151              		.loc 1 379 28 is_stmt 0
 1152              	#NO_APP
 1153 0574 97000000 		call	_ZN5RiscV16saveA0toSscratchEv
 1153      E7800000 
 1154              	.LVL85:
 381:src/kernel/riscv.cpp **** 
 1155              		.loc 1 381 1
 1156 057c 83308102 		ld	ra,40(sp)
 1157              		.cfi_remember_state
 1158              		.cfi_restore 1
 1159 0580 03340102 		ld	s0,32(sp)
 1160              		.cfi_restore 8
 1161              		.cfi_def_cfa 2, 48
 1162 0584 83348101 		ld	s1,24(sp)
 1163              		.cfi_restore 9
 1164              	.LVL86:
 1165 0588 03390101 		ld	s2,16(sp)
 1166              		.cfi_restore 18
 1167              	.LVL87:
 1168 058c 83398100 		ld	s3,8(sp)
 1169              		.cfi_restore 19
 1170              	.LVL88:
 1171 0590 13010103 		addi	sp,sp,48
 1172              		.cfi_def_cfa_offset 0
 1173 0594 67800000 		jr	ra
 1174              	.LVL89:
 1175              	.L61:
 1176              		.cfi_restore_state
 370:src/kernel/riscv.cpp ****     }
 1177              		.loc 1 370 16
 1178 0598 9307F0FF 		li	a5,-1
 1179 059c 6FF05FFD 		j	.L59
GAS LISTING /tmp/cciGQfDY.s 			page 40


 1180              	.LVL90:
 1181              	.L62:
 1182 05a0 13090500 		mv	s2,a0
 1183              	.LVL91:
 365:src/kernel/riscv.cpp **** 
 1184              		.loc 1 365 29
 1185 05a4 13850400 		mv	a0,s1
 1186 05a8 97000000 		call	_ZN3SCBdlEPv@plt
 1186      E7800000 
 1187              	.LVL92:
 1188 05b0 13050900 		mv	a0,s2
 1189              	.LEHB9:
 1190 05b4 97000000 		call	_Unwind_Resume@plt
 1190      E7800000 
 1191              	.LVL93:
 1192              	.LEHE9:
 1193              		.cfi_endproc
 1194              	.LFE54:
 1195              		.section	.gcc_except_table
 1196              	.LLSDA54:
 1197 0063 FF       		.byte	0xff
 1198 0064 FF       		.byte	0xff
 1199 0065 03       		.byte	0x3
 1200 0066 27       		.byte	0x27
 1201 0067 00000000 		.4byte	.LEHB7-.LFB54
 1202 006b 00000000 		.4byte	.LEHE7-.LEHB7
 1203 006f 00000000 		.4byte	0
 1204 0073 00       		.byte	0
 1205 0074 00000000 		.4byte	.LEHB8-.LFB54
 1206 0078 00000000 		.4byte	.LEHE8-.LEHB8
 1207 007c 00000000 		.4byte	.L62-.LFB54
 1208 0080 00       		.byte	0
 1209 0081 00000000 		.4byte	.LEHB9-.LFB54
 1210 0085 00000000 		.4byte	.LEHE9-.LEHB9
 1211 0089 00000000 		.4byte	0
 1212 008d 00       		.byte	0
 1213              		.text
 1215              		.align	2
 1216              		.globl	_ZN5RiscV22executeSemCloseSyscallEv
 1218              	_ZN5RiscV22executeSemCloseSyscallEv:
 1219              	.LFB55:
 383:src/kernel/riscv.cpp **** 
 1220              		.loc 1 383 38 is_stmt 1
 1221              		.cfi_startproc
 1222 05bc 130101FE 		addi	sp,sp,-32
 1223              		.cfi_def_cfa_offset 32
 1224 05c0 233C1100 		sd	ra,24(sp)
 1225 05c4 23388100 		sd	s0,16(sp)
 1226 05c8 23349100 		sd	s1,8(sp)
 1227              		.cfi_offset 1, -8
 1228              		.cfi_offset 8, -16
 1229              		.cfi_offset 9, -24
 1230 05cc 13040102 		addi	s0,sp,32
 1231              		.cfi_def_cfa 8, 0
 386:src/kernel/riscv.cpp **** 
 1232              		.loc 1 386 5
 388:src/kernel/riscv.cpp **** 
GAS LISTING /tmp/cciGQfDY.s 			page 41


 1233              		.loc 1 388 5
 388:src/kernel/riscv.cpp **** 
 1234              		.loc 1 388 55 is_stmt 0
 1235              	#APP
 1236              	# 388 "src/kernel/riscv.cpp" 1
 1237              		mv s1, a1
 1238              	# 0 "" 2
 1239              	.LVL94:
 391:src/kernel/riscv.cpp ****     uint64 status = 0;
 1240              		.loc 1 391 5 is_stmt 1
 392:src/kernel/riscv.cpp **** 
 1241              		.loc 1 392 5
 394:src/kernel/riscv.cpp ****         status = -1;
 1242              		.loc 1 394 5
 1243              	#NO_APP
 1244 05d4 63940402 		bnez	s1,.L69
 395:src/kernel/riscv.cpp ****     }
 1245              		.loc 1 395 16 is_stmt 0
 1246 05d8 9307F0FF 		li	a5,-1
 1247              	.L66:
 1248              	.LVL95:
 401:src/kernel/riscv.cpp **** 
 1249              		.loc 1 401 5 is_stmt 1
 401:src/kernel/riscv.cpp **** 
 1250              		.loc 1 401 54 is_stmt 0
 1251              	#APP
 1252              	# 401 "src/kernel/riscv.cpp" 1
 403:src/kernel/riscv.cpp **** }
 1253              		mv a0, a5
 1254              	# 0 "" 2
 1255              		.loc 1 403 5 is_stmt 1
 403:src/kernel/riscv.cpp **** }
 1256              		.loc 1 403 28 is_stmt 0
 1257              	#NO_APP
 1258 05e0 97000000 		call	_ZN5RiscV16saveA0toSscratchEv
 1258      E7800000 
 1259              	.LVL96:
 404:src/kernel/riscv.cpp **** 
 1260              		.loc 1 404 1
 1261 05e8 83308101 		ld	ra,24(sp)
 1262              		.cfi_remember_state
 1263              		.cfi_restore 1
 1264 05ec 03340101 		ld	s0,16(sp)
 1265              		.cfi_restore 8
 1266              		.cfi_def_cfa 2, 32
 1267 05f0 83348100 		ld	s1,8(sp)
 1268              		.cfi_restore 9
 1269              	.LVL97:
 1270 05f4 13010102 		addi	sp,sp,32
 1271              		.cfi_def_cfa_offset 0
 1272 05f8 67800000 		jr	ra
 1273              	.LVL98:
 1274              	.L69:
 1275              		.cfi_restore_state
 398:src/kernel/riscv.cpp **** 
 1276              		.loc 1 398 9 is_stmt 1 discriminator 1
 398:src/kernel/riscv.cpp **** 
GAS LISTING /tmp/cciGQfDY.s 			page 42


 1277              		.loc 1 398 22 is_stmt 0 discriminator 1
 1278 05fc 13850400 		mv	a0,s1
 1279 0600 97000000 		call	_ZN3SCBD1Ev@plt
 1279      E7800000 
 1280              	.LVL99:
 1281 0608 13850400 		mv	a0,s1
 1282 060c 97000000 		call	_ZN3SCBdlEPv@plt
 1282      E7800000 
 1283              	.LVL100:
 392:src/kernel/riscv.cpp **** 
 1284              		.loc 1 392 12 discriminator 1
 1285 0614 93070000 		li	a5,0
 1286 0618 6FF05FFC 		j	.L66
 1287              		.cfi_endproc
 1288              	.LFE55:
 1290              		.align	2
 1291              		.globl	_ZN5RiscV21executeSemWaitSyscallEv
 1293              	_ZN5RiscV21executeSemWaitSyscallEv:
 1294              	.LFB56:
 406:src/kernel/riscv.cpp **** 
 1295              		.loc 1 406 37 is_stmt 1
 1296              		.cfi_startproc
 1297 061c 130101FF 		addi	sp,sp,-16
 1298              		.cfi_def_cfa_offset 16
 1299 0620 23341100 		sd	ra,8(sp)
 1300 0624 23308100 		sd	s0,0(sp)
 1301              		.cfi_offset 1, -8
 1302              		.cfi_offset 8, -16
 1303 0628 13040101 		addi	s0,sp,16
 1304              		.cfi_def_cfa 8, 0
 409:src/kernel/riscv.cpp **** 
 1305              		.loc 1 409 5
 411:src/kernel/riscv.cpp **** 
 1306              		.loc 1 411 5
 411:src/kernel/riscv.cpp **** 
 1307              		.loc 1 411 55 is_stmt 0
 1308              	#APP
 1309              	# 411 "src/kernel/riscv.cpp" 1
 1310              		mv a0, a1
 1311              	# 0 "" 2
 1312              	.LVL101:
 413:src/kernel/riscv.cpp ****     //call wait method on ihandle scb
 1313              		.loc 1 413 5 is_stmt 1
 416:src/kernel/riscv.cpp ****         ((SCB*)ihandle)->wait();
 1314              		.loc 1 416 5
 1315              	#NO_APP
 1316 0630 631C0502 		bnez	a0,.L75
 1317              	.LVL102:
 1318              	.L71:
 421:src/kernel/riscv.cpp ****         status = -1;
 1319              		.loc 1 421 5
 421:src/kernel/riscv.cpp ****         status = -1;
 1320              		.loc 1 421 22 is_stmt 0
 1321 0634 97070000 		la	a5,_ZN3TCB7runningE
 1321      83B70700 
 1322 063c 83B70700 		ld	a5,0(a5)
 1323 0640 83B70706 		ld	a5,96(a5)
GAS LISTING /tmp/cciGQfDY.s 			page 43


 421:src/kernel/riscv.cpp ****         status = -1;
 1324              		.loc 1 421 5
 1325 0644 63880702 		beqz	a5,.L73
 422:src/kernel/riscv.cpp ****     else
 1326              		.loc 1 422 16
 1327 0648 9307F0FF 		li	a5,-1
 1328              	.L72:
 1329              	.LVL103:
 427:src/kernel/riscv.cpp **** 
 1330              		.loc 1 427 5 is_stmt 1
 427:src/kernel/riscv.cpp **** 
 1331              		.loc 1 427 54 is_stmt 0
 1332              	#APP
 1333              	# 427 "src/kernel/riscv.cpp" 1
 429:src/kernel/riscv.cpp **** 
 1334              		mv a0, a5
 1335              	# 0 "" 2
 1336              		.loc 1 429 5 is_stmt 1
 429:src/kernel/riscv.cpp **** 
 1337              		.loc 1 429 28 is_stmt 0
 1338              	#NO_APP
 1339 0650 97000000 		call	_ZN5RiscV16saveA0toSscratchEv
 1339      E7800000 
 1340              	.LVL104:
 431:src/kernel/riscv.cpp **** 
 1341              		.loc 1 431 1
 1342 0658 83308100 		ld	ra,8(sp)
 1343              		.cfi_remember_state
 1344              		.cfi_restore 1
 1345 065c 03340100 		ld	s0,0(sp)
 1346              		.cfi_restore 8
 1347              		.cfi_def_cfa 2, 16
 1348 0660 13010101 		addi	sp,sp,16
 1349              		.cfi_def_cfa_offset 0
 1350 0664 67800000 		jr	ra
 1351              	.LVL105:
 1352              	.L75:
 1353              		.cfi_restore_state
 417:src/kernel/riscv.cpp ****     else
 1354              		.loc 1 417 9 is_stmt 1
 417:src/kernel/riscv.cpp ****     else
 1355              		.loc 1 417 30 is_stmt 0
 1356 0668 97000000 		call	_ZN3SCB4waitEv@plt
 1356      E7800000 
 1357              	.LVL106:
 1358 0670 6FF05FFC 		j	.L71
 1359              	.LVL107:
 1360              	.L73:
 424:src/kernel/riscv.cpp **** 
 1361              		.loc 1 424 16
 1362 0674 93070000 		li	a5,0
 1363 0678 6FF05FFD 		j	.L72
 1364              		.cfi_endproc
 1365              	.LFE56:
 1367              		.align	2
 1368              		.globl	_ZN5RiscV23executeSemSignalSyscallEv
 1370              	_ZN5RiscV23executeSemSignalSyscallEv:
GAS LISTING /tmp/cciGQfDY.s 			page 44


 1371              	.LFB57:
 433:src/kernel/riscv.cpp **** 
 1372              		.loc 1 433 39 is_stmt 1
 1373              		.cfi_startproc
 1374 067c 130101FF 		addi	sp,sp,-16
 1375              		.cfi_def_cfa_offset 16
 1376 0680 23341100 		sd	ra,8(sp)
 1377 0684 23308100 		sd	s0,0(sp)
 1378              		.cfi_offset 1, -8
 1379              		.cfi_offset 8, -16
 1380 0688 13040101 		addi	s0,sp,16
 1381              		.cfi_def_cfa 8, 0
 436:src/kernel/riscv.cpp **** 
 1382              		.loc 1 436 5
 438:src/kernel/riscv.cpp **** 
 1383              		.loc 1 438 5
 438:src/kernel/riscv.cpp **** 
 1384              		.loc 1 438 55 is_stmt 0
 1385              	#APP
 1386              	# 438 "src/kernel/riscv.cpp" 1
 1387              		mv a0, a1
 1388              	# 0 "" 2
 1389              	.LVL108:
 442:src/kernel/riscv.cpp **** 
 1390              		.loc 1 442 5 is_stmt 1
 444:src/kernel/riscv.cpp ****         ((SCB*)ihandle)->signal();
 1391              		.loc 1 444 5
 1392              	#NO_APP
 1393 0690 63120502 		bnez	a0,.L80
 447:src/kernel/riscv.cpp **** 
 1394              		.loc 1 447 16 is_stmt 0
 1395 0694 9307F0FF 		li	a5,-1
 1396              	.LVL109:
 1397              	.L77:
 450:src/kernel/riscv.cpp **** 
 1398              		.loc 1 450 5 is_stmt 1
 450:src/kernel/riscv.cpp **** 
 1399              		.loc 1 450 54 is_stmt 0
 1400              	#APP
 1401              	# 450 "src/kernel/riscv.cpp" 1
 452:src/kernel/riscv.cpp **** }
 1402              		mv a0, a5
 1403              	# 0 "" 2
 1404              		.loc 1 452 5 is_stmt 1
 452:src/kernel/riscv.cpp **** }
 1405              		.loc 1 452 28 is_stmt 0
 1406              	#NO_APP
 1407 069c 97000000 		call	_ZN5RiscV16saveA0toSscratchEv
 1407      E7800000 
 1408              	.LVL110:
 453:src/kernel/riscv.cpp **** 
 1409              		.loc 1 453 1
 1410 06a4 83308100 		ld	ra,8(sp)
 1411              		.cfi_remember_state
 1412              		.cfi_restore 1
 1413 06a8 03340100 		ld	s0,0(sp)
 1414              		.cfi_restore 8
GAS LISTING /tmp/cciGQfDY.s 			page 45


 1415              		.cfi_def_cfa 2, 16
 1416 06ac 13010101 		addi	sp,sp,16
 1417              		.cfi_def_cfa_offset 0
 1418 06b0 67800000 		jr	ra
 1419              	.LVL111:
 1420              	.L80:
 1421              		.cfi_restore_state
 445:src/kernel/riscv.cpp ****     else
 1422              		.loc 1 445 9 is_stmt 1
 445:src/kernel/riscv.cpp ****     else
 1423              		.loc 1 445 32 is_stmt 0
 1424 06b4 97000000 		call	_ZN3SCB6signalEv@plt
 1424      E7800000 
 1425              	.LVL112:
 442:src/kernel/riscv.cpp **** 
 1426              		.loc 1 442 12
 1427 06bc 93070000 		li	a5,0
 1428 06c0 6FF09FFD 		j	.L77
 1429              		.cfi_endproc
 1430              	.LFE57:
 1432              		.align	2
 1433              		.globl	_ZN5RiscV23executeTimeSleepSyscallEv
 1435              	_ZN5RiscV23executeTimeSleepSyscallEv:
 1436              	.LFB58:
 455:src/kernel/riscv.cpp **** 
 1437              		.loc 1 455 39 is_stmt 1
 1438              		.cfi_startproc
 1439 06c4 130101FE 		addi	sp,sp,-32
 1440              		.cfi_def_cfa_offset 32
 1441 06c8 233C1100 		sd	ra,24(sp)
 1442 06cc 23388100 		sd	s0,16(sp)
 1443 06d0 23349100 		sd	s1,8(sp)
 1444              		.cfi_offset 1, -8
 1445              		.cfi_offset 8, -16
 1446              		.cfi_offset 9, -24
 1447 06d4 13040102 		addi	s0,sp,32
 1448              		.cfi_def_cfa 8, 0
 458:src/kernel/riscv.cpp **** 
 1449              		.loc 1 458 5
 460:src/kernel/riscv.cpp **** 
 1450              		.loc 1 460 5
 460:src/kernel/riscv.cpp **** 
 1451              		.loc 1 460 49 is_stmt 0
 1452              	#APP
 1453              	# 460 "src/kernel/riscv.cpp" 1
 464:src/kernel/riscv.cpp ****     tcb->sleepTime = globalTime;
 1454              		mv a4, a1
 1455              	# 0 "" 2
 1456              		.loc 1 464 5 is_stmt 1
 464:src/kernel/riscv.cpp ****     tcb->sleepTime = globalTime;
 1457              		.loc 1 464 10 is_stmt 0
 1458              	#NO_APP
 1459 06dc 97070000 		la	a5,_ZN3TCB7runningE
 1459      83B70700 
 1460 06e4 83B40700 		ld	s1,0(a5)
 1461              	.LVL113:
 465:src/kernel/riscv.cpp ****     tcb->wakeTime = globalTime + itime;
GAS LISTING /tmp/cciGQfDY.s 			page 46


 1462              		.loc 1 465 5 is_stmt 1
 465:src/kernel/riscv.cpp ****     tcb->wakeTime = globalTime + itime;
 1463              		.loc 1 465 20 is_stmt 0
 1464 06e8 97070000 		ld	a5,.LANCHOR0+24
 1464      83B70700 
 1465 06f0 23B8F404 		sd	a5,80(s1)
 466:src/kernel/riscv.cpp **** 
 1466              		.loc 1 466 5 is_stmt 1
 466:src/kernel/riscv.cpp **** 
 1467              		.loc 1 466 32 is_stmt 0
 1468 06f4 B387E700 		add	a5,a5,a4
 466:src/kernel/riscv.cpp **** 
 1469              		.loc 1 466 19
 1470 06f8 23BCF404 		sd	a5,88(s1)
 468:src/kernel/riscv.cpp **** 
 1471              		.loc 1 468 5 is_stmt 1
 468:src/kernel/riscv.cpp **** 
 1472              		.loc 1 468 21 is_stmt 0
 1473 06fc 13850400 		mv	a0,s1
 1474 0700 97000000 		call	_ZN9Scheduler5sleepEP3TCB@plt
 1474      E7800000 
 1475              	.LVL114:
 470:src/kernel/riscv.cpp **** 
 1476              		.loc 1 470 5 is_stmt 1
 470:src/kernel/riscv.cpp **** 
 1477              		.loc 1 470 17 is_stmt 0
 1478 0708 93073000 		li	a5,3
 1479 070c 23A8F400 		sw	a5,16(s1)
 472:src/kernel/riscv.cpp **** 
 1480              		.loc 1 472 5 is_stmt 1
 472:src/kernel/riscv.cpp **** 
 1481              		.loc 1 472 18 is_stmt 0
 1482 0710 97000000 		call	_ZN3TCB8dispatchEv@plt
 1482      E7800000 
 1483              	.LVL115:
 474:src/kernel/riscv.cpp **** 
 1484              		.loc 1 474 5 is_stmt 1
 477:src/kernel/riscv.cpp **** 
 1485              		.loc 1 477 5
 477:src/kernel/riscv.cpp **** 
 1486              		.loc 1 477 54 is_stmt 0
 1487 0718 93070000 		li	a5,0
 1488              	#APP
 1489              	# 477 "src/kernel/riscv.cpp" 1
 479:src/kernel/riscv.cpp **** }
 1490              		mv a0, a5
 1491              	# 0 "" 2
 1492              		.loc 1 479 5 is_stmt 1
 479:src/kernel/riscv.cpp **** }
 1493              		.loc 1 479 28 is_stmt 0
 1494              	#NO_APP
 1495 0720 97000000 		call	_ZN5RiscV16saveA0toSscratchEv
 1495      E7800000 
 1496              	.LVL116:
 480:src/kernel/riscv.cpp **** 
 1497              		.loc 1 480 1
 1498 0728 83308101 		ld	ra,24(sp)
GAS LISTING /tmp/cciGQfDY.s 			page 47


 1499              		.cfi_restore 1
 1500 072c 03340101 		ld	s0,16(sp)
 1501              		.cfi_restore 8
 1502              		.cfi_def_cfa 2, 32
 1503 0730 83348100 		ld	s1,8(sp)
 1504              		.cfi_restore 9
 1505              	.LVL117:
 1506 0734 13010102 		addi	sp,sp,32
 1507              		.cfi_def_cfa_offset 0
 1508 0738 67800000 		jr	ra
 1509              		.cfi_endproc
 1510              	.LFE58:
 1512              		.align	2
 1513              		.globl	_ZN5RiscV18executeGetcSyscallEv
 1515              	_ZN5RiscV18executeGetcSyscallEv:
 1516              	.LFB59:
 482:src/kernel/riscv.cpp **** 
 1517              		.loc 1 482 34 is_stmt 1
 1518              		.cfi_startproc
 1519 073c 130101FE 		addi	sp,sp,-32
 1520              		.cfi_def_cfa_offset 32
 1521 0740 233C1100 		sd	ra,24(sp)
 1522 0744 23388100 		sd	s0,16(sp)
 1523 0748 23349100 		sd	s1,8(sp)
 1524              		.cfi_offset 1, -8
 1525              		.cfi_offset 8, -16
 1526              		.cfi_offset 9, -24
 1527 074c 13040102 		addi	s0,sp,32
 1528              		.cfi_def_cfa 8, 0
 485:src/kernel/riscv.cpp ****         ConsoleUtil::pendingGetc++;
 1529              		.loc 1 485 5
 485:src/kernel/riscv.cpp ****         ConsoleUtil::pendingGetc++;
 1530              		.loc 1 485 8 is_stmt 0
 1531 0750 97070000 		lbu	a5,.LANCHOR0
 1531      83C70700 
 485:src/kernel/riscv.cpp ****         ConsoleUtil::pendingGetc++;
 1532              		.loc 1 485 5
 1533 0758 639C0700 		bnez	a5,.L84
 486:src/kernel/riscv.cpp **** 
 1534              		.loc 1 486 9 is_stmt 1
 486:src/kernel/riscv.cpp **** 
 1535              		.loc 1 486 33 is_stmt 0
 1536 075c 17070000 		la	a4,_ZN11ConsoleUtil11pendingGetcE
 1536      03370700 
 1537 0764 83370700 		ld	a5,0(a4)
 1538 0768 93871700 		addi	a5,a5,1
 1539 076c 2330F700 		sd	a5,0(a4)
 1540              	.L84:
 489:src/kernel/riscv.cpp **** 
 1541              		.loc 1 489 5 is_stmt 1
 489:src/kernel/riscv.cpp **** 
 1542              		.loc 1 489 35 is_stmt 0
 1543 0770 97000000 		call	_ZN11ConsoleUtil8getInputEv@plt
 1543      E7800000 
 1544              	.LVL118:
 1545 0778 93040500 		mv	s1,a0
 1546              	.LVL119:
GAS LISTING /tmp/cciGQfDY.s 			page 48


 492:src/kernel/riscv.cpp ****         ConsoleUtil::putOutput(13);
 1547              		.loc 1 492 5 is_stmt 1
 1548 077c 9307D000 		li	a5,13
 1549 0780 6306F502 		beq	a0,a5,.L88
 497:src/kernel/riscv.cpp ****         ConsoleUtil::putOutput(c);
 1550              		.loc 1 497 10
 1551 0784 9307B001 		li	a5,27
 1552 0788 6310F504 		bne	a0,a5,.L89
 1553              	.LVL120:
 1554              	.L86:
 501:src/kernel/riscv.cpp **** 
 1555              		.loc 1 501 5
 501:src/kernel/riscv.cpp **** 
 1556              		.loc 1 501 39 is_stmt 0
 1557              	#APP
 1558              	# 501 "src/kernel/riscv.cpp" 1
 503:src/kernel/riscv.cpp **** }
 1559              		mv a0, s1
 1560              	# 0 "" 2
 1561              		.loc 1 503 5 is_stmt 1
 503:src/kernel/riscv.cpp **** }
 1562              		.loc 1 503 28 is_stmt 0
 1563              	#NO_APP
 1564 0790 97000000 		call	_ZN5RiscV16saveA0toSscratchEv
 1564      E7800000 
 1565              	.LVL121:
 504:src/kernel/riscv.cpp **** 
 1566              		.loc 1 504 1
 1567 0798 83308101 		ld	ra,24(sp)
 1568              		.cfi_remember_state
 1569              		.cfi_restore 1
 1570 079c 03340101 		ld	s0,16(sp)
 1571              		.cfi_restore 8
 1572              		.cfi_def_cfa 2, 32
 1573 07a0 83348100 		ld	s1,8(sp)
 1574              		.cfi_restore 9
 1575 07a4 13010102 		addi	sp,sp,32
 1576              		.cfi_def_cfa_offset 0
 1577 07a8 67800000 		jr	ra
 1578              	.LVL122:
 1579              	.L88:
 1580              		.cfi_restore_state
 493:src/kernel/riscv.cpp ****         ConsoleUtil::putOutput(10);
 1581              		.loc 1 493 9 is_stmt 1
 493:src/kernel/riscv.cpp ****         ConsoleUtil::putOutput(10);
 1582              		.loc 1 493 31 is_stmt 0
 1583 07ac 1305D000 		li	a0,13
 1584              	.LVL123:
 1585 07b0 97000000 		call	_ZN11ConsoleUtil9putOutputEc@plt
 1585      E7800000 
 1586              	.LVL124:
 494:src/kernel/riscv.cpp ****     }
 1587              		.loc 1 494 9 is_stmt 1
 494:src/kernel/riscv.cpp ****     }
 1588              		.loc 1 494 31 is_stmt 0
 1589 07b8 1305A000 		li	a0,10
 1590 07bc 97000000 		call	_ZN11ConsoleUtil9putOutputEc@plt
GAS LISTING /tmp/cciGQfDY.s 			page 49


 1590      E7800000 
 1591              	.LVL125:
 1592 07c4 6FF09FFC 		j	.L86
 1593              	.LVL126:
 1594              	.L89:
 498:src/kernel/riscv.cpp **** 
 1595              		.loc 1 498 9 is_stmt 1
 498:src/kernel/riscv.cpp **** 
 1596              		.loc 1 498 31 is_stmt 0
 1597 07c8 97000000 		call	_ZN11ConsoleUtil9putOutputEc@plt
 1597      E7800000 
 1598              	.LVL127:
 1599 07d0 6FF0DFFB 		j	.L86
 1600              		.cfi_endproc
 1601              	.LFE59:
 1603              		.align	2
 1604              		.globl	_ZN5RiscV22executePutcUtilSyscallEv
 1606              	_ZN5RiscV22executePutcUtilSyscallEv:
 1607              	.LFB62:
 554:src/kernel/riscv.cpp ****     char c = ConsoleUtil::getOutput();
 1608              		.loc 1 554 38 is_stmt 1
 1609              		.cfi_startproc
 1610 07d4 130101FF 		addi	sp,sp,-16
 1611              		.cfi_def_cfa_offset 16
 1612 07d8 23341100 		sd	ra,8(sp)
 1613 07dc 23308100 		sd	s0,0(sp)
 1614              		.cfi_offset 1, -8
 1615              		.cfi_offset 8, -16
 1616 07e0 13040101 		addi	s0,sp,16
 1617              		.cfi_def_cfa 8, 0
 555:src/kernel/riscv.cpp ****     asm("mv a0, %[c]" : : [c] "r" ((uint64)(c)) );
 1618              		.loc 1 555 5
 555:src/kernel/riscv.cpp ****     asm("mv a0, %[c]" : : [c] "r" ((uint64)(c)) );
 1619              		.loc 1 555 36 is_stmt 0
 1620 07e4 97000000 		call	_ZN11ConsoleUtil9getOutputEv@plt
 1620      E7800000 
 1621              	.LVL128:
 556:src/kernel/riscv.cpp **** 
 1622              		.loc 1 556 5 is_stmt 1
 556:src/kernel/riscv.cpp **** 
 1623              		.loc 1 556 50 is_stmt 0
 1624              	#APP
 1625              	# 556 "src/kernel/riscv.cpp" 1
 558:src/kernel/riscv.cpp **** }
 1626              		mv a0, a0
 1627              	# 0 "" 2
 1628              		.loc 1 558 5 is_stmt 1
 558:src/kernel/riscv.cpp **** }
 1629              		.loc 1 558 28 is_stmt 0
 1630              	#NO_APP
 1631 07f0 97000000 		call	_ZN5RiscV16saveA0toSscratchEv
 1631      E7800000 
 1632              	.LVL129:
 559:src/kernel/riscv.cpp **** 
 1633              		.loc 1 559 1
 1634 07f8 83308100 		ld	ra,8(sp)
 1635              		.cfi_restore 1
GAS LISTING /tmp/cciGQfDY.s 			page 50


 1636 07fc 03340100 		ld	s0,0(sp)
 1637              		.cfi_restore 8
 1638              		.cfi_def_cfa 2, 16
 1639 0800 13010101 		addi	sp,sp,16
 1640              		.cfi_def_cfa_offset 0
 1641 0804 67800000 		jr	ra
 1642              		.cfi_endproc
 1643              	.LFE62:
 1645              		.align	2
 1646              		.globl	_ZN5RiscV24executeThreadFreeSyscallEv
 1648              	_ZN5RiscV24executeThreadFreeSyscallEv:
 1649              	.LFB66:
 601:src/kernel/riscv.cpp **** 
 602:src/kernel/riscv.cpp **** //syscall to free the space that is allocated for thread
 603:src/kernel/riscv.cpp **** void RiscV::executeThreadFreeSyscall() {
 1650              		.loc 1 603 40 is_stmt 1
 1651              		.cfi_startproc
 1652 0808 130101FE 		addi	sp,sp,-32
 1653              		.cfi_def_cfa_offset 32
 1654 080c 233C1100 		sd	ra,24(sp)
 1655 0810 23388100 		sd	s0,16(sp)
 1656 0814 23349100 		sd	s1,8(sp)
 1657              		.cfi_offset 1, -8
 1658              		.cfi_offset 8, -16
 1659              		.cfi_offset 9, -24
 1660 0818 13040102 		addi	s0,sp,32
 1661              		.cfi_def_cfa 8, 0
 604:src/kernel/riscv.cpp ****     uint64 iaddr, status;
 1662              		.loc 1 604 5
 605:src/kernel/riscv.cpp **** 
 606:src/kernel/riscv.cpp ****     asm("mv %[iaddr], a1" : [iaddr] "=r"(iaddr));
 1663              		.loc 1 606 5
 1664              		.loc 1 606 49 is_stmt 0
 1665              	#APP
 1666              	# 606 "src/kernel/riscv.cpp" 1
 607              	
 1667              		mv s1, a1
 1668              	# 0 "" 2
 1669              	.LVL130:
 608:src/kernel/riscv.cpp ****     TCB *thr = (TCB*)iaddr;
 1670              		.loc 1 608 5 is_stmt 1
 609:src/kernel/riscv.cpp **** 
 610:src/kernel/riscv.cpp ****     if(thr == nullptr)
 1671              		.loc 1 610 5
 1672              	#NO_APP
 1673 0820 63940402 		bnez	s1,.L95
 1674              	.L93:
 1675              	.LVL131:
 611:src/kernel/riscv.cpp ****         status = -1;
 612:src/kernel/riscv.cpp ****     else {
 613:src/kernel/riscv.cpp ****         kfree(thr->stack);
 614:src/kernel/riscv.cpp ****         delete thr;
 615:src/kernel/riscv.cpp ****     }
 616:src/kernel/riscv.cpp **** 
 617:src/kernel/riscv.cpp ****     //return status
 618:src/kernel/riscv.cpp ****     asm("mv a0, %[status]" : : [status] "r" (status));
 1676              		.loc 1 618 5
GAS LISTING /tmp/cciGQfDY.s 			page 51


 1677              		.loc 1 618 54 is_stmt 0
 1678 0824 9307F0FF 		li	a5,-1
 1679              	#APP
 1680              	# 618 "src/kernel/riscv.cpp" 1
 619              	
 620:src/kernel/riscv.cpp ****     RiscV::saveA0toSscratch();
 1681              		mv a0, a5
 1682              	# 0 "" 2
 1683              		.loc 1 620 5 is_stmt 1
 1684              		.loc 1 620 28 is_stmt 0
 1685              	#NO_APP
 1686 082c 97000000 		call	_ZN5RiscV16saveA0toSscratchEv
 1686      E7800000 
 1687              	.LVL132:
 621:src/kernel/riscv.cpp **** }
 1688              		.loc 1 621 1
 1689 0834 83308101 		ld	ra,24(sp)
 1690              		.cfi_remember_state
 1691              		.cfi_restore 1
 1692 0838 03340101 		ld	s0,16(sp)
 1693              		.cfi_restore 8
 1694              		.cfi_def_cfa 2, 32
 1695 083c 83348100 		ld	s1,8(sp)
 1696              		.cfi_restore 9
 1697              	.LVL133:
 1698 0840 13010102 		addi	sp,sp,32
 1699              		.cfi_def_cfa_offset 0
 1700 0844 67800000 		jr	ra
 1701              	.LVL134:
 1702              	.L95:
 1703              		.cfi_restore_state
 613:src/kernel/riscv.cpp ****         delete thr;
 1704              		.loc 1 613 9 is_stmt 1
 613:src/kernel/riscv.cpp ****         delete thr;
 1705              		.loc 1 613 14 is_stmt 0
 1706 0848 03B58402 		ld	a0,40(s1)
 1707 084c 97000000 		call	_Z5kfreePKv@plt
 1707      E7800000 
 1708              	.LVL135:
 614:src/kernel/riscv.cpp ****     }
 1709              		.loc 1 614 9 is_stmt 1
 614:src/kernel/riscv.cpp ****     }
 1710              		.loc 1 614 16 is_stmt 0
 1711 0854 13850400 		mv	a0,s1
 1712 0858 97000000 		call	_ZN3TCBD1Ev@plt
 1712      E7800000 
 1713              	.LVL136:
 1714 0860 13850400 		mv	a0,s1
 1715 0864 97000000 		call	_ZN3TCBdlEPv@plt
 1715      E7800000 
 1716              	.LVL137:
 1717 086c 6FF09FFB 		j	.L93
 1718              		.cfi_endproc
 1719              	.LFE66:
 1721              		.align	2
 1722              		.globl	_ZN5RiscV27executeSemaphoreFreeSyscallEv
 1724              	_ZN5RiscV27executeSemaphoreFreeSyscallEv:
GAS LISTING /tmp/cciGQfDY.s 			page 52


 1725              	.LFB67:
 622:src/kernel/riscv.cpp **** 
 623:src/kernel/riscv.cpp **** //syscall to free the space that is allocated for semaphore
 624:src/kernel/riscv.cpp **** void RiscV::executeSemaphoreFreeSyscall() {
 1726              		.loc 1 624 43 is_stmt 1
 1727              		.cfi_startproc
 1728 0870 130101FE 		addi	sp,sp,-32
 1729              		.cfi_def_cfa_offset 32
 1730 0874 233C1100 		sd	ra,24(sp)
 1731 0878 23388100 		sd	s0,16(sp)
 1732 087c 23349100 		sd	s1,8(sp)
 1733              		.cfi_offset 1, -8
 1734              		.cfi_offset 8, -16
 1735              		.cfi_offset 9, -24
 1736 0880 13040102 		addi	s0,sp,32
 1737              		.cfi_def_cfa 8, 0
 625:src/kernel/riscv.cpp ****     uint64 iaddr, status;
 1738              		.loc 1 625 5
 626:src/kernel/riscv.cpp **** 
 627:src/kernel/riscv.cpp ****     //call internal allocator and free memory which iaddr points to
 628:src/kernel/riscv.cpp ****     asm("mv %[iaddr], a1" : [iaddr] "=r"(iaddr));
 1739              		.loc 1 628 5
 1740              		.loc 1 628 49 is_stmt 0
 1741              	#APP
 1742              	# 628 "src/kernel/riscv.cpp" 1
 629              	
 1743              		mv s1, a1
 1744              	# 0 "" 2
 1745              	.LVL138:
 630:src/kernel/riscv.cpp ****     SCB *scb = (SCB*)iaddr;
 1746              		.loc 1 630 5 is_stmt 1
 631:src/kernel/riscv.cpp **** 
 632:src/kernel/riscv.cpp ****     if(scb == nullptr){
 1747              		.loc 1 632 5
 1748              	#NO_APP
 1749 0888 63940402 		bnez	s1,.L99
 1750              	.L97:
 1751              	.LVL139:
 633:src/kernel/riscv.cpp ****         status = -1;
 634:src/kernel/riscv.cpp ****     }
 635:src/kernel/riscv.cpp ****     else
 636:src/kernel/riscv.cpp ****         delete scb;
 637:src/kernel/riscv.cpp **** 
 638:src/kernel/riscv.cpp ****     //return status
 639:src/kernel/riscv.cpp ****     asm("mv a0, %[status]" : : [status] "r" (status));
 1752              		.loc 1 639 5
 1753              		.loc 1 639 54 is_stmt 0
 1754 088c 9307F0FF 		li	a5,-1
 1755              	#APP
 1756              	# 639 "src/kernel/riscv.cpp" 1
 640              	
 641:src/kernel/riscv.cpp ****     RiscV::saveA0toSscratch();
 1757              		mv a0, a5
 1758              	# 0 "" 2
 1759              		.loc 1 641 5 is_stmt 1
 1760              		.loc 1 641 28 is_stmt 0
 1761              	#NO_APP
GAS LISTING /tmp/cciGQfDY.s 			page 53


 1762 0894 97000000 		call	_ZN5RiscV16saveA0toSscratchEv
 1762      E7800000 
 1763              	.LVL140:
 642:src/kernel/riscv.cpp **** }
 1764              		.loc 1 642 1
 1765 089c 83308101 		ld	ra,24(sp)
 1766              		.cfi_remember_state
 1767              		.cfi_restore 1
 1768 08a0 03340101 		ld	s0,16(sp)
 1769              		.cfi_restore 8
 1770              		.cfi_def_cfa 2, 32
 1771 08a4 83348100 		ld	s1,8(sp)
 1772              		.cfi_restore 9
 1773              	.LVL141:
 1774 08a8 13010102 		addi	sp,sp,32
 1775              		.cfi_def_cfa_offset 0
 1776 08ac 67800000 		jr	ra
 1777              	.LVL142:
 1778              	.L99:
 1779              		.cfi_restore_state
 636:src/kernel/riscv.cpp **** 
 1780              		.loc 1 636 9 is_stmt 1 discriminator 1
 636:src/kernel/riscv.cpp **** 
 1781              		.loc 1 636 16 is_stmt 0 discriminator 1
 1782 08b0 13850400 		mv	a0,s1
 1783 08b4 97000000 		call	_ZN3SCBD1Ev@plt
 1783      E7800000 
 1784              	.LVL143:
 1785 08bc 13850400 		mv	a0,s1
 1786 08c0 97000000 		call	_ZN3SCBdlEPv@plt
 1786      E7800000 
 1787              	.LVL144:
 1788 08c8 6FF05FFC 		j	.L97
 1789              		.cfi_endproc
 1790              	.LFE67:
 1792              		.align	2
 1793              		.globl	_ZN5RiscV18executeForkSyscallEv
 1795              	_ZN5RiscV18executeForkSyscallEv:
 1796              	.LFB68:
 643:src/kernel/riscv.cpp **** 
 644:src/kernel/riscv.cpp **** //fork syscall
 645:src/kernel/riscv.cpp **** void RiscV::executeForkSyscall() {
 1797              		.loc 1 645 34 is_stmt 1
 1798              		.cfi_startproc
 1799              		.cfi_personality 0x9b,DW.ref.__gxx_personality_v0
 1800              		.cfi_lsda 0x1b,.LLSDA68
 1801 08cc 130101FE 		addi	sp,sp,-32
 1802              		.cfi_def_cfa_offset 32
 1803 08d0 233C1100 		sd	ra,24(sp)
 1804 08d4 23388100 		sd	s0,16(sp)
 1805 08d8 23349100 		sd	s1,8(sp)
 1806 08dc 23302101 		sd	s2,0(sp)
 1807              		.cfi_offset 1, -8
 1808              		.cfi_offset 8, -16
 1809              		.cfi_offset 9, -24
 1810              		.cfi_offset 18, -32
 1811 08e0 13040102 		addi	s0,sp,32
GAS LISTING /tmp/cciGQfDY.s 			page 54


 1812              		.cfi_def_cfa 8, 0
 646:src/kernel/riscv.cpp **** 
 647:src/kernel/riscv.cpp ****     //create new stack and copy stack from currently running stack into the new one
 648:src/kernel/riscv.cpp ****     uint64 *stack = (uint64*)MemoryAllocator::kmalloc((DEFAULT_STACK_SIZE+MEM_BLOCK_SIZE-1)/MEM_BLO
 1813              		.loc 1 648 5
 1814              		.loc 1 648 54 is_stmt 0
 1815 08e4 13050004 		li	a0,64
 1816              	.LEHB10:
 1817 08e8 97000000 		call	_ZN15MemoryAllocator7kmallocEm@plt
 1817      E7800000 
 1818              	.LVL145:
 1819 08f0 13090500 		mv	s2,a0
 1820              	.LVL146:
 649:src/kernel/riscv.cpp **** 
 650:src/kernel/riscv.cpp ****     MemoryAllocator::memcpy((void*)TCB::running->stack,(void*)stack,DEFAULT_STACK_SIZE);
 1821              		.loc 1 650 5 is_stmt 1
 1822              		.loc 1 650 28 is_stmt 0
 1823 08f4 97070000 		la	a5,_ZN3TCB7runningE
 1823      83B70700 
 1824 08fc 83B70700 		ld	a5,0(a5)
 1825 0900 37160000 		li	a2,4096
 1826 0904 93050500 		mv	a1,a0
 1827 0908 03B58702 		ld	a0,40(a5)
 1828              	.LVL147:
 1829 090c 97000000 		call	_ZN15MemoryAllocator6memcpyEPvS0_m@plt
 1829      E7800000 
 1830              	.LVL148:
 651:src/kernel/riscv.cpp **** 
 652:src/kernel/riscv.cpp ****     //create new TCB for new thread
 653:src/kernel/riscv.cpp ****     TCB *forked = new TCB(nullptr, nullptr, stack, DEFAULT_TIME_SLICE);
 1831              		.loc 1 653 5 is_stmt 1
 1832              		.loc 1 653 70 is_stmt 0
 1833 0914 13050007 		li	a0,112
 1834 0918 97000000 		call	_ZN3TCBnwEm@plt
 1834      E7800000 
 1835              	.LVL149:
 1836              	.LEHE10:
 1837 0920 93040500 		mv	s1,a0
 1838 0924 630E0500 		beqz	a0,.L101
 1839              		.loc 1 653 70 discriminator 1
 1840 0928 13072000 		li	a4,2
 1841 092c 93060900 		mv	a3,s2
 1842 0930 13060000 		li	a2,0
 1843 0934 93050000 		li	a1,0
 1844              	.LEHB11:
 1845 0938 97000000 		call	_ZN3TCBC1EPFvPvES0_Pmm@plt
 1845      E7800000 
 1846              	.LVL150:
 1847              	.LEHE11:
 1848              	.L101:
 654:src/kernel/riscv.cpp **** 
 655:src/kernel/riscv.cpp ****     uint64 status = 0;
 1849              		.loc 1 655 5 is_stmt 1 discriminator 6
 656:src/kernel/riscv.cpp **** 
 657:src/kernel/riscv.cpp ****     if(forked) {
 1850              		.loc 1 657 5 discriminator 6
 1851              	.LBB122:
GAS LISTING /tmp/cciGQfDY.s 			page 55


 1852 0940 638E040A 		beqz	s1,.L104
 1853              	.LBB123:
 658:src/kernel/riscv.cpp **** 
 659:src/kernel/riscv.cpp ****         //set return address where forked thread should return
 660:src/kernel/riscv.cpp ****         forked->context.ra = TCB::currentPC;
 1854              		.loc 1 660 9
 1855              		.loc 1 660 28 is_stmt 0
 1856 0944 97070000 		la	a5,_ZN3TCB9currentPCE
 1856      83B70700 
 1857 094c 83B70700 		ld	a5,0(a5)
 1858 0950 23B4F400 		sd	a5,8(s1)
 661:src/kernel/riscv.cpp **** 
 662:src/kernel/riscv.cpp ****         //set SP value where forked thread's stack starts
 663:src/kernel/riscv.cpp ****         forked->context.sp = (uint64)((char*)stack + TCB::currentSP - (char*)TCB::running->stack);
 1859              		.loc 1 663 9 is_stmt 1
 1860              		.loc 1 663 59 is_stmt 0
 1861 0954 97070000 		la	a5,_ZN3TCB9currentSPE
 1861      83B70700 
 1862 095c 83B70700 		ld	a5,0(a5)
 1863              		.loc 1 663 52
 1864 0960 B307F900 		add	a5,s2,a5
 1865              		.loc 1 663 71
 1866 0964 17070000 		la	a4,_ZN3TCB7runningE
 1866      03370700 
 1867 096c 83360700 		ld	a3,0(a4)
 1868              		.loc 1 663 92
 1869 0970 83B68602 		ld	a3,40(a3)
 1870              		.loc 1 663 69
 1871 0974 B387D740 		sub	a5,a5,a3
 1872              		.loc 1 663 28
 1873 0978 23B0F400 		sd	a5,0(s1)
 664:src/kernel/riscv.cpp **** 
 665:src/kernel/riscv.cpp ****         //get memory location of where registers are stored from previous context switch
 666:src/kernel/riscv.cpp ****         uint64 registerStartSP = (uint64)((char*)TCB::running->a0Location - (char*)TCB::running->st
 1874              		.loc 1 666 9 is_stmt 1
 1875              		.loc 1 666 64 is_stmt 0
 1876 097c 83370700 		ld	a5,0(a4)
 1877 0980 03B58706 		ld	a0,104(a5)
 1878              		.loc 1 666 98
 1879 0984 83B78702 		ld	a5,40(a5)
 1880              		.loc 1 666 75
 1881 0988 3305F540 		sub	a0,a0,a5
 1882              		.loc 1 666 104
 1883 098c 3309A900 		add	s2,s2,a0
 1884              	.LVL151:
 667:src/kernel/riscv.cpp **** 
 668:src/kernel/riscv.cpp ****         forked->a0Location = registerStartSP;
 1885              		.loc 1 668 9 is_stmt 1
 1886              		.loc 1 668 28 is_stmt 0
 1887 0990 23B42407 		sd	s2,104(s1)
 669:src/kernel/riscv.cpp **** 
 670:src/kernel/riscv.cpp ****         uint64 a1,a0;
 1888              		.loc 1 670 9 is_stmt 1
 671:src/kernel/riscv.cpp **** 
 672:src/kernel/riscv.cpp ****         //write address of stored registers in SP of forked thread so that it can return regularly
 673:src/kernel/riscv.cpp ****         asm("mv %[a1], a1": [a1] "=r"(a1));
 1889              		.loc 1 673 9
GAS LISTING /tmp/cciGQfDY.s 			page 56


 1890              		.loc 1 673 43 is_stmt 0
 1891              	#APP
 1892              	# 673 "src/kernel/riscv.cpp" 1
 674              	
 675:src/kernel/riscv.cpp ****         asm("mv %[a0], a0": [a0] "=r"(a0));
 1893              		mv a3, a1
 1894              	# 0 "" 2
 1895              		.loc 1 675 9 is_stmt 1
 1896              		.loc 1 675 43 is_stmt 0
 1897              	# 675 "src/kernel/riscv.cpp" 1
 676              	
 677:src/kernel/riscv.cpp ****         asm("mv a0,%[a0]"::  [a0]"r"(registerStartSP));
 1898              		mv a5, a0
 1899              	# 0 "" 2
 1900              		.loc 1 677 9 is_stmt 1
 1901              		.loc 1 677 55 is_stmt 0
 1902              	# 677 "src/kernel/riscv.cpp" 1
 678              	
 679:src/kernel/riscv.cpp ****         asm("mv a1, %[a0]" : :  [a0] "r"(registerStartSP));
 1903              		mv a0,s2
 1904              	# 0 "" 2
 1905              		.loc 1 679 9 is_stmt 1
 1906              		.loc 1 679 59 is_stmt 0
 1907              	# 679 "src/kernel/riscv.cpp" 1
 680              	
 681:src/kernel/riscv.cpp ****         asm("sd a0, 16(a1)");
 1908              		mv a1, s2
 1909              	# 0 "" 2
 1910              		.loc 1 681 9 is_stmt 1
 1911              		.loc 1 681 29 is_stmt 0
 1912              	# 681 "src/kernel/riscv.cpp" 1
 682              	
 683:src/kernel/riscv.cpp ****         //write 0 in a0 register of forked thread because fork should return 0 in context of child,
 684:src/kernel/riscv.cpp ****         asm("li a0, 0");
 1913              		sd a0, 16(a1)
 1914              	# 0 "" 2
 1915              		.loc 1 684 9 is_stmt 1
 1916              		.loc 1 684 24 is_stmt 0
 1917              	# 684 "src/kernel/riscv.cpp" 1
 685              	
 686:src/kernel/riscv.cpp ****         asm("sd a0, 80(a1)");
 1918              		li a0, 0
 1919              	# 0 "" 2
 1920              		.loc 1 686 9 is_stmt 1
 1921              		.loc 1 686 29 is_stmt 0
 1922              	# 686 "src/kernel/riscv.cpp" 1
 687              	
 688:src/kernel/riscv.cpp ****         asm("mv a1,%[a1]"::  [a1]"r"(a1));
 1923              		sd a0, 80(a1)
 1924              	# 0 "" 2
 1925              		.loc 1 688 9 is_stmt 1
 1926              		.loc 1 688 42 is_stmt 0
 1927              	# 688 "src/kernel/riscv.cpp" 1
 689              	
 690:src/kernel/riscv.cpp ****         asm("mv a0,%[a0]"::  [a0]"r"(a0));
 1928              		mv a1,a3
 1929              	# 0 "" 2
GAS LISTING /tmp/cciGQfDY.s 			page 57


 1930              		.loc 1 690 9 is_stmt 1
 1931              		.loc 1 690 42 is_stmt 0
 1932              	# 690 "src/kernel/riscv.cpp" 1
 691              	
 692:src/kernel/riscv.cpp ****         forked->sepc = TCB::running->sepc;
 1933              		mv a0,a5
 1934              	# 0 "" 2
 1935              		.loc 1 692 9 is_stmt 1
 1936              		.loc 1 692 38 is_stmt 0
 1937              	#NO_APP
 1938 09b8 83370700 		ld	a5,0(a4)
 1939 09bc 03B78703 		ld	a4,56(a5)
 1940              		.loc 1 692 22
 1941 09c0 23BCE402 		sd	a4,56(s1)
 693:src/kernel/riscv.cpp **** 
 694:src/kernel/riscv.cpp ****         forked->sstatus = TCB::running->sstatus;
 1942              		.loc 1 694 9 is_stmt 1
 1943              		.loc 1 694 41 is_stmt 0
 1944 09c4 83B70704 		ld	a5,64(a5)
 1945              		.loc 1 694 25
 1946 09c8 23B0F404 		sd	a5,64(s1)
 695:src/kernel/riscv.cpp **** 
 696:src/kernel/riscv.cpp ****         //put forked in scheduler
 697:src/kernel/riscv.cpp ****         Scheduler::put(forked);
 1947              		.loc 1 697 9 is_stmt 1
 1948              		.loc 1 697 23 is_stmt 0
 1949 09cc 13850400 		mv	a0,s1
 1950              	.LEHB12:
 1951 09d0 97000000 		call	_ZN9Scheduler3putEP3TCB@plt
 1951      E7800000 
 1952              	.LVL152:
 1953              	.LEHE12:
 698:src/kernel/riscv.cpp **** 
 699:src/kernel/riscv.cpp ****         //return address of forked as thread ID
 700:src/kernel/riscv.cpp ****         status = (uint64)forked;
 1954              		.loc 1 700 9 is_stmt 1
 1955              	.L102:
 1956              	.LBE123:
 1957              	.LBE122:
 701:src/kernel/riscv.cpp ****     }else
 702:src/kernel/riscv.cpp ****         status = -1;
 703:src/kernel/riscv.cpp **** 
 704:src/kernel/riscv.cpp ****     asm("mv a0, %[status]" : : [status] "r" (status));
 1958              		.loc 1 704 5
 1959              		.loc 1 704 54 is_stmt 0
 1960              	#APP
 1961              	# 704 "src/kernel/riscv.cpp" 1
 705              	
 706:src/kernel/riscv.cpp ****     RiscV::saveA0toSscratch();
 1962              		mv a0, s1
 1963              	# 0 "" 2
 1964              		.loc 1 706 5 is_stmt 1
 1965              		.loc 1 706 28 is_stmt 0
 1966              	#NO_APP
 1967 09dc 97000000 		call	_ZN5RiscV16saveA0toSscratchEv
 1967      E7800000 
 1968              	.LVL153:
GAS LISTING /tmp/cciGQfDY.s 			page 58


 707:src/kernel/riscv.cpp **** 
 708:src/kernel/riscv.cpp **** }
 1969              		.loc 1 708 1
 1970 09e4 83308101 		ld	ra,24(sp)
 1971              		.cfi_remember_state
 1972              		.cfi_restore 1
 1973 09e8 03340101 		ld	s0,16(sp)
 1974              		.cfi_restore 8
 1975              		.cfi_def_cfa 2, 32
 1976 09ec 83348100 		ld	s1,8(sp)
 1977              		.cfi_restore 9
 1978              	.LVL154:
 1979 09f0 03390100 		ld	s2,0(sp)
 1980              		.cfi_restore 18
 1981 09f4 13010102 		addi	sp,sp,32
 1982              		.cfi_def_cfa_offset 0
 1983 09f8 67800000 		jr	ra
 1984              	.LVL155:
 1985              	.L104:
 1986              		.cfi_restore_state
 1987              	.LBB124:
 702:src/kernel/riscv.cpp **** 
 1988              		.loc 1 702 16
 1989 09fc 9304F0FF 		li	s1,-1
 1990              	.LVL156:
 1991 0a00 6FF09FFD 		j	.L102
 1992              	.LVL157:
 1993              	.L105:
 1994 0a04 13090500 		mv	s2,a0
 1995              	.LVL158:
 1996              	.LBE124:
 653:src/kernel/riscv.cpp **** 
 1997              		.loc 1 653 70
 1998 0a08 13850400 		mv	a0,s1
 1999 0a0c 97000000 		call	_ZN3TCBdlEPv@plt
 1999      E7800000 
 2000              	.LVL159:
 2001 0a14 13050900 		mv	a0,s2
 2002              	.LEHB13:
 2003 0a18 97000000 		call	_Unwind_Resume@plt
 2003      E7800000 
 2004              	.LVL160:
 2005              	.LEHE13:
 2006              		.cfi_endproc
 2007              	.LFE68:
 2008              		.section	.gcc_except_table
 2009              	.LLSDA68:
 2010 008e FF       		.byte	0xff
 2011 008f FF       		.byte	0xff
 2012 0090 03       		.byte	0x3
 2013 0091 34       		.byte	0x34
 2014 0092 00000000 		.4byte	.LEHB10-.LFB68
 2015 0096 00000000 		.4byte	.LEHE10-.LEHB10
 2016 009a 00000000 		.4byte	0
 2017 009e 00       		.byte	0
 2018 009f 00000000 		.4byte	.LEHB11-.LFB68
 2019 00a3 00000000 		.4byte	.LEHE11-.LEHB11
GAS LISTING /tmp/cciGQfDY.s 			page 59


 2020 00a7 00000000 		.4byte	.L105-.LFB68
 2021 00ab 00       		.byte	0
 2022 00ac 00000000 		.4byte	.LEHB12-.LFB68
 2023 00b0 00000000 		.4byte	.LEHE12-.LEHB12
 2024 00b4 00000000 		.4byte	0
 2025 00b8 00       		.byte	0
 2026 00b9 00000000 		.4byte	.LEHB13-.LFB68
 2027 00bd 00000000 		.4byte	.LEHE13-.LEHB13
 2028 00c1 00000000 		.4byte	0
 2029 00c5 00       		.byte	0
 2030              		.text
 2032              		.align	2
 2033              		.globl	_ZN5RiscV5getPCEv
 2035              	_ZN5RiscV5getPCEv:
 2036              	.LFB69:
 709:src/kernel/riscv.cpp **** 
 710:src/kernel/riscv.cpp **** void RiscV::getPC(){
 2037              		.loc 1 710 20 is_stmt 1
 2038              		.cfi_startproc
 2039 0a20 130101FF 		addi	sp,sp,-16
 2040              		.cfi_def_cfa_offset 16
 2041 0a24 23348100 		sd	s0,8(sp)
 2042              		.cfi_offset 8, -8
 2043 0a28 13040101 		addi	s0,sp,16
 2044              		.cfi_def_cfa 8, 0
 711:src/kernel/riscv.cpp ****     uint64 ra;
 2045              		.loc 1 711 5
 712:src/kernel/riscv.cpp **** 
 713:src/kernel/riscv.cpp ****     asm("mv %[ra], ra" : [ra] "=r"(ra));
 2046              		.loc 1 713 5
 2047              		.loc 1 713 40 is_stmt 0
 2048              	#APP
 2049              	# 713 "src/kernel/riscv.cpp" 1
 714              	
 2050              		mv a5, ra
 2051              	# 0 "" 2
 2052              	.LVL161:
 715:src/kernel/riscv.cpp ****     TCB::currentPC = ra + 8;
 2053              		.loc 1 715 5 is_stmt 1
 2054              		.loc 1 715 25 is_stmt 0
 2055              	#NO_APP
 2056 0a30 93878700 		addi	a5,a5,8
 2057              	.LVL162:
 2058              		.loc 1 715 20
 2059 0a34 17070000 		la	a4,_ZN3TCB9currentPCE
 2059      03370700 
 2060 0a3c 2330F700 		sd	a5,0(a4)
 716:src/kernel/riscv.cpp **** }
 2061              		.loc 1 716 1
 2062 0a40 03348100 		ld	s0,8(sp)
 2063              		.cfi_restore 8
 2064              		.cfi_def_cfa 2, 16
 2065 0a44 13010101 		addi	sp,sp,16
 2066              		.cfi_def_cfa_offset 0
 2067 0a48 67800000 		jr	ra
 2068              		.cfi_endproc
 2069              	.LFE69:
GAS LISTING /tmp/cciGQfDY.s 			page 60


 2071              		.section	.rodata.str1.8,"aMS",@progbits,1
 2072              		.align	3
 2073              	.LC0:
 2074 0000 73657063 		.string	"sepc: "
 2074      3A2000
 2075 0007 00       		.align	3
 2076              	.LC1:
 2077 0008 0A00     		.string	"\n"
 2078 000a 00000000 		.align	3
 2078      0000
 2079              	.LC2:
 2080 0010 496C6C65 		.string	"Illegal instruction\nExiting thread...\n"
 2080      67616C20 
 2080      696E7374 
 2080      72756374 
 2080      696F6E0A 
 2081 0037 00       		.align	3
 2082              	.LC3:
 2083 0038 4572726F 		.string	"Error: \n"
 2083      723A200A 
 2083      00
 2084 0041 00000000 		.align	3
 2084      000000
 2085              	.LC4:
 2086 0048 73636175 		.string	"scause: "
 2086      73653A20 
 2086      00
 2087 0051 00000000 		.align	3
 2087      000000
 2088              	.LC5:
 2089 0058 73747665 		.string	"stvec: "
 2089      633A2000 
 2090              		.align	3
 2091              	.LC6:
 2092 0060 45786974 		.string	"Exiting thread...\n"
 2092      696E6720 
 2092      74687265 
 2092      61642E2E 
 2092      2E0A00
 2093              		.text
 2094              		.align	2
 2095              		.globl	_ZN5RiscV20handleSupervisorTrapEv
 2097              	_ZN5RiscV20handleSupervisorTrapEv:
 2098              	.LFB46:
  51:src/kernel/riscv.cpp **** 
 2099              		.loc 1 51 36 is_stmt 1
 2100              		.cfi_startproc
 2101 0a4c 130101F9 		addi	sp,sp,-112
 2102              		.cfi_def_cfa_offset 112
 2103 0a50 23341106 		sd	ra,104(sp)
 2104 0a54 23308106 		sd	s0,96(sp)
 2105 0a58 233C9104 		sd	s1,88(sp)
 2106              		.cfi_offset 1, -8
 2107              		.cfi_offset 8, -16
 2108              		.cfi_offset 9, -24
 2109 0a5c 13040107 		addi	s0,sp,112
 2110              		.cfi_def_cfa 8, 0
GAS LISTING /tmp/cciGQfDY.s 			page 61


  54:src/kernel/riscv.cpp ****     asm("csrr %[stval], stval" : [stval] "=r" (stval));
 2111              		.loc 1 54 5
  55:src/kernel/riscv.cpp ****     uint64 volatile scause = RiscV::r_scause();
 2112              		.loc 1 55 5
  55:src/kernel/riscv.cpp ****     uint64 volatile scause = RiscV::r_scause();
 2113              		.loc 1 55 55 is_stmt 0
 2114              	#APP
 2115              	# 55 "src/kernel/riscv.cpp" 1
 2116              		csrr s1, stval
 2117              	# 0 "" 2
 2118              	.LVL163:
  56:src/kernel/riscv.cpp **** 
 2119              		.loc 1 56 5 is_stmt 1
 2120              	#NO_APP
 2121              	.LBB125:
 2122              	.LBB126:
 163:src/kernel/../../h/kernel/riscv.hpp ****     asm("csrr %[scause], scause" : [scause] "=r" (scause));
 2123              		.loc 2 163 5
 164:src/kernel/../../h/kernel/riscv.hpp ****     return scause;
 2124              		.loc 2 164 5
 164:src/kernel/../../h/kernel/riscv.hpp ****     return scause;
 2125              		.loc 2 164 59 is_stmt 0
 2126              	#APP
 2127              	# 164 "src/kernel/../../h/kernel/riscv.hpp" 1
 2128              		csrr a5, scause
 2129              	# 0 "" 2
 2130              	#NO_APP
 2131 0a68 2334F4FC 		sd	a5,-56(s0)
 165:src/kernel/../../h/kernel/riscv.hpp **** }
 2132              		.loc 2 165 5 is_stmt 1
 165:src/kernel/../../h/kernel/riscv.hpp **** }
 2133              		.loc 2 165 12 is_stmt 0
 2134 0a6c 833784FC 		ld	a5,-56(s0)
 2135              	.LBE126:
 2136              	.LBE125:
  56:src/kernel/riscv.cpp **** 
 2137              		.loc 1 56 46
 2138 0a70 233CF4FC 		sd	a5,-40(s0)
  58:src/kernel/riscv.cpp **** 
 2139              		.loc 1 58 5 is_stmt 1
  58:src/kernel/riscv.cpp **** 
 2140              		.loc 1 58 71 is_stmt 0
 2141 0a74 97070000 		la	a5,_ZN3TCB7runningE
 2141      83B70700 
 2142 0a7c 83B70700 		ld	a5,0(a5)
  58:src/kernel/riscv.cpp **** 
 2143              		.loc 1 58 83
 2144              	#APP
 2145              	# 58 "src/kernel/riscv.cpp" 1
 2146              		csrr a4, sscratch
 2147              	# 0 "" 2
 2148              	#NO_APP
 2149 0a84 23B4E706 		sd	a4,104(a5)
  60:src/kernel/riscv.cpp **** 
 2150              		.loc 1 60 5 is_stmt 1
 2151              	.LBB127:
  60:src/kernel/riscv.cpp **** 
GAS LISTING /tmp/cciGQfDY.s 			page 62


 2152              		.loc 1 60 15 is_stmt 0
 2153 0a88 033784FD 		ld	a4,-40(s0)
  60:src/kernel/riscv.cpp **** 
 2154              		.loc 1 60 23
 2155 0a8c 93079000 		li	a5,9
 2156 0a90 6306F710 		beq	a4,a5,.L111
  60:src/kernel/riscv.cpp **** 
 2157              		.loc 1 60 33 discriminator 2
 2158 0a94 033784FD 		ld	a4,-40(s0)
  60:src/kernel/riscv.cpp **** 
 2159              		.loc 1 60 23 discriminator 2
 2160 0a98 93078000 		li	a5,8
 2161 0a9c 6300F710 		beq	a4,a5,.L111
 2162              	.LBE127:
 106:src/kernel/riscv.cpp **** 
 2163              		.loc 1 106 10 is_stmt 1
 2164              	.LBB182:
 2165              	.LBB128:
 106:src/kernel/riscv.cpp **** 
 2166              		.loc 1 106 20 is_stmt 0
 2167 0aa0 033784FD 		ld	a4,-40(s0)
 106:src/kernel/riscv.cpp **** 
 2168              		.loc 1 106 10
 2169 0aa4 9307F0FF 		li	a5,-1
 2170 0aa8 9397F703 		slli	a5,a5,63
 2171 0aac 93871700 		addi	a5,a5,1
 2172 0ab0 6304F726 		beq	a4,a5,.L141
 2173              	.LBE128:
 2174              	.LBE182:
 141:src/kernel/riscv.cpp ****         //save sstatus and sepc
 2175              		.loc 1 141 10 is_stmt 1
 2176              	.LBB183:
 2177              	.LBB169:
 2178              	.LBB129:
 141:src/kernel/riscv.cpp ****         //save sstatus and sepc
 2179              		.loc 1 141 20 is_stmt 0
 2180 0ab4 033784FD 		ld	a4,-40(s0)
 141:src/kernel/riscv.cpp ****         //save sstatus and sepc
 2181              		.loc 1 141 10
 2182 0ab8 9307F0FF 		li	a5,-1
 2183 0abc 9397F703 		slli	a5,a5,63
 2184 0ac0 93879700 		addi	a5,a5,9
 2185 0ac4 6302F72E 		beq	a4,a5,.L142
 2186              	.LBE129:
 2187              	.LBE169:
 2188              	.LBE183:
 177:src/kernel/riscv.cpp ****         TCB* old = TCB::running;
 2189              		.loc 1 177 10 is_stmt 1
 2190              	.LBB184:
 2191              	.LBB170:
 2192              	.LBB153:
 2193              	.LBB130:
 177:src/kernel/riscv.cpp ****         TCB* old = TCB::running;
 2194              		.loc 1 177 20 is_stmt 0
 2195 0ac8 033784FD 		ld	a4,-40(s0)
 177:src/kernel/riscv.cpp ****         TCB* old = TCB::running;
 2196              		.loc 1 177 10
GAS LISTING /tmp/cciGQfDY.s 			page 63


 2197 0acc 93072000 		li	a5,2
 2198 0ad0 630AF736 		beq	a4,a5,.L143
 2199              	.LBB131:
 190:src/kernel/riscv.cpp ****         ConsoleUtil::printString("scause: ");
 2200              		.loc 1 190 9 is_stmt 1
 190:src/kernel/riscv.cpp ****         ConsoleUtil::printString("scause: ");
 2201              		.loc 1 190 33 is_stmt 0
 2202 0ad4 17050000 		lla	a0,.LC3
 2202      13050500 
 2203 0adc 97000000 		call	_ZN11ConsoleUtil11printStringEPKc@plt
 2203      E7800000 
 2204              	.LVL164:
 191:src/kernel/riscv.cpp ****         uint64  scause = RiscV::r_scause();
 2205              		.loc 1 191 9 is_stmt 1
 191:src/kernel/riscv.cpp ****         uint64  scause = RiscV::r_scause();
 2206              		.loc 1 191 33 is_stmt 0
 2207 0ae4 17050000 		lla	a0,.LC4
 2207      13050500 
 2208 0aec 97000000 		call	_ZN11ConsoleUtil11printStringEPKc@plt
 2208      E7800000 
 2209              	.LVL165:
 192:src/kernel/riscv.cpp ****         ConsoleUtil::printInt(scause);
 2210              		.loc 1 192 9 is_stmt 1
 2211              	.LBB132:
 2212              	.LBB133:
 163:src/kernel/../../h/kernel/riscv.hpp ****     asm("csrr %[scause], scause" : [scause] "=r" (scause));
 2213              		.loc 2 163 5
 164:src/kernel/../../h/kernel/riscv.hpp ****     return scause;
 2214              		.loc 2 164 5
 164:src/kernel/../../h/kernel/riscv.hpp ****     return scause;
 2215              		.loc 2 164 59 is_stmt 0
 2216              	#APP
 2217              	# 164 "src/kernel/../../h/kernel/riscv.hpp" 1
 2218              		csrr a5, scause
 2219              	# 0 "" 2
 2220              	#NO_APP
 2221 0af8 2338F4FC 		sd	a5,-48(s0)
 165:src/kernel/../../h/kernel/riscv.hpp **** }
 2222              		.loc 2 165 5 is_stmt 1
 165:src/kernel/../../h/kernel/riscv.hpp **** }
 2223              		.loc 2 165 12 is_stmt 0
 2224 0afc 033504FD 		ld	a0,-48(s0)
 2225              	.LVL166:
 2226              	.LBE133:
 2227              	.LBE132:
 193:src/kernel/riscv.cpp ****         ConsoleUtil::printString("sepc: ");
 2228              		.loc 1 193 9 is_stmt 1
 193:src/kernel/riscv.cpp ****         ConsoleUtil::printString("sepc: ");
 2229              		.loc 1 193 30 is_stmt 0
 2230 0b00 13060000 		li	a2,0
 2231 0b04 9305A000 		li	a1,10
 2232 0b08 1B050500 		sext.w	a0,a0
 2233              	.LVL167:
 2234 0b0c 97000000 		call	_ZN11ConsoleUtil8printIntEiii@plt
 2234      E7800000 
 2235              	.LVL168:
 194:src/kernel/riscv.cpp ****         uint64 sepc = RiscV::r_sepc();
GAS LISTING /tmp/cciGQfDY.s 			page 64


 2236              		.loc 1 194 9 is_stmt 1
 194:src/kernel/riscv.cpp ****         uint64 sepc = RiscV::r_sepc();
 2237              		.loc 1 194 33 is_stmt 0
 2238 0b14 17050000 		lla	a0,.LC0
 2238      13050500 
 2239 0b1c 97000000 		call	_ZN11ConsoleUtil11printStringEPKc@plt
 2239      E7800000 
 2240              	.LVL169:
 195:src/kernel/riscv.cpp ****         ConsoleUtil::printInt(sepc,16);
 2241              		.loc 1 195 9 is_stmt 1
 2242              	.LBB134:
 2243              	.LBB135:
 173:src/kernel/../../h/kernel/riscv.hpp ****     asm("csrr %[sepc], sepc" : [sepc] "=r" (sepc));
 2244              		.loc 2 173 5
 174:src/kernel/../../h/kernel/riscv.hpp ****     return sepc;
 2245              		.loc 2 174 5
 174:src/kernel/../../h/kernel/riscv.hpp ****     return sepc;
 2246              		.loc 2 174 51 is_stmt 0
 2247              	#APP
 2248              	# 174 "src/kernel/../../h/kernel/riscv.hpp" 1
 175:src/kernel/../../h/kernel/riscv.hpp **** }
 2249              		csrr a0, sepc
 2250              	# 0 "" 2
 2251              		.loc 2 175 5 is_stmt 1
 2252              	#NO_APP
 2253              	.LBE135:
 2254              	.LBE134:
 196:src/kernel/riscv.cpp ****         ConsoleUtil::printString("\n");
 2255              		.loc 1 196 9
 196:src/kernel/riscv.cpp ****         ConsoleUtil::printString("\n");
 2256              		.loc 1 196 30 is_stmt 0
 2257 0b28 13060000 		li	a2,0
 2258 0b2c 93050001 		li	a1,16
 2259 0b30 1B050500 		sext.w	a0,a0
 2260 0b34 97000000 		call	_ZN11ConsoleUtil8printIntEiii@plt
 2260      E7800000 
 2261              	.LVL170:
 197:src/kernel/riscv.cpp ****         ConsoleUtil::print("stvec: ",stval,"\n");
 2262              		.loc 1 197 9 is_stmt 1
 197:src/kernel/riscv.cpp ****         ConsoleUtil::print("stvec: ",stval,"\n");
 2263              		.loc 1 197 33 is_stmt 0
 2264 0b3c 17050000 		lla	a0,.LC1
 2264      13050500 
 2265 0b44 97000000 		call	_ZN11ConsoleUtil11printStringEPKc@plt
 2265      E7800000 
 2266              	.LVL171:
 198:src/kernel/riscv.cpp ****         TCB* old = TCB::running;
 2267              		.loc 1 198 9 is_stmt 1
 198:src/kernel/riscv.cpp ****         TCB* old = TCB::running;
 2268              		.loc 1 198 27 is_stmt 0
 2269 0b4c 93060001 		li	a3,16
 2270 0b50 17060000 		lla	a2,.LC1
 2270      13060600 
 2271 0b58 9B850400 		sext.w	a1,s1
 2272 0b5c 17050000 		lla	a0,.LC5
 2272      13050500 
 2273 0b64 97000000 		call	_ZN11ConsoleUtil5printEPKciS1_i@plt
GAS LISTING /tmp/cciGQfDY.s 			page 65


 2273      E7800000 
 2274              	.LVL172:
 199:src/kernel/riscv.cpp ****         old->status = TCB::Status::FINISHED;
 2275              		.loc 1 199 9 is_stmt 1
 199:src/kernel/riscv.cpp ****         old->status = TCB::Status::FINISHED;
 2276              		.loc 1 199 14 is_stmt 0
 2277 0b6c 97070000 		la	a5,_ZN3TCB7runningE
 2277      83B70700 
 2278 0b74 83B70700 		ld	a5,0(a5)
 2279              	.LVL173:
 200:src/kernel/riscv.cpp ****         ConsoleUtil::printString("Exiting thread...\n");
 2280              		.loc 1 200 9 is_stmt 1
 200:src/kernel/riscv.cpp ****         ConsoleUtil::printString("Exiting thread...\n");
 2281              		.loc 1 200 21 is_stmt 0
 2282 0b78 13072000 		li	a4,2
 2283 0b7c 23A8E700 		sw	a4,16(a5)
 201:src/kernel/riscv.cpp ****         TCB::dispatch();
 2284              		.loc 1 201 9 is_stmt 1
 201:src/kernel/riscv.cpp ****         TCB::dispatch();
 2285              		.loc 1 201 33 is_stmt 0
 2286 0b80 17050000 		lla	a0,.LC6
 2286      13050500 
 2287 0b88 97000000 		call	_ZN11ConsoleUtil11printStringEPKc@plt
 2287      E7800000 
 2288              	.LVL174:
 202:src/kernel/riscv.cpp ****     }
 2289              		.loc 1 202 9 is_stmt 1
 202:src/kernel/riscv.cpp ****     }
 2290              		.loc 1 202 22 is_stmt 0
 2291 0b90 97000000 		call	_ZN3TCB8dispatchEv@plt
 2291      E7800000 
 2292              	.LVL175:
 2293 0b98 6F000008 		j	.L134
 2294              	.L111:
 2295              	.LBE131:
 2296              	.LBE130:
 2297              	.LBE153:
 2298              	.LBE170:
 2299              	.LBB171:
  64:src/kernel/riscv.cpp ****         uint64 volatile sepc = RiscV::r_sepc()+4;
 2300              		.loc 1 64 9 is_stmt 1
 2301              	.LBB172:
 2302              	.LBB173:
 193:src/kernel/../../h/kernel/riscv.hpp ****     asm("csrr %[sstatus], sstatus" : [sstatus] "=r" (sstatus));
 2303              		.loc 2 193 5
 194:src/kernel/../../h/kernel/riscv.hpp ****     return sstatus;
 2304              		.loc 2 194 5
 194:src/kernel/../../h/kernel/riscv.hpp ****     return sstatus;
 2305              		.loc 2 194 63 is_stmt 0
 2306              	#APP
 2307              	# 194 "src/kernel/../../h/kernel/riscv.hpp" 1
 2308              		csrr a5, sstatus
 2309              	# 0 "" 2
 2310              	.LVL176:
 195:src/kernel/../../h/kernel/riscv.hpp **** }
 2311              		.loc 2 195 5 is_stmt 1
 2312              	#NO_APP
GAS LISTING /tmp/cciGQfDY.s 			page 66


 2313              	.LBE173:
 2314              	.LBE172:
  64:src/kernel/riscv.cpp ****         uint64 volatile sepc = RiscV::r_sepc()+4;
 2315              		.loc 1 64 52 is_stmt 0
 2316 0ba0 233CF4F8 		sd	a5,-104(s0)
  65:src/kernel/riscv.cpp ****         TCB::running->sepc = sepc;
 2317              		.loc 1 65 9 is_stmt 1
 2318              	.LBB174:
 2319              	.LBB175:
 173:src/kernel/../../h/kernel/riscv.hpp ****     asm("csrr %[sepc], sepc" : [sepc] "=r" (sepc));
 2320              		.loc 2 173 5
 174:src/kernel/../../h/kernel/riscv.hpp ****     return sepc;
 2321              		.loc 2 174 5
 174:src/kernel/../../h/kernel/riscv.hpp ****     return sepc;
 2322              		.loc 2 174 51 is_stmt 0
 2323              	#APP
 2324              	# 174 "src/kernel/../../h/kernel/riscv.hpp" 1
 2325              		csrr a5, sepc
 2326              	# 0 "" 2
 2327              	.LVL177:
 175:src/kernel/../../h/kernel/riscv.hpp **** }
 2328              		.loc 2 175 5 is_stmt 1
 2329              	#NO_APP
 2330              	.LBE175:
 2331              	.LBE174:
  65:src/kernel/riscv.cpp ****         TCB::running->sepc = sepc;
 2332              		.loc 1 65 47 is_stmt 0
 2333 0ba8 93874700 		addi	a5,a5,4
  65:src/kernel/riscv.cpp ****         TCB::running->sepc = sepc;
 2334              		.loc 1 65 48
 2335 0bac 2330F4FA 		sd	a5,-96(s0)
  66:src/kernel/riscv.cpp ****         TCB::running->sstatus = sstatus;
 2336              		.loc 1 66 9 is_stmt 1
  66:src/kernel/riscv.cpp ****         TCB::running->sstatus = sstatus;
 2337              		.loc 1 66 23 is_stmt 0
 2338 0bb0 97070000 		la	a5,_ZN3TCB7runningE
 2338      83B70700 
 2339 0bb8 83B70700 		ld	a5,0(a5)
  66:src/kernel/riscv.cpp ****         TCB::running->sstatus = sstatus;
 2340              		.loc 1 66 28
 2341 0bbc 033704FA 		ld	a4,-96(s0)
 2342 0bc0 23BCE702 		sd	a4,56(a5)
  67:src/kernel/riscv.cpp **** 
 2343              		.loc 1 67 9 is_stmt 1
  67:src/kernel/riscv.cpp **** 
 2344              		.loc 1 67 31 is_stmt 0
 2345 0bc4 033784F9 		ld	a4,-104(s0)
 2346 0bc8 23B0E704 		sd	a4,64(a5)
  70:src/kernel/riscv.cpp ****         asm("mv %[syscallID], a0" : [syscallID] "=r" (syscallID));
 2347              		.loc 1 70 9 is_stmt 1
  71:src/kernel/riscv.cpp **** 
 2348              		.loc 1 71 9
  71:src/kernel/riscv.cpp **** 
 2349              		.loc 1 71 66 is_stmt 0
 2350              	#APP
 2351              	# 71 "src/kernel/riscv.cpp" 1
 2352              		mv a5, a0
GAS LISTING /tmp/cciGQfDY.s 			page 67


 2353              	# 0 "" 2
 2354              	.LVL178:
  73:src/kernel/riscv.cpp ****             case 0x01 : executeMemAllocSyscall();break;
 2355              		.loc 1 73 9 is_stmt 1
 2356              	#NO_APP
 2357 0bd0 13071006 		li	a4,97
 2358 0bd4 6364F702 		bgtu	a5,a4,.L114
 2359 0bd8 93972700 		slli	a5,a5,2
 2360              	.LVL179:
 2361 0bdc 17070000 		lla	a4,.L116
 2361      13070700 
 2362 0be4 B387E700 		add	a5,a5,a4
 2363 0be8 83A70700 		lw	a5,0(a5)
 2364 0bec B387E700 		add	a5,a5,a4
 2365 0bf0 67800700 		jr	a5
 2366              		.section	.rodata
 2367              		.align	2
 2368              		.align	2
 2369              	.L116:
 2370 0000 00000000 		.word	.L114-.L116
 2371 0004 00000000 		.word	.L133-.L116
 2372 0008 00000000 		.word	.L132-.L116
 2373 000c 00000000 		.word	.L114-.L116
 2374 0010 00000000 		.word	.L114-.L116
 2375 0014 00000000 		.word	.L114-.L116
 2376 0018 00000000 		.word	.L114-.L116
 2377 001c 00000000 		.word	.L114-.L116
 2378 0020 00000000 		.word	.L114-.L116
 2379 0024 00000000 		.word	.L114-.L116
 2380 0028 00000000 		.word	.L114-.L116
 2381 002c 00000000 		.word	.L114-.L116
 2382 0030 00000000 		.word	.L114-.L116
 2383 0034 00000000 		.word	.L114-.L116
 2384 0038 00000000 		.word	.L114-.L116
 2385 003c 00000000 		.word	.L114-.L116
 2386 0040 00000000 		.word	.L114-.L116
 2387 0044 00000000 		.word	.L131-.L116
 2388 0048 00000000 		.word	.L130-.L116
 2389 004c 00000000 		.word	.L129-.L116
 2390 0050 00000000 		.word	.L128-.L116
 2391 0054 00000000 		.word	.L127-.L116
 2392 0058 00000000 		.word	.L114-.L116
 2393 005c 00000000 		.word	.L114-.L116
 2394 0060 00000000 		.word	.L114-.L116
 2395 0064 00000000 		.word	.L114-.L116
 2396 0068 00000000 		.word	.L114-.L116
 2397 006c 00000000 		.word	.L114-.L116
 2398 0070 00000000 		.word	.L114-.L116
 2399 0074 00000000 		.word	.L114-.L116
 2400 0078 00000000 		.word	.L114-.L116
 2401 007c 00000000 		.word	.L114-.L116
 2402 0080 00000000 		.word	.L114-.L116
 2403 0084 00000000 		.word	.L126-.L116
 2404 0088 00000000 		.word	.L125-.L116
 2405 008c 00000000 		.word	.L124-.L116
 2406 0090 00000000 		.word	.L123-.L116
 2407 0094 00000000 		.word	.L114-.L116
GAS LISTING /tmp/cciGQfDY.s 			page 68


 2408 0098 00000000 		.word	.L114-.L116
 2409 009c 00000000 		.word	.L114-.L116
 2410 00a0 00000000 		.word	.L114-.L116
 2411 00a4 00000000 		.word	.L114-.L116
 2412 00a8 00000000 		.word	.L114-.L116
 2413 00ac 00000000 		.word	.L114-.L116
 2414 00b0 00000000 		.word	.L114-.L116
 2415 00b4 00000000 		.word	.L114-.L116
 2416 00b8 00000000 		.word	.L114-.L116
 2417 00bc 00000000 		.word	.L114-.L116
 2418 00c0 00000000 		.word	.L114-.L116
 2419 00c4 00000000 		.word	.L122-.L116
 2420 00c8 00000000 		.word	.L114-.L116
 2421 00cc 00000000 		.word	.L114-.L116
 2422 00d0 00000000 		.word	.L114-.L116
 2423 00d4 00000000 		.word	.L114-.L116
 2424 00d8 00000000 		.word	.L114-.L116
 2425 00dc 00000000 		.word	.L114-.L116
 2426 00e0 00000000 		.word	.L114-.L116
 2427 00e4 00000000 		.word	.L114-.L116
 2428 00e8 00000000 		.word	.L114-.L116
 2429 00ec 00000000 		.word	.L114-.L116
 2430 00f0 00000000 		.word	.L114-.L116
 2431 00f4 00000000 		.word	.L114-.L116
 2432 00f8 00000000 		.word	.L114-.L116
 2433 00fc 00000000 		.word	.L114-.L116
 2434 0100 00000000 		.word	.L114-.L116
 2435 0104 00000000 		.word	.L121-.L116
 2436 0108 00000000 		.word	.L120-.L116
 2437 010c 00000000 		.word	.L119-.L116
 2438 0110 00000000 		.word	.L114-.L116
 2439 0114 00000000 		.word	.L114-.L116
 2440 0118 00000000 		.word	.L114-.L116
 2441 011c 00000000 		.word	.L114-.L116
 2442 0120 00000000 		.word	.L114-.L116
 2443 0124 00000000 		.word	.L114-.L116
 2444 0128 00000000 		.word	.L114-.L116
 2445 012c 00000000 		.word	.L114-.L116
 2446 0130 00000000 		.word	.L114-.L116
 2447 0134 00000000 		.word	.L114-.L116
 2448 0138 00000000 		.word	.L114-.L116
 2449 013c 00000000 		.word	.L114-.L116
 2450 0140 00000000 		.word	.L114-.L116
 2451 0144 00000000 		.word	.L118-.L116
 2452 0148 00000000 		.word	.L117-.L116
 2453 014c 00000000 		.word	.L114-.L116
 2454 0150 00000000 		.word	.L114-.L116
 2455 0154 00000000 		.word	.L114-.L116
 2456 0158 00000000 		.word	.L114-.L116
 2457 015c 00000000 		.word	.L114-.L116
 2458 0160 00000000 		.word	.L114-.L116
 2459 0164 00000000 		.word	.L114-.L116
 2460 0168 00000000 		.word	.L114-.L116
 2461 016c 00000000 		.word	.L114-.L116
 2462 0170 00000000 		.word	.L114-.L116
 2463 0174 00000000 		.word	.L114-.L116
 2464 0178 00000000 		.word	.L114-.L116
GAS LISTING /tmp/cciGQfDY.s 			page 69


 2465 017c 00000000 		.word	.L114-.L116
 2466 0180 00000000 		.word	.L114-.L116
 2467 0184 00000000 		.word	.L115-.L116
 2468              		.text
 2469              	.L133:
  74:src/kernel/riscv.cpp ****             case 0x02 : executeMemFreeSyscall();break;
 2470              		.loc 1 74 13
  74:src/kernel/riscv.cpp ****             case 0x02 : executeMemFreeSyscall();break;
 2471              		.loc 1 74 25
  74:src/kernel/riscv.cpp ****             case 0x02 : executeMemFreeSyscall();break;
 2472              		.loc 1 74 47 is_stmt 0
 2473 0bf4 97000000 		call	_ZN5RiscV22executeMemAllocSyscallEv
 2473      E7800000 
 2474              	.LVL180:
  74:src/kernel/riscv.cpp ****             case 0x02 : executeMemFreeSyscall();break;
 2475              		.loc 1 74 50 is_stmt 1
 2476              	.L114:
 101:src/kernel/riscv.cpp ****         RiscV::w_sepc(TCB::running->sepc);
 2477              		.loc 1 101 9
 101:src/kernel/riscv.cpp ****         RiscV::w_sepc(TCB::running->sepc);
 2478              		.loc 1 101 25 is_stmt 0
 2479 0bfc 97070000 		la	a5,_ZN3TCB7runningE
 2479      83B70700 
 2480 0c04 83B70700 		ld	a5,0(a5)
 2481 0c08 03B70704 		ld	a4,64(a5)
 2482              	.LVL181:
 2483              	.LBB176:
 2484              	.LBB177:
 189:src/kernel/../../h/kernel/riscv.hpp **** }
 2485              		.loc 2 189 5 is_stmt 1
 189:src/kernel/../../h/kernel/riscv.hpp **** }
 2486              		.loc 2 189 64 is_stmt 0
 2487              	#APP
 2488              	# 189 "src/kernel/../../h/kernel/riscv.hpp" 1
 2489              		csrw sstatus, a4
 2490              	# 0 "" 2
 2491              	.LVL182:
 2492              	#NO_APP
 2493              	.LBE177:
 2494              	.LBE176:
 102:src/kernel/riscv.cpp ****     }
 2495              		.loc 1 102 9 is_stmt 1
 102:src/kernel/riscv.cpp ****     }
 2496              		.loc 1 102 22 is_stmt 0
 2497 0c10 83B78703 		ld	a5,56(a5)
 2498              	.LVL183:
 2499              	.LBB178:
 2500              	.LBB179:
 179:src/kernel/../../h/kernel/riscv.hpp **** }
 2501              		.loc 2 179 5 is_stmt 1
 179:src/kernel/../../h/kernel/riscv.hpp **** }
 2502              		.loc 2 179 52 is_stmt 0
 2503              	#APP
 2504              	# 179 "src/kernel/../../h/kernel/riscv.hpp" 1
 2505              		csrw sepc, a5
 2506              	# 0 "" 2
 2507              	.LVL184:
GAS LISTING /tmp/cciGQfDY.s 			page 70


 2508              	#NO_APP
 2509              	.L134:
 2510              	.LBE179:
 2511              	.LBE178:
 2512              	.LBE171:
 2513              	.LBE184:
 205:src/kernel/riscv.cpp **** }
 2514              		.loc 1 205 5 is_stmt 1
 205:src/kernel/riscv.cpp **** }
 2515              		.loc 1 205 41 is_stmt 0
 2516 0c18 97000000 		call	_ZN5RiscV29jumpToDesignatedPrivilegeModeEv
 2516      E7800000 
 2517              	.LVL185:
 206:src/kernel/riscv.cpp **** 
 2518              		.loc 1 206 1
 2519 0c20 83308106 		ld	ra,104(sp)
 2520              		.cfi_remember_state
 2521              		.cfi_restore 1
 2522 0c24 03340106 		ld	s0,96(sp)
 2523              		.cfi_restore 8
 2524              		.cfi_def_cfa 2, 112
 2525 0c28 83348105 		ld	s1,88(sp)
 2526              		.cfi_restore 9
 2527              	.LVL186:
 2528 0c2c 13010107 		addi	sp,sp,112
 2529              		.cfi_def_cfa_offset 0
 2530 0c30 67800000 		jr	ra
 2531              	.LVL187:
 2532              	.L132:
 2533              		.cfi_restore_state
 2534              	.LBB185:
 2535              	.LBB180:
  75:src/kernel/riscv.cpp ****             case 0x11 : executeThreadCreateSyscall();break;
 2536              		.loc 1 75 13 is_stmt 1
  75:src/kernel/riscv.cpp ****             case 0x11 : executeThreadCreateSyscall();break;
 2537              		.loc 1 75 25
  75:src/kernel/riscv.cpp ****             case 0x11 : executeThreadCreateSyscall();break;
 2538              		.loc 1 75 46 is_stmt 0
 2539 0c34 97000000 		call	_ZN5RiscV21executeMemFreeSyscallEv
 2539      E7800000 
 2540              	.LVL188:
  75:src/kernel/riscv.cpp ****             case 0x11 : executeThreadCreateSyscall();break;
 2541              		.loc 1 75 49 is_stmt 1
 2542 0c3c 6FF01FFC 		j	.L114
 2543              	.L131:
  76:src/kernel/riscv.cpp ****             case 0x12 : executeThreadExitSyscall();break;
 2544              		.loc 1 76 13
  76:src/kernel/riscv.cpp ****             case 0x12 : executeThreadExitSyscall();break;
 2545              		.loc 1 76 25
  76:src/kernel/riscv.cpp ****             case 0x12 : executeThreadExitSyscall();break;
 2546              		.loc 1 76 51 is_stmt 0
 2547 0c40 97000000 		call	_ZN5RiscV26executeThreadCreateSyscallEv
 2547      E7800000 
 2548              	.LVL189:
  76:src/kernel/riscv.cpp ****             case 0x12 : executeThreadExitSyscall();break;
 2549              		.loc 1 76 54 is_stmt 1
 2550 0c48 6FF05FFB 		j	.L114
GAS LISTING /tmp/cciGQfDY.s 			page 71


 2551              	.L130:
  77:src/kernel/riscv.cpp ****             case 0x13 : executeThreadDispatchSyscall();break;
 2552              		.loc 1 77 13
  77:src/kernel/riscv.cpp ****             case 0x13 : executeThreadDispatchSyscall();break;
 2553              		.loc 1 77 25
  77:src/kernel/riscv.cpp ****             case 0x13 : executeThreadDispatchSyscall();break;
 2554              		.loc 1 77 49 is_stmt 0
 2555 0c4c 97000000 		call	_ZN5RiscV24executeThreadExitSyscallEv
 2555      E7800000 
 2556              	.LVL190:
  77:src/kernel/riscv.cpp ****             case 0x13 : executeThreadDispatchSyscall();break;
 2557              		.loc 1 77 52 is_stmt 1
 2558 0c54 6FF09FFA 		j	.L114
 2559              	.L129:
  78:src/kernel/riscv.cpp ****             case 0x14 : executeThreadAttachBodySyscall();break;
 2560              		.loc 1 78 13
  78:src/kernel/riscv.cpp ****             case 0x14 : executeThreadAttachBodySyscall();break;
 2561              		.loc 1 78 25
  78:src/kernel/riscv.cpp ****             case 0x14 : executeThreadAttachBodySyscall();break;
 2562              		.loc 1 78 53 is_stmt 0
 2563 0c58 97000000 		call	_ZN5RiscV28executeThreadDispatchSyscallEv
 2563      E7800000 
 2564              	.LVL191:
  78:src/kernel/riscv.cpp ****             case 0x14 : executeThreadAttachBodySyscall();break;
 2565              		.loc 1 78 56 is_stmt 1
 2566 0c60 6FF0DFF9 		j	.L114
 2567              	.L128:
  79:src/kernel/riscv.cpp ****             case 0x15 : executeThreadStartSyscall();break;
 2568              		.loc 1 79 13
  79:src/kernel/riscv.cpp ****             case 0x15 : executeThreadStartSyscall();break;
 2569              		.loc 1 79 25
  79:src/kernel/riscv.cpp ****             case 0x15 : executeThreadStartSyscall();break;
 2570              		.loc 1 79 55 is_stmt 0
 2571 0c64 97000000 		call	_ZN5RiscV30executeThreadAttachBodySyscallEv
 2571      E7800000 
 2572              	.LVL192:
  79:src/kernel/riscv.cpp ****             case 0x15 : executeThreadStartSyscall();break;
 2573              		.loc 1 79 58 is_stmt 1
 2574 0c6c 6FF01FF9 		j	.L114
 2575              	.L127:
  80:src/kernel/riscv.cpp ****             case 0x21 : executeSemOpenSyscall();break;
 2576              		.loc 1 80 13
  80:src/kernel/riscv.cpp ****             case 0x21 : executeSemOpenSyscall();break;
 2577              		.loc 1 80 25
  80:src/kernel/riscv.cpp ****             case 0x21 : executeSemOpenSyscall();break;
 2578              		.loc 1 80 50 is_stmt 0
 2579 0c70 97000000 		call	_ZN5RiscV25executeThreadStartSyscallEv
 2579      E7800000 
 2580              	.LVL193:
  80:src/kernel/riscv.cpp ****             case 0x21 : executeSemOpenSyscall();break;
 2581              		.loc 1 80 53 is_stmt 1
 2582 0c78 6FF05FF8 		j	.L114
 2583              	.L126:
  81:src/kernel/riscv.cpp ****             case 0x22 : executeSemCloseSyscall();break;
 2584              		.loc 1 81 13
  81:src/kernel/riscv.cpp ****             case 0x22 : executeSemCloseSyscall();break;
 2585              		.loc 1 81 25
GAS LISTING /tmp/cciGQfDY.s 			page 72


  81:src/kernel/riscv.cpp ****             case 0x22 : executeSemCloseSyscall();break;
 2586              		.loc 1 81 46 is_stmt 0
 2587 0c7c 97000000 		call	_ZN5RiscV21executeSemOpenSyscallEv
 2587      E7800000 
 2588              	.LVL194:
  81:src/kernel/riscv.cpp ****             case 0x22 : executeSemCloseSyscall();break;
 2589              		.loc 1 81 49 is_stmt 1
 2590 0c84 6FF09FF7 		j	.L114
 2591              	.L125:
  82:src/kernel/riscv.cpp ****             case 0x23 : executeSemWaitSyscall();break;
 2592              		.loc 1 82 13
  82:src/kernel/riscv.cpp ****             case 0x23 : executeSemWaitSyscall();break;
 2593              		.loc 1 82 25
  82:src/kernel/riscv.cpp ****             case 0x23 : executeSemWaitSyscall();break;
 2594              		.loc 1 82 47 is_stmt 0
 2595 0c88 97000000 		call	_ZN5RiscV22executeSemCloseSyscallEv
 2595      E7800000 
 2596              	.LVL195:
  82:src/kernel/riscv.cpp ****             case 0x23 : executeSemWaitSyscall();break;
 2597              		.loc 1 82 50 is_stmt 1
 2598 0c90 6FF0DFF6 		j	.L114
 2599              	.L124:
  83:src/kernel/riscv.cpp ****             case 0x24 : executeSemSignalSyscall();break;
 2600              		.loc 1 83 13
  83:src/kernel/riscv.cpp ****             case 0x24 : executeSemSignalSyscall();break;
 2601              		.loc 1 83 25
  83:src/kernel/riscv.cpp ****             case 0x24 : executeSemSignalSyscall();break;
 2602              		.loc 1 83 46 is_stmt 0
 2603 0c94 97000000 		call	_ZN5RiscV21executeSemWaitSyscallEv
 2603      E7800000 
 2604              	.LVL196:
  83:src/kernel/riscv.cpp ****             case 0x24 : executeSemSignalSyscall();break;
 2605              		.loc 1 83 49 is_stmt 1
 2606 0c9c 6FF01FF6 		j	.L114
 2607              	.L123:
  84:src/kernel/riscv.cpp ****             case 0x31 : executeTimeSleepSyscall();break;
 2608              		.loc 1 84 13
  84:src/kernel/riscv.cpp ****             case 0x31 : executeTimeSleepSyscall();break;
 2609              		.loc 1 84 25
  84:src/kernel/riscv.cpp ****             case 0x31 : executeTimeSleepSyscall();break;
 2610              		.loc 1 84 48 is_stmt 0
 2611 0ca0 97000000 		call	_ZN5RiscV23executeSemSignalSyscallEv
 2611      E7800000 
 2612              	.LVL197:
  84:src/kernel/riscv.cpp ****             case 0x31 : executeTimeSleepSyscall();break;
 2613              		.loc 1 84 51 is_stmt 1
 2614 0ca8 6FF05FF5 		j	.L114
 2615              	.L122:
  85:src/kernel/riscv.cpp ****             case 0x41 : executeGetcSyscall();break;
 2616              		.loc 1 85 13
  85:src/kernel/riscv.cpp ****             case 0x41 : executeGetcSyscall();break;
 2617              		.loc 1 85 25
  85:src/kernel/riscv.cpp ****             case 0x41 : executeGetcSyscall();break;
 2618              		.loc 1 85 48 is_stmt 0
 2619 0cac 97000000 		call	_ZN5RiscV23executeTimeSleepSyscallEv
 2619      E7800000 
 2620              	.LVL198:
GAS LISTING /tmp/cciGQfDY.s 			page 73


  85:src/kernel/riscv.cpp ****             case 0x41 : executeGetcSyscall();break;
 2621              		.loc 1 85 51 is_stmt 1
 2622 0cb4 6FF09FF4 		j	.L114
 2623              	.L121:
  86:src/kernel/riscv.cpp ****             case 0x42 : executePutcSyscall();break;
 2624              		.loc 1 86 13
  86:src/kernel/riscv.cpp ****             case 0x42 : executePutcSyscall();break;
 2625              		.loc 1 86 25
  86:src/kernel/riscv.cpp ****             case 0x42 : executePutcSyscall();break;
 2626              		.loc 1 86 43 is_stmt 0
 2627 0cb8 97000000 		call	_ZN5RiscV18executeGetcSyscallEv
 2627      E7800000 
 2628              	.LVL199:
  86:src/kernel/riscv.cpp ****             case 0x42 : executePutcSyscall();break;
 2629              		.loc 1 86 46 is_stmt 1
 2630 0cc0 6FF0DFF3 		j	.L114
 2631              	.L120:
  87:src/kernel/riscv.cpp ****             case 0x43 : executePutcUtilSyscall();break;
 2632              		.loc 1 87 13
  87:src/kernel/riscv.cpp ****             case 0x43 : executePutcUtilSyscall();break;
 2633              		.loc 1 87 25
  87:src/kernel/riscv.cpp ****             case 0x43 : executePutcUtilSyscall();break;
 2634              		.loc 1 87 43 is_stmt 0
 2635 0cc4 97000000 		call	_ZN5RiscV18executePutcSyscallEv
 2635      E7800000 
 2636              	.LVL200:
  87:src/kernel/riscv.cpp ****             case 0x43 : executePutcUtilSyscall();break;
 2637              		.loc 1 87 46 is_stmt 1
 2638 0ccc 6FF01FF3 		j	.L114
 2639              	.L119:
  88:src/kernel/riscv.cpp ****             case 0x51 : executeThreadFreeSyscall();break;
 2640              		.loc 1 88 13
  88:src/kernel/riscv.cpp ****             case 0x51 : executeThreadFreeSyscall();break;
 2641              		.loc 1 88 25
  88:src/kernel/riscv.cpp ****             case 0x51 : executeThreadFreeSyscall();break;
 2642              		.loc 1 88 47 is_stmt 0
 2643 0cd0 97000000 		call	_ZN5RiscV22executePutcUtilSyscallEv
 2643      E7800000 
 2644              	.LVL201:
  88:src/kernel/riscv.cpp ****             case 0x51 : executeThreadFreeSyscall();break;
 2645              		.loc 1 88 50 is_stmt 1
 2646 0cd8 6FF05FF2 		j	.L114
 2647              	.L118:
  89:src/kernel/riscv.cpp ****             case 0x52 : executeSemaphoreFreeSyscall();break;
 2648              		.loc 1 89 13
  89:src/kernel/riscv.cpp ****             case 0x52 : executeSemaphoreFreeSyscall();break;
 2649              		.loc 1 89 25
  89:src/kernel/riscv.cpp ****             case 0x52 : executeSemaphoreFreeSyscall();break;
 2650              		.loc 1 89 49 is_stmt 0
 2651 0cdc 97000000 		call	_ZN5RiscV24executeThreadFreeSyscallEv
 2651      E7800000 
 2652              	.LVL202:
  89:src/kernel/riscv.cpp ****             case 0x52 : executeSemaphoreFreeSyscall();break;
 2653              		.loc 1 89 52 is_stmt 1
 2654 0ce4 6FF09FF1 		j	.L114
 2655              	.L117:
  90:src/kernel/riscv.cpp ****             //in this case we need to save SP and PC at this point so that newly created thread
GAS LISTING /tmp/cciGQfDY.s 			page 74


 2656              		.loc 1 90 13
  90:src/kernel/riscv.cpp ****             //in this case we need to save SP and PC at this point so that newly created thread
 2657              		.loc 1 90 25
  90:src/kernel/riscv.cpp ****             //in this case we need to save SP and PC at this point so that newly created thread
 2658              		.loc 1 90 52 is_stmt 0
 2659 0ce8 97000000 		call	_ZN5RiscV27executeSemaphoreFreeSyscallEv
 2659      E7800000 
 2660              	.LVL203:
  90:src/kernel/riscv.cpp ****             //in this case we need to save SP and PC at this point so that newly created thread
 2661              		.loc 1 90 55 is_stmt 1
 2662 0cf0 6FF0DFF0 		j	.L114
 2663              	.L115:
  94:src/kernel/riscv.cpp ****                         RiscV::getPC();
 2664              		.loc 1 94 13
  94:src/kernel/riscv.cpp ****                         RiscV::getPC();
 2665              		.loc 1 94 25
  94:src/kernel/riscv.cpp ****                         RiscV::getPC();
 2666              		.loc 1 94 72 is_stmt 0
 2667              	#APP
 2668              	# 94 "src/kernel/riscv.cpp" 1
 2669              		mv a5, sp
 2670              	# 0 "" 2
 2671              	#NO_APP
 2672 0cf8 17070000 		la	a4,_ZN3TCB9currentSPE
 2672      03370700 
 2673 0d00 2330F700 		sd	a5,0(a4)
  95:src/kernel/riscv.cpp ****                         executeForkSyscall();
 2674              		.loc 1 95 25 is_stmt 1
  95:src/kernel/riscv.cpp ****                         executeForkSyscall();
 2675              		.loc 1 95 37 is_stmt 0
 2676 0d04 97000000 		call	_ZN5RiscV5getPCEv
 2676      E7800000 
 2677              	.LVL204:
  96:src/kernel/riscv.cpp ****                         break;
 2678              		.loc 1 96 25 is_stmt 1
  96:src/kernel/riscv.cpp ****                         break;
 2679              		.loc 1 96 43 is_stmt 0
 2680 0d0c 97000000 		call	_ZN5RiscV18executeForkSyscallEv
 2680      E7800000 
 2681              	.LVL205:
  97:src/kernel/riscv.cpp ****         }
 2682              		.loc 1 97 25 is_stmt 1
 2683 0d14 6FF09FEE 		j	.L114
 2684              	.L141:
 2685              	.LBE180:
 2686              	.LBB181:
 2687              	.LBB154:
 110:src/kernel/riscv.cpp ****         uint64 volatile sepc = RiscV::r_sepc();
 2688              		.loc 1 110 9
 2689              	.LBB155:
 2690              	.LBB156:
 193:src/kernel/../../h/kernel/riscv.hpp ****     asm("csrr %[sstatus], sstatus" : [sstatus] "=r" (sstatus));
 2691              		.loc 2 193 5
 194:src/kernel/../../h/kernel/riscv.hpp ****     return sstatus;
 2692              		.loc 2 194 5
 194:src/kernel/../../h/kernel/riscv.hpp ****     return sstatus;
 2693              		.loc 2 194 63 is_stmt 0
GAS LISTING /tmp/cciGQfDY.s 			page 75


 2694              	#APP
 2695              	# 194 "src/kernel/../../h/kernel/riscv.hpp" 1
 2696              		csrr a5, sstatus
 2697              	# 0 "" 2
 2698              	.LVL206:
 195:src/kernel/../../h/kernel/riscv.hpp **** }
 2699              		.loc 2 195 5 is_stmt 1
 2700              	#NO_APP
 2701              	.LBE156:
 2702              	.LBE155:
 110:src/kernel/riscv.cpp ****         uint64 volatile sepc = RiscV::r_sepc();
 2703              		.loc 1 110 52 is_stmt 0
 2704 0d1c 2334F4FA 		sd	a5,-88(s0)
 111:src/kernel/riscv.cpp **** 
 2705              		.loc 1 111 9 is_stmt 1
 2706              	.LBB157:
 2707              	.LBB158:
 173:src/kernel/../../h/kernel/riscv.hpp ****     asm("csrr %[sepc], sepc" : [sepc] "=r" (sepc));
 2708              		.loc 2 173 5
 174:src/kernel/../../h/kernel/riscv.hpp ****     return sepc;
 2709              		.loc 2 174 5
 174:src/kernel/../../h/kernel/riscv.hpp ****     return sepc;
 2710              		.loc 2 174 51 is_stmt 0
 2711              	#APP
 2712              	# 174 "src/kernel/../../h/kernel/riscv.hpp" 1
 2713              		csrr a5, sepc
 2714              	# 0 "" 2
 2715              	.LVL207:
 175:src/kernel/../../h/kernel/riscv.hpp **** }
 2716              		.loc 2 175 5 is_stmt 1
 2717              	#NO_APP
 2718              	.LBE158:
 2719              	.LBE157:
 111:src/kernel/riscv.cpp **** 
 2720              		.loc 1 111 46 is_stmt 0
 2721 0d24 2338F4FA 		sd	a5,-80(s0)
 114:src/kernel/riscv.cpp **** 
 2722              		.loc 1 114 9 is_stmt 1
 2723              	.LVL208:
 2724              	.LBB159:
 2725              	.LBB160:
 215:src/kernel/../../h/kernel/riscv.hpp **** }
 2726              		.loc 2 215 5
 215:src/kernel/../../h/kernel/riscv.hpp **** }
 2727              		.loc 2 215 51 is_stmt 0
 2728 0d28 93072000 		li	a5,2
 2729              	#APP
 2730              	# 215 "src/kernel/../../h/kernel/riscv.hpp" 1
 2731              		csrc sip, a5
 2732              	# 0 "" 2
 2733              	.LVL209:
 2734              	#NO_APP
 2735              	.LBE160:
 2736              	.LBE159:
 118:src/kernel/riscv.cpp ****         Scheduler::awake();
 2737              		.loc 1 118 9 is_stmt 1
 118:src/kernel/riscv.cpp ****         Scheduler::awake();
GAS LISTING /tmp/cciGQfDY.s 			page 76


 2738              		.loc 1 118 20 is_stmt 0
 2739 0d30 17070000 		lla	a4,.LANCHOR0
 2739      13070700 
 2740 0d38 83378701 		ld	a5,24(a4)
 2741 0d3c 93871700 		addi	a5,a5,1
 2742 0d40 233CF700 		sd	a5,24(a4)
 119:src/kernel/riscv.cpp **** 
 2743              		.loc 1 119 9 is_stmt 1
 119:src/kernel/riscv.cpp **** 
 2744              		.loc 1 119 25 is_stmt 0
 2745 0d44 97000000 		call	_ZN9Scheduler5awakeEv@plt
 2745      E7800000 
 2746              	.LVL210:
 123:src/kernel/riscv.cpp ****         if(TCB::timeSliceCounter >= TCB::running->timeSlice) {
 2747              		.loc 1 123 9 is_stmt 1
 123:src/kernel/riscv.cpp ****         if(TCB::timeSliceCounter >= TCB::running->timeSlice) {
 2748              		.loc 1 123 30 is_stmt 0
 2749 0d4c 17070000 		la	a4,_ZN3TCB16timeSliceCounterE
 2749      03370700 
 2750 0d54 83370700 		ld	a5,0(a4)
 2751 0d58 93871700 		addi	a5,a5,1
 2752 0d5c 2330F700 		sd	a5,0(a4)
 124:src/kernel/riscv.cpp **** 
 2753              		.loc 1 124 9 is_stmt 1
 2754              	.LBB161:
 124:src/kernel/riscv.cpp **** 
 2755              		.loc 1 124 51 is_stmt 0
 2756 0d60 17070000 		la	a4,_ZN3TCB7runningE
 2756      03370700 
 2757 0d68 03370700 		ld	a4,0(a4)
 2758 0d6c 83360703 		ld	a3,48(a4)
 124:src/kernel/riscv.cpp **** 
 2759              		.loc 1 124 9
 2760 0d70 63FCD700 		bgeu	a5,a3,.L144
 2761              	.L135:
 2762              	.LBE161:
 136:src/kernel/riscv.cpp ****         RiscV::w_sepc(sepc);
 2763              		.loc 1 136 9 is_stmt 1
 136:src/kernel/riscv.cpp ****         RiscV::w_sepc(sepc);
 2764              		.loc 1 136 25 is_stmt 0
 2765 0d74 833784FA 		ld	a5,-88(s0)
 2766              	.LVL211:
 2767              	.LBB163:
 2768              	.LBB164:
 189:src/kernel/../../h/kernel/riscv.hpp **** }
 2769              		.loc 2 189 5 is_stmt 1
 189:src/kernel/../../h/kernel/riscv.hpp **** }
 2770              		.loc 2 189 64 is_stmt 0
 2771              	#APP
 2772              	# 189 "src/kernel/../../h/kernel/riscv.hpp" 1
 2773              		csrw sstatus, a5
 2774              	# 0 "" 2
 2775              	.LVL212:
 2776              	#NO_APP
 2777              	.LBE164:
 2778              	.LBE163:
 137:src/kernel/riscv.cpp ****     }
GAS LISTING /tmp/cciGQfDY.s 			page 77


 2779              		.loc 1 137 9 is_stmt 1
 137:src/kernel/riscv.cpp ****     }
 2780              		.loc 1 137 22 is_stmt 0
 2781 0d7c 833704FB 		ld	a5,-80(s0)
 2782              	.LVL213:
 2783              	.LBB165:
 2784              	.LBB166:
 179:src/kernel/../../h/kernel/riscv.hpp **** }
 2785              		.loc 2 179 5 is_stmt 1
 179:src/kernel/../../h/kernel/riscv.hpp **** }
 2786              		.loc 2 179 52 is_stmt 0
 2787              	#APP
 2788              	# 179 "src/kernel/../../h/kernel/riscv.hpp" 1
 180:src/kernel/../../h/kernel/riscv.hpp **** 
 2789              		csrw sepc, a5
 2790              	# 0 "" 2
 2791              		.loc 2 180 1
 2792              	#NO_APP
 2793 0d84 6FF05FE9 		j	.L134
 2794              	.LVL214:
 2795              	.L144:
 2796              	.LBE166:
 2797              	.LBE165:
 2798              	.LBB167:
 2799              	.LBB162:
 126:src/kernel/riscv.cpp **** 
 2800              		.loc 1 126 13 is_stmt 1
 126:src/kernel/riscv.cpp **** 
 2801              		.loc 1 126 35 is_stmt 0
 2802 0d88 97070000 		la	a5,_ZN3TCB16timeSliceCounterE
 2802      83B70700 
 2803 0d90 23B00700 		sd	zero,0(a5)
 128:src/kernel/riscv.cpp **** 
 2804              		.loc 1 128 13 is_stmt 1
 2805              	.LVL215:
 130:src/kernel/riscv.cpp **** 
 2806              		.loc 1 130 13
 130:src/kernel/riscv.cpp **** 
 2807              		.loc 1 130 25 is_stmt 0
 2808 0d94 93071000 		li	a5,1
 2809 0d98 2328F700 		sw	a5,16(a4)
 132:src/kernel/riscv.cpp ****         }
 2810              		.loc 1 132 13 is_stmt 1
 132:src/kernel/riscv.cpp ****         }
 2811              		.loc 1 132 26 is_stmt 0
 2812 0d9c 97000000 		call	_ZN3TCB8dispatchEv@plt
 2812      E7800000 
 2813              	.LVL216:
 2814              	.LBE162:
 2815 0da4 6FF01FFD 		j	.L135
 2816              	.L142:
 2817              	.LBE167:
 2818              	.LBE154:
 2819              	.LBB168:
 2820              	.LBB139:
 144:src/kernel/riscv.cpp ****         uint64 volatile sepc = RiscV::r_sepc();
 2821              		.loc 1 144 9 is_stmt 1
GAS LISTING /tmp/cciGQfDY.s 			page 78


 2822              	.LBB140:
 2823              	.LBB141:
 193:src/kernel/../../h/kernel/riscv.hpp ****     asm("csrr %[sstatus], sstatus" : [sstatus] "=r" (sstatus));
 2824              		.loc 2 193 5
 194:src/kernel/../../h/kernel/riscv.hpp ****     return sstatus;
 2825              		.loc 2 194 5
 194:src/kernel/../../h/kernel/riscv.hpp ****     return sstatus;
 2826              		.loc 2 194 63 is_stmt 0
 2827              	#APP
 2828              	# 194 "src/kernel/../../h/kernel/riscv.hpp" 1
 2829              		csrr a5, sstatus
 2830              	# 0 "" 2
 2831              	.LVL217:
 195:src/kernel/../../h/kernel/riscv.hpp **** }
 2832              		.loc 2 195 5 is_stmt 1
 2833              	#NO_APP
 2834              	.LBE141:
 2835              	.LBE140:
 144:src/kernel/riscv.cpp ****         uint64 volatile sepc = RiscV::r_sepc();
 2836              		.loc 1 144 52 is_stmt 0
 2837 0dac 233CF4FA 		sd	a5,-72(s0)
 145:src/kernel/riscv.cpp **** 
 2838              		.loc 1 145 9 is_stmt 1
 2839              	.LBB142:
 2840              	.LBB143:
 173:src/kernel/../../h/kernel/riscv.hpp ****     asm("csrr %[sepc], sepc" : [sepc] "=r" (sepc));
 2841              		.loc 2 173 5
 174:src/kernel/../../h/kernel/riscv.hpp ****     return sepc;
 2842              		.loc 2 174 5
 174:src/kernel/../../h/kernel/riscv.hpp ****     return sepc;
 2843              		.loc 2 174 51 is_stmt 0
 2844              	#APP
 2845              	# 174 "src/kernel/../../h/kernel/riscv.hpp" 1
 2846              		csrr a5, sepc
 2847              	# 0 "" 2
 2848              	.LVL218:
 175:src/kernel/../../h/kernel/riscv.hpp **** }
 2849              		.loc 2 175 5 is_stmt 1
 2850              	#NO_APP
 2851              	.LBE143:
 2852              	.LBE142:
 145:src/kernel/riscv.cpp **** 
 2853              		.loc 1 145 46 is_stmt 0
 2854 0db4 2330F4FC 		sd	a5,-64(s0)
 148:src/kernel/riscv.cpp ****         asm("mv a0, %[status]" : : [status] "r" (status));
 2855              		.loc 1 148 9 is_stmt 1
 148:src/kernel/riscv.cpp ****         asm("mv a0, %[status]" : : [status] "r" (status));
 2856              		.loc 1 148 16 is_stmt 0
 2857 0db8 97070000 		la	a5,CONSOLE_STATUS
 2857      83B70700 
 2858 0dc0 83B70700 		ld	a5,0(a5)
 2859              	.LVL219:
 149:src/kernel/riscv.cpp ****         asm("lb a1, 0(a0)");
 2860              		.loc 1 149 9 is_stmt 1
 149:src/kernel/riscv.cpp ****         asm("lb a1, 0(a0)");
 2861              		.loc 1 149 58 is_stmt 0
 2862              	#APP
GAS LISTING /tmp/cciGQfDY.s 			page 79


 2863              	# 149 "src/kernel/riscv.cpp" 1
 150:src/kernel/riscv.cpp ****         asm("mv %[status], a1" : [status] "=r" (status));
 2864              		mv a0, a5
 2865              	# 0 "" 2
 2866              		.loc 1 150 9 is_stmt 1
 150:src/kernel/riscv.cpp ****         asm("mv %[status], a1" : [status] "=r" (status));
 2867              		.loc 1 150 28 is_stmt 0
 2868              	# 150 "src/kernel/riscv.cpp" 1
 151:src/kernel/riscv.cpp **** 
 2869              		lb a1, 0(a0)
 2870              	# 0 "" 2
 2871              		.loc 1 151 9 is_stmt 1
 151:src/kernel/riscv.cpp **** 
 2872              		.loc 1 151 57 is_stmt 0
 2873              	# 151 "src/kernel/riscv.cpp" 1
 2874              		mv a5, a1
 2875              	# 0 "" 2
 2876              	.LVL220:
 154:src/kernel/riscv.cpp ****         {
 2877              		.loc 1 154 9 is_stmt 1
 2878              	#NO_APP
 2879              	.LBB144:
 154:src/kernel/riscv.cpp ****         {
 2880              		.loc 1 154 19 is_stmt 0
 2881 0dd0 93F71700 		andi	a5,a5,1
 2882              	.LVL221:
 154:src/kernel/riscv.cpp ****         {
 2883              		.loc 1 154 9
 2884 0dd4 63880702 		beqz	a5,.L137
 2885              	.LBB145:
 157:src/kernel/riscv.cpp ****             char c;
 2886              		.loc 1 157 13 is_stmt 1
 158:src/kernel/riscv.cpp ****             data = CONSOLE_TX_DATA;
 2887              		.loc 1 158 13
 159:src/kernel/riscv.cpp ****             asm("mv a0, %[data]" : : [data] "r" (data));
 2888              		.loc 1 159 13
 159:src/kernel/riscv.cpp ****             asm("mv a0, %[data]" : : [data] "r" (data));
 2889              		.loc 1 159 18 is_stmt 0
 2890 0dd8 97070000 		la	a5,CONSOLE_TX_DATA
 2890      83B70700 
 2891 0de0 83B70700 		ld	a5,0(a5)
 2892              	.LVL222:
 160:src/kernel/riscv.cpp ****             asm("lb a1, 0(a0)");
 2893              		.loc 1 160 13 is_stmt 1
 160:src/kernel/riscv.cpp ****             asm("lb a1, 0(a0)");
 2894              		.loc 1 160 56 is_stmt 0
 2895              	#APP
 2896              	# 160 "src/kernel/riscv.cpp" 1
 161:src/kernel/riscv.cpp ****             asm("mv %[c], a1" : [c] "=r" (c));
 2897              		mv a0, a5
 2898              	# 0 "" 2
 2899              		.loc 1 161 13 is_stmt 1
 161:src/kernel/riscv.cpp ****             asm("mv %[c], a1" : [c] "=r" (c));
 2900              		.loc 1 161 32 is_stmt 0
 2901              	# 161 "src/kernel/riscv.cpp" 1
 162:src/kernel/riscv.cpp **** 
 2902              		lb a1, 0(a0)
GAS LISTING /tmp/cciGQfDY.s 			page 80


 2903              	# 0 "" 2
 2904              		.loc 1 162 13 is_stmt 1
 162:src/kernel/riscv.cpp **** 
 2905              		.loc 1 162 46 is_stmt 0
 2906              	# 162 "src/kernel/riscv.cpp" 1
 2907              		mv a0, a1
 2908              	# 0 "" 2
 2909              	#NO_APP
 2910 0df0 1375F50F 		andi	a0,a0,0xff
 2911              	.LVL223:
 165:src/kernel/riscv.cpp ****                 ConsoleUtil::pendingGetc--;
 2912              		.loc 1 165 13 is_stmt 1
 165:src/kernel/riscv.cpp ****                 ConsoleUtil::pendingGetc--;
 2913              		.loc 1 165 40 is_stmt 0
 2914 0df4 97070000 		la	a5,_ZN11ConsoleUtil11pendingGetcE
 2914      83B70700 
 2915              	.LVL224:
 2916 0dfc 83B70700 		ld	a5,0(a5)
 165:src/kernel/riscv.cpp ****                 ConsoleUtil::pendingGetc--;
 2917              		.loc 1 165 13
 2918 0e00 63940702 		bnez	a5,.L145
 2919              	.LVL225:
 2920              	.L137:
 2921              	.LBE145:
 2922              	.LBE144:
 170:src/kernel/riscv.cpp **** 
 2923              		.loc 1 170 9 is_stmt 1
 170:src/kernel/riscv.cpp **** 
 2924              		.loc 1 170 22 is_stmt 0
 2925 0e04 97000000 		call	plic_claim@plt
 2925      E7800000 
 2926              	.LVL226:
 2927 0e0c 97000000 		call	plic_complete@plt
 2927      E7800000 
 2928              	.LVL227:
 172:src/kernel/riscv.cpp ****         RiscV::w_sepc(sepc);
 2929              		.loc 1 172 9 is_stmt 1
 172:src/kernel/riscv.cpp ****         RiscV::w_sepc(sepc);
 2930              		.loc 1 172 25 is_stmt 0
 2931 0e14 833784FB 		ld	a5,-72(s0)
 2932              	.LVL228:
 2933              	.LBB147:
 2934              	.LBB148:
 189:src/kernel/../../h/kernel/riscv.hpp **** }
 2935              		.loc 2 189 5 is_stmt 1
 189:src/kernel/../../h/kernel/riscv.hpp **** }
 2936              		.loc 2 189 64 is_stmt 0
 2937              	#APP
 2938              	# 189 "src/kernel/../../h/kernel/riscv.hpp" 1
 2939              		csrw sstatus, a5
 2940              	# 0 "" 2
 2941              	.LVL229:
 2942              	#NO_APP
 2943              	.LBE148:
 2944              	.LBE147:
 173:src/kernel/riscv.cpp ****     }
 2945              		.loc 1 173 9 is_stmt 1
GAS LISTING /tmp/cciGQfDY.s 			page 81


 173:src/kernel/riscv.cpp ****     }
 2946              		.loc 1 173 22 is_stmt 0
 2947 0e1c 833704FC 		ld	a5,-64(s0)
 2948              	.LVL230:
 2949              	.LBB149:
 2950              	.LBB150:
 179:src/kernel/../../h/kernel/riscv.hpp **** }
 2951              		.loc 2 179 5 is_stmt 1
 179:src/kernel/../../h/kernel/riscv.hpp **** }
 2952              		.loc 2 179 52 is_stmt 0
 2953              	#APP
 2954              	# 179 "src/kernel/../../h/kernel/riscv.hpp" 1
 180:src/kernel/../../h/kernel/riscv.hpp **** 
 2955              		csrw sepc, a5
 2956              	# 0 "" 2
 2957              		.loc 2 180 1
 2958              	#NO_APP
 2959 0e24 6FF05FDF 		j	.L134
 2960              	.LVL231:
 2961              	.L145:
 2962              	.LBE150:
 2963              	.LBE149:
 2964              	.LBB151:
 2965              	.LBB146:
 166:src/kernel/riscv.cpp ****                 ConsoleUtil::putInput(c);
 2966              		.loc 1 166 17 is_stmt 1
 166:src/kernel/riscv.cpp ****                 ConsoleUtil::putInput(c);
 2967              		.loc 1 166 41 is_stmt 0
 2968 0e28 9387F7FF 		addi	a5,a5,-1
 2969 0e2c 17070000 		la	a4,_ZN11ConsoleUtil11pendingGetcE
 2969      03370700 
 2970 0e34 2330F700 		sd	a5,0(a4)
 167:src/kernel/riscv.cpp ****             }
 2971              		.loc 1 167 17 is_stmt 1
 167:src/kernel/riscv.cpp ****             }
 2972              		.loc 1 167 38 is_stmt 0
 2973 0e38 97000000 		call	_ZN11ConsoleUtil8putInputEc@plt
 2973      E7800000 
 2974              	.LVL232:
 2975 0e40 6FF05FFC 		j	.L137
 2976              	.LVL233:
 2977              	.L143:
 2978              	.LBE146:
 2979              	.LBE151:
 2980              	.LBE139:
 2981              	.LBB152:
 2982              	.LBB136:
 178:src/kernel/riscv.cpp ****         old->status = TCB::Status::FINISHED;
 2983              		.loc 1 178 9 is_stmt 1
 178:src/kernel/riscv.cpp ****         old->status = TCB::Status::FINISHED;
 2984              		.loc 1 178 14 is_stmt 0
 2985 0e44 97070000 		la	a5,_ZN3TCB7runningE
 2985      83B70700 
 2986 0e4c 83B70700 		ld	a5,0(a5)
 2987              	.LVL234:
 179:src/kernel/riscv.cpp ****         ConsoleUtil::printString("sepc: ");
 2988              		.loc 1 179 9 is_stmt 1
GAS LISTING /tmp/cciGQfDY.s 			page 82


 179:src/kernel/riscv.cpp ****         ConsoleUtil::printString("sepc: ");
 2989              		.loc 1 179 21 is_stmt 0
 2990 0e50 13072000 		li	a4,2
 2991 0e54 23A8E700 		sw	a4,16(a5)
 180:src/kernel/riscv.cpp ****         uint64 sepc = RiscV::r_sepc();
 2992              		.loc 1 180 9 is_stmt 1
 180:src/kernel/riscv.cpp ****         uint64 sepc = RiscV::r_sepc();
 2993              		.loc 1 180 33 is_stmt 0
 2994 0e58 17050000 		lla	a0,.LC0
 2994      13050500 
 2995 0e60 97000000 		call	_ZN11ConsoleUtil11printStringEPKc@plt
 2995      E7800000 
 2996              	.LVL235:
 181:src/kernel/riscv.cpp ****         ConsoleUtil::printInt(sepc,16);
 2997              		.loc 1 181 9 is_stmt 1
 2998              	.LBB137:
 2999              	.LBB138:
 173:src/kernel/../../h/kernel/riscv.hpp ****     asm("csrr %[sepc], sepc" : [sepc] "=r" (sepc));
 3000              		.loc 2 173 5
 174:src/kernel/../../h/kernel/riscv.hpp ****     return sepc;
 3001              		.loc 2 174 5
 174:src/kernel/../../h/kernel/riscv.hpp ****     return sepc;
 3002              		.loc 2 174 51 is_stmt 0
 3003              	#APP
 3004              	# 174 "src/kernel/../../h/kernel/riscv.hpp" 1
 175:src/kernel/../../h/kernel/riscv.hpp **** }
 3005              		csrr a0, sepc
 3006              	# 0 "" 2
 3007              		.loc 2 175 5 is_stmt 1
 3008              	#NO_APP
 3009              	.LBE138:
 3010              	.LBE137:
 182:src/kernel/riscv.cpp ****         ConsoleUtil::printString("\n");
 3011              		.loc 1 182 9
 182:src/kernel/riscv.cpp ****         ConsoleUtil::printString("\n");
 3012              		.loc 1 182 30 is_stmt 0
 3013 0e6c 13060000 		li	a2,0
 3014 0e70 93050001 		li	a1,16
 3015 0e74 1B050500 		sext.w	a0,a0
 3016 0e78 97000000 		call	_ZN11ConsoleUtil8printIntEiii@plt
 3016      E7800000 
 3017              	.LVL236:
 183:src/kernel/riscv.cpp ****         ConsoleUtil::printString("Illegal instruction\nExiting thread...\n");
 3018              		.loc 1 183 9 is_stmt 1
 183:src/kernel/riscv.cpp ****         ConsoleUtil::printString("Illegal instruction\nExiting thread...\n");
 3019              		.loc 1 183 33 is_stmt 0
 3020 0e80 17050000 		lla	a0,.LC1
 3020      13050500 
 3021 0e88 97000000 		call	_ZN11ConsoleUtil11printStringEPKc@plt
 3021      E7800000 
 3022              	.LVL237:
 184:src/kernel/riscv.cpp ****         TCB::dispatch();
 3023              		.loc 1 184 9 is_stmt 1
 184:src/kernel/riscv.cpp ****         TCB::dispatch();
 3024              		.loc 1 184 33 is_stmt 0
 3025 0e90 17050000 		lla	a0,.LC2
 3025      13050500 
GAS LISTING /tmp/cciGQfDY.s 			page 83


 3026 0e98 97000000 		call	_ZN11ConsoleUtil11printStringEPKc@plt
 3026      E7800000 
 3027              	.LVL238:
 185:src/kernel/riscv.cpp ****     }
 3028              		.loc 1 185 9 is_stmt 1
 185:src/kernel/riscv.cpp ****     }
 3029              		.loc 1 185 22 is_stmt 0
 3030 0ea0 97000000 		call	_ZN3TCB8dispatchEv@plt
 3030      E7800000 
 3031              	.LVL239:
 3032              	.LBE136:
 3033 0ea8 6FF01FD7 		j	.L134
 3034              	.LBE152:
 3035              	.LBE168:
 3036              	.LBE181:
 3037              	.LBE185:
 3038              		.cfi_endproc
 3039              	.LFE46:
 3041              		.align	2
 3042              		.globl	_ZN5RiscV16threadCreateUtilEPP3TCBPFvPvES3_
 3044              	_ZN5RiscV16threadCreateUtilEPP3TCBPFvPvES3_:
 3045              	.LFB70:
 717:src/kernel/riscv.cpp **** 
 718:src/kernel/riscv.cpp **** void RiscV::threadCreateUtil(TCB **handle, void (*start_routine)(void *), void *arg) {
 3046              		.loc 1 718 86 is_stmt 1
 3047              		.cfi_startproc
 3048              	.LVL240:
 3049 0eac 130101FD 		addi	sp,sp,-48
 3050              		.cfi_def_cfa_offset 48
 3051 0eb0 23341102 		sd	ra,40(sp)
 3052 0eb4 23308102 		sd	s0,32(sp)
 3053 0eb8 233C9100 		sd	s1,24(sp)
 3054 0ebc 23382101 		sd	s2,16(sp)
 3055 0ec0 23343101 		sd	s3,8(sp)
 3056              		.cfi_offset 1, -8
 3057              		.cfi_offset 8, -16
 3058              		.cfi_offset 9, -24
 3059              		.cfi_offset 18, -32
 3060              		.cfi_offset 19, -40
 3061 0ec4 13040103 		addi	s0,sp,48
 3062              		.cfi_def_cfa 8, 0
 3063 0ec8 13090500 		mv	s2,a0
 3064 0ecc 93840500 		mv	s1,a1
 3065 0ed0 93090600 		mv	s3,a2
 719:src/kernel/riscv.cpp ****     uint64 ihandle = (uint64)handle;
 3066              		.loc 1 719 5
 3067              	.LVL241:
 720:src/kernel/riscv.cpp ****     uint64 iroutine = (uint64)start_routine;
 3068              		.loc 1 720 5
 721:src/kernel/riscv.cpp ****     uint64 iarg = (uint64)arg;
 3069              		.loc 1 721 5
 722:src/kernel/riscv.cpp ****     uint64 istack = 0;
 3070              		.loc 1 722 5
 723:src/kernel/riscv.cpp **** 
 724:src/kernel/riscv.cpp ****     if(start_routine) {
 3071              		.loc 1 724 5
 3072 0ed4 638E0500 		beqz	a1,.L149
GAS LISTING /tmp/cciGQfDY.s 			page 84


 725:src/kernel/riscv.cpp ****         istack = (uint64) MemoryAllocator::kmalloc((DEFAULT_STACK_SIZE+MEM_BLOCK_SIZE-1)/MEM_BLOCK_
 3073              		.loc 1 725 9
 3074              		.loc 1 725 51 is_stmt 0
 3075 0ed8 13050004 		li	a0,64
 3076              	.LVL242:
 3077 0edc 97000000 		call	_ZN15MemoryAllocator7kmallocEm@plt
 3077      E7800000 
 3078              	.LVL243:
 726:src/kernel/riscv.cpp ****         if(istack == 0) {
 3079              		.loc 1 726 9 is_stmt 1
 3080 0ee4 63180500 		bnez	a0,.L147
 727:src/kernel/riscv.cpp ****             *handle = nullptr;
 3081              		.loc 1 727 13
 3082              		.loc 1 727 21 is_stmt 0
 3083 0ee8 23300900 		sd	zero,0(s2)
 728:src/kernel/riscv.cpp ****             return;
 3084              		.loc 1 728 13 is_stmt 1
 3085 0eec 6F000002 		j	.L146
 3086              	.LVL244:
 3087              	.L149:
 722:src/kernel/riscv.cpp **** 
 3088              		.loc 1 722 12 is_stmt 0
 3089 0ef0 13050000 		li	a0,0
 3090              	.LVL245:
 3091              	.L147:
 729:src/kernel/riscv.cpp ****         }
 730:src/kernel/riscv.cpp ****     }
 731:src/kernel/riscv.cpp **** 
 732:src/kernel/riscv.cpp ****     asm("mv a7, %[istack]" : : [istack] "r" (istack));
 3092              		.loc 1 732 5 is_stmt 1
 3093              		.loc 1 732 54 is_stmt 0
 3094              	#APP
 3095              	# 732 "src/kernel/riscv.cpp" 1
 733              	    asm("mv a3, %[iarg]" : : [iarg] "r" (iarg));
 3096              		mv a7, a0
 3097              	# 0 "" 2
 3098              		.loc 1 733 5 is_stmt 1
 3099              		.loc 1 733 48 is_stmt 0
 3100              	# 733 "src/kernel/riscv.cpp" 1
 734              	    asm("mv a2, %[iroutine]" : : [iroutine] "r" (iroutine));
 3101              		mv a3, s3
 3102              	# 0 "" 2
 3103              		.loc 1 734 5 is_stmt 1
 3104              		.loc 1 734 60 is_stmt 0
 3105              	# 734 "src/kernel/riscv.cpp" 1
 735              	    asm("mv a1, %[ihandle]" : : [ihandle] "r" (ihandle));
 3106              		mv a2, s1
 3107              	# 0 "" 2
 3108              		.loc 1 735 5 is_stmt 1
 3109              		.loc 1 735 57 is_stmt 0
 3110              	# 735 "src/kernel/riscv.cpp" 1
 736              	    asm("li a0, 0x11");
 3111              		mv a1, s2
 3112              	# 0 "" 2
 3113              		.loc 1 736 5 is_stmt 1
 3114              		.loc 1 736 23 is_stmt 0
 3115              	# 736 "src/kernel/riscv.cpp" 1
GAS LISTING /tmp/cciGQfDY.s 			page 85


 737              	
 738:src/kernel/riscv.cpp ****     asm("ecall");
 3116              		li a0, 0x11
 3117              	# 0 "" 2
 3118              		.loc 1 738 5 is_stmt 1
 3119              		.loc 1 738 17 is_stmt 0
 3120              	# 738 "src/kernel/riscv.cpp" 1
 739              	
 740:src/kernel/riscv.cpp ****     uint64 status;
 3121              		ecall
 3122              	# 0 "" 2
 3123              		.loc 1 740 5 is_stmt 1
 741:src/kernel/riscv.cpp **** 
 742:src/kernel/riscv.cpp ****     asm("mv %[status], a0" : [status] "=r" (status));
 3124              		.loc 1 742 5
 3125              	.LVL246:
 3126              	#NO_APP
 3127              	.L146:
 743:src/kernel/riscv.cpp **** 
 744:src/kernel/riscv.cpp **** }
 3128              		.loc 1 744 1 is_stmt 0
 3129 0f0c 83308102 		ld	ra,40(sp)
 3130              		.cfi_restore 1
 3131 0f10 03340102 		ld	s0,32(sp)
 3132              		.cfi_restore 8
 3133              		.cfi_def_cfa 2, 48
 3134 0f14 83348101 		ld	s1,24(sp)
 3135              		.cfi_restore 9
 3136              	.LVL247:
 3137 0f18 03390101 		ld	s2,16(sp)
 3138              		.cfi_restore 18
 3139              	.LVL248:
 3140 0f1c 83398100 		ld	s3,8(sp)
 3141              		.cfi_restore 19
 3142              	.LVL249:
 3143 0f20 13010103 		addi	sp,sp,48
 3144              		.cfi_def_cfa_offset 0
 3145 0f24 67800000 		jr	ra
 3146              		.cfi_endproc
 3147              	.LFE70:
 3149              		.align	2
 3150              		.globl	_ZN5RiscV14threadExitUtilEv
 3152              	_ZN5RiscV14threadExitUtilEv:
 3153              	.LFB71:
 745:src/kernel/riscv.cpp **** 
 746:src/kernel/riscv.cpp **** void RiscV::threadExitUtil() {
 3154              		.loc 1 746 30 is_stmt 1
 3155              		.cfi_startproc
 3156 0f28 130101FF 		addi	sp,sp,-16
 3157              		.cfi_def_cfa_offset 16
 3158 0f2c 23348100 		sd	s0,8(sp)
 3159              		.cfi_offset 8, -8
 3160 0f30 13040101 		addi	s0,sp,16
 3161              		.cfi_def_cfa 8, 0
 747:src/kernel/riscv.cpp ****     asm("li a0, 0x12");
 3162              		.loc 1 747 5
 3163              		.loc 1 747 23 is_stmt 0
GAS LISTING /tmp/cciGQfDY.s 			page 86


 3164              	#APP
 3165              	# 747 "src/kernel/riscv.cpp" 1
 748              	
 749:src/kernel/riscv.cpp ****     asm("ecall");
 3166              		li a0, 0x12
 3167              	# 0 "" 2
 3168              		.loc 1 749 5 is_stmt 1
 3169              		.loc 1 749 17 is_stmt 0
 3170              	# 749 "src/kernel/riscv.cpp" 1
 750              	
 751:src/kernel/riscv.cpp ****     uint64 status;
 3171              		ecall
 3172              	# 0 "" 2
 3173              		.loc 1 751 5 is_stmt 1
 752:src/kernel/riscv.cpp **** 
 753:src/kernel/riscv.cpp ****     asm("mv %[status], a0" : [status] "=r" (status));
 3174              		.loc 1 753 5
 3175              	.LVL250:
 754:src/kernel/riscv.cpp **** }
 3176              		.loc 1 754 1 is_stmt 0
 3177              	#NO_APP
 3178 0f3c 03348100 		ld	s0,8(sp)
 3179              		.cfi_restore 8
 3180              		.cfi_def_cfa 2, 16
 3181 0f40 13010101 		addi	sp,sp,16
 3182              		.cfi_def_cfa_offset 0
 3183 0f44 67800000 		jr	ra
 3184              		.cfi_endproc
 3185              	.LFE71:
 3187              		.align	2
 3188              		.globl	_ZN5RiscV18threadDispatchUtilEv
 3190              	_ZN5RiscV18threadDispatchUtilEv:
 3191              	.LFB72:
 755:src/kernel/riscv.cpp **** 
 756:src/kernel/riscv.cpp **** void RiscV::threadDispatchUtil() {
 3192              		.loc 1 756 34 is_stmt 1
 3193              		.cfi_startproc
 3194 0f48 130101FF 		addi	sp,sp,-16
 3195              		.cfi_def_cfa_offset 16
 3196 0f4c 23348100 		sd	s0,8(sp)
 3197              		.cfi_offset 8, -8
 3198 0f50 13040101 		addi	s0,sp,16
 3199              		.cfi_def_cfa 8, 0
 757:src/kernel/riscv.cpp ****     asm("li a0, 0x13");
 3200              		.loc 1 757 5
 3201              		.loc 1 757 23 is_stmt 0
 3202              	#APP
 3203              	# 757 "src/kernel/riscv.cpp" 1
 758              	
 759:src/kernel/riscv.cpp ****     asm("ecall");
 3204              		li a0, 0x13
 3205              	# 0 "" 2
 3206              		.loc 1 759 5 is_stmt 1
 3207              		.loc 1 759 17 is_stmt 0
 3208              	# 759 "src/kernel/riscv.cpp" 1
 760              	}
 3209              		ecall
GAS LISTING /tmp/cciGQfDY.s 			page 87


 3210              	# 0 "" 2
 3211              		.loc 1 760 1
 3212              	#NO_APP
 3213 0f5c 03348100 		ld	s0,8(sp)
 3214              		.cfi_restore 8
 3215              		.cfi_def_cfa 2, 16
 3216 0f60 13010101 		addi	sp,sp,16
 3217              		.cfi_def_cfa_offset 0
 3218 0f64 67800000 		jr	ra
 3219              		.cfi_endproc
 3220              	.LFE72:
 3222              		.align	2
 3223              		.globl	_ZN5RiscV11putcWrapperEPv
 3225              	_ZN5RiscV11putcWrapperEPv:
 3226              	.LFB61:
 524:src/kernel/riscv.cpp ****     while(true)
 3227              		.loc 1 524 1 is_stmt 1
 3228              		.cfi_startproc
 3229              	.LVL251:
 3230 0f68 130101FE 		addi	sp,sp,-32
 3231              		.cfi_def_cfa_offset 32
 3232 0f6c 233C1100 		sd	ra,24(sp)
 3233 0f70 23388100 		sd	s0,16(sp)
 3234              		.cfi_offset 1, -8
 3235              		.cfi_offset 8, -16
 3236 0f74 13040102 		addi	s0,sp,32
 3237              		.cfi_def_cfa 8, 0
 3238 0f78 6F00C000 		j	.L156
 3239              	.LVL252:
 3240              	.L157:
 3241              	.LBB186:
 3242              	.LBB187:
 548:src/kernel/riscv.cpp ****     }
 3243              		.loc 1 548 13
 548:src/kernel/riscv.cpp ****     }
 3244              		.loc 1 548 38 is_stmt 0
 3245 0f7c 97000000 		call	_ZN5RiscV18threadDispatchUtilEv
 3245      E7800000 
 3246              	.LVL253:
 3247              	.L156:
 3248              	.LBE187:
 3249              	.LBE186:
 525:src/kernel/riscv.cpp ****     {
 3250              		.loc 1 525 5 is_stmt 1
 3251              	.LBB190:
 528:src/kernel/riscv.cpp ****         asm("mv a0, %[status]" : : [status] "r" (status));
 3252              		.loc 1 528 9
 528:src/kernel/riscv.cpp ****         asm("mv a0, %[status]" : : [status] "r" (status));
 3253              		.loc 1 528 16 is_stmt 0
 3254 0f84 97070000 		la	a5,CONSOLE_STATUS
 3254      83B70700 
 3255 0f8c 83B70700 		ld	a5,0(a5)
 3256              	.LVL254:
 529:src/kernel/riscv.cpp ****         asm("lb a1, 0(a0)");
 3257              		.loc 1 529 9 is_stmt 1
 529:src/kernel/riscv.cpp ****         asm("lb a1, 0(a0)");
 3258              		.loc 1 529 58 is_stmt 0
GAS LISTING /tmp/cciGQfDY.s 			page 88


 3259              	#APP
 3260              	# 529 "src/kernel/riscv.cpp" 1
 530:src/kernel/riscv.cpp ****         asm("mv %[status], a1" : [status] "=r" (status));
 3261              		mv a0, a5
 3262              	# 0 "" 2
 3263              		.loc 1 530 9 is_stmt 1
 530:src/kernel/riscv.cpp ****         asm("mv %[status], a1" : [status] "=r" (status));
 3264              		.loc 1 530 28 is_stmt 0
 3265              	# 530 "src/kernel/riscv.cpp" 1
 531:src/kernel/riscv.cpp **** 
 3266              		lb a1, 0(a0)
 3267              	# 0 "" 2
 3268              		.loc 1 531 9 is_stmt 1
 531:src/kernel/riscv.cpp **** 
 3269              		.loc 1 531 57 is_stmt 0
 3270              	# 531 "src/kernel/riscv.cpp" 1
 3271              		mv a5, a1
 3272              	# 0 "" 2
 3273              	.LVL255:
 534:src/kernel/riscv.cpp **** 
 3274              		.loc 1 534 9 is_stmt 1
 3275              	#NO_APP
 3276              	.LBB189:
 534:src/kernel/riscv.cpp **** 
 3277              		.loc 1 534 19 is_stmt 0
 3278 0f9c 93F70702 		andi	a5,a5,32
 3279              	.LVL256:
 534:src/kernel/riscv.cpp **** 
 3280              		.loc 1 534 9
 3281 0fa0 E38E07FC 		beqz	a5,.L157
 3282              	.LBB188:
 537:src/kernel/riscv.cpp ****                 uint64 data = CONSOLE_RX_DATA;
 3283              		.loc 1 537 17 is_stmt 1
 537:src/kernel/riscv.cpp ****                 uint64 data = CONSOLE_RX_DATA;
 3284              		.loc 1 537 63 is_stmt 0
 3285 0fa4 97000000 		call	_ZN11ConsoleUtil15putcUtilSyscallEv@plt
 3285      E7800000 
 3286              	.LVL257:
 537:src/kernel/riscv.cpp ****                 uint64 data = CONSOLE_RX_DATA;
 3287              		.loc 1 537 64
 3288 0fac A307A4FE 		sb	a0,-17(s0)
 538:src/kernel/riscv.cpp ****                 asm("mv a0, %[data]" : : [data] "r"(data));
 3289              		.loc 1 538 17 is_stmt 1
 538:src/kernel/riscv.cpp ****                 asm("mv a0, %[data]" : : [data] "r"(data));
 3290              		.loc 1 538 24 is_stmt 0
 3291 0fb0 97070000 		la	a5,CONSOLE_RX_DATA
 3291      83B70700 
 3292 0fb8 83B70700 		ld	a5,0(a5)
 3293              	.LVL258:
 539:src/kernel/riscv.cpp ****                 asm("mv a1, %[c]" : : [c] "r"(c));
 3294              		.loc 1 539 17 is_stmt 1
 539:src/kernel/riscv.cpp ****                 asm("mv a1, %[c]" : : [c] "r"(c));
 3295              		.loc 1 539 59 is_stmt 0
 3296              	#APP
 3297              	# 539 "src/kernel/riscv.cpp" 1
 540:src/kernel/riscv.cpp ****                 asm("sb a1,0(a0)");
 3298              		mv a0, a5
GAS LISTING /tmp/cciGQfDY.s 			page 89


 3299              	# 0 "" 2
 3300              		.loc 1 540 17 is_stmt 1
 540:src/kernel/riscv.cpp ****                 asm("sb a1,0(a0)");
 3301              		.loc 1 540 47 is_stmt 0
 3302              	#NO_APP
 3303 0fc0 8347F4FE 		lbu	a5,-17(s0)
 3304              	.LVL259:
 540:src/kernel/riscv.cpp ****                 asm("sb a1,0(a0)");
 3305              		.loc 1 540 50
 3306              	#APP
 3307              	# 540 "src/kernel/riscv.cpp" 1
 541:src/kernel/riscv.cpp **** 
 3308              		mv a1, a5
 3309              	# 0 "" 2
 3310              		.loc 1 541 17 is_stmt 1
 541:src/kernel/riscv.cpp **** 
 3311              		.loc 1 541 35 is_stmt 0
 3312              	# 541 "src/kernel/riscv.cpp" 1
 544:src/kernel/riscv.cpp ****                 ConsoleUtil::pendingPutc--;
 3313              		sb a1,0(a0)
 3314              	# 0 "" 2
 3315              		.loc 1 544 13 is_stmt 1
 544:src/kernel/riscv.cpp ****                 ConsoleUtil::pendingPutc--;
 3316              		.loc 1 544 40 is_stmt 0
 3317              	#NO_APP
 3318 0fcc 97070000 		la	a5,_ZN11ConsoleUtil11pendingPutcE
 3318      83B70700 
 3319 0fd4 83B70700 		ld	a5,0(a5)
 544:src/kernel/riscv.cpp ****                 ConsoleUtil::pendingPutc--;
 3320              		.loc 1 544 13
 3321 0fd8 E38607FA 		beqz	a5,.L156
 545:src/kernel/riscv.cpp ****         }
 3322              		.loc 1 545 17 is_stmt 1
 545:src/kernel/riscv.cpp ****         }
 3323              		.loc 1 545 41 is_stmt 0
 3324 0fdc 9387F7FF 		addi	a5,a5,-1
 3325 0fe0 17070000 		la	a4,_ZN11ConsoleUtil11pendingPutcE
 3325      03370700 
 3326 0fe8 2330F700 		sd	a5,0(a4)
 3327 0fec 6FF09FF9 		j	.L156
 3328              	.LBE188:
 3329              	.LBE189:
 3330              	.LBE190:
 3331              		.cfi_endproc
 3332              	.LFE61:
 3334              		.align	2
 3335              		.globl	_ZN5RiscV6getPMTEv
 3337              	_ZN5RiscV6getPMTEv:
 3338              	.LFB76:
 761:src/kernel/riscv.cpp **** 
 762:src/kernel/riscv.cpp **** void RiscV::buildSection(void *PMT, uint64 start, uint64 end, uint64 mask) {
 763:src/kernel/riscv.cpp ****     for(uint64 i=start;i< end;i+=0x1000) {
 764:src/kernel/riscv.cpp ****         handlePageFault(PMT,i, mask);
 765:src/kernel/riscv.cpp ****     }
 766:src/kernel/riscv.cpp **** }
 767:src/kernel/riscv.cpp **** 
 768:src/kernel/riscv.cpp **** void RiscV::buildKernelPMT() {
GAS LISTING /tmp/cciGQfDY.s 			page 90


 769:src/kernel/riscv.cpp ****     RiscV::kPMT = RiscV::getPMT();
 770:src/kernel/riscv.cpp ****     uint64 bEnd = ((uint64)Buddy::BUDDY_START_ADDR + (Buddy::BLOCKS_AVAILABLE<<12));
 771:src/kernel/riscv.cpp **** 
 772:src/kernel/riscv.cpp **** 
 773:src/kernel/riscv.cpp ****     RiscV::buildSection(kPMT, OS_ENTRY, KERNEL_TEXT_END, 0xb);
 774:src/kernel/riscv.cpp ****     RiscV::buildSection(kPMT, KERNEL_TEXT_END, USER_TEXT_START, 0x7);
 775:src/kernel/riscv.cpp ****     RiscV::buildSection(kPMT, USER_TEXT_START, USER_DATA_START, 0x1b);
 776:src/kernel/riscv.cpp ****     RiscV::buildSection(kPMT, USER_DATA_START, USER_DATA_END, 0x17);
 777:src/kernel/riscv.cpp ****     RiscV::buildSection(kPMT, USER_DATA_END, bEnd, 0x7);
 778:src/kernel/riscv.cpp ****     RiscV::buildSection(kPMT, bEnd, HEAP_END, 0x17);
 779:src/kernel/riscv.cpp **** 
 780:src/kernel/riscv.cpp ****     RiscV::mapConsoleRegisters(kPMT);
 781:src/kernel/riscv.cpp ****     RiscV::ms_sstatus(1<<18);
 782:src/kernel/riscv.cpp **** }
 783:src/kernel/riscv.cpp **** 
 784:src/kernel/riscv.cpp **** void RiscV::buildUserPMT() {
 785:src/kernel/riscv.cpp ****     RiscV::uPMT = RiscV::getPMT();
 786:src/kernel/riscv.cpp ****     uint64 bEnd = ((uint64)Buddy::BUDDY_START_ADDR + (Buddy::BLOCKS_AVAILABLE<<12));
 787:src/kernel/riscv.cpp **** 
 788:src/kernel/riscv.cpp **** 
 789:src/kernel/riscv.cpp ****     RiscV::buildSection(uPMT, OS_ENTRY, KERNEL_TEXT_END, 0xb);
 790:src/kernel/riscv.cpp ****     RiscV::buildSection(uPMT, KERNEL_TEXT_END, USER_TEXT_START, 0x7);
 791:src/kernel/riscv.cpp ****     RiscV::buildSection(uPMT, USER_TEXT_START, USER_DATA_START, 0x1b);
 792:src/kernel/riscv.cpp ****     RiscV::buildSection(uPMT, USER_DATA_START, USER_DATA_END, 0x17);
 793:src/kernel/riscv.cpp ****     RiscV::buildSection(uPMT, USER_DATA_END, bEnd, 0x7);
 794:src/kernel/riscv.cpp ****     RiscV::buildSection(uPMT, bEnd, HEAP_END, 0x17);
 795:src/kernel/riscv.cpp **** 
 796:src/kernel/riscv.cpp ****     RiscV::mapConsoleRegisters(uPMT);
 797:src/kernel/riscv.cpp ****     RiscV::ms_sstatus(1<<18);
 798:src/kernel/riscv.cpp **** }
 799:src/kernel/riscv.cpp **** 
 800:src/kernel/riscv.cpp **** void* RiscV::getPMT(){
 3339              		.loc 1 800 22 is_stmt 1
 3340              		.cfi_startproc
 3341 0ff0 130101FF 		addi	sp,sp,-16
 3342              		.cfi_def_cfa_offset 16
 3343 0ff4 23341100 		sd	ra,8(sp)
 3344 0ff8 23308100 		sd	s0,0(sp)
 3345              		.cfi_offset 1, -8
 3346              		.cfi_offset 8, -16
 3347 0ffc 13040101 		addi	s0,sp,16
 3348              		.cfi_def_cfa 8, 0
 801:src/kernel/riscv.cpp ****     void* ret = Buddy::alloc(1);
 3349              		.loc 1 801 5
 3350              		.loc 1 801 29 is_stmt 0
 3351 1000 13051000 		li	a0,1
 3352 1004 97000000 		call	_ZN5Buddy5allocEm@plt
 3352      E7800000 
 3353              	.LVL260:
 802:src/kernel/riscv.cpp ****     uint64* arr = (uint64*)ret;
 3354              		.loc 1 802 5 is_stmt 1
 803:src/kernel/riscv.cpp ****     for(int i=0;i<512;i++)
 3355              		.loc 1 803 5
 3356              	.LBB191:
 3357              		.loc 1 803 13 is_stmt 0
 3358 100c 93070000 		li	a5,0
 3359              	.LVL261:
GAS LISTING /tmp/cciGQfDY.s 			page 91


 3360              	.L162:
 3361              		.loc 1 803 18 is_stmt 1 discriminator 3
 3362 1010 1307F01F 		li	a4,511
 3363 1014 634CF700 		bgt	a5,a4,.L160
 804:src/kernel/riscv.cpp ****         arr[i] = 0;
 3364              		.loc 1 804 9 discriminator 2
 3365              		.loc 1 804 14 is_stmt 0 discriminator 2
 3366 1018 13973700 		slli	a4,a5,3
 3367 101c 3307E500 		add	a4,a0,a4
 3368              		.loc 1 804 16 discriminator 2
 3369 1020 23300700 		sd	zero,0(a4)
 803:src/kernel/riscv.cpp ****     for(int i=0;i<512;i++)
 3370              		.loc 1 803 5 is_stmt 1 discriminator 2
 3371 1024 9B871700 		addiw	a5,a5,1
 3372              	.LVL262:
 3373 1028 6FF09FFE 		j	.L162
 3374              	.LVL263:
 3375              	.L160:
 3376              	.LBE191:
 805:src/kernel/riscv.cpp ****     return ret;
 806:src/kernel/riscv.cpp **** }
 3377              		.loc 1 806 1 is_stmt 0
 3378 102c 83308100 		ld	ra,8(sp)
 3379              		.cfi_restore 1
 3380 1030 03340100 		ld	s0,0(sp)
 3381              		.cfi_restore 8
 3382              		.cfi_def_cfa 2, 16
 3383 1034 13010101 		addi	sp,sp,16
 3384              		.cfi_def_cfa_offset 0
 3385 1038 67800000 		jr	ra
 3386              		.cfi_endproc
 3387              	.LFE76:
 3389              		.align	2
 3390              		.globl	_ZN5RiscV15handlePageFaultEPvmm
 3392              	_ZN5RiscV15handlePageFaultEPvmm:
 3393              	.LFB77:
 807:src/kernel/riscv.cpp **** 
 808:src/kernel/riscv.cpp **** void RiscV::handlePageFault(void* PMT, uint64 addr, uint64 mask){
 3394              		.loc 1 808 65 is_stmt 1
 3395              		.cfi_startproc
 3396              	.LVL264:
 3397 103c 130101FC 		addi	sp,sp,-64
 3398              		.cfi_def_cfa_offset 64
 3399 1040 233C1102 		sd	ra,56(sp)
 3400 1044 23388102 		sd	s0,48(sp)
 3401 1048 23349102 		sd	s1,40(sp)
 3402 104c 23302103 		sd	s2,32(sp)
 3403 1050 233C3101 		sd	s3,24(sp)
 3404 1054 23384101 		sd	s4,16(sp)
 3405 1058 23345101 		sd	s5,8(sp)
 3406              		.cfi_offset 1, -8
 3407              		.cfi_offset 8, -16
 3408              		.cfi_offset 9, -24
 3409              		.cfi_offset 18, -32
 3410              		.cfi_offset 19, -40
 3411              		.cfi_offset 20, -48
 3412              		.cfi_offset 21, -56
GAS LISTING /tmp/cciGQfDY.s 			page 92


 3413 105c 13040104 		addi	s0,sp,64
 3414              		.cfi_def_cfa 8, 0
 3415 1060 93090600 		mv	s3,a2
 809:src/kernel/riscv.cpp ****     uint64 pmt2Entry = (addr >> 30) & (0x1ff);;
 3416              		.loc 1 809 5
 3417              		.loc 1 809 30 is_stmt 0
 3418 1064 93D7E501 		srli	a5,a1,30
 3419              		.loc 1 809 12
 3420 1068 93F7F71F 		andi	a5,a5,511
 3421              	.LVL265:
 3422              		.loc 1 809 47 is_stmt 1
 810:src/kernel/riscv.cpp ****     uint64 pmt1Entry = (addr >> 21) & (0x1ff);
 3423              		.loc 1 810 5
 3424              		.loc 1 810 30 is_stmt 0
 3425 106c 13D95501 		srli	s2,a1,21
 3426              		.loc 1 810 12
 3427 1070 1379F91F 		andi	s2,s2,511
 3428              	.LVL266:
 811:src/kernel/riscv.cpp ****     uint64 pmt0Entry = (addr >> 12) & (0x1ff);
 3429              		.loc 1 811 5 is_stmt 1
 3430              		.loc 1 811 30 is_stmt 0
 3431 1074 93D4C500 		srli	s1,a1,12
 3432              		.loc 1 811 12
 3433 1078 13FAF41F 		andi	s4,s1,511
 3434              	.LVL267:
 812:src/kernel/riscv.cpp ****     uint64 pmt2Desc = ((uint64*)PMT)[pmt2Entry];
 3435              		.loc 1 812 5 is_stmt 1
 3436              		.loc 1 812 47 is_stmt 0
 3437 107c 93973700 		slli	a5,a5,3
 3438              	.LVL268:
 3439 1080 B30AF500 		add	s5,a0,a5
 3440              		.loc 1 812 12
 3441 1084 83B70A00 		ld	a5,0(s5)
 3442              	.LVL269:
 813:src/kernel/riscv.cpp ****     void* pmt1 = nullptr;
 3443              		.loc 1 813 5 is_stmt 1
 814:src/kernel/riscv.cpp ****     if(pmt2Desc == 0){
 3444              		.loc 1 814 5
 3445 1088 63820706 		beqz	a5,.L171
 815:src/kernel/riscv.cpp ****         pmt1 = RiscV::getPMT();
 816:src/kernel/riscv.cpp ****         ((uint64*)PMT)[pmt2Entry] = (((uint64)pmt1 >> 12) << 10) | (uint64)1;
 817:src/kernel/riscv.cpp ****     }
 818:src/kernel/riscv.cpp ****     else
 819:src/kernel/riscv.cpp ****         pmt1 = (void*)((pmt2Desc >> 10) << 12);
 3446              		.loc 1 819 9
 3447              		.loc 1 819 34 is_stmt 0
 3448 108c 13D5A700 		srli	a0,a5,10
 3449              	.LVL270:
 3450              		.loc 1 819 41
 3451 1090 1315C500 		slli	a0,a0,12
 3452              	.LVL271:
 3453              	.L166:
 820:src/kernel/riscv.cpp ****     uint64 pmt1Desc = ((uint64*)pmt1)[pmt1Entry];
 3454              		.loc 1 820 5 is_stmt 1
 3455              		.loc 1 820 48 is_stmt 0
 3456 1094 13193900 		slli	s2,s2,3
 3457              	.LVL272:
GAS LISTING /tmp/cciGQfDY.s 			page 93


 3458 1098 33092501 		add	s2,a0,s2
 3459              		.loc 1 820 12
 3460 109c 03350900 		ld	a0,0(s2)
 3461              	.LVL273:
 821:src/kernel/riscv.cpp ****     void* pmt0 = nullptr;
 3462              		.loc 1 821 5 is_stmt 1
 822:src/kernel/riscv.cpp ****     if(pmt1Desc == 0){
 3463              		.loc 1 822 5
 3464 10a0 63040506 		beqz	a0,.L172
 823:src/kernel/riscv.cpp ****         pmt0 = RiscV::getPMT();
 824:src/kernel/riscv.cpp ****         ((uint64*)pmt1)[pmt1Entry] = (((uint64)pmt0 >> 12) << 10) | (uint64)1;
 825:src/kernel/riscv.cpp ****     }
 826:src/kernel/riscv.cpp ****     else
 827:src/kernel/riscv.cpp ****         pmt0 = (void*)((pmt1Desc >> 10) << 12);
 3465              		.loc 1 827 9
 3466              		.loc 1 827 34 is_stmt 0
 3467 10a4 1355A500 		srli	a0,a0,10
 3468              	.LVL274:
 3469              		.loc 1 827 41
 3470 10a8 1315C500 		slli	a0,a0,12
 3471              	.LVL275:
 3472              	.L168:
 828:src/kernel/riscv.cpp ****     uint64 pmt0Desc = ((uint64*)pmt0)[pmt0Entry];
 3473              		.loc 1 828 5 is_stmt 1
 3474              		.loc 1 828 48 is_stmt 0
 3475 10ac 131A3A00 		slli	s4,s4,3
 3476              	.LVL276:
 3477 10b0 33054501 		add	a0,a0,s4
 3478              	.LVL277:
 3479              		.loc 1 828 12
 3480 10b4 83370500 		ld	a5,0(a0)
 3481              	.LVL278:
 829:src/kernel/riscv.cpp ****     if(pmt0Desc == 0) {
 3482              		.loc 1 829 5 is_stmt 1
 3483 10b8 63980700 		bnez	a5,.L164
 830:src/kernel/riscv.cpp ****         ((uint64 *) pmt0)[pmt0Entry] = ((addr >> 12) << 10) | mask;
 3484              		.loc 1 830 9
 3485              		.loc 1 830 54 is_stmt 0
 3486 10bc 9394A400 		slli	s1,s1,10
 3487              	.LVL279:
 3488              		.loc 1 830 61
 3489 10c0 B3E93401 		or	s3,s1,s3
 3490              	.LVL280:
 3491              		.loc 1 830 38
 3492 10c4 23303501 		sd	s3,0(a0)
 3493              	.L164:
 831:src/kernel/riscv.cpp ****     }
 832:src/kernel/riscv.cpp **** }
 3494              		.loc 1 832 1
 3495 10c8 83308103 		ld	ra,56(sp)
 3496              		.cfi_remember_state
 3497              		.cfi_restore 1
 3498 10cc 03340103 		ld	s0,48(sp)
 3499              		.cfi_restore 8
 3500              		.cfi_def_cfa 2, 64
 3501 10d0 83348102 		ld	s1,40(sp)
 3502              		.cfi_restore 9
GAS LISTING /tmp/cciGQfDY.s 			page 94


 3503 10d4 03390102 		ld	s2,32(sp)
 3504              		.cfi_restore 18
 3505 10d8 83398101 		ld	s3,24(sp)
 3506              		.cfi_restore 19
 3507 10dc 033A0101 		ld	s4,16(sp)
 3508              		.cfi_restore 20
 3509 10e0 833A8100 		ld	s5,8(sp)
 3510              		.cfi_restore 21
 3511 10e4 13010104 		addi	sp,sp,64
 3512              		.cfi_def_cfa_offset 0
 3513 10e8 67800000 		jr	ra
 3514              	.LVL281:
 3515              	.L171:
 3516              		.cfi_restore_state
 815:src/kernel/riscv.cpp ****         ((uint64*)PMT)[pmt2Entry] = (((uint64)pmt1 >> 12) << 10) | (uint64)1;
 3517              		.loc 1 815 9 is_stmt 1
 815:src/kernel/riscv.cpp ****         ((uint64*)PMT)[pmt2Entry] = (((uint64)pmt1 >> 12) << 10) | (uint64)1;
 3518              		.loc 1 815 29 is_stmt 0
 3519 10ec 97000000 		call	_ZN5RiscV6getPMTEv
 3519      E7800000 
 3520              	.LVL282:
 816:src/kernel/riscv.cpp ****     }
 3521              		.loc 1 816 9 is_stmt 1
 816:src/kernel/riscv.cpp ****     }
 3522              		.loc 1 816 52 is_stmt 0
 3523 10f4 9357C500 		srli	a5,a0,12
 816:src/kernel/riscv.cpp ****     }
 3524              		.loc 1 816 59
 3525 10f8 9397A700 		slli	a5,a5,10
 816:src/kernel/riscv.cpp ****     }
 3526              		.loc 1 816 66
 3527 10fc 93E71700 		ori	a5,a5,1
 816:src/kernel/riscv.cpp ****     }
 3528              		.loc 1 816 35
 3529 1100 23B0FA00 		sd	a5,0(s5)
 3530 1104 6FF01FF9 		j	.L166
 3531              	.LVL283:
 3532              	.L172:
 823:src/kernel/riscv.cpp ****         ((uint64*)pmt1)[pmt1Entry] = (((uint64)pmt0 >> 12) << 10) | (uint64)1;
 3533              		.loc 1 823 9 is_stmt 1
 823:src/kernel/riscv.cpp ****         ((uint64*)pmt1)[pmt1Entry] = (((uint64)pmt0 >> 12) << 10) | (uint64)1;
 3534              		.loc 1 823 29 is_stmt 0
 3535 1108 97000000 		call	_ZN5RiscV6getPMTEv
 3535      E7800000 
 3536              	.LVL284:
 824:src/kernel/riscv.cpp ****     }
 3537              		.loc 1 824 9 is_stmt 1
 824:src/kernel/riscv.cpp ****     }
 3538              		.loc 1 824 53 is_stmt 0
 3539 1110 9357C500 		srli	a5,a0,12
 824:src/kernel/riscv.cpp ****     }
 3540              		.loc 1 824 60
 3541 1114 9397A700 		slli	a5,a5,10
 824:src/kernel/riscv.cpp ****     }
 3542              		.loc 1 824 67
 3543 1118 93E71700 		ori	a5,a5,1
 824:src/kernel/riscv.cpp ****     }
GAS LISTING /tmp/cciGQfDY.s 			page 95


 3544              		.loc 1 824 36
 3545 111c 2330F900 		sd	a5,0(s2)
 3546 1120 6FF0DFF8 		j	.L168
 3547              		.cfi_endproc
 3548              	.LFE77:
 3550              		.align	2
 3551              		.globl	_ZN5RiscV12buildSectionEPvmmm
 3553              	_ZN5RiscV12buildSectionEPvmmm:
 3554              	.LFB73:
 762:src/kernel/riscv.cpp ****     for(uint64 i=start;i< end;i+=0x1000) {
 3555              		.loc 1 762 76 is_stmt 1
 3556              		.cfi_startproc
 3557              	.LVL285:
 3558 1124 130101FD 		addi	sp,sp,-48
 3559              		.cfi_def_cfa_offset 48
 3560 1128 23341102 		sd	ra,40(sp)
 3561 112c 23308102 		sd	s0,32(sp)
 3562 1130 233C9100 		sd	s1,24(sp)
 3563 1134 23382101 		sd	s2,16(sp)
 3564 1138 23343101 		sd	s3,8(sp)
 3565 113c 23304101 		sd	s4,0(sp)
 3566              		.cfi_offset 1, -8
 3567              		.cfi_offset 8, -16
 3568              		.cfi_offset 9, -24
 3569              		.cfi_offset 18, -32
 3570              		.cfi_offset 19, -40
 3571              		.cfi_offset 20, -48
 3572 1140 13040103 		addi	s0,sp,48
 3573              		.cfi_def_cfa 8, 0
 3574 1144 130A0500 		mv	s4,a0
 3575 1148 93840500 		mv	s1,a1
 3576 114c 13090600 		mv	s2,a2
 3577 1150 93890600 		mv	s3,a3
 763:src/kernel/riscv.cpp ****         handlePageFault(PMT,i, mask);
 3578              		.loc 1 763 5
 3579              	.LVL286:
 3580              	.L175:
 3581              	.LBB192:
 763:src/kernel/riscv.cpp ****         handlePageFault(PMT,i, mask);
 3582              		.loc 1 763 25 discriminator 3
 3583 1154 63F22403 		bgeu	s1,s2,.L173
 764:src/kernel/riscv.cpp ****     }
 3584              		.loc 1 764 9 discriminator 2
 764:src/kernel/riscv.cpp ****     }
 3585              		.loc 1 764 24 is_stmt 0 discriminator 2
 3586 1158 13860900 		mv	a2,s3
 3587 115c 93850400 		mv	a1,s1
 3588 1160 13050A00 		mv	a0,s4
 3589 1164 97000000 		call	_ZN5RiscV15handlePageFaultEPvmm
 3589      E7800000 
 3590              	.LVL287:
 763:src/kernel/riscv.cpp ****         handlePageFault(PMT,i, mask);
 3591              		.loc 1 763 5 is_stmt 1 discriminator 2
 763:src/kernel/riscv.cpp ****         handlePageFault(PMT,i, mask);
 3592              		.loc 1 763 32 is_stmt 0 discriminator 2
 3593 116c B7170000 		li	a5,4096
 3594 1170 B384F400 		add	s1,s1,a5
GAS LISTING /tmp/cciGQfDY.s 			page 96


 3595              	.LVL288:
 763:src/kernel/riscv.cpp ****         handlePageFault(PMT,i, mask);
 3596              		.loc 1 763 5 discriminator 2
 3597 1174 6FF01FFE 		j	.L175
 3598              	.L173:
 3599              	.LBE192:
 766:src/kernel/riscv.cpp **** 
 3600              		.loc 1 766 1
 3601 1178 83308102 		ld	ra,40(sp)
 3602              		.cfi_restore 1
 3603 117c 03340102 		ld	s0,32(sp)
 3604              		.cfi_restore 8
 3605              		.cfi_def_cfa 2, 48
 3606 1180 83348101 		ld	s1,24(sp)
 3607              		.cfi_restore 9
 3608              	.LVL289:
 3609 1184 03390101 		ld	s2,16(sp)
 3610              		.cfi_restore 18
 3611              	.LVL290:
 3612 1188 83398100 		ld	s3,8(sp)
 3613              		.cfi_restore 19
 3614              	.LVL291:
 3615 118c 033A0100 		ld	s4,0(sp)
 3616              		.cfi_restore 20
 3617              	.LVL292:
 3618 1190 13010103 		addi	sp,sp,48
 3619              		.cfi_def_cfa_offset 0
 3620 1194 67800000 		jr	ra
 3621              		.cfi_endproc
 3622              	.LFE73:
 3624              		.align	2
 3625              		.globl	_ZN5RiscV19mapConsoleRegistersEPv
 3627              	_ZN5RiscV19mapConsoleRegistersEPv:
 3628              	.LFB78:
 833:src/kernel/riscv.cpp **** 
 834:src/kernel/riscv.cpp **** void RiscV::mapConsoleRegisters(void *PMT) {
 3629              		.loc 1 834 44 is_stmt 1
 3630              		.cfi_startproc
 3631              	.LVL293:
 3632 1198 130101FE 		addi	sp,sp,-32
 3633              		.cfi_def_cfa_offset 32
 3634 119c 233C1100 		sd	ra,24(sp)
 3635 11a0 23388100 		sd	s0,16(sp)
 3636 11a4 23349100 		sd	s1,8(sp)
 3637              		.cfi_offset 1, -8
 3638              		.cfi_offset 8, -16
 3639              		.cfi_offset 9, -24
 3640 11a8 13040102 		addi	s0,sp,32
 3641              		.cfi_def_cfa 8, 0
 3642 11ac 93040500 		mv	s1,a0
 835:src/kernel/riscv.cpp ****     handlePageFault(PMT, (uint64)CONSOLE_RX_DATA,0xf);
 3643              		.loc 1 835 5
 3644              		.loc 1 835 20 is_stmt 0
 3645 11b0 1306F000 		li	a2,15
 3646 11b4 97070000 		la	a5,CONSOLE_RX_DATA
 3646      83B70700 
 3647 11bc 83B50700 		ld	a1,0(a5)
GAS LISTING /tmp/cciGQfDY.s 			page 97


 3648 11c0 97000000 		call	_ZN5RiscV15handlePageFaultEPvmm
 3648      E7800000 
 3649              	.LVL294:
 836:src/kernel/riscv.cpp ****     handlePageFault(PMT, (uint64)CONSOLE_TX_DATA,0xf);
 3650              		.loc 1 836 5 is_stmt 1
 3651              		.loc 1 836 20 is_stmt 0
 3652 11c8 1306F000 		li	a2,15
 3653 11cc 97070000 		la	a5,CONSOLE_TX_DATA
 3653      83B70700 
 3654 11d4 83B50700 		ld	a1,0(a5)
 3655 11d8 13850400 		mv	a0,s1
 3656 11dc 97000000 		call	_ZN5RiscV15handlePageFaultEPvmm
 3656      E7800000 
 3657              	.LVL295:
 837:src/kernel/riscv.cpp ****     handlePageFault(PMT, (uint64)CONSOLE_STATUS,0xf);
 3658              		.loc 1 837 5 is_stmt 1
 3659              		.loc 1 837 20 is_stmt 0
 3660 11e4 1306F000 		li	a2,15
 3661 11e8 97070000 		la	a5,CONSOLE_STATUS
 3661      83B70700 
 3662 11f0 83B50700 		ld	a1,0(a5)
 3663 11f4 13850400 		mv	a0,s1
 3664 11f8 97000000 		call	_ZN5RiscV15handlePageFaultEPvmm
 3664      E7800000 
 3665              	.LVL296:
 838:src/kernel/riscv.cpp ****     handlePageFault(PMT, (uint64)0xc201004,0xf);
 3666              		.loc 1 838 5 is_stmt 1
 3667              		.loc 1 838 20 is_stmt 0
 3668 1200 1306F000 		li	a2,15
 3669 1204 B715200C 		li	a1,203427840
 3670 1208 93854500 		addi	a1,a1,4
 3671 120c 13850400 		mv	a0,s1
 3672 1210 97000000 		call	_ZN5RiscV15handlePageFaultEPvmm
 3672      E7800000 
 3673              	.LVL297:
 839:src/kernel/riscv.cpp **** }...
 3674              		.loc 1 839 1
 3675 1218 83308101 		ld	ra,24(sp)
 3676              		.cfi_restore 1
 3677 121c 03340101 		ld	s0,16(sp)
 3678              		.cfi_restore 8
 3679              		.cfi_def_cfa 2, 32
 3680 1220 83348100 		ld	s1,8(sp)
 3681              		.cfi_restore 9
 3682              	.LVL298:
 3683 1224 13010102 		addi	sp,sp,32
 3684              		.cfi_def_cfa_offset 0
 3685 1228 67800000 		jr	ra
 3686              		.cfi_endproc
 3687              	.LFE78:
 3689              		.align	2
 3690              		.globl	_ZN5RiscV14buildKernelPMTEv
 3692              	_ZN5RiscV14buildKernelPMTEv:
 3693              	.LFB74:
 768:src/kernel/riscv.cpp **** void RiscV::buildKernelPMT() {
 3694              		.loc 1 768 30 is_stmt 1
 3695              		.cfi_startproc
GAS LISTING /tmp/cciGQfDY.s 			page 98


 3696 122c 130101FD 		addi	sp,sp,-48
 3697              		.cfi_def_cfa_offset 48
 3698 1230 23341102 		sd	ra,40(sp)
 3699 1234 23308102 		sd	s0,32(sp)
 3700 1238 233C9100 		sd	s1,24(sp)
 3701 123c 23382101 		sd	s2,16(sp)
 3702 1240 23343101 		sd	s3,8(sp)
 3703 1244 23304101 		sd	s4,0(sp)
 3704              		.cfi_offset 1, -8
 3705              		.cfi_offset 8, -16
 3706              		.cfi_offset 9, -24
 3707              		.cfi_offset 18, -32
 3708              		.cfi_offset 19, -40
 3709              		.cfi_offset 20, -48
 3710 1248 13040103 		addi	s0,sp,48
 3711              		.cfi_def_cfa 8, 0
 769:src/kernel/riscv.cpp ****     RiscV::kPMT = RiscV::getPMT();
 3712              		.loc 1 769 5
 769:src/kernel/riscv.cpp ****     RiscV::kPMT = RiscV::getPMT();
 3713              		.loc 1 769 32 is_stmt 0
 3714 124c 97000000 		call	_ZN5RiscV6getPMTEv
 3714      E7800000 
 3715              	.LVL299:
 769:src/kernel/riscv.cpp ****     RiscV::kPMT = RiscV::getPMT();
 3716              		.loc 1 769 17
 3717 1254 97040000 		lla	s1,.LANCHOR0
 3717      93840400 
 3718 125c 23B4A400 		sd	a0,8(s1)
 770:src/kernel/riscv.cpp ****     uint64 bEnd = ((uint64)Buddy::BUDDY_START_ADDR + (Buddy::BLOCKS_AVAILABLE<<12));
 3719              		.loc 1 770 5 is_stmt 1
 770:src/kernel/riscv.cpp ****     uint64 bEnd = ((uint64)Buddy::BUDDY_START_ADDR + (Buddy::BLOCKS_AVAILABLE<<12));
 3720              		.loc 1 770 78 is_stmt 0
 3721 1260 97070000 		la	a5,_ZN5Buddy16BLOCKS_AVAILABLEE
 3721      83B70700 
 3722 1268 03B90700 		ld	s2,0(a5)
 3723 126c 1319C900 		slli	s2,s2,12
 770:src/kernel/riscv.cpp ****     uint64 bEnd = ((uint64)Buddy::BUDDY_START_ADDR + (Buddy::BLOCKS_AVAILABLE<<12));
 3724              		.loc 1 770 52
 3725 1270 97070000 		la	a5,_ZN5Buddy16BUDDY_START_ADDRE
 3725      83B70700 
 3726 1278 83B70700 		ld	a5,0(a5)
 770:src/kernel/riscv.cpp ****     uint64 bEnd = ((uint64)Buddy::BUDDY_START_ADDR + (Buddy::BLOCKS_AVAILABLE<<12));
 3727              		.loc 1 770 12
 3728 127c 3309F900 		add	s2,s2,a5
 3729              	.LVL300:
 773:src/kernel/riscv.cpp ****     RiscV::buildSection(kPMT, OS_ENTRY, KERNEL_TEXT_END, 0xb);
 3730              		.loc 1 773 5 is_stmt 1
 773:src/kernel/riscv.cpp ****     RiscV::buildSection(kPMT, OS_ENTRY, KERNEL_TEXT_END, 0xb);
 3731              		.loc 1 773 24 is_stmt 0
 3732 1280 170A0000 		la	s4,kernelTextEnd
 3732      033A0A00 
 3733 1288 9306B000 		li	a3,11
 3734 128c 13060A00 		mv	a2,s4
 3735 1290 93051000 		li	a1,1
 3736 1294 9395F501 		slli	a1,a1,31
 3737 1298 97000000 		call	_ZN5RiscV12buildSectionEPvmmm
 3737      E7800000 
GAS LISTING /tmp/cciGQfDY.s 			page 99


 3738              	.LVL301:
 774:src/kernel/riscv.cpp ****     RiscV::buildSection(kPMT, KERNEL_TEXT_END, USER_TEXT_START, 0x7);
 3739              		.loc 1 774 5 is_stmt 1
 774:src/kernel/riscv.cpp ****     RiscV::buildSection(kPMT, KERNEL_TEXT_END, USER_TEXT_START, 0x7);
 3740              		.loc 1 774 24 is_stmt 0
 3741 12a0 97090000 		la	s3,userTextStart
 3741      83B90900 
 3742 12a8 93067000 		li	a3,7
 3743 12ac 13860900 		mv	a2,s3
 3744 12b0 93050A00 		mv	a1,s4
 3745 12b4 03B58400 		ld	a0,8(s1)
 3746 12b8 97000000 		call	_ZN5RiscV12buildSectionEPvmmm
 3746      E7800000 
 3747              	.LVL302:
 775:src/kernel/riscv.cpp ****     RiscV::buildSection(kPMT, USER_TEXT_START, USER_DATA_START, 0x1b);
 3748              		.loc 1 775 5 is_stmt 1
 775:src/kernel/riscv.cpp ****     RiscV::buildSection(kPMT, USER_TEXT_START, USER_DATA_START, 0x1b);
 3749              		.loc 1 775 24 is_stmt 0
 3750 12c0 170A0000 		la	s4,userDataStart
 3750      033A0A00 
 3751 12c8 9306B001 		li	a3,27
 3752 12cc 13060A00 		mv	a2,s4
 3753 12d0 93850900 		mv	a1,s3
 3754 12d4 03B58400 		ld	a0,8(s1)
 3755 12d8 97000000 		call	_ZN5RiscV12buildSectionEPvmmm
 3755      E7800000 
 3756              	.LVL303:
 776:src/kernel/riscv.cpp ****     RiscV::buildSection(kPMT, USER_DATA_START, USER_DATA_END, 0x17);
 3757              		.loc 1 776 5 is_stmt 1
 776:src/kernel/riscv.cpp ****     RiscV::buildSection(kPMT, USER_DATA_START, USER_DATA_END, 0x17);
 3758              		.loc 1 776 24 is_stmt 0
 3759 12e0 97090000 		la	s3,userDataEnd
 3759      83B90900 
 3760 12e8 93067001 		li	a3,23
 3761 12ec 13860900 		mv	a2,s3
 3762 12f0 93050A00 		mv	a1,s4
 3763 12f4 03B58400 		ld	a0,8(s1)
 3764 12f8 97000000 		call	_ZN5RiscV12buildSectionEPvmmm
 3764      E7800000 
 3765              	.LVL304:
 777:src/kernel/riscv.cpp ****     RiscV::buildSection(kPMT, USER_DATA_END, bEnd, 0x7);
 3766              		.loc 1 777 5 is_stmt 1
 777:src/kernel/riscv.cpp ****     RiscV::buildSection(kPMT, USER_DATA_END, bEnd, 0x7);
 3767              		.loc 1 777 24 is_stmt 0
 3768 1300 93067000 		li	a3,7
 3769 1304 13060900 		mv	a2,s2
 3770 1308 93850900 		mv	a1,s3
 3771 130c 03B58400 		ld	a0,8(s1)
 3772 1310 97000000 		call	_ZN5RiscV12buildSectionEPvmmm
 3772      E7800000 
 3773              	.LVL305:
 778:src/kernel/riscv.cpp ****     RiscV::buildSection(kPMT, bEnd, HEAP_END, 0x17);
 3774              		.loc 1 778 5 is_stmt 1
 778:src/kernel/riscv.cpp ****     RiscV::buildSection(kPMT, bEnd, HEAP_END, 0x17);
 3775              		.loc 1 778 24 is_stmt 0
 3776 1318 93067001 		li	a3,23
 3777 131c 97070000 		la	a5,HEAP_END_ADDR
GAS LISTING /tmp/cciGQfDY.s 			page 100


 3777      83B70700 
 3778 1324 03B60700 		ld	a2,0(a5)
 3779 1328 93050900 		mv	a1,s2
 3780 132c 03B58400 		ld	a0,8(s1)
 3781 1330 97000000 		call	_ZN5RiscV12buildSectionEPvmmm
 3781      E7800000 
 3782              	.LVL306:
 780:src/kernel/riscv.cpp ****     RiscV::mapConsoleRegisters(kPMT);
 3783              		.loc 1 780 5 is_stmt 1
 780:src/kernel/riscv.cpp ****     RiscV::mapConsoleRegisters(kPMT);
 3784              		.loc 1 780 31 is_stmt 0
 3785 1338 03B58400 		ld	a0,8(s1)
 3786 133c 97000000 		call	_ZN5RiscV19mapConsoleRegistersEPv
 3786      E7800000 
 3787              	.LVL307:
 781:src/kernel/riscv.cpp ****     RiscV::ms_sstatus(1<<18);
 3788              		.loc 1 781 5 is_stmt 1
 3789              	.LBB193:
 3790              	.LBB194:
 203:src/kernel/../../h/kernel/riscv.hpp **** }
 3791              		.loc 2 203 5
 203:src/kernel/../../h/kernel/riscv.hpp **** }
 3792              		.loc 2 203 55 is_stmt 0
 3793 1344 B7070400 		li	a5,262144
 3794              	#APP
 3795              	# 203 "src/kernel/../../h/kernel/riscv.hpp" 1
 3796              		csrs sstatus, a5
 3797              	# 0 "" 2
 3798              	.LVL308:
 3799              	#NO_APP
 3800              	.LBE194:
 3801              	.LBE193:
 782:src/kernel/riscv.cpp **** }
 3802              		.loc 1 782 1
 3803 134c 83308102 		ld	ra,40(sp)
 3804              		.cfi_restore 1
 3805 1350 03340102 		ld	s0,32(sp)
 3806              		.cfi_restore 8
 3807              		.cfi_def_cfa 2, 48
 3808 1354 83348101 		ld	s1,24(sp)
 3809              		.cfi_restore 9
 3810 1358 03390101 		ld	s2,16(sp)
 3811              		.cfi_restore 18
 3812              	.LVL309:
 3813 135c 83398100 		ld	s3,8(sp)
 3814              		.cfi_restore 19
 3815 1360 033A0100 		ld	s4,0(sp)
 3816              		.cfi_restore 20
 3817 1364 13010103 		addi	sp,sp,48
 3818              		.cfi_def_cfa_offset 0
 3819 1368 67800000 		jr	ra
 3820              		.cfi_endproc
 3821              	.LFE74:
 3823              		.align	2
 3824              		.globl	_ZN5RiscV12buildUserPMTEv
 3826              	_ZN5RiscV12buildUserPMTEv:
 3827              	.LFB75:
GAS LISTING /tmp/cciGQfDY.s 			page 101


 784:src/kernel/riscv.cpp **** void RiscV::buildUserPMT() {
 3828              		.loc 1 784 28 is_stmt 1
 3829              		.cfi_startproc
 3830 136c 130101FD 		addi	sp,sp,-48
 3831              		.cfi_def_cfa_offset 48
 3832 1370 23341102 		sd	ra,40(sp)
 3833 1374 23308102 		sd	s0,32(sp)
 3834 1378 233C9100 		sd	s1,24(sp)
 3835 137c 23382101 		sd	s2,16(sp)
 3836 1380 23343101 		sd	s3,8(sp)
 3837 1384 23304101 		sd	s4,0(sp)
 3838              		.cfi_offset 1, -8
 3839              		.cfi_offset 8, -16
 3840              		.cfi_offset 9, -24
 3841              		.cfi_offset 18, -32
 3842              		.cfi_offset 19, -40
 3843              		.cfi_offset 20, -48
 3844 1388 13040103 		addi	s0,sp,48
 3845              		.cfi_def_cfa 8, 0
 785:src/kernel/riscv.cpp ****     RiscV::uPMT = RiscV::getPMT();
 3846              		.loc 1 785 5
 785:src/kernel/riscv.cpp ****     RiscV::uPMT = RiscV::getPMT();
 3847              		.loc 1 785 32 is_stmt 0
 3848 138c 97000000 		call	_ZN5RiscV6getPMTEv
 3848      E7800000 
 3849              	.LVL310:
 785:src/kernel/riscv.cpp ****     RiscV::uPMT = RiscV::getPMT();
 3850              		.loc 1 785 17
 3851 1394 97040000 		lla	s1,.LANCHOR0
 3851      93840400 
 3852 139c 23B8A400 		sd	a0,16(s1)
 786:src/kernel/riscv.cpp ****     uint64 bEnd = ((uint64)Buddy::BUDDY_START_ADDR + (Buddy::BLOCKS_AVAILABLE<<12));
 3853              		.loc 1 786 5 is_stmt 1
 786:src/kernel/riscv.cpp ****     uint64 bEnd = ((uint64)Buddy::BUDDY_START_ADDR + (Buddy::BLOCKS_AVAILABLE<<12));
 3854              		.loc 1 786 78 is_stmt 0
 3855 13a0 97070000 		la	a5,_ZN5Buddy16BLOCKS_AVAILABLEE
 3855      83B70700 
 3856 13a8 03B90700 		ld	s2,0(a5)
 3857 13ac 1319C900 		slli	s2,s2,12
 786:src/kernel/riscv.cpp ****     uint64 bEnd = ((uint64)Buddy::BUDDY_START_ADDR + (Buddy::BLOCKS_AVAILABLE<<12));
 3858              		.loc 1 786 52
 3859 13b0 97070000 		la	a5,_ZN5Buddy16BUDDY_START_ADDRE
 3859      83B70700 
 3860 13b8 83B70700 		ld	a5,0(a5)
 786:src/kernel/riscv.cpp ****     uint64 bEnd = ((uint64)Buddy::BUDDY_START_ADDR + (Buddy::BLOCKS_AVAILABLE<<12));
 3861              		.loc 1 786 12
 3862 13bc 3309F900 		add	s2,s2,a5
 3863              	.LVL311:
 789:src/kernel/riscv.cpp ****     RiscV::buildSection(uPMT, OS_ENTRY, KERNEL_TEXT_END, 0xb);
 3864              		.loc 1 789 5 is_stmt 1
 789:src/kernel/riscv.cpp ****     RiscV::buildSection(uPMT, OS_ENTRY, KERNEL_TEXT_END, 0xb);
 3865              		.loc 1 789 24 is_stmt 0
 3866 13c0 170A0000 		la	s4,kernelTextEnd
 3866      033A0A00 
 3867 13c8 9306B000 		li	a3,11
 3868 13cc 13060A00 		mv	a2,s4
 3869 13d0 93051000 		li	a1,1
GAS LISTING /tmp/cciGQfDY.s 			page 102


 3870 13d4 9395F501 		slli	a1,a1,31
 3871 13d8 97000000 		call	_ZN5RiscV12buildSectionEPvmmm
 3871      E7800000 
 3872              	.LVL312:
 790:src/kernel/riscv.cpp ****     RiscV::buildSection(uPMT, KERNEL_TEXT_END, USER_TEXT_START, 0x7);
 3873              		.loc 1 790 5 is_stmt 1
 790:src/kernel/riscv.cpp ****     RiscV::buildSection(uPMT, KERNEL_TEXT_END, USER_TEXT_START, 0x7);
 3874              		.loc 1 790 24 is_stmt 0
 3875 13e0 97090000 		la	s3,userTextStart
 3875      83B90900 
 3876 13e8 93067000 		li	a3,7
 3877 13ec 13860900 		mv	a2,s3
 3878 13f0 93050A00 		mv	a1,s4
 3879 13f4 03B50401 		ld	a0,16(s1)
 3880 13f8 97000000 		call	_ZN5RiscV12buildSectionEPvmmm
 3880      E7800000 
 3881              	.LVL313:
 791:src/kernel/riscv.cpp ****     RiscV::buildSection(uPMT, USER_TEXT_START, USER_DATA_START, 0x1b);
 3882              		.loc 1 791 5 is_stmt 1
 791:src/kernel/riscv.cpp ****     RiscV::buildSection(uPMT, USER_TEXT_START, USER_DATA_START, 0x1b);
 3883              		.loc 1 791 24 is_stmt 0
 3884 1400 170A0000 		la	s4,userDataStart
 3884      033A0A00 
 3885 1408 9306B001 		li	a3,27
 3886 140c 13060A00 		mv	a2,s4
 3887 1410 93850900 		mv	a1,s3
 3888 1414 03B50401 		ld	a0,16(s1)
 3889 1418 97000000 		call	_ZN5RiscV12buildSectionEPvmmm
 3889      E7800000 
 3890              	.LVL314:
 792:src/kernel/riscv.cpp ****     RiscV::buildSection(uPMT, USER_DATA_START, USER_DATA_END, 0x17);
 3891              		.loc 1 792 5 is_stmt 1
 792:src/kernel/riscv.cpp ****     RiscV::buildSection(uPMT, USER_DATA_START, USER_DATA_END, 0x17);
 3892              		.loc 1 792 24 is_stmt 0
 3893 1420 97090000 		la	s3,userDataEnd
 3893      83B90900 
 3894 1428 93067001 		li	a3,23
 3895 142c 13860900 		mv	a2,s3
 3896 1430 93050A00 		mv	a1,s4
 3897 1434 03B50401 		ld	a0,16(s1)
 3898 1438 97000000 		call	_ZN5RiscV12buildSectionEPvmmm
 3898      E7800000 
 3899              	.LVL315:
 793:src/kernel/riscv.cpp ****     RiscV::buildSection(uPMT, USER_DATA_END, bEnd, 0x7);
 3900              		.loc 1 793 5 is_stmt 1
 793:src/kernel/riscv.cpp ****     RiscV::buildSection(uPMT, USER_DATA_END, bEnd, 0x7);
 3901              		.loc 1 793 24 is_stmt 0
 3902 1440 93067000 		li	a3,7
 3903 1444 13060900 		mv	a2,s2
 3904 1448 93850900 		mv	a1,s3
 3905 144c 03B50401 		ld	a0,16(s1)
 3906 1450 97000000 		call	_ZN5RiscV12buildSectionEPvmmm
 3906      E7800000 
 3907              	.LVL316:
 794:src/kernel/riscv.cpp ****     RiscV::buildSection(uPMT, bEnd, HEAP_END, 0x17);
 3908              		.loc 1 794 5 is_stmt 1
 794:src/kernel/riscv.cpp ****     RiscV::buildSection(uPMT, bEnd, HEAP_END, 0x17);
GAS LISTING /tmp/cciGQfDY.s 			page 103


 3909              		.loc 1 794 24 is_stmt 0
 3910 1458 93067001 		li	a3,23
 3911 145c 97070000 		la	a5,HEAP_END_ADDR
 3911      83B70700 
 3912 1464 03B60700 		ld	a2,0(a5)
 3913 1468 93050900 		mv	a1,s2
 3914 146c 03B50401 		ld	a0,16(s1)
 3915 1470 97000000 		call	_ZN5RiscV12buildSectionEPvmmm
 3915      E7800000 
 3916              	.LVL317:
 796:src/kernel/riscv.cpp ****     RiscV::mapConsoleRegisters(uPMT);
 3917              		.loc 1 796 5 is_stmt 1
 796:src/kernel/riscv.cpp ****     RiscV::mapConsoleRegisters(uPMT);
 3918              		.loc 1 796 31 is_stmt 0
 3919 1478 03B50401 		ld	a0,16(s1)
 3920 147c 97000000 		call	_ZN5RiscV19mapConsoleRegistersEPv
 3920      E7800000 
 3921              	.LVL318:
 797:src/kernel/riscv.cpp ****     RiscV::ms_sstatus(1<<18);
 3922              		.loc 1 797 5 is_stmt 1
 3923              	.LBB195:
 3924              	.LBB196:
 203:src/kernel/../../h/kernel/riscv.hpp **** }
 3925              		.loc 2 203 5
 203:src/kernel/../../h/kernel/riscv.hpp **** }
 3926              		.loc 2 203 55 is_stmt 0
 3927 1484 B7070400 		li	a5,262144
 3928              	#APP
 3929              	# 203 "src/kernel/../../h/kernel/riscv.hpp" 1
 3930              		csrs sstatus, a5
 3931              	# 0 "" 2
 3932              	.LVL319:
 3933              	#NO_APP
 3934              	.LBE196:
 3935              	.LBE195:
 798:src/kernel/riscv.cpp **** }
 3936              		.loc 1 798 1
 3937 148c 83308102 		ld	ra,40(sp)
 3938              		.cfi_restore 1
 3939 1490 03340102 		ld	s0,32(sp)
 3940              		.cfi_restore 8
 3941              		.cfi_def_cfa 2, 48
 3942 1494 83348101 		ld	s1,24(sp)
 3943              		.cfi_restore 9
 3944 1498 03390101 		ld	s2,16(sp)
 3945              		.cfi_restore 18
 3946              	.LVL320:
 3947 149c 83398100 		ld	s3,8(sp)
 3948              		.cfi_restore 19
 3949 14a0 033A0100 		ld	s4,0(sp)
 3950              		.cfi_restore 20
 3951 14a4 13010103 		addi	sp,sp,48
 3952              		.cfi_def_cfa_offset 0
 3953 14a8 67800000 		jr	ra
 3954              		.cfi_endproc
 3955              	.LFE75:
 3957              		.align	2
GAS LISTING /tmp/cciGQfDY.s 			page 104


 3958              		.globl	_ZN5RiscV10initializeEv
 3960              	_ZN5RiscV10initializeEv:
 3961              	.LFB44:
  20:src/kernel/riscv.cpp **** void RiscV::initialize(){
 3962              		.loc 1 20 25 is_stmt 1
 3963              		.cfi_startproc
 3964 14ac 130101FF 		addi	sp,sp,-16
 3965              		.cfi_def_cfa_offset 16
 3966 14b0 23341100 		sd	ra,8(sp)
 3967 14b4 23308100 		sd	s0,0(sp)
 3968              		.cfi_offset 1, -8
 3969              		.cfi_offset 8, -16
 3970 14b8 13040101 		addi	s0,sp,16
 3971              		.cfi_def_cfa 8, 0
  21:src/kernel/riscv.cpp ****     RiscV::w_stvec((uint64) &RiscV::supervisorTrap);
 3972              		.loc 1 21 5
  21:src/kernel/riscv.cpp ****     RiscV::w_stvec((uint64) &RiscV::supervisorTrap);
 3973              		.loc 1 21 19 is_stmt 0
 3974 14bc 97070000 		la	a5,_ZN5RiscV14supervisorTrapEv
 3974      83B70700 
 3975              	.LVL321:
 3976              	.LBB197:
 3977              	.LBB198:
 199:src/kernel/../../h/kernel/riscv.hpp **** }
 3978              		.loc 2 199 5 is_stmt 1
 199:src/kernel/../../h/kernel/riscv.hpp **** }
 3979              		.loc 2 199 56 is_stmt 0
 3980              	#APP
 3981              	# 199 "src/kernel/../../h/kernel/riscv.hpp" 1
 3982              		csrw stvec, a5
 3983              	# 0 "" 2
 3984              	.LVL322:
 3985              	#NO_APP
 3986              	.LBE198:
 3987              	.LBE197:
  22:src/kernel/riscv.cpp ****     kmem_init(BUDDY_START_ADDR_CONST, 4096);
 3988              		.loc 1 22 5 is_stmt 1
  22:src/kernel/riscv.cpp ****     kmem_init(BUDDY_START_ADDR_CONST, 4096);
 3989              		.loc 1 22 15 is_stmt 0
 3990 14c8 97070000 		la	a5,HEAP_START_ADDR
 3990      83B70700 
 3991 14d0 03B50700 		ld	a0,0(a5)
 3992 14d4 1355C500 		srli	a0,a0,12
 3993 14d8 13052500 		addi	a0,a0,2
  22:src/kernel/riscv.cpp ****     kmem_init(BUDDY_START_ADDR_CONST, 4096);
 3994              		.loc 1 22 14
 3995 14dc B7150000 		li	a1,4096
 3996 14e0 1315C500 		slli	a0,a0,12
 3997 14e4 97000000 		call	_Z9kmem_initPvi@plt
 3997      E7800000 
 3998              	.LVL323:
  23:src/kernel/riscv.cpp ****     MemoryAllocator::initialize();
 3999              		.loc 1 23 5 is_stmt 1
  23:src/kernel/riscv.cpp ****     MemoryAllocator::initialize();
 4000              		.loc 1 23 32 is_stmt 0
 4001 14ec 97000000 		call	_ZN15MemoryAllocator10initializeEv@plt
 4001      E7800000 
GAS LISTING /tmp/cciGQfDY.s 			page 105


 4002              	.LVL324:
  24:src/kernel/riscv.cpp ****     Scheduler::initialize();
 4003              		.loc 1 24 5 is_stmt 1
  24:src/kernel/riscv.cpp ****     Scheduler::initialize();
 4004              		.loc 1 24 26 is_stmt 0
 4005 14f4 97000000 		call	_ZN9Scheduler10initializeEv@plt
 4005      E7800000 
 4006              	.LVL325:
  25:src/kernel/riscv.cpp ****     TCB::initialize();
 4007              		.loc 1 25 5 is_stmt 1
  25:src/kernel/riscv.cpp ****     TCB::initialize();
 4008              		.loc 1 25 20 is_stmt 0
 4009 14fc 97000000 		call	_ZN3TCB10initializeEv@plt
 4009      E7800000 
 4010              	.LVL326:
  26:src/kernel/riscv.cpp ****     SCB::initialize();
 4011              		.loc 1 26 5 is_stmt 1
  26:src/kernel/riscv.cpp ****     SCB::initialize();
 4012              		.loc 1 26 20 is_stmt 0
 4013 1504 97000000 		call	_ZN3SCB10initializeEv@plt
 4013      E7800000 
 4014              	.LVL327:
  27:src/kernel/riscv.cpp ****     ConsoleUtil::initialize();
 4015              		.loc 1 27 5 is_stmt 1
  27:src/kernel/riscv.cpp ****     ConsoleUtil::initialize();
 4016              		.loc 1 27 28 is_stmt 0
 4017 150c 97000000 		call	_ZN11ConsoleUtil10initializeEv@plt
 4017      E7800000 
 4018              	.LVL328:
  28:src/kernel/riscv.cpp ****     RiscV::buildKernelPMT();
 4019              		.loc 1 28 5 is_stmt 1
  28:src/kernel/riscv.cpp ****     RiscV::buildKernelPMT();
 4020              		.loc 1 28 26 is_stmt 0
 4021 1514 97000000 		call	_ZN5RiscV14buildKernelPMTEv
 4021      E7800000 
 4022              	.LVL329:
  29:src/kernel/riscv.cpp ****     RiscV::buildUserPMT();
 4023              		.loc 1 29 5 is_stmt 1
  29:src/kernel/riscv.cpp ****     RiscV::buildUserPMT();
 4024              		.loc 1 29 24 is_stmt 0
 4025 151c 97000000 		call	_ZN5RiscV12buildUserPMTEv
 4025      E7800000 
 4026              	.LVL330:
  30:src/kernel/riscv.cpp ****     RiscV::initialized = true;
 4027              		.loc 1 30 5 is_stmt 1
  30:src/kernel/riscv.cpp ****     RiscV::initialized = true;
 4028              		.loc 1 30 24 is_stmt 0
 4029 1524 97070000 		lla	a5,.LANCHOR0
 4029      93870700 
 4030 152c 13071000 		li	a4,1
 4031 1530 2380E702 		sb	a4,32(a5)
  31:src/kernel/riscv.cpp ****     RiscV::startVirtualMemory(RiscV::kPMT);
 4032              		.loc 1 31 5 is_stmt 1
  31:src/kernel/riscv.cpp ****     RiscV::startVirtualMemory(RiscV::kPMT);
 4033              		.loc 1 31 30 is_stmt 0
 4034 1534 83B78700 		ld	a5,8(a5)
 4035              	.LVL331:
GAS LISTING /tmp/cciGQfDY.s 			page 106


 4036              	.LBB199:
 4037              	.LBB200:
 258:src/kernel/../../h/kernel/riscv.hpp ****     asm("csrw satp, %[satp]" : : [satp] "r" (satp));
 4038              		.loc 2 258 5 is_stmt 1
 258:src/kernel/../../h/kernel/riscv.hpp ****     asm("csrw satp, %[satp]" : : [satp] "r" (satp));
 4039              		.loc 2 258 51 is_stmt 0
 4040 1538 93D7C700 		srli	a5,a5,12
 4041              	.LVL332:
 258:src/kernel/../../h/kernel/riscv.hpp ****     asm("csrw satp, %[satp]" : : [satp] "r" (satp));
 4042              		.loc 2 258 12
 4043 153c 1307F0FF 		li	a4,-1
 4044 1540 1317F703 		slli	a4,a4,63
 4045 1544 B3E7E700 		or	a5,a5,a4
 4046              	.LVL333:
 259:src/kernel/../../h/kernel/riscv.hpp **** }
 4047              		.loc 2 259 5 is_stmt 1
 259:src/kernel/../../h/kernel/riscv.hpp **** }
 4048              		.loc 2 259 52 is_stmt 0
 4049              	#APP
 4050              	# 259 "src/kernel/../../h/kernel/riscv.hpp" 1
 4051              		csrw satp, a5
 4052              	# 0 "" 2
 4053              	.LVL334:
 4054              	#NO_APP
 4055              	.LBE200:
 4056              	.LBE199:
  32:src/kernel/riscv.cpp ****     RiscV::enableInterrupts();
 4057              		.loc 1 32 5 is_stmt 1
 227:src/kernel/../../h/kernel/riscv.hpp ****     RiscV::ms_sie(SIP_SEIE);
 4058              		.loc 2 227 5
 4059              	.LBB201:
 4060              	.LBB202:
 4061              	.LBB203:
 219:src/kernel/../../h/kernel/riscv.hpp **** }
 4062              		.loc 2 219 5
 219:src/kernel/../../h/kernel/riscv.hpp **** }
 4063              		.loc 2 219 51 is_stmt 0
 4064 154c 93072000 		li	a5,2
 4065              	#APP
 4066              	# 219 "src/kernel/../../h/kernel/riscv.hpp" 1
 4067              		csrs sie, a5
 4068              	# 0 "" 2
 4069              	.LVL335:
 4070              	#NO_APP
 4071              	.LBE203:
 4072              	.LBE202:
 4073              	.LBE201:
 228:src/kernel/../../h/kernel/riscv.hpp ****     RiscV::ms_sstatus(SSTATUS_SIE);
 4074              		.loc 2 228 5 is_stmt 1
 4075              	.LBB208:
 4076              	.LBB204:
 4077              	.LBB205:
 219:src/kernel/../../h/kernel/riscv.hpp **** }
 4078              		.loc 2 219 5
 219:src/kernel/../../h/kernel/riscv.hpp **** }
 4079              		.loc 2 219 51 is_stmt 0
 4080 1554 13070020 		li	a4,512
GAS LISTING /tmp/cciGQfDY.s 			page 107


 4081              	#APP
 4082              	# 219 "src/kernel/../../h/kernel/riscv.hpp" 1
 4083              		csrs sie, a4
 4084              	# 0 "" 2
 4085              	.LVL336:
 4086              	#NO_APP
 4087              	.LBE205:
 4088              	.LBE204:
 4089              	.LBE208:
 229:src/kernel/../../h/kernel/riscv.hpp **** }
 4090              		.loc 2 229 5 is_stmt 1
 4091              	.LBB209:
 4092              	.LBB206:
 4093              	.LBB207:
 203:src/kernel/../../h/kernel/riscv.hpp **** }
 4094              		.loc 2 203 5
 203:src/kernel/../../h/kernel/riscv.hpp **** }
 4095              		.loc 2 203 55 is_stmt 0
 4096              	#APP
 4097              	# 203 "src/kernel/../../h/kernel/riscv.hpp" 1
 4098              		csrs sstatus, a5
 4099              	# 0 "" 2
 4100              	.LVL337:
 4101              	#NO_APP
 4102              	.LBE207:
 4103              	.LBE206:
 4104              	.LBE209:
  33:src/kernel/riscv.cpp **** }
 4105              		.loc 1 33 1
 4106 1560 83308100 		ld	ra,8(sp)
 4107              		.cfi_restore 1
 4108 1564 03340100 		ld	s0,0(sp)
 4109              		.cfi_restore 8
 4110              		.cfi_def_cfa 2, 16
 4111 1568 13010101 		addi	sp,sp,16
 4112              		.cfi_def_cfa_offset 0
 4113 156c 67800000 		jr	ra
 4114              		.cfi_endproc
 4115              	.LFE44:
 4117              		.globl	_ZN5RiscV11initializedE
 4118              		.globl	_ZN5RiscV4uPMTE
 4119              		.globl	_ZN5RiscV4kPMTE
 4120              		.globl	_ZN5RiscV16userMainFinishedE
 4121              		.globl	_ZN5RiscV10globalTimeE
 4122              		.bss
 4123              		.align	3
 4124              		.set	.LANCHOR0,. + 0
 4127              	_ZN5RiscV16userMainFinishedE:
 4128 0000 00       		.zero	1
 4129 0001 00000000 		.zero	7
 4129      000000
 4132              	_ZN5RiscV4kPMTE:
 4133 0008 00000000 		.zero	8
 4133      00000000 
 4136              	_ZN5RiscV4uPMTE:
 4137 0010 00000000 		.zero	8
 4137      00000000 
GAS LISTING /tmp/cciGQfDY.s 			page 108


 4140              	_ZN5RiscV10globalTimeE:
 4141 0018 00000000 		.zero	8
 4141      00000000 
 4144              	_ZN5RiscV11initializedE:
 4145 0020 00       		.zero	1
 4146              		.text
 4147              	.Letext0:
 4148              		.file 3 "src/kernel/../../h/kernel/../../lib/hw.h"
 4149              		.file 4 "src/kernel/../../h/kernel/tcb.hpp"
 4150              		.file 5 "src/kernel/../../h/kernel/utility.hpp"
 4151              		.file 6 "src/kernel/../../h/kernel/memoryAllocator.hpp"
 4152              		.file 7 "src/kernel/../../h/kernel/buddyAllocator.hpp"
 4153              		.file 8 "src/kernel/../../h/kernel/consoleUtil.hpp"
 4154              		.file 9 "src/kernel/../../h/kernel/scb.hpp"
 4155              		.file 10 "src/kernel/../../h/kernel/slab_t.hpp"
 4156              		.file 11 "src/kernel/../../h/kernel/cache_t.hpp"
 4157              		.file 12 "src/kernel/../../h/kernel/scheduler.hpp"
 4158              		.file 13 "src/kernel/../../h/kernel/slab.hpp"
 12733              		.align	3
 12736              	DW.ref.__gxx_personality_v0:
 12737 0000 00000000 		.dword	__gxx_personality_v0
 12737      00000000 
 12738              		.ident	"GCC: (Ubuntu 9.4.0-1ubuntu1~20.04) 9.4.0"
 12739              		.section	.note.GNU-stack,"",@progbits
GAS LISTING /tmp/cciGQfDY.s 			page 109


DEFINED SYMBOLS
                            *ABS*:0000000000000000 riscv.cpp
     /tmp/cciGQfDY.s:9      .text:0000000000000000 _ZN5RiscV10popSppSpieEv
     /tmp/cciGQfDY.s:13     .text:0000000000000000 .L0 
     /tmp/cciGQfDY.s:14     .text:0000000000000000 .L0 
     /tmp/cciGQfDY.s:15     .text:0000000000000004 .L0 
     /tmp/cciGQfDY.s:17     .text:0000000000000008 .L0 
     /tmp/cciGQfDY.s:19     .text:000000000000000c .L0 
     /tmp/cciGQfDY.s:22     .text:000000000000000c .L0 
     /tmp/cciGQfDY.s:23     .text:000000000000000c .L0 
     /tmp/cciGQfDY.s:24     .text:000000000000000c .L0 
     /tmp/cciGQfDY.s:28     .text:000000000000001c .L0 
     /tmp/cciGQfDY.s:32     .text:0000000000000024 .L0 
     /tmp/cciGQfDY.s:33     .text:0000000000000024 .L0 
     /tmp/cciGQfDY.s:34     .text:0000000000000024 .L0 
src/kernel/riscv.cpp:43     .text:0000000000000028 .L0 
     /tmp/cciGQfDY.s:41     .text:000000000000002c .L0 
     /tmp/cciGQfDY.s:43     .text:000000000000002c .L0 
src/kernel/riscv.cpp:44     .text:0000000000000030 .L0 
     /tmp/cciGQfDY.s:50     .text:0000000000000034 .L0 
     /tmp/cciGQfDY.s:52     .text:0000000000000034 .L0 
     /tmp/cciGQfDY.s:61     .text:0000000000000040 .L0 
src/kernel/riscv.cpp:47     .text:0000000000000040 .L0 
     /tmp/cciGQfDY.s:68     .text:0000000000000044 .L0 
     /tmp/cciGQfDY.s:69     .text:0000000000000048 .L0 
     /tmp/cciGQfDY.s:70     .text:0000000000000048 .L0 
     /tmp/cciGQfDY.s:71     .text:0000000000000048 .L0 
     /tmp/cciGQfDY.s:73     .text:000000000000004c .L0 
     /tmp/cciGQfDY.s:77     .text:0000000000000050 .L0 
     /tmp/cciGQfDY.s:79     .text:0000000000000050 .L0 
src/kernel/riscv.cpp:39     .text:0000000000000050 .L0 
     /tmp/cciGQfDY.s:86     .text:0000000000000058 .L0 
     /tmp/cciGQfDY.s:92     .text:0000000000000058 _ZN5RiscV28executeThreadDispatchSyscallEv
     /tmp/cciGQfDY.s:95     .text:0000000000000058 .L0 
     /tmp/cciGQfDY.s:96     .text:0000000000000058 .L0 
     /tmp/cciGQfDY.s:97     .text:000000000000005c .L0 
     /tmp/cciGQfDY.s:100    .text:0000000000000064 .L0 
     /tmp/cciGQfDY.s:101    .text:0000000000000064 .L0 
     /tmp/cciGQfDY.s:103    .text:0000000000000068 .L0 
     /tmp/cciGQfDY.s:105    .text:0000000000000068 .L0 
     /tmp/cciGQfDY.s:106    .text:0000000000000068 .L0 
     /tmp/cciGQfDY.s:110    .text:0000000000000074 .L0 
     /tmp/cciGQfDY.s:111    .text:0000000000000074 .L0 
     /tmp/cciGQfDY.s:114    .text:000000000000007c .L0 
     /tmp/cciGQfDY.s:115    .text:000000000000007c .L0 
     /tmp/cciGQfDY.s:118    .text:0000000000000084 .L0 
     /tmp/cciGQfDY.s:119    .text:0000000000000088 .L0 
     /tmp/cciGQfDY.s:121    .text:000000000000008c .L0 
     /tmp/cciGQfDY.s:122    .text:000000000000008c .L0 
     /tmp/cciGQfDY.s:124    .text:0000000000000090 .L0 
     /tmp/cciGQfDY.s:126    .text:0000000000000094 .L0 
     /tmp/cciGQfDY.s:132    .text:0000000000000094 _ZN5RiscV18executePutcSyscallEv
     /tmp/cciGQfDY.s:135    .text:0000000000000094 .L0 
     /tmp/cciGQfDY.s:136    .text:0000000000000094 .L0 
     /tmp/cciGQfDY.s:137    .text:0000000000000098 .L0 
     /tmp/cciGQfDY.s:140    .text:00000000000000a0 .L0 
     /tmp/cciGQfDY.s:141    .text:00000000000000a0 .L0 
GAS LISTING /tmp/cciGQfDY.s 			page 110


     /tmp/cciGQfDY.s:143    .text:00000000000000a4 .L0 
     /tmp/cciGQfDY.s:145    .text:00000000000000a4 .L0 
     /tmp/cciGQfDY.s:146    .text:00000000000000a4 .L0 
     /tmp/cciGQfDY.s:148    .text:00000000000000ac .L0 
     /tmp/cciGQfDY.s:150    .text:00000000000000b0 .L0 
     /tmp/cciGQfDY.s:151    .text:00000000000000b0 .L0 
     /tmp/cciGQfDY.s:157    .text:00000000000000c4 .L0 
     /tmp/cciGQfDY.s:158    .text:00000000000000c4 .L0 
src/kernel/riscv.cpp:514    .text:00000000000000c4 .L0 
     /tmp/cciGQfDY.s:165    .text:00000000000000c8 .L0 
     /tmp/cciGQfDY.s:167    .text:00000000000000c8 .L0 
     /tmp/cciGQfDY.s:171    .text:00000000000000d4 .L0 
     /tmp/cciGQfDY.s:172    .text:00000000000000d8 .L0 
     /tmp/cciGQfDY.s:174    .text:00000000000000dc .L0 
     /tmp/cciGQfDY.s:175    .text:00000000000000dc .L0 
     /tmp/cciGQfDY.s:177    .text:00000000000000e0 .L0 
     /tmp/cciGQfDY.s:179    .text:00000000000000e4 .L0 
     /tmp/cciGQfDY.s:185    .text:00000000000000e4 _ZN5RiscV29jumpToDesignatedPrivilegeModeEv
     /tmp/cciGQfDY.s:188    .text:00000000000000e4 .L0 
     /tmp/cciGQfDY.s:189    .text:00000000000000e4 .L0 
     /tmp/cciGQfDY.s:190    .text:00000000000000e8 .L0 
     /tmp/cciGQfDY.s:192    .text:00000000000000ec .L0 
     /tmp/cciGQfDY.s:194    .text:00000000000000f0 .L0 
     /tmp/cciGQfDY.s:196    .text:00000000000000f0 .L0 
     /tmp/cciGQfDY.s:197    .text:00000000000000f0 .L0 
     /tmp/cciGQfDY.s:201    .text:0000000000000100 .L0 
     /tmp/cciGQfDY.s:208    .text:0000000000000108 .L0 
     /tmp/cciGQfDY.s:209    .text:0000000000000108 .L0 
     /tmp/cciGQfDY.s:210    .text:0000000000000108 .L0 
     /tmp/cciGQfDY.s:220    .text:0000000000000110 .L0 
     /tmp/cciGQfDY.s:221    .text:0000000000000110 .L0 
     /tmp/cciGQfDY.s:226    .text:0000000000000118 .L0 
     /tmp/cciGQfDY.s:227    .text:0000000000000118 .L0 
     /tmp/cciGQfDY.s:230    .text:000000000000011c .L0 
     /tmp/cciGQfDY.s:235    .text:0000000000000128 .L0 
src/kernel/../../h/kernel/riscv.hpp:259    .text:0000000000000128 .L0 
     /tmp/cciGQfDY.s:246    .text:000000000000012c .L0 
     /tmp/cciGQfDY.s:247    .text:0000000000000130 .L0 
     /tmp/cciGQfDY.s:248    .text:0000000000000130 .L0 
     /tmp/cciGQfDY.s:249    .text:0000000000000130 .L0 
     /tmp/cciGQfDY.s:251    .text:0000000000000134 .L0 
     /tmp/cciGQfDY.s:254    .text:0000000000000138 .L0 
     /tmp/cciGQfDY.s:259    .text:0000000000000138 .L0 
     /tmp/cciGQfDY.s:260    .text:0000000000000138 .L0 
     /tmp/cciGQfDY.s:261    .text:0000000000000138 .L0 
     /tmp/cciGQfDY.s:271    .text:0000000000000140 .L0 
     /tmp/cciGQfDY.s:272    .text:0000000000000140 .L0 
     /tmp/cciGQfDY.s:277    .text:0000000000000148 .L0 
     /tmp/cciGQfDY.s:278    .text:0000000000000148 .L0 
     /tmp/cciGQfDY.s:281    .text:000000000000014c .L0 
     /tmp/cciGQfDY.s:286    .text:0000000000000158 .L0 
src/kernel/../../h/kernel/riscv.hpp:259    .text:0000000000000158 .L0 
     /tmp/cciGQfDY.s:293    .text:000000000000015c .L0 
     /tmp/cciGQfDY.s:296    .text:0000000000000160 .L0 
     /tmp/cciGQfDY.s:302    .text:0000000000000160 _ZN5RiscV8finalizeEv
     /tmp/cciGQfDY.s:305    .text:0000000000000160 .L0 
     /tmp/cciGQfDY.s:306    .text:0000000000000160 .L0 
GAS LISTING /tmp/cciGQfDY.s 			page 111


     /tmp/cciGQfDY.s:307    .text:0000000000000164 .L0 
     /tmp/cciGQfDY.s:310    .text:000000000000016c .L0 
     /tmp/cciGQfDY.s:311    .text:000000000000016c .L0 
     /tmp/cciGQfDY.s:313    .text:0000000000000170 .L0 
     /tmp/cciGQfDY.s:315    .text:0000000000000170 .L0 
     /tmp/cciGQfDY.s:316    .text:0000000000000170 .L0 
     /tmp/cciGQfDY.s:319    .text:000000000000017c .L0 
     /tmp/cciGQfDY.s:320    .text:000000000000017c .L0 
     /tmp/cciGQfDY.s:323    .text:0000000000000188 .L0 
     /tmp/cciGQfDY.s:324    .text:0000000000000188 .L0 
     /tmp/cciGQfDY.s:329    .text:0000000000000194 .L0 
     /tmp/cciGQfDY.s:332    .text:0000000000000194 .L0 
     /tmp/cciGQfDY.s:339    .text:0000000000000194 .L0 
     /tmp/cciGQfDY.s:340    .text:0000000000000194 .L0 
     /tmp/cciGQfDY.s:341    .text:0000000000000194 .L0 
     /tmp/cciGQfDY.s:354    .text:000000000000019c .L0 
     /tmp/cciGQfDY.s:360    .text:000000000000019c .L0 
     /tmp/cciGQfDY.s:361    .text:000000000000019c .L0 
     /tmp/cciGQfDY.s:362    .text:000000000000019c .L0 
     /tmp/cciGQfDY.s:376    .text:00000000000001a4 .L0 
     /tmp/cciGQfDY.s:377    .text:00000000000001a4 .L0 
     /tmp/cciGQfDY.s:381    .text:00000000000001b4 .L0 
     /tmp/cciGQfDY.s:382    .text:00000000000001b4 .L0 
     /tmp/cciGQfDY.s:384    .text:00000000000001b8 .L0 
     /tmp/cciGQfDY.s:387    .text:00000000000001c4 .L0 
     /tmp/cciGQfDY.s:390    .text:00000000000001c8 .L0 
     /tmp/cciGQfDY.s:391    .text:00000000000001c8 .L0 
     /tmp/cciGQfDY.s:397    .text:00000000000001dc .L0 
     /tmp/cciGQfDY.s:398    .text:00000000000001dc .L0 
     /tmp/cciGQfDY.s:404    .text:00000000000001f8 .L0 
     /tmp/cciGQfDY.s:405    .text:00000000000001f8 .L0 
     /tmp/cciGQfDY.s:408    .text:0000000000000200 .L0 
     /tmp/cciGQfDY.s:411    .text:0000000000000204 .L0 
     /tmp/cciGQfDY.s:412    .text:0000000000000208 .L0 
     /tmp/cciGQfDY.s:414    .text:000000000000020c .L0 
     /tmp/cciGQfDY.s:415    .text:000000000000020c .L0 
     /tmp/cciGQfDY.s:417    .text:0000000000000210 .L0 
     /tmp/cciGQfDY.s:419    .text:0000000000000214 .L0 
     /tmp/cciGQfDY.s:425    .text:0000000000000214 _ZN5RiscV16saveA0toSscratchEv
     /tmp/cciGQfDY.s:428    .text:0000000000000214 .L0 
     /tmp/cciGQfDY.s:429    .text:0000000000000214 .L0 
     /tmp/cciGQfDY.s:430    .text:0000000000000218 .L0 
     /tmp/cciGQfDY.s:432    .text:000000000000021c .L0 
     /tmp/cciGQfDY.s:434    .text:0000000000000220 .L0 
     /tmp/cciGQfDY.s:436    .text:0000000000000220 .L0 
     /tmp/cciGQfDY.s:437    .text:0000000000000220 .L0 
src/kernel/riscv.cpp:596    .text:0000000000000220 .L0 
     /tmp/cciGQfDY.s:443    .text:0000000000000224 .L0 
     /tmp/cciGQfDY.s:445    .text:0000000000000224 .L0 
src/kernel/riscv.cpp:597    .text:0000000000000234 .L0 
     /tmp/cciGQfDY.s:454    .text:0000000000000238 .L0 
src/kernel/riscv.cpp:598    .text:0000000000000238 .L0 
     /tmp/cciGQfDY.s:459    .text:000000000000023c .L0 
src/kernel/riscv.cpp:599    .text:000000000000023c .L0 
     /tmp/cciGQfDY.s:465    .text:0000000000000240 .L0 
     /tmp/cciGQfDY.s:466    .text:0000000000000244 .L0 
     /tmp/cciGQfDY.s:467    .text:0000000000000244 .L0 
GAS LISTING /tmp/cciGQfDY.s 			page 112


     /tmp/cciGQfDY.s:469    .text:0000000000000248 .L0 
     /tmp/cciGQfDY.s:471    .text:000000000000024c .L0 
     /tmp/cciGQfDY.s:477    .text:000000000000024c _ZN5RiscV22executeMemAllocSyscallEv
     /tmp/cciGQfDY.s:480    .text:000000000000024c .L0 
     /tmp/cciGQfDY.s:481    .text:000000000000024c .L0 
     /tmp/cciGQfDY.s:482    .text:0000000000000250 .L0 
     /tmp/cciGQfDY.s:485    .text:0000000000000258 .L0 
     /tmp/cciGQfDY.s:486    .text:0000000000000258 .L0 
     /tmp/cciGQfDY.s:488    .text:000000000000025c .L0 
     /tmp/cciGQfDY.s:490    .text:000000000000025c .L0 
     /tmp/cciGQfDY.s:491    .text:000000000000025c .L0 
src/kernel/riscv.cpp:212    .text:000000000000025c .L0 
     /tmp/cciGQfDY.s:498    .text:0000000000000260 .L0 
     /tmp/cciGQfDY.s:500    .text:0000000000000260 .L0 
     /tmp/cciGQfDY.s:503    .text:0000000000000268 .L0 
src/kernel/riscv.cpp:217    .text:0000000000000268 .L0 
     /tmp/cciGQfDY.s:509    .text:000000000000026c .L0 
     /tmp/cciGQfDY.s:511    .text:000000000000026c .L0 
     /tmp/cciGQfDY.s:514    .text:0000000000000274 .L0 
     /tmp/cciGQfDY.s:515    .text:0000000000000278 .L0 
     /tmp/cciGQfDY.s:517    .text:000000000000027c .L0 
     /tmp/cciGQfDY.s:518    .text:000000000000027c .L0 
     /tmp/cciGQfDY.s:520    .text:0000000000000280 .L0 
     /tmp/cciGQfDY.s:522    .text:0000000000000284 .L0 
     /tmp/cciGQfDY.s:528    .text:0000000000000284 _ZN5RiscV21executeMemFreeSyscallEv
     /tmp/cciGQfDY.s:531    .text:0000000000000284 .L0 
     /tmp/cciGQfDY.s:532    .text:0000000000000284 .L0 
     /tmp/cciGQfDY.s:533    .text:0000000000000288 .L0 
     /tmp/cciGQfDY.s:536    .text:0000000000000290 .L0 
     /tmp/cciGQfDY.s:537    .text:0000000000000290 .L0 
     /tmp/cciGQfDY.s:539    .text:0000000000000294 .L0 
     /tmp/cciGQfDY.s:541    .text:0000000000000294 .L0 
     /tmp/cciGQfDY.s:542    .text:0000000000000294 .L0 
     /tmp/cciGQfDY.s:546    .text:00000000000002a4 .L0 
     /tmp/cciGQfDY.s:550    .text:00000000000002a8 .L0 
src/kernel/riscv.cpp:237    .text:00000000000002a8 .L0 
     /tmp/cciGQfDY.s:556    .text:00000000000002ac .L0 
     /tmp/cciGQfDY.s:558    .text:00000000000002ac .L0 
     /tmp/cciGQfDY.s:561    .text:00000000000002b4 .L0 
     /tmp/cciGQfDY.s:562    .text:00000000000002b8 .L0 
     /tmp/cciGQfDY.s:563    .text:00000000000002b8 .L0 
     /tmp/cciGQfDY.s:565    .text:00000000000002bc .L0 
     /tmp/cciGQfDY.s:566    .text:00000000000002bc .L0 
     /tmp/cciGQfDY.s:568    .text:00000000000002c0 .L0 
     /tmp/cciGQfDY.s:571    .text:00000000000002c4 .L0 
     /tmp/cciGQfDY.s:573    .text:00000000000002c4 .L0 
src/kernel/riscv.cpp:230    .text:00000000000002c4 .L0 
     /tmp/cciGQfDY.s:580    .text:00000000000002c8 .L0 
     /tmp/cciGQfDY.s:582    .text:00000000000002c8 .L0 
     /tmp/cciGQfDY.s:585    .text:00000000000002d0 .L0 
     /tmp/cciGQfDY.s:586    .text:00000000000002d4 .L0 
     /tmp/cciGQfDY.s:592    .text:00000000000002d4 _ZN5RiscV26executeThreadCreateSyscallEv
     /tmp/cciGQfDY.s:595    .text:00000000000002d4 .L0 
     /tmp/cciGQfDY.s:12736  .data.rel.local.DW.ref.__gxx_personality_v0:0000000000000000 DW.ref.__gxx_personality_v0
     /tmp/cciGQfDY.s:598    .text:00000000000002d4 .L0 
     /tmp/cciGQfDY.s:599    .text:00000000000002d8 .L0 
     /tmp/cciGQfDY.s:607    .text:00000000000002f4 .L0 
GAS LISTING /tmp/cciGQfDY.s 			page 113


     /tmp/cciGQfDY.s:608    .text:00000000000002f4 .L0 
     /tmp/cciGQfDY.s:609    .text:00000000000002f4 .L0 
     /tmp/cciGQfDY.s:610    .text:00000000000002f4 .L0 
     /tmp/cciGQfDY.s:611    .text:00000000000002f4 .L0 
     /tmp/cciGQfDY.s:612    .text:00000000000002f4 .L0 
     /tmp/cciGQfDY.s:613    .text:00000000000002f4 .L0 
     /tmp/cciGQfDY.s:615    .text:00000000000002f8 .L0 
     /tmp/cciGQfDY.s:617    .text:00000000000002f8 .L0 
     /tmp/cciGQfDY.s:618    .text:00000000000002f8 .L0 
src/kernel/riscv.cpp:247    .text:00000000000002f8 .L0 
     /tmp/cciGQfDY.s:625    .text:00000000000002fc .L0 
src/kernel/riscv.cpp:248    .text:00000000000002fc .L0 
     /tmp/cciGQfDY.s:631    .text:0000000000000300 .L0 
src/kernel/riscv.cpp:249    .text:0000000000000300 .L0 
     /tmp/cciGQfDY.s:637    .text:0000000000000304 .L0 
src/kernel/riscv.cpp:250    .text:0000000000000304 .L0 
     /tmp/cciGQfDY.s:643    .text:0000000000000308 .L0 
     /tmp/cciGQfDY.s:645    .text:0000000000000308 .L0 
     /tmp/cciGQfDY.s:653    .text:000000000000031c .L0 
     /tmp/cciGQfDY.s:663    .text:0000000000000334 .L0 
     /tmp/cciGQfDY.s:664    .text:0000000000000334 .L0 
     /tmp/cciGQfDY.s:666    .text:0000000000000338 .L0 
     /tmp/cciGQfDY.s:667    .text:0000000000000338 .L0 
     /tmp/cciGQfDY.s:669    .text:000000000000033c .L0 
     /tmp/cciGQfDY.s:671    .text:0000000000000340 .L0 
     /tmp/cciGQfDY.s:672    .text:0000000000000340 .L0 
     /tmp/cciGQfDY.s:679    .text:000000000000034c .L0 
     /tmp/cciGQfDY.s:680    .text:000000000000034c .L0 
     /tmp/cciGQfDY.s:682    .text:0000000000000350 .L0 
     /tmp/cciGQfDY.s:686    .text:0000000000000354 .L0 
src/kernel/riscv.cpp:267    .text:0000000000000354 .L0 
     /tmp/cciGQfDY.s:692    .text:0000000000000358 .L0 
     /tmp/cciGQfDY.s:694    .text:0000000000000358 .L0 
     /tmp/cciGQfDY.s:697    .text:0000000000000360 .L0 
     /tmp/cciGQfDY.s:698    .text:0000000000000364 .L0 
     /tmp/cciGQfDY.s:699    .text:0000000000000364 .L0 
     /tmp/cciGQfDY.s:701    .text:0000000000000368 .L0 
     /tmp/cciGQfDY.s:702    .text:0000000000000368 .L0 
     /tmp/cciGQfDY.s:704    .text:000000000000036c .L0 
     /tmp/cciGQfDY.s:707    .text:0000000000000370 .L0 
     /tmp/cciGQfDY.s:710    .text:0000000000000374 .L0 
     /tmp/cciGQfDY.s:713    .text:0000000000000378 .L0 
     /tmp/cciGQfDY.s:716    .text:000000000000037c .L0 
     /tmp/cciGQfDY.s:719    .text:0000000000000380 .L0 
     /tmp/cciGQfDY.s:723    .text:0000000000000384 .L0 
     /tmp/cciGQfDY.s:725    .text:0000000000000384 .L0 
     /tmp/cciGQfDY.s:732    .text:0000000000000390 .L0 
     /tmp/cciGQfDY.s:740    .text:00000000000003a8 .L0 
     /tmp/cciGQfDY.s:770    .text:00000000000003a8 _ZN5RiscV30executeThreadAttachBodySyscallEv
     /tmp/cciGQfDY.s:773    .text:00000000000003a8 .L0 
     /tmp/cciGQfDY.s:776    .text:00000000000003a8 .L0 
     /tmp/cciGQfDY.s:777    .text:00000000000003ac .L0 
     /tmp/cciGQfDY.s:785    .text:00000000000003c8 .L0 
     /tmp/cciGQfDY.s:786    .text:00000000000003c8 .L0 
     /tmp/cciGQfDY.s:787    .text:00000000000003c8 .L0 
     /tmp/cciGQfDY.s:788    .text:00000000000003c8 .L0 
     /tmp/cciGQfDY.s:789    .text:00000000000003c8 .L0 
GAS LISTING /tmp/cciGQfDY.s 			page 114


     /tmp/cciGQfDY.s:790    .text:00000000000003c8 .L0 
     /tmp/cciGQfDY.s:791    .text:00000000000003c8 .L0 
     /tmp/cciGQfDY.s:793    .text:00000000000003cc .L0 
     /tmp/cciGQfDY.s:795    .text:00000000000003cc .L0 
     /tmp/cciGQfDY.s:796    .text:00000000000003cc .L0 
src/kernel/riscv.cpp:278    .text:00000000000003cc .L0 
     /tmp/cciGQfDY.s:803    .text:00000000000003d0 .L0 
src/kernel/riscv.cpp:279    .text:00000000000003d0 .L0 
     /tmp/cciGQfDY.s:809    .text:00000000000003d4 .L0 
src/kernel/riscv.cpp:280    .text:00000000000003d4 .L0 
     /tmp/cciGQfDY.s:815    .text:00000000000003d8 .L0 
src/kernel/riscv.cpp:281    .text:00000000000003d8 .L0 
     /tmp/cciGQfDY.s:821    .text:00000000000003dc .L0 
     /tmp/cciGQfDY.s:823    .text:00000000000003dc .L0 
     /tmp/cciGQfDY.s:831    .text:00000000000003f0 .L0 
     /tmp/cciGQfDY.s:841    .text:0000000000000408 .L0 
     /tmp/cciGQfDY.s:842    .text:0000000000000408 .L0 
     /tmp/cciGQfDY.s:844    .text:000000000000040c .L0 
     /tmp/cciGQfDY.s:845    .text:000000000000040c .L0 
     /tmp/cciGQfDY.s:847    .text:0000000000000410 .L0 
     /tmp/cciGQfDY.s:848    .text:0000000000000410 .L0 
     /tmp/cciGQfDY.s:850    .text:0000000000000414 .L0 
     /tmp/cciGQfDY.s:851    .text:0000000000000414 .L0 
     /tmp/cciGQfDY.s:853    .text:0000000000000418 .L0 
     /tmp/cciGQfDY.s:857    .text:000000000000041c .L0 
src/kernel/riscv.cpp:296    .text:000000000000041c .L0 
     /tmp/cciGQfDY.s:863    .text:0000000000000420 .L0 
     /tmp/cciGQfDY.s:865    .text:0000000000000420 .L0 
     /tmp/cciGQfDY.s:868    .text:0000000000000428 .L0 
     /tmp/cciGQfDY.s:869    .text:000000000000042c .L0 
     /tmp/cciGQfDY.s:870    .text:000000000000042c .L0 
     /tmp/cciGQfDY.s:872    .text:0000000000000430 .L0 
     /tmp/cciGQfDY.s:873    .text:0000000000000430 .L0 
     /tmp/cciGQfDY.s:875    .text:0000000000000434 .L0 
     /tmp/cciGQfDY.s:878    .text:0000000000000438 .L0 
     /tmp/cciGQfDY.s:881    .text:000000000000043c .L0 
     /tmp/cciGQfDY.s:884    .text:0000000000000440 .L0 
     /tmp/cciGQfDY.s:887    .text:0000000000000444 .L0 
     /tmp/cciGQfDY.s:890    .text:0000000000000448 .L0 
     /tmp/cciGQfDY.s:894    .text:000000000000044c .L0 
     /tmp/cciGQfDY.s:896    .text:000000000000044c .L0 
     /tmp/cciGQfDY.s:903    .text:0000000000000458 .L0 
     /tmp/cciGQfDY.s:911    .text:0000000000000470 .L0 
     /tmp/cciGQfDY.s:936    .text:0000000000000470 _ZN5RiscV25executeThreadStartSyscallEv
     /tmp/cciGQfDY.s:939    .text:0000000000000470 .L0 
     /tmp/cciGQfDY.s:940    .text:0000000000000470 .L0 
     /tmp/cciGQfDY.s:941    .text:0000000000000474 .L0 
     /tmp/cciGQfDY.s:944    .text:000000000000047c .L0 
     /tmp/cciGQfDY.s:945    .text:000000000000047c .L0 
     /tmp/cciGQfDY.s:947    .text:0000000000000480 .L0 
     /tmp/cciGQfDY.s:949    .text:0000000000000480 .L0 
     /tmp/cciGQfDY.s:950    .text:0000000000000480 .L0 
src/kernel/riscv.cpp:306    .text:0000000000000480 .L0 
     /tmp/cciGQfDY.s:957    .text:0000000000000484 .L0 
     /tmp/cciGQfDY.s:958    .text:0000000000000484 .L0 
     /tmp/cciGQfDY.s:960    .text:0000000000000484 .L0 
     /tmp/cciGQfDY.s:962    .text:0000000000000488 .L0 
GAS LISTING /tmp/cciGQfDY.s 			page 115


     /tmp/cciGQfDY.s:966    .text:000000000000048c .L0 
src/kernel/riscv.cpp:323    .text:000000000000048c .L0 
     /tmp/cciGQfDY.s:972    .text:0000000000000490 .L0 
     /tmp/cciGQfDY.s:974    .text:0000000000000490 .L0 
     /tmp/cciGQfDY.s:977    .text:0000000000000498 .L0 
     /tmp/cciGQfDY.s:978    .text:000000000000049c .L0 
     /tmp/cciGQfDY.s:979    .text:000000000000049c .L0 
     /tmp/cciGQfDY.s:981    .text:00000000000004a0 .L0 
     /tmp/cciGQfDY.s:982    .text:00000000000004a0 .L0 
     /tmp/cciGQfDY.s:984    .text:00000000000004a4 .L0 
     /tmp/cciGQfDY.s:988    .text:00000000000004a8 .L0 
     /tmp/cciGQfDY.s:990    .text:00000000000004a8 .L0 
     /tmp/cciGQfDY.s:991    .text:00000000000004a8 .L0 
     /tmp/cciGQfDY.s:994    .text:00000000000004b0 .L0 
     /tmp/cciGQfDY.s:995    .text:00000000000004b0 .L0 
     /tmp/cciGQfDY.s:998    .text:00000000000004b8 .L0 
     /tmp/cciGQfDY.s:999    .text:00000000000004b8 .L0 
     /tmp/cciGQfDY.s:1002   .text:00000000000004c0 .L0 
     /tmp/cciGQfDY.s:1004   .text:00000000000004c8 .L0 
     /tmp/cciGQfDY.s:1010   .text:00000000000004c8 _ZN5RiscV24executeThreadExitSyscallEv
     /tmp/cciGQfDY.s:1013   .text:00000000000004c8 .L0 
     /tmp/cciGQfDY.s:1014   .text:00000000000004c8 .L0 
     /tmp/cciGQfDY.s:1015   .text:00000000000004cc .L0 
     /tmp/cciGQfDY.s:1018   .text:00000000000004d4 .L0 
     /tmp/cciGQfDY.s:1019   .text:00000000000004d4 .L0 
     /tmp/cciGQfDY.s:1021   .text:00000000000004d8 .L0 
     /tmp/cciGQfDY.s:1024   .text:00000000000004d8 .L0 
     /tmp/cciGQfDY.s:1026   .text:00000000000004d8 .L0 
     /tmp/cciGQfDY.s:1027   .text:00000000000004d8 .L0 
     /tmp/cciGQfDY.s:1030   .text:00000000000004e4 .L0 
     /tmp/cciGQfDY.s:1034   .text:00000000000004e8 .L0 
     /tmp/cciGQfDY.s:1035   .text:00000000000004e8 .L0 
     /tmp/cciGQfDY.s:1036   .text:00000000000004e8 .L0 
     /tmp/cciGQfDY.s:1039   .text:00000000000004f0 .L0 
     /tmp/cciGQfDY.s:1040   .text:00000000000004f0 .L0 
     /tmp/cciGQfDY.s:1045   .text:00000000000004f8 .L0 
     /tmp/cciGQfDY.s:1049   .text:00000000000004fc .L0 
src/kernel/riscv.cpp:343    .text:00000000000004fc .L0 
     /tmp/cciGQfDY.s:1055   .text:0000000000000500 .L0 
     /tmp/cciGQfDY.s:1057   .text:0000000000000500 .L0 
     /tmp/cciGQfDY.s:1060   .text:0000000000000508 .L0 
     /tmp/cciGQfDY.s:1061   .text:000000000000050c .L0 
     /tmp/cciGQfDY.s:1062   .text:000000000000050c .L0 
     /tmp/cciGQfDY.s:1064   .text:0000000000000510 .L0 
     /tmp/cciGQfDY.s:1065   .text:0000000000000510 .L0 
     /tmp/cciGQfDY.s:1067   .text:0000000000000514 .L0 
     /tmp/cciGQfDY.s:1071   .text:0000000000000518 .L0 
     /tmp/cciGQfDY.s:1074   .text:0000000000000518 .L0 
     /tmp/cciGQfDY.s:1077   .text:0000000000000520 .L0 
     /tmp/cciGQfDY.s:1083   .text:0000000000000520 _ZN5RiscV21executeSemOpenSyscallEv
     /tmp/cciGQfDY.s:1086   .text:0000000000000520 .L0 
     /tmp/cciGQfDY.s:1089   .text:0000000000000520 .L0 
     /tmp/cciGQfDY.s:1090   .text:0000000000000524 .L0 
     /tmp/cciGQfDY.s:1096   .text:0000000000000538 .L0 
     /tmp/cciGQfDY.s:1097   .text:0000000000000538 .L0 
     /tmp/cciGQfDY.s:1098   .text:0000000000000538 .L0 
     /tmp/cciGQfDY.s:1099   .text:0000000000000538 .L0 
GAS LISTING /tmp/cciGQfDY.s 			page 116


     /tmp/cciGQfDY.s:1100   .text:0000000000000538 .L0 
     /tmp/cciGQfDY.s:1102   .text:000000000000053c .L0 
     /tmp/cciGQfDY.s:1104   .text:000000000000053c .L0 
     /tmp/cciGQfDY.s:1105   .text:000000000000053c .L0 
src/kernel/riscv.cpp:361    .text:000000000000053c .L0 
     /tmp/cciGQfDY.s:1112   .text:0000000000000540 .L0 
src/kernel/riscv.cpp:362    .text:0000000000000540 .L0 
     /tmp/cciGQfDY.s:1118   .text:0000000000000544 .L0 
     /tmp/cciGQfDY.s:1120   .text:0000000000000544 .L0 
     /tmp/cciGQfDY.s:1128   .text:0000000000000558 .L0 
     /tmp/cciGQfDY.s:1135   .text:0000000000000564 .L0 
     /tmp/cciGQfDY.s:1136   .text:0000000000000564 .L0 
     /tmp/cciGQfDY.s:1138   .text:0000000000000568 .L0 
     /tmp/cciGQfDY.s:1139   .text:0000000000000568 .L0 
     /tmp/cciGQfDY.s:1141   .text:000000000000056c .L0 
     /tmp/cciGQfDY.s:1145   .text:0000000000000570 .L0 
src/kernel/riscv.cpp:377    .text:0000000000000570 .L0 
     /tmp/cciGQfDY.s:1151   .text:0000000000000574 .L0 
     /tmp/cciGQfDY.s:1153   .text:0000000000000574 .L0 
     /tmp/cciGQfDY.s:1156   .text:000000000000057c .L0 
     /tmp/cciGQfDY.s:1157   .text:0000000000000580 .L0 
     /tmp/cciGQfDY.s:1158   .text:0000000000000580 .L0 
     /tmp/cciGQfDY.s:1160   .text:0000000000000584 .L0 
     /tmp/cciGQfDY.s:1161   .text:0000000000000584 .L0 
     /tmp/cciGQfDY.s:1163   .text:0000000000000588 .L0 
     /tmp/cciGQfDY.s:1166   .text:000000000000058c .L0 
     /tmp/cciGQfDY.s:1169   .text:0000000000000590 .L0 
     /tmp/cciGQfDY.s:1172   .text:0000000000000594 .L0 
     /tmp/cciGQfDY.s:1176   .text:0000000000000598 .L0 
     /tmp/cciGQfDY.s:1178   .text:0000000000000598 .L0 
     /tmp/cciGQfDY.s:1185   .text:00000000000005a4 .L0 
     /tmp/cciGQfDY.s:1193   .text:00000000000005bc .L0 
     /tmp/cciGQfDY.s:1218   .text:00000000000005bc _ZN5RiscV22executeSemCloseSyscallEv
     /tmp/cciGQfDY.s:1221   .text:00000000000005bc .L0 
     /tmp/cciGQfDY.s:1222   .text:00000000000005bc .L0 
     /tmp/cciGQfDY.s:1223   .text:00000000000005c0 .L0 
     /tmp/cciGQfDY.s:1227   .text:00000000000005cc .L0 
     /tmp/cciGQfDY.s:1228   .text:00000000000005cc .L0 
     /tmp/cciGQfDY.s:1229   .text:00000000000005cc .L0 
     /tmp/cciGQfDY.s:1231   .text:00000000000005d0 .L0 
     /tmp/cciGQfDY.s:1233   .text:00000000000005d0 .L0 
     /tmp/cciGQfDY.s:1234   .text:00000000000005d0 .L0 
src/kernel/riscv.cpp:388    .text:00000000000005d0 .L0 
     /tmp/cciGQfDY.s:1241   .text:00000000000005d4 .L0 
     /tmp/cciGQfDY.s:1242   .text:00000000000005d4 .L0 
     /tmp/cciGQfDY.s:1244   .text:00000000000005d4 .L0 
     /tmp/cciGQfDY.s:1246   .text:00000000000005d8 .L0 
     /tmp/cciGQfDY.s:1250   .text:00000000000005dc .L0 
src/kernel/riscv.cpp:401    .text:00000000000005dc .L0 
     /tmp/cciGQfDY.s:1256   .text:00000000000005e0 .L0 
     /tmp/cciGQfDY.s:1258   .text:00000000000005e0 .L0 
     /tmp/cciGQfDY.s:1261   .text:00000000000005e8 .L0 
     /tmp/cciGQfDY.s:1262   .text:00000000000005ec .L0 
     /tmp/cciGQfDY.s:1263   .text:00000000000005ec .L0 
     /tmp/cciGQfDY.s:1265   .text:00000000000005f0 .L0 
     /tmp/cciGQfDY.s:1266   .text:00000000000005f0 .L0 
     /tmp/cciGQfDY.s:1268   .text:00000000000005f4 .L0 
GAS LISTING /tmp/cciGQfDY.s 			page 117


     /tmp/cciGQfDY.s:1271   .text:00000000000005f8 .L0 
     /tmp/cciGQfDY.s:1275   .text:00000000000005fc .L0 
     /tmp/cciGQfDY.s:1277   .text:00000000000005fc .L0 
     /tmp/cciGQfDY.s:1278   .text:00000000000005fc .L0 
     /tmp/cciGQfDY.s:1285   .text:0000000000000614 .L0 
     /tmp/cciGQfDY.s:1287   .text:000000000000061c .L0 
     /tmp/cciGQfDY.s:1293   .text:000000000000061c _ZN5RiscV21executeSemWaitSyscallEv
     /tmp/cciGQfDY.s:1296   .text:000000000000061c .L0 
     /tmp/cciGQfDY.s:1297   .text:000000000000061c .L0 
     /tmp/cciGQfDY.s:1298   .text:0000000000000620 .L0 
     /tmp/cciGQfDY.s:1301   .text:0000000000000628 .L0 
     /tmp/cciGQfDY.s:1302   .text:0000000000000628 .L0 
     /tmp/cciGQfDY.s:1304   .text:000000000000062c .L0 
     /tmp/cciGQfDY.s:1306   .text:000000000000062c .L0 
     /tmp/cciGQfDY.s:1307   .text:000000000000062c .L0 
src/kernel/riscv.cpp:411    .text:000000000000062c .L0 
     /tmp/cciGQfDY.s:1314   .text:0000000000000630 .L0 
     /tmp/cciGQfDY.s:1316   .text:0000000000000630 .L0 
     /tmp/cciGQfDY.s:1320   .text:0000000000000634 .L0 
     /tmp/cciGQfDY.s:1321   .text:0000000000000634 .L0 
     /tmp/cciGQfDY.s:1325   .text:0000000000000644 .L0 
     /tmp/cciGQfDY.s:1327   .text:0000000000000648 .L0 
     /tmp/cciGQfDY.s:1331   .text:000000000000064c .L0 
src/kernel/riscv.cpp:427    .text:000000000000064c .L0 
     /tmp/cciGQfDY.s:1337   .text:0000000000000650 .L0 
     /tmp/cciGQfDY.s:1339   .text:0000000000000650 .L0 
     /tmp/cciGQfDY.s:1342   .text:0000000000000658 .L0 
     /tmp/cciGQfDY.s:1343   .text:000000000000065c .L0 
     /tmp/cciGQfDY.s:1344   .text:000000000000065c .L0 
     /tmp/cciGQfDY.s:1346   .text:0000000000000660 .L0 
     /tmp/cciGQfDY.s:1347   .text:0000000000000660 .L0 
     /tmp/cciGQfDY.s:1349   .text:0000000000000664 .L0 
     /tmp/cciGQfDY.s:1353   .text:0000000000000668 .L0 
     /tmp/cciGQfDY.s:1355   .text:0000000000000668 .L0 
     /tmp/cciGQfDY.s:1356   .text:0000000000000668 .L0 
     /tmp/cciGQfDY.s:1362   .text:0000000000000674 .L0 
     /tmp/cciGQfDY.s:1364   .text:000000000000067c .L0 
     /tmp/cciGQfDY.s:1370   .text:000000000000067c _ZN5RiscV23executeSemSignalSyscallEv
     /tmp/cciGQfDY.s:1373   .text:000000000000067c .L0 
     /tmp/cciGQfDY.s:1374   .text:000000000000067c .L0 
     /tmp/cciGQfDY.s:1375   .text:0000000000000680 .L0 
     /tmp/cciGQfDY.s:1378   .text:0000000000000688 .L0 
     /tmp/cciGQfDY.s:1379   .text:0000000000000688 .L0 
     /tmp/cciGQfDY.s:1381   .text:000000000000068c .L0 
     /tmp/cciGQfDY.s:1383   .text:000000000000068c .L0 
     /tmp/cciGQfDY.s:1384   .text:000000000000068c .L0 
src/kernel/riscv.cpp:438    .text:000000000000068c .L0 
     /tmp/cciGQfDY.s:1391   .text:0000000000000690 .L0 
     /tmp/cciGQfDY.s:1393   .text:0000000000000690 .L0 
     /tmp/cciGQfDY.s:1395   .text:0000000000000694 .L0 
     /tmp/cciGQfDY.s:1399   .text:0000000000000698 .L0 
src/kernel/riscv.cpp:450    .text:0000000000000698 .L0 
     /tmp/cciGQfDY.s:1405   .text:000000000000069c .L0 
     /tmp/cciGQfDY.s:1407   .text:000000000000069c .L0 
     /tmp/cciGQfDY.s:1410   .text:00000000000006a4 .L0 
     /tmp/cciGQfDY.s:1411   .text:00000000000006a8 .L0 
     /tmp/cciGQfDY.s:1412   .text:00000000000006a8 .L0 
GAS LISTING /tmp/cciGQfDY.s 			page 118


     /tmp/cciGQfDY.s:1414   .text:00000000000006ac .L0 
     /tmp/cciGQfDY.s:1415   .text:00000000000006ac .L0 
     /tmp/cciGQfDY.s:1417   .text:00000000000006b0 .L0 
     /tmp/cciGQfDY.s:1421   .text:00000000000006b4 .L0 
     /tmp/cciGQfDY.s:1423   .text:00000000000006b4 .L0 
     /tmp/cciGQfDY.s:1424   .text:00000000000006b4 .L0 
     /tmp/cciGQfDY.s:1427   .text:00000000000006bc .L0 
     /tmp/cciGQfDY.s:1429   .text:00000000000006c4 .L0 
     /tmp/cciGQfDY.s:1435   .text:00000000000006c4 _ZN5RiscV23executeTimeSleepSyscallEv
     /tmp/cciGQfDY.s:1438   .text:00000000000006c4 .L0 
     /tmp/cciGQfDY.s:1439   .text:00000000000006c4 .L0 
     /tmp/cciGQfDY.s:1440   .text:00000000000006c8 .L0 
     /tmp/cciGQfDY.s:1444   .text:00000000000006d4 .L0 
     /tmp/cciGQfDY.s:1445   .text:00000000000006d4 .L0 
     /tmp/cciGQfDY.s:1446   .text:00000000000006d4 .L0 
     /tmp/cciGQfDY.s:1448   .text:00000000000006d8 .L0 
     /tmp/cciGQfDY.s:1450   .text:00000000000006d8 .L0 
     /tmp/cciGQfDY.s:1451   .text:00000000000006d8 .L0 
src/kernel/riscv.cpp:460    .text:00000000000006d8 .L0 
     /tmp/cciGQfDY.s:1457   .text:00000000000006dc .L0 
     /tmp/cciGQfDY.s:1459   .text:00000000000006dc .L0 
     /tmp/cciGQfDY.s:1463   .text:00000000000006e8 .L0 
     /tmp/cciGQfDY.s:1464   .text:00000000000006e8 .L0 
     /tmp/cciGQfDY.s:1467   .text:00000000000006f4 .L0 
     /tmp/cciGQfDY.s:1468   .text:00000000000006f4 .L0 
     /tmp/cciGQfDY.s:1470   .text:00000000000006f8 .L0 
     /tmp/cciGQfDY.s:1472   .text:00000000000006fc .L0 
     /tmp/cciGQfDY.s:1473   .text:00000000000006fc .L0 
     /tmp/cciGQfDY.s:1477   .text:0000000000000708 .L0 
     /tmp/cciGQfDY.s:1478   .text:0000000000000708 .L0 
     /tmp/cciGQfDY.s:1481   .text:0000000000000710 .L0 
     /tmp/cciGQfDY.s:1482   .text:0000000000000710 .L0 
     /tmp/cciGQfDY.s:1485   .text:0000000000000718 .L0 
     /tmp/cciGQfDY.s:1486   .text:0000000000000718 .L0 
     /tmp/cciGQfDY.s:1487   .text:0000000000000718 .L0 
     /tmp/cciGQfDY.s:1493   .text:0000000000000720 .L0 
     /tmp/cciGQfDY.s:1495   .text:0000000000000720 .L0 
     /tmp/cciGQfDY.s:1498   .text:0000000000000728 .L0 
     /tmp/cciGQfDY.s:1499   .text:000000000000072c .L0 
     /tmp/cciGQfDY.s:1501   .text:0000000000000730 .L0 
     /tmp/cciGQfDY.s:1502   .text:0000000000000730 .L0 
     /tmp/cciGQfDY.s:1504   .text:0000000000000734 .L0 
     /tmp/cciGQfDY.s:1507   .text:0000000000000738 .L0 
     /tmp/cciGQfDY.s:1509   .text:000000000000073c .L0 
     /tmp/cciGQfDY.s:1515   .text:000000000000073c _ZN5RiscV18executeGetcSyscallEv
     /tmp/cciGQfDY.s:1518   .text:000000000000073c .L0 
     /tmp/cciGQfDY.s:1519   .text:000000000000073c .L0 
     /tmp/cciGQfDY.s:1520   .text:0000000000000740 .L0 
     /tmp/cciGQfDY.s:1524   .text:000000000000074c .L0 
     /tmp/cciGQfDY.s:1525   .text:000000000000074c .L0 
     /tmp/cciGQfDY.s:1526   .text:000000000000074c .L0 
     /tmp/cciGQfDY.s:1528   .text:0000000000000750 .L0 
     /tmp/cciGQfDY.s:1530   .text:0000000000000750 .L0 
     /tmp/cciGQfDY.s:1531   .text:0000000000000750 .L0 
     /tmp/cciGQfDY.s:1533   .text:0000000000000758 .L0 
     /tmp/cciGQfDY.s:1535   .text:000000000000075c .L0 
     /tmp/cciGQfDY.s:1536   .text:000000000000075c .L0 
GAS LISTING /tmp/cciGQfDY.s 			page 119


     /tmp/cciGQfDY.s:1542   .text:0000000000000770 .L0 
     /tmp/cciGQfDY.s:1543   .text:0000000000000770 .L0 
     /tmp/cciGQfDY.s:1548   .text:000000000000077c .L0 
     /tmp/cciGQfDY.s:1551   .text:0000000000000784 .L0 
     /tmp/cciGQfDY.s:1556   .text:000000000000078c .L0 
src/kernel/riscv.cpp:501    .text:000000000000078c .L0 
     /tmp/cciGQfDY.s:1562   .text:0000000000000790 .L0 
     /tmp/cciGQfDY.s:1564   .text:0000000000000790 .L0 
     /tmp/cciGQfDY.s:1567   .text:0000000000000798 .L0 
     /tmp/cciGQfDY.s:1568   .text:000000000000079c .L0 
     /tmp/cciGQfDY.s:1569   .text:000000000000079c .L0 
     /tmp/cciGQfDY.s:1571   .text:00000000000007a0 .L0 
     /tmp/cciGQfDY.s:1572   .text:00000000000007a0 .L0 
     /tmp/cciGQfDY.s:1574   .text:00000000000007a4 .L0 
     /tmp/cciGQfDY.s:1576   .text:00000000000007a8 .L0 
     /tmp/cciGQfDY.s:1580   .text:00000000000007ac .L0 
     /tmp/cciGQfDY.s:1582   .text:00000000000007ac .L0 
     /tmp/cciGQfDY.s:1583   .text:00000000000007ac .L0 
     /tmp/cciGQfDY.s:1588   .text:00000000000007b8 .L0 
     /tmp/cciGQfDY.s:1589   .text:00000000000007b8 .L0 
     /tmp/cciGQfDY.s:1596   .text:00000000000007c8 .L0 
     /tmp/cciGQfDY.s:1597   .text:00000000000007c8 .L0 
     /tmp/cciGQfDY.s:1600   .text:00000000000007d4 .L0 
     /tmp/cciGQfDY.s:1606   .text:00000000000007d4 _ZN5RiscV22executePutcUtilSyscallEv
     /tmp/cciGQfDY.s:1609   .text:00000000000007d4 .L0 
     /tmp/cciGQfDY.s:1610   .text:00000000000007d4 .L0 
     /tmp/cciGQfDY.s:1611   .text:00000000000007d8 .L0 
     /tmp/cciGQfDY.s:1614   .text:00000000000007e0 .L0 
     /tmp/cciGQfDY.s:1615   .text:00000000000007e0 .L0 
     /tmp/cciGQfDY.s:1617   .text:00000000000007e4 .L0 
     /tmp/cciGQfDY.s:1619   .text:00000000000007e4 .L0 
     /tmp/cciGQfDY.s:1620   .text:00000000000007e4 .L0 
     /tmp/cciGQfDY.s:1623   .text:00000000000007ec .L0 
src/kernel/riscv.cpp:556    .text:00000000000007ec .L0 
     /tmp/cciGQfDY.s:1629   .text:00000000000007f0 .L0 
     /tmp/cciGQfDY.s:1631   .text:00000000000007f0 .L0 
     /tmp/cciGQfDY.s:1634   .text:00000000000007f8 .L0 
     /tmp/cciGQfDY.s:1635   .text:00000000000007fc .L0 
     /tmp/cciGQfDY.s:1637   .text:0000000000000800 .L0 
     /tmp/cciGQfDY.s:1638   .text:0000000000000800 .L0 
     /tmp/cciGQfDY.s:1640   .text:0000000000000804 .L0 
     /tmp/cciGQfDY.s:1642   .text:0000000000000808 .L0 
     /tmp/cciGQfDY.s:1648   .text:0000000000000808 _ZN5RiscV24executeThreadFreeSyscallEv
     /tmp/cciGQfDY.s:1651   .text:0000000000000808 .L0 
     /tmp/cciGQfDY.s:1652   .text:0000000000000808 .L0 
     /tmp/cciGQfDY.s:1653   .text:000000000000080c .L0 
     /tmp/cciGQfDY.s:1657   .text:0000000000000818 .L0 
     /tmp/cciGQfDY.s:1658   .text:0000000000000818 .L0 
     /tmp/cciGQfDY.s:1659   .text:0000000000000818 .L0 
     /tmp/cciGQfDY.s:1661   .text:000000000000081c .L0 
     /tmp/cciGQfDY.s:1663   .text:000000000000081c .L0 
     /tmp/cciGQfDY.s:1664   .text:000000000000081c .L0 
src/kernel/riscv.cpp:606    .text:000000000000081c .L0 
     /tmp/cciGQfDY.s:1671   .text:0000000000000820 .L0 
     /tmp/cciGQfDY.s:1673   .text:0000000000000820 .L0 
     /tmp/cciGQfDY.s:1677   .text:0000000000000824 .L0 
     /tmp/cciGQfDY.s:1678   .text:0000000000000824 .L0 
GAS LISTING /tmp/cciGQfDY.s 			page 120


     /tmp/cciGQfDY.s:1684   .text:000000000000082c .L0 
     /tmp/cciGQfDY.s:1686   .text:000000000000082c .L0 
     /tmp/cciGQfDY.s:1689   .text:0000000000000834 .L0 
     /tmp/cciGQfDY.s:1690   .text:0000000000000838 .L0 
     /tmp/cciGQfDY.s:1691   .text:0000000000000838 .L0 
     /tmp/cciGQfDY.s:1693   .text:000000000000083c .L0 
     /tmp/cciGQfDY.s:1694   .text:000000000000083c .L0 
     /tmp/cciGQfDY.s:1696   .text:0000000000000840 .L0 
     /tmp/cciGQfDY.s:1699   .text:0000000000000844 .L0 
     /tmp/cciGQfDY.s:1703   .text:0000000000000848 .L0 
     /tmp/cciGQfDY.s:1705   .text:0000000000000848 .L0 
     /tmp/cciGQfDY.s:1706   .text:0000000000000848 .L0 
     /tmp/cciGQfDY.s:1710   .text:0000000000000854 .L0 
     /tmp/cciGQfDY.s:1711   .text:0000000000000854 .L0 
     /tmp/cciGQfDY.s:1718   .text:0000000000000870 .L0 
     /tmp/cciGQfDY.s:1724   .text:0000000000000870 _ZN5RiscV27executeSemaphoreFreeSyscallEv
     /tmp/cciGQfDY.s:1727   .text:0000000000000870 .L0 
     /tmp/cciGQfDY.s:1728   .text:0000000000000870 .L0 
     /tmp/cciGQfDY.s:1729   .text:0000000000000874 .L0 
     /tmp/cciGQfDY.s:1733   .text:0000000000000880 .L0 
     /tmp/cciGQfDY.s:1734   .text:0000000000000880 .L0 
     /tmp/cciGQfDY.s:1735   .text:0000000000000880 .L0 
     /tmp/cciGQfDY.s:1737   .text:0000000000000884 .L0 
     /tmp/cciGQfDY.s:1739   .text:0000000000000884 .L0 
     /tmp/cciGQfDY.s:1740   .text:0000000000000884 .L0 
src/kernel/riscv.cpp:628    .text:0000000000000884 .L0 
     /tmp/cciGQfDY.s:1747   .text:0000000000000888 .L0 
     /tmp/cciGQfDY.s:1749   .text:0000000000000888 .L0 
     /tmp/cciGQfDY.s:1753   .text:000000000000088c .L0 
     /tmp/cciGQfDY.s:1754   .text:000000000000088c .L0 
     /tmp/cciGQfDY.s:1760   .text:0000000000000894 .L0 
     /tmp/cciGQfDY.s:1762   .text:0000000000000894 .L0 
     /tmp/cciGQfDY.s:1765   .text:000000000000089c .L0 
     /tmp/cciGQfDY.s:1766   .text:00000000000008a0 .L0 
     /tmp/cciGQfDY.s:1767   .text:00000000000008a0 .L0 
     /tmp/cciGQfDY.s:1769   .text:00000000000008a4 .L0 
     /tmp/cciGQfDY.s:1770   .text:00000000000008a4 .L0 
     /tmp/cciGQfDY.s:1772   .text:00000000000008a8 .L0 
     /tmp/cciGQfDY.s:1775   .text:00000000000008ac .L0 
     /tmp/cciGQfDY.s:1779   .text:00000000000008b0 .L0 
     /tmp/cciGQfDY.s:1781   .text:00000000000008b0 .L0 
     /tmp/cciGQfDY.s:1782   .text:00000000000008b0 .L0 
     /tmp/cciGQfDY.s:1789   .text:00000000000008cc .L0 
     /tmp/cciGQfDY.s:1795   .text:00000000000008cc _ZN5RiscV18executeForkSyscallEv
     /tmp/cciGQfDY.s:1798   .text:00000000000008cc .L0 
     /tmp/cciGQfDY.s:1801   .text:00000000000008cc .L0 
     /tmp/cciGQfDY.s:1802   .text:00000000000008d0 .L0 
     /tmp/cciGQfDY.s:1807   .text:00000000000008e0 .L0 
     /tmp/cciGQfDY.s:1808   .text:00000000000008e0 .L0 
     /tmp/cciGQfDY.s:1809   .text:00000000000008e0 .L0 
     /tmp/cciGQfDY.s:1810   .text:00000000000008e0 .L0 
     /tmp/cciGQfDY.s:1812   .text:00000000000008e4 .L0 
     /tmp/cciGQfDY.s:1814   .text:00000000000008e4 .L0 
     /tmp/cciGQfDY.s:1815   .text:00000000000008e4 .L0 
     /tmp/cciGQfDY.s:1822   .text:00000000000008f4 .L0 
     /tmp/cciGQfDY.s:1823   .text:00000000000008f4 .L0 
     /tmp/cciGQfDY.s:1832   .text:0000000000000914 .L0 
GAS LISTING /tmp/cciGQfDY.s 			page 121


     /tmp/cciGQfDY.s:1833   .text:0000000000000914 .L0 
     /tmp/cciGQfDY.s:1840   .text:0000000000000928 .L0 
     /tmp/cciGQfDY.s:1850   .text:0000000000000940 .L0 
     /tmp/cciGQfDY.s:1852   .text:0000000000000940 .L0 
     /tmp/cciGQfDY.s:1855   .text:0000000000000944 .L0 
     /tmp/cciGQfDY.s:1856   .text:0000000000000944 .L0 
     /tmp/cciGQfDY.s:1860   .text:0000000000000954 .L0 
     /tmp/cciGQfDY.s:1861   .text:0000000000000954 .L0 
     /tmp/cciGQfDY.s:1864   .text:0000000000000960 .L0 
     /tmp/cciGQfDY.s:1866   .text:0000000000000964 .L0 
     /tmp/cciGQfDY.s:1869   .text:0000000000000970 .L0 
     /tmp/cciGQfDY.s:1871   .text:0000000000000974 .L0 
     /tmp/cciGQfDY.s:1873   .text:0000000000000978 .L0 
     /tmp/cciGQfDY.s:1875   .text:000000000000097c .L0 
     /tmp/cciGQfDY.s:1876   .text:000000000000097c .L0 
     /tmp/cciGQfDY.s:1879   .text:0000000000000984 .L0 
     /tmp/cciGQfDY.s:1881   .text:0000000000000988 .L0 
     /tmp/cciGQfDY.s:1883   .text:000000000000098c .L0 
     /tmp/cciGQfDY.s:1886   .text:0000000000000990 .L0 
     /tmp/cciGQfDY.s:1887   .text:0000000000000990 .L0 
     /tmp/cciGQfDY.s:1889   .text:0000000000000994 .L0 
     /tmp/cciGQfDY.s:1890   .text:0000000000000994 .L0 
src/kernel/riscv.cpp:673    .text:0000000000000994 .L0 
     /tmp/cciGQfDY.s:1896   .text:0000000000000998 .L0 
src/kernel/riscv.cpp:675    .text:0000000000000998 .L0 
     /tmp/cciGQfDY.s:1901   .text:000000000000099c .L0 
src/kernel/riscv.cpp:677    .text:000000000000099c .L0 
     /tmp/cciGQfDY.s:1906   .text:00000000000009a0 .L0 
src/kernel/riscv.cpp:679    .text:00000000000009a0 .L0 
     /tmp/cciGQfDY.s:1911   .text:00000000000009a4 .L0 
src/kernel/riscv.cpp:681    .text:00000000000009a4 .L0 
     /tmp/cciGQfDY.s:1916   .text:00000000000009a8 .L0 
src/kernel/riscv.cpp:684    .text:00000000000009a8 .L0 
     /tmp/cciGQfDY.s:1921   .text:00000000000009ac .L0 
src/kernel/riscv.cpp:686    .text:00000000000009ac .L0 
     /tmp/cciGQfDY.s:1926   .text:00000000000009b0 .L0 
src/kernel/riscv.cpp:688    .text:00000000000009b0 .L0 
     /tmp/cciGQfDY.s:1931   .text:00000000000009b4 .L0 
src/kernel/riscv.cpp:690    .text:00000000000009b4 .L0 
     /tmp/cciGQfDY.s:1936   .text:00000000000009b8 .L0 
     /tmp/cciGQfDY.s:1938   .text:00000000000009b8 .L0 
     /tmp/cciGQfDY.s:1941   .text:00000000000009c0 .L0 
     /tmp/cciGQfDY.s:1943   .text:00000000000009c4 .L0 
     /tmp/cciGQfDY.s:1944   .text:00000000000009c4 .L0 
     /tmp/cciGQfDY.s:1946   .text:00000000000009c8 .L0 
     /tmp/cciGQfDY.s:1948   .text:00000000000009cc .L0 
     /tmp/cciGQfDY.s:1949   .text:00000000000009cc .L0 
     /tmp/cciGQfDY.s:1958   .text:00000000000009d8 .L0 
     /tmp/cciGQfDY.s:1959   .text:00000000000009d8 .L0 
src/kernel/riscv.cpp:704    .text:00000000000009d8 .L0 
     /tmp/cciGQfDY.s:1965   .text:00000000000009dc .L0 
     /tmp/cciGQfDY.s:1967   .text:00000000000009dc .L0 
     /tmp/cciGQfDY.s:1970   .text:00000000000009e4 .L0 
     /tmp/cciGQfDY.s:1971   .text:00000000000009e8 .L0 
     /tmp/cciGQfDY.s:1972   .text:00000000000009e8 .L0 
     /tmp/cciGQfDY.s:1974   .text:00000000000009ec .L0 
     /tmp/cciGQfDY.s:1975   .text:00000000000009ec .L0 
GAS LISTING /tmp/cciGQfDY.s 			page 122


     /tmp/cciGQfDY.s:1977   .text:00000000000009f0 .L0 
     /tmp/cciGQfDY.s:1980   .text:00000000000009f4 .L0 
     /tmp/cciGQfDY.s:1982   .text:00000000000009f8 .L0 
     /tmp/cciGQfDY.s:1986   .text:00000000000009fc .L0 
     /tmp/cciGQfDY.s:1989   .text:00000000000009fc .L0 
     /tmp/cciGQfDY.s:1998   .text:0000000000000a08 .L0 
     /tmp/cciGQfDY.s:2006   .text:0000000000000a20 .L0 
     /tmp/cciGQfDY.s:2035   .text:0000000000000a20 _ZN5RiscV5getPCEv
     /tmp/cciGQfDY.s:2038   .text:0000000000000a20 .L0 
     /tmp/cciGQfDY.s:2039   .text:0000000000000a20 .L0 
     /tmp/cciGQfDY.s:2040   .text:0000000000000a24 .L0 
     /tmp/cciGQfDY.s:2042   .text:0000000000000a28 .L0 
     /tmp/cciGQfDY.s:2044   .text:0000000000000a2c .L0 
     /tmp/cciGQfDY.s:2046   .text:0000000000000a2c .L0 
     /tmp/cciGQfDY.s:2047   .text:0000000000000a2c .L0 
src/kernel/riscv.cpp:713    .text:0000000000000a2c .L0 
     /tmp/cciGQfDY.s:2054   .text:0000000000000a30 .L0 
     /tmp/cciGQfDY.s:2056   .text:0000000000000a30 .L0 
     /tmp/cciGQfDY.s:2059   .text:0000000000000a34 .L0 
     /tmp/cciGQfDY.s:2062   .text:0000000000000a40 .L0 
     /tmp/cciGQfDY.s:2063   .text:0000000000000a44 .L0 
     /tmp/cciGQfDY.s:2064   .text:0000000000000a44 .L0 
     /tmp/cciGQfDY.s:2066   .text:0000000000000a48 .L0 
     /tmp/cciGQfDY.s:2068   .text:0000000000000a4c .L0 
     /tmp/cciGQfDY.s:2097   .text:0000000000000a4c _ZN5RiscV20handleSupervisorTrapEv
     /tmp/cciGQfDY.s:2100   .text:0000000000000a4c .L0 
     /tmp/cciGQfDY.s:2101   .text:0000000000000a4c .L0 
     /tmp/cciGQfDY.s:2102   .text:0000000000000a50 .L0 
     /tmp/cciGQfDY.s:2106   .text:0000000000000a5c .L0 
     /tmp/cciGQfDY.s:2107   .text:0000000000000a5c .L0 
     /tmp/cciGQfDY.s:2108   .text:0000000000000a5c .L0 
     /tmp/cciGQfDY.s:2110   .text:0000000000000a60 .L0 
     /tmp/cciGQfDY.s:2112   .text:0000000000000a60 .L0 
     /tmp/cciGQfDY.s:2113   .text:0000000000000a60 .L0 
src/kernel/riscv.cpp:55     .text:0000000000000a60 .L0 
     /tmp/cciGQfDY.s:2123   .text:0000000000000a64 .L0 
     /tmp/cciGQfDY.s:2124   .text:0000000000000a64 .L0 
     /tmp/cciGQfDY.s:2125   .text:0000000000000a64 .L0 
src/kernel/../../h/kernel/riscv.hpp:164    .text:0000000000000a64 .L0 
     /tmp/cciGQfDY.s:2133   .text:0000000000000a6c .L0 
     /tmp/cciGQfDY.s:2134   .text:0000000000000a6c .L0 
     /tmp/cciGQfDY.s:2138   .text:0000000000000a70 .L0 
     /tmp/cciGQfDY.s:2140   .text:0000000000000a74 .L0 
     /tmp/cciGQfDY.s:2141   .text:0000000000000a74 .L0 
src/kernel/riscv.cpp:58     .text:0000000000000a80 .L0 
     /tmp/cciGQfDY.s:2152   .text:0000000000000a88 .L0 
     /tmp/cciGQfDY.s:2153   .text:0000000000000a88 .L0 
     /tmp/cciGQfDY.s:2155   .text:0000000000000a8c .L0 
     /tmp/cciGQfDY.s:2158   .text:0000000000000a94 .L0 
     /tmp/cciGQfDY.s:2160   .text:0000000000000a98 .L0 
     /tmp/cciGQfDY.s:2166   .text:0000000000000aa0 .L0 
     /tmp/cciGQfDY.s:2167   .text:0000000000000aa0 .L0 
     /tmp/cciGQfDY.s:2169   .text:0000000000000aa4 .L0 
     /tmp/cciGQfDY.s:2179   .text:0000000000000ab4 .L0 
     /tmp/cciGQfDY.s:2180   .text:0000000000000ab4 .L0 
     /tmp/cciGQfDY.s:2182   .text:0000000000000ab8 .L0 
     /tmp/cciGQfDY.s:2194   .text:0000000000000ac8 .L0 
GAS LISTING /tmp/cciGQfDY.s 			page 123


     /tmp/cciGQfDY.s:2195   .text:0000000000000ac8 .L0 
     /tmp/cciGQfDY.s:2197   .text:0000000000000acc .L0 
     /tmp/cciGQfDY.s:2201   .text:0000000000000ad4 .L0 
     /tmp/cciGQfDY.s:2202   .text:0000000000000ad4 .L0 
     /tmp/cciGQfDY.s:2206   .text:0000000000000ae4 .L0 
     /tmp/cciGQfDY.s:2207   .text:0000000000000ae4 .L0 
     /tmp/cciGQfDY.s:2213   .text:0000000000000af4 .L0 
     /tmp/cciGQfDY.s:2214   .text:0000000000000af4 .L0 
     /tmp/cciGQfDY.s:2215   .text:0000000000000af4 .L0 
src/kernel/../../h/kernel/riscv.hpp:164    .text:0000000000000af4 .L0 
     /tmp/cciGQfDY.s:2223   .text:0000000000000afc .L0 
     /tmp/cciGQfDY.s:2224   .text:0000000000000afc .L0 
     /tmp/cciGQfDY.s:2229   .text:0000000000000b00 .L0 
     /tmp/cciGQfDY.s:2230   .text:0000000000000b00 .L0 
     /tmp/cciGQfDY.s:2237   .text:0000000000000b14 .L0 
     /tmp/cciGQfDY.s:2238   .text:0000000000000b14 .L0 
     /tmp/cciGQfDY.s:2244   .text:0000000000000b24 .L0 
     /tmp/cciGQfDY.s:2245   .text:0000000000000b24 .L0 
     /tmp/cciGQfDY.s:2246   .text:0000000000000b24 .L0 
src/kernel/../../h/kernel/riscv.hpp:174    .text:0000000000000b24 .L0 
     /tmp/cciGQfDY.s:2255   .text:0000000000000b28 .L0 
     /tmp/cciGQfDY.s:2256   .text:0000000000000b28 .L0 
     /tmp/cciGQfDY.s:2257   .text:0000000000000b28 .L0 
     /tmp/cciGQfDY.s:2263   .text:0000000000000b3c .L0 
     /tmp/cciGQfDY.s:2264   .text:0000000000000b3c .L0 
     /tmp/cciGQfDY.s:2268   .text:0000000000000b4c .L0 
     /tmp/cciGQfDY.s:2269   .text:0000000000000b4c .L0 
     /tmp/cciGQfDY.s:2276   .text:0000000000000b6c .L0 
     /tmp/cciGQfDY.s:2277   .text:0000000000000b6c .L0 
     /tmp/cciGQfDY.s:2281   .text:0000000000000b78 .L0 
     /tmp/cciGQfDY.s:2282   .text:0000000000000b78 .L0 
     /tmp/cciGQfDY.s:2285   .text:0000000000000b80 .L0 
     /tmp/cciGQfDY.s:2286   .text:0000000000000b80 .L0 
     /tmp/cciGQfDY.s:2290   .text:0000000000000b90 .L0 
     /tmp/cciGQfDY.s:2291   .text:0000000000000b90 .L0 
     /tmp/cciGQfDY.s:2303   .text:0000000000000b9c .L0 
     /tmp/cciGQfDY.s:2304   .text:0000000000000b9c .L0 
     /tmp/cciGQfDY.s:2305   .text:0000000000000b9c .L0 
src/kernel/../../h/kernel/riscv.hpp:194    .text:0000000000000b9c .L0 
     /tmp/cciGQfDY.s:2315   .text:0000000000000ba0 .L0 
     /tmp/cciGQfDY.s:2316   .text:0000000000000ba0 .L0 
     /tmp/cciGQfDY.s:2320   .text:0000000000000ba4 .L0 
     /tmp/cciGQfDY.s:2321   .text:0000000000000ba4 .L0 
     /tmp/cciGQfDY.s:2322   .text:0000000000000ba4 .L0 
src/kernel/../../h/kernel/riscv.hpp:174    .text:0000000000000ba4 .L0 
     /tmp/cciGQfDY.s:2332   .text:0000000000000ba8 .L0 
     /tmp/cciGQfDY.s:2333   .text:0000000000000ba8 .L0 
     /tmp/cciGQfDY.s:2335   .text:0000000000000bac .L0 
     /tmp/cciGQfDY.s:2337   .text:0000000000000bb0 .L0 
     /tmp/cciGQfDY.s:2338   .text:0000000000000bb0 .L0 
     /tmp/cciGQfDY.s:2341   .text:0000000000000bbc .L0 
     /tmp/cciGQfDY.s:2344   .text:0000000000000bc4 .L0 
     /tmp/cciGQfDY.s:2345   .text:0000000000000bc4 .L0 
     /tmp/cciGQfDY.s:2348   .text:0000000000000bcc .L0 
     /tmp/cciGQfDY.s:2349   .text:0000000000000bcc .L0 
src/kernel/riscv.cpp:71     .text:0000000000000bcc .L0 
     /tmp/cciGQfDY.s:2357   .text:0000000000000bd0 .L0 
GAS LISTING /tmp/cciGQfDY.s 			page 124


     /tmp/cciGQfDY.s:2471   .text:0000000000000bf4 .L0 
     /tmp/cciGQfDY.s:2472   .text:0000000000000bf4 .L0 
     /tmp/cciGQfDY.s:2473   .text:0000000000000bf4 .L0 
     /tmp/cciGQfDY.s:2477   .text:0000000000000bfc .L0 
     /tmp/cciGQfDY.s:2478   .text:0000000000000bfc .L0 
     /tmp/cciGQfDY.s:2479   .text:0000000000000bfc .L0 
     /tmp/cciGQfDY.s:2486   .text:0000000000000c0c .L0 
src/kernel/../../h/kernel/riscv.hpp:189    .text:0000000000000c0c .L0 
     /tmp/cciGQfDY.s:2496   .text:0000000000000c10 .L0 
     /tmp/cciGQfDY.s:2497   .text:0000000000000c10 .L0 
     /tmp/cciGQfDY.s:2502   .text:0000000000000c14 .L0 
src/kernel/../../h/kernel/riscv.hpp:179    .text:0000000000000c14 .L0 
     /tmp/cciGQfDY.s:2515   .text:0000000000000c18 .L0 
     /tmp/cciGQfDY.s:2516   .text:0000000000000c18 .L0 
     /tmp/cciGQfDY.s:2519   .text:0000000000000c20 .L0 
     /tmp/cciGQfDY.s:2520   .text:0000000000000c24 .L0 
     /tmp/cciGQfDY.s:2521   .text:0000000000000c24 .L0 
     /tmp/cciGQfDY.s:2523   .text:0000000000000c28 .L0 
     /tmp/cciGQfDY.s:2524   .text:0000000000000c28 .L0 
     /tmp/cciGQfDY.s:2526   .text:0000000000000c2c .L0 
     /tmp/cciGQfDY.s:2529   .text:0000000000000c30 .L0 
     /tmp/cciGQfDY.s:2533   .text:0000000000000c34 .L0 
     /tmp/cciGQfDY.s:2537   .text:0000000000000c34 .L0 
     /tmp/cciGQfDY.s:2538   .text:0000000000000c34 .L0 
     /tmp/cciGQfDY.s:2539   .text:0000000000000c34 .L0 
     /tmp/cciGQfDY.s:2542   .text:0000000000000c3c .L0 
     /tmp/cciGQfDY.s:2545   .text:0000000000000c40 .L0 
     /tmp/cciGQfDY.s:2546   .text:0000000000000c40 .L0 
     /tmp/cciGQfDY.s:2547   .text:0000000000000c40 .L0 
     /tmp/cciGQfDY.s:2550   .text:0000000000000c48 .L0 
     /tmp/cciGQfDY.s:2553   .text:0000000000000c4c .L0 
     /tmp/cciGQfDY.s:2554   .text:0000000000000c4c .L0 
     /tmp/cciGQfDY.s:2555   .text:0000000000000c4c .L0 
     /tmp/cciGQfDY.s:2558   .text:0000000000000c54 .L0 
     /tmp/cciGQfDY.s:2561   .text:0000000000000c58 .L0 
     /tmp/cciGQfDY.s:2562   .text:0000000000000c58 .L0 
     /tmp/cciGQfDY.s:2563   .text:0000000000000c58 .L0 
     /tmp/cciGQfDY.s:2566   .text:0000000000000c60 .L0 
     /tmp/cciGQfDY.s:2569   .text:0000000000000c64 .L0 
     /tmp/cciGQfDY.s:2570   .text:0000000000000c64 .L0 
     /tmp/cciGQfDY.s:2571   .text:0000000000000c64 .L0 
     /tmp/cciGQfDY.s:2574   .text:0000000000000c6c .L0 
     /tmp/cciGQfDY.s:2577   .text:0000000000000c70 .L0 
     /tmp/cciGQfDY.s:2578   .text:0000000000000c70 .L0 
     /tmp/cciGQfDY.s:2579   .text:0000000000000c70 .L0 
     /tmp/cciGQfDY.s:2582   .text:0000000000000c78 .L0 
     /tmp/cciGQfDY.s:2585   .text:0000000000000c7c .L0 
     /tmp/cciGQfDY.s:2586   .text:0000000000000c7c .L0 
     /tmp/cciGQfDY.s:2587   .text:0000000000000c7c .L0 
     /tmp/cciGQfDY.s:2590   .text:0000000000000c84 .L0 
     /tmp/cciGQfDY.s:2593   .text:0000000000000c88 .L0 
     /tmp/cciGQfDY.s:2594   .text:0000000000000c88 .L0 
     /tmp/cciGQfDY.s:2595   .text:0000000000000c88 .L0 
     /tmp/cciGQfDY.s:2598   .text:0000000000000c90 .L0 
     /tmp/cciGQfDY.s:2601   .text:0000000000000c94 .L0 
     /tmp/cciGQfDY.s:2602   .text:0000000000000c94 .L0 
     /tmp/cciGQfDY.s:2603   .text:0000000000000c94 .L0 
GAS LISTING /tmp/cciGQfDY.s 			page 125


     /tmp/cciGQfDY.s:2606   .text:0000000000000c9c .L0 
     /tmp/cciGQfDY.s:2609   .text:0000000000000ca0 .L0 
     /tmp/cciGQfDY.s:2610   .text:0000000000000ca0 .L0 
     /tmp/cciGQfDY.s:2611   .text:0000000000000ca0 .L0 
     /tmp/cciGQfDY.s:2614   .text:0000000000000ca8 .L0 
     /tmp/cciGQfDY.s:2617   .text:0000000000000cac .L0 
     /tmp/cciGQfDY.s:2618   .text:0000000000000cac .L0 
     /tmp/cciGQfDY.s:2619   .text:0000000000000cac .L0 
     /tmp/cciGQfDY.s:2622   .text:0000000000000cb4 .L0 
     /tmp/cciGQfDY.s:2625   .text:0000000000000cb8 .L0 
     /tmp/cciGQfDY.s:2626   .text:0000000000000cb8 .L0 
     /tmp/cciGQfDY.s:2627   .text:0000000000000cb8 .L0 
     /tmp/cciGQfDY.s:2630   .text:0000000000000cc0 .L0 
     /tmp/cciGQfDY.s:2633   .text:0000000000000cc4 .L0 
     /tmp/cciGQfDY.s:2634   .text:0000000000000cc4 .L0 
     /tmp/cciGQfDY.s:2635   .text:0000000000000cc4 .L0 
     /tmp/cciGQfDY.s:2638   .text:0000000000000ccc .L0 
     /tmp/cciGQfDY.s:2641   .text:0000000000000cd0 .L0 
     /tmp/cciGQfDY.s:2642   .text:0000000000000cd0 .L0 
     /tmp/cciGQfDY.s:2643   .text:0000000000000cd0 .L0 
     /tmp/cciGQfDY.s:2646   .text:0000000000000cd8 .L0 
     /tmp/cciGQfDY.s:2649   .text:0000000000000cdc .L0 
     /tmp/cciGQfDY.s:2650   .text:0000000000000cdc .L0 
     /tmp/cciGQfDY.s:2651   .text:0000000000000cdc .L0 
     /tmp/cciGQfDY.s:2654   .text:0000000000000ce4 .L0 
     /tmp/cciGQfDY.s:2657   .text:0000000000000ce8 .L0 
     /tmp/cciGQfDY.s:2658   .text:0000000000000ce8 .L0 
     /tmp/cciGQfDY.s:2659   .text:0000000000000ce8 .L0 
     /tmp/cciGQfDY.s:2662   .text:0000000000000cf0 .L0 
     /tmp/cciGQfDY.s:2665   .text:0000000000000cf4 .L0 
     /tmp/cciGQfDY.s:2666   .text:0000000000000cf4 .L0 
src/kernel/riscv.cpp:94     .text:0000000000000cf4 .L0 
     /tmp/cciGQfDY.s:2675   .text:0000000000000d04 .L0 
     /tmp/cciGQfDY.s:2676   .text:0000000000000d04 .L0 
     /tmp/cciGQfDY.s:2679   .text:0000000000000d0c .L0 
     /tmp/cciGQfDY.s:2680   .text:0000000000000d0c .L0 
     /tmp/cciGQfDY.s:2683   .text:0000000000000d14 .L0 
     /tmp/cciGQfDY.s:2691   .text:0000000000000d18 .L0 
     /tmp/cciGQfDY.s:2692   .text:0000000000000d18 .L0 
     /tmp/cciGQfDY.s:2693   .text:0000000000000d18 .L0 
src/kernel/../../h/kernel/riscv.hpp:194    .text:0000000000000d18 .L0 
     /tmp/cciGQfDY.s:2703   .text:0000000000000d1c .L0 
     /tmp/cciGQfDY.s:2704   .text:0000000000000d1c .L0 
     /tmp/cciGQfDY.s:2708   .text:0000000000000d20 .L0 
     /tmp/cciGQfDY.s:2709   .text:0000000000000d20 .L0 
     /tmp/cciGQfDY.s:2710   .text:0000000000000d20 .L0 
src/kernel/../../h/kernel/riscv.hpp:174    .text:0000000000000d20 .L0 
     /tmp/cciGQfDY.s:2720   .text:0000000000000d24 .L0 
     /tmp/cciGQfDY.s:2721   .text:0000000000000d24 .L0 
     /tmp/cciGQfDY.s:2726   .text:0000000000000d28 .L0 
     /tmp/cciGQfDY.s:2727   .text:0000000000000d28 .L0 
     /tmp/cciGQfDY.s:2728   .text:0000000000000d28 .L0 
     /tmp/cciGQfDY.s:2738   .text:0000000000000d30 .L0 
     /tmp/cciGQfDY.s:2739   .text:0000000000000d30 .L0 
     /tmp/cciGQfDY.s:2744   .text:0000000000000d44 .L0 
     /tmp/cciGQfDY.s:2745   .text:0000000000000d44 .L0 
     /tmp/cciGQfDY.s:2748   .text:0000000000000d4c .L0 
GAS LISTING /tmp/cciGQfDY.s 			page 126


     /tmp/cciGQfDY.s:2749   .text:0000000000000d4c .L0 
     /tmp/cciGQfDY.s:2755   .text:0000000000000d60 .L0 
     /tmp/cciGQfDY.s:2756   .text:0000000000000d60 .L0 
     /tmp/cciGQfDY.s:2760   .text:0000000000000d70 .L0 
     /tmp/cciGQfDY.s:2764   .text:0000000000000d74 .L0 
     /tmp/cciGQfDY.s:2765   .text:0000000000000d74 .L0 
     /tmp/cciGQfDY.s:2770   .text:0000000000000d78 .L0 
src/kernel/../../h/kernel/riscv.hpp:189    .text:0000000000000d78 .L0 
     /tmp/cciGQfDY.s:2780   .text:0000000000000d7c .L0 
     /tmp/cciGQfDY.s:2781   .text:0000000000000d7c .L0 
     /tmp/cciGQfDY.s:2786   .text:0000000000000d80 .L0 
src/kernel/../../h/kernel/riscv.hpp:179    .text:0000000000000d80 .L0 
     /tmp/cciGQfDY.s:2793   .text:0000000000000d84 .L0 
     /tmp/cciGQfDY.s:2801   .text:0000000000000d88 .L0 
     /tmp/cciGQfDY.s:2802   .text:0000000000000d88 .L0 
     /tmp/cciGQfDY.s:2806   .text:0000000000000d94 .L0 
     /tmp/cciGQfDY.s:2807   .text:0000000000000d94 .L0 
     /tmp/cciGQfDY.s:2808   .text:0000000000000d94 .L0 
     /tmp/cciGQfDY.s:2811   .text:0000000000000d9c .L0 
     /tmp/cciGQfDY.s:2812   .text:0000000000000d9c .L0 
     /tmp/cciGQfDY.s:2824   .text:0000000000000da8 .L0 
     /tmp/cciGQfDY.s:2825   .text:0000000000000da8 .L0 
     /tmp/cciGQfDY.s:2826   .text:0000000000000da8 .L0 
src/kernel/../../h/kernel/riscv.hpp:194    .text:0000000000000da8 .L0 
     /tmp/cciGQfDY.s:2836   .text:0000000000000dac .L0 
     /tmp/cciGQfDY.s:2837   .text:0000000000000dac .L0 
     /tmp/cciGQfDY.s:2841   .text:0000000000000db0 .L0 
     /tmp/cciGQfDY.s:2842   .text:0000000000000db0 .L0 
     /tmp/cciGQfDY.s:2843   .text:0000000000000db0 .L0 
src/kernel/../../h/kernel/riscv.hpp:174    .text:0000000000000db0 .L0 
     /tmp/cciGQfDY.s:2853   .text:0000000000000db4 .L0 
     /tmp/cciGQfDY.s:2854   .text:0000000000000db4 .L0 
     /tmp/cciGQfDY.s:2856   .text:0000000000000db8 .L0 
     /tmp/cciGQfDY.s:2857   .text:0000000000000db8 .L0 
     /tmp/cciGQfDY.s:2861   .text:0000000000000dc4 .L0 
src/kernel/riscv.cpp:149    .text:0000000000000dc4 .L0 
     /tmp/cciGQfDY.s:2867   .text:0000000000000dc8 .L0 
src/kernel/riscv.cpp:150    .text:0000000000000dc8 .L0 
     /tmp/cciGQfDY.s:2872   .text:0000000000000dcc .L0 
src/kernel/riscv.cpp:151    .text:0000000000000dcc .L0 
     /tmp/cciGQfDY.s:2880   .text:0000000000000dd0 .L0 
     /tmp/cciGQfDY.s:2881   .text:0000000000000dd0 .L0 
     /tmp/cciGQfDY.s:2884   .text:0000000000000dd4 .L0 
     /tmp/cciGQfDY.s:2887   .text:0000000000000dd8 .L0 
     /tmp/cciGQfDY.s:2888   .text:0000000000000dd8 .L0 
     /tmp/cciGQfDY.s:2889   .text:0000000000000dd8 .L0 
     /tmp/cciGQfDY.s:2890   .text:0000000000000dd8 .L0 
     /tmp/cciGQfDY.s:2894   .text:0000000000000de4 .L0 
src/kernel/riscv.cpp:160    .text:0000000000000de4 .L0 
     /tmp/cciGQfDY.s:2900   .text:0000000000000de8 .L0 
src/kernel/riscv.cpp:161    .text:0000000000000de8 .L0 
     /tmp/cciGQfDY.s:2905   .text:0000000000000dec .L0 
src/kernel/riscv.cpp:162    .text:0000000000000dec .L0 
     /tmp/cciGQfDY.s:2913   .text:0000000000000df4 .L0 
     /tmp/cciGQfDY.s:2914   .text:0000000000000df4 .L0 
     /tmp/cciGQfDY.s:2918   .text:0000000000000e00 .L0 
     /tmp/cciGQfDY.s:2924   .text:0000000000000e04 .L0 
GAS LISTING /tmp/cciGQfDY.s 			page 127


     /tmp/cciGQfDY.s:2925   .text:0000000000000e04 .L0 
     /tmp/cciGQfDY.s:2930   .text:0000000000000e14 .L0 
     /tmp/cciGQfDY.s:2931   .text:0000000000000e14 .L0 
     /tmp/cciGQfDY.s:2936   .text:0000000000000e18 .L0 
src/kernel/../../h/kernel/riscv.hpp:189    .text:0000000000000e18 .L0 
     /tmp/cciGQfDY.s:2946   .text:0000000000000e1c .L0 
     /tmp/cciGQfDY.s:2947   .text:0000000000000e1c .L0 
     /tmp/cciGQfDY.s:2952   .text:0000000000000e20 .L0 
src/kernel/../../h/kernel/riscv.hpp:179    .text:0000000000000e20 .L0 
     /tmp/cciGQfDY.s:2959   .text:0000000000000e24 .L0 
     /tmp/cciGQfDY.s:2967   .text:0000000000000e28 .L0 
     /tmp/cciGQfDY.s:2968   .text:0000000000000e28 .L0 
     /tmp/cciGQfDY.s:2972   .text:0000000000000e38 .L0 
     /tmp/cciGQfDY.s:2973   .text:0000000000000e38 .L0 
     /tmp/cciGQfDY.s:2984   .text:0000000000000e44 .L0 
     /tmp/cciGQfDY.s:2985   .text:0000000000000e44 .L0 
     /tmp/cciGQfDY.s:2989   .text:0000000000000e50 .L0 
     /tmp/cciGQfDY.s:2990   .text:0000000000000e50 .L0 
     /tmp/cciGQfDY.s:2993   .text:0000000000000e58 .L0 
     /tmp/cciGQfDY.s:2994   .text:0000000000000e58 .L0 
     /tmp/cciGQfDY.s:3000   .text:0000000000000e68 .L0 
     /tmp/cciGQfDY.s:3001   .text:0000000000000e68 .L0 
     /tmp/cciGQfDY.s:3002   .text:0000000000000e68 .L0 
src/kernel/../../h/kernel/riscv.hpp:174    .text:0000000000000e68 .L0 
     /tmp/cciGQfDY.s:3011   .text:0000000000000e6c .L0 
     /tmp/cciGQfDY.s:3012   .text:0000000000000e6c .L0 
     /tmp/cciGQfDY.s:3013   .text:0000000000000e6c .L0 
     /tmp/cciGQfDY.s:3019   .text:0000000000000e80 .L0 
     /tmp/cciGQfDY.s:3020   .text:0000000000000e80 .L0 
     /tmp/cciGQfDY.s:3024   .text:0000000000000e90 .L0 
     /tmp/cciGQfDY.s:3025   .text:0000000000000e90 .L0 
     /tmp/cciGQfDY.s:3029   .text:0000000000000ea0 .L0 
     /tmp/cciGQfDY.s:3030   .text:0000000000000ea0 .L0 
     /tmp/cciGQfDY.s:3038   .text:0000000000000eac .L0 
     /tmp/cciGQfDY.s:3044   .text:0000000000000eac _ZN5RiscV16threadCreateUtilEPP3TCBPFvPvES3_
     /tmp/cciGQfDY.s:3047   .text:0000000000000eac .L0 
     /tmp/cciGQfDY.s:3049   .text:0000000000000eac .L0 
     /tmp/cciGQfDY.s:3050   .text:0000000000000eb0 .L0 
     /tmp/cciGQfDY.s:3056   .text:0000000000000ec4 .L0 
     /tmp/cciGQfDY.s:3057   .text:0000000000000ec4 .L0 
     /tmp/cciGQfDY.s:3058   .text:0000000000000ec4 .L0 
     /tmp/cciGQfDY.s:3059   .text:0000000000000ec4 .L0 
     /tmp/cciGQfDY.s:3060   .text:0000000000000ec4 .L0 
     /tmp/cciGQfDY.s:3062   .text:0000000000000ec8 .L0 
     /tmp/cciGQfDY.s:3068   .text:0000000000000ed4 .L0 
     /tmp/cciGQfDY.s:3069   .text:0000000000000ed4 .L0 
     /tmp/cciGQfDY.s:3070   .text:0000000000000ed4 .L0 
     /tmp/cciGQfDY.s:3071   .text:0000000000000ed4 .L0 
     /tmp/cciGQfDY.s:3072   .text:0000000000000ed4 .L0 
     /tmp/cciGQfDY.s:3074   .text:0000000000000ed8 .L0 
     /tmp/cciGQfDY.s:3075   .text:0000000000000ed8 .L0 
     /tmp/cciGQfDY.s:3080   .text:0000000000000ee4 .L0 
     /tmp/cciGQfDY.s:3082   .text:0000000000000ee8 .L0 
     /tmp/cciGQfDY.s:3083   .text:0000000000000ee8 .L0 
     /tmp/cciGQfDY.s:3085   .text:0000000000000eec .L0 
     /tmp/cciGQfDY.s:3089   .text:0000000000000ef0 .L0 
     /tmp/cciGQfDY.s:3093   .text:0000000000000ef4 .L0 
GAS LISTING /tmp/cciGQfDY.s 			page 128


src/kernel/riscv.cpp:732    .text:0000000000000ef4 .L0 
     /tmp/cciGQfDY.s:3099   .text:0000000000000ef8 .L0 
src/kernel/riscv.cpp:733    .text:0000000000000ef8 .L0 
     /tmp/cciGQfDY.s:3104   .text:0000000000000efc .L0 
src/kernel/riscv.cpp:734    .text:0000000000000efc .L0 
     /tmp/cciGQfDY.s:3109   .text:0000000000000f00 .L0 
src/kernel/riscv.cpp:735    .text:0000000000000f00 .L0 
     /tmp/cciGQfDY.s:3114   .text:0000000000000f04 .L0 
src/kernel/riscv.cpp:736    .text:0000000000000f04 .L0 
     /tmp/cciGQfDY.s:3119   .text:0000000000000f08 .L0 
src/kernel/riscv.cpp:738    .text:0000000000000f08 .L0 
     /tmp/cciGQfDY.s:3124   .text:0000000000000f0c .L0 
     /tmp/cciGQfDY.s:3128   .text:0000000000000f0c .L0 
     /tmp/cciGQfDY.s:3129   .text:0000000000000f0c .L0 
     /tmp/cciGQfDY.s:3130   .text:0000000000000f10 .L0 
     /tmp/cciGQfDY.s:3132   .text:0000000000000f14 .L0 
     /tmp/cciGQfDY.s:3133   .text:0000000000000f14 .L0 
     /tmp/cciGQfDY.s:3135   .text:0000000000000f18 .L0 
     /tmp/cciGQfDY.s:3138   .text:0000000000000f1c .L0 
     /tmp/cciGQfDY.s:3141   .text:0000000000000f20 .L0 
     /tmp/cciGQfDY.s:3144   .text:0000000000000f24 .L0 
     /tmp/cciGQfDY.s:3146   .text:0000000000000f28 .L0 
     /tmp/cciGQfDY.s:3152   .text:0000000000000f28 _ZN5RiscV14threadExitUtilEv
     /tmp/cciGQfDY.s:3155   .text:0000000000000f28 .L0 
     /tmp/cciGQfDY.s:3156   .text:0000000000000f28 .L0 
     /tmp/cciGQfDY.s:3157   .text:0000000000000f2c .L0 
     /tmp/cciGQfDY.s:3159   .text:0000000000000f30 .L0 
     /tmp/cciGQfDY.s:3161   .text:0000000000000f34 .L0 
     /tmp/cciGQfDY.s:3163   .text:0000000000000f34 .L0 
src/kernel/riscv.cpp:747    .text:0000000000000f34 .L0 
     /tmp/cciGQfDY.s:3169   .text:0000000000000f38 .L0 
src/kernel/riscv.cpp:749    .text:0000000000000f38 .L0 
     /tmp/cciGQfDY.s:3174   .text:0000000000000f3c .L0 
     /tmp/cciGQfDY.s:3176   .text:0000000000000f3c .L0 
     /tmp/cciGQfDY.s:3178   .text:0000000000000f3c .L0 
     /tmp/cciGQfDY.s:3179   .text:0000000000000f40 .L0 
     /tmp/cciGQfDY.s:3180   .text:0000000000000f40 .L0 
     /tmp/cciGQfDY.s:3182   .text:0000000000000f44 .L0 
     /tmp/cciGQfDY.s:3184   .text:0000000000000f48 .L0 
     /tmp/cciGQfDY.s:3190   .text:0000000000000f48 _ZN5RiscV18threadDispatchUtilEv
     /tmp/cciGQfDY.s:3193   .text:0000000000000f48 .L0 
     /tmp/cciGQfDY.s:3194   .text:0000000000000f48 .L0 
     /tmp/cciGQfDY.s:3195   .text:0000000000000f4c .L0 
     /tmp/cciGQfDY.s:3197   .text:0000000000000f50 .L0 
     /tmp/cciGQfDY.s:3199   .text:0000000000000f54 .L0 
     /tmp/cciGQfDY.s:3201   .text:0000000000000f54 .L0 
src/kernel/riscv.cpp:757    .text:0000000000000f54 .L0 
     /tmp/cciGQfDY.s:3207   .text:0000000000000f58 .L0 
src/kernel/riscv.cpp:759    .text:0000000000000f58 .L0 
     /tmp/cciGQfDY.s:3213   .text:0000000000000f5c .L0 
     /tmp/cciGQfDY.s:3214   .text:0000000000000f60 .L0 
     /tmp/cciGQfDY.s:3215   .text:0000000000000f60 .L0 
     /tmp/cciGQfDY.s:3217   .text:0000000000000f64 .L0 
     /tmp/cciGQfDY.s:3219   .text:0000000000000f68 .L0 
     /tmp/cciGQfDY.s:3225   .text:0000000000000f68 _ZN5RiscV11putcWrapperEPv
     /tmp/cciGQfDY.s:3228   .text:0000000000000f68 .L0 
     /tmp/cciGQfDY.s:3230   .text:0000000000000f68 .L0 
GAS LISTING /tmp/cciGQfDY.s 			page 129


     /tmp/cciGQfDY.s:3231   .text:0000000000000f6c .L0 
     /tmp/cciGQfDY.s:3234   .text:0000000000000f74 .L0 
     /tmp/cciGQfDY.s:3235   .text:0000000000000f74 .L0 
     /tmp/cciGQfDY.s:3237   .text:0000000000000f78 .L0 
     /tmp/cciGQfDY.s:3244   .text:0000000000000f7c .L0 
     /tmp/cciGQfDY.s:3245   .text:0000000000000f7c .L0 
     /tmp/cciGQfDY.s:3252   .text:0000000000000f84 .L0 
     /tmp/cciGQfDY.s:3253   .text:0000000000000f84 .L0 
     /tmp/cciGQfDY.s:3254   .text:0000000000000f84 .L0 
     /tmp/cciGQfDY.s:3258   .text:0000000000000f90 .L0 
src/kernel/riscv.cpp:529    .text:0000000000000f90 .L0 
     /tmp/cciGQfDY.s:3264   .text:0000000000000f94 .L0 
src/kernel/riscv.cpp:530    .text:0000000000000f94 .L0 
     /tmp/cciGQfDY.s:3269   .text:0000000000000f98 .L0 
src/kernel/riscv.cpp:531    .text:0000000000000f98 .L0 
     /tmp/cciGQfDY.s:3277   .text:0000000000000f9c .L0 
     /tmp/cciGQfDY.s:3278   .text:0000000000000f9c .L0 
     /tmp/cciGQfDY.s:3281   .text:0000000000000fa0 .L0 
     /tmp/cciGQfDY.s:3284   .text:0000000000000fa4 .L0 
     /tmp/cciGQfDY.s:3285   .text:0000000000000fa4 .L0 
     /tmp/cciGQfDY.s:3288   .text:0000000000000fac .L0 
     /tmp/cciGQfDY.s:3290   .text:0000000000000fb0 .L0 
     /tmp/cciGQfDY.s:3291   .text:0000000000000fb0 .L0 
     /tmp/cciGQfDY.s:3295   .text:0000000000000fbc .L0 
src/kernel/riscv.cpp:539    .text:0000000000000fbc .L0 
     /tmp/cciGQfDY.s:3301   .text:0000000000000fc0 .L0 
     /tmp/cciGQfDY.s:3303   .text:0000000000000fc0 .L0 
src/kernel/riscv.cpp:540    .text:0000000000000fc4 .L0 
     /tmp/cciGQfDY.s:3311   .text:0000000000000fc8 .L0 
src/kernel/riscv.cpp:541    .text:0000000000000fc8 .L0 
     /tmp/cciGQfDY.s:3316   .text:0000000000000fcc .L0 
     /tmp/cciGQfDY.s:3318   .text:0000000000000fcc .L0 
     /tmp/cciGQfDY.s:3321   .text:0000000000000fd8 .L0 
     /tmp/cciGQfDY.s:3323   .text:0000000000000fdc .L0 
     /tmp/cciGQfDY.s:3324   .text:0000000000000fdc .L0 
     /tmp/cciGQfDY.s:3331   .text:0000000000000ff0 .L0 
     /tmp/cciGQfDY.s:3337   .text:0000000000000ff0 _ZN5RiscV6getPMTEv
     /tmp/cciGQfDY.s:3340   .text:0000000000000ff0 .L0 
     /tmp/cciGQfDY.s:3341   .text:0000000000000ff0 .L0 
     /tmp/cciGQfDY.s:3342   .text:0000000000000ff4 .L0 
     /tmp/cciGQfDY.s:3345   .text:0000000000000ffc .L0 
     /tmp/cciGQfDY.s:3346   .text:0000000000000ffc .L0 
     /tmp/cciGQfDY.s:3348   .text:0000000000001000 .L0 
     /tmp/cciGQfDY.s:3350   .text:0000000000001000 .L0 
     /tmp/cciGQfDY.s:3351   .text:0000000000001000 .L0 
     /tmp/cciGQfDY.s:3355   .text:000000000000100c .L0 
     /tmp/cciGQfDY.s:3357   .text:000000000000100c .L0 
     /tmp/cciGQfDY.s:3358   .text:000000000000100c .L0 
     /tmp/cciGQfDY.s:3362   .text:0000000000001010 .L0 
     /tmp/cciGQfDY.s:3365   .text:0000000000001018 .L0 
     /tmp/cciGQfDY.s:3366   .text:0000000000001018 .L0 
     /tmp/cciGQfDY.s:3369   .text:0000000000001020 .L0 
     /tmp/cciGQfDY.s:3371   .text:0000000000001024 .L0 
     /tmp/cciGQfDY.s:3378   .text:000000000000102c .L0 
     /tmp/cciGQfDY.s:3379   .text:0000000000001030 .L0 
     /tmp/cciGQfDY.s:3381   .text:0000000000001034 .L0 
     /tmp/cciGQfDY.s:3382   .text:0000000000001034 .L0 
GAS LISTING /tmp/cciGQfDY.s 			page 130


     /tmp/cciGQfDY.s:3384   .text:0000000000001038 .L0 
     /tmp/cciGQfDY.s:3386   .text:000000000000103c .L0 
     /tmp/cciGQfDY.s:3392   .text:000000000000103c _ZN5RiscV15handlePageFaultEPvmm
     /tmp/cciGQfDY.s:3395   .text:000000000000103c .L0 
     /tmp/cciGQfDY.s:3397   .text:000000000000103c .L0 
     /tmp/cciGQfDY.s:3398   .text:0000000000001040 .L0 
     /tmp/cciGQfDY.s:3406   .text:000000000000105c .L0 
     /tmp/cciGQfDY.s:3407   .text:000000000000105c .L0 
     /tmp/cciGQfDY.s:3408   .text:000000000000105c .L0 
     /tmp/cciGQfDY.s:3409   .text:000000000000105c .L0 
     /tmp/cciGQfDY.s:3410   .text:000000000000105c .L0 
     /tmp/cciGQfDY.s:3411   .text:000000000000105c .L0 
     /tmp/cciGQfDY.s:3412   .text:000000000000105c .L0 
     /tmp/cciGQfDY.s:3414   .text:0000000000001060 .L0 
     /tmp/cciGQfDY.s:3417   .text:0000000000001064 .L0 
     /tmp/cciGQfDY.s:3418   .text:0000000000001064 .L0 
     /tmp/cciGQfDY.s:3420   .text:0000000000001068 .L0 
     /tmp/cciGQfDY.s:3423   .text:000000000000106c .L0 
     /tmp/cciGQfDY.s:3424   .text:000000000000106c .L0 
     /tmp/cciGQfDY.s:3425   .text:000000000000106c .L0 
     /tmp/cciGQfDY.s:3427   .text:0000000000001070 .L0 
     /tmp/cciGQfDY.s:3430   .text:0000000000001074 .L0 
     /tmp/cciGQfDY.s:3431   .text:0000000000001074 .L0 
     /tmp/cciGQfDY.s:3433   .text:0000000000001078 .L0 
     /tmp/cciGQfDY.s:3436   .text:000000000000107c .L0 
     /tmp/cciGQfDY.s:3437   .text:000000000000107c .L0 
     /tmp/cciGQfDY.s:3441   .text:0000000000001084 .L0 
     /tmp/cciGQfDY.s:3444   .text:0000000000001088 .L0 
     /tmp/cciGQfDY.s:3445   .text:0000000000001088 .L0 
     /tmp/cciGQfDY.s:3447   .text:000000000000108c .L0 
     /tmp/cciGQfDY.s:3448   .text:000000000000108c .L0 
     /tmp/cciGQfDY.s:3451   .text:0000000000001090 .L0 
     /tmp/cciGQfDY.s:3455   .text:0000000000001094 .L0 
     /tmp/cciGQfDY.s:3456   .text:0000000000001094 .L0 
     /tmp/cciGQfDY.s:3460   .text:000000000000109c .L0 
     /tmp/cciGQfDY.s:3463   .text:00000000000010a0 .L0 
     /tmp/cciGQfDY.s:3464   .text:00000000000010a0 .L0 
     /tmp/cciGQfDY.s:3466   .text:00000000000010a4 .L0 
     /tmp/cciGQfDY.s:3467   .text:00000000000010a4 .L0 
     /tmp/cciGQfDY.s:3470   .text:00000000000010a8 .L0 
     /tmp/cciGQfDY.s:3474   .text:00000000000010ac .L0 
     /tmp/cciGQfDY.s:3475   .text:00000000000010ac .L0 
     /tmp/cciGQfDY.s:3480   .text:00000000000010b4 .L0 
     /tmp/cciGQfDY.s:3483   .text:00000000000010b8 .L0 
     /tmp/cciGQfDY.s:3485   .text:00000000000010bc .L0 
     /tmp/cciGQfDY.s:3486   .text:00000000000010bc .L0 
     /tmp/cciGQfDY.s:3489   .text:00000000000010c0 .L0 
     /tmp/cciGQfDY.s:3492   .text:00000000000010c4 .L0 
     /tmp/cciGQfDY.s:3495   .text:00000000000010c8 .L0 
     /tmp/cciGQfDY.s:3496   .text:00000000000010cc .L0 
     /tmp/cciGQfDY.s:3497   .text:00000000000010cc .L0 
     /tmp/cciGQfDY.s:3499   .text:00000000000010d0 .L0 
     /tmp/cciGQfDY.s:3500   .text:00000000000010d0 .L0 
     /tmp/cciGQfDY.s:3502   .text:00000000000010d4 .L0 
     /tmp/cciGQfDY.s:3504   .text:00000000000010d8 .L0 
     /tmp/cciGQfDY.s:3506   .text:00000000000010dc .L0 
     /tmp/cciGQfDY.s:3508   .text:00000000000010e0 .L0 
GAS LISTING /tmp/cciGQfDY.s 			page 131


     /tmp/cciGQfDY.s:3510   .text:00000000000010e4 .L0 
     /tmp/cciGQfDY.s:3512   .text:00000000000010e8 .L0 
     /tmp/cciGQfDY.s:3516   .text:00000000000010ec .L0 
     /tmp/cciGQfDY.s:3518   .text:00000000000010ec .L0 
     /tmp/cciGQfDY.s:3519   .text:00000000000010ec .L0 
     /tmp/cciGQfDY.s:3522   .text:00000000000010f4 .L0 
     /tmp/cciGQfDY.s:3523   .text:00000000000010f4 .L0 
     /tmp/cciGQfDY.s:3525   .text:00000000000010f8 .L0 
     /tmp/cciGQfDY.s:3527   .text:00000000000010fc .L0 
     /tmp/cciGQfDY.s:3529   .text:0000000000001100 .L0 
     /tmp/cciGQfDY.s:3534   .text:0000000000001108 .L0 
     /tmp/cciGQfDY.s:3535   .text:0000000000001108 .L0 
     /tmp/cciGQfDY.s:3538   .text:0000000000001110 .L0 
     /tmp/cciGQfDY.s:3539   .text:0000000000001110 .L0 
     /tmp/cciGQfDY.s:3541   .text:0000000000001114 .L0 
     /tmp/cciGQfDY.s:3543   .text:0000000000001118 .L0 
     /tmp/cciGQfDY.s:3545   .text:000000000000111c .L0 
     /tmp/cciGQfDY.s:3547   .text:0000000000001124 .L0 
     /tmp/cciGQfDY.s:3553   .text:0000000000001124 _ZN5RiscV12buildSectionEPvmmm
     /tmp/cciGQfDY.s:3556   .text:0000000000001124 .L0 
     /tmp/cciGQfDY.s:3558   .text:0000000000001124 .L0 
     /tmp/cciGQfDY.s:3559   .text:0000000000001128 .L0 
     /tmp/cciGQfDY.s:3566   .text:0000000000001140 .L0 
     /tmp/cciGQfDY.s:3567   .text:0000000000001140 .L0 
     /tmp/cciGQfDY.s:3568   .text:0000000000001140 .L0 
     /tmp/cciGQfDY.s:3569   .text:0000000000001140 .L0 
     /tmp/cciGQfDY.s:3570   .text:0000000000001140 .L0 
     /tmp/cciGQfDY.s:3571   .text:0000000000001140 .L0 
     /tmp/cciGQfDY.s:3573   .text:0000000000001144 .L0 
     /tmp/cciGQfDY.s:3582   .text:0000000000001154 .L0 
     /tmp/cciGQfDY.s:3583   .text:0000000000001154 .L0 
     /tmp/cciGQfDY.s:3585   .text:0000000000001158 .L0 
     /tmp/cciGQfDY.s:3586   .text:0000000000001158 .L0 
     /tmp/cciGQfDY.s:3592   .text:000000000000116c .L0 
     /tmp/cciGQfDY.s:3593   .text:000000000000116c .L0 
     /tmp/cciGQfDY.s:3597   .text:0000000000001174 .L0 
     /tmp/cciGQfDY.s:3601   .text:0000000000001178 .L0 
     /tmp/cciGQfDY.s:3602   .text:000000000000117c .L0 
     /tmp/cciGQfDY.s:3604   .text:0000000000001180 .L0 
     /tmp/cciGQfDY.s:3605   .text:0000000000001180 .L0 
     /tmp/cciGQfDY.s:3607   .text:0000000000001184 .L0 
     /tmp/cciGQfDY.s:3610   .text:0000000000001188 .L0 
     /tmp/cciGQfDY.s:3613   .text:000000000000118c .L0 
     /tmp/cciGQfDY.s:3616   .text:0000000000001190 .L0 
     /tmp/cciGQfDY.s:3619   .text:0000000000001194 .L0 
     /tmp/cciGQfDY.s:3621   .text:0000000000001198 .L0 
     /tmp/cciGQfDY.s:3627   .text:0000000000001198 _ZN5RiscV19mapConsoleRegistersEPv
     /tmp/cciGQfDY.s:3630   .text:0000000000001198 .L0 
     /tmp/cciGQfDY.s:3632   .text:0000000000001198 .L0 
     /tmp/cciGQfDY.s:3633   .text:000000000000119c .L0 
     /tmp/cciGQfDY.s:3637   .text:00000000000011a8 .L0 
     /tmp/cciGQfDY.s:3638   .text:00000000000011a8 .L0 
     /tmp/cciGQfDY.s:3639   .text:00000000000011a8 .L0 
     /tmp/cciGQfDY.s:3641   .text:00000000000011ac .L0 
     /tmp/cciGQfDY.s:3644   .text:00000000000011b0 .L0 
     /tmp/cciGQfDY.s:3645   .text:00000000000011b0 .L0 
     /tmp/cciGQfDY.s:3651   .text:00000000000011c8 .L0 
GAS LISTING /tmp/cciGQfDY.s 			page 132


     /tmp/cciGQfDY.s:3652   .text:00000000000011c8 .L0 
     /tmp/cciGQfDY.s:3659   .text:00000000000011e4 .L0 
     /tmp/cciGQfDY.s:3660   .text:00000000000011e4 .L0 
     /tmp/cciGQfDY.s:3667   .text:0000000000001200 .L0 
     /tmp/cciGQfDY.s:3668   .text:0000000000001200 .L0 
     /tmp/cciGQfDY.s:3675   .text:0000000000001218 .L0 
     /tmp/cciGQfDY.s:3676   .text:000000000000121c .L0 
     /tmp/cciGQfDY.s:3678   .text:0000000000001220 .L0 
     /tmp/cciGQfDY.s:3679   .text:0000000000001220 .L0 
     /tmp/cciGQfDY.s:3681   .text:0000000000001224 .L0 
     /tmp/cciGQfDY.s:3684   .text:0000000000001228 .L0 
     /tmp/cciGQfDY.s:3686   .text:000000000000122c .L0 
     /tmp/cciGQfDY.s:3692   .text:000000000000122c _ZN5RiscV14buildKernelPMTEv
     /tmp/cciGQfDY.s:3695   .text:000000000000122c .L0 
     /tmp/cciGQfDY.s:3696   .text:000000000000122c .L0 
     /tmp/cciGQfDY.s:3697   .text:0000000000001230 .L0 
     /tmp/cciGQfDY.s:3704   .text:0000000000001248 .L0 
     /tmp/cciGQfDY.s:3705   .text:0000000000001248 .L0 
     /tmp/cciGQfDY.s:3706   .text:0000000000001248 .L0 
     /tmp/cciGQfDY.s:3707   .text:0000000000001248 .L0 
     /tmp/cciGQfDY.s:3708   .text:0000000000001248 .L0 
     /tmp/cciGQfDY.s:3709   .text:0000000000001248 .L0 
     /tmp/cciGQfDY.s:3711   .text:000000000000124c .L0 
     /tmp/cciGQfDY.s:3713   .text:000000000000124c .L0 
     /tmp/cciGQfDY.s:3714   .text:000000000000124c .L0 
     /tmp/cciGQfDY.s:3717   .text:0000000000001254 .L0 
     /tmp/cciGQfDY.s:3720   .text:0000000000001260 .L0 
     /tmp/cciGQfDY.s:3721   .text:0000000000001260 .L0 
     /tmp/cciGQfDY.s:3725   .text:0000000000001270 .L0 
     /tmp/cciGQfDY.s:3728   .text:000000000000127c .L0 
     /tmp/cciGQfDY.s:3731   .text:0000000000001280 .L0 
     /tmp/cciGQfDY.s:3732   .text:0000000000001280 .L0 
     /tmp/cciGQfDY.s:3740   .text:00000000000012a0 .L0 
     /tmp/cciGQfDY.s:3741   .text:00000000000012a0 .L0 
     /tmp/cciGQfDY.s:3749   .text:00000000000012c0 .L0 
     /tmp/cciGQfDY.s:3750   .text:00000000000012c0 .L0 
     /tmp/cciGQfDY.s:3758   .text:00000000000012e0 .L0 
     /tmp/cciGQfDY.s:3759   .text:00000000000012e0 .L0 
     /tmp/cciGQfDY.s:3767   .text:0000000000001300 .L0 
     /tmp/cciGQfDY.s:3768   .text:0000000000001300 .L0 
     /tmp/cciGQfDY.s:3775   .text:0000000000001318 .L0 
     /tmp/cciGQfDY.s:3776   .text:0000000000001318 .L0 
     /tmp/cciGQfDY.s:3784   .text:0000000000001338 .L0 
     /tmp/cciGQfDY.s:3785   .text:0000000000001338 .L0 
     /tmp/cciGQfDY.s:3791   .text:0000000000001344 .L0 
     /tmp/cciGQfDY.s:3792   .text:0000000000001344 .L0 
     /tmp/cciGQfDY.s:3793   .text:0000000000001344 .L0 
     /tmp/cciGQfDY.s:3803   .text:000000000000134c .L0 
     /tmp/cciGQfDY.s:3804   .text:0000000000001350 .L0 
     /tmp/cciGQfDY.s:3806   .text:0000000000001354 .L0 
     /tmp/cciGQfDY.s:3807   .text:0000000000001354 .L0 
     /tmp/cciGQfDY.s:3809   .text:0000000000001358 .L0 
     /tmp/cciGQfDY.s:3811   .text:000000000000135c .L0 
     /tmp/cciGQfDY.s:3814   .text:0000000000001360 .L0 
     /tmp/cciGQfDY.s:3816   .text:0000000000001364 .L0 
     /tmp/cciGQfDY.s:3818   .text:0000000000001368 .L0 
     /tmp/cciGQfDY.s:3820   .text:000000000000136c .L0 
GAS LISTING /tmp/cciGQfDY.s 			page 133


     /tmp/cciGQfDY.s:3826   .text:000000000000136c _ZN5RiscV12buildUserPMTEv
     /tmp/cciGQfDY.s:3829   .text:000000000000136c .L0 
     /tmp/cciGQfDY.s:3830   .text:000000000000136c .L0 
     /tmp/cciGQfDY.s:3831   .text:0000000000001370 .L0 
     /tmp/cciGQfDY.s:3838   .text:0000000000001388 .L0 
     /tmp/cciGQfDY.s:3839   .text:0000000000001388 .L0 
     /tmp/cciGQfDY.s:3840   .text:0000000000001388 .L0 
     /tmp/cciGQfDY.s:3841   .text:0000000000001388 .L0 
     /tmp/cciGQfDY.s:3842   .text:0000000000001388 .L0 
     /tmp/cciGQfDY.s:3843   .text:0000000000001388 .L0 
     /tmp/cciGQfDY.s:3845   .text:000000000000138c .L0 
     /tmp/cciGQfDY.s:3847   .text:000000000000138c .L0 
     /tmp/cciGQfDY.s:3848   .text:000000000000138c .L0 
     /tmp/cciGQfDY.s:3851   .text:0000000000001394 .L0 
     /tmp/cciGQfDY.s:3854   .text:00000000000013a0 .L0 
     /tmp/cciGQfDY.s:3855   .text:00000000000013a0 .L0 
     /tmp/cciGQfDY.s:3859   .text:00000000000013b0 .L0 
     /tmp/cciGQfDY.s:3862   .text:00000000000013bc .L0 
     /tmp/cciGQfDY.s:3865   .text:00000000000013c0 .L0 
     /tmp/cciGQfDY.s:3866   .text:00000000000013c0 .L0 
     /tmp/cciGQfDY.s:3874   .text:00000000000013e0 .L0 
     /tmp/cciGQfDY.s:3875   .text:00000000000013e0 .L0 
     /tmp/cciGQfDY.s:3883   .text:0000000000001400 .L0 
     /tmp/cciGQfDY.s:3884   .text:0000000000001400 .L0 
     /tmp/cciGQfDY.s:3892   .text:0000000000001420 .L0 
     /tmp/cciGQfDY.s:3893   .text:0000000000001420 .L0 
     /tmp/cciGQfDY.s:3901   .text:0000000000001440 .L0 
     /tmp/cciGQfDY.s:3902   .text:0000000000001440 .L0 
     /tmp/cciGQfDY.s:3909   .text:0000000000001458 .L0 
     /tmp/cciGQfDY.s:3910   .text:0000000000001458 .L0 
     /tmp/cciGQfDY.s:3918   .text:0000000000001478 .L0 
     /tmp/cciGQfDY.s:3919   .text:0000000000001478 .L0 
     /tmp/cciGQfDY.s:3925   .text:0000000000001484 .L0 
     /tmp/cciGQfDY.s:3926   .text:0000000000001484 .L0 
     /tmp/cciGQfDY.s:3927   .text:0000000000001484 .L0 
     /tmp/cciGQfDY.s:3937   .text:000000000000148c .L0 
     /tmp/cciGQfDY.s:3938   .text:0000000000001490 .L0 
     /tmp/cciGQfDY.s:3940   .text:0000000000001494 .L0 
     /tmp/cciGQfDY.s:3941   .text:0000000000001494 .L0 
     /tmp/cciGQfDY.s:3943   .text:0000000000001498 .L0 
     /tmp/cciGQfDY.s:3945   .text:000000000000149c .L0 
     /tmp/cciGQfDY.s:3948   .text:00000000000014a0 .L0 
     /tmp/cciGQfDY.s:3950   .text:00000000000014a4 .L0 
     /tmp/cciGQfDY.s:3952   .text:00000000000014a8 .L0 
     /tmp/cciGQfDY.s:3954   .text:00000000000014ac .L0 
     /tmp/cciGQfDY.s:3960   .text:00000000000014ac _ZN5RiscV10initializeEv
     /tmp/cciGQfDY.s:3963   .text:00000000000014ac .L0 
     /tmp/cciGQfDY.s:3964   .text:00000000000014ac .L0 
     /tmp/cciGQfDY.s:3965   .text:00000000000014b0 .L0 
     /tmp/cciGQfDY.s:3968   .text:00000000000014b8 .L0 
     /tmp/cciGQfDY.s:3969   .text:00000000000014b8 .L0 
     /tmp/cciGQfDY.s:3971   .text:00000000000014bc .L0 
     /tmp/cciGQfDY.s:3973   .text:00000000000014bc .L0 
     /tmp/cciGQfDY.s:3974   .text:00000000000014bc .L0 
     /tmp/cciGQfDY.s:3979   .text:00000000000014c4 .L0 
src/kernel/../../h/kernel/riscv.hpp:199    .text:00000000000014c4 .L0 
     /tmp/cciGQfDY.s:3989   .text:00000000000014c8 .L0 
GAS LISTING /tmp/cciGQfDY.s 			page 134


     /tmp/cciGQfDY.s:3990   .text:00000000000014c8 .L0 
     /tmp/cciGQfDY.s:3995   .text:00000000000014dc .L0 
     /tmp/cciGQfDY.s:4000   .text:00000000000014ec .L0 
     /tmp/cciGQfDY.s:4001   .text:00000000000014ec .L0 
     /tmp/cciGQfDY.s:4004   .text:00000000000014f4 .L0 
     /tmp/cciGQfDY.s:4005   .text:00000000000014f4 .L0 
     /tmp/cciGQfDY.s:4008   .text:00000000000014fc .L0 
     /tmp/cciGQfDY.s:4009   .text:00000000000014fc .L0 
     /tmp/cciGQfDY.s:4012   .text:0000000000001504 .L0 
     /tmp/cciGQfDY.s:4013   .text:0000000000001504 .L0 
     /tmp/cciGQfDY.s:4016   .text:000000000000150c .L0 
     /tmp/cciGQfDY.s:4017   .text:000000000000150c .L0 
     /tmp/cciGQfDY.s:4020   .text:0000000000001514 .L0 
     /tmp/cciGQfDY.s:4021   .text:0000000000001514 .L0 
     /tmp/cciGQfDY.s:4024   .text:000000000000151c .L0 
     /tmp/cciGQfDY.s:4025   .text:000000000000151c .L0 
     /tmp/cciGQfDY.s:4028   .text:0000000000001524 .L0 
     /tmp/cciGQfDY.s:4029   .text:0000000000001524 .L0 
     /tmp/cciGQfDY.s:4033   .text:0000000000001534 .L0 
     /tmp/cciGQfDY.s:4034   .text:0000000000001534 .L0 
     /tmp/cciGQfDY.s:4039   .text:0000000000001538 .L0 
     /tmp/cciGQfDY.s:4040   .text:0000000000001538 .L0 
     /tmp/cciGQfDY.s:4043   .text:000000000000153c .L0 
     /tmp/cciGQfDY.s:4048   .text:0000000000001548 .L0 
src/kernel/../../h/kernel/riscv.hpp:259    .text:0000000000001548 .L0 
     /tmp/cciGQfDY.s:4058   .text:000000000000154c .L0 
     /tmp/cciGQfDY.s:4062   .text:000000000000154c .L0 
     /tmp/cciGQfDY.s:4063   .text:000000000000154c .L0 
     /tmp/cciGQfDY.s:4064   .text:000000000000154c .L0 
     /tmp/cciGQfDY.s:4078   .text:0000000000001554 .L0 
     /tmp/cciGQfDY.s:4079   .text:0000000000001554 .L0 
     /tmp/cciGQfDY.s:4080   .text:0000000000001554 .L0 
     /tmp/cciGQfDY.s:4094   .text:000000000000155c .L0 
     /tmp/cciGQfDY.s:4095   .text:000000000000155c .L0 
src/kernel/../../h/kernel/riscv.hpp:203    .text:000000000000155c .L0 
     /tmp/cciGQfDY.s:4106   .text:0000000000001560 .L0 
     /tmp/cciGQfDY.s:4107   .text:0000000000001564 .L0 
     /tmp/cciGQfDY.s:4109   .text:0000000000001568 .L0 
     /tmp/cciGQfDY.s:4110   .text:0000000000001568 .L0 
     /tmp/cciGQfDY.s:4112   .text:000000000000156c .L0 
     /tmp/cciGQfDY.s:4114   .text:0000000000001570 .L0 
     /tmp/cciGQfDY.s:4144   .bss:0000000000000020 _ZN5RiscV11initializedE
     /tmp/cciGQfDY.s:4136   .bss:0000000000000010 _ZN5RiscV4uPMTE
     /tmp/cciGQfDY.s:4132   .bss:0000000000000008 _ZN5RiscV4kPMTE
     /tmp/cciGQfDY.s:4127   .bss:0000000000000000 _ZN5RiscV16userMainFinishedE
     /tmp/cciGQfDY.s:4140   .bss:0000000000000018 _ZN5RiscV10globalTimeE
     /tmp/cciGQfDY.s:4124   .bss:0000000000000000 .LANCHOR0
     /tmp/cciGQfDY.s:4159   .text:0000000000001570 .L0 
     /tmp/cciGQfDY.s:24     .text:000000000000000c .L0 
     /tmp/cciGQfDY.s:52     .text:0000000000000034 .L0 
     /tmp/cciGQfDY.s:106    .text:0000000000000068 .L0 
     /tmp/cciGQfDY.s:146    .text:00000000000000a4 .L0 
     /tmp/cciGQfDY.s:151    .text:00000000000000b0 .L0 
     /tmp/cciGQfDY.s:197    .text:00000000000000f0 .L0 
     /tmp/cciGQfDY.s:221    .text:0000000000000110 .L0 
     /tmp/cciGQfDY.s:272    .text:0000000000000140 .L0 
     /tmp/cciGQfDY.s:317    .text:0000000000000174 .L0 
GAS LISTING /tmp/cciGQfDY.s 			page 135


     /tmp/cciGQfDY.s:320    .text:000000000000017c .L0 
     /tmp/cciGQfDY.s:324    .text:0000000000000188 .L0 
     /tmp/cciGQfDY.s:377    .text:00000000000001a4 .L0 
     /tmp/cciGQfDY.s:384    .text:00000000000001b8 .L0 
     /tmp/cciGQfDY.s:391    .text:00000000000001c8 .L0 
     /tmp/cciGQfDY.s:398    .text:00000000000001dc .L0 
     /tmp/cciGQfDY.s:400    .text:00000000000001e8 .L0 
     /tmp/cciGQfDY.s:445    .text:0000000000000224 .L0 
     /tmp/cciGQfDY.s:542    .text:0000000000000294 .L0 
     /tmp/cciGQfDY.s:1027   .text:00000000000004d8 .L0 
     /tmp/cciGQfDY.s:1321   .text:0000000000000634 .L0 
     /tmp/cciGQfDY.s:1459   .text:00000000000006dc .L0 
     /tmp/cciGQfDY.s:1464   .text:00000000000006e8 .L0 
     /tmp/cciGQfDY.s:1531   .text:0000000000000750 .L0 
     /tmp/cciGQfDY.s:1536   .text:000000000000075c .L0 
     /tmp/cciGQfDY.s:1823   .text:00000000000008f4 .L0 
     /tmp/cciGQfDY.s:1856   .text:0000000000000944 .L0 
     /tmp/cciGQfDY.s:1861   .text:0000000000000954 .L0 
     /tmp/cciGQfDY.s:1866   .text:0000000000000964 .L0 
     /tmp/cciGQfDY.s:2059   .text:0000000000000a34 .L0 
     /tmp/cciGQfDY.s:2141   .text:0000000000000a74 .L0 
     /tmp/cciGQfDY.s:2082   .rodata.str1.8:0000000000000038 .LC3
     /tmp/cciGQfDY.s:2202   .text:0000000000000ad4 .L0 
     /tmp/cciGQfDY.s:2085   .rodata.str1.8:0000000000000048 .LC4
     /tmp/cciGQfDY.s:2207   .text:0000000000000ae4 .L0 
     /tmp/cciGQfDY.s:2073   .rodata.str1.8:0000000000000000 .LC0
     /tmp/cciGQfDY.s:2238   .text:0000000000000b14 .L0 
     /tmp/cciGQfDY.s:2076   .rodata.str1.8:0000000000000008 .LC1
     /tmp/cciGQfDY.s:2264   .text:0000000000000b3c .L0 
     /tmp/cciGQfDY.s:2270   .text:0000000000000b50 .L0 
     /tmp/cciGQfDY.s:2088   .rodata.str1.8:0000000000000058 .LC5
     /tmp/cciGQfDY.s:2272   .text:0000000000000b5c .L0 
     /tmp/cciGQfDY.s:2277   .text:0000000000000b6c .L0 
     /tmp/cciGQfDY.s:2091   .rodata.str1.8:0000000000000060 .LC6
     /tmp/cciGQfDY.s:2286   .text:0000000000000b80 .L0 
     /tmp/cciGQfDY.s:2338   .text:0000000000000bb0 .L0 
     /tmp/cciGQfDY.s:2369   .rodata:0000000000000000 .L116
     /tmp/cciGQfDY.s:2361   .text:0000000000000bdc .L0 
     /tmp/cciGQfDY.s:2479   .text:0000000000000bfc .L0 
     /tmp/cciGQfDY.s:2672   .text:0000000000000cf8 .L0 
     /tmp/cciGQfDY.s:2739   .text:0000000000000d30 .L0 
     /tmp/cciGQfDY.s:2749   .text:0000000000000d4c .L0 
     /tmp/cciGQfDY.s:2756   .text:0000000000000d60 .L0 
     /tmp/cciGQfDY.s:2802   .text:0000000000000d88 .L0 
     /tmp/cciGQfDY.s:2857   .text:0000000000000db8 .L0 
     /tmp/cciGQfDY.s:2890   .text:0000000000000dd8 .L0 
     /tmp/cciGQfDY.s:2914   .text:0000000000000df4 .L0 
     /tmp/cciGQfDY.s:2969   .text:0000000000000e2c .L0 
     /tmp/cciGQfDY.s:2985   .text:0000000000000e44 .L0 
     /tmp/cciGQfDY.s:2994   .text:0000000000000e58 .L0 
     /tmp/cciGQfDY.s:3020   .text:0000000000000e80 .L0 
     /tmp/cciGQfDY.s:2079   .rodata.str1.8:0000000000000010 .LC2
     /tmp/cciGQfDY.s:3025   .text:0000000000000e90 .L0 
     /tmp/cciGQfDY.s:3254   .text:0000000000000f84 .L0 
     /tmp/cciGQfDY.s:3291   .text:0000000000000fb0 .L0 
     /tmp/cciGQfDY.s:3318   .text:0000000000000fcc .L0 
     /tmp/cciGQfDY.s:3325   .text:0000000000000fe0 .L0 
GAS LISTING /tmp/cciGQfDY.s 			page 136


     /tmp/cciGQfDY.s:3646   .text:00000000000011b4 .L0 
     /tmp/cciGQfDY.s:3653   .text:00000000000011cc .L0 
     /tmp/cciGQfDY.s:3661   .text:00000000000011e8 .L0 
     /tmp/cciGQfDY.s:3717   .text:0000000000001254 .L0 
     /tmp/cciGQfDY.s:3721   .text:0000000000001260 .L0 
     /tmp/cciGQfDY.s:3725   .text:0000000000001270 .L0 
     /tmp/cciGQfDY.s:3732   .text:0000000000001280 .L0 
     /tmp/cciGQfDY.s:3741   .text:00000000000012a0 .L0 
     /tmp/cciGQfDY.s:3750   .text:00000000000012c0 .L0 
     /tmp/cciGQfDY.s:3759   .text:00000000000012e0 .L0 
     /tmp/cciGQfDY.s:3777   .text:000000000000131c .L0 
     /tmp/cciGQfDY.s:3851   .text:0000000000001394 .L0 
     /tmp/cciGQfDY.s:3855   .text:00000000000013a0 .L0 
     /tmp/cciGQfDY.s:3859   .text:00000000000013b0 .L0 
     /tmp/cciGQfDY.s:3866   .text:00000000000013c0 .L0 
     /tmp/cciGQfDY.s:3875   .text:00000000000013e0 .L0 
     /tmp/cciGQfDY.s:3884   .text:0000000000001400 .L0 
     /tmp/cciGQfDY.s:3893   .text:0000000000001420 .L0 
     /tmp/cciGQfDY.s:3911   .text:000000000000145c .L0 
     /tmp/cciGQfDY.s:3974   .text:00000000000014bc .L0 
     /tmp/cciGQfDY.s:3990   .text:00000000000014c8 .L0 
     /tmp/cciGQfDY.s:4029   .text:0000000000001524 .L0 
     /tmp/cciGQfDY.s:76     .text:0000000000000050 .L5
     /tmp/cciGQfDY.s:59     .text:0000000000000040 .L3
     /tmp/cciGQfDY.s:155    .text:00000000000000c4 .L9
     /tmp/cciGQfDY.s:253    .text:0000000000000138 .L15
     /tmp/cciGQfDY.s:242    .text:000000000000012c .L11
     /tmp/cciGQfDY.s:388    .text:00000000000001c8 .L17
     /tmp/cciGQfDY.s:369    .text:00000000000001a4 .L18
     /tmp/cciGQfDY.s:409    .text:0000000000000204 .L16
     /tmp/cciGQfDY.s:395    .text:00000000000001dc .L20
     /tmp/cciGQfDY.s:570    .text:00000000000002c4 .L30
     /tmp/cciGQfDY.s:547    .text:00000000000002a8 .L27
     /tmp/cciGQfDY.s:661    .text:0000000000000334 .L32
     /tmp/cciGQfDY.s:722    .text:0000000000000384 .L36
     /tmp/cciGQfDY.s:677    .text:000000000000034c .L34
     /tmp/cciGQfDY.s:683    .text:0000000000000354 .L33
     /tmp/cciGQfDY.s:839    .text:0000000000000408 .L41
     /tmp/cciGQfDY.s:893    .text:000000000000044c .L44
     /tmp/cciGQfDY.s:854    .text:000000000000041c .L42
     /tmp/cciGQfDY.s:987    .text:00000000000004a8 .L52
     /tmp/cciGQfDY.s:964    .text:000000000000048c .L49
     /tmp/cciGQfDY.s:1070   .text:0000000000000518 .L55
     /tmp/cciGQfDY.s:1046   .text:00000000000004fc .L54
     /tmp/cciGQfDY.s:1133   .text:0000000000000564 .L58
     /tmp/cciGQfDY.s:1175   .text:0000000000000598 .L61
     /tmp/cciGQfDY.s:1142   .text:0000000000000570 .L59
     /tmp/cciGQfDY.s:1274   .text:00000000000005fc .L69
     /tmp/cciGQfDY.s:1247   .text:00000000000005dc .L66
     /tmp/cciGQfDY.s:1352   .text:0000000000000668 .L75
     /tmp/cciGQfDY.s:1360   .text:0000000000000674 .L73
     /tmp/cciGQfDY.s:1318   .text:0000000000000634 .L71
     /tmp/cciGQfDY.s:1328   .text:000000000000064c .L72
     /tmp/cciGQfDY.s:1420   .text:00000000000006b4 .L80
     /tmp/cciGQfDY.s:1397   .text:0000000000000698 .L77
     /tmp/cciGQfDY.s:1540   .text:0000000000000770 .L84
     /tmp/cciGQfDY.s:1579   .text:00000000000007ac .L88
GAS LISTING /tmp/cciGQfDY.s 			page 137


     /tmp/cciGQfDY.s:1594   .text:00000000000007c8 .L89
     /tmp/cciGQfDY.s:1554   .text:000000000000078c .L86
     /tmp/cciGQfDY.s:1702   .text:0000000000000848 .L95
     /tmp/cciGQfDY.s:1674   .text:0000000000000824 .L93
     /tmp/cciGQfDY.s:1778   .text:00000000000008b0 .L99
     /tmp/cciGQfDY.s:1750   .text:000000000000088c .L97
     /tmp/cciGQfDY.s:1848   .text:0000000000000940 .L101
     /tmp/cciGQfDY.s:1985   .text:00000000000009fc .L104
     /tmp/cciGQfDY.s:1955   .text:00000000000009d8 .L102
     /tmp/cciGQfDY.s:2294   .text:0000000000000b9c .L111
     /tmp/cciGQfDY.s:2684   .text:0000000000000d18 .L141
     /tmp/cciGQfDY.s:2816   .text:0000000000000da8 .L142
     /tmp/cciGQfDY.s:2977   .text:0000000000000e44 .L143
     /tmp/cciGQfDY.s:2509   .text:0000000000000c18 .L134
     /tmp/cciGQfDY.s:2476   .text:0000000000000bfc .L114
     /tmp/cciGQfDY.s:2795   .text:0000000000000d88 .L144
     /tmp/cciGQfDY.s:2761   .text:0000000000000d74 .L135
     /tmp/cciGQfDY.s:2920   .text:0000000000000e04 .L137
     /tmp/cciGQfDY.s:2961   .text:0000000000000e28 .L145
     /tmp/cciGQfDY.s:3087   .text:0000000000000ef0 .L149
     /tmp/cciGQfDY.s:3091   .text:0000000000000ef4 .L147
     /tmp/cciGQfDY.s:3127   .text:0000000000000f0c .L146
     /tmp/cciGQfDY.s:3247   .text:0000000000000f84 .L156
     /tmp/cciGQfDY.s:3240   .text:0000000000000f7c .L157
     /tmp/cciGQfDY.s:3375   .text:000000000000102c .L160
     /tmp/cciGQfDY.s:3360   .text:0000000000001010 .L162
     /tmp/cciGQfDY.s:3515   .text:00000000000010ec .L171
     /tmp/cciGQfDY.s:3532   .text:0000000000001108 .L172
     /tmp/cciGQfDY.s:3493   .text:00000000000010c8 .L164
     /tmp/cciGQfDY.s:3453   .text:0000000000001094 .L166
     /tmp/cciGQfDY.s:3472   .text:00000000000010ac .L168
     /tmp/cciGQfDY.s:3598   .text:0000000000001178 .L173
     /tmp/cciGQfDY.s:3580   .text:0000000000001154 .L175
     /tmp/cciGQfDY.s:646    .text:000000000000030c .LEHB0
     /tmp/cciGQfDY.s:593    .text:00000000000002d4 .LFB49
     /tmp/cciGQfDY.s:649    .text:0000000000000314 .LEHE0
     /tmp/cciGQfDY.s:657    .text:000000000000032c .LEHB1
     /tmp/cciGQfDY.s:660    .text:0000000000000334 .LEHE1
     /tmp/cciGQfDY.s:728    .text:000000000000038c .L37
     /tmp/cciGQfDY.s:673    .text:0000000000000344 .LEHB2
     /tmp/cciGQfDY.s:676    .text:000000000000034c .LEHE2
     /tmp/cciGQfDY.s:736    .text:00000000000003a0 .LEHB3
     /tmp/cciGQfDY.s:739    .text:00000000000003a8 .LEHE3
     /tmp/cciGQfDY.s:824    .text:00000000000003e0 .LEHB4
     /tmp/cciGQfDY.s:771    .text:00000000000003a8 .LFB50
     /tmp/cciGQfDY.s:827    .text:00000000000003e8 .LEHE4
     /tmp/cciGQfDY.s:835    .text:0000000000000400 .LEHB5
     /tmp/cciGQfDY.s:838    .text:0000000000000408 .LEHE5
     /tmp/cciGQfDY.s:899    .text:0000000000000454 .L45
     /tmp/cciGQfDY.s:907    .text:0000000000000468 .LEHB6
     /tmp/cciGQfDY.s:910    .text:0000000000000470 .LEHE6
     /tmp/cciGQfDY.s:1121   .text:0000000000000548 .LEHB7
     /tmp/cciGQfDY.s:1084   .text:0000000000000520 .LFB54
     /tmp/cciGQfDY.s:1124   .text:0000000000000550 .LEHE7
     /tmp/cciGQfDY.s:1129   .text:000000000000055c .LEHB8
     /tmp/cciGQfDY.s:1132   .text:0000000000000564 .LEHE8
     /tmp/cciGQfDY.s:1181   .text:00000000000005a0 .L62
GAS LISTING /tmp/cciGQfDY.s 			page 138


     /tmp/cciGQfDY.s:1189   .text:00000000000005b4 .LEHB9
     /tmp/cciGQfDY.s:1192   .text:00000000000005bc .LEHE9
     /tmp/cciGQfDY.s:1816   .text:00000000000008e8 .LEHB10
     /tmp/cciGQfDY.s:1796   .text:00000000000008cc .LFB68
     /tmp/cciGQfDY.s:1836   .text:0000000000000920 .LEHE10
     /tmp/cciGQfDY.s:1844   .text:0000000000000938 .LEHB11
     /tmp/cciGQfDY.s:1847   .text:0000000000000940 .LEHE11
     /tmp/cciGQfDY.s:1993   .text:0000000000000a04 .L105
     /tmp/cciGQfDY.s:1950   .text:00000000000009d0 .LEHB12
     /tmp/cciGQfDY.s:1953   .text:00000000000009d8 .LEHE12
     /tmp/cciGQfDY.s:2002   .text:0000000000000a18 .LEHB13
     /tmp/cciGQfDY.s:2005   .text:0000000000000a20 .LEHE13
     /tmp/cciGQfDY.s:2469   .text:0000000000000bf4 .L133
     /tmp/cciGQfDY.s:2532   .text:0000000000000c34 .L132
     /tmp/cciGQfDY.s:2543   .text:0000000000000c40 .L131
     /tmp/cciGQfDY.s:2551   .text:0000000000000c4c .L130
     /tmp/cciGQfDY.s:2559   .text:0000000000000c58 .L129
     /tmp/cciGQfDY.s:2567   .text:0000000000000c64 .L128
     /tmp/cciGQfDY.s:2575   .text:0000000000000c70 .L127
     /tmp/cciGQfDY.s:2583   .text:0000000000000c7c .L126
     /tmp/cciGQfDY.s:2591   .text:0000000000000c88 .L125
     /tmp/cciGQfDY.s:2599   .text:0000000000000c94 .L124
     /tmp/cciGQfDY.s:2607   .text:0000000000000ca0 .L123
     /tmp/cciGQfDY.s:2615   .text:0000000000000cac .L122
     /tmp/cciGQfDY.s:2623   .text:0000000000000cb8 .L121
     /tmp/cciGQfDY.s:2631   .text:0000000000000cc4 .L120
     /tmp/cciGQfDY.s:2639   .text:0000000000000cd0 .L119
     /tmp/cciGQfDY.s:2647   .text:0000000000000cdc .L118
     /tmp/cciGQfDY.s:2655   .text:0000000000000ce8 .L117
     /tmp/cciGQfDY.s:2663   .text:0000000000000cf4 .L115
     /tmp/cciGQfDY.s:9133   .debug_abbrev:0000000000000000 .Ldebug_abbrev0
     /tmp/cciGQfDY.s:12666  .debug_str:00000000000016a6 .LASF373
     /tmp/cciGQfDY.s:12370  .debug_str:0000000000000cf7 .LASF374
     /tmp/cciGQfDY.s:12588  .debug_str:00000000000013b4 .LASF375
     /tmp/cciGQfDY.s:5      .text:0000000000000000 .Ltext0
     /tmp/cciGQfDY.s:4147   .text:0000000000001570 .Letext0
     /tmp/cciGQfDY.s:11964  .debug_line:0000000000000000 .Ldebug_line0
     /tmp/cciGQfDY.s:12020  .debug_str:00000000000001e7 .LASF0
     /tmp/cciGQfDY.s:12662  .debug_str:000000000000168b .LASF1
     /tmp/cciGQfDY.s:12596  .debug_str:000000000000141c .LASF2
     /tmp/cciGQfDY.s:12538  .debug_str:000000000000122e .LASF4
     /tmp/cciGQfDY.s:12554  .debug_str:00000000000012b5 .LASF3
     /tmp/cciGQfDY.s:12176  .debug_str:0000000000000669 .LASF5
     /tmp/cciGQfDY.s:12248  .debug_str:00000000000008bd .LASF6
     /tmp/cciGQfDY.s:12454  .debug_str:0000000000000fa8 .LASF7
     /tmp/cciGQfDY.s:12062  .debug_str:0000000000000313 .LASF8
     /tmp/cciGQfDY.s:12648  .debug_str:00000000000015da .LASF9
     /tmp/cciGQfDY.s:12180  .debug_str:000000000000067b .LASF10
     /tmp/cciGQfDY.s:12100  .debug_str:0000000000000411 .LASF11
     /tmp/cciGQfDY.s:12280  .debug_str:00000000000009ca .LASF12
     /tmp/cciGQfDY.s:12192  .debug_str:00000000000006dc .LASF13
     /tmp/cciGQfDY.s:12514  .debug_str:0000000000001195 .LASF14
     /tmp/cciGQfDY.s:12198  .debug_str:00000000000006fd .LASF15
     /tmp/cciGQfDY.s:12144  .debug_str:0000000000000591 .LASF16
     /tmp/cciGQfDY.s:12072  .debug_str:000000000000034f .LASF147
     /tmp/cciGQfDY.s:12254  .debug_str:0000000000000906 .LASF20
     /tmp/cciGQfDY.s:12644  .debug_str:00000000000015bb .LASF17
GAS LISTING /tmp/cciGQfDY.s 			page 139


     /tmp/cciGQfDY.s:12012  .debug_str:0000000000000176 .LASF18
     /tmp/cciGQfDY.s:12216  .debug_str:0000000000000794 .LASF19
     /tmp/cciGQfDY.s:12210  .debug_str:0000000000000758 .LASF21
     /tmp/cciGQfDY.s:12164  .debug_str:0000000000000621 .LASF22
     /tmp/cciGQfDY.s:12470  .debug_str:0000000000001036 .LASF23
     /tmp/cciGQfDY.s:12520  .debug_str:00000000000011bd .LASF24
     /tmp/cciGQfDY.s:12010  .debug_str:000000000000016b .LASF25
     /tmp/cciGQfDY.s:12080  .debug_str:0000000000000381 .LASF26
     /tmp/cciGQfDY.s:12590  .debug_str:00000000000013e5 .LASF27
     /tmp/cciGQfDY.s:12150  .debug_str:00000000000005d2 .LASF28
     /tmp/cciGQfDY.s:12562  .debug_str:00000000000012e5 .LASF29
     /tmp/cciGQfDY.s:12444  .debug_str:0000000000000f73 .LASF30
     /tmp/cciGQfDY.s:12368  .debug_str:0000000000000cd3 .LASF32
     /tmp/cciGQfDY.s:12238  .debug_str:0000000000000861 .LASF31
     /tmp/cciGQfDY.s:12650  .debug_str:00000000000015e8 .LASF33
     /tmp/cciGQfDY.s:12060  .debug_str:00000000000002f8 .LASF34
     /tmp/cciGQfDY.s:12266  .debug_str:0000000000000955 .LASF35
     /tmp/cciGQfDY.s:12122  .debug_str:00000000000004a3 .LASF36
     /tmp/cciGQfDY.s:12594  .debug_str:00000000000013f6 .LASF37
     /tmp/cciGQfDY.s:12386  .debug_str:0000000000000d82 .LASF38
     /tmp/cciGQfDY.s:12422  .debug_str:0000000000000ecc .LASF39
     /tmp/cciGQfDY.s:12014  .debug_str:0000000000000183 .LASF40
     /tmp/cciGQfDY.s:12214  .debug_str:0000000000000768 .LASF41
     /tmp/cciGQfDY.s:12230  .debug_str:0000000000000824 .LASF42
     /tmp/cciGQfDY.s:12612  .debug_str:0000000000001484 .LASF43
     /tmp/cciGQfDY.s:12406  .debug_str:0000000000000e01 .LASF44
     /tmp/cciGQfDY.s:12142  .debug_str:000000000000056e .LASF45
     /tmp/cciGQfDY.s:12126  .debug_str:00000000000004c3 .LASF46
     /tmp/cciGQfDY.s:12620  .debug_str:00000000000014e5 .LASF47
     /tmp/cciGQfDY.s:12692  .debug_str:0000000000001818 .LASF48
     /tmp/cciGQfDY.s:12412  .debug_str:0000000000000e55 .LASF49
     /tmp/cciGQfDY.s:12046  .debug_str:000000000000028a .LASF50
     /tmp/cciGQfDY.s:12410  .debug_str:0000000000000e30 .LASF51
     /tmp/cciGQfDY.s:12618  .debug_str:00000000000014cd .LASF52
     /tmp/cciGQfDY.s:12220  .debug_str:00000000000007c7 .LASF53
     /tmp/cciGQfDY.s:12078  .debug_str:000000000000036e .LASF54
     /tmp/cciGQfDY.s:12300  .debug_str:0000000000000a68 .LASF55
     /tmp/cciGQfDY.s:12252  .debug_str:00000000000008f3 .LASF56
     /tmp/cciGQfDY.s:12326  .debug_str:0000000000000b74 .LASF57
     /tmp/cciGQfDY.s:11984  .debug_str:000000000000007a .LASF58
     /tmp/cciGQfDY.s:12654  .debug_str:0000000000001629 .LASF59
     /tmp/cciGQfDY.s:12690  .debug_str:00000000000017ff .LASF60
     /tmp/cciGQfDY.s:12186  .debug_str:00000000000006a0 .LASF61
     /tmp/cciGQfDY.s:12206  .debug_str:0000000000000737 .LASF62
     /tmp/cciGQfDY.s:12380  .debug_str:0000000000000d3e .LASF63
     /tmp/cciGQfDY.s:11966  .debug_str:0000000000000000 .LASF64
     /tmp/cciGQfDY.s:12546  .debug_str:000000000000126f .LASF65
     /tmp/cciGQfDY.s:12634  .debug_str:0000000000001586 .LASF66
     /tmp/cciGQfDY.s:12528  .debug_str:00000000000011d9 .LASF68
     /tmp/cciGQfDY.s:12476  .debug_str:000000000000106c .LASF67
     /tmp/cciGQfDY.s:12362  .debug_str:0000000000000c98 .LASF69
     /tmp/cciGQfDY.s:12002  .debug_str:0000000000000126 .LASF70
     /tmp/cciGQfDY.s:12468  .debug_str:000000000000101a .LASF71
     /tmp/cciGQfDY.s:12584  .debug_str:0000000000001398 .LASF72
     /tmp/cciGQfDY.s:11986  .debug_str:0000000000000091 .LASF73
     /tmp/cciGQfDY.s:12694  .debug_str:000000000000182e .LASF76
     /tmp/cciGQfDY.s:12488  .debug_str:00000000000010dd .LASF78
GAS LISTING /tmp/cciGQfDY.s 			page 140


     /tmp/cciGQfDY.s:12494  .debug_str:0000000000001112 .LASF74
     /tmp/cciGQfDY.s:12616  .debug_str:00000000000014b8 .LASF75
     /tmp/cciGQfDY.s:12118  .debug_str:000000000000048c .LASF77
     /tmp/cciGQfDY.s:12536  .debug_str:000000000000121b .LASF79
     /tmp/cciGQfDY.s:12170  .debug_str:0000000000000639 .LASF80
     /tmp/cciGQfDY.s:12332  .debug_str:0000000000000ba2 .LASF81
     /tmp/cciGQfDY.s:12664  .debug_str:000000000000169e .LASF82
     /tmp/cciGQfDY.s:12172  .debug_str:0000000000000640 .LASF83
     /tmp/cciGQfDY.s:12504  .debug_str:0000000000001153 .LASF84
     /tmp/cciGQfDY.s:12510  .debug_str:0000000000001172 .LASF85
     /tmp/cciGQfDY.s:12188  .debug_str:00000000000006c6 .LASF86
     /tmp/cciGQfDY.s:12360  .debug_str:0000000000000c82 .LASF87
     /tmp/cciGQfDY.s:12156  .debug_str:0000000000000604 .LASF88
     /tmp/cciGQfDY.s:12424  .debug_str:0000000000000ef6 .LASF89
     /tmp/cciGQfDY.s:12346  .debug_str:0000000000000c02 .LASF90
     /tmp/cciGQfDY.s:12712  .debug_str:00000000000018a3 .LASF91
     /tmp/cciGQfDY.s:12050  .debug_str:00000000000002ab .LASF92
     /tmp/cciGQfDY.s:12542  .debug_str:000000000000124d .LASF93
     /tmp/cciGQfDY.s:12608  .debug_str:000000000000146a .LASF94
     /tmp/cciGQfDY.s:12140  .debug_str:000000000000055b .LASF95
     /tmp/cciGQfDY.s:12162  .debug_str:000000000000061a .LASF96
     /tmp/cciGQfDY.s:12200  .debug_str:0000000000000713 .LASF97
     /tmp/cciGQfDY.s:12598  .debug_str:000000000000142a .LASF98
     /tmp/cciGQfDY.s:12058  .debug_str:00000000000002e5 .LASF99
     /tmp/cciGQfDY.s:12244  .debug_str:000000000000089a .LASF100
     /tmp/cciGQfDY.s:12708  .debug_str:0000000000001877 .LASF101
     /tmp/cciGQfDY.s:12602  .debug_str:000000000000143e .LASF102
     /tmp/cciGQfDY.s:12724  .debug_str:0000000000001912 .LASF103
     /tmp/cciGQfDY.s:12298  .debug_str:0000000000000a56 .LASF104
     /tmp/cciGQfDY.s:12288  .debug_str:00000000000009fe .LASF105
     /tmp/cciGQfDY.s:12318  .debug_str:0000000000000b31 .LASF106
     /tmp/cciGQfDY.s:12240  .debug_str:0000000000000877 .LASF107
     /tmp/cciGQfDY.s:12652  .debug_str:000000000000160b .LASF108
     /tmp/cciGQfDY.s:12086  .debug_str:00000000000003a5 .LASF109
     /tmp/cciGQfDY.s:12456  .debug_str:0000000000000fbb .LASF110
     /tmp/cciGQfDY.s:12434  .debug_str:0000000000000f36 .LASF111
     /tmp/cciGQfDY.s:12190  .debug_str:00000000000006d0 .LASF112
     /tmp/cciGQfDY.s:12408  .debug_str:0000000000000e17 .LASF113
     /tmp/cciGQfDY.s:12428  .debug_str:0000000000000f15 .LASF114
     /tmp/cciGQfDY.s:12344  .debug_str:0000000000000bf0 .LASF115
     /tmp/cciGQfDY.s:12482  .debug_str:00000000000010a3 .LASF116
     /tmp/cciGQfDY.s:12246  .debug_str:00000000000008a1 .LASF117
     /tmp/cciGQfDY.s:12028  .debug_str:0000000000000205 .LASF118
     /tmp/cciGQfDY.s:12310  .debug_str:0000000000000ac4 .LASF119
     /tmp/cciGQfDY.s:12728  .debug_str:0000000000001942 .LASF120
     /tmp/cciGQfDY.s:12626  .debug_str:0000000000001532 .LASF121
     /tmp/cciGQfDY.s:12714  .debug_str:00000000000018bb .LASF122
     /tmp/cciGQfDY.s:12576  .debug_str:0000000000001346 .LASF123
     /tmp/cciGQfDY.s:12710  .debug_str:000000000000188a .LASF124
     /tmp/cciGQfDY.s:12420  .debug_str:0000000000000ea6 .LASF125
     /tmp/cciGQfDY.s:11982  .debug_str:0000000000000060 .LASF126
     /tmp/cciGQfDY.s:12218  .debug_str:00000000000007a0 .LASF127
     /tmp/cciGQfDY.s:12138  .debug_str:0000000000000545 .LASF128
     /tmp/cciGQfDY.s:12656  .debug_str:000000000000164d .LASF129
     /tmp/cciGQfDY.s:12044  .debug_str:0000000000000273 .LASF130
     /tmp/cciGQfDY.s:12670  .debug_str:000000000000177d .LASF131
     /tmp/cciGQfDY.s:12034  .debug_str:0000000000000230 .LASF132
GAS LISTING /tmp/cciGQfDY.s 			page 141


     /tmp/cciGQfDY.s:12622  .debug_str:0000000000001509 .LASF133
     /tmp/cciGQfDY.s:12178  .debug_str:0000000000000670 .LASF134
     /tmp/cciGQfDY.s:12540  .debug_str:0000000000001235 .LASF135
     /tmp/cciGQfDY.s:12624  .debug_str:0000000000001529 .LASF136
     /tmp/cciGQfDY.s:12458  .debug_str:0000000000000fc6 .LASF137
     /tmp/cciGQfDY.s:12284  .debug_str:00000000000009e3 .LASF138
     /tmp/cciGQfDY.s:12688  .debug_str:00000000000017ec .LASF139
     /tmp/cciGQfDY.s:12234  .debug_str:000000000000084e .LASF140
     /tmp/cciGQfDY.s:12316  .debug_str:0000000000000b13 .LASF141
     /tmp/cciGQfDY.s:12342  .debug_str:0000000000000be1 .LASF142
     /tmp/cciGQfDY.s:12474  .debug_str:0000000000001050 .LASF143
     /tmp/cciGQfDY.s:12518  .debug_str:00000000000011b0 .LASF144
     /tmp/cciGQfDY.s:12304  .debug_str:0000000000000a9b .LASF145
     /tmp/cciGQfDY.s:12286  .debug_str:00000000000009ea .LASF248
     /tmp/cciGQfDY.s:12006  .debug_str:000000000000013c .LASF250
     /tmp/cciGQfDY.s:12328  .debug_str:0000000000000b94 .LASF146
     /tmp/cciGQfDY.s:12442  .debug_str:0000000000000f6b .LASF207
     /tmp/cciGQfDY.s:12026  .debug_str:00000000000001fe .LASF148
     /tmp/cciGQfDY.s:12204  .debug_str:000000000000072f .LASF149
     /tmp/cciGQfDY.s:12324  .debug_str:0000000000000b6e .LASF150
     /tmp/cciGQfDY.s:12312  .debug_str:0000000000000ae6 .LASF151
     /tmp/cciGQfDY.s:12526  .debug_str:00000000000011d1 .LASF152
     /tmp/cciGQfDY.s:12448  .debug_str:0000000000000f94 .LASF153
     /tmp/cciGQfDY.s:12066  .debug_str:0000000000000340 .LASF154
     /tmp/cciGQfDY.s:12574  .debug_str:000000000000133b .LASF155
     /tmp/cciGQfDY.s:11970  .debug_str:0000000000000018 .LASF156
     /tmp/cciGQfDY.s:12108  .debug_str:0000000000000452 .LASF157
     /tmp/cciGQfDY.s:12208  .debug_str:0000000000000753 .LASF158
     /tmp/cciGQfDY.s:12674  .debug_str:00000000000017ae .LASF159
     /tmp/cciGQfDY.s:12374  .debug_str:0000000000000d14 .LASF163
     /tmp/cciGQfDY.s:12606  .debug_str:0000000000001462 .LASF160
     /tmp/cciGQfDY.s:12056  .debug_str:00000000000002d2 .LASF161
     /tmp/cciGQfDY.s:12402  .debug_str:0000000000000dea .LASF162
     /tmp/cciGQfDY.s:12224  .debug_str:00000000000007fe .LASF164
     /tmp/cciGQfDY.s:12396  .debug_str:0000000000000dd0 .LASF165
     /tmp/cciGQfDY.s:12042  .debug_str:0000000000000266 .LASF166
     /tmp/cciGQfDY.s:12212  .debug_str:0000000000000763 .LASF167
     /tmp/cciGQfDY.s:12560  .debug_str:00000000000012d6 .LASF168
     /tmp/cciGQfDY.s:12292  .debug_str:0000000000000a2d .LASF169
     /tmp/cciGQfDY.s:12382  .debug_str:0000000000000d67 .LASF170
     /tmp/cciGQfDY.s:12580  .debug_str:000000000000136a .LASF171
     /tmp/cciGQfDY.s:12038  .debug_str:000000000000025c .LASF172
     /tmp/cciGQfDY.s:12436  .debug_str:0000000000000f4e .LASF173
     /tmp/cciGQfDY.s:12112  .debug_str:000000000000046f .LASF174
     /tmp/cciGQfDY.s:12120  .debug_str:0000000000000493 .LASF175
     /tmp/cciGQfDY.s:12184  .debug_str:0000000000000696 .LASF176
     /tmp/cciGQfDY.s:12054  .debug_str:00000000000002c8 .LASF177
     /tmp/cciGQfDY.s:12640  .debug_str:00000000000015a7 .LASF178
     /tmp/cciGQfDY.s:12136  .debug_str:000000000000051d .LASF179
     /tmp/cciGQfDY.s:11992  .debug_str:00000000000000e5 .LASF180
     /tmp/cciGQfDY.s:12498  .debug_str:0000000000001121 .LASF181
     /tmp/cciGQfDY.s:12384  .debug_str:0000000000000d7a .LASF182
     /tmp/cciGQfDY.s:12274  .debug_str:0000000000000998 .LASF183
     /tmp/cciGQfDY.s:12068  .debug_str:0000000000000345 .LASF184
     /tmp/cciGQfDY.s:12578  .debug_str:0000000000001365 .LASF185
     /tmp/cciGQfDY.s:12400  .debug_str:0000000000000de5 .LASF186
     /tmp/cciGQfDY.s:12534  .debug_str:0000000000001215 .LASF187
GAS LISTING /tmp/cciGQfDY.s 			page 142


     /tmp/cciGQfDY.s:11994  .debug_str:00000000000000f1 .LASF188
     /tmp/cciGQfDY.s:12168  .debug_str:0000000000000634 .LASF189
     /tmp/cciGQfDY.s:12372  .debug_str:0000000000000d0c .LASF190
     /tmp/cciGQfDY.s:12024  .debug_str:00000000000001f9 .LASF191
     /tmp/cciGQfDY.s:12016  .debug_str:00000000000001a2 .LASF192
     /tmp/cciGQfDY.s:12322  .debug_str:0000000000000b65 .LASF193
     /tmp/cciGQfDY.s:12586  .debug_str:00000000000013ab .LASF194
     /tmp/cciGQfDY.s:12392  .debug_str:0000000000000dc0 .LASF195
     /tmp/cciGQfDY.s:12686  .debug_str:00000000000017e4 .LASF196
     /tmp/cciGQfDY.s:12700  .debug_str:0000000000001849 .LASF197
     /tmp/cciGQfDY.s:12604  .debug_str:0000000000001451 .LASF198
     /tmp/cciGQfDY.s:12678  .debug_str:00000000000017bd .LASF199
     /tmp/cciGQfDY.s:12242  .debug_str:0000000000000895 .LASF200
     /tmp/cciGQfDY.s:12570  .debug_str:000000000000131d .LASF201
     /tmp/cciGQfDY.s:12704  .debug_str:0000000000001862 .LASF202
     /tmp/cciGQfDY.s:12114  .debug_str:0000000000000474 .LASF203
     /tmp/cciGQfDY.s:11974  .debug_str:0000000000000034 .LASF204
     /tmp/cciGQfDY.s:12702  .debug_str:0000000000001854 .LASF205
     /tmp/cciGQfDY.s:12276  .debug_str:000000000000099f .LASF206
     /tmp/cciGQfDY.s:12146  .debug_str:00000000000005a7 .LASF208
     /tmp/cciGQfDY.s:12104  .debug_str:0000000000000443 .LASF209
     /tmp/cciGQfDY.s:12070  .debug_str:000000000000034a .LASF210
     /tmp/cciGQfDY.s:12684  .debug_str:00000000000017d8 .LASF211
     /tmp/cciGQfDY.s:12592  .debug_str:00000000000013ea .LASF212
     /tmp/cciGQfDY.s:12008  .debug_str:000000000000015e .LASF213
     /tmp/cciGQfDY.s:12672  .debug_str:00000000000017a1 .LASF214
     /tmp/cciGQfDY.s:12194  .debug_str:00000000000006ec .LASF215
     /tmp/cciGQfDY.s:12630  .debug_str:0000000000001561 .LASF216
     /tmp/cciGQfDY.s:12268  .debug_str:000000000000097d .LASF217
     /tmp/cciGQfDY.s:12480  .debug_str:0000000000001085 .LASF218
     /tmp/cciGQfDY.s:12718  .debug_str:00000000000018d9 .LASF219
     /tmp/cciGQfDY.s:12018  .debug_str:00000000000001ac .LASF220
     /tmp/cciGQfDY.s:12320  .debug_str:0000000000000b42 .LASF221
     /tmp/cciGQfDY.s:12682  .debug_str:00000000000017cd .LASF222
     /tmp/cciGQfDY.s:12102  .debug_str:0000000000000420 .LASF223
     /tmp/cciGQfDY.s:12668  .debug_str:0000000000001776 .LASF224
     /tmp/cciGQfDY.s:12250  .debug_str:00000000000008d0 .LASF225
     /tmp/cciGQfDY.s:12564  .debug_str:00000000000012f6 .LASF226
     /tmp/cciGQfDY.s:12642  .debug_str:00000000000015b5 .LASF376
     /tmp/cciGQfDY.s:12294  .debug_str:0000000000000a36 .LASF227
     /tmp/cciGQfDY.s:12440  .debug_str:0000000000000f65 .LASF231
     /tmp/cciGQfDY.s:12052  .debug_str:00000000000002b6 .LASF233
     /tmp/cciGQfDY.s:12610  .debug_str:0000000000001471 .LASF228
     /tmp/cciGQfDY.s:12260  .debug_str:0000000000000931 .LASF229
     /tmp/cciGQfDY.s:11998  .debug_str:0000000000000105 .LASF230
     /tmp/cciGQfDY.s:12030  .debug_str:000000000000021a .LASF232
     /tmp/cciGQfDY.s:12376  .debug_str:0000000000000d20 .LASF234
     /tmp/cciGQfDY.s:12174  .debug_str:0000000000000654 .LASF235
     /tmp/cciGQfDY.s:12134  .debug_str:000000000000050c .LASF236
     /tmp/cciGQfDY.s:12472  .debug_str:000000000000103f .LASF237
     /tmp/cciGQfDY.s:12680  .debug_str:00000000000017c6 .LASF377
     /tmp/cciGQfDY.s:12040  .debug_str:0000000000000261 .LASF238
     /tmp/cciGQfDY.s:12158  .debug_str:000000000000060e .LASF239
     /tmp/cciGQfDY.s:12502  .debug_str:000000000000114e .LASF240
     /tmp/cciGQfDY.s:12074  .debug_str:0000000000000355 .LASF241
     /tmp/cciGQfDY.s:12160  .debug_str:0000000000000613 .LASF242
     /tmp/cciGQfDY.s:12302  .debug_str:0000000000000a88 .LASF243
GAS LISTING /tmp/cciGQfDY.s 			page 143


     /tmp/cciGQfDY.s:12110  .debug_str:0000000000000469 .LASF244
     /tmp/cciGQfDY.s:12466  .debug_str:0000000000000ffc .LASF245
     /tmp/cciGQfDY.s:12124  .debug_str:00000000000004bc .LASF246
     /tmp/cciGQfDY.s:12500  .debug_str:0000000000001139 .LASF247
     /tmp/cciGQfDY.s:12282  .debug_str:00000000000009da .LASF249
     /tmp/cciGQfDY.s:12432  .debug_str:0000000000000f21 .LASF251
     /tmp/cciGQfDY.s:12716  .debug_str:00000000000018cd .LASF252
     /tmp/cciGQfDY.s:12130  .debug_str:00000000000004f4 .LASF253
     /tmp/cciGQfDY.s:12552  .debug_str:00000000000012a9 .LASF254
     /tmp/cciGQfDY.s:12404  .debug_str:0000000000000df7 .LASF255
     /tmp/cciGQfDY.s:12330  .debug_str:0000000000000b99 .LASF256
     /tmp/cciGQfDY.s:11980  .debug_str:0000000000000055 .LASF257
     /tmp/cciGQfDY.s:12132  .debug_str:0000000000000500 .LASF258
     /tmp/cciGQfDY.s:12600  .debug_str:0000000000001431 .LASF259
     /tmp/cciGQfDY.s:11996  .debug_str:00000000000000fb .LASF260
     /tmp/cciGQfDY.s:12550  .debug_str:000000000000129f .LASF261
     /tmp/cciGQfDY.s:12092  .debug_str:00000000000003ee .LASF262
     /tmp/cciGQfDY.s:12000  .debug_str:000000000000011b .LASF263
     /tmp/cciGQfDY.s:12638  .debug_str:000000000000159e .LASF264
     /tmp/cciGQfDY.s:12532  .debug_str:00000000000011f9 .LASF265
     /tmp/cciGQfDY.s:12462  .debug_str:0000000000000fe7 .LASF266
     /tmp/cciGQfDY.s:11988  .debug_str:00000000000000b1 .LASF267
     /tmp/cciGQfDY.s:12350  .debug_str:0000000000000c16 .LASF268
     /tmp/cciGQfDY.s:12064  .debug_str:0000000000000323 .LASF269
     /tmp/cciGQfDY.s:12032  .debug_str:0000000000000226 .LASF270
     /tmp/cciGQfDY.s:12722  .debug_str:00000000000018f5 .LASF271
     /tmp/cciGQfDY.s:12352  .debug_str:0000000000000c20 .LASF272
     /tmp/cciGQfDY.s:12548  .debug_str:000000000000128f .LASF273
     /tmp/cciGQfDY.s:12314  .debug_str:0000000000000aef .LASF274
     /tmp/cciGQfDY.s:12048  .debug_str:00000000000002a2 .LASF275
     /tmp/cciGQfDY.s:12486  .debug_str:00000000000010bf .LASF276
     /tmp/cciGQfDY.s:12460  .debug_str:0000000000000fdb .LASF277
     /tmp/cciGQfDY.s:12416  .debug_str:0000000000000e7f .LASF278
     /tmp/cciGQfDY.s:12296  .debug_str:0000000000000a50 .LASF279
     /tmp/cciGQfDY.s:12358  .debug_str:0000000000000c62 .LASF280
     /tmp/cciGQfDY.s:12348  .debug_str:0000000000000c0d .LASF281
     /tmp/cciGQfDY.s:12182  .debug_str:000000000000068a .LASF282
     /tmp/cciGQfDY.s:12096  .debug_str:0000000000000400 .LASF283
     /tmp/cciGQfDY.s:12258  .debug_str:0000000000000925 .LASF284
     /tmp/cciGQfDY.s:12340  .debug_str:0000000000000bdc .LASF285
     /tmp/cciGQfDY.s:11978  .debug_str:0000000000000049 .LASF286
     /tmp/cciGQfDY.s:12378  .debug_str:0000000000000d39 .LASF287
     /tmp/cciGQfDY.s:12726  .debug_str:0000000000001933 .LASF288
     /tmp/cciGQfDY.s:12004  .debug_str:0000000000000135 .LASF289
     /tmp/cciGQfDY.s:12628  .debug_str:0000000000001550 .LASF290
     /tmp/cciGQfDY.s:12496  .debug_str:000000000000111b .LASF291
     /tmp/cciGQfDY.s:12334  .debug_str:0000000000000bb5 .LASF292
     /tmp/cciGQfDY.s:12076  .debug_str:0000000000000366 .LASF293
     /tmp/cciGQfDY.s:12222  .debug_str:00000000000007ec .LASF294
     /tmp/cciGQfDY.s:12516  .debug_str:00000000000011a1 .LASF295
     /tmp/cciGQfDY.s:12278  .debug_str:00000000000009af .LASF296
     /tmp/cciGQfDY.s:12388  .debug_str:0000000000000d9f .LASF297
     /tmp/cciGQfDY.s:12660  .debug_str:000000000000167b .LASF298
     /tmp/cciGQfDY.s:12290  .debug_str:0000000000000a1d .LASF299
     /tmp/cciGQfDY.s:12464  .debug_str:0000000000000ff0 .LASF300
     /tmp/cciGQfDY.s:12484  .debug_str:00000000000010b2 .LASF301
     /tmp/cciGQfDY.s:12264  .debug_str:0000000000000948 .LASF302
GAS LISTING /tmp/cciGQfDY.s 			page 144


     /tmp/cciGQfDY.s:12530  .debug_str:00000000000011f3 .LASF303
     /tmp/cciGQfDY.s:12522  .debug_str:00000000000011c6 .LASF304
     /tmp/cciGQfDY.s:12390  .debug_str:0000000000000db5 .LASF305
     /tmp/cciGQfDY.s:11976  .debug_str:0000000000000040 .LASF306
     /tmp/cciGQfDY.s:12558  .debug_str:00000000000012cc .LASF307
     /tmp/cciGQfDY.s:12636  .debug_str:0000000000001592 .LASF308
     /tmp/cciGQfDY.s:12508  .debug_str:0000000000001169 .LASF309
     /tmp/cciGQfDY.s:12308  .debug_str:0000000000000abf .LASF310
     /tmp/cciGQfDY.s:12338  .debug_str:0000000000000bd5 .LASF311
     /tmp/cciGQfDY.s:12492  .debug_str:0000000000001100 .LASF313
     /tmp/cciGQfDY.s:12478  .debug_str:000000000000107d .LASF312
     /tmp/cciGQfDY.s:12646  .debug_str:00000000000015c7 .LASF314
     /tmp/cciGQfDY.s:12512  .debug_str:0000000000001186 .LASF315
     /tmp/cciGQfDY.s:12256  .debug_str:0000000000000915 .LASF316
     /tmp/cciGQfDY.s:12446  .debug_str:0000000000000f8a .LASF317
     /tmp/cciGQfDY.s:12720  .debug_str:00000000000018e8 .LASF318
     /tmp/cciGQfDY.s:12438  .debug_str:0000000000000f5e .LASF319
     /tmp/cciGQfDY.s:12106  .debug_str:0000000000000448 .LASF320
     /tmp/cciGQfDY.s:12676  .debug_str:00000000000017b3 .LASF321
     /tmp/cciGQfDY.s:12568  .debug_str:0000000000001313 .LASF322
     /tmp/cciGQfDY.s:12262  .debug_str:000000000000093b .LASF323
     /tmp/cciGQfDY.s:12582  .debug_str:0000000000001380 .LASF378
     /tmp/cciGQfDY.s:12226  .debug_str:000000000000080a .LASF379
     /tmp/cciGQfDY.s:12632  .debug_str:0000000000001580 .LASF324
     /tmp/cciGQfDY.s:12128  .debug_str:00000000000004da .LASF325
     /tmp/cciGQfDY.s:12228  .debug_str:000000000000081e .LASF326
     /tmp/cciGQfDY.s:12572  .debug_str:0000000000001325 .LASF327
     /tmp/cciGQfDY.s:12036  .debug_str:0000000000000240 .LASF328
     /tmp/cciGQfDY.s:12506  .debug_str:000000000000115b .LASF329
     /tmp/cciGQfDY.s:12148  .debug_str:00000000000005b3 .LASF330
     /tmp/cciGQfDY.s:12614  .debug_str:00000000000014ab .LASF331
     /tmp/cciGQfDY.s:12154  .debug_str:00000000000005e6 .LASF332
     /tmp/cciGQfDY.s:12566  .debug_str:00000000000012fc .LASF333
     /tmp/cciGQfDY.s:12356  .debug_str:0000000000000c45 .LASF336
     /tmp/cciGQfDY.s:11972  .debug_str:0000000000000024 .LASF334
     /tmp/cciGQfDY.s:12336  .debug_str:0000000000000bc5 .LASF335
     /tmp/cciGQfDY.s:12088  .debug_str:00000000000003d0 .LASF337
     /tmp/cciGQfDY.s:3628   .text:0000000000001198 .LFB78
     /tmp/cciGQfDY.s:3687   .text:000000000000122c .LFE78
     /tmp/cciGQfDY.s:10555  .debug_loc:0000000000000000 .LLST99
     /tmp/cciGQfDY.s:3649   .text:00000000000011c8 .LVL294
     /tmp/cciGQfDY.s:3657   .text:00000000000011e4 .LVL295
     /tmp/cciGQfDY.s:3665   .text:0000000000001200 .LVL296
     /tmp/cciGQfDY.s:3673   .text:0000000000001218 .LVL297
     /tmp/cciGQfDY.s:3393   .text:000000000000103c .LFB77
     /tmp/cciGQfDY.s:3548   .text:0000000000001124 .LFE77
     /tmp/cciGQfDY.s:10573  .debug_loc:000000000000004c .LLST83
     /tmp/cciGQfDY.s:12418  .debug_str:0000000000000ea1 .LASF338
     /tmp/cciGQfDY.s:10598  .debug_loc:00000000000000ae .LLST84
     /tmp/cciGQfDY.s:12364  .debug_str:0000000000000cc4 .LASF339
     /tmp/cciGQfDY.s:10623  .debug_loc:0000000000000110 .LLST85
     /tmp/cciGQfDY.s:12544  .debug_str:0000000000001265 .LASF340
     /tmp/cciGQfDY.s:10649  .debug_loc:0000000000000182 .LLST86
     /tmp/cciGQfDY.s:12166  .debug_str:000000000000062a .LASF341
     /tmp/cciGQfDY.s:10702  .debug_loc:0000000000000213 .LLST87
     /tmp/cciGQfDY.s:12306  .debug_str:0000000000000ab5 .LASF342
     /tmp/cciGQfDY.s:10737  .debug_loc:0000000000000281 .LLST88
GAS LISTING /tmp/cciGQfDY.s 			page 145


     /tmp/cciGQfDY.s:12426  .debug_str:0000000000000f0c .LASF343
     /tmp/cciGQfDY.s:10769  .debug_loc:00000000000002ec .LLST89
     /tmp/cciGQfDY.s:12022  .debug_str:00000000000001f4 .LASF344
     /tmp/cciGQfDY.s:10780  .debug_loc:0000000000000322 .LLST90
     /tmp/cciGQfDY.s:12450  .debug_str:0000000000000f99 .LASF345
     /tmp/cciGQfDY.s:10801  .debug_loc:0000000000000380 .LLST91
     /tmp/cciGQfDY.s:12398  .debug_str:0000000000000de0 .LASF346
     /tmp/cciGQfDY.s:10817  .debug_loc:00000000000003ca .LLST92
     /tmp/cciGQfDY.s:12202  .debug_str:0000000000000726 .LASF347
     /tmp/cciGQfDY.s:10838  .debug_loc:0000000000000428 .LLST93
     /tmp/cciGQfDY.s:3520   .text:00000000000010f4 .LVL282
     /tmp/cciGQfDY.s:3536   .text:0000000000001110 .LVL284
     /tmp/cciGQfDY.s:3338   .text:0000000000000ff0 .LFB76
     /tmp/cciGQfDY.s:3387   .text:000000000000103c .LFE76
     /tmp/cciGQfDY.s:3356   .text:000000000000100c .LBB191
     /tmp/cciGQfDY.s:3376   .text:000000000000102c .LBE191
     /tmp/cciGQfDY.s:10845  .debug_loc:000000000000044b .LLST82
     /tmp/cciGQfDY.s:3353   .text:000000000000100c .LVL260
     /tmp/cciGQfDY.s:3827   .text:000000000000136c .LFB75
     /tmp/cciGQfDY.s:3955   .text:00000000000014ac .LFE75
     /tmp/cciGQfDY.s:12556  .debug_str:00000000000012c7 .LASF348
     /tmp/cciGQfDY.s:10861  .debug_loc:0000000000000495 .LLST102
     /tmp/cciGQfDY.s:3923   .text:0000000000001484 .LBB195
     /tmp/cciGQfDY.s:3935   .text:000000000000148c .LBE195
     /tmp/cciGQfDY.s:10868  .debug_loc:00000000000004b8 .LLST103
     /tmp/cciGQfDY.s:3849   .text:0000000000001394 .LVL310
     /tmp/cciGQfDY.s:3872   .text:00000000000013e0 .LVL312
     /tmp/cciGQfDY.s:3881   .text:0000000000001400 .LVL313
     /tmp/cciGQfDY.s:3890   .text:0000000000001420 .LVL314
     /tmp/cciGQfDY.s:3899   .text:0000000000001440 .LVL315
     /tmp/cciGQfDY.s:3907   .text:0000000000001458 .LVL316
     /tmp/cciGQfDY.s:3916   .text:0000000000001478 .LVL317
     /tmp/cciGQfDY.s:3921   .text:0000000000001484 .LVL318
     /tmp/cciGQfDY.s:3693   .text:000000000000122c .LFB74
     /tmp/cciGQfDY.s:3821   .text:000000000000136c .LFE74
     /tmp/cciGQfDY.s:10878  .debug_loc:00000000000004de .LLST100
     /tmp/cciGQfDY.s:3789   .text:0000000000001344 .LBB193
     /tmp/cciGQfDY.s:3801   .text:000000000000134c .LBE193
     /tmp/cciGQfDY.s:10885  .debug_loc:0000000000000501 .LLST101
     /tmp/cciGQfDY.s:3715   .text:0000000000001254 .LVL299
     /tmp/cciGQfDY.s:3738   .text:00000000000012a0 .LVL301
     /tmp/cciGQfDY.s:3747   .text:00000000000012c0 .LVL302
     /tmp/cciGQfDY.s:3756   .text:00000000000012e0 .LVL303
     /tmp/cciGQfDY.s:3765   .text:0000000000001300 .LVL304
     /tmp/cciGQfDY.s:3773   .text:0000000000001318 .LVL305
     /tmp/cciGQfDY.s:3782   .text:0000000000001338 .LVL306
     /tmp/cciGQfDY.s:3787   .text:0000000000001344 .LVL307
     /tmp/cciGQfDY.s:3554   .text:0000000000001124 .LFB73
     /tmp/cciGQfDY.s:3622   .text:0000000000001198 .LFE73
     /tmp/cciGQfDY.s:10895  .debug_loc:0000000000000527 .LLST94
     /tmp/cciGQfDY.s:12524  .debug_str:00000000000011cb .LASF349
     /tmp/cciGQfDY.s:10913  .debug_loc:0000000000000573 .LLST95
     /tmp/cciGQfDY.s:10927  .debug_loc:00000000000005ac .LLST96
     /tmp/cciGQfDY.s:10945  .debug_loc:00000000000005f8 .LLST97
     /tmp/cciGQfDY.s:3581   .text:0000000000001154 .LBB192
     /tmp/cciGQfDY.s:3599   .text:0000000000001178 .LBE192
     /tmp/cciGQfDY.s:10963  .debug_loc:0000000000000644 .LLST98
GAS LISTING /tmp/cciGQfDY.s 			page 146


     /tmp/cciGQfDY.s:3590   .text:000000000000116c .LVL287
     /tmp/cciGQfDY.s:3191   .text:0000000000000f48 .LFB72
     /tmp/cciGQfDY.s:3220   .text:0000000000000f68 .LFE72
     /tmp/cciGQfDY.s:3153   .text:0000000000000f28 .LFB71
     /tmp/cciGQfDY.s:3185   .text:0000000000000f48 .LFE71
     /tmp/cciGQfDY.s:3045   .text:0000000000000eac .LFB70
     /tmp/cciGQfDY.s:3147   .text:0000000000000f28 .LFE70
     /tmp/cciGQfDY.s:12270  .debug_str:0000000000000983 .LASF350
     /tmp/cciGQfDY.s:10970  .debug_loc:0000000000000667 .LLST72
     /tmp/cciGQfDY.s:12490  .debug_str:00000000000010f2 .LASF351
     /tmp/cciGQfDY.s:10996  .debug_loc:00000000000006d9 .LLST73
     /tmp/cciGQfDY.s:11014  .debug_loc:0000000000000725 .LLST74
     /tmp/cciGQfDY.s:12152  .debug_str:00000000000005de .LASF352
     /tmp/cciGQfDY.s:11040  .debug_loc:0000000000000797 .LLST75
     /tmp/cciGQfDY.s:12196  .debug_str:00000000000006f4 .LASF353
     /tmp/cciGQfDY.s:11066  .debug_loc:0000000000000809 .LLST76
     /tmp/cciGQfDY.s:12098  .debug_str:000000000000040c .LASF354
     /tmp/cciGQfDY.s:11084  .debug_loc:0000000000000855 .LLST77
     /tmp/cciGQfDY.s:12706  .debug_str:0000000000001870 .LASF355
     /tmp/cciGQfDY.s:11110  .debug_loc:00000000000008c7 .LLST78
     /tmp/cciGQfDY.s:3078   .text:0000000000000ee4 .LVL243
     /tmp/cciGQfDY.s:2036   .text:0000000000000a20 .LFB69
     /tmp/cciGQfDY.s:2069   .text:0000000000000a4c .LFE69
     /tmp/cciGQfDY.s:11131  .debug_loc:0000000000000925 .LLST55
     /tmp/cciGQfDY.s:2007   .text:0000000000000a20 .LFE68
     /tmp/cciGQfDY.s:11144  .debug_loc:000000000000095d .LLST51
     /tmp/cciGQfDY.s:12094  .debug_str:00000000000003f9 .LASF356
     /tmp/cciGQfDY.s:11163  .debug_loc:00000000000009b9 .LLST52
     /tmp/cciGQfDY.s:11174  .debug_loc:00000000000009ef .LLST53
     /tmp/cciGQfDY.s:1853   .text:0000000000000944 .LBB123
     /tmp/cciGQfDY.s:1956   .text:00000000000009d8 .LBE123
     /tmp/cciGQfDY.s:12084  .debug_str:0000000000000395 .LASF357
     /tmp/cciGQfDY.s:11191  .debug_loc:0000000000000a3a .LLST54
     /tmp/cciGQfDY.s:1952   .text:00000000000009d8 .LVL152
     /tmp/cciGQfDY.s:1818   .text:00000000000008f0 .LVL145
     /tmp/cciGQfDY.s:1830   .text:0000000000000914 .LVL148
     /tmp/cciGQfDY.s:1835   .text:0000000000000920 .LVL149
     /tmp/cciGQfDY.s:1846   .text:0000000000000940 .LVL150
     /tmp/cciGQfDY.s:1968   .text:00000000000009e4 .LVL153
     /tmp/cciGQfDY.s:2000   .text:0000000000000a14 .LVL159
     /tmp/cciGQfDY.s:2004   .text:0000000000000a20 .LVL160
     /tmp/cciGQfDY.s:1725   .text:0000000000000870 .LFB67
     /tmp/cciGQfDY.s:1790   .text:00000000000008cc .LFE67
     /tmp/cciGQfDY.s:12430  .debug_str:0000000000000f1b .LASF358
     /tmp/cciGQfDY.s:11198  .debug_loc:0000000000000a5d .LLST48
     /tmp/cciGQfDY.s:11209  .debug_loc:0000000000000a93 .LLST49
     /tmp/cciGQfDY.s:1763   .text:000000000000089c .LVL140
     /tmp/cciGQfDY.s:1784   .text:00000000000008bc .LVL143
     /tmp/cciGQfDY.s:1787   .text:00000000000008c8 .LVL144
     /tmp/cciGQfDY.s:1649   .text:0000000000000808 .LFB66
     /tmp/cciGQfDY.s:1719   .text:0000000000000870 .LFE66
     /tmp/cciGQfDY.s:11218  .debug_loc:0000000000000ab8 .LLST45
     /tmp/cciGQfDY.s:11229  .debug_loc:0000000000000aee .LLST46
     /tmp/cciGQfDY.s:1687   .text:0000000000000834 .LVL132
     /tmp/cciGQfDY.s:1708   .text:0000000000000854 .LVL135
     /tmp/cciGQfDY.s:1713   .text:0000000000000860 .LVL136
     /tmp/cciGQfDY.s:1716   .text:000000000000086c .LVL137
GAS LISTING /tmp/cciGQfDY.s 			page 147


     /tmp/cciGQfDY.s:426    .text:0000000000000214 .LFB65
     /tmp/cciGQfDY.s:472    .text:000000000000024c .LFE65
     /tmp/cciGQfDY.s:303    .text:0000000000000160 .LFB64
     /tmp/cciGQfDY.s:420    .text:0000000000000214 .LFE64
     /tmp/cciGQfDY.s:327    .text:0000000000000194 .LBB107
     /tmp/cciGQfDY.s:11928  .debug_ranges:0000000000000000 .Ldebug_ranges0
     /tmp/cciGQfDY.s:336    .text:0000000000000194 .LBB109
     /tmp/cciGQfDY.s:350    .text:000000000000019c .LBE109
     /tmp/cciGQfDY.s:337    .text:0000000000000194 .LBB110
     /tmp/cciGQfDY.s:349    .text:000000000000019c .LBE110
     /tmp/cciGQfDY.s:11238  .debug_loc:0000000000000b13 .LLST8
     /tmp/cciGQfDY.s:357    .text:000000000000019c .LBB112
     /tmp/cciGQfDY.s:372    .text:00000000000001a4 .LBE112
     /tmp/cciGQfDY.s:358    .text:000000000000019c .LBB113
     /tmp/cciGQfDY.s:371    .text:00000000000001a4 .LBE113
     /tmp/cciGQfDY.s:11246  .debug_loc:0000000000000b37 .LLST9
     /tmp/cciGQfDY.s:394    .text:00000000000001dc .LVL22
     /tmp/cciGQfDY.s:406    .text:0000000000000200 .LVL23
     /tmp/cciGQfDY.s:186    .text:00000000000000e4 .LFB63
     /tmp/cciGQfDY.s:297    .text:0000000000000160 .LFE63
     /tmp/cciGQfDY.s:205    .text:0000000000000108 .LBB99
     /tmp/cciGQfDY.s:218    .text:0000000000000110 .LBE99
     /tmp/cciGQfDY.s:11255  .debug_loc:0000000000000b5d .LLST3
     /tmp/cciGQfDY.s:223    .text:0000000000000118 .LBB101
     /tmp/cciGQfDY.s:244    .text:000000000000012c .LBE101
     /tmp/cciGQfDY.s:11264  .debug_loc:0000000000000b83 .LLST4
     /tmp/cciGQfDY.s:11276  .debug_loc:0000000000000bc1 .LLST5
     /tmp/cciGQfDY.s:257    .text:0000000000000138 .LBB103
     /tmp/cciGQfDY.s:269    .text:0000000000000140 .LBE103
     /tmp/cciGQfDY.s:11283  .debug_loc:0000000000000be4 .LLST6
     /tmp/cciGQfDY.s:274    .text:0000000000000148 .LBB105
     /tmp/cciGQfDY.s:295    .text:0000000000000160 .LBE105
     /tmp/cciGQfDY.s:11292  .debug_loc:0000000000000c0a .LLST7
     /tmp/cciGQfDY.s:1607   .text:00000000000007d4 .LFB62
     /tmp/cciGQfDY.s:1643   .text:0000000000000808 .LFE62
     /tmp/cciGQfDY.s:11304  .debug_loc:0000000000000c48 .LLST44
     /tmp/cciGQfDY.s:1621   .text:00000000000007ec .LVL128
     /tmp/cciGQfDY.s:1632   .text:00000000000007f8 .LVL129
     /tmp/cciGQfDY.s:3226   .text:0000000000000f68 .LFB61
     /tmp/cciGQfDY.s:3332   .text:0000000000000ff0 .LFE61
     /tmp/cciGQfDY.s:11311  .debug_loc:0000000000000c6b .LLST79
     /tmp/cciGQfDY.s:11325  .debug_loc:0000000000000ca4 .LLST80
     /tmp/cciGQfDY.s:3282   .text:0000000000000fa4 .LBB188
     /tmp/cciGQfDY.s:3328   .text:0000000000000ff0 .LBE188
     /tmp/cciGQfDY.s:12394  .debug_str:0000000000000dcb .LASF359
     /tmp/cciGQfDY.s:11332  .debug_loc:0000000000000cc7 .LLST81
     /tmp/cciGQfDY.s:3286   .text:0000000000000fac .LVL257
     /tmp/cciGQfDY.s:3246   .text:0000000000000f84 .LVL253
     /tmp/cciGQfDY.s:133    .text:0000000000000094 .LFB60
     /tmp/cciGQfDY.s:180    .text:00000000000000e4 .LFE60
     /tmp/cciGQfDY.s:11339  .debug_loc:0000000000000cea .LLST2
     /tmp/cciGQfDY.s:169    .text:00000000000000d4 .LVL7
     /tmp/cciGQfDY.s:1516   .text:000000000000073c .LFB59
     /tmp/cciGQfDY.s:1601   .text:00000000000007d4 .LFE59
     /tmp/cciGQfDY.s:11346  .debug_loc:0000000000000d0d .LLST43
     /tmp/cciGQfDY.s:1544   .text:0000000000000778 .LVL118
     /tmp/cciGQfDY.s:1565   .text:0000000000000798 .LVL121
GAS LISTING /tmp/cciGQfDY.s 			page 148


     /tmp/cciGQfDY.s:1586   .text:00000000000007b8 .LVL124
     /tmp/cciGQfDY.s:1591   .text:00000000000007c4 .LVL125
     /tmp/cciGQfDY.s:1598   .text:00000000000007d0 .LVL127
     /tmp/cciGQfDY.s:1436   .text:00000000000006c4 .LFB58
     /tmp/cciGQfDY.s:1510   .text:000000000000073c .LFE58
     /tmp/cciGQfDY.s:12090  .debug_str:00000000000003e8 .LASF360
     /tmp/cciGQfDY.s:11361  .debug_loc:0000000000000d56 .LLST42
     /tmp/cciGQfDY.s:1475   .text:0000000000000708 .LVL114
     /tmp/cciGQfDY.s:1483   .text:0000000000000718 .LVL115
     /tmp/cciGQfDY.s:1496   .text:0000000000000728 .LVL116
     /tmp/cciGQfDY.s:1371   .text:000000000000067c .LFB57
     /tmp/cciGQfDY.s:1430   .text:00000000000006c4 .LFE57
     /tmp/cciGQfDY.s:11368  .debug_loc:0000000000000d79 .LLST40
     /tmp/cciGQfDY.s:11379  .debug_loc:0000000000000daf .LLST41
     /tmp/cciGQfDY.s:1408   .text:00000000000006a4 .LVL110
     /tmp/cciGQfDY.s:1425   .text:00000000000006bc .LVL112
     /tmp/cciGQfDY.s:1294   .text:000000000000061c .LFB56
     /tmp/cciGQfDY.s:1365   .text:000000000000067c .LFE56
     /tmp/cciGQfDY.s:11396  .debug_loc:0000000000000dfa .LLST38
     /tmp/cciGQfDY.s:11407  .debug_loc:0000000000000e30 .LLST39
     /tmp/cciGQfDY.s:1340   .text:0000000000000658 .LVL104
     /tmp/cciGQfDY.s:1357   .text:0000000000000670 .LVL106
     /tmp/cciGQfDY.s:1219   .text:00000000000005bc .LFB55
     /tmp/cciGQfDY.s:1288   .text:000000000000061c .LFE55
     /tmp/cciGQfDY.s:11424  .debug_loc:0000000000000e7b .LLST35
     /tmp/cciGQfDY.s:11435  .debug_loc:0000000000000eb1 .LLST37
     /tmp/cciGQfDY.s:1259   .text:00000000000005e8 .LVL96
     /tmp/cciGQfDY.s:1280   .text:0000000000000608 .LVL99
     /tmp/cciGQfDY.s:1283   .text:0000000000000614 .LVL100
     /tmp/cciGQfDY.s:1194   .text:00000000000005bc .LFE54
     /tmp/cciGQfDY.s:11452  .debug_loc:0000000000000efc .LLST31
     /tmp/cciGQfDY.s:12354  .debug_str:0000000000000c3f .LASF361
     /tmp/cciGQfDY.s:11463  .debug_loc:0000000000000f32 .LLST32
     /tmp/cciGQfDY.s:11474  .debug_loc:0000000000000f68 .LLST33
     /tmp/cciGQfDY.s:11485  .debug_loc:0000000000000f9e .LLST34
     /tmp/cciGQfDY.s:1123   .text:0000000000000550 .LVL82
     /tmp/cciGQfDY.s:1131   .text:0000000000000564 .LVL83
     /tmp/cciGQfDY.s:1154   .text:000000000000057c .LVL85
     /tmp/cciGQfDY.s:1187   .text:00000000000005b0 .LVL92
     /tmp/cciGQfDY.s:1191   .text:00000000000005bc .LVL93
     /tmp/cciGQfDY.s:93     .text:0000000000000058 .LFB53
     /tmp/cciGQfDY.s:127    .text:0000000000000094 .LFE53
     /tmp/cciGQfDY.s:11502  .debug_loc:0000000000000fe9 .LLST1
     /tmp/cciGQfDY.s:116    .text:0000000000000084 .LVL5
     /tmp/cciGQfDY.s:1011   .text:00000000000004c8 .LFB52
     /tmp/cciGQfDY.s:1078   .text:0000000000000520 .LFE52
     /tmp/cciGQfDY.s:11509  .debug_loc:000000000000100c .LLST29
     /tmp/cciGQfDY.s:1031   .text:00000000000004e8 .LBB120
     /tmp/cciGQfDY.s:1042   .text:00000000000004f8 .LBE120
     /tmp/cciGQfDY.s:11526  .debug_loc:0000000000001057 .LLST30
     /tmp/cciGQfDY.s:1041   .text:00000000000004f8 .LVL76
     /tmp/cciGQfDY.s:1058   .text:0000000000000508 .LVL78
     /tmp/cciGQfDY.s:937    .text:0000000000000470 .LFB51
     /tmp/cciGQfDY.s:1005   .text:00000000000004c8 .LFE51
     /tmp/cciGQfDY.s:11533  .debug_loc:000000000000107a .LLST26
     /tmp/cciGQfDY.s:11544  .debug_loc:00000000000010b0 .LLST28
     /tmp/cciGQfDY.s:975    .text:0000000000000498 .LVL70
GAS LISTING /tmp/cciGQfDY.s 			page 149


     /tmp/cciGQfDY.s:996    .text:00000000000004b8 .LVL72
     /tmp/cciGQfDY.s:1000   .text:00000000000004c0 .LVL73
     /tmp/cciGQfDY.s:912    .text:0000000000000470 .LFE50
     /tmp/cciGQfDY.s:11561  .debug_loc:00000000000010fb .LLST20
     /tmp/cciGQfDY.s:12236  .debug_str:000000000000085b .LASF362
     /tmp/cciGQfDY.s:11572  .debug_loc:0000000000001131 .LLST21
     /tmp/cciGQfDY.s:11583  .debug_loc:0000000000001167 .LLST22
     /tmp/cciGQfDY.s:11594  .debug_loc:000000000000119d .LLST23
     /tmp/cciGQfDY.s:11605  .debug_loc:00000000000011d3 .LLST24
     /tmp/cciGQfDY.s:11616  .debug_loc:0000000000001209 .LLST25
     /tmp/cciGQfDY.s:826    .text:00000000000003e8 .LVL54
     /tmp/cciGQfDY.s:837    .text:0000000000000408 .LVL55
     /tmp/cciGQfDY.s:866    .text:0000000000000428 .LVL57
     /tmp/cciGQfDY.s:905    .text:0000000000000464 .LVL66
     /tmp/cciGQfDY.s:909    .text:0000000000000470 .LVL67
     /tmp/cciGQfDY.s:741    .text:00000000000003a8 .LFE49
     /tmp/cciGQfDY.s:11633  .debug_loc:0000000000001254 .LLST14
     /tmp/cciGQfDY.s:11644  .debug_loc:000000000000128a .LLST15
     /tmp/cciGQfDY.s:11655  .debug_loc:00000000000012c0 .LLST16
     /tmp/cciGQfDY.s:11666  .debug_loc:00000000000012f6 .LLST17
     /tmp/cciGQfDY.s:11677  .debug_loc:000000000000132c .LLST18
     /tmp/cciGQfDY.s:11688  .debug_loc:0000000000001362 .LLST19
     /tmp/cciGQfDY.s:648    .text:0000000000000314 .LVL35
     /tmp/cciGQfDY.s:659    .text:0000000000000334 .LVL36
     /tmp/cciGQfDY.s:675    .text:000000000000034c .LVL37
     /tmp/cciGQfDY.s:695    .text:0000000000000360 .LVL39
     /tmp/cciGQfDY.s:734    .text:000000000000039c .LVL48
     /tmp/cciGQfDY.s:738    .text:00000000000003a8 .LVL49
     /tmp/cciGQfDY.s:529    .text:0000000000000284 .LFB48
     /tmp/cciGQfDY.s:587    .text:00000000000002d4 .LFE48
     /tmp/cciGQfDY.s:11705  .debug_loc:00000000000013ad .LLST12
     /tmp/cciGQfDY.s:11712  .debug_loc:00000000000013d0 .LLST13
     /tmp/cciGQfDY.s:559    .text:00000000000002b4 .LVL28
     /tmp/cciGQfDY.s:583    .text:00000000000002d0 .LVL30
     /tmp/cciGQfDY.s:478    .text:000000000000024c .LFB47
     /tmp/cciGQfDY.s:523    .text:0000000000000284 .LFE47
     /tmp/cciGQfDY.s:11723  .debug_loc:0000000000001406 .LLST10
     /tmp/cciGQfDY.s:11730  .debug_loc:0000000000001429 .LLST11
     /tmp/cciGQfDY.s:501    .text:0000000000000268 .LVL25
     /tmp/cciGQfDY.s:512    .text:0000000000000274 .LVL26
     /tmp/cciGQfDY.s:2098   .text:0000000000000a4c .LFB46
     /tmp/cciGQfDY.s:3039   .text:0000000000000eac .LFE46
     /tmp/cciGQfDY.s:12696  .debug_str:0000000000001837 .LASF363
     /tmp/cciGQfDY.s:11737  .debug_loc:000000000000144c .LLST56
     /tmp/cciGQfDY.s:12414  .debug_str:0000000000000e78 .LASF364
     /tmp/cciGQfDY.s:12116  .debug_str:0000000000000482 .LASF365
     /tmp/cciGQfDY.s:11748  .debug_loc:0000000000001482 .LLST69
     /tmp/cciGQfDY.s:2301   .text:0000000000000b9c .LBB172
     /tmp/cciGQfDY.s:2314   .text:0000000000000ba0 .LBE172
     /tmp/cciGQfDY.s:2318   .text:0000000000000ba4 .LBB174
     /tmp/cciGQfDY.s:2331   .text:0000000000000ba8 .LBE174
     /tmp/cciGQfDY.s:2483   .text:0000000000000c0c .LBB176
     /tmp/cciGQfDY.s:2494   .text:0000000000000c10 .LBE176
     /tmp/cciGQfDY.s:11755  .debug_loc:00000000000014a5 .LLST70
     /tmp/cciGQfDY.s:2499   .text:0000000000000c14 .LBB178
     /tmp/cciGQfDY.s:2511   .text:0000000000000c18 .LBE178
     /tmp/cciGQfDY.s:11762  .debug_loc:00000000000014c8 .LLST71
GAS LISTING /tmp/cciGQfDY.s 			page 150


     /tmp/cciGQfDY.s:2474   .text:0000000000000bfc .LVL180
     /tmp/cciGQfDY.s:2540   .text:0000000000000c3c .LVL188
     /tmp/cciGQfDY.s:2548   .text:0000000000000c48 .LVL189
     /tmp/cciGQfDY.s:2556   .text:0000000000000c54 .LVL190
     /tmp/cciGQfDY.s:2564   .text:0000000000000c60 .LVL191
     /tmp/cciGQfDY.s:2572   .text:0000000000000c6c .LVL192
     /tmp/cciGQfDY.s:2580   .text:0000000000000c78 .LVL193
     /tmp/cciGQfDY.s:2588   .text:0000000000000c84 .LVL194
     /tmp/cciGQfDY.s:2596   .text:0000000000000c90 .LVL195
     /tmp/cciGQfDY.s:2604   .text:0000000000000c9c .LVL196
     /tmp/cciGQfDY.s:2612   .text:0000000000000ca8 .LVL197
     /tmp/cciGQfDY.s:2620   .text:0000000000000cb4 .LVL198
     /tmp/cciGQfDY.s:2628   .text:0000000000000cc0 .LVL199
     /tmp/cciGQfDY.s:2636   .text:0000000000000ccc .LVL200
     /tmp/cciGQfDY.s:2644   .text:0000000000000cd8 .LVL201
     /tmp/cciGQfDY.s:2652   .text:0000000000000ce4 .LVL202
     /tmp/cciGQfDY.s:2660   .text:0000000000000cf0 .LVL203
     /tmp/cciGQfDY.s:2677   .text:0000000000000d0c .LVL204
     /tmp/cciGQfDY.s:2681   .text:0000000000000d14 .LVL205
     /tmp/cciGQfDY.s:2687   .text:0000000000000d18 .LBB154
     /tmp/cciGQfDY.s:2818   .text:0000000000000da8 .LBE154
     /tmp/cciGQfDY.s:2799   .text:0000000000000d88 .LBB162
     /tmp/cciGQfDY.s:2814   .text:0000000000000da4 .LBE162
     /tmp/cciGQfDY.s:11769  .debug_loc:00000000000014eb .LLST66
     /tmp/cciGQfDY.s:2813   .text:0000000000000da4 .LVL216
     /tmp/cciGQfDY.s:2689   .text:0000000000000d18 .LBB155
     /tmp/cciGQfDY.s:2702   .text:0000000000000d1c .LBE155
     /tmp/cciGQfDY.s:2706   .text:0000000000000d20 .LBB157
     /tmp/cciGQfDY.s:2719   .text:0000000000000d24 .LBE157
     /tmp/cciGQfDY.s:2724   .text:0000000000000d28 .LBB159
     /tmp/cciGQfDY.s:2736   .text:0000000000000d30 .LBE159
     /tmp/cciGQfDY.s:11776  .debug_loc:000000000000150e .LLST65
     /tmp/cciGQfDY.s:2767   .text:0000000000000d78 .LBB163
     /tmp/cciGQfDY.s:2778   .text:0000000000000d7c .LBE163
     /tmp/cciGQfDY.s:11784  .debug_loc:0000000000001532 .LLST67
     /tmp/cciGQfDY.s:2783   .text:0000000000000d80 .LBB165
     /tmp/cciGQfDY.s:2797   .text:0000000000000d88 .LBE165
     /tmp/cciGQfDY.s:11791  .debug_loc:0000000000001555 .LLST68
     /tmp/cciGQfDY.s:2746   .text:0000000000000d4c .LVL210
     /tmp/cciGQfDY.s:2820   .text:0000000000000da8 .LBB139
     /tmp/cciGQfDY.s:2980   .text:0000000000000e44 .LBE139
     /tmp/cciGQfDY.s:11798  .debug_loc:0000000000001578 .LLST60
     /tmp/cciGQfDY.s:11805  .debug_loc:000000000000159b .LLST61
     /tmp/cciGQfDY.s:11812  .debug_loc:00000000000015be .LLST62
     /tmp/cciGQfDY.s:2974   .text:0000000000000e40 .LVL232
     /tmp/cciGQfDY.s:2822   .text:0000000000000da8 .LBB140
     /tmp/cciGQfDY.s:2835   .text:0000000000000dac .LBE140
     /tmp/cciGQfDY.s:2839   .text:0000000000000db0 .LBB142
     /tmp/cciGQfDY.s:2852   .text:0000000000000db4 .LBE142
     /tmp/cciGQfDY.s:2933   .text:0000000000000e18 .LBB147
     /tmp/cciGQfDY.s:2944   .text:0000000000000e1c .LBE147
     /tmp/cciGQfDY.s:11823  .debug_loc:00000000000015f4 .LLST63
     /tmp/cciGQfDY.s:2949   .text:0000000000000e20 .LBB149
     /tmp/cciGQfDY.s:2963   .text:0000000000000e28 .LBE149
     /tmp/cciGQfDY.s:11830  .debug_loc:0000000000001617 .LLST64
     /tmp/cciGQfDY.s:2926   .text:0000000000000e0c .LVL226
     /tmp/cciGQfDY.s:2928   .text:0000000000000e14 .LVL227
GAS LISTING /tmp/cciGQfDY.s 			page 151


     /tmp/cciGQfDY.s:2982   .text:0000000000000e44 .LBB136
     /tmp/cciGQfDY.s:3032   .text:0000000000000ea8 .LBE136
     /tmp/cciGQfDY.s:11837  .debug_loc:000000000000163a .LLST59
     /tmp/cciGQfDY.s:2998   .text:0000000000000e68 .LBB137
     /tmp/cciGQfDY.s:3010   .text:0000000000000e6c .LBE137
     /tmp/cciGQfDY.s:2996   .text:0000000000000e68 .LVL235
     /tmp/cciGQfDY.s:3017   .text:0000000000000e80 .LVL236
     /tmp/cciGQfDY.s:3022   .text:0000000000000e90 .LVL237
     /tmp/cciGQfDY.s:3027   .text:0000000000000ea0 .LVL238
     /tmp/cciGQfDY.s:3031   .text:0000000000000ea8 .LVL239
     /tmp/cciGQfDY.s:2199   .text:0000000000000ad4 .LBB131
     /tmp/cciGQfDY.s:2295   .text:0000000000000b9c .LBE131
     /tmp/cciGQfDY.s:11844  .debug_loc:000000000000165d .LLST57
     /tmp/cciGQfDY.s:11851  .debug_loc:0000000000001680 .LLST58
     /tmp/cciGQfDY.s:2211   .text:0000000000000af4 .LBB132
     /tmp/cciGQfDY.s:2227   .text:0000000000000b00 .LBE132
     /tmp/cciGQfDY.s:2242   .text:0000000000000b24 .LBB134
     /tmp/cciGQfDY.s:2254   .text:0000000000000b28 .LBE134
     /tmp/cciGQfDY.s:2204   .text:0000000000000ae4 .LVL164
     /tmp/cciGQfDY.s:2209   .text:0000000000000af4 .LVL165
     /tmp/cciGQfDY.s:2235   .text:0000000000000b14 .LVL168
     /tmp/cciGQfDY.s:2240   .text:0000000000000b24 .LVL169
     /tmp/cciGQfDY.s:2261   .text:0000000000000b3c .LVL170
     /tmp/cciGQfDY.s:2266   .text:0000000000000b4c .LVL171
     /tmp/cciGQfDY.s:2274   .text:0000000000000b6c .LVL172
     /tmp/cciGQfDY.s:2288   .text:0000000000000b90 .LVL174
     /tmp/cciGQfDY.s:2292   .text:0000000000000b98 .LVL175
     /tmp/cciGQfDY.s:2121   .text:0000000000000a64 .LBB125
     /tmp/cciGQfDY.s:2136   .text:0000000000000a70 .LBE125
     /tmp/cciGQfDY.s:2517   .text:0000000000000c20 .LVL185
     /tmp/cciGQfDY.s:10     .text:0000000000000000 .LFB45
     /tmp/cciGQfDY.s:87     .text:0000000000000058 .LFE45
     /tmp/cciGQfDY.s:11858  .debug_loc:00000000000016a3 .LLST0
     /tmp/cciGQfDY.s:3961   .text:00000000000014ac .LFB44
     /tmp/cciGQfDY.s:4115   .text:0000000000001570 .LFE44
     /tmp/cciGQfDY.s:3976   .text:00000000000014c4 .LBB197
     /tmp/cciGQfDY.s:3987   .text:00000000000014c8 .LBE197
     /tmp/cciGQfDY.s:4036   .text:0000000000001538 .LBB199
     /tmp/cciGQfDY.s:4056   .text:000000000000154c .LBE199
     /tmp/cciGQfDY.s:11871  .debug_loc:00000000000016db .LLST104
     /tmp/cciGQfDY.s:11883  .debug_loc:0000000000001719 .LLST105
     /tmp/cciGQfDY.s:4059   .text:000000000000154c .LBB201
     /tmp/cciGQfDY.s:4060   .text:000000000000154c .LBB202
     /tmp/cciGQfDY.s:4072   .text:0000000000001554 .LBE202
     /tmp/cciGQfDY.s:11890  .debug_loc:000000000000173c .LLST106
     /tmp/cciGQfDY.s:4076   .text:0000000000001554 .LBB204
     /tmp/cciGQfDY.s:4088   .text:000000000000155c .LBE204
     /tmp/cciGQfDY.s:11898  .debug_loc:0000000000001760 .LLST107
     /tmp/cciGQfDY.s:4092   .text:000000000000155c .LBB206
     /tmp/cciGQfDY.s:4103   .text:0000000000001560 .LBE206
     /tmp/cciGQfDY.s:11907  .debug_loc:0000000000001786 .LLST108
     /tmp/cciGQfDY.s:3998   .text:00000000000014ec .LVL323
     /tmp/cciGQfDY.s:4002   .text:00000000000014f4 .LVL324
     /tmp/cciGQfDY.s:4006   .text:00000000000014fc .LVL325
     /tmp/cciGQfDY.s:4010   .text:0000000000001504 .LVL326
     /tmp/cciGQfDY.s:4014   .text:000000000000150c .LVL327
     /tmp/cciGQfDY.s:4018   .text:0000000000001514 .LVL328
GAS LISTING /tmp/cciGQfDY.s 			page 152


     /tmp/cciGQfDY.s:4022   .text:000000000000151c .LVL329
     /tmp/cciGQfDY.s:4026   .text:0000000000001524 .LVL330
     /tmp/cciGQfDY.s:11968  .debug_str:0000000000000013 .LASF366
     /tmp/cciGQfDY.s:12452  .debug_str:0000000000000fa2 .LASF367
     /tmp/cciGQfDY.s:12082  .debug_str:0000000000000386 .LASF380
     /tmp/cciGQfDY.s:11990  .debug_str:00000000000000cd .LASF381
     /tmp/cciGQfDY.s:12698  .debug_str:000000000000183d .LASF368
     /tmp/cciGQfDY.s:12658  .debug_str:0000000000001670 .LASF369
     /tmp/cciGQfDY.s:12272  .debug_str:000000000000098a .LASF370
     /tmp/cciGQfDY.s:12232  .debug_str:000000000000083e .LASF371
     /tmp/cciGQfDY.s:12366  .debug_str:0000000000000cc9 .LASF372
     /tmp/cciGQfDY.s:3631   .text:0000000000001198 .LVL293
     /tmp/cciGQfDY.s:3682   .text:0000000000001224 .LVL298
     /tmp/cciGQfDY.s:3396   .text:000000000000103c .LVL264
     /tmp/cciGQfDY.s:3449   .text:0000000000001090 .LVL270
     /tmp/cciGQfDY.s:3514   .text:00000000000010ec .LVL281
     /tmp/cciGQfDY.s:3452   .text:0000000000001094 .LVL271
     /tmp/cciGQfDY.s:3490   .text:00000000000010c4 .LVL280
     /tmp/cciGQfDY.s:3421   .text:000000000000106c .LVL265
     /tmp/cciGQfDY.s:3438   .text:0000000000001080 .LVL268
     /tmp/cciGQfDY.s:3428   .text:0000000000001074 .LVL266
     /tmp/cciGQfDY.s:3457   .text:0000000000001098 .LVL272
     /tmp/cciGQfDY.s:3531   .text:0000000000001108 .LVL283
     /tmp/cciGQfDY.s:3434   .text:000000000000107c .LVL267
     /tmp/cciGQfDY.s:3476   .text:00000000000010b0 .LVL276
     /tmp/cciGQfDY.s:3487   .text:00000000000010c0 .LVL279
     /tmp/cciGQfDY.s:3442   .text:0000000000001088 .LVL269
     /tmp/cciGQfDY.s:3461   .text:00000000000010a0 .LVL273
     /tmp/cciGQfDY.s:3468   .text:00000000000010a8 .LVL274
     /tmp/cciGQfDY.s:3471   .text:00000000000010ac .LVL275
     /tmp/cciGQfDY.s:3478   .text:00000000000010b4 .LVL277
     /tmp/cciGQfDY.s:3481   .text:00000000000010b8 .LVL278
     /tmp/cciGQfDY.s:3359   .text:0000000000001010 .LVL261
     /tmp/cciGQfDY.s:3372   .text:0000000000001028 .LVL262
     /tmp/cciGQfDY.s:3374   .text:000000000000102c .LVL263
     /tmp/cciGQfDY.s:3863   .text:00000000000013c0 .LVL311
     /tmp/cciGQfDY.s:3946   .text:000000000000149c .LVL320
     /tmp/cciGQfDY.s:3932   .text:000000000000148c .LVL319
     /tmp/cciGQfDY.s:3729   .text:0000000000001280 .LVL300
     /tmp/cciGQfDY.s:3812   .text:000000000000135c .LVL309
     /tmp/cciGQfDY.s:3798   .text:000000000000134c .LVL308
     /tmp/cciGQfDY.s:3557   .text:0000000000001124 .LVL285
     /tmp/cciGQfDY.s:3579   .text:0000000000001154 .LVL286
     /tmp/cciGQfDY.s:3617   .text:0000000000001190 .LVL292
     /tmp/cciGQfDY.s:3611   .text:0000000000001188 .LVL290
     /tmp/cciGQfDY.s:3614   .text:000000000000118c .LVL291
     /tmp/cciGQfDY.s:3608   .text:0000000000001184 .LVL289
     /tmp/cciGQfDY.s:3048   .text:0000000000000eac .LVL240
     /tmp/cciGQfDY.s:3076   .text:0000000000000edc .LVL242
     /tmp/cciGQfDY.s:3086   .text:0000000000000ef0 .LVL244
     /tmp/cciGQfDY.s:3090   .text:0000000000000ef4 .LVL245
     /tmp/cciGQfDY.s:3139   .text:0000000000000f1c .LVL248
     /tmp/cciGQfDY.s:3136   .text:0000000000000f18 .LVL247
     /tmp/cciGQfDY.s:3142   .text:0000000000000f20 .LVL249
     /tmp/cciGQfDY.s:3067   .text:0000000000000ed4 .LVL241
     /tmp/cciGQfDY.s:2052   .text:0000000000000a30 .LVL161
     /tmp/cciGQfDY.s:2057   .text:0000000000000a34 .LVL162
GAS LISTING /tmp/cciGQfDY.s 			page 153


     /tmp/cciGQfDY.s:1820   .text:00000000000008f4 .LVL146
     /tmp/cciGQfDY.s:1828   .text:000000000000090c .LVL147
     /tmp/cciGQfDY.s:1884   .text:0000000000000990 .LVL151
     /tmp/cciGQfDY.s:1984   .text:00000000000009fc .LVL155
     /tmp/cciGQfDY.s:1995   .text:0000000000000a08 .LVL158
     /tmp/cciGQfDY.s:1990   .text:0000000000000a00 .LVL156
     /tmp/cciGQfDY.s:1978   .text:00000000000009f0 .LVL154
     /tmp/cciGQfDY.s:1992   .text:0000000000000a04 .LVL157
     /tmp/cciGQfDY.s:1745   .text:0000000000000888 .LVL138
     /tmp/cciGQfDY.s:1773   .text:00000000000008a8 .LVL141
     /tmp/cciGQfDY.s:1777   .text:00000000000008b0 .LVL142
     /tmp/cciGQfDY.s:1751   .text:000000000000088c .LVL139
     /tmp/cciGQfDY.s:1669   .text:0000000000000820 .LVL130
     /tmp/cciGQfDY.s:1697   .text:0000000000000840 .LVL133
     /tmp/cciGQfDY.s:1701   .text:0000000000000848 .LVL134
     /tmp/cciGQfDY.s:1675   .text:0000000000000824 .LVL131
     /tmp/cciGQfDY.s:333    .text:0000000000000194 .LVL19
     /tmp/cciGQfDY.s:346    .text:000000000000019c .LVL20
     /tmp/cciGQfDY.s:367    .text:00000000000001a4 .LVL21
     /tmp/cciGQfDY.s:204    .text:0000000000000108 .LVL8
     /tmp/cciGQfDY.s:215    .text:0000000000000110 .LVL9
     /tmp/cciGQfDY.s:222    .text:0000000000000118 .LVL10
     /tmp/cciGQfDY.s:228    .text:000000000000011c .LVL11
     /tmp/cciGQfDY.s:240    .text:000000000000012c .LVL13
     /tmp/cciGQfDY.s:233    .text:0000000000000128 .LVL12
     /tmp/cciGQfDY.s:256    .text:0000000000000138 .LVL14
     /tmp/cciGQfDY.s:266    .text:0000000000000140 .LVL15
     /tmp/cciGQfDY.s:273    .text:0000000000000148 .LVL16
     /tmp/cciGQfDY.s:279    .text:000000000000014c .LVL17
     /tmp/cciGQfDY.s:3229   .text:0000000000000f68 .LVL251
     /tmp/cciGQfDY.s:3239   .text:0000000000000f7c .LVL252
     /tmp/cciGQfDY.s:3256   .text:0000000000000f90 .LVL254
     /tmp/cciGQfDY.s:3279   .text:0000000000000fa0 .LVL256
     /tmp/cciGQfDY.s:3293   .text:0000000000000fbc .LVL258
     /tmp/cciGQfDY.s:3304   .text:0000000000000fc4 .LVL259
     /tmp/cciGQfDY.s:163    .text:00000000000000c8 .LVL6
     /tmp/cciGQfDY.s:1546   .text:000000000000077c .LVL119
     /tmp/cciGQfDY.s:1553   .text:000000000000078c .LVL120
     /tmp/cciGQfDY.s:1578   .text:00000000000007ac .LVL122
     /tmp/cciGQfDY.s:1584   .text:00000000000007b0 .LVL123
     /tmp/cciGQfDY.s:1593   .text:00000000000007c8 .LVL126
     /tmp/cciGQfDY.s:1461   .text:00000000000006e8 .LVL113
     /tmp/cciGQfDY.s:1505   .text:0000000000000734 .LVL117
     /tmp/cciGQfDY.s:1389   .text:0000000000000690 .LVL108
     /tmp/cciGQfDY.s:1396   .text:0000000000000698 .LVL109
     /tmp/cciGQfDY.s:1419   .text:00000000000006b4 .LVL111
     /tmp/cciGQfDY.s:1312   .text:0000000000000630 .LVL101
     /tmp/cciGQfDY.s:1317   .text:0000000000000634 .LVL102
     /tmp/cciGQfDY.s:1351   .text:0000000000000668 .LVL105
     /tmp/cciGQfDY.s:1329   .text:000000000000064c .LVL103
     /tmp/cciGQfDY.s:1359   .text:0000000000000674 .LVL107
     /tmp/cciGQfDY.s:1239   .text:00000000000005d4 .LVL94
     /tmp/cciGQfDY.s:1269   .text:00000000000005f4 .LVL97
     /tmp/cciGQfDY.s:1273   .text:00000000000005fc .LVL98
     /tmp/cciGQfDY.s:1248   .text:00000000000005dc .LVL95
     /tmp/cciGQfDY.s:1110   .text:0000000000000540 .LVL80
     /tmp/cciGQfDY.s:1167   .text:000000000000058c .LVL87
GAS LISTING /tmp/cciGQfDY.s 			page 154


     /tmp/cciGQfDY.s:1174   .text:0000000000000598 .LVL89
     /tmp/cciGQfDY.s:1183   .text:00000000000005a4 .LVL91
     /tmp/cciGQfDY.s:1116   .text:0000000000000544 .LVL81
     /tmp/cciGQfDY.s:1170   .text:0000000000000590 .LVL88
     /tmp/cciGQfDY.s:1164   .text:0000000000000588 .LVL86
     /tmp/cciGQfDY.s:1180   .text:00000000000005a0 .LVL90
     /tmp/cciGQfDY.s:1143   .text:0000000000000570 .LVL84
     /tmp/cciGQfDY.s:108    .text:0000000000000074 .LVL4
     /tmp/cciGQfDY.s:1023   .text:00000000000004d8 .LVL74
     /tmp/cciGQfDY.s:1047   .text:00000000000004fc .LVL77
     /tmp/cciGQfDY.s:1069   .text:0000000000000518 .LVL79
     /tmp/cciGQfDY.s:1033   .text:00000000000004e8 .LVL75
     /tmp/cciGQfDY.s:955    .text:0000000000000484 .LVL68
     /tmp/cciGQfDY.s:963    .text:000000000000048c .LVL69
     /tmp/cciGQfDY.s:986    .text:00000000000004a8 .LVL71
     /tmp/cciGQfDY.s:813    .text:00000000000003d8 .LVL52
     /tmp/cciGQfDY.s:882    .text:000000000000043c .LVL60
     /tmp/cciGQfDY.s:892    .text:000000000000044c .LVL63
     /tmp/cciGQfDY.s:819    .text:00000000000003dc .LVL53
     /tmp/cciGQfDY.s:879    .text:0000000000000438 .LVL59
     /tmp/cciGQfDY.s:901    .text:0000000000000458 .LVL65
     /tmp/cciGQfDY.s:807    .text:00000000000003d4 .LVL51
     /tmp/cciGQfDY.s:885    .text:0000000000000440 .LVL61
     /tmp/cciGQfDY.s:801    .text:00000000000003d0 .LVL50
     /tmp/cciGQfDY.s:888    .text:0000000000000444 .LVL62
     /tmp/cciGQfDY.s:876    .text:0000000000000434 .LVL58
     /tmp/cciGQfDY.s:898    .text:0000000000000454 .LVL64
     /tmp/cciGQfDY.s:855    .text:000000000000041c .LVL56
     /tmp/cciGQfDY.s:635    .text:0000000000000304 .LVL33
     /tmp/cciGQfDY.s:711    .text:0000000000000374 .LVL42
     /tmp/cciGQfDY.s:721    .text:0000000000000384 .LVL45
     /tmp/cciGQfDY.s:641    .text:0000000000000308 .LVL34
     /tmp/cciGQfDY.s:714    .text:0000000000000378 .LVL43
     /tmp/cciGQfDY.s:629    .text:0000000000000300 .LVL32
     /tmp/cciGQfDY.s:708    .text:0000000000000370 .LVL41
     /tmp/cciGQfDY.s:730    .text:0000000000000390 .LVL47
     /tmp/cciGQfDY.s:623    .text:00000000000002fc .LVL31
     /tmp/cciGQfDY.s:717    .text:000000000000037c .LVL44
     /tmp/cciGQfDY.s:705    .text:000000000000036c .LVL40
     /tmp/cciGQfDY.s:727    .text:000000000000038c .LVL46
     /tmp/cciGQfDY.s:684    .text:0000000000000354 .LVL38
     /tmp/cciGQfDY.s:578    .text:00000000000002c8 .LVL29
     /tmp/cciGQfDY.s:548    .text:00000000000002a8 .LVL27
     /tmp/cciGQfDY.s:496    .text:0000000000000260 .LVL24
     /tmp/cciGQfDY.s:2118   .text:0000000000000a64 .LVL163
     /tmp/cciGQfDY.s:2527   .text:0000000000000c2c .LVL186
     /tmp/cciGQfDY.s:2531   .text:0000000000000c34 .LVL187
     /tmp/cciGQfDY.s:2354   .text:0000000000000bd0 .LVL178
     /tmp/cciGQfDY.s:2360   .text:0000000000000bdc .LVL179
     /tmp/cciGQfDY.s:2482   .text:0000000000000c0c .LVL181
     /tmp/cciGQfDY.s:2491   .text:0000000000000c10 .LVL182
     /tmp/cciGQfDY.s:2498   .text:0000000000000c14 .LVL183
     /tmp/cciGQfDY.s:2507   .text:0000000000000c18 .LVL184
     /tmp/cciGQfDY.s:2805   .text:0000000000000d94 .LVL215
     /tmp/cciGQfDY.s:2723   .text:0000000000000d28 .LVL208
     /tmp/cciGQfDY.s:2733   .text:0000000000000d30 .LVL209
     /tmp/cciGQfDY.s:2766   .text:0000000000000d78 .LVL211
GAS LISTING /tmp/cciGQfDY.s 			page 155


     /tmp/cciGQfDY.s:2775   .text:0000000000000d7c .LVL212
     /tmp/cciGQfDY.s:2782   .text:0000000000000d80 .LVL213
     /tmp/cciGQfDY.s:2794   .text:0000000000000d88 .LVL214
     /tmp/cciGQfDY.s:2859   .text:0000000000000dc4 .LVL219
     /tmp/cciGQfDY.s:2882   .text:0000000000000dd4 .LVL221
     /tmp/cciGQfDY.s:2892   .text:0000000000000de4 .LVL222
     /tmp/cciGQfDY.s:2915   .text:0000000000000dfc .LVL224
     /tmp/cciGQfDY.s:2911   .text:0000000000000df4 .LVL223
     /tmp/cciGQfDY.s:2919   .text:0000000000000e04 .LVL225
     /tmp/cciGQfDY.s:2960   .text:0000000000000e28 .LVL231
     /tmp/cciGQfDY.s:2932   .text:0000000000000e18 .LVL228
     /tmp/cciGQfDY.s:2941   .text:0000000000000e1c .LVL229
     /tmp/cciGQfDY.s:2948   .text:0000000000000e20 .LVL230
     /tmp/cciGQfDY.s:2987   .text:0000000000000e50 .LVL234
     /tmp/cciGQfDY.s:2225   .text:0000000000000b00 .LVL166
     /tmp/cciGQfDY.s:2233   .text:0000000000000b0c .LVL167
     /tmp/cciGQfDY.s:2279   .text:0000000000000b78 .LVL173
     /tmp/cciGQfDY.s:21     .text:000000000000000c .LVL0
     /tmp/cciGQfDY.s:31     .text:0000000000000024 .LVL1
     /tmp/cciGQfDY.s:75     .text:0000000000000050 .LVL3
     /tmp/cciGQfDY.s:4035   .text:0000000000001538 .LVL331
     /tmp/cciGQfDY.s:4041   .text:000000000000153c .LVL332
     /tmp/cciGQfDY.s:4053   .text:000000000000154c .LVL334
     /tmp/cciGQfDY.s:4046   .text:0000000000001548 .LVL333
     /tmp/cciGQfDY.s:4069   .text:0000000000001554 .LVL335
     /tmp/cciGQfDY.s:4085   .text:000000000000155c .LVL336
     /tmp/cciGQfDY.s:4100   .text:0000000000001560 .LVL337
     /tmp/cciGQfDY.s:4160   .debug_info:0000000000000000 .Ldebug_info0
     /tmp/cciGQfDY.s:331    .text:0000000000000194 .LBE107
     /tmp/cciGQfDY.s:334    .text:0000000000000194 .LBB117
     /tmp/cciGQfDY.s:353    .text:000000000000019c .LBE117
     /tmp/cciGQfDY.s:355    .text:000000000000019c .LBB118
     /tmp/cciGQfDY.s:374    .text:00000000000001a4 .LBE118
     /tmp/cciGQfDY.s:2885   .text:0000000000000dd8 .LBB145
     /tmp/cciGQfDY.s:2921   .text:0000000000000e04 .LBE145
     /tmp/cciGQfDY.s:2965   .text:0000000000000e28 .LBB146
     /tmp/cciGQfDY.s:2978   .text:0000000000000e44 .LBE146
     /tmp/cciGQfDY.s:2299   .text:0000000000000b9c .LBB171
     /tmp/cciGQfDY.s:2512   .text:0000000000000c18 .LBE171
     /tmp/cciGQfDY.s:2535   .text:0000000000000c34 .LBB180
     /tmp/cciGQfDY.s:2685   .text:0000000000000d18 .LBE180
     /tmp/cciGQfDY.s:3241   .text:0000000000000f7c .LBB186
     /tmp/cciGQfDY.s:3249   .text:0000000000000f84 .LBE186
     /tmp/cciGQfDY.s:3251   .text:0000000000000f84 .LBB190
     /tmp/cciGQfDY.s:3330   .text:0000000000000ff0 .LBE190
     /tmp/cciGQfDY.s:4073   .text:0000000000001554 .LBE201
     /tmp/cciGQfDY.s:4075   .text:0000000000001554 .LBB208
     /tmp/cciGQfDY.s:4089   .text:000000000000155c .LBE208
     /tmp/cciGQfDY.s:4091   .text:000000000000155c .LBB209
     /tmp/cciGQfDY.s:4104   .text:0000000000001560 .LBE209
     /tmp/cciGQfDY.s:744    .gcc_except_table:0000000000000000 .LLSDA49
     /tmp/cciGQfDY.s:914    .gcc_except_table:0000000000000038 .LLSDA50
     /tmp/cciGQfDY.s:1196   .gcc_except_table:0000000000000063 .LLSDA54
     /tmp/cciGQfDY.s:2009   .gcc_except_table:000000000000008e .LLSDA68

UNDEFINED SYMBOLS
_ZN3TCB7runningE
GAS LISTING /tmp/cciGQfDY.s 			page 156


_Z11bodyWrapperPFvPvES_
_ZN3TCB8dispatchEv
_ZN11ConsoleUtil11pendingPutcE
_ZN11ConsoleUtil9putOutputEc
_ZN11ConsoleUtil11pendingGetcE
_ZN9Scheduler9readyHeadE
_ZN3TCB10putcThreadE
_ZN9Scheduler3putEP3TCB
_ZN11ConsoleUtil10outputHeadE
_ZN11ConsoleUtil10outputTailE
_ZN15MemoryAllocator7kmallocEm
_ZN15MemoryAllocator11initializedE
_ZN15MemoryAllocator5kfreeEPv
_ZN3TCBnwEm
_ZN3TCBC1EPFvPvES0_Pmm
_ZN3TCBdlEPv
_Unwind_Resume
__gxx_personality_v0
_ZN3SCBnwEm
_ZN3SCBC1Em
_ZN3SCBdlEPv
_ZN3SCBD1Ev
_ZN3SCB4waitEv
_ZN3SCB6signalEv
_ZN9Scheduler5sleepEP3TCB
_ZN11ConsoleUtil8getInputEv
_ZN11ConsoleUtil9getOutputEv
_Z5kfreePKv
_ZN3TCBD1Ev
_ZN15MemoryAllocator6memcpyEPvS0_m
_ZN3TCB9currentPCE
_ZN3TCB9currentSPE
_ZN11ConsoleUtil11printStringEPKc
_ZN11ConsoleUtil8printIntEiii
_ZN11ConsoleUtil5printEPKciS1_i
_ZN9Scheduler5awakeEv
_ZN3TCB16timeSliceCounterE
CONSOLE_STATUS
CONSOLE_TX_DATA
plic_claim
plic_complete
_ZN11ConsoleUtil8putInputEc
_ZN11ConsoleUtil15putcUtilSyscallEv
CONSOLE_RX_DATA
_ZN5Buddy5allocEm
_ZN5Buddy16BLOCKS_AVAILABLEE
_ZN5Buddy16BUDDY_START_ADDRE
kernelTextEnd
userTextStart
userDataStart
userDataEnd
HEAP_END_ADDR
_ZN5RiscV14supervisorTrapEv
HEAP_START_ADDR
_Z9kmem_initPvi
_ZN15MemoryAllocator10initializeEv
_ZN9Scheduler10initializeEv
GAS LISTING /tmp/cciGQfDY.s 			page 157


_ZN3TCB10initializeEv
_ZN3SCB10initializeEv
_ZN11ConsoleUtil10initializeEv
