GAS LISTING /tmp/ccP6cCkB.s 			page 1


   1              		.file	"riscv.cpp"
   2              		.option pic
   3              		.option norelax
   4              		.text
   5              	.Ltext0:
   6              		.align	2
   7              		.globl	_ZN5RiscV16popSppSpieSystemEv
   9              	_ZN5RiscV16popSppSpieSystemEv:
  10              	.LFB48:
  11              		.file 1 "src/kernel/riscv.cpp"
   1:src/kernel/riscv.cpp **** //
   2:src/kernel/riscv.cpp **** // Created by os on 4/28/22.
   3:src/kernel/riscv.cpp **** //
   4:src/kernel/riscv.cpp **** 
   5:src/kernel/riscv.cpp **** #include "../../h/kernel/riscv.hpp"
   6:src/kernel/riscv.cpp **** #include "../../h/kernel/memory_allocator.hpp"
   7:src/kernel/riscv.cpp **** #include "../../h/kernel/tcb.hpp"
   8:src/kernel/riscv.cpp **** #include "../../h/kernel/scheduler.hpp"
   9:src/kernel/riscv.cpp **** #include "../../h/user/printing.hpp"
  10:src/kernel/riscv.cpp **** #include "../../h/kernel/scb.hpp"
  11:src/kernel/riscv.cpp **** #include "../../h/user/_thread.hpp"
  12:src/kernel/riscv.cpp **** 
  13:src/kernel/riscv.cpp **** uint64 RiscV::globalTime = 0;
  14:src/kernel/riscv.cpp **** bool RiscV::userMainFinished = false;
  15:src/kernel/riscv.cpp **** void* RiscV::kPMT = nullptr;
  16:src/kernel/riscv.cpp **** void* RiscV::uPMT = nullptr;
  17:src/kernel/riscv.cpp **** bool RiscV::initialized = false;
  18:src/kernel/riscv.cpp **** 
  19:src/kernel/riscv.cpp **** //initailize each of the key components and switch to user mode for user code execution
  20:src/kernel/riscv.cpp **** void RiscV::initialize(){
  21:src/kernel/riscv.cpp ****     RiscV::w_stvec((uint64) &RiscV::supervisorTrap);
  22:src/kernel/riscv.cpp ****     kmem_init(BUDDY_START_ADDR_CONST, 4096);
  23:src/kernel/riscv.cpp ****     MemoryAllocator::initialize();
  24:src/kernel/riscv.cpp ****     Scheduler::initialize();
  25:src/kernel/riscv.cpp ****     TCB::initialize();
  26:src/kernel/riscv.cpp ****     SCB::initialize();
  27:src/kernel/riscv.cpp ****     ConsoleUtil::initialize();
  28:src/kernel/riscv.cpp ****     RiscV::buildKernelPMT();
  29:src/kernel/riscv.cpp ****     RiscV::buildUserPMT();
  30:src/kernel/riscv.cpp ****     RiscV::initialized = true;
  31:src/kernel/riscv.cpp ****     RiscV::startVirtualMemory(RiscV::kPMT);
  32:src/kernel/riscv.cpp ****     RiscV::enableInterrupts();
  33:src/kernel/riscv.cpp **** }
  34:src/kernel/riscv.cpp **** 
  35:src/kernel/riscv.cpp **** //get previous privilege and previous interrupt status
  36:src/kernel/riscv.cpp **** void RiscV::popSppSpieSystem() {
  12              		.loc 1 36 32
  13              		.cfi_startproc
  14 0000 130101FF 		addi	sp,sp,-16
  15              		.cfi_def_cfa_offset 16
  16 0004 23348100 		sd	s0,8(sp)
  17              		.cfi_offset 8, -8
  18 0008 13040101 		addi	s0,sp,16
  19              		.cfi_def_cfa 8, 0
  37:src/kernel/riscv.cpp ****     asm("csrw sepc, ra");
  20              		.loc 1 37 5
  21              		.loc 1 37 25 is_stmt 0
GAS LISTING /tmp/ccP6cCkB.s 			page 2


  22              	#APP
  23              	# 37 "src/kernel/riscv.cpp" 1
  38              	    asm("sret");
  24              		csrw sepc, ra
  25              	# 0 "" 2
  26              		.loc 1 38 5 is_stmt 1
  27              		.loc 1 38 16 is_stmt 0
  28              	# 38 "src/kernel/riscv.cpp" 1
  39              	}
  29              		sret
  30              	# 0 "" 2
  31              		.loc 1 39 1
  32              	#NO_APP
  33 0014 03348100 		ld	s0,8(sp)
  34              		.cfi_restore 8
  35              		.cfi_def_cfa 2, 16
  36 0018 13010101 		addi	sp,sp,16
  37              		.cfi_def_cfa_offset 0
  38 001c 67800000 		jr	ra
  39              		.cfi_endproc
  40              	.LFE48:
  42              		.align	2
  43              		.globl	_ZN5RiscV14popSppSpieUserEv
  45              	_ZN5RiscV14popSppSpieUserEv:
  46              	.LFB49:
  40:src/kernel/riscv.cpp **** 
  41:src/kernel/riscv.cpp **** void RiscV::popSppSpieUser() {
  47              		.loc 1 41 30 is_stmt 1
  48              		.cfi_startproc
  49 0020 130101FF 		addi	sp,sp,-16
  50              		.cfi_def_cfa_offset 16
  51 0024 23348100 		sd	s0,8(sp)
  52              		.cfi_offset 8, -8
  53 0028 13040101 		addi	s0,sp,16
  54              		.cfi_def_cfa 8, 0
  42:src/kernel/riscv.cpp ****     asm("csrw sepc, %[ra]" : : [ra] "r" ((uint64)popSppSpieUserWrapper));
  55              		.loc 1 42 5
  56              		.loc 1 42 73 is_stmt 0
  57 002c 97070000 		la	a5,_Z21popSppSpieUserWrapperPFvPvES_
  57      83B70700 
  58              	#APP
  59              	# 42 "src/kernel/riscv.cpp" 1
  43              	    asm("mv a0, %[iarg]" : : [iarg] "r" (TCB::running->body));
  60              		csrw sepc, a5
  61              	# 0 "" 2
  62              		.loc 1 43 5 is_stmt 1
  63              		.loc 1 43 56 is_stmt 0
  64              	#NO_APP
  65 0038 97070000 		la	a5,_ZN3TCB7runningE
  65      83B70700 
  66 0040 83B70700 		ld	a5,0(a5)
  67 0044 03B78701 		ld	a4,24(a5)
  68              		.loc 1 43 62
  69              	#APP
  70              	# 43 "src/kernel/riscv.cpp" 1
  44              	    asm("mv a1, %[iarg]" : : [iarg] "r" (TCB::running->args));
  71              		mv a0, a4
GAS LISTING /tmp/ccP6cCkB.s 			page 3


  72              	# 0 "" 2
  73              		.loc 1 44 5 is_stmt 1
  74              		.loc 1 44 56 is_stmt 0
  75              	#NO_APP
  76 004c 83B70702 		ld	a5,32(a5)
  77              		.loc 1 44 62
  78              	#APP
  79              	# 44 "src/kernel/riscv.cpp" 1
  45              	    asm("sret");
  80              		mv a1, a5
  81              	# 0 "" 2
  82              		.loc 1 45 5 is_stmt 1
  83              		.loc 1 45 16 is_stmt 0
  84              	# 45 "src/kernel/riscv.cpp" 1
  46              	}
  85              		sret
  86              	# 0 "" 2
  87              		.loc 1 46 1
  88              	#NO_APP
  89 0058 03348100 		ld	s0,8(sp)
  90              		.cfi_restore 8
  91              		.cfi_def_cfa 2, 16
  92 005c 13010101 		addi	sp,sp,16
  93              		.cfi_def_cfa_offset 0
  94 0060 67800000 		jr	ra
  95              		.cfi_endproc
  96              	.LFE49:
  98              		.align	2
  99              		.globl	_ZN5RiscV28executeThreadDispatchSyscallEv
 101              	_ZN5RiscV28executeThreadDispatchSyscallEv:
 102              	.LFB57:
  47:src/kernel/riscv.cpp **** 
  48:src/kernel/riscv.cpp **** 
  49:src/kernel/riscv.cpp **** //handler function for traps
  50:src/kernel/riscv.cpp **** void RiscV::handleSupervisorTrap() {
  51:src/kernel/riscv.cpp **** 
  52:src/kernel/riscv.cpp ****     //read scause
  53:src/kernel/riscv.cpp ****     uint64 stval;
  54:src/kernel/riscv.cpp ****     asm("csrr %[stval], stval" : [stval] "=r" (stval));
  55:src/kernel/riscv.cpp ****     uint64 volatile scause = RiscV::r_scause();
  56:src/kernel/riscv.cpp **** 
  57:src/kernel/riscv.cpp ****     asm("csrr %[sscratch], sscratch" : [sscratch] "=r" (TCB::running->a0Location));
  58:src/kernel/riscv.cpp **** 
  59:src/kernel/riscv.cpp ****     if(scause == 0x09 || scause == 0x08) {
  60:src/kernel/riscv.cpp **** 
  61:src/kernel/riscv.cpp ****         //save sstatus and sepc
  62:src/kernel/riscv.cpp ****         //sepc should be increased by 4, since this is an ecall trap
  63:src/kernel/riscv.cpp ****         uint64 volatile sstatus = RiscV::r_sstatus();
  64:src/kernel/riscv.cpp ****         uint64 volatile sepc = RiscV::r_sepc()+4;
  65:src/kernel/riscv.cpp ****         TCB::running->sepc = sepc;
  66:src/kernel/riscv.cpp ****         TCB::running->sstatus = sstatus;
  67:src/kernel/riscv.cpp **** 
  68:src/kernel/riscv.cpp ****         //get the syscall ID from a0
  69:src/kernel/riscv.cpp ****         uint64 syscallID;
  70:src/kernel/riscv.cpp ****         asm("mv %[syscallID], a0" : [syscallID] "=r" (syscallID));
  71:src/kernel/riscv.cpp **** 
  72:src/kernel/riscv.cpp ****         switch(syscallID){
GAS LISTING /tmp/ccP6cCkB.s 			page 4


  73:src/kernel/riscv.cpp ****             case 0x01 : executeMemAllocSyscall();break;
  74:src/kernel/riscv.cpp ****             case 0x02 : executeMemFreeSyscall();break;
  75:src/kernel/riscv.cpp ****             case 0x11 : executeThreadCreateSyscall();break;
  76:src/kernel/riscv.cpp ****             case 0x12 : executeThreadExitSyscall();break;
  77:src/kernel/riscv.cpp ****             case 0x13 : executeThreadDispatchSyscall();break;
  78:src/kernel/riscv.cpp ****             case 0x14 : executeThreadAttachBodySyscall();break;
  79:src/kernel/riscv.cpp ****             case 0x15 : executeThreadStartSyscall();break;
  80:src/kernel/riscv.cpp ****             case 0x21 : executeSemOpenSyscall();break;
  81:src/kernel/riscv.cpp ****             case 0x22 : executeSemCloseSyscall();break;
  82:src/kernel/riscv.cpp ****             case 0x23 : executeSemWaitSyscall();break;
  83:src/kernel/riscv.cpp ****             case 0x24 : executeSemSignalSyscall();break;
  84:src/kernel/riscv.cpp ****             case 0x31 : executeTimeSleepSyscall();break;
  85:src/kernel/riscv.cpp ****             case 0x41 : executeGetcSyscall();break;
  86:src/kernel/riscv.cpp ****             case 0x42 : executePutcSyscall();break;
  87:src/kernel/riscv.cpp ****             case 0x43 : executePutcUtilSyscall();break;
  88:src/kernel/riscv.cpp ****             case 0x51 : executeThreadFreeSyscall();break;
  89:src/kernel/riscv.cpp ****             case 0x52 : executeSemaphoreFreeSyscall();break;
  90:src/kernel/riscv.cpp ****             //in this case we need to save SP and PC at this point so that newly created thread
  91:src/kernel/riscv.cpp ****             //can return to this point and exit trap routine regularly
  92:src/kernel/riscv.cpp ****             //note that getPC() returns PC incremented by 8 to skip executeForkSyscall
  93:src/kernel/riscv.cpp ****             case 0x61 : asm("mv %[sp], sp" : [sp] "=r"(TCB::currentSP));
  94:src/kernel/riscv.cpp ****                         RiscV::getPC();
  95:src/kernel/riscv.cpp ****                         executeForkSyscall();
  96:src/kernel/riscv.cpp ****                         break;
  97:src/kernel/riscv.cpp ****         }
  98:src/kernel/riscv.cpp **** 
  99:src/kernel/riscv.cpp ****         //write previously save sstatus and incremented sepc
 100:src/kernel/riscv.cpp ****         RiscV::w_sstatus(TCB::running->sstatus);
 101:src/kernel/riscv.cpp ****         RiscV::w_sepc(TCB::running->sepc);
 102:src/kernel/riscv.cpp ****     }
 103:src/kernel/riscv.cpp **** 
 104:src/kernel/riscv.cpp ****     //timer interrupt (in this system's implementation, timer tick is manifested as software interr
 105:src/kernel/riscv.cpp ****     else if(scause == (0x01UL<<63 | 0x1)){
 106:src/kernel/riscv.cpp **** 
 107:src/kernel/riscv.cpp ****         //save sstatus and sepc
 108:src/kernel/riscv.cpp ****         //this time sepc remains the same
 109:src/kernel/riscv.cpp ****         uint64 volatile sstatus = RiscV::r_sstatus();
 110:src/kernel/riscv.cpp ****         uint64 volatile sepc = RiscV::r_sepc();
 111:src/kernel/riscv.cpp **** 
 112:src/kernel/riscv.cpp ****         //clear the SIP bit for software interrupt
 113:src/kernel/riscv.cpp ****         mc_sip(SIP_SSIE);
 114:src/kernel/riscv.cpp **** 
 115:src/kernel/riscv.cpp **** 
 116:src/kernel/riscv.cpp ****         //increase global time and try to awake threads that are asleep
 117:src/kernel/riscv.cpp ****         globalTime += 1;
 118:src/kernel/riscv.cpp ****         Scheduler::awake();
 119:src/kernel/riscv.cpp **** 
 120:src/kernel/riscv.cpp ****         //check whether time slice has run out for running thread
 121:src/kernel/riscv.cpp ****         //if so, dispatch
 122:src/kernel/riscv.cpp ****         TCB::timeSliceCounter++;
 123:src/kernel/riscv.cpp ****         if(TCB::timeSliceCounter >= TCB::running->timeSlice) {
 124:src/kernel/riscv.cpp **** 
 125:src/kernel/riscv.cpp ****             TCB::timeSliceCounter = 0;
 126:src/kernel/riscv.cpp **** 
 127:src/kernel/riscv.cpp ****             TCB* old = TCB::running;
 128:src/kernel/riscv.cpp **** 
 129:src/kernel/riscv.cpp ****             old->status = TCB::Status::READY;
GAS LISTING /tmp/ccP6cCkB.s 			page 5


 130:src/kernel/riscv.cpp **** 
 131:src/kernel/riscv.cpp ****             TCB::dispatch();
 132:src/kernel/riscv.cpp ****         }
 133:src/kernel/riscv.cpp **** 
 134:src/kernel/riscv.cpp ****         //write previously save sstatus and sepc
 135:src/kernel/riscv.cpp ****         RiscV::w_sstatus(sstatus);
 136:src/kernel/riscv.cpp ****         RiscV::w_sepc(sepc);
 137:src/kernel/riscv.cpp ****     }
 138:src/kernel/riscv.cpp **** 
 139:src/kernel/riscv.cpp ****     //hardware interrupt, from console (note that here we only check for keyboard interrupts, handl
 140:src/kernel/riscv.cpp ****     else if(scause == (0x01UL<<63 | 0x9)){
 141:src/kernel/riscv.cpp ****         //save sstatus and sepc
 142:src/kernel/riscv.cpp ****         //this time sepc remains the same
 143:src/kernel/riscv.cpp ****         uint64 volatile sstatus = RiscV::r_sstatus();
 144:src/kernel/riscv.cpp ****         uint64 volatile sepc = RiscV::r_sepc();
 145:src/kernel/riscv.cpp **** 
 146:src/kernel/riscv.cpp ****         //get the console status register location, and console status reg value
 147:src/kernel/riscv.cpp ****         uint64 status = CONSOLE_STATUS;
 148:src/kernel/riscv.cpp ****         asm("mv a0, %[status]" : : [status] "r" (status));
 149:src/kernel/riscv.cpp ****         asm("lb a1, 0(a0)");
 150:src/kernel/riscv.cpp ****         asm("mv %[status], a1" : [status] "=r" (status));
 151:src/kernel/riscv.cpp **** 
 152:src/kernel/riscv.cpp ****         //if keyboard is ready to send data
 153:src/kernel/riscv.cpp ****         if(status & 1UL)
 154:src/kernel/riscv.cpp ****         {
 155:src/kernel/riscv.cpp ****             //fetch the character from CONSOLE_TX_DATA register
 156:src/kernel/riscv.cpp ****             uint64 data;
 157:src/kernel/riscv.cpp ****             char c;
 158:src/kernel/riscv.cpp ****             data = CONSOLE_TX_DATA;
 159:src/kernel/riscv.cpp ****             asm("mv a0, %[data]" : : [data] "r" (data));
 160:src/kernel/riscv.cpp ****             asm("lb a1, 0(a0)");
 161:src/kernel/riscv.cpp ****             asm("mv %[c], a1" : [c] "=r" (c));
 162:src/kernel/riscv.cpp **** 
 163:src/kernel/riscv.cpp ****             //if there was a getc request put the character into the input buffer, othrewise ignore
 164:src/kernel/riscv.cpp ****             if(ConsoleUtil::pendingGetc!=0) {
 165:src/kernel/riscv.cpp ****                 ConsoleUtil::pendingGetc--;
 166:src/kernel/riscv.cpp ****                 ConsoleUtil::putInput(c);
 167:src/kernel/riscv.cpp ****             }
 168:src/kernel/riscv.cpp ****         }
 169:src/kernel/riscv.cpp ****         plic_complete(plic_claim());
 170:src/kernel/riscv.cpp **** 
 171:src/kernel/riscv.cpp ****         RiscV::w_sstatus(sstatus);
 172:src/kernel/riscv.cpp ****         RiscV::w_sepc(sepc);
 173:src/kernel/riscv.cpp ****     }
 174:src/kernel/riscv.cpp **** 
 175:src/kernel/riscv.cpp ****     //illegal instruction, exit running thread
 176:src/kernel/riscv.cpp ****     else if(scause == 0x02){
 177:src/kernel/riscv.cpp ****         TCB* old = TCB::running;
 178:src/kernel/riscv.cpp ****         old->status = TCB::Status::FINISHED;
 179:src/kernel/riscv.cpp ****         ConsoleUtil::printString("sepc: ");
 180:src/kernel/riscv.cpp ****         uint64 sepc = RiscV::r_sepc();
 181:src/kernel/riscv.cpp ****         ConsoleUtil::printInt(sepc,16);
 182:src/kernel/riscv.cpp ****         ConsoleUtil::printString("\n");
 183:src/kernel/riscv.cpp ****         ConsoleUtil::printString("Illegal instruction\nExiting thread...\n");
 184:src/kernel/riscv.cpp ****         TCB::dispatch();
 185:src/kernel/riscv.cpp ****     }
 186:src/kernel/riscv.cpp **** 
GAS LISTING /tmp/ccP6cCkB.s 			page 6


 187:src/kernel/riscv.cpp ****     //some other kind of error, for more information check out RiscV handbook
 188:src/kernel/riscv.cpp ****     else{
 189:src/kernel/riscv.cpp ****         ConsoleUtil::printString("Error: \n");
 190:src/kernel/riscv.cpp ****         ConsoleUtil::printString("scause: ");
 191:src/kernel/riscv.cpp ****         uint64  scause = RiscV::r_scause();
 192:src/kernel/riscv.cpp ****         ConsoleUtil::printInt(scause);
 193:src/kernel/riscv.cpp ****         ConsoleUtil::printString("\n");
 194:src/kernel/riscv.cpp ****         ConsoleUtil::printString("sepc: ");
 195:src/kernel/riscv.cpp ****         uint64 sepc = RiscV::r_sepc();
 196:src/kernel/riscv.cpp ****         ConsoleUtil::printInt(sepc,16);
 197:src/kernel/riscv.cpp ****         ConsoleUtil::printString("\n");
 198:src/kernel/riscv.cpp ****         ConsoleUtil::print("stval: ",stval,"\n");
 199:src/kernel/riscv.cpp ****         TCB* old = TCB::running;
 200:src/kernel/riscv.cpp ****         old->status = TCB::Status::FINISHED;
 201:src/kernel/riscv.cpp ****         ConsoleUtil::printString("Exiting thread...\n");
 202:src/kernel/riscv.cpp ****         TCB::dispatch();
 203:src/kernel/riscv.cpp ****     }
 204:src/kernel/riscv.cpp **** 
 205:src/kernel/riscv.cpp ****     RiscV::jumpToDesignatedPrivilegeMode();
 206:src/kernel/riscv.cpp **** }
 207:src/kernel/riscv.cpp **** 
 208:src/kernel/riscv.cpp **** void RiscV::executeMemAllocSyscall(){
 209:src/kernel/riscv.cpp **** 
 210:src/kernel/riscv.cpp ****     //fetch the arguments from a0-a7 registers
 211:src/kernel/riscv.cpp ****     uint64 size;
 212:src/kernel/riscv.cpp ****     asm("mv %[size], a1" : [size] "=r" (size));
 213:src/kernel/riscv.cpp **** 
 214:src/kernel/riscv.cpp ****     //call internal allocator and return the address in a0
 215:src/kernel/riscv.cpp ****     uint64 addr =(uint64)MemoryAllocator::kmalloc(size);
 216:src/kernel/riscv.cpp **** 
 217:src/kernel/riscv.cpp ****     asm("mv a0, %[addr]" : : [addr] "r" (addr));
 218:src/kernel/riscv.cpp **** 
 219:src/kernel/riscv.cpp ****     RiscV::saveA0toSscratch();
 220:src/kernel/riscv.cpp **** }
 221:src/kernel/riscv.cpp **** 
 222:src/kernel/riscv.cpp **** void RiscV::executeMemFreeSyscall() {
 223:src/kernel/riscv.cpp **** 
 224:src/kernel/riscv.cpp ****     //fetch the arguments from a0-a7 registers
 225:src/kernel/riscv.cpp ****     uint64 iaddr, status;
 226:src/kernel/riscv.cpp **** 
 227:src/kernel/riscv.cpp **** 
 228:src/kernel/riscv.cpp ****     if(MemoryAllocator::initialized) {
 229:src/kernel/riscv.cpp ****         //call internal allocator and free memory which iaddr points to
 230:src/kernel/riscv.cpp ****         asm("mv %[iaddr], a1" : [iaddr] "=r"(iaddr));
 231:src/kernel/riscv.cpp ****         status = MemoryAllocator::kfree((void *) iaddr);;
 232:src/kernel/riscv.cpp ****     }
 233:src/kernel/riscv.cpp ****     else
 234:src/kernel/riscv.cpp ****         status = -1;
 235:src/kernel/riscv.cpp **** 
 236:src/kernel/riscv.cpp ****     //return status
 237:src/kernel/riscv.cpp ****     asm("mv a0, %[status]" : : [status] "r" (status));
 238:src/kernel/riscv.cpp **** 
 239:src/kernel/riscv.cpp ****     RiscV::saveA0toSscratch();
 240:src/kernel/riscv.cpp **** }
 241:src/kernel/riscv.cpp **** 
 242:src/kernel/riscv.cpp **** void RiscV::executeThreadCreateSyscall(){
 243:src/kernel/riscv.cpp **** 
GAS LISTING /tmp/ccP6cCkB.s 			page 7


 244:src/kernel/riscv.cpp ****     //fetch the arguments from a0-a7 registers
 245:src/kernel/riscv.cpp ****     uint64 iroutine, iargs, ihandle, istack;
 246:src/kernel/riscv.cpp **** 
 247:src/kernel/riscv.cpp ****     asm("mv %[istack], a7" : [istack] "=r"(istack));
 248:src/kernel/riscv.cpp ****     asm("mv %[ihandle], a1" : [ihandle] "=r"(ihandle));
 249:src/kernel/riscv.cpp ****     asm("mv %[iroutine], a2" : [iroutine] "=r"(iroutine));
 250:src/kernel/riscv.cpp ****     asm("mv %[iargs], a3" : [iargs] "=r"(iargs));
 251:src/kernel/riscv.cpp **** 
 252:src/kernel/riscv.cpp ****     //call constructor for Thread Control Block and if not null, write thread address into ihandle
 253:src/kernel/riscv.cpp ****     TCB *tcb = new TCB((TCB::Body)iroutine, (void*)iargs, (uint64*)istack, DEFAULT_TIME_SLICE);
 254:src/kernel/riscv.cpp **** 
 255:src/kernel/riscv.cpp ****     uint64 status = 0;
 256:src/kernel/riscv.cpp **** 
 257:src/kernel/riscv.cpp ****     if(tcb == nullptr){
 258:src/kernel/riscv.cpp ****         status = -1;
 259:src/kernel/riscv.cpp ****     }
 260:src/kernel/riscv.cpp ****     else{
 261:src/kernel/riscv.cpp ****         if(tcb->body)
 262:src/kernel/riscv.cpp ****             Scheduler::put(tcb);
 263:src/kernel/riscv.cpp ****         *((TCB**)ihandle) = tcb;
 264:src/kernel/riscv.cpp ****     }
 265:src/kernel/riscv.cpp **** 
 266:src/kernel/riscv.cpp ****     //return status
 267:src/kernel/riscv.cpp ****     asm("mv a0, %[status]" : : [status] "r" (status));
 268:src/kernel/riscv.cpp **** 
 269:src/kernel/riscv.cpp ****     RiscV::saveA0toSscratch();
 270:src/kernel/riscv.cpp **** }
 271:src/kernel/riscv.cpp **** 
 272:src/kernel/riscv.cpp **** void RiscV::executeThreadAttachBodySyscall(){
 273:src/kernel/riscv.cpp **** 
 274:src/kernel/riscv.cpp ****     //fetch the arguments from a0-a7 registers
 275:src/kernel/riscv.cpp ****     uint64 iroutine, iargs, ihandle, istack;
 276:src/kernel/riscv.cpp **** 
 277:src/kernel/riscv.cpp **** 
 278:src/kernel/riscv.cpp ****     asm("mv %[istack], a7" : [istack] "=r"(istack));
 279:src/kernel/riscv.cpp ****     asm("mv %[ihandle], a1" : [ihandle] "=r"(ihandle));
 280:src/kernel/riscv.cpp ****     asm("mv %[iroutine], a2" : [iroutine] "=r"(iroutine));
 281:src/kernel/riscv.cpp ****     asm("mv %[iargs], a3" : [iargs] "=r"(iargs));
 282:src/kernel/riscv.cpp **** 
 283:src/kernel/riscv.cpp ****     TCB *tcb = new TCB((TCB::Body)iroutine, (void*)iargs, (uint64*)istack, DEFAULT_TIME_SLICE);
 284:src/kernel/riscv.cpp **** 
 285:src/kernel/riscv.cpp ****     uint64 status = 0;
 286:src/kernel/riscv.cpp **** 
 287:src/kernel/riscv.cpp ****     if(tcb == nullptr){
 288:src/kernel/riscv.cpp ****         status = -1;
 289:src/kernel/riscv.cpp ****     }
 290:src/kernel/riscv.cpp ****     else{
 291:src/kernel/riscv.cpp ****         tcb->body = (TCB::Body)iroutine;
 292:src/kernel/riscv.cpp ****         tcb->args = (void*)iargs;
 293:src/kernel/riscv.cpp ****         *((TCB**)ihandle) = tcb;
 294:src/kernel/riscv.cpp ****     }
 295:src/kernel/riscv.cpp **** 
 296:src/kernel/riscv.cpp ****     asm("mv a0, %[status]" : : [status] "r" (status));
 297:src/kernel/riscv.cpp **** 
 298:src/kernel/riscv.cpp ****     RiscV::saveA0toSscratch();
 299:src/kernel/riscv.cpp **** }
 300:src/kernel/riscv.cpp **** 
GAS LISTING /tmp/ccP6cCkB.s 			page 8


 301:src/kernel/riscv.cpp **** void RiscV::executeThreadStartSyscall(){
 302:src/kernel/riscv.cpp **** 
 303:src/kernel/riscv.cpp ****     //fetch the arguments from a0-a7 registers
 304:src/kernel/riscv.cpp ****     uint64 ihandle;
 305:src/kernel/riscv.cpp **** 
 306:src/kernel/riscv.cpp ****     asm("mv %[ihandle], a1" : [ihandle] "=r"(ihandle));
 307:src/kernel/riscv.cpp **** 
 308:src/kernel/riscv.cpp ****     //get the handle and put tcb in scheduler if not null
 309:src/kernel/riscv.cpp ****     TCB* tcb =(TCB*)ihandle;
 310:src/kernel/riscv.cpp **** 
 311:src/kernel/riscv.cpp ****     uint64 status = 0;
 312:src/kernel/riscv.cpp **** 
 313:src/kernel/riscv.cpp ****     if(tcb == nullptr){
 314:src/kernel/riscv.cpp ****         status = -1;
 315:src/kernel/riscv.cpp ****     }
 316:src/kernel/riscv.cpp ****     else{
 317:src/kernel/riscv.cpp ****         tcb->status = TCB::Status::READY;
 318:src/kernel/riscv.cpp ****         Scheduler::put(tcb);
 319:src/kernel/riscv.cpp ****         TCB::dispatch();
 320:src/kernel/riscv.cpp ****     }
 321:src/kernel/riscv.cpp **** 
 322:src/kernel/riscv.cpp ****     //return status
 323:src/kernel/riscv.cpp ****     asm("mv a0, %[status]" : : [status] "r" (status));
 324:src/kernel/riscv.cpp **** 
 325:src/kernel/riscv.cpp ****     RiscV::saveA0toSscratch();
 326:src/kernel/riscv.cpp **** }
 327:src/kernel/riscv.cpp **** 
 328:src/kernel/riscv.cpp **** void RiscV::executeThreadExitSyscall() {
 329:src/kernel/riscv.cpp **** 
 330:src/kernel/riscv.cpp ****     //fetch the arguments from a0-a7 registers
 331:src/kernel/riscv.cpp ****     uint64 status = 0;
 332:src/kernel/riscv.cpp **** 
 333:src/kernel/riscv.cpp ****     //if thread not null, set status to finished and dispatch
 334:src/kernel/riscv.cpp ****     if(TCB::running == nullptr){
 335:src/kernel/riscv.cpp ****         status = -1;
 336:src/kernel/riscv.cpp ****     }
 337:src/kernel/riscv.cpp ****     else{
 338:src/kernel/riscv.cpp ****         TCB* old = TCB::running;
 339:src/kernel/riscv.cpp ****         old->status = TCB::Status::FINISHED;
 340:src/kernel/riscv.cpp ****         TCB::dispatch();
 341:src/kernel/riscv.cpp ****     }
 342:src/kernel/riscv.cpp **** 
 343:src/kernel/riscv.cpp ****     asm("mv a0, %[status]" : : [status] "r" (status));
 344:src/kernel/riscv.cpp **** 
 345:src/kernel/riscv.cpp ****     RiscV::saveA0toSscratch();
 346:src/kernel/riscv.cpp **** }
 347:src/kernel/riscv.cpp **** 
 348:src/kernel/riscv.cpp **** void RiscV::executeThreadDispatchSyscall(){
 103              		.loc 1 348 43 is_stmt 1
 104              		.cfi_startproc
 105 0064 130101FF 		addi	sp,sp,-16
 106              		.cfi_def_cfa_offset 16
 107 0068 23341100 		sd	ra,8(sp)
 108 006c 23308100 		sd	s0,0(sp)
 109              		.cfi_offset 1, -8
 110              		.cfi_offset 8, -16
 111 0070 13040101 		addi	s0,sp,16
GAS LISTING /tmp/ccP6cCkB.s 			page 9


 112              		.cfi_def_cfa 8, 0
 349:src/kernel/riscv.cpp **** 
 350:src/kernel/riscv.cpp ****     //dispatch current running thread
 351:src/kernel/riscv.cpp ****     TCB* old = TCB::running;
 113              		.loc 1 351 5
 114              		.loc 1 351 10 is_stmt 0
 115 0074 97070000 		la	a5,_ZN3TCB7runningE
 115      83B70700 
 116 007c 83B70700 		ld	a5,0(a5)
 117              	.LVL0:
 352:src/kernel/riscv.cpp ****     old->status = TCB::Status::READY;
 118              		.loc 1 352 5 is_stmt 1
 119              		.loc 1 352 17 is_stmt 0
 120 0080 13071000 		li	a4,1
 121 0084 23A8E700 		sw	a4,16(a5)
 353:src/kernel/riscv.cpp ****     TCB::dispatch();
 122              		.loc 1 353 5 is_stmt 1
 123              		.loc 1 353 18 is_stmt 0
 124 0088 97000000 		call	_ZN3TCB8dispatchEv@plt
 124      E7800000 
 125              	.LVL1:
 354:src/kernel/riscv.cpp **** }
 126              		.loc 1 354 1
 127 0090 83308100 		ld	ra,8(sp)
 128              		.cfi_restore 1
 129 0094 03340100 		ld	s0,0(sp)
 130              		.cfi_restore 8
 131              		.cfi_def_cfa 2, 16
 132 0098 13010101 		addi	sp,sp,16
 133              		.cfi_def_cfa_offset 0
 134 009c 67800000 		jr	ra
 135              		.cfi_endproc
 136              	.LFE57:
 138              		.align	2
 139              		.globl	_ZN5RiscV18executePutcSyscallEv
 141              	_ZN5RiscV18executePutcSyscallEv:
 142              	.LFB64:
 355:src/kernel/riscv.cpp **** 
 356:src/kernel/riscv.cpp **** void RiscV::executeSemOpenSyscall() {
 357:src/kernel/riscv.cpp **** 
 358:src/kernel/riscv.cpp ****     //fetch the arguments from a0-a7 registers
 359:src/kernel/riscv.cpp ****     uint64 ihandle, iinit;
 360:src/kernel/riscv.cpp **** 
 361:src/kernel/riscv.cpp ****     asm("mv %[ihandle], a1" : [ihandle] "=r"(ihandle));
 362:src/kernel/riscv.cpp ****     asm("mv %[iinit], a2" : [iinit] "=r"(iinit));
 363:src/kernel/riscv.cpp **** 
 364:src/kernel/riscv.cpp ****     //create new Semaphore Control Block and write it into ihandle if not null
 365:src/kernel/riscv.cpp ****     SCB *scb = new SCB(iinit);
 366:src/kernel/riscv.cpp **** 
 367:src/kernel/riscv.cpp ****     uint64 status = 0;
 368:src/kernel/riscv.cpp **** 
 369:src/kernel/riscv.cpp ****     if(scb == nullptr){
 370:src/kernel/riscv.cpp ****         status = -1;
 371:src/kernel/riscv.cpp ****     }
 372:src/kernel/riscv.cpp ****     else{
 373:src/kernel/riscv.cpp ****         *((SCB**)ihandle) = scb;
 374:src/kernel/riscv.cpp ****     }
GAS LISTING /tmp/ccP6cCkB.s 			page 10


 375:src/kernel/riscv.cpp **** 
 376:src/kernel/riscv.cpp ****     //return status
 377:src/kernel/riscv.cpp ****     asm("mv a0, %[status]" : : [status] "r" (status));
 378:src/kernel/riscv.cpp **** 
 379:src/kernel/riscv.cpp ****     RiscV::saveA0toSscratch();
 380:src/kernel/riscv.cpp **** 
 381:src/kernel/riscv.cpp **** }
 382:src/kernel/riscv.cpp **** 
 383:src/kernel/riscv.cpp **** void RiscV::executeSemCloseSyscall() {
 384:src/kernel/riscv.cpp **** 
 385:src/kernel/riscv.cpp ****     //fetch the arguments from a0-a7 registers
 386:src/kernel/riscv.cpp ****     uint64 ihandle;
 387:src/kernel/riscv.cpp **** 
 388:src/kernel/riscv.cpp ****     asm("mv %[ihandle], a1" : [ihandle] "=r"(ihandle));
 389:src/kernel/riscv.cpp **** 
 390:src/kernel/riscv.cpp ****     //delete scb if not null
 391:src/kernel/riscv.cpp ****     SCB *scb = (SCB*)ihandle;
 392:src/kernel/riscv.cpp ****     uint64 status = 0;
 393:src/kernel/riscv.cpp **** 
 394:src/kernel/riscv.cpp ****     if(scb == nullptr){
 395:src/kernel/riscv.cpp ****         status = -1;
 396:src/kernel/riscv.cpp ****     }
 397:src/kernel/riscv.cpp ****     else
 398:src/kernel/riscv.cpp ****         delete (SCB*)ihandle;
 399:src/kernel/riscv.cpp **** 
 400:src/kernel/riscv.cpp ****     //return status
 401:src/kernel/riscv.cpp ****     asm("mv a0, %[status]" : : [status] "r" (status));
 402:src/kernel/riscv.cpp **** 
 403:src/kernel/riscv.cpp ****     RiscV::saveA0toSscratch();
 404:src/kernel/riscv.cpp **** }
 405:src/kernel/riscv.cpp **** 
 406:src/kernel/riscv.cpp **** void RiscV::executeSemWaitSyscall() {
 407:src/kernel/riscv.cpp **** 
 408:src/kernel/riscv.cpp ****     //fetch the arguments from a0-a7 registers
 409:src/kernel/riscv.cpp ****     uint64 ihandle;
 410:src/kernel/riscv.cpp **** 
 411:src/kernel/riscv.cpp ****     asm("mv %[ihandle], a1" : [ihandle] "=r"(ihandle));
 412:src/kernel/riscv.cpp **** 
 413:src/kernel/riscv.cpp ****     uint64 status = 0;
 414:src/kernel/riscv.cpp ****     //call wait method on ihandle scb
 415:src/kernel/riscv.cpp **** 
 416:src/kernel/riscv.cpp ****     if(((SCB*)ihandle) != nullptr)
 417:src/kernel/riscv.cpp ****         ((SCB*)ihandle)->wait();
 418:src/kernel/riscv.cpp ****     else
 419:src/kernel/riscv.cpp ****         status = -1;
 420:src/kernel/riscv.cpp **** 
 421:src/kernel/riscv.cpp ****     if(TCB::running->semError != nullptr)
 422:src/kernel/riscv.cpp ****         status = -1;
 423:src/kernel/riscv.cpp ****     else
 424:src/kernel/riscv.cpp ****         status = 0;
 425:src/kernel/riscv.cpp **** 
 426:src/kernel/riscv.cpp ****     //return status
 427:src/kernel/riscv.cpp ****     asm("mv a0, %[status]" : : [status] "r" (status));
 428:src/kernel/riscv.cpp **** 
 429:src/kernel/riscv.cpp ****     RiscV::saveA0toSscratch();
 430:src/kernel/riscv.cpp **** 
 431:src/kernel/riscv.cpp **** }
GAS LISTING /tmp/ccP6cCkB.s 			page 11


 432:src/kernel/riscv.cpp **** 
 433:src/kernel/riscv.cpp **** void RiscV::executeSemSignalSyscall() {
 434:src/kernel/riscv.cpp **** 
 435:src/kernel/riscv.cpp ****     //fetch the arguments from a0-a7 registers
 436:src/kernel/riscv.cpp ****     uint64 ihandle;
 437:src/kernel/riscv.cpp **** 
 438:src/kernel/riscv.cpp ****     asm("mv %[ihandle], a1" : [ihandle] "=r"(ihandle));
 439:src/kernel/riscv.cpp **** 
 440:src/kernel/riscv.cpp ****     //call signal method on ihandle scb
 441:src/kernel/riscv.cpp **** 
 442:src/kernel/riscv.cpp ****     uint64 status = 0;
 443:src/kernel/riscv.cpp **** 
 444:src/kernel/riscv.cpp ****     if(((SCB*)ihandle) != nullptr)
 445:src/kernel/riscv.cpp ****         ((SCB*)ihandle)->signal();
 446:src/kernel/riscv.cpp ****     else
 447:src/kernel/riscv.cpp ****         status = -1;
 448:src/kernel/riscv.cpp **** 
 449:src/kernel/riscv.cpp ****     //return status
 450:src/kernel/riscv.cpp ****     asm("mv a0, %[status]" : : [status] "r" (status));
 451:src/kernel/riscv.cpp **** 
 452:src/kernel/riscv.cpp ****     RiscV::saveA0toSscratch();
 453:src/kernel/riscv.cpp **** }
 454:src/kernel/riscv.cpp **** 
 455:src/kernel/riscv.cpp **** void RiscV::executeTimeSleepSyscall() {
 456:src/kernel/riscv.cpp **** 
 457:src/kernel/riscv.cpp ****     //fetch the arguments from a0-a7 registers
 458:src/kernel/riscv.cpp ****     uint64 itime;
 459:src/kernel/riscv.cpp **** 
 460:src/kernel/riscv.cpp ****     asm("mv %[itime], a1" : [itime] "=r"(itime));
 461:src/kernel/riscv.cpp **** 
 462:src/kernel/riscv.cpp ****     //calculate wake time for running thread and put it to sleep
 463:src/kernel/riscv.cpp ****     //fetch new running with dispatch
 464:src/kernel/riscv.cpp ****     TCB* tcb = TCB::running;
 465:src/kernel/riscv.cpp ****     tcb->sleepTime = globalTime;
 466:src/kernel/riscv.cpp ****     tcb->wakeTime = globalTime + itime;
 467:src/kernel/riscv.cpp **** 
 468:src/kernel/riscv.cpp ****     Scheduler::sleep(tcb);
 469:src/kernel/riscv.cpp **** 
 470:src/kernel/riscv.cpp ****     tcb->status = TCB::Status::BLOCKED;
 471:src/kernel/riscv.cpp **** 
 472:src/kernel/riscv.cpp ****     TCB::dispatch();
 473:src/kernel/riscv.cpp **** 
 474:src/kernel/riscv.cpp ****     uint64 status = 0;
 475:src/kernel/riscv.cpp **** 
 476:src/kernel/riscv.cpp ****     //return status
 477:src/kernel/riscv.cpp ****     asm("mv a0, %[status]" : : [status] "r" (status));
 478:src/kernel/riscv.cpp **** 
 479:src/kernel/riscv.cpp ****     RiscV::saveA0toSscratch();
 480:src/kernel/riscv.cpp **** }
 481:src/kernel/riscv.cpp **** 
 482:src/kernel/riscv.cpp **** void RiscV::executeGetcSyscall() {
 483:src/kernel/riscv.cpp **** 
 484:src/kernel/riscv.cpp ****     //register a pending getc call
 485:src/kernel/riscv.cpp ****     if(!userMainFinished)
 486:src/kernel/riscv.cpp ****         ConsoleUtil::pendingGetc++;
 487:src/kernel/riscv.cpp **** 
 488:src/kernel/riscv.cpp ****     //get character from input buffer
GAS LISTING /tmp/ccP6cCkB.s 			page 12


 489:src/kernel/riscv.cpp ****     char c = ConsoleUtil::getInput();
 490:src/kernel/riscv.cpp **** 
 491:src/kernel/riscv.cpp ****     //if char == \n echo it as LF and CR
 492:src/kernel/riscv.cpp ****     if(c==13) {
 493:src/kernel/riscv.cpp ****         ConsoleUtil::putOutput(13);
 494:src/kernel/riscv.cpp ****         ConsoleUtil::putOutput(10);
 495:src/kernel/riscv.cpp ****     }
 496:src/kernel/riscv.cpp ****     //if not ESC character, echo it to console
 497:src/kernel/riscv.cpp ****     else if(c!=0x01b)
 498:src/kernel/riscv.cpp ****         ConsoleUtil::putOutput(c);
 499:src/kernel/riscv.cpp **** 
 500:src/kernel/riscv.cpp ****     //return character
 501:src/kernel/riscv.cpp ****     asm("mv a0, %[c]" : : [c] "r" (c));
 502:src/kernel/riscv.cpp **** 
 503:src/kernel/riscv.cpp ****     RiscV::saveA0toSscratch();
 504:src/kernel/riscv.cpp **** }
 505:src/kernel/riscv.cpp **** 
 506:src/kernel/riscv.cpp **** void RiscV::executePutcSyscall() {
 143              		.loc 1 506 34 is_stmt 1
 144              		.cfi_startproc
 145 00a0 130101FF 		addi	sp,sp,-16
 146              		.cfi_def_cfa_offset 16
 147 00a4 23341100 		sd	ra,8(sp)
 148 00a8 23308100 		sd	s0,0(sp)
 149              		.cfi_offset 1, -8
 150              		.cfi_offset 8, -16
 151 00ac 13040101 		addi	s0,sp,16
 152              		.cfi_def_cfa 8, 0
 507:src/kernel/riscv.cpp **** 
 508:src/kernel/riscv.cpp ****     //register a pending putc call
 509:src/kernel/riscv.cpp ****     if(!userMainFinished)
 153              		.loc 1 509 5
 154              		.loc 1 509 8 is_stmt 0
 155 00b0 97070000 		lbu	a5,.LANCHOR0
 155      83C70700 
 156              		.loc 1 509 5
 157 00b8 639C0700 		bnez	a5,.L8
 510:src/kernel/riscv.cpp ****         ConsoleUtil::pendingPutc++;
 158              		.loc 1 510 9 is_stmt 1
 159              		.loc 1 510 33 is_stmt 0
 160 00bc 17070000 		la	a4,_ZN11ConsoleUtil11pendingPutcE
 160      03370700 
 161 00c4 83370700 		ld	a5,0(a4)
 162 00c8 93871700 		addi	a5,a5,1
 163 00cc 2330F700 		sd	a5,0(a4)
 164              	.L8:
 511:src/kernel/riscv.cpp **** 
 512:src/kernel/riscv.cpp ****     char c;
 165              		.loc 1 512 5 is_stmt 1
 513:src/kernel/riscv.cpp **** 
 514:src/kernel/riscv.cpp ****     asm("mv %[c], a1" : [c] "=r"(c));
 166              		.loc 1 514 5
 167              		.loc 1 514 37 is_stmt 0
 168              	#APP
 169              	# 514 "src/kernel/riscv.cpp" 1
 515              	
 170              		mv a0, a1
GAS LISTING /tmp/ccP6cCkB.s 			page 13


 171              	# 0 "" 2
 172              	.LVL2:
 516:src/kernel/riscv.cpp ****     //put character in output buffer
 517:src/kernel/riscv.cpp ****     ConsoleUtil::putOutput(c);
 173              		.loc 1 517 5 is_stmt 1
 174              		.loc 1 517 27 is_stmt 0
 175              	#NO_APP
 176 00d4 1375F50F 		andi	a0,a0,0xff
 177 00d8 97000000 		call	_ZN11ConsoleUtil9putOutputEc@plt
 177      E7800000 
 178              	.LVL3:
 518:src/kernel/riscv.cpp **** }
 179              		.loc 1 518 1
 180 00e0 83308100 		ld	ra,8(sp)
 181              		.cfi_restore 1
 182 00e4 03340100 		ld	s0,0(sp)
 183              		.cfi_restore 8
 184              		.cfi_def_cfa 2, 16
 185 00e8 13010101 		addi	sp,sp,16
 186              		.cfi_def_cfa_offset 0
 187 00ec 67800000 		jr	ra
 188              		.cfi_endproc
 189              	.LFE64:
 191              		.align	2
 192              		.globl	_ZN5RiscV29jumpToDesignatedPrivilegeModeEv
 194              	_ZN5RiscV29jumpToDesignatedPrivilegeModeEv:
 195              	.LFB67:
 519:src/kernel/riscv.cpp **** 
 520:src/kernel/riscv.cpp **** //wrapper function for putcThread
 521:src/kernel/riscv.cpp **** //spins in a while loop and checks whether console is ready to take output
 522:src/kernel/riscv.cpp **** //if ready read data from output buffer
 523:src/kernel/riscv.cpp **** void RiscV::putcWrapper(void* arg)
 524:src/kernel/riscv.cpp **** {
 525:src/kernel/riscv.cpp ****     while(true)
 526:src/kernel/riscv.cpp ****     {
 527:src/kernel/riscv.cpp ****         //read console status from status register
 528:src/kernel/riscv.cpp ****         uint64 status = CONSOLE_STATUS;
 529:src/kernel/riscv.cpp ****         asm("mv a0, %[status]" : : [status] "r" (status));
 530:src/kernel/riscv.cpp ****         asm("lb a1, 0(a0)");
 531:src/kernel/riscv.cpp ****         asm("mv %[status], a1" : [status] "=r" (status));
 532:src/kernel/riscv.cpp **** 
 533:src/kernel/riscv.cpp ****         //if console ready..
 534:src/kernel/riscv.cpp ****         if(status & 1UL<<5){
 535:src/kernel/riscv.cpp **** 
 536:src/kernel/riscv.cpp ****             //get character from output buffer with possible block if nothing in buffer
 537:src/kernel/riscv.cpp ****                 char volatile c = ConsoleUtil::putcUtilSyscall();
 538:src/kernel/riscv.cpp ****                 uint64 data = CONSOLE_RX_DATA;
 539:src/kernel/riscv.cpp ****                 asm("mv a0, %[data]" : : [data] "r"(data));
 540:src/kernel/riscv.cpp ****                 asm("mv a1, %[c]" : : [c] "r"(c));
 541:src/kernel/riscv.cpp ****                 asm("sb a1,0(a0)");
 542:src/kernel/riscv.cpp **** 
 543:src/kernel/riscv.cpp ****             //decrement number of pending putc requests
 544:src/kernel/riscv.cpp ****             if(ConsoleUtil::pendingPutc>0)
 545:src/kernel/riscv.cpp ****                 ConsoleUtil::pendingPutc--;
 546:src/kernel/riscv.cpp ****         }
 547:src/kernel/riscv.cpp ****         else
 548:src/kernel/riscv.cpp ****             RiscV::threadDispatchUtil();
GAS LISTING /tmp/ccP6cCkB.s 			page 14


 549:src/kernel/riscv.cpp ****     }
 550:src/kernel/riscv.cpp **** }
 551:src/kernel/riscv.cpp **** 
 552:src/kernel/riscv.cpp **** //utility syscall to get character from output buffer
 553:src/kernel/riscv.cpp **** //syscall is needed because we don't want to fiddle with kernel structures from anywhere but the tr
 554:src/kernel/riscv.cpp **** void RiscV::executePutcUtilSyscall() {
 555:src/kernel/riscv.cpp ****     char c = ConsoleUtil::getOutput();
 556:src/kernel/riscv.cpp ****     asm("mv a0, %[c]" : : [c] "r" ((uint64)(c)) );
 557:src/kernel/riscv.cpp **** 
 558:src/kernel/riscv.cpp ****     RiscV::saveA0toSscratch();
 559:src/kernel/riscv.cpp **** }
 560:src/kernel/riscv.cpp **** 
 561:src/kernel/riscv.cpp **** //return to privilege that was given at creation
 562:src/kernel/riscv.cpp **** void RiscV::jumpToDesignatedPrivilegeMode() {
 196              		.loc 1 562 45 is_stmt 1
 197              		.cfi_startproc
 198 00f0 130101FF 		addi	sp,sp,-16
 199              		.cfi_def_cfa_offset 16
 200 00f4 23348100 		sd	s0,8(sp)
 201              		.cfi_offset 8, -8
 202 00f8 13040101 		addi	s0,sp,16
 203              		.cfi_def_cfa 8, 0
 563:src/kernel/riscv.cpp ****     if(TCB::running->mode == TCB::Mode::SUPERVISOR) {
 204              		.loc 1 563 5
 205              		.loc 1 563 22 is_stmt 0
 206 00fc 97070000 		la	a5,_ZN3TCB7runningE
 206      83B70700 
 207 0104 83B70700 		ld	a5,0(a5)
 208 0108 03A74701 		lw	a4,20(a5)
 209              		.loc 1 563 5
 210 010c 93071000 		li	a5,1
 211 0110 630CF700 		beq	a4,a5,.L14
 564:src/kernel/riscv.cpp ****         RiscV::ms_sstatus(RiscV::SSTATUS_SPP);
 565:src/kernel/riscv.cpp ****     }
 566:src/kernel/riscv.cpp ****     else {
 567:src/kernel/riscv.cpp ****         RiscV::mc_sstatus(RiscV::SSTATUS_SPP);
 212              		.loc 1 567 9 is_stmt 1
 213              	.LVL4:
 214              	.LBB109:
 215              	.LBB110:
 216              		.file 2 "src/kernel/../../h/kernel/riscv.hpp"
   1:src/kernel/../../h/kernel/riscv.hpp **** //
   2:src/kernel/../../h/kernel/riscv.hpp **** // Created by os on 4/28/22.
   3:src/kernel/../../h/kernel/riscv.hpp **** //
   4:src/kernel/../../h/kernel/riscv.hpp **** 
   5:src/kernel/../../h/kernel/riscv.hpp **** #ifndef OS1_KERNEL_RISCV_HPP
   6:src/kernel/../../h/kernel/riscv.hpp **** #define OS1_KERNEL_RISCV_HPP
   7:src/kernel/../../h/kernel/riscv.hpp **** #include "../../lib/hw.h"
   8:src/kernel/../../h/kernel/riscv.hpp **** class TCB;
   9:src/kernel/../../h/kernel/riscv.hpp **** class SlabAllocator;
  10:src/kernel/../../h/kernel/riscv.hpp **** 
  11:src/kernel/../../h/kernel/riscv.hpp **** class RiscV{
  12:src/kernel/../../h/kernel/riscv.hpp **** 
  13:src/kernel/../../h/kernel/riscv.hpp ****     static uint64 globalTime;
  14:src/kernel/../../h/kernel/riscv.hpp **** 
  15:src/kernel/../../h/kernel/riscv.hpp ****     static void* kPMT;
  16:src/kernel/../../h/kernel/riscv.hpp ****     static void* uPMT;
GAS LISTING /tmp/ccP6cCkB.s 			page 15


  17:src/kernel/../../h/kernel/riscv.hpp **** 
  18:src/kernel/../../h/kernel/riscv.hpp ****     static bool initialized;
  19:src/kernel/../../h/kernel/riscv.hpp **** 
  20:src/kernel/../../h/kernel/riscv.hpp ****     static bool userMainFinished;
  21:src/kernel/../../h/kernel/riscv.hpp **** 
  22:src/kernel/../../h/kernel/riscv.hpp ****     enum BitMaskSstatus{
  23:src/kernel/../../h/kernel/riscv.hpp ****         SSTATUS_SIE = (1<<1),
  24:src/kernel/../../h/kernel/riscv.hpp ****         SSTATUS_SPIE = (1<<5),
  25:src/kernel/../../h/kernel/riscv.hpp ****         SSTATUS_SPP = (1<<8),
  26:src/kernel/../../h/kernel/riscv.hpp ****     };
  27:src/kernel/../../h/kernel/riscv.hpp **** 
  28:src/kernel/../../h/kernel/riscv.hpp ****     enum BitMaskSip{
  29:src/kernel/../../h/kernel/riscv.hpp ****         SIP_SSIE = (1<<1),
  30:src/kernel/../../h/kernel/riscv.hpp ****         SIP_STIE = (1<<5),
  31:src/kernel/../../h/kernel/riscv.hpp ****         SIP_SEIE = (1<<9),
  32:src/kernel/../../h/kernel/riscv.hpp ****     };
  33:src/kernel/../../h/kernel/riscv.hpp **** 
  34:src/kernel/../../h/kernel/riscv.hpp ****     static void executeMemAllocSyscall();   //wrapper function for moving parameters and calling Me
  35:src/kernel/../../h/kernel/riscv.hpp **** 
  36:src/kernel/../../h/kernel/riscv.hpp ****     static void executeMemFreeSyscall();    //wrapper function for moving parameters and calling Me
  37:src/kernel/../../h/kernel/riscv.hpp **** 
  38:src/kernel/../../h/kernel/riscv.hpp ****     static void executeThreadCreateSyscall();
  39:src/kernel/../../h/kernel/riscv.hpp **** 
  40:src/kernel/../../h/kernel/riscv.hpp ****     static void executeThreadExitSyscall();
  41:src/kernel/../../h/kernel/riscv.hpp **** 
  42:src/kernel/../../h/kernel/riscv.hpp ****     static void executeThreadDispatchSyscall();
  43:src/kernel/../../h/kernel/riscv.hpp **** 
  44:src/kernel/../../h/kernel/riscv.hpp ****     static void executeThreadAttachBodySyscall();
  45:src/kernel/../../h/kernel/riscv.hpp **** 
  46:src/kernel/../../h/kernel/riscv.hpp ****     static void executeThreadStartSyscall();
  47:src/kernel/../../h/kernel/riscv.hpp **** 
  48:src/kernel/../../h/kernel/riscv.hpp ****     static void executeSemOpenSyscall();
  49:src/kernel/../../h/kernel/riscv.hpp **** 
  50:src/kernel/../../h/kernel/riscv.hpp ****     static void executeSemCloseSyscall();
  51:src/kernel/../../h/kernel/riscv.hpp **** 
  52:src/kernel/../../h/kernel/riscv.hpp ****     static void executeSemWaitSyscall();
  53:src/kernel/../../h/kernel/riscv.hpp **** 
  54:src/kernel/../../h/kernel/riscv.hpp ****     static void executeSemSignalSyscall();
  55:src/kernel/../../h/kernel/riscv.hpp **** 
  56:src/kernel/../../h/kernel/riscv.hpp ****     static void executeTimeSleepSyscall();
  57:src/kernel/../../h/kernel/riscv.hpp **** 
  58:src/kernel/../../h/kernel/riscv.hpp ****     static void executeGetcSyscall();
  59:src/kernel/../../h/kernel/riscv.hpp **** 
  60:src/kernel/../../h/kernel/riscv.hpp ****     static void executePutcSyscall();
  61:src/kernel/../../h/kernel/riscv.hpp **** 
  62:src/kernel/../../h/kernel/riscv.hpp ****     static void executePutcUtilSyscall();
  63:src/kernel/../../h/kernel/riscv.hpp **** 
  64:src/kernel/../../h/kernel/riscv.hpp ****     static void executeThreadFreeSyscall();
  65:src/kernel/../../h/kernel/riscv.hpp **** 
  66:src/kernel/../../h/kernel/riscv.hpp ****     static void executeSemaphoreFreeSyscall();
  67:src/kernel/../../h/kernel/riscv.hpp **** 
  68:src/kernel/../../h/kernel/riscv.hpp ****     static void executeForkSyscall();
  69:src/kernel/../../h/kernel/riscv.hpp **** 
  70:src/kernel/../../h/kernel/riscv.hpp ****     static void putcWrapper(void *arg);
  71:src/kernel/../../h/kernel/riscv.hpp **** 
  72:src/kernel/../../h/kernel/riscv.hpp ****     static void threadCreateUtil(TCB** handle, void(*start_routine)(void*), void *arg);
  73:src/kernel/../../h/kernel/riscv.hpp **** 
GAS LISTING /tmp/ccP6cCkB.s 			page 16


  74:src/kernel/../../h/kernel/riscv.hpp ****     static void threadExitUtil();
  75:src/kernel/../../h/kernel/riscv.hpp **** 
  76:src/kernel/../../h/kernel/riscv.hpp ****     static void threadDispatchUtil();
  77:src/kernel/../../h/kernel/riscv.hpp **** 
  78:src/kernel/../../h/kernel/riscv.hpp ****     static uint64 r_scause();
  79:src/kernel/../../h/kernel/riscv.hpp **** 
  80:src/kernel/../../h/kernel/riscv.hpp ****     static void w_scause(uint64 scause);
  81:src/kernel/../../h/kernel/riscv.hpp **** 
  82:src/kernel/../../h/kernel/riscv.hpp ****     static uint64 r_sepc();
  83:src/kernel/../../h/kernel/riscv.hpp **** 
  84:src/kernel/../../h/kernel/riscv.hpp ****     static void w_sepc(uint64 sepc);
  85:src/kernel/../../h/kernel/riscv.hpp **** 
  86:src/kernel/../../h/kernel/riscv.hpp ****     static uint64 r_stvec();
  87:src/kernel/../../h/kernel/riscv.hpp **** 
  88:src/kernel/../../h/kernel/riscv.hpp ****     static void w_stvec(uint64 stvec);
  89:src/kernel/../../h/kernel/riscv.hpp **** 
  90:src/kernel/../../h/kernel/riscv.hpp ****     static uint64 r_sstatus();
  91:src/kernel/../../h/kernel/riscv.hpp **** 
  92:src/kernel/../../h/kernel/riscv.hpp ****     static void w_sstatus(uint64 sstatus);
  93:src/kernel/../../h/kernel/riscv.hpp **** 
  94:src/kernel/../../h/kernel/riscv.hpp ****     static void ms_sstatus(uint64 mask);
  95:src/kernel/../../h/kernel/riscv.hpp **** 
  96:src/kernel/../../h/kernel/riscv.hpp ****     static void mc_sstatus(uint64 mask);
  97:src/kernel/../../h/kernel/riscv.hpp **** 
  98:src/kernel/../../h/kernel/riscv.hpp ****     static void ms_sip(uint64 mask);
  99:src/kernel/../../h/kernel/riscv.hpp **** 
 100:src/kernel/../../h/kernel/riscv.hpp ****     static void mc_sip(uint64 mask);
 101:src/kernel/../../h/kernel/riscv.hpp **** 
 102:src/kernel/../../h/kernel/riscv.hpp ****     static void ms_sie(uint64 mask);
 103:src/kernel/../../h/kernel/riscv.hpp **** 
 104:src/kernel/../../h/kernel/riscv.hpp ****     static void mc_sie(uint64 mask);
 105:src/kernel/../../h/kernel/riscv.hpp **** 
 106:src/kernel/../../h/kernel/riscv.hpp ****     static uint64 getPMT2Entry(uint64 addr);
 107:src/kernel/../../h/kernel/riscv.hpp **** 
 108:src/kernel/../../h/kernel/riscv.hpp ****     static uint64 getPMT1Entry(uint64 addr);
 109:src/kernel/../../h/kernel/riscv.hpp **** 
 110:src/kernel/../../h/kernel/riscv.hpp ****     static uint64 getPMT0Entry(uint64 addr);
 111:src/kernel/../../h/kernel/riscv.hpp **** 
 112:src/kernel/../../h/kernel/riscv.hpp ****     static void startVirtualMemory(void *PMT);
 113:src/kernel/../../h/kernel/riscv.hpp ****     static void shutVirtualMemory();
 114:src/kernel/../../h/kernel/riscv.hpp **** 
 115:src/kernel/../../h/kernel/riscv.hpp ****     static void saveA0toSscratch();
 116:src/kernel/../../h/kernel/riscv.hpp **** 
 117:src/kernel/../../h/kernel/riscv.hpp ****     static void jumpToDesignatedPrivilegeMode();
 118:src/kernel/../../h/kernel/riscv.hpp **** 
 119:src/kernel/../../h/kernel/riscv.hpp ****     static void popSppSpieSystem();
 120:src/kernel/../../h/kernel/riscv.hpp **** 
 121:src/kernel/../../h/kernel/riscv.hpp ****     static void popSppSpieUser();
 122:src/kernel/../../h/kernel/riscv.hpp **** 
 123:src/kernel/../../h/kernel/riscv.hpp ****     static void getPC();
 124:src/kernel/../../h/kernel/riscv.hpp **** 
 125:src/kernel/../../h/kernel/riscv.hpp ****     static void supervisorTrap();      //supervisorTrap defined in /src/supervisorTrap.S
 126:src/kernel/../../h/kernel/riscv.hpp **** 
 127:src/kernel/../../h/kernel/riscv.hpp ****     static void handleSupervisorTrap();
 128:src/kernel/../../h/kernel/riscv.hpp **** 
 129:src/kernel/../../h/kernel/riscv.hpp ****     static void enableInterrupts();
 130:src/kernel/../../h/kernel/riscv.hpp **** 
GAS LISTING /tmp/ccP6cCkB.s 			page 17


 131:src/kernel/../../h/kernel/riscv.hpp ****     static void disableInterrupts();
 132:src/kernel/../../h/kernel/riscv.hpp **** 
 133:src/kernel/../../h/kernel/riscv.hpp ****     static void enableHardwareInterrupts();
 134:src/kernel/../../h/kernel/riscv.hpp **** 
 135:src/kernel/../../h/kernel/riscv.hpp ****     static void disableHardwareInterrupts();
 136:src/kernel/../../h/kernel/riscv.hpp **** 
 137:src/kernel/../../h/kernel/riscv.hpp ****     static void enableTimerInterrupts();
 138:src/kernel/../../h/kernel/riscv.hpp **** 
 139:src/kernel/../../h/kernel/riscv.hpp ****     static void disableTimerInterrupts();
 140:src/kernel/../../h/kernel/riscv.hpp **** 
 141:src/kernel/../../h/kernel/riscv.hpp ****     static void handlePageFault(void* PMT,uint64 addr, uint64 mask);
 142:src/kernel/../../h/kernel/riscv.hpp **** 
 143:src/kernel/../../h/kernel/riscv.hpp ****     static void initialize();
 144:src/kernel/../../h/kernel/riscv.hpp **** 
 145:src/kernel/../../h/kernel/riscv.hpp ****     static void finalize();
 146:src/kernel/../../h/kernel/riscv.hpp **** 
 147:src/kernel/../../h/kernel/riscv.hpp ****     static void* getPMT();
 148:src/kernel/../../h/kernel/riscv.hpp **** 
 149:src/kernel/../../h/kernel/riscv.hpp ****     static void buildSection(void* PMT, uint64 start, uint64 end, uint64 mask);
 150:src/kernel/../../h/kernel/riscv.hpp **** 
 151:src/kernel/../../h/kernel/riscv.hpp ****     static void buildKernelPMT();
 152:src/kernel/../../h/kernel/riscv.hpp **** 
 153:src/kernel/../../h/kernel/riscv.hpp ****     static void buildUserPMT();
 154:src/kernel/../../h/kernel/riscv.hpp **** 
 155:src/kernel/../../h/kernel/riscv.hpp ****     static void mapConsoleRegisters(void *PMT);
 156:src/kernel/../../h/kernel/riscv.hpp **** 
 157:src/kernel/../../h/kernel/riscv.hpp ****     friend class TCB;
 158:src/kernel/../../h/kernel/riscv.hpp **** 
 159:src/kernel/../../h/kernel/riscv.hpp ****     friend class System;
 160:src/kernel/../../h/kernel/riscv.hpp **** 
 161:src/kernel/../../h/kernel/riscv.hpp ****     friend class Scheduler;
 162:src/kernel/../../h/kernel/riscv.hpp **** 
 163:src/kernel/../../h/kernel/riscv.hpp ****     friend class ConsoleUtil;
 164:src/kernel/../../h/kernel/riscv.hpp **** 
 165:src/kernel/../../h/kernel/riscv.hpp ****     friend class SlabAllocator;
 166:src/kernel/../../h/kernel/riscv.hpp **** };
 167:src/kernel/../../h/kernel/riscv.hpp **** 
 168:src/kernel/../../h/kernel/riscv.hpp **** inline uint64 RiscV::r_scause(){
 169:src/kernel/../../h/kernel/riscv.hpp ****     uint64 volatile scause;
 170:src/kernel/../../h/kernel/riscv.hpp ****     asm("csrr %[scause], scause" : [scause] "=r" (scause));
 171:src/kernel/../../h/kernel/riscv.hpp ****     return scause;
 172:src/kernel/../../h/kernel/riscv.hpp **** }
 173:src/kernel/../../h/kernel/riscv.hpp **** 
 174:src/kernel/../../h/kernel/riscv.hpp **** inline void RiscV::w_scause(uint64 scause){
 175:src/kernel/../../h/kernel/riscv.hpp ****     asm("csrw scause, %[scause]" : : [scause] "r" (scause));
 176:src/kernel/../../h/kernel/riscv.hpp **** }
 177:src/kernel/../../h/kernel/riscv.hpp **** 
 178:src/kernel/../../h/kernel/riscv.hpp **** inline uint64 RiscV::r_sepc(){
 179:src/kernel/../../h/kernel/riscv.hpp ****     uint64 sepc;
 180:src/kernel/../../h/kernel/riscv.hpp ****     asm("csrr %[sepc], sepc" : [sepc] "=r" (sepc));
 181:src/kernel/../../h/kernel/riscv.hpp ****     return sepc;
 182:src/kernel/../../h/kernel/riscv.hpp **** }
 183:src/kernel/../../h/kernel/riscv.hpp **** 
 184:src/kernel/../../h/kernel/riscv.hpp **** inline void RiscV::w_sepc(uint64 sepc){
 185:src/kernel/../../h/kernel/riscv.hpp ****     asm("csrw sepc, %[sepc]" : : [sepc] "r" (sepc));
 186:src/kernel/../../h/kernel/riscv.hpp **** }
 187:src/kernel/../../h/kernel/riscv.hpp **** 
GAS LISTING /tmp/ccP6cCkB.s 			page 18


 188:src/kernel/../../h/kernel/riscv.hpp **** inline uint64 RiscV::r_stvec(){
 189:src/kernel/../../h/kernel/riscv.hpp ****     uint64 stvec;
 190:src/kernel/../../h/kernel/riscv.hpp ****     asm("csrr %[stvec], stvec" : [stvec] "=r" (stvec));
 191:src/kernel/../../h/kernel/riscv.hpp ****     return stvec;
 192:src/kernel/../../h/kernel/riscv.hpp **** }
 193:src/kernel/../../h/kernel/riscv.hpp **** 
 194:src/kernel/../../h/kernel/riscv.hpp **** inline void RiscV::w_sstatus(uint64 sstatus){
 195:src/kernel/../../h/kernel/riscv.hpp ****     asm("csrw sstatus, %[sstatus]" : : [sstatus] "r" (sstatus));
 196:src/kernel/../../h/kernel/riscv.hpp **** }
 197:src/kernel/../../h/kernel/riscv.hpp **** 
 198:src/kernel/../../h/kernel/riscv.hpp **** inline uint64 RiscV::r_sstatus(){
 199:src/kernel/../../h/kernel/riscv.hpp ****     uint64 sstatus;
 200:src/kernel/../../h/kernel/riscv.hpp ****     asm("csrr %[sstatus], sstatus" : [sstatus] "=r" (sstatus));
 201:src/kernel/../../h/kernel/riscv.hpp ****     return sstatus;
 202:src/kernel/../../h/kernel/riscv.hpp **** }
 203:src/kernel/../../h/kernel/riscv.hpp **** 
 204:src/kernel/../../h/kernel/riscv.hpp **** inline void RiscV::w_stvec(uint64 stvec){
 205:src/kernel/../../h/kernel/riscv.hpp ****     asm("csrw stvec, %[stvec]" : : [stvec] "r" (stvec));
 206:src/kernel/../../h/kernel/riscv.hpp **** }
 207:src/kernel/../../h/kernel/riscv.hpp **** 
 208:src/kernel/../../h/kernel/riscv.hpp **** inline void  RiscV::ms_sstatus(uint64 mask) {
 209:src/kernel/../../h/kernel/riscv.hpp ****     asm("csrs sstatus, %[mask]" : : [mask] "r" (mask));
 210:src/kernel/../../h/kernel/riscv.hpp **** }
 211:src/kernel/../../h/kernel/riscv.hpp **** 
 212:src/kernel/../../h/kernel/riscv.hpp **** inline void  RiscV::mc_sstatus(uint64 mask) {
 213:src/kernel/../../h/kernel/riscv.hpp ****     asm("csrc sstatus, %[mask]" : : [mask] "r" (mask));
 217              		.loc 2 213 5
 218              		.loc 2 213 55 is_stmt 0
 219 0114 93070010 		li	a5,256
 220              	#APP
 221              	# 213 "src/kernel/../../h/kernel/riscv.hpp" 1
 214              	}
 222              		csrc sstatus, a5
 223              	# 0 "" 2
 224              	.LVL5:
 225              	#NO_APP
 226              	.L10:
 227              	.LBE110:
 228              	.LBE109:
 568:src/kernel/riscv.cpp ****     }
 569:src/kernel/riscv.cpp **** }
 229              		.loc 1 569 1
 230 011c 03348100 		ld	s0,8(sp)
 231              		.cfi_remember_state
 232              		.cfi_restore 8
 233              		.cfi_def_cfa 2, 16
 234 0120 13010101 		addi	sp,sp,16
 235              		.cfi_def_cfa_offset 0
 236 0124 67800000 		jr	ra
 237              	.L14:
 238              		.cfi_restore_state
 564:src/kernel/riscv.cpp ****     }
 239              		.loc 1 564 9 is_stmt 1
 240              	.LVL6:
 241              	.LBB111:
 242              	.LBB112:
 209:src/kernel/../../h/kernel/riscv.hpp **** }
GAS LISTING /tmp/ccP6cCkB.s 			page 19


 243              		.loc 2 209 5
 209:src/kernel/../../h/kernel/riscv.hpp **** }
 244              		.loc 2 209 55 is_stmt 0
 245 0128 93070010 		li	a5,256
 246              	#APP
 247              	# 209 "src/kernel/../../h/kernel/riscv.hpp" 1
 210:src/kernel/../../h/kernel/riscv.hpp **** 
 248              		csrs sstatus, a5
 249              	# 0 "" 2
 250              		.loc 2 210 1
 251              	#NO_APP
 252 0130 6FF0DFFE 		j	.L10
 253              	.LBE112:
 254              	.LBE111:
 255              		.cfi_endproc
 256              	.LFE67:
 258              		.align	2
 259              		.globl	_ZN5RiscV8finalizeEv
 261              	_ZN5RiscV8finalizeEv:
 262              	.LFB68:
 570:src/kernel/riscv.cpp **** 
 571:src/kernel/riscv.cpp **** 
 572:src/kernel/riscv.cpp **** //clear out the scheduler and let console finish remaining outputs if there are any
 573:src/kernel/riscv.cpp **** void RiscV::finalize() {
 263              		.loc 1 573 24 is_stmt 1
 264              		.cfi_startproc
 265 0134 130101FF 		addi	sp,sp,-16
 266              		.cfi_def_cfa_offset 16
 267 0138 23341100 		sd	ra,8(sp)
 268 013c 23308100 		sd	s0,0(sp)
 269              		.cfi_offset 1, -8
 270              		.cfi_offset 8, -16
 271 0140 13040101 		addi	s0,sp,16
 272              		.cfi_def_cfa 8, 0
 574:src/kernel/riscv.cpp ****     userMainFinished = true;
 273              		.loc 1 574 5
 274              		.loc 1 574 22 is_stmt 0
 275 0144 93071000 		li	a5,1
 276 0148 17070000 		sb	a5,.LANCHOR0,a4
 276      2300F700 
 575:src/kernel/riscv.cpp **** 
 576:src/kernel/riscv.cpp ****     ConsoleUtil::pendingPutc = 0;
 277              		.loc 1 576 5 is_stmt 1
 278              		.loc 1 576 30 is_stmt 0
 279 0150 97070000 		la	a5,_ZN11ConsoleUtil11pendingPutcE
 279      83B70700 
 280 0158 23B00700 		sd	zero,0(a5)
 577:src/kernel/riscv.cpp ****     ConsoleUtil::pendingGetc = 0;
 281              		.loc 1 577 5 is_stmt 1
 282              		.loc 1 577 30 is_stmt 0
 283 015c 97070000 		la	a5,_ZN11ConsoleUtil11pendingGetcE
 283      83B70700 
 284 0164 23B00700 		sd	zero,0(a5)
 578:src/kernel/riscv.cpp **** 
 579:src/kernel/riscv.cpp ****     RiscV::disableInterrupts();
 285              		.loc 1 579 5 is_stmt 1
 286              	.LBB113:
GAS LISTING /tmp/ccP6cCkB.s 			page 20


 287              	.LBB114:
 215:src/kernel/../../h/kernel/riscv.hpp **** 
 216:src/kernel/../../h/kernel/riscv.hpp **** inline void  RiscV::ms_sip(uint64 mask) {
 217:src/kernel/../../h/kernel/riscv.hpp ****     asm("csrs sip, %[mask]" : : [mask] "r" (mask));
 218:src/kernel/../../h/kernel/riscv.hpp **** }
 219:src/kernel/../../h/kernel/riscv.hpp **** 
 220:src/kernel/../../h/kernel/riscv.hpp **** inline void  RiscV::mc_sip(uint64 mask) {
 221:src/kernel/../../h/kernel/riscv.hpp ****     asm("csrc sip, %[mask]" : : [mask] "r" (mask));
 222:src/kernel/../../h/kernel/riscv.hpp **** }
 223:src/kernel/../../h/kernel/riscv.hpp **** 
 224:src/kernel/../../h/kernel/riscv.hpp **** inline void  RiscV::ms_sie(uint64 mask) {
 225:src/kernel/../../h/kernel/riscv.hpp ****     asm("csrs sie, %[mask]" : : [mask] "r" (mask));
 226:src/kernel/../../h/kernel/riscv.hpp **** }
 227:src/kernel/../../h/kernel/riscv.hpp **** 
 228:src/kernel/../../h/kernel/riscv.hpp **** inline void  RiscV::mc_sie(uint64 mask){
 229:src/kernel/../../h/kernel/riscv.hpp ****     asm("csrc sie, %[mask]" : : [mask] "r" (mask));
 230:src/kernel/../../h/kernel/riscv.hpp **** }
 231:src/kernel/../../h/kernel/riscv.hpp **** 
 232:src/kernel/../../h/kernel/riscv.hpp **** inline void RiscV::enableInterrupts() {
 233:src/kernel/../../h/kernel/riscv.hpp ****     RiscV::ms_sie(SIP_SSIE);
 234:src/kernel/../../h/kernel/riscv.hpp ****     RiscV::ms_sie(SIP_SEIE);
 235:src/kernel/../../h/kernel/riscv.hpp ****     RiscV::ms_sstatus(SSTATUS_SIE);
 236:src/kernel/../../h/kernel/riscv.hpp **** }
 237:src/kernel/../../h/kernel/riscv.hpp **** 
 238:src/kernel/../../h/kernel/riscv.hpp **** inline void RiscV::disableInterrupts() {
 239:src/kernel/../../h/kernel/riscv.hpp ****     disableTimerInterrupts();
 288              		.loc 2 239 5
 289              	.LBE114:
 290              	.LBE113:
 240:src/kernel/../../h/kernel/riscv.hpp ****     disableHardwareInterrupts();
 241:src/kernel/../../h/kernel/riscv.hpp **** }
 242:src/kernel/../../h/kernel/riscv.hpp **** 
 243:src/kernel/../../h/kernel/riscv.hpp **** inline void RiscV::enableHardwareInterrupts() {
 244:src/kernel/../../h/kernel/riscv.hpp ****     RiscV::mc_sie(SIP_SSIE);
 245:src/kernel/../../h/kernel/riscv.hpp ****     RiscV::ms_sstatus(SSTATUS_SIE);
 246:src/kernel/../../h/kernel/riscv.hpp ****     RiscV::ms_sie(SIP_SEIE);
 247:src/kernel/../../h/kernel/riscv.hpp **** }
 248:src/kernel/../../h/kernel/riscv.hpp **** 
 249:src/kernel/../../h/kernel/riscv.hpp **** inline void RiscV::disableHardwareInterrupts(){
 250:src/kernel/../../h/kernel/riscv.hpp ****     RiscV::mc_sie(SIP_SEIE);
 251:src/kernel/../../h/kernel/riscv.hpp **** }
 252:src/kernel/../../h/kernel/riscv.hpp **** 
 253:src/kernel/../../h/kernel/riscv.hpp **** inline void RiscV::enableTimerInterrupts() {
 254:src/kernel/../../h/kernel/riscv.hpp ****     RiscV::mc_sie(SIP_SEIE);
 255:src/kernel/../../h/kernel/riscv.hpp ****     RiscV::ms_sstatus(SSTATUS_SIE);
 256:src/kernel/../../h/kernel/riscv.hpp ****     RiscV::ms_sie(SIP_SSIE);
 257:src/kernel/../../h/kernel/riscv.hpp **** }
 258:src/kernel/../../h/kernel/riscv.hpp **** 
 259:src/kernel/../../h/kernel/riscv.hpp **** inline void RiscV::disableTimerInterrupts(){
 260:src/kernel/../../h/kernel/riscv.hpp ****     RiscV::mc_sie(SIP_SSIE);
 291              		.loc 2 260 5
 292              	.LVL7:
 293              	.LBB123:
 294              	.LBB121:
 295              	.LBB115:
 296              	.LBB116:
 297              	.LBB117:
GAS LISTING /tmp/ccP6cCkB.s 			page 21


 229:src/kernel/../../h/kernel/riscv.hpp **** }
 298              		.loc 2 229 5
 229:src/kernel/../../h/kernel/riscv.hpp **** }
 299              		.loc 2 229 51 is_stmt 0
 300 0168 93072000 		li	a5,2
 301              	#APP
 302              	# 229 "src/kernel/../../h/kernel/riscv.hpp" 1
 303              		csrc sie, a5
 304              	# 0 "" 2
 305              	.LVL8:
 306              	#NO_APP
 307              	.LBE117:
 308              	.LBE116:
 309              	.LBE115:
 240:src/kernel/../../h/kernel/riscv.hpp ****     disableHardwareInterrupts();
 310              		.loc 2 240 5 is_stmt 1
 311              	.LBE121:
 312              	.LBE123:
 250:src/kernel/../../h/kernel/riscv.hpp **** }
 313              		.loc 2 250 5
 314              	.LBB124:
 315              	.LBB122:
 316              	.LBB118:
 317              	.LBB119:
 318              	.LBB120:
 229:src/kernel/../../h/kernel/riscv.hpp **** }
 319              		.loc 2 229 5
 229:src/kernel/../../h/kernel/riscv.hpp **** }
 320              		.loc 2 229 51 is_stmt 0
 321 0170 93070020 		li	a5,512
 322              	#APP
 323              	# 229 "src/kernel/../../h/kernel/riscv.hpp" 1
 324              		csrc sie, a5
 325              	# 0 "" 2
 326              	.LVL9:
 327              	#NO_APP
 328              	.L17:
 329              	.LBE120:
 330              	.LBE119:
 331              	.LBE118:
 332              	.LBE122:
 333              	.LBE124:
 580:src/kernel/riscv.cpp **** 
 581:src/kernel/riscv.cpp ****     while(Scheduler::readyHead != nullptr)
 334              		.loc 1 581 5 is_stmt 1
 335              		.loc 1 581 32
 336 0178 97070000 		la	a5,_ZN9Scheduler9readyHeadE
 336      83B70700 
 337 0180 83B70700 		ld	a5,0(a5)
 338 0184 638C0700 		beqz	a5,.L16
 582:src/kernel/riscv.cpp ****         Scheduler::readyHead = Scheduler::readyHead->next;
 339              		.loc 1 582 9
 340              		.loc 1 582 54 is_stmt 0
 341 0188 03B78704 		ld	a4,72(a5)
 342              		.loc 1 582 30
 343 018c 97070000 		la	a5,_ZN9Scheduler9readyHeadE
 343      83B70700 
GAS LISTING /tmp/ccP6cCkB.s 			page 22


 344 0194 23B0E700 		sd	a4,0(a5)
 581:src/kernel/riscv.cpp ****         Scheduler::readyHead = Scheduler::readyHead->next;
 345              		.loc 1 581 5
 346 0198 6FF01FFE 		j	.L17
 347              	.L16:
 583:src/kernel/riscv.cpp **** 
 584:src/kernel/riscv.cpp ****     Scheduler::put(TCB::putcThread);
 348              		.loc 1 584 5 is_stmt 1
 349              		.loc 1 584 19 is_stmt 0
 350 019c 97070000 		la	a5,_ZN3TCB10putcThreadE
 350      83B70700 
 351 01a4 03B50700 		ld	a0,0(a5)
 352 01a8 97000000 		call	_ZN9Scheduler3putEP3TCB@plt
 352      E7800000 
 353              	.LVL10:
 354              	.L19:
 585:src/kernel/riscv.cpp **** 
 586:src/kernel/riscv.cpp ****     while(ConsoleUtil::outputHead != ConsoleUtil::outputTail)
 355              		.loc 1 586 5 is_stmt 1
 356              		.loc 1 586 35
 357 01b0 97070000 		la	a5,_ZN11ConsoleUtil10outputHeadE
 357      83B70700 
 358 01b8 03B70700 		ld	a4,0(a5)
 359 01bc 97070000 		la	a5,_ZN11ConsoleUtil10outputTailE
 359      83B70700 
 360 01c4 83B70700 		ld	a5,0(a5)
 361 01c8 6308F700 		beq	a4,a5,.L15
 587:src/kernel/riscv.cpp ****         TCB::dispatch();
 362              		.loc 1 587 9
 363              		.loc 1 587 22 is_stmt 0
 364 01cc 97000000 		call	_ZN3TCB8dispatchEv@plt
 364      E7800000 
 365              	.LVL11:
 586:src/kernel/riscv.cpp ****         TCB::dispatch();
 366              		.loc 1 586 5
 367 01d4 6FF0DFFD 		j	.L19
 368              	.L15:
 588:src/kernel/riscv.cpp **** }
 369              		.loc 1 588 1
 370 01d8 83308100 		ld	ra,8(sp)
 371              		.cfi_restore 1
 372 01dc 03340100 		ld	s0,0(sp)
 373              		.cfi_restore 8
 374              		.cfi_def_cfa 2, 16
 375 01e0 13010101 		addi	sp,sp,16
 376              		.cfi_def_cfa_offset 0
 377 01e4 67800000 		jr	ra
 378              		.cfi_endproc
 379              	.LFE68:
 381              		.align	2
 382              		.globl	_ZN5RiscV16saveA0toSscratchEv
 384              	_ZN5RiscV16saveA0toSscratchEv:
 385              	.LFB69:
 589:src/kernel/riscv.cpp **** 
 590:src/kernel/riscv.cpp **** //write value in a0 to a memory location where a0 is store on stack for currently running thread
 591:src/kernel/riscv.cpp **** void RiscV::saveA0toSscratch()
 592:src/kernel/riscv.cpp **** {
GAS LISTING /tmp/ccP6cCkB.s 			page 23


 386              		.loc 1 592 1 is_stmt 1
 387              		.cfi_startproc
 388 01e8 130101FF 		addi	sp,sp,-16
 389              		.cfi_def_cfa_offset 16
 390 01ec 23348100 		sd	s0,8(sp)
 391              		.cfi_offset 8, -8
 392 01f0 13040101 		addi	s0,sp,16
 393              		.cfi_def_cfa 8, 0
 593:src/kernel/riscv.cpp ****     uint64 a1;
 394              		.loc 1 593 5
 594:src/kernel/riscv.cpp ****     asm("mv %[a1], a1": [a1] "=r"(a1));
 395              		.loc 1 594 5
 396              		.loc 1 594 39 is_stmt 0
 397              	#APP
 398              	# 594 "src/kernel/riscv.cpp" 1
 595              	    asm("mv a1, %[a0]" : :  [a0] "r"(TCB::running->a0Location));
 399              		mv a5, a1
 400              	# 0 "" 2
 401              		.loc 1 595 5 is_stmt 1
 402              		.loc 1 595 52 is_stmt 0
 403              	#NO_APP
 404 01f8 17070000 		la	a4,_ZN3TCB7runningE
 404      03370700 
 405 0200 03370700 		ld	a4,0(a4)
 406 0204 03378706 		ld	a4,104(a4)
 407              		.loc 1 595 64
 408              	#APP
 409              	# 595 "src/kernel/riscv.cpp" 1
 596              	    asm("sd a0, 80(a1)");
 410              		mv a1, a4
 411              	# 0 "" 2
 412              		.loc 1 596 5 is_stmt 1
 413              		.loc 1 596 25 is_stmt 0
 414              	# 596 "src/kernel/riscv.cpp" 1
 597              	    asm("mv a1,%[a1]"::  [a1]"r"(a1));
 415              		sd a0, 80(a1)
 416              	# 0 "" 2
 417              		.loc 1 597 5 is_stmt 1
 418              		.loc 1 597 38 is_stmt 0
 419              	# 597 "src/kernel/riscv.cpp" 1
 598              	}
 420              		mv a1,a5
 421              	# 0 "" 2
 422              		.loc 1 598 1
 423              	#NO_APP
 424 0214 03348100 		ld	s0,8(sp)
 425              		.cfi_restore 8
 426              		.cfi_def_cfa 2, 16
 427 0218 13010101 		addi	sp,sp,16
 428              		.cfi_def_cfa_offset 0
 429 021c 67800000 		jr	ra
 430              		.cfi_endproc
 431              	.LFE69:
 433              		.align	2
 434              		.globl	_ZN5RiscV22executeMemAllocSyscallEv
 436              	_ZN5RiscV22executeMemAllocSyscallEv:
 437              	.LFB51:
GAS LISTING /tmp/ccP6cCkB.s 			page 24


 208:src/kernel/riscv.cpp **** 
 438              		.loc 1 208 37 is_stmt 1
 439              		.cfi_startproc
 440 0220 130101FF 		addi	sp,sp,-16
 441              		.cfi_def_cfa_offset 16
 442 0224 23341100 		sd	ra,8(sp)
 443 0228 23308100 		sd	s0,0(sp)
 444              		.cfi_offset 1, -8
 445              		.cfi_offset 8, -16
 446 022c 13040101 		addi	s0,sp,16
 447              		.cfi_def_cfa 8, 0
 211:src/kernel/riscv.cpp ****     asm("mv %[size], a1" : [size] "=r" (size));
 448              		.loc 1 211 5
 212:src/kernel/riscv.cpp **** 
 449              		.loc 1 212 5
 212:src/kernel/riscv.cpp **** 
 450              		.loc 1 212 47 is_stmt 0
 451              	#APP
 452              	# 212 "src/kernel/riscv.cpp" 1
 453              		mv a0, a1
 454              	# 0 "" 2
 455              	.LVL12:
 215:src/kernel/riscv.cpp **** 
 456              		.loc 1 215 5 is_stmt 1
 215:src/kernel/riscv.cpp **** 
 457              		.loc 1 215 50 is_stmt 0
 458              	#NO_APP
 459 0234 97000000 		call	_ZN15MemoryAllocator7kmallocEm@plt
 459      E7800000 
 460              	.LVL13:
 217:src/kernel/riscv.cpp **** 
 461              		.loc 1 217 5 is_stmt 1
 217:src/kernel/riscv.cpp **** 
 462              		.loc 1 217 48 is_stmt 0
 463              	#APP
 464              	# 217 "src/kernel/riscv.cpp" 1
 219:src/kernel/riscv.cpp **** }
 465              		mv a0, a0
 466              	# 0 "" 2
 467              		.loc 1 219 5 is_stmt 1
 219:src/kernel/riscv.cpp **** }
 468              		.loc 1 219 28 is_stmt 0
 469              	#NO_APP
 470 0240 97000000 		call	_ZN5RiscV16saveA0toSscratchEv
 470      E7800000 
 471              	.LVL14:
 220:src/kernel/riscv.cpp **** 
 472              		.loc 1 220 1
 473 0248 83308100 		ld	ra,8(sp)
 474              		.cfi_restore 1
 475 024c 03340100 		ld	s0,0(sp)
 476              		.cfi_restore 8
 477              		.cfi_def_cfa 2, 16
 478 0250 13010101 		addi	sp,sp,16
 479              		.cfi_def_cfa_offset 0
 480 0254 67800000 		jr	ra
 481              		.cfi_endproc
GAS LISTING /tmp/ccP6cCkB.s 			page 25


 482              	.LFE51:
 484              		.align	2
 485              		.globl	_ZN5RiscV21executeMemFreeSyscallEv
 487              	_ZN5RiscV21executeMemFreeSyscallEv:
 488              	.LFB52:
 222:src/kernel/riscv.cpp **** 
 489              		.loc 1 222 37 is_stmt 1
 490              		.cfi_startproc
 491 0258 130101FF 		addi	sp,sp,-16
 492              		.cfi_def_cfa_offset 16
 493 025c 23341100 		sd	ra,8(sp)
 494 0260 23308100 		sd	s0,0(sp)
 495              		.cfi_offset 1, -8
 496              		.cfi_offset 8, -16
 497 0264 13040101 		addi	s0,sp,16
 498              		.cfi_def_cfa 8, 0
 225:src/kernel/riscv.cpp **** 
 499              		.loc 1 225 5
 228:src/kernel/riscv.cpp ****         //call internal allocator and free memory which iaddr points to
 500              		.loc 1 228 5
 501 0268 97070000 		la	a5,_ZN15MemoryAllocator11initializedE
 501      83B70700 
 502 0270 83C70700 		lbu	a5,0(a5)
 503 0274 63920702 		bnez	a5,.L29
 234:src/kernel/riscv.cpp **** 
 504              		.loc 1 234 16 is_stmt 0
 505 0278 1305F0FF 		li	a0,-1
 506              	.L26:
 507              	.LVL15:
 237:src/kernel/riscv.cpp **** 
 508              		.loc 1 237 5 is_stmt 1
 237:src/kernel/riscv.cpp **** 
 509              		.loc 1 237 54 is_stmt 0
 510              	#APP
 511              	# 237 "src/kernel/riscv.cpp" 1
 239:src/kernel/riscv.cpp **** }
 512              		mv a0, a0
 513              	# 0 "" 2
 514              		.loc 1 239 5 is_stmt 1
 239:src/kernel/riscv.cpp **** }
 515              		.loc 1 239 28 is_stmt 0
 516              	#NO_APP
 517 0280 97000000 		call	_ZN5RiscV16saveA0toSscratchEv
 517      E7800000 
 518              	.LVL16:
 240:src/kernel/riscv.cpp **** 
 519              		.loc 1 240 1
 520 0288 83308100 		ld	ra,8(sp)
 521              		.cfi_remember_state
 522              		.cfi_restore 1
 523 028c 03340100 		ld	s0,0(sp)
 524              		.cfi_restore 8
 525              		.cfi_def_cfa 2, 16
 526 0290 13010101 		addi	sp,sp,16
 527              		.cfi_def_cfa_offset 0
 528 0294 67800000 		jr	ra
 529              	.L29:
GAS LISTING /tmp/ccP6cCkB.s 			page 26


 530              		.cfi_restore_state
 230:src/kernel/riscv.cpp ****         status = MemoryAllocator::kfree((void *) iaddr);;
 531              		.loc 1 230 9 is_stmt 1
 230:src/kernel/riscv.cpp ****         status = MemoryAllocator::kfree((void *) iaddr);;
 532              		.loc 1 230 53 is_stmt 0
 533              	#APP
 534              	# 230 "src/kernel/riscv.cpp" 1
 535              		mv a0, a1
 536              	# 0 "" 2
 537              	.LVL17:
 231:src/kernel/riscv.cpp ****     }
 538              		.loc 1 231 9 is_stmt 1
 231:src/kernel/riscv.cpp ****     }
 539              		.loc 1 231 40 is_stmt 0
 540              	#NO_APP
 541 029c 97000000 		call	_ZN15MemoryAllocator5kfreeEPv@plt
 541      E7800000 
 542              	.LVL18:
 231:src/kernel/riscv.cpp ****     }
 543              		.loc 1 231 57 is_stmt 1
 544 02a4 6FF09FFD 		j	.L26
 545              		.cfi_endproc
 546              	.LFE52:
 548              		.align	2
 549              		.globl	_ZN5RiscV26executeThreadCreateSyscallEv
 551              	_ZN5RiscV26executeThreadCreateSyscallEv:
 552              	.LFB53:
 242:src/kernel/riscv.cpp **** 
 553              		.loc 1 242 41
 554              		.cfi_startproc
 555              		.cfi_personality 0x9b,DW.ref.__gxx_personality_v0
 556              		.cfi_lsda 0x1b,.LLSDA53
 557 02a8 130101FC 		addi	sp,sp,-64
 558              		.cfi_def_cfa_offset 64
 559 02ac 233C1102 		sd	ra,56(sp)
 560 02b0 23388102 		sd	s0,48(sp)
 561 02b4 23349102 		sd	s1,40(sp)
 562 02b8 23302103 		sd	s2,32(sp)
 563 02bc 233C3101 		sd	s3,24(sp)
 564 02c0 23384101 		sd	s4,16(sp)
 565 02c4 23345101 		sd	s5,8(sp)
 566              		.cfi_offset 1, -8
 567              		.cfi_offset 8, -16
 568              		.cfi_offset 9, -24
 569              		.cfi_offset 18, -32
 570              		.cfi_offset 19, -40
 571              		.cfi_offset 20, -48
 572              		.cfi_offset 21, -56
 573 02c8 13040104 		addi	s0,sp,64
 574              		.cfi_def_cfa 8, 0
 245:src/kernel/riscv.cpp **** 
 575              		.loc 1 245 5
 247:src/kernel/riscv.cpp ****     asm("mv %[ihandle], a1" : [ihandle] "=r"(ihandle));
 576              		.loc 1 247 5
 247:src/kernel/riscv.cpp ****     asm("mv %[ihandle], a1" : [ihandle] "=r"(ihandle));
 577              		.loc 1 247 52 is_stmt 0
 578              	#APP
GAS LISTING /tmp/ccP6cCkB.s 			page 27


 579              	# 247 "src/kernel/riscv.cpp" 1
 580              		mv s5, a7
 581              	# 0 "" 2
 582              	.LVL19:
 248:src/kernel/riscv.cpp ****     asm("mv %[iroutine], a2" : [iroutine] "=r"(iroutine));
 583              		.loc 1 248 5 is_stmt 1
 248:src/kernel/riscv.cpp ****     asm("mv %[iroutine], a2" : [iroutine] "=r"(iroutine));
 584              		.loc 1 248 55 is_stmt 0
 585              	# 248 "src/kernel/riscv.cpp" 1
 586              		mv s2, a1
 587              	# 0 "" 2
 588              	.LVL20:
 249:src/kernel/riscv.cpp ****     asm("mv %[iargs], a3" : [iargs] "=r"(iargs));
 589              		.loc 1 249 5 is_stmt 1
 249:src/kernel/riscv.cpp ****     asm("mv %[iargs], a3" : [iargs] "=r"(iargs));
 590              		.loc 1 249 58 is_stmt 0
 591              	# 249 "src/kernel/riscv.cpp" 1
 592              		mv s3, a2
 593              	# 0 "" 2
 594              	.LVL21:
 250:src/kernel/riscv.cpp **** 
 595              		.loc 1 250 5 is_stmt 1
 250:src/kernel/riscv.cpp **** 
 596              		.loc 1 250 49 is_stmt 0
 597              	# 250 "src/kernel/riscv.cpp" 1
 598              		mv s4, a3
 599              	# 0 "" 2
 600              	.LVL22:
 253:src/kernel/riscv.cpp **** 
 601              		.loc 1 253 5 is_stmt 1
 253:src/kernel/riscv.cpp **** 
 602              		.loc 1 253 94 is_stmt 0
 603              	#NO_APP
 604 02dc 13050007 		li	a0,112
 605              	.LEHB0:
 606 02e0 97000000 		call	_ZN3TCBnwEm@plt
 606      E7800000 
 607              	.LVL23:
 608              	.LEHE0:
 609 02e8 93040500 		mv	s1,a0
 610 02ec 630E0500 		beqz	a0,.L31
 253:src/kernel/riscv.cpp **** 
 611              		.loc 1 253 94 discriminator 1
 612 02f0 13072000 		li	a4,2
 613 02f4 93860A00 		mv	a3,s5
 614 02f8 13060A00 		mv	a2,s4
 615 02fc 93850900 		mv	a1,s3
 616              	.LEHB1:
 617 0300 97000000 		call	_ZN3TCBC1EPFvPvES0_Pmm@plt
 617      E7800000 
 618              	.LVL24:
 619              	.LEHE1:
 620              	.L31:
 255:src/kernel/riscv.cpp **** 
 621              		.loc 1 255 5 is_stmt 1 discriminator 6
 257:src/kernel/riscv.cpp ****         status = -1;
 622              		.loc 1 257 5 discriminator 6
GAS LISTING /tmp/ccP6cCkB.s 			page 28


 623 0308 63880404 		beqz	s1,.L35
 261:src/kernel/riscv.cpp ****             Scheduler::put(tcb);
 624              		.loc 1 261 9
 261:src/kernel/riscv.cpp ****             Scheduler::put(tcb);
 625              		.loc 1 261 17 is_stmt 0
 626 030c 83B78401 		ld	a5,24(s1)
 261:src/kernel/riscv.cpp ****             Scheduler::put(tcb);
 627              		.loc 1 261 9
 628 0310 63880700 		beqz	a5,.L33
 262:src/kernel/riscv.cpp ****         *((TCB**)ihandle) = tcb;
 629              		.loc 1 262 13 is_stmt 1
 262:src/kernel/riscv.cpp ****         *((TCB**)ihandle) = tcb;
 630              		.loc 1 262 27 is_stmt 0
 631 0314 13850400 		mv	a0,s1
 632              	.LEHB2:
 633 0318 97000000 		call	_ZN9Scheduler3putEP3TCB@plt
 633      E7800000 
 634              	.LVL25:
 635              	.LEHE2:
 636              	.L33:
 263:src/kernel/riscv.cpp ****     }
 637              		.loc 1 263 9 is_stmt 1
 263:src/kernel/riscv.cpp ****     }
 638              		.loc 1 263 27 is_stmt 0
 639 0320 23309900 		sd	s1,0(s2)
 255:src/kernel/riscv.cpp **** 
 640              		.loc 1 255 12
 641 0324 93070000 		li	a5,0
 642              	.L32:
 643              	.LVL26:
 267:src/kernel/riscv.cpp **** 
 644              		.loc 1 267 5 is_stmt 1
 267:src/kernel/riscv.cpp **** 
 645              		.loc 1 267 54 is_stmt 0
 646              	#APP
 647              	# 267 "src/kernel/riscv.cpp" 1
 269:src/kernel/riscv.cpp **** }
 648              		mv a0, a5
 649              	# 0 "" 2
 650              		.loc 1 269 5 is_stmt 1
 269:src/kernel/riscv.cpp **** }
 651              		.loc 1 269 28 is_stmt 0
 652              	#NO_APP
 653 032c 97000000 		call	_ZN5RiscV16saveA0toSscratchEv
 653      E7800000 
 654              	.LVL27:
 270:src/kernel/riscv.cpp **** 
 655              		.loc 1 270 1
 656 0334 83308103 		ld	ra,56(sp)
 657              		.cfi_remember_state
 658              		.cfi_restore 1
 659 0338 03340103 		ld	s0,48(sp)
 660              		.cfi_restore 8
 661              		.cfi_def_cfa 2, 64
 662 033c 83348102 		ld	s1,40(sp)
 663              		.cfi_restore 9
 664              	.LVL28:
GAS LISTING /tmp/ccP6cCkB.s 			page 29


 665 0340 03390102 		ld	s2,32(sp)
 666              		.cfi_restore 18
 667              	.LVL29:
 668 0344 83398101 		ld	s3,24(sp)
 669              		.cfi_restore 19
 670              	.LVL30:
 671 0348 033A0101 		ld	s4,16(sp)
 672              		.cfi_restore 20
 673              	.LVL31:
 674 034c 833A8100 		ld	s5,8(sp)
 675              		.cfi_restore 21
 676              	.LVL32:
 677 0350 13010104 		addi	sp,sp,64
 678              		.cfi_def_cfa_offset 0
 679 0354 67800000 		jr	ra
 680              	.LVL33:
 681              	.L35:
 682              		.cfi_restore_state
 258:src/kernel/riscv.cpp ****     }
 683              		.loc 1 258 16
 684 0358 9307F0FF 		li	a5,-1
 685 035c 6FF0DFFC 		j	.L32
 686              	.LVL34:
 687              	.L36:
 688 0360 13090500 		mv	s2,a0
 689              	.LVL35:
 253:src/kernel/riscv.cpp **** 
 690              		.loc 1 253 94
 691 0364 13850400 		mv	a0,s1
 692 0368 97000000 		call	_ZN3TCBdlEPv@plt
 692      E7800000 
 693              	.LVL36:
 694 0370 13050900 		mv	a0,s2
 695              	.LEHB3:
 696 0374 97000000 		call	_Unwind_Resume@plt
 696      E7800000 
 697              	.LVL37:
 698              	.LEHE3:
 699              		.cfi_endproc
 700              	.LFE53:
 701              		.globl	__gxx_personality_v0
 702              		.section	.gcc_except_table,"a",@progbits
 703              	.LLSDA53:
 704 0000 FF       		.byte	0xff
 705 0001 FF       		.byte	0xff
 706 0002 03       		.byte	0x3
 707 0003 34       		.byte	0x34
 708 0004 00000000 		.4byte	.LEHB0-.LFB53
 709 0008 00000000 		.4byte	.LEHE0-.LEHB0
 710 000c 00000000 		.4byte	0
 711 0010 00       		.byte	0
 712 0011 00000000 		.4byte	.LEHB1-.LFB53
 713 0015 00000000 		.4byte	.LEHE1-.LEHB1
 714 0019 00000000 		.4byte	.L36-.LFB53
 715 001d 00       		.byte	0
 716 001e 00000000 		.4byte	.LEHB2-.LFB53
 717 0022 00000000 		.4byte	.LEHE2-.LEHB2
GAS LISTING /tmp/ccP6cCkB.s 			page 30


 718 0026 00000000 		.4byte	0
 719 002a 00       		.byte	0
 720 002b 00000000 		.4byte	.LEHB3-.LFB53
 721 002f 00000000 		.4byte	.LEHE3-.LEHB3
 722 0033 00000000 		.4byte	0
 723 0037 00       		.byte	0
 724              		.text
 726              		.align	2
 727              		.globl	_ZN5RiscV30executeThreadAttachBodySyscallEv
 729              	_ZN5RiscV30executeThreadAttachBodySyscallEv:
 730              	.LFB54:
 272:src/kernel/riscv.cpp **** 
 731              		.loc 1 272 45 is_stmt 1
 732              		.cfi_startproc
 733              		.cfi_personality 0x9b,DW.ref.__gxx_personality_v0
 734              		.cfi_lsda 0x1b,.LLSDA54
 735 037c 130101FC 		addi	sp,sp,-64
 736              		.cfi_def_cfa_offset 64
 737 0380 233C1102 		sd	ra,56(sp)
 738 0384 23388102 		sd	s0,48(sp)
 739 0388 23349102 		sd	s1,40(sp)
 740 038c 23302103 		sd	s2,32(sp)
 741 0390 233C3101 		sd	s3,24(sp)
 742 0394 23384101 		sd	s4,16(sp)
 743 0398 23345101 		sd	s5,8(sp)
 744              		.cfi_offset 1, -8
 745              		.cfi_offset 8, -16
 746              		.cfi_offset 9, -24
 747              		.cfi_offset 18, -32
 748              		.cfi_offset 19, -40
 749              		.cfi_offset 20, -48
 750              		.cfi_offset 21, -56
 751 039c 13040104 		addi	s0,sp,64
 752              		.cfi_def_cfa 8, 0
 275:src/kernel/riscv.cpp **** 
 753              		.loc 1 275 5
 278:src/kernel/riscv.cpp ****     asm("mv %[ihandle], a1" : [ihandle] "=r"(ihandle));
 754              		.loc 1 278 5
 278:src/kernel/riscv.cpp ****     asm("mv %[ihandle], a1" : [ihandle] "=r"(ihandle));
 755              		.loc 1 278 52 is_stmt 0
 756              	#APP
 757              	# 278 "src/kernel/riscv.cpp" 1
 758              		mv s5, a7
 759              	# 0 "" 2
 760              	.LVL38:
 279:src/kernel/riscv.cpp ****     asm("mv %[iroutine], a2" : [iroutine] "=r"(iroutine));
 761              		.loc 1 279 5 is_stmt 1
 279:src/kernel/riscv.cpp ****     asm("mv %[iroutine], a2" : [iroutine] "=r"(iroutine));
 762              		.loc 1 279 55 is_stmt 0
 763              	# 279 "src/kernel/riscv.cpp" 1
 764              		mv s4, a1
 765              	# 0 "" 2
 766              	.LVL39:
 280:src/kernel/riscv.cpp ****     asm("mv %[iargs], a3" : [iargs] "=r"(iargs));
 767              		.loc 1 280 5 is_stmt 1
 280:src/kernel/riscv.cpp ****     asm("mv %[iargs], a3" : [iargs] "=r"(iargs));
 768              		.loc 1 280 58 is_stmt 0
GAS LISTING /tmp/ccP6cCkB.s 			page 31


 769              	# 280 "src/kernel/riscv.cpp" 1
 770              		mv s3, a2
 771              	# 0 "" 2
 772              	.LVL40:
 281:src/kernel/riscv.cpp **** 
 773              		.loc 1 281 5 is_stmt 1
 281:src/kernel/riscv.cpp **** 
 774              		.loc 1 281 49 is_stmt 0
 775              	# 281 "src/kernel/riscv.cpp" 1
 776              		mv s2, a3
 777              	# 0 "" 2
 778              	.LVL41:
 283:src/kernel/riscv.cpp **** 
 779              		.loc 1 283 5 is_stmt 1
 283:src/kernel/riscv.cpp **** 
 780              		.loc 1 283 94 is_stmt 0
 781              	#NO_APP
 782 03b0 13050007 		li	a0,112
 783              	.LEHB4:
 784 03b4 97000000 		call	_ZN3TCBnwEm@plt
 784      E7800000 
 785              	.LVL42:
 786              	.LEHE4:
 787 03bc 93040500 		mv	s1,a0
 788 03c0 630E0500 		beqz	a0,.L40
 283:src/kernel/riscv.cpp **** 
 789              		.loc 1 283 94 discriminator 1
 790 03c4 13072000 		li	a4,2
 791 03c8 93860A00 		mv	a3,s5
 792 03cc 13060900 		mv	a2,s2
 793 03d0 93850900 		mv	a1,s3
 794              	.LEHB5:
 795 03d4 97000000 		call	_ZN3TCBC1EPFvPvES0_Pmm@plt
 795      E7800000 
 796              	.LVL43:
 797              	.LEHE5:
 798              	.L40:
 285:src/kernel/riscv.cpp **** 
 799              		.loc 1 285 5 is_stmt 1 discriminator 6
 287:src/kernel/riscv.cpp ****         status = -1;
 800              		.loc 1 287 5 discriminator 6
 801 03dc 63820404 		beqz	s1,.L43
 291:src/kernel/riscv.cpp ****         tcb->args = (void*)iargs;
 802              		.loc 1 291 9
 291:src/kernel/riscv.cpp ****         tcb->args = (void*)iargs;
 803              		.loc 1 291 19 is_stmt 0
 804 03e0 23BC3401 		sd	s3,24(s1)
 292:src/kernel/riscv.cpp ****         *((TCB**)ihandle) = tcb;
 805              		.loc 1 292 9 is_stmt 1
 292:src/kernel/riscv.cpp ****         *((TCB**)ihandle) = tcb;
 806              		.loc 1 292 19 is_stmt 0
 807 03e4 23B02403 		sd	s2,32(s1)
 293:src/kernel/riscv.cpp ****     }
 808              		.loc 1 293 9 is_stmt 1
 293:src/kernel/riscv.cpp ****     }
 809              		.loc 1 293 27 is_stmt 0
 810 03e8 23309A00 		sd	s1,0(s4)
GAS LISTING /tmp/ccP6cCkB.s 			page 32


 285:src/kernel/riscv.cpp **** 
 811              		.loc 1 285 12
 812 03ec 93070000 		li	a5,0
 813              	.L41:
 814              	.LVL44:
 296:src/kernel/riscv.cpp **** 
 815              		.loc 1 296 5 is_stmt 1
 296:src/kernel/riscv.cpp **** 
 816              		.loc 1 296 54 is_stmt 0
 817              	#APP
 818              	# 296 "src/kernel/riscv.cpp" 1
 298:src/kernel/riscv.cpp **** }
 819              		mv a0, a5
 820              	# 0 "" 2
 821              		.loc 1 298 5 is_stmt 1
 298:src/kernel/riscv.cpp **** }
 822              		.loc 1 298 28 is_stmt 0
 823              	#NO_APP
 824 03f4 97000000 		call	_ZN5RiscV16saveA0toSscratchEv
 824      E7800000 
 825              	.LVL45:
 299:src/kernel/riscv.cpp **** 
 826              		.loc 1 299 1
 827 03fc 83308103 		ld	ra,56(sp)
 828              		.cfi_remember_state
 829              		.cfi_restore 1
 830 0400 03340103 		ld	s0,48(sp)
 831              		.cfi_restore 8
 832              		.cfi_def_cfa 2, 64
 833 0404 83348102 		ld	s1,40(sp)
 834              		.cfi_restore 9
 835              	.LVL46:
 836 0408 03390102 		ld	s2,32(sp)
 837              		.cfi_restore 18
 838              	.LVL47:
 839 040c 83398101 		ld	s3,24(sp)
 840              		.cfi_restore 19
 841              	.LVL48:
 842 0410 033A0101 		ld	s4,16(sp)
 843              		.cfi_restore 20
 844              	.LVL49:
 845 0414 833A8100 		ld	s5,8(sp)
 846              		.cfi_restore 21
 847              	.LVL50:
 848 0418 13010104 		addi	sp,sp,64
 849              		.cfi_def_cfa_offset 0
 850 041c 67800000 		jr	ra
 851              	.LVL51:
 852              	.L43:
 853              		.cfi_restore_state
 288:src/kernel/riscv.cpp ****     }
 854              		.loc 1 288 16
 855 0420 9307F0FF 		li	a5,-1
 856 0424 6FF0DFFC 		j	.L41
 857              	.LVL52:
 858              	.L44:
 859 0428 13090500 		mv	s2,a0
GAS LISTING /tmp/ccP6cCkB.s 			page 33


 860              	.LVL53:
 283:src/kernel/riscv.cpp **** 
 861              		.loc 1 283 94
 862 042c 13850400 		mv	a0,s1
 863 0430 97000000 		call	_ZN3TCBdlEPv@plt
 863      E7800000 
 864              	.LVL54:
 865 0438 13050900 		mv	a0,s2
 866              	.LEHB6:
 867 043c 97000000 		call	_Unwind_Resume@plt
 867      E7800000 
 868              	.LVL55:
 869              	.LEHE6:
 870              		.cfi_endproc
 871              	.LFE54:
 872              		.section	.gcc_except_table
 873              	.LLSDA54:
 874 0038 FF       		.byte	0xff
 875 0039 FF       		.byte	0xff
 876 003a 03       		.byte	0x3
 877 003b 27       		.byte	0x27
 878 003c 00000000 		.4byte	.LEHB4-.LFB54
 879 0040 00000000 		.4byte	.LEHE4-.LEHB4
 880 0044 00000000 		.4byte	0
 881 0048 00       		.byte	0
 882 0049 00000000 		.4byte	.LEHB5-.LFB54
 883 004d 00000000 		.4byte	.LEHE5-.LEHB5
 884 0051 00000000 		.4byte	.L44-.LFB54
 885 0055 00       		.byte	0
 886 0056 00000000 		.4byte	.LEHB6-.LFB54
 887 005a 00000000 		.4byte	.LEHE6-.LEHB6
 888 005e 00000000 		.4byte	0
 889 0062 00       		.byte	0
 890              		.text
 892              		.align	2
 893              		.globl	_ZN5RiscV25executeThreadStartSyscallEv
 895              	_ZN5RiscV25executeThreadStartSyscallEv:
 896              	.LFB55:
 301:src/kernel/riscv.cpp **** 
 897              		.loc 1 301 40 is_stmt 1
 898              		.cfi_startproc
 899 0444 130101FF 		addi	sp,sp,-16
 900              		.cfi_def_cfa_offset 16
 901 0448 23341100 		sd	ra,8(sp)
 902 044c 23308100 		sd	s0,0(sp)
 903              		.cfi_offset 1, -8
 904              		.cfi_offset 8, -16
 905 0450 13040101 		addi	s0,sp,16
 906              		.cfi_def_cfa 8, 0
 304:src/kernel/riscv.cpp **** 
 907              		.loc 1 304 5
 306:src/kernel/riscv.cpp **** 
 908              		.loc 1 306 5
 306:src/kernel/riscv.cpp **** 
 909              		.loc 1 306 55 is_stmt 0
 910              	#APP
 911              	# 306 "src/kernel/riscv.cpp" 1
GAS LISTING /tmp/ccP6cCkB.s 			page 34


 912              		mv a0, a1
 913              	# 0 "" 2
 914              	.LVL56:
 309:src/kernel/riscv.cpp **** 
 915              		.loc 1 309 5 is_stmt 1
 311:src/kernel/riscv.cpp **** 
 916              		.loc 1 311 5
 313:src/kernel/riscv.cpp ****         status = -1;
 917              		.loc 1 313 5
 918              	#NO_APP
 919 0458 63120502 		bnez	a0,.L51
 314:src/kernel/riscv.cpp ****     }
 920              		.loc 1 314 16 is_stmt 0
 921 045c 9307F0FF 		li	a5,-1
 922              	.LVL57:
 923              	.L48:
 323:src/kernel/riscv.cpp **** 
 924              		.loc 1 323 5 is_stmt 1
 323:src/kernel/riscv.cpp **** 
 925              		.loc 1 323 54 is_stmt 0
 926              	#APP
 927              	# 323 "src/kernel/riscv.cpp" 1
 325:src/kernel/riscv.cpp **** }
 928              		mv a0, a5
 929              	# 0 "" 2
 930              		.loc 1 325 5 is_stmt 1
 325:src/kernel/riscv.cpp **** }
 931              		.loc 1 325 28 is_stmt 0
 932              	#NO_APP
 933 0464 97000000 		call	_ZN5RiscV16saveA0toSscratchEv
 933      E7800000 
 934              	.LVL58:
 326:src/kernel/riscv.cpp **** 
 935              		.loc 1 326 1
 936 046c 83308100 		ld	ra,8(sp)
 937              		.cfi_remember_state
 938              		.cfi_restore 1
 939 0470 03340100 		ld	s0,0(sp)
 940              		.cfi_restore 8
 941              		.cfi_def_cfa 2, 16
 942 0474 13010101 		addi	sp,sp,16
 943              		.cfi_def_cfa_offset 0
 944 0478 67800000 		jr	ra
 945              	.LVL59:
 946              	.L51:
 947              		.cfi_restore_state
 317:src/kernel/riscv.cpp ****         Scheduler::put(tcb);
 948              		.loc 1 317 9 is_stmt 1
 317:src/kernel/riscv.cpp ****         Scheduler::put(tcb);
 949              		.loc 1 317 21 is_stmt 0
 950 047c 93071000 		li	a5,1
 951 0480 2328F500 		sw	a5,16(a0)
 318:src/kernel/riscv.cpp ****         TCB::dispatch();
 952              		.loc 1 318 9 is_stmt 1
 318:src/kernel/riscv.cpp ****         TCB::dispatch();
 953              		.loc 1 318 23 is_stmt 0
 954 0484 97000000 		call	_ZN9Scheduler3putEP3TCB@plt
GAS LISTING /tmp/ccP6cCkB.s 			page 35


 954      E7800000 
 955              	.LVL60:
 319:src/kernel/riscv.cpp ****     }
 956              		.loc 1 319 9 is_stmt 1
 319:src/kernel/riscv.cpp ****     }
 957              		.loc 1 319 22 is_stmt 0
 958 048c 97000000 		call	_ZN3TCB8dispatchEv@plt
 958      E7800000 
 959              	.LVL61:
 311:src/kernel/riscv.cpp **** 
 960              		.loc 1 311 12
 961 0494 93070000 		li	a5,0
 962 0498 6FF09FFC 		j	.L48
 963              		.cfi_endproc
 964              	.LFE55:
 966              		.align	2
 967              		.globl	_ZN5RiscV24executeThreadExitSyscallEv
 969              	_ZN5RiscV24executeThreadExitSyscallEv:
 970              	.LFB56:
 328:src/kernel/riscv.cpp **** 
 971              		.loc 1 328 40 is_stmt 1
 972              		.cfi_startproc
 973 049c 130101FF 		addi	sp,sp,-16
 974              		.cfi_def_cfa_offset 16
 975 04a0 23341100 		sd	ra,8(sp)
 976 04a4 23308100 		sd	s0,0(sp)
 977              		.cfi_offset 1, -8
 978              		.cfi_offset 8, -16
 979 04a8 13040101 		addi	s0,sp,16
 980              		.cfi_def_cfa 8, 0
 331:src/kernel/riscv.cpp **** 
 981              		.loc 1 331 5
 982              	.LVL62:
 334:src/kernel/riscv.cpp ****         status = -1;
 983              		.loc 1 334 5
 984              	.LBB125:
 334:src/kernel/riscv.cpp ****         status = -1;
 985              		.loc 1 334 21 is_stmt 0
 986 04ac 97070000 		la	a5,_ZN3TCB7runningE
 986      83B70700 
 987 04b4 83B70700 		ld	a5,0(a5)
 334:src/kernel/riscv.cpp ****         status = -1;
 988              		.loc 1 334 5
 989 04b8 638A0702 		beqz	a5,.L54
 990              	.LBB126:
 338:src/kernel/riscv.cpp ****         old->status = TCB::Status::FINISHED;
 991              		.loc 1 338 9 is_stmt 1
 992              	.LVL63:
 339:src/kernel/riscv.cpp ****         TCB::dispatch();
 993              		.loc 1 339 9
 339:src/kernel/riscv.cpp ****         TCB::dispatch();
 994              		.loc 1 339 21 is_stmt 0
 995 04bc 13072000 		li	a4,2
 996 04c0 23A8E700 		sw	a4,16(a5)
 340:src/kernel/riscv.cpp ****     }
 997              		.loc 1 340 9 is_stmt 1
 340:src/kernel/riscv.cpp ****     }
GAS LISTING /tmp/ccP6cCkB.s 			page 36


 998              		.loc 1 340 22 is_stmt 0
 999 04c4 97000000 		call	_ZN3TCB8dispatchEv@plt
 999      E7800000 
 1000              	.LVL64:
 1001              	.LBE126:
 1002              	.LBE125:
 331:src/kernel/riscv.cpp **** 
 1003              		.loc 1 331 12
 1004 04cc 93070000 		li	a5,0
 1005              	.L53:
 1006              	.LVL65:
 343:src/kernel/riscv.cpp **** 
 1007              		.loc 1 343 5 is_stmt 1
 343:src/kernel/riscv.cpp **** 
 1008              		.loc 1 343 54 is_stmt 0
 1009              	#APP
 1010              	# 343 "src/kernel/riscv.cpp" 1
 345:src/kernel/riscv.cpp **** }
 1011              		mv a0, a5
 1012              	# 0 "" 2
 1013              		.loc 1 345 5 is_stmt 1
 345:src/kernel/riscv.cpp **** }
 1014              		.loc 1 345 28 is_stmt 0
 1015              	#NO_APP
 1016 04d4 97000000 		call	_ZN5RiscV16saveA0toSscratchEv
 1016      E7800000 
 1017              	.LVL66:
 346:src/kernel/riscv.cpp **** 
 1018              		.loc 1 346 1
 1019 04dc 83308100 		ld	ra,8(sp)
 1020              		.cfi_remember_state
 1021              		.cfi_restore 1
 1022 04e0 03340100 		ld	s0,0(sp)
 1023              		.cfi_restore 8
 1024              		.cfi_def_cfa 2, 16
 1025 04e4 13010101 		addi	sp,sp,16
 1026              		.cfi_def_cfa_offset 0
 1027 04e8 67800000 		jr	ra
 1028              	.LVL67:
 1029              	.L54:
 1030              		.cfi_restore_state
 1031              	.LBB127:
 335:src/kernel/riscv.cpp ****     }
 1032              		.loc 1 335 16
 1033 04ec 9307F0FF 		li	a5,-1
 1034 04f0 6FF01FFE 		j	.L53
 1035              	.LBE127:
 1036              		.cfi_endproc
 1037              	.LFE56:
 1039              		.align	2
 1040              		.globl	_ZN5RiscV21executeSemOpenSyscallEv
 1042              	_ZN5RiscV21executeSemOpenSyscallEv:
 1043              	.LFB58:
 356:src/kernel/riscv.cpp **** 
 1044              		.loc 1 356 37 is_stmt 1
 1045              		.cfi_startproc
 1046              		.cfi_personality 0x9b,DW.ref.__gxx_personality_v0
GAS LISTING /tmp/ccP6cCkB.s 			page 37


 1047              		.cfi_lsda 0x1b,.LLSDA58
 1048 04f4 130101FD 		addi	sp,sp,-48
 1049              		.cfi_def_cfa_offset 48
 1050 04f8 23341102 		sd	ra,40(sp)
 1051 04fc 23308102 		sd	s0,32(sp)
 1052 0500 233C9100 		sd	s1,24(sp)
 1053 0504 23382101 		sd	s2,16(sp)
 1054 0508 23343101 		sd	s3,8(sp)
 1055              		.cfi_offset 1, -8
 1056              		.cfi_offset 8, -16
 1057              		.cfi_offset 9, -24
 1058              		.cfi_offset 18, -32
 1059              		.cfi_offset 19, -40
 1060 050c 13040103 		addi	s0,sp,48
 1061              		.cfi_def_cfa 8, 0
 359:src/kernel/riscv.cpp **** 
 1062              		.loc 1 359 5
 361:src/kernel/riscv.cpp ****     asm("mv %[iinit], a2" : [iinit] "=r"(iinit));
 1063              		.loc 1 361 5
 361:src/kernel/riscv.cpp ****     asm("mv %[iinit], a2" : [iinit] "=r"(iinit));
 1064              		.loc 1 361 55 is_stmt 0
 1065              	#APP
 1066              	# 361 "src/kernel/riscv.cpp" 1
 1067              		mv s2, a1
 1068              	# 0 "" 2
 1069              	.LVL68:
 362:src/kernel/riscv.cpp **** 
 1070              		.loc 1 362 5 is_stmt 1
 362:src/kernel/riscv.cpp **** 
 1071              		.loc 1 362 49 is_stmt 0
 1072              	# 362 "src/kernel/riscv.cpp" 1
 1073              		mv s3, a2
 1074              	# 0 "" 2
 1075              	.LVL69:
 365:src/kernel/riscv.cpp **** 
 1076              		.loc 1 365 5 is_stmt 1
 365:src/kernel/riscv.cpp **** 
 1077              		.loc 1 365 29 is_stmt 0
 1078              	#NO_APP
 1079 0518 13058001 		li	a0,24
 1080              	.LEHB7:
 1081 051c 97000000 		call	_ZN3SCBnwEm@plt
 1081      E7800000 
 1082              	.LVL70:
 1083              	.LEHE7:
 1084 0524 93040500 		mv	s1,a0
 1085 0528 63080500 		beqz	a0,.L57
 365:src/kernel/riscv.cpp **** 
 1086              		.loc 1 365 29 discriminator 1
 1087 052c 93850900 		mv	a1,s3
 1088              	.LEHB8:
 1089 0530 97000000 		call	_ZN3SCBC1Em@plt
 1089      E7800000 
 1090              	.LVL71:
 1091              	.LEHE8:
 1092              	.L57:
 367:src/kernel/riscv.cpp **** 
GAS LISTING /tmp/ccP6cCkB.s 			page 38


 1093              		.loc 1 367 5 is_stmt 1 discriminator 6
 369:src/kernel/riscv.cpp ****         status = -1;
 1094              		.loc 1 369 5 discriminator 6
 1095 0538 638A0402 		beqz	s1,.L60
 373:src/kernel/riscv.cpp ****     }
 1096              		.loc 1 373 9
 373:src/kernel/riscv.cpp ****     }
 1097              		.loc 1 373 27 is_stmt 0
 1098 053c 23309900 		sd	s1,0(s2)
 367:src/kernel/riscv.cpp **** 
 1099              		.loc 1 367 12
 1100 0540 93070000 		li	a5,0
 1101              	.L58:
 1102              	.LVL72:
 377:src/kernel/riscv.cpp **** 
 1103              		.loc 1 377 5 is_stmt 1
 377:src/kernel/riscv.cpp **** 
 1104              		.loc 1 377 54 is_stmt 0
 1105              	#APP
 1106              	# 377 "src/kernel/riscv.cpp" 1
 379:src/kernel/riscv.cpp **** 
 1107              		mv a0, a5
 1108              	# 0 "" 2
 1109              		.loc 1 379 5 is_stmt 1
 379:src/kernel/riscv.cpp **** 
 1110              		.loc 1 379 28 is_stmt 0
 1111              	#NO_APP
 1112 0548 97000000 		call	_ZN5RiscV16saveA0toSscratchEv
 1112      E7800000 
 1113              	.LVL73:
 381:src/kernel/riscv.cpp **** 
 1114              		.loc 1 381 1
 1115 0550 83308102 		ld	ra,40(sp)
 1116              		.cfi_remember_state
 1117              		.cfi_restore 1
 1118 0554 03340102 		ld	s0,32(sp)
 1119              		.cfi_restore 8
 1120              		.cfi_def_cfa 2, 48
 1121 0558 83348101 		ld	s1,24(sp)
 1122              		.cfi_restore 9
 1123              	.LVL74:
 1124 055c 03390101 		ld	s2,16(sp)
 1125              		.cfi_restore 18
 1126              	.LVL75:
 1127 0560 83398100 		ld	s3,8(sp)
 1128              		.cfi_restore 19
 1129              	.LVL76:
 1130 0564 13010103 		addi	sp,sp,48
 1131              		.cfi_def_cfa_offset 0
 1132 0568 67800000 		jr	ra
 1133              	.LVL77:
 1134              	.L60:
 1135              		.cfi_restore_state
 370:src/kernel/riscv.cpp ****     }
 1136              		.loc 1 370 16
 1137 056c 9307F0FF 		li	a5,-1
 1138 0570 6FF05FFD 		j	.L58
GAS LISTING /tmp/ccP6cCkB.s 			page 39


 1139              	.LVL78:
 1140              	.L61:
 1141 0574 13090500 		mv	s2,a0
 1142              	.LVL79:
 365:src/kernel/riscv.cpp **** 
 1143              		.loc 1 365 29
 1144 0578 13850400 		mv	a0,s1
 1145 057c 97000000 		call	_ZN3SCBdlEPv@plt
 1145      E7800000 
 1146              	.LVL80:
 1147 0584 13050900 		mv	a0,s2
 1148              	.LEHB9:
 1149 0588 97000000 		call	_Unwind_Resume@plt
 1149      E7800000 
 1150              	.LVL81:
 1151              	.LEHE9:
 1152              		.cfi_endproc
 1153              	.LFE58:
 1154              		.section	.gcc_except_table
 1155              	.LLSDA58:
 1156 0063 FF       		.byte	0xff
 1157 0064 FF       		.byte	0xff
 1158 0065 03       		.byte	0x3
 1159 0066 27       		.byte	0x27
 1160 0067 00000000 		.4byte	.LEHB7-.LFB58
 1161 006b 00000000 		.4byte	.LEHE7-.LEHB7
 1162 006f 00000000 		.4byte	0
 1163 0073 00       		.byte	0
 1164 0074 00000000 		.4byte	.LEHB8-.LFB58
 1165 0078 00000000 		.4byte	.LEHE8-.LEHB8
 1166 007c 00000000 		.4byte	.L61-.LFB58
 1167 0080 00       		.byte	0
 1168 0081 00000000 		.4byte	.LEHB9-.LFB58
 1169 0085 00000000 		.4byte	.LEHE9-.LEHB9
 1170 0089 00000000 		.4byte	0
 1171 008d 00       		.byte	0
 1172              		.text
 1174              		.align	2
 1175              		.globl	_ZN5RiscV22executeSemCloseSyscallEv
 1177              	_ZN5RiscV22executeSemCloseSyscallEv:
 1178              	.LFB59:
 383:src/kernel/riscv.cpp **** 
 1179              		.loc 1 383 38 is_stmt 1
 1180              		.cfi_startproc
 1181 0590 130101FE 		addi	sp,sp,-32
 1182              		.cfi_def_cfa_offset 32
 1183 0594 233C1100 		sd	ra,24(sp)
 1184 0598 23388100 		sd	s0,16(sp)
 1185 059c 23349100 		sd	s1,8(sp)
 1186              		.cfi_offset 1, -8
 1187              		.cfi_offset 8, -16
 1188              		.cfi_offset 9, -24
 1189 05a0 13040102 		addi	s0,sp,32
 1190              		.cfi_def_cfa 8, 0
 386:src/kernel/riscv.cpp **** 
 1191              		.loc 1 386 5
 388:src/kernel/riscv.cpp **** 
GAS LISTING /tmp/ccP6cCkB.s 			page 40


 1192              		.loc 1 388 5
 388:src/kernel/riscv.cpp **** 
 1193              		.loc 1 388 55 is_stmt 0
 1194              	#APP
 1195              	# 388 "src/kernel/riscv.cpp" 1
 1196              		mv s1, a1
 1197              	# 0 "" 2
 1198              	.LVL82:
 391:src/kernel/riscv.cpp ****     uint64 status = 0;
 1199              		.loc 1 391 5 is_stmt 1
 392:src/kernel/riscv.cpp **** 
 1200              		.loc 1 392 5
 394:src/kernel/riscv.cpp ****         status = -1;
 1201              		.loc 1 394 5
 1202              	#NO_APP
 1203 05a8 63940402 		bnez	s1,.L68
 395:src/kernel/riscv.cpp ****     }
 1204              		.loc 1 395 16 is_stmt 0
 1205 05ac 9307F0FF 		li	a5,-1
 1206              	.L65:
 1207              	.LVL83:
 401:src/kernel/riscv.cpp **** 
 1208              		.loc 1 401 5 is_stmt 1
 401:src/kernel/riscv.cpp **** 
 1209              		.loc 1 401 54 is_stmt 0
 1210              	#APP
 1211              	# 401 "src/kernel/riscv.cpp" 1
 403:src/kernel/riscv.cpp **** }
 1212              		mv a0, a5
 1213              	# 0 "" 2
 1214              		.loc 1 403 5 is_stmt 1
 403:src/kernel/riscv.cpp **** }
 1215              		.loc 1 403 28 is_stmt 0
 1216              	#NO_APP
 1217 05b4 97000000 		call	_ZN5RiscV16saveA0toSscratchEv
 1217      E7800000 
 1218              	.LVL84:
 404:src/kernel/riscv.cpp **** 
 1219              		.loc 1 404 1
 1220 05bc 83308101 		ld	ra,24(sp)
 1221              		.cfi_remember_state
 1222              		.cfi_restore 1
 1223 05c0 03340101 		ld	s0,16(sp)
 1224              		.cfi_restore 8
 1225              		.cfi_def_cfa 2, 32
 1226 05c4 83348100 		ld	s1,8(sp)
 1227              		.cfi_restore 9
 1228              	.LVL85:
 1229 05c8 13010102 		addi	sp,sp,32
 1230              		.cfi_def_cfa_offset 0
 1231 05cc 67800000 		jr	ra
 1232              	.LVL86:
 1233              	.L68:
 1234              		.cfi_restore_state
 398:src/kernel/riscv.cpp **** 
 1235              		.loc 1 398 9 is_stmt 1 discriminator 1
 398:src/kernel/riscv.cpp **** 
GAS LISTING /tmp/ccP6cCkB.s 			page 41


 1236              		.loc 1 398 22 is_stmt 0 discriminator 1
 1237 05d0 13850400 		mv	a0,s1
 1238 05d4 97000000 		call	_ZN3SCBD1Ev@plt
 1238      E7800000 
 1239              	.LVL87:
 1240 05dc 13850400 		mv	a0,s1
 1241 05e0 97000000 		call	_ZN3SCBdlEPv@plt
 1241      E7800000 
 1242              	.LVL88:
 392:src/kernel/riscv.cpp **** 
 1243              		.loc 1 392 12 discriminator 1
 1244 05e8 93070000 		li	a5,0
 1245 05ec 6FF05FFC 		j	.L65
 1246              		.cfi_endproc
 1247              	.LFE59:
 1249              		.align	2
 1250              		.globl	_ZN5RiscV21executeSemWaitSyscallEv
 1252              	_ZN5RiscV21executeSemWaitSyscallEv:
 1253              	.LFB60:
 406:src/kernel/riscv.cpp **** 
 1254              		.loc 1 406 37 is_stmt 1
 1255              		.cfi_startproc
 1256 05f0 130101FF 		addi	sp,sp,-16
 1257              		.cfi_def_cfa_offset 16
 1258 05f4 23341100 		sd	ra,8(sp)
 1259 05f8 23308100 		sd	s0,0(sp)
 1260              		.cfi_offset 1, -8
 1261              		.cfi_offset 8, -16
 1262 05fc 13040101 		addi	s0,sp,16
 1263              		.cfi_def_cfa 8, 0
 409:src/kernel/riscv.cpp **** 
 1264              		.loc 1 409 5
 411:src/kernel/riscv.cpp **** 
 1265              		.loc 1 411 5
 411:src/kernel/riscv.cpp **** 
 1266              		.loc 1 411 55 is_stmt 0
 1267              	#APP
 1268              	# 411 "src/kernel/riscv.cpp" 1
 1269              		mv a0, a1
 1270              	# 0 "" 2
 1271              	.LVL89:
 413:src/kernel/riscv.cpp ****     //call wait method on ihandle scb
 1272              		.loc 1 413 5 is_stmt 1
 416:src/kernel/riscv.cpp ****         ((SCB*)ihandle)->wait();
 1273              		.loc 1 416 5
 1274              	#NO_APP
 1275 0604 631C0502 		bnez	a0,.L74
 1276              	.LVL90:
 1277              	.L70:
 421:src/kernel/riscv.cpp ****         status = -1;
 1278              		.loc 1 421 5
 421:src/kernel/riscv.cpp ****         status = -1;
 1279              		.loc 1 421 22 is_stmt 0
 1280 0608 97070000 		la	a5,_ZN3TCB7runningE
 1280      83B70700 
 1281 0610 83B70700 		ld	a5,0(a5)
 1282 0614 83B70706 		ld	a5,96(a5)
GAS LISTING /tmp/ccP6cCkB.s 			page 42


 421:src/kernel/riscv.cpp ****         status = -1;
 1283              		.loc 1 421 5
 1284 0618 63880702 		beqz	a5,.L72
 422:src/kernel/riscv.cpp ****     else
 1285              		.loc 1 422 16
 1286 061c 9307F0FF 		li	a5,-1
 1287              	.L71:
 1288              	.LVL91:
 427:src/kernel/riscv.cpp **** 
 1289              		.loc 1 427 5 is_stmt 1
 427:src/kernel/riscv.cpp **** 
 1290              		.loc 1 427 54 is_stmt 0
 1291              	#APP
 1292              	# 427 "src/kernel/riscv.cpp" 1
 429:src/kernel/riscv.cpp **** 
 1293              		mv a0, a5
 1294              	# 0 "" 2
 1295              		.loc 1 429 5 is_stmt 1
 429:src/kernel/riscv.cpp **** 
 1296              		.loc 1 429 28 is_stmt 0
 1297              	#NO_APP
 1298 0624 97000000 		call	_ZN5RiscV16saveA0toSscratchEv
 1298      E7800000 
 1299              	.LVL92:
 431:src/kernel/riscv.cpp **** 
 1300              		.loc 1 431 1
 1301 062c 83308100 		ld	ra,8(sp)
 1302              		.cfi_remember_state
 1303              		.cfi_restore 1
 1304 0630 03340100 		ld	s0,0(sp)
 1305              		.cfi_restore 8
 1306              		.cfi_def_cfa 2, 16
 1307 0634 13010101 		addi	sp,sp,16
 1308              		.cfi_def_cfa_offset 0
 1309 0638 67800000 		jr	ra
 1310              	.LVL93:
 1311              	.L74:
 1312              		.cfi_restore_state
 417:src/kernel/riscv.cpp ****     else
 1313              		.loc 1 417 9 is_stmt 1
 417:src/kernel/riscv.cpp ****     else
 1314              		.loc 1 417 30 is_stmt 0
 1315 063c 97000000 		call	_ZN3SCB4waitEv@plt
 1315      E7800000 
 1316              	.LVL94:
 1317 0644 6FF05FFC 		j	.L70
 1318              	.LVL95:
 1319              	.L72:
 424:src/kernel/riscv.cpp **** 
 1320              		.loc 1 424 16
 1321 0648 93070000 		li	a5,0
 1322 064c 6FF05FFD 		j	.L71
 1323              		.cfi_endproc
 1324              	.LFE60:
 1326              		.align	2
 1327              		.globl	_ZN5RiscV23executeSemSignalSyscallEv
 1329              	_ZN5RiscV23executeSemSignalSyscallEv:
GAS LISTING /tmp/ccP6cCkB.s 			page 43


 1330              	.LFB61:
 433:src/kernel/riscv.cpp **** 
 1331              		.loc 1 433 39 is_stmt 1
 1332              		.cfi_startproc
 1333 0650 130101FF 		addi	sp,sp,-16
 1334              		.cfi_def_cfa_offset 16
 1335 0654 23341100 		sd	ra,8(sp)
 1336 0658 23308100 		sd	s0,0(sp)
 1337              		.cfi_offset 1, -8
 1338              		.cfi_offset 8, -16
 1339 065c 13040101 		addi	s0,sp,16
 1340              		.cfi_def_cfa 8, 0
 436:src/kernel/riscv.cpp **** 
 1341              		.loc 1 436 5
 438:src/kernel/riscv.cpp **** 
 1342              		.loc 1 438 5
 438:src/kernel/riscv.cpp **** 
 1343              		.loc 1 438 55 is_stmt 0
 1344              	#APP
 1345              	# 438 "src/kernel/riscv.cpp" 1
 1346              		mv a0, a1
 1347              	# 0 "" 2
 1348              	.LVL96:
 442:src/kernel/riscv.cpp **** 
 1349              		.loc 1 442 5 is_stmt 1
 444:src/kernel/riscv.cpp ****         ((SCB*)ihandle)->signal();
 1350              		.loc 1 444 5
 1351              	#NO_APP
 1352 0664 63120502 		bnez	a0,.L79
 447:src/kernel/riscv.cpp **** 
 1353              		.loc 1 447 16 is_stmt 0
 1354 0668 9307F0FF 		li	a5,-1
 1355              	.LVL97:
 1356              	.L76:
 450:src/kernel/riscv.cpp **** 
 1357              		.loc 1 450 5 is_stmt 1
 450:src/kernel/riscv.cpp **** 
 1358              		.loc 1 450 54 is_stmt 0
 1359              	#APP
 1360              	# 450 "src/kernel/riscv.cpp" 1
 452:src/kernel/riscv.cpp **** }
 1361              		mv a0, a5
 1362              	# 0 "" 2
 1363              		.loc 1 452 5 is_stmt 1
 452:src/kernel/riscv.cpp **** }
 1364              		.loc 1 452 28 is_stmt 0
 1365              	#NO_APP
 1366 0670 97000000 		call	_ZN5RiscV16saveA0toSscratchEv
 1366      E7800000 
 1367              	.LVL98:
 453:src/kernel/riscv.cpp **** 
 1368              		.loc 1 453 1
 1369 0678 83308100 		ld	ra,8(sp)
 1370              		.cfi_remember_state
 1371              		.cfi_restore 1
 1372 067c 03340100 		ld	s0,0(sp)
 1373              		.cfi_restore 8
GAS LISTING /tmp/ccP6cCkB.s 			page 44


 1374              		.cfi_def_cfa 2, 16
 1375 0680 13010101 		addi	sp,sp,16
 1376              		.cfi_def_cfa_offset 0
 1377 0684 67800000 		jr	ra
 1378              	.LVL99:
 1379              	.L79:
 1380              		.cfi_restore_state
 445:src/kernel/riscv.cpp ****     else
 1381              		.loc 1 445 9 is_stmt 1
 445:src/kernel/riscv.cpp ****     else
 1382              		.loc 1 445 32 is_stmt 0
 1383 0688 97000000 		call	_ZN3SCB6signalEv@plt
 1383      E7800000 
 1384              	.LVL100:
 442:src/kernel/riscv.cpp **** 
 1385              		.loc 1 442 12
 1386 0690 93070000 		li	a5,0
 1387 0694 6FF09FFD 		j	.L76
 1388              		.cfi_endproc
 1389              	.LFE61:
 1391              		.align	2
 1392              		.globl	_ZN5RiscV23executeTimeSleepSyscallEv
 1394              	_ZN5RiscV23executeTimeSleepSyscallEv:
 1395              	.LFB62:
 455:src/kernel/riscv.cpp **** 
 1396              		.loc 1 455 39 is_stmt 1
 1397              		.cfi_startproc
 1398 0698 130101FE 		addi	sp,sp,-32
 1399              		.cfi_def_cfa_offset 32
 1400 069c 233C1100 		sd	ra,24(sp)
 1401 06a0 23388100 		sd	s0,16(sp)
 1402 06a4 23349100 		sd	s1,8(sp)
 1403              		.cfi_offset 1, -8
 1404              		.cfi_offset 8, -16
 1405              		.cfi_offset 9, -24
 1406 06a8 13040102 		addi	s0,sp,32
 1407              		.cfi_def_cfa 8, 0
 458:src/kernel/riscv.cpp **** 
 1408              		.loc 1 458 5
 460:src/kernel/riscv.cpp **** 
 1409              		.loc 1 460 5
 460:src/kernel/riscv.cpp **** 
 1410              		.loc 1 460 49 is_stmt 0
 1411              	#APP
 1412              	# 460 "src/kernel/riscv.cpp" 1
 464:src/kernel/riscv.cpp ****     tcb->sleepTime = globalTime;
 1413              		mv a4, a1
 1414              	# 0 "" 2
 1415              		.loc 1 464 5 is_stmt 1
 464:src/kernel/riscv.cpp ****     tcb->sleepTime = globalTime;
 1416              		.loc 1 464 10 is_stmt 0
 1417              	#NO_APP
 1418 06b0 97070000 		la	a5,_ZN3TCB7runningE
 1418      83B70700 
 1419 06b8 83B40700 		ld	s1,0(a5)
 1420              	.LVL101:
 465:src/kernel/riscv.cpp ****     tcb->wakeTime = globalTime + itime;
GAS LISTING /tmp/ccP6cCkB.s 			page 45


 1421              		.loc 1 465 5 is_stmt 1
 465:src/kernel/riscv.cpp ****     tcb->wakeTime = globalTime + itime;
 1422              		.loc 1 465 20 is_stmt 0
 1423 06bc 97070000 		ld	a5,.LANCHOR0+8
 1423      83B70700 
 1424 06c4 23B8F404 		sd	a5,80(s1)
 466:src/kernel/riscv.cpp **** 
 1425              		.loc 1 466 5 is_stmt 1
 466:src/kernel/riscv.cpp **** 
 1426              		.loc 1 466 32 is_stmt 0
 1427 06c8 B387E700 		add	a5,a5,a4
 466:src/kernel/riscv.cpp **** 
 1428              		.loc 1 466 19
 1429 06cc 23BCF404 		sd	a5,88(s1)
 468:src/kernel/riscv.cpp **** 
 1430              		.loc 1 468 5 is_stmt 1
 468:src/kernel/riscv.cpp **** 
 1431              		.loc 1 468 21 is_stmt 0
 1432 06d0 13850400 		mv	a0,s1
 1433 06d4 97000000 		call	_ZN9Scheduler5sleepEP3TCB@plt
 1433      E7800000 
 1434              	.LVL102:
 470:src/kernel/riscv.cpp **** 
 1435              		.loc 1 470 5 is_stmt 1
 470:src/kernel/riscv.cpp **** 
 1436              		.loc 1 470 17 is_stmt 0
 1437 06dc 93073000 		li	a5,3
 1438 06e0 23A8F400 		sw	a5,16(s1)
 472:src/kernel/riscv.cpp **** 
 1439              		.loc 1 472 5 is_stmt 1
 472:src/kernel/riscv.cpp **** 
 1440              		.loc 1 472 18 is_stmt 0
 1441 06e4 97000000 		call	_ZN3TCB8dispatchEv@plt
 1441      E7800000 
 1442              	.LVL103:
 474:src/kernel/riscv.cpp **** 
 1443              		.loc 1 474 5 is_stmt 1
 477:src/kernel/riscv.cpp **** 
 1444              		.loc 1 477 5
 477:src/kernel/riscv.cpp **** 
 1445              		.loc 1 477 54 is_stmt 0
 1446 06ec 93070000 		li	a5,0
 1447              	#APP
 1448              	# 477 "src/kernel/riscv.cpp" 1
 479:src/kernel/riscv.cpp **** }
 1449              		mv a0, a5
 1450              	# 0 "" 2
 1451              		.loc 1 479 5 is_stmt 1
 479:src/kernel/riscv.cpp **** }
 1452              		.loc 1 479 28 is_stmt 0
 1453              	#NO_APP
 1454 06f4 97000000 		call	_ZN5RiscV16saveA0toSscratchEv
 1454      E7800000 
 1455              	.LVL104:
 480:src/kernel/riscv.cpp **** 
 1456              		.loc 1 480 1
 1457 06fc 83308101 		ld	ra,24(sp)
GAS LISTING /tmp/ccP6cCkB.s 			page 46


 1458              		.cfi_restore 1
 1459 0700 03340101 		ld	s0,16(sp)
 1460              		.cfi_restore 8
 1461              		.cfi_def_cfa 2, 32
 1462 0704 83348100 		ld	s1,8(sp)
 1463              		.cfi_restore 9
 1464              	.LVL105:
 1465 0708 13010102 		addi	sp,sp,32
 1466              		.cfi_def_cfa_offset 0
 1467 070c 67800000 		jr	ra
 1468              		.cfi_endproc
 1469              	.LFE62:
 1471              		.align	2
 1472              		.globl	_ZN5RiscV18executeGetcSyscallEv
 1474              	_ZN5RiscV18executeGetcSyscallEv:
 1475              	.LFB63:
 482:src/kernel/riscv.cpp **** 
 1476              		.loc 1 482 34 is_stmt 1
 1477              		.cfi_startproc
 1478 0710 130101FE 		addi	sp,sp,-32
 1479              		.cfi_def_cfa_offset 32
 1480 0714 233C1100 		sd	ra,24(sp)
 1481 0718 23388100 		sd	s0,16(sp)
 1482 071c 23349100 		sd	s1,8(sp)
 1483              		.cfi_offset 1, -8
 1484              		.cfi_offset 8, -16
 1485              		.cfi_offset 9, -24
 1486 0720 13040102 		addi	s0,sp,32
 1487              		.cfi_def_cfa 8, 0
 485:src/kernel/riscv.cpp ****         ConsoleUtil::pendingGetc++;
 1488              		.loc 1 485 5
 485:src/kernel/riscv.cpp ****         ConsoleUtil::pendingGetc++;
 1489              		.loc 1 485 8 is_stmt 0
 1490 0724 97070000 		lbu	a5,.LANCHOR0
 1490      83C70700 
 485:src/kernel/riscv.cpp ****         ConsoleUtil::pendingGetc++;
 1491              		.loc 1 485 5
 1492 072c 639C0700 		bnez	a5,.L83
 486:src/kernel/riscv.cpp **** 
 1493              		.loc 1 486 9 is_stmt 1
 486:src/kernel/riscv.cpp **** 
 1494              		.loc 1 486 33 is_stmt 0
 1495 0730 17070000 		la	a4,_ZN11ConsoleUtil11pendingGetcE
 1495      03370700 
 1496 0738 83370700 		ld	a5,0(a4)
 1497 073c 93871700 		addi	a5,a5,1
 1498 0740 2330F700 		sd	a5,0(a4)
 1499              	.L83:
 489:src/kernel/riscv.cpp **** 
 1500              		.loc 1 489 5 is_stmt 1
 489:src/kernel/riscv.cpp **** 
 1501              		.loc 1 489 35 is_stmt 0
 1502 0744 97000000 		call	_ZN11ConsoleUtil8getInputEv@plt
 1502      E7800000 
 1503              	.LVL106:
 1504 074c 93040500 		mv	s1,a0
 1505              	.LVL107:
GAS LISTING /tmp/ccP6cCkB.s 			page 47


 492:src/kernel/riscv.cpp ****         ConsoleUtil::putOutput(13);
 1506              		.loc 1 492 5 is_stmt 1
 1507 0750 9307D000 		li	a5,13
 1508 0754 6306F502 		beq	a0,a5,.L87
 497:src/kernel/riscv.cpp ****         ConsoleUtil::putOutput(c);
 1509              		.loc 1 497 10
 1510 0758 9307B001 		li	a5,27
 1511 075c 6310F504 		bne	a0,a5,.L88
 1512              	.LVL108:
 1513              	.L85:
 501:src/kernel/riscv.cpp **** 
 1514              		.loc 1 501 5
 501:src/kernel/riscv.cpp **** 
 1515              		.loc 1 501 39 is_stmt 0
 1516              	#APP
 1517              	# 501 "src/kernel/riscv.cpp" 1
 503:src/kernel/riscv.cpp **** }
 1518              		mv a0, s1
 1519              	# 0 "" 2
 1520              		.loc 1 503 5 is_stmt 1
 503:src/kernel/riscv.cpp **** }
 1521              		.loc 1 503 28 is_stmt 0
 1522              	#NO_APP
 1523 0764 97000000 		call	_ZN5RiscV16saveA0toSscratchEv
 1523      E7800000 
 1524              	.LVL109:
 504:src/kernel/riscv.cpp **** 
 1525              		.loc 1 504 1
 1526 076c 83308101 		ld	ra,24(sp)
 1527              		.cfi_remember_state
 1528              		.cfi_restore 1
 1529 0770 03340101 		ld	s0,16(sp)
 1530              		.cfi_restore 8
 1531              		.cfi_def_cfa 2, 32
 1532 0774 83348100 		ld	s1,8(sp)
 1533              		.cfi_restore 9
 1534 0778 13010102 		addi	sp,sp,32
 1535              		.cfi_def_cfa_offset 0
 1536 077c 67800000 		jr	ra
 1537              	.LVL110:
 1538              	.L87:
 1539              		.cfi_restore_state
 493:src/kernel/riscv.cpp ****         ConsoleUtil::putOutput(10);
 1540              		.loc 1 493 9 is_stmt 1
 493:src/kernel/riscv.cpp ****         ConsoleUtil::putOutput(10);
 1541              		.loc 1 493 31 is_stmt 0
 1542 0780 1305D000 		li	a0,13
 1543              	.LVL111:
 1544 0784 97000000 		call	_ZN11ConsoleUtil9putOutputEc@plt
 1544      E7800000 
 1545              	.LVL112:
 494:src/kernel/riscv.cpp ****     }
 1546              		.loc 1 494 9 is_stmt 1
 494:src/kernel/riscv.cpp ****     }
 1547              		.loc 1 494 31 is_stmt 0
 1548 078c 1305A000 		li	a0,10
 1549 0790 97000000 		call	_ZN11ConsoleUtil9putOutputEc@plt
GAS LISTING /tmp/ccP6cCkB.s 			page 48


 1549      E7800000 
 1550              	.LVL113:
 1551 0798 6FF09FFC 		j	.L85
 1552              	.LVL114:
 1553              	.L88:
 498:src/kernel/riscv.cpp **** 
 1554              		.loc 1 498 9 is_stmt 1
 498:src/kernel/riscv.cpp **** 
 1555              		.loc 1 498 31 is_stmt 0
 1556 079c 97000000 		call	_ZN11ConsoleUtil9putOutputEc@plt
 1556      E7800000 
 1557              	.LVL115:
 1558 07a4 6FF0DFFB 		j	.L85
 1559              		.cfi_endproc
 1560              	.LFE63:
 1562              		.align	2
 1563              		.globl	_ZN5RiscV22executePutcUtilSyscallEv
 1565              	_ZN5RiscV22executePutcUtilSyscallEv:
 1566              	.LFB66:
 554:src/kernel/riscv.cpp ****     char c = ConsoleUtil::getOutput();
 1567              		.loc 1 554 38 is_stmt 1
 1568              		.cfi_startproc
 1569 07a8 130101FF 		addi	sp,sp,-16
 1570              		.cfi_def_cfa_offset 16
 1571 07ac 23341100 		sd	ra,8(sp)
 1572 07b0 23308100 		sd	s0,0(sp)
 1573              		.cfi_offset 1, -8
 1574              		.cfi_offset 8, -16
 1575 07b4 13040101 		addi	s0,sp,16
 1576              		.cfi_def_cfa 8, 0
 555:src/kernel/riscv.cpp ****     asm("mv a0, %[c]" : : [c] "r" ((uint64)(c)) );
 1577              		.loc 1 555 5
 555:src/kernel/riscv.cpp ****     asm("mv a0, %[c]" : : [c] "r" ((uint64)(c)) );
 1578              		.loc 1 555 36 is_stmt 0
 1579 07b8 97000000 		call	_ZN11ConsoleUtil9getOutputEv@plt
 1579      E7800000 
 1580              	.LVL116:
 556:src/kernel/riscv.cpp **** 
 1581              		.loc 1 556 5 is_stmt 1
 556:src/kernel/riscv.cpp **** 
 1582              		.loc 1 556 50 is_stmt 0
 1583              	#APP
 1584              	# 556 "src/kernel/riscv.cpp" 1
 558:src/kernel/riscv.cpp **** }
 1585              		mv a0, a0
 1586              	# 0 "" 2
 1587              		.loc 1 558 5 is_stmt 1
 558:src/kernel/riscv.cpp **** }
 1588              		.loc 1 558 28 is_stmt 0
 1589              	#NO_APP
 1590 07c4 97000000 		call	_ZN5RiscV16saveA0toSscratchEv
 1590      E7800000 
 1591              	.LVL117:
 559:src/kernel/riscv.cpp **** 
 1592              		.loc 1 559 1
 1593 07cc 83308100 		ld	ra,8(sp)
 1594              		.cfi_restore 1
GAS LISTING /tmp/ccP6cCkB.s 			page 49


 1595 07d0 03340100 		ld	s0,0(sp)
 1596              		.cfi_restore 8
 1597              		.cfi_def_cfa 2, 16
 1598 07d4 13010101 		addi	sp,sp,16
 1599              		.cfi_def_cfa_offset 0
 1600 07d8 67800000 		jr	ra
 1601              		.cfi_endproc
 1602              	.LFE66:
 1604              		.align	2
 1605              		.globl	_ZN5RiscV24executeThreadFreeSyscallEv
 1607              	_ZN5RiscV24executeThreadFreeSyscallEv:
 1608              	.LFB70:
 599:src/kernel/riscv.cpp **** 
 600:src/kernel/riscv.cpp **** //syscall to free the space that is allocated for thread
 601:src/kernel/riscv.cpp **** void RiscV::executeThreadFreeSyscall() {
 1609              		.loc 1 601 40 is_stmt 1
 1610              		.cfi_startproc
 1611 07dc 130101FE 		addi	sp,sp,-32
 1612              		.cfi_def_cfa_offset 32
 1613 07e0 233C1100 		sd	ra,24(sp)
 1614 07e4 23388100 		sd	s0,16(sp)
 1615 07e8 23349100 		sd	s1,8(sp)
 1616              		.cfi_offset 1, -8
 1617              		.cfi_offset 8, -16
 1618              		.cfi_offset 9, -24
 1619 07ec 13040102 		addi	s0,sp,32
 1620              		.cfi_def_cfa 8, 0
 602:src/kernel/riscv.cpp ****     uint64 iaddr, status;
 1621              		.loc 1 602 5
 603:src/kernel/riscv.cpp **** 
 604:src/kernel/riscv.cpp ****     asm("mv %[iaddr], a1" : [iaddr] "=r"(iaddr));
 1622              		.loc 1 604 5
 1623              		.loc 1 604 49 is_stmt 0
 1624              	#APP
 1625              	# 604 "src/kernel/riscv.cpp" 1
 605              	
 1626              		mv s1, a1
 1627              	# 0 "" 2
 1628              	.LVL118:
 606:src/kernel/riscv.cpp ****     TCB *thr = (TCB*)iaddr;
 1629              		.loc 1 606 5 is_stmt 1
 607:src/kernel/riscv.cpp **** 
 608:src/kernel/riscv.cpp ****     if(thr == nullptr)
 1630              		.loc 1 608 5
 1631              	#NO_APP
 1632 07f4 63940402 		bnez	s1,.L94
 1633              	.L92:
 1634              	.LVL119:
 609:src/kernel/riscv.cpp ****         status = -1;
 610:src/kernel/riscv.cpp ****     else {
 611:src/kernel/riscv.cpp ****         kfree(thr->stack);
 612:src/kernel/riscv.cpp ****         delete thr;
 613:src/kernel/riscv.cpp ****     }
 614:src/kernel/riscv.cpp **** 
 615:src/kernel/riscv.cpp ****     //return status
 616:src/kernel/riscv.cpp ****     asm("mv a0, %[status]" : : [status] "r" (status));
 1635              		.loc 1 616 5
GAS LISTING /tmp/ccP6cCkB.s 			page 50


 1636              		.loc 1 616 54 is_stmt 0
 1637 07f8 9307F0FF 		li	a5,-1
 1638              	#APP
 1639              	# 616 "src/kernel/riscv.cpp" 1
 617              	
 618:src/kernel/riscv.cpp ****     RiscV::saveA0toSscratch();
 1640              		mv a0, a5
 1641              	# 0 "" 2
 1642              		.loc 1 618 5 is_stmt 1
 1643              		.loc 1 618 28 is_stmt 0
 1644              	#NO_APP
 1645 0800 97000000 		call	_ZN5RiscV16saveA0toSscratchEv
 1645      E7800000 
 1646              	.LVL120:
 619:src/kernel/riscv.cpp **** }
 1647              		.loc 1 619 1
 1648 0808 83308101 		ld	ra,24(sp)
 1649              		.cfi_remember_state
 1650              		.cfi_restore 1
 1651 080c 03340101 		ld	s0,16(sp)
 1652              		.cfi_restore 8
 1653              		.cfi_def_cfa 2, 32
 1654 0810 83348100 		ld	s1,8(sp)
 1655              		.cfi_restore 9
 1656              	.LVL121:
 1657 0814 13010102 		addi	sp,sp,32
 1658              		.cfi_def_cfa_offset 0
 1659 0818 67800000 		jr	ra
 1660              	.LVL122:
 1661              	.L94:
 1662              		.cfi_restore_state
 611:src/kernel/riscv.cpp ****         delete thr;
 1663              		.loc 1 611 9 is_stmt 1
 611:src/kernel/riscv.cpp ****         delete thr;
 1664              		.loc 1 611 14 is_stmt 0
 1665 081c 03B58402 		ld	a0,40(s1)
 1666 0820 97000000 		call	_Z5kfreePKv@plt
 1666      E7800000 
 1667              	.LVL123:
 612:src/kernel/riscv.cpp ****     }
 1668              		.loc 1 612 9 is_stmt 1
 612:src/kernel/riscv.cpp ****     }
 1669              		.loc 1 612 16 is_stmt 0
 1670 0828 13850400 		mv	a0,s1
 1671 082c 97000000 		call	_ZN3TCBD1Ev@plt
 1671      E7800000 
 1672              	.LVL124:
 1673 0834 13850400 		mv	a0,s1
 1674 0838 97000000 		call	_ZN3TCBdlEPv@plt
 1674      E7800000 
 1675              	.LVL125:
 1676 0840 6FF09FFB 		j	.L92
 1677              		.cfi_endproc
 1678              	.LFE70:
 1680              		.align	2
 1681              		.globl	_ZN5RiscV27executeSemaphoreFreeSyscallEv
 1683              	_ZN5RiscV27executeSemaphoreFreeSyscallEv:
GAS LISTING /tmp/ccP6cCkB.s 			page 51


 1684              	.LFB71:
 620:src/kernel/riscv.cpp **** 
 621:src/kernel/riscv.cpp **** //syscall to free the space that is allocated for semaphore
 622:src/kernel/riscv.cpp **** void RiscV::executeSemaphoreFreeSyscall() {
 1685              		.loc 1 622 43 is_stmt 1
 1686              		.cfi_startproc
 1687 0844 130101FE 		addi	sp,sp,-32
 1688              		.cfi_def_cfa_offset 32
 1689 0848 233C1100 		sd	ra,24(sp)
 1690 084c 23388100 		sd	s0,16(sp)
 1691 0850 23349100 		sd	s1,8(sp)
 1692              		.cfi_offset 1, -8
 1693              		.cfi_offset 8, -16
 1694              		.cfi_offset 9, -24
 1695 0854 13040102 		addi	s0,sp,32
 1696              		.cfi_def_cfa 8, 0
 623:src/kernel/riscv.cpp ****     uint64 iaddr, status;
 1697              		.loc 1 623 5
 624:src/kernel/riscv.cpp **** 
 625:src/kernel/riscv.cpp ****     //call internal allocator and free memory which iaddr points to
 626:src/kernel/riscv.cpp ****     asm("mv %[iaddr], a1" : [iaddr] "=r"(iaddr));
 1698              		.loc 1 626 5
 1699              		.loc 1 626 49 is_stmt 0
 1700              	#APP
 1701              	# 626 "src/kernel/riscv.cpp" 1
 627              	
 1702              		mv s1, a1
 1703              	# 0 "" 2
 1704              	.LVL126:
 628:src/kernel/riscv.cpp ****     SCB *scb = (SCB*)iaddr;
 1705              		.loc 1 628 5 is_stmt 1
 629:src/kernel/riscv.cpp **** 
 630:src/kernel/riscv.cpp ****     if(scb == nullptr){
 1706              		.loc 1 630 5
 1707              	#NO_APP
 1708 085c 63940402 		bnez	s1,.L98
 1709              	.L96:
 1710              	.LVL127:
 631:src/kernel/riscv.cpp ****         status = -1;
 632:src/kernel/riscv.cpp ****     }
 633:src/kernel/riscv.cpp ****     else
 634:src/kernel/riscv.cpp ****         delete scb;
 635:src/kernel/riscv.cpp **** 
 636:src/kernel/riscv.cpp ****     //return status
 637:src/kernel/riscv.cpp ****     asm("mv a0, %[status]" : : [status] "r" (status));
 1711              		.loc 1 637 5
 1712              		.loc 1 637 54 is_stmt 0
 1713 0860 9307F0FF 		li	a5,-1
 1714              	#APP
 1715              	# 637 "src/kernel/riscv.cpp" 1
 638              	
 639:src/kernel/riscv.cpp ****     RiscV::saveA0toSscratch();
 1716              		mv a0, a5
 1717              	# 0 "" 2
 1718              		.loc 1 639 5 is_stmt 1
 1719              		.loc 1 639 28 is_stmt 0
 1720              	#NO_APP
GAS LISTING /tmp/ccP6cCkB.s 			page 52


 1721 0868 97000000 		call	_ZN5RiscV16saveA0toSscratchEv
 1721      E7800000 
 1722              	.LVL128:
 640:src/kernel/riscv.cpp **** }
 1723              		.loc 1 640 1
 1724 0870 83308101 		ld	ra,24(sp)
 1725              		.cfi_remember_state
 1726              		.cfi_restore 1
 1727 0874 03340101 		ld	s0,16(sp)
 1728              		.cfi_restore 8
 1729              		.cfi_def_cfa 2, 32
 1730 0878 83348100 		ld	s1,8(sp)
 1731              		.cfi_restore 9
 1732              	.LVL129:
 1733 087c 13010102 		addi	sp,sp,32
 1734              		.cfi_def_cfa_offset 0
 1735 0880 67800000 		jr	ra
 1736              	.LVL130:
 1737              	.L98:
 1738              		.cfi_restore_state
 634:src/kernel/riscv.cpp **** 
 1739              		.loc 1 634 9 is_stmt 1 discriminator 1
 634:src/kernel/riscv.cpp **** 
 1740              		.loc 1 634 16 is_stmt 0 discriminator 1
 1741 0884 13850400 		mv	a0,s1
 1742 0888 97000000 		call	_ZN3SCBD1Ev@plt
 1742      E7800000 
 1743              	.LVL131:
 1744 0890 13850400 		mv	a0,s1
 1745 0894 97000000 		call	_ZN3SCBdlEPv@plt
 1745      E7800000 
 1746              	.LVL132:
 1747 089c 6FF05FFC 		j	.L96
 1748              		.cfi_endproc
 1749              	.LFE71:
 1751              		.align	2
 1752              		.globl	_ZN5RiscV5getPCEv
 1754              	_ZN5RiscV5getPCEv:
 1755              	.LFB73:
 641:src/kernel/riscv.cpp **** 
 642:src/kernel/riscv.cpp **** //fork syscall
 643:src/kernel/riscv.cpp **** void RiscV::executeForkSyscall() {
 644:src/kernel/riscv.cpp **** 
 645:src/kernel/riscv.cpp ****     //create new stack and copy stack from currently running stack into the new one
 646:src/kernel/riscv.cpp ****     uint64 *stack = (uint64*)MemoryAllocator::kmalloc((DEFAULT_STACK_SIZE+MEM_BLOCK_SIZE-1)/MEM_BLO
 647:src/kernel/riscv.cpp ****     handlePageFault(kPMT, (uint64)stack, 0x17);
 648:src/kernel/riscv.cpp **** 
 649:src/kernel/riscv.cpp ****     MemoryAllocator::memcpy((void*)TCB::running->stack,(void*)stack,DEFAULT_STACK_SIZE);
 650:src/kernel/riscv.cpp **** 
 651:src/kernel/riscv.cpp ****     //create new TCB for new thread
 652:src/kernel/riscv.cpp ****     TCB *forked = new TCB(nullptr, nullptr, stack, DEFAULT_TIME_SLICE);
 653:src/kernel/riscv.cpp **** 
 654:src/kernel/riscv.cpp ****     uint64 status = 0;
 655:src/kernel/riscv.cpp **** 
 656:src/kernel/riscv.cpp ****     if(forked) {
 657:src/kernel/riscv.cpp **** 
 658:src/kernel/riscv.cpp ****         //set return address where forked thread should return
GAS LISTING /tmp/ccP6cCkB.s 			page 53


 659:src/kernel/riscv.cpp ****         forked->context.ra = TCB::currentPC;
 660:src/kernel/riscv.cpp **** 
 661:src/kernel/riscv.cpp ****         //set SP value where forked thread's stack starts
 662:src/kernel/riscv.cpp ****         forked->context.sp = (uint64)((char*)stack + TCB::currentSP - (char*)TCB::running->stack);
 663:src/kernel/riscv.cpp **** 
 664:src/kernel/riscv.cpp ****         //get memory location of where registers are stored from previous context switch
 665:src/kernel/riscv.cpp ****         uint64 registerStartSP = (uint64)((char*)TCB::running->a0Location - (char*)TCB::running->st
 666:src/kernel/riscv.cpp **** 
 667:src/kernel/riscv.cpp ****         forked->a0Location = registerStartSP;
 668:src/kernel/riscv.cpp **** 
 669:src/kernel/riscv.cpp ****         uint64 a1,a0;
 670:src/kernel/riscv.cpp **** 
 671:src/kernel/riscv.cpp ****         //write address of stored registers in SP of forked thread so that it can return regularly
 672:src/kernel/riscv.cpp ****         asm("mv %[a1], a1": [a1] "=r"(a1));
 673:src/kernel/riscv.cpp **** 
 674:src/kernel/riscv.cpp ****         asm("mv %[a0], a0": [a0] "=r"(a0));
 675:src/kernel/riscv.cpp **** 
 676:src/kernel/riscv.cpp ****         asm("mv a0,%[a0]"::  [a0]"r"(registerStartSP));
 677:src/kernel/riscv.cpp **** 
 678:src/kernel/riscv.cpp ****         asm("mv a1, %[a0]" : :  [a0] "r"(registerStartSP));
 679:src/kernel/riscv.cpp **** 
 680:src/kernel/riscv.cpp ****         asm("sd a0, 16(a1)");
 681:src/kernel/riscv.cpp **** 
 682:src/kernel/riscv.cpp ****         //write 0 in a0 register of forked thread because fork should return 0 in context of child,
 683:src/kernel/riscv.cpp ****         asm("li a0, 0");
 684:src/kernel/riscv.cpp **** 
 685:src/kernel/riscv.cpp ****         asm("sd a0, 80(a1)");
 686:src/kernel/riscv.cpp **** 
 687:src/kernel/riscv.cpp ****         asm("mv a1,%[a1]"::  [a1]"r"(a1));
 688:src/kernel/riscv.cpp **** 
 689:src/kernel/riscv.cpp ****         asm("mv a0,%[a0]"::  [a0]"r"(a0));
 690:src/kernel/riscv.cpp **** 
 691:src/kernel/riscv.cpp ****         forked->sepc = TCB::running->sepc;
 692:src/kernel/riscv.cpp **** 
 693:src/kernel/riscv.cpp ****         forked->sstatus = TCB::running->sstatus;
 694:src/kernel/riscv.cpp **** 
 695:src/kernel/riscv.cpp ****         //put forked in scheduler
 696:src/kernel/riscv.cpp ****         Scheduler::put(forked);
 697:src/kernel/riscv.cpp **** 
 698:src/kernel/riscv.cpp ****         //return address of forked as thread ID
 699:src/kernel/riscv.cpp ****         status = (uint64)forked;
 700:src/kernel/riscv.cpp ****     }else
 701:src/kernel/riscv.cpp ****         status = -1;
 702:src/kernel/riscv.cpp **** 
 703:src/kernel/riscv.cpp ****     asm("mv a0, %[status]" : : [status] "r" (status));
 704:src/kernel/riscv.cpp **** 
 705:src/kernel/riscv.cpp ****     RiscV::saveA0toSscratch();
 706:src/kernel/riscv.cpp **** 
 707:src/kernel/riscv.cpp **** }
 708:src/kernel/riscv.cpp **** 
 709:src/kernel/riscv.cpp **** void RiscV::getPC(){
 1756              		.loc 1 709 20 is_stmt 1
 1757              		.cfi_startproc
 1758 08a0 130101FF 		addi	sp,sp,-16
 1759              		.cfi_def_cfa_offset 16
 1760 08a4 23348100 		sd	s0,8(sp)
 1761              		.cfi_offset 8, -8
GAS LISTING /tmp/ccP6cCkB.s 			page 54


 1762 08a8 13040101 		addi	s0,sp,16
 1763              		.cfi_def_cfa 8, 0
 710:src/kernel/riscv.cpp ****     uint64 ra;
 1764              		.loc 1 710 5
 711:src/kernel/riscv.cpp **** 
 712:src/kernel/riscv.cpp ****     asm("mv %[ra], ra" : [ra] "=r"(ra));
 1765              		.loc 1 712 5
 1766              		.loc 1 712 40 is_stmt 0
 1767              	#APP
 1768              	# 712 "src/kernel/riscv.cpp" 1
 713              	
 1769              		mv a5, ra
 1770              	# 0 "" 2
 1771              	.LVL133:
 714:src/kernel/riscv.cpp ****     TCB::currentPC = ra + 8;
 1772              		.loc 1 714 5 is_stmt 1
 1773              		.loc 1 714 25 is_stmt 0
 1774              	#NO_APP
 1775 08b0 93878700 		addi	a5,a5,8
 1776              	.LVL134:
 1777              		.loc 1 714 20
 1778 08b4 17070000 		la	a4,_ZN3TCB9currentPCE
 1778      03370700 
 1779 08bc 2330F700 		sd	a5,0(a4)
 715:src/kernel/riscv.cpp **** }
 1780              		.loc 1 715 1
 1781 08c0 03348100 		ld	s0,8(sp)
 1782              		.cfi_restore 8
 1783              		.cfi_def_cfa 2, 16
 1784 08c4 13010101 		addi	sp,sp,16
 1785              		.cfi_def_cfa_offset 0
 1786 08c8 67800000 		jr	ra
 1787              		.cfi_endproc
 1788              	.LFE73:
 1790              		.align	2
 1791              		.globl	_ZN5RiscV16threadCreateUtilEPP3TCBPFvPvES3_
 1793              	_ZN5RiscV16threadCreateUtilEPP3TCBPFvPvES3_:
 1794              	.LFB74:
 716:src/kernel/riscv.cpp **** 
 717:src/kernel/riscv.cpp **** void RiscV::threadCreateUtil(TCB **handle, void (*start_routine)(void *), void *arg) {
 1795              		.loc 1 717 86 is_stmt 1
 1796              		.cfi_startproc
 1797              	.LVL135:
 1798 08cc 130101FD 		addi	sp,sp,-48
 1799              		.cfi_def_cfa_offset 48
 1800 08d0 23341102 		sd	ra,40(sp)
 1801 08d4 23308102 		sd	s0,32(sp)
 1802 08d8 233C9100 		sd	s1,24(sp)
 1803 08dc 23382101 		sd	s2,16(sp)
 1804 08e0 23343101 		sd	s3,8(sp)
 1805              		.cfi_offset 1, -8
 1806              		.cfi_offset 8, -16
 1807              		.cfi_offset 9, -24
 1808              		.cfi_offset 18, -32
 1809              		.cfi_offset 19, -40
 1810 08e4 13040103 		addi	s0,sp,48
 1811              		.cfi_def_cfa 8, 0
GAS LISTING /tmp/ccP6cCkB.s 			page 55


 1812 08e8 13090500 		mv	s2,a0
 1813 08ec 93840500 		mv	s1,a1
 1814 08f0 93090600 		mv	s3,a2
 718:src/kernel/riscv.cpp ****     uint64 ihandle = (uint64)handle;
 1815              		.loc 1 718 5
 1816              	.LVL136:
 719:src/kernel/riscv.cpp ****     uint64 iroutine = (uint64)start_routine;
 1817              		.loc 1 719 5
 720:src/kernel/riscv.cpp ****     uint64 iarg = (uint64)arg;
 1818              		.loc 1 720 5
 721:src/kernel/riscv.cpp ****     uint64 istack = 0;
 1819              		.loc 1 721 5
 722:src/kernel/riscv.cpp **** 
 723:src/kernel/riscv.cpp ****     if(start_routine) {
 1820              		.loc 1 723 5
 1821 08f4 638E0500 		beqz	a1,.L104
 724:src/kernel/riscv.cpp ****         istack = (uint64) MemoryAllocator::kmalloc((DEFAULT_STACK_SIZE+MEM_BLOCK_SIZE-1)/MEM_BLOCK_
 1822              		.loc 1 724 9
 1823              		.loc 1 724 51 is_stmt 0
 1824 08f8 13050004 		li	a0,64
 1825              	.LVL137:
 1826 08fc 97000000 		call	_ZN15MemoryAllocator7kmallocEm@plt
 1826      E7800000 
 1827              	.LVL138:
 725:src/kernel/riscv.cpp ****         if(istack == 0) {
 1828              		.loc 1 725 9 is_stmt 1
 1829 0904 63180500 		bnez	a0,.L102
 726:src/kernel/riscv.cpp ****             *handle = nullptr;
 1830              		.loc 1 726 13
 1831              		.loc 1 726 21 is_stmt 0
 1832 0908 23300900 		sd	zero,0(s2)
 727:src/kernel/riscv.cpp ****             return;
 1833              		.loc 1 727 13 is_stmt 1
 1834 090c 6F000002 		j	.L101
 1835              	.LVL139:
 1836              	.L104:
 721:src/kernel/riscv.cpp **** 
 1837              		.loc 1 721 12 is_stmt 0
 1838 0910 13050000 		li	a0,0
 1839              	.LVL140:
 1840              	.L102:
 728:src/kernel/riscv.cpp ****         }
 729:src/kernel/riscv.cpp ****     }
 730:src/kernel/riscv.cpp **** 
 731:src/kernel/riscv.cpp ****     asm("mv a7, %[istack]" : : [istack] "r" (istack));
 1841              		.loc 1 731 5 is_stmt 1
 1842              		.loc 1 731 54 is_stmt 0
 1843              	#APP
 1844              	# 731 "src/kernel/riscv.cpp" 1
 732              	    asm("mv a3, %[iarg]" : : [iarg] "r" (iarg));
 1845              		mv a7, a0
 1846              	# 0 "" 2
 1847              		.loc 1 732 5 is_stmt 1
 1848              		.loc 1 732 48 is_stmt 0
 1849              	# 732 "src/kernel/riscv.cpp" 1
 733              	    asm("mv a2, %[iroutine]" : : [iroutine] "r" (iroutine));
 1850              		mv a3, s3
GAS LISTING /tmp/ccP6cCkB.s 			page 56


 1851              	# 0 "" 2
 1852              		.loc 1 733 5 is_stmt 1
 1853              		.loc 1 733 60 is_stmt 0
 1854              	# 733 "src/kernel/riscv.cpp" 1
 734              	    asm("mv a1, %[ihandle]" : : [ihandle] "r" (ihandle));
 1855              		mv a2, s1
 1856              	# 0 "" 2
 1857              		.loc 1 734 5 is_stmt 1
 1858              		.loc 1 734 57 is_stmt 0
 1859              	# 734 "src/kernel/riscv.cpp" 1
 735              	    asm("li a0, 0x11");
 1860              		mv a1, s2
 1861              	# 0 "" 2
 1862              		.loc 1 735 5 is_stmt 1
 1863              		.loc 1 735 23 is_stmt 0
 1864              	# 735 "src/kernel/riscv.cpp" 1
 736              	
 737:src/kernel/riscv.cpp ****     asm("ecall");
 1865              		li a0, 0x11
 1866              	# 0 "" 2
 1867              		.loc 1 737 5 is_stmt 1
 1868              		.loc 1 737 17 is_stmt 0
 1869              	# 737 "src/kernel/riscv.cpp" 1
 738              	
 739:src/kernel/riscv.cpp ****     uint64 status;
 1870              		ecall
 1871              	# 0 "" 2
 1872              		.loc 1 739 5 is_stmt 1
 740:src/kernel/riscv.cpp **** 
 741:src/kernel/riscv.cpp ****     asm("mv %[status], a0" : [status] "=r" (status));
 1873              		.loc 1 741 5
 1874              	.LVL141:
 1875              	#NO_APP
 1876              	.L101:
 742:src/kernel/riscv.cpp **** 
 743:src/kernel/riscv.cpp **** }
 1877              		.loc 1 743 1 is_stmt 0
 1878 092c 83308102 		ld	ra,40(sp)
 1879              		.cfi_restore 1
 1880 0930 03340102 		ld	s0,32(sp)
 1881              		.cfi_restore 8
 1882              		.cfi_def_cfa 2, 48
 1883 0934 83348101 		ld	s1,24(sp)
 1884              		.cfi_restore 9
 1885              	.LVL142:
 1886 0938 03390101 		ld	s2,16(sp)
 1887              		.cfi_restore 18
 1888              	.LVL143:
 1889 093c 83398100 		ld	s3,8(sp)
 1890              		.cfi_restore 19
 1891              	.LVL144:
 1892 0940 13010103 		addi	sp,sp,48
 1893              		.cfi_def_cfa_offset 0
 1894 0944 67800000 		jr	ra
 1895              		.cfi_endproc
 1896              	.LFE74:
 1898              		.align	2
GAS LISTING /tmp/ccP6cCkB.s 			page 57


 1899              		.globl	_ZN5RiscV14threadExitUtilEv
 1901              	_ZN5RiscV14threadExitUtilEv:
 1902              	.LFB75:
 744:src/kernel/riscv.cpp **** 
 745:src/kernel/riscv.cpp **** void RiscV::threadExitUtil() {
 1903              		.loc 1 745 30 is_stmt 1
 1904              		.cfi_startproc
 1905 0948 130101FF 		addi	sp,sp,-16
 1906              		.cfi_def_cfa_offset 16
 1907 094c 23348100 		sd	s0,8(sp)
 1908              		.cfi_offset 8, -8
 1909 0950 13040101 		addi	s0,sp,16
 1910              		.cfi_def_cfa 8, 0
 746:src/kernel/riscv.cpp ****     asm("li a0, 0x12");
 1911              		.loc 1 746 5
 1912              		.loc 1 746 23 is_stmt 0
 1913              	#APP
 1914              	# 746 "src/kernel/riscv.cpp" 1
 747              	
 748:src/kernel/riscv.cpp ****     asm("ecall");
 1915              		li a0, 0x12
 1916              	# 0 "" 2
 1917              		.loc 1 748 5 is_stmt 1
 1918              		.loc 1 748 17 is_stmt 0
 1919              	# 748 "src/kernel/riscv.cpp" 1
 749              	
 750:src/kernel/riscv.cpp ****     uint64 status;
 1920              		ecall
 1921              	# 0 "" 2
 1922              		.loc 1 750 5 is_stmt 1
 751:src/kernel/riscv.cpp **** 
 752:src/kernel/riscv.cpp ****     asm("mv %[status], a0" : [status] "=r" (status));
 1923              		.loc 1 752 5
 1924              	.LVL145:
 753:src/kernel/riscv.cpp **** }
 1925              		.loc 1 753 1 is_stmt 0
 1926              	#NO_APP
 1927 095c 03348100 		ld	s0,8(sp)
 1928              		.cfi_restore 8
 1929              		.cfi_def_cfa 2, 16
 1930 0960 13010101 		addi	sp,sp,16
 1931              		.cfi_def_cfa_offset 0
 1932 0964 67800000 		jr	ra
 1933              		.cfi_endproc
 1934              	.LFE75:
 1936              		.align	2
 1937              		.globl	_ZN5RiscV18threadDispatchUtilEv
 1939              	_ZN5RiscV18threadDispatchUtilEv:
 1940              	.LFB76:
 754:src/kernel/riscv.cpp **** 
 755:src/kernel/riscv.cpp **** void RiscV::threadDispatchUtil() {
 1941              		.loc 1 755 34 is_stmt 1
 1942              		.cfi_startproc
 1943 0968 130101FF 		addi	sp,sp,-16
 1944              		.cfi_def_cfa_offset 16
 1945 096c 23348100 		sd	s0,8(sp)
 1946              		.cfi_offset 8, -8
GAS LISTING /tmp/ccP6cCkB.s 			page 58


 1947 0970 13040101 		addi	s0,sp,16
 1948              		.cfi_def_cfa 8, 0
 756:src/kernel/riscv.cpp ****     asm("li a0, 0x13");
 1949              		.loc 1 756 5
 1950              		.loc 1 756 23 is_stmt 0
 1951              	#APP
 1952              	# 756 "src/kernel/riscv.cpp" 1
 757              	
 758:src/kernel/riscv.cpp ****     asm("ecall");
 1953              		li a0, 0x13
 1954              	# 0 "" 2
 1955              		.loc 1 758 5 is_stmt 1
 1956              		.loc 1 758 17 is_stmt 0
 1957              	# 758 "src/kernel/riscv.cpp" 1
 759              	}
 1958              		ecall
 1959              	# 0 "" 2
 1960              		.loc 1 759 1
 1961              	#NO_APP
 1962 097c 03348100 		ld	s0,8(sp)
 1963              		.cfi_restore 8
 1964              		.cfi_def_cfa 2, 16
 1965 0980 13010101 		addi	sp,sp,16
 1966              		.cfi_def_cfa_offset 0
 1967 0984 67800000 		jr	ra
 1968              		.cfi_endproc
 1969              	.LFE76:
 1971              		.align	2
 1972              		.globl	_ZN5RiscV11putcWrapperEPv
 1974              	_ZN5RiscV11putcWrapperEPv:
 1975              	.LFB65:
 524:src/kernel/riscv.cpp ****     while(true)
 1976              		.loc 1 524 1 is_stmt 1
 1977              		.cfi_startproc
 1978              	.LVL146:
 1979 0988 130101FE 		addi	sp,sp,-32
 1980              		.cfi_def_cfa_offset 32
 1981 098c 233C1100 		sd	ra,24(sp)
 1982 0990 23388100 		sd	s0,16(sp)
 1983              		.cfi_offset 1, -8
 1984              		.cfi_offset 8, -16
 1985 0994 13040102 		addi	s0,sp,32
 1986              		.cfi_def_cfa 8, 0
 1987 0998 6F00C000 		j	.L111
 1988              	.LVL147:
 1989              	.L112:
 1990              	.LBB128:
 1991              	.LBB129:
 548:src/kernel/riscv.cpp ****     }
 1992              		.loc 1 548 13
 548:src/kernel/riscv.cpp ****     }
 1993              		.loc 1 548 38 is_stmt 0
 1994 099c 97000000 		call	_ZN5RiscV18threadDispatchUtilEv
 1994      E7800000 
 1995              	.LVL148:
 1996              	.L111:
 1997              	.LBE129:
GAS LISTING /tmp/ccP6cCkB.s 			page 59


 1998              	.LBE128:
 525:src/kernel/riscv.cpp ****     {
 1999              		.loc 1 525 5 is_stmt 1
 2000              	.LBB132:
 528:src/kernel/riscv.cpp ****         asm("mv a0, %[status]" : : [status] "r" (status));
 2001              		.loc 1 528 9
 528:src/kernel/riscv.cpp ****         asm("mv a0, %[status]" : : [status] "r" (status));
 2002              		.loc 1 528 16 is_stmt 0
 2003 09a4 97070000 		la	a5,CONSOLE_STATUS
 2003      83B70700 
 2004 09ac 83B70700 		ld	a5,0(a5)
 2005              	.LVL149:
 529:src/kernel/riscv.cpp ****         asm("lb a1, 0(a0)");
 2006              		.loc 1 529 9 is_stmt 1
 529:src/kernel/riscv.cpp ****         asm("lb a1, 0(a0)");
 2007              		.loc 1 529 58 is_stmt 0
 2008              	#APP
 2009              	# 529 "src/kernel/riscv.cpp" 1
 530:src/kernel/riscv.cpp ****         asm("mv %[status], a1" : [status] "=r" (status));
 2010              		mv a0, a5
 2011              	# 0 "" 2
 2012              		.loc 1 530 9 is_stmt 1
 530:src/kernel/riscv.cpp ****         asm("mv %[status], a1" : [status] "=r" (status));
 2013              		.loc 1 530 28 is_stmt 0
 2014              	# 530 "src/kernel/riscv.cpp" 1
 531:src/kernel/riscv.cpp **** 
 2015              		lb a1, 0(a0)
 2016              	# 0 "" 2
 2017              		.loc 1 531 9 is_stmt 1
 531:src/kernel/riscv.cpp **** 
 2018              		.loc 1 531 57 is_stmt 0
 2019              	# 531 "src/kernel/riscv.cpp" 1
 2020              		mv a5, a1
 2021              	# 0 "" 2
 2022              	.LVL150:
 534:src/kernel/riscv.cpp **** 
 2023              		.loc 1 534 9 is_stmt 1
 2024              	#NO_APP
 2025              	.LBB131:
 534:src/kernel/riscv.cpp **** 
 2026              		.loc 1 534 19 is_stmt 0
 2027 09bc 93F70702 		andi	a5,a5,32
 2028              	.LVL151:
 534:src/kernel/riscv.cpp **** 
 2029              		.loc 1 534 9
 2030 09c0 E38E07FC 		beqz	a5,.L112
 2031              	.LBB130:
 537:src/kernel/riscv.cpp ****                 uint64 data = CONSOLE_RX_DATA;
 2032              		.loc 1 537 17 is_stmt 1
 537:src/kernel/riscv.cpp ****                 uint64 data = CONSOLE_RX_DATA;
 2033              		.loc 1 537 63 is_stmt 0
 2034 09c4 97000000 		call	_ZN11ConsoleUtil15putcUtilSyscallEv@plt
 2034      E7800000 
 2035              	.LVL152:
 537:src/kernel/riscv.cpp ****                 uint64 data = CONSOLE_RX_DATA;
 2036              		.loc 1 537 64
 2037 09cc A307A4FE 		sb	a0,-17(s0)
GAS LISTING /tmp/ccP6cCkB.s 			page 60


 538:src/kernel/riscv.cpp ****                 asm("mv a0, %[data]" : : [data] "r"(data));
 2038              		.loc 1 538 17 is_stmt 1
 538:src/kernel/riscv.cpp ****                 asm("mv a0, %[data]" : : [data] "r"(data));
 2039              		.loc 1 538 24 is_stmt 0
 2040 09d0 97070000 		la	a5,CONSOLE_RX_DATA
 2040      83B70700 
 2041 09d8 83B70700 		ld	a5,0(a5)
 2042              	.LVL153:
 539:src/kernel/riscv.cpp ****                 asm("mv a1, %[c]" : : [c] "r"(c));
 2043              		.loc 1 539 17 is_stmt 1
 539:src/kernel/riscv.cpp ****                 asm("mv a1, %[c]" : : [c] "r"(c));
 2044              		.loc 1 539 59 is_stmt 0
 2045              	#APP
 2046              	# 539 "src/kernel/riscv.cpp" 1
 540:src/kernel/riscv.cpp ****                 asm("sb a1,0(a0)");
 2047              		mv a0, a5
 2048              	# 0 "" 2
 2049              		.loc 1 540 17 is_stmt 1
 540:src/kernel/riscv.cpp ****                 asm("sb a1,0(a0)");
 2050              		.loc 1 540 47 is_stmt 0
 2051              	#NO_APP
 2052 09e0 8347F4FE 		lbu	a5,-17(s0)
 2053              	.LVL154:
 540:src/kernel/riscv.cpp ****                 asm("sb a1,0(a0)");
 2054              		.loc 1 540 50
 2055              	#APP
 2056              	# 540 "src/kernel/riscv.cpp" 1
 541:src/kernel/riscv.cpp **** 
 2057              		mv a1, a5
 2058              	# 0 "" 2
 2059              		.loc 1 541 17 is_stmt 1
 541:src/kernel/riscv.cpp **** 
 2060              		.loc 1 541 35 is_stmt 0
 2061              	# 541 "src/kernel/riscv.cpp" 1
 544:src/kernel/riscv.cpp ****                 ConsoleUtil::pendingPutc--;
 2062              		sb a1,0(a0)
 2063              	# 0 "" 2
 2064              		.loc 1 544 13 is_stmt 1
 544:src/kernel/riscv.cpp ****                 ConsoleUtil::pendingPutc--;
 2065              		.loc 1 544 40 is_stmt 0
 2066              	#NO_APP
 2067 09ec 97070000 		la	a5,_ZN11ConsoleUtil11pendingPutcE
 2067      83B70700 
 2068 09f4 83B70700 		ld	a5,0(a5)
 544:src/kernel/riscv.cpp ****                 ConsoleUtil::pendingPutc--;
 2069              		.loc 1 544 13
 2070 09f8 E38607FA 		beqz	a5,.L111
 545:src/kernel/riscv.cpp ****         }
 2071              		.loc 1 545 17 is_stmt 1
 545:src/kernel/riscv.cpp ****         }
 2072              		.loc 1 545 41 is_stmt 0
 2073 09fc 9387F7FF 		addi	a5,a5,-1
 2074 0a00 17070000 		la	a4,_ZN11ConsoleUtil11pendingPutcE
 2074      03370700 
 2075 0a08 2330F700 		sd	a5,0(a4)
 2076 0a0c 6FF09FF9 		j	.L111
 2077              	.LBE130:
GAS LISTING /tmp/ccP6cCkB.s 			page 61


 2078              	.LBE131:
 2079              	.LBE132:
 2080              		.cfi_endproc
 2081              	.LFE65:
 2083              		.align	2
 2084              		.globl	_ZN5RiscV6getPMTEv
 2086              	_ZN5RiscV6getPMTEv:
 2087              	.LFB80:
 760:src/kernel/riscv.cpp **** 
 761:src/kernel/riscv.cpp **** void RiscV::buildSection(void *PMT, uint64 start, uint64 end, uint64 mask) {
 762:src/kernel/riscv.cpp ****     for(uint64 i=start;i<end;i+=0x1000) {
 763:src/kernel/riscv.cpp ****         handlePageFault(PMT,i, mask);
 764:src/kernel/riscv.cpp ****     }
 765:src/kernel/riscv.cpp **** }
 766:src/kernel/riscv.cpp **** 
 767:src/kernel/riscv.cpp **** void RiscV::buildKernelPMT() {
 768:src/kernel/riscv.cpp ****     RiscV::kPMT = RiscV::getPMT();
 769:src/kernel/riscv.cpp ****     uint64 bEnd = ((uint64)Buddy::BUDDY_START_ADDR + (Buddy::BLOCKS_AVAILABLE<<12));
 770:src/kernel/riscv.cpp **** 
 771:src/kernel/riscv.cpp **** 
 772:src/kernel/riscv.cpp ****     RiscV::buildSection(kPMT, OS_ENTRY, KERNEL_TEXT_END, 0xb);
 773:src/kernel/riscv.cpp ****     RiscV::buildSection(kPMT, KERNEL_TEXT_END, USER_TEXT_START, 0x7);
 774:src/kernel/riscv.cpp ****     RiscV::buildSection(kPMT, USER_TEXT_START, USER_DATA_START, 0x1b);
 775:src/kernel/riscv.cpp ****     RiscV::buildSection(kPMT, USER_DATA_START, USER_DATA_END, 0x17);
 776:src/kernel/riscv.cpp ****     RiscV::buildSection(kPMT, USER_DATA_END, bEnd, 0x7);
 777:src/kernel/riscv.cpp ****     RiscV::buildSection(kPMT, bEnd, HEAP_END, 0x17);
 778:src/kernel/riscv.cpp **** 
 779:src/kernel/riscv.cpp ****     RiscV::mapConsoleRegisters(kPMT);
 780:src/kernel/riscv.cpp ****     RiscV::ms_sstatus(1<<18);
 781:src/kernel/riscv.cpp **** }
 782:src/kernel/riscv.cpp **** 
 783:src/kernel/riscv.cpp **** void RiscV::buildUserPMT() {
 784:src/kernel/riscv.cpp ****     RiscV::uPMT = RiscV::getPMT();
 785:src/kernel/riscv.cpp ****     uint64 bEnd = ((uint64)Buddy::BUDDY_START_ADDR + (Buddy::BLOCKS_AVAILABLE<<12));
 786:src/kernel/riscv.cpp **** 
 787:src/kernel/riscv.cpp **** 
 788:src/kernel/riscv.cpp ****     RiscV::buildSection(uPMT, OS_ENTRY, KERNEL_TEXT_END, 0xb);
 789:src/kernel/riscv.cpp ****     RiscV::buildSection(uPMT, KERNEL_TEXT_END, USER_TEXT_START, 0x7);
 790:src/kernel/riscv.cpp ****     RiscV::buildSection(uPMT, USER_TEXT_START, USER_DATA_START, 0x1b);
 791:src/kernel/riscv.cpp ****     RiscV::buildSection(uPMT, USER_DATA_START, USER_DATA_END, 0x17);
 792:src/kernel/riscv.cpp ****     RiscV::buildSection(uPMT, USER_DATA_END, bEnd, 0x7);
 793:src/kernel/riscv.cpp ****     RiscV::buildSection(uPMT, bEnd, HEAP_END, 0x17);
 794:src/kernel/riscv.cpp **** 
 795:src/kernel/riscv.cpp ****     RiscV::mapConsoleRegisters(uPMT);
 796:src/kernel/riscv.cpp ****     RiscV::ms_sstatus(1<<18);
 797:src/kernel/riscv.cpp **** }
 798:src/kernel/riscv.cpp **** 
 799:src/kernel/riscv.cpp **** void* RiscV::getPMT(){
 2088              		.loc 1 799 22 is_stmt 1
 2089              		.cfi_startproc
 2090 0a10 130101FF 		addi	sp,sp,-16
 2091              		.cfi_def_cfa_offset 16
 2092 0a14 23341100 		sd	ra,8(sp)
 2093 0a18 23308100 		sd	s0,0(sp)
 2094              		.cfi_offset 1, -8
 2095              		.cfi_offset 8, -16
 2096 0a1c 13040101 		addi	s0,sp,16
GAS LISTING /tmp/ccP6cCkB.s 			page 62


 2097              		.cfi_def_cfa 8, 0
 800:src/kernel/riscv.cpp ****     void* ret = Buddy::alloc(0);
 2098              		.loc 1 800 5
 2099              		.loc 1 800 29 is_stmt 0
 2100 0a20 13050000 		li	a0,0
 2101 0a24 97000000 		call	_ZN5Buddy5allocEm@plt
 2101      E7800000 
 2102              	.LVL155:
 801:src/kernel/riscv.cpp ****     if(!ret)
 2103              		.loc 1 801 5 is_stmt 1
 2104 0a2c 63020502 		beqz	a0,.L115
 2105              	.LBB133:
 802:src/kernel/riscv.cpp ****         return nullptr;
 803:src/kernel/riscv.cpp ****     uint64* arr = (uint64*)ret;
 804:src/kernel/riscv.cpp ****     for(int i=0;i<512;i++)
 2106              		.loc 1 804 13 is_stmt 0
 2107 0a30 93070000 		li	a5,0
 2108              	.L117:
 2109              	.LVL156:
 2110              		.loc 1 804 18 is_stmt 1 discriminator 3
 2111 0a34 1307F01F 		li	a4,511
 2112 0a38 634CF700 		bgt	a5,a4,.L115
 805:src/kernel/riscv.cpp ****         arr[i] = 0;
 2113              		.loc 1 805 9 discriminator 2
 2114              		.loc 1 805 14 is_stmt 0 discriminator 2
 2115 0a3c 13973700 		slli	a4,a5,3
 2116 0a40 3307E500 		add	a4,a0,a4
 2117              		.loc 1 805 16 discriminator 2
 2118 0a44 23300700 		sd	zero,0(a4)
 804:src/kernel/riscv.cpp ****         arr[i] = 0;
 2119              		.loc 1 804 5 is_stmt 1 discriminator 2
 2120 0a48 9B871700 		addiw	a5,a5,1
 2121              	.LVL157:
 2122 0a4c 6FF09FFE 		j	.L117
 2123              	.L115:
 2124              	.LBE133:
 806:src/kernel/riscv.cpp ****     return ret;
 807:src/kernel/riscv.cpp **** }
 2125              		.loc 1 807 1 is_stmt 0
 2126 0a50 83308100 		ld	ra,8(sp)
 2127              		.cfi_restore 1
 2128 0a54 03340100 		ld	s0,0(sp)
 2129              		.cfi_restore 8
 2130              		.cfi_def_cfa 2, 16
 2131 0a58 13010101 		addi	sp,sp,16
 2132              		.cfi_def_cfa_offset 0
 2133 0a5c 67800000 		jr	ra
 2134              		.cfi_endproc
 2135              	.LFE80:
 2137              		.align	2
 2138              		.globl	_ZN5RiscV15handlePageFaultEPvmm
 2140              	_ZN5RiscV15handlePageFaultEPvmm:
 2141              	.LFB81:
 808:src/kernel/riscv.cpp **** 
 809:src/kernel/riscv.cpp **** void RiscV::handlePageFault(void* PMT, uint64 addr, uint64 mask){
 2142              		.loc 1 809 65 is_stmt 1
 2143              		.cfi_startproc
GAS LISTING /tmp/ccP6cCkB.s 			page 63


 2144              	.LVL158:
 2145 0a60 130101FD 		addi	sp,sp,-48
 2146              		.cfi_def_cfa_offset 48
 2147 0a64 23341102 		sd	ra,40(sp)
 2148 0a68 23308102 		sd	s0,32(sp)
 2149 0a6c 233C9100 		sd	s1,24(sp)
 2150 0a70 23382101 		sd	s2,16(sp)
 2151 0a74 23343101 		sd	s3,8(sp)
 2152              		.cfi_offset 1, -8
 2153              		.cfi_offset 8, -16
 2154              		.cfi_offset 9, -24
 2155              		.cfi_offset 18, -32
 2156              		.cfi_offset 19, -40
 2157 0a78 13040103 		addi	s0,sp,48
 2158              		.cfi_def_cfa 8, 0
 2159 0a7c 93840500 		mv	s1,a1
 2160 0a80 93090600 		mv	s3,a2
 810:src/kernel/riscv.cpp ****     uint64 pmt2Desc = ((uint64*)PMT)[RiscV::getPMT2Entry(addr)];
 2161              		.loc 1 810 5
 2162              	.LVL159:
 2163              	.LBB134:
 2164              	.LBB135:
 261:src/kernel/../../h/kernel/riscv.hpp **** }
 262:src/kernel/../../h/kernel/riscv.hpp **** 
 263:src/kernel/../../h/kernel/riscv.hpp **** inline void RiscV::startVirtualMemory(void* PMT) {
 264:src/kernel/../../h/kernel/riscv.hpp ****     uint64 satp = ((uint64)1<<63) | ((uint64)(PMT)>>12);
 265:src/kernel/../../h/kernel/riscv.hpp ****     asm("csrw satp, %[satp]" : : [satp] "r" (satp));
 266:src/kernel/../../h/kernel/riscv.hpp **** }
 267:src/kernel/../../h/kernel/riscv.hpp **** 
 268:src/kernel/../../h/kernel/riscv.hpp **** inline void RiscV::shutVirtualMemory() {
 269:src/kernel/../../h/kernel/riscv.hpp ****     uint64 satp = 0;
 270:src/kernel/../../h/kernel/riscv.hpp ****     asm("csrw satp, %[satp]" : : [satp] "r" (satp));
 271:src/kernel/../../h/kernel/riscv.hpp **** }
 272:src/kernel/../../h/kernel/riscv.hpp **** 
 273:src/kernel/../../h/kernel/riscv.hpp **** inline uint64 RiscV::getPMT2Entry(uint64 addr) {
 274:src/kernel/../../h/kernel/riscv.hpp ****     return (addr >> 30) & (0x1ff);
 2165              		.loc 2 274 5
 2166              		.loc 2 274 18 is_stmt 0
 2167 0a84 93D7E501 		srli	a5,a1,30
 2168              		.loc 2 274 33
 2169 0a88 93F7F71F 		andi	a5,a5,511
 2170              	.LVL160:
 2171              	.LBE135:
 2172              	.LBE134:
 2173              		.loc 1 810 63
 2174 0a8c 93973700 		slli	a5,a5,3
 2175 0a90 3309F500 		add	s2,a0,a5
 2176 0a94 83370900 		ld	a5,0(s2)
 2177              	.LVL161:
 811:src/kernel/riscv.cpp ****     void* pmt1 = nullptr;
 2178              		.loc 1 811 5 is_stmt 1
 812:src/kernel/riscv.cpp ****     if(pmt2Desc == 0){
 2179              		.loc 1 812 5
 2180              	.LBB136:
 2181 0a98 63820706 		beqz	a5,.L126
 813:src/kernel/riscv.cpp ****         pmt1 = RiscV::getPMT();
 814:src/kernel/riscv.cpp ****         if(pmt1 == nullptr)
GAS LISTING /tmp/ccP6cCkB.s 			page 64


 815:src/kernel/riscv.cpp ****             return;
 816:src/kernel/riscv.cpp ****         uint64 frame = (uint64)pmt1 >> 12;
 817:src/kernel/riscv.cpp ****         ((uint64*)PMT)[RiscV::getPMT2Entry(addr)] = (frame << 10) | (uint64)1;
 818:src/kernel/riscv.cpp ****     }
 819:src/kernel/riscv.cpp ****     else
 820:src/kernel/riscv.cpp ****         pmt1 = (void*)((pmt2Desc >> 10) << 12);
 2182              		.loc 1 820 9
 2183              		.loc 1 820 34 is_stmt 0
 2184 0a9c 13D5A700 		srli	a0,a5,10
 2185              	.LVL162:
 2186              		.loc 1 820 41
 2187 0aa0 1315C500 		slli	a0,a0,12
 2188              	.LVL163:
 2189              	.L122:
 2190              	.LBE136:
 821:src/kernel/riscv.cpp ****     uint64 pmt1Desc = ((uint64*)pmt1)[RiscV::getPMT1Entry(addr)];
 2191              		.loc 1 821 5 is_stmt 1
 2192              	.LBB139:
 2193              	.LBB140:
 275:src/kernel/../../h/kernel/riscv.hpp **** }
 276:src/kernel/../../h/kernel/riscv.hpp **** 
 277:src/kernel/../../h/kernel/riscv.hpp **** inline uint64 RiscV::getPMT1Entry(uint64 addr) {
 278:src/kernel/../../h/kernel/riscv.hpp ****     return (addr >> 21) & (0x1ff);
 2194              		.loc 2 278 5
 2195              		.loc 2 278 18 is_stmt 0
 2196 0aa4 13D95401 		srli	s2,s1,21
 2197              		.loc 2 278 33
 2198 0aa8 1379F91F 		andi	s2,s2,511
 2199              	.LVL164:
 2200              	.LBE140:
 2201              	.LBE139:
 2202              		.loc 1 821 64
 2203 0aac 13193900 		slli	s2,s2,3
 2204 0ab0 33092501 		add	s2,a0,s2
 2205 0ab4 03350900 		ld	a0,0(s2)
 2206              	.LVL165:
 822:src/kernel/riscv.cpp ****     void* pmt0 = nullptr;
 2207              		.loc 1 822 5 is_stmt 1
 823:src/kernel/riscv.cpp ****     if(pmt1Desc == 0){
 2208              		.loc 1 823 5
 2209              	.LBB141:
 2210 0ab8 63020506 		beqz	a0,.L127
 824:src/kernel/riscv.cpp ****         pmt0 = RiscV::getPMT();
 825:src/kernel/riscv.cpp ****         if(pmt0 == nullptr)
 826:src/kernel/riscv.cpp ****             return;
 827:src/kernel/riscv.cpp ****         uint64 frame = (uint64)pmt0 >> 12;
 828:src/kernel/riscv.cpp ****         ((uint64*)pmt1)[RiscV::getPMT1Entry(addr)] = (frame << 10) | (uint64)1;
 829:src/kernel/riscv.cpp ****     }
 830:src/kernel/riscv.cpp ****     else
 831:src/kernel/riscv.cpp ****         pmt0 = (void*)((pmt1Desc >> 10) << 12);
 2211              		.loc 1 831 9
 2212              		.loc 1 831 34 is_stmt 0
 2213 0abc 1355A500 		srli	a0,a0,10
 2214              	.LVL166:
 2215              		.loc 1 831 41
 2216 0ac0 1315C500 		slli	a0,a0,12
 2217              	.LVL167:
GAS LISTING /tmp/ccP6cCkB.s 			page 65


 2218              	.L124:
 2219              	.LBE141:
 832:src/kernel/riscv.cpp ****     uint64 frame = addr >> 12;
 2220              		.loc 1 832 5 is_stmt 1
 2221              		.loc 1 832 12 is_stmt 0
 2222 0ac4 93D4C400 		srli	s1,s1,12
 2223              	.LVL168:
 833:src/kernel/riscv.cpp ****     ((uint64 *) pmt0)[RiscV::getPMT0Entry(addr)] = (frame << 10) | mask;
 2224              		.loc 1 833 5 is_stmt 1
 2225              		.loc 1 833 59 is_stmt 0
 2226 0ac8 1396A400 		slli	a2,s1,10
 2227              	.LVL169:
 2228              	.LBB144:
 2229              	.LBB145:
 279:src/kernel/../../h/kernel/riscv.hpp **** }
 280:src/kernel/../../h/kernel/riscv.hpp **** 
 281:src/kernel/../../h/kernel/riscv.hpp **** inline uint64 RiscV::getPMT0Entry(uint64 addr) {
 282:src/kernel/../../h/kernel/riscv.hpp ****     return (addr >> 12) & (0x1ff);
 2230              		.loc 2 282 5 is_stmt 1
 2231              		.loc 2 282 33 is_stmt 0
 2232 0acc 93F4F41F 		andi	s1,s1,511
 2233              	.LVL170:
 2234              	.LBE145:
 2235              	.LBE144:
 2236              		.loc 1 833 48
 2237 0ad0 93943400 		slli	s1,s1,3
 2238 0ad4 B3049500 		add	s1,a0,s1
 2239              		.loc 1 833 66
 2240 0ad8 B3693601 		or	s3,a2,s3
 2241              	.LVL171:
 2242              		.loc 1 833 50
 2243 0adc 23B03401 		sd	s3,0(s1)
 2244              	.LVL172:
 2245              	.L119:
 834:src/kernel/riscv.cpp **** }
 2246              		.loc 1 834 1
 2247 0ae0 83308102 		ld	ra,40(sp)
 2248              		.cfi_remember_state
 2249              		.cfi_restore 1
 2250 0ae4 03340102 		ld	s0,32(sp)
 2251              		.cfi_restore 8
 2252              		.cfi_def_cfa 2, 48
 2253 0ae8 83348101 		ld	s1,24(sp)
 2254              		.cfi_restore 9
 2255 0aec 03390101 		ld	s2,16(sp)
 2256              		.cfi_restore 18
 2257 0af0 83398100 		ld	s3,8(sp)
 2258              		.cfi_restore 19
 2259 0af4 13010103 		addi	sp,sp,48
 2260              		.cfi_def_cfa_offset 0
 2261 0af8 67800000 		jr	ra
 2262              	.LVL173:
 2263              	.L126:
 2264              		.cfi_restore_state
 2265              	.LBB146:
 2266              	.LBB137:
 813:src/kernel/riscv.cpp ****         if(pmt1 == nullptr)
GAS LISTING /tmp/ccP6cCkB.s 			page 66


 2267              		.loc 1 813 9 is_stmt 1
 813:src/kernel/riscv.cpp ****         if(pmt1 == nullptr)
 2268              		.loc 1 813 29 is_stmt 0
 2269 0afc 97000000 		call	_ZN5RiscV6getPMTEv
 2269      E7800000 
 2270              	.LVL174:
 814:src/kernel/riscv.cpp ****             return;
 2271              		.loc 1 814 9 is_stmt 1
 2272 0b04 E30E05FC 		beqz	a0,.L119
 816:src/kernel/riscv.cpp ****         ((uint64*)PMT)[RiscV::getPMT2Entry(addr)] = (frame << 10) | (uint64)1;
 2273              		.loc 1 816 9
 816:src/kernel/riscv.cpp ****         ((uint64*)PMT)[RiscV::getPMT2Entry(addr)] = (frame << 10) | (uint64)1;
 2274              		.loc 1 816 16 is_stmt 0
 2275 0b08 9357C500 		srli	a5,a0,12
 2276              	.LVL175:
 817:src/kernel/riscv.cpp ****     }
 2277              		.loc 1 817 9 is_stmt 1
 817:src/kernel/riscv.cpp ****     }
 2278              		.loc 1 817 60 is_stmt 0
 2279 0b0c 9397A700 		slli	a5,a5,10
 2280              	.LVL176:
 2281              	.LBE137:
 2282              	.LBE146:
 274:src/kernel/../../h/kernel/riscv.hpp **** }
 2283              		.loc 2 274 5 is_stmt 1
 2284              	.LBB147:
 2285              	.LBB138:
 817:src/kernel/riscv.cpp ****     }
 2286              		.loc 1 817 67 is_stmt 0
 2287 0b10 93E71700 		ori	a5,a5,1
 817:src/kernel/riscv.cpp ****     }
 2288              		.loc 1 817 51
 2289 0b14 2330F900 		sd	a5,0(s2)
 2290              	.LBE138:
 2291 0b18 6FF0DFF8 		j	.L122
 2292              	.LVL177:
 2293              	.L127:
 2294              	.LBE147:
 2295              	.LBB148:
 2296              	.LBB142:
 824:src/kernel/riscv.cpp ****         if(pmt0 == nullptr)
 2297              		.loc 1 824 9 is_stmt 1
 824:src/kernel/riscv.cpp ****         if(pmt0 == nullptr)
 2298              		.loc 1 824 29 is_stmt 0
 2299 0b1c 97000000 		call	_ZN5RiscV6getPMTEv
 2299      E7800000 
 2300              	.LVL178:
 825:src/kernel/riscv.cpp ****             return;
 2301              		.loc 1 825 9 is_stmt 1
 2302 0b24 E30E05FA 		beqz	a0,.L119
 827:src/kernel/riscv.cpp ****         ((uint64*)pmt1)[RiscV::getPMT1Entry(addr)] = (frame << 10) | (uint64)1;
 2303              		.loc 1 827 9
 827:src/kernel/riscv.cpp ****         ((uint64*)pmt1)[RiscV::getPMT1Entry(addr)] = (frame << 10) | (uint64)1;
 2304              		.loc 1 827 16 is_stmt 0
 2305 0b28 9357C500 		srli	a5,a0,12
 2306              	.LVL179:
 828:src/kernel/riscv.cpp ****     }
GAS LISTING /tmp/ccP6cCkB.s 			page 67


 2307              		.loc 1 828 9 is_stmt 1
 828:src/kernel/riscv.cpp ****     }
 2308              		.loc 1 828 61 is_stmt 0
 2309 0b2c 9397A700 		slli	a5,a5,10
 2310              	.LVL180:
 2311              	.LBE142:
 2312              	.LBE148:
 278:src/kernel/../../h/kernel/riscv.hpp **** }
 2313              		.loc 2 278 5 is_stmt 1
 2314              	.LBB149:
 2315              	.LBB143:
 828:src/kernel/riscv.cpp ****     }
 2316              		.loc 1 828 68 is_stmt 0
 2317 0b30 93E71700 		ori	a5,a5,1
 828:src/kernel/riscv.cpp ****     }
 2318              		.loc 1 828 52
 2319 0b34 2330F900 		sd	a5,0(s2)
 2320              	.LBE143:
 2321 0b38 6FF0DFF8 		j	.L124
 2322              	.LBE149:
 2323              		.cfi_endproc
 2324              	.LFE81:
 2326              		.align	2
 2327              		.globl	_ZN5RiscV18executeForkSyscallEv
 2329              	_ZN5RiscV18executeForkSyscallEv:
 2330              	.LFB72:
 643:src/kernel/riscv.cpp **** 
 2331              		.loc 1 643 34 is_stmt 1
 2332              		.cfi_startproc
 2333              		.cfi_personality 0x9b,DW.ref.__gxx_personality_v0
 2334              		.cfi_lsda 0x1b,.LLSDA72
 2335 0b3c 130101FE 		addi	sp,sp,-32
 2336              		.cfi_def_cfa_offset 32
 2337 0b40 233C1100 		sd	ra,24(sp)
 2338 0b44 23388100 		sd	s0,16(sp)
 2339 0b48 23349100 		sd	s1,8(sp)
 2340 0b4c 23302101 		sd	s2,0(sp)
 2341              		.cfi_offset 1, -8
 2342              		.cfi_offset 8, -16
 2343              		.cfi_offset 9, -24
 2344              		.cfi_offset 18, -32
 2345 0b50 13040102 		addi	s0,sp,32
 2346              		.cfi_def_cfa 8, 0
 646:src/kernel/riscv.cpp ****     handlePageFault(kPMT, (uint64)stack, 0x17);
 2347              		.loc 1 646 5
 646:src/kernel/riscv.cpp ****     handlePageFault(kPMT, (uint64)stack, 0x17);
 2348              		.loc 1 646 54 is_stmt 0
 2349 0b54 13050004 		li	a0,64
 2350              	.LEHB10:
 2351 0b58 97000000 		call	_ZN15MemoryAllocator7kmallocEm@plt
 2351      E7800000 
 2352              	.LVL181:
 2353 0b60 13090500 		mv	s2,a0
 2354              	.LVL182:
 647:src/kernel/riscv.cpp **** 
 2355              		.loc 1 647 5 is_stmt 1
 647:src/kernel/riscv.cpp **** 
GAS LISTING /tmp/ccP6cCkB.s 			page 68


 2356              		.loc 1 647 20 is_stmt 0
 2357 0b64 13067001 		li	a2,23
 2358 0b68 93050500 		mv	a1,a0
 2359 0b6c 17050000 		ld	a0,.LANCHOR0+16
 2359      03350500 
 2360              	.LVL183:
 2361 0b74 97000000 		call	_ZN5RiscV15handlePageFaultEPvmm
 2361      E7800000 
 2362              	.LVL184:
 649:src/kernel/riscv.cpp **** 
 2363              		.loc 1 649 5 is_stmt 1
 649:src/kernel/riscv.cpp **** 
 2364              		.loc 1 649 28 is_stmt 0
 2365 0b7c 97070000 		la	a5,_ZN3TCB7runningE
 2365      83B70700 
 2366 0b84 83B70700 		ld	a5,0(a5)
 2367 0b88 37160000 		li	a2,4096
 2368 0b8c 93050900 		mv	a1,s2
 2369 0b90 03B58702 		ld	a0,40(a5)
 2370 0b94 97000000 		call	_ZN15MemoryAllocator6memcpyEPvS0_m@plt
 2370      E7800000 
 2371              	.LVL185:
 652:src/kernel/riscv.cpp **** 
 2372              		.loc 1 652 5 is_stmt 1
 652:src/kernel/riscv.cpp **** 
 2373              		.loc 1 652 70 is_stmt 0
 2374 0b9c 13050007 		li	a0,112
 2375 0ba0 97000000 		call	_ZN3TCBnwEm@plt
 2375      E7800000 
 2376              	.LVL186:
 2377              	.LEHE10:
 2378 0ba8 93040500 		mv	s1,a0
 2379 0bac 630E0500 		beqz	a0,.L129
 652:src/kernel/riscv.cpp **** 
 2380              		.loc 1 652 70 discriminator 1
 2381 0bb0 13072000 		li	a4,2
 2382 0bb4 93060900 		mv	a3,s2
 2383 0bb8 13060000 		li	a2,0
 2384 0bbc 93050000 		li	a1,0
 2385              	.LEHB11:
 2386 0bc0 97000000 		call	_ZN3TCBC1EPFvPvES0_Pmm@plt
 2386      E7800000 
 2387              	.LVL187:
 2388              	.LEHE11:
 2389              	.L129:
 654:src/kernel/riscv.cpp **** 
 2390              		.loc 1 654 5 is_stmt 1 discriminator 6
 656:src/kernel/riscv.cpp **** 
 2391              		.loc 1 656 5 discriminator 6
 2392              	.LBB150:
 2393 0bc8 638E040A 		beqz	s1,.L132
 2394              	.LBB151:
 659:src/kernel/riscv.cpp **** 
 2395              		.loc 1 659 9
 659:src/kernel/riscv.cpp **** 
 2396              		.loc 1 659 28 is_stmt 0
 2397 0bcc 97070000 		la	a5,_ZN3TCB9currentPCE
GAS LISTING /tmp/ccP6cCkB.s 			page 69


 2397      83B70700 
 2398 0bd4 83B70700 		ld	a5,0(a5)
 2399 0bd8 23B4F400 		sd	a5,8(s1)
 662:src/kernel/riscv.cpp **** 
 2400              		.loc 1 662 9 is_stmt 1
 662:src/kernel/riscv.cpp **** 
 2401              		.loc 1 662 59 is_stmt 0
 2402 0bdc 97070000 		la	a5,_ZN3TCB9currentSPE
 2402      83B70700 
 2403 0be4 83B70700 		ld	a5,0(a5)
 662:src/kernel/riscv.cpp **** 
 2404              		.loc 1 662 52
 2405 0be8 B307F900 		add	a5,s2,a5
 662:src/kernel/riscv.cpp **** 
 2406              		.loc 1 662 71
 2407 0bec 17070000 		la	a4,_ZN3TCB7runningE
 2407      03370700 
 2408 0bf4 83360700 		ld	a3,0(a4)
 662:src/kernel/riscv.cpp **** 
 2409              		.loc 1 662 92
 2410 0bf8 83B68602 		ld	a3,40(a3)
 662:src/kernel/riscv.cpp **** 
 2411              		.loc 1 662 69
 2412 0bfc B387D740 		sub	a5,a5,a3
 662:src/kernel/riscv.cpp **** 
 2413              		.loc 1 662 28
 2414 0c00 23B0F400 		sd	a5,0(s1)
 665:src/kernel/riscv.cpp **** 
 2415              		.loc 1 665 9 is_stmt 1
 665:src/kernel/riscv.cpp **** 
 2416              		.loc 1 665 64 is_stmt 0
 2417 0c04 83370700 		ld	a5,0(a4)
 2418 0c08 03B58706 		ld	a0,104(a5)
 665:src/kernel/riscv.cpp **** 
 2419              		.loc 1 665 98
 2420 0c0c 83B78702 		ld	a5,40(a5)
 665:src/kernel/riscv.cpp **** 
 2421              		.loc 1 665 75
 2422 0c10 3305F540 		sub	a0,a0,a5
 665:src/kernel/riscv.cpp **** 
 2423              		.loc 1 665 104
 2424 0c14 3309A900 		add	s2,s2,a0
 2425              	.LVL188:
 667:src/kernel/riscv.cpp **** 
 2426              		.loc 1 667 9 is_stmt 1
 667:src/kernel/riscv.cpp **** 
 2427              		.loc 1 667 28 is_stmt 0
 2428 0c18 23B42407 		sd	s2,104(s1)
 669:src/kernel/riscv.cpp **** 
 2429              		.loc 1 669 9 is_stmt 1
 672:src/kernel/riscv.cpp **** 
 2430              		.loc 1 672 9
 672:src/kernel/riscv.cpp **** 
 2431              		.loc 1 672 43 is_stmt 0
 2432              	#APP
 2433              	# 672 "src/kernel/riscv.cpp" 1
 674:src/kernel/riscv.cpp **** 
GAS LISTING /tmp/ccP6cCkB.s 			page 70


 2434              		mv a3, a1
 2435              	# 0 "" 2
 2436              		.loc 1 674 9 is_stmt 1
 674:src/kernel/riscv.cpp **** 
 2437              		.loc 1 674 43 is_stmt 0
 2438              	# 674 "src/kernel/riscv.cpp" 1
 676:src/kernel/riscv.cpp **** 
 2439              		mv a5, a0
 2440              	# 0 "" 2
 2441              		.loc 1 676 9 is_stmt 1
 676:src/kernel/riscv.cpp **** 
 2442              		.loc 1 676 55 is_stmt 0
 2443              	# 676 "src/kernel/riscv.cpp" 1
 678:src/kernel/riscv.cpp **** 
 2444              		mv a0,s2
 2445              	# 0 "" 2
 2446              		.loc 1 678 9 is_stmt 1
 678:src/kernel/riscv.cpp **** 
 2447              		.loc 1 678 59 is_stmt 0
 2448              	# 678 "src/kernel/riscv.cpp" 1
 680:src/kernel/riscv.cpp **** 
 2449              		mv a1, s2
 2450              	# 0 "" 2
 2451              		.loc 1 680 9 is_stmt 1
 680:src/kernel/riscv.cpp **** 
 2452              		.loc 1 680 29 is_stmt 0
 2453              	# 680 "src/kernel/riscv.cpp" 1
 683:src/kernel/riscv.cpp **** 
 2454              		sd a0, 16(a1)
 2455              	# 0 "" 2
 2456              		.loc 1 683 9 is_stmt 1
 683:src/kernel/riscv.cpp **** 
 2457              		.loc 1 683 24 is_stmt 0
 2458              	# 683 "src/kernel/riscv.cpp" 1
 685:src/kernel/riscv.cpp **** 
 2459              		li a0, 0
 2460              	# 0 "" 2
 2461              		.loc 1 685 9 is_stmt 1
 685:src/kernel/riscv.cpp **** 
 2462              		.loc 1 685 29 is_stmt 0
 2463              	# 685 "src/kernel/riscv.cpp" 1
 687:src/kernel/riscv.cpp **** 
 2464              		sd a0, 80(a1)
 2465              	# 0 "" 2
 2466              		.loc 1 687 9 is_stmt 1
 687:src/kernel/riscv.cpp **** 
 2467              		.loc 1 687 42 is_stmt 0
 2468              	# 687 "src/kernel/riscv.cpp" 1
 689:src/kernel/riscv.cpp **** 
 2469              		mv a1,a3
 2470              	# 0 "" 2
 2471              		.loc 1 689 9 is_stmt 1
 689:src/kernel/riscv.cpp **** 
 2472              		.loc 1 689 42 is_stmt 0
 2473              	# 689 "src/kernel/riscv.cpp" 1
 691:src/kernel/riscv.cpp **** 
 2474              		mv a0,a5
GAS LISTING /tmp/ccP6cCkB.s 			page 71


 2475              	# 0 "" 2
 2476              		.loc 1 691 9 is_stmt 1
 691:src/kernel/riscv.cpp **** 
 2477              		.loc 1 691 38 is_stmt 0
 2478              	#NO_APP
 2479 0c40 83370700 		ld	a5,0(a4)
 2480 0c44 03B78703 		ld	a4,56(a5)
 691:src/kernel/riscv.cpp **** 
 2481              		.loc 1 691 22
 2482 0c48 23BCE402 		sd	a4,56(s1)
 693:src/kernel/riscv.cpp **** 
 2483              		.loc 1 693 9 is_stmt 1
 693:src/kernel/riscv.cpp **** 
 2484              		.loc 1 693 41 is_stmt 0
 2485 0c4c 83B70704 		ld	a5,64(a5)
 693:src/kernel/riscv.cpp **** 
 2486              		.loc 1 693 25
 2487 0c50 23B0F404 		sd	a5,64(s1)
 696:src/kernel/riscv.cpp **** 
 2488              		.loc 1 696 9 is_stmt 1
 696:src/kernel/riscv.cpp **** 
 2489              		.loc 1 696 23 is_stmt 0
 2490 0c54 13850400 		mv	a0,s1
 2491              	.LEHB12:
 2492 0c58 97000000 		call	_ZN9Scheduler3putEP3TCB@plt
 2492      E7800000 
 2493              	.LVL189:
 2494              	.LEHE12:
 699:src/kernel/riscv.cpp ****     }else
 2495              		.loc 1 699 9 is_stmt 1
 2496              	.L130:
 2497              	.LBE151:
 2498              	.LBE150:
 703:src/kernel/riscv.cpp **** 
 2499              		.loc 1 703 5
 703:src/kernel/riscv.cpp **** 
 2500              		.loc 1 703 54 is_stmt 0
 2501              	#APP
 2502              	# 703 "src/kernel/riscv.cpp" 1
 705:src/kernel/riscv.cpp **** 
 2503              		mv a0, s1
 2504              	# 0 "" 2
 2505              		.loc 1 705 5 is_stmt 1
 705:src/kernel/riscv.cpp **** 
 2506              		.loc 1 705 28 is_stmt 0
 2507              	#NO_APP
 2508 0c64 97000000 		call	_ZN5RiscV16saveA0toSscratchEv
 2508      E7800000 
 2509              	.LVL190:
 707:src/kernel/riscv.cpp **** 
 2510              		.loc 1 707 1
 2511 0c6c 83308101 		ld	ra,24(sp)
 2512              		.cfi_remember_state
 2513              		.cfi_restore 1
 2514 0c70 03340101 		ld	s0,16(sp)
 2515              		.cfi_restore 8
 2516              		.cfi_def_cfa 2, 32
GAS LISTING /tmp/ccP6cCkB.s 			page 72


 2517 0c74 83348100 		ld	s1,8(sp)
 2518              		.cfi_restore 9
 2519              	.LVL191:
 2520 0c78 03390100 		ld	s2,0(sp)
 2521              		.cfi_restore 18
 2522 0c7c 13010102 		addi	sp,sp,32
 2523              		.cfi_def_cfa_offset 0
 2524 0c80 67800000 		jr	ra
 2525              	.LVL192:
 2526              	.L132:
 2527              		.cfi_restore_state
 2528              	.LBB152:
 701:src/kernel/riscv.cpp **** 
 2529              		.loc 1 701 16
 2530 0c84 9304F0FF 		li	s1,-1
 2531              	.LVL193:
 2532 0c88 6FF09FFD 		j	.L130
 2533              	.LVL194:
 2534              	.L133:
 2535 0c8c 13090500 		mv	s2,a0
 2536              	.LVL195:
 2537              	.LBE152:
 652:src/kernel/riscv.cpp **** 
 2538              		.loc 1 652 70
 2539 0c90 13850400 		mv	a0,s1
 2540 0c94 97000000 		call	_ZN3TCBdlEPv@plt
 2540      E7800000 
 2541              	.LVL196:
 2542 0c9c 13050900 		mv	a0,s2
 2543              	.LEHB13:
 2544 0ca0 97000000 		call	_Unwind_Resume@plt
 2544      E7800000 
 2545              	.LVL197:
 2546              	.LEHE13:
 2547              		.cfi_endproc
 2548              	.LFE72:
 2549              		.section	.gcc_except_table
 2550              	.LLSDA72:
 2551 008e FF       		.byte	0xff
 2552 008f FF       		.byte	0xff
 2553 0090 03       		.byte	0x3
 2554 0091 34       		.byte	0x34
 2555 0092 00000000 		.4byte	.LEHB10-.LFB72
 2556 0096 00000000 		.4byte	.LEHE10-.LEHB10
 2557 009a 00000000 		.4byte	0
 2558 009e 00       		.byte	0
 2559 009f 00000000 		.4byte	.LEHB11-.LFB72
 2560 00a3 00000000 		.4byte	.LEHE11-.LEHB11
 2561 00a7 00000000 		.4byte	.L133-.LFB72
 2562 00ab 00       		.byte	0
 2563 00ac 00000000 		.4byte	.LEHB12-.LFB72
 2564 00b0 00000000 		.4byte	.LEHE12-.LEHB12
 2565 00b4 00000000 		.4byte	0
 2566 00b8 00       		.byte	0
 2567 00b9 00000000 		.4byte	.LEHB13-.LFB72
 2568 00bd 00000000 		.4byte	.LEHE13-.LEHB13
 2569 00c1 00000000 		.4byte	0
GAS LISTING /tmp/ccP6cCkB.s 			page 73


 2570 00c5 00       		.byte	0
 2571              		.text
 2573              		.section	.rodata.str1.8,"aMS",@progbits,1
 2574              		.align	3
 2575              	.LC0:
 2576 0000 73657063 		.string	"sepc: "
 2576      3A2000
 2577 0007 00       		.align	3
 2578              	.LC1:
 2579 0008 0A00     		.string	"\n"
 2580 000a 00000000 		.align	3
 2580      0000
 2581              	.LC2:
 2582 0010 496C6C65 		.string	"Illegal instruction\nExiting thread...\n"
 2582      67616C20 
 2582      696E7374 
 2582      72756374 
 2582      696F6E0A 
 2583 0037 00       		.align	3
 2584              	.LC3:
 2585 0038 4572726F 		.string	"Error: \n"
 2585      723A200A 
 2585      00
 2586 0041 00000000 		.align	3
 2586      000000
 2587              	.LC4:
 2588 0048 73636175 		.string	"scause: "
 2588      73653A20 
 2588      00
 2589 0051 00000000 		.align	3
 2589      000000
 2590              	.LC5:
 2591 0058 73747661 		.string	"stval: "
 2591      6C3A2000 
 2592              		.align	3
 2593              	.LC6:
 2594 0060 45786974 		.string	"Exiting thread...\n"
 2594      696E6720 
 2594      74687265 
 2594      61642E2E 
 2594      2E0A00
 2595              		.text
 2596              		.align	2
 2597              		.globl	_ZN5RiscV20handleSupervisorTrapEv
 2599              	_ZN5RiscV20handleSupervisorTrapEv:
 2600              	.LFB50:
  50:src/kernel/riscv.cpp **** 
 2601              		.loc 1 50 36 is_stmt 1
 2602              		.cfi_startproc
 2603 0ca8 130101F9 		addi	sp,sp,-112
 2604              		.cfi_def_cfa_offset 112
 2605 0cac 23341106 		sd	ra,104(sp)
 2606 0cb0 23308106 		sd	s0,96(sp)
 2607 0cb4 233C9104 		sd	s1,88(sp)
 2608              		.cfi_offset 1, -8
 2609              		.cfi_offset 8, -16
 2610              		.cfi_offset 9, -24
GAS LISTING /tmp/ccP6cCkB.s 			page 74


 2611 0cb8 13040107 		addi	s0,sp,112
 2612              		.cfi_def_cfa 8, 0
  53:src/kernel/riscv.cpp ****     asm("csrr %[stval], stval" : [stval] "=r" (stval));
 2613              		.loc 1 53 5
  54:src/kernel/riscv.cpp ****     uint64 volatile scause = RiscV::r_scause();
 2614              		.loc 1 54 5
  54:src/kernel/riscv.cpp ****     uint64 volatile scause = RiscV::r_scause();
 2615              		.loc 1 54 55 is_stmt 0
 2616              	#APP
 2617              	# 54 "src/kernel/riscv.cpp" 1
 2618              		csrr s1, stval
 2619              	# 0 "" 2
 2620              	.LVL198:
  55:src/kernel/riscv.cpp **** 
 2621              		.loc 1 55 5 is_stmt 1
 2622              	#NO_APP
 2623              	.LBB153:
 2624              	.LBB154:
 169:src/kernel/../../h/kernel/riscv.hpp ****     asm("csrr %[scause], scause" : [scause] "=r" (scause));
 2625              		.loc 2 169 5
 170:src/kernel/../../h/kernel/riscv.hpp ****     return scause;
 2626              		.loc 2 170 5
 170:src/kernel/../../h/kernel/riscv.hpp ****     return scause;
 2627              		.loc 2 170 59 is_stmt 0
 2628              	#APP
 2629              	# 170 "src/kernel/../../h/kernel/riscv.hpp" 1
 2630              		csrr a5, scause
 2631              	# 0 "" 2
 2632              	#NO_APP
 2633 0cc4 2334F4FC 		sd	a5,-56(s0)
 171:src/kernel/../../h/kernel/riscv.hpp **** }
 2634              		.loc 2 171 5 is_stmt 1
 171:src/kernel/../../h/kernel/riscv.hpp **** }
 2635              		.loc 2 171 12 is_stmt 0
 2636 0cc8 833784FC 		ld	a5,-56(s0)
 2637              	.LBE154:
 2638              	.LBE153:
  55:src/kernel/riscv.cpp **** 
 2639              		.loc 1 55 46
 2640 0ccc 233CF4FC 		sd	a5,-40(s0)
  57:src/kernel/riscv.cpp **** 
 2641              		.loc 1 57 5 is_stmt 1
  57:src/kernel/riscv.cpp **** 
 2642              		.loc 1 57 71 is_stmt 0
 2643 0cd0 97070000 		la	a5,_ZN3TCB7runningE
 2643      83B70700 
 2644 0cd8 83B70700 		ld	a5,0(a5)
  57:src/kernel/riscv.cpp **** 
 2645              		.loc 1 57 83
 2646              	#APP
 2647              	# 57 "src/kernel/riscv.cpp" 1
 2648              		csrr a4, sscratch
 2649              	# 0 "" 2
 2650              	#NO_APP
 2651 0ce0 23B4E706 		sd	a4,104(a5)
  59:src/kernel/riscv.cpp **** 
 2652              		.loc 1 59 5 is_stmt 1
GAS LISTING /tmp/ccP6cCkB.s 			page 75


 2653              	.LBB155:
  59:src/kernel/riscv.cpp **** 
 2654              		.loc 1 59 15 is_stmt 0
 2655 0ce4 033784FD 		ld	a4,-40(s0)
  59:src/kernel/riscv.cpp **** 
 2656              		.loc 1 59 23
 2657 0ce8 93079000 		li	a5,9
 2658 0cec 630EF710 		beq	a4,a5,.L137
  59:src/kernel/riscv.cpp **** 
 2659              		.loc 1 59 33 discriminator 2
 2660 0cf0 033784FD 		ld	a4,-40(s0)
  59:src/kernel/riscv.cpp **** 
 2661              		.loc 1 59 23 discriminator 2
 2662 0cf4 93078000 		li	a5,8
 2663 0cf8 6308F710 		beq	a4,a5,.L137
 2664              	.LBE155:
 105:src/kernel/riscv.cpp **** 
 2665              		.loc 1 105 10 is_stmt 1
 2666              	.LBB210:
 2667              	.LBB156:
 105:src/kernel/riscv.cpp **** 
 2668              		.loc 1 105 20 is_stmt 0
 2669 0cfc 033784FD 		ld	a4,-40(s0)
 105:src/kernel/riscv.cpp **** 
 2670              		.loc 1 105 10
 2671 0d00 9307F0FF 		li	a5,-1
 2672 0d04 9397F703 		slli	a5,a5,63
 2673 0d08 93871700 		addi	a5,a5,1
 2674 0d0c 630CF726 		beq	a4,a5,.L167
 2675              	.LBE156:
 2676              	.LBE210:
 140:src/kernel/riscv.cpp ****         //save sstatus and sepc
 2677              		.loc 1 140 10 is_stmt 1
 2678              	.LBB211:
 2679              	.LBB197:
 2680              	.LBB157:
 140:src/kernel/riscv.cpp ****         //save sstatus and sepc
 2681              		.loc 1 140 20 is_stmt 0
 2682 0d10 033784FD 		ld	a4,-40(s0)
 140:src/kernel/riscv.cpp ****         //save sstatus and sepc
 2683              		.loc 1 140 10
 2684 0d14 9307F0FF 		li	a5,-1
 2685 0d18 9397F703 		slli	a5,a5,63
 2686 0d1c 93879700 		addi	a5,a5,9
 2687 0d20 630AF72E 		beq	a4,a5,.L168
 2688              	.LBE157:
 2689              	.LBE197:
 2690              	.LBE211:
 176:src/kernel/riscv.cpp ****         TCB* old = TCB::running;
 2691              		.loc 1 176 10 is_stmt 1
 2692              	.LBB212:
 2693              	.LBB198:
 2694              	.LBB181:
 2695              	.LBB158:
 176:src/kernel/riscv.cpp ****         TCB* old = TCB::running;
 2696              		.loc 1 176 20 is_stmt 0
 2697 0d24 033784FD 		ld	a4,-40(s0)
GAS LISTING /tmp/ccP6cCkB.s 			page 76


 176:src/kernel/riscv.cpp ****         TCB* old = TCB::running;
 2698              		.loc 1 176 10
 2699 0d28 93072000 		li	a5,2
 2700 0d2c 6302F738 		beq	a4,a5,.L169
 2701              	.LBB159:
 189:src/kernel/riscv.cpp ****         ConsoleUtil::printString("scause: ");
 2702              		.loc 1 189 9 is_stmt 1
 189:src/kernel/riscv.cpp ****         ConsoleUtil::printString("scause: ");
 2703              		.loc 1 189 33 is_stmt 0
 2704 0d30 17050000 		lla	a0,.LC3
 2704      13050500 
 2705 0d38 97000000 		call	_ZN11ConsoleUtil11printStringEPKc@plt
 2705      E7800000 
 2706              	.LVL199:
 190:src/kernel/riscv.cpp ****         uint64  scause = RiscV::r_scause();
 2707              		.loc 1 190 9 is_stmt 1
 190:src/kernel/riscv.cpp ****         uint64  scause = RiscV::r_scause();
 2708              		.loc 1 190 33 is_stmt 0
 2709 0d40 17050000 		lla	a0,.LC4
 2709      13050500 
 2710 0d48 97000000 		call	_ZN11ConsoleUtil11printStringEPKc@plt
 2710      E7800000 
 2711              	.LVL200:
 191:src/kernel/riscv.cpp ****         ConsoleUtil::printInt(scause);
 2712              		.loc 1 191 9 is_stmt 1
 2713              	.LBB160:
 2714              	.LBB161:
 169:src/kernel/../../h/kernel/riscv.hpp ****     asm("csrr %[scause], scause" : [scause] "=r" (scause));
 2715              		.loc 2 169 5
 170:src/kernel/../../h/kernel/riscv.hpp ****     return scause;
 2716              		.loc 2 170 5
 170:src/kernel/../../h/kernel/riscv.hpp ****     return scause;
 2717              		.loc 2 170 59 is_stmt 0
 2718              	#APP
 2719              	# 170 "src/kernel/../../h/kernel/riscv.hpp" 1
 2720              		csrr a5, scause
 2721              	# 0 "" 2
 2722              	#NO_APP
 2723 0d54 2338F4FC 		sd	a5,-48(s0)
 171:src/kernel/../../h/kernel/riscv.hpp **** }
 2724              		.loc 2 171 5 is_stmt 1
 171:src/kernel/../../h/kernel/riscv.hpp **** }
 2725              		.loc 2 171 12 is_stmt 0
 2726 0d58 033504FD 		ld	a0,-48(s0)
 2727              	.LVL201:
 2728              	.LBE161:
 2729              	.LBE160:
 192:src/kernel/riscv.cpp ****         ConsoleUtil::printString("\n");
 2730              		.loc 1 192 9 is_stmt 1
 192:src/kernel/riscv.cpp ****         ConsoleUtil::printString("\n");
 2731              		.loc 1 192 30 is_stmt 0
 2732 0d5c 13060000 		li	a2,0
 2733 0d60 9305A000 		li	a1,10
 2734 0d64 1B050500 		sext.w	a0,a0
 2735              	.LVL202:
 2736 0d68 97000000 		call	_ZN11ConsoleUtil8printIntEiii@plt
 2736      E7800000 
GAS LISTING /tmp/ccP6cCkB.s 			page 77


 2737              	.LVL203:
 193:src/kernel/riscv.cpp ****         ConsoleUtil::printString("sepc: ");
 2738              		.loc 1 193 9 is_stmt 1
 193:src/kernel/riscv.cpp ****         ConsoleUtil::printString("sepc: ");
 2739              		.loc 1 193 33 is_stmt 0
 2740 0d70 17050000 		lla	a0,.LC1
 2740      13050500 
 2741 0d78 97000000 		call	_ZN11ConsoleUtil11printStringEPKc@plt
 2741      E7800000 
 2742              	.LVL204:
 194:src/kernel/riscv.cpp ****         uint64 sepc = RiscV::r_sepc();
 2743              		.loc 1 194 9 is_stmt 1
 194:src/kernel/riscv.cpp ****         uint64 sepc = RiscV::r_sepc();
 2744              		.loc 1 194 33 is_stmt 0
 2745 0d80 17050000 		lla	a0,.LC0
 2745      13050500 
 2746 0d88 97000000 		call	_ZN11ConsoleUtil11printStringEPKc@plt
 2746      E7800000 
 2747              	.LVL205:
 195:src/kernel/riscv.cpp ****         ConsoleUtil::printInt(sepc,16);
 2748              		.loc 1 195 9 is_stmt 1
 2749              	.LBB162:
 2750              	.LBB163:
 179:src/kernel/../../h/kernel/riscv.hpp ****     asm("csrr %[sepc], sepc" : [sepc] "=r" (sepc));
 2751              		.loc 2 179 5
 180:src/kernel/../../h/kernel/riscv.hpp ****     return sepc;
 2752              		.loc 2 180 5
 180:src/kernel/../../h/kernel/riscv.hpp ****     return sepc;
 2753              		.loc 2 180 51 is_stmt 0
 2754              	#APP
 2755              	# 180 "src/kernel/../../h/kernel/riscv.hpp" 1
 181:src/kernel/../../h/kernel/riscv.hpp **** }
 2756              		csrr a0, sepc
 2757              	# 0 "" 2
 2758              		.loc 2 181 5 is_stmt 1
 2759              	#NO_APP
 2760              	.LBE163:
 2761              	.LBE162:
 196:src/kernel/riscv.cpp ****         ConsoleUtil::printString("\n");
 2762              		.loc 1 196 9
 196:src/kernel/riscv.cpp ****         ConsoleUtil::printString("\n");
 2763              		.loc 1 196 30 is_stmt 0
 2764 0d94 13060000 		li	a2,0
 2765 0d98 93050001 		li	a1,16
 2766 0d9c 1B050500 		sext.w	a0,a0
 2767 0da0 97000000 		call	_ZN11ConsoleUtil8printIntEiii@plt
 2767      E7800000 
 2768              	.LVL206:
 197:src/kernel/riscv.cpp ****         ConsoleUtil::print("stval: ",stval,"\n");
 2769              		.loc 1 197 9 is_stmt 1
 197:src/kernel/riscv.cpp ****         ConsoleUtil::print("stval: ",stval,"\n");
 2770              		.loc 1 197 33 is_stmt 0
 2771 0da8 17050000 		lla	a0,.LC1
 2771      13050500 
 2772 0db0 97000000 		call	_ZN11ConsoleUtil11printStringEPKc@plt
 2772      E7800000 
 2773              	.LVL207:
GAS LISTING /tmp/ccP6cCkB.s 			page 78


 198:src/kernel/riscv.cpp ****         TCB* old = TCB::running;
 2774              		.loc 1 198 9 is_stmt 1
 198:src/kernel/riscv.cpp ****         TCB* old = TCB::running;
 2775              		.loc 1 198 27 is_stmt 0
 2776 0db8 93060001 		li	a3,16
 2777 0dbc 17060000 		lla	a2,.LC1
 2777      13060600 
 2778 0dc4 9B850400 		sext.w	a1,s1
 2779 0dc8 17050000 		lla	a0,.LC5
 2779      13050500 
 2780 0dd0 97000000 		call	_ZN11ConsoleUtil5printEPKciS1_i@plt
 2780      E7800000 
 2781              	.LVL208:
 199:src/kernel/riscv.cpp ****         old->status = TCB::Status::FINISHED;
 2782              		.loc 1 199 9 is_stmt 1
 199:src/kernel/riscv.cpp ****         old->status = TCB::Status::FINISHED;
 2783              		.loc 1 199 14 is_stmt 0
 2784 0dd8 97070000 		la	a5,_ZN3TCB7runningE
 2784      83B70700 
 2785 0de0 83B70700 		ld	a5,0(a5)
 2786              	.LVL209:
 200:src/kernel/riscv.cpp ****         ConsoleUtil::printString("Exiting thread...\n");
 2787              		.loc 1 200 9 is_stmt 1
 200:src/kernel/riscv.cpp ****         ConsoleUtil::printString("Exiting thread...\n");
 2788              		.loc 1 200 21 is_stmt 0
 2789 0de4 13072000 		li	a4,2
 2790 0de8 23A8E700 		sw	a4,16(a5)
 201:src/kernel/riscv.cpp ****         TCB::dispatch();
 2791              		.loc 1 201 9 is_stmt 1
 201:src/kernel/riscv.cpp ****         TCB::dispatch();
 2792              		.loc 1 201 33 is_stmt 0
 2793 0dec 17050000 		lla	a0,.LC6
 2793      13050500 
 2794 0df4 97000000 		call	_ZN11ConsoleUtil11printStringEPKc@plt
 2794      E7800000 
 2795              	.LVL210:
 202:src/kernel/riscv.cpp ****     }
 2796              		.loc 1 202 9 is_stmt 1
 202:src/kernel/riscv.cpp ****     }
 2797              		.loc 1 202 22 is_stmt 0
 2798 0dfc 97000000 		call	_ZN3TCB8dispatchEv@plt
 2798      E7800000 
 2799              	.LVL211:
 2800 0e04 6F000008 		j	.L160
 2801              	.L137:
 2802              	.LBE159:
 2803              	.LBE158:
 2804              	.LBE181:
 2805              	.LBE198:
 2806              	.LBB199:
  63:src/kernel/riscv.cpp ****         uint64 volatile sepc = RiscV::r_sepc()+4;
 2807              		.loc 1 63 9 is_stmt 1
 2808              	.LBB200:
 2809              	.LBB201:
 199:src/kernel/../../h/kernel/riscv.hpp ****     asm("csrr %[sstatus], sstatus" : [sstatus] "=r" (sstatus));
 2810              		.loc 2 199 5
 200:src/kernel/../../h/kernel/riscv.hpp ****     return sstatus;
GAS LISTING /tmp/ccP6cCkB.s 			page 79


 2811              		.loc 2 200 5
 200:src/kernel/../../h/kernel/riscv.hpp ****     return sstatus;
 2812              		.loc 2 200 63 is_stmt 0
 2813              	#APP
 2814              	# 200 "src/kernel/../../h/kernel/riscv.hpp" 1
 2815              		csrr a5, sstatus
 2816              	# 0 "" 2
 2817              	.LVL212:
 201:src/kernel/../../h/kernel/riscv.hpp **** }
 2818              		.loc 2 201 5 is_stmt 1
 2819              	#NO_APP
 2820              	.LBE201:
 2821              	.LBE200:
  63:src/kernel/riscv.cpp ****         uint64 volatile sepc = RiscV::r_sepc()+4;
 2822              		.loc 1 63 52 is_stmt 0
 2823 0e0c 233CF4F8 		sd	a5,-104(s0)
  64:src/kernel/riscv.cpp ****         TCB::running->sepc = sepc;
 2824              		.loc 1 64 9 is_stmt 1
 2825              	.LBB202:
 2826              	.LBB203:
 179:src/kernel/../../h/kernel/riscv.hpp ****     asm("csrr %[sepc], sepc" : [sepc] "=r" (sepc));
 2827              		.loc 2 179 5
 180:src/kernel/../../h/kernel/riscv.hpp ****     return sepc;
 2828              		.loc 2 180 5
 180:src/kernel/../../h/kernel/riscv.hpp ****     return sepc;
 2829              		.loc 2 180 51 is_stmt 0
 2830              	#APP
 2831              	# 180 "src/kernel/../../h/kernel/riscv.hpp" 1
 2832              		csrr a5, sepc
 2833              	# 0 "" 2
 2834              	.LVL213:
 181:src/kernel/../../h/kernel/riscv.hpp **** }
 2835              		.loc 2 181 5 is_stmt 1
 2836              	#NO_APP
 2837              	.LBE203:
 2838              	.LBE202:
  64:src/kernel/riscv.cpp ****         TCB::running->sepc = sepc;
 2839              		.loc 1 64 47 is_stmt 0
 2840 0e14 93874700 		addi	a5,a5,4
  64:src/kernel/riscv.cpp ****         TCB::running->sepc = sepc;
 2841              		.loc 1 64 48
 2842 0e18 2330F4FA 		sd	a5,-96(s0)
  65:src/kernel/riscv.cpp ****         TCB::running->sstatus = sstatus;
 2843              		.loc 1 65 9 is_stmt 1
  65:src/kernel/riscv.cpp ****         TCB::running->sstatus = sstatus;
 2844              		.loc 1 65 23 is_stmt 0
 2845 0e1c 97070000 		la	a5,_ZN3TCB7runningE
 2845      83B70700 
 2846 0e24 83B70700 		ld	a5,0(a5)
  65:src/kernel/riscv.cpp ****         TCB::running->sstatus = sstatus;
 2847              		.loc 1 65 28
 2848 0e28 033704FA 		ld	a4,-96(s0)
 2849 0e2c 23BCE702 		sd	a4,56(a5)
  66:src/kernel/riscv.cpp **** 
 2850              		.loc 1 66 9 is_stmt 1
  66:src/kernel/riscv.cpp **** 
 2851              		.loc 1 66 31 is_stmt 0
GAS LISTING /tmp/ccP6cCkB.s 			page 80


 2852 0e30 033784F9 		ld	a4,-104(s0)
 2853 0e34 23B0E704 		sd	a4,64(a5)
  69:src/kernel/riscv.cpp ****         asm("mv %[syscallID], a0" : [syscallID] "=r" (syscallID));
 2854              		.loc 1 69 9 is_stmt 1
  70:src/kernel/riscv.cpp **** 
 2855              		.loc 1 70 9
  70:src/kernel/riscv.cpp **** 
 2856              		.loc 1 70 66 is_stmt 0
 2857              	#APP
 2858              	# 70 "src/kernel/riscv.cpp" 1
 2859              		mv a5, a0
 2860              	# 0 "" 2
 2861              	.LVL214:
  72:src/kernel/riscv.cpp ****             case 0x01 : executeMemAllocSyscall();break;
 2862              		.loc 1 72 9 is_stmt 1
 2863              	#NO_APP
 2864 0e3c 13071006 		li	a4,97
 2865 0e40 6364F702 		bgtu	a5,a4,.L140
 2866 0e44 93972700 		slli	a5,a5,2
 2867              	.LVL215:
 2868 0e48 17070000 		lla	a4,.L142
 2868      13070700 
 2869 0e50 B387E700 		add	a5,a5,a4
 2870 0e54 83A70700 		lw	a5,0(a5)
 2871 0e58 B387E700 		add	a5,a5,a4
 2872 0e5c 67800700 		jr	a5
 2873              		.section	.rodata
 2874              		.align	2
 2875              		.align	2
 2876              	.L142:
 2877 0000 00000000 		.word	.L140-.L142
 2878 0004 00000000 		.word	.L159-.L142
 2879 0008 00000000 		.word	.L158-.L142
 2880 000c 00000000 		.word	.L140-.L142
 2881 0010 00000000 		.word	.L140-.L142
 2882 0014 00000000 		.word	.L140-.L142
 2883 0018 00000000 		.word	.L140-.L142
 2884 001c 00000000 		.word	.L140-.L142
 2885 0020 00000000 		.word	.L140-.L142
 2886 0024 00000000 		.word	.L140-.L142
 2887 0028 00000000 		.word	.L140-.L142
 2888 002c 00000000 		.word	.L140-.L142
 2889 0030 00000000 		.word	.L140-.L142
 2890 0034 00000000 		.word	.L140-.L142
 2891 0038 00000000 		.word	.L140-.L142
 2892 003c 00000000 		.word	.L140-.L142
 2893 0040 00000000 		.word	.L140-.L142
 2894 0044 00000000 		.word	.L157-.L142
 2895 0048 00000000 		.word	.L156-.L142
 2896 004c 00000000 		.word	.L155-.L142
 2897 0050 00000000 		.word	.L154-.L142
 2898 0054 00000000 		.word	.L153-.L142
 2899 0058 00000000 		.word	.L140-.L142
 2900 005c 00000000 		.word	.L140-.L142
 2901 0060 00000000 		.word	.L140-.L142
 2902 0064 00000000 		.word	.L140-.L142
 2903 0068 00000000 		.word	.L140-.L142
GAS LISTING /tmp/ccP6cCkB.s 			page 81


 2904 006c 00000000 		.word	.L140-.L142
 2905 0070 00000000 		.word	.L140-.L142
 2906 0074 00000000 		.word	.L140-.L142
 2907 0078 00000000 		.word	.L140-.L142
 2908 007c 00000000 		.word	.L140-.L142
 2909 0080 00000000 		.word	.L140-.L142
 2910 0084 00000000 		.word	.L152-.L142
 2911 0088 00000000 		.word	.L151-.L142
 2912 008c 00000000 		.word	.L150-.L142
 2913 0090 00000000 		.word	.L149-.L142
 2914 0094 00000000 		.word	.L140-.L142
 2915 0098 00000000 		.word	.L140-.L142
 2916 009c 00000000 		.word	.L140-.L142
 2917 00a0 00000000 		.word	.L140-.L142
 2918 00a4 00000000 		.word	.L140-.L142
 2919 00a8 00000000 		.word	.L140-.L142
 2920 00ac 00000000 		.word	.L140-.L142
 2921 00b0 00000000 		.word	.L140-.L142
 2922 00b4 00000000 		.word	.L140-.L142
 2923 00b8 00000000 		.word	.L140-.L142
 2924 00bc 00000000 		.word	.L140-.L142
 2925 00c0 00000000 		.word	.L140-.L142
 2926 00c4 00000000 		.word	.L148-.L142
 2927 00c8 00000000 		.word	.L140-.L142
 2928 00cc 00000000 		.word	.L140-.L142
 2929 00d0 00000000 		.word	.L140-.L142
 2930 00d4 00000000 		.word	.L140-.L142
 2931 00d8 00000000 		.word	.L140-.L142
 2932 00dc 00000000 		.word	.L140-.L142
 2933 00e0 00000000 		.word	.L140-.L142
 2934 00e4 00000000 		.word	.L140-.L142
 2935 00e8 00000000 		.word	.L140-.L142
 2936 00ec 00000000 		.word	.L140-.L142
 2937 00f0 00000000 		.word	.L140-.L142
 2938 00f4 00000000 		.word	.L140-.L142
 2939 00f8 00000000 		.word	.L140-.L142
 2940 00fc 00000000 		.word	.L140-.L142
 2941 0100 00000000 		.word	.L140-.L142
 2942 0104 00000000 		.word	.L147-.L142
 2943 0108 00000000 		.word	.L146-.L142
 2944 010c 00000000 		.word	.L145-.L142
 2945 0110 00000000 		.word	.L140-.L142
 2946 0114 00000000 		.word	.L140-.L142
 2947 0118 00000000 		.word	.L140-.L142
 2948 011c 00000000 		.word	.L140-.L142
 2949 0120 00000000 		.word	.L140-.L142
 2950 0124 00000000 		.word	.L140-.L142
 2951 0128 00000000 		.word	.L140-.L142
 2952 012c 00000000 		.word	.L140-.L142
 2953 0130 00000000 		.word	.L140-.L142
 2954 0134 00000000 		.word	.L140-.L142
 2955 0138 00000000 		.word	.L140-.L142
 2956 013c 00000000 		.word	.L140-.L142
 2957 0140 00000000 		.word	.L140-.L142
 2958 0144 00000000 		.word	.L144-.L142
 2959 0148 00000000 		.word	.L143-.L142
 2960 014c 00000000 		.word	.L140-.L142
GAS LISTING /tmp/ccP6cCkB.s 			page 82


 2961 0150 00000000 		.word	.L140-.L142
 2962 0154 00000000 		.word	.L140-.L142
 2963 0158 00000000 		.word	.L140-.L142
 2964 015c 00000000 		.word	.L140-.L142
 2965 0160 00000000 		.word	.L140-.L142
 2966 0164 00000000 		.word	.L140-.L142
 2967 0168 00000000 		.word	.L140-.L142
 2968 016c 00000000 		.word	.L140-.L142
 2969 0170 00000000 		.word	.L140-.L142
 2970 0174 00000000 		.word	.L140-.L142
 2971 0178 00000000 		.word	.L140-.L142
 2972 017c 00000000 		.word	.L140-.L142
 2973 0180 00000000 		.word	.L140-.L142
 2974 0184 00000000 		.word	.L141-.L142
 2975              		.text
 2976              	.L159:
  73:src/kernel/riscv.cpp ****             case 0x02 : executeMemFreeSyscall();break;
 2977              		.loc 1 73 13
  73:src/kernel/riscv.cpp ****             case 0x02 : executeMemFreeSyscall();break;
 2978              		.loc 1 73 25
  73:src/kernel/riscv.cpp ****             case 0x02 : executeMemFreeSyscall();break;
 2979              		.loc 1 73 47 is_stmt 0
 2980 0e60 97000000 		call	_ZN5RiscV22executeMemAllocSyscallEv
 2980      E7800000 
 2981              	.LVL216:
  73:src/kernel/riscv.cpp ****             case 0x02 : executeMemFreeSyscall();break;
 2982              		.loc 1 73 50 is_stmt 1
 2983              	.L140:
 100:src/kernel/riscv.cpp ****         RiscV::w_sepc(TCB::running->sepc);
 2984              		.loc 1 100 9
 100:src/kernel/riscv.cpp ****         RiscV::w_sepc(TCB::running->sepc);
 2985              		.loc 1 100 25 is_stmt 0
 2986 0e68 97070000 		la	a5,_ZN3TCB7runningE
 2986      83B70700 
 2987 0e70 83B70700 		ld	a5,0(a5)
 2988 0e74 03B70704 		ld	a4,64(a5)
 2989              	.LVL217:
 2990              	.LBB204:
 2991              	.LBB205:
 195:src/kernel/../../h/kernel/riscv.hpp **** }
 2992              		.loc 2 195 5 is_stmt 1
 195:src/kernel/../../h/kernel/riscv.hpp **** }
 2993              		.loc 2 195 64 is_stmt 0
 2994              	#APP
 2995              	# 195 "src/kernel/../../h/kernel/riscv.hpp" 1
 2996              		csrw sstatus, a4
 2997              	# 0 "" 2
 2998              	.LVL218:
 2999              	#NO_APP
 3000              	.LBE205:
 3001              	.LBE204:
 101:src/kernel/riscv.cpp ****     }
 3002              		.loc 1 101 9 is_stmt 1
 101:src/kernel/riscv.cpp ****     }
 3003              		.loc 1 101 22 is_stmt 0
 3004 0e7c 83B78703 		ld	a5,56(a5)
 3005              	.LVL219:
GAS LISTING /tmp/ccP6cCkB.s 			page 83


 3006              	.LBB206:
 3007              	.LBB207:
 185:src/kernel/../../h/kernel/riscv.hpp **** }
 3008              		.loc 2 185 5 is_stmt 1
 185:src/kernel/../../h/kernel/riscv.hpp **** }
 3009              		.loc 2 185 52 is_stmt 0
 3010              	#APP
 3011              	# 185 "src/kernel/../../h/kernel/riscv.hpp" 1
 3012              		csrw sepc, a5
 3013              	# 0 "" 2
 3014              	.LVL220:
 3015              	#NO_APP
 3016              	.L160:
 3017              	.LBE207:
 3018              	.LBE206:
 3019              	.LBE199:
 3020              	.LBE212:
 205:src/kernel/riscv.cpp **** }
 3021              		.loc 1 205 5 is_stmt 1
 205:src/kernel/riscv.cpp **** }
 3022              		.loc 1 205 41 is_stmt 0
 3023 0e84 97000000 		call	_ZN5RiscV29jumpToDesignatedPrivilegeModeEv
 3023      E7800000 
 3024              	.LVL221:
 206:src/kernel/riscv.cpp **** 
 3025              		.loc 1 206 1
 3026 0e8c 83308106 		ld	ra,104(sp)
 3027              		.cfi_remember_state
 3028              		.cfi_restore 1
 3029 0e90 03340106 		ld	s0,96(sp)
 3030              		.cfi_restore 8
 3031              		.cfi_def_cfa 2, 112
 3032 0e94 83348105 		ld	s1,88(sp)
 3033              		.cfi_restore 9
 3034              	.LVL222:
 3035 0e98 13010107 		addi	sp,sp,112
 3036              		.cfi_def_cfa_offset 0
 3037 0e9c 67800000 		jr	ra
 3038              	.LVL223:
 3039              	.L158:
 3040              		.cfi_restore_state
 3041              	.LBB213:
 3042              	.LBB208:
  74:src/kernel/riscv.cpp ****             case 0x11 : executeThreadCreateSyscall();break;
 3043              		.loc 1 74 13 is_stmt 1
  74:src/kernel/riscv.cpp ****             case 0x11 : executeThreadCreateSyscall();break;
 3044              		.loc 1 74 25
  74:src/kernel/riscv.cpp ****             case 0x11 : executeThreadCreateSyscall();break;
 3045              		.loc 1 74 46 is_stmt 0
 3046 0ea0 97000000 		call	_ZN5RiscV21executeMemFreeSyscallEv
 3046      E7800000 
 3047              	.LVL224:
  74:src/kernel/riscv.cpp ****             case 0x11 : executeThreadCreateSyscall();break;
 3048              		.loc 1 74 49 is_stmt 1
 3049 0ea8 6FF01FFC 		j	.L140
 3050              	.L157:
  75:src/kernel/riscv.cpp ****             case 0x12 : executeThreadExitSyscall();break;
GAS LISTING /tmp/ccP6cCkB.s 			page 84


 3051              		.loc 1 75 13
  75:src/kernel/riscv.cpp ****             case 0x12 : executeThreadExitSyscall();break;
 3052              		.loc 1 75 25
  75:src/kernel/riscv.cpp ****             case 0x12 : executeThreadExitSyscall();break;
 3053              		.loc 1 75 51 is_stmt 0
 3054 0eac 97000000 		call	_ZN5RiscV26executeThreadCreateSyscallEv
 3054      E7800000 
 3055              	.LVL225:
  75:src/kernel/riscv.cpp ****             case 0x12 : executeThreadExitSyscall();break;
 3056              		.loc 1 75 54 is_stmt 1
 3057 0eb4 6FF05FFB 		j	.L140
 3058              	.L156:
  76:src/kernel/riscv.cpp ****             case 0x13 : executeThreadDispatchSyscall();break;
 3059              		.loc 1 76 13
  76:src/kernel/riscv.cpp ****             case 0x13 : executeThreadDispatchSyscall();break;
 3060              		.loc 1 76 25
  76:src/kernel/riscv.cpp ****             case 0x13 : executeThreadDispatchSyscall();break;
 3061              		.loc 1 76 49 is_stmt 0
 3062 0eb8 97000000 		call	_ZN5RiscV24executeThreadExitSyscallEv
 3062      E7800000 
 3063              	.LVL226:
  76:src/kernel/riscv.cpp ****             case 0x13 : executeThreadDispatchSyscall();break;
 3064              		.loc 1 76 52 is_stmt 1
 3065 0ec0 6FF09FFA 		j	.L140
 3066              	.L155:
  77:src/kernel/riscv.cpp ****             case 0x14 : executeThreadAttachBodySyscall();break;
 3067              		.loc 1 77 13
  77:src/kernel/riscv.cpp ****             case 0x14 : executeThreadAttachBodySyscall();break;
 3068              		.loc 1 77 25
  77:src/kernel/riscv.cpp ****             case 0x14 : executeThreadAttachBodySyscall();break;
 3069              		.loc 1 77 53 is_stmt 0
 3070 0ec4 97000000 		call	_ZN5RiscV28executeThreadDispatchSyscallEv
 3070      E7800000 
 3071              	.LVL227:
  77:src/kernel/riscv.cpp ****             case 0x14 : executeThreadAttachBodySyscall();break;
 3072              		.loc 1 77 56 is_stmt 1
 3073 0ecc 6FF0DFF9 		j	.L140
 3074              	.L154:
  78:src/kernel/riscv.cpp ****             case 0x15 : executeThreadStartSyscall();break;
 3075              		.loc 1 78 13
  78:src/kernel/riscv.cpp ****             case 0x15 : executeThreadStartSyscall();break;
 3076              		.loc 1 78 25
  78:src/kernel/riscv.cpp ****             case 0x15 : executeThreadStartSyscall();break;
 3077              		.loc 1 78 55 is_stmt 0
 3078 0ed0 97000000 		call	_ZN5RiscV30executeThreadAttachBodySyscallEv
 3078      E7800000 
 3079              	.LVL228:
  78:src/kernel/riscv.cpp ****             case 0x15 : executeThreadStartSyscall();break;
 3080              		.loc 1 78 58 is_stmt 1
 3081 0ed8 6FF01FF9 		j	.L140
 3082              	.L153:
  79:src/kernel/riscv.cpp ****             case 0x21 : executeSemOpenSyscall();break;
 3083              		.loc 1 79 13
  79:src/kernel/riscv.cpp ****             case 0x21 : executeSemOpenSyscall();break;
 3084              		.loc 1 79 25
  79:src/kernel/riscv.cpp ****             case 0x21 : executeSemOpenSyscall();break;
 3085              		.loc 1 79 50 is_stmt 0
GAS LISTING /tmp/ccP6cCkB.s 			page 85


 3086 0edc 97000000 		call	_ZN5RiscV25executeThreadStartSyscallEv
 3086      E7800000 
 3087              	.LVL229:
  79:src/kernel/riscv.cpp ****             case 0x21 : executeSemOpenSyscall();break;
 3088              		.loc 1 79 53 is_stmt 1
 3089 0ee4 6FF05FF8 		j	.L140
 3090              	.L152:
  80:src/kernel/riscv.cpp ****             case 0x22 : executeSemCloseSyscall();break;
 3091              		.loc 1 80 13
  80:src/kernel/riscv.cpp ****             case 0x22 : executeSemCloseSyscall();break;
 3092              		.loc 1 80 25
  80:src/kernel/riscv.cpp ****             case 0x22 : executeSemCloseSyscall();break;
 3093              		.loc 1 80 46 is_stmt 0
 3094 0ee8 97000000 		call	_ZN5RiscV21executeSemOpenSyscallEv
 3094      E7800000 
 3095              	.LVL230:
  80:src/kernel/riscv.cpp ****             case 0x22 : executeSemCloseSyscall();break;
 3096              		.loc 1 80 49 is_stmt 1
 3097 0ef0 6FF09FF7 		j	.L140
 3098              	.L151:
  81:src/kernel/riscv.cpp ****             case 0x23 : executeSemWaitSyscall();break;
 3099              		.loc 1 81 13
  81:src/kernel/riscv.cpp ****             case 0x23 : executeSemWaitSyscall();break;
 3100              		.loc 1 81 25
  81:src/kernel/riscv.cpp ****             case 0x23 : executeSemWaitSyscall();break;
 3101              		.loc 1 81 47 is_stmt 0
 3102 0ef4 97000000 		call	_ZN5RiscV22executeSemCloseSyscallEv
 3102      E7800000 
 3103              	.LVL231:
  81:src/kernel/riscv.cpp ****             case 0x23 : executeSemWaitSyscall();break;
 3104              		.loc 1 81 50 is_stmt 1
 3105 0efc 6FF0DFF6 		j	.L140
 3106              	.L150:
  82:src/kernel/riscv.cpp ****             case 0x24 : executeSemSignalSyscall();break;
 3107              		.loc 1 82 13
  82:src/kernel/riscv.cpp ****             case 0x24 : executeSemSignalSyscall();break;
 3108              		.loc 1 82 25
  82:src/kernel/riscv.cpp ****             case 0x24 : executeSemSignalSyscall();break;
 3109              		.loc 1 82 46 is_stmt 0
 3110 0f00 97000000 		call	_ZN5RiscV21executeSemWaitSyscallEv
 3110      E7800000 
 3111              	.LVL232:
  82:src/kernel/riscv.cpp ****             case 0x24 : executeSemSignalSyscall();break;
 3112              		.loc 1 82 49 is_stmt 1
 3113 0f08 6FF01FF6 		j	.L140
 3114              	.L149:
  83:src/kernel/riscv.cpp ****             case 0x31 : executeTimeSleepSyscall();break;
 3115              		.loc 1 83 13
  83:src/kernel/riscv.cpp ****             case 0x31 : executeTimeSleepSyscall();break;
 3116              		.loc 1 83 25
  83:src/kernel/riscv.cpp ****             case 0x31 : executeTimeSleepSyscall();break;
 3117              		.loc 1 83 48 is_stmt 0
 3118 0f0c 97000000 		call	_ZN5RiscV23executeSemSignalSyscallEv
 3118      E7800000 
 3119              	.LVL233:
  83:src/kernel/riscv.cpp ****             case 0x31 : executeTimeSleepSyscall();break;
 3120              		.loc 1 83 51 is_stmt 1
GAS LISTING /tmp/ccP6cCkB.s 			page 86


 3121 0f14 6FF05FF5 		j	.L140
 3122              	.L148:
  84:src/kernel/riscv.cpp ****             case 0x41 : executeGetcSyscall();break;
 3123              		.loc 1 84 13
  84:src/kernel/riscv.cpp ****             case 0x41 : executeGetcSyscall();break;
 3124              		.loc 1 84 25
  84:src/kernel/riscv.cpp ****             case 0x41 : executeGetcSyscall();break;
 3125              		.loc 1 84 48 is_stmt 0
 3126 0f18 97000000 		call	_ZN5RiscV23executeTimeSleepSyscallEv
 3126      E7800000 
 3127              	.LVL234:
  84:src/kernel/riscv.cpp ****             case 0x41 : executeGetcSyscall();break;
 3128              		.loc 1 84 51 is_stmt 1
 3129 0f20 6FF09FF4 		j	.L140
 3130              	.L147:
  85:src/kernel/riscv.cpp ****             case 0x42 : executePutcSyscall();break;
 3131              		.loc 1 85 13
  85:src/kernel/riscv.cpp ****             case 0x42 : executePutcSyscall();break;
 3132              		.loc 1 85 25
  85:src/kernel/riscv.cpp ****             case 0x42 : executePutcSyscall();break;
 3133              		.loc 1 85 43 is_stmt 0
 3134 0f24 97000000 		call	_ZN5RiscV18executeGetcSyscallEv
 3134      E7800000 
 3135              	.LVL235:
  85:src/kernel/riscv.cpp ****             case 0x42 : executePutcSyscall();break;
 3136              		.loc 1 85 46 is_stmt 1
 3137 0f2c 6FF0DFF3 		j	.L140
 3138              	.L146:
  86:src/kernel/riscv.cpp ****             case 0x43 : executePutcUtilSyscall();break;
 3139              		.loc 1 86 13
  86:src/kernel/riscv.cpp ****             case 0x43 : executePutcUtilSyscall();break;
 3140              		.loc 1 86 25
  86:src/kernel/riscv.cpp ****             case 0x43 : executePutcUtilSyscall();break;
 3141              		.loc 1 86 43 is_stmt 0
 3142 0f30 97000000 		call	_ZN5RiscV18executePutcSyscallEv
 3142      E7800000 
 3143              	.LVL236:
  86:src/kernel/riscv.cpp ****             case 0x43 : executePutcUtilSyscall();break;
 3144              		.loc 1 86 46 is_stmt 1
 3145 0f38 6FF01FF3 		j	.L140
 3146              	.L145:
  87:src/kernel/riscv.cpp ****             case 0x51 : executeThreadFreeSyscall();break;
 3147              		.loc 1 87 13
  87:src/kernel/riscv.cpp ****             case 0x51 : executeThreadFreeSyscall();break;
 3148              		.loc 1 87 25
  87:src/kernel/riscv.cpp ****             case 0x51 : executeThreadFreeSyscall();break;
 3149              		.loc 1 87 47 is_stmt 0
 3150 0f3c 97000000 		call	_ZN5RiscV22executePutcUtilSyscallEv
 3150      E7800000 
 3151              	.LVL237:
  87:src/kernel/riscv.cpp ****             case 0x51 : executeThreadFreeSyscall();break;
 3152              		.loc 1 87 50 is_stmt 1
 3153 0f44 6FF05FF2 		j	.L140
 3154              	.L144:
  88:src/kernel/riscv.cpp ****             case 0x52 : executeSemaphoreFreeSyscall();break;
 3155              		.loc 1 88 13
  88:src/kernel/riscv.cpp ****             case 0x52 : executeSemaphoreFreeSyscall();break;
GAS LISTING /tmp/ccP6cCkB.s 			page 87


 3156              		.loc 1 88 25
  88:src/kernel/riscv.cpp ****             case 0x52 : executeSemaphoreFreeSyscall();break;
 3157              		.loc 1 88 49 is_stmt 0
 3158 0f48 97000000 		call	_ZN5RiscV24executeThreadFreeSyscallEv
 3158      E7800000 
 3159              	.LVL238:
  88:src/kernel/riscv.cpp ****             case 0x52 : executeSemaphoreFreeSyscall();break;
 3160              		.loc 1 88 52 is_stmt 1
 3161 0f50 6FF09FF1 		j	.L140
 3162              	.L143:
  89:src/kernel/riscv.cpp ****             //in this case we need to save SP and PC at this point so that newly created thread
 3163              		.loc 1 89 13
  89:src/kernel/riscv.cpp ****             //in this case we need to save SP and PC at this point so that newly created thread
 3164              		.loc 1 89 25
  89:src/kernel/riscv.cpp ****             //in this case we need to save SP and PC at this point so that newly created thread
 3165              		.loc 1 89 52 is_stmt 0
 3166 0f54 97000000 		call	_ZN5RiscV27executeSemaphoreFreeSyscallEv
 3166      E7800000 
 3167              	.LVL239:
  89:src/kernel/riscv.cpp ****             //in this case we need to save SP and PC at this point so that newly created thread
 3168              		.loc 1 89 55 is_stmt 1
 3169 0f5c 6FF0DFF0 		j	.L140
 3170              	.L141:
  93:src/kernel/riscv.cpp ****                         RiscV::getPC();
 3171              		.loc 1 93 13
  93:src/kernel/riscv.cpp ****                         RiscV::getPC();
 3172              		.loc 1 93 25
  93:src/kernel/riscv.cpp ****                         RiscV::getPC();
 3173              		.loc 1 93 72 is_stmt 0
 3174              	#APP
 3175              	# 93 "src/kernel/riscv.cpp" 1
 3176              		mv a5, sp
 3177              	# 0 "" 2
 3178              	#NO_APP
 3179 0f64 17070000 		la	a4,_ZN3TCB9currentSPE
 3179      03370700 
 3180 0f6c 2330F700 		sd	a5,0(a4)
  94:src/kernel/riscv.cpp ****                         executeForkSyscall();
 3181              		.loc 1 94 25 is_stmt 1
  94:src/kernel/riscv.cpp ****                         executeForkSyscall();
 3182              		.loc 1 94 37 is_stmt 0
 3183 0f70 97000000 		call	_ZN5RiscV5getPCEv
 3183      E7800000 
 3184              	.LVL240:
  95:src/kernel/riscv.cpp ****                         break;
 3185              		.loc 1 95 25 is_stmt 1
  95:src/kernel/riscv.cpp ****                         break;
 3186              		.loc 1 95 43 is_stmt 0
 3187 0f78 97000000 		call	_ZN5RiscV18executeForkSyscallEv
 3187      E7800000 
 3188              	.LVL241:
  96:src/kernel/riscv.cpp ****         }
 3189              		.loc 1 96 25 is_stmt 1
 3190 0f80 6FF09FEE 		j	.L140
 3191              	.L167:
 3192              	.LBE208:
 3193              	.LBB209:
GAS LISTING /tmp/ccP6cCkB.s 			page 88


 3194              	.LBB182:
 109:src/kernel/riscv.cpp ****         uint64 volatile sepc = RiscV::r_sepc();
 3195              		.loc 1 109 9
 3196              	.LBB183:
 3197              	.LBB184:
 199:src/kernel/../../h/kernel/riscv.hpp ****     asm("csrr %[sstatus], sstatus" : [sstatus] "=r" (sstatus));
 3198              		.loc 2 199 5
 200:src/kernel/../../h/kernel/riscv.hpp ****     return sstatus;
 3199              		.loc 2 200 5
 200:src/kernel/../../h/kernel/riscv.hpp ****     return sstatus;
 3200              		.loc 2 200 63 is_stmt 0
 3201              	#APP
 3202              	# 200 "src/kernel/../../h/kernel/riscv.hpp" 1
 3203              		csrr a5, sstatus
 3204              	# 0 "" 2
 3205              	.LVL242:
 201:src/kernel/../../h/kernel/riscv.hpp **** }
 3206              		.loc 2 201 5 is_stmt 1
 3207              	#NO_APP
 3208              	.LBE184:
 3209              	.LBE183:
 109:src/kernel/riscv.cpp ****         uint64 volatile sepc = RiscV::r_sepc();
 3210              		.loc 1 109 52 is_stmt 0
 3211 0f88 2334F4FA 		sd	a5,-88(s0)
 110:src/kernel/riscv.cpp **** 
 3212              		.loc 1 110 9 is_stmt 1
 3213              	.LBB185:
 3214              	.LBB186:
 179:src/kernel/../../h/kernel/riscv.hpp ****     asm("csrr %[sepc], sepc" : [sepc] "=r" (sepc));
 3215              		.loc 2 179 5
 180:src/kernel/../../h/kernel/riscv.hpp ****     return sepc;
 3216              		.loc 2 180 5
 180:src/kernel/../../h/kernel/riscv.hpp ****     return sepc;
 3217              		.loc 2 180 51 is_stmt 0
 3218              	#APP
 3219              	# 180 "src/kernel/../../h/kernel/riscv.hpp" 1
 3220              		csrr a5, sepc
 3221              	# 0 "" 2
 3222              	.LVL243:
 181:src/kernel/../../h/kernel/riscv.hpp **** }
 3223              		.loc 2 181 5 is_stmt 1
 3224              	#NO_APP
 3225              	.LBE186:
 3226              	.LBE185:
 110:src/kernel/riscv.cpp **** 
 3227              		.loc 1 110 46 is_stmt 0
 3228 0f90 2338F4FA 		sd	a5,-80(s0)
 113:src/kernel/riscv.cpp **** 
 3229              		.loc 1 113 9 is_stmt 1
 3230              	.LVL244:
 3231              	.LBB187:
 3232              	.LBB188:
 221:src/kernel/../../h/kernel/riscv.hpp **** }
 3233              		.loc 2 221 5
 221:src/kernel/../../h/kernel/riscv.hpp **** }
 3234              		.loc 2 221 51 is_stmt 0
 3235 0f94 93072000 		li	a5,2
GAS LISTING /tmp/ccP6cCkB.s 			page 89


 3236              	#APP
 3237              	# 221 "src/kernel/../../h/kernel/riscv.hpp" 1
 3238              		csrc sip, a5
 3239              	# 0 "" 2
 3240              	.LVL245:
 3241              	#NO_APP
 3242              	.LBE188:
 3243              	.LBE187:
 117:src/kernel/riscv.cpp ****         Scheduler::awake();
 3244              		.loc 1 117 9 is_stmt 1
 117:src/kernel/riscv.cpp ****         Scheduler::awake();
 3245              		.loc 1 117 20 is_stmt 0
 3246 0f9c 17070000 		lla	a4,.LANCHOR0
 3246      13070700 
 3247 0fa4 83378700 		ld	a5,8(a4)
 3248 0fa8 93871700 		addi	a5,a5,1
 3249 0fac 2334F700 		sd	a5,8(a4)
 118:src/kernel/riscv.cpp **** 
 3250              		.loc 1 118 9 is_stmt 1
 118:src/kernel/riscv.cpp **** 
 3251              		.loc 1 118 25 is_stmt 0
 3252 0fb0 97000000 		call	_ZN9Scheduler5awakeEv@plt
 3252      E7800000 
 3253              	.LVL246:
 122:src/kernel/riscv.cpp ****         if(TCB::timeSliceCounter >= TCB::running->timeSlice) {
 3254              		.loc 1 122 9 is_stmt 1
 122:src/kernel/riscv.cpp ****         if(TCB::timeSliceCounter >= TCB::running->timeSlice) {
 3255              		.loc 1 122 30 is_stmt 0
 3256 0fb8 17070000 		la	a4,_ZN3TCB16timeSliceCounterE
 3256      03370700 
 3257 0fc0 83370700 		ld	a5,0(a4)
 3258 0fc4 93871700 		addi	a5,a5,1
 3259 0fc8 2330F700 		sd	a5,0(a4)
 123:src/kernel/riscv.cpp **** 
 3260              		.loc 1 123 9 is_stmt 1
 3261              	.LBB189:
 123:src/kernel/riscv.cpp **** 
 3262              		.loc 1 123 51 is_stmt 0
 3263 0fcc 17070000 		la	a4,_ZN3TCB7runningE
 3263      03370700 
 3264 0fd4 03370700 		ld	a4,0(a4)
 3265 0fd8 83360703 		ld	a3,48(a4)
 123:src/kernel/riscv.cpp **** 
 3266              		.loc 1 123 9
 3267 0fdc 63FCD700 		bgeu	a5,a3,.L170
 3268              	.L161:
 3269              	.LBE189:
 135:src/kernel/riscv.cpp ****         RiscV::w_sepc(sepc);
 3270              		.loc 1 135 9 is_stmt 1
 135:src/kernel/riscv.cpp ****         RiscV::w_sepc(sepc);
 3271              		.loc 1 135 25 is_stmt 0
 3272 0fe0 833784FA 		ld	a5,-88(s0)
 3273              	.LVL247:
 3274              	.LBB191:
 3275              	.LBB192:
 195:src/kernel/../../h/kernel/riscv.hpp **** }
 3276              		.loc 2 195 5 is_stmt 1
GAS LISTING /tmp/ccP6cCkB.s 			page 90


 195:src/kernel/../../h/kernel/riscv.hpp **** }
 3277              		.loc 2 195 64 is_stmt 0
 3278              	#APP
 3279              	# 195 "src/kernel/../../h/kernel/riscv.hpp" 1
 3280              		csrw sstatus, a5
 3281              	# 0 "" 2
 3282              	.LVL248:
 3283              	#NO_APP
 3284              	.LBE192:
 3285              	.LBE191:
 136:src/kernel/riscv.cpp ****     }
 3286              		.loc 1 136 9 is_stmt 1
 136:src/kernel/riscv.cpp ****     }
 3287              		.loc 1 136 22 is_stmt 0
 3288 0fe8 833704FB 		ld	a5,-80(s0)
 3289              	.LVL249:
 3290              	.LBB193:
 3291              	.LBB194:
 185:src/kernel/../../h/kernel/riscv.hpp **** }
 3292              		.loc 2 185 5 is_stmt 1
 185:src/kernel/../../h/kernel/riscv.hpp **** }
 3293              		.loc 2 185 52 is_stmt 0
 3294              	#APP
 3295              	# 185 "src/kernel/../../h/kernel/riscv.hpp" 1
 186:src/kernel/../../h/kernel/riscv.hpp **** 
 3296              		csrw sepc, a5
 3297              	# 0 "" 2
 3298              		.loc 2 186 1
 3299              	#NO_APP
 3300 0ff0 6FF05FE9 		j	.L160
 3301              	.LVL250:
 3302              	.L170:
 3303              	.LBE194:
 3304              	.LBE193:
 3305              	.LBB195:
 3306              	.LBB190:
 125:src/kernel/riscv.cpp **** 
 3307              		.loc 1 125 13 is_stmt 1
 125:src/kernel/riscv.cpp **** 
 3308              		.loc 1 125 35 is_stmt 0
 3309 0ff4 97070000 		la	a5,_ZN3TCB16timeSliceCounterE
 3309      83B70700 
 3310 0ffc 23B00700 		sd	zero,0(a5)
 127:src/kernel/riscv.cpp **** 
 3311              		.loc 1 127 13 is_stmt 1
 3312              	.LVL251:
 129:src/kernel/riscv.cpp **** 
 3313              		.loc 1 129 13
 129:src/kernel/riscv.cpp **** 
 3314              		.loc 1 129 25 is_stmt 0
 3315 1000 93071000 		li	a5,1
 3316 1004 2328F700 		sw	a5,16(a4)
 131:src/kernel/riscv.cpp ****         }
 3317              		.loc 1 131 13 is_stmt 1
 131:src/kernel/riscv.cpp ****         }
 3318              		.loc 1 131 26 is_stmt 0
 3319 1008 97000000 		call	_ZN3TCB8dispatchEv@plt
GAS LISTING /tmp/ccP6cCkB.s 			page 91


 3319      E7800000 
 3320              	.LVL252:
 3321              	.LBE190:
 3322 1010 6FF01FFD 		j	.L161
 3323              	.L168:
 3324              	.LBE195:
 3325              	.LBE182:
 3326              	.LBB196:
 3327              	.LBB167:
 143:src/kernel/riscv.cpp ****         uint64 volatile sepc = RiscV::r_sepc();
 3328              		.loc 1 143 9 is_stmt 1
 3329              	.LBB168:
 3330              	.LBB169:
 199:src/kernel/../../h/kernel/riscv.hpp ****     asm("csrr %[sstatus], sstatus" : [sstatus] "=r" (sstatus));
 3331              		.loc 2 199 5
 200:src/kernel/../../h/kernel/riscv.hpp ****     return sstatus;
 3332              		.loc 2 200 5
 200:src/kernel/../../h/kernel/riscv.hpp ****     return sstatus;
 3333              		.loc 2 200 63 is_stmt 0
 3334              	#APP
 3335              	# 200 "src/kernel/../../h/kernel/riscv.hpp" 1
 3336              		csrr a5, sstatus
 3337              	# 0 "" 2
 3338              	.LVL253:
 201:src/kernel/../../h/kernel/riscv.hpp **** }
 3339              		.loc 2 201 5 is_stmt 1
 3340              	#NO_APP
 3341              	.LBE169:
 3342              	.LBE168:
 143:src/kernel/riscv.cpp ****         uint64 volatile sepc = RiscV::r_sepc();
 3343              		.loc 1 143 52 is_stmt 0
 3344 1018 233CF4FA 		sd	a5,-72(s0)
 144:src/kernel/riscv.cpp **** 
 3345              		.loc 1 144 9 is_stmt 1
 3346              	.LBB170:
 3347              	.LBB171:
 179:src/kernel/../../h/kernel/riscv.hpp ****     asm("csrr %[sepc], sepc" : [sepc] "=r" (sepc));
 3348              		.loc 2 179 5
 180:src/kernel/../../h/kernel/riscv.hpp ****     return sepc;
 3349              		.loc 2 180 5
 180:src/kernel/../../h/kernel/riscv.hpp ****     return sepc;
 3350              		.loc 2 180 51 is_stmt 0
 3351              	#APP
 3352              	# 180 "src/kernel/../../h/kernel/riscv.hpp" 1
 3353              		csrr a5, sepc
 3354              	# 0 "" 2
 3355              	.LVL254:
 181:src/kernel/../../h/kernel/riscv.hpp **** }
 3356              		.loc 2 181 5 is_stmt 1
 3357              	#NO_APP
 3358              	.LBE171:
 3359              	.LBE170:
 144:src/kernel/riscv.cpp **** 
 3360              		.loc 1 144 46 is_stmt 0
 3361 1020 2330F4FC 		sd	a5,-64(s0)
 147:src/kernel/riscv.cpp ****         asm("mv a0, %[status]" : : [status] "r" (status));
 3362              		.loc 1 147 9 is_stmt 1
GAS LISTING /tmp/ccP6cCkB.s 			page 92


 147:src/kernel/riscv.cpp ****         asm("mv a0, %[status]" : : [status] "r" (status));
 3363              		.loc 1 147 16 is_stmt 0
 3364 1024 97070000 		la	a5,CONSOLE_STATUS
 3364      83B70700 
 3365 102c 83B70700 		ld	a5,0(a5)
 3366              	.LVL255:
 148:src/kernel/riscv.cpp ****         asm("lb a1, 0(a0)");
 3367              		.loc 1 148 9 is_stmt 1
 148:src/kernel/riscv.cpp ****         asm("lb a1, 0(a0)");
 3368              		.loc 1 148 58 is_stmt 0
 3369              	#APP
 3370              	# 148 "src/kernel/riscv.cpp" 1
 149:src/kernel/riscv.cpp ****         asm("mv %[status], a1" : [status] "=r" (status));
 3371              		mv a0, a5
 3372              	# 0 "" 2
 3373              		.loc 1 149 9 is_stmt 1
 149:src/kernel/riscv.cpp ****         asm("mv %[status], a1" : [status] "=r" (status));
 3374              		.loc 1 149 28 is_stmt 0
 3375              	# 149 "src/kernel/riscv.cpp" 1
 150:src/kernel/riscv.cpp **** 
 3376              		lb a1, 0(a0)
 3377              	# 0 "" 2
 3378              		.loc 1 150 9 is_stmt 1
 150:src/kernel/riscv.cpp **** 
 3379              		.loc 1 150 57 is_stmt 0
 3380              	# 150 "src/kernel/riscv.cpp" 1
 3381              		mv a5, a1
 3382              	# 0 "" 2
 3383              	.LVL256:
 153:src/kernel/riscv.cpp ****         {
 3384              		.loc 1 153 9 is_stmt 1
 3385              	#NO_APP
 3386              	.LBB172:
 153:src/kernel/riscv.cpp ****         {
 3387              		.loc 1 153 19 is_stmt 0
 3388 103c 93F71700 		andi	a5,a5,1
 3389              	.LVL257:
 153:src/kernel/riscv.cpp ****         {
 3390              		.loc 1 153 9
 3391 1040 63880702 		beqz	a5,.L163
 3392              	.LBB173:
 156:src/kernel/riscv.cpp ****             char c;
 3393              		.loc 1 156 13 is_stmt 1
 157:src/kernel/riscv.cpp ****             data = CONSOLE_TX_DATA;
 3394              		.loc 1 157 13
 158:src/kernel/riscv.cpp ****             asm("mv a0, %[data]" : : [data] "r" (data));
 3395              		.loc 1 158 13
 158:src/kernel/riscv.cpp ****             asm("mv a0, %[data]" : : [data] "r" (data));
 3396              		.loc 1 158 18 is_stmt 0
 3397 1044 97070000 		la	a5,CONSOLE_TX_DATA
 3397      83B70700 
 3398 104c 83B70700 		ld	a5,0(a5)
 3399              	.LVL258:
 159:src/kernel/riscv.cpp ****             asm("lb a1, 0(a0)");
 3400              		.loc 1 159 13 is_stmt 1
 159:src/kernel/riscv.cpp ****             asm("lb a1, 0(a0)");
 3401              		.loc 1 159 56 is_stmt 0
GAS LISTING /tmp/ccP6cCkB.s 			page 93


 3402              	#APP
 3403              	# 159 "src/kernel/riscv.cpp" 1
 160:src/kernel/riscv.cpp ****             asm("mv %[c], a1" : [c] "=r" (c));
 3404              		mv a0, a5
 3405              	# 0 "" 2
 3406              		.loc 1 160 13 is_stmt 1
 160:src/kernel/riscv.cpp ****             asm("mv %[c], a1" : [c] "=r" (c));
 3407              		.loc 1 160 32 is_stmt 0
 3408              	# 160 "src/kernel/riscv.cpp" 1
 161:src/kernel/riscv.cpp **** 
 3409              		lb a1, 0(a0)
 3410              	# 0 "" 2
 3411              		.loc 1 161 13 is_stmt 1
 161:src/kernel/riscv.cpp **** 
 3412              		.loc 1 161 46 is_stmt 0
 3413              	# 161 "src/kernel/riscv.cpp" 1
 3414              		mv a0, a1
 3415              	# 0 "" 2
 3416              	#NO_APP
 3417 105c 1375F50F 		andi	a0,a0,0xff
 3418              	.LVL259:
 164:src/kernel/riscv.cpp ****                 ConsoleUtil::pendingGetc--;
 3419              		.loc 1 164 13 is_stmt 1
 164:src/kernel/riscv.cpp ****                 ConsoleUtil::pendingGetc--;
 3420              		.loc 1 164 40 is_stmt 0
 3421 1060 97070000 		la	a5,_ZN11ConsoleUtil11pendingGetcE
 3421      83B70700 
 3422              	.LVL260:
 3423 1068 83B70700 		ld	a5,0(a5)
 164:src/kernel/riscv.cpp ****                 ConsoleUtil::pendingGetc--;
 3424              		.loc 1 164 13
 3425 106c 63940702 		bnez	a5,.L171
 3426              	.LVL261:
 3427              	.L163:
 3428              	.LBE173:
 3429              	.LBE172:
 169:src/kernel/riscv.cpp **** 
 3430              		.loc 1 169 9 is_stmt 1
 169:src/kernel/riscv.cpp **** 
 3431              		.loc 1 169 22 is_stmt 0
 3432 1070 97000000 		call	plic_claim@plt
 3432      E7800000 
 3433              	.LVL262:
 3434 1078 97000000 		call	plic_complete@plt
 3434      E7800000 
 3435              	.LVL263:
 171:src/kernel/riscv.cpp ****         RiscV::w_sepc(sepc);
 3436              		.loc 1 171 9 is_stmt 1
 171:src/kernel/riscv.cpp ****         RiscV::w_sepc(sepc);
 3437              		.loc 1 171 25 is_stmt 0
 3438 1080 833784FB 		ld	a5,-72(s0)
 3439              	.LVL264:
 3440              	.LBB175:
 3441              	.LBB176:
 195:src/kernel/../../h/kernel/riscv.hpp **** }
 3442              		.loc 2 195 5 is_stmt 1
 195:src/kernel/../../h/kernel/riscv.hpp **** }
GAS LISTING /tmp/ccP6cCkB.s 			page 94


 3443              		.loc 2 195 64 is_stmt 0
 3444              	#APP
 3445              	# 195 "src/kernel/../../h/kernel/riscv.hpp" 1
 3446              		csrw sstatus, a5
 3447              	# 0 "" 2
 3448              	.LVL265:
 3449              	#NO_APP
 3450              	.LBE176:
 3451              	.LBE175:
 172:src/kernel/riscv.cpp ****     }
 3452              		.loc 1 172 9 is_stmt 1
 172:src/kernel/riscv.cpp ****     }
 3453              		.loc 1 172 22 is_stmt 0
 3454 1088 833704FC 		ld	a5,-64(s0)
 3455              	.LVL266:
 3456              	.LBB177:
 3457              	.LBB178:
 185:src/kernel/../../h/kernel/riscv.hpp **** }
 3458              		.loc 2 185 5 is_stmt 1
 185:src/kernel/../../h/kernel/riscv.hpp **** }
 3459              		.loc 2 185 52 is_stmt 0
 3460              	#APP
 3461              	# 185 "src/kernel/../../h/kernel/riscv.hpp" 1
 186:src/kernel/../../h/kernel/riscv.hpp **** 
 3462              		csrw sepc, a5
 3463              	# 0 "" 2
 3464              		.loc 2 186 1
 3465              	#NO_APP
 3466 1090 6FF05FDF 		j	.L160
 3467              	.LVL267:
 3468              	.L171:
 3469              	.LBE178:
 3470              	.LBE177:
 3471              	.LBB179:
 3472              	.LBB174:
 165:src/kernel/riscv.cpp ****                 ConsoleUtil::putInput(c);
 3473              		.loc 1 165 17 is_stmt 1
 165:src/kernel/riscv.cpp ****                 ConsoleUtil::putInput(c);
 3474              		.loc 1 165 41 is_stmt 0
 3475 1094 9387F7FF 		addi	a5,a5,-1
 3476 1098 17070000 		la	a4,_ZN11ConsoleUtil11pendingGetcE
 3476      03370700 
 3477 10a0 2330F700 		sd	a5,0(a4)
 166:src/kernel/riscv.cpp ****             }
 3478              		.loc 1 166 17 is_stmt 1
 166:src/kernel/riscv.cpp ****             }
 3479              		.loc 1 166 38 is_stmt 0
 3480 10a4 97000000 		call	_ZN11ConsoleUtil8putInputEc@plt
 3480      E7800000 
 3481              	.LVL268:
 3482 10ac 6FF05FFC 		j	.L163
 3483              	.LVL269:
 3484              	.L169:
 3485              	.LBE174:
 3486              	.LBE179:
 3487              	.LBE167:
 3488              	.LBB180:
GAS LISTING /tmp/ccP6cCkB.s 			page 95


 3489              	.LBB164:
 177:src/kernel/riscv.cpp ****         old->status = TCB::Status::FINISHED;
 3490              		.loc 1 177 9 is_stmt 1
 177:src/kernel/riscv.cpp ****         old->status = TCB::Status::FINISHED;
 3491              		.loc 1 177 14 is_stmt 0
 3492 10b0 97070000 		la	a5,_ZN3TCB7runningE
 3492      83B70700 
 3493 10b8 83B70700 		ld	a5,0(a5)
 3494              	.LVL270:
 178:src/kernel/riscv.cpp ****         ConsoleUtil::printString("sepc: ");
 3495              		.loc 1 178 9 is_stmt 1
 178:src/kernel/riscv.cpp ****         ConsoleUtil::printString("sepc: ");
 3496              		.loc 1 178 21 is_stmt 0
 3497 10bc 13072000 		li	a4,2
 3498 10c0 23A8E700 		sw	a4,16(a5)
 179:src/kernel/riscv.cpp ****         uint64 sepc = RiscV::r_sepc();
 3499              		.loc 1 179 9 is_stmt 1
 179:src/kernel/riscv.cpp ****         uint64 sepc = RiscV::r_sepc();
 3500              		.loc 1 179 33 is_stmt 0
 3501 10c4 17050000 		lla	a0,.LC0
 3501      13050500 
 3502 10cc 97000000 		call	_ZN11ConsoleUtil11printStringEPKc@plt
 3502      E7800000 
 3503              	.LVL271:
 180:src/kernel/riscv.cpp ****         ConsoleUtil::printInt(sepc,16);
 3504              		.loc 1 180 9 is_stmt 1
 3505              	.LBB165:
 3506              	.LBB166:
 179:src/kernel/../../h/kernel/riscv.hpp ****     asm("csrr %[sepc], sepc" : [sepc] "=r" (sepc));
 3507              		.loc 2 179 5
 180:src/kernel/../../h/kernel/riscv.hpp ****     return sepc;
 3508              		.loc 2 180 5
 180:src/kernel/../../h/kernel/riscv.hpp ****     return sepc;
 3509              		.loc 2 180 51 is_stmt 0
 3510              	#APP
 3511              	# 180 "src/kernel/../../h/kernel/riscv.hpp" 1
 181:src/kernel/../../h/kernel/riscv.hpp **** }
 3512              		csrr a0, sepc
 3513              	# 0 "" 2
 3514              		.loc 2 181 5 is_stmt 1
 3515              	#NO_APP
 3516              	.LBE166:
 3517              	.LBE165:
 181:src/kernel/riscv.cpp ****         ConsoleUtil::printString("\n");
 3518              		.loc 1 181 9
 181:src/kernel/riscv.cpp ****         ConsoleUtil::printString("\n");
 3519              		.loc 1 181 30 is_stmt 0
 3520 10d8 13060000 		li	a2,0
 3521 10dc 93050001 		li	a1,16
 3522 10e0 1B050500 		sext.w	a0,a0
 3523 10e4 97000000 		call	_ZN11ConsoleUtil8printIntEiii@plt
 3523      E7800000 
 3524              	.LVL272:
 182:src/kernel/riscv.cpp ****         ConsoleUtil::printString("Illegal instruction\nExiting thread...\n");
 3525              		.loc 1 182 9 is_stmt 1
 182:src/kernel/riscv.cpp ****         ConsoleUtil::printString("Illegal instruction\nExiting thread...\n");
 3526              		.loc 1 182 33 is_stmt 0
GAS LISTING /tmp/ccP6cCkB.s 			page 96


 3527 10ec 17050000 		lla	a0,.LC1
 3527      13050500 
 3528 10f4 97000000 		call	_ZN11ConsoleUtil11printStringEPKc@plt
 3528      E7800000 
 3529              	.LVL273:
 183:src/kernel/riscv.cpp ****         TCB::dispatch();
 3530              		.loc 1 183 9 is_stmt 1
 183:src/kernel/riscv.cpp ****         TCB::dispatch();
 3531              		.loc 1 183 33 is_stmt 0
 3532 10fc 17050000 		lla	a0,.LC2
 3532      13050500 
 3533 1104 97000000 		call	_ZN11ConsoleUtil11printStringEPKc@plt
 3533      E7800000 
 3534              	.LVL274:
 184:src/kernel/riscv.cpp ****     }
 3535              		.loc 1 184 9 is_stmt 1
 184:src/kernel/riscv.cpp ****     }
 3536              		.loc 1 184 22 is_stmt 0
 3537 110c 97000000 		call	_ZN3TCB8dispatchEv@plt
 3537      E7800000 
 3538              	.LVL275:
 3539              	.LBE164:
 3540 1114 6FF01FD7 		j	.L160
 3541              	.LBE180:
 3542              	.LBE196:
 3543              	.LBE209:
 3544              	.LBE213:
 3545              		.cfi_endproc
 3546              	.LFE50:
 3548              		.align	2
 3549              		.globl	_ZN5RiscV12buildSectionEPvmmm
 3551              	_ZN5RiscV12buildSectionEPvmmm:
 3552              	.LFB77:
 761:src/kernel/riscv.cpp ****     for(uint64 i=start;i<end;i+=0x1000) {
 3553              		.loc 1 761 76 is_stmt 1
 3554              		.cfi_startproc
 3555              	.LVL276:
 3556 1118 130101FD 		addi	sp,sp,-48
 3557              		.cfi_def_cfa_offset 48
 3558 111c 23341102 		sd	ra,40(sp)
 3559 1120 23308102 		sd	s0,32(sp)
 3560 1124 233C9100 		sd	s1,24(sp)
 3561 1128 23382101 		sd	s2,16(sp)
 3562 112c 23343101 		sd	s3,8(sp)
 3563 1130 23304101 		sd	s4,0(sp)
 3564              		.cfi_offset 1, -8
 3565              		.cfi_offset 8, -16
 3566              		.cfi_offset 9, -24
 3567              		.cfi_offset 18, -32
 3568              		.cfi_offset 19, -40
 3569              		.cfi_offset 20, -48
 3570 1134 13040103 		addi	s0,sp,48
 3571              		.cfi_def_cfa 8, 0
 3572 1138 130A0500 		mv	s4,a0
 3573 113c 93840500 		mv	s1,a1
 3574 1140 13090600 		mv	s2,a2
 3575 1144 93890600 		mv	s3,a3
GAS LISTING /tmp/ccP6cCkB.s 			page 97


 762:src/kernel/riscv.cpp ****         handlePageFault(PMT,i, mask);
 3576              		.loc 1 762 5
 3577              	.LVL277:
 3578              	.L174:
 3579              	.LBB214:
 762:src/kernel/riscv.cpp ****         handlePageFault(PMT,i, mask);
 3580              		.loc 1 762 25 discriminator 3
 3581 1148 63F22403 		bgeu	s1,s2,.L172
 763:src/kernel/riscv.cpp ****     }
 3582              		.loc 1 763 9 discriminator 2
 763:src/kernel/riscv.cpp ****     }
 3583              		.loc 1 763 24 is_stmt 0 discriminator 2
 3584 114c 13860900 		mv	a2,s3
 3585 1150 93850400 		mv	a1,s1
 3586 1154 13050A00 		mv	a0,s4
 3587 1158 97000000 		call	_ZN5RiscV15handlePageFaultEPvmm
 3587      E7800000 
 3588              	.LVL278:
 762:src/kernel/riscv.cpp ****         handlePageFault(PMT,i, mask);
 3589              		.loc 1 762 5 is_stmt 1 discriminator 2
 762:src/kernel/riscv.cpp ****         handlePageFault(PMT,i, mask);
 3590              		.loc 1 762 31 is_stmt 0 discriminator 2
 3591 1160 B7170000 		li	a5,4096
 3592 1164 B384F400 		add	s1,s1,a5
 3593              	.LVL279:
 762:src/kernel/riscv.cpp ****         handlePageFault(PMT,i, mask);
 3594              		.loc 1 762 5 discriminator 2
 3595 1168 6FF01FFE 		j	.L174
 3596              	.L172:
 3597              	.LBE214:
 765:src/kernel/riscv.cpp **** 
 3598              		.loc 1 765 1
 3599 116c 83308102 		ld	ra,40(sp)
 3600              		.cfi_restore 1
 3601 1170 03340102 		ld	s0,32(sp)
 3602              		.cfi_restore 8
 3603              		.cfi_def_cfa 2, 48
 3604 1174 83348101 		ld	s1,24(sp)
 3605              		.cfi_restore 9
 3606              	.LVL280:
 3607 1178 03390101 		ld	s2,16(sp)
 3608              		.cfi_restore 18
 3609              	.LVL281:
 3610 117c 83398100 		ld	s3,8(sp)
 3611              		.cfi_restore 19
 3612              	.LVL282:
 3613 1180 033A0100 		ld	s4,0(sp)
 3614              		.cfi_restore 20
 3615              	.LVL283:
 3616 1184 13010103 		addi	sp,sp,48
 3617              		.cfi_def_cfa_offset 0
 3618 1188 67800000 		jr	ra
 3619              		.cfi_endproc
 3620              	.LFE77:
 3622              		.align	2
 3623              		.globl	_ZN5RiscV19mapConsoleRegistersEPv
 3625              	_ZN5RiscV19mapConsoleRegistersEPv:
GAS LISTING /tmp/ccP6cCkB.s 			page 98


 3626              	.LFB82:
 835:src/kernel/riscv.cpp **** 
 836:src/kernel/riscv.cpp **** void RiscV::mapConsoleRegisters(void *PMT) {
 3627              		.loc 1 836 44 is_stmt 1
 3628              		.cfi_startproc
 3629              	.LVL284:
 3630 118c 130101FE 		addi	sp,sp,-32
 3631              		.cfi_def_cfa_offset 32
 3632 1190 233C1100 		sd	ra,24(sp)
 3633 1194 23388100 		sd	s0,16(sp)
 3634 1198 23349100 		sd	s1,8(sp)
 3635              		.cfi_offset 1, -8
 3636              		.cfi_offset 8, -16
 3637              		.cfi_offset 9, -24
 3638 119c 13040102 		addi	s0,sp,32
 3639              		.cfi_def_cfa 8, 0
 3640 11a0 93040500 		mv	s1,a0
 837:src/kernel/riscv.cpp ****     handlePageFault(PMT, (uint64)CONSOLE_STATUS,0x1f);
 3641              		.loc 1 837 5
 3642              		.loc 1 837 20 is_stmt 0
 3643 11a4 1306F001 		li	a2,31
 3644 11a8 97070000 		la	a5,CONSOLE_STATUS
 3644      83B70700 
 3645 11b0 83B50700 		ld	a1,0(a5)
 3646 11b4 97000000 		call	_ZN5RiscV15handlePageFaultEPvmm
 3646      E7800000 
 3647              	.LVL285:
 838:src/kernel/riscv.cpp ****     handlePageFault(PMT, (uint64)CONSOLE_TX_DATA,0x1f);
 3648              		.loc 1 838 5 is_stmt 1
 3649              		.loc 1 838 20 is_stmt 0
 3650 11bc 1306F001 		li	a2,31
 3651 11c0 97070000 		la	a5,CONSOLE_TX_DATA
 3651      83B70700 
 3652 11c8 83B50700 		ld	a1,0(a5)
 3653 11cc 13850400 		mv	a0,s1
 3654 11d0 97000000 		call	_ZN5RiscV15handlePageFaultEPvmm
 3654      E7800000 
 3655              	.LVL286:
 839:src/kernel/riscv.cpp ****     handlePageFault(PMT, (uint64)CONSOLE_RX_DATA,0x1f);
 3656              		.loc 1 839 5 is_stmt 1
 3657              		.loc 1 839 20 is_stmt 0
 3658 11d8 1306F001 		li	a2,31
 3659 11dc 97070000 		la	a5,CONSOLE_RX_DATA
 3659      83B70700 
 3660 11e4 83B50700 		ld	a1,0(a5)
 3661 11e8 13850400 		mv	a0,s1
 3662 11ec 97000000 		call	_ZN5RiscV15handlePageFaultEPvmm
 3662      E7800000 
 3663              	.LVL287:
 840:src/kernel/riscv.cpp ****     handlePageFault(PMT, (uint64)PLIC_CLAIM_PF,0x1f);
 3664              		.loc 1 840 5 is_stmt 1
 3665              		.loc 1 840 20 is_stmt 0
 3666 11f4 1306F001 		li	a2,31
 3667 11f8 B715200C 		li	a1,203427840
 3668 11fc 93854500 		addi	a1,a1,4
 3669 1200 13850400 		mv	a0,s1
 3670 1204 97000000 		call	_ZN5RiscV15handlePageFaultEPvmm
GAS LISTING /tmp/ccP6cCkB.s 			page 99


 3670      E7800000 
 3671              	.LVL288:
 841:src/kernel/riscv.cpp **** }...
 3672              		.loc 1 841 1
 3673 120c 83308101 		ld	ra,24(sp)
 3674              		.cfi_restore 1
 3675 1210 03340101 		ld	s0,16(sp)
 3676              		.cfi_restore 8
 3677              		.cfi_def_cfa 2, 32
 3678 1214 83348100 		ld	s1,8(sp)
 3679              		.cfi_restore 9
 3680              	.LVL289:
 3681 1218 13010102 		addi	sp,sp,32
 3682              		.cfi_def_cfa_offset 0
 3683 121c 67800000 		jr	ra
 3684              		.cfi_endproc
 3685              	.LFE82:
 3687              		.align	2
 3688              		.globl	_ZN5RiscV14buildKernelPMTEv
 3690              	_ZN5RiscV14buildKernelPMTEv:
 3691              	.LFB78:
 767:src/kernel/riscv.cpp **** void RiscV::buildKernelPMT() {
 3692              		.loc 1 767 30 is_stmt 1
 3693              		.cfi_startproc
 3694 1220 130101FD 		addi	sp,sp,-48
 3695              		.cfi_def_cfa_offset 48
 3696 1224 23341102 		sd	ra,40(sp)
 3697 1228 23308102 		sd	s0,32(sp)
 3698 122c 233C9100 		sd	s1,24(sp)
 3699 1230 23382101 		sd	s2,16(sp)
 3700 1234 23343101 		sd	s3,8(sp)
 3701 1238 23304101 		sd	s4,0(sp)
 3702              		.cfi_offset 1, -8
 3703              		.cfi_offset 8, -16
 3704              		.cfi_offset 9, -24
 3705              		.cfi_offset 18, -32
 3706              		.cfi_offset 19, -40
 3707              		.cfi_offset 20, -48
 3708 123c 13040103 		addi	s0,sp,48
 3709              		.cfi_def_cfa 8, 0
 768:src/kernel/riscv.cpp ****     RiscV::kPMT = RiscV::getPMT();
 3710              		.loc 1 768 5
 768:src/kernel/riscv.cpp ****     RiscV::kPMT = RiscV::getPMT();
 3711              		.loc 1 768 32 is_stmt 0
 3712 1240 97000000 		call	_ZN5RiscV6getPMTEv
 3712      E7800000 
 3713              	.LVL290:
 768:src/kernel/riscv.cpp ****     RiscV::kPMT = RiscV::getPMT();
 3714              		.loc 1 768 17
 3715 1248 97040000 		lla	s1,.LANCHOR0
 3715      93840400 
 3716 1250 23B8A400 		sd	a0,16(s1)
 769:src/kernel/riscv.cpp ****     uint64 bEnd = ((uint64)Buddy::BUDDY_START_ADDR + (Buddy::BLOCKS_AVAILABLE<<12));
 3717              		.loc 1 769 5 is_stmt 1
 769:src/kernel/riscv.cpp ****     uint64 bEnd = ((uint64)Buddy::BUDDY_START_ADDR + (Buddy::BLOCKS_AVAILABLE<<12));
 3718              		.loc 1 769 78 is_stmt 0
 3719 1254 97070000 		la	a5,_ZN5Buddy16BLOCKS_AVAILABLEE
GAS LISTING /tmp/ccP6cCkB.s 			page 100


 3719      83B70700 
 3720 125c 03B90700 		ld	s2,0(a5)
 3721 1260 1319C900 		slli	s2,s2,12
 769:src/kernel/riscv.cpp ****     uint64 bEnd = ((uint64)Buddy::BUDDY_START_ADDR + (Buddy::BLOCKS_AVAILABLE<<12));
 3722              		.loc 1 769 52
 3723 1264 97070000 		la	a5,_ZN5Buddy16BUDDY_START_ADDRE
 3723      83B70700 
 3724 126c 83B70700 		ld	a5,0(a5)
 769:src/kernel/riscv.cpp ****     uint64 bEnd = ((uint64)Buddy::BUDDY_START_ADDR + (Buddy::BLOCKS_AVAILABLE<<12));
 3725              		.loc 1 769 12
 3726 1270 3309F900 		add	s2,s2,a5
 3727              	.LVL291:
 772:src/kernel/riscv.cpp ****     RiscV::buildSection(kPMT, OS_ENTRY, KERNEL_TEXT_END, 0xb);
 3728              		.loc 1 772 5 is_stmt 1
 772:src/kernel/riscv.cpp ****     RiscV::buildSection(kPMT, OS_ENTRY, KERNEL_TEXT_END, 0xb);
 3729              		.loc 1 772 24 is_stmt 0
 3730 1274 170A0000 		la	s4,kernelTextEnd
 3730      033A0A00 
 3731 127c 9306B000 		li	a3,11
 3732 1280 13060A00 		mv	a2,s4
 3733 1284 93051000 		li	a1,1
 3734 1288 9395F501 		slli	a1,a1,31
 3735 128c 97000000 		call	_ZN5RiscV12buildSectionEPvmmm
 3735      E7800000 
 3736              	.LVL292:
 773:src/kernel/riscv.cpp ****     RiscV::buildSection(kPMT, KERNEL_TEXT_END, USER_TEXT_START, 0x7);
 3737              		.loc 1 773 5 is_stmt 1
 773:src/kernel/riscv.cpp ****     RiscV::buildSection(kPMT, KERNEL_TEXT_END, USER_TEXT_START, 0x7);
 3738              		.loc 1 773 24 is_stmt 0
 3739 1294 97090000 		la	s3,userTextStart
 3739      83B90900 
 3740 129c 93067000 		li	a3,7
 3741 12a0 13860900 		mv	a2,s3
 3742 12a4 93050A00 		mv	a1,s4
 3743 12a8 03B50401 		ld	a0,16(s1)
 3744 12ac 97000000 		call	_ZN5RiscV12buildSectionEPvmmm
 3744      E7800000 
 3745              	.LVL293:
 774:src/kernel/riscv.cpp ****     RiscV::buildSection(kPMT, USER_TEXT_START, USER_DATA_START, 0x1b);
 3746              		.loc 1 774 5 is_stmt 1
 774:src/kernel/riscv.cpp ****     RiscV::buildSection(kPMT, USER_TEXT_START, USER_DATA_START, 0x1b);
 3747              		.loc 1 774 24 is_stmt 0
 3748 12b4 170A0000 		la	s4,userDataStart
 3748      033A0A00 
 3749 12bc 9306B001 		li	a3,27
 3750 12c0 13060A00 		mv	a2,s4
 3751 12c4 93850900 		mv	a1,s3
 3752 12c8 03B50401 		ld	a0,16(s1)
 3753 12cc 97000000 		call	_ZN5RiscV12buildSectionEPvmmm
 3753      E7800000 
 3754              	.LVL294:
 775:src/kernel/riscv.cpp ****     RiscV::buildSection(kPMT, USER_DATA_START, USER_DATA_END, 0x17);
 3755              		.loc 1 775 5 is_stmt 1
 775:src/kernel/riscv.cpp ****     RiscV::buildSection(kPMT, USER_DATA_START, USER_DATA_END, 0x17);
 3756              		.loc 1 775 24 is_stmt 0
 3757 12d4 97090000 		la	s3,userDataEnd
 3757      83B90900 
GAS LISTING /tmp/ccP6cCkB.s 			page 101


 3758 12dc 93067001 		li	a3,23
 3759 12e0 13860900 		mv	a2,s3
 3760 12e4 93050A00 		mv	a1,s4
 3761 12e8 03B50401 		ld	a0,16(s1)
 3762 12ec 97000000 		call	_ZN5RiscV12buildSectionEPvmmm
 3762      E7800000 
 3763              	.LVL295:
 776:src/kernel/riscv.cpp ****     RiscV::buildSection(kPMT, USER_DATA_END, bEnd, 0x7);
 3764              		.loc 1 776 5 is_stmt 1
 776:src/kernel/riscv.cpp ****     RiscV::buildSection(kPMT, USER_DATA_END, bEnd, 0x7);
 3765              		.loc 1 776 24 is_stmt 0
 3766 12f4 93067000 		li	a3,7
 3767 12f8 13060900 		mv	a2,s2
 3768 12fc 93850900 		mv	a1,s3
 3769 1300 03B50401 		ld	a0,16(s1)
 3770 1304 97000000 		call	_ZN5RiscV12buildSectionEPvmmm
 3770      E7800000 
 3771              	.LVL296:
 777:src/kernel/riscv.cpp ****     RiscV::buildSection(kPMT, bEnd, HEAP_END, 0x17);
 3772              		.loc 1 777 5 is_stmt 1
 777:src/kernel/riscv.cpp ****     RiscV::buildSection(kPMT, bEnd, HEAP_END, 0x17);
 3773              		.loc 1 777 24 is_stmt 0
 3774 130c 93067001 		li	a3,23
 3775 1310 97070000 		la	a5,HEAP_END_ADDR
 3775      83B70700 
 3776 1318 03B60700 		ld	a2,0(a5)
 3777 131c 93050900 		mv	a1,s2
 3778 1320 03B50401 		ld	a0,16(s1)
 3779 1324 97000000 		call	_ZN5RiscV12buildSectionEPvmmm
 3779      E7800000 
 3780              	.LVL297:
 779:src/kernel/riscv.cpp ****     RiscV::mapConsoleRegisters(kPMT);
 3781              		.loc 1 779 5 is_stmt 1
 779:src/kernel/riscv.cpp ****     RiscV::mapConsoleRegisters(kPMT);
 3782              		.loc 1 779 31 is_stmt 0
 3783 132c 03B50401 		ld	a0,16(s1)
 3784 1330 97000000 		call	_ZN5RiscV19mapConsoleRegistersEPv
 3784      E7800000 
 3785              	.LVL298:
 780:src/kernel/riscv.cpp ****     RiscV::ms_sstatus(1<<18);
 3786              		.loc 1 780 5 is_stmt 1
 3787              	.LBB215:
 3788              	.LBB216:
 209:src/kernel/../../h/kernel/riscv.hpp **** }
 3789              		.loc 2 209 5
 209:src/kernel/../../h/kernel/riscv.hpp **** }
 3790              		.loc 2 209 55 is_stmt 0
 3791 1338 B7070400 		li	a5,262144
 3792              	#APP
 3793              	# 209 "src/kernel/../../h/kernel/riscv.hpp" 1
 3794              		csrs sstatus, a5
 3795              	# 0 "" 2
 3796              	.LVL299:
 3797              	#NO_APP
 3798              	.LBE216:
 3799              	.LBE215:
 781:src/kernel/riscv.cpp **** }
GAS LISTING /tmp/ccP6cCkB.s 			page 102


 3800              		.loc 1 781 1
 3801 1340 83308102 		ld	ra,40(sp)
 3802              		.cfi_restore 1
 3803 1344 03340102 		ld	s0,32(sp)
 3804              		.cfi_restore 8
 3805              		.cfi_def_cfa 2, 48
 3806 1348 83348101 		ld	s1,24(sp)
 3807              		.cfi_restore 9
 3808 134c 03390101 		ld	s2,16(sp)
 3809              		.cfi_restore 18
 3810              	.LVL300:
 3811 1350 83398100 		ld	s3,8(sp)
 3812              		.cfi_restore 19
 3813 1354 033A0100 		ld	s4,0(sp)
 3814              		.cfi_restore 20
 3815 1358 13010103 		addi	sp,sp,48
 3816              		.cfi_def_cfa_offset 0
 3817 135c 67800000 		jr	ra
 3818              		.cfi_endproc
 3819              	.LFE78:
 3821              		.align	2
 3822              		.globl	_ZN5RiscV12buildUserPMTEv
 3824              	_ZN5RiscV12buildUserPMTEv:
 3825              	.LFB79:
 783:src/kernel/riscv.cpp **** void RiscV::buildUserPMT() {
 3826              		.loc 1 783 28 is_stmt 1
 3827              		.cfi_startproc
 3828 1360 130101FD 		addi	sp,sp,-48
 3829              		.cfi_def_cfa_offset 48
 3830 1364 23341102 		sd	ra,40(sp)
 3831 1368 23308102 		sd	s0,32(sp)
 3832 136c 233C9100 		sd	s1,24(sp)
 3833 1370 23382101 		sd	s2,16(sp)
 3834 1374 23343101 		sd	s3,8(sp)
 3835 1378 23304101 		sd	s4,0(sp)
 3836              		.cfi_offset 1, -8
 3837              		.cfi_offset 8, -16
 3838              		.cfi_offset 9, -24
 3839              		.cfi_offset 18, -32
 3840              		.cfi_offset 19, -40
 3841              		.cfi_offset 20, -48
 3842 137c 13040103 		addi	s0,sp,48
 3843              		.cfi_def_cfa 8, 0
 784:src/kernel/riscv.cpp ****     RiscV::uPMT = RiscV::getPMT();
 3844              		.loc 1 784 5
 784:src/kernel/riscv.cpp ****     RiscV::uPMT = RiscV::getPMT();
 3845              		.loc 1 784 32 is_stmt 0
 3846 1380 97000000 		call	_ZN5RiscV6getPMTEv
 3846      E7800000 
 3847              	.LVL301:
 784:src/kernel/riscv.cpp ****     RiscV::uPMT = RiscV::getPMT();
 3848              		.loc 1 784 17
 3849 1388 97040000 		lla	s1,.LANCHOR0
 3849      93840400 
 3850 1390 23BCA400 		sd	a0,24(s1)
 785:src/kernel/riscv.cpp ****     uint64 bEnd = ((uint64)Buddy::BUDDY_START_ADDR + (Buddy::BLOCKS_AVAILABLE<<12));
 3851              		.loc 1 785 5 is_stmt 1
GAS LISTING /tmp/ccP6cCkB.s 			page 103


 785:src/kernel/riscv.cpp ****     uint64 bEnd = ((uint64)Buddy::BUDDY_START_ADDR + (Buddy::BLOCKS_AVAILABLE<<12));
 3852              		.loc 1 785 78 is_stmt 0
 3853 1394 97070000 		la	a5,_ZN5Buddy16BLOCKS_AVAILABLEE
 3853      83B70700 
 3854 139c 03B90700 		ld	s2,0(a5)
 3855 13a0 1319C900 		slli	s2,s2,12
 785:src/kernel/riscv.cpp ****     uint64 bEnd = ((uint64)Buddy::BUDDY_START_ADDR + (Buddy::BLOCKS_AVAILABLE<<12));
 3856              		.loc 1 785 52
 3857 13a4 97070000 		la	a5,_ZN5Buddy16BUDDY_START_ADDRE
 3857      83B70700 
 3858 13ac 83B70700 		ld	a5,0(a5)
 785:src/kernel/riscv.cpp ****     uint64 bEnd = ((uint64)Buddy::BUDDY_START_ADDR + (Buddy::BLOCKS_AVAILABLE<<12));
 3859              		.loc 1 785 12
 3860 13b0 3309F900 		add	s2,s2,a5
 3861              	.LVL302:
 788:src/kernel/riscv.cpp ****     RiscV::buildSection(uPMT, OS_ENTRY, KERNEL_TEXT_END, 0xb);
 3862              		.loc 1 788 5 is_stmt 1
 788:src/kernel/riscv.cpp ****     RiscV::buildSection(uPMT, OS_ENTRY, KERNEL_TEXT_END, 0xb);
 3863              		.loc 1 788 24 is_stmt 0
 3864 13b4 170A0000 		la	s4,kernelTextEnd
 3864      033A0A00 
 3865 13bc 9306B000 		li	a3,11
 3866 13c0 13060A00 		mv	a2,s4
 3867 13c4 93051000 		li	a1,1
 3868 13c8 9395F501 		slli	a1,a1,31
 3869 13cc 97000000 		call	_ZN5RiscV12buildSectionEPvmmm
 3869      E7800000 
 3870              	.LVL303:
 789:src/kernel/riscv.cpp ****     RiscV::buildSection(uPMT, KERNEL_TEXT_END, USER_TEXT_START, 0x7);
 3871              		.loc 1 789 5 is_stmt 1
 789:src/kernel/riscv.cpp ****     RiscV::buildSection(uPMT, KERNEL_TEXT_END, USER_TEXT_START, 0x7);
 3872              		.loc 1 789 24 is_stmt 0
 3873 13d4 97090000 		la	s3,userTextStart
 3873      83B90900 
 3874 13dc 93067000 		li	a3,7
 3875 13e0 13860900 		mv	a2,s3
 3876 13e4 93050A00 		mv	a1,s4
 3877 13e8 03B58401 		ld	a0,24(s1)
 3878 13ec 97000000 		call	_ZN5RiscV12buildSectionEPvmmm
 3878      E7800000 
 3879              	.LVL304:
 790:src/kernel/riscv.cpp ****     RiscV::buildSection(uPMT, USER_TEXT_START, USER_DATA_START, 0x1b);
 3880              		.loc 1 790 5 is_stmt 1
 790:src/kernel/riscv.cpp ****     RiscV::buildSection(uPMT, USER_TEXT_START, USER_DATA_START, 0x1b);
 3881              		.loc 1 790 24 is_stmt 0
 3882 13f4 170A0000 		la	s4,userDataStart
 3882      033A0A00 
 3883 13fc 9306B001 		li	a3,27
 3884 1400 13060A00 		mv	a2,s4
 3885 1404 93850900 		mv	a1,s3
 3886 1408 03B58401 		ld	a0,24(s1)
 3887 140c 97000000 		call	_ZN5RiscV12buildSectionEPvmmm
 3887      E7800000 
 3888              	.LVL305:
 791:src/kernel/riscv.cpp ****     RiscV::buildSection(uPMT, USER_DATA_START, USER_DATA_END, 0x17);
 3889              		.loc 1 791 5 is_stmt 1
 791:src/kernel/riscv.cpp ****     RiscV::buildSection(uPMT, USER_DATA_START, USER_DATA_END, 0x17);
GAS LISTING /tmp/ccP6cCkB.s 			page 104


 3890              		.loc 1 791 24 is_stmt 0
 3891 1414 97090000 		la	s3,userDataEnd
 3891      83B90900 
 3892 141c 93067001 		li	a3,23
 3893 1420 13860900 		mv	a2,s3
 3894 1424 93050A00 		mv	a1,s4
 3895 1428 03B58401 		ld	a0,24(s1)
 3896 142c 97000000 		call	_ZN5RiscV12buildSectionEPvmmm
 3896      E7800000 
 3897              	.LVL306:
 792:src/kernel/riscv.cpp ****     RiscV::buildSection(uPMT, USER_DATA_END, bEnd, 0x7);
 3898              		.loc 1 792 5 is_stmt 1
 792:src/kernel/riscv.cpp ****     RiscV::buildSection(uPMT, USER_DATA_END, bEnd, 0x7);
 3899              		.loc 1 792 24 is_stmt 0
 3900 1434 93067000 		li	a3,7
 3901 1438 13060900 		mv	a2,s2
 3902 143c 93850900 		mv	a1,s3
 3903 1440 03B58401 		ld	a0,24(s1)
 3904 1444 97000000 		call	_ZN5RiscV12buildSectionEPvmmm
 3904      E7800000 
 3905              	.LVL307:
 793:src/kernel/riscv.cpp ****     RiscV::buildSection(uPMT, bEnd, HEAP_END, 0x17);
 3906              		.loc 1 793 5 is_stmt 1
 793:src/kernel/riscv.cpp ****     RiscV::buildSection(uPMT, bEnd, HEAP_END, 0x17);
 3907              		.loc 1 793 24 is_stmt 0
 3908 144c 93067001 		li	a3,23
 3909 1450 97070000 		la	a5,HEAP_END_ADDR
 3909      83B70700 
 3910 1458 03B60700 		ld	a2,0(a5)
 3911 145c 93050900 		mv	a1,s2
 3912 1460 03B58401 		ld	a0,24(s1)
 3913 1464 97000000 		call	_ZN5RiscV12buildSectionEPvmmm
 3913      E7800000 
 3914              	.LVL308:
 795:src/kernel/riscv.cpp ****     RiscV::mapConsoleRegisters(uPMT);
 3915              		.loc 1 795 5 is_stmt 1
 795:src/kernel/riscv.cpp ****     RiscV::mapConsoleRegisters(uPMT);
 3916              		.loc 1 795 31 is_stmt 0
 3917 146c 03B58401 		ld	a0,24(s1)
 3918 1470 97000000 		call	_ZN5RiscV19mapConsoleRegistersEPv
 3918      E7800000 
 3919              	.LVL309:
 796:src/kernel/riscv.cpp ****     RiscV::ms_sstatus(1<<18);
 3920              		.loc 1 796 5 is_stmt 1
 3921              	.LBB217:
 3922              	.LBB218:
 209:src/kernel/../../h/kernel/riscv.hpp **** }
 3923              		.loc 2 209 5
 209:src/kernel/../../h/kernel/riscv.hpp **** }
 3924              		.loc 2 209 55 is_stmt 0
 3925 1478 B7070400 		li	a5,262144
 3926              	#APP
 3927              	# 209 "src/kernel/../../h/kernel/riscv.hpp" 1
 3928              		csrs sstatus, a5
 3929              	# 0 "" 2
 3930              	.LVL310:
 3931              	#NO_APP
GAS LISTING /tmp/ccP6cCkB.s 			page 105


 3932              	.LBE218:
 3933              	.LBE217:
 797:src/kernel/riscv.cpp **** }
 3934              		.loc 1 797 1
 3935 1480 83308102 		ld	ra,40(sp)
 3936              		.cfi_restore 1
 3937 1484 03340102 		ld	s0,32(sp)
 3938              		.cfi_restore 8
 3939              		.cfi_def_cfa 2, 48
 3940 1488 83348101 		ld	s1,24(sp)
 3941              		.cfi_restore 9
 3942 148c 03390101 		ld	s2,16(sp)
 3943              		.cfi_restore 18
 3944              	.LVL311:
 3945 1490 83398100 		ld	s3,8(sp)
 3946              		.cfi_restore 19
 3947 1494 033A0100 		ld	s4,0(sp)
 3948              		.cfi_restore 20
 3949 1498 13010103 		addi	sp,sp,48
 3950              		.cfi_def_cfa_offset 0
 3951 149c 67800000 		jr	ra
 3952              		.cfi_endproc
 3953              	.LFE79:
 3955              		.align	2
 3956              		.globl	_ZN5RiscV10initializeEv
 3958              	_ZN5RiscV10initializeEv:
 3959              	.LFB47:
  20:src/kernel/riscv.cpp **** void RiscV::initialize(){
 3960              		.loc 1 20 25 is_stmt 1
 3961              		.cfi_startproc
 3962 14a0 130101FF 		addi	sp,sp,-16
 3963              		.cfi_def_cfa_offset 16
 3964 14a4 23341100 		sd	ra,8(sp)
 3965 14a8 23308100 		sd	s0,0(sp)
 3966              		.cfi_offset 1, -8
 3967              		.cfi_offset 8, -16
 3968 14ac 13040101 		addi	s0,sp,16
 3969              		.cfi_def_cfa 8, 0
  21:src/kernel/riscv.cpp ****     RiscV::w_stvec((uint64) &RiscV::supervisorTrap);
 3970              		.loc 1 21 5
  21:src/kernel/riscv.cpp ****     RiscV::w_stvec((uint64) &RiscV::supervisorTrap);
 3971              		.loc 1 21 19 is_stmt 0
 3972 14b0 97070000 		la	a5,_ZN5RiscV14supervisorTrapEv
 3972      83B70700 
 3973              	.LVL312:
 3974              	.LBB219:
 3975              	.LBB220:
 205:src/kernel/../../h/kernel/riscv.hpp **** }
 3976              		.loc 2 205 5 is_stmt 1
 205:src/kernel/../../h/kernel/riscv.hpp **** }
 3977              		.loc 2 205 56 is_stmt 0
 3978              	#APP
 3979              	# 205 "src/kernel/../../h/kernel/riscv.hpp" 1
 3980              		csrw stvec, a5
 3981              	# 0 "" 2
 3982              	.LVL313:
 3983              	#NO_APP
GAS LISTING /tmp/ccP6cCkB.s 			page 106


 3984              	.LBE220:
 3985              	.LBE219:
  22:src/kernel/riscv.cpp ****     kmem_init(BUDDY_START_ADDR_CONST, 4096);
 3986              		.loc 1 22 5 is_stmt 1
  22:src/kernel/riscv.cpp ****     kmem_init(BUDDY_START_ADDR_CONST, 4096);
 3987              		.loc 1 22 15 is_stmt 0
 3988 14bc 97070000 		la	a5,HEAP_START_ADDR
 3988      83B70700 
 3989 14c4 03B50700 		ld	a0,0(a5)
 3990 14c8 1355C500 		srli	a0,a0,12
 3991 14cc 13052500 		addi	a0,a0,2
  22:src/kernel/riscv.cpp ****     kmem_init(BUDDY_START_ADDR_CONST, 4096);
 3992              		.loc 1 22 14
 3993 14d0 B7150000 		li	a1,4096
 3994 14d4 1315C500 		slli	a0,a0,12
 3995 14d8 97000000 		call	_Z9kmem_initPvi@plt
 3995      E7800000 
 3996              	.LVL314:
  23:src/kernel/riscv.cpp ****     MemoryAllocator::initialize();
 3997              		.loc 1 23 5 is_stmt 1
  23:src/kernel/riscv.cpp ****     MemoryAllocator::initialize();
 3998              		.loc 1 23 32 is_stmt 0
 3999 14e0 97000000 		call	_ZN15MemoryAllocator10initializeEv@plt
 3999      E7800000 
 4000              	.LVL315:
  24:src/kernel/riscv.cpp ****     Scheduler::initialize();
 4001              		.loc 1 24 5 is_stmt 1
  24:src/kernel/riscv.cpp ****     Scheduler::initialize();
 4002              		.loc 1 24 26 is_stmt 0
 4003 14e8 97000000 		call	_ZN9Scheduler10initializeEv@plt
 4003      E7800000 
 4004              	.LVL316:
  25:src/kernel/riscv.cpp ****     TCB::initialize();
 4005              		.loc 1 25 5 is_stmt 1
  25:src/kernel/riscv.cpp ****     TCB::initialize();
 4006              		.loc 1 25 20 is_stmt 0
 4007 14f0 97000000 		call	_ZN3TCB10initializeEv@plt
 4007      E7800000 
 4008              	.LVL317:
  26:src/kernel/riscv.cpp ****     SCB::initialize();
 4009              		.loc 1 26 5 is_stmt 1
  26:src/kernel/riscv.cpp ****     SCB::initialize();
 4010              		.loc 1 26 20 is_stmt 0
 4011 14f8 97000000 		call	_ZN3SCB10initializeEv@plt
 4011      E7800000 
 4012              	.LVL318:
  27:src/kernel/riscv.cpp ****     ConsoleUtil::initialize();
 4013              		.loc 1 27 5 is_stmt 1
  27:src/kernel/riscv.cpp ****     ConsoleUtil::initialize();
 4014              		.loc 1 27 28 is_stmt 0
 4015 1500 97000000 		call	_ZN11ConsoleUtil10initializeEv@plt
 4015      E7800000 
 4016              	.LVL319:
  28:src/kernel/riscv.cpp ****     RiscV::buildKernelPMT();
 4017              		.loc 1 28 5 is_stmt 1
  28:src/kernel/riscv.cpp ****     RiscV::buildKernelPMT();
 4018              		.loc 1 28 26 is_stmt 0
GAS LISTING /tmp/ccP6cCkB.s 			page 107


 4019 1508 97000000 		call	_ZN5RiscV14buildKernelPMTEv
 4019      E7800000 
 4020              	.LVL320:
  29:src/kernel/riscv.cpp ****     RiscV::buildUserPMT();
 4021              		.loc 1 29 5 is_stmt 1
  29:src/kernel/riscv.cpp ****     RiscV::buildUserPMT();
 4022              		.loc 1 29 24 is_stmt 0
 4023 1510 97000000 		call	_ZN5RiscV12buildUserPMTEv
 4023      E7800000 
 4024              	.LVL321:
  30:src/kernel/riscv.cpp ****     RiscV::initialized = true;
 4025              		.loc 1 30 5 is_stmt 1
  30:src/kernel/riscv.cpp ****     RiscV::initialized = true;
 4026              		.loc 1 30 24 is_stmt 0
 4027 1518 97070000 		lla	a5,.LANCHOR0
 4027      93870700 
 4028 1520 13071000 		li	a4,1
 4029 1524 2380E702 		sb	a4,32(a5)
  31:src/kernel/riscv.cpp ****     RiscV::startVirtualMemory(RiscV::kPMT);
 4030              		.loc 1 31 5 is_stmt 1
  31:src/kernel/riscv.cpp ****     RiscV::startVirtualMemory(RiscV::kPMT);
 4031              		.loc 1 31 30 is_stmt 0
 4032 1528 83B70701 		ld	a5,16(a5)
 4033              	.LVL322:
 4034              	.LBB221:
 4035              	.LBB222:
 264:src/kernel/../../h/kernel/riscv.hpp ****     asm("csrw satp, %[satp]" : : [satp] "r" (satp));
 4036              		.loc 2 264 5 is_stmt 1
 264:src/kernel/../../h/kernel/riscv.hpp ****     asm("csrw satp, %[satp]" : : [satp] "r" (satp));
 4037              		.loc 2 264 51 is_stmt 0
 4038 152c 93D7C700 		srli	a5,a5,12
 4039              	.LVL323:
 264:src/kernel/../../h/kernel/riscv.hpp ****     asm("csrw satp, %[satp]" : : [satp] "r" (satp));
 4040              		.loc 2 264 12
 4041 1530 1307F0FF 		li	a4,-1
 4042 1534 1317F703 		slli	a4,a4,63
 4043 1538 B3E7E700 		or	a5,a5,a4
 4044              	.LVL324:
 265:src/kernel/../../h/kernel/riscv.hpp **** }
 4045              		.loc 2 265 5 is_stmt 1
 265:src/kernel/../../h/kernel/riscv.hpp **** }
 4046              		.loc 2 265 52 is_stmt 0
 4047              	#APP
 4048              	# 265 "src/kernel/../../h/kernel/riscv.hpp" 1
 4049              		csrw satp, a5
 4050              	# 0 "" 2
 4051              	.LVL325:
 4052              	#NO_APP
 4053              	.LBE222:
 4054              	.LBE221:
  32:src/kernel/riscv.cpp ****     RiscV::enableInterrupts();
 4055              		.loc 1 32 5 is_stmt 1
 233:src/kernel/../../h/kernel/riscv.hpp ****     RiscV::ms_sie(SIP_SEIE);
 4056              		.loc 2 233 5
 4057              	.LBB223:
 4058              	.LBB224:
 4059              	.LBB225:
GAS LISTING /tmp/ccP6cCkB.s 			page 108


 225:src/kernel/../../h/kernel/riscv.hpp **** }
 4060              		.loc 2 225 5
 225:src/kernel/../../h/kernel/riscv.hpp **** }
 4061              		.loc 2 225 51 is_stmt 0
 4062 1540 93072000 		li	a5,2
 4063              	#APP
 4064              	# 225 "src/kernel/../../h/kernel/riscv.hpp" 1
 4065              		csrs sie, a5
 4066              	# 0 "" 2
 4067              	.LVL326:
 4068              	#NO_APP
 4069              	.LBE225:
 4070              	.LBE224:
 4071              	.LBE223:
 234:src/kernel/../../h/kernel/riscv.hpp ****     RiscV::ms_sstatus(SSTATUS_SIE);
 4072              		.loc 2 234 5 is_stmt 1
 4073              	.LBB230:
 4074              	.LBB226:
 4075              	.LBB227:
 225:src/kernel/../../h/kernel/riscv.hpp **** }
 4076              		.loc 2 225 5
 225:src/kernel/../../h/kernel/riscv.hpp **** }
 4077              		.loc 2 225 51 is_stmt 0
 4078 1548 13070020 		li	a4,512
 4079              	#APP
 4080              	# 225 "src/kernel/../../h/kernel/riscv.hpp" 1
 4081              		csrs sie, a4
 4082              	# 0 "" 2
 4083              	.LVL327:
 4084              	#NO_APP
 4085              	.LBE227:
 4086              	.LBE226:
 4087              	.LBE230:
 235:src/kernel/../../h/kernel/riscv.hpp **** }
 4088              		.loc 2 235 5 is_stmt 1
 4089              	.LBB231:
 4090              	.LBB228:
 4091              	.LBB229:
 209:src/kernel/../../h/kernel/riscv.hpp **** }
 4092              		.loc 2 209 5
 209:src/kernel/../../h/kernel/riscv.hpp **** }
 4093              		.loc 2 209 55 is_stmt 0
 4094              	#APP
 4095              	# 209 "src/kernel/../../h/kernel/riscv.hpp" 1
 4096              		csrs sstatus, a5
 4097              	# 0 "" 2
 4098              	.LVL328:
 4099              	#NO_APP
 4100              	.LBE229:
 4101              	.LBE228:
 4102              	.LBE231:
  33:src/kernel/riscv.cpp **** }
 4103              		.loc 1 33 1
 4104 1554 83308100 		ld	ra,8(sp)
 4105              		.cfi_restore 1
 4106 1558 03340100 		ld	s0,0(sp)
 4107              		.cfi_restore 8
GAS LISTING /tmp/ccP6cCkB.s 			page 109


 4108              		.cfi_def_cfa 2, 16
 4109 155c 13010101 		addi	sp,sp,16
 4110              		.cfi_def_cfa_offset 0
 4111 1560 67800000 		jr	ra
 4112              		.cfi_endproc
 4113              	.LFE47:
 4115              		.globl	_ZN5RiscV11initializedE
 4116              		.globl	_ZN5RiscV4uPMTE
 4117              		.globl	_ZN5RiscV4kPMTE
 4118              		.globl	_ZN5RiscV16userMainFinishedE
 4119              		.globl	_ZN5RiscV10globalTimeE
 4120              		.bss
 4121              		.align	3
 4122              		.set	.LANCHOR0,. + 0
 4125              	_ZN5RiscV16userMainFinishedE:
 4126 0000 00       		.zero	1
 4127 0001 00000000 		.zero	7
 4127      000000
 4130              	_ZN5RiscV10globalTimeE:
 4131 0008 00000000 		.zero	8
 4131      00000000 
 4134              	_ZN5RiscV4kPMTE:
 4135 0010 00000000 		.zero	8
 4135      00000000 
 4138              	_ZN5RiscV4uPMTE:
 4139 0018 00000000 		.zero	8
 4139      00000000 
 4142              	_ZN5RiscV11initializedE:
 4143 0020 00       		.zero	1
 4144              		.text
 4145              	.Letext0:
 4146              		.file 3 "src/kernel/../../h/kernel/../../lib/hw.h"
 4147              		.file 4 "src/kernel/../../h/kernel/tcb.hpp"
 4148              		.file 5 "src/kernel/../../h/kernel/utility.hpp"
 4149              		.file 6 "src/kernel/../../h/kernel/memory_allocator.hpp"
 4150              		.file 7 "src/kernel/../../h/kernel/buddy_allocator.hpp"
 4151              		.file 8 "src/kernel/../../h/kernel/console_util.hpp"
 4152              		.file 9 "src/kernel/../../h/kernel/scb.hpp"
 4153              		.file 10 "src/kernel/../../h/kernel/slab_t.hpp"
 4154              		.file 11 "src/kernel/../../h/kernel/cache_t.hpp"
 4155              		.file 12 "src/kernel/../../h/kernel/scheduler.hpp"
 4156              		.file 13 "src/kernel/../../h/kernel/slab.hpp"
 12752              		.align	3
 12755              	DW.ref.__gxx_personality_v0:
 12756 0000 00000000 		.dword	__gxx_personality_v0
 12756      00000000 
 12757              		.ident	"GCC: (Ubuntu 9.4.0-1ubuntu1~20.04) 9.4.0"
 12758              		.section	.note.GNU-stack,"",@progbits
GAS LISTING /tmp/ccP6cCkB.s 			page 110


DEFINED SYMBOLS
                            *ABS*:0000000000000000 riscv.cpp
     /tmp/ccP6cCkB.s:9      .text:0000000000000000 _ZN5RiscV16popSppSpieSystemEv
     /tmp/ccP6cCkB.s:13     .text:0000000000000000 .L0 
     /tmp/ccP6cCkB.s:14     .text:0000000000000000 .L0 
     /tmp/ccP6cCkB.s:15     .text:0000000000000004 .L0 
     /tmp/ccP6cCkB.s:17     .text:0000000000000008 .L0 
     /tmp/ccP6cCkB.s:19     .text:000000000000000c .L0 
     /tmp/ccP6cCkB.s:21     .text:000000000000000c .L0 
src/kernel/riscv.cpp:37     .text:000000000000000c .L0 
     /tmp/ccP6cCkB.s:27     .text:0000000000000010 .L0 
src/kernel/riscv.cpp:38     .text:0000000000000010 .L0 
     /tmp/ccP6cCkB.s:33     .text:0000000000000014 .L0 
     /tmp/ccP6cCkB.s:34     .text:0000000000000018 .L0 
     /tmp/ccP6cCkB.s:35     .text:0000000000000018 .L0 
     /tmp/ccP6cCkB.s:37     .text:000000000000001c .L0 
     /tmp/ccP6cCkB.s:39     .text:0000000000000020 .L0 
     /tmp/ccP6cCkB.s:45     .text:0000000000000020 _ZN5RiscV14popSppSpieUserEv
     /tmp/ccP6cCkB.s:48     .text:0000000000000020 .L0 
     /tmp/ccP6cCkB.s:49     .text:0000000000000020 .L0 
     /tmp/ccP6cCkB.s:50     .text:0000000000000024 .L0 
     /tmp/ccP6cCkB.s:52     .text:0000000000000028 .L0 
     /tmp/ccP6cCkB.s:54     .text:000000000000002c .L0 
     /tmp/ccP6cCkB.s:56     .text:000000000000002c .L0 
     /tmp/ccP6cCkB.s:57     .text:000000000000002c .L0 
     /tmp/ccP6cCkB.s:63     .text:0000000000000038 .L0 
     /tmp/ccP6cCkB.s:65     .text:0000000000000038 .L0 
src/kernel/riscv.cpp:43     .text:0000000000000048 .L0 
     /tmp/ccP6cCkB.s:74     .text:000000000000004c .L0 
     /tmp/ccP6cCkB.s:76     .text:000000000000004c .L0 
src/kernel/riscv.cpp:44     .text:0000000000000050 .L0 
     /tmp/ccP6cCkB.s:83     .text:0000000000000054 .L0 
src/kernel/riscv.cpp:45     .text:0000000000000054 .L0 
     /tmp/ccP6cCkB.s:89     .text:0000000000000058 .L0 
     /tmp/ccP6cCkB.s:90     .text:000000000000005c .L0 
     /tmp/ccP6cCkB.s:91     .text:000000000000005c .L0 
     /tmp/ccP6cCkB.s:93     .text:0000000000000060 .L0 
     /tmp/ccP6cCkB.s:95     .text:0000000000000064 .L0 
     /tmp/ccP6cCkB.s:101    .text:0000000000000064 _ZN5RiscV28executeThreadDispatchSyscallEv
     /tmp/ccP6cCkB.s:104    .text:0000000000000064 .L0 
     /tmp/ccP6cCkB.s:105    .text:0000000000000064 .L0 
     /tmp/ccP6cCkB.s:106    .text:0000000000000068 .L0 
     /tmp/ccP6cCkB.s:109    .text:0000000000000070 .L0 
     /tmp/ccP6cCkB.s:110    .text:0000000000000070 .L0 
     /tmp/ccP6cCkB.s:112    .text:0000000000000074 .L0 
     /tmp/ccP6cCkB.s:114    .text:0000000000000074 .L0 
     /tmp/ccP6cCkB.s:115    .text:0000000000000074 .L0 
     /tmp/ccP6cCkB.s:119    .text:0000000000000080 .L0 
     /tmp/ccP6cCkB.s:120    .text:0000000000000080 .L0 
     /tmp/ccP6cCkB.s:123    .text:0000000000000088 .L0 
     /tmp/ccP6cCkB.s:124    .text:0000000000000088 .L0 
     /tmp/ccP6cCkB.s:127    .text:0000000000000090 .L0 
     /tmp/ccP6cCkB.s:128    .text:0000000000000094 .L0 
     /tmp/ccP6cCkB.s:130    .text:0000000000000098 .L0 
     /tmp/ccP6cCkB.s:131    .text:0000000000000098 .L0 
     /tmp/ccP6cCkB.s:133    .text:000000000000009c .L0 
     /tmp/ccP6cCkB.s:135    .text:00000000000000a0 .L0 
GAS LISTING /tmp/ccP6cCkB.s 			page 111


     /tmp/ccP6cCkB.s:141    .text:00000000000000a0 _ZN5RiscV18executePutcSyscallEv
     /tmp/ccP6cCkB.s:144    .text:00000000000000a0 .L0 
     /tmp/ccP6cCkB.s:145    .text:00000000000000a0 .L0 
     /tmp/ccP6cCkB.s:146    .text:00000000000000a4 .L0 
     /tmp/ccP6cCkB.s:149    .text:00000000000000ac .L0 
     /tmp/ccP6cCkB.s:150    .text:00000000000000ac .L0 
     /tmp/ccP6cCkB.s:152    .text:00000000000000b0 .L0 
     /tmp/ccP6cCkB.s:154    .text:00000000000000b0 .L0 
     /tmp/ccP6cCkB.s:155    .text:00000000000000b0 .L0 
     /tmp/ccP6cCkB.s:157    .text:00000000000000b8 .L0 
     /tmp/ccP6cCkB.s:159    .text:00000000000000bc .L0 
     /tmp/ccP6cCkB.s:160    .text:00000000000000bc .L0 
     /tmp/ccP6cCkB.s:166    .text:00000000000000d0 .L0 
     /tmp/ccP6cCkB.s:167    .text:00000000000000d0 .L0 
src/kernel/riscv.cpp:514    .text:00000000000000d0 .L0 
     /tmp/ccP6cCkB.s:174    .text:00000000000000d4 .L0 
     /tmp/ccP6cCkB.s:176    .text:00000000000000d4 .L0 
     /tmp/ccP6cCkB.s:180    .text:00000000000000e0 .L0 
     /tmp/ccP6cCkB.s:181    .text:00000000000000e4 .L0 
     /tmp/ccP6cCkB.s:183    .text:00000000000000e8 .L0 
     /tmp/ccP6cCkB.s:184    .text:00000000000000e8 .L0 
     /tmp/ccP6cCkB.s:186    .text:00000000000000ec .L0 
     /tmp/ccP6cCkB.s:188    .text:00000000000000f0 .L0 
     /tmp/ccP6cCkB.s:194    .text:00000000000000f0 _ZN5RiscV29jumpToDesignatedPrivilegeModeEv
     /tmp/ccP6cCkB.s:197    .text:00000000000000f0 .L0 
     /tmp/ccP6cCkB.s:198    .text:00000000000000f0 .L0 
     /tmp/ccP6cCkB.s:199    .text:00000000000000f4 .L0 
     /tmp/ccP6cCkB.s:201    .text:00000000000000f8 .L0 
     /tmp/ccP6cCkB.s:203    .text:00000000000000fc .L0 
     /tmp/ccP6cCkB.s:205    .text:00000000000000fc .L0 
     /tmp/ccP6cCkB.s:206    .text:00000000000000fc .L0 
     /tmp/ccP6cCkB.s:210    .text:000000000000010c .L0 
     /tmp/ccP6cCkB.s:217    .text:0000000000000114 .L0 
     /tmp/ccP6cCkB.s:218    .text:0000000000000114 .L0 
     /tmp/ccP6cCkB.s:219    .text:0000000000000114 .L0 
     /tmp/ccP6cCkB.s:230    .text:000000000000011c .L0 
     /tmp/ccP6cCkB.s:231    .text:0000000000000120 .L0 
     /tmp/ccP6cCkB.s:232    .text:0000000000000120 .L0 
     /tmp/ccP6cCkB.s:233    .text:0000000000000120 .L0 
     /tmp/ccP6cCkB.s:235    .text:0000000000000124 .L0 
     /tmp/ccP6cCkB.s:238    .text:0000000000000128 .L0 
     /tmp/ccP6cCkB.s:243    .text:0000000000000128 .L0 
     /tmp/ccP6cCkB.s:244    .text:0000000000000128 .L0 
     /tmp/ccP6cCkB.s:245    .text:0000000000000128 .L0 
     /tmp/ccP6cCkB.s:252    .text:0000000000000130 .L0 
     /tmp/ccP6cCkB.s:255    .text:0000000000000134 .L0 
     /tmp/ccP6cCkB.s:261    .text:0000000000000134 _ZN5RiscV8finalizeEv
     /tmp/ccP6cCkB.s:264    .text:0000000000000134 .L0 
     /tmp/ccP6cCkB.s:265    .text:0000000000000134 .L0 
     /tmp/ccP6cCkB.s:266    .text:0000000000000138 .L0 
     /tmp/ccP6cCkB.s:269    .text:0000000000000140 .L0 
     /tmp/ccP6cCkB.s:270    .text:0000000000000140 .L0 
     /tmp/ccP6cCkB.s:272    .text:0000000000000144 .L0 
     /tmp/ccP6cCkB.s:274    .text:0000000000000144 .L0 
     /tmp/ccP6cCkB.s:275    .text:0000000000000144 .L0 
     /tmp/ccP6cCkB.s:278    .text:0000000000000150 .L0 
     /tmp/ccP6cCkB.s:279    .text:0000000000000150 .L0 
GAS LISTING /tmp/ccP6cCkB.s 			page 112


     /tmp/ccP6cCkB.s:282    .text:000000000000015c .L0 
     /tmp/ccP6cCkB.s:283    .text:000000000000015c .L0 
     /tmp/ccP6cCkB.s:288    .text:0000000000000168 .L0 
     /tmp/ccP6cCkB.s:291    .text:0000000000000168 .L0 
     /tmp/ccP6cCkB.s:298    .text:0000000000000168 .L0 
     /tmp/ccP6cCkB.s:299    .text:0000000000000168 .L0 
     /tmp/ccP6cCkB.s:300    .text:0000000000000168 .L0 
     /tmp/ccP6cCkB.s:313    .text:0000000000000170 .L0 
     /tmp/ccP6cCkB.s:319    .text:0000000000000170 .L0 
     /tmp/ccP6cCkB.s:320    .text:0000000000000170 .L0 
     /tmp/ccP6cCkB.s:321    .text:0000000000000170 .L0 
     /tmp/ccP6cCkB.s:335    .text:0000000000000178 .L0 
     /tmp/ccP6cCkB.s:336    .text:0000000000000178 .L0 
     /tmp/ccP6cCkB.s:340    .text:0000000000000188 .L0 
     /tmp/ccP6cCkB.s:341    .text:0000000000000188 .L0 
     /tmp/ccP6cCkB.s:343    .text:000000000000018c .L0 
     /tmp/ccP6cCkB.s:346    .text:0000000000000198 .L0 
     /tmp/ccP6cCkB.s:349    .text:000000000000019c .L0 
     /tmp/ccP6cCkB.s:350    .text:000000000000019c .L0 
     /tmp/ccP6cCkB.s:356    .text:00000000000001b0 .L0 
     /tmp/ccP6cCkB.s:357    .text:00000000000001b0 .L0 
     /tmp/ccP6cCkB.s:363    .text:00000000000001cc .L0 
     /tmp/ccP6cCkB.s:364    .text:00000000000001cc .L0 
     /tmp/ccP6cCkB.s:367    .text:00000000000001d4 .L0 
     /tmp/ccP6cCkB.s:370    .text:00000000000001d8 .L0 
     /tmp/ccP6cCkB.s:371    .text:00000000000001dc .L0 
     /tmp/ccP6cCkB.s:373    .text:00000000000001e0 .L0 
     /tmp/ccP6cCkB.s:374    .text:00000000000001e0 .L0 
     /tmp/ccP6cCkB.s:376    .text:00000000000001e4 .L0 
     /tmp/ccP6cCkB.s:378    .text:00000000000001e8 .L0 
     /tmp/ccP6cCkB.s:384    .text:00000000000001e8 _ZN5RiscV16saveA0toSscratchEv
     /tmp/ccP6cCkB.s:387    .text:00000000000001e8 .L0 
     /tmp/ccP6cCkB.s:388    .text:00000000000001e8 .L0 
     /tmp/ccP6cCkB.s:389    .text:00000000000001ec .L0 
     /tmp/ccP6cCkB.s:391    .text:00000000000001f0 .L0 
     /tmp/ccP6cCkB.s:393    .text:00000000000001f4 .L0 
     /tmp/ccP6cCkB.s:395    .text:00000000000001f4 .L0 
     /tmp/ccP6cCkB.s:396    .text:00000000000001f4 .L0 
src/kernel/riscv.cpp:594    .text:00000000000001f4 .L0 
     /tmp/ccP6cCkB.s:402    .text:00000000000001f8 .L0 
     /tmp/ccP6cCkB.s:404    .text:00000000000001f8 .L0 
src/kernel/riscv.cpp:595    .text:0000000000000208 .L0 
     /tmp/ccP6cCkB.s:413    .text:000000000000020c .L0 
src/kernel/riscv.cpp:596    .text:000000000000020c .L0 
     /tmp/ccP6cCkB.s:418    .text:0000000000000210 .L0 
src/kernel/riscv.cpp:597    .text:0000000000000210 .L0 
     /tmp/ccP6cCkB.s:424    .text:0000000000000214 .L0 
     /tmp/ccP6cCkB.s:425    .text:0000000000000218 .L0 
     /tmp/ccP6cCkB.s:426    .text:0000000000000218 .L0 
     /tmp/ccP6cCkB.s:428    .text:000000000000021c .L0 
     /tmp/ccP6cCkB.s:430    .text:0000000000000220 .L0 
     /tmp/ccP6cCkB.s:436    .text:0000000000000220 _ZN5RiscV22executeMemAllocSyscallEv
     /tmp/ccP6cCkB.s:439    .text:0000000000000220 .L0 
     /tmp/ccP6cCkB.s:440    .text:0000000000000220 .L0 
     /tmp/ccP6cCkB.s:441    .text:0000000000000224 .L0 
     /tmp/ccP6cCkB.s:444    .text:000000000000022c .L0 
     /tmp/ccP6cCkB.s:445    .text:000000000000022c .L0 
GAS LISTING /tmp/ccP6cCkB.s 			page 113


     /tmp/ccP6cCkB.s:447    .text:0000000000000230 .L0 
     /tmp/ccP6cCkB.s:449    .text:0000000000000230 .L0 
     /tmp/ccP6cCkB.s:450    .text:0000000000000230 .L0 
src/kernel/riscv.cpp:212    .text:0000000000000230 .L0 
     /tmp/ccP6cCkB.s:457    .text:0000000000000234 .L0 
     /tmp/ccP6cCkB.s:459    .text:0000000000000234 .L0 
     /tmp/ccP6cCkB.s:462    .text:000000000000023c .L0 
src/kernel/riscv.cpp:217    .text:000000000000023c .L0 
     /tmp/ccP6cCkB.s:468    .text:0000000000000240 .L0 
     /tmp/ccP6cCkB.s:470    .text:0000000000000240 .L0 
     /tmp/ccP6cCkB.s:473    .text:0000000000000248 .L0 
     /tmp/ccP6cCkB.s:474    .text:000000000000024c .L0 
     /tmp/ccP6cCkB.s:476    .text:0000000000000250 .L0 
     /tmp/ccP6cCkB.s:477    .text:0000000000000250 .L0 
     /tmp/ccP6cCkB.s:479    .text:0000000000000254 .L0 
     /tmp/ccP6cCkB.s:481    .text:0000000000000258 .L0 
     /tmp/ccP6cCkB.s:487    .text:0000000000000258 _ZN5RiscV21executeMemFreeSyscallEv
     /tmp/ccP6cCkB.s:490    .text:0000000000000258 .L0 
     /tmp/ccP6cCkB.s:491    .text:0000000000000258 .L0 
     /tmp/ccP6cCkB.s:492    .text:000000000000025c .L0 
     /tmp/ccP6cCkB.s:495    .text:0000000000000264 .L0 
     /tmp/ccP6cCkB.s:496    .text:0000000000000264 .L0 
     /tmp/ccP6cCkB.s:498    .text:0000000000000268 .L0 
     /tmp/ccP6cCkB.s:500    .text:0000000000000268 .L0 
     /tmp/ccP6cCkB.s:501    .text:0000000000000268 .L0 
     /tmp/ccP6cCkB.s:505    .text:0000000000000278 .L0 
     /tmp/ccP6cCkB.s:509    .text:000000000000027c .L0 
src/kernel/riscv.cpp:237    .text:000000000000027c .L0 
     /tmp/ccP6cCkB.s:515    .text:0000000000000280 .L0 
     /tmp/ccP6cCkB.s:517    .text:0000000000000280 .L0 
     /tmp/ccP6cCkB.s:520    .text:0000000000000288 .L0 
     /tmp/ccP6cCkB.s:521    .text:000000000000028c .L0 
     /tmp/ccP6cCkB.s:522    .text:000000000000028c .L0 
     /tmp/ccP6cCkB.s:524    .text:0000000000000290 .L0 
     /tmp/ccP6cCkB.s:525    .text:0000000000000290 .L0 
     /tmp/ccP6cCkB.s:527    .text:0000000000000294 .L0 
     /tmp/ccP6cCkB.s:530    .text:0000000000000298 .L0 
     /tmp/ccP6cCkB.s:532    .text:0000000000000298 .L0 
src/kernel/riscv.cpp:230    .text:0000000000000298 .L0 
     /tmp/ccP6cCkB.s:539    .text:000000000000029c .L0 
     /tmp/ccP6cCkB.s:541    .text:000000000000029c .L0 
     /tmp/ccP6cCkB.s:544    .text:00000000000002a4 .L0 
     /tmp/ccP6cCkB.s:545    .text:00000000000002a8 .L0 
     /tmp/ccP6cCkB.s:551    .text:00000000000002a8 _ZN5RiscV26executeThreadCreateSyscallEv
     /tmp/ccP6cCkB.s:554    .text:00000000000002a8 .L0 
     /tmp/ccP6cCkB.s:12755  .data.rel.local.DW.ref.__gxx_personality_v0:0000000000000000 DW.ref.__gxx_personality_v0
     /tmp/ccP6cCkB.s:557    .text:00000000000002a8 .L0 
     /tmp/ccP6cCkB.s:558    .text:00000000000002ac .L0 
     /tmp/ccP6cCkB.s:566    .text:00000000000002c8 .L0 
     /tmp/ccP6cCkB.s:567    .text:00000000000002c8 .L0 
     /tmp/ccP6cCkB.s:568    .text:00000000000002c8 .L0 
     /tmp/ccP6cCkB.s:569    .text:00000000000002c8 .L0 
     /tmp/ccP6cCkB.s:570    .text:00000000000002c8 .L0 
     /tmp/ccP6cCkB.s:571    .text:00000000000002c8 .L0 
     /tmp/ccP6cCkB.s:572    .text:00000000000002c8 .L0 
     /tmp/ccP6cCkB.s:574    .text:00000000000002cc .L0 
     /tmp/ccP6cCkB.s:576    .text:00000000000002cc .L0 
GAS LISTING /tmp/ccP6cCkB.s 			page 114


     /tmp/ccP6cCkB.s:577    .text:00000000000002cc .L0 
src/kernel/riscv.cpp:247    .text:00000000000002cc .L0 
     /tmp/ccP6cCkB.s:584    .text:00000000000002d0 .L0 
src/kernel/riscv.cpp:248    .text:00000000000002d0 .L0 
     /tmp/ccP6cCkB.s:590    .text:00000000000002d4 .L0 
src/kernel/riscv.cpp:249    .text:00000000000002d4 .L0 
     /tmp/ccP6cCkB.s:596    .text:00000000000002d8 .L0 
src/kernel/riscv.cpp:250    .text:00000000000002d8 .L0 
     /tmp/ccP6cCkB.s:602    .text:00000000000002dc .L0 
     /tmp/ccP6cCkB.s:604    .text:00000000000002dc .L0 
     /tmp/ccP6cCkB.s:612    .text:00000000000002f0 .L0 
     /tmp/ccP6cCkB.s:622    .text:0000000000000308 .L0 
     /tmp/ccP6cCkB.s:623    .text:0000000000000308 .L0 
     /tmp/ccP6cCkB.s:625    .text:000000000000030c .L0 
     /tmp/ccP6cCkB.s:626    .text:000000000000030c .L0 
     /tmp/ccP6cCkB.s:628    .text:0000000000000310 .L0 
     /tmp/ccP6cCkB.s:630    .text:0000000000000314 .L0 
     /tmp/ccP6cCkB.s:631    .text:0000000000000314 .L0 
     /tmp/ccP6cCkB.s:638    .text:0000000000000320 .L0 
     /tmp/ccP6cCkB.s:639    .text:0000000000000320 .L0 
     /tmp/ccP6cCkB.s:641    .text:0000000000000324 .L0 
     /tmp/ccP6cCkB.s:645    .text:0000000000000328 .L0 
src/kernel/riscv.cpp:267    .text:0000000000000328 .L0 
     /tmp/ccP6cCkB.s:651    .text:000000000000032c .L0 
     /tmp/ccP6cCkB.s:653    .text:000000000000032c .L0 
     /tmp/ccP6cCkB.s:656    .text:0000000000000334 .L0 
     /tmp/ccP6cCkB.s:657    .text:0000000000000338 .L0 
     /tmp/ccP6cCkB.s:658    .text:0000000000000338 .L0 
     /tmp/ccP6cCkB.s:660    .text:000000000000033c .L0 
     /tmp/ccP6cCkB.s:661    .text:000000000000033c .L0 
     /tmp/ccP6cCkB.s:663    .text:0000000000000340 .L0 
     /tmp/ccP6cCkB.s:666    .text:0000000000000344 .L0 
     /tmp/ccP6cCkB.s:669    .text:0000000000000348 .L0 
     /tmp/ccP6cCkB.s:672    .text:000000000000034c .L0 
     /tmp/ccP6cCkB.s:675    .text:0000000000000350 .L0 
     /tmp/ccP6cCkB.s:678    .text:0000000000000354 .L0 
     /tmp/ccP6cCkB.s:682    .text:0000000000000358 .L0 
     /tmp/ccP6cCkB.s:684    .text:0000000000000358 .L0 
     /tmp/ccP6cCkB.s:691    .text:0000000000000364 .L0 
     /tmp/ccP6cCkB.s:699    .text:000000000000037c .L0 
     /tmp/ccP6cCkB.s:729    .text:000000000000037c _ZN5RiscV30executeThreadAttachBodySyscallEv
     /tmp/ccP6cCkB.s:732    .text:000000000000037c .L0 
     /tmp/ccP6cCkB.s:735    .text:000000000000037c .L0 
     /tmp/ccP6cCkB.s:736    .text:0000000000000380 .L0 
     /tmp/ccP6cCkB.s:744    .text:000000000000039c .L0 
     /tmp/ccP6cCkB.s:745    .text:000000000000039c .L0 
     /tmp/ccP6cCkB.s:746    .text:000000000000039c .L0 
     /tmp/ccP6cCkB.s:747    .text:000000000000039c .L0 
     /tmp/ccP6cCkB.s:748    .text:000000000000039c .L0 
     /tmp/ccP6cCkB.s:749    .text:000000000000039c .L0 
     /tmp/ccP6cCkB.s:750    .text:000000000000039c .L0 
     /tmp/ccP6cCkB.s:752    .text:00000000000003a0 .L0 
     /tmp/ccP6cCkB.s:754    .text:00000000000003a0 .L0 
     /tmp/ccP6cCkB.s:755    .text:00000000000003a0 .L0 
src/kernel/riscv.cpp:278    .text:00000000000003a0 .L0 
     /tmp/ccP6cCkB.s:762    .text:00000000000003a4 .L0 
src/kernel/riscv.cpp:279    .text:00000000000003a4 .L0 
GAS LISTING /tmp/ccP6cCkB.s 			page 115


     /tmp/ccP6cCkB.s:768    .text:00000000000003a8 .L0 
src/kernel/riscv.cpp:280    .text:00000000000003a8 .L0 
     /tmp/ccP6cCkB.s:774    .text:00000000000003ac .L0 
src/kernel/riscv.cpp:281    .text:00000000000003ac .L0 
     /tmp/ccP6cCkB.s:780    .text:00000000000003b0 .L0 
     /tmp/ccP6cCkB.s:782    .text:00000000000003b0 .L0 
     /tmp/ccP6cCkB.s:790    .text:00000000000003c4 .L0 
     /tmp/ccP6cCkB.s:800    .text:00000000000003dc .L0 
     /tmp/ccP6cCkB.s:801    .text:00000000000003dc .L0 
     /tmp/ccP6cCkB.s:803    .text:00000000000003e0 .L0 
     /tmp/ccP6cCkB.s:804    .text:00000000000003e0 .L0 
     /tmp/ccP6cCkB.s:806    .text:00000000000003e4 .L0 
     /tmp/ccP6cCkB.s:807    .text:00000000000003e4 .L0 
     /tmp/ccP6cCkB.s:809    .text:00000000000003e8 .L0 
     /tmp/ccP6cCkB.s:810    .text:00000000000003e8 .L0 
     /tmp/ccP6cCkB.s:812    .text:00000000000003ec .L0 
     /tmp/ccP6cCkB.s:816    .text:00000000000003f0 .L0 
src/kernel/riscv.cpp:296    .text:00000000000003f0 .L0 
     /tmp/ccP6cCkB.s:822    .text:00000000000003f4 .L0 
     /tmp/ccP6cCkB.s:824    .text:00000000000003f4 .L0 
     /tmp/ccP6cCkB.s:827    .text:00000000000003fc .L0 
     /tmp/ccP6cCkB.s:828    .text:0000000000000400 .L0 
     /tmp/ccP6cCkB.s:829    .text:0000000000000400 .L0 
     /tmp/ccP6cCkB.s:831    .text:0000000000000404 .L0 
     /tmp/ccP6cCkB.s:832    .text:0000000000000404 .L0 
     /tmp/ccP6cCkB.s:834    .text:0000000000000408 .L0 
     /tmp/ccP6cCkB.s:837    .text:000000000000040c .L0 
     /tmp/ccP6cCkB.s:840    .text:0000000000000410 .L0 
     /tmp/ccP6cCkB.s:843    .text:0000000000000414 .L0 
     /tmp/ccP6cCkB.s:846    .text:0000000000000418 .L0 
     /tmp/ccP6cCkB.s:849    .text:000000000000041c .L0 
     /tmp/ccP6cCkB.s:853    .text:0000000000000420 .L0 
     /tmp/ccP6cCkB.s:855    .text:0000000000000420 .L0 
     /tmp/ccP6cCkB.s:862    .text:000000000000042c .L0 
     /tmp/ccP6cCkB.s:870    .text:0000000000000444 .L0 
     /tmp/ccP6cCkB.s:895    .text:0000000000000444 _ZN5RiscV25executeThreadStartSyscallEv
     /tmp/ccP6cCkB.s:898    .text:0000000000000444 .L0 
     /tmp/ccP6cCkB.s:899    .text:0000000000000444 .L0 
     /tmp/ccP6cCkB.s:900    .text:0000000000000448 .L0 
     /tmp/ccP6cCkB.s:903    .text:0000000000000450 .L0 
     /tmp/ccP6cCkB.s:904    .text:0000000000000450 .L0 
     /tmp/ccP6cCkB.s:906    .text:0000000000000454 .L0 
     /tmp/ccP6cCkB.s:908    .text:0000000000000454 .L0 
     /tmp/ccP6cCkB.s:909    .text:0000000000000454 .L0 
src/kernel/riscv.cpp:306    .text:0000000000000454 .L0 
     /tmp/ccP6cCkB.s:916    .text:0000000000000458 .L0 
     /tmp/ccP6cCkB.s:917    .text:0000000000000458 .L0 
     /tmp/ccP6cCkB.s:919    .text:0000000000000458 .L0 
     /tmp/ccP6cCkB.s:921    .text:000000000000045c .L0 
     /tmp/ccP6cCkB.s:925    .text:0000000000000460 .L0 
src/kernel/riscv.cpp:323    .text:0000000000000460 .L0 
     /tmp/ccP6cCkB.s:931    .text:0000000000000464 .L0 
     /tmp/ccP6cCkB.s:933    .text:0000000000000464 .L0 
     /tmp/ccP6cCkB.s:936    .text:000000000000046c .L0 
     /tmp/ccP6cCkB.s:937    .text:0000000000000470 .L0 
     /tmp/ccP6cCkB.s:938    .text:0000000000000470 .L0 
     /tmp/ccP6cCkB.s:940    .text:0000000000000474 .L0 
GAS LISTING /tmp/ccP6cCkB.s 			page 116


     /tmp/ccP6cCkB.s:941    .text:0000000000000474 .L0 
     /tmp/ccP6cCkB.s:943    .text:0000000000000478 .L0 
     /tmp/ccP6cCkB.s:947    .text:000000000000047c .L0 
     /tmp/ccP6cCkB.s:949    .text:000000000000047c .L0 
     /tmp/ccP6cCkB.s:950    .text:000000000000047c .L0 
     /tmp/ccP6cCkB.s:953    .text:0000000000000484 .L0 
     /tmp/ccP6cCkB.s:954    .text:0000000000000484 .L0 
     /tmp/ccP6cCkB.s:957    .text:000000000000048c .L0 
     /tmp/ccP6cCkB.s:958    .text:000000000000048c .L0 
     /tmp/ccP6cCkB.s:961    .text:0000000000000494 .L0 
     /tmp/ccP6cCkB.s:963    .text:000000000000049c .L0 
     /tmp/ccP6cCkB.s:969    .text:000000000000049c _ZN5RiscV24executeThreadExitSyscallEv
     /tmp/ccP6cCkB.s:972    .text:000000000000049c .L0 
     /tmp/ccP6cCkB.s:973    .text:000000000000049c .L0 
     /tmp/ccP6cCkB.s:974    .text:00000000000004a0 .L0 
     /tmp/ccP6cCkB.s:977    .text:00000000000004a8 .L0 
     /tmp/ccP6cCkB.s:978    .text:00000000000004a8 .L0 
     /tmp/ccP6cCkB.s:980    .text:00000000000004ac .L0 
     /tmp/ccP6cCkB.s:983    .text:00000000000004ac .L0 
     /tmp/ccP6cCkB.s:985    .text:00000000000004ac .L0 
     /tmp/ccP6cCkB.s:986    .text:00000000000004ac .L0 
     /tmp/ccP6cCkB.s:989    .text:00000000000004b8 .L0 
     /tmp/ccP6cCkB.s:993    .text:00000000000004bc .L0 
     /tmp/ccP6cCkB.s:994    .text:00000000000004bc .L0 
     /tmp/ccP6cCkB.s:995    .text:00000000000004bc .L0 
     /tmp/ccP6cCkB.s:998    .text:00000000000004c4 .L0 
     /tmp/ccP6cCkB.s:999    .text:00000000000004c4 .L0 
     /tmp/ccP6cCkB.s:1004   .text:00000000000004cc .L0 
     /tmp/ccP6cCkB.s:1008   .text:00000000000004d0 .L0 
src/kernel/riscv.cpp:343    .text:00000000000004d0 .L0 
     /tmp/ccP6cCkB.s:1014   .text:00000000000004d4 .L0 
     /tmp/ccP6cCkB.s:1016   .text:00000000000004d4 .L0 
     /tmp/ccP6cCkB.s:1019   .text:00000000000004dc .L0 
     /tmp/ccP6cCkB.s:1020   .text:00000000000004e0 .L0 
     /tmp/ccP6cCkB.s:1021   .text:00000000000004e0 .L0 
     /tmp/ccP6cCkB.s:1023   .text:00000000000004e4 .L0 
     /tmp/ccP6cCkB.s:1024   .text:00000000000004e4 .L0 
     /tmp/ccP6cCkB.s:1026   .text:00000000000004e8 .L0 
     /tmp/ccP6cCkB.s:1030   .text:00000000000004ec .L0 
     /tmp/ccP6cCkB.s:1033   .text:00000000000004ec .L0 
     /tmp/ccP6cCkB.s:1036   .text:00000000000004f4 .L0 
     /tmp/ccP6cCkB.s:1042   .text:00000000000004f4 _ZN5RiscV21executeSemOpenSyscallEv
     /tmp/ccP6cCkB.s:1045   .text:00000000000004f4 .L0 
     /tmp/ccP6cCkB.s:1048   .text:00000000000004f4 .L0 
     /tmp/ccP6cCkB.s:1049   .text:00000000000004f8 .L0 
     /tmp/ccP6cCkB.s:1055   .text:000000000000050c .L0 
     /tmp/ccP6cCkB.s:1056   .text:000000000000050c .L0 
     /tmp/ccP6cCkB.s:1057   .text:000000000000050c .L0 
     /tmp/ccP6cCkB.s:1058   .text:000000000000050c .L0 
     /tmp/ccP6cCkB.s:1059   .text:000000000000050c .L0 
     /tmp/ccP6cCkB.s:1061   .text:0000000000000510 .L0 
     /tmp/ccP6cCkB.s:1063   .text:0000000000000510 .L0 
     /tmp/ccP6cCkB.s:1064   .text:0000000000000510 .L0 
src/kernel/riscv.cpp:361    .text:0000000000000510 .L0 
     /tmp/ccP6cCkB.s:1071   .text:0000000000000514 .L0 
src/kernel/riscv.cpp:362    .text:0000000000000514 .L0 
     /tmp/ccP6cCkB.s:1077   .text:0000000000000518 .L0 
GAS LISTING /tmp/ccP6cCkB.s 			page 117


     /tmp/ccP6cCkB.s:1079   .text:0000000000000518 .L0 
     /tmp/ccP6cCkB.s:1087   .text:000000000000052c .L0 
     /tmp/ccP6cCkB.s:1094   .text:0000000000000538 .L0 
     /tmp/ccP6cCkB.s:1095   .text:0000000000000538 .L0 
     /tmp/ccP6cCkB.s:1097   .text:000000000000053c .L0 
     /tmp/ccP6cCkB.s:1098   .text:000000000000053c .L0 
     /tmp/ccP6cCkB.s:1100   .text:0000000000000540 .L0 
     /tmp/ccP6cCkB.s:1104   .text:0000000000000544 .L0 
src/kernel/riscv.cpp:377    .text:0000000000000544 .L0 
     /tmp/ccP6cCkB.s:1110   .text:0000000000000548 .L0 
     /tmp/ccP6cCkB.s:1112   .text:0000000000000548 .L0 
     /tmp/ccP6cCkB.s:1115   .text:0000000000000550 .L0 
     /tmp/ccP6cCkB.s:1116   .text:0000000000000554 .L0 
     /tmp/ccP6cCkB.s:1117   .text:0000000000000554 .L0 
     /tmp/ccP6cCkB.s:1119   .text:0000000000000558 .L0 
     /tmp/ccP6cCkB.s:1120   .text:0000000000000558 .L0 
     /tmp/ccP6cCkB.s:1122   .text:000000000000055c .L0 
     /tmp/ccP6cCkB.s:1125   .text:0000000000000560 .L0 
     /tmp/ccP6cCkB.s:1128   .text:0000000000000564 .L0 
     /tmp/ccP6cCkB.s:1131   .text:0000000000000568 .L0 
     /tmp/ccP6cCkB.s:1135   .text:000000000000056c .L0 
     /tmp/ccP6cCkB.s:1137   .text:000000000000056c .L0 
     /tmp/ccP6cCkB.s:1144   .text:0000000000000578 .L0 
     /tmp/ccP6cCkB.s:1152   .text:0000000000000590 .L0 
     /tmp/ccP6cCkB.s:1177   .text:0000000000000590 _ZN5RiscV22executeSemCloseSyscallEv
     /tmp/ccP6cCkB.s:1180   .text:0000000000000590 .L0 
     /tmp/ccP6cCkB.s:1181   .text:0000000000000590 .L0 
     /tmp/ccP6cCkB.s:1182   .text:0000000000000594 .L0 
     /tmp/ccP6cCkB.s:1186   .text:00000000000005a0 .L0 
     /tmp/ccP6cCkB.s:1187   .text:00000000000005a0 .L0 
     /tmp/ccP6cCkB.s:1188   .text:00000000000005a0 .L0 
     /tmp/ccP6cCkB.s:1190   .text:00000000000005a4 .L0 
     /tmp/ccP6cCkB.s:1192   .text:00000000000005a4 .L0 
     /tmp/ccP6cCkB.s:1193   .text:00000000000005a4 .L0 
src/kernel/riscv.cpp:388    .text:00000000000005a4 .L0 
     /tmp/ccP6cCkB.s:1200   .text:00000000000005a8 .L0 
     /tmp/ccP6cCkB.s:1201   .text:00000000000005a8 .L0 
     /tmp/ccP6cCkB.s:1203   .text:00000000000005a8 .L0 
     /tmp/ccP6cCkB.s:1205   .text:00000000000005ac .L0 
     /tmp/ccP6cCkB.s:1209   .text:00000000000005b0 .L0 
src/kernel/riscv.cpp:401    .text:00000000000005b0 .L0 
     /tmp/ccP6cCkB.s:1215   .text:00000000000005b4 .L0 
     /tmp/ccP6cCkB.s:1217   .text:00000000000005b4 .L0 
     /tmp/ccP6cCkB.s:1220   .text:00000000000005bc .L0 
     /tmp/ccP6cCkB.s:1221   .text:00000000000005c0 .L0 
     /tmp/ccP6cCkB.s:1222   .text:00000000000005c0 .L0 
     /tmp/ccP6cCkB.s:1224   .text:00000000000005c4 .L0 
     /tmp/ccP6cCkB.s:1225   .text:00000000000005c4 .L0 
     /tmp/ccP6cCkB.s:1227   .text:00000000000005c8 .L0 
     /tmp/ccP6cCkB.s:1230   .text:00000000000005cc .L0 
     /tmp/ccP6cCkB.s:1234   .text:00000000000005d0 .L0 
     /tmp/ccP6cCkB.s:1236   .text:00000000000005d0 .L0 
     /tmp/ccP6cCkB.s:1237   .text:00000000000005d0 .L0 
     /tmp/ccP6cCkB.s:1244   .text:00000000000005e8 .L0 
     /tmp/ccP6cCkB.s:1246   .text:00000000000005f0 .L0 
     /tmp/ccP6cCkB.s:1252   .text:00000000000005f0 _ZN5RiscV21executeSemWaitSyscallEv
     /tmp/ccP6cCkB.s:1255   .text:00000000000005f0 .L0 
GAS LISTING /tmp/ccP6cCkB.s 			page 118


     /tmp/ccP6cCkB.s:1256   .text:00000000000005f0 .L0 
     /tmp/ccP6cCkB.s:1257   .text:00000000000005f4 .L0 
     /tmp/ccP6cCkB.s:1260   .text:00000000000005fc .L0 
     /tmp/ccP6cCkB.s:1261   .text:00000000000005fc .L0 
     /tmp/ccP6cCkB.s:1263   .text:0000000000000600 .L0 
     /tmp/ccP6cCkB.s:1265   .text:0000000000000600 .L0 
     /tmp/ccP6cCkB.s:1266   .text:0000000000000600 .L0 
src/kernel/riscv.cpp:411    .text:0000000000000600 .L0 
     /tmp/ccP6cCkB.s:1273   .text:0000000000000604 .L0 
     /tmp/ccP6cCkB.s:1275   .text:0000000000000604 .L0 
     /tmp/ccP6cCkB.s:1279   .text:0000000000000608 .L0 
     /tmp/ccP6cCkB.s:1280   .text:0000000000000608 .L0 
     /tmp/ccP6cCkB.s:1284   .text:0000000000000618 .L0 
     /tmp/ccP6cCkB.s:1286   .text:000000000000061c .L0 
     /tmp/ccP6cCkB.s:1290   .text:0000000000000620 .L0 
src/kernel/riscv.cpp:427    .text:0000000000000620 .L0 
     /tmp/ccP6cCkB.s:1296   .text:0000000000000624 .L0 
     /tmp/ccP6cCkB.s:1298   .text:0000000000000624 .L0 
     /tmp/ccP6cCkB.s:1301   .text:000000000000062c .L0 
     /tmp/ccP6cCkB.s:1302   .text:0000000000000630 .L0 
     /tmp/ccP6cCkB.s:1303   .text:0000000000000630 .L0 
     /tmp/ccP6cCkB.s:1305   .text:0000000000000634 .L0 
     /tmp/ccP6cCkB.s:1306   .text:0000000000000634 .L0 
     /tmp/ccP6cCkB.s:1308   .text:0000000000000638 .L0 
     /tmp/ccP6cCkB.s:1312   .text:000000000000063c .L0 
     /tmp/ccP6cCkB.s:1314   .text:000000000000063c .L0 
     /tmp/ccP6cCkB.s:1315   .text:000000000000063c .L0 
     /tmp/ccP6cCkB.s:1321   .text:0000000000000648 .L0 
     /tmp/ccP6cCkB.s:1323   .text:0000000000000650 .L0 
     /tmp/ccP6cCkB.s:1329   .text:0000000000000650 _ZN5RiscV23executeSemSignalSyscallEv
     /tmp/ccP6cCkB.s:1332   .text:0000000000000650 .L0 
     /tmp/ccP6cCkB.s:1333   .text:0000000000000650 .L0 
     /tmp/ccP6cCkB.s:1334   .text:0000000000000654 .L0 
     /tmp/ccP6cCkB.s:1337   .text:000000000000065c .L0 
     /tmp/ccP6cCkB.s:1338   .text:000000000000065c .L0 
     /tmp/ccP6cCkB.s:1340   .text:0000000000000660 .L0 
     /tmp/ccP6cCkB.s:1342   .text:0000000000000660 .L0 
     /tmp/ccP6cCkB.s:1343   .text:0000000000000660 .L0 
src/kernel/riscv.cpp:438    .text:0000000000000660 .L0 
     /tmp/ccP6cCkB.s:1350   .text:0000000000000664 .L0 
     /tmp/ccP6cCkB.s:1352   .text:0000000000000664 .L0 
     /tmp/ccP6cCkB.s:1354   .text:0000000000000668 .L0 
     /tmp/ccP6cCkB.s:1358   .text:000000000000066c .L0 
src/kernel/riscv.cpp:450    .text:000000000000066c .L0 
     /tmp/ccP6cCkB.s:1364   .text:0000000000000670 .L0 
     /tmp/ccP6cCkB.s:1366   .text:0000000000000670 .L0 
     /tmp/ccP6cCkB.s:1369   .text:0000000000000678 .L0 
     /tmp/ccP6cCkB.s:1370   .text:000000000000067c .L0 
     /tmp/ccP6cCkB.s:1371   .text:000000000000067c .L0 
     /tmp/ccP6cCkB.s:1373   .text:0000000000000680 .L0 
     /tmp/ccP6cCkB.s:1374   .text:0000000000000680 .L0 
     /tmp/ccP6cCkB.s:1376   .text:0000000000000684 .L0 
     /tmp/ccP6cCkB.s:1380   .text:0000000000000688 .L0 
     /tmp/ccP6cCkB.s:1382   .text:0000000000000688 .L0 
     /tmp/ccP6cCkB.s:1383   .text:0000000000000688 .L0 
     /tmp/ccP6cCkB.s:1386   .text:0000000000000690 .L0 
     /tmp/ccP6cCkB.s:1388   .text:0000000000000698 .L0 
GAS LISTING /tmp/ccP6cCkB.s 			page 119


     /tmp/ccP6cCkB.s:1394   .text:0000000000000698 _ZN5RiscV23executeTimeSleepSyscallEv
     /tmp/ccP6cCkB.s:1397   .text:0000000000000698 .L0 
     /tmp/ccP6cCkB.s:1398   .text:0000000000000698 .L0 
     /tmp/ccP6cCkB.s:1399   .text:000000000000069c .L0 
     /tmp/ccP6cCkB.s:1403   .text:00000000000006a8 .L0 
     /tmp/ccP6cCkB.s:1404   .text:00000000000006a8 .L0 
     /tmp/ccP6cCkB.s:1405   .text:00000000000006a8 .L0 
     /tmp/ccP6cCkB.s:1407   .text:00000000000006ac .L0 
     /tmp/ccP6cCkB.s:1409   .text:00000000000006ac .L0 
     /tmp/ccP6cCkB.s:1410   .text:00000000000006ac .L0 
src/kernel/riscv.cpp:460    .text:00000000000006ac .L0 
     /tmp/ccP6cCkB.s:1416   .text:00000000000006b0 .L0 
     /tmp/ccP6cCkB.s:1418   .text:00000000000006b0 .L0 
     /tmp/ccP6cCkB.s:1422   .text:00000000000006bc .L0 
     /tmp/ccP6cCkB.s:1423   .text:00000000000006bc .L0 
     /tmp/ccP6cCkB.s:1426   .text:00000000000006c8 .L0 
     /tmp/ccP6cCkB.s:1427   .text:00000000000006c8 .L0 
     /tmp/ccP6cCkB.s:1429   .text:00000000000006cc .L0 
     /tmp/ccP6cCkB.s:1431   .text:00000000000006d0 .L0 
     /tmp/ccP6cCkB.s:1432   .text:00000000000006d0 .L0 
     /tmp/ccP6cCkB.s:1436   .text:00000000000006dc .L0 
     /tmp/ccP6cCkB.s:1437   .text:00000000000006dc .L0 
     /tmp/ccP6cCkB.s:1440   .text:00000000000006e4 .L0 
     /tmp/ccP6cCkB.s:1441   .text:00000000000006e4 .L0 
     /tmp/ccP6cCkB.s:1444   .text:00000000000006ec .L0 
     /tmp/ccP6cCkB.s:1445   .text:00000000000006ec .L0 
     /tmp/ccP6cCkB.s:1446   .text:00000000000006ec .L0 
     /tmp/ccP6cCkB.s:1452   .text:00000000000006f4 .L0 
     /tmp/ccP6cCkB.s:1454   .text:00000000000006f4 .L0 
     /tmp/ccP6cCkB.s:1457   .text:00000000000006fc .L0 
     /tmp/ccP6cCkB.s:1458   .text:0000000000000700 .L0 
     /tmp/ccP6cCkB.s:1460   .text:0000000000000704 .L0 
     /tmp/ccP6cCkB.s:1461   .text:0000000000000704 .L0 
     /tmp/ccP6cCkB.s:1463   .text:0000000000000708 .L0 
     /tmp/ccP6cCkB.s:1466   .text:000000000000070c .L0 
     /tmp/ccP6cCkB.s:1468   .text:0000000000000710 .L0 
     /tmp/ccP6cCkB.s:1474   .text:0000000000000710 _ZN5RiscV18executeGetcSyscallEv
     /tmp/ccP6cCkB.s:1477   .text:0000000000000710 .L0 
     /tmp/ccP6cCkB.s:1478   .text:0000000000000710 .L0 
     /tmp/ccP6cCkB.s:1479   .text:0000000000000714 .L0 
     /tmp/ccP6cCkB.s:1483   .text:0000000000000720 .L0 
     /tmp/ccP6cCkB.s:1484   .text:0000000000000720 .L0 
     /tmp/ccP6cCkB.s:1485   .text:0000000000000720 .L0 
     /tmp/ccP6cCkB.s:1487   .text:0000000000000724 .L0 
     /tmp/ccP6cCkB.s:1489   .text:0000000000000724 .L0 
     /tmp/ccP6cCkB.s:1490   .text:0000000000000724 .L0 
     /tmp/ccP6cCkB.s:1492   .text:000000000000072c .L0 
     /tmp/ccP6cCkB.s:1494   .text:0000000000000730 .L0 
     /tmp/ccP6cCkB.s:1495   .text:0000000000000730 .L0 
     /tmp/ccP6cCkB.s:1501   .text:0000000000000744 .L0 
     /tmp/ccP6cCkB.s:1502   .text:0000000000000744 .L0 
     /tmp/ccP6cCkB.s:1507   .text:0000000000000750 .L0 
     /tmp/ccP6cCkB.s:1510   .text:0000000000000758 .L0 
     /tmp/ccP6cCkB.s:1515   .text:0000000000000760 .L0 
src/kernel/riscv.cpp:501    .text:0000000000000760 .L0 
     /tmp/ccP6cCkB.s:1521   .text:0000000000000764 .L0 
     /tmp/ccP6cCkB.s:1523   .text:0000000000000764 .L0 
GAS LISTING /tmp/ccP6cCkB.s 			page 120


     /tmp/ccP6cCkB.s:1526   .text:000000000000076c .L0 
     /tmp/ccP6cCkB.s:1527   .text:0000000000000770 .L0 
     /tmp/ccP6cCkB.s:1528   .text:0000000000000770 .L0 
     /tmp/ccP6cCkB.s:1530   .text:0000000000000774 .L0 
     /tmp/ccP6cCkB.s:1531   .text:0000000000000774 .L0 
     /tmp/ccP6cCkB.s:1533   .text:0000000000000778 .L0 
     /tmp/ccP6cCkB.s:1535   .text:000000000000077c .L0 
     /tmp/ccP6cCkB.s:1539   .text:0000000000000780 .L0 
     /tmp/ccP6cCkB.s:1541   .text:0000000000000780 .L0 
     /tmp/ccP6cCkB.s:1542   .text:0000000000000780 .L0 
     /tmp/ccP6cCkB.s:1547   .text:000000000000078c .L0 
     /tmp/ccP6cCkB.s:1548   .text:000000000000078c .L0 
     /tmp/ccP6cCkB.s:1555   .text:000000000000079c .L0 
     /tmp/ccP6cCkB.s:1556   .text:000000000000079c .L0 
     /tmp/ccP6cCkB.s:1559   .text:00000000000007a8 .L0 
     /tmp/ccP6cCkB.s:1565   .text:00000000000007a8 _ZN5RiscV22executePutcUtilSyscallEv
     /tmp/ccP6cCkB.s:1568   .text:00000000000007a8 .L0 
     /tmp/ccP6cCkB.s:1569   .text:00000000000007a8 .L0 
     /tmp/ccP6cCkB.s:1570   .text:00000000000007ac .L0 
     /tmp/ccP6cCkB.s:1573   .text:00000000000007b4 .L0 
     /tmp/ccP6cCkB.s:1574   .text:00000000000007b4 .L0 
     /tmp/ccP6cCkB.s:1576   .text:00000000000007b8 .L0 
     /tmp/ccP6cCkB.s:1578   .text:00000000000007b8 .L0 
     /tmp/ccP6cCkB.s:1579   .text:00000000000007b8 .L0 
     /tmp/ccP6cCkB.s:1582   .text:00000000000007c0 .L0 
src/kernel/riscv.cpp:556    .text:00000000000007c0 .L0 
     /tmp/ccP6cCkB.s:1588   .text:00000000000007c4 .L0 
     /tmp/ccP6cCkB.s:1590   .text:00000000000007c4 .L0 
     /tmp/ccP6cCkB.s:1593   .text:00000000000007cc .L0 
     /tmp/ccP6cCkB.s:1594   .text:00000000000007d0 .L0 
     /tmp/ccP6cCkB.s:1596   .text:00000000000007d4 .L0 
     /tmp/ccP6cCkB.s:1597   .text:00000000000007d4 .L0 
     /tmp/ccP6cCkB.s:1599   .text:00000000000007d8 .L0 
     /tmp/ccP6cCkB.s:1601   .text:00000000000007dc .L0 
     /tmp/ccP6cCkB.s:1607   .text:00000000000007dc _ZN5RiscV24executeThreadFreeSyscallEv
     /tmp/ccP6cCkB.s:1610   .text:00000000000007dc .L0 
     /tmp/ccP6cCkB.s:1611   .text:00000000000007dc .L0 
     /tmp/ccP6cCkB.s:1612   .text:00000000000007e0 .L0 
     /tmp/ccP6cCkB.s:1616   .text:00000000000007ec .L0 
     /tmp/ccP6cCkB.s:1617   .text:00000000000007ec .L0 
     /tmp/ccP6cCkB.s:1618   .text:00000000000007ec .L0 
     /tmp/ccP6cCkB.s:1620   .text:00000000000007f0 .L0 
     /tmp/ccP6cCkB.s:1622   .text:00000000000007f0 .L0 
     /tmp/ccP6cCkB.s:1623   .text:00000000000007f0 .L0 
src/kernel/riscv.cpp:604    .text:00000000000007f0 .L0 
     /tmp/ccP6cCkB.s:1630   .text:00000000000007f4 .L0 
     /tmp/ccP6cCkB.s:1632   .text:00000000000007f4 .L0 
     /tmp/ccP6cCkB.s:1636   .text:00000000000007f8 .L0 
     /tmp/ccP6cCkB.s:1637   .text:00000000000007f8 .L0 
     /tmp/ccP6cCkB.s:1643   .text:0000000000000800 .L0 
     /tmp/ccP6cCkB.s:1645   .text:0000000000000800 .L0 
     /tmp/ccP6cCkB.s:1648   .text:0000000000000808 .L0 
     /tmp/ccP6cCkB.s:1649   .text:000000000000080c .L0 
     /tmp/ccP6cCkB.s:1650   .text:000000000000080c .L0 
     /tmp/ccP6cCkB.s:1652   .text:0000000000000810 .L0 
     /tmp/ccP6cCkB.s:1653   .text:0000000000000810 .L0 
     /tmp/ccP6cCkB.s:1655   .text:0000000000000814 .L0 
GAS LISTING /tmp/ccP6cCkB.s 			page 121


     /tmp/ccP6cCkB.s:1658   .text:0000000000000818 .L0 
     /tmp/ccP6cCkB.s:1662   .text:000000000000081c .L0 
     /tmp/ccP6cCkB.s:1664   .text:000000000000081c .L0 
     /tmp/ccP6cCkB.s:1665   .text:000000000000081c .L0 
     /tmp/ccP6cCkB.s:1669   .text:0000000000000828 .L0 
     /tmp/ccP6cCkB.s:1670   .text:0000000000000828 .L0 
     /tmp/ccP6cCkB.s:1677   .text:0000000000000844 .L0 
     /tmp/ccP6cCkB.s:1683   .text:0000000000000844 _ZN5RiscV27executeSemaphoreFreeSyscallEv
     /tmp/ccP6cCkB.s:1686   .text:0000000000000844 .L0 
     /tmp/ccP6cCkB.s:1687   .text:0000000000000844 .L0 
     /tmp/ccP6cCkB.s:1688   .text:0000000000000848 .L0 
     /tmp/ccP6cCkB.s:1692   .text:0000000000000854 .L0 
     /tmp/ccP6cCkB.s:1693   .text:0000000000000854 .L0 
     /tmp/ccP6cCkB.s:1694   .text:0000000000000854 .L0 
     /tmp/ccP6cCkB.s:1696   .text:0000000000000858 .L0 
     /tmp/ccP6cCkB.s:1698   .text:0000000000000858 .L0 
     /tmp/ccP6cCkB.s:1699   .text:0000000000000858 .L0 
src/kernel/riscv.cpp:626    .text:0000000000000858 .L0 
     /tmp/ccP6cCkB.s:1706   .text:000000000000085c .L0 
     /tmp/ccP6cCkB.s:1708   .text:000000000000085c .L0 
     /tmp/ccP6cCkB.s:1712   .text:0000000000000860 .L0 
     /tmp/ccP6cCkB.s:1713   .text:0000000000000860 .L0 
     /tmp/ccP6cCkB.s:1719   .text:0000000000000868 .L0 
     /tmp/ccP6cCkB.s:1721   .text:0000000000000868 .L0 
     /tmp/ccP6cCkB.s:1724   .text:0000000000000870 .L0 
     /tmp/ccP6cCkB.s:1725   .text:0000000000000874 .L0 
     /tmp/ccP6cCkB.s:1726   .text:0000000000000874 .L0 
     /tmp/ccP6cCkB.s:1728   .text:0000000000000878 .L0 
     /tmp/ccP6cCkB.s:1729   .text:0000000000000878 .L0 
     /tmp/ccP6cCkB.s:1731   .text:000000000000087c .L0 
     /tmp/ccP6cCkB.s:1734   .text:0000000000000880 .L0 
     /tmp/ccP6cCkB.s:1738   .text:0000000000000884 .L0 
     /tmp/ccP6cCkB.s:1740   .text:0000000000000884 .L0 
     /tmp/ccP6cCkB.s:1741   .text:0000000000000884 .L0 
     /tmp/ccP6cCkB.s:1748   .text:00000000000008a0 .L0 
     /tmp/ccP6cCkB.s:1754   .text:00000000000008a0 _ZN5RiscV5getPCEv
     /tmp/ccP6cCkB.s:1757   .text:00000000000008a0 .L0 
     /tmp/ccP6cCkB.s:1758   .text:00000000000008a0 .L0 
     /tmp/ccP6cCkB.s:1759   .text:00000000000008a4 .L0 
     /tmp/ccP6cCkB.s:1761   .text:00000000000008a8 .L0 
     /tmp/ccP6cCkB.s:1763   .text:00000000000008ac .L0 
     /tmp/ccP6cCkB.s:1765   .text:00000000000008ac .L0 
     /tmp/ccP6cCkB.s:1766   .text:00000000000008ac .L0 
src/kernel/riscv.cpp:712    .text:00000000000008ac .L0 
     /tmp/ccP6cCkB.s:1773   .text:00000000000008b0 .L0 
     /tmp/ccP6cCkB.s:1775   .text:00000000000008b0 .L0 
     /tmp/ccP6cCkB.s:1778   .text:00000000000008b4 .L0 
     /tmp/ccP6cCkB.s:1781   .text:00000000000008c0 .L0 
     /tmp/ccP6cCkB.s:1782   .text:00000000000008c4 .L0 
     /tmp/ccP6cCkB.s:1783   .text:00000000000008c4 .L0 
     /tmp/ccP6cCkB.s:1785   .text:00000000000008c8 .L0 
     /tmp/ccP6cCkB.s:1787   .text:00000000000008cc .L0 
     /tmp/ccP6cCkB.s:1793   .text:00000000000008cc _ZN5RiscV16threadCreateUtilEPP3TCBPFvPvES3_
     /tmp/ccP6cCkB.s:1796   .text:00000000000008cc .L0 
     /tmp/ccP6cCkB.s:1798   .text:00000000000008cc .L0 
     /tmp/ccP6cCkB.s:1799   .text:00000000000008d0 .L0 
     /tmp/ccP6cCkB.s:1805   .text:00000000000008e4 .L0 
GAS LISTING /tmp/ccP6cCkB.s 			page 122


     /tmp/ccP6cCkB.s:1806   .text:00000000000008e4 .L0 
     /tmp/ccP6cCkB.s:1807   .text:00000000000008e4 .L0 
     /tmp/ccP6cCkB.s:1808   .text:00000000000008e4 .L0 
     /tmp/ccP6cCkB.s:1809   .text:00000000000008e4 .L0 
     /tmp/ccP6cCkB.s:1811   .text:00000000000008e8 .L0 
     /tmp/ccP6cCkB.s:1817   .text:00000000000008f4 .L0 
     /tmp/ccP6cCkB.s:1818   .text:00000000000008f4 .L0 
     /tmp/ccP6cCkB.s:1819   .text:00000000000008f4 .L0 
     /tmp/ccP6cCkB.s:1820   .text:00000000000008f4 .L0 
     /tmp/ccP6cCkB.s:1821   .text:00000000000008f4 .L0 
     /tmp/ccP6cCkB.s:1823   .text:00000000000008f8 .L0 
     /tmp/ccP6cCkB.s:1824   .text:00000000000008f8 .L0 
     /tmp/ccP6cCkB.s:1829   .text:0000000000000904 .L0 
     /tmp/ccP6cCkB.s:1831   .text:0000000000000908 .L0 
     /tmp/ccP6cCkB.s:1832   .text:0000000000000908 .L0 
     /tmp/ccP6cCkB.s:1834   .text:000000000000090c .L0 
     /tmp/ccP6cCkB.s:1838   .text:0000000000000910 .L0 
     /tmp/ccP6cCkB.s:1842   .text:0000000000000914 .L0 
src/kernel/riscv.cpp:731    .text:0000000000000914 .L0 
     /tmp/ccP6cCkB.s:1848   .text:0000000000000918 .L0 
src/kernel/riscv.cpp:732    .text:0000000000000918 .L0 
     /tmp/ccP6cCkB.s:1853   .text:000000000000091c .L0 
src/kernel/riscv.cpp:733    .text:000000000000091c .L0 
     /tmp/ccP6cCkB.s:1858   .text:0000000000000920 .L0 
src/kernel/riscv.cpp:734    .text:0000000000000920 .L0 
     /tmp/ccP6cCkB.s:1863   .text:0000000000000924 .L0 
src/kernel/riscv.cpp:735    .text:0000000000000924 .L0 
     /tmp/ccP6cCkB.s:1868   .text:0000000000000928 .L0 
src/kernel/riscv.cpp:737    .text:0000000000000928 .L0 
     /tmp/ccP6cCkB.s:1873   .text:000000000000092c .L0 
     /tmp/ccP6cCkB.s:1877   .text:000000000000092c .L0 
     /tmp/ccP6cCkB.s:1878   .text:000000000000092c .L0 
     /tmp/ccP6cCkB.s:1879   .text:0000000000000930 .L0 
     /tmp/ccP6cCkB.s:1881   .text:0000000000000934 .L0 
     /tmp/ccP6cCkB.s:1882   .text:0000000000000934 .L0 
     /tmp/ccP6cCkB.s:1884   .text:0000000000000938 .L0 
     /tmp/ccP6cCkB.s:1887   .text:000000000000093c .L0 
     /tmp/ccP6cCkB.s:1890   .text:0000000000000940 .L0 
     /tmp/ccP6cCkB.s:1893   .text:0000000000000944 .L0 
     /tmp/ccP6cCkB.s:1895   .text:0000000000000948 .L0 
     /tmp/ccP6cCkB.s:1901   .text:0000000000000948 _ZN5RiscV14threadExitUtilEv
     /tmp/ccP6cCkB.s:1904   .text:0000000000000948 .L0 
     /tmp/ccP6cCkB.s:1905   .text:0000000000000948 .L0 
     /tmp/ccP6cCkB.s:1906   .text:000000000000094c .L0 
     /tmp/ccP6cCkB.s:1908   .text:0000000000000950 .L0 
     /tmp/ccP6cCkB.s:1910   .text:0000000000000954 .L0 
     /tmp/ccP6cCkB.s:1912   .text:0000000000000954 .L0 
src/kernel/riscv.cpp:746    .text:0000000000000954 .L0 
     /tmp/ccP6cCkB.s:1918   .text:0000000000000958 .L0 
src/kernel/riscv.cpp:748    .text:0000000000000958 .L0 
     /tmp/ccP6cCkB.s:1923   .text:000000000000095c .L0 
     /tmp/ccP6cCkB.s:1925   .text:000000000000095c .L0 
     /tmp/ccP6cCkB.s:1927   .text:000000000000095c .L0 
     /tmp/ccP6cCkB.s:1928   .text:0000000000000960 .L0 
     /tmp/ccP6cCkB.s:1929   .text:0000000000000960 .L0 
     /tmp/ccP6cCkB.s:1931   .text:0000000000000964 .L0 
     /tmp/ccP6cCkB.s:1933   .text:0000000000000968 .L0 
GAS LISTING /tmp/ccP6cCkB.s 			page 123


     /tmp/ccP6cCkB.s:1939   .text:0000000000000968 _ZN5RiscV18threadDispatchUtilEv
     /tmp/ccP6cCkB.s:1942   .text:0000000000000968 .L0 
     /tmp/ccP6cCkB.s:1943   .text:0000000000000968 .L0 
     /tmp/ccP6cCkB.s:1944   .text:000000000000096c .L0 
     /tmp/ccP6cCkB.s:1946   .text:0000000000000970 .L0 
     /tmp/ccP6cCkB.s:1948   .text:0000000000000974 .L0 
     /tmp/ccP6cCkB.s:1950   .text:0000000000000974 .L0 
src/kernel/riscv.cpp:756    .text:0000000000000974 .L0 
     /tmp/ccP6cCkB.s:1956   .text:0000000000000978 .L0 
src/kernel/riscv.cpp:758    .text:0000000000000978 .L0 
     /tmp/ccP6cCkB.s:1962   .text:000000000000097c .L0 
     /tmp/ccP6cCkB.s:1963   .text:0000000000000980 .L0 
     /tmp/ccP6cCkB.s:1964   .text:0000000000000980 .L0 
     /tmp/ccP6cCkB.s:1966   .text:0000000000000984 .L0 
     /tmp/ccP6cCkB.s:1968   .text:0000000000000988 .L0 
     /tmp/ccP6cCkB.s:1974   .text:0000000000000988 _ZN5RiscV11putcWrapperEPv
     /tmp/ccP6cCkB.s:1977   .text:0000000000000988 .L0 
     /tmp/ccP6cCkB.s:1979   .text:0000000000000988 .L0 
     /tmp/ccP6cCkB.s:1980   .text:000000000000098c .L0 
     /tmp/ccP6cCkB.s:1983   .text:0000000000000994 .L0 
     /tmp/ccP6cCkB.s:1984   .text:0000000000000994 .L0 
     /tmp/ccP6cCkB.s:1986   .text:0000000000000998 .L0 
     /tmp/ccP6cCkB.s:1993   .text:000000000000099c .L0 
     /tmp/ccP6cCkB.s:1994   .text:000000000000099c .L0 
     /tmp/ccP6cCkB.s:2001   .text:00000000000009a4 .L0 
     /tmp/ccP6cCkB.s:2002   .text:00000000000009a4 .L0 
     /tmp/ccP6cCkB.s:2003   .text:00000000000009a4 .L0 
     /tmp/ccP6cCkB.s:2007   .text:00000000000009b0 .L0 
src/kernel/riscv.cpp:529    .text:00000000000009b0 .L0 
     /tmp/ccP6cCkB.s:2013   .text:00000000000009b4 .L0 
src/kernel/riscv.cpp:530    .text:00000000000009b4 .L0 
     /tmp/ccP6cCkB.s:2018   .text:00000000000009b8 .L0 
src/kernel/riscv.cpp:531    .text:00000000000009b8 .L0 
     /tmp/ccP6cCkB.s:2026   .text:00000000000009bc .L0 
     /tmp/ccP6cCkB.s:2027   .text:00000000000009bc .L0 
     /tmp/ccP6cCkB.s:2030   .text:00000000000009c0 .L0 
     /tmp/ccP6cCkB.s:2033   .text:00000000000009c4 .L0 
     /tmp/ccP6cCkB.s:2034   .text:00000000000009c4 .L0 
     /tmp/ccP6cCkB.s:2037   .text:00000000000009cc .L0 
     /tmp/ccP6cCkB.s:2039   .text:00000000000009d0 .L0 
     /tmp/ccP6cCkB.s:2040   .text:00000000000009d0 .L0 
     /tmp/ccP6cCkB.s:2044   .text:00000000000009dc .L0 
src/kernel/riscv.cpp:539    .text:00000000000009dc .L0 
     /tmp/ccP6cCkB.s:2050   .text:00000000000009e0 .L0 
     /tmp/ccP6cCkB.s:2052   .text:00000000000009e0 .L0 
src/kernel/riscv.cpp:540    .text:00000000000009e4 .L0 
     /tmp/ccP6cCkB.s:2060   .text:00000000000009e8 .L0 
src/kernel/riscv.cpp:541    .text:00000000000009e8 .L0 
     /tmp/ccP6cCkB.s:2065   .text:00000000000009ec .L0 
     /tmp/ccP6cCkB.s:2067   .text:00000000000009ec .L0 
     /tmp/ccP6cCkB.s:2070   .text:00000000000009f8 .L0 
     /tmp/ccP6cCkB.s:2072   .text:00000000000009fc .L0 
     /tmp/ccP6cCkB.s:2073   .text:00000000000009fc .L0 
     /tmp/ccP6cCkB.s:2080   .text:0000000000000a10 .L0 
     /tmp/ccP6cCkB.s:2086   .text:0000000000000a10 _ZN5RiscV6getPMTEv
     /tmp/ccP6cCkB.s:2089   .text:0000000000000a10 .L0 
     /tmp/ccP6cCkB.s:2090   .text:0000000000000a10 .L0 
GAS LISTING /tmp/ccP6cCkB.s 			page 124


     /tmp/ccP6cCkB.s:2091   .text:0000000000000a14 .L0 
     /tmp/ccP6cCkB.s:2094   .text:0000000000000a1c .L0 
     /tmp/ccP6cCkB.s:2095   .text:0000000000000a1c .L0 
     /tmp/ccP6cCkB.s:2097   .text:0000000000000a20 .L0 
     /tmp/ccP6cCkB.s:2099   .text:0000000000000a20 .L0 
     /tmp/ccP6cCkB.s:2100   .text:0000000000000a20 .L0 
     /tmp/ccP6cCkB.s:2104   .text:0000000000000a2c .L0 
     /tmp/ccP6cCkB.s:2107   .text:0000000000000a30 .L0 
     /tmp/ccP6cCkB.s:2111   .text:0000000000000a34 .L0 
     /tmp/ccP6cCkB.s:2114   .text:0000000000000a3c .L0 
     /tmp/ccP6cCkB.s:2115   .text:0000000000000a3c .L0 
     /tmp/ccP6cCkB.s:2118   .text:0000000000000a44 .L0 
     /tmp/ccP6cCkB.s:2120   .text:0000000000000a48 .L0 
     /tmp/ccP6cCkB.s:2126   .text:0000000000000a50 .L0 
     /tmp/ccP6cCkB.s:2127   .text:0000000000000a54 .L0 
     /tmp/ccP6cCkB.s:2129   .text:0000000000000a58 .L0 
     /tmp/ccP6cCkB.s:2130   .text:0000000000000a58 .L0 
     /tmp/ccP6cCkB.s:2132   .text:0000000000000a5c .L0 
     /tmp/ccP6cCkB.s:2134   .text:0000000000000a60 .L0 
     /tmp/ccP6cCkB.s:2140   .text:0000000000000a60 _ZN5RiscV15handlePageFaultEPvmm
     /tmp/ccP6cCkB.s:2143   .text:0000000000000a60 .L0 
     /tmp/ccP6cCkB.s:2145   .text:0000000000000a60 .L0 
     /tmp/ccP6cCkB.s:2146   .text:0000000000000a64 .L0 
     /tmp/ccP6cCkB.s:2152   .text:0000000000000a78 .L0 
     /tmp/ccP6cCkB.s:2153   .text:0000000000000a78 .L0 
     /tmp/ccP6cCkB.s:2154   .text:0000000000000a78 .L0 
     /tmp/ccP6cCkB.s:2155   .text:0000000000000a78 .L0 
     /tmp/ccP6cCkB.s:2156   .text:0000000000000a78 .L0 
     /tmp/ccP6cCkB.s:2158   .text:0000000000000a7c .L0 
     /tmp/ccP6cCkB.s:2165   .text:0000000000000a84 .L0 
     /tmp/ccP6cCkB.s:2166   .text:0000000000000a84 .L0 
     /tmp/ccP6cCkB.s:2167   .text:0000000000000a84 .L0 
     /tmp/ccP6cCkB.s:2169   .text:0000000000000a88 .L0 
     /tmp/ccP6cCkB.s:2174   .text:0000000000000a8c .L0 
     /tmp/ccP6cCkB.s:2179   .text:0000000000000a98 .L0 
     /tmp/ccP6cCkB.s:2181   .text:0000000000000a98 .L0 
     /tmp/ccP6cCkB.s:2183   .text:0000000000000a9c .L0 
     /tmp/ccP6cCkB.s:2184   .text:0000000000000a9c .L0 
     /tmp/ccP6cCkB.s:2187   .text:0000000000000aa0 .L0 
     /tmp/ccP6cCkB.s:2194   .text:0000000000000aa4 .L0 
     /tmp/ccP6cCkB.s:2195   .text:0000000000000aa4 .L0 
     /tmp/ccP6cCkB.s:2196   .text:0000000000000aa4 .L0 
     /tmp/ccP6cCkB.s:2198   .text:0000000000000aa8 .L0 
     /tmp/ccP6cCkB.s:2203   .text:0000000000000aac .L0 
     /tmp/ccP6cCkB.s:2208   .text:0000000000000ab8 .L0 
     /tmp/ccP6cCkB.s:2210   .text:0000000000000ab8 .L0 
     /tmp/ccP6cCkB.s:2212   .text:0000000000000abc .L0 
     /tmp/ccP6cCkB.s:2213   .text:0000000000000abc .L0 
     /tmp/ccP6cCkB.s:2216   .text:0000000000000ac0 .L0 
     /tmp/ccP6cCkB.s:2221   .text:0000000000000ac4 .L0 
     /tmp/ccP6cCkB.s:2222   .text:0000000000000ac4 .L0 
     /tmp/ccP6cCkB.s:2225   .text:0000000000000ac8 .L0 
     /tmp/ccP6cCkB.s:2226   .text:0000000000000ac8 .L0 
     /tmp/ccP6cCkB.s:2231   .text:0000000000000acc .L0 
     /tmp/ccP6cCkB.s:2232   .text:0000000000000acc .L0 
     /tmp/ccP6cCkB.s:2237   .text:0000000000000ad0 .L0 
     /tmp/ccP6cCkB.s:2240   .text:0000000000000ad8 .L0 
GAS LISTING /tmp/ccP6cCkB.s 			page 125


     /tmp/ccP6cCkB.s:2243   .text:0000000000000adc .L0 
     /tmp/ccP6cCkB.s:2247   .text:0000000000000ae0 .L0 
     /tmp/ccP6cCkB.s:2248   .text:0000000000000ae4 .L0 
     /tmp/ccP6cCkB.s:2249   .text:0000000000000ae4 .L0 
     /tmp/ccP6cCkB.s:2251   .text:0000000000000ae8 .L0 
     /tmp/ccP6cCkB.s:2252   .text:0000000000000ae8 .L0 
     /tmp/ccP6cCkB.s:2254   .text:0000000000000aec .L0 
     /tmp/ccP6cCkB.s:2256   .text:0000000000000af0 .L0 
     /tmp/ccP6cCkB.s:2258   .text:0000000000000af4 .L0 
     /tmp/ccP6cCkB.s:2260   .text:0000000000000af8 .L0 
     /tmp/ccP6cCkB.s:2264   .text:0000000000000afc .L0 
     /tmp/ccP6cCkB.s:2268   .text:0000000000000afc .L0 
     /tmp/ccP6cCkB.s:2269   .text:0000000000000afc .L0 
     /tmp/ccP6cCkB.s:2272   .text:0000000000000b04 .L0 
     /tmp/ccP6cCkB.s:2274   .text:0000000000000b08 .L0 
     /tmp/ccP6cCkB.s:2275   .text:0000000000000b08 .L0 
     /tmp/ccP6cCkB.s:2278   .text:0000000000000b0c .L0 
     /tmp/ccP6cCkB.s:2279   .text:0000000000000b0c .L0 
     /tmp/ccP6cCkB.s:2286   .text:0000000000000b10 .L0 
     /tmp/ccP6cCkB.s:2287   .text:0000000000000b10 .L0 
     /tmp/ccP6cCkB.s:2289   .text:0000000000000b14 .L0 
     /tmp/ccP6cCkB.s:2298   .text:0000000000000b1c .L0 
     /tmp/ccP6cCkB.s:2299   .text:0000000000000b1c .L0 
     /tmp/ccP6cCkB.s:2302   .text:0000000000000b24 .L0 
     /tmp/ccP6cCkB.s:2304   .text:0000000000000b28 .L0 
     /tmp/ccP6cCkB.s:2305   .text:0000000000000b28 .L0 
     /tmp/ccP6cCkB.s:2308   .text:0000000000000b2c .L0 
     /tmp/ccP6cCkB.s:2309   .text:0000000000000b2c .L0 
     /tmp/ccP6cCkB.s:2316   .text:0000000000000b30 .L0 
     /tmp/ccP6cCkB.s:2317   .text:0000000000000b30 .L0 
     /tmp/ccP6cCkB.s:2319   .text:0000000000000b34 .L0 
     /tmp/ccP6cCkB.s:2323   .text:0000000000000b3c .L0 
     /tmp/ccP6cCkB.s:2329   .text:0000000000000b3c _ZN5RiscV18executeForkSyscallEv
     /tmp/ccP6cCkB.s:2332   .text:0000000000000b3c .L0 
     /tmp/ccP6cCkB.s:2335   .text:0000000000000b3c .L0 
     /tmp/ccP6cCkB.s:2336   .text:0000000000000b40 .L0 
     /tmp/ccP6cCkB.s:2341   .text:0000000000000b50 .L0 
     /tmp/ccP6cCkB.s:2342   .text:0000000000000b50 .L0 
     /tmp/ccP6cCkB.s:2343   .text:0000000000000b50 .L0 
     /tmp/ccP6cCkB.s:2344   .text:0000000000000b50 .L0 
     /tmp/ccP6cCkB.s:2346   .text:0000000000000b54 .L0 
     /tmp/ccP6cCkB.s:2348   .text:0000000000000b54 .L0 
     /tmp/ccP6cCkB.s:2349   .text:0000000000000b54 .L0 
     /tmp/ccP6cCkB.s:2356   .text:0000000000000b64 .L0 
     /tmp/ccP6cCkB.s:2357   .text:0000000000000b64 .L0 
     /tmp/ccP6cCkB.s:2364   .text:0000000000000b7c .L0 
     /tmp/ccP6cCkB.s:2365   .text:0000000000000b7c .L0 
     /tmp/ccP6cCkB.s:2373   .text:0000000000000b9c .L0 
     /tmp/ccP6cCkB.s:2374   .text:0000000000000b9c .L0 
     /tmp/ccP6cCkB.s:2381   .text:0000000000000bb0 .L0 
     /tmp/ccP6cCkB.s:2391   .text:0000000000000bc8 .L0 
     /tmp/ccP6cCkB.s:2393   .text:0000000000000bc8 .L0 
     /tmp/ccP6cCkB.s:2396   .text:0000000000000bcc .L0 
     /tmp/ccP6cCkB.s:2397   .text:0000000000000bcc .L0 
     /tmp/ccP6cCkB.s:2401   .text:0000000000000bdc .L0 
     /tmp/ccP6cCkB.s:2402   .text:0000000000000bdc .L0 
     /tmp/ccP6cCkB.s:2405   .text:0000000000000be8 .L0 
GAS LISTING /tmp/ccP6cCkB.s 			page 126


     /tmp/ccP6cCkB.s:2407   .text:0000000000000bec .L0 
     /tmp/ccP6cCkB.s:2410   .text:0000000000000bf8 .L0 
     /tmp/ccP6cCkB.s:2412   .text:0000000000000bfc .L0 
     /tmp/ccP6cCkB.s:2414   .text:0000000000000c00 .L0 
     /tmp/ccP6cCkB.s:2416   .text:0000000000000c04 .L0 
     /tmp/ccP6cCkB.s:2417   .text:0000000000000c04 .L0 
     /tmp/ccP6cCkB.s:2420   .text:0000000000000c0c .L0 
     /tmp/ccP6cCkB.s:2422   .text:0000000000000c10 .L0 
     /tmp/ccP6cCkB.s:2424   .text:0000000000000c14 .L0 
     /tmp/ccP6cCkB.s:2427   .text:0000000000000c18 .L0 
     /tmp/ccP6cCkB.s:2428   .text:0000000000000c18 .L0 
     /tmp/ccP6cCkB.s:2430   .text:0000000000000c1c .L0 
     /tmp/ccP6cCkB.s:2431   .text:0000000000000c1c .L0 
src/kernel/riscv.cpp:672    .text:0000000000000c1c .L0 
     /tmp/ccP6cCkB.s:2437   .text:0000000000000c20 .L0 
src/kernel/riscv.cpp:674    .text:0000000000000c20 .L0 
     /tmp/ccP6cCkB.s:2442   .text:0000000000000c24 .L0 
src/kernel/riscv.cpp:676    .text:0000000000000c24 .L0 
     /tmp/ccP6cCkB.s:2447   .text:0000000000000c28 .L0 
src/kernel/riscv.cpp:678    .text:0000000000000c28 .L0 
     /tmp/ccP6cCkB.s:2452   .text:0000000000000c2c .L0 
src/kernel/riscv.cpp:680    .text:0000000000000c2c .L0 
     /tmp/ccP6cCkB.s:2457   .text:0000000000000c30 .L0 
src/kernel/riscv.cpp:683    .text:0000000000000c30 .L0 
     /tmp/ccP6cCkB.s:2462   .text:0000000000000c34 .L0 
src/kernel/riscv.cpp:685    .text:0000000000000c34 .L0 
     /tmp/ccP6cCkB.s:2467   .text:0000000000000c38 .L0 
src/kernel/riscv.cpp:687    .text:0000000000000c38 .L0 
     /tmp/ccP6cCkB.s:2472   .text:0000000000000c3c .L0 
src/kernel/riscv.cpp:689    .text:0000000000000c3c .L0 
     /tmp/ccP6cCkB.s:2477   .text:0000000000000c40 .L0 
     /tmp/ccP6cCkB.s:2479   .text:0000000000000c40 .L0 
     /tmp/ccP6cCkB.s:2482   .text:0000000000000c48 .L0 
     /tmp/ccP6cCkB.s:2484   .text:0000000000000c4c .L0 
     /tmp/ccP6cCkB.s:2485   .text:0000000000000c4c .L0 
     /tmp/ccP6cCkB.s:2487   .text:0000000000000c50 .L0 
     /tmp/ccP6cCkB.s:2489   .text:0000000000000c54 .L0 
     /tmp/ccP6cCkB.s:2490   .text:0000000000000c54 .L0 
     /tmp/ccP6cCkB.s:2499   .text:0000000000000c60 .L0 
     /tmp/ccP6cCkB.s:2500   .text:0000000000000c60 .L0 
src/kernel/riscv.cpp:703    .text:0000000000000c60 .L0 
     /tmp/ccP6cCkB.s:2506   .text:0000000000000c64 .L0 
     /tmp/ccP6cCkB.s:2508   .text:0000000000000c64 .L0 
     /tmp/ccP6cCkB.s:2511   .text:0000000000000c6c .L0 
     /tmp/ccP6cCkB.s:2512   .text:0000000000000c70 .L0 
     /tmp/ccP6cCkB.s:2513   .text:0000000000000c70 .L0 
     /tmp/ccP6cCkB.s:2515   .text:0000000000000c74 .L0 
     /tmp/ccP6cCkB.s:2516   .text:0000000000000c74 .L0 
     /tmp/ccP6cCkB.s:2518   .text:0000000000000c78 .L0 
     /tmp/ccP6cCkB.s:2521   .text:0000000000000c7c .L0 
     /tmp/ccP6cCkB.s:2523   .text:0000000000000c80 .L0 
     /tmp/ccP6cCkB.s:2527   .text:0000000000000c84 .L0 
     /tmp/ccP6cCkB.s:2530   .text:0000000000000c84 .L0 
     /tmp/ccP6cCkB.s:2539   .text:0000000000000c90 .L0 
     /tmp/ccP6cCkB.s:2547   .text:0000000000000ca8 .L0 
     /tmp/ccP6cCkB.s:2599   .text:0000000000000ca8 _ZN5RiscV20handleSupervisorTrapEv
     /tmp/ccP6cCkB.s:2602   .text:0000000000000ca8 .L0 
GAS LISTING /tmp/ccP6cCkB.s 			page 127


     /tmp/ccP6cCkB.s:2603   .text:0000000000000ca8 .L0 
     /tmp/ccP6cCkB.s:2604   .text:0000000000000cac .L0 
     /tmp/ccP6cCkB.s:2608   .text:0000000000000cb8 .L0 
     /tmp/ccP6cCkB.s:2609   .text:0000000000000cb8 .L0 
     /tmp/ccP6cCkB.s:2610   .text:0000000000000cb8 .L0 
     /tmp/ccP6cCkB.s:2612   .text:0000000000000cbc .L0 
     /tmp/ccP6cCkB.s:2614   .text:0000000000000cbc .L0 
     /tmp/ccP6cCkB.s:2615   .text:0000000000000cbc .L0 
src/kernel/riscv.cpp:54     .text:0000000000000cbc .L0 
     /tmp/ccP6cCkB.s:2625   .text:0000000000000cc0 .L0 
     /tmp/ccP6cCkB.s:2626   .text:0000000000000cc0 .L0 
     /tmp/ccP6cCkB.s:2627   .text:0000000000000cc0 .L0 
src/kernel/../../h/kernel/riscv.hpp:170    .text:0000000000000cc0 .L0 
     /tmp/ccP6cCkB.s:2635   .text:0000000000000cc8 .L0 
     /tmp/ccP6cCkB.s:2636   .text:0000000000000cc8 .L0 
     /tmp/ccP6cCkB.s:2640   .text:0000000000000ccc .L0 
     /tmp/ccP6cCkB.s:2642   .text:0000000000000cd0 .L0 
     /tmp/ccP6cCkB.s:2643   .text:0000000000000cd0 .L0 
src/kernel/riscv.cpp:57     .text:0000000000000cdc .L0 
     /tmp/ccP6cCkB.s:2654   .text:0000000000000ce4 .L0 
     /tmp/ccP6cCkB.s:2655   .text:0000000000000ce4 .L0 
     /tmp/ccP6cCkB.s:2657   .text:0000000000000ce8 .L0 
     /tmp/ccP6cCkB.s:2660   .text:0000000000000cf0 .L0 
     /tmp/ccP6cCkB.s:2662   .text:0000000000000cf4 .L0 
     /tmp/ccP6cCkB.s:2668   .text:0000000000000cfc .L0 
     /tmp/ccP6cCkB.s:2669   .text:0000000000000cfc .L0 
     /tmp/ccP6cCkB.s:2671   .text:0000000000000d00 .L0 
     /tmp/ccP6cCkB.s:2681   .text:0000000000000d10 .L0 
     /tmp/ccP6cCkB.s:2682   .text:0000000000000d10 .L0 
     /tmp/ccP6cCkB.s:2684   .text:0000000000000d14 .L0 
     /tmp/ccP6cCkB.s:2696   .text:0000000000000d24 .L0 
     /tmp/ccP6cCkB.s:2697   .text:0000000000000d24 .L0 
     /tmp/ccP6cCkB.s:2699   .text:0000000000000d28 .L0 
     /tmp/ccP6cCkB.s:2703   .text:0000000000000d30 .L0 
     /tmp/ccP6cCkB.s:2704   .text:0000000000000d30 .L0 
     /tmp/ccP6cCkB.s:2708   .text:0000000000000d40 .L0 
     /tmp/ccP6cCkB.s:2709   .text:0000000000000d40 .L0 
     /tmp/ccP6cCkB.s:2715   .text:0000000000000d50 .L0 
     /tmp/ccP6cCkB.s:2716   .text:0000000000000d50 .L0 
     /tmp/ccP6cCkB.s:2717   .text:0000000000000d50 .L0 
src/kernel/../../h/kernel/riscv.hpp:170    .text:0000000000000d50 .L0 
     /tmp/ccP6cCkB.s:2725   .text:0000000000000d58 .L0 
     /tmp/ccP6cCkB.s:2726   .text:0000000000000d58 .L0 
     /tmp/ccP6cCkB.s:2731   .text:0000000000000d5c .L0 
     /tmp/ccP6cCkB.s:2732   .text:0000000000000d5c .L0 
     /tmp/ccP6cCkB.s:2739   .text:0000000000000d70 .L0 
     /tmp/ccP6cCkB.s:2740   .text:0000000000000d70 .L0 
     /tmp/ccP6cCkB.s:2744   .text:0000000000000d80 .L0 
     /tmp/ccP6cCkB.s:2745   .text:0000000000000d80 .L0 
     /tmp/ccP6cCkB.s:2751   .text:0000000000000d90 .L0 
     /tmp/ccP6cCkB.s:2752   .text:0000000000000d90 .L0 
     /tmp/ccP6cCkB.s:2753   .text:0000000000000d90 .L0 
src/kernel/../../h/kernel/riscv.hpp:180    .text:0000000000000d90 .L0 
     /tmp/ccP6cCkB.s:2762   .text:0000000000000d94 .L0 
     /tmp/ccP6cCkB.s:2763   .text:0000000000000d94 .L0 
     /tmp/ccP6cCkB.s:2764   .text:0000000000000d94 .L0 
     /tmp/ccP6cCkB.s:2770   .text:0000000000000da8 .L0 
GAS LISTING /tmp/ccP6cCkB.s 			page 128


     /tmp/ccP6cCkB.s:2771   .text:0000000000000da8 .L0 
     /tmp/ccP6cCkB.s:2775   .text:0000000000000db8 .L0 
     /tmp/ccP6cCkB.s:2776   .text:0000000000000db8 .L0 
     /tmp/ccP6cCkB.s:2783   .text:0000000000000dd8 .L0 
     /tmp/ccP6cCkB.s:2784   .text:0000000000000dd8 .L0 
     /tmp/ccP6cCkB.s:2788   .text:0000000000000de4 .L0 
     /tmp/ccP6cCkB.s:2789   .text:0000000000000de4 .L0 
     /tmp/ccP6cCkB.s:2792   .text:0000000000000dec .L0 
     /tmp/ccP6cCkB.s:2793   .text:0000000000000dec .L0 
     /tmp/ccP6cCkB.s:2797   .text:0000000000000dfc .L0 
     /tmp/ccP6cCkB.s:2798   .text:0000000000000dfc .L0 
     /tmp/ccP6cCkB.s:2810   .text:0000000000000e08 .L0 
     /tmp/ccP6cCkB.s:2811   .text:0000000000000e08 .L0 
     /tmp/ccP6cCkB.s:2812   .text:0000000000000e08 .L0 
src/kernel/../../h/kernel/riscv.hpp:200    .text:0000000000000e08 .L0 
     /tmp/ccP6cCkB.s:2822   .text:0000000000000e0c .L0 
     /tmp/ccP6cCkB.s:2823   .text:0000000000000e0c .L0 
     /tmp/ccP6cCkB.s:2827   .text:0000000000000e10 .L0 
     /tmp/ccP6cCkB.s:2828   .text:0000000000000e10 .L0 
     /tmp/ccP6cCkB.s:2829   .text:0000000000000e10 .L0 
src/kernel/../../h/kernel/riscv.hpp:180    .text:0000000000000e10 .L0 
     /tmp/ccP6cCkB.s:2839   .text:0000000000000e14 .L0 
     /tmp/ccP6cCkB.s:2840   .text:0000000000000e14 .L0 
     /tmp/ccP6cCkB.s:2842   .text:0000000000000e18 .L0 
     /tmp/ccP6cCkB.s:2844   .text:0000000000000e1c .L0 
     /tmp/ccP6cCkB.s:2845   .text:0000000000000e1c .L0 
     /tmp/ccP6cCkB.s:2848   .text:0000000000000e28 .L0 
     /tmp/ccP6cCkB.s:2851   .text:0000000000000e30 .L0 
     /tmp/ccP6cCkB.s:2852   .text:0000000000000e30 .L0 
     /tmp/ccP6cCkB.s:2855   .text:0000000000000e38 .L0 
     /tmp/ccP6cCkB.s:2856   .text:0000000000000e38 .L0 
src/kernel/riscv.cpp:70     .text:0000000000000e38 .L0 
     /tmp/ccP6cCkB.s:2864   .text:0000000000000e3c .L0 
     /tmp/ccP6cCkB.s:2978   .text:0000000000000e60 .L0 
     /tmp/ccP6cCkB.s:2979   .text:0000000000000e60 .L0 
     /tmp/ccP6cCkB.s:2980   .text:0000000000000e60 .L0 
     /tmp/ccP6cCkB.s:2984   .text:0000000000000e68 .L0 
     /tmp/ccP6cCkB.s:2985   .text:0000000000000e68 .L0 
     /tmp/ccP6cCkB.s:2986   .text:0000000000000e68 .L0 
     /tmp/ccP6cCkB.s:2993   .text:0000000000000e78 .L0 
src/kernel/../../h/kernel/riscv.hpp:195    .text:0000000000000e78 .L0 
     /tmp/ccP6cCkB.s:3003   .text:0000000000000e7c .L0 
     /tmp/ccP6cCkB.s:3004   .text:0000000000000e7c .L0 
     /tmp/ccP6cCkB.s:3009   .text:0000000000000e80 .L0 
src/kernel/../../h/kernel/riscv.hpp:185    .text:0000000000000e80 .L0 
     /tmp/ccP6cCkB.s:3022   .text:0000000000000e84 .L0 
     /tmp/ccP6cCkB.s:3023   .text:0000000000000e84 .L0 
     /tmp/ccP6cCkB.s:3026   .text:0000000000000e8c .L0 
     /tmp/ccP6cCkB.s:3027   .text:0000000000000e90 .L0 
     /tmp/ccP6cCkB.s:3028   .text:0000000000000e90 .L0 
     /tmp/ccP6cCkB.s:3030   .text:0000000000000e94 .L0 
     /tmp/ccP6cCkB.s:3031   .text:0000000000000e94 .L0 
     /tmp/ccP6cCkB.s:3033   .text:0000000000000e98 .L0 
     /tmp/ccP6cCkB.s:3036   .text:0000000000000e9c .L0 
     /tmp/ccP6cCkB.s:3040   .text:0000000000000ea0 .L0 
     /tmp/ccP6cCkB.s:3044   .text:0000000000000ea0 .L0 
     /tmp/ccP6cCkB.s:3045   .text:0000000000000ea0 .L0 
GAS LISTING /tmp/ccP6cCkB.s 			page 129


     /tmp/ccP6cCkB.s:3046   .text:0000000000000ea0 .L0 
     /tmp/ccP6cCkB.s:3049   .text:0000000000000ea8 .L0 
     /tmp/ccP6cCkB.s:3052   .text:0000000000000eac .L0 
     /tmp/ccP6cCkB.s:3053   .text:0000000000000eac .L0 
     /tmp/ccP6cCkB.s:3054   .text:0000000000000eac .L0 
     /tmp/ccP6cCkB.s:3057   .text:0000000000000eb4 .L0 
     /tmp/ccP6cCkB.s:3060   .text:0000000000000eb8 .L0 
     /tmp/ccP6cCkB.s:3061   .text:0000000000000eb8 .L0 
     /tmp/ccP6cCkB.s:3062   .text:0000000000000eb8 .L0 
     /tmp/ccP6cCkB.s:3065   .text:0000000000000ec0 .L0 
     /tmp/ccP6cCkB.s:3068   .text:0000000000000ec4 .L0 
     /tmp/ccP6cCkB.s:3069   .text:0000000000000ec4 .L0 
     /tmp/ccP6cCkB.s:3070   .text:0000000000000ec4 .L0 
     /tmp/ccP6cCkB.s:3073   .text:0000000000000ecc .L0 
     /tmp/ccP6cCkB.s:3076   .text:0000000000000ed0 .L0 
     /tmp/ccP6cCkB.s:3077   .text:0000000000000ed0 .L0 
     /tmp/ccP6cCkB.s:3078   .text:0000000000000ed0 .L0 
     /tmp/ccP6cCkB.s:3081   .text:0000000000000ed8 .L0 
     /tmp/ccP6cCkB.s:3084   .text:0000000000000edc .L0 
     /tmp/ccP6cCkB.s:3085   .text:0000000000000edc .L0 
     /tmp/ccP6cCkB.s:3086   .text:0000000000000edc .L0 
     /tmp/ccP6cCkB.s:3089   .text:0000000000000ee4 .L0 
     /tmp/ccP6cCkB.s:3092   .text:0000000000000ee8 .L0 
     /tmp/ccP6cCkB.s:3093   .text:0000000000000ee8 .L0 
     /tmp/ccP6cCkB.s:3094   .text:0000000000000ee8 .L0 
     /tmp/ccP6cCkB.s:3097   .text:0000000000000ef0 .L0 
     /tmp/ccP6cCkB.s:3100   .text:0000000000000ef4 .L0 
     /tmp/ccP6cCkB.s:3101   .text:0000000000000ef4 .L0 
     /tmp/ccP6cCkB.s:3102   .text:0000000000000ef4 .L0 
     /tmp/ccP6cCkB.s:3105   .text:0000000000000efc .L0 
     /tmp/ccP6cCkB.s:3108   .text:0000000000000f00 .L0 
     /tmp/ccP6cCkB.s:3109   .text:0000000000000f00 .L0 
     /tmp/ccP6cCkB.s:3110   .text:0000000000000f00 .L0 
     /tmp/ccP6cCkB.s:3113   .text:0000000000000f08 .L0 
     /tmp/ccP6cCkB.s:3116   .text:0000000000000f0c .L0 
     /tmp/ccP6cCkB.s:3117   .text:0000000000000f0c .L0 
     /tmp/ccP6cCkB.s:3118   .text:0000000000000f0c .L0 
     /tmp/ccP6cCkB.s:3121   .text:0000000000000f14 .L0 
     /tmp/ccP6cCkB.s:3124   .text:0000000000000f18 .L0 
     /tmp/ccP6cCkB.s:3125   .text:0000000000000f18 .L0 
     /tmp/ccP6cCkB.s:3126   .text:0000000000000f18 .L0 
     /tmp/ccP6cCkB.s:3129   .text:0000000000000f20 .L0 
     /tmp/ccP6cCkB.s:3132   .text:0000000000000f24 .L0 
     /tmp/ccP6cCkB.s:3133   .text:0000000000000f24 .L0 
     /tmp/ccP6cCkB.s:3134   .text:0000000000000f24 .L0 
     /tmp/ccP6cCkB.s:3137   .text:0000000000000f2c .L0 
     /tmp/ccP6cCkB.s:3140   .text:0000000000000f30 .L0 
     /tmp/ccP6cCkB.s:3141   .text:0000000000000f30 .L0 
     /tmp/ccP6cCkB.s:3142   .text:0000000000000f30 .L0 
     /tmp/ccP6cCkB.s:3145   .text:0000000000000f38 .L0 
     /tmp/ccP6cCkB.s:3148   .text:0000000000000f3c .L0 
     /tmp/ccP6cCkB.s:3149   .text:0000000000000f3c .L0 
     /tmp/ccP6cCkB.s:3150   .text:0000000000000f3c .L0 
     /tmp/ccP6cCkB.s:3153   .text:0000000000000f44 .L0 
     /tmp/ccP6cCkB.s:3156   .text:0000000000000f48 .L0 
     /tmp/ccP6cCkB.s:3157   .text:0000000000000f48 .L0 
     /tmp/ccP6cCkB.s:3158   .text:0000000000000f48 .L0 
GAS LISTING /tmp/ccP6cCkB.s 			page 130


     /tmp/ccP6cCkB.s:3161   .text:0000000000000f50 .L0 
     /tmp/ccP6cCkB.s:3164   .text:0000000000000f54 .L0 
     /tmp/ccP6cCkB.s:3165   .text:0000000000000f54 .L0 
     /tmp/ccP6cCkB.s:3166   .text:0000000000000f54 .L0 
     /tmp/ccP6cCkB.s:3169   .text:0000000000000f5c .L0 
     /tmp/ccP6cCkB.s:3172   .text:0000000000000f60 .L0 
     /tmp/ccP6cCkB.s:3173   .text:0000000000000f60 .L0 
src/kernel/riscv.cpp:93     .text:0000000000000f60 .L0 
     /tmp/ccP6cCkB.s:3182   .text:0000000000000f70 .L0 
     /tmp/ccP6cCkB.s:3183   .text:0000000000000f70 .L0 
     /tmp/ccP6cCkB.s:3186   .text:0000000000000f78 .L0 
     /tmp/ccP6cCkB.s:3187   .text:0000000000000f78 .L0 
     /tmp/ccP6cCkB.s:3190   .text:0000000000000f80 .L0 
     /tmp/ccP6cCkB.s:3198   .text:0000000000000f84 .L0 
     /tmp/ccP6cCkB.s:3199   .text:0000000000000f84 .L0 
     /tmp/ccP6cCkB.s:3200   .text:0000000000000f84 .L0 
src/kernel/../../h/kernel/riscv.hpp:200    .text:0000000000000f84 .L0 
     /tmp/ccP6cCkB.s:3210   .text:0000000000000f88 .L0 
     /tmp/ccP6cCkB.s:3211   .text:0000000000000f88 .L0 
     /tmp/ccP6cCkB.s:3215   .text:0000000000000f8c .L0 
     /tmp/ccP6cCkB.s:3216   .text:0000000000000f8c .L0 
     /tmp/ccP6cCkB.s:3217   .text:0000000000000f8c .L0 
src/kernel/../../h/kernel/riscv.hpp:180    .text:0000000000000f8c .L0 
     /tmp/ccP6cCkB.s:3227   .text:0000000000000f90 .L0 
     /tmp/ccP6cCkB.s:3228   .text:0000000000000f90 .L0 
     /tmp/ccP6cCkB.s:3233   .text:0000000000000f94 .L0 
     /tmp/ccP6cCkB.s:3234   .text:0000000000000f94 .L0 
     /tmp/ccP6cCkB.s:3235   .text:0000000000000f94 .L0 
     /tmp/ccP6cCkB.s:3245   .text:0000000000000f9c .L0 
     /tmp/ccP6cCkB.s:3246   .text:0000000000000f9c .L0 
     /tmp/ccP6cCkB.s:3251   .text:0000000000000fb0 .L0 
     /tmp/ccP6cCkB.s:3252   .text:0000000000000fb0 .L0 
     /tmp/ccP6cCkB.s:3255   .text:0000000000000fb8 .L0 
     /tmp/ccP6cCkB.s:3256   .text:0000000000000fb8 .L0 
     /tmp/ccP6cCkB.s:3262   .text:0000000000000fcc .L0 
     /tmp/ccP6cCkB.s:3263   .text:0000000000000fcc .L0 
     /tmp/ccP6cCkB.s:3267   .text:0000000000000fdc .L0 
     /tmp/ccP6cCkB.s:3271   .text:0000000000000fe0 .L0 
     /tmp/ccP6cCkB.s:3272   .text:0000000000000fe0 .L0 
     /tmp/ccP6cCkB.s:3277   .text:0000000000000fe4 .L0 
src/kernel/../../h/kernel/riscv.hpp:195    .text:0000000000000fe4 .L0 
     /tmp/ccP6cCkB.s:3287   .text:0000000000000fe8 .L0 
     /tmp/ccP6cCkB.s:3288   .text:0000000000000fe8 .L0 
     /tmp/ccP6cCkB.s:3293   .text:0000000000000fec .L0 
src/kernel/../../h/kernel/riscv.hpp:185    .text:0000000000000fec .L0 
     /tmp/ccP6cCkB.s:3300   .text:0000000000000ff0 .L0 
     /tmp/ccP6cCkB.s:3308   .text:0000000000000ff4 .L0 
     /tmp/ccP6cCkB.s:3309   .text:0000000000000ff4 .L0 
     /tmp/ccP6cCkB.s:3313   .text:0000000000001000 .L0 
     /tmp/ccP6cCkB.s:3314   .text:0000000000001000 .L0 
     /tmp/ccP6cCkB.s:3315   .text:0000000000001000 .L0 
     /tmp/ccP6cCkB.s:3318   .text:0000000000001008 .L0 
     /tmp/ccP6cCkB.s:3319   .text:0000000000001008 .L0 
     /tmp/ccP6cCkB.s:3331   .text:0000000000001014 .L0 
     /tmp/ccP6cCkB.s:3332   .text:0000000000001014 .L0 
     /tmp/ccP6cCkB.s:3333   .text:0000000000001014 .L0 
src/kernel/../../h/kernel/riscv.hpp:200    .text:0000000000001014 .L0 
GAS LISTING /tmp/ccP6cCkB.s 			page 131


     /tmp/ccP6cCkB.s:3343   .text:0000000000001018 .L0 
     /tmp/ccP6cCkB.s:3344   .text:0000000000001018 .L0 
     /tmp/ccP6cCkB.s:3348   .text:000000000000101c .L0 
     /tmp/ccP6cCkB.s:3349   .text:000000000000101c .L0 
     /tmp/ccP6cCkB.s:3350   .text:000000000000101c .L0 
src/kernel/../../h/kernel/riscv.hpp:180    .text:000000000000101c .L0 
     /tmp/ccP6cCkB.s:3360   .text:0000000000001020 .L0 
     /tmp/ccP6cCkB.s:3361   .text:0000000000001020 .L0 
     /tmp/ccP6cCkB.s:3363   .text:0000000000001024 .L0 
     /tmp/ccP6cCkB.s:3364   .text:0000000000001024 .L0 
     /tmp/ccP6cCkB.s:3368   .text:0000000000001030 .L0 
src/kernel/riscv.cpp:148    .text:0000000000001030 .L0 
     /tmp/ccP6cCkB.s:3374   .text:0000000000001034 .L0 
src/kernel/riscv.cpp:149    .text:0000000000001034 .L0 
     /tmp/ccP6cCkB.s:3379   .text:0000000000001038 .L0 
src/kernel/riscv.cpp:150    .text:0000000000001038 .L0 
     /tmp/ccP6cCkB.s:3387   .text:000000000000103c .L0 
     /tmp/ccP6cCkB.s:3388   .text:000000000000103c .L0 
     /tmp/ccP6cCkB.s:3391   .text:0000000000001040 .L0 
     /tmp/ccP6cCkB.s:3394   .text:0000000000001044 .L0 
     /tmp/ccP6cCkB.s:3395   .text:0000000000001044 .L0 
     /tmp/ccP6cCkB.s:3396   .text:0000000000001044 .L0 
     /tmp/ccP6cCkB.s:3397   .text:0000000000001044 .L0 
     /tmp/ccP6cCkB.s:3401   .text:0000000000001050 .L0 
src/kernel/riscv.cpp:159    .text:0000000000001050 .L0 
     /tmp/ccP6cCkB.s:3407   .text:0000000000001054 .L0 
src/kernel/riscv.cpp:160    .text:0000000000001054 .L0 
     /tmp/ccP6cCkB.s:3412   .text:0000000000001058 .L0 
src/kernel/riscv.cpp:161    .text:0000000000001058 .L0 
     /tmp/ccP6cCkB.s:3420   .text:0000000000001060 .L0 
     /tmp/ccP6cCkB.s:3421   .text:0000000000001060 .L0 
     /tmp/ccP6cCkB.s:3425   .text:000000000000106c .L0 
     /tmp/ccP6cCkB.s:3431   .text:0000000000001070 .L0 
     /tmp/ccP6cCkB.s:3432   .text:0000000000001070 .L0 
     /tmp/ccP6cCkB.s:3437   .text:0000000000001080 .L0 
     /tmp/ccP6cCkB.s:3438   .text:0000000000001080 .L0 
     /tmp/ccP6cCkB.s:3443   .text:0000000000001084 .L0 
src/kernel/../../h/kernel/riscv.hpp:195    .text:0000000000001084 .L0 
     /tmp/ccP6cCkB.s:3453   .text:0000000000001088 .L0 
     /tmp/ccP6cCkB.s:3454   .text:0000000000001088 .L0 
     /tmp/ccP6cCkB.s:3459   .text:000000000000108c .L0 
src/kernel/../../h/kernel/riscv.hpp:185    .text:000000000000108c .L0 
     /tmp/ccP6cCkB.s:3466   .text:0000000000001090 .L0 
     /tmp/ccP6cCkB.s:3474   .text:0000000000001094 .L0 
     /tmp/ccP6cCkB.s:3475   .text:0000000000001094 .L0 
     /tmp/ccP6cCkB.s:3479   .text:00000000000010a4 .L0 
     /tmp/ccP6cCkB.s:3480   .text:00000000000010a4 .L0 
     /tmp/ccP6cCkB.s:3491   .text:00000000000010b0 .L0 
     /tmp/ccP6cCkB.s:3492   .text:00000000000010b0 .L0 
     /tmp/ccP6cCkB.s:3496   .text:00000000000010bc .L0 
     /tmp/ccP6cCkB.s:3497   .text:00000000000010bc .L0 
     /tmp/ccP6cCkB.s:3500   .text:00000000000010c4 .L0 
     /tmp/ccP6cCkB.s:3501   .text:00000000000010c4 .L0 
     /tmp/ccP6cCkB.s:3507   .text:00000000000010d4 .L0 
     /tmp/ccP6cCkB.s:3508   .text:00000000000010d4 .L0 
     /tmp/ccP6cCkB.s:3509   .text:00000000000010d4 .L0 
src/kernel/../../h/kernel/riscv.hpp:180    .text:00000000000010d4 .L0 
GAS LISTING /tmp/ccP6cCkB.s 			page 132


     /tmp/ccP6cCkB.s:3518   .text:00000000000010d8 .L0 
     /tmp/ccP6cCkB.s:3519   .text:00000000000010d8 .L0 
     /tmp/ccP6cCkB.s:3520   .text:00000000000010d8 .L0 
     /tmp/ccP6cCkB.s:3526   .text:00000000000010ec .L0 
     /tmp/ccP6cCkB.s:3527   .text:00000000000010ec .L0 
     /tmp/ccP6cCkB.s:3531   .text:00000000000010fc .L0 
     /tmp/ccP6cCkB.s:3532   .text:00000000000010fc .L0 
     /tmp/ccP6cCkB.s:3536   .text:000000000000110c .L0 
     /tmp/ccP6cCkB.s:3537   .text:000000000000110c .L0 
     /tmp/ccP6cCkB.s:3545   .text:0000000000001118 .L0 
     /tmp/ccP6cCkB.s:3551   .text:0000000000001118 _ZN5RiscV12buildSectionEPvmmm
     /tmp/ccP6cCkB.s:3554   .text:0000000000001118 .L0 
     /tmp/ccP6cCkB.s:3556   .text:0000000000001118 .L0 
     /tmp/ccP6cCkB.s:3557   .text:000000000000111c .L0 
     /tmp/ccP6cCkB.s:3564   .text:0000000000001134 .L0 
     /tmp/ccP6cCkB.s:3565   .text:0000000000001134 .L0 
     /tmp/ccP6cCkB.s:3566   .text:0000000000001134 .L0 
     /tmp/ccP6cCkB.s:3567   .text:0000000000001134 .L0 
     /tmp/ccP6cCkB.s:3568   .text:0000000000001134 .L0 
     /tmp/ccP6cCkB.s:3569   .text:0000000000001134 .L0 
     /tmp/ccP6cCkB.s:3571   .text:0000000000001138 .L0 
     /tmp/ccP6cCkB.s:3580   .text:0000000000001148 .L0 
     /tmp/ccP6cCkB.s:3581   .text:0000000000001148 .L0 
     /tmp/ccP6cCkB.s:3583   .text:000000000000114c .L0 
     /tmp/ccP6cCkB.s:3584   .text:000000000000114c .L0 
     /tmp/ccP6cCkB.s:3590   .text:0000000000001160 .L0 
     /tmp/ccP6cCkB.s:3591   .text:0000000000001160 .L0 
     /tmp/ccP6cCkB.s:3595   .text:0000000000001168 .L0 
     /tmp/ccP6cCkB.s:3599   .text:000000000000116c .L0 
     /tmp/ccP6cCkB.s:3600   .text:0000000000001170 .L0 
     /tmp/ccP6cCkB.s:3602   .text:0000000000001174 .L0 
     /tmp/ccP6cCkB.s:3603   .text:0000000000001174 .L0 
     /tmp/ccP6cCkB.s:3605   .text:0000000000001178 .L0 
     /tmp/ccP6cCkB.s:3608   .text:000000000000117c .L0 
     /tmp/ccP6cCkB.s:3611   .text:0000000000001180 .L0 
     /tmp/ccP6cCkB.s:3614   .text:0000000000001184 .L0 
     /tmp/ccP6cCkB.s:3617   .text:0000000000001188 .L0 
     /tmp/ccP6cCkB.s:3619   .text:000000000000118c .L0 
     /tmp/ccP6cCkB.s:3625   .text:000000000000118c _ZN5RiscV19mapConsoleRegistersEPv
     /tmp/ccP6cCkB.s:3628   .text:000000000000118c .L0 
     /tmp/ccP6cCkB.s:3630   .text:000000000000118c .L0 
     /tmp/ccP6cCkB.s:3631   .text:0000000000001190 .L0 
     /tmp/ccP6cCkB.s:3635   .text:000000000000119c .L0 
     /tmp/ccP6cCkB.s:3636   .text:000000000000119c .L0 
     /tmp/ccP6cCkB.s:3637   .text:000000000000119c .L0 
     /tmp/ccP6cCkB.s:3639   .text:00000000000011a0 .L0 
     /tmp/ccP6cCkB.s:3642   .text:00000000000011a4 .L0 
     /tmp/ccP6cCkB.s:3643   .text:00000000000011a4 .L0 
     /tmp/ccP6cCkB.s:3649   .text:00000000000011bc .L0 
     /tmp/ccP6cCkB.s:3650   .text:00000000000011bc .L0 
     /tmp/ccP6cCkB.s:3657   .text:00000000000011d8 .L0 
     /tmp/ccP6cCkB.s:3658   .text:00000000000011d8 .L0 
     /tmp/ccP6cCkB.s:3665   .text:00000000000011f4 .L0 
     /tmp/ccP6cCkB.s:3666   .text:00000000000011f4 .L0 
     /tmp/ccP6cCkB.s:3673   .text:000000000000120c .L0 
     /tmp/ccP6cCkB.s:3674   .text:0000000000001210 .L0 
     /tmp/ccP6cCkB.s:3676   .text:0000000000001214 .L0 
GAS LISTING /tmp/ccP6cCkB.s 			page 133


     /tmp/ccP6cCkB.s:3677   .text:0000000000001214 .L0 
     /tmp/ccP6cCkB.s:3679   .text:0000000000001218 .L0 
     /tmp/ccP6cCkB.s:3682   .text:000000000000121c .L0 
     /tmp/ccP6cCkB.s:3684   .text:0000000000001220 .L0 
     /tmp/ccP6cCkB.s:3690   .text:0000000000001220 _ZN5RiscV14buildKernelPMTEv
     /tmp/ccP6cCkB.s:3693   .text:0000000000001220 .L0 
     /tmp/ccP6cCkB.s:3694   .text:0000000000001220 .L0 
     /tmp/ccP6cCkB.s:3695   .text:0000000000001224 .L0 
     /tmp/ccP6cCkB.s:3702   .text:000000000000123c .L0 
     /tmp/ccP6cCkB.s:3703   .text:000000000000123c .L0 
     /tmp/ccP6cCkB.s:3704   .text:000000000000123c .L0 
     /tmp/ccP6cCkB.s:3705   .text:000000000000123c .L0 
     /tmp/ccP6cCkB.s:3706   .text:000000000000123c .L0 
     /tmp/ccP6cCkB.s:3707   .text:000000000000123c .L0 
     /tmp/ccP6cCkB.s:3709   .text:0000000000001240 .L0 
     /tmp/ccP6cCkB.s:3711   .text:0000000000001240 .L0 
     /tmp/ccP6cCkB.s:3712   .text:0000000000001240 .L0 
     /tmp/ccP6cCkB.s:3715   .text:0000000000001248 .L0 
     /tmp/ccP6cCkB.s:3718   .text:0000000000001254 .L0 
     /tmp/ccP6cCkB.s:3719   .text:0000000000001254 .L0 
     /tmp/ccP6cCkB.s:3723   .text:0000000000001264 .L0 
     /tmp/ccP6cCkB.s:3726   .text:0000000000001270 .L0 
     /tmp/ccP6cCkB.s:3729   .text:0000000000001274 .L0 
     /tmp/ccP6cCkB.s:3730   .text:0000000000001274 .L0 
     /tmp/ccP6cCkB.s:3738   .text:0000000000001294 .L0 
     /tmp/ccP6cCkB.s:3739   .text:0000000000001294 .L0 
     /tmp/ccP6cCkB.s:3747   .text:00000000000012b4 .L0 
     /tmp/ccP6cCkB.s:3748   .text:00000000000012b4 .L0 
     /tmp/ccP6cCkB.s:3756   .text:00000000000012d4 .L0 
     /tmp/ccP6cCkB.s:3757   .text:00000000000012d4 .L0 
     /tmp/ccP6cCkB.s:3765   .text:00000000000012f4 .L0 
     /tmp/ccP6cCkB.s:3766   .text:00000000000012f4 .L0 
     /tmp/ccP6cCkB.s:3773   .text:000000000000130c .L0 
     /tmp/ccP6cCkB.s:3774   .text:000000000000130c .L0 
     /tmp/ccP6cCkB.s:3782   .text:000000000000132c .L0 
     /tmp/ccP6cCkB.s:3783   .text:000000000000132c .L0 
     /tmp/ccP6cCkB.s:3789   .text:0000000000001338 .L0 
     /tmp/ccP6cCkB.s:3790   .text:0000000000001338 .L0 
     /tmp/ccP6cCkB.s:3791   .text:0000000000001338 .L0 
     /tmp/ccP6cCkB.s:3801   .text:0000000000001340 .L0 
     /tmp/ccP6cCkB.s:3802   .text:0000000000001344 .L0 
     /tmp/ccP6cCkB.s:3804   .text:0000000000001348 .L0 
     /tmp/ccP6cCkB.s:3805   .text:0000000000001348 .L0 
     /tmp/ccP6cCkB.s:3807   .text:000000000000134c .L0 
     /tmp/ccP6cCkB.s:3809   .text:0000000000001350 .L0 
     /tmp/ccP6cCkB.s:3812   .text:0000000000001354 .L0 
     /tmp/ccP6cCkB.s:3814   .text:0000000000001358 .L0 
     /tmp/ccP6cCkB.s:3816   .text:000000000000135c .L0 
     /tmp/ccP6cCkB.s:3818   .text:0000000000001360 .L0 
     /tmp/ccP6cCkB.s:3824   .text:0000000000001360 _ZN5RiscV12buildUserPMTEv
     /tmp/ccP6cCkB.s:3827   .text:0000000000001360 .L0 
     /tmp/ccP6cCkB.s:3828   .text:0000000000001360 .L0 
     /tmp/ccP6cCkB.s:3829   .text:0000000000001364 .L0 
     /tmp/ccP6cCkB.s:3836   .text:000000000000137c .L0 
     /tmp/ccP6cCkB.s:3837   .text:000000000000137c .L0 
     /tmp/ccP6cCkB.s:3838   .text:000000000000137c .L0 
     /tmp/ccP6cCkB.s:3839   .text:000000000000137c .L0 
GAS LISTING /tmp/ccP6cCkB.s 			page 134


     /tmp/ccP6cCkB.s:3840   .text:000000000000137c .L0 
     /tmp/ccP6cCkB.s:3841   .text:000000000000137c .L0 
     /tmp/ccP6cCkB.s:3843   .text:0000000000001380 .L0 
     /tmp/ccP6cCkB.s:3845   .text:0000000000001380 .L0 
     /tmp/ccP6cCkB.s:3846   .text:0000000000001380 .L0 
     /tmp/ccP6cCkB.s:3849   .text:0000000000001388 .L0 
     /tmp/ccP6cCkB.s:3852   .text:0000000000001394 .L0 
     /tmp/ccP6cCkB.s:3853   .text:0000000000001394 .L0 
     /tmp/ccP6cCkB.s:3857   .text:00000000000013a4 .L0 
     /tmp/ccP6cCkB.s:3860   .text:00000000000013b0 .L0 
     /tmp/ccP6cCkB.s:3863   .text:00000000000013b4 .L0 
     /tmp/ccP6cCkB.s:3864   .text:00000000000013b4 .L0 
     /tmp/ccP6cCkB.s:3872   .text:00000000000013d4 .L0 
     /tmp/ccP6cCkB.s:3873   .text:00000000000013d4 .L0 
     /tmp/ccP6cCkB.s:3881   .text:00000000000013f4 .L0 
     /tmp/ccP6cCkB.s:3882   .text:00000000000013f4 .L0 
     /tmp/ccP6cCkB.s:3890   .text:0000000000001414 .L0 
     /tmp/ccP6cCkB.s:3891   .text:0000000000001414 .L0 
     /tmp/ccP6cCkB.s:3899   .text:0000000000001434 .L0 
     /tmp/ccP6cCkB.s:3900   .text:0000000000001434 .L0 
     /tmp/ccP6cCkB.s:3907   .text:000000000000144c .L0 
     /tmp/ccP6cCkB.s:3908   .text:000000000000144c .L0 
     /tmp/ccP6cCkB.s:3916   .text:000000000000146c .L0 
     /tmp/ccP6cCkB.s:3917   .text:000000000000146c .L0 
     /tmp/ccP6cCkB.s:3923   .text:0000000000001478 .L0 
     /tmp/ccP6cCkB.s:3924   .text:0000000000001478 .L0 
     /tmp/ccP6cCkB.s:3925   .text:0000000000001478 .L0 
     /tmp/ccP6cCkB.s:3935   .text:0000000000001480 .L0 
     /tmp/ccP6cCkB.s:3936   .text:0000000000001484 .L0 
     /tmp/ccP6cCkB.s:3938   .text:0000000000001488 .L0 
     /tmp/ccP6cCkB.s:3939   .text:0000000000001488 .L0 
     /tmp/ccP6cCkB.s:3941   .text:000000000000148c .L0 
     /tmp/ccP6cCkB.s:3943   .text:0000000000001490 .L0 
     /tmp/ccP6cCkB.s:3946   .text:0000000000001494 .L0 
     /tmp/ccP6cCkB.s:3948   .text:0000000000001498 .L0 
     /tmp/ccP6cCkB.s:3950   .text:000000000000149c .L0 
     /tmp/ccP6cCkB.s:3952   .text:00000000000014a0 .L0 
     /tmp/ccP6cCkB.s:3958   .text:00000000000014a0 _ZN5RiscV10initializeEv
     /tmp/ccP6cCkB.s:3961   .text:00000000000014a0 .L0 
     /tmp/ccP6cCkB.s:3962   .text:00000000000014a0 .L0 
     /tmp/ccP6cCkB.s:3963   .text:00000000000014a4 .L0 
     /tmp/ccP6cCkB.s:3966   .text:00000000000014ac .L0 
     /tmp/ccP6cCkB.s:3967   .text:00000000000014ac .L0 
     /tmp/ccP6cCkB.s:3969   .text:00000000000014b0 .L0 
     /tmp/ccP6cCkB.s:3971   .text:00000000000014b0 .L0 
     /tmp/ccP6cCkB.s:3972   .text:00000000000014b0 .L0 
     /tmp/ccP6cCkB.s:3977   .text:00000000000014b8 .L0 
src/kernel/../../h/kernel/riscv.hpp:205    .text:00000000000014b8 .L0 
     /tmp/ccP6cCkB.s:3987   .text:00000000000014bc .L0 
     /tmp/ccP6cCkB.s:3988   .text:00000000000014bc .L0 
     /tmp/ccP6cCkB.s:3993   .text:00000000000014d0 .L0 
     /tmp/ccP6cCkB.s:3998   .text:00000000000014e0 .L0 
     /tmp/ccP6cCkB.s:3999   .text:00000000000014e0 .L0 
     /tmp/ccP6cCkB.s:4002   .text:00000000000014e8 .L0 
     /tmp/ccP6cCkB.s:4003   .text:00000000000014e8 .L0 
     /tmp/ccP6cCkB.s:4006   .text:00000000000014f0 .L0 
     /tmp/ccP6cCkB.s:4007   .text:00000000000014f0 .L0 
GAS LISTING /tmp/ccP6cCkB.s 			page 135


     /tmp/ccP6cCkB.s:4010   .text:00000000000014f8 .L0 
     /tmp/ccP6cCkB.s:4011   .text:00000000000014f8 .L0 
     /tmp/ccP6cCkB.s:4014   .text:0000000000001500 .L0 
     /tmp/ccP6cCkB.s:4015   .text:0000000000001500 .L0 
     /tmp/ccP6cCkB.s:4018   .text:0000000000001508 .L0 
     /tmp/ccP6cCkB.s:4019   .text:0000000000001508 .L0 
     /tmp/ccP6cCkB.s:4022   .text:0000000000001510 .L0 
     /tmp/ccP6cCkB.s:4023   .text:0000000000001510 .L0 
     /tmp/ccP6cCkB.s:4026   .text:0000000000001518 .L0 
     /tmp/ccP6cCkB.s:4027   .text:0000000000001518 .L0 
     /tmp/ccP6cCkB.s:4031   .text:0000000000001528 .L0 
     /tmp/ccP6cCkB.s:4032   .text:0000000000001528 .L0 
     /tmp/ccP6cCkB.s:4037   .text:000000000000152c .L0 
     /tmp/ccP6cCkB.s:4038   .text:000000000000152c .L0 
     /tmp/ccP6cCkB.s:4041   .text:0000000000001530 .L0 
     /tmp/ccP6cCkB.s:4046   .text:000000000000153c .L0 
src/kernel/../../h/kernel/riscv.hpp:265    .text:000000000000153c .L0 
     /tmp/ccP6cCkB.s:4056   .text:0000000000001540 .L0 
     /tmp/ccP6cCkB.s:4060   .text:0000000000001540 .L0 
     /tmp/ccP6cCkB.s:4061   .text:0000000000001540 .L0 
     /tmp/ccP6cCkB.s:4062   .text:0000000000001540 .L0 
     /tmp/ccP6cCkB.s:4076   .text:0000000000001548 .L0 
     /tmp/ccP6cCkB.s:4077   .text:0000000000001548 .L0 
     /tmp/ccP6cCkB.s:4078   .text:0000000000001548 .L0 
     /tmp/ccP6cCkB.s:4092   .text:0000000000001550 .L0 
     /tmp/ccP6cCkB.s:4093   .text:0000000000001550 .L0 
src/kernel/../../h/kernel/riscv.hpp:209    .text:0000000000001550 .L0 
     /tmp/ccP6cCkB.s:4104   .text:0000000000001554 .L0 
     /tmp/ccP6cCkB.s:4105   .text:0000000000001558 .L0 
     /tmp/ccP6cCkB.s:4107   .text:000000000000155c .L0 
     /tmp/ccP6cCkB.s:4108   .text:000000000000155c .L0 
     /tmp/ccP6cCkB.s:4110   .text:0000000000001560 .L0 
     /tmp/ccP6cCkB.s:4112   .text:0000000000001564 .L0 
     /tmp/ccP6cCkB.s:4142   .bss:0000000000000020 _ZN5RiscV11initializedE
     /tmp/ccP6cCkB.s:4138   .bss:0000000000000018 _ZN5RiscV4uPMTE
     /tmp/ccP6cCkB.s:4134   .bss:0000000000000010 _ZN5RiscV4kPMTE
     /tmp/ccP6cCkB.s:4125   .bss:0000000000000000 _ZN5RiscV16userMainFinishedE
     /tmp/ccP6cCkB.s:4130   .bss:0000000000000008 _ZN5RiscV10globalTimeE
     /tmp/ccP6cCkB.s:4122   .bss:0000000000000000 .LANCHOR0
     /tmp/ccP6cCkB.s:4157   .text:0000000000001564 .L0 
     /tmp/ccP6cCkB.s:57     .text:000000000000002c .L0 
     /tmp/ccP6cCkB.s:65     .text:0000000000000038 .L0 
     /tmp/ccP6cCkB.s:115    .text:0000000000000074 .L0 
     /tmp/ccP6cCkB.s:155    .text:00000000000000b0 .L0 
     /tmp/ccP6cCkB.s:160    .text:00000000000000bc .L0 
     /tmp/ccP6cCkB.s:206    .text:00000000000000fc .L0 
     /tmp/ccP6cCkB.s:276    .text:0000000000000148 .L0 
     /tmp/ccP6cCkB.s:279    .text:0000000000000150 .L0 
     /tmp/ccP6cCkB.s:283    .text:000000000000015c .L0 
     /tmp/ccP6cCkB.s:336    .text:0000000000000178 .L0 
     /tmp/ccP6cCkB.s:343    .text:000000000000018c .L0 
     /tmp/ccP6cCkB.s:350    .text:000000000000019c .L0 
     /tmp/ccP6cCkB.s:357    .text:00000000000001b0 .L0 
     /tmp/ccP6cCkB.s:359    .text:00000000000001bc .L0 
     /tmp/ccP6cCkB.s:404    .text:00000000000001f8 .L0 
     /tmp/ccP6cCkB.s:501    .text:0000000000000268 .L0 
     /tmp/ccP6cCkB.s:986    .text:00000000000004ac .L0 
GAS LISTING /tmp/ccP6cCkB.s 			page 136


     /tmp/ccP6cCkB.s:1280   .text:0000000000000608 .L0 
     /tmp/ccP6cCkB.s:1418   .text:00000000000006b0 .L0 
     /tmp/ccP6cCkB.s:1423   .text:00000000000006bc .L0 
     /tmp/ccP6cCkB.s:1490   .text:0000000000000724 .L0 
     /tmp/ccP6cCkB.s:1495   .text:0000000000000730 .L0 
     /tmp/ccP6cCkB.s:1778   .text:00000000000008b4 .L0 
     /tmp/ccP6cCkB.s:2003   .text:00000000000009a4 .L0 
     /tmp/ccP6cCkB.s:2040   .text:00000000000009d0 .L0 
     /tmp/ccP6cCkB.s:2067   .text:00000000000009ec .L0 
     /tmp/ccP6cCkB.s:2074   .text:0000000000000a00 .L0 
     /tmp/ccP6cCkB.s:2359   .text:0000000000000b6c .L0 
     /tmp/ccP6cCkB.s:2365   .text:0000000000000b7c .L0 
     /tmp/ccP6cCkB.s:2397   .text:0000000000000bcc .L0 
     /tmp/ccP6cCkB.s:2402   .text:0000000000000bdc .L0 
     /tmp/ccP6cCkB.s:2407   .text:0000000000000bec .L0 
     /tmp/ccP6cCkB.s:2643   .text:0000000000000cd0 .L0 
     /tmp/ccP6cCkB.s:2584   .rodata.str1.8:0000000000000038 .LC3
     /tmp/ccP6cCkB.s:2704   .text:0000000000000d30 .L0 
     /tmp/ccP6cCkB.s:2587   .rodata.str1.8:0000000000000048 .LC4
     /tmp/ccP6cCkB.s:2709   .text:0000000000000d40 .L0 
     /tmp/ccP6cCkB.s:2578   .rodata.str1.8:0000000000000008 .LC1
     /tmp/ccP6cCkB.s:2740   .text:0000000000000d70 .L0 
     /tmp/ccP6cCkB.s:2575   .rodata.str1.8:0000000000000000 .LC0
     /tmp/ccP6cCkB.s:2745   .text:0000000000000d80 .L0 
     /tmp/ccP6cCkB.s:2771   .text:0000000000000da8 .L0 
     /tmp/ccP6cCkB.s:2777   .text:0000000000000dbc .L0 
     /tmp/ccP6cCkB.s:2590   .rodata.str1.8:0000000000000058 .LC5
     /tmp/ccP6cCkB.s:2779   .text:0000000000000dc8 .L0 
     /tmp/ccP6cCkB.s:2784   .text:0000000000000dd8 .L0 
     /tmp/ccP6cCkB.s:2593   .rodata.str1.8:0000000000000060 .LC6
     /tmp/ccP6cCkB.s:2793   .text:0000000000000dec .L0 
     /tmp/ccP6cCkB.s:2845   .text:0000000000000e1c .L0 
     /tmp/ccP6cCkB.s:2876   .rodata:0000000000000000 .L142
     /tmp/ccP6cCkB.s:2868   .text:0000000000000e48 .L0 
     /tmp/ccP6cCkB.s:2986   .text:0000000000000e68 .L0 
     /tmp/ccP6cCkB.s:3179   .text:0000000000000f64 .L0 
     /tmp/ccP6cCkB.s:3246   .text:0000000000000f9c .L0 
     /tmp/ccP6cCkB.s:3256   .text:0000000000000fb8 .L0 
     /tmp/ccP6cCkB.s:3263   .text:0000000000000fcc .L0 
     /tmp/ccP6cCkB.s:3309   .text:0000000000000ff4 .L0 
     /tmp/ccP6cCkB.s:3364   .text:0000000000001024 .L0 
     /tmp/ccP6cCkB.s:3397   .text:0000000000001044 .L0 
     /tmp/ccP6cCkB.s:3421   .text:0000000000001060 .L0 
     /tmp/ccP6cCkB.s:3476   .text:0000000000001098 .L0 
     /tmp/ccP6cCkB.s:3492   .text:00000000000010b0 .L0 
     /tmp/ccP6cCkB.s:3501   .text:00000000000010c4 .L0 
     /tmp/ccP6cCkB.s:3527   .text:00000000000010ec .L0 
     /tmp/ccP6cCkB.s:2581   .rodata.str1.8:0000000000000010 .LC2
     /tmp/ccP6cCkB.s:3532   .text:00000000000010fc .L0 
     /tmp/ccP6cCkB.s:3644   .text:00000000000011a8 .L0 
     /tmp/ccP6cCkB.s:3651   .text:00000000000011c0 .L0 
     /tmp/ccP6cCkB.s:3659   .text:00000000000011dc .L0 
     /tmp/ccP6cCkB.s:3715   .text:0000000000001248 .L0 
     /tmp/ccP6cCkB.s:3719   .text:0000000000001254 .L0 
     /tmp/ccP6cCkB.s:3723   .text:0000000000001264 .L0 
     /tmp/ccP6cCkB.s:3730   .text:0000000000001274 .L0 
     /tmp/ccP6cCkB.s:3739   .text:0000000000001294 .L0 
GAS LISTING /tmp/ccP6cCkB.s 			page 137


     /tmp/ccP6cCkB.s:3748   .text:00000000000012b4 .L0 
     /tmp/ccP6cCkB.s:3757   .text:00000000000012d4 .L0 
     /tmp/ccP6cCkB.s:3775   .text:0000000000001310 .L0 
     /tmp/ccP6cCkB.s:3849   .text:0000000000001388 .L0 
     /tmp/ccP6cCkB.s:3853   .text:0000000000001394 .L0 
     /tmp/ccP6cCkB.s:3857   .text:00000000000013a4 .L0 
     /tmp/ccP6cCkB.s:3864   .text:00000000000013b4 .L0 
     /tmp/ccP6cCkB.s:3873   .text:00000000000013d4 .L0 
     /tmp/ccP6cCkB.s:3882   .text:00000000000013f4 .L0 
     /tmp/ccP6cCkB.s:3891   .text:0000000000001414 .L0 
     /tmp/ccP6cCkB.s:3909   .text:0000000000001450 .L0 
     /tmp/ccP6cCkB.s:3972   .text:00000000000014b0 .L0 
     /tmp/ccP6cCkB.s:3988   .text:00000000000014bc .L0 
     /tmp/ccP6cCkB.s:4027   .text:0000000000001518 .L0 
     /tmp/ccP6cCkB.s:164    .text:00000000000000d0 .L8
     /tmp/ccP6cCkB.s:237    .text:0000000000000128 .L14
     /tmp/ccP6cCkB.s:226    .text:000000000000011c .L10
     /tmp/ccP6cCkB.s:347    .text:000000000000019c .L16
     /tmp/ccP6cCkB.s:328    .text:0000000000000178 .L17
     /tmp/ccP6cCkB.s:368    .text:00000000000001d8 .L15
     /tmp/ccP6cCkB.s:354    .text:00000000000001b0 .L19
     /tmp/ccP6cCkB.s:529    .text:0000000000000298 .L29
     /tmp/ccP6cCkB.s:506    .text:000000000000027c .L26
     /tmp/ccP6cCkB.s:620    .text:0000000000000308 .L31
     /tmp/ccP6cCkB.s:681    .text:0000000000000358 .L35
     /tmp/ccP6cCkB.s:636    .text:0000000000000320 .L33
     /tmp/ccP6cCkB.s:642    .text:0000000000000328 .L32
     /tmp/ccP6cCkB.s:798    .text:00000000000003dc .L40
     /tmp/ccP6cCkB.s:852    .text:0000000000000420 .L43
     /tmp/ccP6cCkB.s:813    .text:00000000000003f0 .L41
     /tmp/ccP6cCkB.s:946    .text:000000000000047c .L51
     /tmp/ccP6cCkB.s:923    .text:0000000000000460 .L48
     /tmp/ccP6cCkB.s:1029   .text:00000000000004ec .L54
     /tmp/ccP6cCkB.s:1005   .text:00000000000004d0 .L53
     /tmp/ccP6cCkB.s:1092   .text:0000000000000538 .L57
     /tmp/ccP6cCkB.s:1134   .text:000000000000056c .L60
     /tmp/ccP6cCkB.s:1101   .text:0000000000000544 .L58
     /tmp/ccP6cCkB.s:1233   .text:00000000000005d0 .L68
     /tmp/ccP6cCkB.s:1206   .text:00000000000005b0 .L65
     /tmp/ccP6cCkB.s:1311   .text:000000000000063c .L74
     /tmp/ccP6cCkB.s:1319   .text:0000000000000648 .L72
     /tmp/ccP6cCkB.s:1277   .text:0000000000000608 .L70
     /tmp/ccP6cCkB.s:1287   .text:0000000000000620 .L71
     /tmp/ccP6cCkB.s:1379   .text:0000000000000688 .L79
     /tmp/ccP6cCkB.s:1356   .text:000000000000066c .L76
     /tmp/ccP6cCkB.s:1499   .text:0000000000000744 .L83
     /tmp/ccP6cCkB.s:1538   .text:0000000000000780 .L87
     /tmp/ccP6cCkB.s:1553   .text:000000000000079c .L88
     /tmp/ccP6cCkB.s:1513   .text:0000000000000760 .L85
     /tmp/ccP6cCkB.s:1661   .text:000000000000081c .L94
     /tmp/ccP6cCkB.s:1633   .text:00000000000007f8 .L92
     /tmp/ccP6cCkB.s:1737   .text:0000000000000884 .L98
     /tmp/ccP6cCkB.s:1709   .text:0000000000000860 .L96
     /tmp/ccP6cCkB.s:1836   .text:0000000000000910 .L104
     /tmp/ccP6cCkB.s:1840   .text:0000000000000914 .L102
     /tmp/ccP6cCkB.s:1876   .text:000000000000092c .L101
     /tmp/ccP6cCkB.s:1996   .text:00000000000009a4 .L111
GAS LISTING /tmp/ccP6cCkB.s 			page 138


     /tmp/ccP6cCkB.s:1989   .text:000000000000099c .L112
     /tmp/ccP6cCkB.s:2123   .text:0000000000000a50 .L115
     /tmp/ccP6cCkB.s:2108   .text:0000000000000a34 .L117
     /tmp/ccP6cCkB.s:2263   .text:0000000000000afc .L126
     /tmp/ccP6cCkB.s:2293   .text:0000000000000b1c .L127
     /tmp/ccP6cCkB.s:2245   .text:0000000000000ae0 .L119
     /tmp/ccP6cCkB.s:2189   .text:0000000000000aa4 .L122
     /tmp/ccP6cCkB.s:2218   .text:0000000000000ac4 .L124
     /tmp/ccP6cCkB.s:2389   .text:0000000000000bc8 .L129
     /tmp/ccP6cCkB.s:2526   .text:0000000000000c84 .L132
     /tmp/ccP6cCkB.s:2496   .text:0000000000000c60 .L130
     /tmp/ccP6cCkB.s:2801   .text:0000000000000e08 .L137
     /tmp/ccP6cCkB.s:3191   .text:0000000000000f84 .L167
     /tmp/ccP6cCkB.s:3323   .text:0000000000001014 .L168
     /tmp/ccP6cCkB.s:3484   .text:00000000000010b0 .L169
     /tmp/ccP6cCkB.s:3016   .text:0000000000000e84 .L160
     /tmp/ccP6cCkB.s:2983   .text:0000000000000e68 .L140
     /tmp/ccP6cCkB.s:3302   .text:0000000000000ff4 .L170
     /tmp/ccP6cCkB.s:3268   .text:0000000000000fe0 .L161
     /tmp/ccP6cCkB.s:3427   .text:0000000000001070 .L163
     /tmp/ccP6cCkB.s:3468   .text:0000000000001094 .L171
     /tmp/ccP6cCkB.s:3596   .text:000000000000116c .L172
     /tmp/ccP6cCkB.s:3578   .text:0000000000001148 .L174
     /tmp/ccP6cCkB.s:605    .text:00000000000002e0 .LEHB0
     /tmp/ccP6cCkB.s:552    .text:00000000000002a8 .LFB53
     /tmp/ccP6cCkB.s:608    .text:00000000000002e8 .LEHE0
     /tmp/ccP6cCkB.s:616    .text:0000000000000300 .LEHB1
     /tmp/ccP6cCkB.s:619    .text:0000000000000308 .LEHE1
     /tmp/ccP6cCkB.s:687    .text:0000000000000360 .L36
     /tmp/ccP6cCkB.s:632    .text:0000000000000318 .LEHB2
     /tmp/ccP6cCkB.s:635    .text:0000000000000320 .LEHE2
     /tmp/ccP6cCkB.s:695    .text:0000000000000374 .LEHB3
     /tmp/ccP6cCkB.s:698    .text:000000000000037c .LEHE3
     /tmp/ccP6cCkB.s:783    .text:00000000000003b4 .LEHB4
     /tmp/ccP6cCkB.s:730    .text:000000000000037c .LFB54
     /tmp/ccP6cCkB.s:786    .text:00000000000003bc .LEHE4
     /tmp/ccP6cCkB.s:794    .text:00000000000003d4 .LEHB5
     /tmp/ccP6cCkB.s:797    .text:00000000000003dc .LEHE5
     /tmp/ccP6cCkB.s:858    .text:0000000000000428 .L44
     /tmp/ccP6cCkB.s:866    .text:000000000000043c .LEHB6
     /tmp/ccP6cCkB.s:869    .text:0000000000000444 .LEHE6
     /tmp/ccP6cCkB.s:1080   .text:000000000000051c .LEHB7
     /tmp/ccP6cCkB.s:1043   .text:00000000000004f4 .LFB58
     /tmp/ccP6cCkB.s:1083   .text:0000000000000524 .LEHE7
     /tmp/ccP6cCkB.s:1088   .text:0000000000000530 .LEHB8
     /tmp/ccP6cCkB.s:1091   .text:0000000000000538 .LEHE8
     /tmp/ccP6cCkB.s:1140   .text:0000000000000574 .L61
     /tmp/ccP6cCkB.s:1148   .text:0000000000000588 .LEHB9
     /tmp/ccP6cCkB.s:1151   .text:0000000000000590 .LEHE9
     /tmp/ccP6cCkB.s:2350   .text:0000000000000b58 .LEHB10
     /tmp/ccP6cCkB.s:2330   .text:0000000000000b3c .LFB72
     /tmp/ccP6cCkB.s:2377   .text:0000000000000ba8 .LEHE10
     /tmp/ccP6cCkB.s:2385   .text:0000000000000bc0 .LEHB11
     /tmp/ccP6cCkB.s:2388   .text:0000000000000bc8 .LEHE11
     /tmp/ccP6cCkB.s:2534   .text:0000000000000c8c .L133
     /tmp/ccP6cCkB.s:2491   .text:0000000000000c58 .LEHB12
     /tmp/ccP6cCkB.s:2494   .text:0000000000000c60 .LEHE12
GAS LISTING /tmp/ccP6cCkB.s 			page 139


     /tmp/ccP6cCkB.s:2543   .text:0000000000000ca0 .LEHB13
     /tmp/ccP6cCkB.s:2546   .text:0000000000000ca8 .LEHE13
     /tmp/ccP6cCkB.s:2976   .text:0000000000000e60 .L159
     /tmp/ccP6cCkB.s:3039   .text:0000000000000ea0 .L158
     /tmp/ccP6cCkB.s:3050   .text:0000000000000eac .L157
     /tmp/ccP6cCkB.s:3058   .text:0000000000000eb8 .L156
     /tmp/ccP6cCkB.s:3066   .text:0000000000000ec4 .L155
     /tmp/ccP6cCkB.s:3074   .text:0000000000000ed0 .L154
     /tmp/ccP6cCkB.s:3082   .text:0000000000000edc .L153
     /tmp/ccP6cCkB.s:3090   .text:0000000000000ee8 .L152
     /tmp/ccP6cCkB.s:3098   .text:0000000000000ef4 .L151
     /tmp/ccP6cCkB.s:3106   .text:0000000000000f00 .L150
     /tmp/ccP6cCkB.s:3114   .text:0000000000000f0c .L149
     /tmp/ccP6cCkB.s:3122   .text:0000000000000f18 .L148
     /tmp/ccP6cCkB.s:3130   .text:0000000000000f24 .L147
     /tmp/ccP6cCkB.s:3138   .text:0000000000000f30 .L146
     /tmp/ccP6cCkB.s:3146   .text:0000000000000f3c .L145
     /tmp/ccP6cCkB.s:3154   .text:0000000000000f48 .L144
     /tmp/ccP6cCkB.s:3162   .text:0000000000000f54 .L143
     /tmp/ccP6cCkB.s:3170   .text:0000000000000f60 .L141
     /tmp/ccP6cCkB.s:9241   .debug_abbrev:0000000000000000 .Ldebug_abbrev0
     /tmp/ccP6cCkB.s:12685  .debug_str:0000000000001714 .LASF377
     /tmp/ccP6cCkB.s:12387  .debug_str:0000000000000d54 .LASF378
     /tmp/ccP6cCkB.s:12605  .debug_str:000000000000141d .LASF379
     /tmp/ccP6cCkB.s:5      .text:0000000000000000 .Ltext0
     /tmp/ccP6cCkB.s:4145   .text:0000000000001564 .Letext0
     /tmp/ccP6cCkB.s:11975  .debug_line:0000000000000000 .Ldebug_line0
     /tmp/ccP6cCkB.s:12033  .debug_str:00000000000001f4 .LASF0
     /tmp/ccP6cCkB.s:12681  .debug_str:00000000000016f9 .LASF1
     /tmp/ccP6cCkB.s:12613  .debug_str:0000000000001485 .LASF2
     /tmp/ccP6cCkB.s:12551  .debug_str:0000000000001273 .LASF4
     /tmp/ccP6cCkB.s:12569  .debug_str:0000000000001300 .LASF3
     /tmp/ccP6cCkB.s:12185  .debug_str:000000000000067b .LASF5
     /tmp/ccP6cCkB.s:12255  .debug_str:00000000000008c7 .LASF6
     /tmp/ccP6cCkB.s:12467  .debug_str:0000000000000fe0 .LASF7
     /tmp/ccP6cCkB.s:12075  .debug_str:0000000000000320 .LASF8
     /tmp/ccP6cCkB.s:12665  .debug_str:0000000000001643 .LASF9
     /tmp/ccP6cCkB.s:12189  .debug_str:000000000000068d .LASF10
     /tmp/ccP6cCkB.s:12113  .debug_str:0000000000000432 .LASF11
     /tmp/ccP6cCkB.s:12291  .debug_str:00000000000009fa .LASF12
     /tmp/ccP6cCkB.s:12199  .debug_str:00000000000006e2 .LASF13
     /tmp/ccP6cCkB.s:12527  .debug_str:00000000000011da .LASF14
     /tmp/ccP6cCkB.s:12205  .debug_str:0000000000000703 .LASF15
     /tmp/ccP6cCkB.s:12155  .debug_str:00000000000005ad .LASF16
     /tmp/ccP6cCkB.s:12085  .debug_str:000000000000035c .LASF153
     /tmp/ccP6cCkB.s:12261  .debug_str:0000000000000910 .LASF20
     /tmp/ccP6cCkB.s:12661  .debug_str:0000000000001624 .LASF17
     /tmp/ccP6cCkB.s:12025  .debug_str:0000000000000183 .LASF18
     /tmp/ccP6cCkB.s:12221  .debug_str:0000000000000799 .LASF19
     /tmp/ccP6cCkB.s:12215  .debug_str:000000000000075d .LASF21
     /tmp/ccP6cCkB.s:12175  .debug_str:000000000000063d .LASF22
     /tmp/ccP6cCkB.s:12481  .debug_str:0000000000001063 .LASF23
     /tmp/ccP6cCkB.s:12533  .debug_str:0000000000001202 .LASF24
     /tmp/ccP6cCkB.s:12023  .debug_str:0000000000000178 .LASF25
     /tmp/ccP6cCkB.s:12093  .debug_str:000000000000038e .LASF26
     /tmp/ccP6cCkB.s:12607  .debug_str:000000000000144e .LASF27
     /tmp/ccP6cCkB.s:12161  .debug_str:00000000000005ee .LASF28
GAS LISTING /tmp/ccP6cCkB.s 			page 140


     /tmp/ccP6cCkB.s:12577  .debug_str:0000000000001330 .LASF29
     /tmp/ccP6cCkB.s:12457  .debug_str:0000000000000fab .LASF30
     /tmp/ccP6cCkB.s:12385  .debug_str:0000000000000d30 .LASF32
     /tmp/ccP6cCkB.s:12243  .debug_str:0000000000000866 .LASF31
     /tmp/ccP6cCkB.s:12669  .debug_str:0000000000001656 .LASF33
     /tmp/ccP6cCkB.s:12073  .debug_str:0000000000000305 .LASF34
     /tmp/ccP6cCkB.s:12275  .debug_str:0000000000000967 .LASF35
     /tmp/ccP6cCkB.s:12133  .debug_str:00000000000004bf .LASF36
     /tmp/ccP6cCkB.s:12611  .debug_str:000000000000145f .LASF37
     /tmp/ccP6cCkB.s:12403  .debug_str:0000000000000ddf .LASF38
     /tmp/ccP6cCkB.s:12435  .debug_str:0000000000000f17 .LASF39
     /tmp/ccP6cCkB.s:12027  .debug_str:0000000000000190 .LASF40
     /tmp/ccP6cCkB.s:12219  .debug_str:000000000000076d .LASF41
     /tmp/ccP6cCkB.s:12235  .debug_str:0000000000000829 .LASF42
     /tmp/ccP6cCkB.s:12629  .debug_str:00000000000014ed .LASF43
     /tmp/ccP6cCkB.s:12421  .debug_str:0000000000000e59 .LASF44
     /tmp/ccP6cCkB.s:12153  .debug_str:000000000000058a .LASF45
     /tmp/ccP6cCkB.s:12137  .debug_str:00000000000004df .LASF46
     /tmp/ccP6cCkB.s:12637  .debug_str:000000000000154e .LASF47
     /tmp/ccP6cCkB.s:12711  .debug_str:0000000000001886 .LASF48
     /tmp/ccP6cCkB.s:12425  .debug_str:0000000000000e94 .LASF49
     /tmp/ccP6cCkB.s:12059  .debug_str:0000000000000297 .LASF50
     /tmp/ccP6cCkB.s:12423  .debug_str:0000000000000e6f .LASF51
     /tmp/ccP6cCkB.s:12635  .debug_str:0000000000001536 .LASF52
     /tmp/ccP6cCkB.s:12225  .debug_str:00000000000007cc .LASF53
     /tmp/ccP6cCkB.s:12091  .debug_str:000000000000037b .LASF54
     /tmp/ccP6cCkB.s:12311  .debug_str:0000000000000a98 .LASF55
     /tmp/ccP6cCkB.s:12259  .debug_str:00000000000008fd .LASF56
     /tmp/ccP6cCkB.s:12339  .debug_str:0000000000000ba7 .LASF57
     /tmp/ccP6cCkB.s:11997  .debug_str:0000000000000090 .LASF58
     /tmp/ccP6cCkB.s:12673  .debug_str:0000000000001697 .LASF59
     /tmp/ccP6cCkB.s:12709  .debug_str:000000000000186d .LASF60
     /tmp/ccP6cCkB.s:12195  .debug_str:00000000000006b2 .LASF61
     /tmp/ccP6cCkB.s:12211  .debug_str:0000000000000734 .LASF62
     /tmp/ccP6cCkB.s:12397  .debug_str:0000000000000d9b .LASF63
     /tmp/ccP6cCkB.s:11977  .debug_str:0000000000000000 .LASF64
     /tmp/ccP6cCkB.s:12559  .debug_str:00000000000012af .LASF65
     /tmp/ccP6cCkB.s:12651  .debug_str:00000000000015ef .LASF66
     /tmp/ccP6cCkB.s:12541  .debug_str:000000000000121e .LASF68
     /tmp/ccP6cCkB.s:12487  .debug_str:0000000000001099 .LASF67
     /tmp/ccP6cCkB.s:12379  .debug_str:0000000000000cf5 .LASF69
     /tmp/ccP6cCkB.s:12015  .debug_str:0000000000000133 .LASF70
     /tmp/ccP6cCkB.s:12479  .debug_str:0000000000001047 .LASF71
     /tmp/ccP6cCkB.s:12601  .debug_str:0000000000001401 .LASF72
     /tmp/ccP6cCkB.s:11999  .debug_str:00000000000000a7 .LASF73
     /tmp/ccP6cCkB.s:12713  .debug_str:000000000000189c .LASF76
     /tmp/ccP6cCkB.s:12501  .debug_str:0000000000001122 .LASF78
     /tmp/ccP6cCkB.s:12507  .debug_str:0000000000001157 .LASF74
     /tmp/ccP6cCkB.s:12633  .debug_str:0000000000001521 .LASF75
     /tmp/ccP6cCkB.s:12129  .debug_str:00000000000004a8 .LASF77
     /tmp/ccP6cCkB.s:12549  .debug_str:0000000000001260 .LASF79
     /tmp/ccP6cCkB.s:12179  .debug_str:000000000000064b .LASF80
     /tmp/ccP6cCkB.s:12345  .debug_str:0000000000000bd5 .LASF81
     /tmp/ccP6cCkB.s:12683  .debug_str:000000000000170c .LASF82
     /tmp/ccP6cCkB.s:12181  .debug_str:0000000000000652 .LASF83
     /tmp/ccP6cCkB.s:12517  .debug_str:0000000000001198 .LASF84
     /tmp/ccP6cCkB.s:12523  .debug_str:00000000000011b7 .LASF85
GAS LISTING /tmp/ccP6cCkB.s 			page 141


     /tmp/ccP6cCkB.s:12197  .debug_str:00000000000006d8 .LASF86
     /tmp/ccP6cCkB.s:12377  .debug_str:0000000000000cdf .LASF87
     /tmp/ccP6cCkB.s:12167  .debug_str:0000000000000620 .LASF88
     /tmp/ccP6cCkB.s:12437  .debug_str:0000000000000f41 .LASF89
     /tmp/ccP6cCkB.s:12361  .debug_str:0000000000000c45 .LASF90
     /tmp/ccP6cCkB.s:12731  .debug_str:0000000000001911 .LASF91
     /tmp/ccP6cCkB.s:12063  .debug_str:00000000000002b8 .LASF92
     /tmp/ccP6cCkB.s:12555  .debug_str:0000000000001292 .LASF93
     /tmp/ccP6cCkB.s:12625  .debug_str:00000000000014d3 .LASF94
     /tmp/ccP6cCkB.s:12151  .debug_str:0000000000000577 .LASF95
     /tmp/ccP6cCkB.s:12173  .debug_str:0000000000000636 .LASF96
     /tmp/ccP6cCkB.s:12207  .debug_str:0000000000000719 .LASF97
     /tmp/ccP6cCkB.s:12615  .debug_str:0000000000001493 .LASF98
     /tmp/ccP6cCkB.s:12071  .debug_str:00000000000002f2 .LASF99
     /tmp/ccP6cCkB.s:12249  .debug_str:000000000000089f .LASF100
     /tmp/ccP6cCkB.s:12727  .debug_str:00000000000018e5 .LASF101
     /tmp/ccP6cCkB.s:12213  .debug_str:0000000000000750 .LASF102
     /tmp/ccP6cCkB.s:12373  .debug_str:0000000000000ca5 .LASF104
     /tmp/ccP6cCkB.s:12011  .debug_str:000000000000011b .LASF103
     /tmp/ccP6cCkB.s:12107  .debug_str:0000000000000407 .LASF105
     /tmp/ccP6cCkB.s:12105  .debug_str:00000000000003fa .LASF106
     /tmp/ccP6cCkB.s:12599  .debug_str:00000000000013e7 .LASF107
     /tmp/ccP6cCkB.s:12619  .debug_str:00000000000014a7 .LASF108
     /tmp/ccP6cCkB.s:12743  .debug_str:0000000000001980 .LASF109
     /tmp/ccP6cCkB.s:12309  .debug_str:0000000000000a86 .LASF110
     /tmp/ccP6cCkB.s:12299  .debug_str:0000000000000a2e .LASF111
     /tmp/ccP6cCkB.s:12331  .debug_str:0000000000000b64 .LASF112
     /tmp/ccP6cCkB.s:12245  .debug_str:000000000000087c .LASF113
     /tmp/ccP6cCkB.s:12671  .debug_str:0000000000001679 .LASF114
     /tmp/ccP6cCkB.s:12099  .debug_str:00000000000003b1 .LASF115
     /tmp/ccP6cCkB.s:12431  .debug_str:0000000000000ee0 .LASF116
     /tmp/ccP6cCkB.s:12285  .debug_str:00000000000009b1 .LASF117
     /tmp/ccP6cCkB.s:12097  .debug_str:00000000000003a2 .LASF118
     /tmp/ccP6cCkB.s:12595  .debug_str:00000000000013b5 .LASF119
     /tmp/ccP6cCkB.s:12441  .debug_str:0000000000000f60 .LASF120
     /tmp/ccP6cCkB.s:12359  .debug_str:0000000000000c33 .LASF121
     /tmp/ccP6cCkB.s:12495  .debug_str:00000000000010e8 .LASF122
     /tmp/ccP6cCkB.s:12253  .debug_str:00000000000008ab .LASF123
     /tmp/ccP6cCkB.s:12041  .debug_str:0000000000000212 .LASF124
     /tmp/ccP6cCkB.s:12321  .debug_str:0000000000000af1 .LASF125
     /tmp/ccP6cCkB.s:12747  .debug_str:00000000000019b0 .LASF126
     /tmp/ccP6cCkB.s:12643  .debug_str:000000000000159b .LASF127
     /tmp/ccP6cCkB.s:12733  .debug_str:0000000000001929 .LASF128
     /tmp/ccP6cCkB.s:12591  .debug_str:0000000000001391 .LASF129
     /tmp/ccP6cCkB.s:12729  .debug_str:00000000000018f8 .LASF130
     /tmp/ccP6cCkB.s:12433  .debug_str:0000000000000ef1 .LASF131
     /tmp/ccP6cCkB.s:11993  .debug_str:0000000000000060 .LASF132
     /tmp/ccP6cCkB.s:12223  .debug_str:00000000000007a5 .LASF133
     /tmp/ccP6cCkB.s:12149  .debug_str:0000000000000561 .LASF134
     /tmp/ccP6cCkB.s:12675  .debug_str:00000000000016bb .LASF135
     /tmp/ccP6cCkB.s:12057  .debug_str:0000000000000280 .LASF136
     /tmp/ccP6cCkB.s:12689  .debug_str:00000000000017eb .LASF137
     /tmp/ccP6cCkB.s:12047  .debug_str:000000000000023d .LASF138
     /tmp/ccP6cCkB.s:12639  .debug_str:0000000000001572 .LASF139
     /tmp/ccP6cCkB.s:12187  .debug_str:0000000000000682 .LASF140
     /tmp/ccP6cCkB.s:12553  .debug_str:000000000000127a .LASF141
     /tmp/ccP6cCkB.s:12641  .debug_str:0000000000001592 .LASF142
GAS LISTING /tmp/ccP6cCkB.s 			page 142


     /tmp/ccP6cCkB.s:12469  .debug_str:0000000000000ff3 .LASF143
     /tmp/ccP6cCkB.s:12295  .debug_str:0000000000000a13 .LASF144
     /tmp/ccP6cCkB.s:12707  .debug_str:000000000000185a .LASF145
     /tmp/ccP6cCkB.s:12239  .debug_str:0000000000000853 .LASF146
     /tmp/ccP6cCkB.s:12327  .debug_str:0000000000000b40 .LASF147
     /tmp/ccP6cCkB.s:12355  .debug_str:0000000000000c14 .LASF148
     /tmp/ccP6cCkB.s:12485  .debug_str:000000000000107d .LASF149
     /tmp/ccP6cCkB.s:12531  .debug_str:00000000000011f5 .LASF150
     /tmp/ccP6cCkB.s:12315  .debug_str:0000000000000acb .LASF151
     /tmp/ccP6cCkB.s:12297  .debug_str:0000000000000a1a .LASF254
     /tmp/ccP6cCkB.s:12019  .debug_str:0000000000000149 .LASF256
     /tmp/ccP6cCkB.s:12341  .debug_str:0000000000000bc7 .LASF152
     /tmp/ccP6cCkB.s:12455  .debug_str:0000000000000fa3 .LASF213
     /tmp/ccP6cCkB.s:12039  .debug_str:000000000000020b .LASF154
     /tmp/ccP6cCkB.s:12209  .debug_str:000000000000072c .LASF155
     /tmp/ccP6cCkB.s:12337  .debug_str:0000000000000ba1 .LASF156
     /tmp/ccP6cCkB.s:12323  .debug_str:0000000000000b13 .LASF157
     /tmp/ccP6cCkB.s:12539  .debug_str:0000000000001216 .LASF158
     /tmp/ccP6cCkB.s:12461  .debug_str:0000000000000fcc .LASF159
     /tmp/ccP6cCkB.s:12079  .debug_str:000000000000034d .LASF160
     /tmp/ccP6cCkB.s:12589  .debug_str:0000000000001386 .LASF161
     /tmp/ccP6cCkB.s:11981  .debug_str:0000000000000018 .LASF162
     /tmp/ccP6cCkB.s:12121  .debug_str:0000000000000473 .LASF163
     /tmp/ccP6cCkB.s:12667  .debug_str:0000000000001651 .LASF164
     /tmp/ccP6cCkB.s:12693  .debug_str:000000000000181c .LASF165
     /tmp/ccP6cCkB.s:12391  .debug_str:0000000000000d71 .LASF166
     /tmp/ccP6cCkB.s:12623  .debug_str:00000000000014cb .LASF167
     /tmp/ccP6cCkB.s:12069  .debug_str:00000000000002df .LASF168
     /tmp/ccP6cCkB.s:12417  .debug_str:0000000000000e42 .LASF169
     /tmp/ccP6cCkB.s:12229  .debug_str:0000000000000803 .LASF170
     /tmp/ccP6cCkB.s:12413  .debug_str:0000000000000e2d .LASF171
     /tmp/ccP6cCkB.s:12055  .debug_str:0000000000000273 .LASF172
     /tmp/ccP6cCkB.s:12217  .debug_str:0000000000000768 .LASF173
     /tmp/ccP6cCkB.s:12575  .debug_str:0000000000001321 .LASF174
     /tmp/ccP6cCkB.s:12303  .debug_str:0000000000000a5d .LASF175
     /tmp/ccP6cCkB.s:12399  .debug_str:0000000000000dc4 .LASF176
     /tmp/ccP6cCkB.s:12597  .debug_str:00000000000013d1 .LASF177
     /tmp/ccP6cCkB.s:12051  .debug_str:0000000000000269 .LASF178
     /tmp/ccP6cCkB.s:12449  .debug_str:0000000000000f86 .LASF179
     /tmp/ccP6cCkB.s:12447  .debug_str:0000000000000f81 .LASF180
     /tmp/ccP6cCkB.s:12131  .debug_str:00000000000004af .LASF181
     /tmp/ccP6cCkB.s:12193  .debug_str:00000000000006a8 .LASF182
     /tmp/ccP6cCkB.s:12067  .debug_str:00000000000002d5 .LASF183
     /tmp/ccP6cCkB.s:12657  .debug_str:0000000000001610 .LASF184
     /tmp/ccP6cCkB.s:12147  .debug_str:0000000000000539 .LASF185
     /tmp/ccP6cCkB.s:12005  .debug_str:00000000000000fb .LASF186
     /tmp/ccP6cCkB.s:12511  .debug_str:0000000000001166 .LASF187
     /tmp/ccP6cCkB.s:12401  .debug_str:0000000000000dd7 .LASF188
     /tmp/ccP6cCkB.s:12283  .debug_str:00000000000009aa .LASF189
     /tmp/ccP6cCkB.s:12081  .debug_str:0000000000000352 .LASF190
     /tmp/ccP6cCkB.s:12593  .debug_str:00000000000013b0 .LASF191
     /tmp/ccP6cCkB.s:12415  .debug_str:0000000000000e3d .LASF192
     /tmp/ccP6cCkB.s:12547  .debug_str:000000000000125a .LASF193
     /tmp/ccP6cCkB.s:12007  .debug_str:0000000000000107 .LASF194
     /tmp/ccP6cCkB.s:12177  .debug_str:0000000000000646 .LASF195
     /tmp/ccP6cCkB.s:12389  .debug_str:0000000000000d69 .LASF196
     /tmp/ccP6cCkB.s:12037  .debug_str:0000000000000206 .LASF197
GAS LISTING /tmp/ccP6cCkB.s 			page 143


     /tmp/ccP6cCkB.s:12029  .debug_str:00000000000001af .LASF198
     /tmp/ccP6cCkB.s:12335  .debug_str:0000000000000b98 .LASF199
     /tmp/ccP6cCkB.s:12603  .debug_str:0000000000001414 .LASF200
     /tmp/ccP6cCkB.s:12409  .debug_str:0000000000000e1d .LASF201
     /tmp/ccP6cCkB.s:12705  .debug_str:0000000000001852 .LASF202
     /tmp/ccP6cCkB.s:12719  .debug_str:00000000000018b7 .LASF203
     /tmp/ccP6cCkB.s:12621  .debug_str:00000000000014ba .LASF204
     /tmp/ccP6cCkB.s:12697  .debug_str:000000000000182b .LASF205
     /tmp/ccP6cCkB.s:12247  .debug_str:000000000000089a .LASF206
     /tmp/ccP6cCkB.s:12585  .debug_str:0000000000001368 .LASF207
     /tmp/ccP6cCkB.s:12723  .debug_str:00000000000018d0 .LASF208
     /tmp/ccP6cCkB.s:12125  .debug_str:0000000000000490 .LASF209
     /tmp/ccP6cCkB.s:11985  .debug_str:0000000000000034 .LASF210
     /tmp/ccP6cCkB.s:12721  .debug_str:00000000000018c2 .LASF211
     /tmp/ccP6cCkB.s:12287  .debug_str:00000000000009cf .LASF212
     /tmp/ccP6cCkB.s:12157  .debug_str:00000000000005c3 .LASF214
     /tmp/ccP6cCkB.s:12117  .debug_str:0000000000000464 .LASF215
     /tmp/ccP6cCkB.s:12083  .debug_str:0000000000000357 .LASF216
     /tmp/ccP6cCkB.s:12703  .debug_str:0000000000001846 .LASF217
     /tmp/ccP6cCkB.s:12609  .debug_str:0000000000001453 .LASF218
     /tmp/ccP6cCkB.s:12021  .debug_str:000000000000016b .LASF219
     /tmp/ccP6cCkB.s:12691  .debug_str:000000000000180f .LASF220
     /tmp/ccP6cCkB.s:12201  .debug_str:00000000000006f2 .LASF221
     /tmp/ccP6cCkB.s:12647  .debug_str:00000000000015ca .LASF222
     /tmp/ccP6cCkB.s:12277  .debug_str:000000000000098f .LASF223
     /tmp/ccP6cCkB.s:12493  .debug_str:00000000000010ca .LASF224
     /tmp/ccP6cCkB.s:12737  .debug_str:0000000000001947 .LASF225
     /tmp/ccP6cCkB.s:12031  .debug_str:00000000000001b9 .LASF226
     /tmp/ccP6cCkB.s:12333  .debug_str:0000000000000b75 .LASF227
     /tmp/ccP6cCkB.s:12701  .debug_str:000000000000183b .LASF228
     /tmp/ccP6cCkB.s:12115  .debug_str:0000000000000441 .LASF229
     /tmp/ccP6cCkB.s:12687  .debug_str:00000000000017e4 .LASF230
     /tmp/ccP6cCkB.s:12257  .debug_str:00000000000008da .LASF231
     /tmp/ccP6cCkB.s:12579  .debug_str:0000000000001341 .LASF232
     /tmp/ccP6cCkB.s:12659  .debug_str:000000000000161e .LASF380
     /tmp/ccP6cCkB.s:12305  .debug_str:0000000000000a66 .LASF233
     /tmp/ccP6cCkB.s:12453  .debug_str:0000000000000f9d .LASF237
     /tmp/ccP6cCkB.s:12065  .debug_str:00000000000002c3 .LASF239
     /tmp/ccP6cCkB.s:12627  .debug_str:00000000000014da .LASF234
     /tmp/ccP6cCkB.s:12269  .debug_str:0000000000000943 .LASF235
     /tmp/ccP6cCkB.s:11995  .debug_str:000000000000007a .LASF236
     /tmp/ccP6cCkB.s:12043  .debug_str:0000000000000227 .LASF238
     /tmp/ccP6cCkB.s:12393  .debug_str:0000000000000d7d .LASF240
     /tmp/ccP6cCkB.s:12183  .debug_str:0000000000000666 .LASF241
     /tmp/ccP6cCkB.s:12145  .debug_str:0000000000000528 .LASF242
     /tmp/ccP6cCkB.s:12483  .debug_str:000000000000106c .LASF243
     /tmp/ccP6cCkB.s:12699  .debug_str:0000000000001834 .LASF381
     /tmp/ccP6cCkB.s:12053  .debug_str:000000000000026e .LASF244
     /tmp/ccP6cCkB.s:12169  .debug_str:000000000000062a .LASF245
     /tmp/ccP6cCkB.s:12515  .debug_str:0000000000001193 .LASF246
     /tmp/ccP6cCkB.s:12087  .debug_str:0000000000000362 .LASF247
     /tmp/ccP6cCkB.s:12171  .debug_str:000000000000062f .LASF248
     /tmp/ccP6cCkB.s:12313  .debug_str:0000000000000ab8 .LASF249
     /tmp/ccP6cCkB.s:12123  .debug_str:000000000000048a .LASF250
     /tmp/ccP6cCkB.s:12477  .debug_str:0000000000001029 .LASF251
     /tmp/ccP6cCkB.s:12135  .debug_str:00000000000004d8 .LASF252
     /tmp/ccP6cCkB.s:12513  .debug_str:000000000000117e .LASF253
GAS LISTING /tmp/ccP6cCkB.s 			page 144


     /tmp/ccP6cCkB.s:12293  .debug_str:0000000000000a0a .LASF255
     /tmp/ccP6cCkB.s:12445  .debug_str:0000000000000f6c .LASF257
     /tmp/ccP6cCkB.s:12735  .debug_str:000000000000193b .LASF258
     /tmp/ccP6cCkB.s:12141  .debug_str:0000000000000510 .LASF259
     /tmp/ccP6cCkB.s:12565  .debug_str:00000000000012e9 .LASF260
     /tmp/ccP6cCkB.s:12419  .debug_str:0000000000000e4f .LASF261
     /tmp/ccP6cCkB.s:12343  .debug_str:0000000000000bcc .LASF262
     /tmp/ccP6cCkB.s:11991  .debug_str:0000000000000055 .LASF263
     /tmp/ccP6cCkB.s:12143  .debug_str:000000000000051c .LASF264
     /tmp/ccP6cCkB.s:12617  .debug_str:000000000000149a .LASF265
     /tmp/ccP6cCkB.s:12009  .debug_str:0000000000000111 .LASF266
     /tmp/ccP6cCkB.s:12563  .debug_str:00000000000012df .LASF267
     /tmp/ccP6cCkB.s:12567  .debug_str:00000000000012f5 .LASF268
     /tmp/ccP6cCkB.s:12013  .debug_str:0000000000000128 .LASF269
     /tmp/ccP6cCkB.s:12655  .debug_str:0000000000001607 .LASF270
     /tmp/ccP6cCkB.s:12545  .debug_str:000000000000123e .LASF271
     /tmp/ccP6cCkB.s:12473  .debug_str:0000000000001014 .LASF272
     /tmp/ccP6cCkB.s:12001  .debug_str:00000000000000c7 .LASF273
     /tmp/ccP6cCkB.s:12365  .debug_str:0000000000000c59 .LASF274
     /tmp/ccP6cCkB.s:12077  .debug_str:0000000000000330 .LASF275
     /tmp/ccP6cCkB.s:12045  .debug_str:0000000000000233 .LASF276
     /tmp/ccP6cCkB.s:12741  .debug_str:0000000000001963 .LASF277
     /tmp/ccP6cCkB.s:12367  .debug_str:0000000000000c63 .LASF278
     /tmp/ccP6cCkB.s:12561  .debug_str:00000000000012cf .LASF279
     /tmp/ccP6cCkB.s:12325  .debug_str:0000000000000b1c .LASF280
     /tmp/ccP6cCkB.s:12061  .debug_str:00000000000002af .LASF281
     /tmp/ccP6cCkB.s:12499  .debug_str:0000000000001104 .LASF282
     /tmp/ccP6cCkB.s:12471  .debug_str:0000000000001008 .LASF283
     /tmp/ccP6cCkB.s:12429  .debug_str:0000000000000ebe .LASF284
     /tmp/ccP6cCkB.s:12307  .debug_str:0000000000000a80 .LASF285
     /tmp/ccP6cCkB.s:12375  .debug_str:0000000000000cbf .LASF286
     /tmp/ccP6cCkB.s:12363  .debug_str:0000000000000c50 .LASF287
     /tmp/ccP6cCkB.s:12191  .debug_str:000000000000069c .LASF288
     /tmp/ccP6cCkB.s:12109  .debug_str:0000000000000421 .LASF289
     /tmp/ccP6cCkB.s:12267  .debug_str:0000000000000937 .LASF290
     /tmp/ccP6cCkB.s:12353  .debug_str:0000000000000c0f .LASF291
     /tmp/ccP6cCkB.s:11989  .debug_str:0000000000000049 .LASF292
     /tmp/ccP6cCkB.s:12395  .debug_str:0000000000000d96 .LASF293
     /tmp/ccP6cCkB.s:12745  .debug_str:00000000000019a1 .LASF294
     /tmp/ccP6cCkB.s:12017  .debug_str:0000000000000142 .LASF295
     /tmp/ccP6cCkB.s:12645  .debug_str:00000000000015b9 .LASF296
     /tmp/ccP6cCkB.s:12509  .debug_str:0000000000001160 .LASF297
     /tmp/ccP6cCkB.s:12347  .debug_str:0000000000000be8 .LASF298
     /tmp/ccP6cCkB.s:12089  .debug_str:0000000000000373 .LASF299
     /tmp/ccP6cCkB.s:12227  .debug_str:00000000000007f1 .LASF300
     /tmp/ccP6cCkB.s:12529  .debug_str:00000000000011e6 .LASF301
     /tmp/ccP6cCkB.s:12289  .debug_str:00000000000009df .LASF302
     /tmp/ccP6cCkB.s:12405  .debug_str:0000000000000dfc .LASF303
     /tmp/ccP6cCkB.s:12679  .debug_str:00000000000016e9 .LASF304
     /tmp/ccP6cCkB.s:12301  .debug_str:0000000000000a4d .LASF305
     /tmp/ccP6cCkB.s:12475  .debug_str:000000000000101d .LASF306
     /tmp/ccP6cCkB.s:12497  .debug_str:00000000000010f7 .LASF307
     /tmp/ccP6cCkB.s:12273  .debug_str:000000000000095a .LASF308
     /tmp/ccP6cCkB.s:12543  .debug_str:0000000000001238 .LASF309
     /tmp/ccP6cCkB.s:12535  .debug_str:000000000000120b .LASF310
     /tmp/ccP6cCkB.s:12407  .debug_str:0000000000000e12 .LASF311
     /tmp/ccP6cCkB.s:11987  .debug_str:0000000000000040 .LASF312
GAS LISTING /tmp/ccP6cCkB.s 			page 145


     /tmp/ccP6cCkB.s:12265  .debug_str:000000000000092f .LASF313
     /tmp/ccP6cCkB.s:12573  .debug_str:0000000000001317 .LASF314
     /tmp/ccP6cCkB.s:12653  .debug_str:00000000000015fb .LASF315
     /tmp/ccP6cCkB.s:12521  .debug_str:00000000000011ae .LASF316
     /tmp/ccP6cCkB.s:12319  .debug_str:0000000000000aec .LASF317
     /tmp/ccP6cCkB.s:12351  .debug_str:0000000000000c08 .LASF318
     /tmp/ccP6cCkB.s:12505  .debug_str:0000000000001145 .LASF320
     /tmp/ccP6cCkB.s:12491  .debug_str:00000000000010c2 .LASF319
     /tmp/ccP6cCkB.s:12663  .debug_str:0000000000001630 .LASF321
     /tmp/ccP6cCkB.s:12525  .debug_str:00000000000011cb .LASF322
     /tmp/ccP6cCkB.s:12263  .debug_str:000000000000091f .LASF323
     /tmp/ccP6cCkB.s:12459  .debug_str:0000000000000fc2 .LASF324
     /tmp/ccP6cCkB.s:12739  .debug_str:0000000000001956 .LASF325
     /tmp/ccP6cCkB.s:12451  .debug_str:0000000000000f96 .LASF326
     /tmp/ccP6cCkB.s:12119  .debug_str:0000000000000469 .LASF327
     /tmp/ccP6cCkB.s:12695  .debug_str:0000000000001821 .LASF328
     /tmp/ccP6cCkB.s:12583  .debug_str:000000000000135e .LASF329
     /tmp/ccP6cCkB.s:12271  .debug_str:000000000000094d .LASF330
     /tmp/ccP6cCkB.s:12489  .debug_str:00000000000010aa .LASF382
     /tmp/ccP6cCkB.s:12231  .debug_str:000000000000080f .LASF383
     /tmp/ccP6cCkB.s:12649  .debug_str:00000000000015e9 .LASF331
     /tmp/ccP6cCkB.s:12139  .debug_str:00000000000004f6 .LASF332
     /tmp/ccP6cCkB.s:12233  .debug_str:0000000000000823 .LASF333
     /tmp/ccP6cCkB.s:12587  .debug_str:0000000000001370 .LASF334
     /tmp/ccP6cCkB.s:12049  .debug_str:000000000000024d .LASF335
     /tmp/ccP6cCkB.s:12519  .debug_str:00000000000011a0 .LASF336
     /tmp/ccP6cCkB.s:12159  .debug_str:00000000000005cf .LASF337
     /tmp/ccP6cCkB.s:12631  .debug_str:0000000000001514 .LASF338
     /tmp/ccP6cCkB.s:12165  .debug_str:0000000000000602 .LASF339
     /tmp/ccP6cCkB.s:12581  .debug_str:0000000000001347 .LASF340
     /tmp/ccP6cCkB.s:12371  .debug_str:0000000000000c88 .LASF343
     /tmp/ccP6cCkB.s:11983  .debug_str:0000000000000024 .LASF341
     /tmp/ccP6cCkB.s:12349  .debug_str:0000000000000bf8 .LASF342
     /tmp/ccP6cCkB.s:12101  .debug_str:00000000000003dc .LASF344
     /tmp/ccP6cCkB.s:3626   .text:000000000000118c .LFB82
     /tmp/ccP6cCkB.s:3685   .text:0000000000001220 .LFE82
     /tmp/ccP6cCkB.s:10676  .debug_loc:0000000000000000 .LLST96
     /tmp/ccP6cCkB.s:3647   .text:00000000000011bc .LVL285
     /tmp/ccP6cCkB.s:3655   .text:00000000000011d8 .LVL286
     /tmp/ccP6cCkB.s:3663   .text:00000000000011f4 .LVL287
     /tmp/ccP6cCkB.s:3671   .text:000000000000120c .LVL288
     /tmp/ccP6cCkB.s:2141   .text:0000000000000a60 .LFB81
     /tmp/ccP6cCkB.s:2324   .text:0000000000000b3c .LFE81
     /tmp/ccP6cCkB.s:10694  .debug_loc:000000000000004c .LLST58
     /tmp/ccP6cCkB.s:12251  .debug_str:00000000000008a6 .LASF345
     /tmp/ccP6cCkB.s:10719  .debug_loc:00000000000000ae .LLST59
     /tmp/ccP6cCkB.s:12381  .debug_str:0000000000000d21 .LASF346
     /tmp/ccP6cCkB.s:10741  .debug_loc:000000000000010d .LLST60
     /tmp/ccP6cCkB.s:12439  .debug_str:0000000000000f57 .LASF347
     /tmp/ccP6cCkB.s:10767  .debug_loc:000000000000017f .LLST61
     /tmp/ccP6cCkB.s:12035  .debug_str:0000000000000201 .LASF348
     /tmp/ccP6cCkB.s:10778  .debug_loc:00000000000001b5 .LLST62
     /tmp/ccP6cCkB.s:12463  .debug_str:0000000000000fd1 .LASF349
     /tmp/ccP6cCkB.s:10799  .debug_loc:0000000000000213 .LLST63
     /tmp/ccP6cCkB.s:12557  .debug_str:00000000000012aa .LASF350
     /tmp/ccP6cCkB.s:10815  .debug_loc:000000000000025d .LLST64
     /tmp/ccP6cCkB.s:12329  .debug_str:0000000000000b5e .LASF351
GAS LISTING /tmp/ccP6cCkB.s 			page 146


     /tmp/ccP6cCkB.s:10836  .debug_loc:00000000000002bb .LLST65
     /tmp/ccP6cCkB.s:11927  .debug_ranges:0000000000000000 .Ldebug_ranges0
     /tmp/ccP6cCkB.s:10852  .debug_loc:00000000000002f6 .LLST67
     /tmp/ccP6cCkB.s:2270   .text:0000000000000b04 .LVL174
     /tmp/ccP6cCkB.s:10867  .debug_loc:0000000000000330 .LLST69
     /tmp/ccP6cCkB.s:2300   .text:0000000000000b24 .LVL178
     /tmp/ccP6cCkB.s:2163   .text:0000000000000a84 .LBB134
     /tmp/ccP6cCkB.s:2172   .text:0000000000000a8c .LBE134
     /tmp/ccP6cCkB.s:10882  .debug_loc:000000000000036a .LLST66
     /tmp/ccP6cCkB.s:2192   .text:0000000000000aa4 .LBB139
     /tmp/ccP6cCkB.s:2201   .text:0000000000000aac .LBE139
     /tmp/ccP6cCkB.s:10889  .debug_loc:000000000000038d .LLST68
     /tmp/ccP6cCkB.s:2228   .text:0000000000000acc .LBB144
     /tmp/ccP6cCkB.s:2235   .text:0000000000000ad0 .LBE144
     /tmp/ccP6cCkB.s:10896  .debug_loc:00000000000003b0 .LLST70
     /tmp/ccP6cCkB.s:2087   .text:0000000000000a10 .LFB80
     /tmp/ccP6cCkB.s:2135   .text:0000000000000a60 .LFE80
     /tmp/ccP6cCkB.s:2105   .text:0000000000000a30 .LBB133
     /tmp/ccP6cCkB.s:2124   .text:0000000000000a50 .LBE133
     /tmp/ccP6cCkB.s:10906  .debug_loc:00000000000003d6 .LLST57
     /tmp/ccP6cCkB.s:2102   .text:0000000000000a2c .LVL155
     /tmp/ccP6cCkB.s:3825   .text:0000000000001360 .LFB79
     /tmp/ccP6cCkB.s:3953   .text:00000000000014a0 .LFE79
     /tmp/ccP6cCkB.s:12571  .debug_str:0000000000001312 .LASF352
     /tmp/ccP6cCkB.s:10913  .debug_loc:00000000000003f9 .LLST99
     /tmp/ccP6cCkB.s:3921   .text:0000000000001478 .LBB217
     /tmp/ccP6cCkB.s:3933   .text:0000000000001480 .LBE217
     /tmp/ccP6cCkB.s:10920  .debug_loc:000000000000041c .LLST100
     /tmp/ccP6cCkB.s:3847   .text:0000000000001388 .LVL301
     /tmp/ccP6cCkB.s:3870   .text:00000000000013d4 .LVL303
     /tmp/ccP6cCkB.s:3879   .text:00000000000013f4 .LVL304
     /tmp/ccP6cCkB.s:3888   .text:0000000000001414 .LVL305
     /tmp/ccP6cCkB.s:3897   .text:0000000000001434 .LVL306
     /tmp/ccP6cCkB.s:3905   .text:000000000000144c .LVL307
     /tmp/ccP6cCkB.s:3914   .text:000000000000146c .LVL308
     /tmp/ccP6cCkB.s:3919   .text:0000000000001478 .LVL309
     /tmp/ccP6cCkB.s:3691   .text:0000000000001220 .LFB78
     /tmp/ccP6cCkB.s:3819   .text:0000000000001360 .LFE78
     /tmp/ccP6cCkB.s:10930  .debug_loc:0000000000000442 .LLST97
     /tmp/ccP6cCkB.s:3787   .text:0000000000001338 .LBB215
     /tmp/ccP6cCkB.s:3799   .text:0000000000001340 .LBE215
     /tmp/ccP6cCkB.s:10937  .debug_loc:0000000000000465 .LLST98
     /tmp/ccP6cCkB.s:3713   .text:0000000000001248 .LVL290
     /tmp/ccP6cCkB.s:3736   .text:0000000000001294 .LVL292
     /tmp/ccP6cCkB.s:3745   .text:00000000000012b4 .LVL293
     /tmp/ccP6cCkB.s:3754   .text:00000000000012d4 .LVL294
     /tmp/ccP6cCkB.s:3763   .text:00000000000012f4 .LVL295
     /tmp/ccP6cCkB.s:3771   .text:000000000000130c .LVL296
     /tmp/ccP6cCkB.s:3780   .text:000000000000132c .LVL297
     /tmp/ccP6cCkB.s:3785   .text:0000000000001338 .LVL298
     /tmp/ccP6cCkB.s:3552   .text:0000000000001118 .LFB77
     /tmp/ccP6cCkB.s:3620   .text:000000000000118c .LFE77
     /tmp/ccP6cCkB.s:10947  .debug_loc:000000000000048b .LLST91
     /tmp/ccP6cCkB.s:12537  .debug_str:0000000000001210 .LASF353
     /tmp/ccP6cCkB.s:10965  .debug_loc:00000000000004d7 .LLST92
     /tmp/ccP6cCkB.s:10979  .debug_loc:0000000000000510 .LLST93
     /tmp/ccP6cCkB.s:10997  .debug_loc:000000000000055c .LLST94
GAS LISTING /tmp/ccP6cCkB.s 			page 147


     /tmp/ccP6cCkB.s:3579   .text:0000000000001148 .LBB214
     /tmp/ccP6cCkB.s:3597   .text:000000000000116c .LBE214
     /tmp/ccP6cCkB.s:11015  .debug_loc:00000000000005a8 .LLST95
     /tmp/ccP6cCkB.s:3588   .text:0000000000001160 .LVL278
     /tmp/ccP6cCkB.s:1940   .text:0000000000000968 .LFB76
     /tmp/ccP6cCkB.s:1969   .text:0000000000000988 .LFE76
     /tmp/ccP6cCkB.s:1902   .text:0000000000000948 .LFB75
     /tmp/ccP6cCkB.s:1934   .text:0000000000000968 .LFE75
     /tmp/ccP6cCkB.s:1794   .text:00000000000008cc .LFB74
     /tmp/ccP6cCkB.s:1896   .text:0000000000000948 .LFE74
     /tmp/ccP6cCkB.s:12279  .debug_str:0000000000000995 .LASF354
     /tmp/ccP6cCkB.s:11022  .debug_loc:00000000000005cb .LLST47
     /tmp/ccP6cCkB.s:12503  .debug_str:0000000000001137 .LASF355
     /tmp/ccP6cCkB.s:11048  .debug_loc:000000000000063d .LLST48
     /tmp/ccP6cCkB.s:11066  .debug_loc:0000000000000689 .LLST49
     /tmp/ccP6cCkB.s:12163  .debug_str:00000000000005fa .LASF356
     /tmp/ccP6cCkB.s:11092  .debug_loc:00000000000006fb .LLST50
     /tmp/ccP6cCkB.s:12203  .debug_str:00000000000006fa .LASF357
     /tmp/ccP6cCkB.s:11118  .debug_loc:000000000000076d .LLST51
     /tmp/ccP6cCkB.s:12111  .debug_str:000000000000042d .LASF358
     /tmp/ccP6cCkB.s:11136  .debug_loc:00000000000007b9 .LLST52
     /tmp/ccP6cCkB.s:12725  .debug_str:00000000000018de .LASF359
     /tmp/ccP6cCkB.s:11162  .debug_loc:000000000000082b .LLST53
     /tmp/ccP6cCkB.s:1827   .text:0000000000000904 .LVL138
     /tmp/ccP6cCkB.s:1755   .text:00000000000008a0 .LFB73
     /tmp/ccP6cCkB.s:1788   .text:00000000000008cc .LFE73
     /tmp/ccP6cCkB.s:11183  .debug_loc:0000000000000889 .LLST46
     /tmp/ccP6cCkB.s:2548   .text:0000000000000ca8 .LFE72
     /tmp/ccP6cCkB.s:11196  .debug_loc:00000000000008c1 .LLST71
     /tmp/ccP6cCkB.s:12317  .debug_str:0000000000000ae5 .LASF360
     /tmp/ccP6cCkB.s:11215  .debug_loc:000000000000091d .LLST72
     /tmp/ccP6cCkB.s:11226  .debug_loc:0000000000000953 .LLST73
     /tmp/ccP6cCkB.s:2394   .text:0000000000000bcc .LBB151
     /tmp/ccP6cCkB.s:2497   .text:0000000000000c60 .LBE151
     /tmp/ccP6cCkB.s:12357  .debug_str:0000000000000c23 .LASF361
     /tmp/ccP6cCkB.s:11243  .debug_loc:000000000000099e .LLST74
     /tmp/ccP6cCkB.s:2493   .text:0000000000000c60 .LVL189
     /tmp/ccP6cCkB.s:2352   .text:0000000000000b60 .LVL181
     /tmp/ccP6cCkB.s:2362   .text:0000000000000b7c .LVL184
     /tmp/ccP6cCkB.s:2371   .text:0000000000000b9c .LVL185
     /tmp/ccP6cCkB.s:2376   .text:0000000000000ba8 .LVL186
     /tmp/ccP6cCkB.s:2387   .text:0000000000000bc8 .LVL187
     /tmp/ccP6cCkB.s:2509   .text:0000000000000c6c .LVL190
     /tmp/ccP6cCkB.s:2541   .text:0000000000000c9c .LVL196
     /tmp/ccP6cCkB.s:2545   .text:0000000000000ca8 .LVL197
     /tmp/ccP6cCkB.s:1684   .text:0000000000000844 .LFB71
     /tmp/ccP6cCkB.s:1749   .text:00000000000008a0 .LFE71
     /tmp/ccP6cCkB.s:12443  .debug_str:0000000000000f66 .LASF362
     /tmp/ccP6cCkB.s:11250  .debug_loc:00000000000009c1 .LLST43
     /tmp/ccP6cCkB.s:11261  .debug_loc:00000000000009f7 .LLST44
     /tmp/ccP6cCkB.s:1722   .text:0000000000000870 .LVL128
     /tmp/ccP6cCkB.s:1743   .text:0000000000000890 .LVL131
     /tmp/ccP6cCkB.s:1746   .text:000000000000089c .LVL132
     /tmp/ccP6cCkB.s:1608   .text:00000000000007dc .LFB70
     /tmp/ccP6cCkB.s:1678   .text:0000000000000844 .LFE70
     /tmp/ccP6cCkB.s:11270  .debug_loc:0000000000000a1c .LLST40
     /tmp/ccP6cCkB.s:11281  .debug_loc:0000000000000a52 .LLST41
GAS LISTING /tmp/ccP6cCkB.s 			page 148


     /tmp/ccP6cCkB.s:1646   .text:0000000000000808 .LVL120
     /tmp/ccP6cCkB.s:1667   .text:0000000000000828 .LVL123
     /tmp/ccP6cCkB.s:1672   .text:0000000000000834 .LVL124
     /tmp/ccP6cCkB.s:1675   .text:0000000000000840 .LVL125
     /tmp/ccP6cCkB.s:385    .text:00000000000001e8 .LFB69
     /tmp/ccP6cCkB.s:431    .text:0000000000000220 .LFE69
     /tmp/ccP6cCkB.s:262    .text:0000000000000134 .LFB68
     /tmp/ccP6cCkB.s:379    .text:00000000000001e8 .LFE68
     /tmp/ccP6cCkB.s:286    .text:0000000000000168 .LBB113
     /tmp/ccP6cCkB.s:295    .text:0000000000000168 .LBB115
     /tmp/ccP6cCkB.s:309    .text:0000000000000170 .LBE115
     /tmp/ccP6cCkB.s:296    .text:0000000000000168 .LBB116
     /tmp/ccP6cCkB.s:308    .text:0000000000000170 .LBE116
     /tmp/ccP6cCkB.s:11290  .debug_loc:0000000000000a77 .LLST3
     /tmp/ccP6cCkB.s:316    .text:0000000000000170 .LBB118
     /tmp/ccP6cCkB.s:331    .text:0000000000000178 .LBE118
     /tmp/ccP6cCkB.s:317    .text:0000000000000170 .LBB119
     /tmp/ccP6cCkB.s:330    .text:0000000000000178 .LBE119
     /tmp/ccP6cCkB.s:11298  .debug_loc:0000000000000a9b .LLST4
     /tmp/ccP6cCkB.s:353    .text:00000000000001b0 .LVL10
     /tmp/ccP6cCkB.s:365    .text:00000000000001d4 .LVL11
     /tmp/ccP6cCkB.s:195    .text:00000000000000f0 .LFB67
     /tmp/ccP6cCkB.s:256    .text:0000000000000134 .LFE67
     /tmp/ccP6cCkB.s:214    .text:0000000000000114 .LBB109
     /tmp/ccP6cCkB.s:228    .text:000000000000011c .LBE109
     /tmp/ccP6cCkB.s:11307  .debug_loc:0000000000000ac1 .LLST2
     /tmp/ccP6cCkB.s:241    .text:0000000000000128 .LBB111
     /tmp/ccP6cCkB.s:254    .text:0000000000000134 .LBE111
     /tmp/ccP6cCkB.s:1566   .text:00000000000007a8 .LFB66
     /tmp/ccP6cCkB.s:1602   .text:00000000000007dc .LFE66
     /tmp/ccP6cCkB.s:11316  .debug_loc:0000000000000ae7 .LLST39
     /tmp/ccP6cCkB.s:1580   .text:00000000000007c0 .LVL116
     /tmp/ccP6cCkB.s:1591   .text:00000000000007cc .LVL117
     /tmp/ccP6cCkB.s:1975   .text:0000000000000988 .LFB65
     /tmp/ccP6cCkB.s:2081   .text:0000000000000a10 .LFE65
     /tmp/ccP6cCkB.s:11323  .debug_loc:0000000000000b0a .LLST54
     /tmp/ccP6cCkB.s:11337  .debug_loc:0000000000000b43 .LLST55
     /tmp/ccP6cCkB.s:2031   .text:00000000000009c4 .LBB130
     /tmp/ccP6cCkB.s:2077   .text:0000000000000a10 .LBE130
     /tmp/ccP6cCkB.s:12411  .debug_str:0000000000000e28 .LASF363
     /tmp/ccP6cCkB.s:11344  .debug_loc:0000000000000b66 .LLST56
     /tmp/ccP6cCkB.s:2035   .text:00000000000009cc .LVL152
     /tmp/ccP6cCkB.s:1995   .text:00000000000009a4 .LVL148
     /tmp/ccP6cCkB.s:142    .text:00000000000000a0 .LFB64
     /tmp/ccP6cCkB.s:189    .text:00000000000000f0 .LFE64
     /tmp/ccP6cCkB.s:11351  .debug_loc:0000000000000b89 .LLST1
     /tmp/ccP6cCkB.s:178    .text:00000000000000e0 .LVL3
     /tmp/ccP6cCkB.s:1475   .text:0000000000000710 .LFB63
     /tmp/ccP6cCkB.s:1560   .text:00000000000007a8 .LFE63
     /tmp/ccP6cCkB.s:11358  .debug_loc:0000000000000bac .LLST38
     /tmp/ccP6cCkB.s:1503   .text:000000000000074c .LVL106
     /tmp/ccP6cCkB.s:1524   .text:000000000000076c .LVL109
     /tmp/ccP6cCkB.s:1545   .text:000000000000078c .LVL112
     /tmp/ccP6cCkB.s:1550   .text:0000000000000798 .LVL113
     /tmp/ccP6cCkB.s:1557   .text:00000000000007a4 .LVL115
     /tmp/ccP6cCkB.s:1395   .text:0000000000000698 .LFB62
     /tmp/ccP6cCkB.s:1469   .text:0000000000000710 .LFE62
GAS LISTING /tmp/ccP6cCkB.s 			page 149


     /tmp/ccP6cCkB.s:12103  .debug_str:00000000000003f4 .LASF364
     /tmp/ccP6cCkB.s:11373  .debug_loc:0000000000000bf5 .LLST37
     /tmp/ccP6cCkB.s:1434   .text:00000000000006dc .LVL102
     /tmp/ccP6cCkB.s:1442   .text:00000000000006ec .LVL103
     /tmp/ccP6cCkB.s:1455   .text:00000000000006fc .LVL104
     /tmp/ccP6cCkB.s:1330   .text:0000000000000650 .LFB61
     /tmp/ccP6cCkB.s:1389   .text:0000000000000698 .LFE61
     /tmp/ccP6cCkB.s:11380  .debug_loc:0000000000000c18 .LLST35
     /tmp/ccP6cCkB.s:11391  .debug_loc:0000000000000c4e .LLST36
     /tmp/ccP6cCkB.s:1367   .text:0000000000000678 .LVL98
     /tmp/ccP6cCkB.s:1384   .text:0000000000000690 .LVL100
     /tmp/ccP6cCkB.s:1253   .text:00000000000005f0 .LFB60
     /tmp/ccP6cCkB.s:1324   .text:0000000000000650 .LFE60
     /tmp/ccP6cCkB.s:11408  .debug_loc:0000000000000c99 .LLST33
     /tmp/ccP6cCkB.s:11419  .debug_loc:0000000000000ccf .LLST34
     /tmp/ccP6cCkB.s:1299   .text:000000000000062c .LVL92
     /tmp/ccP6cCkB.s:1316   .text:0000000000000644 .LVL94
     /tmp/ccP6cCkB.s:1178   .text:0000000000000590 .LFB59
     /tmp/ccP6cCkB.s:1247   .text:00000000000005f0 .LFE59
     /tmp/ccP6cCkB.s:11436  .debug_loc:0000000000000d1a .LLST30
     /tmp/ccP6cCkB.s:11447  .debug_loc:0000000000000d50 .LLST32
     /tmp/ccP6cCkB.s:1218   .text:00000000000005bc .LVL84
     /tmp/ccP6cCkB.s:1239   .text:00000000000005dc .LVL87
     /tmp/ccP6cCkB.s:1242   .text:00000000000005e8 .LVL88
     /tmp/ccP6cCkB.s:1153   .text:0000000000000590 .LFE58
     /tmp/ccP6cCkB.s:11464  .debug_loc:0000000000000d9b .LLST26
     /tmp/ccP6cCkB.s:12369  .debug_str:0000000000000c82 .LASF365
     /tmp/ccP6cCkB.s:11475  .debug_loc:0000000000000dd1 .LLST27
     /tmp/ccP6cCkB.s:11486  .debug_loc:0000000000000e07 .LLST28
     /tmp/ccP6cCkB.s:11497  .debug_loc:0000000000000e3d .LLST29
     /tmp/ccP6cCkB.s:1082   .text:0000000000000524 .LVL70
     /tmp/ccP6cCkB.s:1090   .text:0000000000000538 .LVL71
     /tmp/ccP6cCkB.s:1113   .text:0000000000000550 .LVL73
     /tmp/ccP6cCkB.s:1146   .text:0000000000000584 .LVL80
     /tmp/ccP6cCkB.s:1150   .text:0000000000000590 .LVL81
     /tmp/ccP6cCkB.s:102    .text:0000000000000064 .LFB57
     /tmp/ccP6cCkB.s:136    .text:00000000000000a0 .LFE57
     /tmp/ccP6cCkB.s:11514  .debug_loc:0000000000000e88 .LLST0
     /tmp/ccP6cCkB.s:125    .text:0000000000000090 .LVL1
     /tmp/ccP6cCkB.s:970    .text:000000000000049c .LFB56
     /tmp/ccP6cCkB.s:1037   .text:00000000000004f4 .LFE56
     /tmp/ccP6cCkB.s:11521  .debug_loc:0000000000000eab .LLST24
     /tmp/ccP6cCkB.s:990    .text:00000000000004bc .LBB126
     /tmp/ccP6cCkB.s:1001   .text:00000000000004cc .LBE126
     /tmp/ccP6cCkB.s:11538  .debug_loc:0000000000000ef6 .LLST25
     /tmp/ccP6cCkB.s:1000   .text:00000000000004cc .LVL64
     /tmp/ccP6cCkB.s:1017   .text:00000000000004dc .LVL66
     /tmp/ccP6cCkB.s:896    .text:0000000000000444 .LFB55
     /tmp/ccP6cCkB.s:964    .text:000000000000049c .LFE55
     /tmp/ccP6cCkB.s:11545  .debug_loc:0000000000000f19 .LLST21
     /tmp/ccP6cCkB.s:11556  .debug_loc:0000000000000f4f .LLST23
     /tmp/ccP6cCkB.s:934    .text:000000000000046c .LVL58
     /tmp/ccP6cCkB.s:955    .text:000000000000048c .LVL60
     /tmp/ccP6cCkB.s:959    .text:0000000000000494 .LVL61
     /tmp/ccP6cCkB.s:871    .text:0000000000000444 .LFE54
     /tmp/ccP6cCkB.s:11573  .debug_loc:0000000000000f9a .LLST15
     /tmp/ccP6cCkB.s:12241  .debug_str:0000000000000860 .LASF366
GAS LISTING /tmp/ccP6cCkB.s 			page 150


     /tmp/ccP6cCkB.s:11584  .debug_loc:0000000000000fd0 .LLST16
     /tmp/ccP6cCkB.s:11595  .debug_loc:0000000000001006 .LLST17
     /tmp/ccP6cCkB.s:11606  .debug_loc:000000000000103c .LLST18
     /tmp/ccP6cCkB.s:11617  .debug_loc:0000000000001072 .LLST19
     /tmp/ccP6cCkB.s:11628  .debug_loc:00000000000010a8 .LLST20
     /tmp/ccP6cCkB.s:785    .text:00000000000003bc .LVL42
     /tmp/ccP6cCkB.s:796    .text:00000000000003dc .LVL43
     /tmp/ccP6cCkB.s:825    .text:00000000000003fc .LVL45
     /tmp/ccP6cCkB.s:864    .text:0000000000000438 .LVL54
     /tmp/ccP6cCkB.s:868    .text:0000000000000444 .LVL55
     /tmp/ccP6cCkB.s:700    .text:000000000000037c .LFE53
     /tmp/ccP6cCkB.s:11645  .debug_loc:00000000000010f3 .LLST9
     /tmp/ccP6cCkB.s:11656  .debug_loc:0000000000001129 .LLST10
     /tmp/ccP6cCkB.s:11667  .debug_loc:000000000000115f .LLST11
     /tmp/ccP6cCkB.s:11678  .debug_loc:0000000000001195 .LLST12
     /tmp/ccP6cCkB.s:11689  .debug_loc:00000000000011cb .LLST13
     /tmp/ccP6cCkB.s:11700  .debug_loc:0000000000001201 .LLST14
     /tmp/ccP6cCkB.s:607    .text:00000000000002e8 .LVL23
     /tmp/ccP6cCkB.s:618    .text:0000000000000308 .LVL24
     /tmp/ccP6cCkB.s:634    .text:0000000000000320 .LVL25
     /tmp/ccP6cCkB.s:654    .text:0000000000000334 .LVL27
     /tmp/ccP6cCkB.s:693    .text:0000000000000370 .LVL36
     /tmp/ccP6cCkB.s:697    .text:000000000000037c .LVL37
     /tmp/ccP6cCkB.s:488    .text:0000000000000258 .LFB52
     /tmp/ccP6cCkB.s:546    .text:00000000000002a8 .LFE52
     /tmp/ccP6cCkB.s:11717  .debug_loc:000000000000124c .LLST7
     /tmp/ccP6cCkB.s:11724  .debug_loc:000000000000126f .LLST8
     /tmp/ccP6cCkB.s:518    .text:0000000000000288 .LVL16
     /tmp/ccP6cCkB.s:542    .text:00000000000002a4 .LVL18
     /tmp/ccP6cCkB.s:437    .text:0000000000000220 .LFB51
     /tmp/ccP6cCkB.s:482    .text:0000000000000258 .LFE51
     /tmp/ccP6cCkB.s:11735  .debug_loc:00000000000012a5 .LLST5
     /tmp/ccP6cCkB.s:11742  .debug_loc:00000000000012c8 .LLST6
     /tmp/ccP6cCkB.s:460    .text:000000000000023c .LVL13
     /tmp/ccP6cCkB.s:471    .text:0000000000000248 .LVL14
     /tmp/ccP6cCkB.s:2600   .text:0000000000000ca8 .LFB50
     /tmp/ccP6cCkB.s:3546   .text:0000000000001118 .LFE50
     /tmp/ccP6cCkB.s:12715  .debug_str:00000000000018a5 .LASF367
     /tmp/ccP6cCkB.s:11749  .debug_loc:00000000000012eb .LLST75
     /tmp/ccP6cCkB.s:12427  .debug_str:0000000000000eb7 .LASF368
     /tmp/ccP6cCkB.s:12127  .debug_str:000000000000049e .LASF369
     /tmp/ccP6cCkB.s:11760  .debug_loc:0000000000001321 .LLST88
     /tmp/ccP6cCkB.s:2808   .text:0000000000000e08 .LBB200
     /tmp/ccP6cCkB.s:2821   .text:0000000000000e0c .LBE200
     /tmp/ccP6cCkB.s:2825   .text:0000000000000e10 .LBB202
     /tmp/ccP6cCkB.s:2838   .text:0000000000000e14 .LBE202
     /tmp/ccP6cCkB.s:2990   .text:0000000000000e78 .LBB204
     /tmp/ccP6cCkB.s:3001   .text:0000000000000e7c .LBE204
     /tmp/ccP6cCkB.s:11767  .debug_loc:0000000000001344 .LLST89
     /tmp/ccP6cCkB.s:3006   .text:0000000000000e80 .LBB206
     /tmp/ccP6cCkB.s:3018   .text:0000000000000e84 .LBE206
     /tmp/ccP6cCkB.s:11774  .debug_loc:0000000000001367 .LLST90
     /tmp/ccP6cCkB.s:2981   .text:0000000000000e68 .LVL216
     /tmp/ccP6cCkB.s:3047   .text:0000000000000ea8 .LVL224
     /tmp/ccP6cCkB.s:3055   .text:0000000000000eb4 .LVL225
     /tmp/ccP6cCkB.s:3063   .text:0000000000000ec0 .LVL226
     /tmp/ccP6cCkB.s:3071   .text:0000000000000ecc .LVL227
GAS LISTING /tmp/ccP6cCkB.s 			page 151


     /tmp/ccP6cCkB.s:3079   .text:0000000000000ed8 .LVL228
     /tmp/ccP6cCkB.s:3087   .text:0000000000000ee4 .LVL229
     /tmp/ccP6cCkB.s:3095   .text:0000000000000ef0 .LVL230
     /tmp/ccP6cCkB.s:3103   .text:0000000000000efc .LVL231
     /tmp/ccP6cCkB.s:3111   .text:0000000000000f08 .LVL232
     /tmp/ccP6cCkB.s:3119   .text:0000000000000f14 .LVL233
     /tmp/ccP6cCkB.s:3127   .text:0000000000000f20 .LVL234
     /tmp/ccP6cCkB.s:3135   .text:0000000000000f2c .LVL235
     /tmp/ccP6cCkB.s:3143   .text:0000000000000f38 .LVL236
     /tmp/ccP6cCkB.s:3151   .text:0000000000000f44 .LVL237
     /tmp/ccP6cCkB.s:3159   .text:0000000000000f50 .LVL238
     /tmp/ccP6cCkB.s:3167   .text:0000000000000f5c .LVL239
     /tmp/ccP6cCkB.s:3184   .text:0000000000000f78 .LVL240
     /tmp/ccP6cCkB.s:3188   .text:0000000000000f80 .LVL241
     /tmp/ccP6cCkB.s:3194   .text:0000000000000f84 .LBB182
     /tmp/ccP6cCkB.s:3325   .text:0000000000001014 .LBE182
     /tmp/ccP6cCkB.s:3306   .text:0000000000000ff4 .LBB190
     /tmp/ccP6cCkB.s:3321   .text:0000000000001010 .LBE190
     /tmp/ccP6cCkB.s:11781  .debug_loc:000000000000138a .LLST85
     /tmp/ccP6cCkB.s:3320   .text:0000000000001010 .LVL252
     /tmp/ccP6cCkB.s:3196   .text:0000000000000f84 .LBB183
     /tmp/ccP6cCkB.s:3209   .text:0000000000000f88 .LBE183
     /tmp/ccP6cCkB.s:3213   .text:0000000000000f8c .LBB185
     /tmp/ccP6cCkB.s:3226   .text:0000000000000f90 .LBE185
     /tmp/ccP6cCkB.s:3231   .text:0000000000000f94 .LBB187
     /tmp/ccP6cCkB.s:3243   .text:0000000000000f9c .LBE187
     /tmp/ccP6cCkB.s:11788  .debug_loc:00000000000013ad .LLST84
     /tmp/ccP6cCkB.s:3274   .text:0000000000000fe4 .LBB191
     /tmp/ccP6cCkB.s:3285   .text:0000000000000fe8 .LBE191
     /tmp/ccP6cCkB.s:11796  .debug_loc:00000000000013d1 .LLST86
     /tmp/ccP6cCkB.s:3290   .text:0000000000000fec .LBB193
     /tmp/ccP6cCkB.s:3304   .text:0000000000000ff4 .LBE193
     /tmp/ccP6cCkB.s:11803  .debug_loc:00000000000013f4 .LLST87
     /tmp/ccP6cCkB.s:3253   .text:0000000000000fb8 .LVL246
     /tmp/ccP6cCkB.s:3327   .text:0000000000001014 .LBB167
     /tmp/ccP6cCkB.s:3487   .text:00000000000010b0 .LBE167
     /tmp/ccP6cCkB.s:11810  .debug_loc:0000000000001417 .LLST79
     /tmp/ccP6cCkB.s:11817  .debug_loc:000000000000143a .LLST80
     /tmp/ccP6cCkB.s:11824  .debug_loc:000000000000145d .LLST81
     /tmp/ccP6cCkB.s:3481   .text:00000000000010ac .LVL268
     /tmp/ccP6cCkB.s:3329   .text:0000000000001014 .LBB168
     /tmp/ccP6cCkB.s:3342   .text:0000000000001018 .LBE168
     /tmp/ccP6cCkB.s:3346   .text:000000000000101c .LBB170
     /tmp/ccP6cCkB.s:3359   .text:0000000000001020 .LBE170
     /tmp/ccP6cCkB.s:3440   .text:0000000000001084 .LBB175
     /tmp/ccP6cCkB.s:3451   .text:0000000000001088 .LBE175
     /tmp/ccP6cCkB.s:11835  .debug_loc:0000000000001493 .LLST82
     /tmp/ccP6cCkB.s:3456   .text:000000000000108c .LBB177
     /tmp/ccP6cCkB.s:3470   .text:0000000000001094 .LBE177
     /tmp/ccP6cCkB.s:11842  .debug_loc:00000000000014b6 .LLST83
     /tmp/ccP6cCkB.s:3433   .text:0000000000001078 .LVL262
     /tmp/ccP6cCkB.s:3435   .text:0000000000001080 .LVL263
     /tmp/ccP6cCkB.s:3489   .text:00000000000010b0 .LBB164
     /tmp/ccP6cCkB.s:3539   .text:0000000000001114 .LBE164
     /tmp/ccP6cCkB.s:11849  .debug_loc:00000000000014d9 .LLST78
     /tmp/ccP6cCkB.s:3505   .text:00000000000010d4 .LBB165
     /tmp/ccP6cCkB.s:3517   .text:00000000000010d8 .LBE165
GAS LISTING /tmp/ccP6cCkB.s 			page 152


     /tmp/ccP6cCkB.s:3503   .text:00000000000010d4 .LVL271
     /tmp/ccP6cCkB.s:3524   .text:00000000000010ec .LVL272
     /tmp/ccP6cCkB.s:3529   .text:00000000000010fc .LVL273
     /tmp/ccP6cCkB.s:3534   .text:000000000000110c .LVL274
     /tmp/ccP6cCkB.s:3538   .text:0000000000001114 .LVL275
     /tmp/ccP6cCkB.s:2701   .text:0000000000000d30 .LBB159
     /tmp/ccP6cCkB.s:2802   .text:0000000000000e08 .LBE159
     /tmp/ccP6cCkB.s:11856  .debug_loc:00000000000014fc .LLST76
     /tmp/ccP6cCkB.s:11863  .debug_loc:000000000000151f .LLST77
     /tmp/ccP6cCkB.s:2713   .text:0000000000000d50 .LBB160
     /tmp/ccP6cCkB.s:2729   .text:0000000000000d5c .LBE160
     /tmp/ccP6cCkB.s:2749   .text:0000000000000d90 .LBB162
     /tmp/ccP6cCkB.s:2761   .text:0000000000000d94 .LBE162
     /tmp/ccP6cCkB.s:2706   .text:0000000000000d40 .LVL199
     /tmp/ccP6cCkB.s:2711   .text:0000000000000d50 .LVL200
     /tmp/ccP6cCkB.s:2737   .text:0000000000000d70 .LVL203
     /tmp/ccP6cCkB.s:2742   .text:0000000000000d80 .LVL204
     /tmp/ccP6cCkB.s:2747   .text:0000000000000d90 .LVL205
     /tmp/ccP6cCkB.s:2768   .text:0000000000000da8 .LVL206
     /tmp/ccP6cCkB.s:2773   .text:0000000000000db8 .LVL207
     /tmp/ccP6cCkB.s:2781   .text:0000000000000dd8 .LVL208
     /tmp/ccP6cCkB.s:2795   .text:0000000000000dfc .LVL210
     /tmp/ccP6cCkB.s:2799   .text:0000000000000e04 .LVL211
     /tmp/ccP6cCkB.s:2623   .text:0000000000000cc0 .LBB153
     /tmp/ccP6cCkB.s:2638   .text:0000000000000ccc .LBE153
     /tmp/ccP6cCkB.s:3024   .text:0000000000000e8c .LVL221
     /tmp/ccP6cCkB.s:46     .text:0000000000000020 .LFB49
     /tmp/ccP6cCkB.s:96     .text:0000000000000064 .LFE49
     /tmp/ccP6cCkB.s:10     .text:0000000000000000 .LFB48
     /tmp/ccP6cCkB.s:40     .text:0000000000000020 .LFE48
     /tmp/ccP6cCkB.s:3959   .text:00000000000014a0 .LFB47
     /tmp/ccP6cCkB.s:4113   .text:0000000000001564 .LFE47
     /tmp/ccP6cCkB.s:3974   .text:00000000000014b8 .LBB219
     /tmp/ccP6cCkB.s:3985   .text:00000000000014bc .LBE219
     /tmp/ccP6cCkB.s:4034   .text:000000000000152c .LBB221
     /tmp/ccP6cCkB.s:4054   .text:0000000000001540 .LBE221
     /tmp/ccP6cCkB.s:11870  .debug_loc:0000000000001542 .LLST101
     /tmp/ccP6cCkB.s:11882  .debug_loc:0000000000001580 .LLST102
     /tmp/ccP6cCkB.s:4057   .text:0000000000001540 .LBB223
     /tmp/ccP6cCkB.s:4058   .text:0000000000001540 .LBB224
     /tmp/ccP6cCkB.s:4070   .text:0000000000001548 .LBE224
     /tmp/ccP6cCkB.s:11889  .debug_loc:00000000000015a3 .LLST103
     /tmp/ccP6cCkB.s:4074   .text:0000000000001548 .LBB226
     /tmp/ccP6cCkB.s:4086   .text:0000000000001550 .LBE226
     /tmp/ccP6cCkB.s:11897  .debug_loc:00000000000015c7 .LLST104
     /tmp/ccP6cCkB.s:4090   .text:0000000000001550 .LBB228
     /tmp/ccP6cCkB.s:4101   .text:0000000000001554 .LBE228
     /tmp/ccP6cCkB.s:11906  .debug_loc:00000000000015ed .LLST105
     /tmp/ccP6cCkB.s:3996   .text:00000000000014e0 .LVL314
     /tmp/ccP6cCkB.s:4000   .text:00000000000014e8 .LVL315
     /tmp/ccP6cCkB.s:4004   .text:00000000000014f0 .LVL316
     /tmp/ccP6cCkB.s:4008   .text:00000000000014f8 .LVL317
     /tmp/ccP6cCkB.s:4012   .text:0000000000001500 .LVL318
     /tmp/ccP6cCkB.s:4016   .text:0000000000001508 .LVL319
     /tmp/ccP6cCkB.s:4020   .text:0000000000001510 .LVL320
     /tmp/ccP6cCkB.s:4024   .text:0000000000001518 .LVL321
     /tmp/ccP6cCkB.s:11979  .debug_str:0000000000000013 .LASF370
GAS LISTING /tmp/ccP6cCkB.s 			page 153


     /tmp/ccP6cCkB.s:12465  .debug_str:0000000000000fda .LASF371
     /tmp/ccP6cCkB.s:12095  .debug_str:0000000000000393 .LASF384
     /tmp/ccP6cCkB.s:12003  .debug_str:00000000000000e3 .LASF385
     /tmp/ccP6cCkB.s:12717  .debug_str:00000000000018ab .LASF372
     /tmp/ccP6cCkB.s:12677  .debug_str:00000000000016de .LASF373
     /tmp/ccP6cCkB.s:12281  .debug_str:000000000000099c .LASF374
     /tmp/ccP6cCkB.s:12237  .debug_str:0000000000000843 .LASF375
     /tmp/ccP6cCkB.s:12383  .debug_str:0000000000000d26 .LASF376
     /tmp/ccP6cCkB.s:3629   .text:000000000000118c .LVL284
     /tmp/ccP6cCkB.s:3680   .text:0000000000001218 .LVL289
     /tmp/ccP6cCkB.s:2144   .text:0000000000000a60 .LVL158
     /tmp/ccP6cCkB.s:2185   .text:0000000000000aa0 .LVL162
     /tmp/ccP6cCkB.s:2262   .text:0000000000000afc .LVL173
     /tmp/ccP6cCkB.s:2188   .text:0000000000000aa4 .LVL163
     /tmp/ccP6cCkB.s:2223   .text:0000000000000ac8 .LVL168
     /tmp/ccP6cCkB.s:2241   .text:0000000000000adc .LVL171
     /tmp/ccP6cCkB.s:2177   .text:0000000000000a98 .LVL161
     /tmp/ccP6cCkB.s:2206   .text:0000000000000ab8 .LVL165
     /tmp/ccP6cCkB.s:2292   .text:0000000000000b1c .LVL177
     /tmp/ccP6cCkB.s:2214   .text:0000000000000ac0 .LVL166
     /tmp/ccP6cCkB.s:2217   .text:0000000000000ac4 .LVL167
     /tmp/ccP6cCkB.s:2244   .text:0000000000000ae0 .LVL172
     /tmp/ccP6cCkB.s:2233   .text:0000000000000ad0 .LVL170
     /tmp/ccP6cCkB.s:2276   .text:0000000000000b0c .LVL175
     /tmp/ccP6cCkB.s:2280   .text:0000000000000b10 .LVL176
     /tmp/ccP6cCkB.s:2306   .text:0000000000000b2c .LVL179
     /tmp/ccP6cCkB.s:2310   .text:0000000000000b30 .LVL180
     /tmp/ccP6cCkB.s:2162   .text:0000000000000a84 .LVL159
     /tmp/ccP6cCkB.s:2170   .text:0000000000000a8c .LVL160
     /tmp/ccP6cCkB.s:2199   .text:0000000000000aac .LVL164
     /tmp/ccP6cCkB.s:2227   .text:0000000000000acc .LVL169
     /tmp/ccP6cCkB.s:2109   .text:0000000000000a34 .LVL156
     /tmp/ccP6cCkB.s:2121   .text:0000000000000a4c .LVL157
     /tmp/ccP6cCkB.s:3861   .text:00000000000013b4 .LVL302
     /tmp/ccP6cCkB.s:3944   .text:0000000000001490 .LVL311
     /tmp/ccP6cCkB.s:3930   .text:0000000000001480 .LVL310
     /tmp/ccP6cCkB.s:3727   .text:0000000000001274 .LVL291
     /tmp/ccP6cCkB.s:3810   .text:0000000000001350 .LVL300
     /tmp/ccP6cCkB.s:3796   .text:0000000000001340 .LVL299
     /tmp/ccP6cCkB.s:3555   .text:0000000000001118 .LVL276
     /tmp/ccP6cCkB.s:3577   .text:0000000000001148 .LVL277
     /tmp/ccP6cCkB.s:3615   .text:0000000000001184 .LVL283
     /tmp/ccP6cCkB.s:3609   .text:000000000000117c .LVL281
     /tmp/ccP6cCkB.s:3612   .text:0000000000001180 .LVL282
     /tmp/ccP6cCkB.s:3606   .text:0000000000001178 .LVL280
     /tmp/ccP6cCkB.s:1797   .text:00000000000008cc .LVL135
     /tmp/ccP6cCkB.s:1825   .text:00000000000008fc .LVL137
     /tmp/ccP6cCkB.s:1835   .text:0000000000000910 .LVL139
     /tmp/ccP6cCkB.s:1839   .text:0000000000000914 .LVL140
     /tmp/ccP6cCkB.s:1888   .text:000000000000093c .LVL143
     /tmp/ccP6cCkB.s:1885   .text:0000000000000938 .LVL142
     /tmp/ccP6cCkB.s:1891   .text:0000000000000940 .LVL144
     /tmp/ccP6cCkB.s:1816   .text:00000000000008f4 .LVL136
     /tmp/ccP6cCkB.s:1771   .text:00000000000008b0 .LVL133
     /tmp/ccP6cCkB.s:1776   .text:00000000000008b4 .LVL134
     /tmp/ccP6cCkB.s:2354   .text:0000000000000b64 .LVL182
     /tmp/ccP6cCkB.s:2360   .text:0000000000000b74 .LVL183
GAS LISTING /tmp/ccP6cCkB.s 			page 154


     /tmp/ccP6cCkB.s:2425   .text:0000000000000c18 .LVL188
     /tmp/ccP6cCkB.s:2525   .text:0000000000000c84 .LVL192
     /tmp/ccP6cCkB.s:2536   .text:0000000000000c90 .LVL195
     /tmp/ccP6cCkB.s:2531   .text:0000000000000c88 .LVL193
     /tmp/ccP6cCkB.s:2519   .text:0000000000000c78 .LVL191
     /tmp/ccP6cCkB.s:2533   .text:0000000000000c8c .LVL194
     /tmp/ccP6cCkB.s:1704   .text:000000000000085c .LVL126
     /tmp/ccP6cCkB.s:1732   .text:000000000000087c .LVL129
     /tmp/ccP6cCkB.s:1736   .text:0000000000000884 .LVL130
     /tmp/ccP6cCkB.s:1710   .text:0000000000000860 .LVL127
     /tmp/ccP6cCkB.s:1628   .text:00000000000007f4 .LVL118
     /tmp/ccP6cCkB.s:1656   .text:0000000000000814 .LVL121
     /tmp/ccP6cCkB.s:1660   .text:000000000000081c .LVL122
     /tmp/ccP6cCkB.s:1634   .text:00000000000007f8 .LVL119
     /tmp/ccP6cCkB.s:292    .text:0000000000000168 .LVL7
     /tmp/ccP6cCkB.s:305    .text:0000000000000170 .LVL8
     /tmp/ccP6cCkB.s:326    .text:0000000000000178 .LVL9
     /tmp/ccP6cCkB.s:213    .text:0000000000000114 .LVL4
     /tmp/ccP6cCkB.s:224    .text:000000000000011c .LVL5
     /tmp/ccP6cCkB.s:1978   .text:0000000000000988 .LVL146
     /tmp/ccP6cCkB.s:1988   .text:000000000000099c .LVL147
     /tmp/ccP6cCkB.s:2005   .text:00000000000009b0 .LVL149
     /tmp/ccP6cCkB.s:2028   .text:00000000000009c0 .LVL151
     /tmp/ccP6cCkB.s:2042   .text:00000000000009dc .LVL153
     /tmp/ccP6cCkB.s:2053   .text:00000000000009e4 .LVL154
     /tmp/ccP6cCkB.s:172    .text:00000000000000d4 .LVL2
     /tmp/ccP6cCkB.s:1505   .text:0000000000000750 .LVL107
     /tmp/ccP6cCkB.s:1512   .text:0000000000000760 .LVL108
     /tmp/ccP6cCkB.s:1537   .text:0000000000000780 .LVL110
     /tmp/ccP6cCkB.s:1543   .text:0000000000000784 .LVL111
     /tmp/ccP6cCkB.s:1552   .text:000000000000079c .LVL114
     /tmp/ccP6cCkB.s:1420   .text:00000000000006bc .LVL101
     /tmp/ccP6cCkB.s:1464   .text:0000000000000708 .LVL105
     /tmp/ccP6cCkB.s:1348   .text:0000000000000664 .LVL96
     /tmp/ccP6cCkB.s:1355   .text:000000000000066c .LVL97
     /tmp/ccP6cCkB.s:1378   .text:0000000000000688 .LVL99
     /tmp/ccP6cCkB.s:1271   .text:0000000000000604 .LVL89
     /tmp/ccP6cCkB.s:1276   .text:0000000000000608 .LVL90
     /tmp/ccP6cCkB.s:1310   .text:000000000000063c .LVL93
     /tmp/ccP6cCkB.s:1288   .text:0000000000000620 .LVL91
     /tmp/ccP6cCkB.s:1318   .text:0000000000000648 .LVL95
     /tmp/ccP6cCkB.s:1198   .text:00000000000005a8 .LVL82
     /tmp/ccP6cCkB.s:1228   .text:00000000000005c8 .LVL85
     /tmp/ccP6cCkB.s:1232   .text:00000000000005d0 .LVL86
     /tmp/ccP6cCkB.s:1207   .text:00000000000005b0 .LVL83
     /tmp/ccP6cCkB.s:1069   .text:0000000000000514 .LVL68
     /tmp/ccP6cCkB.s:1126   .text:0000000000000560 .LVL75
     /tmp/ccP6cCkB.s:1133   .text:000000000000056c .LVL77
     /tmp/ccP6cCkB.s:1142   .text:0000000000000578 .LVL79
     /tmp/ccP6cCkB.s:1075   .text:0000000000000518 .LVL69
     /tmp/ccP6cCkB.s:1129   .text:0000000000000564 .LVL76
     /tmp/ccP6cCkB.s:1123   .text:000000000000055c .LVL74
     /tmp/ccP6cCkB.s:1139   .text:0000000000000574 .LVL78
     /tmp/ccP6cCkB.s:1102   .text:0000000000000544 .LVL72
     /tmp/ccP6cCkB.s:117    .text:0000000000000080 .LVL0
     /tmp/ccP6cCkB.s:982    .text:00000000000004ac .LVL62
     /tmp/ccP6cCkB.s:1006   .text:00000000000004d0 .LVL65
GAS LISTING /tmp/ccP6cCkB.s 			page 155


     /tmp/ccP6cCkB.s:1028   .text:00000000000004ec .LVL67
     /tmp/ccP6cCkB.s:992    .text:00000000000004bc .LVL63
     /tmp/ccP6cCkB.s:914    .text:0000000000000458 .LVL56
     /tmp/ccP6cCkB.s:922    .text:0000000000000460 .LVL57
     /tmp/ccP6cCkB.s:945    .text:000000000000047c .LVL59
     /tmp/ccP6cCkB.s:772    .text:00000000000003ac .LVL40
     /tmp/ccP6cCkB.s:841    .text:0000000000000410 .LVL48
     /tmp/ccP6cCkB.s:851    .text:0000000000000420 .LVL51
     /tmp/ccP6cCkB.s:778    .text:00000000000003b0 .LVL41
     /tmp/ccP6cCkB.s:838    .text:000000000000040c .LVL47
     /tmp/ccP6cCkB.s:860    .text:000000000000042c .LVL53
     /tmp/ccP6cCkB.s:766    .text:00000000000003a8 .LVL39
     /tmp/ccP6cCkB.s:844    .text:0000000000000414 .LVL49
     /tmp/ccP6cCkB.s:760    .text:00000000000003a4 .LVL38
     /tmp/ccP6cCkB.s:847    .text:0000000000000418 .LVL50
     /tmp/ccP6cCkB.s:835    .text:0000000000000408 .LVL46
     /tmp/ccP6cCkB.s:857    .text:0000000000000428 .LVL52
     /tmp/ccP6cCkB.s:814    .text:00000000000003f0 .LVL44
     /tmp/ccP6cCkB.s:594    .text:00000000000002d8 .LVL21
     /tmp/ccP6cCkB.s:670    .text:0000000000000348 .LVL30
     /tmp/ccP6cCkB.s:680    .text:0000000000000358 .LVL33
     /tmp/ccP6cCkB.s:600    .text:00000000000002dc .LVL22
     /tmp/ccP6cCkB.s:673    .text:000000000000034c .LVL31
     /tmp/ccP6cCkB.s:588    .text:00000000000002d4 .LVL20
     /tmp/ccP6cCkB.s:667    .text:0000000000000344 .LVL29
     /tmp/ccP6cCkB.s:689    .text:0000000000000364 .LVL35
     /tmp/ccP6cCkB.s:582    .text:00000000000002d0 .LVL19
     /tmp/ccP6cCkB.s:676    .text:0000000000000350 .LVL32
     /tmp/ccP6cCkB.s:664    .text:0000000000000340 .LVL28
     /tmp/ccP6cCkB.s:686    .text:0000000000000360 .LVL34
     /tmp/ccP6cCkB.s:643    .text:0000000000000328 .LVL26
     /tmp/ccP6cCkB.s:537    .text:000000000000029c .LVL17
     /tmp/ccP6cCkB.s:507    .text:000000000000027c .LVL15
     /tmp/ccP6cCkB.s:455    .text:0000000000000234 .LVL12
     /tmp/ccP6cCkB.s:2620   .text:0000000000000cc0 .LVL198
     /tmp/ccP6cCkB.s:3034   .text:0000000000000e98 .LVL222
     /tmp/ccP6cCkB.s:3038   .text:0000000000000ea0 .LVL223
     /tmp/ccP6cCkB.s:2861   .text:0000000000000e3c .LVL214
     /tmp/ccP6cCkB.s:2867   .text:0000000000000e48 .LVL215
     /tmp/ccP6cCkB.s:2989   .text:0000000000000e78 .LVL217
     /tmp/ccP6cCkB.s:2998   .text:0000000000000e7c .LVL218
     /tmp/ccP6cCkB.s:3005   .text:0000000000000e80 .LVL219
     /tmp/ccP6cCkB.s:3014   .text:0000000000000e84 .LVL220
     /tmp/ccP6cCkB.s:3312   .text:0000000000001000 .LVL251
     /tmp/ccP6cCkB.s:3230   .text:0000000000000f94 .LVL244
     /tmp/ccP6cCkB.s:3240   .text:0000000000000f9c .LVL245
     /tmp/ccP6cCkB.s:3273   .text:0000000000000fe4 .LVL247
     /tmp/ccP6cCkB.s:3282   .text:0000000000000fe8 .LVL248
     /tmp/ccP6cCkB.s:3289   .text:0000000000000fec .LVL249
     /tmp/ccP6cCkB.s:3301   .text:0000000000000ff4 .LVL250
     /tmp/ccP6cCkB.s:3366   .text:0000000000001030 .LVL255
     /tmp/ccP6cCkB.s:3389   .text:0000000000001040 .LVL257
     /tmp/ccP6cCkB.s:3399   .text:0000000000001050 .LVL258
     /tmp/ccP6cCkB.s:3422   .text:0000000000001068 .LVL260
     /tmp/ccP6cCkB.s:3418   .text:0000000000001060 .LVL259
     /tmp/ccP6cCkB.s:3426   .text:0000000000001070 .LVL261
     /tmp/ccP6cCkB.s:3467   .text:0000000000001094 .LVL267
GAS LISTING /tmp/ccP6cCkB.s 			page 156


     /tmp/ccP6cCkB.s:3439   .text:0000000000001084 .LVL264
     /tmp/ccP6cCkB.s:3448   .text:0000000000001088 .LVL265
     /tmp/ccP6cCkB.s:3455   .text:000000000000108c .LVL266
     /tmp/ccP6cCkB.s:3494   .text:00000000000010bc .LVL270
     /tmp/ccP6cCkB.s:2727   .text:0000000000000d5c .LVL201
     /tmp/ccP6cCkB.s:2735   .text:0000000000000d68 .LVL202
     /tmp/ccP6cCkB.s:2786   .text:0000000000000de4 .LVL209
     /tmp/ccP6cCkB.s:4033   .text:000000000000152c .LVL322
     /tmp/ccP6cCkB.s:4039   .text:0000000000001530 .LVL323
     /tmp/ccP6cCkB.s:4051   .text:0000000000001540 .LVL325
     /tmp/ccP6cCkB.s:4044   .text:000000000000153c .LVL324
     /tmp/ccP6cCkB.s:4067   .text:0000000000001548 .LVL326
     /tmp/ccP6cCkB.s:4083   .text:0000000000001550 .LVL327
     /tmp/ccP6cCkB.s:4098   .text:0000000000001554 .LVL328
     /tmp/ccP6cCkB.s:4158   .debug_info:0000000000000000 .Ldebug_info0
     /tmp/ccP6cCkB.s:290    .text:0000000000000168 .LBE113
     /tmp/ccP6cCkB.s:293    .text:0000000000000168 .LBB123
     /tmp/ccP6cCkB.s:312    .text:0000000000000170 .LBE123
     /tmp/ccP6cCkB.s:314    .text:0000000000000170 .LBB124
     /tmp/ccP6cCkB.s:333    .text:0000000000000178 .LBE124
     /tmp/ccP6cCkB.s:1990   .text:000000000000099c .LBB128
     /tmp/ccP6cCkB.s:1998   .text:00000000000009a4 .LBE128
     /tmp/ccP6cCkB.s:2000   .text:00000000000009a4 .LBB132
     /tmp/ccP6cCkB.s:2079   .text:0000000000000a10 .LBE132
     /tmp/ccP6cCkB.s:2266   .text:0000000000000afc .LBB137
     /tmp/ccP6cCkB.s:2281   .text:0000000000000b10 .LBE137
     /tmp/ccP6cCkB.s:2285   .text:0000000000000b10 .LBB138
     /tmp/ccP6cCkB.s:2290   .text:0000000000000b18 .LBE138
     /tmp/ccP6cCkB.s:2296   .text:0000000000000b1c .LBB142
     /tmp/ccP6cCkB.s:2311   .text:0000000000000b30 .LBE142
     /tmp/ccP6cCkB.s:2315   .text:0000000000000b30 .LBB143
     /tmp/ccP6cCkB.s:2320   .text:0000000000000b38 .LBE143
     /tmp/ccP6cCkB.s:3392   .text:0000000000001044 .LBB173
     /tmp/ccP6cCkB.s:3428   .text:0000000000001070 .LBE173
     /tmp/ccP6cCkB.s:3472   .text:0000000000001094 .LBB174
     /tmp/ccP6cCkB.s:3485   .text:00000000000010b0 .LBE174
     /tmp/ccP6cCkB.s:2806   .text:0000000000000e08 .LBB199
     /tmp/ccP6cCkB.s:3019   .text:0000000000000e84 .LBE199
     /tmp/ccP6cCkB.s:3042   .text:0000000000000ea0 .LBB208
     /tmp/ccP6cCkB.s:3192   .text:0000000000000f84 .LBE208
     /tmp/ccP6cCkB.s:4071   .text:0000000000001548 .LBE223
     /tmp/ccP6cCkB.s:4073   .text:0000000000001548 .LBB230
     /tmp/ccP6cCkB.s:4087   .text:0000000000001550 .LBE230
     /tmp/ccP6cCkB.s:4089   .text:0000000000001550 .LBB231
     /tmp/ccP6cCkB.s:4102   .text:0000000000001554 .LBE231
     /tmp/ccP6cCkB.s:703    .gcc_except_table:0000000000000000 .LLSDA53
     /tmp/ccP6cCkB.s:873    .gcc_except_table:0000000000000038 .LLSDA54
     /tmp/ccP6cCkB.s:1155   .gcc_except_table:0000000000000063 .LLSDA58
     /tmp/ccP6cCkB.s:2550   .gcc_except_table:000000000000008e .LLSDA72

UNDEFINED SYMBOLS
_Z21popSppSpieUserWrapperPFvPvES_
_ZN3TCB7runningE
_ZN3TCB8dispatchEv
_ZN11ConsoleUtil11pendingPutcE
_ZN11ConsoleUtil9putOutputEc
_ZN11ConsoleUtil11pendingGetcE
GAS LISTING /tmp/ccP6cCkB.s 			page 157


_ZN9Scheduler9readyHeadE
_ZN3TCB10putcThreadE
_ZN9Scheduler3putEP3TCB
_ZN11ConsoleUtil10outputHeadE
_ZN11ConsoleUtil10outputTailE
_ZN15MemoryAllocator7kmallocEm
_ZN15MemoryAllocator11initializedE
_ZN15MemoryAllocator5kfreeEPv
_ZN3TCBnwEm
_ZN3TCBC1EPFvPvES0_Pmm
_ZN3TCBdlEPv
_Unwind_Resume
__gxx_personality_v0
_ZN3SCBnwEm
_ZN3SCBC1Em
_ZN3SCBdlEPv
_ZN3SCBD1Ev
_ZN3SCB4waitEv
_ZN3SCB6signalEv
_ZN9Scheduler5sleepEP3TCB
_ZN11ConsoleUtil8getInputEv
_ZN11ConsoleUtil9getOutputEv
_Z5kfreePKv
_ZN3TCBD1Ev
_ZN3TCB9currentPCE
CONSOLE_STATUS
_ZN11ConsoleUtil15putcUtilSyscallEv
CONSOLE_RX_DATA
_ZN5Buddy5allocEm
_ZN15MemoryAllocator6memcpyEPvS0_m
_ZN3TCB9currentSPE
_ZN11ConsoleUtil11printStringEPKc
_ZN11ConsoleUtil8printIntEiii
_ZN11ConsoleUtil5printEPKciS1_i
_ZN9Scheduler5awakeEv
_ZN3TCB16timeSliceCounterE
CONSOLE_TX_DATA
plic_claim
plic_complete
_ZN11ConsoleUtil8putInputEc
_ZN5Buddy16BLOCKS_AVAILABLEE
_ZN5Buddy16BUDDY_START_ADDRE
kernelTextEnd
userTextStart
userDataStart
userDataEnd
HEAP_END_ADDR
_ZN5RiscV14supervisorTrapEv
HEAP_START_ADDR
_Z9kmem_initPvi
_ZN15MemoryAllocator10initializeEv
_ZN9Scheduler10initializeEv
_ZN3TCB10initializeEv
_ZN3SCB10initializeEv
_ZN11ConsoleUtil10initializeEv
