GAS LISTING /tmp/ccAbMSjc.s 			page 1


   1              		.file	"riscv.cpp"
   2              		.option pic
   3              		.option norelax
   4              		.text
   5              	.Ltext0:
   6              		.align	2
   7              		.globl	_ZN5RiscV6getPMTEv
   9              	_ZN5RiscV6getPMTEv:
  10              	.LFB42:
  11              		.file 1 "src/kernel/riscv.cpp"
   1:src/kernel/riscv.cpp **** //
   2:src/kernel/riscv.cpp **** // Created by os on 4/28/22.
   3:src/kernel/riscv.cpp **** //
   4:src/kernel/riscv.cpp **** 
   5:src/kernel/riscv.cpp **** #include "../../h/riscv.hpp"
   6:src/kernel/riscv.cpp **** #include "../../h/memoryAllocator.hpp"
   7:src/kernel/riscv.cpp **** #include "../../h/tcb.hpp"
   8:src/kernel/riscv.cpp **** #include "../../h/scheduler.hpp"
   9:src/kernel/riscv.cpp **** #include "../../h/printing.hpp"
  10:src/kernel/riscv.cpp **** #include "../../h/scb.hpp"
  11:src/kernel/riscv.cpp **** #include "../../h/tcbWrapperUtil.hpp"
  12:src/kernel/riscv.cpp **** 
  13:src/kernel/riscv.cpp **** uint64 RiscV::globalTime = 0;
  14:src/kernel/riscv.cpp **** bool RiscV::userMainFinished = false;
  15:src/kernel/riscv.cpp **** void* RiscV::kPMT = nullptr;
  16:src/kernel/riscv.cpp **** void* RiscV::uPMT = nullptr;
  17:src/kernel/riscv.cpp **** extern char *userTextStart;
  18:src/kernel/riscv.cpp **** extern char *userDataStart;
  19:src/kernel/riscv.cpp **** extern char *userDataEnd;
  20:src/kernel/riscv.cpp **** extern char *kernelTextEnd;
  21:src/kernel/riscv.cpp **** 
  22:src/kernel/riscv.cpp **** void* RiscV::getPMT(){
  12              		.loc 1 22 22
  13              		.cfi_startproc
  14 0000 130101FF 		addi	sp,sp,-16
  15              		.cfi_def_cfa_offset 16
  16 0004 23341100 		sd	ra,8(sp)
  17 0008 23308100 		sd	s0,0(sp)
  18              		.cfi_offset 1, -8
  19              		.cfi_offset 8, -16
  20 000c 13040101 		addi	s0,sp,16
  21              		.cfi_def_cfa 8, 0
  23:src/kernel/riscv.cpp ****     void* ret = Buddy::alloc(1);
  22              		.loc 1 23 5
  23              		.loc 1 23 29 is_stmt 0
  24 0010 13051000 		li	a0,1
  25 0014 97000000 		call	_ZN5Buddy5allocEm@plt
  25      E7800000 
  26              	.LVL0:
  24:src/kernel/riscv.cpp ****     uint64* arr = (uint64*)ret;
  27              		.loc 1 24 5 is_stmt 1
  25:src/kernel/riscv.cpp ****     for(int i=0;i<512;i++)
  28              		.loc 1 25 5
  29              	.LBB98:
  30              		.loc 1 25 13 is_stmt 0
  31 001c 93070000 		li	a5,0
  32              	.LVL1:
GAS LISTING /tmp/ccAbMSjc.s 			page 2


  33              	.L3:
  34              		.loc 1 25 18 is_stmt 1 discriminator 3
  35 0020 1307F01F 		li	a4,511
  36 0024 634CF700 		bgt	a5,a4,.L1
  26:src/kernel/riscv.cpp ****         arr[i] = 0;
  37              		.loc 1 26 9 discriminator 2
  38              		.loc 1 26 14 is_stmt 0 discriminator 2
  39 0028 13973700 		slli	a4,a5,3
  40 002c 3307E500 		add	a4,a0,a4
  41              		.loc 1 26 16 discriminator 2
  42 0030 23300700 		sd	zero,0(a4)
  25:src/kernel/riscv.cpp ****     for(int i=0;i<512;i++)
  43              		.loc 1 25 5 is_stmt 1 discriminator 2
  44 0034 9B871700 		addiw	a5,a5,1
  45              	.LVL2:
  46 0038 6FF09FFE 		j	.L3
  47              	.LVL3:
  48              	.L1:
  49              	.LBE98:
  27:src/kernel/riscv.cpp ****     return ret;
  28:src/kernel/riscv.cpp **** }
  50              		.loc 1 28 1 is_stmt 0
  51 003c 83308100 		ld	ra,8(sp)
  52              		.cfi_restore 1
  53 0040 03340100 		ld	s0,0(sp)
  54              		.cfi_restore 8
  55              		.cfi_def_cfa 2, 16
  56 0044 13010101 		addi	sp,sp,16
  57              		.cfi_def_cfa_offset 0
  58 0048 67800000 		jr	ra
  59              		.cfi_endproc
  60              	.LFE42:
  62              		.align	2
  63              		.globl	_ZN5RiscV15handlePageFaultEPvmm
  65              	_ZN5RiscV15handlePageFaultEPvmm:
  66              	.LFB43:
  29:src/kernel/riscv.cpp **** 
  30:src/kernel/riscv.cpp **** void RiscV::handlePageFault(void* PMT, uint64 addr, uint64 mask){
  67              		.loc 1 30 65 is_stmt 1
  68              		.cfi_startproc
  69              	.LVL4:
  70 004c 130101FC 		addi	sp,sp,-64
  71              		.cfi_def_cfa_offset 64
  72 0050 233C1102 		sd	ra,56(sp)
  73 0054 23388102 		sd	s0,48(sp)
  74 0058 23349102 		sd	s1,40(sp)
  75 005c 23302103 		sd	s2,32(sp)
  76 0060 233C3101 		sd	s3,24(sp)
  77 0064 23384101 		sd	s4,16(sp)
  78 0068 23345101 		sd	s5,8(sp)
  79              		.cfi_offset 1, -8
  80              		.cfi_offset 8, -16
  81              		.cfi_offset 9, -24
  82              		.cfi_offset 18, -32
  83              		.cfi_offset 19, -40
  84              		.cfi_offset 20, -48
  85              		.cfi_offset 21, -56
GAS LISTING /tmp/ccAbMSjc.s 			page 3


  86 006c 13040104 		addi	s0,sp,64
  87              		.cfi_def_cfa 8, 0
  88 0070 93090600 		mv	s3,a2
  31:src/kernel/riscv.cpp ****     uint64 pmt2Entry = (addr >> 30) & (0x1ff);;
  89              		.loc 1 31 5
  90              		.loc 1 31 30 is_stmt 0
  91 0074 93D7E501 		srli	a5,a1,30
  92              		.loc 1 31 12
  93 0078 93F7F71F 		andi	a5,a5,511
  94              	.LVL5:
  95              		.loc 1 31 47 is_stmt 1
  32:src/kernel/riscv.cpp ****     uint64 pmt1Entry = (addr >> 21) & (0x1ff);
  96              		.loc 1 32 5
  97              		.loc 1 32 30 is_stmt 0
  98 007c 13D95501 		srli	s2,a1,21
  99              		.loc 1 32 12
 100 0080 1379F91F 		andi	s2,s2,511
 101              	.LVL6:
  33:src/kernel/riscv.cpp ****     uint64 pmt0Entry = (addr >> 12) & (0x1ff);
 102              		.loc 1 33 5 is_stmt 1
 103              		.loc 1 33 30 is_stmt 0
 104 0084 93D4C500 		srli	s1,a1,12
 105              		.loc 1 33 12
 106 0088 13FAF41F 		andi	s4,s1,511
 107              	.LVL7:
  34:src/kernel/riscv.cpp ****     uint64 pmt2Desc = ((uint64*)PMT)[pmt2Entry];
 108              		.loc 1 34 5 is_stmt 1
 109              		.loc 1 34 47 is_stmt 0
 110 008c 93973700 		slli	a5,a5,3
 111              	.LVL8:
 112 0090 B30AF500 		add	s5,a0,a5
 113              		.loc 1 34 12
 114 0094 83B70A00 		ld	a5,0(s5)
 115              	.LVL9:
  35:src/kernel/riscv.cpp ****     void* pmt1 = nullptr;
 116              		.loc 1 35 5 is_stmt 1
  36:src/kernel/riscv.cpp ****     if(pmt2Desc == 0){
 117              		.loc 1 36 5
 118 0098 63820706 		beqz	a5,.L12
  37:src/kernel/riscv.cpp ****         pmt1 = RiscV::getPMT();
  38:src/kernel/riscv.cpp ****         ((uint64*)PMT)[pmt2Entry] = (((uint64)pmt1 >> 12) << 10) | (uint64)1;
  39:src/kernel/riscv.cpp ****     }
  40:src/kernel/riscv.cpp ****     else
  41:src/kernel/riscv.cpp ****         pmt1 = (void*)((pmt2Desc >> 10) << 12);
 119              		.loc 1 41 9
 120              		.loc 1 41 34 is_stmt 0
 121 009c 13D5A700 		srli	a0,a5,10
 122              	.LVL10:
 123              		.loc 1 41 41
 124 00a0 1315C500 		slli	a0,a0,12
 125              	.LVL11:
 126              	.L7:
  42:src/kernel/riscv.cpp ****     uint64 pmt1Desc = ((uint64*)pmt1)[pmt1Entry];
 127              		.loc 1 42 5 is_stmt 1
 128              		.loc 1 42 48 is_stmt 0
 129 00a4 13193900 		slli	s2,s2,3
 130              	.LVL12:
GAS LISTING /tmp/ccAbMSjc.s 			page 4


 131 00a8 33092501 		add	s2,a0,s2
 132              		.loc 1 42 12
 133 00ac 03350900 		ld	a0,0(s2)
 134              	.LVL13:
  43:src/kernel/riscv.cpp ****     void* pmt0 = nullptr;
 135              		.loc 1 43 5 is_stmt 1
  44:src/kernel/riscv.cpp ****     if(pmt1Desc == 0){
 136              		.loc 1 44 5
 137 00b0 63040506 		beqz	a0,.L13
  45:src/kernel/riscv.cpp ****         pmt0 = RiscV::getPMT();
  46:src/kernel/riscv.cpp ****         ((uint64*)pmt1)[pmt1Entry] = (((uint64)pmt0 >> 12) << 10) | (uint64)1;
  47:src/kernel/riscv.cpp ****     }
  48:src/kernel/riscv.cpp ****     else
  49:src/kernel/riscv.cpp ****         pmt0 = (void*)((pmt1Desc >> 10) << 12);
 138              		.loc 1 49 9
 139              		.loc 1 49 34 is_stmt 0
 140 00b4 1355A500 		srli	a0,a0,10
 141              	.LVL14:
 142              		.loc 1 49 41
 143 00b8 1315C500 		slli	a0,a0,12
 144              	.LVL15:
 145              	.L9:
  50:src/kernel/riscv.cpp ****     uint64 pmt0Desc = ((uint64*)pmt0)[pmt0Entry];
 146              		.loc 1 50 5 is_stmt 1
 147              		.loc 1 50 48 is_stmt 0
 148 00bc 131A3A00 		slli	s4,s4,3
 149              	.LVL16:
 150 00c0 33054501 		add	a0,a0,s4
 151              	.LVL17:
 152              		.loc 1 50 12
 153 00c4 83370500 		ld	a5,0(a0)
 154              	.LVL18:
  51:src/kernel/riscv.cpp ****     if(pmt0Desc == 0) {
 155              		.loc 1 51 5 is_stmt 1
 156 00c8 63980700 		bnez	a5,.L5
  52:src/kernel/riscv.cpp ****         ((uint64 *) pmt0)[pmt0Entry] = ((addr >> 12) << 10) | mask;
 157              		.loc 1 52 9
 158              		.loc 1 52 54 is_stmt 0
 159 00cc 9394A400 		slli	s1,s1,10
 160              	.LVL19:
 161              		.loc 1 52 61
 162 00d0 B3E93401 		or	s3,s1,s3
 163              	.LVL20:
 164              		.loc 1 52 38
 165 00d4 23303501 		sd	s3,0(a0)
 166              	.L5:
  53:src/kernel/riscv.cpp ****     }
  54:src/kernel/riscv.cpp **** }
 167              		.loc 1 54 1
 168 00d8 83308103 		ld	ra,56(sp)
 169              		.cfi_remember_state
 170              		.cfi_restore 1
 171 00dc 03340103 		ld	s0,48(sp)
 172              		.cfi_restore 8
 173              		.cfi_def_cfa 2, 64
 174 00e0 83348102 		ld	s1,40(sp)
 175              		.cfi_restore 9
GAS LISTING /tmp/ccAbMSjc.s 			page 5


 176 00e4 03390102 		ld	s2,32(sp)
 177              		.cfi_restore 18
 178 00e8 83398101 		ld	s3,24(sp)
 179              		.cfi_restore 19
 180 00ec 033A0101 		ld	s4,16(sp)
 181              		.cfi_restore 20
 182 00f0 833A8100 		ld	s5,8(sp)
 183              		.cfi_restore 21
 184 00f4 13010104 		addi	sp,sp,64
 185              		.cfi_def_cfa_offset 0
 186 00f8 67800000 		jr	ra
 187              	.LVL21:
 188              	.L12:
 189              		.cfi_restore_state
  37:src/kernel/riscv.cpp ****         ((uint64*)PMT)[pmt2Entry] = (((uint64)pmt1 >> 12) << 10) | (uint64)1;
 190              		.loc 1 37 9 is_stmt 1
  37:src/kernel/riscv.cpp ****         ((uint64*)PMT)[pmt2Entry] = (((uint64)pmt1 >> 12) << 10) | (uint64)1;
 191              		.loc 1 37 29 is_stmt 0
 192 00fc 97000000 		call	_ZN5RiscV6getPMTEv
 192      E7800000 
 193              	.LVL22:
  38:src/kernel/riscv.cpp ****     }
 194              		.loc 1 38 9 is_stmt 1
  38:src/kernel/riscv.cpp ****     }
 195              		.loc 1 38 52 is_stmt 0
 196 0104 9357C500 		srli	a5,a0,12
  38:src/kernel/riscv.cpp ****     }
 197              		.loc 1 38 59
 198 0108 9397A700 		slli	a5,a5,10
  38:src/kernel/riscv.cpp ****     }
 199              		.loc 1 38 66
 200 010c 93E71700 		ori	a5,a5,1
  38:src/kernel/riscv.cpp ****     }
 201              		.loc 1 38 35
 202 0110 23B0FA00 		sd	a5,0(s5)
 203 0114 6FF01FF9 		j	.L7
 204              	.LVL23:
 205              	.L13:
  45:src/kernel/riscv.cpp ****         ((uint64*)pmt1)[pmt1Entry] = (((uint64)pmt0 >> 12) << 10) | (uint64)1;
 206              		.loc 1 45 9 is_stmt 1
  45:src/kernel/riscv.cpp ****         ((uint64*)pmt1)[pmt1Entry] = (((uint64)pmt0 >> 12) << 10) | (uint64)1;
 207              		.loc 1 45 29 is_stmt 0
 208 0118 97000000 		call	_ZN5RiscV6getPMTEv
 208      E7800000 
 209              	.LVL24:
  46:src/kernel/riscv.cpp ****     }
 210              		.loc 1 46 9 is_stmt 1
  46:src/kernel/riscv.cpp ****     }
 211              		.loc 1 46 53 is_stmt 0
 212 0120 9357C500 		srli	a5,a0,12
  46:src/kernel/riscv.cpp ****     }
 213              		.loc 1 46 60
 214 0124 9397A700 		slli	a5,a5,10
  46:src/kernel/riscv.cpp ****     }
 215              		.loc 1 46 67
 216 0128 93E71700 		ori	a5,a5,1
  46:src/kernel/riscv.cpp ****     }
GAS LISTING /tmp/ccAbMSjc.s 			page 6


 217              		.loc 1 46 36
 218 012c 2330F900 		sd	a5,0(s2)
 219 0130 6FF0DFF8 		j	.L9
 220              		.cfi_endproc
 221              	.LFE43:
 223              		.align	2
 224              		.globl	_ZN5RiscV10initializeEv
 226              	_ZN5RiscV10initializeEv:
 227              	.LFB44:
  55:src/kernel/riscv.cpp **** //initailize each of the key components and switch to user mode for user code execution
  56:src/kernel/riscv.cpp **** void RiscV::initialize(){
 228              		.loc 1 56 25 is_stmt 1
 229              		.cfi_startproc
 230 0134 130101FB 		addi	sp,sp,-80
 231              		.cfi_def_cfa_offset 80
 232 0138 23341104 		sd	ra,72(sp)
 233 013c 23308104 		sd	s0,64(sp)
 234 0140 233C9102 		sd	s1,56(sp)
 235 0144 23382103 		sd	s2,48(sp)
 236 0148 23343103 		sd	s3,40(sp)
 237 014c 23304103 		sd	s4,32(sp)
 238 0150 233C5101 		sd	s5,24(sp)
 239 0154 23386101 		sd	s6,16(sp)
 240 0158 23347101 		sd	s7,8(sp)
 241 015c 23308101 		sd	s8,0(sp)
 242              		.cfi_offset 1, -8
 243              		.cfi_offset 8, -16
 244              		.cfi_offset 9, -24
 245              		.cfi_offset 18, -32
 246              		.cfi_offset 19, -40
 247              		.cfi_offset 20, -48
 248              		.cfi_offset 21, -56
 249              		.cfi_offset 22, -64
 250              		.cfi_offset 23, -72
 251              		.cfi_offset 24, -80
 252 0160 13040105 		addi	s0,sp,80
 253              		.cfi_def_cfa 8, 0
  57:src/kernel/riscv.cpp ****     RiscV::w_stvec((uint64) &RiscV::supervisorTrap);
 254              		.loc 1 57 5
 255              		.loc 1 57 19 is_stmt 0
 256 0164 97070000 		la	a5,_ZN5RiscV14supervisorTrapEv
 256      83B70700 
 257              	.LVL25:
 258              	.LBB99:
 259              	.LBB100:
 260              		.file 2 "src/kernel/../../h/riscv.hpp"
   1:src/kernel/../../h/riscv.hpp **** //
   2:src/kernel/../../h/riscv.hpp **** // Created by os on 4/28/22.
   3:src/kernel/../../h/riscv.hpp **** //
   4:src/kernel/../../h/riscv.hpp **** 
   5:src/kernel/../../h/riscv.hpp **** #ifndef OS1_KERNEL_RISCV_HPP
   6:src/kernel/../../h/riscv.hpp **** #define OS1_KERNEL_RISCV_HPP
   7:src/kernel/../../h/riscv.hpp **** #include "../lib/hw.h"
   8:src/kernel/../../h/riscv.hpp **** class TCB;
   9:src/kernel/../../h/riscv.hpp **** 
  10:src/kernel/../../h/riscv.hpp **** class RiscV{
  11:src/kernel/../../h/riscv.hpp **** 
GAS LISTING /tmp/ccAbMSjc.s 			page 7


  12:src/kernel/../../h/riscv.hpp ****     static uint64 globalTime;
  13:src/kernel/../../h/riscv.hpp **** 
  14:src/kernel/../../h/riscv.hpp ****     static void* kPMT;
  15:src/kernel/../../h/riscv.hpp ****     static void* uPMT;
  16:src/kernel/../../h/riscv.hpp **** 
  17:src/kernel/../../h/riscv.hpp ****     static bool userMainFinished;
  18:src/kernel/../../h/riscv.hpp **** 
  19:src/kernel/../../h/riscv.hpp ****     enum BitMaskSstatus{
  20:src/kernel/../../h/riscv.hpp ****         SSTATUS_SIE = (1<<1),
  21:src/kernel/../../h/riscv.hpp ****         SSTATUS_SPIE = (1<<5),
  22:src/kernel/../../h/riscv.hpp ****         SSTATUS_SPP = (1<<8),
  23:src/kernel/../../h/riscv.hpp ****     };
  24:src/kernel/../../h/riscv.hpp **** 
  25:src/kernel/../../h/riscv.hpp ****     enum BitMaskSip{
  26:src/kernel/../../h/riscv.hpp ****         SIP_SSIE = (1<<1),
  27:src/kernel/../../h/riscv.hpp ****         SIP_STIE = (1<<5),
  28:src/kernel/../../h/riscv.hpp ****         SIP_SEIE = (1<<9),
  29:src/kernel/../../h/riscv.hpp ****     };
  30:src/kernel/../../h/riscv.hpp **** 
  31:src/kernel/../../h/riscv.hpp ****     static void executeMemAllocSyscall();   //wrapper function for moving parameters and calling Me
  32:src/kernel/../../h/riscv.hpp **** 
  33:src/kernel/../../h/riscv.hpp ****     static void executeMemFreeSyscall();    //wrapper function for moving parameters and calling Me
  34:src/kernel/../../h/riscv.hpp **** 
  35:src/kernel/../../h/riscv.hpp ****     static void executeThreadCreateSyscall();
  36:src/kernel/../../h/riscv.hpp **** 
  37:src/kernel/../../h/riscv.hpp ****     static void executeThreadExitSyscall();
  38:src/kernel/../../h/riscv.hpp **** 
  39:src/kernel/../../h/riscv.hpp ****     static void executeThreadDispatchSyscall();
  40:src/kernel/../../h/riscv.hpp **** 
  41:src/kernel/../../h/riscv.hpp ****     static void executeThreadAttachBodySyscall();
  42:src/kernel/../../h/riscv.hpp **** 
  43:src/kernel/../../h/riscv.hpp ****     static void executeThreadStartSyscall();
  44:src/kernel/../../h/riscv.hpp **** 
  45:src/kernel/../../h/riscv.hpp ****     static void executeSemOpenSyscall();
  46:src/kernel/../../h/riscv.hpp **** 
  47:src/kernel/../../h/riscv.hpp ****     static void executeSemCloseSyscall();
  48:src/kernel/../../h/riscv.hpp **** 
  49:src/kernel/../../h/riscv.hpp ****     static void executeSemWaitSyscall();
  50:src/kernel/../../h/riscv.hpp **** 
  51:src/kernel/../../h/riscv.hpp ****     static void executeSemSignalSyscall();
  52:src/kernel/../../h/riscv.hpp **** 
  53:src/kernel/../../h/riscv.hpp ****     static void executeTimeSleepSyscall();
  54:src/kernel/../../h/riscv.hpp **** 
  55:src/kernel/../../h/riscv.hpp ****     static void executeGetcSyscall();
  56:src/kernel/../../h/riscv.hpp **** 
  57:src/kernel/../../h/riscv.hpp ****     static void executePutcSyscall();
  58:src/kernel/../../h/riscv.hpp **** 
  59:src/kernel/../../h/riscv.hpp ****     static void executePutcUtilSyscall();
  60:src/kernel/../../h/riscv.hpp **** 
  61:src/kernel/../../h/riscv.hpp ****     static void executeThreadFreeSyscall();
  62:src/kernel/../../h/riscv.hpp **** 
  63:src/kernel/../../h/riscv.hpp ****     static void executeSemaphoreFreeSyscall();
  64:src/kernel/../../h/riscv.hpp **** 
  65:src/kernel/../../h/riscv.hpp ****     static void executeForkSyscall();
  66:src/kernel/../../h/riscv.hpp **** 
  67:src/kernel/../../h/riscv.hpp ****     static void putcWrapper(void *arg);
  68:src/kernel/../../h/riscv.hpp **** 
GAS LISTING /tmp/ccAbMSjc.s 			page 8


  69:src/kernel/../../h/riscv.hpp ****     static void threadCreateUtil(TCB** handle, void(*start_routine)(void*), void *arg);
  70:src/kernel/../../h/riscv.hpp **** 
  71:src/kernel/../../h/riscv.hpp ****     static void threadExitUtil();
  72:src/kernel/../../h/riscv.hpp **** 
  73:src/kernel/../../h/riscv.hpp ****     static uint64 r_scause();
  74:src/kernel/../../h/riscv.hpp **** 
  75:src/kernel/../../h/riscv.hpp ****     static void w_scause(uint64 scause);
  76:src/kernel/../../h/riscv.hpp **** 
  77:src/kernel/../../h/riscv.hpp ****     static uint64 r_sepc();
  78:src/kernel/../../h/riscv.hpp **** 
  79:src/kernel/../../h/riscv.hpp ****     static void w_sepc(uint64 sepc);
  80:src/kernel/../../h/riscv.hpp **** 
  81:src/kernel/../../h/riscv.hpp ****     static uint64 r_stvec();
  82:src/kernel/../../h/riscv.hpp **** 
  83:src/kernel/../../h/riscv.hpp ****     static void w_stvec(uint64 stvec);
  84:src/kernel/../../h/riscv.hpp **** 
  85:src/kernel/../../h/riscv.hpp ****     static uint64 r_sstatus();
  86:src/kernel/../../h/riscv.hpp **** 
  87:src/kernel/../../h/riscv.hpp ****     static void w_sstatus(uint64 sstatus);
  88:src/kernel/../../h/riscv.hpp **** 
  89:src/kernel/../../h/riscv.hpp ****     static void ms_sstatus(uint64 mask);
  90:src/kernel/../../h/riscv.hpp **** 
  91:src/kernel/../../h/riscv.hpp ****     static void mc_sstatus(uint64 mask);
  92:src/kernel/../../h/riscv.hpp **** 
  93:src/kernel/../../h/riscv.hpp ****     static void ms_sip(uint64 mask);
  94:src/kernel/../../h/riscv.hpp **** 
  95:src/kernel/../../h/riscv.hpp ****     static void mc_sip(uint64 mask);
  96:src/kernel/../../h/riscv.hpp **** 
  97:src/kernel/../../h/riscv.hpp ****     static void ms_sie(uint64 mask);
  98:src/kernel/../../h/riscv.hpp **** 
  99:src/kernel/../../h/riscv.hpp ****     static void mc_sie(uint64 mask);
 100:src/kernel/../../h/riscv.hpp **** 
 101:src/kernel/../../h/riscv.hpp ****     static void saveA0toSscratch();
 102:src/kernel/../../h/riscv.hpp **** 
 103:src/kernel/../../h/riscv.hpp ****     static void jumpToDesignatedPrivilegeMode();
 104:src/kernel/../../h/riscv.hpp **** 
 105:src/kernel/../../h/riscv.hpp ****     static void popSppSpie();
 106:src/kernel/../../h/riscv.hpp **** 
 107:src/kernel/../../h/riscv.hpp ****     static void popSppSpie2();
 108:src/kernel/../../h/riscv.hpp **** 
 109:src/kernel/../../h/riscv.hpp ****     static void getPC();
 110:src/kernel/../../h/riscv.hpp **** 
 111:src/kernel/../../h/riscv.hpp ****     static void supervisorTrap();      //supervisorTrap defined in /src/supervisorTrap.S
 112:src/kernel/../../h/riscv.hpp **** 
 113:src/kernel/../../h/riscv.hpp ****     static void handleSupervisorTrap();
 114:src/kernel/../../h/riscv.hpp **** 
 115:src/kernel/../../h/riscv.hpp ****     static void enableInterrupts();
 116:src/kernel/../../h/riscv.hpp **** 
 117:src/kernel/../../h/riscv.hpp ****     static void disableInterrupts();
 118:src/kernel/../../h/riscv.hpp **** 
 119:src/kernel/../../h/riscv.hpp ****     static void enableHardwareInterrupts();
 120:src/kernel/../../h/riscv.hpp **** 
 121:src/kernel/../../h/riscv.hpp ****     static void disableHardwareInterrupts();
 122:src/kernel/../../h/riscv.hpp **** 
 123:src/kernel/../../h/riscv.hpp ****     static void enableTimerInterrupts();
 124:src/kernel/../../h/riscv.hpp **** 
 125:src/kernel/../../h/riscv.hpp ****     static void disableTimerInterrupts();
GAS LISTING /tmp/ccAbMSjc.s 			page 9


 126:src/kernel/../../h/riscv.hpp **** 
 127:src/kernel/../../h/riscv.hpp ****     static void handlePageFault(void* PMT,uint64 addr, uint64 mask);
 128:src/kernel/../../h/riscv.hpp **** 
 129:src/kernel/../../h/riscv.hpp ****     static void initialize();
 130:src/kernel/../../h/riscv.hpp **** 
 131:src/kernel/../../h/riscv.hpp ****     static void finalize();
 132:src/kernel/../../h/riscv.hpp **** 
 133:src/kernel/../../h/riscv.hpp ****     static void* getPMT();
 134:src/kernel/../../h/riscv.hpp **** 
 135:src/kernel/../../h/riscv.hpp ****     friend class TCB;
 136:src/kernel/../../h/riscv.hpp **** 
 137:src/kernel/../../h/riscv.hpp ****     friend class System;
 138:src/kernel/../../h/riscv.hpp **** 
 139:src/kernel/../../h/riscv.hpp ****     friend class Scheduler;
 140:src/kernel/../../h/riscv.hpp **** 
 141:src/kernel/../../h/riscv.hpp ****     friend class ConsoleUtil;
 142:src/kernel/../../h/riscv.hpp **** };
 143:src/kernel/../../h/riscv.hpp **** 
 144:src/kernel/../../h/riscv.hpp **** inline uint64 RiscV::r_scause(){
 145:src/kernel/../../h/riscv.hpp ****     uint64 volatile scause;
 146:src/kernel/../../h/riscv.hpp ****     asm("csrr %[scause], scause" : [scause] "=r" (scause));
 147:src/kernel/../../h/riscv.hpp ****     return scause;
 148:src/kernel/../../h/riscv.hpp **** }
 149:src/kernel/../../h/riscv.hpp **** 
 150:src/kernel/../../h/riscv.hpp **** inline void RiscV::w_scause(uint64 scause){
 151:src/kernel/../../h/riscv.hpp ****     asm("csrw scause, %[scause]" : : [scause] "r" (scause));
 152:src/kernel/../../h/riscv.hpp **** }
 153:src/kernel/../../h/riscv.hpp **** 
 154:src/kernel/../../h/riscv.hpp **** inline uint64 RiscV::r_sepc(){
 155:src/kernel/../../h/riscv.hpp ****     uint64 sepc;
 156:src/kernel/../../h/riscv.hpp ****     asm("csrr %[sepc], sepc" : [sepc] "=r" (sepc));
 157:src/kernel/../../h/riscv.hpp ****     return sepc;
 158:src/kernel/../../h/riscv.hpp **** }
 159:src/kernel/../../h/riscv.hpp **** 
 160:src/kernel/../../h/riscv.hpp **** inline void RiscV::w_sepc(uint64 sepc){
 161:src/kernel/../../h/riscv.hpp ****     asm("csrw sepc, %[sepc]" : : [sepc] "r" (sepc));
 162:src/kernel/../../h/riscv.hpp **** }
 163:src/kernel/../../h/riscv.hpp **** 
 164:src/kernel/../../h/riscv.hpp **** inline uint64 RiscV::r_stvec(){
 165:src/kernel/../../h/riscv.hpp ****     uint64 stvec;
 166:src/kernel/../../h/riscv.hpp ****     asm("csrr %[stvec], stvec" : [stvec] "=r" (stvec));
 167:src/kernel/../../h/riscv.hpp ****     return stvec;
 168:src/kernel/../../h/riscv.hpp **** }
 169:src/kernel/../../h/riscv.hpp **** 
 170:src/kernel/../../h/riscv.hpp **** inline void RiscV::w_sstatus(uint64 sstatus){
 171:src/kernel/../../h/riscv.hpp ****     asm("csrw sstatus, %[sstatus]" : : [sstatus] "r" (sstatus));
 172:src/kernel/../../h/riscv.hpp **** }
 173:src/kernel/../../h/riscv.hpp **** 
 174:src/kernel/../../h/riscv.hpp **** inline uint64 RiscV::r_sstatus(){
 175:src/kernel/../../h/riscv.hpp ****     uint64 sstatus;
 176:src/kernel/../../h/riscv.hpp ****     asm("csrr %[sstatus], sstatus" : [sstatus] "=r" (sstatus));
 177:src/kernel/../../h/riscv.hpp ****     return sstatus;
 178:src/kernel/../../h/riscv.hpp **** }
 179:src/kernel/../../h/riscv.hpp **** 
 180:src/kernel/../../h/riscv.hpp **** inline void RiscV::w_stvec(uint64 stvec){
 181:src/kernel/../../h/riscv.hpp ****     asm("csrw stvec, %[stvec]" : : [stvec] "r" (stvec));
 261              		.loc 2 181 5 is_stmt 1
GAS LISTING /tmp/ccAbMSjc.s 			page 10


 262              		.loc 2 181 56 is_stmt 0
 263              	#APP
 264              	# 181 "src/kernel/../../h/riscv.hpp" 1
 182              	}
 265              		csrw stvec, a5
 266              	# 0 "" 2
 267              	.LVL26:
 268              	#NO_APP
 269              	.LBE100:
 270              	.LBE99:
  58:src/kernel/riscv.cpp ****     kmem_init(BUDDY_START_ADDR_CONST, 4096);
 271              		.loc 1 58 5 is_stmt 1
 272              		.loc 1 58 15 is_stmt 0
 273 0170 97040000 		la	s1,HEAP_START_ADDR
 273      83B40400 
 274 0178 03B50400 		ld	a0,0(s1)
 275 017c 1355C500 		srli	a0,a0,12
 276 0180 13052500 		addi	a0,a0,2
 277              		.loc 1 58 14
 278 0184 B7150000 		li	a1,4096
 279 0188 1315C500 		slli	a0,a0,12
 280 018c 97000000 		call	_Z9kmem_initPvi@plt
 280      E7800000 
 281              	.LVL27:
  59:src/kernel/riscv.cpp ****     MemoryAllocator::initialize();
 282              		.loc 1 59 5 is_stmt 1
 283              		.loc 1 59 32 is_stmt 0
 284 0194 97000000 		call	_ZN15MemoryAllocator10initializeEv@plt
 284      E7800000 
 285              	.LVL28:
  60:src/kernel/riscv.cpp ****     Scheduler::initialize();
 286              		.loc 1 60 5 is_stmt 1
 287              		.loc 1 60 26 is_stmt 0
 288 019c 97000000 		call	_ZN9Scheduler10initializeEv@plt
 288      E7800000 
 289              	.LVL29:
  61:src/kernel/riscv.cpp ****     TCB::initialize();
 290              		.loc 1 61 5 is_stmt 1
 291              		.loc 1 61 20 is_stmt 0
 292 01a4 97000000 		call	_ZN3TCB10initializeEv@plt
 292      E7800000 
 293              	.LVL30:
  62:src/kernel/riscv.cpp ****     SCB::initialize();
 294              		.loc 1 62 5 is_stmt 1
 295              		.loc 1 62 20 is_stmt 0
 296 01ac 97000000 		call	_ZN3SCB10initializeEv@plt
 296      E7800000 
 297              	.LVL31:
  63:src/kernel/riscv.cpp ****     ConsoleUtil::initialize();
 298              		.loc 1 63 5 is_stmt 1
 299              		.loc 1 63 28 is_stmt 0
 300 01b4 97000000 		call	_ZN11ConsoleUtil10initializeEv@plt
 300      E7800000 
 301              	.LVL32:
  64:src/kernel/riscv.cpp ****     RiscV::kPMT = RiscV::getPMT();
 302              		.loc 1 64 5 is_stmt 1
 303              		.loc 1 64 32 is_stmt 0
GAS LISTING /tmp/ccAbMSjc.s 			page 11


 304 01bc 97000000 		call	_ZN5RiscV6getPMTEv
 304      E7800000 
 305              	.LVL33:
 306              		.loc 1 64 17
 307 01c4 97070000 		sd	a0,.LANCHOR0,a5
 307      23B0A700 
  65:src/kernel/riscv.cpp ****     uint64 kTextEnd = ((uint64)(&kernelTextEnd));
 308              		.loc 1 65 5 is_stmt 1
 309              		.loc 1 65 12 is_stmt 0
 310 01cc 170B0000 		la	s6,kernelTextEnd
 310      033B0B00 
 311              	.LVL34:
  66:src/kernel/riscv.cpp ****     uint64 uTextStart = ((uint64)(&userTextStart));
 312              		.loc 1 66 5 is_stmt 1
 313              		.loc 1 66 12 is_stmt 0
 314 01d4 970A0000 		la	s5,userTextStart
 314      83BA0A00 
 315              	.LVL35:
  67:src/kernel/riscv.cpp ****     uint64 uDataStart = ((uint64)(&userDataStart));
 316              		.loc 1 67 5 is_stmt 1
 317              		.loc 1 67 12 is_stmt 0
 318 01dc 170A0000 		la	s4,userDataStart
 318      033A0A00 
 319              	.LVL36:
  68:src/kernel/riscv.cpp ****     uint64 uDataEnd = ((uint64)(&userDataEnd));
 320              		.loc 1 68 5 is_stmt 1
 321              		.loc 1 68 12 is_stmt 0
 322 01e4 97090000 		la	s3,userDataEnd
 322      83B90900 
 323              	.LVL37:
  69:src/kernel/riscv.cpp ****     uint64 hStart = ((uint64)HEAP_START_ADDR);
 324              		.loc 1 69 5 is_stmt 1
 325              		.loc 1 69 12 is_stmt 0
 326 01ec 03B90400 		ld	s2,0(s1)
 327              	.LVL38:
  70:src/kernel/riscv.cpp ****     uint64 hEnd = ((uint64)HEAP_END_ADDR);
 328              		.loc 1 70 5 is_stmt 1
 329              		.loc 1 70 12 is_stmt 0
 330 01f0 97070000 		la	a5,HEAP_END_ADDR
 330      83B70700 
 331 01f8 03BC0700 		ld	s8,0(a5)
 332              	.LVL39:
  71:src/kernel/riscv.cpp ****     uint64 bEnd = ((uint64)Buddy::BUDDY_START_ADDR + (Buddy::BLOCKS_AVAILABLE<<12));
 333              		.loc 1 71 5 is_stmt 1
 334              		.loc 1 71 78 is_stmt 0
 335 01fc 97070000 		la	a5,_ZN5Buddy16BLOCKS_AVAILABLEE
 335      83B70700 
 336 0204 83B40700 		ld	s1,0(a5)
 337 0208 9394C400 		slli	s1,s1,12
 338              		.loc 1 71 52
 339 020c 97070000 		la	a5,_ZN5Buddy16BUDDY_START_ADDRE
 339      83B70700 
 340 0214 83B70700 		ld	a5,0(a5)
 341              		.loc 1 71 12
 342 0218 B384F400 		add	s1,s1,a5
 343              	.LVL40:
  72:src/kernel/riscv.cpp **** 
GAS LISTING /tmp/ccAbMSjc.s 			page 12


  73:src/kernel/riscv.cpp **** 
  74:src/kernel/riscv.cpp ****     for(uint64 i=0x80000000;i< kTextEnd;i+=0x1000) {
 344              		.loc 1 74 5 is_stmt 1
 345              	.LBB101:
 346              		.loc 1 74 16 is_stmt 0
 347 021c 930B1000 		li	s7,1
 348 0220 939BFB01 		slli	s7,s7,31
 349              	.LVL41:
 350              	.L16:
 351              		.loc 1 74 30 is_stmt 1 discriminator 3
 352 0224 63F46B03 		bgeu	s7,s6,.L15
  75:src/kernel/riscv.cpp ****         handlePageFault(kPMT,i, 0xb);
 353              		.loc 1 75 9 discriminator 2
 354              		.loc 1 75 24 is_stmt 0 discriminator 2
 355 0228 1306B000 		li	a2,11
 356 022c 93850B00 		mv	a1,s7
 357 0230 17050000 		ld	a0,.LANCHOR0
 357      03350500 
 358 0238 97000000 		call	_ZN5RiscV15handlePageFaultEPvmm
 358      E7800000 
 359              	.LVL42:
  74:src/kernel/riscv.cpp ****         handlePageFault(kPMT,i, 0xb);
 360              		.loc 1 74 5 is_stmt 1 discriminator 2
  74:src/kernel/riscv.cpp ****         handlePageFault(kPMT,i, 0xb);
 361              		.loc 1 74 42 is_stmt 0 discriminator 2
 362 0240 B7170000 		li	a5,4096
 363 0244 B38BFB00 		add	s7,s7,a5
 364              	.LVL43:
  74:src/kernel/riscv.cpp ****         handlePageFault(kPMT,i, 0xb);
 365              		.loc 1 74 5 discriminator 2
 366 0248 6FF0DFFD 		j	.L16
 367              	.L15:
 368              	.LVL44:
 369              	.LBE101:
 370              	.LBB102:
  76:src/kernel/riscv.cpp ****     }
  77:src/kernel/riscv.cpp **** 
  78:src/kernel/riscv.cpp ****     for(uint64 i=kTextEnd;i<uTextStart;i+=0x1000) {
 371              		.loc 1 78 28 is_stmt 1 discriminator 3
 372 024c 63745B03 		bgeu	s6,s5,.L17
  79:src/kernel/riscv.cpp ****         handlePageFault(kPMT,i, 0x7);
 373              		.loc 1 79 9 discriminator 2
 374              		.loc 1 79 24 is_stmt 0 discriminator 2
 375 0250 13067000 		li	a2,7
 376 0254 93050B00 		mv	a1,s6
 377 0258 17050000 		ld	a0,.LANCHOR0
 377      03350500 
 378 0260 97000000 		call	_ZN5RiscV15handlePageFaultEPvmm
 378      E7800000 
 379              	.LVL45:
  78:src/kernel/riscv.cpp ****         handlePageFault(kPMT,i, 0x7);
 380              		.loc 1 78 5 is_stmt 1 discriminator 2
  78:src/kernel/riscv.cpp ****         handlePageFault(kPMT,i, 0x7);
 381              		.loc 1 78 41 is_stmt 0 discriminator 2
 382 0268 B7170000 		li	a5,4096
 383 026c 330BFB00 		add	s6,s6,a5
 384              	.LVL46:
GAS LISTING /tmp/ccAbMSjc.s 			page 13


  78:src/kernel/riscv.cpp ****         handlePageFault(kPMT,i, 0x7);
 385              		.loc 1 78 5 discriminator 2
 386 0270 6FF0DFFD 		j	.L15
 387              	.L17:
 388              	.LVL47:
 389              	.LBE102:
 390              	.LBB103:
  80:src/kernel/riscv.cpp ****     }
  81:src/kernel/riscv.cpp **** 
  82:src/kernel/riscv.cpp ****     for (uint64 i = uTextStart; i < uDataStart; i+=0x1000) {
 391              		.loc 1 82 35 is_stmt 1 discriminator 3
 392 0274 63F44A03 		bgeu	s5,s4,.L18
  83:src/kernel/riscv.cpp ****         handlePageFault(kPMT, i, 0x1b);
 393              		.loc 1 83 9 discriminator 2
 394              		.loc 1 83 24 is_stmt 0 discriminator 2
 395 0278 1306B001 		li	a2,27
 396 027c 93850A00 		mv	a1,s5
 397 0280 17050000 		ld	a0,.LANCHOR0
 397      03350500 
 398 0288 97000000 		call	_ZN5RiscV15handlePageFaultEPvmm
 398      E7800000 
 399              	.LVL48:
  82:src/kernel/riscv.cpp ****         handlePageFault(kPMT, i, 0x1b);
 400              		.loc 1 82 5 is_stmt 1 discriminator 2
  82:src/kernel/riscv.cpp ****         handlePageFault(kPMT, i, 0x1b);
 401              		.loc 1 82 50 is_stmt 0 discriminator 2
 402 0290 B7170000 		li	a5,4096
 403 0294 B38AFA00 		add	s5,s5,a5
 404              	.LVL49:
  82:src/kernel/riscv.cpp ****         handlePageFault(kPMT, i, 0x1b);
 405              		.loc 1 82 5 discriminator 2
 406 0298 6FF0DFFD 		j	.L17
 407              	.L18:
 408              	.LVL50:
 409              	.LBE103:
 410              	.LBB104:
  84:src/kernel/riscv.cpp ****     }
  85:src/kernel/riscv.cpp **** 
  86:src/kernel/riscv.cpp **** 
  87:src/kernel/riscv.cpp ****     for(uint64 i=uDataStart;i<uDataEnd;i++) {
 411              		.loc 1 87 30 is_stmt 1 discriminator 3
 412 029c 63723A03 		bgeu	s4,s3,.L19
  88:src/kernel/riscv.cpp ****         handlePageFault(kPMT,i, 0x1f);
 413              		.loc 1 88 9 discriminator 2
 414              		.loc 1 88 24 is_stmt 0 discriminator 2
 415 02a0 1306F001 		li	a2,31
 416 02a4 93050A00 		mv	a1,s4
 417 02a8 17050000 		ld	a0,.LANCHOR0
 417      03350500 
 418 02b0 97000000 		call	_ZN5RiscV15handlePageFaultEPvmm
 418      E7800000 
 419              	.LVL51:
  87:src/kernel/riscv.cpp ****         handlePageFault(kPMT,i, 0x1f);
 420              		.loc 1 87 5 is_stmt 1 discriminator 2
 421 02b8 130A1A00 		addi	s4,s4,1
 422              	.LVL52:
 423 02bc 6FF01FFE 		j	.L18
GAS LISTING /tmp/ccAbMSjc.s 			page 14


 424              	.L19:
 425              	.LVL53:
 426              	.LBE104:
 427              	.LBB105:
  89:src/kernel/riscv.cpp ****     }
  90:src/kernel/riscv.cpp **** 
  91:src/kernel/riscv.cpp ****     for(uint64 i=uDataEnd;i<hStart;i+=0x1000) {
 428              		.loc 1 91 28 discriminator 3
 429 02c0 63F42903 		bgeu	s3,s2,.L20
  92:src/kernel/riscv.cpp ****         handlePageFault(kPMT,i, 0x7);
 430              		.loc 1 92 9 discriminator 2
 431              		.loc 1 92 24 is_stmt 0 discriminator 2
 432 02c4 13067000 		li	a2,7
 433 02c8 93850900 		mv	a1,s3
 434 02cc 17050000 		ld	a0,.LANCHOR0
 434      03350500 
 435 02d4 97000000 		call	_ZN5RiscV15handlePageFaultEPvmm
 435      E7800000 
 436              	.LVL54:
  91:src/kernel/riscv.cpp ****         handlePageFault(kPMT,i, 0x7);
 437              		.loc 1 91 5 is_stmt 1 discriminator 2
  91:src/kernel/riscv.cpp ****         handlePageFault(kPMT,i, 0x7);
 438              		.loc 1 91 37 is_stmt 0 discriminator 2
 439 02dc B7170000 		li	a5,4096
 440 02e0 B389F900 		add	s3,s3,a5
 441              	.LVL55:
  91:src/kernel/riscv.cpp ****         handlePageFault(kPMT,i, 0x7);
 442              		.loc 1 91 5 discriminator 2
 443 02e4 6FF0DFFD 		j	.L19
 444              	.LVL56:
 445              	.L20:
 446              	.LBE105:
 447              	.LBB106:
  93:src/kernel/riscv.cpp ****     }
  94:src/kernel/riscv.cpp **** 
  95:src/kernel/riscv.cpp ****     for(uint64 i=hStart;i<bEnd;i+=0x1000) {
 448              		.loc 1 95 26 is_stmt 1 discriminator 3
 449 02e8 63749904 		bgeu	s2,s1,.L21
  96:src/kernel/riscv.cpp ****         handlePageFault(kPMT,i, 0x7);
 450              		.loc 1 96 9 discriminator 2
 451              		.loc 1 96 24 is_stmt 0 discriminator 2
 452 02ec 13067000 		li	a2,7
 453 02f0 93050900 		mv	a1,s2
 454 02f4 17050000 		ld	a0,.LANCHOR0
 454      03350500 
 455 02fc 97000000 		call	_ZN5RiscV15handlePageFaultEPvmm
 455      E7800000 
 456              	.LVL57:
  95:src/kernel/riscv.cpp ****         handlePageFault(kPMT,i, 0x7);
 457              		.loc 1 95 5 is_stmt 1 discriminator 2
  95:src/kernel/riscv.cpp ****         handlePageFault(kPMT,i, 0x7);
 458              		.loc 1 95 33 is_stmt 0 discriminator 2
 459 0304 B7170000 		li	a5,4096
 460 0308 3309F900 		add	s2,s2,a5
 461              	.LVL58:
  95:src/kernel/riscv.cpp ****         handlePageFault(kPMT,i, 0x7);
 462              		.loc 1 95 5 discriminator 2
GAS LISTING /tmp/ccAbMSjc.s 			page 15


 463 030c 6FF0DFFD 		j	.L20
 464              	.LVL59:
 465              	.L24:
 466              	.LBE106:
 467              	.LBB107:
  97:src/kernel/riscv.cpp ****     }
  98:src/kernel/riscv.cpp **** 
  99:src/kernel/riscv.cpp ****     for(uint64 i = bEnd;i<hEnd;i+=0x1000){
 100:src/kernel/riscv.cpp ****         handlePageFault(kPMT,i, 0x17);
 468              		.loc 1 100 9 is_stmt 1 discriminator 2
 469              		.loc 1 100 24 is_stmt 0 discriminator 2
 470 0310 13067001 		li	a2,23
 471 0314 93850400 		mv	a1,s1
 472 0318 17050000 		ld	a0,.LANCHOR0
 472      03350500 
 473 0320 97000000 		call	_ZN5RiscV15handlePageFaultEPvmm
 473      E7800000 
 474              	.LVL60:
  99:src/kernel/riscv.cpp ****         handlePageFault(kPMT,i, 0x17);
 475              		.loc 1 99 5 is_stmt 1 discriminator 2
  99:src/kernel/riscv.cpp ****         handlePageFault(kPMT,i, 0x17);
 476              		.loc 1 99 33 is_stmt 0 discriminator 2
 477 0328 B7170000 		li	a5,4096
 478 032c B384F400 		add	s1,s1,a5
 479              	.LVL61:
 480              	.L21:
  99:src/kernel/riscv.cpp ****         handlePageFault(kPMT,i, 0x17);
 481              		.loc 1 99 26 is_stmt 1 discriminator 3
 482 0330 E3E084FF 		bltu	s1,s8,.L24
 483              	.LBE107:
 101:src/kernel/riscv.cpp ****     }
 102:src/kernel/riscv.cpp **** 
 103:src/kernel/riscv.cpp **** 
 104:src/kernel/riscv.cpp ****     RiscV::ms_sstatus(1<<18);
 484              		.loc 1 104 5
 485              	.LVL62:
 486              	.LBB108:
 487              	.LBB109:
 183:src/kernel/../../h/riscv.hpp **** 
 184:src/kernel/../../h/riscv.hpp **** inline void  RiscV::ms_sstatus(uint64 mask) {
 185:src/kernel/../../h/riscv.hpp ****     asm("csrs sstatus, %[mask]" : : [mask] "r" (mask));
 488              		.loc 2 185 5
 489              		.loc 2 185 55 is_stmt 0
 490 0334 B7070400 		li	a5,262144
 491              	#APP
 492              	# 185 "src/kernel/../../h/riscv.hpp" 1
 186              	}
 493              		csrs sstatus, a5
 494              	# 0 "" 2
 495              	.LVL63:
 496              	#NO_APP
 497              	.LBE109:
 498              	.LBE108:
 105:src/kernel/riscv.cpp ****     handlePageFault(kPMT, (uint64)CONSOLE_RX_DATA,0xf);
 499              		.loc 1 105 5 is_stmt 1
 500              		.loc 1 105 20 is_stmt 0
 501 033c 97040000 		lla	s1,.LANCHOR0
GAS LISTING /tmp/ccAbMSjc.s 			page 16


 501      93840400 
 502              	.LVL64:
 503 0344 1306F000 		li	a2,15
 504 0348 97070000 		la	a5,CONSOLE_RX_DATA
 504      83B70700 
 505 0350 83B50700 		ld	a1,0(a5)
 506 0354 03B50400 		ld	a0,0(s1)
 507 0358 97000000 		call	_ZN5RiscV15handlePageFaultEPvmm
 507      E7800000 
 508              	.LVL65:
 106:src/kernel/riscv.cpp ****     handlePageFault(kPMT, (uint64)CONSOLE_TX_DATA,0xf);
 509              		.loc 1 106 5 is_stmt 1
 510              		.loc 1 106 20 is_stmt 0
 511 0360 1306F000 		li	a2,15
 512 0364 97070000 		la	a5,CONSOLE_TX_DATA
 512      83B70700 
 513 036c 83B50700 		ld	a1,0(a5)
 514 0370 03B50400 		ld	a0,0(s1)
 515 0374 97000000 		call	_ZN5RiscV15handlePageFaultEPvmm
 515      E7800000 
 516              	.LVL66:
 107:src/kernel/riscv.cpp ****     handlePageFault(kPMT, (uint64)CONSOLE_STATUS,0xf);
 517              		.loc 1 107 5 is_stmt 1
 518              		.loc 1 107 20 is_stmt 0
 519 037c 1306F000 		li	a2,15
 520 0380 97070000 		la	a5,CONSOLE_STATUS
 520      83B70700 
 521 0388 83B50700 		ld	a1,0(a5)
 522 038c 03B50400 		ld	a0,0(s1)
 523 0390 97000000 		call	_ZN5RiscV15handlePageFaultEPvmm
 523      E7800000 
 524              	.LVL67:
 108:src/kernel/riscv.cpp ****     handlePageFault(kPMT, (uint64)0xc201004,0xf);
 525              		.loc 1 108 5 is_stmt 1
 526              		.loc 1 108 20 is_stmt 0
 527 0398 1306F000 		li	a2,15
 528 039c B715200C 		li	a1,203427840
 529 03a0 93854500 		addi	a1,a1,4
 530 03a4 03B50400 		ld	a0,0(s1)
 531 03a8 97000000 		call	_ZN5RiscV15handlePageFaultEPvmm
 531      E7800000 
 532              	.LVL68:
 109:src/kernel/riscv.cpp **** 
 110:src/kernel/riscv.cpp **** //    ConsoleUtil::print("kTextEnd:", kTextEnd, "\n");
 111:src/kernel/riscv.cpp **** //    ConsoleUtil::print("uTextStart:", uTextStart, "\n");
 112:src/kernel/riscv.cpp **** //    ConsoleUtil::print("uDataStart:", uDataStart, "\n");
 113:src/kernel/riscv.cpp **** //    ConsoleUtil::print("uDataEnd:", uDataEnd, "\n");
 114:src/kernel/riscv.cpp **** //    ConsoleUtil::print("hStart:", hStart, "\n");
 115:src/kernel/riscv.cpp **** //    ConsoleUtil::print("bEnd:", bEnd, "\n");
 116:src/kernel/riscv.cpp **** //    ConsoleUtil::print("hEnd:", hEnd, "\n");
 117:src/kernel/riscv.cpp **** 
 118:src/kernel/riscv.cpp ****     uint64 satp = ((uint64)1<<63) | ((uint64)(RiscV::kPMT)>>12);
 533              		.loc 1 118 5 is_stmt 1
 534              		.loc 1 118 59 is_stmt 0
 535 03b0 83B70400 		ld	a5,0(s1)
 536 03b4 93D7C700 		srli	a5,a5,12
 537              		.loc 1 118 12
GAS LISTING /tmp/ccAbMSjc.s 			page 17


 538 03b8 1307F0FF 		li	a4,-1
 539 03bc 1317F703 		slli	a4,a4,63
 540 03c0 B3E7E700 		or	a5,a5,a4
 541              	.LVL69:
 119:src/kernel/riscv.cpp ****     asm("csrw satp, %[satp]" : : [satp] "r" (satp));
 542              		.loc 1 119 5 is_stmt 1
 543              		.loc 1 119 52 is_stmt 0
 544              	#APP
 545              	# 119 "src/kernel/riscv.cpp" 1
 120              	
 121:src/kernel/riscv.cpp ****     RiscV::enableInterrupts();
 546              		csrw satp, a5
 547              	# 0 "" 2
 548              		.loc 1 121 5 is_stmt 1
 187:src/kernel/../../h/riscv.hpp **** 
 188:src/kernel/../../h/riscv.hpp **** inline void  RiscV::mc_sstatus(uint64 mask) {
 189:src/kernel/../../h/riscv.hpp ****     asm("csrc sstatus, %[mask]" : : [mask] "r" (mask));
 190:src/kernel/../../h/riscv.hpp **** }
 191:src/kernel/../../h/riscv.hpp **** 
 192:src/kernel/../../h/riscv.hpp **** inline void  RiscV::ms_sip(uint64 mask) {
 193:src/kernel/../../h/riscv.hpp ****     asm("csrs sip, %[mask]" : : [mask] "r" (mask));
 194:src/kernel/../../h/riscv.hpp **** }
 195:src/kernel/../../h/riscv.hpp **** 
 196:src/kernel/../../h/riscv.hpp **** inline void  RiscV::mc_sip(uint64 mask) {
 197:src/kernel/../../h/riscv.hpp ****     asm("csrc sip, %[mask]" : : [mask] "r" (mask));
 198:src/kernel/../../h/riscv.hpp **** }
 199:src/kernel/../../h/riscv.hpp **** 
 200:src/kernel/../../h/riscv.hpp **** inline void  RiscV::ms_sie(uint64 mask) {
 201:src/kernel/../../h/riscv.hpp ****     asm("csrs sie, %[mask]" : : [mask] "r" (mask));
 202:src/kernel/../../h/riscv.hpp **** }
 203:src/kernel/../../h/riscv.hpp **** 
 204:src/kernel/../../h/riscv.hpp **** inline void  RiscV::mc_sie(uint64 mask){
 205:src/kernel/../../h/riscv.hpp ****     asm("csrc sie, %[mask]" : : [mask] "r" (mask));
 206:src/kernel/../../h/riscv.hpp **** }
 207:src/kernel/../../h/riscv.hpp **** 
 208:src/kernel/../../h/riscv.hpp **** inline void RiscV::enableInterrupts() {
 209:src/kernel/../../h/riscv.hpp ****     RiscV::ms_sie(SIP_SSIE);
 549              		.loc 2 209 5
 550              	.LVL70:
 551              	#NO_APP
 552              	.LBB110:
 553              	.LBB111:
 554              	.LBB112:
 201:src/kernel/../../h/riscv.hpp **** }
 555              		.loc 2 201 5
 201:src/kernel/../../h/riscv.hpp **** }
 556              		.loc 2 201 51 is_stmt 0
 557 03c8 93072000 		li	a5,2
 558              	.LVL71:
 559              	#APP
 560              	# 201 "src/kernel/../../h/riscv.hpp" 1
 561              		csrs sie, a5
 562              	# 0 "" 2
 563              	.LVL72:
 564              	#NO_APP
 565              	.LBE112:
 566              	.LBE111:
GAS LISTING /tmp/ccAbMSjc.s 			page 18


 567              	.LBE110:
 210:src/kernel/../../h/riscv.hpp ****     RiscV::ms_sie(SIP_SEIE);
 568              		.loc 2 210 5 is_stmt 1
 569              	.LBB117:
 570              	.LBB113:
 571              	.LBB114:
 201:src/kernel/../../h/riscv.hpp **** }
 572              		.loc 2 201 5
 201:src/kernel/../../h/riscv.hpp **** }
 573              		.loc 2 201 51 is_stmt 0
 574 03d0 13070020 		li	a4,512
 575              	.LVL73:
 576              	#APP
 577              	# 201 "src/kernel/../../h/riscv.hpp" 1
 578              		csrs sie, a4
 579              	# 0 "" 2
 580              	.LVL74:
 581              	#NO_APP
 582              	.LBE114:
 583              	.LBE113:
 584              	.LBE117:
 211:src/kernel/../../h/riscv.hpp ****     RiscV::ms_sstatus(SSTATUS_SIE);
 585              		.loc 2 211 5 is_stmt 1
 586              	.LBB118:
 587              	.LBB115:
 588              	.LBB116:
 185:src/kernel/../../h/riscv.hpp **** }
 589              		.loc 2 185 5
 185:src/kernel/../../h/riscv.hpp **** }
 590              		.loc 2 185 55 is_stmt 0
 591              	#APP
 592              	# 185 "src/kernel/../../h/riscv.hpp" 1
 593              		csrs sstatus, a5
 594              	# 0 "" 2
 595              	.LVL75:
 596              	#NO_APP
 597              	.LBE116:
 598              	.LBE115:
 599              	.LBE118:
 122:src/kernel/riscv.cpp **** //    RiscV::enableHardwareInterrupts();
 123:src/kernel/riscv.cpp **** }
 600              		.loc 1 123 1
 601 03dc 83308104 		ld	ra,72(sp)
 602              		.cfi_restore 1
 603 03e0 03340104 		ld	s0,64(sp)
 604              		.cfi_restore 8
 605              		.cfi_def_cfa 2, 80
 606 03e4 83348103 		ld	s1,56(sp)
 607              		.cfi_restore 9
 608 03e8 03390103 		ld	s2,48(sp)
 609              		.cfi_restore 18
 610              	.LVL76:
 611 03ec 83398102 		ld	s3,40(sp)
 612              		.cfi_restore 19
 613              	.LVL77:
 614 03f0 033A0102 		ld	s4,32(sp)
 615              		.cfi_restore 20
GAS LISTING /tmp/ccAbMSjc.s 			page 19


 616              	.LVL78:
 617 03f4 833A8101 		ld	s5,24(sp)
 618              		.cfi_restore 21
 619              	.LVL79:
 620 03f8 033B0101 		ld	s6,16(sp)
 621              		.cfi_restore 22
 622              	.LVL80:
 623 03fc 833B8100 		ld	s7,8(sp)
 624              		.cfi_restore 23
 625              	.LVL81:
 626 0400 033C0100 		ld	s8,0(sp)
 627              		.cfi_restore 24
 628              	.LVL82:
 629 0404 13010105 		addi	sp,sp,80
 630              		.cfi_def_cfa_offset 0
 631 0408 67800000 		jr	ra
 632              		.cfi_endproc
 633              	.LFE44:
 635              		.align	2
 636              		.globl	_ZN5RiscV10popSppSpieEv
 638              	_ZN5RiscV10popSppSpieEv:
 639              	.LFB45:
 124:src/kernel/riscv.cpp **** 
 125:src/kernel/riscv.cpp **** //get previous privilege and previous interrupt status
 126:src/kernel/riscv.cpp **** void RiscV::popSppSpie() {
 640              		.loc 1 126 26 is_stmt 1
 641              		.cfi_startproc
 642 040c 130101FF 		addi	sp,sp,-16
 643              		.cfi_def_cfa_offset 16
 644 0410 23348100 		sd	s0,8(sp)
 645              		.cfi_offset 8, -8
 646 0414 13040101 		addi	s0,sp,16
 647              		.cfi_def_cfa 8, 0
 127:src/kernel/riscv.cpp ****     uint64 ra = 0;
 648              		.loc 1 127 5
 649              	.LVL83:
 128:src/kernel/riscv.cpp ****     if(TCB::running->mode == TCB::Mode::SUPERVISOR)
 650              		.loc 1 128 5
 651              		.loc 1 128 22 is_stmt 0
 652 0418 97070000 		la	a5,_ZN3TCB7runningE
 652      83B70700 
 653 0420 83B70700 		ld	a5,0(a5)
 654 0424 83A64701 		lw	a3,20(a5)
 655              		.loc 1 128 5
 656 0428 13071000 		li	a4,1
 657 042c 6388E602 		beq	a3,a4,.L29
 129:src/kernel/riscv.cpp ****         asm("csrw sepc, ra");
 130:src/kernel/riscv.cpp ****     else
 131:src/kernel/riscv.cpp ****     {
 132:src/kernel/riscv.cpp ****         ra = (uint64)TCBWrapper::tcbWrap;
 658              		.loc 1 132 9 is_stmt 1
 659              	.LVL84:
 133:src/kernel/riscv.cpp ****         asm("mv a0, %[iarg]" : : [iarg] "r" (TCB::running->body));
 660              		.loc 1 133 9
 661              		.loc 1 133 60 is_stmt 0
 662 0430 03B78701 		ld	a4,24(a5)
 663              		.loc 1 133 66
GAS LISTING /tmp/ccAbMSjc.s 			page 20


 664              	#APP
 665              	# 133 "src/kernel/riscv.cpp" 1
 134              	        asm("mv a1, %[iarg]" : : [iarg] "r" (TCB::running->args));
 666              		mv a0, a4
 667              	# 0 "" 2
 668              		.loc 1 134 9 is_stmt 1
 669              		.loc 1 134 60 is_stmt 0
 670              	#NO_APP
 671 0438 83B70702 		ld	a5,32(a5)
 672              		.loc 1 134 66
 673              	#APP
 674              	# 134 "src/kernel/riscv.cpp" 1
 135              	        asm("csrw sepc, %[ra]" : : [ra] "r" (ra));
 675              		mv a1, a5
 676              	# 0 "" 2
 677              		.loc 1 135 9 is_stmt 1
 678              		.loc 1 135 50 is_stmt 0
 679              	#NO_APP
 680 0440 97070000 		la	a5,_ZN10TCBWrapper7tcbWrapEPFvPvES0_
 680      83B70700 
 681              	#APP
 682              	# 135 "src/kernel/riscv.cpp" 1
 136              	    }
 683              		csrw sepc, a5
 684              	# 0 "" 2
 685              	.LVL85:
 686              	#NO_APP
 687              	.L27:
 137:src/kernel/riscv.cpp ****     asm("sret");
 688              		.loc 1 137 5 is_stmt 1
 689              		.loc 1 137 16 is_stmt 0
 690              	#APP
 691              	# 137 "src/kernel/riscv.cpp" 1
 138              	}
 692              		sret
 693              	# 0 "" 2
 694              		.loc 1 138 1
 695              	#NO_APP
 696 0450 03348100 		ld	s0,8(sp)
 697              		.cfi_remember_state
 698              		.cfi_restore 8
 699              		.cfi_def_cfa 2, 16
 700 0454 13010101 		addi	sp,sp,16
 701              		.cfi_def_cfa_offset 0
 702 0458 67800000 		jr	ra
 703              	.LVL86:
 704              	.L29:
 705              		.cfi_restore_state
 129:src/kernel/riscv.cpp ****         asm("csrw sepc, ra");
 706              		.loc 1 129 9 is_stmt 1
 129:src/kernel/riscv.cpp ****         asm("csrw sepc, ra");
 707              		.loc 1 129 29 is_stmt 0
 708              	#APP
 709              	# 129 "src/kernel/riscv.cpp" 1
 710              		csrw sepc, ra
 711              	# 0 "" 2
 712              	#NO_APP
GAS LISTING /tmp/ccAbMSjc.s 			page 21


 713 0460 6FF0DFFE 		j	.L27
 714              		.cfi_endproc
 715              	.LFE45:
 717              		.align	2
 718              		.globl	_ZN5RiscV11popSppSpie2Ev
 720              	_ZN5RiscV11popSppSpie2Ev:
 721              	.LFB46:
 139:src/kernel/riscv.cpp **** 
 140:src/kernel/riscv.cpp **** void RiscV::popSppSpie2() {
 722              		.loc 1 140 27 is_stmt 1
 723              		.cfi_startproc
 724 0464 130101FF 		addi	sp,sp,-16
 725              		.cfi_def_cfa_offset 16
 726 0468 23348100 		sd	s0,8(sp)
 727              		.cfi_offset 8, -8
 728 046c 13040101 		addi	s0,sp,16
 729              		.cfi_def_cfa 8, 0
 141:src/kernel/riscv.cpp ****     uint64 ra = 0;
 730              		.loc 1 141 5
 731              	.LVL87:
 142:src/kernel/riscv.cpp ****     if(TCB::running->mode == TCB::Mode::SUPERVISOR)
 732              		.loc 1 142 5
 733              		.loc 1 142 22 is_stmt 0
 734 0470 97070000 		la	a5,_ZN3TCB7runningE
 734      83B70700 
 735 0478 83B70700 		ld	a5,0(a5)
 736 047c 03A74701 		lw	a4,20(a5)
 737              		.loc 1 142 5
 738 0480 93071000 		li	a5,1
 739 0484 6300F702 		beq	a4,a5,.L34
 143:src/kernel/riscv.cpp ****         asm("csrw sepc, ra");
 144:src/kernel/riscv.cpp ****     else
 145:src/kernel/riscv.cpp ****     {
 146:src/kernel/riscv.cpp ****         ra = (uint64)TCBWrapper::tcbWrap;
 740              		.loc 1 146 9 is_stmt 1
 741              		.loc 1 146 12 is_stmt 0
 742 0488 97070000 		la	a5,_ZN10TCBWrapper7tcbWrapEPFvPvES0_
 742      83B70700 
 743              	.LVL88:
 147:src/kernel/riscv.cpp ****         asm("csrw sepc, %[ra]" : : [ra] "r" (ra));
 744              		.loc 1 147 9 is_stmt 1
 745              		.loc 1 147 50 is_stmt 0
 746              	#APP
 747              	# 147 "src/kernel/riscv.cpp" 1
 148              	    }
 748              		csrw sepc, a5
 749              	# 0 "" 2
 750              	.LVL89:
 751              	#NO_APP
 752              	.L32:
 149:src/kernel/riscv.cpp ****     asm("sret");
 753              		.loc 1 149 5 is_stmt 1
 754              		.loc 1 149 16 is_stmt 0
 755              	#APP
 756              	# 149 "src/kernel/riscv.cpp" 1
 150              	}
 757              		sret
GAS LISTING /tmp/ccAbMSjc.s 			page 22


 758              	# 0 "" 2
 759              		.loc 1 150 1
 760              	#NO_APP
 761 0498 03348100 		ld	s0,8(sp)
 762              		.cfi_remember_state
 763              		.cfi_restore 8
 764              		.cfi_def_cfa 2, 16
 765 049c 13010101 		addi	sp,sp,16
 766              		.cfi_def_cfa_offset 0
 767 04a0 67800000 		jr	ra
 768              	.LVL90:
 769              	.L34:
 770              		.cfi_restore_state
 143:src/kernel/riscv.cpp ****         asm("csrw sepc, ra");
 771              		.loc 1 143 9 is_stmt 1
 143:src/kernel/riscv.cpp ****         asm("csrw sepc, ra");
 772              		.loc 1 143 29 is_stmt 0
 773              	#APP
 774              	# 143 "src/kernel/riscv.cpp" 1
 775              		csrw sepc, ra
 776              	# 0 "" 2
 777              	#NO_APP
 778 04a8 6FF0DFFE 		j	.L32
 779              		.cfi_endproc
 780              	.LFE46:
 782              		.align	2
 783              		.globl	_ZN5RiscV28executeThreadDispatchSyscallEv
 785              	_ZN5RiscV28executeThreadDispatchSyscallEv:
 786              	.LFB54:
 151:src/kernel/riscv.cpp **** 
 152:src/kernel/riscv.cpp **** //handler function for traps
 153:src/kernel/riscv.cpp **** void RiscV::handleSupervisorTrap() {
 154:src/kernel/riscv.cpp **** 
 155:src/kernel/riscv.cpp ****     //read scause
 156:src/kernel/riscv.cpp ****     uint64 stval;
 157:src/kernel/riscv.cpp ****     asm("csrr %[stval], stval" : [stval] "=r" (stval));
 158:src/kernel/riscv.cpp ****     uint64 volatile scause = RiscV::r_scause();
 159:src/kernel/riscv.cpp **** 
 160:src/kernel/riscv.cpp ****     asm("csrr %[sscratch], sscratch" : [sscratch] "=r" (TCB::running->a0Location));
 161:src/kernel/riscv.cpp **** 
 162:src/kernel/riscv.cpp ****     //interrupt from ecall (both user and supervisor mode)
 163:src/kernel/riscv.cpp **** //    if(scause == 0x0c){
 164:src/kernel/riscv.cpp **** //        uint64 stvec = RiscV::r_stvec();
 165:src/kernel/riscv.cpp **** //        handlePageFault(kPMT, stvec, 0xb);
 166:src/kernel/riscv.cpp **** //    }
 167:src/kernel/riscv.cpp **** //    else if(scause == 0xd || scause == 0xf){
 168:src/kernel/riscv.cpp **** //        uint64 stvec = RiscV::r_stvec();
 169:src/kernel/riscv.cpp **** //        handlePageFault(kPMT, stvec, 0x17);
 170:src/kernel/riscv.cpp **** //    }
 171:src/kernel/riscv.cpp ****     if(scause == 0x09 || scause == 0x08) {
 172:src/kernel/riscv.cpp **** 
 173:src/kernel/riscv.cpp ****         //save sstatus and sepc
 174:src/kernel/riscv.cpp ****         //sepc should be increased by 4, since this is an ecall trap
 175:src/kernel/riscv.cpp ****         uint64 volatile sstatus = RiscV::r_sstatus();
 176:src/kernel/riscv.cpp ****         uint64 volatile sepc = RiscV::r_sepc()+4;
 177:src/kernel/riscv.cpp ****         TCB::running->sepc = sepc;
 178:src/kernel/riscv.cpp ****         TCB::running->sstatus = sstatus;
GAS LISTING /tmp/ccAbMSjc.s 			page 23


 179:src/kernel/riscv.cpp **** 
 180:src/kernel/riscv.cpp ****         //get the syscall ID from a0
 181:src/kernel/riscv.cpp ****         uint64 syscallID;
 182:src/kernel/riscv.cpp ****         asm("mv %[syscallID], a0" : [syscallID] "=r" (syscallID));
 183:src/kernel/riscv.cpp **** 
 184:src/kernel/riscv.cpp ****         switch(syscallID){
 185:src/kernel/riscv.cpp ****             case 0x01 : executeMemAllocSyscall();break;
 186:src/kernel/riscv.cpp ****             case 0x02 : executeMemFreeSyscall();break;
 187:src/kernel/riscv.cpp ****             case 0x11 : executeThreadCreateSyscall();break;
 188:src/kernel/riscv.cpp ****             case 0x12 : executeThreadExitSyscall();break;
 189:src/kernel/riscv.cpp ****             case 0x13 : executeThreadDispatchSyscall();break;
 190:src/kernel/riscv.cpp ****             case 0x14 : executeThreadAttachBodySyscall();break;
 191:src/kernel/riscv.cpp ****             case 0x15 : executeThreadStartSyscall();break;
 192:src/kernel/riscv.cpp ****             case 0x21 : executeSemOpenSyscall();break;
 193:src/kernel/riscv.cpp ****             case 0x22 : executeSemCloseSyscall();break;
 194:src/kernel/riscv.cpp ****             case 0x23 : executeSemWaitSyscall();break;
 195:src/kernel/riscv.cpp ****             case 0x24 : executeSemSignalSyscall();break;
 196:src/kernel/riscv.cpp ****             case 0x31 : executeTimeSleepSyscall();break;
 197:src/kernel/riscv.cpp ****             case 0x41 : executeGetcSyscall();break;
 198:src/kernel/riscv.cpp ****             case 0x42 : executePutcSyscall();break;
 199:src/kernel/riscv.cpp ****             case 0x43 : executePutcUtilSyscall();break;
 200:src/kernel/riscv.cpp ****             case 0x51 : executeThreadFreeSyscall();break;
 201:src/kernel/riscv.cpp ****             case 0x52 : executeSemaphoreFreeSyscall();break;
 202:src/kernel/riscv.cpp ****             //in this case we need to save SP and PC at this point so that newly created thread
 203:src/kernel/riscv.cpp ****             //can return to this point and exit trap routine regularly
 204:src/kernel/riscv.cpp ****             //note that getPC() returns PC incremented by 8 to skip executeForkSyscall
 205:src/kernel/riscv.cpp ****             case 0x61 : asm("mv %[sp], sp" : [sp] "=r"(TCB::currentSP));
 206:src/kernel/riscv.cpp ****                         RiscV::getPC();
 207:src/kernel/riscv.cpp ****                         executeForkSyscall();
 208:src/kernel/riscv.cpp ****                         break;
 209:src/kernel/riscv.cpp ****         }
 210:src/kernel/riscv.cpp **** 
 211:src/kernel/riscv.cpp ****         //write previously save sstatus and incremented sepc
 212:src/kernel/riscv.cpp ****         RiscV::w_sstatus(TCB::running->sstatus);
 213:src/kernel/riscv.cpp ****         RiscV::w_sepc(TCB::running->sepc);
 214:src/kernel/riscv.cpp ****     }
 215:src/kernel/riscv.cpp **** 
 216:src/kernel/riscv.cpp ****     //timer interrupt (in this system's implementation, timer tick is manifested as software interr
 217:src/kernel/riscv.cpp ****     else if(scause == (0x01UL<<63 | 0x1)){
 218:src/kernel/riscv.cpp **** 
 219:src/kernel/riscv.cpp ****         //save sstatus and sepc
 220:src/kernel/riscv.cpp ****         //this time sepc remains the same
 221:src/kernel/riscv.cpp ****         uint64 volatile sstatus = RiscV::r_sstatus();
 222:src/kernel/riscv.cpp ****         uint64 volatile sepc = RiscV::r_sepc();
 223:src/kernel/riscv.cpp **** 
 224:src/kernel/riscv.cpp ****         //clear the SIP bit for software interrupt
 225:src/kernel/riscv.cpp ****         mc_sip(SIP_SSIE);
 226:src/kernel/riscv.cpp **** 
 227:src/kernel/riscv.cpp **** 
 228:src/kernel/riscv.cpp ****         //increase global time and try to awake threads that are asleep
 229:src/kernel/riscv.cpp ****         globalTime += 1;
 230:src/kernel/riscv.cpp ****         Scheduler::awake();
 231:src/kernel/riscv.cpp **** 
 232:src/kernel/riscv.cpp ****         //check whether time slice has run out for running thread
 233:src/kernel/riscv.cpp ****         //if so, dispatch
 234:src/kernel/riscv.cpp ****         TCB::timeSliceCounter++;
 235:src/kernel/riscv.cpp ****         if(TCB::timeSliceCounter >= TCB::running->timeSlice) {
GAS LISTING /tmp/ccAbMSjc.s 			page 24


 236:src/kernel/riscv.cpp **** 
 237:src/kernel/riscv.cpp ****             TCB::timeSliceCounter = 0;
 238:src/kernel/riscv.cpp **** 
 239:src/kernel/riscv.cpp ****             TCB* old = TCB::running;
 240:src/kernel/riscv.cpp **** 
 241:src/kernel/riscv.cpp ****             old->status = TCB::Status::READY;
 242:src/kernel/riscv.cpp **** 
 243:src/kernel/riscv.cpp ****             TCB::dispatch();
 244:src/kernel/riscv.cpp ****         }
 245:src/kernel/riscv.cpp **** 
 246:src/kernel/riscv.cpp ****         //write previously save sstatus and sepc
 247:src/kernel/riscv.cpp ****         RiscV::w_sstatus(sstatus);
 248:src/kernel/riscv.cpp ****         RiscV::w_sepc(sepc);
 249:src/kernel/riscv.cpp ****     }
 250:src/kernel/riscv.cpp **** 
 251:src/kernel/riscv.cpp ****     //hardware interrupt, from console (note that here we only check for keyboard interrupts, handl
 252:src/kernel/riscv.cpp ****     else if(scause == (0x01UL<<63 | 0x9)){
 253:src/kernel/riscv.cpp ****         //save sstatus and sepc
 254:src/kernel/riscv.cpp ****         //this time sepc remains the same
 255:src/kernel/riscv.cpp ****         uint64 volatile sstatus = RiscV::r_sstatus();
 256:src/kernel/riscv.cpp ****         uint64 volatile sepc = RiscV::r_sepc();
 257:src/kernel/riscv.cpp **** 
 258:src/kernel/riscv.cpp ****         //get the console status register location, and console status reg value
 259:src/kernel/riscv.cpp ****         uint64 status = CONSOLE_STATUS;
 260:src/kernel/riscv.cpp ****         asm("mv a0, %[status]" : : [status] "r" (status));
 261:src/kernel/riscv.cpp ****         asm("lb a1, 0(a0)");
 262:src/kernel/riscv.cpp ****         asm("mv %[status], a1" : [status] "=r" (status));
 263:src/kernel/riscv.cpp **** 
 264:src/kernel/riscv.cpp ****         //if keyboard is ready to send data
 265:src/kernel/riscv.cpp ****         if(status & 1UL)
 266:src/kernel/riscv.cpp ****         {
 267:src/kernel/riscv.cpp ****             //fetch the character from CONSOLE_TX_DATA register
 268:src/kernel/riscv.cpp ****             uint64 data;
 269:src/kernel/riscv.cpp ****             char c;
 270:src/kernel/riscv.cpp ****             data = CONSOLE_TX_DATA;
 271:src/kernel/riscv.cpp ****             asm("mv a0, %[data]" : : [data] "r" (data));
 272:src/kernel/riscv.cpp ****             asm("lb a1, 0(a0)");
 273:src/kernel/riscv.cpp ****             asm("mv %[c], a1" : [c] "=r" (c));
 274:src/kernel/riscv.cpp **** 
 275:src/kernel/riscv.cpp ****             //if there was a getc request put the character into the input buffer, othrewise ignore
 276:src/kernel/riscv.cpp ****             if(ConsoleUtil::pendingGetc!=0) {
 277:src/kernel/riscv.cpp ****                 ConsoleUtil::pendingGetc--;
 278:src/kernel/riscv.cpp ****                 ConsoleUtil::putInput(c);
 279:src/kernel/riscv.cpp ****             }
 280:src/kernel/riscv.cpp ****         }
 281:src/kernel/riscv.cpp ****         plic_complete(plic_claim());
 282:src/kernel/riscv.cpp **** 
 283:src/kernel/riscv.cpp ****         RiscV::w_sstatus(sstatus);
 284:src/kernel/riscv.cpp ****         RiscV::w_sepc(sepc);
 285:src/kernel/riscv.cpp ****     }
 286:src/kernel/riscv.cpp **** 
 287:src/kernel/riscv.cpp ****     //illegal instruction, exit running thread
 288:src/kernel/riscv.cpp ****     else if(scause == 0x02){
 289:src/kernel/riscv.cpp ****         TCB* old = TCB::running;
 290:src/kernel/riscv.cpp ****         old->status = TCB::Status::FINISHED;
 291:src/kernel/riscv.cpp ****         ConsoleUtil::printString("sepc: ");
 292:src/kernel/riscv.cpp ****         uint64 sepc = RiscV::r_sepc();
GAS LISTING /tmp/ccAbMSjc.s 			page 25


 293:src/kernel/riscv.cpp ****         ConsoleUtil::printInt(sepc,16);
 294:src/kernel/riscv.cpp ****         ConsoleUtil::printString("\n");
 295:src/kernel/riscv.cpp ****         ConsoleUtil::printString("Illegal instruction\nExiting thread...\n");
 296:src/kernel/riscv.cpp ****         TCB::dispatch();
 297:src/kernel/riscv.cpp ****     }
 298:src/kernel/riscv.cpp **** 
 299:src/kernel/riscv.cpp ****     //some other kind of error, for more information check out RiscV handbook
 300:src/kernel/riscv.cpp ****     else{
 301:src/kernel/riscv.cpp ****         ConsoleUtil::printString("Error: \n");
 302:src/kernel/riscv.cpp ****         ConsoleUtil::printString("scause: ");
 303:src/kernel/riscv.cpp ****         uint64  scause = RiscV::r_scause();
 304:src/kernel/riscv.cpp ****         ConsoleUtil::printInt(scause);
 305:src/kernel/riscv.cpp ****         ConsoleUtil::printString("sepc: ");
 306:src/kernel/riscv.cpp ****         uint64 sepc = RiscV::r_sepc();
 307:src/kernel/riscv.cpp ****         ConsoleUtil::printInt(sepc,16);
 308:src/kernel/riscv.cpp ****         ConsoleUtil::printString("\n");
 309:src/kernel/riscv.cpp ****         ConsoleUtil::print("stvec: ",stval,"\n");
 310:src/kernel/riscv.cpp ****         TCB* old = TCB::running;
 311:src/kernel/riscv.cpp ****         old->status = TCB::Status::FINISHED;
 312:src/kernel/riscv.cpp ****         ConsoleUtil::printString("Exiting thread...\n");
 313:src/kernel/riscv.cpp ****         TCB::dispatch();
 314:src/kernel/riscv.cpp ****     }
 315:src/kernel/riscv.cpp **** 
 316:src/kernel/riscv.cpp ****     RiscV::jumpToDesignatedPrivilegeMode();
 317:src/kernel/riscv.cpp **** }
 318:src/kernel/riscv.cpp **** 
 319:src/kernel/riscv.cpp **** void RiscV::executeMemAllocSyscall(){
 320:src/kernel/riscv.cpp **** 
 321:src/kernel/riscv.cpp ****     //fetch the arguments from a0-a7 registers
 322:src/kernel/riscv.cpp ****     uint64 size;
 323:src/kernel/riscv.cpp ****     asm("mv %[size], a1" : [size] "=r" (size));
 324:src/kernel/riscv.cpp **** 
 325:src/kernel/riscv.cpp ****     //call internal allocator and return the address in a0
 326:src/kernel/riscv.cpp ****     uint64 addr =(uint64)MemoryAllocator::kmalloc(size);
 327:src/kernel/riscv.cpp **** 
 328:src/kernel/riscv.cpp ****     asm("mv a0, %[addr]" : : [addr] "r" (addr));
 329:src/kernel/riscv.cpp **** 
 330:src/kernel/riscv.cpp ****     RiscV::saveA0toSscratch();
 331:src/kernel/riscv.cpp **** }
 332:src/kernel/riscv.cpp **** 
 333:src/kernel/riscv.cpp **** void RiscV::executeMemFreeSyscall() {
 334:src/kernel/riscv.cpp **** 
 335:src/kernel/riscv.cpp ****     //fetch the arguments from a0-a7 registers
 336:src/kernel/riscv.cpp ****     uint64 iaddr, status;
 337:src/kernel/riscv.cpp **** 
 338:src/kernel/riscv.cpp **** 
 339:src/kernel/riscv.cpp ****     if(MemoryAllocator::initialized) {
 340:src/kernel/riscv.cpp ****         //call internal allocator and free memory which iaddr points to
 341:src/kernel/riscv.cpp ****         asm("mv %[iaddr], a1" : [iaddr] "=r"(iaddr));
 342:src/kernel/riscv.cpp ****         status = MemoryAllocator::kfree((void *) iaddr);;
 343:src/kernel/riscv.cpp ****     }
 344:src/kernel/riscv.cpp ****     else
 345:src/kernel/riscv.cpp ****         status = -1;
 346:src/kernel/riscv.cpp **** 
 347:src/kernel/riscv.cpp ****     //return status
 348:src/kernel/riscv.cpp ****     asm("mv a0, %[status]" : : [status] "r" (status));
 349:src/kernel/riscv.cpp **** 
GAS LISTING /tmp/ccAbMSjc.s 			page 26


 350:src/kernel/riscv.cpp ****     RiscV::saveA0toSscratch();
 351:src/kernel/riscv.cpp **** }
 352:src/kernel/riscv.cpp **** 
 353:src/kernel/riscv.cpp **** void RiscV::executeThreadCreateSyscall(){
 354:src/kernel/riscv.cpp **** 
 355:src/kernel/riscv.cpp ****     //fetch the arguments from a0-a7 registers
 356:src/kernel/riscv.cpp ****     uint64 iroutine, iargs, ihandle, istack;
 357:src/kernel/riscv.cpp **** 
 358:src/kernel/riscv.cpp ****     asm("mv %[istack], a7" : [istack] "=r"(istack));
 359:src/kernel/riscv.cpp ****     asm("mv %[ihandle], a1" : [ihandle] "=r"(ihandle));
 360:src/kernel/riscv.cpp ****     asm("mv %[iroutine], a2" : [iroutine] "=r"(iroutine));
 361:src/kernel/riscv.cpp ****     asm("mv %[iargs], a3" : [iargs] "=r"(iargs));
 362:src/kernel/riscv.cpp **** 
 363:src/kernel/riscv.cpp ****     //call constructor for Thread Control Block and if not null, write thread address into ihandle
 364:src/kernel/riscv.cpp ****     TCB *tcb = new TCB((TCB::Body)iroutine, (void*)iargs, (uint64*)istack, DEFAULT_TIME_SLICE);
 365:src/kernel/riscv.cpp **** 
 366:src/kernel/riscv.cpp ****     uint64 status = 0;
 367:src/kernel/riscv.cpp **** 
 368:src/kernel/riscv.cpp ****     if(tcb == nullptr){
 369:src/kernel/riscv.cpp ****         status = -1;
 370:src/kernel/riscv.cpp ****     }
 371:src/kernel/riscv.cpp ****     else{
 372:src/kernel/riscv.cpp ****         if(tcb->body)
 373:src/kernel/riscv.cpp ****             Scheduler::put(tcb);
 374:src/kernel/riscv.cpp ****         *((TCB**)ihandle) = tcb;
 375:src/kernel/riscv.cpp ****     }
 376:src/kernel/riscv.cpp **** 
 377:src/kernel/riscv.cpp ****     //return status
 378:src/kernel/riscv.cpp ****     asm("mv a0, %[status]" : : [status] "r" (status));
 379:src/kernel/riscv.cpp **** 
 380:src/kernel/riscv.cpp ****     RiscV::saveA0toSscratch();
 381:src/kernel/riscv.cpp **** }
 382:src/kernel/riscv.cpp **** 
 383:src/kernel/riscv.cpp **** void RiscV::executeThreadAttachBodySyscall(){
 384:src/kernel/riscv.cpp **** 
 385:src/kernel/riscv.cpp ****     //fetch the arguments from a0-a7 registers
 386:src/kernel/riscv.cpp ****     uint64 iroutine, iargs, ihandle, istack;
 387:src/kernel/riscv.cpp **** 
 388:src/kernel/riscv.cpp **** 
 389:src/kernel/riscv.cpp ****     asm("mv %[istack], a7" : [istack] "=r"(istack));
 390:src/kernel/riscv.cpp ****     asm("mv %[ihandle], a1" : [ihandle] "=r"(ihandle));
 391:src/kernel/riscv.cpp ****     asm("mv %[iroutine], a2" : [iroutine] "=r"(iroutine));
 392:src/kernel/riscv.cpp ****     asm("mv %[iargs], a3" : [iargs] "=r"(iargs));
 393:src/kernel/riscv.cpp **** 
 394:src/kernel/riscv.cpp ****     TCB *tcb = new TCB((TCB::Body)iroutine, (void*)iargs, (uint64*)istack, DEFAULT_TIME_SLICE);
 395:src/kernel/riscv.cpp **** 
 396:src/kernel/riscv.cpp ****     uint64 status = 0;
 397:src/kernel/riscv.cpp **** 
 398:src/kernel/riscv.cpp ****     if(tcb == nullptr){
 399:src/kernel/riscv.cpp ****         status = -1;
 400:src/kernel/riscv.cpp ****     }
 401:src/kernel/riscv.cpp ****     else{
 402:src/kernel/riscv.cpp ****         tcb->body = (TCB::Body)iroutine;
 403:src/kernel/riscv.cpp ****         tcb->args = (void*)iargs;
 404:src/kernel/riscv.cpp ****         *((TCB**)ihandle) = tcb;
 405:src/kernel/riscv.cpp ****     }
 406:src/kernel/riscv.cpp **** 
GAS LISTING /tmp/ccAbMSjc.s 			page 27


 407:src/kernel/riscv.cpp ****     asm("mv a0, %[status]" : : [status] "r" (status));
 408:src/kernel/riscv.cpp **** 
 409:src/kernel/riscv.cpp ****     RiscV::saveA0toSscratch();
 410:src/kernel/riscv.cpp **** }
 411:src/kernel/riscv.cpp **** 
 412:src/kernel/riscv.cpp **** void RiscV::executeThreadStartSyscall(){
 413:src/kernel/riscv.cpp **** 
 414:src/kernel/riscv.cpp ****     //fetch the arguments from a0-a7 registers
 415:src/kernel/riscv.cpp ****     uint64 ihandle;
 416:src/kernel/riscv.cpp **** 
 417:src/kernel/riscv.cpp ****     asm("mv %[ihandle], a1" : [ihandle] "=r"(ihandle));
 418:src/kernel/riscv.cpp **** 
 419:src/kernel/riscv.cpp ****     //get the handle and put tcb in scheduler if not null
 420:src/kernel/riscv.cpp ****     TCB* tcb =(TCB*)ihandle;
 421:src/kernel/riscv.cpp **** 
 422:src/kernel/riscv.cpp ****     uint64 status = 0;
 423:src/kernel/riscv.cpp **** 
 424:src/kernel/riscv.cpp ****     if(tcb == nullptr){
 425:src/kernel/riscv.cpp ****         status = -1;
 426:src/kernel/riscv.cpp ****     }
 427:src/kernel/riscv.cpp ****     else{
 428:src/kernel/riscv.cpp ****         tcb->status = TCB::Status::READY;
 429:src/kernel/riscv.cpp ****         Scheduler::put(tcb);
 430:src/kernel/riscv.cpp ****         TCB::dispatch();
 431:src/kernel/riscv.cpp ****     }
 432:src/kernel/riscv.cpp **** 
 433:src/kernel/riscv.cpp ****     //return status
 434:src/kernel/riscv.cpp ****     asm("mv a0, %[status]" : : [status] "r" (status));
 435:src/kernel/riscv.cpp **** 
 436:src/kernel/riscv.cpp ****     RiscV::saveA0toSscratch();
 437:src/kernel/riscv.cpp **** }
 438:src/kernel/riscv.cpp **** 
 439:src/kernel/riscv.cpp **** void RiscV::executeThreadExitSyscall() {
 440:src/kernel/riscv.cpp **** 
 441:src/kernel/riscv.cpp ****     //fetch the arguments from a0-a7 registers
 442:src/kernel/riscv.cpp ****     uint64 status = 0;
 443:src/kernel/riscv.cpp **** 
 444:src/kernel/riscv.cpp ****     //if thread not null, set status to finished and dispatch
 445:src/kernel/riscv.cpp ****     if(TCB::running == nullptr){
 446:src/kernel/riscv.cpp ****         status = -1;
 447:src/kernel/riscv.cpp ****     }
 448:src/kernel/riscv.cpp ****     else{
 449:src/kernel/riscv.cpp ****         TCB* old = TCB::running;
 450:src/kernel/riscv.cpp ****         old->status = TCB::Status::FINISHED;
 451:src/kernel/riscv.cpp ****         TCB::dispatch();
 452:src/kernel/riscv.cpp ****     }
 453:src/kernel/riscv.cpp **** 
 454:src/kernel/riscv.cpp ****     asm("mv a0, %[status]" : : [status] "r" (status));
 455:src/kernel/riscv.cpp **** 
 456:src/kernel/riscv.cpp ****     RiscV::saveA0toSscratch();
 457:src/kernel/riscv.cpp **** }
 458:src/kernel/riscv.cpp **** 
 459:src/kernel/riscv.cpp **** void RiscV::executeThreadDispatchSyscall(){
 787              		.loc 1 459 43 is_stmt 1
 788              		.cfi_startproc
 789 04ac 130101FF 		addi	sp,sp,-16
 790              		.cfi_def_cfa_offset 16
GAS LISTING /tmp/ccAbMSjc.s 			page 28


 791 04b0 23341100 		sd	ra,8(sp)
 792 04b4 23308100 		sd	s0,0(sp)
 793              		.cfi_offset 1, -8
 794              		.cfi_offset 8, -16
 795 04b8 13040101 		addi	s0,sp,16
 796              		.cfi_def_cfa 8, 0
 460:src/kernel/riscv.cpp **** 
 461:src/kernel/riscv.cpp ****     //dispatch current running thread
 462:src/kernel/riscv.cpp ****     TCB* old = TCB::running;
 797              		.loc 1 462 5
 798              		.loc 1 462 10 is_stmt 0
 799 04bc 97070000 		la	a5,_ZN3TCB7runningE
 799      83B70700 
 800 04c4 83B70700 		ld	a5,0(a5)
 801              	.LVL91:
 463:src/kernel/riscv.cpp ****     old->status = TCB::Status::READY;
 802              		.loc 1 463 5 is_stmt 1
 803              		.loc 1 463 17 is_stmt 0
 804 04c8 13071000 		li	a4,1
 805 04cc 23A8E700 		sw	a4,16(a5)
 464:src/kernel/riscv.cpp ****     TCB::dispatch();
 806              		.loc 1 464 5 is_stmt 1
 807              		.loc 1 464 18 is_stmt 0
 808 04d0 97000000 		call	_ZN3TCB8dispatchEv@plt
 808      E7800000 
 809              	.LVL92:
 465:src/kernel/riscv.cpp **** }
 810              		.loc 1 465 1
 811 04d8 83308100 		ld	ra,8(sp)
 812              		.cfi_restore 1
 813 04dc 03340100 		ld	s0,0(sp)
 814              		.cfi_restore 8
 815              		.cfi_def_cfa 2, 16
 816 04e0 13010101 		addi	sp,sp,16
 817              		.cfi_def_cfa_offset 0
 818 04e4 67800000 		jr	ra
 819              		.cfi_endproc
 820              	.LFE54:
 822              		.align	2
 823              		.globl	_ZN5RiscV18executePutcSyscallEv
 825              	_ZN5RiscV18executePutcSyscallEv:
 826              	.LFB61:
 466:src/kernel/riscv.cpp **** 
 467:src/kernel/riscv.cpp **** void RiscV::executeSemOpenSyscall() {
 468:src/kernel/riscv.cpp **** 
 469:src/kernel/riscv.cpp ****     //fetch the arguments from a0-a7 registers
 470:src/kernel/riscv.cpp ****     uint64 ihandle, iinit;
 471:src/kernel/riscv.cpp **** 
 472:src/kernel/riscv.cpp ****     asm("mv %[ihandle], a1" : [ihandle] "=r"(ihandle));
 473:src/kernel/riscv.cpp ****     asm("mv %[iinit], a2" : [iinit] "=r"(iinit));
 474:src/kernel/riscv.cpp **** 
 475:src/kernel/riscv.cpp ****     //create new Semaphore Control Block and write it into ihandle if not null
 476:src/kernel/riscv.cpp ****     SCB *scb = new SCB(iinit);
 477:src/kernel/riscv.cpp **** 
 478:src/kernel/riscv.cpp ****     uint64 status = 0;
 479:src/kernel/riscv.cpp **** 
 480:src/kernel/riscv.cpp ****     if(scb == nullptr){
GAS LISTING /tmp/ccAbMSjc.s 			page 29


 481:src/kernel/riscv.cpp ****         status = -1;
 482:src/kernel/riscv.cpp ****     }
 483:src/kernel/riscv.cpp ****     else{
 484:src/kernel/riscv.cpp ****         *((SCB**)ihandle) = scb;
 485:src/kernel/riscv.cpp ****     }
 486:src/kernel/riscv.cpp **** 
 487:src/kernel/riscv.cpp ****     //return status
 488:src/kernel/riscv.cpp ****     asm("mv a0, %[status]" : : [status] "r" (status));
 489:src/kernel/riscv.cpp **** 
 490:src/kernel/riscv.cpp ****     RiscV::saveA0toSscratch();
 491:src/kernel/riscv.cpp **** 
 492:src/kernel/riscv.cpp **** }
 493:src/kernel/riscv.cpp **** 
 494:src/kernel/riscv.cpp **** void RiscV::executeSemCloseSyscall() {
 495:src/kernel/riscv.cpp **** 
 496:src/kernel/riscv.cpp ****     //fetch the arguments from a0-a7 registers
 497:src/kernel/riscv.cpp ****     uint64 ihandle;
 498:src/kernel/riscv.cpp **** 
 499:src/kernel/riscv.cpp ****     asm("mv %[ihandle], a1" : [ihandle] "=r"(ihandle));
 500:src/kernel/riscv.cpp **** 
 501:src/kernel/riscv.cpp ****     //delete scb if not null
 502:src/kernel/riscv.cpp ****     SCB *scb = (SCB*)ihandle;
 503:src/kernel/riscv.cpp ****     uint64 status = 0;
 504:src/kernel/riscv.cpp **** 
 505:src/kernel/riscv.cpp ****     if(scb == nullptr){
 506:src/kernel/riscv.cpp ****         status = -1;
 507:src/kernel/riscv.cpp ****     }
 508:src/kernel/riscv.cpp ****     else
 509:src/kernel/riscv.cpp ****         delete (SCB*)ihandle;
 510:src/kernel/riscv.cpp **** 
 511:src/kernel/riscv.cpp ****     //return status
 512:src/kernel/riscv.cpp ****     asm("mv a0, %[status]" : : [status] "r" (status));
 513:src/kernel/riscv.cpp **** 
 514:src/kernel/riscv.cpp ****     RiscV::saveA0toSscratch();
 515:src/kernel/riscv.cpp **** }
 516:src/kernel/riscv.cpp **** 
 517:src/kernel/riscv.cpp **** void RiscV::executeSemWaitSyscall() {
 518:src/kernel/riscv.cpp **** 
 519:src/kernel/riscv.cpp ****     //fetch the arguments from a0-a7 registers
 520:src/kernel/riscv.cpp ****     uint64 ihandle;
 521:src/kernel/riscv.cpp **** 
 522:src/kernel/riscv.cpp ****     asm("mv %[ihandle], a1" : [ihandle] "=r"(ihandle));
 523:src/kernel/riscv.cpp **** 
 524:src/kernel/riscv.cpp ****     uint64 status = 0;
 525:src/kernel/riscv.cpp ****     //call wait method on ihandle scb
 526:src/kernel/riscv.cpp **** 
 527:src/kernel/riscv.cpp ****     if(((SCB*)ihandle) != nullptr)
 528:src/kernel/riscv.cpp ****         ((SCB*)ihandle)->wait();
 529:src/kernel/riscv.cpp ****     else
 530:src/kernel/riscv.cpp ****         status = -1;
 531:src/kernel/riscv.cpp **** 
 532:src/kernel/riscv.cpp ****     if(TCB::running->semError != nullptr)
 533:src/kernel/riscv.cpp ****         status = -1;
 534:src/kernel/riscv.cpp ****     else
 535:src/kernel/riscv.cpp ****         status = 0;
 536:src/kernel/riscv.cpp **** 
 537:src/kernel/riscv.cpp ****     //return status
GAS LISTING /tmp/ccAbMSjc.s 			page 30


 538:src/kernel/riscv.cpp ****     asm("mv a0, %[status]" : : [status] "r" (status));
 539:src/kernel/riscv.cpp **** 
 540:src/kernel/riscv.cpp ****     RiscV::saveA0toSscratch();
 541:src/kernel/riscv.cpp **** 
 542:src/kernel/riscv.cpp **** }
 543:src/kernel/riscv.cpp **** 
 544:src/kernel/riscv.cpp **** void RiscV::executeSemSignalSyscall() {
 545:src/kernel/riscv.cpp **** 
 546:src/kernel/riscv.cpp ****     //fetch the arguments from a0-a7 registers
 547:src/kernel/riscv.cpp ****     uint64 ihandle;
 548:src/kernel/riscv.cpp **** 
 549:src/kernel/riscv.cpp ****     asm("mv %[ihandle], a1" : [ihandle] "=r"(ihandle));
 550:src/kernel/riscv.cpp **** 
 551:src/kernel/riscv.cpp ****     //call signal method on ihandle scb
 552:src/kernel/riscv.cpp **** 
 553:src/kernel/riscv.cpp ****     uint64 status = 0;
 554:src/kernel/riscv.cpp **** 
 555:src/kernel/riscv.cpp ****     if(((SCB*)ihandle) != nullptr)
 556:src/kernel/riscv.cpp ****         ((SCB*)ihandle)->signal();
 557:src/kernel/riscv.cpp ****     else
 558:src/kernel/riscv.cpp ****         status = -1;
 559:src/kernel/riscv.cpp **** 
 560:src/kernel/riscv.cpp ****     //return status
 561:src/kernel/riscv.cpp ****     asm("mv a0, %[status]" : : [status] "r" (status));
 562:src/kernel/riscv.cpp **** 
 563:src/kernel/riscv.cpp ****     RiscV::saveA0toSscratch();
 564:src/kernel/riscv.cpp **** }
 565:src/kernel/riscv.cpp **** 
 566:src/kernel/riscv.cpp **** void RiscV::executeTimeSleepSyscall() {
 567:src/kernel/riscv.cpp **** 
 568:src/kernel/riscv.cpp ****     //fetch the arguments from a0-a7 registers
 569:src/kernel/riscv.cpp ****     uint64 itime;
 570:src/kernel/riscv.cpp **** 
 571:src/kernel/riscv.cpp ****     asm("mv %[itime], a1" : [itime] "=r"(itime));
 572:src/kernel/riscv.cpp **** 
 573:src/kernel/riscv.cpp ****     //calculate wake time for running thread and put it to sleep
 574:src/kernel/riscv.cpp ****     //fetch new running with dispatch
 575:src/kernel/riscv.cpp ****     TCB* tcb = TCB::running;
 576:src/kernel/riscv.cpp ****     tcb->sleepTime = globalTime;
 577:src/kernel/riscv.cpp ****     tcb->wakeTime = globalTime + itime;
 578:src/kernel/riscv.cpp **** 
 579:src/kernel/riscv.cpp ****     Scheduler::sleep(tcb);
 580:src/kernel/riscv.cpp **** 
 581:src/kernel/riscv.cpp ****     tcb->status = TCB::Status::BLOCKED;
 582:src/kernel/riscv.cpp **** 
 583:src/kernel/riscv.cpp ****     TCB::dispatch();
 584:src/kernel/riscv.cpp **** 
 585:src/kernel/riscv.cpp ****     uint64 status = 0;
 586:src/kernel/riscv.cpp **** 
 587:src/kernel/riscv.cpp ****     //return status
 588:src/kernel/riscv.cpp ****     asm("mv a0, %[status]" : : [status] "r" (status));
 589:src/kernel/riscv.cpp **** 
 590:src/kernel/riscv.cpp ****     RiscV::saveA0toSscratch();
 591:src/kernel/riscv.cpp **** }
 592:src/kernel/riscv.cpp **** 
 593:src/kernel/riscv.cpp **** void RiscV::executeGetcSyscall() {
 594:src/kernel/riscv.cpp **** 
GAS LISTING /tmp/ccAbMSjc.s 			page 31


 595:src/kernel/riscv.cpp ****     //register a pending getc call
 596:src/kernel/riscv.cpp ****     if(!userMainFinished)
 597:src/kernel/riscv.cpp ****         ConsoleUtil::pendingGetc++;
 598:src/kernel/riscv.cpp **** 
 599:src/kernel/riscv.cpp ****     //get character from input buffer
 600:src/kernel/riscv.cpp ****     char c = ConsoleUtil::getInput();
 601:src/kernel/riscv.cpp **** 
 602:src/kernel/riscv.cpp ****     //if char == \n echo it as LF and CR
 603:src/kernel/riscv.cpp ****     if(c==13) {
 604:src/kernel/riscv.cpp ****         ConsoleUtil::putOutput(13);
 605:src/kernel/riscv.cpp ****         ConsoleUtil::putOutput(10);
 606:src/kernel/riscv.cpp ****     }
 607:src/kernel/riscv.cpp ****     //if not ESC character, echo it to console
 608:src/kernel/riscv.cpp ****     else if(c!=0x01b)
 609:src/kernel/riscv.cpp ****         ConsoleUtil::putOutput(c);
 610:src/kernel/riscv.cpp **** 
 611:src/kernel/riscv.cpp ****     //return character
 612:src/kernel/riscv.cpp ****     asm("mv a0, %[c]" : : [c] "r" (c));
 613:src/kernel/riscv.cpp **** 
 614:src/kernel/riscv.cpp ****     RiscV::saveA0toSscratch();
 615:src/kernel/riscv.cpp **** }
 616:src/kernel/riscv.cpp **** 
 617:src/kernel/riscv.cpp **** void RiscV::executePutcSyscall() {
 827              		.loc 1 617 34 is_stmt 1
 828              		.cfi_startproc
 829 04e8 130101FF 		addi	sp,sp,-16
 830              		.cfi_def_cfa_offset 16
 831 04ec 23341100 		sd	ra,8(sp)
 832 04f0 23308100 		sd	s0,0(sp)
 833              		.cfi_offset 1, -8
 834              		.cfi_offset 8, -16
 835 04f4 13040101 		addi	s0,sp,16
 836              		.cfi_def_cfa 8, 0
 618:src/kernel/riscv.cpp **** 
 619:src/kernel/riscv.cpp ****     //register a pending putc call
 620:src/kernel/riscv.cpp ****     if(!userMainFinished)
 837              		.loc 1 620 5
 838              		.loc 1 620 8 is_stmt 0
 839 04f8 97070000 		lbu	a5,.LANCHOR0+8
 839      83C70700 
 840              		.loc 1 620 5
 841 0500 639C0700 		bnez	a5,.L38
 621:src/kernel/riscv.cpp ****         ConsoleUtil::pendingPutc++;
 842              		.loc 1 621 9 is_stmt 1
 843              		.loc 1 621 33 is_stmt 0
 844 0504 17070000 		la	a4,_ZN11ConsoleUtil11pendingPutcE
 844      03370700 
 845 050c 83370700 		ld	a5,0(a4)
 846 0510 93871700 		addi	a5,a5,1
 847 0514 2330F700 		sd	a5,0(a4)
 848              	.L38:
 622:src/kernel/riscv.cpp **** 
 623:src/kernel/riscv.cpp ****     char c;
 849              		.loc 1 623 5 is_stmt 1
 624:src/kernel/riscv.cpp **** 
 625:src/kernel/riscv.cpp ****     asm("mv %[c], a1" : [c] "=r"(c));
 850              		.loc 1 625 5
GAS LISTING /tmp/ccAbMSjc.s 			page 32


 851              		.loc 1 625 37 is_stmt 0
 852              	#APP
 853              	# 625 "src/kernel/riscv.cpp" 1
 626              	
 854              		mv a0, a1
 855              	# 0 "" 2
 856              	.LVL93:
 627:src/kernel/riscv.cpp ****     //put character in output buffer
 628:src/kernel/riscv.cpp ****     ConsoleUtil::putOutput(c);
 857              		.loc 1 628 5 is_stmt 1
 858              		.loc 1 628 27 is_stmt 0
 859              	#NO_APP
 860 051c 1375F50F 		andi	a0,a0,0xff
 861 0520 97000000 		call	_ZN11ConsoleUtil9putOutputEc@plt
 861      E7800000 
 862              	.LVL94:
 629:src/kernel/riscv.cpp **** }
 863              		.loc 1 629 1
 864 0528 83308100 		ld	ra,8(sp)
 865              		.cfi_restore 1
 866 052c 03340100 		ld	s0,0(sp)
 867              		.cfi_restore 8
 868              		.cfi_def_cfa 2, 16
 869 0530 13010101 		addi	sp,sp,16
 870              		.cfi_def_cfa_offset 0
 871 0534 67800000 		jr	ra
 872              		.cfi_endproc
 873              	.LFE61:
 875              		.align	2
 876              		.globl	_ZN5RiscV11putcWrapperEPv
 878              	_ZN5RiscV11putcWrapperEPv:
 879              	.LFB62:
 630:src/kernel/riscv.cpp **** 
 631:src/kernel/riscv.cpp **** //wrapper function for putcThread
 632:src/kernel/riscv.cpp **** //spins in a while loop and checks whether console is ready to take output
 633:src/kernel/riscv.cpp **** //if ready read data from output buffer
 634:src/kernel/riscv.cpp **** void RiscV::putcWrapper(void* arg)
 635:src/kernel/riscv.cpp **** {
 880              		.loc 1 635 1 is_stmt 1
 881              		.cfi_startproc
 882              	.LVL95:
 883 0538 130101FE 		addi	sp,sp,-32
 884              		.cfi_def_cfa_offset 32
 885 053c 233C1100 		sd	ra,24(sp)
 886 0540 23388100 		sd	s0,16(sp)
 887              		.cfi_offset 1, -8
 888              		.cfi_offset 8, -16
 889 0544 13040102 		addi	s0,sp,32
 890              		.cfi_def_cfa 8, 0
 891 0548 6F00C000 		j	.L41
 892              	.LVL96:
 893              	.L42:
 894              	.LBB119:
 895              	.LBB120:
 636:src/kernel/riscv.cpp ****     while(true)
 637:src/kernel/riscv.cpp ****     {
 638:src/kernel/riscv.cpp ****         //read console status from status register
GAS LISTING /tmp/ccAbMSjc.s 			page 33


 639:src/kernel/riscv.cpp ****         uint64 status = CONSOLE_STATUS;
 640:src/kernel/riscv.cpp ****         asm("mv a0, %[status]" : : [status] "r" (status));
 641:src/kernel/riscv.cpp ****         asm("lb a1, 0(a0)");
 642:src/kernel/riscv.cpp ****         asm("mv %[status], a1" : [status] "=r" (status));
 643:src/kernel/riscv.cpp **** 
 644:src/kernel/riscv.cpp ****         //if console ready..
 645:src/kernel/riscv.cpp ****         if(status & 1UL<<5){
 646:src/kernel/riscv.cpp **** 
 647:src/kernel/riscv.cpp ****             //get character from output buffer with possible block if nothing in buffer
 648:src/kernel/riscv.cpp ****                 char volatile c = ConsoleUtil::putcUtilSyscall();
 649:src/kernel/riscv.cpp ****                 uint64 data = CONSOLE_RX_DATA;
 650:src/kernel/riscv.cpp ****                 asm("mv a0, %[data]" : : [data] "r"(data));
 651:src/kernel/riscv.cpp ****                 asm("mv a1, %[c]" : : [c] "r"(c));
 652:src/kernel/riscv.cpp ****                 asm("sb a1,0(a0)");
 653:src/kernel/riscv.cpp **** 
 654:src/kernel/riscv.cpp ****             //decrement number of pending putc requests
 655:src/kernel/riscv.cpp ****             if(ConsoleUtil::pendingPutc>0)
 656:src/kernel/riscv.cpp ****                 ConsoleUtil::pendingPutc--;
 657:src/kernel/riscv.cpp ****         }
 658:src/kernel/riscv.cpp ****         else
 659:src/kernel/riscv.cpp ****             TCB::dispatch();
 896              		.loc 1 659 13
 897              		.loc 1 659 26 is_stmt 0
 898 054c 97000000 		call	_ZN3TCB8dispatchEv@plt
 898      E7800000 
 899              	.LVL97:
 900              	.L41:
 901              	.LBE120:
 902              	.LBE119:
 636:src/kernel/riscv.cpp ****     while(true)
 903              		.loc 1 636 5 is_stmt 1
 904              	.LBB123:
 639:src/kernel/riscv.cpp ****         asm("mv a0, %[status]" : : [status] "r" (status));
 905              		.loc 1 639 9
 639:src/kernel/riscv.cpp ****         asm("mv a0, %[status]" : : [status] "r" (status));
 906              		.loc 1 639 16 is_stmt 0
 907 0554 97070000 		la	a5,CONSOLE_STATUS
 907      83B70700 
 908 055c 83B70700 		ld	a5,0(a5)
 909              	.LVL98:
 640:src/kernel/riscv.cpp ****         asm("lb a1, 0(a0)");
 910              		.loc 1 640 9 is_stmt 1
 640:src/kernel/riscv.cpp ****         asm("lb a1, 0(a0)");
 911              		.loc 1 640 58 is_stmt 0
 912              	#APP
 913              	# 640 "src/kernel/riscv.cpp" 1
 641:src/kernel/riscv.cpp ****         asm("mv %[status], a1" : [status] "=r" (status));
 914              		mv a0, a5
 915              	# 0 "" 2
 916              		.loc 1 641 9 is_stmt 1
 641:src/kernel/riscv.cpp ****         asm("mv %[status], a1" : [status] "=r" (status));
 917              		.loc 1 641 28 is_stmt 0
 918              	# 641 "src/kernel/riscv.cpp" 1
 642:src/kernel/riscv.cpp **** 
 919              		lb a1, 0(a0)
 920              	# 0 "" 2
 921              		.loc 1 642 9 is_stmt 1
GAS LISTING /tmp/ccAbMSjc.s 			page 34


 642:src/kernel/riscv.cpp **** 
 922              		.loc 1 642 57 is_stmt 0
 923              	# 642 "src/kernel/riscv.cpp" 1
 924              		mv a5, a1
 925              	# 0 "" 2
 926              	.LVL99:
 645:src/kernel/riscv.cpp **** 
 927              		.loc 1 645 9 is_stmt 1
 928              	#NO_APP
 929              	.LBB122:
 645:src/kernel/riscv.cpp **** 
 930              		.loc 1 645 19 is_stmt 0
 931 056c 93F70702 		andi	a5,a5,32
 932              	.LVL100:
 645:src/kernel/riscv.cpp **** 
 933              		.loc 1 645 9
 934 0570 E38E07FC 		beqz	a5,.L42
 935              	.LBB121:
 648:src/kernel/riscv.cpp ****                 uint64 data = CONSOLE_RX_DATA;
 936              		.loc 1 648 17 is_stmt 1
 648:src/kernel/riscv.cpp ****                 uint64 data = CONSOLE_RX_DATA;
 937              		.loc 1 648 63 is_stmt 0
 938 0574 97000000 		call	_ZN11ConsoleUtil15putcUtilSyscallEv@plt
 938      E7800000 
 939              	.LVL101:
 648:src/kernel/riscv.cpp ****                 uint64 data = CONSOLE_RX_DATA;
 940              		.loc 1 648 64
 941 057c A307A4FE 		sb	a0,-17(s0)
 649:src/kernel/riscv.cpp ****                 asm("mv a0, %[data]" : : [data] "r"(data));
 942              		.loc 1 649 17 is_stmt 1
 649:src/kernel/riscv.cpp ****                 asm("mv a0, %[data]" : : [data] "r"(data));
 943              		.loc 1 649 24 is_stmt 0
 944 0580 97070000 		la	a5,CONSOLE_RX_DATA
 944      83B70700 
 945 0588 83B70700 		ld	a5,0(a5)
 946              	.LVL102:
 650:src/kernel/riscv.cpp ****                 asm("mv a1, %[c]" : : [c] "r"(c));
 947              		.loc 1 650 17 is_stmt 1
 650:src/kernel/riscv.cpp ****                 asm("mv a1, %[c]" : : [c] "r"(c));
 948              		.loc 1 650 59 is_stmt 0
 949              	#APP
 950              	# 650 "src/kernel/riscv.cpp" 1
 651:src/kernel/riscv.cpp ****                 asm("sb a1,0(a0)");
 951              		mv a0, a5
 952              	# 0 "" 2
 953              		.loc 1 651 17 is_stmt 1
 651:src/kernel/riscv.cpp ****                 asm("sb a1,0(a0)");
 954              		.loc 1 651 47 is_stmt 0
 955              	#NO_APP
 956 0590 8347F4FE 		lbu	a5,-17(s0)
 957              	.LVL103:
 651:src/kernel/riscv.cpp ****                 asm("sb a1,0(a0)");
 958              		.loc 1 651 50
 959              	#APP
 960              	# 651 "src/kernel/riscv.cpp" 1
 652:src/kernel/riscv.cpp **** 
 961              		mv a1, a5
GAS LISTING /tmp/ccAbMSjc.s 			page 35


 962              	# 0 "" 2
 963              		.loc 1 652 17 is_stmt 1
 652:src/kernel/riscv.cpp **** 
 964              		.loc 1 652 35 is_stmt 0
 965              	# 652 "src/kernel/riscv.cpp" 1
 655:src/kernel/riscv.cpp ****                 ConsoleUtil::pendingPutc--;
 966              		sb a1,0(a0)
 967              	# 0 "" 2
 968              		.loc 1 655 13 is_stmt 1
 655:src/kernel/riscv.cpp ****                 ConsoleUtil::pendingPutc--;
 969              		.loc 1 655 40 is_stmt 0
 970              	#NO_APP
 971 059c 97070000 		la	a5,_ZN11ConsoleUtil11pendingPutcE
 971      83B70700 
 972 05a4 83B70700 		ld	a5,0(a5)
 655:src/kernel/riscv.cpp ****                 ConsoleUtil::pendingPutc--;
 973              		.loc 1 655 13
 974 05a8 E38607FA 		beqz	a5,.L41
 656:src/kernel/riscv.cpp ****         }
 975              		.loc 1 656 17 is_stmt 1
 656:src/kernel/riscv.cpp ****         }
 976              		.loc 1 656 41 is_stmt 0
 977 05ac 9387F7FF 		addi	a5,a5,-1
 978 05b0 17070000 		la	a4,_ZN11ConsoleUtil11pendingPutcE
 978      03370700 
 979 05b8 2330F700 		sd	a5,0(a4)
 980 05bc 6FF09FF9 		j	.L41
 981              	.LBE121:
 982              	.LBE122:
 983              	.LBE123:
 984              		.cfi_endproc
 985              	.LFE62:
 987              		.align	2
 988              		.globl	_ZN5RiscV29jumpToDesignatedPrivilegeModeEv
 990              	_ZN5RiscV29jumpToDesignatedPrivilegeModeEv:
 991              	.LFB64:
 660:src/kernel/riscv.cpp ****     }
 661:src/kernel/riscv.cpp **** }
 662:src/kernel/riscv.cpp **** 
 663:src/kernel/riscv.cpp **** //utility syscall to get character from output buffer
 664:src/kernel/riscv.cpp **** //syscall is needed because we don't want to fiddle with kernel structures from anywhere but the tr
 665:src/kernel/riscv.cpp **** void RiscV::executePutcUtilSyscall() {
 666:src/kernel/riscv.cpp ****     char c = ConsoleUtil::getOutput();
 667:src/kernel/riscv.cpp ****     asm("mv a0, %[c]" : : [c] "r" ((uint64)(c)) );
 668:src/kernel/riscv.cpp **** 
 669:src/kernel/riscv.cpp ****     RiscV::saveA0toSscratch();
 670:src/kernel/riscv.cpp **** }
 671:src/kernel/riscv.cpp **** 
 672:src/kernel/riscv.cpp **** //return to privilege that was given at creation
 673:src/kernel/riscv.cpp **** void RiscV::jumpToDesignatedPrivilegeMode() {
 992              		.loc 1 673 45 is_stmt 1
 993              		.cfi_startproc
 994 05c0 130101FF 		addi	sp,sp,-16
 995              		.cfi_def_cfa_offset 16
 996 05c4 23348100 		sd	s0,8(sp)
 997              		.cfi_offset 8, -8
 998 05c8 13040101 		addi	s0,sp,16
GAS LISTING /tmp/ccAbMSjc.s 			page 36


 999              		.cfi_def_cfa 8, 0
 674:src/kernel/riscv.cpp ****     if(TCB::running->mode == TCB::Mode::SUPERVISOR) {
 1000              		.loc 1 674 5
 1001              		.loc 1 674 22 is_stmt 0
 1002 05cc 97070000 		la	a5,_ZN3TCB7runningE
 1002      83B70700 
 1003 05d4 83B70700 		ld	a5,0(a5)
 1004 05d8 03A74701 		lw	a4,20(a5)
 1005              		.loc 1 674 5
 1006 05dc 93071000 		li	a5,1
 1007 05e0 630CF700 		beq	a4,a5,.L49
 675:src/kernel/riscv.cpp ****         RiscV::ms_sstatus(RiscV::SSTATUS_SPP);
 676:src/kernel/riscv.cpp ****     }
 677:src/kernel/riscv.cpp ****     else {
 678:src/kernel/riscv.cpp ****         RiscV::mc_sstatus(RiscV::SSTATUS_SPP);
 1008              		.loc 1 678 9 is_stmt 1
 1009              	.LVL104:
 1010              	.LBB124:
 1011              	.LBB125:
 189:src/kernel/../../h/riscv.hpp **** }
 1012              		.loc 2 189 5
 189:src/kernel/../../h/riscv.hpp **** }
 1013              		.loc 2 189 55 is_stmt 0
 1014 05e4 93070010 		li	a5,256
 1015              	#APP
 1016              	# 189 "src/kernel/../../h/riscv.hpp" 1
 1017              		csrc sstatus, a5
 1018              	# 0 "" 2
 1019              	.LVL105:
 1020              	#NO_APP
 1021              	.L45:
 1022              	.LBE125:
 1023              	.LBE124:
 679:src/kernel/riscv.cpp ****     }
 680:src/kernel/riscv.cpp **** }
 1024              		.loc 1 680 1
 1025 05ec 03348100 		ld	s0,8(sp)
 1026              		.cfi_remember_state
 1027              		.cfi_restore 8
 1028              		.cfi_def_cfa 2, 16
 1029 05f0 13010101 		addi	sp,sp,16
 1030              		.cfi_def_cfa_offset 0
 1031 05f4 67800000 		jr	ra
 1032              	.L49:
 1033              		.cfi_restore_state
 675:src/kernel/riscv.cpp ****     }
 1034              		.loc 1 675 9 is_stmt 1
 1035              	.LVL106:
 1036              	.LBB126:
 1037              	.LBB127:
 185:src/kernel/../../h/riscv.hpp **** }
 1038              		.loc 2 185 5
 185:src/kernel/../../h/riscv.hpp **** }
 1039              		.loc 2 185 55 is_stmt 0
 1040 05f8 93070010 		li	a5,256
 1041              	#APP
 1042              	# 185 "src/kernel/../../h/riscv.hpp" 1
GAS LISTING /tmp/ccAbMSjc.s 			page 37


 186:src/kernel/../../h/riscv.hpp **** 
 1043              		csrs sstatus, a5
 1044              	# 0 "" 2
 1045              		.loc 2 186 1
 1046              	#NO_APP
 1047 0600 6FF0DFFE 		j	.L45
 1048              	.LBE127:
 1049              	.LBE126:
 1050              		.cfi_endproc
 1051              	.LFE64:
 1053              		.align	2
 1054              		.globl	_ZN5RiscV8finalizeEv
 1056              	_ZN5RiscV8finalizeEv:
 1057              	.LFB65:
 681:src/kernel/riscv.cpp **** 
 682:src/kernel/riscv.cpp **** 
 683:src/kernel/riscv.cpp **** //clear out the scheduler and let console finish remaining outputs if there are any
 684:src/kernel/riscv.cpp **** void RiscV::finalize() {
 1058              		.loc 1 684 24 is_stmt 1
 1059              		.cfi_startproc
 1060 0604 130101FF 		addi	sp,sp,-16
 1061              		.cfi_def_cfa_offset 16
 1062 0608 23341100 		sd	ra,8(sp)
 1063 060c 23308100 		sd	s0,0(sp)
 1064              		.cfi_offset 1, -8
 1065              		.cfi_offset 8, -16
 1066 0610 13040101 		addi	s0,sp,16
 1067              		.cfi_def_cfa 8, 0
 685:src/kernel/riscv.cpp ****     userMainFinished = true;
 1068              		.loc 1 685 5
 1069              		.loc 1 685 22 is_stmt 0
 1070 0614 93071000 		li	a5,1
 1071 0618 17070000 		sb	a5,.LANCHOR0+8,a4
 1071      2300F700 
 686:src/kernel/riscv.cpp **** 
 687:src/kernel/riscv.cpp ****     ConsoleUtil::pendingPutc = 0;
 1072              		.loc 1 687 5 is_stmt 1
 1073              		.loc 1 687 30 is_stmt 0
 1074 0620 97070000 		la	a5,_ZN11ConsoleUtil11pendingPutcE
 1074      83B70700 
 1075 0628 23B00700 		sd	zero,0(a5)
 688:src/kernel/riscv.cpp ****     ConsoleUtil::pendingGetc = 0;
 1076              		.loc 1 688 5 is_stmt 1
 1077              		.loc 1 688 30 is_stmt 0
 1078 062c 97070000 		la	a5,_ZN11ConsoleUtil11pendingGetcE
 1078      83B70700 
 1079 0634 23B00700 		sd	zero,0(a5)
 689:src/kernel/riscv.cpp **** 
 690:src/kernel/riscv.cpp ****     RiscV::disableInterrupts();
 1080              		.loc 1 690 5 is_stmt 1
 1081              	.LBB128:
 1082              	.LBB129:
 212:src/kernel/../../h/riscv.hpp **** }
 213:src/kernel/../../h/riscv.hpp **** 
 214:src/kernel/../../h/riscv.hpp **** inline void RiscV::disableInterrupts() {
 215:src/kernel/../../h/riscv.hpp ****     disableTimerInterrupts();
 1083              		.loc 2 215 5
GAS LISTING /tmp/ccAbMSjc.s 			page 38


 1084              	.LBE129:
 1085              	.LBE128:
 216:src/kernel/../../h/riscv.hpp ****     disableHardwareInterrupts();
 217:src/kernel/../../h/riscv.hpp **** }
 218:src/kernel/../../h/riscv.hpp **** 
 219:src/kernel/../../h/riscv.hpp **** inline void RiscV::enableHardwareInterrupts() {
 220:src/kernel/../../h/riscv.hpp ****     RiscV::mc_sie(SIP_SSIE);
 221:src/kernel/../../h/riscv.hpp ****     RiscV::ms_sstatus(SSTATUS_SIE);
 222:src/kernel/../../h/riscv.hpp ****     RiscV::ms_sie(SIP_SEIE);
 223:src/kernel/../../h/riscv.hpp **** }
 224:src/kernel/../../h/riscv.hpp **** 
 225:src/kernel/../../h/riscv.hpp **** inline void RiscV::disableHardwareInterrupts(){
 226:src/kernel/../../h/riscv.hpp ****     RiscV::mc_sie(SIP_SEIE);
 227:src/kernel/../../h/riscv.hpp **** }
 228:src/kernel/../../h/riscv.hpp **** 
 229:src/kernel/../../h/riscv.hpp **** inline void RiscV::enableTimerInterrupts() {
 230:src/kernel/../../h/riscv.hpp ****     RiscV::mc_sie(SIP_SEIE);
 231:src/kernel/../../h/riscv.hpp ****     RiscV::ms_sstatus(SSTATUS_SIE);
 232:src/kernel/../../h/riscv.hpp ****     RiscV::ms_sie(SIP_SSIE);
 233:src/kernel/../../h/riscv.hpp **** }
 234:src/kernel/../../h/riscv.hpp **** 
 235:src/kernel/../../h/riscv.hpp **** inline void RiscV::disableTimerInterrupts(){
 236:src/kernel/../../h/riscv.hpp ****     RiscV::mc_sie(SIP_SSIE);
 1086              		.loc 2 236 5
 1087              	.LVL107:
 1088              	.LBB138:
 1089              	.LBB136:
 1090              	.LBB130:
 1091              	.LBB131:
 1092              	.LBB132:
 205:src/kernel/../../h/riscv.hpp **** }
 1093              		.loc 2 205 5
 205:src/kernel/../../h/riscv.hpp **** }
 1094              		.loc 2 205 51 is_stmt 0
 1095 0638 93072000 		li	a5,2
 1096              	#APP
 1097              	# 205 "src/kernel/../../h/riscv.hpp" 1
 1098              		csrc sie, a5
 1099              	# 0 "" 2
 1100              	.LVL108:
 1101              	#NO_APP
 1102              	.LBE132:
 1103              	.LBE131:
 1104              	.LBE130:
 216:src/kernel/../../h/riscv.hpp ****     disableHardwareInterrupts();
 1105              		.loc 2 216 5 is_stmt 1
 1106              	.LBE136:
 1107              	.LBE138:
 226:src/kernel/../../h/riscv.hpp **** }
 1108              		.loc 2 226 5
 1109              	.LBB139:
 1110              	.LBB137:
 1111              	.LBB133:
 1112              	.LBB134:
 1113              	.LBB135:
 205:src/kernel/../../h/riscv.hpp **** }
 1114              		.loc 2 205 5
GAS LISTING /tmp/ccAbMSjc.s 			page 39


 205:src/kernel/../../h/riscv.hpp **** }
 1115              		.loc 2 205 51 is_stmt 0
 1116 0640 93070020 		li	a5,512
 1117              	#APP
 1118              	# 205 "src/kernel/../../h/riscv.hpp" 1
 1119              		csrc sie, a5
 1120              	# 0 "" 2
 1121              	.LVL109:
 1122              	#NO_APP
 1123              	.L52:
 1124              	.LBE135:
 1125              	.LBE134:
 1126              	.LBE133:
 1127              	.LBE137:
 1128              	.LBE139:
 691:src/kernel/riscv.cpp **** 
 692:src/kernel/riscv.cpp ****     while(Scheduler::readyHead != nullptr)
 1129              		.loc 1 692 5 is_stmt 1
 1130              		.loc 1 692 32
 1131 0648 97070000 		la	a5,_ZN9Scheduler9readyHeadE
 1131      83B70700 
 1132 0650 83B70700 		ld	a5,0(a5)
 1133 0654 638C0700 		beqz	a5,.L51
 693:src/kernel/riscv.cpp ****         Scheduler::readyHead = Scheduler::readyHead->next;
 1134              		.loc 1 693 9
 1135              		.loc 1 693 54 is_stmt 0
 1136 0658 03B78704 		ld	a4,72(a5)
 1137              		.loc 1 693 30
 1138 065c 97070000 		la	a5,_ZN9Scheduler9readyHeadE
 1138      83B70700 
 1139 0664 23B0E700 		sd	a4,0(a5)
 692:src/kernel/riscv.cpp ****         Scheduler::readyHead = Scheduler::readyHead->next;
 1140              		.loc 1 692 5
 1141 0668 6FF01FFE 		j	.L52
 1142              	.L51:
 694:src/kernel/riscv.cpp **** 
 695:src/kernel/riscv.cpp ****     Scheduler::put(TCB::putcThread);
 1143              		.loc 1 695 5 is_stmt 1
 1144              		.loc 1 695 19 is_stmt 0
 1145 066c 97070000 		la	a5,_ZN3TCB10putcThreadE
 1145      83B70700 
 1146 0674 03B50700 		ld	a0,0(a5)
 1147 0678 97000000 		call	_ZN9Scheduler3putEP3TCB@plt
 1147      E7800000 
 1148              	.LVL110:
 1149              	.L54:
 696:src/kernel/riscv.cpp **** 
 697:src/kernel/riscv.cpp ****     while(ConsoleUtil::outputHead != ConsoleUtil::outputTail)
 1150              		.loc 1 697 5 is_stmt 1
 1151              		.loc 1 697 35
 1152 0680 97070000 		la	a5,_ZN11ConsoleUtil10outputHeadE
 1152      83B70700 
 1153 0688 03B70700 		ld	a4,0(a5)
 1154 068c 97070000 		la	a5,_ZN11ConsoleUtil10outputTailE
 1154      83B70700 
 1155 0694 83B70700 		ld	a5,0(a5)
 1156 0698 6308F700 		beq	a4,a5,.L50
GAS LISTING /tmp/ccAbMSjc.s 			page 40


 698:src/kernel/riscv.cpp ****         TCB::dispatch();
 1157              		.loc 1 698 9
 1158              		.loc 1 698 22 is_stmt 0
 1159 069c 97000000 		call	_ZN3TCB8dispatchEv@plt
 1159      E7800000 
 1160              	.LVL111:
 697:src/kernel/riscv.cpp ****         TCB::dispatch();
 1161              		.loc 1 697 5
 1162 06a4 6FF0DFFD 		j	.L54
 1163              	.L50:
 699:src/kernel/riscv.cpp **** }
 1164              		.loc 1 699 1
 1165 06a8 83308100 		ld	ra,8(sp)
 1166              		.cfi_restore 1
 1167 06ac 03340100 		ld	s0,0(sp)
 1168              		.cfi_restore 8
 1169              		.cfi_def_cfa 2, 16
 1170 06b0 13010101 		addi	sp,sp,16
 1171              		.cfi_def_cfa_offset 0
 1172 06b4 67800000 		jr	ra
 1173              		.cfi_endproc
 1174              	.LFE65:
 1176              		.align	2
 1177              		.globl	_ZN5RiscV16saveA0toSscratchEv
 1179              	_ZN5RiscV16saveA0toSscratchEv:
 1180              	.LFB66:
 700:src/kernel/riscv.cpp **** 
 701:src/kernel/riscv.cpp **** //write value in a0 to a memory location where a0 is store on stack for currently running thread
 702:src/kernel/riscv.cpp **** void RiscV::saveA0toSscratch()
 703:src/kernel/riscv.cpp **** {
 1181              		.loc 1 703 1 is_stmt 1
 1182              		.cfi_startproc
 1183 06b8 130101FF 		addi	sp,sp,-16
 1184              		.cfi_def_cfa_offset 16
 1185 06bc 23348100 		sd	s0,8(sp)
 1186              		.cfi_offset 8, -8
 1187 06c0 13040101 		addi	s0,sp,16
 1188              		.cfi_def_cfa 8, 0
 704:src/kernel/riscv.cpp ****     uint64 a1;
 1189              		.loc 1 704 5
 705:src/kernel/riscv.cpp ****     asm("mv %[a1], a1": [a1] "=r"(a1));
 1190              		.loc 1 705 5
 1191              		.loc 1 705 39 is_stmt 0
 1192              	#APP
 1193              	# 705 "src/kernel/riscv.cpp" 1
 706              	    asm("mv a1, %[a0]" : :  [a0] "r"(TCB::running->a0Location));
 1194              		mv a5, a1
 1195              	# 0 "" 2
 1196              		.loc 1 706 5 is_stmt 1
 1197              		.loc 1 706 52 is_stmt 0
 1198              	#NO_APP
 1199 06c8 17070000 		la	a4,_ZN3TCB7runningE
 1199      03370700 
 1200 06d0 03370700 		ld	a4,0(a4)
 1201 06d4 03378706 		ld	a4,104(a4)
 1202              		.loc 1 706 64
 1203              	#APP
GAS LISTING /tmp/ccAbMSjc.s 			page 41


 1204              	# 706 "src/kernel/riscv.cpp" 1
 707              	    asm("sd a0, 80(a1)");
 1205              		mv a1, a4
 1206              	# 0 "" 2
 1207              		.loc 1 707 5 is_stmt 1
 1208              		.loc 1 707 25 is_stmt 0
 1209              	# 707 "src/kernel/riscv.cpp" 1
 708              	    asm("mv a1,%[a1]"::  [a1]"r"(a1));
 1210              		sd a0, 80(a1)
 1211              	# 0 "" 2
 1212              		.loc 1 708 5 is_stmt 1
 1213              		.loc 1 708 38 is_stmt 0
 1214              	# 708 "src/kernel/riscv.cpp" 1
 709              	}
 1215              		mv a1,a5
 1216              	# 0 "" 2
 1217              		.loc 1 709 1
 1218              	#NO_APP
 1219 06e4 03348100 		ld	s0,8(sp)
 1220              		.cfi_restore 8
 1221              		.cfi_def_cfa 2, 16
 1222 06e8 13010101 		addi	sp,sp,16
 1223              		.cfi_def_cfa_offset 0
 1224 06ec 67800000 		jr	ra
 1225              		.cfi_endproc
 1226              	.LFE66:
 1228              		.align	2
 1229              		.globl	_ZN5RiscV22executeMemAllocSyscallEv
 1231              	_ZN5RiscV22executeMemAllocSyscallEv:
 1232              	.LFB48:
 319:src/kernel/riscv.cpp **** 
 1233              		.loc 1 319 37 is_stmt 1
 1234              		.cfi_startproc
 1235 06f0 130101FF 		addi	sp,sp,-16
 1236              		.cfi_def_cfa_offset 16
 1237 06f4 23341100 		sd	ra,8(sp)
 1238 06f8 23308100 		sd	s0,0(sp)
 1239              		.cfi_offset 1, -8
 1240              		.cfi_offset 8, -16
 1241 06fc 13040101 		addi	s0,sp,16
 1242              		.cfi_def_cfa 8, 0
 322:src/kernel/riscv.cpp ****     asm("mv %[size], a1" : [size] "=r" (size));
 1243              		.loc 1 322 5
 323:src/kernel/riscv.cpp **** 
 1244              		.loc 1 323 5
 323:src/kernel/riscv.cpp **** 
 1245              		.loc 1 323 47 is_stmt 0
 1246              	#APP
 1247              	# 323 "src/kernel/riscv.cpp" 1
 1248              		mv a0, a1
 1249              	# 0 "" 2
 1250              	.LVL112:
 326:src/kernel/riscv.cpp **** 
 1251              		.loc 1 326 5 is_stmt 1
 326:src/kernel/riscv.cpp **** 
 1252              		.loc 1 326 50 is_stmt 0
 1253              	#NO_APP
GAS LISTING /tmp/ccAbMSjc.s 			page 42


 1254 0704 97000000 		call	_ZN15MemoryAllocator7kmallocEm@plt
 1254      E7800000 
 1255              	.LVL113:
 328:src/kernel/riscv.cpp **** 
 1256              		.loc 1 328 5 is_stmt 1
 328:src/kernel/riscv.cpp **** 
 1257              		.loc 1 328 48 is_stmt 0
 1258              	#APP
 1259              	# 328 "src/kernel/riscv.cpp" 1
 330:src/kernel/riscv.cpp **** }
 1260              		mv a0, a0
 1261              	# 0 "" 2
 1262              		.loc 1 330 5 is_stmt 1
 330:src/kernel/riscv.cpp **** }
 1263              		.loc 1 330 28 is_stmt 0
 1264              	#NO_APP
 1265 0710 97000000 		call	_ZN5RiscV16saveA0toSscratchEv
 1265      E7800000 
 1266              	.LVL114:
 331:src/kernel/riscv.cpp **** 
 1267              		.loc 1 331 1
 1268 0718 83308100 		ld	ra,8(sp)
 1269              		.cfi_restore 1
 1270 071c 03340100 		ld	s0,0(sp)
 1271              		.cfi_restore 8
 1272              		.cfi_def_cfa 2, 16
 1273 0720 13010101 		addi	sp,sp,16
 1274              		.cfi_def_cfa_offset 0
 1275 0724 67800000 		jr	ra
 1276              		.cfi_endproc
 1277              	.LFE48:
 1279              		.align	2
 1280              		.globl	_ZN5RiscV21executeMemFreeSyscallEv
 1282              	_ZN5RiscV21executeMemFreeSyscallEv:
 1283              	.LFB49:
 333:src/kernel/riscv.cpp **** 
 1284              		.loc 1 333 37 is_stmt 1
 1285              		.cfi_startproc
 1286 0728 130101FF 		addi	sp,sp,-16
 1287              		.cfi_def_cfa_offset 16
 1288 072c 23341100 		sd	ra,8(sp)
 1289 0730 23308100 		sd	s0,0(sp)
 1290              		.cfi_offset 1, -8
 1291              		.cfi_offset 8, -16
 1292 0734 13040101 		addi	s0,sp,16
 1293              		.cfi_def_cfa 8, 0
 336:src/kernel/riscv.cpp **** 
 1294              		.loc 1 336 5
 339:src/kernel/riscv.cpp ****         //call internal allocator and free memory which iaddr points to
 1295              		.loc 1 339 5
 1296 0738 97070000 		la	a5,_ZN15MemoryAllocator11initializedE
 1296      83B70700 
 1297 0740 83C70700 		lbu	a5,0(a5)
 1298 0744 63920702 		bnez	a5,.L64
 345:src/kernel/riscv.cpp **** 
 1299              		.loc 1 345 16 is_stmt 0
 1300 0748 1305F0FF 		li	a0,-1
GAS LISTING /tmp/ccAbMSjc.s 			page 43


 1301              	.L61:
 1302              	.LVL115:
 348:src/kernel/riscv.cpp **** 
 1303              		.loc 1 348 5 is_stmt 1
 348:src/kernel/riscv.cpp **** 
 1304              		.loc 1 348 54 is_stmt 0
 1305              	#APP
 1306              	# 348 "src/kernel/riscv.cpp" 1
 350:src/kernel/riscv.cpp **** }
 1307              		mv a0, a0
 1308              	# 0 "" 2
 1309              		.loc 1 350 5 is_stmt 1
 350:src/kernel/riscv.cpp **** }
 1310              		.loc 1 350 28 is_stmt 0
 1311              	#NO_APP
 1312 0750 97000000 		call	_ZN5RiscV16saveA0toSscratchEv
 1312      E7800000 
 1313              	.LVL116:
 351:src/kernel/riscv.cpp **** 
 1314              		.loc 1 351 1
 1315 0758 83308100 		ld	ra,8(sp)
 1316              		.cfi_remember_state
 1317              		.cfi_restore 1
 1318 075c 03340100 		ld	s0,0(sp)
 1319              		.cfi_restore 8
 1320              		.cfi_def_cfa 2, 16
 1321 0760 13010101 		addi	sp,sp,16
 1322              		.cfi_def_cfa_offset 0
 1323 0764 67800000 		jr	ra
 1324              	.L64:
 1325              		.cfi_restore_state
 341:src/kernel/riscv.cpp ****         status = MemoryAllocator::kfree((void *) iaddr);;
 1326              		.loc 1 341 9 is_stmt 1
 341:src/kernel/riscv.cpp ****         status = MemoryAllocator::kfree((void *) iaddr);;
 1327              		.loc 1 341 53 is_stmt 0
 1328              	#APP
 1329              	# 341 "src/kernel/riscv.cpp" 1
 1330              		mv a0, a1
 1331              	# 0 "" 2
 1332              	.LVL117:
 342:src/kernel/riscv.cpp ****     }
 1333              		.loc 1 342 9 is_stmt 1
 342:src/kernel/riscv.cpp ****     }
 1334              		.loc 1 342 40 is_stmt 0
 1335              	#NO_APP
 1336 076c 97000000 		call	_ZN15MemoryAllocator5kfreeEPv@plt
 1336      E7800000 
 1337              	.LVL118:
 342:src/kernel/riscv.cpp ****     }
 1338              		.loc 1 342 57 is_stmt 1
 1339 0774 6FF09FFD 		j	.L61
 1340              		.cfi_endproc
 1341              	.LFE49:
 1343              		.align	2
 1344              		.globl	_ZN5RiscV26executeThreadCreateSyscallEv
 1346              	_ZN5RiscV26executeThreadCreateSyscallEv:
 1347              	.LFB50:
GAS LISTING /tmp/ccAbMSjc.s 			page 44


 353:src/kernel/riscv.cpp **** 
 1348              		.loc 1 353 41
 1349              		.cfi_startproc
 1350              		.cfi_personality 0x9b,DW.ref.__gxx_personality_v0
 1351              		.cfi_lsda 0x1b,.LLSDA50
 1352 0778 130101FC 		addi	sp,sp,-64
 1353              		.cfi_def_cfa_offset 64
 1354 077c 233C1102 		sd	ra,56(sp)
 1355 0780 23388102 		sd	s0,48(sp)
 1356 0784 23349102 		sd	s1,40(sp)
 1357 0788 23302103 		sd	s2,32(sp)
 1358 078c 233C3101 		sd	s3,24(sp)
 1359 0790 23384101 		sd	s4,16(sp)
 1360 0794 23345101 		sd	s5,8(sp)
 1361              		.cfi_offset 1, -8
 1362              		.cfi_offset 8, -16
 1363              		.cfi_offset 9, -24
 1364              		.cfi_offset 18, -32
 1365              		.cfi_offset 19, -40
 1366              		.cfi_offset 20, -48
 1367              		.cfi_offset 21, -56
 1368 0798 13040104 		addi	s0,sp,64
 1369              		.cfi_def_cfa 8, 0
 356:src/kernel/riscv.cpp **** 
 1370              		.loc 1 356 5
 358:src/kernel/riscv.cpp ****     asm("mv %[ihandle], a1" : [ihandle] "=r"(ihandle));
 1371              		.loc 1 358 5
 358:src/kernel/riscv.cpp ****     asm("mv %[ihandle], a1" : [ihandle] "=r"(ihandle));
 1372              		.loc 1 358 52 is_stmt 0
 1373              	#APP
 1374              	# 358 "src/kernel/riscv.cpp" 1
 1375              		mv s5, a7
 1376              	# 0 "" 2
 1377              	.LVL119:
 359:src/kernel/riscv.cpp ****     asm("mv %[iroutine], a2" : [iroutine] "=r"(iroutine));
 1378              		.loc 1 359 5 is_stmt 1
 359:src/kernel/riscv.cpp ****     asm("mv %[iroutine], a2" : [iroutine] "=r"(iroutine));
 1379              		.loc 1 359 55 is_stmt 0
 1380              	# 359 "src/kernel/riscv.cpp" 1
 1381              		mv s2, a1
 1382              	# 0 "" 2
 1383              	.LVL120:
 360:src/kernel/riscv.cpp ****     asm("mv %[iargs], a3" : [iargs] "=r"(iargs));
 1384              		.loc 1 360 5 is_stmt 1
 360:src/kernel/riscv.cpp ****     asm("mv %[iargs], a3" : [iargs] "=r"(iargs));
 1385              		.loc 1 360 58 is_stmt 0
 1386              	# 360 "src/kernel/riscv.cpp" 1
 1387              		mv s3, a2
 1388              	# 0 "" 2
 1389              	.LVL121:
 361:src/kernel/riscv.cpp **** 
 1390              		.loc 1 361 5 is_stmt 1
 361:src/kernel/riscv.cpp **** 
 1391              		.loc 1 361 49 is_stmt 0
 1392              	# 361 "src/kernel/riscv.cpp" 1
 1393              		mv s4, a3
 1394              	# 0 "" 2
GAS LISTING /tmp/ccAbMSjc.s 			page 45


 1395              	.LVL122:
 364:src/kernel/riscv.cpp **** 
 1396              		.loc 1 364 5 is_stmt 1
 364:src/kernel/riscv.cpp **** 
 1397              		.loc 1 364 94 is_stmt 0
 1398              	#NO_APP
 1399 07ac 13050007 		li	a0,112
 1400              	.LEHB0:
 1401 07b0 97000000 		call	_ZN3TCBnwEm@plt
 1401      E7800000 
 1402              	.LVL123:
 1403              	.LEHE0:
 1404 07b8 93040500 		mv	s1,a0
 1405 07bc 630E0500 		beqz	a0,.L66
 364:src/kernel/riscv.cpp **** 
 1406              		.loc 1 364 94 discriminator 1
 1407 07c0 13072000 		li	a4,2
 1408 07c4 93860A00 		mv	a3,s5
 1409 07c8 13060A00 		mv	a2,s4
 1410 07cc 93850900 		mv	a1,s3
 1411              	.LEHB1:
 1412 07d0 97000000 		call	_ZN3TCBC1EPFvPvES0_Pmm@plt
 1412      E7800000 
 1413              	.LVL124:
 1414              	.LEHE1:
 1415              	.L66:
 366:src/kernel/riscv.cpp **** 
 1416              		.loc 1 366 5 is_stmt 1 discriminator 6
 368:src/kernel/riscv.cpp ****         status = -1;
 1417              		.loc 1 368 5 discriminator 6
 1418 07d8 63880404 		beqz	s1,.L70
 372:src/kernel/riscv.cpp ****             Scheduler::put(tcb);
 1419              		.loc 1 372 9
 372:src/kernel/riscv.cpp ****             Scheduler::put(tcb);
 1420              		.loc 1 372 17 is_stmt 0
 1421 07dc 83B78401 		ld	a5,24(s1)
 372:src/kernel/riscv.cpp ****             Scheduler::put(tcb);
 1422              		.loc 1 372 9
 1423 07e0 63880700 		beqz	a5,.L68
 373:src/kernel/riscv.cpp ****         *((TCB**)ihandle) = tcb;
 1424              		.loc 1 373 13 is_stmt 1
 373:src/kernel/riscv.cpp ****         *((TCB**)ihandle) = tcb;
 1425              		.loc 1 373 27 is_stmt 0
 1426 07e4 13850400 		mv	a0,s1
 1427              	.LEHB2:
 1428 07e8 97000000 		call	_ZN9Scheduler3putEP3TCB@plt
 1428      E7800000 
 1429              	.LVL125:
 1430              	.LEHE2:
 1431              	.L68:
 374:src/kernel/riscv.cpp ****     }
 1432              		.loc 1 374 9 is_stmt 1
 374:src/kernel/riscv.cpp ****     }
 1433              		.loc 1 374 27 is_stmt 0
 1434 07f0 23309900 		sd	s1,0(s2)
 366:src/kernel/riscv.cpp **** 
 1435              		.loc 1 366 12
GAS LISTING /tmp/ccAbMSjc.s 			page 46


 1436 07f4 93070000 		li	a5,0
 1437              	.L67:
 1438              	.LVL126:
 378:src/kernel/riscv.cpp **** 
 1439              		.loc 1 378 5 is_stmt 1
 378:src/kernel/riscv.cpp **** 
 1440              		.loc 1 378 54 is_stmt 0
 1441              	#APP
 1442              	# 378 "src/kernel/riscv.cpp" 1
 380:src/kernel/riscv.cpp **** }
 1443              		mv a0, a5
 1444              	# 0 "" 2
 1445              		.loc 1 380 5 is_stmt 1
 380:src/kernel/riscv.cpp **** }
 1446              		.loc 1 380 28 is_stmt 0
 1447              	#NO_APP
 1448 07fc 97000000 		call	_ZN5RiscV16saveA0toSscratchEv
 1448      E7800000 
 1449              	.LVL127:
 381:src/kernel/riscv.cpp **** 
 1450              		.loc 1 381 1
 1451 0804 83308103 		ld	ra,56(sp)
 1452              		.cfi_remember_state
 1453              		.cfi_restore 1
 1454 0808 03340103 		ld	s0,48(sp)
 1455              		.cfi_restore 8
 1456              		.cfi_def_cfa 2, 64
 1457 080c 83348102 		ld	s1,40(sp)
 1458              		.cfi_restore 9
 1459              	.LVL128:
 1460 0810 03390102 		ld	s2,32(sp)
 1461              		.cfi_restore 18
 1462              	.LVL129:
 1463 0814 83398101 		ld	s3,24(sp)
 1464              		.cfi_restore 19
 1465              	.LVL130:
 1466 0818 033A0101 		ld	s4,16(sp)
 1467              		.cfi_restore 20
 1468              	.LVL131:
 1469 081c 833A8100 		ld	s5,8(sp)
 1470              		.cfi_restore 21
 1471              	.LVL132:
 1472 0820 13010104 		addi	sp,sp,64
 1473              		.cfi_def_cfa_offset 0
 1474 0824 67800000 		jr	ra
 1475              	.LVL133:
 1476              	.L70:
 1477              		.cfi_restore_state
 369:src/kernel/riscv.cpp ****     }
 1478              		.loc 1 369 16
 1479 0828 9307F0FF 		li	a5,-1
 1480 082c 6FF0DFFC 		j	.L67
 1481              	.LVL134:
 1482              	.L71:
 1483 0830 13090500 		mv	s2,a0
 1484              	.LVL135:
 364:src/kernel/riscv.cpp **** 
GAS LISTING /tmp/ccAbMSjc.s 			page 47


 1485              		.loc 1 364 94
 1486 0834 13850400 		mv	a0,s1
 1487 0838 97000000 		call	_ZN3TCBdlEPv@plt
 1487      E7800000 
 1488              	.LVL136:
 1489 0840 13050900 		mv	a0,s2
 1490              	.LEHB3:
 1491 0844 97000000 		call	_Unwind_Resume@plt
 1491      E7800000 
 1492              	.LVL137:
 1493              	.LEHE3:
 1494              		.cfi_endproc
 1495              	.LFE50:
 1496              		.globl	__gxx_personality_v0
 1497              		.section	.gcc_except_table,"a",@progbits
 1498              	.LLSDA50:
 1499 0000 FF       		.byte	0xff
 1500 0001 FF       		.byte	0xff
 1501 0002 03       		.byte	0x3
 1502 0003 34       		.byte	0x34
 1503 0004 00000000 		.4byte	.LEHB0-.LFB50
 1504 0008 00000000 		.4byte	.LEHE0-.LEHB0
 1505 000c 00000000 		.4byte	0
 1506 0010 00       		.byte	0
 1507 0011 00000000 		.4byte	.LEHB1-.LFB50
 1508 0015 00000000 		.4byte	.LEHE1-.LEHB1
 1509 0019 00000000 		.4byte	.L71-.LFB50
 1510 001d 00       		.byte	0
 1511 001e 00000000 		.4byte	.LEHB2-.LFB50
 1512 0022 00000000 		.4byte	.LEHE2-.LEHB2
 1513 0026 00000000 		.4byte	0
 1514 002a 00       		.byte	0
 1515 002b 00000000 		.4byte	.LEHB3-.LFB50
 1516 002f 00000000 		.4byte	.LEHE3-.LEHB3
 1517 0033 00000000 		.4byte	0
 1518 0037 00       		.byte	0
 1519              		.text
 1521              		.align	2
 1522              		.globl	_ZN5RiscV30executeThreadAttachBodySyscallEv
 1524              	_ZN5RiscV30executeThreadAttachBodySyscallEv:
 1525              	.LFB51:
 383:src/kernel/riscv.cpp **** 
 1526              		.loc 1 383 45 is_stmt 1
 1527              		.cfi_startproc
 1528              		.cfi_personality 0x9b,DW.ref.__gxx_personality_v0
 1529              		.cfi_lsda 0x1b,.LLSDA51
 1530 084c 130101FC 		addi	sp,sp,-64
 1531              		.cfi_def_cfa_offset 64
 1532 0850 233C1102 		sd	ra,56(sp)
 1533 0854 23388102 		sd	s0,48(sp)
 1534 0858 23349102 		sd	s1,40(sp)
 1535 085c 23302103 		sd	s2,32(sp)
 1536 0860 233C3101 		sd	s3,24(sp)
 1537 0864 23384101 		sd	s4,16(sp)
 1538 0868 23345101 		sd	s5,8(sp)
 1539              		.cfi_offset 1, -8
 1540              		.cfi_offset 8, -16
GAS LISTING /tmp/ccAbMSjc.s 			page 48


 1541              		.cfi_offset 9, -24
 1542              		.cfi_offset 18, -32
 1543              		.cfi_offset 19, -40
 1544              		.cfi_offset 20, -48
 1545              		.cfi_offset 21, -56
 1546 086c 13040104 		addi	s0,sp,64
 1547              		.cfi_def_cfa 8, 0
 386:src/kernel/riscv.cpp **** 
 1548              		.loc 1 386 5
 389:src/kernel/riscv.cpp ****     asm("mv %[ihandle], a1" : [ihandle] "=r"(ihandle));
 1549              		.loc 1 389 5
 389:src/kernel/riscv.cpp ****     asm("mv %[ihandle], a1" : [ihandle] "=r"(ihandle));
 1550              		.loc 1 389 52 is_stmt 0
 1551              	#APP
 1552              	# 389 "src/kernel/riscv.cpp" 1
 1553              		mv s5, a7
 1554              	# 0 "" 2
 1555              	.LVL138:
 390:src/kernel/riscv.cpp ****     asm("mv %[iroutine], a2" : [iroutine] "=r"(iroutine));
 1556              		.loc 1 390 5 is_stmt 1
 390:src/kernel/riscv.cpp ****     asm("mv %[iroutine], a2" : [iroutine] "=r"(iroutine));
 1557              		.loc 1 390 55 is_stmt 0
 1558              	# 390 "src/kernel/riscv.cpp" 1
 1559              		mv s4, a1
 1560              	# 0 "" 2
 1561              	.LVL139:
 391:src/kernel/riscv.cpp ****     asm("mv %[iargs], a3" : [iargs] "=r"(iargs));
 1562              		.loc 1 391 5 is_stmt 1
 391:src/kernel/riscv.cpp ****     asm("mv %[iargs], a3" : [iargs] "=r"(iargs));
 1563              		.loc 1 391 58 is_stmt 0
 1564              	# 391 "src/kernel/riscv.cpp" 1
 1565              		mv s3, a2
 1566              	# 0 "" 2
 1567              	.LVL140:
 392:src/kernel/riscv.cpp **** 
 1568              		.loc 1 392 5 is_stmt 1
 392:src/kernel/riscv.cpp **** 
 1569              		.loc 1 392 49 is_stmt 0
 1570              	# 392 "src/kernel/riscv.cpp" 1
 1571              		mv s2, a3
 1572              	# 0 "" 2
 1573              	.LVL141:
 394:src/kernel/riscv.cpp **** 
 1574              		.loc 1 394 5 is_stmt 1
 394:src/kernel/riscv.cpp **** 
 1575              		.loc 1 394 94 is_stmt 0
 1576              	#NO_APP
 1577 0880 13050007 		li	a0,112
 1578              	.LEHB4:
 1579 0884 97000000 		call	_ZN3TCBnwEm@plt
 1579      E7800000 
 1580              	.LVL142:
 1581              	.LEHE4:
 1582 088c 93040500 		mv	s1,a0
 1583 0890 630E0500 		beqz	a0,.L75
 394:src/kernel/riscv.cpp **** 
 1584              		.loc 1 394 94 discriminator 1
GAS LISTING /tmp/ccAbMSjc.s 			page 49


 1585 0894 13072000 		li	a4,2
 1586 0898 93860A00 		mv	a3,s5
 1587 089c 13060900 		mv	a2,s2
 1588 08a0 93850900 		mv	a1,s3
 1589              	.LEHB5:
 1590 08a4 97000000 		call	_ZN3TCBC1EPFvPvES0_Pmm@plt
 1590      E7800000 
 1591              	.LVL143:
 1592              	.LEHE5:
 1593              	.L75:
 396:src/kernel/riscv.cpp **** 
 1594              		.loc 1 396 5 is_stmt 1 discriminator 6
 398:src/kernel/riscv.cpp ****         status = -1;
 1595              		.loc 1 398 5 discriminator 6
 1596 08ac 63820404 		beqz	s1,.L78
 402:src/kernel/riscv.cpp ****         tcb->args = (void*)iargs;
 1597              		.loc 1 402 9
 402:src/kernel/riscv.cpp ****         tcb->args = (void*)iargs;
 1598              		.loc 1 402 19 is_stmt 0
 1599 08b0 23BC3401 		sd	s3,24(s1)
 403:src/kernel/riscv.cpp ****         *((TCB**)ihandle) = tcb;
 1600              		.loc 1 403 9 is_stmt 1
 403:src/kernel/riscv.cpp ****         *((TCB**)ihandle) = tcb;
 1601              		.loc 1 403 19 is_stmt 0
 1602 08b4 23B02403 		sd	s2,32(s1)
 404:src/kernel/riscv.cpp ****     }
 1603              		.loc 1 404 9 is_stmt 1
 404:src/kernel/riscv.cpp ****     }
 1604              		.loc 1 404 27 is_stmt 0
 1605 08b8 23309A00 		sd	s1,0(s4)
 396:src/kernel/riscv.cpp **** 
 1606              		.loc 1 396 12
 1607 08bc 93070000 		li	a5,0
 1608              	.L76:
 1609              	.LVL144:
 407:src/kernel/riscv.cpp **** 
 1610              		.loc 1 407 5 is_stmt 1
 407:src/kernel/riscv.cpp **** 
 1611              		.loc 1 407 54 is_stmt 0
 1612              	#APP
 1613              	# 407 "src/kernel/riscv.cpp" 1
 409:src/kernel/riscv.cpp **** }
 1614              		mv a0, a5
 1615              	# 0 "" 2
 1616              		.loc 1 409 5 is_stmt 1
 409:src/kernel/riscv.cpp **** }
 1617              		.loc 1 409 28 is_stmt 0
 1618              	#NO_APP
 1619 08c4 97000000 		call	_ZN5RiscV16saveA0toSscratchEv
 1619      E7800000 
 1620              	.LVL145:
 410:src/kernel/riscv.cpp **** 
 1621              		.loc 1 410 1
 1622 08cc 83308103 		ld	ra,56(sp)
 1623              		.cfi_remember_state
 1624              		.cfi_restore 1
 1625 08d0 03340103 		ld	s0,48(sp)
GAS LISTING /tmp/ccAbMSjc.s 			page 50


 1626              		.cfi_restore 8
 1627              		.cfi_def_cfa 2, 64
 1628 08d4 83348102 		ld	s1,40(sp)
 1629              		.cfi_restore 9
 1630              	.LVL146:
 1631 08d8 03390102 		ld	s2,32(sp)
 1632              		.cfi_restore 18
 1633              	.LVL147:
 1634 08dc 83398101 		ld	s3,24(sp)
 1635              		.cfi_restore 19
 1636              	.LVL148:
 1637 08e0 033A0101 		ld	s4,16(sp)
 1638              		.cfi_restore 20
 1639              	.LVL149:
 1640 08e4 833A8100 		ld	s5,8(sp)
 1641              		.cfi_restore 21
 1642              	.LVL150:
 1643 08e8 13010104 		addi	sp,sp,64
 1644              		.cfi_def_cfa_offset 0
 1645 08ec 67800000 		jr	ra
 1646              	.LVL151:
 1647              	.L78:
 1648              		.cfi_restore_state
 399:src/kernel/riscv.cpp ****     }
 1649              		.loc 1 399 16
 1650 08f0 9307F0FF 		li	a5,-1
 1651 08f4 6FF0DFFC 		j	.L76
 1652              	.LVL152:
 1653              	.L79:
 1654 08f8 13090500 		mv	s2,a0
 1655              	.LVL153:
 394:src/kernel/riscv.cpp **** 
 1656              		.loc 1 394 94
 1657 08fc 13850400 		mv	a0,s1
 1658 0900 97000000 		call	_ZN3TCBdlEPv@plt
 1658      E7800000 
 1659              	.LVL154:
 1660 0908 13050900 		mv	a0,s2
 1661              	.LEHB6:
 1662 090c 97000000 		call	_Unwind_Resume@plt
 1662      E7800000 
 1663              	.LVL155:
 1664              	.LEHE6:
 1665              		.cfi_endproc
 1666              	.LFE51:
 1667              		.section	.gcc_except_table
 1668              	.LLSDA51:
 1669 0038 FF       		.byte	0xff
 1670 0039 FF       		.byte	0xff
 1671 003a 03       		.byte	0x3
 1672 003b 27       		.byte	0x27
 1673 003c 00000000 		.4byte	.LEHB4-.LFB51
 1674 0040 00000000 		.4byte	.LEHE4-.LEHB4
 1675 0044 00000000 		.4byte	0
 1676 0048 00       		.byte	0
 1677 0049 00000000 		.4byte	.LEHB5-.LFB51
 1678 004d 00000000 		.4byte	.LEHE5-.LEHB5
GAS LISTING /tmp/ccAbMSjc.s 			page 51


 1679 0051 00000000 		.4byte	.L79-.LFB51
 1680 0055 00       		.byte	0
 1681 0056 00000000 		.4byte	.LEHB6-.LFB51
 1682 005a 00000000 		.4byte	.LEHE6-.LEHB6
 1683 005e 00000000 		.4byte	0
 1684 0062 00       		.byte	0
 1685              		.text
 1687              		.align	2
 1688              		.globl	_ZN5RiscV25executeThreadStartSyscallEv
 1690              	_ZN5RiscV25executeThreadStartSyscallEv:
 1691              	.LFB52:
 412:src/kernel/riscv.cpp **** 
 1692              		.loc 1 412 40 is_stmt 1
 1693              		.cfi_startproc
 1694 0914 130101FF 		addi	sp,sp,-16
 1695              		.cfi_def_cfa_offset 16
 1696 0918 23341100 		sd	ra,8(sp)
 1697 091c 23308100 		sd	s0,0(sp)
 1698              		.cfi_offset 1, -8
 1699              		.cfi_offset 8, -16
 1700 0920 13040101 		addi	s0,sp,16
 1701              		.cfi_def_cfa 8, 0
 415:src/kernel/riscv.cpp **** 
 1702              		.loc 1 415 5
 417:src/kernel/riscv.cpp **** 
 1703              		.loc 1 417 5
 417:src/kernel/riscv.cpp **** 
 1704              		.loc 1 417 55 is_stmt 0
 1705              	#APP
 1706              	# 417 "src/kernel/riscv.cpp" 1
 1707              		mv a0, a1
 1708              	# 0 "" 2
 1709              	.LVL156:
 420:src/kernel/riscv.cpp **** 
 1710              		.loc 1 420 5 is_stmt 1
 422:src/kernel/riscv.cpp **** 
 1711              		.loc 1 422 5
 424:src/kernel/riscv.cpp ****         status = -1;
 1712              		.loc 1 424 5
 1713              	#NO_APP
 1714 0928 63120502 		bnez	a0,.L86
 425:src/kernel/riscv.cpp ****     }
 1715              		.loc 1 425 16 is_stmt 0
 1716 092c 9307F0FF 		li	a5,-1
 1717              	.LVL157:
 1718              	.L83:
 434:src/kernel/riscv.cpp **** 
 1719              		.loc 1 434 5 is_stmt 1
 434:src/kernel/riscv.cpp **** 
 1720              		.loc 1 434 54 is_stmt 0
 1721              	#APP
 1722              	# 434 "src/kernel/riscv.cpp" 1
 436:src/kernel/riscv.cpp **** }
 1723              		mv a0, a5
 1724              	# 0 "" 2
 1725              		.loc 1 436 5 is_stmt 1
 436:src/kernel/riscv.cpp **** }
GAS LISTING /tmp/ccAbMSjc.s 			page 52


 1726              		.loc 1 436 28 is_stmt 0
 1727              	#NO_APP
 1728 0934 97000000 		call	_ZN5RiscV16saveA0toSscratchEv
 1728      E7800000 
 1729              	.LVL158:
 437:src/kernel/riscv.cpp **** 
 1730              		.loc 1 437 1
 1731 093c 83308100 		ld	ra,8(sp)
 1732              		.cfi_remember_state
 1733              		.cfi_restore 1
 1734 0940 03340100 		ld	s0,0(sp)
 1735              		.cfi_restore 8
 1736              		.cfi_def_cfa 2, 16
 1737 0944 13010101 		addi	sp,sp,16
 1738              		.cfi_def_cfa_offset 0
 1739 0948 67800000 		jr	ra
 1740              	.LVL159:
 1741              	.L86:
 1742              		.cfi_restore_state
 428:src/kernel/riscv.cpp ****         Scheduler::put(tcb);
 1743              		.loc 1 428 9 is_stmt 1
 428:src/kernel/riscv.cpp ****         Scheduler::put(tcb);
 1744              		.loc 1 428 21 is_stmt 0
 1745 094c 93071000 		li	a5,1
 1746 0950 2328F500 		sw	a5,16(a0)
 429:src/kernel/riscv.cpp ****         TCB::dispatch();
 1747              		.loc 1 429 9 is_stmt 1
 429:src/kernel/riscv.cpp ****         TCB::dispatch();
 1748              		.loc 1 429 23 is_stmt 0
 1749 0954 97000000 		call	_ZN9Scheduler3putEP3TCB@plt
 1749      E7800000 
 1750              	.LVL160:
 430:src/kernel/riscv.cpp ****     }
 1751              		.loc 1 430 9 is_stmt 1
 430:src/kernel/riscv.cpp ****     }
 1752              		.loc 1 430 22 is_stmt 0
 1753 095c 97000000 		call	_ZN3TCB8dispatchEv@plt
 1753      E7800000 
 1754              	.LVL161:
 422:src/kernel/riscv.cpp **** 
 1755              		.loc 1 422 12
 1756 0964 93070000 		li	a5,0
 1757 0968 6FF09FFC 		j	.L83
 1758              		.cfi_endproc
 1759              	.LFE52:
 1761              		.align	2
 1762              		.globl	_ZN5RiscV24executeThreadExitSyscallEv
 1764              	_ZN5RiscV24executeThreadExitSyscallEv:
 1765              	.LFB53:
 439:src/kernel/riscv.cpp **** 
 1766              		.loc 1 439 40 is_stmt 1
 1767              		.cfi_startproc
 1768 096c 130101FF 		addi	sp,sp,-16
 1769              		.cfi_def_cfa_offset 16
 1770 0970 23341100 		sd	ra,8(sp)
 1771 0974 23308100 		sd	s0,0(sp)
 1772              		.cfi_offset 1, -8
GAS LISTING /tmp/ccAbMSjc.s 			page 53


 1773              		.cfi_offset 8, -16
 1774 0978 13040101 		addi	s0,sp,16
 1775              		.cfi_def_cfa 8, 0
 442:src/kernel/riscv.cpp **** 
 1776              		.loc 1 442 5
 1777              	.LVL162:
 445:src/kernel/riscv.cpp ****         status = -1;
 1778              		.loc 1 445 5
 1779              	.LBB140:
 445:src/kernel/riscv.cpp ****         status = -1;
 1780              		.loc 1 445 21 is_stmt 0
 1781 097c 97070000 		la	a5,_ZN3TCB7runningE
 1781      83B70700 
 1782 0984 83B70700 		ld	a5,0(a5)
 445:src/kernel/riscv.cpp ****         status = -1;
 1783              		.loc 1 445 5
 1784 0988 638A0702 		beqz	a5,.L89
 1785              	.LBB141:
 449:src/kernel/riscv.cpp ****         old->status = TCB::Status::FINISHED;
 1786              		.loc 1 449 9 is_stmt 1
 1787              	.LVL163:
 450:src/kernel/riscv.cpp ****         TCB::dispatch();
 1788              		.loc 1 450 9
 450:src/kernel/riscv.cpp ****         TCB::dispatch();
 1789              		.loc 1 450 21 is_stmt 0
 1790 098c 13072000 		li	a4,2
 1791 0990 23A8E700 		sw	a4,16(a5)
 451:src/kernel/riscv.cpp ****     }
 1792              		.loc 1 451 9 is_stmt 1
 451:src/kernel/riscv.cpp ****     }
 1793              		.loc 1 451 22 is_stmt 0
 1794 0994 97000000 		call	_ZN3TCB8dispatchEv@plt
 1794      E7800000 
 1795              	.LVL164:
 1796              	.LBE141:
 1797              	.LBE140:
 442:src/kernel/riscv.cpp **** 
 1798              		.loc 1 442 12
 1799 099c 93070000 		li	a5,0
 1800              	.L88:
 1801              	.LVL165:
 454:src/kernel/riscv.cpp **** 
 1802              		.loc 1 454 5 is_stmt 1
 454:src/kernel/riscv.cpp **** 
 1803              		.loc 1 454 54 is_stmt 0
 1804              	#APP
 1805              	# 454 "src/kernel/riscv.cpp" 1
 456:src/kernel/riscv.cpp **** }
 1806              		mv a0, a5
 1807              	# 0 "" 2
 1808              		.loc 1 456 5 is_stmt 1
 456:src/kernel/riscv.cpp **** }
 1809              		.loc 1 456 28 is_stmt 0
 1810              	#NO_APP
 1811 09a4 97000000 		call	_ZN5RiscV16saveA0toSscratchEv
 1811      E7800000 
 1812              	.LVL166:
GAS LISTING /tmp/ccAbMSjc.s 			page 54


 457:src/kernel/riscv.cpp **** 
 1813              		.loc 1 457 1
 1814 09ac 83308100 		ld	ra,8(sp)
 1815              		.cfi_remember_state
 1816              		.cfi_restore 1
 1817 09b0 03340100 		ld	s0,0(sp)
 1818              		.cfi_restore 8
 1819              		.cfi_def_cfa 2, 16
 1820 09b4 13010101 		addi	sp,sp,16
 1821              		.cfi_def_cfa_offset 0
 1822 09b8 67800000 		jr	ra
 1823              	.LVL167:
 1824              	.L89:
 1825              		.cfi_restore_state
 1826              	.LBB142:
 446:src/kernel/riscv.cpp ****     }
 1827              		.loc 1 446 16
 1828 09bc 9307F0FF 		li	a5,-1
 1829 09c0 6FF01FFE 		j	.L88
 1830              	.LBE142:
 1831              		.cfi_endproc
 1832              	.LFE53:
 1834              		.align	2
 1835              		.globl	_ZN5RiscV21executeSemOpenSyscallEv
 1837              	_ZN5RiscV21executeSemOpenSyscallEv:
 1838              	.LFB55:
 467:src/kernel/riscv.cpp **** 
 1839              		.loc 1 467 37 is_stmt 1
 1840              		.cfi_startproc
 1841              		.cfi_personality 0x9b,DW.ref.__gxx_personality_v0
 1842              		.cfi_lsda 0x1b,.LLSDA55
 1843 09c4 130101FD 		addi	sp,sp,-48
 1844              		.cfi_def_cfa_offset 48
 1845 09c8 23341102 		sd	ra,40(sp)
 1846 09cc 23308102 		sd	s0,32(sp)
 1847 09d0 233C9100 		sd	s1,24(sp)
 1848 09d4 23382101 		sd	s2,16(sp)
 1849 09d8 23343101 		sd	s3,8(sp)
 1850              		.cfi_offset 1, -8
 1851              		.cfi_offset 8, -16
 1852              		.cfi_offset 9, -24
 1853              		.cfi_offset 18, -32
 1854              		.cfi_offset 19, -40
 1855 09dc 13040103 		addi	s0,sp,48
 1856              		.cfi_def_cfa 8, 0
 470:src/kernel/riscv.cpp **** 
 1857              		.loc 1 470 5
 472:src/kernel/riscv.cpp ****     asm("mv %[iinit], a2" : [iinit] "=r"(iinit));
 1858              		.loc 1 472 5
 472:src/kernel/riscv.cpp ****     asm("mv %[iinit], a2" : [iinit] "=r"(iinit));
 1859              		.loc 1 472 55 is_stmt 0
 1860              	#APP
 1861              	# 472 "src/kernel/riscv.cpp" 1
 1862              		mv s2, a1
 1863              	# 0 "" 2
 1864              	.LVL168:
 473:src/kernel/riscv.cpp **** 
GAS LISTING /tmp/ccAbMSjc.s 			page 55


 1865              		.loc 1 473 5 is_stmt 1
 473:src/kernel/riscv.cpp **** 
 1866              		.loc 1 473 49 is_stmt 0
 1867              	# 473 "src/kernel/riscv.cpp" 1
 1868              		mv s3, a2
 1869              	# 0 "" 2
 1870              	.LVL169:
 476:src/kernel/riscv.cpp **** 
 1871              		.loc 1 476 5 is_stmt 1
 476:src/kernel/riscv.cpp **** 
 1872              		.loc 1 476 29 is_stmt 0
 1873              	#NO_APP
 1874 09e8 13058001 		li	a0,24
 1875              	.LEHB7:
 1876 09ec 97000000 		call	_ZN3SCBnwEm@plt
 1876      E7800000 
 1877              	.LVL170:
 1878              	.LEHE7:
 1879 09f4 93040500 		mv	s1,a0
 1880 09f8 63080500 		beqz	a0,.L92
 476:src/kernel/riscv.cpp **** 
 1881              		.loc 1 476 29 discriminator 1
 1882 09fc 93850900 		mv	a1,s3
 1883              	.LEHB8:
 1884 0a00 97000000 		call	_ZN3SCBC1Em@plt
 1884      E7800000 
 1885              	.LVL171:
 1886              	.LEHE8:
 1887              	.L92:
 478:src/kernel/riscv.cpp **** 
 1888              		.loc 1 478 5 is_stmt 1 discriminator 6
 480:src/kernel/riscv.cpp ****         status = -1;
 1889              		.loc 1 480 5 discriminator 6
 1890 0a08 638A0402 		beqz	s1,.L95
 484:src/kernel/riscv.cpp ****     }
 1891              		.loc 1 484 9
 484:src/kernel/riscv.cpp ****     }
 1892              		.loc 1 484 27 is_stmt 0
 1893 0a0c 23309900 		sd	s1,0(s2)
 478:src/kernel/riscv.cpp **** 
 1894              		.loc 1 478 12
 1895 0a10 93070000 		li	a5,0
 1896              	.L93:
 1897              	.LVL172:
 488:src/kernel/riscv.cpp **** 
 1898              		.loc 1 488 5 is_stmt 1
 488:src/kernel/riscv.cpp **** 
 1899              		.loc 1 488 54 is_stmt 0
 1900              	#APP
 1901              	# 488 "src/kernel/riscv.cpp" 1
 490:src/kernel/riscv.cpp **** 
 1902              		mv a0, a5
 1903              	# 0 "" 2
 1904              		.loc 1 490 5 is_stmt 1
 490:src/kernel/riscv.cpp **** 
 1905              		.loc 1 490 28 is_stmt 0
 1906              	#NO_APP
GAS LISTING /tmp/ccAbMSjc.s 			page 56


 1907 0a18 97000000 		call	_ZN5RiscV16saveA0toSscratchEv
 1907      E7800000 
 1908              	.LVL173:
 492:src/kernel/riscv.cpp **** 
 1909              		.loc 1 492 1
 1910 0a20 83308102 		ld	ra,40(sp)
 1911              		.cfi_remember_state
 1912              		.cfi_restore 1
 1913 0a24 03340102 		ld	s0,32(sp)
 1914              		.cfi_restore 8
 1915              		.cfi_def_cfa 2, 48
 1916 0a28 83348101 		ld	s1,24(sp)
 1917              		.cfi_restore 9
 1918              	.LVL174:
 1919 0a2c 03390101 		ld	s2,16(sp)
 1920              		.cfi_restore 18
 1921              	.LVL175:
 1922 0a30 83398100 		ld	s3,8(sp)
 1923              		.cfi_restore 19
 1924              	.LVL176:
 1925 0a34 13010103 		addi	sp,sp,48
 1926              		.cfi_def_cfa_offset 0
 1927 0a38 67800000 		jr	ra
 1928              	.LVL177:
 1929              	.L95:
 1930              		.cfi_restore_state
 481:src/kernel/riscv.cpp ****     }
 1931              		.loc 1 481 16
 1932 0a3c 9307F0FF 		li	a5,-1
 1933 0a40 6FF05FFD 		j	.L93
 1934              	.LVL178:
 1935              	.L96:
 1936 0a44 13090500 		mv	s2,a0
 1937              	.LVL179:
 476:src/kernel/riscv.cpp **** 
 1938              		.loc 1 476 29
 1939 0a48 13850400 		mv	a0,s1
 1940 0a4c 97000000 		call	_ZN3SCBdlEPv@plt
 1940      E7800000 
 1941              	.LVL180:
 1942 0a54 13050900 		mv	a0,s2
 1943              	.LEHB9:
 1944 0a58 97000000 		call	_Unwind_Resume@plt
 1944      E7800000 
 1945              	.LVL181:
 1946              	.LEHE9:
 1947              		.cfi_endproc
 1948              	.LFE55:
 1949              		.section	.gcc_except_table
 1950              	.LLSDA55:
 1951 0063 FF       		.byte	0xff
 1952 0064 FF       		.byte	0xff
 1953 0065 03       		.byte	0x3
 1954 0066 27       		.byte	0x27
 1955 0067 00000000 		.4byte	.LEHB7-.LFB55
 1956 006b 00000000 		.4byte	.LEHE7-.LEHB7
 1957 006f 00000000 		.4byte	0
GAS LISTING /tmp/ccAbMSjc.s 			page 57


 1958 0073 00       		.byte	0
 1959 0074 00000000 		.4byte	.LEHB8-.LFB55
 1960 0078 00000000 		.4byte	.LEHE8-.LEHB8
 1961 007c 00000000 		.4byte	.L96-.LFB55
 1962 0080 00       		.byte	0
 1963 0081 00000000 		.4byte	.LEHB9-.LFB55
 1964 0085 00000000 		.4byte	.LEHE9-.LEHB9
 1965 0089 00000000 		.4byte	0
 1966 008d 00       		.byte	0
 1967              		.text
 1969              		.align	2
 1970              		.globl	_ZN5RiscV22executeSemCloseSyscallEv
 1972              	_ZN5RiscV22executeSemCloseSyscallEv:
 1973              	.LFB56:
 494:src/kernel/riscv.cpp **** 
 1974              		.loc 1 494 38 is_stmt 1
 1975              		.cfi_startproc
 1976 0a60 130101FE 		addi	sp,sp,-32
 1977              		.cfi_def_cfa_offset 32
 1978 0a64 233C1100 		sd	ra,24(sp)
 1979 0a68 23388100 		sd	s0,16(sp)
 1980 0a6c 23349100 		sd	s1,8(sp)
 1981              		.cfi_offset 1, -8
 1982              		.cfi_offset 8, -16
 1983              		.cfi_offset 9, -24
 1984 0a70 13040102 		addi	s0,sp,32
 1985              		.cfi_def_cfa 8, 0
 497:src/kernel/riscv.cpp **** 
 1986              		.loc 1 497 5
 499:src/kernel/riscv.cpp **** 
 1987              		.loc 1 499 5
 499:src/kernel/riscv.cpp **** 
 1988              		.loc 1 499 55 is_stmt 0
 1989              	#APP
 1990              	# 499 "src/kernel/riscv.cpp" 1
 1991              		mv s1, a1
 1992              	# 0 "" 2
 1993              	.LVL182:
 502:src/kernel/riscv.cpp ****     uint64 status = 0;
 1994              		.loc 1 502 5 is_stmt 1
 503:src/kernel/riscv.cpp **** 
 1995              		.loc 1 503 5
 505:src/kernel/riscv.cpp ****         status = -1;
 1996              		.loc 1 505 5
 1997              	#NO_APP
 1998 0a78 63940402 		bnez	s1,.L103
 506:src/kernel/riscv.cpp ****     }
 1999              		.loc 1 506 16 is_stmt 0
 2000 0a7c 9307F0FF 		li	a5,-1
 2001              	.L100:
 2002              	.LVL183:
 512:src/kernel/riscv.cpp **** 
 2003              		.loc 1 512 5 is_stmt 1
 512:src/kernel/riscv.cpp **** 
 2004              		.loc 1 512 54 is_stmt 0
 2005              	#APP
 2006              	# 512 "src/kernel/riscv.cpp" 1
GAS LISTING /tmp/ccAbMSjc.s 			page 58


 514:src/kernel/riscv.cpp **** }
 2007              		mv a0, a5
 2008              	# 0 "" 2
 2009              		.loc 1 514 5 is_stmt 1
 514:src/kernel/riscv.cpp **** }
 2010              		.loc 1 514 28 is_stmt 0
 2011              	#NO_APP
 2012 0a84 97000000 		call	_ZN5RiscV16saveA0toSscratchEv
 2012      E7800000 
 2013              	.LVL184:
 515:src/kernel/riscv.cpp **** 
 2014              		.loc 1 515 1
 2015 0a8c 83308101 		ld	ra,24(sp)
 2016              		.cfi_remember_state
 2017              		.cfi_restore 1
 2018 0a90 03340101 		ld	s0,16(sp)
 2019              		.cfi_restore 8
 2020              		.cfi_def_cfa 2, 32
 2021 0a94 83348100 		ld	s1,8(sp)
 2022              		.cfi_restore 9
 2023              	.LVL185:
 2024 0a98 13010102 		addi	sp,sp,32
 2025              		.cfi_def_cfa_offset 0
 2026 0a9c 67800000 		jr	ra
 2027              	.LVL186:
 2028              	.L103:
 2029              		.cfi_restore_state
 509:src/kernel/riscv.cpp **** 
 2030              		.loc 1 509 9 is_stmt 1 discriminator 1
 509:src/kernel/riscv.cpp **** 
 2031              		.loc 1 509 22 is_stmt 0 discriminator 1
 2032 0aa0 13850400 		mv	a0,s1
 2033 0aa4 97000000 		call	_ZN3SCBD1Ev@plt
 2033      E7800000 
 2034              	.LVL187:
 2035 0aac 13850400 		mv	a0,s1
 2036 0ab0 97000000 		call	_ZN3SCBdlEPv@plt
 2036      E7800000 
 2037              	.LVL188:
 503:src/kernel/riscv.cpp **** 
 2038              		.loc 1 503 12 discriminator 1
 2039 0ab8 93070000 		li	a5,0
 2040 0abc 6FF05FFC 		j	.L100
 2041              		.cfi_endproc
 2042              	.LFE56:
 2044              		.align	2
 2045              		.globl	_ZN5RiscV21executeSemWaitSyscallEv
 2047              	_ZN5RiscV21executeSemWaitSyscallEv:
 2048              	.LFB57:
 517:src/kernel/riscv.cpp **** 
 2049              		.loc 1 517 37 is_stmt 1
 2050              		.cfi_startproc
 2051 0ac0 130101FF 		addi	sp,sp,-16
 2052              		.cfi_def_cfa_offset 16
 2053 0ac4 23341100 		sd	ra,8(sp)
 2054 0ac8 23308100 		sd	s0,0(sp)
 2055              		.cfi_offset 1, -8
GAS LISTING /tmp/ccAbMSjc.s 			page 59


 2056              		.cfi_offset 8, -16
 2057 0acc 13040101 		addi	s0,sp,16
 2058              		.cfi_def_cfa 8, 0
 520:src/kernel/riscv.cpp **** 
 2059              		.loc 1 520 5
 522:src/kernel/riscv.cpp **** 
 2060              		.loc 1 522 5
 522:src/kernel/riscv.cpp **** 
 2061              		.loc 1 522 55 is_stmt 0
 2062              	#APP
 2063              	# 522 "src/kernel/riscv.cpp" 1
 2064              		mv a0, a1
 2065              	# 0 "" 2
 2066              	.LVL189:
 524:src/kernel/riscv.cpp ****     //call wait method on ihandle scb
 2067              		.loc 1 524 5 is_stmt 1
 527:src/kernel/riscv.cpp ****         ((SCB*)ihandle)->wait();
 2068              		.loc 1 527 5
 2069              	#NO_APP
 2070 0ad4 631C0502 		bnez	a0,.L109
 2071              	.LVL190:
 2072              	.L105:
 532:src/kernel/riscv.cpp ****         status = -1;
 2073              		.loc 1 532 5
 532:src/kernel/riscv.cpp ****         status = -1;
 2074              		.loc 1 532 22 is_stmt 0
 2075 0ad8 97070000 		la	a5,_ZN3TCB7runningE
 2075      83B70700 
 2076 0ae0 83B70700 		ld	a5,0(a5)
 2077 0ae4 83B70706 		ld	a5,96(a5)
 532:src/kernel/riscv.cpp ****         status = -1;
 2078              		.loc 1 532 5
 2079 0ae8 63880702 		beqz	a5,.L107
 533:src/kernel/riscv.cpp ****     else
 2080              		.loc 1 533 16
 2081 0aec 9307F0FF 		li	a5,-1
 2082              	.L106:
 2083              	.LVL191:
 538:src/kernel/riscv.cpp **** 
 2084              		.loc 1 538 5 is_stmt 1
 538:src/kernel/riscv.cpp **** 
 2085              		.loc 1 538 54 is_stmt 0
 2086              	#APP
 2087              	# 538 "src/kernel/riscv.cpp" 1
 540:src/kernel/riscv.cpp **** 
 2088              		mv a0, a5
 2089              	# 0 "" 2
 2090              		.loc 1 540 5 is_stmt 1
 540:src/kernel/riscv.cpp **** 
 2091              		.loc 1 540 28 is_stmt 0
 2092              	#NO_APP
 2093 0af4 97000000 		call	_ZN5RiscV16saveA0toSscratchEv
 2093      E7800000 
 2094              	.LVL192:
 542:src/kernel/riscv.cpp **** 
 2095              		.loc 1 542 1
 2096 0afc 83308100 		ld	ra,8(sp)
GAS LISTING /tmp/ccAbMSjc.s 			page 60


 2097              		.cfi_remember_state
 2098              		.cfi_restore 1
 2099 0b00 03340100 		ld	s0,0(sp)
 2100              		.cfi_restore 8
 2101              		.cfi_def_cfa 2, 16
 2102 0b04 13010101 		addi	sp,sp,16
 2103              		.cfi_def_cfa_offset 0
 2104 0b08 67800000 		jr	ra
 2105              	.LVL193:
 2106              	.L109:
 2107              		.cfi_restore_state
 528:src/kernel/riscv.cpp ****     else
 2108              		.loc 1 528 9 is_stmt 1
 528:src/kernel/riscv.cpp ****     else
 2109              		.loc 1 528 30 is_stmt 0
 2110 0b0c 97000000 		call	_ZN3SCB4waitEv@plt
 2110      E7800000 
 2111              	.LVL194:
 2112 0b14 6FF05FFC 		j	.L105
 2113              	.LVL195:
 2114              	.L107:
 535:src/kernel/riscv.cpp **** 
 2115              		.loc 1 535 16
 2116 0b18 93070000 		li	a5,0
 2117 0b1c 6FF05FFD 		j	.L106
 2118              		.cfi_endproc
 2119              	.LFE57:
 2121              		.align	2
 2122              		.globl	_ZN5RiscV23executeSemSignalSyscallEv
 2124              	_ZN5RiscV23executeSemSignalSyscallEv:
 2125              	.LFB58:
 544:src/kernel/riscv.cpp **** 
 2126              		.loc 1 544 39 is_stmt 1
 2127              		.cfi_startproc
 2128 0b20 130101FF 		addi	sp,sp,-16
 2129              		.cfi_def_cfa_offset 16
 2130 0b24 23341100 		sd	ra,8(sp)
 2131 0b28 23308100 		sd	s0,0(sp)
 2132              		.cfi_offset 1, -8
 2133              		.cfi_offset 8, -16
 2134 0b2c 13040101 		addi	s0,sp,16
 2135              		.cfi_def_cfa 8, 0
 547:src/kernel/riscv.cpp **** 
 2136              		.loc 1 547 5
 549:src/kernel/riscv.cpp **** 
 2137              		.loc 1 549 5
 549:src/kernel/riscv.cpp **** 
 2138              		.loc 1 549 55 is_stmt 0
 2139              	#APP
 2140              	# 549 "src/kernel/riscv.cpp" 1
 2141              		mv a0, a1
 2142              	# 0 "" 2
 2143              	.LVL196:
 553:src/kernel/riscv.cpp **** 
 2144              		.loc 1 553 5 is_stmt 1
 555:src/kernel/riscv.cpp ****         ((SCB*)ihandle)->signal();
 2145              		.loc 1 555 5
GAS LISTING /tmp/ccAbMSjc.s 			page 61


 2146              	#NO_APP
 2147 0b34 63120502 		bnez	a0,.L114
 558:src/kernel/riscv.cpp **** 
 2148              		.loc 1 558 16 is_stmt 0
 2149 0b38 9307F0FF 		li	a5,-1
 2150              	.LVL197:
 2151              	.L111:
 561:src/kernel/riscv.cpp **** 
 2152              		.loc 1 561 5 is_stmt 1
 561:src/kernel/riscv.cpp **** 
 2153              		.loc 1 561 54 is_stmt 0
 2154              	#APP
 2155              	# 561 "src/kernel/riscv.cpp" 1
 563:src/kernel/riscv.cpp **** }
 2156              		mv a0, a5
 2157              	# 0 "" 2
 2158              		.loc 1 563 5 is_stmt 1
 563:src/kernel/riscv.cpp **** }
 2159              		.loc 1 563 28 is_stmt 0
 2160              	#NO_APP
 2161 0b40 97000000 		call	_ZN5RiscV16saveA0toSscratchEv
 2161      E7800000 
 2162              	.LVL198:
 564:src/kernel/riscv.cpp **** 
 2163              		.loc 1 564 1
 2164 0b48 83308100 		ld	ra,8(sp)
 2165              		.cfi_remember_state
 2166              		.cfi_restore 1
 2167 0b4c 03340100 		ld	s0,0(sp)
 2168              		.cfi_restore 8
 2169              		.cfi_def_cfa 2, 16
 2170 0b50 13010101 		addi	sp,sp,16
 2171              		.cfi_def_cfa_offset 0
 2172 0b54 67800000 		jr	ra
 2173              	.LVL199:
 2174              	.L114:
 2175              		.cfi_restore_state
 556:src/kernel/riscv.cpp ****     else
 2176              		.loc 1 556 9 is_stmt 1
 556:src/kernel/riscv.cpp ****     else
 2177              		.loc 1 556 32 is_stmt 0
 2178 0b58 97000000 		call	_ZN3SCB6signalEv@plt
 2178      E7800000 
 2179              	.LVL200:
 553:src/kernel/riscv.cpp **** 
 2180              		.loc 1 553 12
 2181 0b60 93070000 		li	a5,0
 2182 0b64 6FF09FFD 		j	.L111
 2183              		.cfi_endproc
 2184              	.LFE58:
 2186              		.align	2
 2187              		.globl	_ZN5RiscV23executeTimeSleepSyscallEv
 2189              	_ZN5RiscV23executeTimeSleepSyscallEv:
 2190              	.LFB59:
 566:src/kernel/riscv.cpp **** 
 2191              		.loc 1 566 39 is_stmt 1
 2192              		.cfi_startproc
GAS LISTING /tmp/ccAbMSjc.s 			page 62


 2193 0b68 130101FE 		addi	sp,sp,-32
 2194              		.cfi_def_cfa_offset 32
 2195 0b6c 233C1100 		sd	ra,24(sp)
 2196 0b70 23388100 		sd	s0,16(sp)
 2197 0b74 23349100 		sd	s1,8(sp)
 2198              		.cfi_offset 1, -8
 2199              		.cfi_offset 8, -16
 2200              		.cfi_offset 9, -24
 2201 0b78 13040102 		addi	s0,sp,32
 2202              		.cfi_def_cfa 8, 0
 569:src/kernel/riscv.cpp **** 
 2203              		.loc 1 569 5
 571:src/kernel/riscv.cpp **** 
 2204              		.loc 1 571 5
 571:src/kernel/riscv.cpp **** 
 2205              		.loc 1 571 49 is_stmt 0
 2206              	#APP
 2207              	# 571 "src/kernel/riscv.cpp" 1
 575:src/kernel/riscv.cpp ****     tcb->sleepTime = globalTime;
 2208              		mv a4, a1
 2209              	# 0 "" 2
 2210              		.loc 1 575 5 is_stmt 1
 575:src/kernel/riscv.cpp ****     tcb->sleepTime = globalTime;
 2211              		.loc 1 575 10 is_stmt 0
 2212              	#NO_APP
 2213 0b80 97070000 		la	a5,_ZN3TCB7runningE
 2213      83B70700 
 2214 0b88 83B40700 		ld	s1,0(a5)
 2215              	.LVL201:
 576:src/kernel/riscv.cpp ****     tcb->wakeTime = globalTime + itime;
 2216              		.loc 1 576 5 is_stmt 1
 576:src/kernel/riscv.cpp ****     tcb->wakeTime = globalTime + itime;
 2217              		.loc 1 576 20 is_stmt 0
 2218 0b8c 97070000 		ld	a5,.LANCHOR0+16
 2218      83B70700 
 2219 0b94 23B8F404 		sd	a5,80(s1)
 577:src/kernel/riscv.cpp **** 
 2220              		.loc 1 577 5 is_stmt 1
 577:src/kernel/riscv.cpp **** 
 2221              		.loc 1 577 32 is_stmt 0
 2222 0b98 B387E700 		add	a5,a5,a4
 577:src/kernel/riscv.cpp **** 
 2223              		.loc 1 577 19
 2224 0b9c 23BCF404 		sd	a5,88(s1)
 579:src/kernel/riscv.cpp **** 
 2225              		.loc 1 579 5 is_stmt 1
 579:src/kernel/riscv.cpp **** 
 2226              		.loc 1 579 21 is_stmt 0
 2227 0ba0 13850400 		mv	a0,s1
 2228 0ba4 97000000 		call	_ZN9Scheduler5sleepEP3TCB@plt
 2228      E7800000 
 2229              	.LVL202:
 581:src/kernel/riscv.cpp **** 
 2230              		.loc 1 581 5 is_stmt 1
 581:src/kernel/riscv.cpp **** 
 2231              		.loc 1 581 17 is_stmt 0
 2232 0bac 93073000 		li	a5,3
GAS LISTING /tmp/ccAbMSjc.s 			page 63


 2233 0bb0 23A8F400 		sw	a5,16(s1)
 583:src/kernel/riscv.cpp **** 
 2234              		.loc 1 583 5 is_stmt 1
 583:src/kernel/riscv.cpp **** 
 2235              		.loc 1 583 18 is_stmt 0
 2236 0bb4 97000000 		call	_ZN3TCB8dispatchEv@plt
 2236      E7800000 
 2237              	.LVL203:
 585:src/kernel/riscv.cpp **** 
 2238              		.loc 1 585 5 is_stmt 1
 588:src/kernel/riscv.cpp **** 
 2239              		.loc 1 588 5
 588:src/kernel/riscv.cpp **** 
 2240              		.loc 1 588 54 is_stmt 0
 2241 0bbc 93070000 		li	a5,0
 2242              	#APP
 2243              	# 588 "src/kernel/riscv.cpp" 1
 590:src/kernel/riscv.cpp **** }
 2244              		mv a0, a5
 2245              	# 0 "" 2
 2246              		.loc 1 590 5 is_stmt 1
 590:src/kernel/riscv.cpp **** }
 2247              		.loc 1 590 28 is_stmt 0
 2248              	#NO_APP
 2249 0bc4 97000000 		call	_ZN5RiscV16saveA0toSscratchEv
 2249      E7800000 
 2250              	.LVL204:
 591:src/kernel/riscv.cpp **** 
 2251              		.loc 1 591 1
 2252 0bcc 83308101 		ld	ra,24(sp)
 2253              		.cfi_restore 1
 2254 0bd0 03340101 		ld	s0,16(sp)
 2255              		.cfi_restore 8
 2256              		.cfi_def_cfa 2, 32
 2257 0bd4 83348100 		ld	s1,8(sp)
 2258              		.cfi_restore 9
 2259              	.LVL205:
 2260 0bd8 13010102 		addi	sp,sp,32
 2261              		.cfi_def_cfa_offset 0
 2262 0bdc 67800000 		jr	ra
 2263              		.cfi_endproc
 2264              	.LFE59:
 2266              		.align	2
 2267              		.globl	_ZN5RiscV18executeGetcSyscallEv
 2269              	_ZN5RiscV18executeGetcSyscallEv:
 2270              	.LFB60:
 593:src/kernel/riscv.cpp **** 
 2271              		.loc 1 593 34 is_stmt 1
 2272              		.cfi_startproc
 2273 0be0 130101FE 		addi	sp,sp,-32
 2274              		.cfi_def_cfa_offset 32
 2275 0be4 233C1100 		sd	ra,24(sp)
 2276 0be8 23388100 		sd	s0,16(sp)
 2277 0bec 23349100 		sd	s1,8(sp)
 2278              		.cfi_offset 1, -8
 2279              		.cfi_offset 8, -16
 2280              		.cfi_offset 9, -24
GAS LISTING /tmp/ccAbMSjc.s 			page 64


 2281 0bf0 13040102 		addi	s0,sp,32
 2282              		.cfi_def_cfa 8, 0
 596:src/kernel/riscv.cpp ****         ConsoleUtil::pendingGetc++;
 2283              		.loc 1 596 5
 596:src/kernel/riscv.cpp ****         ConsoleUtil::pendingGetc++;
 2284              		.loc 1 596 8 is_stmt 0
 2285 0bf4 97070000 		lbu	a5,.LANCHOR0+8
 2285      83C70700 
 596:src/kernel/riscv.cpp ****         ConsoleUtil::pendingGetc++;
 2286              		.loc 1 596 5
 2287 0bfc 639C0700 		bnez	a5,.L118
 597:src/kernel/riscv.cpp **** 
 2288              		.loc 1 597 9 is_stmt 1
 597:src/kernel/riscv.cpp **** 
 2289              		.loc 1 597 33 is_stmt 0
 2290 0c00 17070000 		la	a4,_ZN11ConsoleUtil11pendingGetcE
 2290      03370700 
 2291 0c08 83370700 		ld	a5,0(a4)
 2292 0c0c 93871700 		addi	a5,a5,1
 2293 0c10 2330F700 		sd	a5,0(a4)
 2294              	.L118:
 600:src/kernel/riscv.cpp **** 
 2295              		.loc 1 600 5 is_stmt 1
 600:src/kernel/riscv.cpp **** 
 2296              		.loc 1 600 35 is_stmt 0
 2297 0c14 97000000 		call	_ZN11ConsoleUtil8getInputEv@plt
 2297      E7800000 
 2298              	.LVL206:
 2299 0c1c 93040500 		mv	s1,a0
 2300              	.LVL207:
 603:src/kernel/riscv.cpp ****         ConsoleUtil::putOutput(13);
 2301              		.loc 1 603 5 is_stmt 1
 2302 0c20 9307D000 		li	a5,13
 2303 0c24 6306F502 		beq	a0,a5,.L122
 608:src/kernel/riscv.cpp ****         ConsoleUtil::putOutput(c);
 2304              		.loc 1 608 10
 2305 0c28 9307B001 		li	a5,27
 2306 0c2c 6310F504 		bne	a0,a5,.L123
 2307              	.LVL208:
 2308              	.L120:
 612:src/kernel/riscv.cpp **** 
 2309              		.loc 1 612 5
 612:src/kernel/riscv.cpp **** 
 2310              		.loc 1 612 39 is_stmt 0
 2311              	#APP
 2312              	# 612 "src/kernel/riscv.cpp" 1
 614:src/kernel/riscv.cpp **** }
 2313              		mv a0, s1
 2314              	# 0 "" 2
 2315              		.loc 1 614 5 is_stmt 1
 614:src/kernel/riscv.cpp **** }
 2316              		.loc 1 614 28 is_stmt 0
 2317              	#NO_APP
 2318 0c34 97000000 		call	_ZN5RiscV16saveA0toSscratchEv
 2318      E7800000 
 2319              	.LVL209:
 615:src/kernel/riscv.cpp **** 
GAS LISTING /tmp/ccAbMSjc.s 			page 65


 2320              		.loc 1 615 1
 2321 0c3c 83308101 		ld	ra,24(sp)
 2322              		.cfi_remember_state
 2323              		.cfi_restore 1
 2324 0c40 03340101 		ld	s0,16(sp)
 2325              		.cfi_restore 8
 2326              		.cfi_def_cfa 2, 32
 2327 0c44 83348100 		ld	s1,8(sp)
 2328              		.cfi_restore 9
 2329 0c48 13010102 		addi	sp,sp,32
 2330              		.cfi_def_cfa_offset 0
 2331 0c4c 67800000 		jr	ra
 2332              	.LVL210:
 2333              	.L122:
 2334              		.cfi_restore_state
 604:src/kernel/riscv.cpp ****         ConsoleUtil::putOutput(10);
 2335              		.loc 1 604 9 is_stmt 1
 604:src/kernel/riscv.cpp ****         ConsoleUtil::putOutput(10);
 2336              		.loc 1 604 31 is_stmt 0
 2337 0c50 1305D000 		li	a0,13
 2338              	.LVL211:
 2339 0c54 97000000 		call	_ZN11ConsoleUtil9putOutputEc@plt
 2339      E7800000 
 2340              	.LVL212:
 605:src/kernel/riscv.cpp ****     }
 2341              		.loc 1 605 9 is_stmt 1
 605:src/kernel/riscv.cpp ****     }
 2342              		.loc 1 605 31 is_stmt 0
 2343 0c5c 1305A000 		li	a0,10
 2344 0c60 97000000 		call	_ZN11ConsoleUtil9putOutputEc@plt
 2344      E7800000 
 2345              	.LVL213:
 2346 0c68 6FF09FFC 		j	.L120
 2347              	.LVL214:
 2348              	.L123:
 609:src/kernel/riscv.cpp **** 
 2349              		.loc 1 609 9 is_stmt 1
 609:src/kernel/riscv.cpp **** 
 2350              		.loc 1 609 31 is_stmt 0
 2351 0c6c 97000000 		call	_ZN11ConsoleUtil9putOutputEc@plt
 2351      E7800000 
 2352              	.LVL215:
 2353 0c74 6FF0DFFB 		j	.L120
 2354              		.cfi_endproc
 2355              	.LFE60:
 2357              		.align	2
 2358              		.globl	_ZN5RiscV22executePutcUtilSyscallEv
 2360              	_ZN5RiscV22executePutcUtilSyscallEv:
 2361              	.LFB63:
 665:src/kernel/riscv.cpp ****     char c = ConsoleUtil::getOutput();
 2362              		.loc 1 665 38 is_stmt 1
 2363              		.cfi_startproc
 2364 0c78 130101FF 		addi	sp,sp,-16
 2365              		.cfi_def_cfa_offset 16
 2366 0c7c 23341100 		sd	ra,8(sp)
 2367 0c80 23308100 		sd	s0,0(sp)
 2368              		.cfi_offset 1, -8
GAS LISTING /tmp/ccAbMSjc.s 			page 66


 2369              		.cfi_offset 8, -16
 2370 0c84 13040101 		addi	s0,sp,16
 2371              		.cfi_def_cfa 8, 0
 666:src/kernel/riscv.cpp ****     asm("mv a0, %[c]" : : [c] "r" ((uint64)(c)) );
 2372              		.loc 1 666 5
 666:src/kernel/riscv.cpp ****     asm("mv a0, %[c]" : : [c] "r" ((uint64)(c)) );
 2373              		.loc 1 666 36 is_stmt 0
 2374 0c88 97000000 		call	_ZN11ConsoleUtil9getOutputEv@plt
 2374      E7800000 
 2375              	.LVL216:
 667:src/kernel/riscv.cpp **** 
 2376              		.loc 1 667 5 is_stmt 1
 667:src/kernel/riscv.cpp **** 
 2377              		.loc 1 667 50 is_stmt 0
 2378              	#APP
 2379              	# 667 "src/kernel/riscv.cpp" 1
 669:src/kernel/riscv.cpp **** }
 2380              		mv a0, a0
 2381              	# 0 "" 2
 2382              		.loc 1 669 5 is_stmt 1
 669:src/kernel/riscv.cpp **** }
 2383              		.loc 1 669 28 is_stmt 0
 2384              	#NO_APP
 2385 0c94 97000000 		call	_ZN5RiscV16saveA0toSscratchEv
 2385      E7800000 
 2386              	.LVL217:
 670:src/kernel/riscv.cpp **** 
 2387              		.loc 1 670 1
 2388 0c9c 83308100 		ld	ra,8(sp)
 2389              		.cfi_restore 1
 2390 0ca0 03340100 		ld	s0,0(sp)
 2391              		.cfi_restore 8
 2392              		.cfi_def_cfa 2, 16
 2393 0ca4 13010101 		addi	sp,sp,16
 2394              		.cfi_def_cfa_offset 0
 2395 0ca8 67800000 		jr	ra
 2396              		.cfi_endproc
 2397              	.LFE63:
 2399              		.align	2
 2400              		.globl	_ZN5RiscV24executeThreadFreeSyscallEv
 2402              	_ZN5RiscV24executeThreadFreeSyscallEv:
 2403              	.LFB67:
 710:src/kernel/riscv.cpp **** 
 711:src/kernel/riscv.cpp **** //syscall to free the space that is allocated for thread
 712:src/kernel/riscv.cpp **** void RiscV::executeThreadFreeSyscall() {
 2404              		.loc 1 712 40 is_stmt 1
 2405              		.cfi_startproc
 2406 0cac 130101FE 		addi	sp,sp,-32
 2407              		.cfi_def_cfa_offset 32
 2408 0cb0 233C1100 		sd	ra,24(sp)
 2409 0cb4 23388100 		sd	s0,16(sp)
 2410 0cb8 23349100 		sd	s1,8(sp)
 2411              		.cfi_offset 1, -8
 2412              		.cfi_offset 8, -16
 2413              		.cfi_offset 9, -24
 2414 0cbc 13040102 		addi	s0,sp,32
 2415              		.cfi_def_cfa 8, 0
GAS LISTING /tmp/ccAbMSjc.s 			page 67


 713:src/kernel/riscv.cpp ****     uint64 iaddr, status;
 2416              		.loc 1 713 5
 714:src/kernel/riscv.cpp **** 
 715:src/kernel/riscv.cpp ****     asm("mv %[iaddr], a1" : [iaddr] "=r"(iaddr));
 2417              		.loc 1 715 5
 2418              		.loc 1 715 49 is_stmt 0
 2419              	#APP
 2420              	# 715 "src/kernel/riscv.cpp" 1
 716              	
 2421              		mv s1, a1
 2422              	# 0 "" 2
 2423              	.LVL218:
 717:src/kernel/riscv.cpp ****     TCB *thr = (TCB*)iaddr;
 2424              		.loc 1 717 5 is_stmt 1
 718:src/kernel/riscv.cpp **** 
 719:src/kernel/riscv.cpp ****     if(thr == nullptr)
 2425              		.loc 1 719 5
 2426              	#NO_APP
 2427 0cc4 63940402 		bnez	s1,.L129
 2428              	.L127:
 2429              	.LVL219:
 720:src/kernel/riscv.cpp ****         status = -1;
 721:src/kernel/riscv.cpp ****     else {
 722:src/kernel/riscv.cpp ****         kfree(thr->stack);
 723:src/kernel/riscv.cpp ****         delete thr;
 724:src/kernel/riscv.cpp ****     }
 725:src/kernel/riscv.cpp **** 
 726:src/kernel/riscv.cpp ****     //return status
 727:src/kernel/riscv.cpp ****     asm("mv a0, %[status]" : : [status] "r" (status));
 2430              		.loc 1 727 5
 2431              		.loc 1 727 54 is_stmt 0
 2432 0cc8 9307F0FF 		li	a5,-1
 2433              	#APP
 2434              	# 727 "src/kernel/riscv.cpp" 1
 728              	
 729:src/kernel/riscv.cpp ****     RiscV::saveA0toSscratch();
 2435              		mv a0, a5
 2436              	# 0 "" 2
 2437              		.loc 1 729 5 is_stmt 1
 2438              		.loc 1 729 28 is_stmt 0
 2439              	#NO_APP
 2440 0cd0 97000000 		call	_ZN5RiscV16saveA0toSscratchEv
 2440      E7800000 
 2441              	.LVL220:
 730:src/kernel/riscv.cpp **** }
 2442              		.loc 1 730 1
 2443 0cd8 83308101 		ld	ra,24(sp)
 2444              		.cfi_remember_state
 2445              		.cfi_restore 1
 2446 0cdc 03340101 		ld	s0,16(sp)
 2447              		.cfi_restore 8
 2448              		.cfi_def_cfa 2, 32
 2449 0ce0 83348100 		ld	s1,8(sp)
 2450              		.cfi_restore 9
 2451              	.LVL221:
 2452 0ce4 13010102 		addi	sp,sp,32
 2453              		.cfi_def_cfa_offset 0
GAS LISTING /tmp/ccAbMSjc.s 			page 68


 2454 0ce8 67800000 		jr	ra
 2455              	.LVL222:
 2456              	.L129:
 2457              		.cfi_restore_state
 722:src/kernel/riscv.cpp ****         delete thr;
 2458              		.loc 1 722 9 is_stmt 1
 722:src/kernel/riscv.cpp ****         delete thr;
 2459              		.loc 1 722 14 is_stmt 0
 2460 0cec 03B58402 		ld	a0,40(s1)
 2461 0cf0 97000000 		call	_Z5kfreePKv@plt
 2461      E7800000 
 2462              	.LVL223:
 723:src/kernel/riscv.cpp ****     }
 2463              		.loc 1 723 9 is_stmt 1
 723:src/kernel/riscv.cpp ****     }
 2464              		.loc 1 723 16 is_stmt 0
 2465 0cf8 13850400 		mv	a0,s1
 2466 0cfc 97000000 		call	_ZN3TCBD1Ev@plt
 2466      E7800000 
 2467              	.LVL224:
 2468 0d04 13850400 		mv	a0,s1
 2469 0d08 97000000 		call	_ZN3TCBdlEPv@plt
 2469      E7800000 
 2470              	.LVL225:
 2471 0d10 6FF09FFB 		j	.L127
 2472              		.cfi_endproc
 2473              	.LFE67:
 2475              		.align	2
 2476              		.globl	_ZN5RiscV27executeSemaphoreFreeSyscallEv
 2478              	_ZN5RiscV27executeSemaphoreFreeSyscallEv:
 2479              	.LFB68:
 731:src/kernel/riscv.cpp **** 
 732:src/kernel/riscv.cpp **** //syscall to free the space that is allocated for semaphore
 733:src/kernel/riscv.cpp **** void RiscV::executeSemaphoreFreeSyscall() {
 2480              		.loc 1 733 43 is_stmt 1
 2481              		.cfi_startproc
 2482 0d14 130101FE 		addi	sp,sp,-32
 2483              		.cfi_def_cfa_offset 32
 2484 0d18 233C1100 		sd	ra,24(sp)
 2485 0d1c 23388100 		sd	s0,16(sp)
 2486 0d20 23349100 		sd	s1,8(sp)
 2487              		.cfi_offset 1, -8
 2488              		.cfi_offset 8, -16
 2489              		.cfi_offset 9, -24
 2490 0d24 13040102 		addi	s0,sp,32
 2491              		.cfi_def_cfa 8, 0
 734:src/kernel/riscv.cpp ****     uint64 iaddr, status;
 2492              		.loc 1 734 5
 735:src/kernel/riscv.cpp **** 
 736:src/kernel/riscv.cpp ****     //call internal allocator and free memory which iaddr points to
 737:src/kernel/riscv.cpp ****     asm("mv %[iaddr], a1" : [iaddr] "=r"(iaddr));
 2493              		.loc 1 737 5
 2494              		.loc 1 737 49 is_stmt 0
 2495              	#APP
 2496              	# 737 "src/kernel/riscv.cpp" 1
 738              	
 2497              		mv s1, a1
GAS LISTING /tmp/ccAbMSjc.s 			page 69


 2498              	# 0 "" 2
 2499              	.LVL226:
 739:src/kernel/riscv.cpp ****     SCB *scb = (SCB*)iaddr;
 2500              		.loc 1 739 5 is_stmt 1
 740:src/kernel/riscv.cpp **** 
 741:src/kernel/riscv.cpp ****     if(scb == nullptr){
 2501              		.loc 1 741 5
 2502              	#NO_APP
 2503 0d2c 63940402 		bnez	s1,.L133
 2504              	.L131:
 2505              	.LVL227:
 742:src/kernel/riscv.cpp ****         status = -1;
 743:src/kernel/riscv.cpp ****     }
 744:src/kernel/riscv.cpp ****     else
 745:src/kernel/riscv.cpp ****         delete scb;
 746:src/kernel/riscv.cpp **** 
 747:src/kernel/riscv.cpp ****     //return status
 748:src/kernel/riscv.cpp ****     asm("mv a0, %[status]" : : [status] "r" (status));
 2506              		.loc 1 748 5
 2507              		.loc 1 748 54 is_stmt 0
 2508 0d30 9307F0FF 		li	a5,-1
 2509              	#APP
 2510              	# 748 "src/kernel/riscv.cpp" 1
 749              	
 750:src/kernel/riscv.cpp ****     RiscV::saveA0toSscratch();
 2511              		mv a0, a5
 2512              	# 0 "" 2
 2513              		.loc 1 750 5 is_stmt 1
 2514              		.loc 1 750 28 is_stmt 0
 2515              	#NO_APP
 2516 0d38 97000000 		call	_ZN5RiscV16saveA0toSscratchEv
 2516      E7800000 
 2517              	.LVL228:
 751:src/kernel/riscv.cpp **** }
 2518              		.loc 1 751 1
 2519 0d40 83308101 		ld	ra,24(sp)
 2520              		.cfi_remember_state
 2521              		.cfi_restore 1
 2522 0d44 03340101 		ld	s0,16(sp)
 2523              		.cfi_restore 8
 2524              		.cfi_def_cfa 2, 32
 2525 0d48 83348100 		ld	s1,8(sp)
 2526              		.cfi_restore 9
 2527              	.LVL229:
 2528 0d4c 13010102 		addi	sp,sp,32
 2529              		.cfi_def_cfa_offset 0
 2530 0d50 67800000 		jr	ra
 2531              	.LVL230:
 2532              	.L133:
 2533              		.cfi_restore_state
 745:src/kernel/riscv.cpp **** 
 2534              		.loc 1 745 9 is_stmt 1 discriminator 1
 745:src/kernel/riscv.cpp **** 
 2535              		.loc 1 745 16 is_stmt 0 discriminator 1
 2536 0d54 13850400 		mv	a0,s1
 2537 0d58 97000000 		call	_ZN3SCBD1Ev@plt
 2537      E7800000 
GAS LISTING /tmp/ccAbMSjc.s 			page 70


 2538              	.LVL231:
 2539 0d60 13850400 		mv	a0,s1
 2540 0d64 97000000 		call	_ZN3SCBdlEPv@plt
 2540      E7800000 
 2541              	.LVL232:
 2542 0d6c 6FF05FFC 		j	.L131
 2543              		.cfi_endproc
 2544              	.LFE68:
 2546              		.align	2
 2547              		.globl	_ZN5RiscV18executeForkSyscallEv
 2549              	_ZN5RiscV18executeForkSyscallEv:
 2550              	.LFB69:
 752:src/kernel/riscv.cpp **** 
 753:src/kernel/riscv.cpp **** //fork syscall
 754:src/kernel/riscv.cpp **** void RiscV::executeForkSyscall() {
 2551              		.loc 1 754 34 is_stmt 1
 2552              		.cfi_startproc
 2553              		.cfi_personality 0x9b,DW.ref.__gxx_personality_v0
 2554              		.cfi_lsda 0x1b,.LLSDA69
 2555 0d70 130101FE 		addi	sp,sp,-32
 2556              		.cfi_def_cfa_offset 32
 2557 0d74 233C1100 		sd	ra,24(sp)
 2558 0d78 23388100 		sd	s0,16(sp)
 2559 0d7c 23349100 		sd	s1,8(sp)
 2560 0d80 23302101 		sd	s2,0(sp)
 2561              		.cfi_offset 1, -8
 2562              		.cfi_offset 8, -16
 2563              		.cfi_offset 9, -24
 2564              		.cfi_offset 18, -32
 2565 0d84 13040102 		addi	s0,sp,32
 2566              		.cfi_def_cfa 8, 0
 755:src/kernel/riscv.cpp **** 
 756:src/kernel/riscv.cpp ****     //create new stack and copy stack from currently running stack into the new one
 757:src/kernel/riscv.cpp ****     uint64 *stack = (uint64*)kmalloc(DEFAULT_STACK_SIZE);
 2567              		.loc 1 757 5
 2568              		.loc 1 757 37 is_stmt 0
 2569 0d88 37150000 		li	a0,4096
 2570              	.LEHB10:
 2571 0d8c 97000000 		call	_Z7kmallocm@plt
 2571      E7800000 
 2572              	.LVL233:
 2573 0d94 13090500 		mv	s2,a0
 2574              	.LVL234:
 758:src/kernel/riscv.cpp **** 
 759:src/kernel/riscv.cpp ****     MemoryAllocator::memcpy((void*)TCB::running->stack,(void*)stack,DEFAULT_STACK_SIZE);
 2575              		.loc 1 759 5 is_stmt 1
 2576              		.loc 1 759 28 is_stmt 0
 2577 0d98 97070000 		la	a5,_ZN3TCB7runningE
 2577      83B70700 
 2578 0da0 83B70700 		ld	a5,0(a5)
 2579 0da4 37160000 		li	a2,4096
 2580 0da8 93050500 		mv	a1,a0
 2581 0dac 03B58702 		ld	a0,40(a5)
 2582              	.LVL235:
 2583 0db0 97000000 		call	_ZN15MemoryAllocator6memcpyEPvS0_m@plt
 2583      E7800000 
 2584              	.LVL236:
GAS LISTING /tmp/ccAbMSjc.s 			page 71


 760:src/kernel/riscv.cpp **** 
 761:src/kernel/riscv.cpp ****     //create new TCB for new thread
 762:src/kernel/riscv.cpp ****     TCB *forked = new TCB(nullptr, nullptr, stack, DEFAULT_TIME_SLICE);
 2585              		.loc 1 762 5 is_stmt 1
 2586              		.loc 1 762 70 is_stmt 0
 2587 0db8 13050007 		li	a0,112
 2588 0dbc 97000000 		call	_ZN3TCBnwEm@plt
 2588      E7800000 
 2589              	.LVL237:
 2590              	.LEHE10:
 2591 0dc4 93040500 		mv	s1,a0
 2592 0dc8 630E0500 		beqz	a0,.L135
 2593              		.loc 1 762 70 discriminator 1
 2594 0dcc 13072000 		li	a4,2
 2595 0dd0 93060900 		mv	a3,s2
 2596 0dd4 13060000 		li	a2,0
 2597 0dd8 93050000 		li	a1,0
 2598              	.LEHB11:
 2599 0ddc 97000000 		call	_ZN3TCBC1EPFvPvES0_Pmm@plt
 2599      E7800000 
 2600              	.LVL238:
 2601              	.LEHE11:
 2602              	.L135:
 763:src/kernel/riscv.cpp **** 
 764:src/kernel/riscv.cpp ****     uint64 status = 0;
 2603              		.loc 1 764 5 is_stmt 1 discriminator 6
 765:src/kernel/riscv.cpp **** 
 766:src/kernel/riscv.cpp ****     if(forked) {
 2604              		.loc 1 766 5 discriminator 6
 2605              	.LBB143:
 2606 0de4 638E040A 		beqz	s1,.L138
 2607              	.LBB144:
 767:src/kernel/riscv.cpp **** 
 768:src/kernel/riscv.cpp ****         //set return address where forked thread should return
 769:src/kernel/riscv.cpp ****         forked->context.ra = TCB::currentPC;
 2608              		.loc 1 769 9
 2609              		.loc 1 769 28 is_stmt 0
 2610 0de8 97070000 		la	a5,_ZN3TCB9currentPCE
 2610      83B70700 
 2611 0df0 83B70700 		ld	a5,0(a5)
 2612 0df4 23B4F400 		sd	a5,8(s1)
 770:src/kernel/riscv.cpp **** 
 771:src/kernel/riscv.cpp ****         //set SP value where forked thread's stack starts
 772:src/kernel/riscv.cpp ****         forked->context.sp = (uint64)((char*)stack + TCB::currentSP - (char*)TCB::running->stack);
 2613              		.loc 1 772 9 is_stmt 1
 2614              		.loc 1 772 59 is_stmt 0
 2615 0df8 97070000 		la	a5,_ZN3TCB9currentSPE
 2615      83B70700 
 2616 0e00 83B70700 		ld	a5,0(a5)
 2617              		.loc 1 772 52
 2618 0e04 B307F900 		add	a5,s2,a5
 2619              		.loc 1 772 71
 2620 0e08 17070000 		la	a4,_ZN3TCB7runningE
 2620      03370700 
 2621 0e10 83360700 		ld	a3,0(a4)
 2622              		.loc 1 772 92
 2623 0e14 83B68602 		ld	a3,40(a3)
GAS LISTING /tmp/ccAbMSjc.s 			page 72


 2624              		.loc 1 772 69
 2625 0e18 B387D740 		sub	a5,a5,a3
 2626              		.loc 1 772 28
 2627 0e1c 23B0F400 		sd	a5,0(s1)
 773:src/kernel/riscv.cpp **** 
 774:src/kernel/riscv.cpp ****         //get memory location of where registers are stored from previous context switch
 775:src/kernel/riscv.cpp ****         uint64 registerStartSP = (uint64)((char*)TCB::running->a0Location - (char*)TCB::running->st
 2628              		.loc 1 775 9 is_stmt 1
 2629              		.loc 1 775 64 is_stmt 0
 2630 0e20 83370700 		ld	a5,0(a4)
 2631 0e24 03B58706 		ld	a0,104(a5)
 2632              		.loc 1 775 98
 2633 0e28 83B78702 		ld	a5,40(a5)
 2634              		.loc 1 775 75
 2635 0e2c 3305F540 		sub	a0,a0,a5
 2636              		.loc 1 775 104
 2637 0e30 3309A900 		add	s2,s2,a0
 2638              	.LVL239:
 776:src/kernel/riscv.cpp **** 
 777:src/kernel/riscv.cpp ****         forked->a0Location = registerStartSP;
 2639              		.loc 1 777 9 is_stmt 1
 2640              		.loc 1 777 28 is_stmt 0
 2641 0e34 23B42407 		sd	s2,104(s1)
 778:src/kernel/riscv.cpp **** 
 779:src/kernel/riscv.cpp ****         uint64 a1,a0;
 2642              		.loc 1 779 9 is_stmt 1
 780:src/kernel/riscv.cpp **** 
 781:src/kernel/riscv.cpp ****         //write address of stored registers in SP of forked thread so that it can return regularly
 782:src/kernel/riscv.cpp ****         asm("mv %[a1], a1": [a1] "=r"(a1));
 2643              		.loc 1 782 9
 2644              		.loc 1 782 43 is_stmt 0
 2645              	#APP
 2646              	# 782 "src/kernel/riscv.cpp" 1
 783              	
 784:src/kernel/riscv.cpp ****         asm("mv %[a0], a0": [a0] "=r"(a0));
 2647              		mv a3, a1
 2648              	# 0 "" 2
 2649              		.loc 1 784 9 is_stmt 1
 2650              		.loc 1 784 43 is_stmt 0
 2651              	# 784 "src/kernel/riscv.cpp" 1
 785              	
 786:src/kernel/riscv.cpp ****         asm("mv a0,%[a0]"::  [a0]"r"(registerStartSP));
 2652              		mv a5, a0
 2653              	# 0 "" 2
 2654              		.loc 1 786 9 is_stmt 1
 2655              		.loc 1 786 55 is_stmt 0
 2656              	# 786 "src/kernel/riscv.cpp" 1
 787              	
 788:src/kernel/riscv.cpp ****         asm("mv a1, %[a0]" : :  [a0] "r"(registerStartSP));
 2657              		mv a0,s2
 2658              	# 0 "" 2
 2659              		.loc 1 788 9 is_stmt 1
 2660              		.loc 1 788 59 is_stmt 0
 2661              	# 788 "src/kernel/riscv.cpp" 1
 789              	
 790:src/kernel/riscv.cpp ****         asm("sd a0, 16(a1)");
 2662              		mv a1, s2
GAS LISTING /tmp/ccAbMSjc.s 			page 73


 2663              	# 0 "" 2
 2664              		.loc 1 790 9 is_stmt 1
 2665              		.loc 1 790 29 is_stmt 0
 2666              	# 790 "src/kernel/riscv.cpp" 1
 791              	
 792:src/kernel/riscv.cpp ****         //write 0 in a0 register of forked thread because fork should return 0 in context of child,
 793:src/kernel/riscv.cpp ****         asm("li a0, 0");
 2667              		sd a0, 16(a1)
 2668              	# 0 "" 2
 2669              		.loc 1 793 9 is_stmt 1
 2670              		.loc 1 793 24 is_stmt 0
 2671              	# 793 "src/kernel/riscv.cpp" 1
 794              	
 795:src/kernel/riscv.cpp ****         asm("sd a0, 80(a1)");
 2672              		li a0, 0
 2673              	# 0 "" 2
 2674              		.loc 1 795 9 is_stmt 1
 2675              		.loc 1 795 29 is_stmt 0
 2676              	# 795 "src/kernel/riscv.cpp" 1
 796              	
 797:src/kernel/riscv.cpp ****         asm("mv a1,%[a1]"::  [a1]"r"(a1));
 2677              		sd a0, 80(a1)
 2678              	# 0 "" 2
 2679              		.loc 1 797 9 is_stmt 1
 2680              		.loc 1 797 42 is_stmt 0
 2681              	# 797 "src/kernel/riscv.cpp" 1
 798              	
 799:src/kernel/riscv.cpp ****         asm("mv a0,%[a0]"::  [a0]"r"(a0));
 2682              		mv a1,a3
 2683              	# 0 "" 2
 2684              		.loc 1 799 9 is_stmt 1
 2685              		.loc 1 799 42 is_stmt 0
 2686              	# 799 "src/kernel/riscv.cpp" 1
 800              	
 801:src/kernel/riscv.cpp ****         forked->sepc = TCB::running->sepc;
 2687              		mv a0,a5
 2688              	# 0 "" 2
 2689              		.loc 1 801 9 is_stmt 1
 2690              		.loc 1 801 38 is_stmt 0
 2691              	#NO_APP
 2692 0e5c 83370700 		ld	a5,0(a4)
 2693 0e60 03B78703 		ld	a4,56(a5)
 2694              		.loc 1 801 22
 2695 0e64 23BCE402 		sd	a4,56(s1)
 802:src/kernel/riscv.cpp **** 
 803:src/kernel/riscv.cpp ****         forked->sstatus = TCB::running->sstatus;
 2696              		.loc 1 803 9 is_stmt 1
 2697              		.loc 1 803 41 is_stmt 0
 2698 0e68 83B70704 		ld	a5,64(a5)
 2699              		.loc 1 803 25
 2700 0e6c 23B0F404 		sd	a5,64(s1)
 804:src/kernel/riscv.cpp **** 
 805:src/kernel/riscv.cpp ****         //put forked in scheduler
 806:src/kernel/riscv.cpp ****         Scheduler::put(forked);
 2701              		.loc 1 806 9 is_stmt 1
 2702              		.loc 1 806 23 is_stmt 0
 2703 0e70 13850400 		mv	a0,s1
GAS LISTING /tmp/ccAbMSjc.s 			page 74


 2704              	.LEHB12:
 2705 0e74 97000000 		call	_ZN9Scheduler3putEP3TCB@plt
 2705      E7800000 
 2706              	.LVL240:
 2707              	.LEHE12:
 807:src/kernel/riscv.cpp **** 
 808:src/kernel/riscv.cpp ****         //return address of forked as thread ID
 809:src/kernel/riscv.cpp ****         status = (uint64)forked;
 2708              		.loc 1 809 9 is_stmt 1
 2709              	.L136:
 2710              	.LBE144:
 2711              	.LBE143:
 810:src/kernel/riscv.cpp ****     }else
 811:src/kernel/riscv.cpp ****         status = -1;
 812:src/kernel/riscv.cpp **** 
 813:src/kernel/riscv.cpp ****     asm("mv a0, %[status]" : : [status] "r" (status));
 2712              		.loc 1 813 5
 2713              		.loc 1 813 54 is_stmt 0
 2714              	#APP
 2715              	# 813 "src/kernel/riscv.cpp" 1
 814              	
 815:src/kernel/riscv.cpp ****     RiscV::saveA0toSscratch();
 2716              		mv a0, s1
 2717              	# 0 "" 2
 2718              		.loc 1 815 5 is_stmt 1
 2719              		.loc 1 815 28 is_stmt 0
 2720              	#NO_APP
 2721 0e80 97000000 		call	_ZN5RiscV16saveA0toSscratchEv
 2721      E7800000 
 2722              	.LVL241:
 816:src/kernel/riscv.cpp **** 
 817:src/kernel/riscv.cpp **** }
 2723              		.loc 1 817 1
 2724 0e88 83308101 		ld	ra,24(sp)
 2725              		.cfi_remember_state
 2726              		.cfi_restore 1
 2727 0e8c 03340101 		ld	s0,16(sp)
 2728              		.cfi_restore 8
 2729              		.cfi_def_cfa 2, 32
 2730 0e90 83348100 		ld	s1,8(sp)
 2731              		.cfi_restore 9
 2732              	.LVL242:
 2733 0e94 03390100 		ld	s2,0(sp)
 2734              		.cfi_restore 18
 2735 0e98 13010102 		addi	sp,sp,32
 2736              		.cfi_def_cfa_offset 0
 2737 0e9c 67800000 		jr	ra
 2738              	.LVL243:
 2739              	.L138:
 2740              		.cfi_restore_state
 2741              	.LBB145:
 811:src/kernel/riscv.cpp **** 
 2742              		.loc 1 811 16
 2743 0ea0 9304F0FF 		li	s1,-1
 2744              	.LVL244:
 2745 0ea4 6FF09FFD 		j	.L136
 2746              	.LVL245:
GAS LISTING /tmp/ccAbMSjc.s 			page 75


 2747              	.L139:
 2748 0ea8 13090500 		mv	s2,a0
 2749              	.LVL246:
 2750              	.LBE145:
 762:src/kernel/riscv.cpp **** 
 2751              		.loc 1 762 70
 2752 0eac 13850400 		mv	a0,s1
 2753 0eb0 97000000 		call	_ZN3TCBdlEPv@plt
 2753      E7800000 
 2754              	.LVL247:
 2755 0eb8 13050900 		mv	a0,s2
 2756              	.LEHB13:
 2757 0ebc 97000000 		call	_Unwind_Resume@plt
 2757      E7800000 
 2758              	.LVL248:
 2759              	.LEHE13:
 2760              		.cfi_endproc
 2761              	.LFE69:
 2762              		.section	.gcc_except_table
 2763              	.LLSDA69:
 2764 008e FF       		.byte	0xff
 2765 008f FF       		.byte	0xff
 2766 0090 03       		.byte	0x3
 2767 0091 34       		.byte	0x34
 2768 0092 00000000 		.4byte	.LEHB10-.LFB69
 2769 0096 00000000 		.4byte	.LEHE10-.LEHB10
 2770 009a 00000000 		.4byte	0
 2771 009e 00       		.byte	0
 2772 009f 00000000 		.4byte	.LEHB11-.LFB69
 2773 00a3 00000000 		.4byte	.LEHE11-.LEHB11
 2774 00a7 00000000 		.4byte	.L139-.LFB69
 2775 00ab 00       		.byte	0
 2776 00ac 00000000 		.4byte	.LEHB12-.LFB69
 2777 00b0 00000000 		.4byte	.LEHE12-.LEHB12
 2778 00b4 00000000 		.4byte	0
 2779 00b8 00       		.byte	0
 2780 00b9 00000000 		.4byte	.LEHB13-.LFB69
 2781 00bd 00000000 		.4byte	.LEHE13-.LEHB13
 2782 00c1 00000000 		.4byte	0
 2783 00c5 00       		.byte	0
 2784              		.text
 2786              		.align	2
 2787              		.globl	_ZN5RiscV5getPCEv
 2789              	_ZN5RiscV5getPCEv:
 2790              	.LFB70:
 818:src/kernel/riscv.cpp **** 
 819:src/kernel/riscv.cpp **** void RiscV::getPC(){
 2791              		.loc 1 819 20 is_stmt 1
 2792              		.cfi_startproc
 2793 0ec4 130101FF 		addi	sp,sp,-16
 2794              		.cfi_def_cfa_offset 16
 2795 0ec8 23348100 		sd	s0,8(sp)
 2796              		.cfi_offset 8, -8
 2797 0ecc 13040101 		addi	s0,sp,16
 2798              		.cfi_def_cfa 8, 0
 820:src/kernel/riscv.cpp ****     uint64 ra;
 2799              		.loc 1 820 5
GAS LISTING /tmp/ccAbMSjc.s 			page 76


 821:src/kernel/riscv.cpp **** 
 822:src/kernel/riscv.cpp ****     asm("mv %[ra], ra" : [ra] "=r"(ra));
 2800              		.loc 1 822 5
 2801              		.loc 1 822 40 is_stmt 0
 2802              	#APP
 2803              	# 822 "src/kernel/riscv.cpp" 1
 823              	
 2804              		mv a5, ra
 2805              	# 0 "" 2
 2806              	.LVL249:
 824:src/kernel/riscv.cpp ****     TCB::currentPC = ra + 8;
 2807              		.loc 1 824 5 is_stmt 1
 2808              		.loc 1 824 25 is_stmt 0
 2809              	#NO_APP
 2810 0ed4 93878700 		addi	a5,a5,8
 2811              	.LVL250:
 2812              		.loc 1 824 20
 2813 0ed8 17070000 		la	a4,_ZN3TCB9currentPCE
 2813      03370700 
 2814 0ee0 2330F700 		sd	a5,0(a4)
 825:src/kernel/riscv.cpp **** }
 2815              		.loc 1 825 1
 2816 0ee4 03348100 		ld	s0,8(sp)
 2817              		.cfi_restore 8
 2818              		.cfi_def_cfa 2, 16
 2819 0ee8 13010101 		addi	sp,sp,16
 2820              		.cfi_def_cfa_offset 0
 2821 0eec 67800000 		jr	ra
 2822              		.cfi_endproc
 2823              	.LFE70:
 2825              		.section	.rodata.str1.8,"aMS",@progbits,1
 2826              		.align	3
 2827              	.LC0:
 2828 0000 73657063 		.string	"sepc: "
 2828      3A2000
 2829 0007 00       		.align	3
 2830              	.LC1:
 2831 0008 0A00     		.string	"\n"
 2832 000a 00000000 		.align	3
 2832      0000
 2833              	.LC2:
 2834 0010 496C6C65 		.string	"Illegal instruction\nExiting thread...\n"
 2834      67616C20 
 2834      696E7374 
 2834      72756374 
 2834      696F6E0A 
 2835 0037 00       		.align	3
 2836              	.LC3:
 2837 0038 4572726F 		.string	"Error: \n"
 2837      723A200A 
 2837      00
 2838 0041 00000000 		.align	3
 2838      000000
 2839              	.LC4:
 2840 0048 73636175 		.string	"scause: "
 2840      73653A20 
 2840      00
GAS LISTING /tmp/ccAbMSjc.s 			page 77


 2841 0051 00000000 		.align	3
 2841      000000
 2842              	.LC5:
 2843 0058 73747665 		.string	"stvec: "
 2843      633A2000 
 2844              		.align	3
 2845              	.LC6:
 2846 0060 45786974 		.string	"Exiting thread...\n"
 2846      696E6720 
 2846      74687265 
 2846      61642E2E 
 2846      2E0A00
 2847              		.text
 2848              		.align	2
 2849              		.globl	_ZN5RiscV20handleSupervisorTrapEv
 2851              	_ZN5RiscV20handleSupervisorTrapEv:
 2852              	.LFB47:
 153:src/kernel/riscv.cpp **** 
 2853              		.loc 1 153 36 is_stmt 1
 2854              		.cfi_startproc
 2855 0ef0 130101F9 		addi	sp,sp,-112
 2856              		.cfi_def_cfa_offset 112
 2857 0ef4 23341106 		sd	ra,104(sp)
 2858 0ef8 23308106 		sd	s0,96(sp)
 2859 0efc 233C9104 		sd	s1,88(sp)
 2860              		.cfi_offset 1, -8
 2861              		.cfi_offset 8, -16
 2862              		.cfi_offset 9, -24
 2863 0f00 13040107 		addi	s0,sp,112
 2864              		.cfi_def_cfa 8, 0
 156:src/kernel/riscv.cpp ****     asm("csrr %[stval], stval" : [stval] "=r" (stval));
 2865              		.loc 1 156 5
 157:src/kernel/riscv.cpp ****     uint64 volatile scause = RiscV::r_scause();
 2866              		.loc 1 157 5
 157:src/kernel/riscv.cpp ****     uint64 volatile scause = RiscV::r_scause();
 2867              		.loc 1 157 55 is_stmt 0
 2868              	#APP
 2869              	# 157 "src/kernel/riscv.cpp" 1
 2870              		csrr s1, stval
 2871              	# 0 "" 2
 2872              	.LVL251:
 158:src/kernel/riscv.cpp **** 
 2873              		.loc 1 158 5 is_stmt 1
 2874              	#NO_APP
 2875              	.LBB146:
 2876              	.LBB147:
 145:src/kernel/../../h/riscv.hpp ****     asm("csrr %[scause], scause" : [scause] "=r" (scause));
 2877              		.loc 2 145 5
 146:src/kernel/../../h/riscv.hpp ****     return scause;
 2878              		.loc 2 146 5
 146:src/kernel/../../h/riscv.hpp ****     return scause;
 2879              		.loc 2 146 59 is_stmt 0
 2880              	#APP
 2881              	# 146 "src/kernel/../../h/riscv.hpp" 1
 2882              		csrr a5, scause
 2883              	# 0 "" 2
 2884              	#NO_APP
GAS LISTING /tmp/ccAbMSjc.s 			page 78


 2885 0f0c 2334F4FC 		sd	a5,-56(s0)
 147:src/kernel/../../h/riscv.hpp **** }
 2886              		.loc 2 147 5 is_stmt 1
 147:src/kernel/../../h/riscv.hpp **** }
 2887              		.loc 2 147 12 is_stmt 0
 2888 0f10 833784FC 		ld	a5,-56(s0)
 2889              	.LBE147:
 2890              	.LBE146:
 158:src/kernel/riscv.cpp **** 
 2891              		.loc 1 158 46
 2892 0f14 233CF4FC 		sd	a5,-40(s0)
 160:src/kernel/riscv.cpp **** 
 2893              		.loc 1 160 5 is_stmt 1
 160:src/kernel/riscv.cpp **** 
 2894              		.loc 1 160 71 is_stmt 0
 2895 0f18 97070000 		la	a5,_ZN3TCB7runningE
 2895      83B70700 
 2896 0f20 83B70700 		ld	a5,0(a5)
 160:src/kernel/riscv.cpp **** 
 2897              		.loc 1 160 83
 2898              	#APP
 2899              	# 160 "src/kernel/riscv.cpp" 1
 2900              		csrr a4, sscratch
 2901              	# 0 "" 2
 2902              	#NO_APP
 2903 0f28 23B4E706 		sd	a4,104(a5)
 171:src/kernel/riscv.cpp **** 
 2904              		.loc 1 171 5 is_stmt 1
 2905              	.LBB148:
 171:src/kernel/riscv.cpp **** 
 2906              		.loc 1 171 15 is_stmt 0
 2907 0f2c 033784FD 		ld	a4,-40(s0)
 171:src/kernel/riscv.cpp **** 
 2908              		.loc 1 171 23
 2909 0f30 93079000 		li	a5,9
 2910 0f34 6306F710 		beq	a4,a5,.L145
 171:src/kernel/riscv.cpp **** 
 2911              		.loc 1 171 33 discriminator 2
 2912 0f38 033784FD 		ld	a4,-40(s0)
 171:src/kernel/riscv.cpp **** 
 2913              		.loc 1 171 23 discriminator 2
 2914 0f3c 93078000 		li	a5,8
 2915 0f40 6300F710 		beq	a4,a5,.L145
 2916              	.LBE148:
 217:src/kernel/riscv.cpp **** 
 2917              		.loc 1 217 10 is_stmt 1
 2918              	.LBB203:
 2919              	.LBB149:
 217:src/kernel/riscv.cpp **** 
 2920              		.loc 1 217 20 is_stmt 0
 2921 0f44 033784FD 		ld	a4,-40(s0)
 217:src/kernel/riscv.cpp **** 
 2922              		.loc 1 217 10
 2923 0f48 9307F0FF 		li	a5,-1
 2924 0f4c 9397F703 		slli	a5,a5,63
 2925 0f50 93871700 		addi	a5,a5,1
 2926 0f54 6304F726 		beq	a4,a5,.L175
GAS LISTING /tmp/ccAbMSjc.s 			page 79


 2927              	.LBE149:
 2928              	.LBE203:
 252:src/kernel/riscv.cpp ****         //save sstatus and sepc
 2929              		.loc 1 252 10 is_stmt 1
 2930              	.LBB204:
 2931              	.LBB190:
 2932              	.LBB150:
 252:src/kernel/riscv.cpp ****         //save sstatus and sepc
 2933              		.loc 1 252 20 is_stmt 0
 2934 0f58 033784FD 		ld	a4,-40(s0)
 252:src/kernel/riscv.cpp ****         //save sstatus and sepc
 2935              		.loc 1 252 10
 2936 0f5c 9307F0FF 		li	a5,-1
 2937 0f60 9397F703 		slli	a5,a5,63
 2938 0f64 93879700 		addi	a5,a5,9
 2939 0f68 6302F72E 		beq	a4,a5,.L176
 2940              	.LBE150:
 2941              	.LBE190:
 2942              	.LBE204:
 288:src/kernel/riscv.cpp ****         TCB* old = TCB::running;
 2943              		.loc 1 288 10 is_stmt 1
 2944              	.LBB205:
 2945              	.LBB191:
 2946              	.LBB174:
 2947              	.LBB151:
 288:src/kernel/riscv.cpp ****         TCB* old = TCB::running;
 2948              		.loc 1 288 20 is_stmt 0
 2949 0f6c 033784FD 		ld	a4,-40(s0)
 288:src/kernel/riscv.cpp ****         TCB* old = TCB::running;
 2950              		.loc 1 288 10
 2951 0f70 93072000 		li	a5,2
 2952 0f74 630AF736 		beq	a4,a5,.L177
 2953              	.LBB152:
 301:src/kernel/riscv.cpp ****         ConsoleUtil::printString("scause: ");
 2954              		.loc 1 301 9 is_stmt 1
 301:src/kernel/riscv.cpp ****         ConsoleUtil::printString("scause: ");
 2955              		.loc 1 301 33 is_stmt 0
 2956 0f78 17050000 		lla	a0,.LC3
 2956      13050500 
 2957 0f80 97000000 		call	_ZN11ConsoleUtil11printStringEPKc@plt
 2957      E7800000 
 2958              	.LVL252:
 302:src/kernel/riscv.cpp ****         uint64  scause = RiscV::r_scause();
 2959              		.loc 1 302 9 is_stmt 1
 302:src/kernel/riscv.cpp ****         uint64  scause = RiscV::r_scause();
 2960              		.loc 1 302 33 is_stmt 0
 2961 0f88 17050000 		lla	a0,.LC4
 2961      13050500 
 2962 0f90 97000000 		call	_ZN11ConsoleUtil11printStringEPKc@plt
 2962      E7800000 
 2963              	.LVL253:
 303:src/kernel/riscv.cpp ****         ConsoleUtil::printInt(scause);
 2964              		.loc 1 303 9 is_stmt 1
 2965              	.LBB153:
 2966              	.LBB154:
 145:src/kernel/../../h/riscv.hpp ****     asm("csrr %[scause], scause" : [scause] "=r" (scause));
 2967              		.loc 2 145 5
GAS LISTING /tmp/ccAbMSjc.s 			page 80


 146:src/kernel/../../h/riscv.hpp ****     return scause;
 2968              		.loc 2 146 5
 146:src/kernel/../../h/riscv.hpp ****     return scause;
 2969              		.loc 2 146 59 is_stmt 0
 2970              	#APP
 2971              	# 146 "src/kernel/../../h/riscv.hpp" 1
 2972              		csrr a5, scause
 2973              	# 0 "" 2
 2974              	#NO_APP
 2975 0f9c 2338F4FC 		sd	a5,-48(s0)
 147:src/kernel/../../h/riscv.hpp **** }
 2976              		.loc 2 147 5 is_stmt 1
 147:src/kernel/../../h/riscv.hpp **** }
 2977              		.loc 2 147 12 is_stmt 0
 2978 0fa0 033504FD 		ld	a0,-48(s0)
 2979              	.LVL254:
 2980              	.LBE154:
 2981              	.LBE153:
 304:src/kernel/riscv.cpp ****         ConsoleUtil::printString("sepc: ");
 2982              		.loc 1 304 9 is_stmt 1
 304:src/kernel/riscv.cpp ****         ConsoleUtil::printString("sepc: ");
 2983              		.loc 1 304 30 is_stmt 0
 2984 0fa4 13060000 		li	a2,0
 2985 0fa8 9305A000 		li	a1,10
 2986 0fac 1B050500 		sext.w	a0,a0
 2987              	.LVL255:
 2988 0fb0 97000000 		call	_ZN11ConsoleUtil8printIntEiii@plt
 2988      E7800000 
 2989              	.LVL256:
 305:src/kernel/riscv.cpp ****         uint64 sepc = RiscV::r_sepc();
 2990              		.loc 1 305 9 is_stmt 1
 305:src/kernel/riscv.cpp ****         uint64 sepc = RiscV::r_sepc();
 2991              		.loc 1 305 33 is_stmt 0
 2992 0fb8 17050000 		lla	a0,.LC0
 2992      13050500 
 2993 0fc0 97000000 		call	_ZN11ConsoleUtil11printStringEPKc@plt
 2993      E7800000 
 2994              	.LVL257:
 306:src/kernel/riscv.cpp ****         ConsoleUtil::printInt(sepc,16);
 2995              		.loc 1 306 9 is_stmt 1
 2996              	.LBB155:
 2997              	.LBB156:
 155:src/kernel/../../h/riscv.hpp ****     asm("csrr %[sepc], sepc" : [sepc] "=r" (sepc));
 2998              		.loc 2 155 5
 156:src/kernel/../../h/riscv.hpp ****     return sepc;
 2999              		.loc 2 156 5
 156:src/kernel/../../h/riscv.hpp ****     return sepc;
 3000              		.loc 2 156 51 is_stmt 0
 3001              	#APP
 3002              	# 156 "src/kernel/../../h/riscv.hpp" 1
 157:src/kernel/../../h/riscv.hpp **** }
 3003              		csrr a0, sepc
 3004              	# 0 "" 2
 3005              		.loc 2 157 5 is_stmt 1
 3006              	#NO_APP
 3007              	.LBE156:
 3008              	.LBE155:
GAS LISTING /tmp/ccAbMSjc.s 			page 81


 307:src/kernel/riscv.cpp ****         ConsoleUtil::printString("\n");
 3009              		.loc 1 307 9
 307:src/kernel/riscv.cpp ****         ConsoleUtil::printString("\n");
 3010              		.loc 1 307 30 is_stmt 0
 3011 0fcc 13060000 		li	a2,0
 3012 0fd0 93050001 		li	a1,16
 3013 0fd4 1B050500 		sext.w	a0,a0
 3014 0fd8 97000000 		call	_ZN11ConsoleUtil8printIntEiii@plt
 3014      E7800000 
 3015              	.LVL258:
 308:src/kernel/riscv.cpp ****         ConsoleUtil::print("stvec: ",stval,"\n");
 3016              		.loc 1 308 9 is_stmt 1
 308:src/kernel/riscv.cpp ****         ConsoleUtil::print("stvec: ",stval,"\n");
 3017              		.loc 1 308 33 is_stmt 0
 3018 0fe0 17050000 		lla	a0,.LC1
 3018      13050500 
 3019 0fe8 97000000 		call	_ZN11ConsoleUtil11printStringEPKc@plt
 3019      E7800000 
 3020              	.LVL259:
 309:src/kernel/riscv.cpp ****         TCB* old = TCB::running;
 3021              		.loc 1 309 9 is_stmt 1
 309:src/kernel/riscv.cpp ****         TCB* old = TCB::running;
 3022              		.loc 1 309 27 is_stmt 0
 3023 0ff0 93060001 		li	a3,16
 3024 0ff4 17060000 		lla	a2,.LC1
 3024      13060600 
 3025 0ffc 9B850400 		sext.w	a1,s1
 3026 1000 17050000 		lla	a0,.LC5
 3026      13050500 
 3027 1008 97000000 		call	_ZN11ConsoleUtil5printEPKciS1_i@plt
 3027      E7800000 
 3028              	.LVL260:
 310:src/kernel/riscv.cpp ****         old->status = TCB::Status::FINISHED;
 3029              		.loc 1 310 9 is_stmt 1
 310:src/kernel/riscv.cpp ****         old->status = TCB::Status::FINISHED;
 3030              		.loc 1 310 14 is_stmt 0
 3031 1010 97070000 		la	a5,_ZN3TCB7runningE
 3031      83B70700 
 3032 1018 83B70700 		ld	a5,0(a5)
 3033              	.LVL261:
 311:src/kernel/riscv.cpp ****         ConsoleUtil::printString("Exiting thread...\n");
 3034              		.loc 1 311 9 is_stmt 1
 311:src/kernel/riscv.cpp ****         ConsoleUtil::printString("Exiting thread...\n");
 3035              		.loc 1 311 21 is_stmt 0
 3036 101c 13072000 		li	a4,2
 3037 1020 23A8E700 		sw	a4,16(a5)
 312:src/kernel/riscv.cpp ****         TCB::dispatch();
 3038              		.loc 1 312 9 is_stmt 1
 312:src/kernel/riscv.cpp ****         TCB::dispatch();
 3039              		.loc 1 312 33 is_stmt 0
 3040 1024 17050000 		lla	a0,.LC6
 3040      13050500 
 3041 102c 97000000 		call	_ZN11ConsoleUtil11printStringEPKc@plt
 3041      E7800000 
 3042              	.LVL262:
 313:src/kernel/riscv.cpp ****     }
 3043              		.loc 1 313 9 is_stmt 1
GAS LISTING /tmp/ccAbMSjc.s 			page 82


 313:src/kernel/riscv.cpp ****     }
 3044              		.loc 1 313 22 is_stmt 0
 3045 1034 97000000 		call	_ZN3TCB8dispatchEv@plt
 3045      E7800000 
 3046              	.LVL263:
 3047 103c 6F000008 		j	.L168
 3048              	.L145:
 3049              	.LBE152:
 3050              	.LBE151:
 3051              	.LBE174:
 3052              	.LBE191:
 3053              	.LBB192:
 175:src/kernel/riscv.cpp ****         uint64 volatile sepc = RiscV::r_sepc()+4;
 3054              		.loc 1 175 9 is_stmt 1
 3055              	.LBB193:
 3056              	.LBB194:
 175:src/kernel/../../h/riscv.hpp ****     asm("csrr %[sstatus], sstatus" : [sstatus] "=r" (sstatus));
 3057              		.loc 2 175 5
 176:src/kernel/../../h/riscv.hpp ****     return sstatus;
 3058              		.loc 2 176 5
 176:src/kernel/../../h/riscv.hpp ****     return sstatus;
 3059              		.loc 2 176 63 is_stmt 0
 3060              	#APP
 3061              	# 176 "src/kernel/../../h/riscv.hpp" 1
 3062              		csrr a5, sstatus
 3063              	# 0 "" 2
 3064              	.LVL264:
 177:src/kernel/../../h/riscv.hpp **** }
 3065              		.loc 2 177 5 is_stmt 1
 3066              	#NO_APP
 3067              	.LBE194:
 3068              	.LBE193:
 175:src/kernel/riscv.cpp ****         uint64 volatile sepc = RiscV::r_sepc()+4;
 3069              		.loc 1 175 52 is_stmt 0
 3070 1044 233CF4F8 		sd	a5,-104(s0)
 176:src/kernel/riscv.cpp ****         TCB::running->sepc = sepc;
 3071              		.loc 1 176 9 is_stmt 1
 3072              	.LBB195:
 3073              	.LBB196:
 155:src/kernel/../../h/riscv.hpp ****     asm("csrr %[sepc], sepc" : [sepc] "=r" (sepc));
 3074              		.loc 2 155 5
 156:src/kernel/../../h/riscv.hpp ****     return sepc;
 3075              		.loc 2 156 5
 156:src/kernel/../../h/riscv.hpp ****     return sepc;
 3076              		.loc 2 156 51 is_stmt 0
 3077              	#APP
 3078              	# 156 "src/kernel/../../h/riscv.hpp" 1
 3079              		csrr a5, sepc
 3080              	# 0 "" 2
 3081              	.LVL265:
 157:src/kernel/../../h/riscv.hpp **** }
 3082              		.loc 2 157 5 is_stmt 1
 3083              	#NO_APP
 3084              	.LBE196:
 3085              	.LBE195:
 176:src/kernel/riscv.cpp ****         TCB::running->sepc = sepc;
 3086              		.loc 1 176 47 is_stmt 0
GAS LISTING /tmp/ccAbMSjc.s 			page 83


 3087 104c 93874700 		addi	a5,a5,4
 176:src/kernel/riscv.cpp ****         TCB::running->sepc = sepc;
 3088              		.loc 1 176 48
 3089 1050 2330F4FA 		sd	a5,-96(s0)
 177:src/kernel/riscv.cpp ****         TCB::running->sstatus = sstatus;
 3090              		.loc 1 177 9 is_stmt 1
 177:src/kernel/riscv.cpp ****         TCB::running->sstatus = sstatus;
 3091              		.loc 1 177 23 is_stmt 0
 3092 1054 97070000 		la	a5,_ZN3TCB7runningE
 3092      83B70700 
 3093 105c 83B70700 		ld	a5,0(a5)
 177:src/kernel/riscv.cpp ****         TCB::running->sstatus = sstatus;
 3094              		.loc 1 177 28
 3095 1060 033704FA 		ld	a4,-96(s0)
 3096 1064 23BCE702 		sd	a4,56(a5)
 178:src/kernel/riscv.cpp **** 
 3097              		.loc 1 178 9 is_stmt 1
 178:src/kernel/riscv.cpp **** 
 3098              		.loc 1 178 31 is_stmt 0
 3099 1068 033784F9 		ld	a4,-104(s0)
 3100 106c 23B0E704 		sd	a4,64(a5)
 181:src/kernel/riscv.cpp ****         asm("mv %[syscallID], a0" : [syscallID] "=r" (syscallID));
 3101              		.loc 1 181 9 is_stmt 1
 182:src/kernel/riscv.cpp **** 
 3102              		.loc 1 182 9
 182:src/kernel/riscv.cpp **** 
 3103              		.loc 1 182 66 is_stmt 0
 3104              	#APP
 3105              	# 182 "src/kernel/riscv.cpp" 1
 3106              		mv a5, a0
 3107              	# 0 "" 2
 3108              	.LVL266:
 184:src/kernel/riscv.cpp ****             case 0x01 : executeMemAllocSyscall();break;
 3109              		.loc 1 184 9 is_stmt 1
 3110              	#NO_APP
 3111 1074 13071006 		li	a4,97
 3112 1078 6364F702 		bgtu	a5,a4,.L148
 3113 107c 93972700 		slli	a5,a5,2
 3114              	.LVL267:
 3115 1080 17070000 		lla	a4,.L150
 3115      13070700 
 3116 1088 B387E700 		add	a5,a5,a4
 3117 108c 83A70700 		lw	a5,0(a5)
 3118 1090 B387E700 		add	a5,a5,a4
 3119 1094 67800700 		jr	a5
 3120              		.section	.rodata
 3121              		.align	2
 3122              		.align	2
 3123              	.L150:
 3124 0000 00000000 		.word	.L148-.L150
 3125 0004 00000000 		.word	.L167-.L150
 3126 0008 00000000 		.word	.L166-.L150
 3127 000c 00000000 		.word	.L148-.L150
 3128 0010 00000000 		.word	.L148-.L150
 3129 0014 00000000 		.word	.L148-.L150
 3130 0018 00000000 		.word	.L148-.L150
 3131 001c 00000000 		.word	.L148-.L150
GAS LISTING /tmp/ccAbMSjc.s 			page 84


 3132 0020 00000000 		.word	.L148-.L150
 3133 0024 00000000 		.word	.L148-.L150
 3134 0028 00000000 		.word	.L148-.L150
 3135 002c 00000000 		.word	.L148-.L150
 3136 0030 00000000 		.word	.L148-.L150
 3137 0034 00000000 		.word	.L148-.L150
 3138 0038 00000000 		.word	.L148-.L150
 3139 003c 00000000 		.word	.L148-.L150
 3140 0040 00000000 		.word	.L148-.L150
 3141 0044 00000000 		.word	.L165-.L150
 3142 0048 00000000 		.word	.L164-.L150
 3143 004c 00000000 		.word	.L163-.L150
 3144 0050 00000000 		.word	.L162-.L150
 3145 0054 00000000 		.word	.L161-.L150
 3146 0058 00000000 		.word	.L148-.L150
 3147 005c 00000000 		.word	.L148-.L150
 3148 0060 00000000 		.word	.L148-.L150
 3149 0064 00000000 		.word	.L148-.L150
 3150 0068 00000000 		.word	.L148-.L150
 3151 006c 00000000 		.word	.L148-.L150
 3152 0070 00000000 		.word	.L148-.L150
 3153 0074 00000000 		.word	.L148-.L150
 3154 0078 00000000 		.word	.L148-.L150
 3155 007c 00000000 		.word	.L148-.L150
 3156 0080 00000000 		.word	.L148-.L150
 3157 0084 00000000 		.word	.L160-.L150
 3158 0088 00000000 		.word	.L159-.L150
 3159 008c 00000000 		.word	.L158-.L150
 3160 0090 00000000 		.word	.L157-.L150
 3161 0094 00000000 		.word	.L148-.L150
 3162 0098 00000000 		.word	.L148-.L150
 3163 009c 00000000 		.word	.L148-.L150
 3164 00a0 00000000 		.word	.L148-.L150
 3165 00a4 00000000 		.word	.L148-.L150
 3166 00a8 00000000 		.word	.L148-.L150
 3167 00ac 00000000 		.word	.L148-.L150
 3168 00b0 00000000 		.word	.L148-.L150
 3169 00b4 00000000 		.word	.L148-.L150
 3170 00b8 00000000 		.word	.L148-.L150
 3171 00bc 00000000 		.word	.L148-.L150
 3172 00c0 00000000 		.word	.L148-.L150
 3173 00c4 00000000 		.word	.L156-.L150
 3174 00c8 00000000 		.word	.L148-.L150
 3175 00cc 00000000 		.word	.L148-.L150
 3176 00d0 00000000 		.word	.L148-.L150
 3177 00d4 00000000 		.word	.L148-.L150
 3178 00d8 00000000 		.word	.L148-.L150
 3179 00dc 00000000 		.word	.L148-.L150
 3180 00e0 00000000 		.word	.L148-.L150
 3181 00e4 00000000 		.word	.L148-.L150
 3182 00e8 00000000 		.word	.L148-.L150
 3183 00ec 00000000 		.word	.L148-.L150
 3184 00f0 00000000 		.word	.L148-.L150
 3185 00f4 00000000 		.word	.L148-.L150
 3186 00f8 00000000 		.word	.L148-.L150
 3187 00fc 00000000 		.word	.L148-.L150
 3188 0100 00000000 		.word	.L148-.L150
GAS LISTING /tmp/ccAbMSjc.s 			page 85


 3189 0104 00000000 		.word	.L155-.L150
 3190 0108 00000000 		.word	.L154-.L150
 3191 010c 00000000 		.word	.L153-.L150
 3192 0110 00000000 		.word	.L148-.L150
 3193 0114 00000000 		.word	.L148-.L150
 3194 0118 00000000 		.word	.L148-.L150
 3195 011c 00000000 		.word	.L148-.L150
 3196 0120 00000000 		.word	.L148-.L150
 3197 0124 00000000 		.word	.L148-.L150
 3198 0128 00000000 		.word	.L148-.L150
 3199 012c 00000000 		.word	.L148-.L150
 3200 0130 00000000 		.word	.L148-.L150
 3201 0134 00000000 		.word	.L148-.L150
 3202 0138 00000000 		.word	.L148-.L150
 3203 013c 00000000 		.word	.L148-.L150
 3204 0140 00000000 		.word	.L148-.L150
 3205 0144 00000000 		.word	.L152-.L150
 3206 0148 00000000 		.word	.L151-.L150
 3207 014c 00000000 		.word	.L148-.L150
 3208 0150 00000000 		.word	.L148-.L150
 3209 0154 00000000 		.word	.L148-.L150
 3210 0158 00000000 		.word	.L148-.L150
 3211 015c 00000000 		.word	.L148-.L150
 3212 0160 00000000 		.word	.L148-.L150
 3213 0164 00000000 		.word	.L148-.L150
 3214 0168 00000000 		.word	.L148-.L150
 3215 016c 00000000 		.word	.L148-.L150
 3216 0170 00000000 		.word	.L148-.L150
 3217 0174 00000000 		.word	.L148-.L150
 3218 0178 00000000 		.word	.L148-.L150
 3219 017c 00000000 		.word	.L148-.L150
 3220 0180 00000000 		.word	.L148-.L150
 3221 0184 00000000 		.word	.L149-.L150
 3222              		.text
 3223              	.L167:
 185:src/kernel/riscv.cpp ****             case 0x02 : executeMemFreeSyscall();break;
 3224              		.loc 1 185 13
 185:src/kernel/riscv.cpp ****             case 0x02 : executeMemFreeSyscall();break;
 3225              		.loc 1 185 25
 185:src/kernel/riscv.cpp ****             case 0x02 : executeMemFreeSyscall();break;
 3226              		.loc 1 185 47 is_stmt 0
 3227 1098 97000000 		call	_ZN5RiscV22executeMemAllocSyscallEv
 3227      E7800000 
 3228              	.LVL268:
 185:src/kernel/riscv.cpp ****             case 0x02 : executeMemFreeSyscall();break;
 3229              		.loc 1 185 50 is_stmt 1
 3230              	.L148:
 212:src/kernel/riscv.cpp ****         RiscV::w_sepc(TCB::running->sepc);
 3231              		.loc 1 212 9
 212:src/kernel/riscv.cpp ****         RiscV::w_sepc(TCB::running->sepc);
 3232              		.loc 1 212 25 is_stmt 0
 3233 10a0 97070000 		la	a5,_ZN3TCB7runningE
 3233      83B70700 
 3234 10a8 83B70700 		ld	a5,0(a5)
 3235 10ac 03B70704 		ld	a4,64(a5)
 3236              	.LVL269:
 3237              	.LBB197:
GAS LISTING /tmp/ccAbMSjc.s 			page 86


 3238              	.LBB198:
 171:src/kernel/../../h/riscv.hpp **** }
 3239              		.loc 2 171 5 is_stmt 1
 171:src/kernel/../../h/riscv.hpp **** }
 3240              		.loc 2 171 64 is_stmt 0
 3241              	#APP
 3242              	# 171 "src/kernel/../../h/riscv.hpp" 1
 3243              		csrw sstatus, a4
 3244              	# 0 "" 2
 3245              	.LVL270:
 3246              	#NO_APP
 3247              	.LBE198:
 3248              	.LBE197:
 213:src/kernel/riscv.cpp ****     }
 3249              		.loc 1 213 9 is_stmt 1
 213:src/kernel/riscv.cpp ****     }
 3250              		.loc 1 213 22 is_stmt 0
 3251 10b4 83B78703 		ld	a5,56(a5)
 3252              	.LVL271:
 3253              	.LBB199:
 3254              	.LBB200:
 161:src/kernel/../../h/riscv.hpp **** }
 3255              		.loc 2 161 5 is_stmt 1
 161:src/kernel/../../h/riscv.hpp **** }
 3256              		.loc 2 161 52 is_stmt 0
 3257              	#APP
 3258              	# 161 "src/kernel/../../h/riscv.hpp" 1
 3259              		csrw sepc, a5
 3260              	# 0 "" 2
 3261              	.LVL272:
 3262              	#NO_APP
 3263              	.L168:
 3264              	.LBE200:
 3265              	.LBE199:
 3266              	.LBE192:
 3267              	.LBE205:
 316:src/kernel/riscv.cpp **** }
 3268              		.loc 1 316 5 is_stmt 1
 316:src/kernel/riscv.cpp **** }
 3269              		.loc 1 316 41 is_stmt 0
 3270 10bc 97000000 		call	_ZN5RiscV29jumpToDesignatedPrivilegeModeEv
 3270      E7800000 
 3271              	.LVL273:
 317:src/kernel/riscv.cpp **** 
 3272              		.loc 1 317 1
 3273 10c4 83308106 		ld	ra,104(sp)
 3274              		.cfi_remember_state
 3275              		.cfi_restore 1
 3276 10c8 03340106 		ld	s0,96(sp)
 3277              		.cfi_restore 8
 3278              		.cfi_def_cfa 2, 112
 3279 10cc 83348105 		ld	s1,88(sp)
 3280              		.cfi_restore 9
 3281              	.LVL274:
 3282 10d0 13010107 		addi	sp,sp,112
 3283              		.cfi_def_cfa_offset 0
 3284 10d4 67800000 		jr	ra
GAS LISTING /tmp/ccAbMSjc.s 			page 87


 3285              	.LVL275:
 3286              	.L166:
 3287              		.cfi_restore_state
 3288              	.LBB206:
 3289              	.LBB201:
 186:src/kernel/riscv.cpp ****             case 0x11 : executeThreadCreateSyscall();break;
 3290              		.loc 1 186 13 is_stmt 1
 186:src/kernel/riscv.cpp ****             case 0x11 : executeThreadCreateSyscall();break;
 3291              		.loc 1 186 25
 186:src/kernel/riscv.cpp ****             case 0x11 : executeThreadCreateSyscall();break;
 3292              		.loc 1 186 46 is_stmt 0
 3293 10d8 97000000 		call	_ZN5RiscV21executeMemFreeSyscallEv
 3293      E7800000 
 3294              	.LVL276:
 186:src/kernel/riscv.cpp ****             case 0x11 : executeThreadCreateSyscall();break;
 3295              		.loc 1 186 49 is_stmt 1
 3296 10e0 6FF01FFC 		j	.L148
 3297              	.L165:
 187:src/kernel/riscv.cpp ****             case 0x12 : executeThreadExitSyscall();break;
 3298              		.loc 1 187 13
 187:src/kernel/riscv.cpp ****             case 0x12 : executeThreadExitSyscall();break;
 3299              		.loc 1 187 25
 187:src/kernel/riscv.cpp ****             case 0x12 : executeThreadExitSyscall();break;
 3300              		.loc 1 187 51 is_stmt 0
 3301 10e4 97000000 		call	_ZN5RiscV26executeThreadCreateSyscallEv
 3301      E7800000 
 3302              	.LVL277:
 187:src/kernel/riscv.cpp ****             case 0x12 : executeThreadExitSyscall();break;
 3303              		.loc 1 187 54 is_stmt 1
 3304 10ec 6FF05FFB 		j	.L148
 3305              	.L164:
 188:src/kernel/riscv.cpp ****             case 0x13 : executeThreadDispatchSyscall();break;
 3306              		.loc 1 188 13
 188:src/kernel/riscv.cpp ****             case 0x13 : executeThreadDispatchSyscall();break;
 3307              		.loc 1 188 25
 188:src/kernel/riscv.cpp ****             case 0x13 : executeThreadDispatchSyscall();break;
 3308              		.loc 1 188 49 is_stmt 0
 3309 10f0 97000000 		call	_ZN5RiscV24executeThreadExitSyscallEv
 3309      E7800000 
 3310              	.LVL278:
 188:src/kernel/riscv.cpp ****             case 0x13 : executeThreadDispatchSyscall();break;
 3311              		.loc 1 188 52 is_stmt 1
 3312 10f8 6FF09FFA 		j	.L148
 3313              	.L163:
 189:src/kernel/riscv.cpp ****             case 0x14 : executeThreadAttachBodySyscall();break;
 3314              		.loc 1 189 13
 189:src/kernel/riscv.cpp ****             case 0x14 : executeThreadAttachBodySyscall();break;
 3315              		.loc 1 189 25
 189:src/kernel/riscv.cpp ****             case 0x14 : executeThreadAttachBodySyscall();break;
 3316              		.loc 1 189 53 is_stmt 0
 3317 10fc 97000000 		call	_ZN5RiscV28executeThreadDispatchSyscallEv
 3317      E7800000 
 3318              	.LVL279:
 189:src/kernel/riscv.cpp ****             case 0x14 : executeThreadAttachBodySyscall();break;
 3319              		.loc 1 189 56 is_stmt 1
 3320 1104 6FF0DFF9 		j	.L148
 3321              	.L162:
GAS LISTING /tmp/ccAbMSjc.s 			page 88


 190:src/kernel/riscv.cpp ****             case 0x15 : executeThreadStartSyscall();break;
 3322              		.loc 1 190 13
 190:src/kernel/riscv.cpp ****             case 0x15 : executeThreadStartSyscall();break;
 3323              		.loc 1 190 25
 190:src/kernel/riscv.cpp ****             case 0x15 : executeThreadStartSyscall();break;
 3324              		.loc 1 190 55 is_stmt 0
 3325 1108 97000000 		call	_ZN5RiscV30executeThreadAttachBodySyscallEv
 3325      E7800000 
 3326              	.LVL280:
 190:src/kernel/riscv.cpp ****             case 0x15 : executeThreadStartSyscall();break;
 3327              		.loc 1 190 58 is_stmt 1
 3328 1110 6FF01FF9 		j	.L148
 3329              	.L161:
 191:src/kernel/riscv.cpp ****             case 0x21 : executeSemOpenSyscall();break;
 3330              		.loc 1 191 13
 191:src/kernel/riscv.cpp ****             case 0x21 : executeSemOpenSyscall();break;
 3331              		.loc 1 191 25
 191:src/kernel/riscv.cpp ****             case 0x21 : executeSemOpenSyscall();break;
 3332              		.loc 1 191 50 is_stmt 0
 3333 1114 97000000 		call	_ZN5RiscV25executeThreadStartSyscallEv
 3333      E7800000 
 3334              	.LVL281:
 191:src/kernel/riscv.cpp ****             case 0x21 : executeSemOpenSyscall();break;
 3335              		.loc 1 191 53 is_stmt 1
 3336 111c 6FF05FF8 		j	.L148
 3337              	.L160:
 192:src/kernel/riscv.cpp ****             case 0x22 : executeSemCloseSyscall();break;
 3338              		.loc 1 192 13
 192:src/kernel/riscv.cpp ****             case 0x22 : executeSemCloseSyscall();break;
 3339              		.loc 1 192 25
 192:src/kernel/riscv.cpp ****             case 0x22 : executeSemCloseSyscall();break;
 3340              		.loc 1 192 46 is_stmt 0
 3341 1120 97000000 		call	_ZN5RiscV21executeSemOpenSyscallEv
 3341      E7800000 
 3342              	.LVL282:
 192:src/kernel/riscv.cpp ****             case 0x22 : executeSemCloseSyscall();break;
 3343              		.loc 1 192 49 is_stmt 1
 3344 1128 6FF09FF7 		j	.L148
 3345              	.L159:
 193:src/kernel/riscv.cpp ****             case 0x23 : executeSemWaitSyscall();break;
 3346              		.loc 1 193 13
 193:src/kernel/riscv.cpp ****             case 0x23 : executeSemWaitSyscall();break;
 3347              		.loc 1 193 25
 193:src/kernel/riscv.cpp ****             case 0x23 : executeSemWaitSyscall();break;
 3348              		.loc 1 193 47 is_stmt 0
 3349 112c 97000000 		call	_ZN5RiscV22executeSemCloseSyscallEv
 3349      E7800000 
 3350              	.LVL283:
 193:src/kernel/riscv.cpp ****             case 0x23 : executeSemWaitSyscall();break;
 3351              		.loc 1 193 50 is_stmt 1
 3352 1134 6FF0DFF6 		j	.L148
 3353              	.L158:
 194:src/kernel/riscv.cpp ****             case 0x24 : executeSemSignalSyscall();break;
 3354              		.loc 1 194 13
 194:src/kernel/riscv.cpp ****             case 0x24 : executeSemSignalSyscall();break;
 3355              		.loc 1 194 25
 194:src/kernel/riscv.cpp ****             case 0x24 : executeSemSignalSyscall();break;
GAS LISTING /tmp/ccAbMSjc.s 			page 89


 3356              		.loc 1 194 46 is_stmt 0
 3357 1138 97000000 		call	_ZN5RiscV21executeSemWaitSyscallEv
 3357      E7800000 
 3358              	.LVL284:
 194:src/kernel/riscv.cpp ****             case 0x24 : executeSemSignalSyscall();break;
 3359              		.loc 1 194 49 is_stmt 1
 3360 1140 6FF01FF6 		j	.L148
 3361              	.L157:
 195:src/kernel/riscv.cpp ****             case 0x31 : executeTimeSleepSyscall();break;
 3362              		.loc 1 195 13
 195:src/kernel/riscv.cpp ****             case 0x31 : executeTimeSleepSyscall();break;
 3363              		.loc 1 195 25
 195:src/kernel/riscv.cpp ****             case 0x31 : executeTimeSleepSyscall();break;
 3364              		.loc 1 195 48 is_stmt 0
 3365 1144 97000000 		call	_ZN5RiscV23executeSemSignalSyscallEv
 3365      E7800000 
 3366              	.LVL285:
 195:src/kernel/riscv.cpp ****             case 0x31 : executeTimeSleepSyscall();break;
 3367              		.loc 1 195 51 is_stmt 1
 3368 114c 6FF05FF5 		j	.L148
 3369              	.L156:
 196:src/kernel/riscv.cpp ****             case 0x41 : executeGetcSyscall();break;
 3370              		.loc 1 196 13
 196:src/kernel/riscv.cpp ****             case 0x41 : executeGetcSyscall();break;
 3371              		.loc 1 196 25
 196:src/kernel/riscv.cpp ****             case 0x41 : executeGetcSyscall();break;
 3372              		.loc 1 196 48 is_stmt 0
 3373 1150 97000000 		call	_ZN5RiscV23executeTimeSleepSyscallEv
 3373      E7800000 
 3374              	.LVL286:
 196:src/kernel/riscv.cpp ****             case 0x41 : executeGetcSyscall();break;
 3375              		.loc 1 196 51 is_stmt 1
 3376 1158 6FF09FF4 		j	.L148
 3377              	.L155:
 197:src/kernel/riscv.cpp ****             case 0x42 : executePutcSyscall();break;
 3378              		.loc 1 197 13
 197:src/kernel/riscv.cpp ****             case 0x42 : executePutcSyscall();break;
 3379              		.loc 1 197 25
 197:src/kernel/riscv.cpp ****             case 0x42 : executePutcSyscall();break;
 3380              		.loc 1 197 43 is_stmt 0
 3381 115c 97000000 		call	_ZN5RiscV18executeGetcSyscallEv
 3381      E7800000 
 3382              	.LVL287:
 197:src/kernel/riscv.cpp ****             case 0x42 : executePutcSyscall();break;
 3383              		.loc 1 197 46 is_stmt 1
 3384 1164 6FF0DFF3 		j	.L148
 3385              	.L154:
 198:src/kernel/riscv.cpp ****             case 0x43 : executePutcUtilSyscall();break;
 3386              		.loc 1 198 13
 198:src/kernel/riscv.cpp ****             case 0x43 : executePutcUtilSyscall();break;
 3387              		.loc 1 198 25
 198:src/kernel/riscv.cpp ****             case 0x43 : executePutcUtilSyscall();break;
 3388              		.loc 1 198 43 is_stmt 0
 3389 1168 97000000 		call	_ZN5RiscV18executePutcSyscallEv
 3389      E7800000 
 3390              	.LVL288:
 198:src/kernel/riscv.cpp ****             case 0x43 : executePutcUtilSyscall();break;
GAS LISTING /tmp/ccAbMSjc.s 			page 90


 3391              		.loc 1 198 46 is_stmt 1
 3392 1170 6FF01FF3 		j	.L148
 3393              	.L153:
 199:src/kernel/riscv.cpp ****             case 0x51 : executeThreadFreeSyscall();break;
 3394              		.loc 1 199 13
 199:src/kernel/riscv.cpp ****             case 0x51 : executeThreadFreeSyscall();break;
 3395              		.loc 1 199 25
 199:src/kernel/riscv.cpp ****             case 0x51 : executeThreadFreeSyscall();break;
 3396              		.loc 1 199 47 is_stmt 0
 3397 1174 97000000 		call	_ZN5RiscV22executePutcUtilSyscallEv
 3397      E7800000 
 3398              	.LVL289:
 199:src/kernel/riscv.cpp ****             case 0x51 : executeThreadFreeSyscall();break;
 3399              		.loc 1 199 50 is_stmt 1
 3400 117c 6FF05FF2 		j	.L148
 3401              	.L152:
 200:src/kernel/riscv.cpp ****             case 0x52 : executeSemaphoreFreeSyscall();break;
 3402              		.loc 1 200 13
 200:src/kernel/riscv.cpp ****             case 0x52 : executeSemaphoreFreeSyscall();break;
 3403              		.loc 1 200 25
 200:src/kernel/riscv.cpp ****             case 0x52 : executeSemaphoreFreeSyscall();break;
 3404              		.loc 1 200 49 is_stmt 0
 3405 1180 97000000 		call	_ZN5RiscV24executeThreadFreeSyscallEv
 3405      E7800000 
 3406              	.LVL290:
 200:src/kernel/riscv.cpp ****             case 0x52 : executeSemaphoreFreeSyscall();break;
 3407              		.loc 1 200 52 is_stmt 1
 3408 1188 6FF09FF1 		j	.L148
 3409              	.L151:
 201:src/kernel/riscv.cpp ****             //in this case we need to save SP and PC at this point so that newly created thread
 3410              		.loc 1 201 13
 201:src/kernel/riscv.cpp ****             //in this case we need to save SP and PC at this point so that newly created thread
 3411              		.loc 1 201 25
 201:src/kernel/riscv.cpp ****             //in this case we need to save SP and PC at this point so that newly created thread
 3412              		.loc 1 201 52 is_stmt 0
 3413 118c 97000000 		call	_ZN5RiscV27executeSemaphoreFreeSyscallEv
 3413      E7800000 
 3414              	.LVL291:
 201:src/kernel/riscv.cpp ****             //in this case we need to save SP and PC at this point so that newly created thread
 3415              		.loc 1 201 55 is_stmt 1
 3416 1194 6FF0DFF0 		j	.L148
 3417              	.L149:
 205:src/kernel/riscv.cpp ****                         RiscV::getPC();
 3418              		.loc 1 205 13
 205:src/kernel/riscv.cpp ****                         RiscV::getPC();
 3419              		.loc 1 205 25
 205:src/kernel/riscv.cpp ****                         RiscV::getPC();
 3420              		.loc 1 205 72 is_stmt 0
 3421              	#APP
 3422              	# 205 "src/kernel/riscv.cpp" 1
 3423              		mv a5, sp
 3424              	# 0 "" 2
 3425              	#NO_APP
 3426 119c 17070000 		la	a4,_ZN3TCB9currentSPE
 3426      03370700 
 3427 11a4 2330F700 		sd	a5,0(a4)
 206:src/kernel/riscv.cpp ****                         executeForkSyscall();
GAS LISTING /tmp/ccAbMSjc.s 			page 91


 3428              		.loc 1 206 25 is_stmt 1
 206:src/kernel/riscv.cpp ****                         executeForkSyscall();
 3429              		.loc 1 206 37 is_stmt 0
 3430 11a8 97000000 		call	_ZN5RiscV5getPCEv
 3430      E7800000 
 3431              	.LVL292:
 207:src/kernel/riscv.cpp ****                         break;
 3432              		.loc 1 207 25 is_stmt 1
 207:src/kernel/riscv.cpp ****                         break;
 3433              		.loc 1 207 43 is_stmt 0
 3434 11b0 97000000 		call	_ZN5RiscV18executeForkSyscallEv
 3434      E7800000 
 3435              	.LVL293:
 208:src/kernel/riscv.cpp ****         }
 3436              		.loc 1 208 25 is_stmt 1
 3437 11b8 6FF09FEE 		j	.L148
 3438              	.L175:
 3439              	.LBE201:
 3440              	.LBB202:
 3441              	.LBB175:
 221:src/kernel/riscv.cpp ****         uint64 volatile sepc = RiscV::r_sepc();
 3442              		.loc 1 221 9
 3443              	.LBB176:
 3444              	.LBB177:
 175:src/kernel/../../h/riscv.hpp ****     asm("csrr %[sstatus], sstatus" : [sstatus] "=r" (sstatus));
 3445              		.loc 2 175 5
 176:src/kernel/../../h/riscv.hpp ****     return sstatus;
 3446              		.loc 2 176 5
 176:src/kernel/../../h/riscv.hpp ****     return sstatus;
 3447              		.loc 2 176 63 is_stmt 0
 3448              	#APP
 3449              	# 176 "src/kernel/../../h/riscv.hpp" 1
 3450              		csrr a5, sstatus
 3451              	# 0 "" 2
 3452              	.LVL294:
 177:src/kernel/../../h/riscv.hpp **** }
 3453              		.loc 2 177 5 is_stmt 1
 3454              	#NO_APP
 3455              	.LBE177:
 3456              	.LBE176:
 221:src/kernel/riscv.cpp ****         uint64 volatile sepc = RiscV::r_sepc();
 3457              		.loc 1 221 52 is_stmt 0
 3458 11c0 2334F4FA 		sd	a5,-88(s0)
 222:src/kernel/riscv.cpp **** 
 3459              		.loc 1 222 9 is_stmt 1
 3460              	.LBB178:
 3461              	.LBB179:
 155:src/kernel/../../h/riscv.hpp ****     asm("csrr %[sepc], sepc" : [sepc] "=r" (sepc));
 3462              		.loc 2 155 5
 156:src/kernel/../../h/riscv.hpp ****     return sepc;
 3463              		.loc 2 156 5
 156:src/kernel/../../h/riscv.hpp ****     return sepc;
 3464              		.loc 2 156 51 is_stmt 0
 3465              	#APP
 3466              	# 156 "src/kernel/../../h/riscv.hpp" 1
 3467              		csrr a5, sepc
 3468              	# 0 "" 2
GAS LISTING /tmp/ccAbMSjc.s 			page 92


 3469              	.LVL295:
 157:src/kernel/../../h/riscv.hpp **** }
 3470              		.loc 2 157 5 is_stmt 1
 3471              	#NO_APP
 3472              	.LBE179:
 3473              	.LBE178:
 222:src/kernel/riscv.cpp **** 
 3474              		.loc 1 222 46 is_stmt 0
 3475 11c8 2338F4FA 		sd	a5,-80(s0)
 225:src/kernel/riscv.cpp **** 
 3476              		.loc 1 225 9 is_stmt 1
 3477              	.LVL296:
 3478              	.LBB180:
 3479              	.LBB181:
 197:src/kernel/../../h/riscv.hpp **** }
 3480              		.loc 2 197 5
 197:src/kernel/../../h/riscv.hpp **** }
 3481              		.loc 2 197 51 is_stmt 0
 3482 11cc 93072000 		li	a5,2
 3483              	#APP
 3484              	# 197 "src/kernel/../../h/riscv.hpp" 1
 3485              		csrc sip, a5
 3486              	# 0 "" 2
 3487              	.LVL297:
 3488              	#NO_APP
 3489              	.LBE181:
 3490              	.LBE180:
 229:src/kernel/riscv.cpp ****         Scheduler::awake();
 3491              		.loc 1 229 9 is_stmt 1
 229:src/kernel/riscv.cpp ****         Scheduler::awake();
 3492              		.loc 1 229 20 is_stmt 0
 3493 11d4 17070000 		lla	a4,.LANCHOR0
 3493      13070700 
 3494 11dc 83370701 		ld	a5,16(a4)
 3495 11e0 93871700 		addi	a5,a5,1
 3496 11e4 2338F700 		sd	a5,16(a4)
 230:src/kernel/riscv.cpp **** 
 3497              		.loc 1 230 9 is_stmt 1
 230:src/kernel/riscv.cpp **** 
 3498              		.loc 1 230 25 is_stmt 0
 3499 11e8 97000000 		call	_ZN9Scheduler5awakeEv@plt
 3499      E7800000 
 3500              	.LVL298:
 234:src/kernel/riscv.cpp ****         if(TCB::timeSliceCounter >= TCB::running->timeSlice) {
 3501              		.loc 1 234 9 is_stmt 1
 234:src/kernel/riscv.cpp ****         if(TCB::timeSliceCounter >= TCB::running->timeSlice) {
 3502              		.loc 1 234 30 is_stmt 0
 3503 11f0 17070000 		la	a4,_ZN3TCB16timeSliceCounterE
 3503      03370700 
 3504 11f8 83370700 		ld	a5,0(a4)
 3505 11fc 93871700 		addi	a5,a5,1
 3506 1200 2330F700 		sd	a5,0(a4)
 235:src/kernel/riscv.cpp **** 
 3507              		.loc 1 235 9 is_stmt 1
 3508              	.LBB182:
 235:src/kernel/riscv.cpp **** 
 3509              		.loc 1 235 51 is_stmt 0
GAS LISTING /tmp/ccAbMSjc.s 			page 93


 3510 1204 17070000 		la	a4,_ZN3TCB7runningE
 3510      03370700 
 3511 120c 03370700 		ld	a4,0(a4)
 3512 1210 83360703 		ld	a3,48(a4)
 235:src/kernel/riscv.cpp **** 
 3513              		.loc 1 235 9
 3514 1214 63FCD700 		bgeu	a5,a3,.L178
 3515              	.L169:
 3516              	.LBE182:
 247:src/kernel/riscv.cpp ****         RiscV::w_sepc(sepc);
 3517              		.loc 1 247 9 is_stmt 1
 247:src/kernel/riscv.cpp ****         RiscV::w_sepc(sepc);
 3518              		.loc 1 247 25 is_stmt 0
 3519 1218 833784FA 		ld	a5,-88(s0)
 3520              	.LVL299:
 3521              	.LBB184:
 3522              	.LBB185:
 171:src/kernel/../../h/riscv.hpp **** }
 3523              		.loc 2 171 5 is_stmt 1
 171:src/kernel/../../h/riscv.hpp **** }
 3524              		.loc 2 171 64 is_stmt 0
 3525              	#APP
 3526              	# 171 "src/kernel/../../h/riscv.hpp" 1
 3527              		csrw sstatus, a5
 3528              	# 0 "" 2
 3529              	.LVL300:
 3530              	#NO_APP
 3531              	.LBE185:
 3532              	.LBE184:
 248:src/kernel/riscv.cpp ****     }
 3533              		.loc 1 248 9 is_stmt 1
 248:src/kernel/riscv.cpp ****     }
 3534              		.loc 1 248 22 is_stmt 0
 3535 1220 833704FB 		ld	a5,-80(s0)
 3536              	.LVL301:
 3537              	.LBB186:
 3538              	.LBB187:
 161:src/kernel/../../h/riscv.hpp **** }
 3539              		.loc 2 161 5 is_stmt 1
 161:src/kernel/../../h/riscv.hpp **** }
 3540              		.loc 2 161 52 is_stmt 0
 3541              	#APP
 3542              	# 161 "src/kernel/../../h/riscv.hpp" 1
 162:src/kernel/../../h/riscv.hpp **** 
 3543              		csrw sepc, a5
 3544              	# 0 "" 2
 3545              		.loc 2 162 1
 3546              	#NO_APP
 3547 1228 6FF05FE9 		j	.L168
 3548              	.LVL302:
 3549              	.L178:
 3550              	.LBE187:
 3551              	.LBE186:
 3552              	.LBB188:
 3553              	.LBB183:
 237:src/kernel/riscv.cpp **** 
 3554              		.loc 1 237 13 is_stmt 1
GAS LISTING /tmp/ccAbMSjc.s 			page 94


 237:src/kernel/riscv.cpp **** 
 3555              		.loc 1 237 35 is_stmt 0
 3556 122c 97070000 		la	a5,_ZN3TCB16timeSliceCounterE
 3556      83B70700 
 3557 1234 23B00700 		sd	zero,0(a5)
 239:src/kernel/riscv.cpp **** 
 3558              		.loc 1 239 13 is_stmt 1
 3559              	.LVL303:
 241:src/kernel/riscv.cpp **** 
 3560              		.loc 1 241 13
 241:src/kernel/riscv.cpp **** 
 3561              		.loc 1 241 25 is_stmt 0
 3562 1238 93071000 		li	a5,1
 3563 123c 2328F700 		sw	a5,16(a4)
 243:src/kernel/riscv.cpp ****         }
 3564              		.loc 1 243 13 is_stmt 1
 243:src/kernel/riscv.cpp ****         }
 3565              		.loc 1 243 26 is_stmt 0
 3566 1240 97000000 		call	_ZN3TCB8dispatchEv@plt
 3566      E7800000 
 3567              	.LVL304:
 3568              	.LBE183:
 3569 1248 6FF01FFD 		j	.L169
 3570              	.L176:
 3571              	.LBE188:
 3572              	.LBE175:
 3573              	.LBB189:
 3574              	.LBB160:
 255:src/kernel/riscv.cpp ****         uint64 volatile sepc = RiscV::r_sepc();
 3575              		.loc 1 255 9 is_stmt 1
 3576              	.LBB161:
 3577              	.LBB162:
 175:src/kernel/../../h/riscv.hpp ****     asm("csrr %[sstatus], sstatus" : [sstatus] "=r" (sstatus));
 3578              		.loc 2 175 5
 176:src/kernel/../../h/riscv.hpp ****     return sstatus;
 3579              		.loc 2 176 5
 176:src/kernel/../../h/riscv.hpp ****     return sstatus;
 3580              		.loc 2 176 63 is_stmt 0
 3581              	#APP
 3582              	# 176 "src/kernel/../../h/riscv.hpp" 1
 3583              		csrr a5, sstatus
 3584              	# 0 "" 2
 3585              	.LVL305:
 177:src/kernel/../../h/riscv.hpp **** }
 3586              		.loc 2 177 5 is_stmt 1
 3587              	#NO_APP
 3588              	.LBE162:
 3589              	.LBE161:
 255:src/kernel/riscv.cpp ****         uint64 volatile sepc = RiscV::r_sepc();
 3590              		.loc 1 255 52 is_stmt 0
 3591 1250 233CF4FA 		sd	a5,-72(s0)
 256:src/kernel/riscv.cpp **** 
 3592              		.loc 1 256 9 is_stmt 1
 3593              	.LBB163:
 3594              	.LBB164:
 155:src/kernel/../../h/riscv.hpp ****     asm("csrr %[sepc], sepc" : [sepc] "=r" (sepc));
 3595              		.loc 2 155 5
GAS LISTING /tmp/ccAbMSjc.s 			page 95


 156:src/kernel/../../h/riscv.hpp ****     return sepc;
 3596              		.loc 2 156 5
 156:src/kernel/../../h/riscv.hpp ****     return sepc;
 3597              		.loc 2 156 51 is_stmt 0
 3598              	#APP
 3599              	# 156 "src/kernel/../../h/riscv.hpp" 1
 3600              		csrr a5, sepc
 3601              	# 0 "" 2
 3602              	.LVL306:
 157:src/kernel/../../h/riscv.hpp **** }
 3603              		.loc 2 157 5 is_stmt 1
 3604              	#NO_APP
 3605              	.LBE164:
 3606              	.LBE163:
 256:src/kernel/riscv.cpp **** 
 3607              		.loc 1 256 46 is_stmt 0
 3608 1258 2330F4FC 		sd	a5,-64(s0)
 259:src/kernel/riscv.cpp ****         asm("mv a0, %[status]" : : [status] "r" (status));
 3609              		.loc 1 259 9 is_stmt 1
 259:src/kernel/riscv.cpp ****         asm("mv a0, %[status]" : : [status] "r" (status));
 3610              		.loc 1 259 16 is_stmt 0
 3611 125c 97070000 		la	a5,CONSOLE_STATUS
 3611      83B70700 
 3612 1264 83B70700 		ld	a5,0(a5)
 3613              	.LVL307:
 260:src/kernel/riscv.cpp ****         asm("lb a1, 0(a0)");
 3614              		.loc 1 260 9 is_stmt 1
 260:src/kernel/riscv.cpp ****         asm("lb a1, 0(a0)");
 3615              		.loc 1 260 58 is_stmt 0
 3616              	#APP
 3617              	# 260 "src/kernel/riscv.cpp" 1
 261:src/kernel/riscv.cpp ****         asm("mv %[status], a1" : [status] "=r" (status));
 3618              		mv a0, a5
 3619              	# 0 "" 2
 3620              		.loc 1 261 9 is_stmt 1
 261:src/kernel/riscv.cpp ****         asm("mv %[status], a1" : [status] "=r" (status));
 3621              		.loc 1 261 28 is_stmt 0
 3622              	# 261 "src/kernel/riscv.cpp" 1
 262:src/kernel/riscv.cpp **** 
 3623              		lb a1, 0(a0)
 3624              	# 0 "" 2
 3625              		.loc 1 262 9 is_stmt 1
 262:src/kernel/riscv.cpp **** 
 3626              		.loc 1 262 57 is_stmt 0
 3627              	# 262 "src/kernel/riscv.cpp" 1
 3628              		mv a5, a1
 3629              	# 0 "" 2
 3630              	.LVL308:
 265:src/kernel/riscv.cpp ****         {
 3631              		.loc 1 265 9 is_stmt 1
 3632              	#NO_APP
 3633              	.LBB165:
 265:src/kernel/riscv.cpp ****         {
 3634              		.loc 1 265 19 is_stmt 0
 3635 1274 93F71700 		andi	a5,a5,1
 3636              	.LVL309:
 265:src/kernel/riscv.cpp ****         {
GAS LISTING /tmp/ccAbMSjc.s 			page 96


 3637              		.loc 1 265 9
 3638 1278 63880702 		beqz	a5,.L171
 3639              	.LBB166:
 268:src/kernel/riscv.cpp ****             char c;
 3640              		.loc 1 268 13 is_stmt 1
 269:src/kernel/riscv.cpp ****             data = CONSOLE_TX_DATA;
 3641              		.loc 1 269 13
 270:src/kernel/riscv.cpp ****             asm("mv a0, %[data]" : : [data] "r" (data));
 3642              		.loc 1 270 13
 270:src/kernel/riscv.cpp ****             asm("mv a0, %[data]" : : [data] "r" (data));
 3643              		.loc 1 270 18 is_stmt 0
 3644 127c 97070000 		la	a5,CONSOLE_TX_DATA
 3644      83B70700 
 3645 1284 83B70700 		ld	a5,0(a5)
 3646              	.LVL310:
 271:src/kernel/riscv.cpp ****             asm("lb a1, 0(a0)");
 3647              		.loc 1 271 13 is_stmt 1
 271:src/kernel/riscv.cpp ****             asm("lb a1, 0(a0)");
 3648              		.loc 1 271 56 is_stmt 0
 3649              	#APP
 3650              	# 271 "src/kernel/riscv.cpp" 1
 272:src/kernel/riscv.cpp ****             asm("mv %[c], a1" : [c] "=r" (c));
 3651              		mv a0, a5
 3652              	# 0 "" 2
 3653              		.loc 1 272 13 is_stmt 1
 272:src/kernel/riscv.cpp ****             asm("mv %[c], a1" : [c] "=r" (c));
 3654              		.loc 1 272 32 is_stmt 0
 3655              	# 272 "src/kernel/riscv.cpp" 1
 273:src/kernel/riscv.cpp **** 
 3656              		lb a1, 0(a0)
 3657              	# 0 "" 2
 3658              		.loc 1 273 13 is_stmt 1
 273:src/kernel/riscv.cpp **** 
 3659              		.loc 1 273 46 is_stmt 0
 3660              	# 273 "src/kernel/riscv.cpp" 1
 3661              		mv a0, a1
 3662              	# 0 "" 2
 3663              	#NO_APP
 3664 1294 1375F50F 		andi	a0,a0,0xff
 3665              	.LVL311:
 276:src/kernel/riscv.cpp ****                 ConsoleUtil::pendingGetc--;
 3666              		.loc 1 276 13 is_stmt 1
 276:src/kernel/riscv.cpp ****                 ConsoleUtil::pendingGetc--;
 3667              		.loc 1 276 40 is_stmt 0
 3668 1298 97070000 		la	a5,_ZN11ConsoleUtil11pendingGetcE
 3668      83B70700 
 3669              	.LVL312:
 3670 12a0 83B70700 		ld	a5,0(a5)
 276:src/kernel/riscv.cpp ****                 ConsoleUtil::pendingGetc--;
 3671              		.loc 1 276 13
 3672 12a4 63940702 		bnez	a5,.L179
 3673              	.LVL313:
 3674              	.L171:
 3675              	.LBE166:
 3676              	.LBE165:
 281:src/kernel/riscv.cpp **** 
 3677              		.loc 1 281 9 is_stmt 1
GAS LISTING /tmp/ccAbMSjc.s 			page 97


 281:src/kernel/riscv.cpp **** 
 3678              		.loc 1 281 22 is_stmt 0
 3679 12a8 97000000 		call	plic_claim@plt
 3679      E7800000 
 3680              	.LVL314:
 3681 12b0 97000000 		call	plic_complete@plt
 3681      E7800000 
 3682              	.LVL315:
 283:src/kernel/riscv.cpp ****         RiscV::w_sepc(sepc);
 3683              		.loc 1 283 9 is_stmt 1
 283:src/kernel/riscv.cpp ****         RiscV::w_sepc(sepc);
 3684              		.loc 1 283 25 is_stmt 0
 3685 12b8 833784FB 		ld	a5,-72(s0)
 3686              	.LVL316:
 3687              	.LBB168:
 3688              	.LBB169:
 171:src/kernel/../../h/riscv.hpp **** }
 3689              		.loc 2 171 5 is_stmt 1
 171:src/kernel/../../h/riscv.hpp **** }
 3690              		.loc 2 171 64 is_stmt 0
 3691              	#APP
 3692              	# 171 "src/kernel/../../h/riscv.hpp" 1
 3693              		csrw sstatus, a5
 3694              	# 0 "" 2
 3695              	.LVL317:
 3696              	#NO_APP
 3697              	.LBE169:
 3698              	.LBE168:
 284:src/kernel/riscv.cpp ****     }
 3699              		.loc 1 284 9 is_stmt 1
 284:src/kernel/riscv.cpp ****     }
 3700              		.loc 1 284 22 is_stmt 0
 3701 12c0 833704FC 		ld	a5,-64(s0)
 3702              	.LVL318:
 3703              	.LBB170:
 3704              	.LBB171:
 161:src/kernel/../../h/riscv.hpp **** }
 3705              		.loc 2 161 5 is_stmt 1
 161:src/kernel/../../h/riscv.hpp **** }
 3706              		.loc 2 161 52 is_stmt 0
 3707              	#APP
 3708              	# 161 "src/kernel/../../h/riscv.hpp" 1
 162:src/kernel/../../h/riscv.hpp **** 
 3709              		csrw sepc, a5
 3710              	# 0 "" 2
 3711              		.loc 2 162 1
 3712              	#NO_APP
 3713 12c8 6FF05FDF 		j	.L168
 3714              	.LVL319:
 3715              	.L179:
 3716              	.LBE171:
 3717              	.LBE170:
 3718              	.LBB172:
 3719              	.LBB167:
 277:src/kernel/riscv.cpp ****                 ConsoleUtil::putInput(c);
 3720              		.loc 1 277 17 is_stmt 1
 277:src/kernel/riscv.cpp ****                 ConsoleUtil::putInput(c);
GAS LISTING /tmp/ccAbMSjc.s 			page 98


 3721              		.loc 1 277 41 is_stmt 0
 3722 12cc 9387F7FF 		addi	a5,a5,-1
 3723 12d0 17070000 		la	a4,_ZN11ConsoleUtil11pendingGetcE
 3723      03370700 
 3724 12d8 2330F700 		sd	a5,0(a4)
 278:src/kernel/riscv.cpp ****             }
 3725              		.loc 1 278 17 is_stmt 1
 278:src/kernel/riscv.cpp ****             }
 3726              		.loc 1 278 38 is_stmt 0
 3727 12dc 97000000 		call	_ZN11ConsoleUtil8putInputEc@plt
 3727      E7800000 
 3728              	.LVL320:
 3729 12e4 6FF05FFC 		j	.L171
 3730              	.LVL321:
 3731              	.L177:
 3732              	.LBE167:
 3733              	.LBE172:
 3734              	.LBE160:
 3735              	.LBB173:
 3736              	.LBB157:
 289:src/kernel/riscv.cpp ****         old->status = TCB::Status::FINISHED;
 3737              		.loc 1 289 9 is_stmt 1
 289:src/kernel/riscv.cpp ****         old->status = TCB::Status::FINISHED;
 3738              		.loc 1 289 14 is_stmt 0
 3739 12e8 97070000 		la	a5,_ZN3TCB7runningE
 3739      83B70700 
 3740 12f0 83B70700 		ld	a5,0(a5)
 3741              	.LVL322:
 290:src/kernel/riscv.cpp ****         ConsoleUtil::printString("sepc: ");
 3742              		.loc 1 290 9 is_stmt 1
 290:src/kernel/riscv.cpp ****         ConsoleUtil::printString("sepc: ");
 3743              		.loc 1 290 21 is_stmt 0
 3744 12f4 13072000 		li	a4,2
 3745 12f8 23A8E700 		sw	a4,16(a5)
 291:src/kernel/riscv.cpp ****         uint64 sepc = RiscV::r_sepc();
 3746              		.loc 1 291 9 is_stmt 1
 291:src/kernel/riscv.cpp ****         uint64 sepc = RiscV::r_sepc();
 3747              		.loc 1 291 33 is_stmt 0
 3748 12fc 17050000 		lla	a0,.LC0
 3748      13050500 
 3749 1304 97000000 		call	_ZN11ConsoleUtil11printStringEPKc@plt
 3749      E7800000 
 3750              	.LVL323:
 292:src/kernel/riscv.cpp ****         ConsoleUtil::printInt(sepc,16);
 3751              		.loc 1 292 9 is_stmt 1
 3752              	.LBB158:
 3753              	.LBB159:
 155:src/kernel/../../h/riscv.hpp ****     asm("csrr %[sepc], sepc" : [sepc] "=r" (sepc));
 3754              		.loc 2 155 5
 156:src/kernel/../../h/riscv.hpp ****     return sepc;
 3755              		.loc 2 156 5
 156:src/kernel/../../h/riscv.hpp ****     return sepc;
 3756              		.loc 2 156 51 is_stmt 0
 3757              	#APP
 3758              	# 156 "src/kernel/../../h/riscv.hpp" 1
 157:src/kernel/../../h/riscv.hpp **** }
 3759              		csrr a0, sepc
GAS LISTING /tmp/ccAbMSjc.s 			page 99


 3760              	# 0 "" 2
 3761              		.loc 2 157 5 is_stmt 1
 3762              	#NO_APP
 3763              	.LBE159:
 3764              	.LBE158:
 293:src/kernel/riscv.cpp ****         ConsoleUtil::printString("\n");
 3765              		.loc 1 293 9
 293:src/kernel/riscv.cpp ****         ConsoleUtil::printString("\n");
 3766              		.loc 1 293 30 is_stmt 0
 3767 1310 13060000 		li	a2,0
 3768 1314 93050001 		li	a1,16
 3769 1318 1B050500 		sext.w	a0,a0
 3770 131c 97000000 		call	_ZN11ConsoleUtil8printIntEiii@plt
 3770      E7800000 
 3771              	.LVL324:
 294:src/kernel/riscv.cpp ****         ConsoleUtil::printString("Illegal instruction\nExiting thread...\n");
 3772              		.loc 1 294 9 is_stmt 1
 294:src/kernel/riscv.cpp ****         ConsoleUtil::printString("Illegal instruction\nExiting thread...\n");
 3773              		.loc 1 294 33 is_stmt 0
 3774 1324 17050000 		lla	a0,.LC1
 3774      13050500 
 3775 132c 97000000 		call	_ZN11ConsoleUtil11printStringEPKc@plt
 3775      E7800000 
 3776              	.LVL325:
 295:src/kernel/riscv.cpp ****         TCB::dispatch();
 3777              		.loc 1 295 9 is_stmt 1
 295:src/kernel/riscv.cpp ****         TCB::dispatch();
 3778              		.loc 1 295 33 is_stmt 0
 3779 1334 17050000 		lla	a0,.LC2
 3779      13050500 
 3780 133c 97000000 		call	_ZN11ConsoleUtil11printStringEPKc@plt
 3780      E7800000 
 3781              	.LVL326:
 296:src/kernel/riscv.cpp ****     }
 3782              		.loc 1 296 9 is_stmt 1
 296:src/kernel/riscv.cpp ****     }
 3783              		.loc 1 296 22 is_stmt 0
 3784 1344 97000000 		call	_ZN3TCB8dispatchEv@plt
 3784      E7800000 
 3785              	.LVL327:
 3786              	.LBE157:
 3787 134c 6FF01FD7 		j	.L168
 3788              	.LBE173:
 3789              	.LBE189:
 3790              	.LBE202:
 3791              	.LBE206:
 3792              		.cfi_endproc
 3793              	.LFE47:
 3795              		.align	2
 3796              		.globl	_ZN5RiscV16threadCreateUtilEPP3TCBPFvPvES3_
 3798              	_ZN5RiscV16threadCreateUtilEPP3TCBPFvPvES3_:
 3799              	.LFB71:
 826:src/kernel/riscv.cpp **** 
 827:src/kernel/riscv.cpp **** void RiscV::threadCreateUtil(TCB **handle, void (*start_routine)(void *), void *arg) {
 3800              		.loc 1 827 86 is_stmt 1
 3801              		.cfi_startproc
 3802              	.LVL328:
GAS LISTING /tmp/ccAbMSjc.s 			page 100


 3803 1350 130101FD 		addi	sp,sp,-48
 3804              		.cfi_def_cfa_offset 48
 3805 1354 23341102 		sd	ra,40(sp)
 3806 1358 23308102 		sd	s0,32(sp)
 3807 135c 233C9100 		sd	s1,24(sp)
 3808 1360 23382101 		sd	s2,16(sp)
 3809 1364 23343101 		sd	s3,8(sp)
 3810              		.cfi_offset 1, -8
 3811              		.cfi_offset 8, -16
 3812              		.cfi_offset 9, -24
 3813              		.cfi_offset 18, -32
 3814              		.cfi_offset 19, -40
 3815 1368 13040103 		addi	s0,sp,48
 3816              		.cfi_def_cfa 8, 0
 3817 136c 13090500 		mv	s2,a0
 3818 1370 93840500 		mv	s1,a1
 3819 1374 93090600 		mv	s3,a2
 828:src/kernel/riscv.cpp ****     uint64 ihandle = (uint64)handle;
 3820              		.loc 1 828 5
 3821              	.LVL329:
 829:src/kernel/riscv.cpp ****     uint64 iroutine = (uint64)start_routine;
 3822              		.loc 1 829 5
 830:src/kernel/riscv.cpp ****     uint64 iarg = (uint64)arg;
 3823              		.loc 1 830 5
 831:src/kernel/riscv.cpp ****     uint64 istack = 0;
 3824              		.loc 1 831 5
 832:src/kernel/riscv.cpp **** 
 833:src/kernel/riscv.cpp ****     if(start_routine) {
 3825              		.loc 1 833 5
 3826 1378 638E0500 		beqz	a1,.L183
 834:src/kernel/riscv.cpp ****         istack = (uint64) MemoryAllocator::kmalloc(DEFAULT_STACK_SIZE);
 3827              		.loc 1 834 9
 3828              		.loc 1 834 51 is_stmt 0
 3829 137c 37150000 		li	a0,4096
 3830              	.LVL330:
 3831 1380 97000000 		call	_ZN15MemoryAllocator7kmallocEm@plt
 3831      E7800000 
 3832              	.LVL331:
 835:src/kernel/riscv.cpp ****         if(istack == 0) {
 3833              		.loc 1 835 9 is_stmt 1
 3834 1388 63180500 		bnez	a0,.L181
 836:src/kernel/riscv.cpp ****             *handle = nullptr;
 3835              		.loc 1 836 13
 3836              		.loc 1 836 21 is_stmt 0
 3837 138c 23300900 		sd	zero,0(s2)
 837:src/kernel/riscv.cpp ****             return;
 3838              		.loc 1 837 13 is_stmt 1
 3839 1390 6F000002 		j	.L180
 3840              	.LVL332:
 3841              	.L183:
 831:src/kernel/riscv.cpp **** 
 3842              		.loc 1 831 12 is_stmt 0
 3843 1394 13050000 		li	a0,0
 3844              	.LVL333:
 3845              	.L181:
 838:src/kernel/riscv.cpp ****         }
 839:src/kernel/riscv.cpp ****     }
GAS LISTING /tmp/ccAbMSjc.s 			page 101


 840:src/kernel/riscv.cpp **** 
 841:src/kernel/riscv.cpp ****     asm("mv a7, %[istack]" : : [istack] "r" (istack));
 3846              		.loc 1 841 5 is_stmt 1
 3847              		.loc 1 841 54 is_stmt 0
 3848              	#APP
 3849              	# 841 "src/kernel/riscv.cpp" 1
 842              	    asm("mv a3, %[iarg]" : : [iarg] "r" (iarg));
 3850              		mv a7, a0
 3851              	# 0 "" 2
 3852              		.loc 1 842 5 is_stmt 1
 3853              		.loc 1 842 48 is_stmt 0
 3854              	# 842 "src/kernel/riscv.cpp" 1
 843              	    asm("mv a2, %[iroutine]" : : [iroutine] "r" (iroutine));
 3855              		mv a3, s3
 3856              	# 0 "" 2
 3857              		.loc 1 843 5 is_stmt 1
 3858              		.loc 1 843 60 is_stmt 0
 3859              	# 843 "src/kernel/riscv.cpp" 1
 844              	    asm("mv a1, %[ihandle]" : : [ihandle] "r" (ihandle));
 3860              		mv a2, s1
 3861              	# 0 "" 2
 3862              		.loc 1 844 5 is_stmt 1
 3863              		.loc 1 844 57 is_stmt 0
 3864              	# 844 "src/kernel/riscv.cpp" 1
 845              	    asm("li a0, 0x11");
 3865              		mv a1, s2
 3866              	# 0 "" 2
 3867              		.loc 1 845 5 is_stmt 1
 3868              		.loc 1 845 23 is_stmt 0
 3869              	# 845 "src/kernel/riscv.cpp" 1
 846              	
 847:src/kernel/riscv.cpp ****     asm("ecall");
 3870              		li a0, 0x11
 3871              	# 0 "" 2
 3872              		.loc 1 847 5 is_stmt 1
 3873              		.loc 1 847 17 is_stmt 0
 3874              	# 847 "src/kernel/riscv.cpp" 1
 848              	
 849:src/kernel/riscv.cpp ****     uint64 status;
 3875              		ecall
 3876              	# 0 "" 2
 3877              		.loc 1 849 5 is_stmt 1
 850:src/kernel/riscv.cpp **** 
 851:src/kernel/riscv.cpp ****     asm("mv %[status], a0" : [status] "=r" (status));
 3878              		.loc 1 851 5
 3879              	.LVL334:
 3880              	#NO_APP
 3881              	.L180:
 852:src/kernel/riscv.cpp **** 
 853:src/kernel/riscv.cpp **** }
 3882              		.loc 1 853 1 is_stmt 0
 3883 13b0 83308102 		ld	ra,40(sp)
 3884              		.cfi_restore 1
 3885 13b4 03340102 		ld	s0,32(sp)
 3886              		.cfi_restore 8
 3887              		.cfi_def_cfa 2, 48
 3888 13b8 83348101 		ld	s1,24(sp)
GAS LISTING /tmp/ccAbMSjc.s 			page 102


 3889              		.cfi_restore 9
 3890              	.LVL335:
 3891 13bc 03390101 		ld	s2,16(sp)
 3892              		.cfi_restore 18
 3893              	.LVL336:
 3894 13c0 83398100 		ld	s3,8(sp)
 3895              		.cfi_restore 19
 3896              	.LVL337:
 3897 13c4 13010103 		addi	sp,sp,48
 3898              		.cfi_def_cfa_offset 0
 3899 13c8 67800000 		jr	ra
 3900              		.cfi_endproc
 3901              	.LFE71:
 3903              		.align	2
 3904              		.globl	_ZN5RiscV14threadExitUtilEv
 3906              	_ZN5RiscV14threadExitUtilEv:
 3907              	.LFB72:
 854:src/kernel/riscv.cpp **** 
 855:src/kernel/riscv.cpp **** void RiscV::threadExitUtil() {
 3908              		.loc 1 855 30 is_stmt 1
 3909              		.cfi_startproc
 3910 13cc 130101FF 		addi	sp,sp,-16
 3911              		.cfi_def_cfa_offset 16
 3912 13d0 23348100 		sd	s0,8(sp)
 3913              		.cfi_offset 8, -8
 3914 13d4 13040101 		addi	s0,sp,16
 3915              		.cfi_def_cfa 8, 0
 856:src/kernel/riscv.cpp ****     asm("li a0, 0x12");
 3916              		.loc 1 856 5
 3917              		.loc 1 856 23 is_stmt 0
 3918              	#APP
 3919              	# 856 "src/kernel/riscv.cpp" 1
 857              	
 858:src/kernel/riscv.cpp ****     asm("ecall");
 3920              		li a0, 0x12
 3921              	# 0 "" 2
 3922              		.loc 1 858 5 is_stmt 1
 3923              		.loc 1 858 17 is_stmt 0
 3924              	# 858 "src/kernel/riscv.cpp" 1
 859              	
 860:src/kernel/riscv.cpp ****     uint64 status;
 3925              		ecall
 3926              	# 0 "" 2
 3927              		.loc 1 860 5 is_stmt 1
 861:src/kernel/riscv.cpp **** 
 862:src/kernel/riscv.cpp ****     asm("mv %[status], a0" : [status] "=r" (status));
 3928              		.loc 1 862 5
 3929              	.LVL338:
 863:src/kernel/riscv.cpp **** }
 3930              		.loc 1 863 1 is_stmt 0
 3931              	#NO_APP
 3932 13e0 03348100 		ld	s0,8(sp)
 3933              		.cfi_restore 8
 3934              		.cfi_def_cfa 2, 16
 3935 13e4 13010101 		addi	sp,sp,16
 3936              		.cfi_def_cfa_offset 0
 3937 13e8 67800000 		jr	ra
GAS LISTING /tmp/ccAbMSjc.s 			page 103


 3938              		.cfi_endproc
 3939              	.LFE72:
 3941              		.globl	_ZN5RiscV4uPMTE
 3942              		.globl	_ZN5RiscV4kPMTE
 3943              		.globl	_ZN5RiscV16userMainFinishedE
 3944              		.globl	_ZN5RiscV10globalTimeE
 3945              		.bss
 3946              		.align	3
 3947              		.set	.LANCHOR0,. + 0
 3950              	_ZN5RiscV4kPMTE:
 3951 0000 00000000 		.zero	8
 3951      00000000 
 3954              	_ZN5RiscV16userMainFinishedE:
 3955 0008 00       		.zero	1
 3956 0009 00000000 		.zero	7
 3956      000000
 3959              	_ZN5RiscV10globalTimeE:
 3960 0010 00000000 		.zero	8
 3960      00000000 
 3963              	_ZN5RiscV4uPMTE:
 3964 0018 00000000 		.zero	8
 3964      00000000 
 3965              		.text
 3966              	.Letext0:
 3967              		.file 3 "src/kernel/../../h/../lib/hw.h"
 3968              		.file 4 "src/kernel/../../h/tcb.hpp"
 3969              		.file 5 "src/kernel/../../h/../h/utility.hpp"
 3970              		.file 6 "src/kernel/../../h/memoryAllocator.hpp"
 3971              		.file 7 "src/kernel/../../h/../h/../h/../h/buddyAllocator.hpp"
 3972              		.file 8 "src/kernel/../../h/../h/../h/../h/consoleUtil.hpp"
 3973              		.file 9 "src/kernel/../../h/scb.hpp"
 3974              		.file 10 "src/kernel/../../h/../h/../h/../h/../h/slab_t.hpp"
 3975              		.file 11 "src/kernel/../../h/../h/../h/../h/cache_t.hpp"
 3976              		.file 12 "src/kernel/../../h/scheduler.hpp"
 3977              		.file 13 "src/kernel/../../h/../h/slab.hpp"
 12125              		.align	3
 12128              	DW.ref.__gxx_personality_v0:
 12129 0000 00000000 		.dword	__gxx_personality_v0
 12129      00000000 
 12130              		.ident	"GCC: (Ubuntu 9.4.0-1ubuntu1~20.04) 9.4.0"
 12131              		.section	.note.GNU-stack,"",@progbits
GAS LISTING /tmp/ccAbMSjc.s 			page 104


DEFINED SYMBOLS
                            *ABS*:0000000000000000 riscv.cpp
     /tmp/ccAbMSjc.s:9      .text:0000000000000000 _ZN5RiscV6getPMTEv
     /tmp/ccAbMSjc.s:13     .text:0000000000000000 .L0 
     /tmp/ccAbMSjc.s:14     .text:0000000000000000 .L0 
     /tmp/ccAbMSjc.s:15     .text:0000000000000004 .L0 
     /tmp/ccAbMSjc.s:18     .text:000000000000000c .L0 
     /tmp/ccAbMSjc.s:19     .text:000000000000000c .L0 
     /tmp/ccAbMSjc.s:21     .text:0000000000000010 .L0 
     /tmp/ccAbMSjc.s:23     .text:0000000000000010 .L0 
     /tmp/ccAbMSjc.s:24     .text:0000000000000010 .L0 
     /tmp/ccAbMSjc.s:28     .text:000000000000001c .L0 
     /tmp/ccAbMSjc.s:30     .text:000000000000001c .L0 
     /tmp/ccAbMSjc.s:31     .text:000000000000001c .L0 
     /tmp/ccAbMSjc.s:35     .text:0000000000000020 .L0 
     /tmp/ccAbMSjc.s:38     .text:0000000000000028 .L0 
     /tmp/ccAbMSjc.s:39     .text:0000000000000028 .L0 
     /tmp/ccAbMSjc.s:42     .text:0000000000000030 .L0 
     /tmp/ccAbMSjc.s:44     .text:0000000000000034 .L0 
     /tmp/ccAbMSjc.s:51     .text:000000000000003c .L0 
     /tmp/ccAbMSjc.s:52     .text:0000000000000040 .L0 
     /tmp/ccAbMSjc.s:54     .text:0000000000000044 .L0 
     /tmp/ccAbMSjc.s:55     .text:0000000000000044 .L0 
     /tmp/ccAbMSjc.s:57     .text:0000000000000048 .L0 
     /tmp/ccAbMSjc.s:59     .text:000000000000004c .L0 
     /tmp/ccAbMSjc.s:65     .text:000000000000004c _ZN5RiscV15handlePageFaultEPvmm
     /tmp/ccAbMSjc.s:68     .text:000000000000004c .L0 
     /tmp/ccAbMSjc.s:70     .text:000000000000004c .L0 
     /tmp/ccAbMSjc.s:71     .text:0000000000000050 .L0 
     /tmp/ccAbMSjc.s:79     .text:000000000000006c .L0 
     /tmp/ccAbMSjc.s:80     .text:000000000000006c .L0 
     /tmp/ccAbMSjc.s:81     .text:000000000000006c .L0 
     /tmp/ccAbMSjc.s:82     .text:000000000000006c .L0 
     /tmp/ccAbMSjc.s:83     .text:000000000000006c .L0 
     /tmp/ccAbMSjc.s:84     .text:000000000000006c .L0 
     /tmp/ccAbMSjc.s:85     .text:000000000000006c .L0 
     /tmp/ccAbMSjc.s:87     .text:0000000000000070 .L0 
     /tmp/ccAbMSjc.s:90     .text:0000000000000074 .L0 
     /tmp/ccAbMSjc.s:91     .text:0000000000000074 .L0 
     /tmp/ccAbMSjc.s:93     .text:0000000000000078 .L0 
     /tmp/ccAbMSjc.s:96     .text:000000000000007c .L0 
     /tmp/ccAbMSjc.s:97     .text:000000000000007c .L0 
     /tmp/ccAbMSjc.s:98     .text:000000000000007c .L0 
     /tmp/ccAbMSjc.s:100    .text:0000000000000080 .L0 
     /tmp/ccAbMSjc.s:103    .text:0000000000000084 .L0 
     /tmp/ccAbMSjc.s:104    .text:0000000000000084 .L0 
     /tmp/ccAbMSjc.s:106    .text:0000000000000088 .L0 
     /tmp/ccAbMSjc.s:109    .text:000000000000008c .L0 
     /tmp/ccAbMSjc.s:110    .text:000000000000008c .L0 
     /tmp/ccAbMSjc.s:114    .text:0000000000000094 .L0 
     /tmp/ccAbMSjc.s:117    .text:0000000000000098 .L0 
     /tmp/ccAbMSjc.s:118    .text:0000000000000098 .L0 
     /tmp/ccAbMSjc.s:120    .text:000000000000009c .L0 
     /tmp/ccAbMSjc.s:121    .text:000000000000009c .L0 
     /tmp/ccAbMSjc.s:124    .text:00000000000000a0 .L0 
     /tmp/ccAbMSjc.s:128    .text:00000000000000a4 .L0 
     /tmp/ccAbMSjc.s:129    .text:00000000000000a4 .L0 
GAS LISTING /tmp/ccAbMSjc.s 			page 105


     /tmp/ccAbMSjc.s:133    .text:00000000000000ac .L0 
     /tmp/ccAbMSjc.s:136    .text:00000000000000b0 .L0 
     /tmp/ccAbMSjc.s:137    .text:00000000000000b0 .L0 
     /tmp/ccAbMSjc.s:139    .text:00000000000000b4 .L0 
     /tmp/ccAbMSjc.s:140    .text:00000000000000b4 .L0 
     /tmp/ccAbMSjc.s:143    .text:00000000000000b8 .L0 
     /tmp/ccAbMSjc.s:147    .text:00000000000000bc .L0 
     /tmp/ccAbMSjc.s:148    .text:00000000000000bc .L0 
     /tmp/ccAbMSjc.s:153    .text:00000000000000c4 .L0 
     /tmp/ccAbMSjc.s:156    .text:00000000000000c8 .L0 
     /tmp/ccAbMSjc.s:158    .text:00000000000000cc .L0 
     /tmp/ccAbMSjc.s:159    .text:00000000000000cc .L0 
     /tmp/ccAbMSjc.s:162    .text:00000000000000d0 .L0 
     /tmp/ccAbMSjc.s:165    .text:00000000000000d4 .L0 
     /tmp/ccAbMSjc.s:168    .text:00000000000000d8 .L0 
     /tmp/ccAbMSjc.s:169    .text:00000000000000dc .L0 
     /tmp/ccAbMSjc.s:170    .text:00000000000000dc .L0 
     /tmp/ccAbMSjc.s:172    .text:00000000000000e0 .L0 
     /tmp/ccAbMSjc.s:173    .text:00000000000000e0 .L0 
     /tmp/ccAbMSjc.s:175    .text:00000000000000e4 .L0 
     /tmp/ccAbMSjc.s:177    .text:00000000000000e8 .L0 
     /tmp/ccAbMSjc.s:179    .text:00000000000000ec .L0 
     /tmp/ccAbMSjc.s:181    .text:00000000000000f0 .L0 
     /tmp/ccAbMSjc.s:183    .text:00000000000000f4 .L0 
     /tmp/ccAbMSjc.s:185    .text:00000000000000f8 .L0 
     /tmp/ccAbMSjc.s:189    .text:00000000000000fc .L0 
     /tmp/ccAbMSjc.s:191    .text:00000000000000fc .L0 
     /tmp/ccAbMSjc.s:192    .text:00000000000000fc .L0 
     /tmp/ccAbMSjc.s:195    .text:0000000000000104 .L0 
     /tmp/ccAbMSjc.s:196    .text:0000000000000104 .L0 
     /tmp/ccAbMSjc.s:198    .text:0000000000000108 .L0 
     /tmp/ccAbMSjc.s:200    .text:000000000000010c .L0 
     /tmp/ccAbMSjc.s:202    .text:0000000000000110 .L0 
     /tmp/ccAbMSjc.s:207    .text:0000000000000118 .L0 
     /tmp/ccAbMSjc.s:208    .text:0000000000000118 .L0 
     /tmp/ccAbMSjc.s:211    .text:0000000000000120 .L0 
     /tmp/ccAbMSjc.s:212    .text:0000000000000120 .L0 
     /tmp/ccAbMSjc.s:214    .text:0000000000000124 .L0 
     /tmp/ccAbMSjc.s:216    .text:0000000000000128 .L0 
     /tmp/ccAbMSjc.s:218    .text:000000000000012c .L0 
     /tmp/ccAbMSjc.s:220    .text:0000000000000134 .L0 
     /tmp/ccAbMSjc.s:226    .text:0000000000000134 _ZN5RiscV10initializeEv
     /tmp/ccAbMSjc.s:229    .text:0000000000000134 .L0 
     /tmp/ccAbMSjc.s:230    .text:0000000000000134 .L0 
     /tmp/ccAbMSjc.s:231    .text:0000000000000138 .L0 
     /tmp/ccAbMSjc.s:242    .text:0000000000000160 .L0 
     /tmp/ccAbMSjc.s:243    .text:0000000000000160 .L0 
     /tmp/ccAbMSjc.s:244    .text:0000000000000160 .L0 
     /tmp/ccAbMSjc.s:245    .text:0000000000000160 .L0 
     /tmp/ccAbMSjc.s:246    .text:0000000000000160 .L0 
     /tmp/ccAbMSjc.s:247    .text:0000000000000160 .L0 
     /tmp/ccAbMSjc.s:248    .text:0000000000000160 .L0 
     /tmp/ccAbMSjc.s:249    .text:0000000000000160 .L0 
     /tmp/ccAbMSjc.s:250    .text:0000000000000160 .L0 
     /tmp/ccAbMSjc.s:251    .text:0000000000000160 .L0 
     /tmp/ccAbMSjc.s:253    .text:0000000000000164 .L0 
     /tmp/ccAbMSjc.s:255    .text:0000000000000164 .L0 
GAS LISTING /tmp/ccAbMSjc.s 			page 106


     /tmp/ccAbMSjc.s:256    .text:0000000000000164 .L0 
     /tmp/ccAbMSjc.s:262    .text:000000000000016c .L0 
src/kernel/../../h/riscv.hpp:181    .text:000000000000016c .L0 
     /tmp/ccAbMSjc.s:272    .text:0000000000000170 .L0 
     /tmp/ccAbMSjc.s:273    .text:0000000000000170 .L0 
     /tmp/ccAbMSjc.s:278    .text:0000000000000184 .L0 
     /tmp/ccAbMSjc.s:283    .text:0000000000000194 .L0 
     /tmp/ccAbMSjc.s:284    .text:0000000000000194 .L0 
     /tmp/ccAbMSjc.s:287    .text:000000000000019c .L0 
     /tmp/ccAbMSjc.s:288    .text:000000000000019c .L0 
     /tmp/ccAbMSjc.s:291    .text:00000000000001a4 .L0 
     /tmp/ccAbMSjc.s:292    .text:00000000000001a4 .L0 
     /tmp/ccAbMSjc.s:295    .text:00000000000001ac .L0 
     /tmp/ccAbMSjc.s:296    .text:00000000000001ac .L0 
     /tmp/ccAbMSjc.s:299    .text:00000000000001b4 .L0 
     /tmp/ccAbMSjc.s:300    .text:00000000000001b4 .L0 
     /tmp/ccAbMSjc.s:303    .text:00000000000001bc .L0 
     /tmp/ccAbMSjc.s:304    .text:00000000000001bc .L0 
     /tmp/ccAbMSjc.s:307    .text:00000000000001c4 .L0 
     /tmp/ccAbMSjc.s:309    .text:00000000000001cc .L0 
     /tmp/ccAbMSjc.s:310    .text:00000000000001cc .L0 
     /tmp/ccAbMSjc.s:313    .text:00000000000001d4 .L0 
     /tmp/ccAbMSjc.s:314    .text:00000000000001d4 .L0 
     /tmp/ccAbMSjc.s:317    .text:00000000000001dc .L0 
     /tmp/ccAbMSjc.s:318    .text:00000000000001dc .L0 
     /tmp/ccAbMSjc.s:321    .text:00000000000001e4 .L0 
     /tmp/ccAbMSjc.s:322    .text:00000000000001e4 .L0 
     /tmp/ccAbMSjc.s:325    .text:00000000000001ec .L0 
     /tmp/ccAbMSjc.s:326    .text:00000000000001ec .L0 
     /tmp/ccAbMSjc.s:329    .text:00000000000001f0 .L0 
     /tmp/ccAbMSjc.s:330    .text:00000000000001f0 .L0 
     /tmp/ccAbMSjc.s:334    .text:00000000000001fc .L0 
     /tmp/ccAbMSjc.s:335    .text:00000000000001fc .L0 
     /tmp/ccAbMSjc.s:339    .text:000000000000020c .L0 
     /tmp/ccAbMSjc.s:342    .text:0000000000000218 .L0 
     /tmp/ccAbMSjc.s:346    .text:000000000000021c .L0 
     /tmp/ccAbMSjc.s:347    .text:000000000000021c .L0 
     /tmp/ccAbMSjc.s:352    .text:0000000000000224 .L0 
     /tmp/ccAbMSjc.s:354    .text:0000000000000228 .L0 
     /tmp/ccAbMSjc.s:355    .text:0000000000000228 .L0 
     /tmp/ccAbMSjc.s:361    .text:0000000000000240 .L0 
     /tmp/ccAbMSjc.s:362    .text:0000000000000240 .L0 
     /tmp/ccAbMSjc.s:366    .text:0000000000000248 .L0 
     /tmp/ccAbMSjc.s:372    .text:000000000000024c .L0 
     /tmp/ccAbMSjc.s:374    .text:0000000000000250 .L0 
     /tmp/ccAbMSjc.s:375    .text:0000000000000250 .L0 
     /tmp/ccAbMSjc.s:381    .text:0000000000000268 .L0 
     /tmp/ccAbMSjc.s:382    .text:0000000000000268 .L0 
     /tmp/ccAbMSjc.s:386    .text:0000000000000270 .L0 
     /tmp/ccAbMSjc.s:392    .text:0000000000000274 .L0 
     /tmp/ccAbMSjc.s:394    .text:0000000000000278 .L0 
     /tmp/ccAbMSjc.s:395    .text:0000000000000278 .L0 
     /tmp/ccAbMSjc.s:401    .text:0000000000000290 .L0 
     /tmp/ccAbMSjc.s:402    .text:0000000000000290 .L0 
     /tmp/ccAbMSjc.s:406    .text:0000000000000298 .L0 
     /tmp/ccAbMSjc.s:412    .text:000000000000029c .L0 
     /tmp/ccAbMSjc.s:414    .text:00000000000002a0 .L0 
GAS LISTING /tmp/ccAbMSjc.s 			page 107


     /tmp/ccAbMSjc.s:415    .text:00000000000002a0 .L0 
     /tmp/ccAbMSjc.s:421    .text:00000000000002b8 .L0 
     /tmp/ccAbMSjc.s:429    .text:00000000000002c0 .L0 
     /tmp/ccAbMSjc.s:431    .text:00000000000002c4 .L0 
     /tmp/ccAbMSjc.s:432    .text:00000000000002c4 .L0 
     /tmp/ccAbMSjc.s:438    .text:00000000000002dc .L0 
     /tmp/ccAbMSjc.s:439    .text:00000000000002dc .L0 
     /tmp/ccAbMSjc.s:443    .text:00000000000002e4 .L0 
     /tmp/ccAbMSjc.s:449    .text:00000000000002e8 .L0 
     /tmp/ccAbMSjc.s:451    .text:00000000000002ec .L0 
     /tmp/ccAbMSjc.s:452    .text:00000000000002ec .L0 
     /tmp/ccAbMSjc.s:458    .text:0000000000000304 .L0 
     /tmp/ccAbMSjc.s:459    .text:0000000000000304 .L0 
     /tmp/ccAbMSjc.s:463    .text:000000000000030c .L0 
     /tmp/ccAbMSjc.s:469    .text:0000000000000310 .L0 
     /tmp/ccAbMSjc.s:470    .text:0000000000000310 .L0 
     /tmp/ccAbMSjc.s:476    .text:0000000000000328 .L0 
     /tmp/ccAbMSjc.s:477    .text:0000000000000328 .L0 
     /tmp/ccAbMSjc.s:482    .text:0000000000000330 .L0 
     /tmp/ccAbMSjc.s:488    .text:0000000000000334 .L0 
     /tmp/ccAbMSjc.s:489    .text:0000000000000334 .L0 
     /tmp/ccAbMSjc.s:490    .text:0000000000000334 .L0 
     /tmp/ccAbMSjc.s:500    .text:000000000000033c .L0 
     /tmp/ccAbMSjc.s:501    .text:000000000000033c .L0 
     /tmp/ccAbMSjc.s:510    .text:0000000000000360 .L0 
     /tmp/ccAbMSjc.s:511    .text:0000000000000360 .L0 
     /tmp/ccAbMSjc.s:518    .text:000000000000037c .L0 
     /tmp/ccAbMSjc.s:519    .text:000000000000037c .L0 
     /tmp/ccAbMSjc.s:526    .text:0000000000000398 .L0 
     /tmp/ccAbMSjc.s:527    .text:0000000000000398 .L0 
     /tmp/ccAbMSjc.s:534    .text:00000000000003b0 .L0 
     /tmp/ccAbMSjc.s:535    .text:00000000000003b0 .L0 
     /tmp/ccAbMSjc.s:538    .text:00000000000003b8 .L0 
     /tmp/ccAbMSjc.s:543    .text:00000000000003c4 .L0 
src/kernel/riscv.cpp:119    .text:00000000000003c4 .L0 
     /tmp/ccAbMSjc.s:549    .text:00000000000003c8 .L0 
     /tmp/ccAbMSjc.s:555    .text:00000000000003c8 .L0 
     /tmp/ccAbMSjc.s:556    .text:00000000000003c8 .L0 
     /tmp/ccAbMSjc.s:557    .text:00000000000003c8 .L0 
     /tmp/ccAbMSjc.s:572    .text:00000000000003d0 .L0 
     /tmp/ccAbMSjc.s:573    .text:00000000000003d0 .L0 
     /tmp/ccAbMSjc.s:574    .text:00000000000003d0 .L0 
     /tmp/ccAbMSjc.s:589    .text:00000000000003d8 .L0 
     /tmp/ccAbMSjc.s:590    .text:00000000000003d8 .L0 
src/kernel/../../h/riscv.hpp:185    .text:00000000000003d8 .L0 
     /tmp/ccAbMSjc.s:601    .text:00000000000003dc .L0 
     /tmp/ccAbMSjc.s:602    .text:00000000000003e0 .L0 
     /tmp/ccAbMSjc.s:604    .text:00000000000003e4 .L0 
     /tmp/ccAbMSjc.s:605    .text:00000000000003e4 .L0 
     /tmp/ccAbMSjc.s:607    .text:00000000000003e8 .L0 
     /tmp/ccAbMSjc.s:609    .text:00000000000003ec .L0 
     /tmp/ccAbMSjc.s:612    .text:00000000000003f0 .L0 
     /tmp/ccAbMSjc.s:615    .text:00000000000003f4 .L0 
     /tmp/ccAbMSjc.s:618    .text:00000000000003f8 .L0 
     /tmp/ccAbMSjc.s:621    .text:00000000000003fc .L0 
     /tmp/ccAbMSjc.s:624    .text:0000000000000400 .L0 
     /tmp/ccAbMSjc.s:627    .text:0000000000000404 .L0 
GAS LISTING /tmp/ccAbMSjc.s 			page 108


     /tmp/ccAbMSjc.s:630    .text:0000000000000408 .L0 
     /tmp/ccAbMSjc.s:632    .text:000000000000040c .L0 
     /tmp/ccAbMSjc.s:638    .text:000000000000040c _ZN5RiscV10popSppSpieEv
     /tmp/ccAbMSjc.s:641    .text:000000000000040c .L0 
     /tmp/ccAbMSjc.s:642    .text:000000000000040c .L0 
     /tmp/ccAbMSjc.s:643    .text:0000000000000410 .L0 
     /tmp/ccAbMSjc.s:645    .text:0000000000000414 .L0 
     /tmp/ccAbMSjc.s:647    .text:0000000000000418 .L0 
     /tmp/ccAbMSjc.s:650    .text:0000000000000418 .L0 
     /tmp/ccAbMSjc.s:651    .text:0000000000000418 .L0 
     /tmp/ccAbMSjc.s:652    .text:0000000000000418 .L0 
     /tmp/ccAbMSjc.s:656    .text:0000000000000428 .L0 
     /tmp/ccAbMSjc.s:660    .text:0000000000000430 .L0 
     /tmp/ccAbMSjc.s:661    .text:0000000000000430 .L0 
     /tmp/ccAbMSjc.s:662    .text:0000000000000430 .L0 
src/kernel/riscv.cpp:133    .text:0000000000000434 .L0 
     /tmp/ccAbMSjc.s:669    .text:0000000000000438 .L0 
     /tmp/ccAbMSjc.s:671    .text:0000000000000438 .L0 
src/kernel/riscv.cpp:134    .text:000000000000043c .L0 
     /tmp/ccAbMSjc.s:678    .text:0000000000000440 .L0 
     /tmp/ccAbMSjc.s:680    .text:0000000000000440 .L0 
     /tmp/ccAbMSjc.s:689    .text:000000000000044c .L0 
src/kernel/riscv.cpp:137    .text:000000000000044c .L0 
     /tmp/ccAbMSjc.s:696    .text:0000000000000450 .L0 
     /tmp/ccAbMSjc.s:697    .text:0000000000000454 .L0 
     /tmp/ccAbMSjc.s:698    .text:0000000000000454 .L0 
     /tmp/ccAbMSjc.s:699    .text:0000000000000454 .L0 
     /tmp/ccAbMSjc.s:701    .text:0000000000000458 .L0 
     /tmp/ccAbMSjc.s:705    .text:000000000000045c .L0 
     /tmp/ccAbMSjc.s:707    .text:000000000000045c .L0 
src/kernel/riscv.cpp:129    .text:000000000000045c .L0 
     /tmp/ccAbMSjc.s:714    .text:0000000000000464 .L0 
     /tmp/ccAbMSjc.s:720    .text:0000000000000464 _ZN5RiscV11popSppSpie2Ev
     /tmp/ccAbMSjc.s:723    .text:0000000000000464 .L0 
     /tmp/ccAbMSjc.s:724    .text:0000000000000464 .L0 
     /tmp/ccAbMSjc.s:725    .text:0000000000000468 .L0 
     /tmp/ccAbMSjc.s:727    .text:000000000000046c .L0 
     /tmp/ccAbMSjc.s:729    .text:0000000000000470 .L0 
     /tmp/ccAbMSjc.s:732    .text:0000000000000470 .L0 
     /tmp/ccAbMSjc.s:733    .text:0000000000000470 .L0 
     /tmp/ccAbMSjc.s:734    .text:0000000000000470 .L0 
     /tmp/ccAbMSjc.s:738    .text:0000000000000480 .L0 
     /tmp/ccAbMSjc.s:741    .text:0000000000000488 .L0 
     /tmp/ccAbMSjc.s:742    .text:0000000000000488 .L0 
     /tmp/ccAbMSjc.s:745    .text:0000000000000490 .L0 
src/kernel/riscv.cpp:147    .text:0000000000000490 .L0 
     /tmp/ccAbMSjc.s:754    .text:0000000000000494 .L0 
src/kernel/riscv.cpp:149    .text:0000000000000494 .L0 
     /tmp/ccAbMSjc.s:761    .text:0000000000000498 .L0 
     /tmp/ccAbMSjc.s:762    .text:000000000000049c .L0 
     /tmp/ccAbMSjc.s:763    .text:000000000000049c .L0 
     /tmp/ccAbMSjc.s:764    .text:000000000000049c .L0 
     /tmp/ccAbMSjc.s:766    .text:00000000000004a0 .L0 
     /tmp/ccAbMSjc.s:770    .text:00000000000004a4 .L0 
     /tmp/ccAbMSjc.s:772    .text:00000000000004a4 .L0 
src/kernel/riscv.cpp:143    .text:00000000000004a4 .L0 
     /tmp/ccAbMSjc.s:779    .text:00000000000004ac .L0 
GAS LISTING /tmp/ccAbMSjc.s 			page 109


     /tmp/ccAbMSjc.s:785    .text:00000000000004ac _ZN5RiscV28executeThreadDispatchSyscallEv
     /tmp/ccAbMSjc.s:788    .text:00000000000004ac .L0 
     /tmp/ccAbMSjc.s:789    .text:00000000000004ac .L0 
     /tmp/ccAbMSjc.s:790    .text:00000000000004b0 .L0 
     /tmp/ccAbMSjc.s:793    .text:00000000000004b8 .L0 
     /tmp/ccAbMSjc.s:794    .text:00000000000004b8 .L0 
     /tmp/ccAbMSjc.s:796    .text:00000000000004bc .L0 
     /tmp/ccAbMSjc.s:798    .text:00000000000004bc .L0 
     /tmp/ccAbMSjc.s:799    .text:00000000000004bc .L0 
     /tmp/ccAbMSjc.s:803    .text:00000000000004c8 .L0 
     /tmp/ccAbMSjc.s:804    .text:00000000000004c8 .L0 
     /tmp/ccAbMSjc.s:807    .text:00000000000004d0 .L0 
     /tmp/ccAbMSjc.s:808    .text:00000000000004d0 .L0 
     /tmp/ccAbMSjc.s:811    .text:00000000000004d8 .L0 
     /tmp/ccAbMSjc.s:812    .text:00000000000004dc .L0 
     /tmp/ccAbMSjc.s:814    .text:00000000000004e0 .L0 
     /tmp/ccAbMSjc.s:815    .text:00000000000004e0 .L0 
     /tmp/ccAbMSjc.s:817    .text:00000000000004e4 .L0 
     /tmp/ccAbMSjc.s:819    .text:00000000000004e8 .L0 
     /tmp/ccAbMSjc.s:825    .text:00000000000004e8 _ZN5RiscV18executePutcSyscallEv
     /tmp/ccAbMSjc.s:828    .text:00000000000004e8 .L0 
     /tmp/ccAbMSjc.s:829    .text:00000000000004e8 .L0 
     /tmp/ccAbMSjc.s:830    .text:00000000000004ec .L0 
     /tmp/ccAbMSjc.s:833    .text:00000000000004f4 .L0 
     /tmp/ccAbMSjc.s:834    .text:00000000000004f4 .L0 
     /tmp/ccAbMSjc.s:836    .text:00000000000004f8 .L0 
     /tmp/ccAbMSjc.s:838    .text:00000000000004f8 .L0 
     /tmp/ccAbMSjc.s:839    .text:00000000000004f8 .L0 
     /tmp/ccAbMSjc.s:841    .text:0000000000000500 .L0 
     /tmp/ccAbMSjc.s:843    .text:0000000000000504 .L0 
     /tmp/ccAbMSjc.s:844    .text:0000000000000504 .L0 
     /tmp/ccAbMSjc.s:850    .text:0000000000000518 .L0 
     /tmp/ccAbMSjc.s:851    .text:0000000000000518 .L0 
src/kernel/riscv.cpp:625    .text:0000000000000518 .L0 
     /tmp/ccAbMSjc.s:858    .text:000000000000051c .L0 
     /tmp/ccAbMSjc.s:860    .text:000000000000051c .L0 
     /tmp/ccAbMSjc.s:864    .text:0000000000000528 .L0 
     /tmp/ccAbMSjc.s:865    .text:000000000000052c .L0 
     /tmp/ccAbMSjc.s:867    .text:0000000000000530 .L0 
     /tmp/ccAbMSjc.s:868    .text:0000000000000530 .L0 
     /tmp/ccAbMSjc.s:870    .text:0000000000000534 .L0 
     /tmp/ccAbMSjc.s:872    .text:0000000000000538 .L0 
     /tmp/ccAbMSjc.s:878    .text:0000000000000538 _ZN5RiscV11putcWrapperEPv
     /tmp/ccAbMSjc.s:881    .text:0000000000000538 .L0 
     /tmp/ccAbMSjc.s:883    .text:0000000000000538 .L0 
     /tmp/ccAbMSjc.s:884    .text:000000000000053c .L0 
     /tmp/ccAbMSjc.s:887    .text:0000000000000544 .L0 
     /tmp/ccAbMSjc.s:888    .text:0000000000000544 .L0 
     /tmp/ccAbMSjc.s:890    .text:0000000000000548 .L0 
     /tmp/ccAbMSjc.s:897    .text:000000000000054c .L0 
     /tmp/ccAbMSjc.s:898    .text:000000000000054c .L0 
     /tmp/ccAbMSjc.s:905    .text:0000000000000554 .L0 
     /tmp/ccAbMSjc.s:906    .text:0000000000000554 .L0 
     /tmp/ccAbMSjc.s:907    .text:0000000000000554 .L0 
     /tmp/ccAbMSjc.s:911    .text:0000000000000560 .L0 
src/kernel/riscv.cpp:640    .text:0000000000000560 .L0 
     /tmp/ccAbMSjc.s:917    .text:0000000000000564 .L0 
GAS LISTING /tmp/ccAbMSjc.s 			page 110


src/kernel/riscv.cpp:641    .text:0000000000000564 .L0 
     /tmp/ccAbMSjc.s:922    .text:0000000000000568 .L0 
src/kernel/riscv.cpp:642    .text:0000000000000568 .L0 
     /tmp/ccAbMSjc.s:930    .text:000000000000056c .L0 
     /tmp/ccAbMSjc.s:931    .text:000000000000056c .L0 
     /tmp/ccAbMSjc.s:934    .text:0000000000000570 .L0 
     /tmp/ccAbMSjc.s:937    .text:0000000000000574 .L0 
     /tmp/ccAbMSjc.s:938    .text:0000000000000574 .L0 
     /tmp/ccAbMSjc.s:941    .text:000000000000057c .L0 
     /tmp/ccAbMSjc.s:943    .text:0000000000000580 .L0 
     /tmp/ccAbMSjc.s:944    .text:0000000000000580 .L0 
     /tmp/ccAbMSjc.s:948    .text:000000000000058c .L0 
src/kernel/riscv.cpp:650    .text:000000000000058c .L0 
     /tmp/ccAbMSjc.s:954    .text:0000000000000590 .L0 
     /tmp/ccAbMSjc.s:956    .text:0000000000000590 .L0 
src/kernel/riscv.cpp:651    .text:0000000000000594 .L0 
     /tmp/ccAbMSjc.s:964    .text:0000000000000598 .L0 
src/kernel/riscv.cpp:652    .text:0000000000000598 .L0 
     /tmp/ccAbMSjc.s:969    .text:000000000000059c .L0 
     /tmp/ccAbMSjc.s:971    .text:000000000000059c .L0 
     /tmp/ccAbMSjc.s:974    .text:00000000000005a8 .L0 
     /tmp/ccAbMSjc.s:976    .text:00000000000005ac .L0 
     /tmp/ccAbMSjc.s:977    .text:00000000000005ac .L0 
     /tmp/ccAbMSjc.s:984    .text:00000000000005c0 .L0 
     /tmp/ccAbMSjc.s:990    .text:00000000000005c0 _ZN5RiscV29jumpToDesignatedPrivilegeModeEv
     /tmp/ccAbMSjc.s:993    .text:00000000000005c0 .L0 
     /tmp/ccAbMSjc.s:994    .text:00000000000005c0 .L0 
     /tmp/ccAbMSjc.s:995    .text:00000000000005c4 .L0 
     /tmp/ccAbMSjc.s:997    .text:00000000000005c8 .L0 
     /tmp/ccAbMSjc.s:999    .text:00000000000005cc .L0 
     /tmp/ccAbMSjc.s:1001   .text:00000000000005cc .L0 
     /tmp/ccAbMSjc.s:1002   .text:00000000000005cc .L0 
     /tmp/ccAbMSjc.s:1006   .text:00000000000005dc .L0 
     /tmp/ccAbMSjc.s:1012   .text:00000000000005e4 .L0 
     /tmp/ccAbMSjc.s:1013   .text:00000000000005e4 .L0 
     /tmp/ccAbMSjc.s:1014   .text:00000000000005e4 .L0 
     /tmp/ccAbMSjc.s:1025   .text:00000000000005ec .L0 
     /tmp/ccAbMSjc.s:1026   .text:00000000000005f0 .L0 
     /tmp/ccAbMSjc.s:1027   .text:00000000000005f0 .L0 
     /tmp/ccAbMSjc.s:1028   .text:00000000000005f0 .L0 
     /tmp/ccAbMSjc.s:1030   .text:00000000000005f4 .L0 
     /tmp/ccAbMSjc.s:1033   .text:00000000000005f8 .L0 
     /tmp/ccAbMSjc.s:1038   .text:00000000000005f8 .L0 
     /tmp/ccAbMSjc.s:1039   .text:00000000000005f8 .L0 
     /tmp/ccAbMSjc.s:1040   .text:00000000000005f8 .L0 
     /tmp/ccAbMSjc.s:1047   .text:0000000000000600 .L0 
     /tmp/ccAbMSjc.s:1050   .text:0000000000000604 .L0 
     /tmp/ccAbMSjc.s:1056   .text:0000000000000604 _ZN5RiscV8finalizeEv
     /tmp/ccAbMSjc.s:1059   .text:0000000000000604 .L0 
     /tmp/ccAbMSjc.s:1060   .text:0000000000000604 .L0 
     /tmp/ccAbMSjc.s:1061   .text:0000000000000608 .L0 
     /tmp/ccAbMSjc.s:1064   .text:0000000000000610 .L0 
     /tmp/ccAbMSjc.s:1065   .text:0000000000000610 .L0 
     /tmp/ccAbMSjc.s:1067   .text:0000000000000614 .L0 
     /tmp/ccAbMSjc.s:1069   .text:0000000000000614 .L0 
     /tmp/ccAbMSjc.s:1070   .text:0000000000000614 .L0 
     /tmp/ccAbMSjc.s:1073   .text:0000000000000620 .L0 
GAS LISTING /tmp/ccAbMSjc.s 			page 111


     /tmp/ccAbMSjc.s:1074   .text:0000000000000620 .L0 
     /tmp/ccAbMSjc.s:1077   .text:000000000000062c .L0 
     /tmp/ccAbMSjc.s:1078   .text:000000000000062c .L0 
     /tmp/ccAbMSjc.s:1083   .text:0000000000000638 .L0 
     /tmp/ccAbMSjc.s:1086   .text:0000000000000638 .L0 
     /tmp/ccAbMSjc.s:1093   .text:0000000000000638 .L0 
     /tmp/ccAbMSjc.s:1094   .text:0000000000000638 .L0 
     /tmp/ccAbMSjc.s:1095   .text:0000000000000638 .L0 
     /tmp/ccAbMSjc.s:1108   .text:0000000000000640 .L0 
     /tmp/ccAbMSjc.s:1114   .text:0000000000000640 .L0 
     /tmp/ccAbMSjc.s:1115   .text:0000000000000640 .L0 
     /tmp/ccAbMSjc.s:1116   .text:0000000000000640 .L0 
     /tmp/ccAbMSjc.s:1130   .text:0000000000000648 .L0 
     /tmp/ccAbMSjc.s:1131   .text:0000000000000648 .L0 
     /tmp/ccAbMSjc.s:1135   .text:0000000000000658 .L0 
     /tmp/ccAbMSjc.s:1136   .text:0000000000000658 .L0 
     /tmp/ccAbMSjc.s:1138   .text:000000000000065c .L0 
     /tmp/ccAbMSjc.s:1141   .text:0000000000000668 .L0 
     /tmp/ccAbMSjc.s:1144   .text:000000000000066c .L0 
     /tmp/ccAbMSjc.s:1145   .text:000000000000066c .L0 
     /tmp/ccAbMSjc.s:1151   .text:0000000000000680 .L0 
     /tmp/ccAbMSjc.s:1152   .text:0000000000000680 .L0 
     /tmp/ccAbMSjc.s:1158   .text:000000000000069c .L0 
     /tmp/ccAbMSjc.s:1159   .text:000000000000069c .L0 
     /tmp/ccAbMSjc.s:1162   .text:00000000000006a4 .L0 
     /tmp/ccAbMSjc.s:1165   .text:00000000000006a8 .L0 
     /tmp/ccAbMSjc.s:1166   .text:00000000000006ac .L0 
     /tmp/ccAbMSjc.s:1168   .text:00000000000006b0 .L0 
     /tmp/ccAbMSjc.s:1169   .text:00000000000006b0 .L0 
     /tmp/ccAbMSjc.s:1171   .text:00000000000006b4 .L0 
     /tmp/ccAbMSjc.s:1173   .text:00000000000006b8 .L0 
     /tmp/ccAbMSjc.s:1179   .text:00000000000006b8 _ZN5RiscV16saveA0toSscratchEv
     /tmp/ccAbMSjc.s:1182   .text:00000000000006b8 .L0 
     /tmp/ccAbMSjc.s:1183   .text:00000000000006b8 .L0 
     /tmp/ccAbMSjc.s:1184   .text:00000000000006bc .L0 
     /tmp/ccAbMSjc.s:1186   .text:00000000000006c0 .L0 
     /tmp/ccAbMSjc.s:1188   .text:00000000000006c4 .L0 
     /tmp/ccAbMSjc.s:1190   .text:00000000000006c4 .L0 
     /tmp/ccAbMSjc.s:1191   .text:00000000000006c4 .L0 
src/kernel/riscv.cpp:705    .text:00000000000006c4 .L0 
     /tmp/ccAbMSjc.s:1197   .text:00000000000006c8 .L0 
     /tmp/ccAbMSjc.s:1199   .text:00000000000006c8 .L0 
src/kernel/riscv.cpp:706    .text:00000000000006d8 .L0 
     /tmp/ccAbMSjc.s:1208   .text:00000000000006dc .L0 
src/kernel/riscv.cpp:707    .text:00000000000006dc .L0 
     /tmp/ccAbMSjc.s:1213   .text:00000000000006e0 .L0 
src/kernel/riscv.cpp:708    .text:00000000000006e0 .L0 
     /tmp/ccAbMSjc.s:1219   .text:00000000000006e4 .L0 
     /tmp/ccAbMSjc.s:1220   .text:00000000000006e8 .L0 
     /tmp/ccAbMSjc.s:1221   .text:00000000000006e8 .L0 
     /tmp/ccAbMSjc.s:1223   .text:00000000000006ec .L0 
     /tmp/ccAbMSjc.s:1225   .text:00000000000006f0 .L0 
     /tmp/ccAbMSjc.s:1231   .text:00000000000006f0 _ZN5RiscV22executeMemAllocSyscallEv
     /tmp/ccAbMSjc.s:1234   .text:00000000000006f0 .L0 
     /tmp/ccAbMSjc.s:1235   .text:00000000000006f0 .L0 
     /tmp/ccAbMSjc.s:1236   .text:00000000000006f4 .L0 
     /tmp/ccAbMSjc.s:1239   .text:00000000000006fc .L0 
GAS LISTING /tmp/ccAbMSjc.s 			page 112


     /tmp/ccAbMSjc.s:1240   .text:00000000000006fc .L0 
     /tmp/ccAbMSjc.s:1242   .text:0000000000000700 .L0 
     /tmp/ccAbMSjc.s:1244   .text:0000000000000700 .L0 
     /tmp/ccAbMSjc.s:1245   .text:0000000000000700 .L0 
src/kernel/riscv.cpp:323    .text:0000000000000700 .L0 
     /tmp/ccAbMSjc.s:1252   .text:0000000000000704 .L0 
     /tmp/ccAbMSjc.s:1254   .text:0000000000000704 .L0 
     /tmp/ccAbMSjc.s:1257   .text:000000000000070c .L0 
src/kernel/riscv.cpp:328    .text:000000000000070c .L0 
     /tmp/ccAbMSjc.s:1263   .text:0000000000000710 .L0 
     /tmp/ccAbMSjc.s:1265   .text:0000000000000710 .L0 
     /tmp/ccAbMSjc.s:1268   .text:0000000000000718 .L0 
     /tmp/ccAbMSjc.s:1269   .text:000000000000071c .L0 
     /tmp/ccAbMSjc.s:1271   .text:0000000000000720 .L0 
     /tmp/ccAbMSjc.s:1272   .text:0000000000000720 .L0 
     /tmp/ccAbMSjc.s:1274   .text:0000000000000724 .L0 
     /tmp/ccAbMSjc.s:1276   .text:0000000000000728 .L0 
     /tmp/ccAbMSjc.s:1282   .text:0000000000000728 _ZN5RiscV21executeMemFreeSyscallEv
     /tmp/ccAbMSjc.s:1285   .text:0000000000000728 .L0 
     /tmp/ccAbMSjc.s:1286   .text:0000000000000728 .L0 
     /tmp/ccAbMSjc.s:1287   .text:000000000000072c .L0 
     /tmp/ccAbMSjc.s:1290   .text:0000000000000734 .L0 
     /tmp/ccAbMSjc.s:1291   .text:0000000000000734 .L0 
     /tmp/ccAbMSjc.s:1293   .text:0000000000000738 .L0 
     /tmp/ccAbMSjc.s:1295   .text:0000000000000738 .L0 
     /tmp/ccAbMSjc.s:1296   .text:0000000000000738 .L0 
     /tmp/ccAbMSjc.s:1300   .text:0000000000000748 .L0 
     /tmp/ccAbMSjc.s:1304   .text:000000000000074c .L0 
src/kernel/riscv.cpp:348    .text:000000000000074c .L0 
     /tmp/ccAbMSjc.s:1310   .text:0000000000000750 .L0 
     /tmp/ccAbMSjc.s:1312   .text:0000000000000750 .L0 
     /tmp/ccAbMSjc.s:1315   .text:0000000000000758 .L0 
     /tmp/ccAbMSjc.s:1316   .text:000000000000075c .L0 
     /tmp/ccAbMSjc.s:1317   .text:000000000000075c .L0 
     /tmp/ccAbMSjc.s:1319   .text:0000000000000760 .L0 
     /tmp/ccAbMSjc.s:1320   .text:0000000000000760 .L0 
     /tmp/ccAbMSjc.s:1322   .text:0000000000000764 .L0 
     /tmp/ccAbMSjc.s:1325   .text:0000000000000768 .L0 
     /tmp/ccAbMSjc.s:1327   .text:0000000000000768 .L0 
src/kernel/riscv.cpp:341    .text:0000000000000768 .L0 
     /tmp/ccAbMSjc.s:1334   .text:000000000000076c .L0 
     /tmp/ccAbMSjc.s:1336   .text:000000000000076c .L0 
     /tmp/ccAbMSjc.s:1339   .text:0000000000000774 .L0 
     /tmp/ccAbMSjc.s:1340   .text:0000000000000778 .L0 
     /tmp/ccAbMSjc.s:1346   .text:0000000000000778 _ZN5RiscV26executeThreadCreateSyscallEv
     /tmp/ccAbMSjc.s:1349   .text:0000000000000778 .L0 
     /tmp/ccAbMSjc.s:12128  .data.rel.local.DW.ref.__gxx_personality_v0:0000000000000000 DW.ref.__gxx_personality_v0
     /tmp/ccAbMSjc.s:1352   .text:0000000000000778 .L0 
     /tmp/ccAbMSjc.s:1353   .text:000000000000077c .L0 
     /tmp/ccAbMSjc.s:1361   .text:0000000000000798 .L0 
     /tmp/ccAbMSjc.s:1362   .text:0000000000000798 .L0 
     /tmp/ccAbMSjc.s:1363   .text:0000000000000798 .L0 
     /tmp/ccAbMSjc.s:1364   .text:0000000000000798 .L0 
     /tmp/ccAbMSjc.s:1365   .text:0000000000000798 .L0 
     /tmp/ccAbMSjc.s:1366   .text:0000000000000798 .L0 
     /tmp/ccAbMSjc.s:1367   .text:0000000000000798 .L0 
     /tmp/ccAbMSjc.s:1369   .text:000000000000079c .L0 
GAS LISTING /tmp/ccAbMSjc.s 			page 113


     /tmp/ccAbMSjc.s:1371   .text:000000000000079c .L0 
     /tmp/ccAbMSjc.s:1372   .text:000000000000079c .L0 
src/kernel/riscv.cpp:358    .text:000000000000079c .L0 
     /tmp/ccAbMSjc.s:1379   .text:00000000000007a0 .L0 
src/kernel/riscv.cpp:359    .text:00000000000007a0 .L0 
     /tmp/ccAbMSjc.s:1385   .text:00000000000007a4 .L0 
src/kernel/riscv.cpp:360    .text:00000000000007a4 .L0 
     /tmp/ccAbMSjc.s:1391   .text:00000000000007a8 .L0 
src/kernel/riscv.cpp:361    .text:00000000000007a8 .L0 
     /tmp/ccAbMSjc.s:1397   .text:00000000000007ac .L0 
     /tmp/ccAbMSjc.s:1399   .text:00000000000007ac .L0 
     /tmp/ccAbMSjc.s:1407   .text:00000000000007c0 .L0 
     /tmp/ccAbMSjc.s:1417   .text:00000000000007d8 .L0 
     /tmp/ccAbMSjc.s:1418   .text:00000000000007d8 .L0 
     /tmp/ccAbMSjc.s:1420   .text:00000000000007dc .L0 
     /tmp/ccAbMSjc.s:1421   .text:00000000000007dc .L0 
     /tmp/ccAbMSjc.s:1423   .text:00000000000007e0 .L0 
     /tmp/ccAbMSjc.s:1425   .text:00000000000007e4 .L0 
     /tmp/ccAbMSjc.s:1426   .text:00000000000007e4 .L0 
     /tmp/ccAbMSjc.s:1433   .text:00000000000007f0 .L0 
     /tmp/ccAbMSjc.s:1434   .text:00000000000007f0 .L0 
     /tmp/ccAbMSjc.s:1436   .text:00000000000007f4 .L0 
     /tmp/ccAbMSjc.s:1440   .text:00000000000007f8 .L0 
src/kernel/riscv.cpp:378    .text:00000000000007f8 .L0 
     /tmp/ccAbMSjc.s:1446   .text:00000000000007fc .L0 
     /tmp/ccAbMSjc.s:1448   .text:00000000000007fc .L0 
     /tmp/ccAbMSjc.s:1451   .text:0000000000000804 .L0 
     /tmp/ccAbMSjc.s:1452   .text:0000000000000808 .L0 
     /tmp/ccAbMSjc.s:1453   .text:0000000000000808 .L0 
     /tmp/ccAbMSjc.s:1455   .text:000000000000080c .L0 
     /tmp/ccAbMSjc.s:1456   .text:000000000000080c .L0 
     /tmp/ccAbMSjc.s:1458   .text:0000000000000810 .L0 
     /tmp/ccAbMSjc.s:1461   .text:0000000000000814 .L0 
     /tmp/ccAbMSjc.s:1464   .text:0000000000000818 .L0 
     /tmp/ccAbMSjc.s:1467   .text:000000000000081c .L0 
     /tmp/ccAbMSjc.s:1470   .text:0000000000000820 .L0 
     /tmp/ccAbMSjc.s:1473   .text:0000000000000824 .L0 
     /tmp/ccAbMSjc.s:1477   .text:0000000000000828 .L0 
     /tmp/ccAbMSjc.s:1479   .text:0000000000000828 .L0 
     /tmp/ccAbMSjc.s:1486   .text:0000000000000834 .L0 
     /tmp/ccAbMSjc.s:1494   .text:000000000000084c .L0 
     /tmp/ccAbMSjc.s:1524   .text:000000000000084c _ZN5RiscV30executeThreadAttachBodySyscallEv
     /tmp/ccAbMSjc.s:1527   .text:000000000000084c .L0 
     /tmp/ccAbMSjc.s:1530   .text:000000000000084c .L0 
     /tmp/ccAbMSjc.s:1531   .text:0000000000000850 .L0 
     /tmp/ccAbMSjc.s:1539   .text:000000000000086c .L0 
     /tmp/ccAbMSjc.s:1540   .text:000000000000086c .L0 
     /tmp/ccAbMSjc.s:1541   .text:000000000000086c .L0 
     /tmp/ccAbMSjc.s:1542   .text:000000000000086c .L0 
     /tmp/ccAbMSjc.s:1543   .text:000000000000086c .L0 
     /tmp/ccAbMSjc.s:1544   .text:000000000000086c .L0 
     /tmp/ccAbMSjc.s:1545   .text:000000000000086c .L0 
     /tmp/ccAbMSjc.s:1547   .text:0000000000000870 .L0 
     /tmp/ccAbMSjc.s:1549   .text:0000000000000870 .L0 
     /tmp/ccAbMSjc.s:1550   .text:0000000000000870 .L0 
src/kernel/riscv.cpp:389    .text:0000000000000870 .L0 
     /tmp/ccAbMSjc.s:1557   .text:0000000000000874 .L0 
GAS LISTING /tmp/ccAbMSjc.s 			page 114


src/kernel/riscv.cpp:390    .text:0000000000000874 .L0 
     /tmp/ccAbMSjc.s:1563   .text:0000000000000878 .L0 
src/kernel/riscv.cpp:391    .text:0000000000000878 .L0 
     /tmp/ccAbMSjc.s:1569   .text:000000000000087c .L0 
src/kernel/riscv.cpp:392    .text:000000000000087c .L0 
     /tmp/ccAbMSjc.s:1575   .text:0000000000000880 .L0 
     /tmp/ccAbMSjc.s:1577   .text:0000000000000880 .L0 
     /tmp/ccAbMSjc.s:1585   .text:0000000000000894 .L0 
     /tmp/ccAbMSjc.s:1595   .text:00000000000008ac .L0 
     /tmp/ccAbMSjc.s:1596   .text:00000000000008ac .L0 
     /tmp/ccAbMSjc.s:1598   .text:00000000000008b0 .L0 
     /tmp/ccAbMSjc.s:1599   .text:00000000000008b0 .L0 
     /tmp/ccAbMSjc.s:1601   .text:00000000000008b4 .L0 
     /tmp/ccAbMSjc.s:1602   .text:00000000000008b4 .L0 
     /tmp/ccAbMSjc.s:1604   .text:00000000000008b8 .L0 
     /tmp/ccAbMSjc.s:1605   .text:00000000000008b8 .L0 
     /tmp/ccAbMSjc.s:1607   .text:00000000000008bc .L0 
     /tmp/ccAbMSjc.s:1611   .text:00000000000008c0 .L0 
src/kernel/riscv.cpp:407    .text:00000000000008c0 .L0 
     /tmp/ccAbMSjc.s:1617   .text:00000000000008c4 .L0 
     /tmp/ccAbMSjc.s:1619   .text:00000000000008c4 .L0 
     /tmp/ccAbMSjc.s:1622   .text:00000000000008cc .L0 
     /tmp/ccAbMSjc.s:1623   .text:00000000000008d0 .L0 
     /tmp/ccAbMSjc.s:1624   .text:00000000000008d0 .L0 
     /tmp/ccAbMSjc.s:1626   .text:00000000000008d4 .L0 
     /tmp/ccAbMSjc.s:1627   .text:00000000000008d4 .L0 
     /tmp/ccAbMSjc.s:1629   .text:00000000000008d8 .L0 
     /tmp/ccAbMSjc.s:1632   .text:00000000000008dc .L0 
     /tmp/ccAbMSjc.s:1635   .text:00000000000008e0 .L0 
     /tmp/ccAbMSjc.s:1638   .text:00000000000008e4 .L0 
     /tmp/ccAbMSjc.s:1641   .text:00000000000008e8 .L0 
     /tmp/ccAbMSjc.s:1644   .text:00000000000008ec .L0 
     /tmp/ccAbMSjc.s:1648   .text:00000000000008f0 .L0 
     /tmp/ccAbMSjc.s:1650   .text:00000000000008f0 .L0 
     /tmp/ccAbMSjc.s:1657   .text:00000000000008fc .L0 
     /tmp/ccAbMSjc.s:1665   .text:0000000000000914 .L0 
     /tmp/ccAbMSjc.s:1690   .text:0000000000000914 _ZN5RiscV25executeThreadStartSyscallEv
     /tmp/ccAbMSjc.s:1693   .text:0000000000000914 .L0 
     /tmp/ccAbMSjc.s:1694   .text:0000000000000914 .L0 
     /tmp/ccAbMSjc.s:1695   .text:0000000000000918 .L0 
     /tmp/ccAbMSjc.s:1698   .text:0000000000000920 .L0 
     /tmp/ccAbMSjc.s:1699   .text:0000000000000920 .L0 
     /tmp/ccAbMSjc.s:1701   .text:0000000000000924 .L0 
     /tmp/ccAbMSjc.s:1703   .text:0000000000000924 .L0 
     /tmp/ccAbMSjc.s:1704   .text:0000000000000924 .L0 
src/kernel/riscv.cpp:417    .text:0000000000000924 .L0 
     /tmp/ccAbMSjc.s:1711   .text:0000000000000928 .L0 
     /tmp/ccAbMSjc.s:1712   .text:0000000000000928 .L0 
     /tmp/ccAbMSjc.s:1714   .text:0000000000000928 .L0 
     /tmp/ccAbMSjc.s:1716   .text:000000000000092c .L0 
     /tmp/ccAbMSjc.s:1720   .text:0000000000000930 .L0 
src/kernel/riscv.cpp:434    .text:0000000000000930 .L0 
     /tmp/ccAbMSjc.s:1726   .text:0000000000000934 .L0 
     /tmp/ccAbMSjc.s:1728   .text:0000000000000934 .L0 
     /tmp/ccAbMSjc.s:1731   .text:000000000000093c .L0 
     /tmp/ccAbMSjc.s:1732   .text:0000000000000940 .L0 
     /tmp/ccAbMSjc.s:1733   .text:0000000000000940 .L0 
GAS LISTING /tmp/ccAbMSjc.s 			page 115


     /tmp/ccAbMSjc.s:1735   .text:0000000000000944 .L0 
     /tmp/ccAbMSjc.s:1736   .text:0000000000000944 .L0 
     /tmp/ccAbMSjc.s:1738   .text:0000000000000948 .L0 
     /tmp/ccAbMSjc.s:1742   .text:000000000000094c .L0 
     /tmp/ccAbMSjc.s:1744   .text:000000000000094c .L0 
     /tmp/ccAbMSjc.s:1745   .text:000000000000094c .L0 
     /tmp/ccAbMSjc.s:1748   .text:0000000000000954 .L0 
     /tmp/ccAbMSjc.s:1749   .text:0000000000000954 .L0 
     /tmp/ccAbMSjc.s:1752   .text:000000000000095c .L0 
     /tmp/ccAbMSjc.s:1753   .text:000000000000095c .L0 
     /tmp/ccAbMSjc.s:1756   .text:0000000000000964 .L0 
     /tmp/ccAbMSjc.s:1758   .text:000000000000096c .L0 
     /tmp/ccAbMSjc.s:1764   .text:000000000000096c _ZN5RiscV24executeThreadExitSyscallEv
     /tmp/ccAbMSjc.s:1767   .text:000000000000096c .L0 
     /tmp/ccAbMSjc.s:1768   .text:000000000000096c .L0 
     /tmp/ccAbMSjc.s:1769   .text:0000000000000970 .L0 
     /tmp/ccAbMSjc.s:1772   .text:0000000000000978 .L0 
     /tmp/ccAbMSjc.s:1773   .text:0000000000000978 .L0 
     /tmp/ccAbMSjc.s:1775   .text:000000000000097c .L0 
     /tmp/ccAbMSjc.s:1778   .text:000000000000097c .L0 
     /tmp/ccAbMSjc.s:1780   .text:000000000000097c .L0 
     /tmp/ccAbMSjc.s:1781   .text:000000000000097c .L0 
     /tmp/ccAbMSjc.s:1784   .text:0000000000000988 .L0 
     /tmp/ccAbMSjc.s:1788   .text:000000000000098c .L0 
     /tmp/ccAbMSjc.s:1789   .text:000000000000098c .L0 
     /tmp/ccAbMSjc.s:1790   .text:000000000000098c .L0 
     /tmp/ccAbMSjc.s:1793   .text:0000000000000994 .L0 
     /tmp/ccAbMSjc.s:1794   .text:0000000000000994 .L0 
     /tmp/ccAbMSjc.s:1799   .text:000000000000099c .L0 
     /tmp/ccAbMSjc.s:1803   .text:00000000000009a0 .L0 
src/kernel/riscv.cpp:454    .text:00000000000009a0 .L0 
     /tmp/ccAbMSjc.s:1809   .text:00000000000009a4 .L0 
     /tmp/ccAbMSjc.s:1811   .text:00000000000009a4 .L0 
     /tmp/ccAbMSjc.s:1814   .text:00000000000009ac .L0 
     /tmp/ccAbMSjc.s:1815   .text:00000000000009b0 .L0 
     /tmp/ccAbMSjc.s:1816   .text:00000000000009b0 .L0 
     /tmp/ccAbMSjc.s:1818   .text:00000000000009b4 .L0 
     /tmp/ccAbMSjc.s:1819   .text:00000000000009b4 .L0 
     /tmp/ccAbMSjc.s:1821   .text:00000000000009b8 .L0 
     /tmp/ccAbMSjc.s:1825   .text:00000000000009bc .L0 
     /tmp/ccAbMSjc.s:1828   .text:00000000000009bc .L0 
     /tmp/ccAbMSjc.s:1831   .text:00000000000009c4 .L0 
     /tmp/ccAbMSjc.s:1837   .text:00000000000009c4 _ZN5RiscV21executeSemOpenSyscallEv
     /tmp/ccAbMSjc.s:1840   .text:00000000000009c4 .L0 
     /tmp/ccAbMSjc.s:1843   .text:00000000000009c4 .L0 
     /tmp/ccAbMSjc.s:1844   .text:00000000000009c8 .L0 
     /tmp/ccAbMSjc.s:1850   .text:00000000000009dc .L0 
     /tmp/ccAbMSjc.s:1851   .text:00000000000009dc .L0 
     /tmp/ccAbMSjc.s:1852   .text:00000000000009dc .L0 
     /tmp/ccAbMSjc.s:1853   .text:00000000000009dc .L0 
     /tmp/ccAbMSjc.s:1854   .text:00000000000009dc .L0 
     /tmp/ccAbMSjc.s:1856   .text:00000000000009e0 .L0 
     /tmp/ccAbMSjc.s:1858   .text:00000000000009e0 .L0 
     /tmp/ccAbMSjc.s:1859   .text:00000000000009e0 .L0 
src/kernel/riscv.cpp:472    .text:00000000000009e0 .L0 
     /tmp/ccAbMSjc.s:1866   .text:00000000000009e4 .L0 
src/kernel/riscv.cpp:473    .text:00000000000009e4 .L0 
GAS LISTING /tmp/ccAbMSjc.s 			page 116


     /tmp/ccAbMSjc.s:1872   .text:00000000000009e8 .L0 
     /tmp/ccAbMSjc.s:1874   .text:00000000000009e8 .L0 
     /tmp/ccAbMSjc.s:1882   .text:00000000000009fc .L0 
     /tmp/ccAbMSjc.s:1889   .text:0000000000000a08 .L0 
     /tmp/ccAbMSjc.s:1890   .text:0000000000000a08 .L0 
     /tmp/ccAbMSjc.s:1892   .text:0000000000000a0c .L0 
     /tmp/ccAbMSjc.s:1893   .text:0000000000000a0c .L0 
     /tmp/ccAbMSjc.s:1895   .text:0000000000000a10 .L0 
     /tmp/ccAbMSjc.s:1899   .text:0000000000000a14 .L0 
src/kernel/riscv.cpp:488    .text:0000000000000a14 .L0 
     /tmp/ccAbMSjc.s:1905   .text:0000000000000a18 .L0 
     /tmp/ccAbMSjc.s:1907   .text:0000000000000a18 .L0 
     /tmp/ccAbMSjc.s:1910   .text:0000000000000a20 .L0 
     /tmp/ccAbMSjc.s:1911   .text:0000000000000a24 .L0 
     /tmp/ccAbMSjc.s:1912   .text:0000000000000a24 .L0 
     /tmp/ccAbMSjc.s:1914   .text:0000000000000a28 .L0 
     /tmp/ccAbMSjc.s:1915   .text:0000000000000a28 .L0 
     /tmp/ccAbMSjc.s:1917   .text:0000000000000a2c .L0 
     /tmp/ccAbMSjc.s:1920   .text:0000000000000a30 .L0 
     /tmp/ccAbMSjc.s:1923   .text:0000000000000a34 .L0 
     /tmp/ccAbMSjc.s:1926   .text:0000000000000a38 .L0 
     /tmp/ccAbMSjc.s:1930   .text:0000000000000a3c .L0 
     /tmp/ccAbMSjc.s:1932   .text:0000000000000a3c .L0 
     /tmp/ccAbMSjc.s:1939   .text:0000000000000a48 .L0 
     /tmp/ccAbMSjc.s:1947   .text:0000000000000a60 .L0 
     /tmp/ccAbMSjc.s:1972   .text:0000000000000a60 _ZN5RiscV22executeSemCloseSyscallEv
     /tmp/ccAbMSjc.s:1975   .text:0000000000000a60 .L0 
     /tmp/ccAbMSjc.s:1976   .text:0000000000000a60 .L0 
     /tmp/ccAbMSjc.s:1977   .text:0000000000000a64 .L0 
     /tmp/ccAbMSjc.s:1981   .text:0000000000000a70 .L0 
     /tmp/ccAbMSjc.s:1982   .text:0000000000000a70 .L0 
     /tmp/ccAbMSjc.s:1983   .text:0000000000000a70 .L0 
     /tmp/ccAbMSjc.s:1985   .text:0000000000000a74 .L0 
     /tmp/ccAbMSjc.s:1987   .text:0000000000000a74 .L0 
     /tmp/ccAbMSjc.s:1988   .text:0000000000000a74 .L0 
src/kernel/riscv.cpp:499    .text:0000000000000a74 .L0 
     /tmp/ccAbMSjc.s:1995   .text:0000000000000a78 .L0 
     /tmp/ccAbMSjc.s:1996   .text:0000000000000a78 .L0 
     /tmp/ccAbMSjc.s:1998   .text:0000000000000a78 .L0 
     /tmp/ccAbMSjc.s:2000   .text:0000000000000a7c .L0 
     /tmp/ccAbMSjc.s:2004   .text:0000000000000a80 .L0 
src/kernel/riscv.cpp:512    .text:0000000000000a80 .L0 
     /tmp/ccAbMSjc.s:2010   .text:0000000000000a84 .L0 
     /tmp/ccAbMSjc.s:2012   .text:0000000000000a84 .L0 
     /tmp/ccAbMSjc.s:2015   .text:0000000000000a8c .L0 
     /tmp/ccAbMSjc.s:2016   .text:0000000000000a90 .L0 
     /tmp/ccAbMSjc.s:2017   .text:0000000000000a90 .L0 
     /tmp/ccAbMSjc.s:2019   .text:0000000000000a94 .L0 
     /tmp/ccAbMSjc.s:2020   .text:0000000000000a94 .L0 
     /tmp/ccAbMSjc.s:2022   .text:0000000000000a98 .L0 
     /tmp/ccAbMSjc.s:2025   .text:0000000000000a9c .L0 
     /tmp/ccAbMSjc.s:2029   .text:0000000000000aa0 .L0 
     /tmp/ccAbMSjc.s:2031   .text:0000000000000aa0 .L0 
     /tmp/ccAbMSjc.s:2032   .text:0000000000000aa0 .L0 
     /tmp/ccAbMSjc.s:2039   .text:0000000000000ab8 .L0 
     /tmp/ccAbMSjc.s:2041   .text:0000000000000ac0 .L0 
     /tmp/ccAbMSjc.s:2047   .text:0000000000000ac0 _ZN5RiscV21executeSemWaitSyscallEv
GAS LISTING /tmp/ccAbMSjc.s 			page 117


     /tmp/ccAbMSjc.s:2050   .text:0000000000000ac0 .L0 
     /tmp/ccAbMSjc.s:2051   .text:0000000000000ac0 .L0 
     /tmp/ccAbMSjc.s:2052   .text:0000000000000ac4 .L0 
     /tmp/ccAbMSjc.s:2055   .text:0000000000000acc .L0 
     /tmp/ccAbMSjc.s:2056   .text:0000000000000acc .L0 
     /tmp/ccAbMSjc.s:2058   .text:0000000000000ad0 .L0 
     /tmp/ccAbMSjc.s:2060   .text:0000000000000ad0 .L0 
     /tmp/ccAbMSjc.s:2061   .text:0000000000000ad0 .L0 
src/kernel/riscv.cpp:522    .text:0000000000000ad0 .L0 
     /tmp/ccAbMSjc.s:2068   .text:0000000000000ad4 .L0 
     /tmp/ccAbMSjc.s:2070   .text:0000000000000ad4 .L0 
     /tmp/ccAbMSjc.s:2074   .text:0000000000000ad8 .L0 
     /tmp/ccAbMSjc.s:2075   .text:0000000000000ad8 .L0 
     /tmp/ccAbMSjc.s:2079   .text:0000000000000ae8 .L0 
     /tmp/ccAbMSjc.s:2081   .text:0000000000000aec .L0 
     /tmp/ccAbMSjc.s:2085   .text:0000000000000af0 .L0 
src/kernel/riscv.cpp:538    .text:0000000000000af0 .L0 
     /tmp/ccAbMSjc.s:2091   .text:0000000000000af4 .L0 
     /tmp/ccAbMSjc.s:2093   .text:0000000000000af4 .L0 
     /tmp/ccAbMSjc.s:2096   .text:0000000000000afc .L0 
     /tmp/ccAbMSjc.s:2097   .text:0000000000000b00 .L0 
     /tmp/ccAbMSjc.s:2098   .text:0000000000000b00 .L0 
     /tmp/ccAbMSjc.s:2100   .text:0000000000000b04 .L0 
     /tmp/ccAbMSjc.s:2101   .text:0000000000000b04 .L0 
     /tmp/ccAbMSjc.s:2103   .text:0000000000000b08 .L0 
     /tmp/ccAbMSjc.s:2107   .text:0000000000000b0c .L0 
     /tmp/ccAbMSjc.s:2109   .text:0000000000000b0c .L0 
     /tmp/ccAbMSjc.s:2110   .text:0000000000000b0c .L0 
     /tmp/ccAbMSjc.s:2116   .text:0000000000000b18 .L0 
     /tmp/ccAbMSjc.s:2118   .text:0000000000000b20 .L0 
     /tmp/ccAbMSjc.s:2124   .text:0000000000000b20 _ZN5RiscV23executeSemSignalSyscallEv
     /tmp/ccAbMSjc.s:2127   .text:0000000000000b20 .L0 
     /tmp/ccAbMSjc.s:2128   .text:0000000000000b20 .L0 
     /tmp/ccAbMSjc.s:2129   .text:0000000000000b24 .L0 
     /tmp/ccAbMSjc.s:2132   .text:0000000000000b2c .L0 
     /tmp/ccAbMSjc.s:2133   .text:0000000000000b2c .L0 
     /tmp/ccAbMSjc.s:2135   .text:0000000000000b30 .L0 
     /tmp/ccAbMSjc.s:2137   .text:0000000000000b30 .L0 
     /tmp/ccAbMSjc.s:2138   .text:0000000000000b30 .L0 
src/kernel/riscv.cpp:549    .text:0000000000000b30 .L0 
     /tmp/ccAbMSjc.s:2145   .text:0000000000000b34 .L0 
     /tmp/ccAbMSjc.s:2147   .text:0000000000000b34 .L0 
     /tmp/ccAbMSjc.s:2149   .text:0000000000000b38 .L0 
     /tmp/ccAbMSjc.s:2153   .text:0000000000000b3c .L0 
src/kernel/riscv.cpp:561    .text:0000000000000b3c .L0 
     /tmp/ccAbMSjc.s:2159   .text:0000000000000b40 .L0 
     /tmp/ccAbMSjc.s:2161   .text:0000000000000b40 .L0 
     /tmp/ccAbMSjc.s:2164   .text:0000000000000b48 .L0 
     /tmp/ccAbMSjc.s:2165   .text:0000000000000b4c .L0 
     /tmp/ccAbMSjc.s:2166   .text:0000000000000b4c .L0 
     /tmp/ccAbMSjc.s:2168   .text:0000000000000b50 .L0 
     /tmp/ccAbMSjc.s:2169   .text:0000000000000b50 .L0 
     /tmp/ccAbMSjc.s:2171   .text:0000000000000b54 .L0 
     /tmp/ccAbMSjc.s:2175   .text:0000000000000b58 .L0 
     /tmp/ccAbMSjc.s:2177   .text:0000000000000b58 .L0 
     /tmp/ccAbMSjc.s:2178   .text:0000000000000b58 .L0 
     /tmp/ccAbMSjc.s:2181   .text:0000000000000b60 .L0 
GAS LISTING /tmp/ccAbMSjc.s 			page 118


     /tmp/ccAbMSjc.s:2183   .text:0000000000000b68 .L0 
     /tmp/ccAbMSjc.s:2189   .text:0000000000000b68 _ZN5RiscV23executeTimeSleepSyscallEv
     /tmp/ccAbMSjc.s:2192   .text:0000000000000b68 .L0 
     /tmp/ccAbMSjc.s:2193   .text:0000000000000b68 .L0 
     /tmp/ccAbMSjc.s:2194   .text:0000000000000b6c .L0 
     /tmp/ccAbMSjc.s:2198   .text:0000000000000b78 .L0 
     /tmp/ccAbMSjc.s:2199   .text:0000000000000b78 .L0 
     /tmp/ccAbMSjc.s:2200   .text:0000000000000b78 .L0 
     /tmp/ccAbMSjc.s:2202   .text:0000000000000b7c .L0 
     /tmp/ccAbMSjc.s:2204   .text:0000000000000b7c .L0 
     /tmp/ccAbMSjc.s:2205   .text:0000000000000b7c .L0 
src/kernel/riscv.cpp:571    .text:0000000000000b7c .L0 
     /tmp/ccAbMSjc.s:2211   .text:0000000000000b80 .L0 
     /tmp/ccAbMSjc.s:2213   .text:0000000000000b80 .L0 
     /tmp/ccAbMSjc.s:2217   .text:0000000000000b8c .L0 
     /tmp/ccAbMSjc.s:2218   .text:0000000000000b8c .L0 
     /tmp/ccAbMSjc.s:2221   .text:0000000000000b98 .L0 
     /tmp/ccAbMSjc.s:2222   .text:0000000000000b98 .L0 
     /tmp/ccAbMSjc.s:2224   .text:0000000000000b9c .L0 
     /tmp/ccAbMSjc.s:2226   .text:0000000000000ba0 .L0 
     /tmp/ccAbMSjc.s:2227   .text:0000000000000ba0 .L0 
     /tmp/ccAbMSjc.s:2231   .text:0000000000000bac .L0 
     /tmp/ccAbMSjc.s:2232   .text:0000000000000bac .L0 
     /tmp/ccAbMSjc.s:2235   .text:0000000000000bb4 .L0 
     /tmp/ccAbMSjc.s:2236   .text:0000000000000bb4 .L0 
     /tmp/ccAbMSjc.s:2239   .text:0000000000000bbc .L0 
     /tmp/ccAbMSjc.s:2240   .text:0000000000000bbc .L0 
     /tmp/ccAbMSjc.s:2241   .text:0000000000000bbc .L0 
     /tmp/ccAbMSjc.s:2247   .text:0000000000000bc4 .L0 
     /tmp/ccAbMSjc.s:2249   .text:0000000000000bc4 .L0 
     /tmp/ccAbMSjc.s:2252   .text:0000000000000bcc .L0 
     /tmp/ccAbMSjc.s:2253   .text:0000000000000bd0 .L0 
     /tmp/ccAbMSjc.s:2255   .text:0000000000000bd4 .L0 
     /tmp/ccAbMSjc.s:2256   .text:0000000000000bd4 .L0 
     /tmp/ccAbMSjc.s:2258   .text:0000000000000bd8 .L0 
     /tmp/ccAbMSjc.s:2261   .text:0000000000000bdc .L0 
     /tmp/ccAbMSjc.s:2263   .text:0000000000000be0 .L0 
     /tmp/ccAbMSjc.s:2269   .text:0000000000000be0 _ZN5RiscV18executeGetcSyscallEv
     /tmp/ccAbMSjc.s:2272   .text:0000000000000be0 .L0 
     /tmp/ccAbMSjc.s:2273   .text:0000000000000be0 .L0 
     /tmp/ccAbMSjc.s:2274   .text:0000000000000be4 .L0 
     /tmp/ccAbMSjc.s:2278   .text:0000000000000bf0 .L0 
     /tmp/ccAbMSjc.s:2279   .text:0000000000000bf0 .L0 
     /tmp/ccAbMSjc.s:2280   .text:0000000000000bf0 .L0 
     /tmp/ccAbMSjc.s:2282   .text:0000000000000bf4 .L0 
     /tmp/ccAbMSjc.s:2284   .text:0000000000000bf4 .L0 
     /tmp/ccAbMSjc.s:2285   .text:0000000000000bf4 .L0 
     /tmp/ccAbMSjc.s:2287   .text:0000000000000bfc .L0 
     /tmp/ccAbMSjc.s:2289   .text:0000000000000c00 .L0 
     /tmp/ccAbMSjc.s:2290   .text:0000000000000c00 .L0 
     /tmp/ccAbMSjc.s:2296   .text:0000000000000c14 .L0 
     /tmp/ccAbMSjc.s:2297   .text:0000000000000c14 .L0 
     /tmp/ccAbMSjc.s:2302   .text:0000000000000c20 .L0 
     /tmp/ccAbMSjc.s:2305   .text:0000000000000c28 .L0 
     /tmp/ccAbMSjc.s:2310   .text:0000000000000c30 .L0 
src/kernel/riscv.cpp:612    .text:0000000000000c30 .L0 
     /tmp/ccAbMSjc.s:2316   .text:0000000000000c34 .L0 
GAS LISTING /tmp/ccAbMSjc.s 			page 119


     /tmp/ccAbMSjc.s:2318   .text:0000000000000c34 .L0 
     /tmp/ccAbMSjc.s:2321   .text:0000000000000c3c .L0 
     /tmp/ccAbMSjc.s:2322   .text:0000000000000c40 .L0 
     /tmp/ccAbMSjc.s:2323   .text:0000000000000c40 .L0 
     /tmp/ccAbMSjc.s:2325   .text:0000000000000c44 .L0 
     /tmp/ccAbMSjc.s:2326   .text:0000000000000c44 .L0 
     /tmp/ccAbMSjc.s:2328   .text:0000000000000c48 .L0 
     /tmp/ccAbMSjc.s:2330   .text:0000000000000c4c .L0 
     /tmp/ccAbMSjc.s:2334   .text:0000000000000c50 .L0 
     /tmp/ccAbMSjc.s:2336   .text:0000000000000c50 .L0 
     /tmp/ccAbMSjc.s:2337   .text:0000000000000c50 .L0 
     /tmp/ccAbMSjc.s:2342   .text:0000000000000c5c .L0 
     /tmp/ccAbMSjc.s:2343   .text:0000000000000c5c .L0 
     /tmp/ccAbMSjc.s:2350   .text:0000000000000c6c .L0 
     /tmp/ccAbMSjc.s:2351   .text:0000000000000c6c .L0 
     /tmp/ccAbMSjc.s:2354   .text:0000000000000c78 .L0 
     /tmp/ccAbMSjc.s:2360   .text:0000000000000c78 _ZN5RiscV22executePutcUtilSyscallEv
     /tmp/ccAbMSjc.s:2363   .text:0000000000000c78 .L0 
     /tmp/ccAbMSjc.s:2364   .text:0000000000000c78 .L0 
     /tmp/ccAbMSjc.s:2365   .text:0000000000000c7c .L0 
     /tmp/ccAbMSjc.s:2368   .text:0000000000000c84 .L0 
     /tmp/ccAbMSjc.s:2369   .text:0000000000000c84 .L0 
     /tmp/ccAbMSjc.s:2371   .text:0000000000000c88 .L0 
     /tmp/ccAbMSjc.s:2373   .text:0000000000000c88 .L0 
     /tmp/ccAbMSjc.s:2374   .text:0000000000000c88 .L0 
     /tmp/ccAbMSjc.s:2377   .text:0000000000000c90 .L0 
src/kernel/riscv.cpp:667    .text:0000000000000c90 .L0 
     /tmp/ccAbMSjc.s:2383   .text:0000000000000c94 .L0 
     /tmp/ccAbMSjc.s:2385   .text:0000000000000c94 .L0 
     /tmp/ccAbMSjc.s:2388   .text:0000000000000c9c .L0 
     /tmp/ccAbMSjc.s:2389   .text:0000000000000ca0 .L0 
     /tmp/ccAbMSjc.s:2391   .text:0000000000000ca4 .L0 
     /tmp/ccAbMSjc.s:2392   .text:0000000000000ca4 .L0 
     /tmp/ccAbMSjc.s:2394   .text:0000000000000ca8 .L0 
     /tmp/ccAbMSjc.s:2396   .text:0000000000000cac .L0 
     /tmp/ccAbMSjc.s:2402   .text:0000000000000cac _ZN5RiscV24executeThreadFreeSyscallEv
     /tmp/ccAbMSjc.s:2405   .text:0000000000000cac .L0 
     /tmp/ccAbMSjc.s:2406   .text:0000000000000cac .L0 
     /tmp/ccAbMSjc.s:2407   .text:0000000000000cb0 .L0 
     /tmp/ccAbMSjc.s:2411   .text:0000000000000cbc .L0 
     /tmp/ccAbMSjc.s:2412   .text:0000000000000cbc .L0 
     /tmp/ccAbMSjc.s:2413   .text:0000000000000cbc .L0 
     /tmp/ccAbMSjc.s:2415   .text:0000000000000cc0 .L0 
     /tmp/ccAbMSjc.s:2417   .text:0000000000000cc0 .L0 
     /tmp/ccAbMSjc.s:2418   .text:0000000000000cc0 .L0 
src/kernel/riscv.cpp:715    .text:0000000000000cc0 .L0 
     /tmp/ccAbMSjc.s:2425   .text:0000000000000cc4 .L0 
     /tmp/ccAbMSjc.s:2427   .text:0000000000000cc4 .L0 
     /tmp/ccAbMSjc.s:2431   .text:0000000000000cc8 .L0 
     /tmp/ccAbMSjc.s:2432   .text:0000000000000cc8 .L0 
     /tmp/ccAbMSjc.s:2438   .text:0000000000000cd0 .L0 
     /tmp/ccAbMSjc.s:2440   .text:0000000000000cd0 .L0 
     /tmp/ccAbMSjc.s:2443   .text:0000000000000cd8 .L0 
     /tmp/ccAbMSjc.s:2444   .text:0000000000000cdc .L0 
     /tmp/ccAbMSjc.s:2445   .text:0000000000000cdc .L0 
     /tmp/ccAbMSjc.s:2447   .text:0000000000000ce0 .L0 
     /tmp/ccAbMSjc.s:2448   .text:0000000000000ce0 .L0 
GAS LISTING /tmp/ccAbMSjc.s 			page 120


     /tmp/ccAbMSjc.s:2450   .text:0000000000000ce4 .L0 
     /tmp/ccAbMSjc.s:2453   .text:0000000000000ce8 .L0 
     /tmp/ccAbMSjc.s:2457   .text:0000000000000cec .L0 
     /tmp/ccAbMSjc.s:2459   .text:0000000000000cec .L0 
     /tmp/ccAbMSjc.s:2460   .text:0000000000000cec .L0 
     /tmp/ccAbMSjc.s:2464   .text:0000000000000cf8 .L0 
     /tmp/ccAbMSjc.s:2465   .text:0000000000000cf8 .L0 
     /tmp/ccAbMSjc.s:2472   .text:0000000000000d14 .L0 
     /tmp/ccAbMSjc.s:2478   .text:0000000000000d14 _ZN5RiscV27executeSemaphoreFreeSyscallEv
     /tmp/ccAbMSjc.s:2481   .text:0000000000000d14 .L0 
     /tmp/ccAbMSjc.s:2482   .text:0000000000000d14 .L0 
     /tmp/ccAbMSjc.s:2483   .text:0000000000000d18 .L0 
     /tmp/ccAbMSjc.s:2487   .text:0000000000000d24 .L0 
     /tmp/ccAbMSjc.s:2488   .text:0000000000000d24 .L0 
     /tmp/ccAbMSjc.s:2489   .text:0000000000000d24 .L0 
     /tmp/ccAbMSjc.s:2491   .text:0000000000000d28 .L0 
     /tmp/ccAbMSjc.s:2493   .text:0000000000000d28 .L0 
     /tmp/ccAbMSjc.s:2494   .text:0000000000000d28 .L0 
src/kernel/riscv.cpp:737    .text:0000000000000d28 .L0 
     /tmp/ccAbMSjc.s:2501   .text:0000000000000d2c .L0 
     /tmp/ccAbMSjc.s:2503   .text:0000000000000d2c .L0 
     /tmp/ccAbMSjc.s:2507   .text:0000000000000d30 .L0 
     /tmp/ccAbMSjc.s:2508   .text:0000000000000d30 .L0 
     /tmp/ccAbMSjc.s:2514   .text:0000000000000d38 .L0 
     /tmp/ccAbMSjc.s:2516   .text:0000000000000d38 .L0 
     /tmp/ccAbMSjc.s:2519   .text:0000000000000d40 .L0 
     /tmp/ccAbMSjc.s:2520   .text:0000000000000d44 .L0 
     /tmp/ccAbMSjc.s:2521   .text:0000000000000d44 .L0 
     /tmp/ccAbMSjc.s:2523   .text:0000000000000d48 .L0 
     /tmp/ccAbMSjc.s:2524   .text:0000000000000d48 .L0 
     /tmp/ccAbMSjc.s:2526   .text:0000000000000d4c .L0 
     /tmp/ccAbMSjc.s:2529   .text:0000000000000d50 .L0 
     /tmp/ccAbMSjc.s:2533   .text:0000000000000d54 .L0 
     /tmp/ccAbMSjc.s:2535   .text:0000000000000d54 .L0 
     /tmp/ccAbMSjc.s:2536   .text:0000000000000d54 .L0 
     /tmp/ccAbMSjc.s:2543   .text:0000000000000d70 .L0 
     /tmp/ccAbMSjc.s:2549   .text:0000000000000d70 _ZN5RiscV18executeForkSyscallEv
     /tmp/ccAbMSjc.s:2552   .text:0000000000000d70 .L0 
     /tmp/ccAbMSjc.s:2555   .text:0000000000000d70 .L0 
     /tmp/ccAbMSjc.s:2556   .text:0000000000000d74 .L0 
     /tmp/ccAbMSjc.s:2561   .text:0000000000000d84 .L0 
     /tmp/ccAbMSjc.s:2562   .text:0000000000000d84 .L0 
     /tmp/ccAbMSjc.s:2563   .text:0000000000000d84 .L0 
     /tmp/ccAbMSjc.s:2564   .text:0000000000000d84 .L0 
     /tmp/ccAbMSjc.s:2566   .text:0000000000000d88 .L0 
     /tmp/ccAbMSjc.s:2568   .text:0000000000000d88 .L0 
     /tmp/ccAbMSjc.s:2569   .text:0000000000000d88 .L0 
     /tmp/ccAbMSjc.s:2576   .text:0000000000000d98 .L0 
     /tmp/ccAbMSjc.s:2577   .text:0000000000000d98 .L0 
     /tmp/ccAbMSjc.s:2586   .text:0000000000000db8 .L0 
     /tmp/ccAbMSjc.s:2587   .text:0000000000000db8 .L0 
     /tmp/ccAbMSjc.s:2594   .text:0000000000000dcc .L0 
     /tmp/ccAbMSjc.s:2604   .text:0000000000000de4 .L0 
     /tmp/ccAbMSjc.s:2606   .text:0000000000000de4 .L0 
     /tmp/ccAbMSjc.s:2609   .text:0000000000000de8 .L0 
     /tmp/ccAbMSjc.s:2610   .text:0000000000000de8 .L0 
     /tmp/ccAbMSjc.s:2614   .text:0000000000000df8 .L0 
GAS LISTING /tmp/ccAbMSjc.s 			page 121


     /tmp/ccAbMSjc.s:2615   .text:0000000000000df8 .L0 
     /tmp/ccAbMSjc.s:2618   .text:0000000000000e04 .L0 
     /tmp/ccAbMSjc.s:2620   .text:0000000000000e08 .L0 
     /tmp/ccAbMSjc.s:2623   .text:0000000000000e14 .L0 
     /tmp/ccAbMSjc.s:2625   .text:0000000000000e18 .L0 
     /tmp/ccAbMSjc.s:2627   .text:0000000000000e1c .L0 
     /tmp/ccAbMSjc.s:2629   .text:0000000000000e20 .L0 
     /tmp/ccAbMSjc.s:2630   .text:0000000000000e20 .L0 
     /tmp/ccAbMSjc.s:2633   .text:0000000000000e28 .L0 
     /tmp/ccAbMSjc.s:2635   .text:0000000000000e2c .L0 
     /tmp/ccAbMSjc.s:2637   .text:0000000000000e30 .L0 
     /tmp/ccAbMSjc.s:2640   .text:0000000000000e34 .L0 
     /tmp/ccAbMSjc.s:2641   .text:0000000000000e34 .L0 
     /tmp/ccAbMSjc.s:2643   .text:0000000000000e38 .L0 
     /tmp/ccAbMSjc.s:2644   .text:0000000000000e38 .L0 
src/kernel/riscv.cpp:782    .text:0000000000000e38 .L0 
     /tmp/ccAbMSjc.s:2650   .text:0000000000000e3c .L0 
src/kernel/riscv.cpp:784    .text:0000000000000e3c .L0 
     /tmp/ccAbMSjc.s:2655   .text:0000000000000e40 .L0 
src/kernel/riscv.cpp:786    .text:0000000000000e40 .L0 
     /tmp/ccAbMSjc.s:2660   .text:0000000000000e44 .L0 
src/kernel/riscv.cpp:788    .text:0000000000000e44 .L0 
     /tmp/ccAbMSjc.s:2665   .text:0000000000000e48 .L0 
src/kernel/riscv.cpp:790    .text:0000000000000e48 .L0 
     /tmp/ccAbMSjc.s:2670   .text:0000000000000e4c .L0 
src/kernel/riscv.cpp:793    .text:0000000000000e4c .L0 
     /tmp/ccAbMSjc.s:2675   .text:0000000000000e50 .L0 
src/kernel/riscv.cpp:795    .text:0000000000000e50 .L0 
     /tmp/ccAbMSjc.s:2680   .text:0000000000000e54 .L0 
src/kernel/riscv.cpp:797    .text:0000000000000e54 .L0 
     /tmp/ccAbMSjc.s:2685   .text:0000000000000e58 .L0 
src/kernel/riscv.cpp:799    .text:0000000000000e58 .L0 
     /tmp/ccAbMSjc.s:2690   .text:0000000000000e5c .L0 
     /tmp/ccAbMSjc.s:2692   .text:0000000000000e5c .L0 
     /tmp/ccAbMSjc.s:2695   .text:0000000000000e64 .L0 
     /tmp/ccAbMSjc.s:2697   .text:0000000000000e68 .L0 
     /tmp/ccAbMSjc.s:2698   .text:0000000000000e68 .L0 
     /tmp/ccAbMSjc.s:2700   .text:0000000000000e6c .L0 
     /tmp/ccAbMSjc.s:2702   .text:0000000000000e70 .L0 
     /tmp/ccAbMSjc.s:2703   .text:0000000000000e70 .L0 
     /tmp/ccAbMSjc.s:2712   .text:0000000000000e7c .L0 
     /tmp/ccAbMSjc.s:2713   .text:0000000000000e7c .L0 
src/kernel/riscv.cpp:813    .text:0000000000000e7c .L0 
     /tmp/ccAbMSjc.s:2719   .text:0000000000000e80 .L0 
     /tmp/ccAbMSjc.s:2721   .text:0000000000000e80 .L0 
     /tmp/ccAbMSjc.s:2724   .text:0000000000000e88 .L0 
     /tmp/ccAbMSjc.s:2725   .text:0000000000000e8c .L0 
     /tmp/ccAbMSjc.s:2726   .text:0000000000000e8c .L0 
     /tmp/ccAbMSjc.s:2728   .text:0000000000000e90 .L0 
     /tmp/ccAbMSjc.s:2729   .text:0000000000000e90 .L0 
     /tmp/ccAbMSjc.s:2731   .text:0000000000000e94 .L0 
     /tmp/ccAbMSjc.s:2734   .text:0000000000000e98 .L0 
     /tmp/ccAbMSjc.s:2736   .text:0000000000000e9c .L0 
     /tmp/ccAbMSjc.s:2740   .text:0000000000000ea0 .L0 
     /tmp/ccAbMSjc.s:2743   .text:0000000000000ea0 .L0 
     /tmp/ccAbMSjc.s:2752   .text:0000000000000eac .L0 
     /tmp/ccAbMSjc.s:2760   .text:0000000000000ec4 .L0 
GAS LISTING /tmp/ccAbMSjc.s 			page 122


     /tmp/ccAbMSjc.s:2789   .text:0000000000000ec4 _ZN5RiscV5getPCEv
     /tmp/ccAbMSjc.s:2792   .text:0000000000000ec4 .L0 
     /tmp/ccAbMSjc.s:2793   .text:0000000000000ec4 .L0 
     /tmp/ccAbMSjc.s:2794   .text:0000000000000ec8 .L0 
     /tmp/ccAbMSjc.s:2796   .text:0000000000000ecc .L0 
     /tmp/ccAbMSjc.s:2798   .text:0000000000000ed0 .L0 
     /tmp/ccAbMSjc.s:2800   .text:0000000000000ed0 .L0 
     /tmp/ccAbMSjc.s:2801   .text:0000000000000ed0 .L0 
src/kernel/riscv.cpp:822    .text:0000000000000ed0 .L0 
     /tmp/ccAbMSjc.s:2808   .text:0000000000000ed4 .L0 
     /tmp/ccAbMSjc.s:2810   .text:0000000000000ed4 .L0 
     /tmp/ccAbMSjc.s:2813   .text:0000000000000ed8 .L0 
     /tmp/ccAbMSjc.s:2816   .text:0000000000000ee4 .L0 
     /tmp/ccAbMSjc.s:2817   .text:0000000000000ee8 .L0 
     /tmp/ccAbMSjc.s:2818   .text:0000000000000ee8 .L0 
     /tmp/ccAbMSjc.s:2820   .text:0000000000000eec .L0 
     /tmp/ccAbMSjc.s:2822   .text:0000000000000ef0 .L0 
     /tmp/ccAbMSjc.s:2851   .text:0000000000000ef0 _ZN5RiscV20handleSupervisorTrapEv
     /tmp/ccAbMSjc.s:2854   .text:0000000000000ef0 .L0 
     /tmp/ccAbMSjc.s:2855   .text:0000000000000ef0 .L0 
     /tmp/ccAbMSjc.s:2856   .text:0000000000000ef4 .L0 
     /tmp/ccAbMSjc.s:2860   .text:0000000000000f00 .L0 
     /tmp/ccAbMSjc.s:2861   .text:0000000000000f00 .L0 
     /tmp/ccAbMSjc.s:2862   .text:0000000000000f00 .L0 
     /tmp/ccAbMSjc.s:2864   .text:0000000000000f04 .L0 
     /tmp/ccAbMSjc.s:2866   .text:0000000000000f04 .L0 
     /tmp/ccAbMSjc.s:2867   .text:0000000000000f04 .L0 
src/kernel/riscv.cpp:157    .text:0000000000000f04 .L0 
     /tmp/ccAbMSjc.s:2877   .text:0000000000000f08 .L0 
     /tmp/ccAbMSjc.s:2878   .text:0000000000000f08 .L0 
     /tmp/ccAbMSjc.s:2879   .text:0000000000000f08 .L0 
src/kernel/../../h/riscv.hpp:146    .text:0000000000000f08 .L0 
     /tmp/ccAbMSjc.s:2887   .text:0000000000000f10 .L0 
     /tmp/ccAbMSjc.s:2888   .text:0000000000000f10 .L0 
     /tmp/ccAbMSjc.s:2892   .text:0000000000000f14 .L0 
     /tmp/ccAbMSjc.s:2894   .text:0000000000000f18 .L0 
     /tmp/ccAbMSjc.s:2895   .text:0000000000000f18 .L0 
src/kernel/riscv.cpp:160    .text:0000000000000f24 .L0 
     /tmp/ccAbMSjc.s:2906   .text:0000000000000f2c .L0 
     /tmp/ccAbMSjc.s:2907   .text:0000000000000f2c .L0 
     /tmp/ccAbMSjc.s:2909   .text:0000000000000f30 .L0 
     /tmp/ccAbMSjc.s:2912   .text:0000000000000f38 .L0 
     /tmp/ccAbMSjc.s:2914   .text:0000000000000f3c .L0 
     /tmp/ccAbMSjc.s:2920   .text:0000000000000f44 .L0 
     /tmp/ccAbMSjc.s:2921   .text:0000000000000f44 .L0 
     /tmp/ccAbMSjc.s:2923   .text:0000000000000f48 .L0 
     /tmp/ccAbMSjc.s:2933   .text:0000000000000f58 .L0 
     /tmp/ccAbMSjc.s:2934   .text:0000000000000f58 .L0 
     /tmp/ccAbMSjc.s:2936   .text:0000000000000f5c .L0 
     /tmp/ccAbMSjc.s:2948   .text:0000000000000f6c .L0 
     /tmp/ccAbMSjc.s:2949   .text:0000000000000f6c .L0 
     /tmp/ccAbMSjc.s:2951   .text:0000000000000f70 .L0 
     /tmp/ccAbMSjc.s:2955   .text:0000000000000f78 .L0 
     /tmp/ccAbMSjc.s:2956   .text:0000000000000f78 .L0 
     /tmp/ccAbMSjc.s:2960   .text:0000000000000f88 .L0 
     /tmp/ccAbMSjc.s:2961   .text:0000000000000f88 .L0 
     /tmp/ccAbMSjc.s:2967   .text:0000000000000f98 .L0 
GAS LISTING /tmp/ccAbMSjc.s 			page 123


     /tmp/ccAbMSjc.s:2968   .text:0000000000000f98 .L0 
     /tmp/ccAbMSjc.s:2969   .text:0000000000000f98 .L0 
src/kernel/../../h/riscv.hpp:146    .text:0000000000000f98 .L0 
     /tmp/ccAbMSjc.s:2977   .text:0000000000000fa0 .L0 
     /tmp/ccAbMSjc.s:2978   .text:0000000000000fa0 .L0 
     /tmp/ccAbMSjc.s:2983   .text:0000000000000fa4 .L0 
     /tmp/ccAbMSjc.s:2984   .text:0000000000000fa4 .L0 
     /tmp/ccAbMSjc.s:2991   .text:0000000000000fb8 .L0 
     /tmp/ccAbMSjc.s:2992   .text:0000000000000fb8 .L0 
     /tmp/ccAbMSjc.s:2998   .text:0000000000000fc8 .L0 
     /tmp/ccAbMSjc.s:2999   .text:0000000000000fc8 .L0 
     /tmp/ccAbMSjc.s:3000   .text:0000000000000fc8 .L0 
src/kernel/../../h/riscv.hpp:156    .text:0000000000000fc8 .L0 
     /tmp/ccAbMSjc.s:3009   .text:0000000000000fcc .L0 
     /tmp/ccAbMSjc.s:3010   .text:0000000000000fcc .L0 
     /tmp/ccAbMSjc.s:3011   .text:0000000000000fcc .L0 
     /tmp/ccAbMSjc.s:3017   .text:0000000000000fe0 .L0 
     /tmp/ccAbMSjc.s:3018   .text:0000000000000fe0 .L0 
     /tmp/ccAbMSjc.s:3022   .text:0000000000000ff0 .L0 
     /tmp/ccAbMSjc.s:3023   .text:0000000000000ff0 .L0 
     /tmp/ccAbMSjc.s:3030   .text:0000000000001010 .L0 
     /tmp/ccAbMSjc.s:3031   .text:0000000000001010 .L0 
     /tmp/ccAbMSjc.s:3035   .text:000000000000101c .L0 
     /tmp/ccAbMSjc.s:3036   .text:000000000000101c .L0 
     /tmp/ccAbMSjc.s:3039   .text:0000000000001024 .L0 
     /tmp/ccAbMSjc.s:3040   .text:0000000000001024 .L0 
     /tmp/ccAbMSjc.s:3044   .text:0000000000001034 .L0 
     /tmp/ccAbMSjc.s:3045   .text:0000000000001034 .L0 
     /tmp/ccAbMSjc.s:3057   .text:0000000000001040 .L0 
     /tmp/ccAbMSjc.s:3058   .text:0000000000001040 .L0 
     /tmp/ccAbMSjc.s:3059   .text:0000000000001040 .L0 
src/kernel/../../h/riscv.hpp:176    .text:0000000000001040 .L0 
     /tmp/ccAbMSjc.s:3069   .text:0000000000001044 .L0 
     /tmp/ccAbMSjc.s:3070   .text:0000000000001044 .L0 
     /tmp/ccAbMSjc.s:3074   .text:0000000000001048 .L0 
     /tmp/ccAbMSjc.s:3075   .text:0000000000001048 .L0 
     /tmp/ccAbMSjc.s:3076   .text:0000000000001048 .L0 
src/kernel/../../h/riscv.hpp:156    .text:0000000000001048 .L0 
     /tmp/ccAbMSjc.s:3086   .text:000000000000104c .L0 
     /tmp/ccAbMSjc.s:3087   .text:000000000000104c .L0 
     /tmp/ccAbMSjc.s:3089   .text:0000000000001050 .L0 
     /tmp/ccAbMSjc.s:3091   .text:0000000000001054 .L0 
     /tmp/ccAbMSjc.s:3092   .text:0000000000001054 .L0 
     /tmp/ccAbMSjc.s:3095   .text:0000000000001060 .L0 
     /tmp/ccAbMSjc.s:3098   .text:0000000000001068 .L0 
     /tmp/ccAbMSjc.s:3099   .text:0000000000001068 .L0 
     /tmp/ccAbMSjc.s:3102   .text:0000000000001070 .L0 
     /tmp/ccAbMSjc.s:3103   .text:0000000000001070 .L0 
src/kernel/riscv.cpp:182    .text:0000000000001070 .L0 
     /tmp/ccAbMSjc.s:3111   .text:0000000000001074 .L0 
     /tmp/ccAbMSjc.s:3225   .text:0000000000001098 .L0 
     /tmp/ccAbMSjc.s:3226   .text:0000000000001098 .L0 
     /tmp/ccAbMSjc.s:3227   .text:0000000000001098 .L0 
     /tmp/ccAbMSjc.s:3231   .text:00000000000010a0 .L0 
     /tmp/ccAbMSjc.s:3232   .text:00000000000010a0 .L0 
     /tmp/ccAbMSjc.s:3233   .text:00000000000010a0 .L0 
     /tmp/ccAbMSjc.s:3240   .text:00000000000010b0 .L0 
GAS LISTING /tmp/ccAbMSjc.s 			page 124


src/kernel/../../h/riscv.hpp:171    .text:00000000000010b0 .L0 
     /tmp/ccAbMSjc.s:3250   .text:00000000000010b4 .L0 
     /tmp/ccAbMSjc.s:3251   .text:00000000000010b4 .L0 
     /tmp/ccAbMSjc.s:3256   .text:00000000000010b8 .L0 
src/kernel/../../h/riscv.hpp:161    .text:00000000000010b8 .L0 
     /tmp/ccAbMSjc.s:3269   .text:00000000000010bc .L0 
     /tmp/ccAbMSjc.s:3270   .text:00000000000010bc .L0 
     /tmp/ccAbMSjc.s:3273   .text:00000000000010c4 .L0 
     /tmp/ccAbMSjc.s:3274   .text:00000000000010c8 .L0 
     /tmp/ccAbMSjc.s:3275   .text:00000000000010c8 .L0 
     /tmp/ccAbMSjc.s:3277   .text:00000000000010cc .L0 
     /tmp/ccAbMSjc.s:3278   .text:00000000000010cc .L0 
     /tmp/ccAbMSjc.s:3280   .text:00000000000010d0 .L0 
     /tmp/ccAbMSjc.s:3283   .text:00000000000010d4 .L0 
     /tmp/ccAbMSjc.s:3287   .text:00000000000010d8 .L0 
     /tmp/ccAbMSjc.s:3291   .text:00000000000010d8 .L0 
     /tmp/ccAbMSjc.s:3292   .text:00000000000010d8 .L0 
     /tmp/ccAbMSjc.s:3293   .text:00000000000010d8 .L0 
     /tmp/ccAbMSjc.s:3296   .text:00000000000010e0 .L0 
     /tmp/ccAbMSjc.s:3299   .text:00000000000010e4 .L0 
     /tmp/ccAbMSjc.s:3300   .text:00000000000010e4 .L0 
     /tmp/ccAbMSjc.s:3301   .text:00000000000010e4 .L0 
     /tmp/ccAbMSjc.s:3304   .text:00000000000010ec .L0 
     /tmp/ccAbMSjc.s:3307   .text:00000000000010f0 .L0 
     /tmp/ccAbMSjc.s:3308   .text:00000000000010f0 .L0 
     /tmp/ccAbMSjc.s:3309   .text:00000000000010f0 .L0 
     /tmp/ccAbMSjc.s:3312   .text:00000000000010f8 .L0 
     /tmp/ccAbMSjc.s:3315   .text:00000000000010fc .L0 
     /tmp/ccAbMSjc.s:3316   .text:00000000000010fc .L0 
     /tmp/ccAbMSjc.s:3317   .text:00000000000010fc .L0 
     /tmp/ccAbMSjc.s:3320   .text:0000000000001104 .L0 
     /tmp/ccAbMSjc.s:3323   .text:0000000000001108 .L0 
     /tmp/ccAbMSjc.s:3324   .text:0000000000001108 .L0 
     /tmp/ccAbMSjc.s:3325   .text:0000000000001108 .L0 
     /tmp/ccAbMSjc.s:3328   .text:0000000000001110 .L0 
     /tmp/ccAbMSjc.s:3331   .text:0000000000001114 .L0 
     /tmp/ccAbMSjc.s:3332   .text:0000000000001114 .L0 
     /tmp/ccAbMSjc.s:3333   .text:0000000000001114 .L0 
     /tmp/ccAbMSjc.s:3336   .text:000000000000111c .L0 
     /tmp/ccAbMSjc.s:3339   .text:0000000000001120 .L0 
     /tmp/ccAbMSjc.s:3340   .text:0000000000001120 .L0 
     /tmp/ccAbMSjc.s:3341   .text:0000000000001120 .L0 
     /tmp/ccAbMSjc.s:3344   .text:0000000000001128 .L0 
     /tmp/ccAbMSjc.s:3347   .text:000000000000112c .L0 
     /tmp/ccAbMSjc.s:3348   .text:000000000000112c .L0 
     /tmp/ccAbMSjc.s:3349   .text:000000000000112c .L0 
     /tmp/ccAbMSjc.s:3352   .text:0000000000001134 .L0 
     /tmp/ccAbMSjc.s:3355   .text:0000000000001138 .L0 
     /tmp/ccAbMSjc.s:3356   .text:0000000000001138 .L0 
     /tmp/ccAbMSjc.s:3357   .text:0000000000001138 .L0 
     /tmp/ccAbMSjc.s:3360   .text:0000000000001140 .L0 
     /tmp/ccAbMSjc.s:3363   .text:0000000000001144 .L0 
     /tmp/ccAbMSjc.s:3364   .text:0000000000001144 .L0 
     /tmp/ccAbMSjc.s:3365   .text:0000000000001144 .L0 
     /tmp/ccAbMSjc.s:3368   .text:000000000000114c .L0 
     /tmp/ccAbMSjc.s:3371   .text:0000000000001150 .L0 
     /tmp/ccAbMSjc.s:3372   .text:0000000000001150 .L0 
GAS LISTING /tmp/ccAbMSjc.s 			page 125


     /tmp/ccAbMSjc.s:3373   .text:0000000000001150 .L0 
     /tmp/ccAbMSjc.s:3376   .text:0000000000001158 .L0 
     /tmp/ccAbMSjc.s:3379   .text:000000000000115c .L0 
     /tmp/ccAbMSjc.s:3380   .text:000000000000115c .L0 
     /tmp/ccAbMSjc.s:3381   .text:000000000000115c .L0 
     /tmp/ccAbMSjc.s:3384   .text:0000000000001164 .L0 
     /tmp/ccAbMSjc.s:3387   .text:0000000000001168 .L0 
     /tmp/ccAbMSjc.s:3388   .text:0000000000001168 .L0 
     /tmp/ccAbMSjc.s:3389   .text:0000000000001168 .L0 
     /tmp/ccAbMSjc.s:3392   .text:0000000000001170 .L0 
     /tmp/ccAbMSjc.s:3395   .text:0000000000001174 .L0 
     /tmp/ccAbMSjc.s:3396   .text:0000000000001174 .L0 
     /tmp/ccAbMSjc.s:3397   .text:0000000000001174 .L0 
     /tmp/ccAbMSjc.s:3400   .text:000000000000117c .L0 
     /tmp/ccAbMSjc.s:3403   .text:0000000000001180 .L0 
     /tmp/ccAbMSjc.s:3404   .text:0000000000001180 .L0 
     /tmp/ccAbMSjc.s:3405   .text:0000000000001180 .L0 
     /tmp/ccAbMSjc.s:3408   .text:0000000000001188 .L0 
     /tmp/ccAbMSjc.s:3411   .text:000000000000118c .L0 
     /tmp/ccAbMSjc.s:3412   .text:000000000000118c .L0 
     /tmp/ccAbMSjc.s:3413   .text:000000000000118c .L0 
     /tmp/ccAbMSjc.s:3416   .text:0000000000001194 .L0 
     /tmp/ccAbMSjc.s:3419   .text:0000000000001198 .L0 
     /tmp/ccAbMSjc.s:3420   .text:0000000000001198 .L0 
src/kernel/riscv.cpp:205    .text:0000000000001198 .L0 
     /tmp/ccAbMSjc.s:3429   .text:00000000000011a8 .L0 
     /tmp/ccAbMSjc.s:3430   .text:00000000000011a8 .L0 
     /tmp/ccAbMSjc.s:3433   .text:00000000000011b0 .L0 
     /tmp/ccAbMSjc.s:3434   .text:00000000000011b0 .L0 
     /tmp/ccAbMSjc.s:3437   .text:00000000000011b8 .L0 
     /tmp/ccAbMSjc.s:3445   .text:00000000000011bc .L0 
     /tmp/ccAbMSjc.s:3446   .text:00000000000011bc .L0 
     /tmp/ccAbMSjc.s:3447   .text:00000000000011bc .L0 
src/kernel/../../h/riscv.hpp:176    .text:00000000000011bc .L0 
     /tmp/ccAbMSjc.s:3457   .text:00000000000011c0 .L0 
     /tmp/ccAbMSjc.s:3458   .text:00000000000011c0 .L0 
     /tmp/ccAbMSjc.s:3462   .text:00000000000011c4 .L0 
     /tmp/ccAbMSjc.s:3463   .text:00000000000011c4 .L0 
     /tmp/ccAbMSjc.s:3464   .text:00000000000011c4 .L0 
src/kernel/../../h/riscv.hpp:156    .text:00000000000011c4 .L0 
     /tmp/ccAbMSjc.s:3474   .text:00000000000011c8 .L0 
     /tmp/ccAbMSjc.s:3475   .text:00000000000011c8 .L0 
     /tmp/ccAbMSjc.s:3480   .text:00000000000011cc .L0 
     /tmp/ccAbMSjc.s:3481   .text:00000000000011cc .L0 
     /tmp/ccAbMSjc.s:3482   .text:00000000000011cc .L0 
     /tmp/ccAbMSjc.s:3492   .text:00000000000011d4 .L0 
     /tmp/ccAbMSjc.s:3493   .text:00000000000011d4 .L0 
     /tmp/ccAbMSjc.s:3498   .text:00000000000011e8 .L0 
     /tmp/ccAbMSjc.s:3499   .text:00000000000011e8 .L0 
     /tmp/ccAbMSjc.s:3502   .text:00000000000011f0 .L0 
     /tmp/ccAbMSjc.s:3503   .text:00000000000011f0 .L0 
     /tmp/ccAbMSjc.s:3509   .text:0000000000001204 .L0 
     /tmp/ccAbMSjc.s:3510   .text:0000000000001204 .L0 
     /tmp/ccAbMSjc.s:3514   .text:0000000000001214 .L0 
     /tmp/ccAbMSjc.s:3518   .text:0000000000001218 .L0 
     /tmp/ccAbMSjc.s:3519   .text:0000000000001218 .L0 
     /tmp/ccAbMSjc.s:3524   .text:000000000000121c .L0 
GAS LISTING /tmp/ccAbMSjc.s 			page 126


src/kernel/../../h/riscv.hpp:171    .text:000000000000121c .L0 
     /tmp/ccAbMSjc.s:3534   .text:0000000000001220 .L0 
     /tmp/ccAbMSjc.s:3535   .text:0000000000001220 .L0 
     /tmp/ccAbMSjc.s:3540   .text:0000000000001224 .L0 
src/kernel/../../h/riscv.hpp:161    .text:0000000000001224 .L0 
     /tmp/ccAbMSjc.s:3547   .text:0000000000001228 .L0 
     /tmp/ccAbMSjc.s:3555   .text:000000000000122c .L0 
     /tmp/ccAbMSjc.s:3556   .text:000000000000122c .L0 
     /tmp/ccAbMSjc.s:3560   .text:0000000000001238 .L0 
     /tmp/ccAbMSjc.s:3561   .text:0000000000001238 .L0 
     /tmp/ccAbMSjc.s:3562   .text:0000000000001238 .L0 
     /tmp/ccAbMSjc.s:3565   .text:0000000000001240 .L0 
     /tmp/ccAbMSjc.s:3566   .text:0000000000001240 .L0 
     /tmp/ccAbMSjc.s:3578   .text:000000000000124c .L0 
     /tmp/ccAbMSjc.s:3579   .text:000000000000124c .L0 
     /tmp/ccAbMSjc.s:3580   .text:000000000000124c .L0 
src/kernel/../../h/riscv.hpp:176    .text:000000000000124c .L0 
     /tmp/ccAbMSjc.s:3590   .text:0000000000001250 .L0 
     /tmp/ccAbMSjc.s:3591   .text:0000000000001250 .L0 
     /tmp/ccAbMSjc.s:3595   .text:0000000000001254 .L0 
     /tmp/ccAbMSjc.s:3596   .text:0000000000001254 .L0 
     /tmp/ccAbMSjc.s:3597   .text:0000000000001254 .L0 
src/kernel/../../h/riscv.hpp:156    .text:0000000000001254 .L0 
     /tmp/ccAbMSjc.s:3607   .text:0000000000001258 .L0 
     /tmp/ccAbMSjc.s:3608   .text:0000000000001258 .L0 
     /tmp/ccAbMSjc.s:3610   .text:000000000000125c .L0 
     /tmp/ccAbMSjc.s:3611   .text:000000000000125c .L0 
     /tmp/ccAbMSjc.s:3615   .text:0000000000001268 .L0 
src/kernel/riscv.cpp:260    .text:0000000000001268 .L0 
     /tmp/ccAbMSjc.s:3621   .text:000000000000126c .L0 
src/kernel/riscv.cpp:261    .text:000000000000126c .L0 
     /tmp/ccAbMSjc.s:3626   .text:0000000000001270 .L0 
src/kernel/riscv.cpp:262    .text:0000000000001270 .L0 
     /tmp/ccAbMSjc.s:3634   .text:0000000000001274 .L0 
     /tmp/ccAbMSjc.s:3635   .text:0000000000001274 .L0 
     /tmp/ccAbMSjc.s:3638   .text:0000000000001278 .L0 
     /tmp/ccAbMSjc.s:3641   .text:000000000000127c .L0 
     /tmp/ccAbMSjc.s:3642   .text:000000000000127c .L0 
     /tmp/ccAbMSjc.s:3643   .text:000000000000127c .L0 
     /tmp/ccAbMSjc.s:3644   .text:000000000000127c .L0 
     /tmp/ccAbMSjc.s:3648   .text:0000000000001288 .L0 
src/kernel/riscv.cpp:271    .text:0000000000001288 .L0 
     /tmp/ccAbMSjc.s:3654   .text:000000000000128c .L0 
src/kernel/riscv.cpp:272    .text:000000000000128c .L0 
     /tmp/ccAbMSjc.s:3659   .text:0000000000001290 .L0 
src/kernel/riscv.cpp:273    .text:0000000000001290 .L0 
     /tmp/ccAbMSjc.s:3667   .text:0000000000001298 .L0 
     /tmp/ccAbMSjc.s:3668   .text:0000000000001298 .L0 
     /tmp/ccAbMSjc.s:3672   .text:00000000000012a4 .L0 
     /tmp/ccAbMSjc.s:3678   .text:00000000000012a8 .L0 
     /tmp/ccAbMSjc.s:3679   .text:00000000000012a8 .L0 
     /tmp/ccAbMSjc.s:3684   .text:00000000000012b8 .L0 
     /tmp/ccAbMSjc.s:3685   .text:00000000000012b8 .L0 
     /tmp/ccAbMSjc.s:3690   .text:00000000000012bc .L0 
src/kernel/../../h/riscv.hpp:171    .text:00000000000012bc .L0 
     /tmp/ccAbMSjc.s:3700   .text:00000000000012c0 .L0 
     /tmp/ccAbMSjc.s:3701   .text:00000000000012c0 .L0 
GAS LISTING /tmp/ccAbMSjc.s 			page 127


     /tmp/ccAbMSjc.s:3706   .text:00000000000012c4 .L0 
src/kernel/../../h/riscv.hpp:161    .text:00000000000012c4 .L0 
     /tmp/ccAbMSjc.s:3713   .text:00000000000012c8 .L0 
     /tmp/ccAbMSjc.s:3721   .text:00000000000012cc .L0 
     /tmp/ccAbMSjc.s:3722   .text:00000000000012cc .L0 
     /tmp/ccAbMSjc.s:3726   .text:00000000000012dc .L0 
     /tmp/ccAbMSjc.s:3727   .text:00000000000012dc .L0 
     /tmp/ccAbMSjc.s:3738   .text:00000000000012e8 .L0 
     /tmp/ccAbMSjc.s:3739   .text:00000000000012e8 .L0 
     /tmp/ccAbMSjc.s:3743   .text:00000000000012f4 .L0 
     /tmp/ccAbMSjc.s:3744   .text:00000000000012f4 .L0 
     /tmp/ccAbMSjc.s:3747   .text:00000000000012fc .L0 
     /tmp/ccAbMSjc.s:3748   .text:00000000000012fc .L0 
     /tmp/ccAbMSjc.s:3754   .text:000000000000130c .L0 
     /tmp/ccAbMSjc.s:3755   .text:000000000000130c .L0 
     /tmp/ccAbMSjc.s:3756   .text:000000000000130c .L0 
src/kernel/../../h/riscv.hpp:156    .text:000000000000130c .L0 
     /tmp/ccAbMSjc.s:3765   .text:0000000000001310 .L0 
     /tmp/ccAbMSjc.s:3766   .text:0000000000001310 .L0 
     /tmp/ccAbMSjc.s:3767   .text:0000000000001310 .L0 
     /tmp/ccAbMSjc.s:3773   .text:0000000000001324 .L0 
     /tmp/ccAbMSjc.s:3774   .text:0000000000001324 .L0 
     /tmp/ccAbMSjc.s:3778   .text:0000000000001334 .L0 
     /tmp/ccAbMSjc.s:3779   .text:0000000000001334 .L0 
     /tmp/ccAbMSjc.s:3783   .text:0000000000001344 .L0 
     /tmp/ccAbMSjc.s:3784   .text:0000000000001344 .L0 
     /tmp/ccAbMSjc.s:3792   .text:0000000000001350 .L0 
     /tmp/ccAbMSjc.s:3798   .text:0000000000001350 _ZN5RiscV16threadCreateUtilEPP3TCBPFvPvES3_
     /tmp/ccAbMSjc.s:3801   .text:0000000000001350 .L0 
     /tmp/ccAbMSjc.s:3803   .text:0000000000001350 .L0 
     /tmp/ccAbMSjc.s:3804   .text:0000000000001354 .L0 
     /tmp/ccAbMSjc.s:3810   .text:0000000000001368 .L0 
     /tmp/ccAbMSjc.s:3811   .text:0000000000001368 .L0 
     /tmp/ccAbMSjc.s:3812   .text:0000000000001368 .L0 
     /tmp/ccAbMSjc.s:3813   .text:0000000000001368 .L0 
     /tmp/ccAbMSjc.s:3814   .text:0000000000001368 .L0 
     /tmp/ccAbMSjc.s:3816   .text:000000000000136c .L0 
     /tmp/ccAbMSjc.s:3822   .text:0000000000001378 .L0 
     /tmp/ccAbMSjc.s:3823   .text:0000000000001378 .L0 
     /tmp/ccAbMSjc.s:3824   .text:0000000000001378 .L0 
     /tmp/ccAbMSjc.s:3825   .text:0000000000001378 .L0 
     /tmp/ccAbMSjc.s:3826   .text:0000000000001378 .L0 
     /tmp/ccAbMSjc.s:3828   .text:000000000000137c .L0 
     /tmp/ccAbMSjc.s:3829   .text:000000000000137c .L0 
     /tmp/ccAbMSjc.s:3834   .text:0000000000001388 .L0 
     /tmp/ccAbMSjc.s:3836   .text:000000000000138c .L0 
     /tmp/ccAbMSjc.s:3837   .text:000000000000138c .L0 
     /tmp/ccAbMSjc.s:3839   .text:0000000000001390 .L0 
     /tmp/ccAbMSjc.s:3843   .text:0000000000001394 .L0 
     /tmp/ccAbMSjc.s:3847   .text:0000000000001398 .L0 
src/kernel/riscv.cpp:841    .text:0000000000001398 .L0 
     /tmp/ccAbMSjc.s:3853   .text:000000000000139c .L0 
src/kernel/riscv.cpp:842    .text:000000000000139c .L0 
     /tmp/ccAbMSjc.s:3858   .text:00000000000013a0 .L0 
src/kernel/riscv.cpp:843    .text:00000000000013a0 .L0 
     /tmp/ccAbMSjc.s:3863   .text:00000000000013a4 .L0 
src/kernel/riscv.cpp:844    .text:00000000000013a4 .L0 
GAS LISTING /tmp/ccAbMSjc.s 			page 128


     /tmp/ccAbMSjc.s:3868   .text:00000000000013a8 .L0 
src/kernel/riscv.cpp:845    .text:00000000000013a8 .L0 
     /tmp/ccAbMSjc.s:3873   .text:00000000000013ac .L0 
src/kernel/riscv.cpp:847    .text:00000000000013ac .L0 
     /tmp/ccAbMSjc.s:3878   .text:00000000000013b0 .L0 
     /tmp/ccAbMSjc.s:3882   .text:00000000000013b0 .L0 
     /tmp/ccAbMSjc.s:3883   .text:00000000000013b0 .L0 
     /tmp/ccAbMSjc.s:3884   .text:00000000000013b4 .L0 
     /tmp/ccAbMSjc.s:3886   .text:00000000000013b8 .L0 
     /tmp/ccAbMSjc.s:3887   .text:00000000000013b8 .L0 
     /tmp/ccAbMSjc.s:3889   .text:00000000000013bc .L0 
     /tmp/ccAbMSjc.s:3892   .text:00000000000013c0 .L0 
     /tmp/ccAbMSjc.s:3895   .text:00000000000013c4 .L0 
     /tmp/ccAbMSjc.s:3898   .text:00000000000013c8 .L0 
     /tmp/ccAbMSjc.s:3900   .text:00000000000013cc .L0 
     /tmp/ccAbMSjc.s:3906   .text:00000000000013cc _ZN5RiscV14threadExitUtilEv
     /tmp/ccAbMSjc.s:3909   .text:00000000000013cc .L0 
     /tmp/ccAbMSjc.s:3910   .text:00000000000013cc .L0 
     /tmp/ccAbMSjc.s:3911   .text:00000000000013d0 .L0 
     /tmp/ccAbMSjc.s:3913   .text:00000000000013d4 .L0 
     /tmp/ccAbMSjc.s:3915   .text:00000000000013d8 .L0 
     /tmp/ccAbMSjc.s:3917   .text:00000000000013d8 .L0 
src/kernel/riscv.cpp:856    .text:00000000000013d8 .L0 
     /tmp/ccAbMSjc.s:3923   .text:00000000000013dc .L0 
src/kernel/riscv.cpp:858    .text:00000000000013dc .L0 
     /tmp/ccAbMSjc.s:3928   .text:00000000000013e0 .L0 
     /tmp/ccAbMSjc.s:3930   .text:00000000000013e0 .L0 
     /tmp/ccAbMSjc.s:3932   .text:00000000000013e0 .L0 
     /tmp/ccAbMSjc.s:3933   .text:00000000000013e4 .L0 
     /tmp/ccAbMSjc.s:3934   .text:00000000000013e4 .L0 
     /tmp/ccAbMSjc.s:3936   .text:00000000000013e8 .L0 
     /tmp/ccAbMSjc.s:3938   .text:00000000000013ec .L0 
     /tmp/ccAbMSjc.s:3963   .bss:0000000000000018 _ZN5RiscV4uPMTE
     /tmp/ccAbMSjc.s:3950   .bss:0000000000000000 _ZN5RiscV4kPMTE
     /tmp/ccAbMSjc.s:3954   .bss:0000000000000008 _ZN5RiscV16userMainFinishedE
     /tmp/ccAbMSjc.s:3959   .bss:0000000000000010 _ZN5RiscV10globalTimeE
     /tmp/ccAbMSjc.s:3947   .bss:0000000000000000 .LANCHOR0
     /tmp/ccAbMSjc.s:3978   .text:00000000000013ec .L0 
     /tmp/ccAbMSjc.s:256    .text:0000000000000164 .L0 
     /tmp/ccAbMSjc.s:273    .text:0000000000000170 .L0 
     /tmp/ccAbMSjc.s:307    .text:00000000000001c4 .L0 
     /tmp/ccAbMSjc.s:310    .text:00000000000001cc .L0 
     /tmp/ccAbMSjc.s:314    .text:00000000000001d4 .L0 
     /tmp/ccAbMSjc.s:318    .text:00000000000001dc .L0 
     /tmp/ccAbMSjc.s:322    .text:00000000000001e4 .L0 
     /tmp/ccAbMSjc.s:330    .text:00000000000001f0 .L0 
     /tmp/ccAbMSjc.s:335    .text:00000000000001fc .L0 
     /tmp/ccAbMSjc.s:339    .text:000000000000020c .L0 
     /tmp/ccAbMSjc.s:357    .text:0000000000000230 .L0 
     /tmp/ccAbMSjc.s:377    .text:0000000000000258 .L0 
     /tmp/ccAbMSjc.s:397    .text:0000000000000280 .L0 
     /tmp/ccAbMSjc.s:417    .text:00000000000002a8 .L0 
     /tmp/ccAbMSjc.s:434    .text:00000000000002cc .L0 
     /tmp/ccAbMSjc.s:454    .text:00000000000002f4 .L0 
     /tmp/ccAbMSjc.s:472    .text:0000000000000318 .L0 
     /tmp/ccAbMSjc.s:501    .text:000000000000033c .L0 
     /tmp/ccAbMSjc.s:504    .text:0000000000000348 .L0 
GAS LISTING /tmp/ccAbMSjc.s 			page 129


     /tmp/ccAbMSjc.s:512    .text:0000000000000364 .L0 
     /tmp/ccAbMSjc.s:520    .text:0000000000000380 .L0 
     /tmp/ccAbMSjc.s:652    .text:0000000000000418 .L0 
     /tmp/ccAbMSjc.s:680    .text:0000000000000440 .L0 
     /tmp/ccAbMSjc.s:734    .text:0000000000000470 .L0 
     /tmp/ccAbMSjc.s:742    .text:0000000000000488 .L0 
     /tmp/ccAbMSjc.s:799    .text:00000000000004bc .L0 
     /tmp/ccAbMSjc.s:839    .text:00000000000004f8 .L0 
     /tmp/ccAbMSjc.s:844    .text:0000000000000504 .L0 
     /tmp/ccAbMSjc.s:907    .text:0000000000000554 .L0 
     /tmp/ccAbMSjc.s:944    .text:0000000000000580 .L0 
     /tmp/ccAbMSjc.s:971    .text:000000000000059c .L0 
     /tmp/ccAbMSjc.s:978    .text:00000000000005b0 .L0 
     /tmp/ccAbMSjc.s:1002   .text:00000000000005cc .L0 
     /tmp/ccAbMSjc.s:1071   .text:0000000000000618 .L0 
     /tmp/ccAbMSjc.s:1074   .text:0000000000000620 .L0 
     /tmp/ccAbMSjc.s:1078   .text:000000000000062c .L0 
     /tmp/ccAbMSjc.s:1131   .text:0000000000000648 .L0 
     /tmp/ccAbMSjc.s:1138   .text:000000000000065c .L0 
     /tmp/ccAbMSjc.s:1145   .text:000000000000066c .L0 
     /tmp/ccAbMSjc.s:1152   .text:0000000000000680 .L0 
     /tmp/ccAbMSjc.s:1154   .text:000000000000068c .L0 
     /tmp/ccAbMSjc.s:1199   .text:00000000000006c8 .L0 
     /tmp/ccAbMSjc.s:1296   .text:0000000000000738 .L0 
     /tmp/ccAbMSjc.s:1781   .text:000000000000097c .L0 
     /tmp/ccAbMSjc.s:2075   .text:0000000000000ad8 .L0 
     /tmp/ccAbMSjc.s:2213   .text:0000000000000b80 .L0 
     /tmp/ccAbMSjc.s:2218   .text:0000000000000b8c .L0 
     /tmp/ccAbMSjc.s:2285   .text:0000000000000bf4 .L0 
     /tmp/ccAbMSjc.s:2290   .text:0000000000000c00 .L0 
     /tmp/ccAbMSjc.s:2577   .text:0000000000000d98 .L0 
     /tmp/ccAbMSjc.s:2610   .text:0000000000000de8 .L0 
     /tmp/ccAbMSjc.s:2615   .text:0000000000000df8 .L0 
     /tmp/ccAbMSjc.s:2620   .text:0000000000000e08 .L0 
     /tmp/ccAbMSjc.s:2813   .text:0000000000000ed8 .L0 
     /tmp/ccAbMSjc.s:2895   .text:0000000000000f18 .L0 
     /tmp/ccAbMSjc.s:2836   .rodata.str1.8:0000000000000038 .LC3
     /tmp/ccAbMSjc.s:2956   .text:0000000000000f78 .L0 
     /tmp/ccAbMSjc.s:2839   .rodata.str1.8:0000000000000048 .LC4
     /tmp/ccAbMSjc.s:2961   .text:0000000000000f88 .L0 
     /tmp/ccAbMSjc.s:2827   .rodata.str1.8:0000000000000000 .LC0
     /tmp/ccAbMSjc.s:2992   .text:0000000000000fb8 .L0 
     /tmp/ccAbMSjc.s:2830   .rodata.str1.8:0000000000000008 .LC1
     /tmp/ccAbMSjc.s:3018   .text:0000000000000fe0 .L0 
     /tmp/ccAbMSjc.s:3024   .text:0000000000000ff4 .L0 
     /tmp/ccAbMSjc.s:2842   .rodata.str1.8:0000000000000058 .LC5
     /tmp/ccAbMSjc.s:3026   .text:0000000000001000 .L0 
     /tmp/ccAbMSjc.s:3031   .text:0000000000001010 .L0 
     /tmp/ccAbMSjc.s:2845   .rodata.str1.8:0000000000000060 .LC6
     /tmp/ccAbMSjc.s:3040   .text:0000000000001024 .L0 
     /tmp/ccAbMSjc.s:3092   .text:0000000000001054 .L0 
     /tmp/ccAbMSjc.s:3123   .rodata:0000000000000000 .L150
     /tmp/ccAbMSjc.s:3115   .text:0000000000001080 .L0 
     /tmp/ccAbMSjc.s:3233   .text:00000000000010a0 .L0 
     /tmp/ccAbMSjc.s:3426   .text:000000000000119c .L0 
     /tmp/ccAbMSjc.s:3493   .text:00000000000011d4 .L0 
     /tmp/ccAbMSjc.s:3503   .text:00000000000011f0 .L0 
GAS LISTING /tmp/ccAbMSjc.s 			page 130


     /tmp/ccAbMSjc.s:3510   .text:0000000000001204 .L0 
     /tmp/ccAbMSjc.s:3556   .text:000000000000122c .L0 
     /tmp/ccAbMSjc.s:3611   .text:000000000000125c .L0 
     /tmp/ccAbMSjc.s:3644   .text:000000000000127c .L0 
     /tmp/ccAbMSjc.s:3668   .text:0000000000001298 .L0 
     /tmp/ccAbMSjc.s:3723   .text:00000000000012d0 .L0 
     /tmp/ccAbMSjc.s:3739   .text:00000000000012e8 .L0 
     /tmp/ccAbMSjc.s:3748   .text:00000000000012fc .L0 
     /tmp/ccAbMSjc.s:3774   .text:0000000000001324 .L0 
     /tmp/ccAbMSjc.s:2833   .rodata.str1.8:0000000000000010 .LC2
     /tmp/ccAbMSjc.s:3779   .text:0000000000001334 .L0 
     /tmp/ccAbMSjc.s:48     .text:000000000000003c .L1
     /tmp/ccAbMSjc.s:33     .text:0000000000000020 .L3
     /tmp/ccAbMSjc.s:188    .text:00000000000000fc .L12
     /tmp/ccAbMSjc.s:205    .text:0000000000000118 .L13
     /tmp/ccAbMSjc.s:166    .text:00000000000000d8 .L5
     /tmp/ccAbMSjc.s:126    .text:00000000000000a4 .L7
     /tmp/ccAbMSjc.s:145    .text:00000000000000bc .L9
     /tmp/ccAbMSjc.s:367    .text:000000000000024c .L15
     /tmp/ccAbMSjc.s:350    .text:0000000000000224 .L16
     /tmp/ccAbMSjc.s:387    .text:0000000000000274 .L17
     /tmp/ccAbMSjc.s:407    .text:000000000000029c .L18
     /tmp/ccAbMSjc.s:424    .text:00000000000002c0 .L19
     /tmp/ccAbMSjc.s:445    .text:00000000000002e8 .L20
     /tmp/ccAbMSjc.s:480    .text:0000000000000330 .L21
     /tmp/ccAbMSjc.s:465    .text:0000000000000310 .L24
     /tmp/ccAbMSjc.s:704    .text:000000000000045c .L29
     /tmp/ccAbMSjc.s:687    .text:000000000000044c .L27
     /tmp/ccAbMSjc.s:769    .text:00000000000004a4 .L34
     /tmp/ccAbMSjc.s:752    .text:0000000000000494 .L32
     /tmp/ccAbMSjc.s:848    .text:0000000000000518 .L38
     /tmp/ccAbMSjc.s:900    .text:0000000000000554 .L41
     /tmp/ccAbMSjc.s:893    .text:000000000000054c .L42
     /tmp/ccAbMSjc.s:1032   .text:00000000000005f8 .L49
     /tmp/ccAbMSjc.s:1021   .text:00000000000005ec .L45
     /tmp/ccAbMSjc.s:1142   .text:000000000000066c .L51
     /tmp/ccAbMSjc.s:1123   .text:0000000000000648 .L52
     /tmp/ccAbMSjc.s:1163   .text:00000000000006a8 .L50
     /tmp/ccAbMSjc.s:1149   .text:0000000000000680 .L54
     /tmp/ccAbMSjc.s:1324   .text:0000000000000768 .L64
     /tmp/ccAbMSjc.s:1301   .text:000000000000074c .L61
     /tmp/ccAbMSjc.s:1415   .text:00000000000007d8 .L66
     /tmp/ccAbMSjc.s:1476   .text:0000000000000828 .L70
     /tmp/ccAbMSjc.s:1431   .text:00000000000007f0 .L68
     /tmp/ccAbMSjc.s:1437   .text:00000000000007f8 .L67
     /tmp/ccAbMSjc.s:1593   .text:00000000000008ac .L75
     /tmp/ccAbMSjc.s:1647   .text:00000000000008f0 .L78
     /tmp/ccAbMSjc.s:1608   .text:00000000000008c0 .L76
     /tmp/ccAbMSjc.s:1741   .text:000000000000094c .L86
     /tmp/ccAbMSjc.s:1718   .text:0000000000000930 .L83
     /tmp/ccAbMSjc.s:1824   .text:00000000000009bc .L89
     /tmp/ccAbMSjc.s:1800   .text:00000000000009a0 .L88
     /tmp/ccAbMSjc.s:1887   .text:0000000000000a08 .L92
     /tmp/ccAbMSjc.s:1929   .text:0000000000000a3c .L95
     /tmp/ccAbMSjc.s:1896   .text:0000000000000a14 .L93
     /tmp/ccAbMSjc.s:2028   .text:0000000000000aa0 .L103
     /tmp/ccAbMSjc.s:2001   .text:0000000000000a80 .L100
GAS LISTING /tmp/ccAbMSjc.s 			page 131


     /tmp/ccAbMSjc.s:2106   .text:0000000000000b0c .L109
     /tmp/ccAbMSjc.s:2114   .text:0000000000000b18 .L107
     /tmp/ccAbMSjc.s:2072   .text:0000000000000ad8 .L105
     /tmp/ccAbMSjc.s:2082   .text:0000000000000af0 .L106
     /tmp/ccAbMSjc.s:2174   .text:0000000000000b58 .L114
     /tmp/ccAbMSjc.s:2151   .text:0000000000000b3c .L111
     /tmp/ccAbMSjc.s:2294   .text:0000000000000c14 .L118
     /tmp/ccAbMSjc.s:2333   .text:0000000000000c50 .L122
     /tmp/ccAbMSjc.s:2348   .text:0000000000000c6c .L123
     /tmp/ccAbMSjc.s:2308   .text:0000000000000c30 .L120
     /tmp/ccAbMSjc.s:2456   .text:0000000000000cec .L129
     /tmp/ccAbMSjc.s:2428   .text:0000000000000cc8 .L127
     /tmp/ccAbMSjc.s:2532   .text:0000000000000d54 .L133
     /tmp/ccAbMSjc.s:2504   .text:0000000000000d30 .L131
     /tmp/ccAbMSjc.s:2602   .text:0000000000000de4 .L135
     /tmp/ccAbMSjc.s:2739   .text:0000000000000ea0 .L138
     /tmp/ccAbMSjc.s:2709   .text:0000000000000e7c .L136
     /tmp/ccAbMSjc.s:3048   .text:0000000000001040 .L145
     /tmp/ccAbMSjc.s:3438   .text:00000000000011bc .L175
     /tmp/ccAbMSjc.s:3570   .text:000000000000124c .L176
     /tmp/ccAbMSjc.s:3731   .text:00000000000012e8 .L177
     /tmp/ccAbMSjc.s:3263   .text:00000000000010bc .L168
     /tmp/ccAbMSjc.s:3230   .text:00000000000010a0 .L148
     /tmp/ccAbMSjc.s:3549   .text:000000000000122c .L178
     /tmp/ccAbMSjc.s:3515   .text:0000000000001218 .L169
     /tmp/ccAbMSjc.s:3674   .text:00000000000012a8 .L171
     /tmp/ccAbMSjc.s:3715   .text:00000000000012cc .L179
     /tmp/ccAbMSjc.s:3841   .text:0000000000001394 .L183
     /tmp/ccAbMSjc.s:3845   .text:0000000000001398 .L181
     /tmp/ccAbMSjc.s:3881   .text:00000000000013b0 .L180
     /tmp/ccAbMSjc.s:1400   .text:00000000000007b0 .LEHB0
     /tmp/ccAbMSjc.s:1347   .text:0000000000000778 .LFB50
     /tmp/ccAbMSjc.s:1403   .text:00000000000007b8 .LEHE0
     /tmp/ccAbMSjc.s:1411   .text:00000000000007d0 .LEHB1
     /tmp/ccAbMSjc.s:1414   .text:00000000000007d8 .LEHE1
     /tmp/ccAbMSjc.s:1482   .text:0000000000000830 .L71
     /tmp/ccAbMSjc.s:1427   .text:00000000000007e8 .LEHB2
     /tmp/ccAbMSjc.s:1430   .text:00000000000007f0 .LEHE2
     /tmp/ccAbMSjc.s:1490   .text:0000000000000844 .LEHB3
     /tmp/ccAbMSjc.s:1493   .text:000000000000084c .LEHE3
     /tmp/ccAbMSjc.s:1578   .text:0000000000000884 .LEHB4
     /tmp/ccAbMSjc.s:1525   .text:000000000000084c .LFB51
     /tmp/ccAbMSjc.s:1581   .text:000000000000088c .LEHE4
     /tmp/ccAbMSjc.s:1589   .text:00000000000008a4 .LEHB5
     /tmp/ccAbMSjc.s:1592   .text:00000000000008ac .LEHE5
     /tmp/ccAbMSjc.s:1653   .text:00000000000008f8 .L79
     /tmp/ccAbMSjc.s:1661   .text:000000000000090c .LEHB6
     /tmp/ccAbMSjc.s:1664   .text:0000000000000914 .LEHE6
     /tmp/ccAbMSjc.s:1875   .text:00000000000009ec .LEHB7
     /tmp/ccAbMSjc.s:1838   .text:00000000000009c4 .LFB55
     /tmp/ccAbMSjc.s:1878   .text:00000000000009f4 .LEHE7
     /tmp/ccAbMSjc.s:1883   .text:0000000000000a00 .LEHB8
     /tmp/ccAbMSjc.s:1886   .text:0000000000000a08 .LEHE8
     /tmp/ccAbMSjc.s:1935   .text:0000000000000a44 .L96
     /tmp/ccAbMSjc.s:1943   .text:0000000000000a58 .LEHB9
     /tmp/ccAbMSjc.s:1946   .text:0000000000000a60 .LEHE9
     /tmp/ccAbMSjc.s:2570   .text:0000000000000d8c .LEHB10
GAS LISTING /tmp/ccAbMSjc.s 			page 132


     /tmp/ccAbMSjc.s:2550   .text:0000000000000d70 .LFB69
     /tmp/ccAbMSjc.s:2590   .text:0000000000000dc4 .LEHE10
     /tmp/ccAbMSjc.s:2598   .text:0000000000000ddc .LEHB11
     /tmp/ccAbMSjc.s:2601   .text:0000000000000de4 .LEHE11
     /tmp/ccAbMSjc.s:2747   .text:0000000000000ea8 .L139
     /tmp/ccAbMSjc.s:2704   .text:0000000000000e74 .LEHB12
     /tmp/ccAbMSjc.s:2707   .text:0000000000000e7c .LEHE12
     /tmp/ccAbMSjc.s:2756   .text:0000000000000ebc .LEHB13
     /tmp/ccAbMSjc.s:2759   .text:0000000000000ec4 .LEHE13
     /tmp/ccAbMSjc.s:3223   .text:0000000000001098 .L167
     /tmp/ccAbMSjc.s:3286   .text:00000000000010d8 .L166
     /tmp/ccAbMSjc.s:3297   .text:00000000000010e4 .L165
     /tmp/ccAbMSjc.s:3305   .text:00000000000010f0 .L164
     /tmp/ccAbMSjc.s:3313   .text:00000000000010fc .L163
     /tmp/ccAbMSjc.s:3321   .text:0000000000001108 .L162
     /tmp/ccAbMSjc.s:3329   .text:0000000000001114 .L161
     /tmp/ccAbMSjc.s:3337   .text:0000000000001120 .L160
     /tmp/ccAbMSjc.s:3345   .text:000000000000112c .L159
     /tmp/ccAbMSjc.s:3353   .text:0000000000001138 .L158
     /tmp/ccAbMSjc.s:3361   .text:0000000000001144 .L157
     /tmp/ccAbMSjc.s:3369   .text:0000000000001150 .L156
     /tmp/ccAbMSjc.s:3377   .text:000000000000115c .L155
     /tmp/ccAbMSjc.s:3385   .text:0000000000001168 .L154
     /tmp/ccAbMSjc.s:3393   .text:0000000000001174 .L153
     /tmp/ccAbMSjc.s:3401   .text:0000000000001180 .L152
     /tmp/ccAbMSjc.s:3409   .text:000000000000118c .L151
     /tmp/ccAbMSjc.s:3417   .text:0000000000001198 .L149
     /tmp/ccAbMSjc.s:8641   .debug_abbrev:0000000000000000 .Ldebug_abbrev0
     /tmp/ccAbMSjc.s:12060  .debug_str:000000000000159e .LASF364
     /tmp/ccAbMSjc.s:11766  .debug_str:0000000000000c1e .LASF365
     /tmp/ccAbMSjc.s:11982  .debug_str:00000000000012b7 .LASF366
     /tmp/ccAbMSjc.s:5      .text:0000000000000000 .Ltext0
     /tmp/ccAbMSjc.s:3966   .text:00000000000013ec .Letext0
     /tmp/ccAbMSjc.s:11374  .debug_line:0000000000000000 .Ldebug_line0
     /tmp/ccAbMSjc.s:11426  .debug_str:00000000000001a5 .LASF0
     /tmp/ccAbMSjc.s:12056  .debug_str:0000000000001583 .LASF1
     /tmp/ccAbMSjc.s:11990  .debug_str:000000000000131f .LASF2
     /tmp/ccAbMSjc.s:11930  .debug_str:0000000000001131 .LASF4
     /tmp/ccAbMSjc.s:11948  .debug_str:00000000000011c2 .LASF3
     /tmp/ccAbMSjc.s:11580  .debug_str:00000000000005f6 .LASF5
     /tmp/ccAbMSjc.s:11650  .debug_str:0000000000000841 .LASF6
     /tmp/ccAbMSjc.s:11852  .debug_str:0000000000000eda .LASF7
     /tmp/ccAbMSjc.s:11468  .debug_str:00000000000002d1 .LASF8
     /tmp/ccAbMSjc.s:12042  .debug_str:00000000000014d2 .LASF9
     /tmp/ccAbMSjc.s:11584  .debug_str:0000000000000608 .LASF10
     /tmp/ccAbMSjc.s:11504  .debug_str:000000000000039c .LASF11
     /tmp/ccAbMSjc.s:11682  .debug_str:000000000000094e .LASF12
     /tmp/ccAbMSjc.s:11596  .debug_str:0000000000000669 .LASF13
     /tmp/ccAbMSjc.s:11910  .debug_str:00000000000010ab .LASF14
     /tmp/ccAbMSjc.s:11602  .debug_str:000000000000068e .LASF15
     /tmp/ccAbMSjc.s:11548  .debug_str:00000000000004ff .LASF16
     /tmp/ccAbMSjc.s:11480  .debug_str:0000000000000319 .LASF134
     /tmp/ccAbMSjc.s:11656  .debug_str:000000000000088a .LASF20
     /tmp/ccAbMSjc.s:12038  .debug_str:00000000000014b3 .LASF17
     /tmp/ccAbMSjc.s:11418  .debug_str:0000000000000134 .LASF18
     /tmp/ccAbMSjc.s:11620  .debug_str:0000000000000725 .LASF19
     /tmp/ccAbMSjc.s:11614  .debug_str:00000000000006e9 .LASF21
GAS LISTING /tmp/ccAbMSjc.s 			page 133


     /tmp/ccAbMSjc.s:11568  .debug_str:00000000000005ae .LASF22
     /tmp/ccAbMSjc.s:11868  .debug_str:0000000000000f68 .LASF23
     /tmp/ccAbMSjc.s:11914  .debug_str:00000000000010c6 .LASF24
     /tmp/ccAbMSjc.s:11416  .debug_str:0000000000000129 .LASF25
     /tmp/ccAbMSjc.s:11488  .debug_str:000000000000034b .LASF26
     /tmp/ccAbMSjc.s:11984  .debug_str:00000000000012e8 .LASF27
     /tmp/ccAbMSjc.s:11956  .debug_str:00000000000011f2 .LASF28
     /tmp/ccAbMSjc.s:11842  .debug_str:0000000000000ea5 .LASF29
     /tmp/ccAbMSjc.s:11764  .debug_str:0000000000000bfa .LASF31
     /tmp/ccAbMSjc.s:11640  .debug_str:00000000000007e5 .LASF30
     /tmp/ccAbMSjc.s:12044  .debug_str:00000000000014e0 .LASF32
     /tmp/ccAbMSjc.s:11466  .debug_str:00000000000002b6 .LASF33
     /tmp/ccAbMSjc.s:11668  .debug_str:00000000000008d9 .LASF34
     /tmp/ccAbMSjc.s:11526  .debug_str:000000000000042e .LASF35
     /tmp/ccAbMSjc.s:11988  .debug_str:00000000000012f9 .LASF36
     /tmp/ccAbMSjc.s:11782  .debug_str:0000000000000ca9 .LASF37
     /tmp/ccAbMSjc.s:11820  .debug_str:0000000000000dfe .LASF38
     /tmp/ccAbMSjc.s:11420  .debug_str:0000000000000141 .LASF39
     /tmp/ccAbMSjc.s:11618  .debug_str:00000000000006f9 .LASF40
     /tmp/ccAbMSjc.s:11634  .debug_str:00000000000007b5 .LASF41
     /tmp/ccAbMSjc.s:12006  .debug_str:000000000000137c .LASF42
     /tmp/ccAbMSjc.s:11804  .debug_str:0000000000000d33 .LASF43
     /tmp/ccAbMSjc.s:11546  .debug_str:00000000000004dc .LASF44
     /tmp/ccAbMSjc.s:11530  .debug_str:000000000000044e .LASF45
     /tmp/ccAbMSjc.s:12014  .debug_str:00000000000013dd .LASF46
     /tmp/ccAbMSjc.s:12086  .debug_str:0000000000001710 .LASF47
     /tmp/ccAbMSjc.s:11810  .debug_str:0000000000000d87 .LASF48
     /tmp/ccAbMSjc.s:11452  .debug_str:0000000000000248 .LASF49
     /tmp/ccAbMSjc.s:11808  .debug_str:0000000000000d62 .LASF50
     /tmp/ccAbMSjc.s:12012  .debug_str:00000000000013c5 .LASF51
     /tmp/ccAbMSjc.s:11624  .debug_str:0000000000000758 .LASF52
     /tmp/ccAbMSjc.s:11486  .debug_str:0000000000000338 .LASF53
     /tmp/ccAbMSjc.s:11700  .debug_str:00000000000009d1 .LASF54
     /tmp/ccAbMSjc.s:11654  .debug_str:0000000000000877 .LASF55
     /tmp/ccAbMSjc.s:11724  .debug_str:0000000000000aaa .LASF56
     /tmp/ccAbMSjc.s:11394  .debug_str:000000000000007a .LASF57
     /tmp/ccAbMSjc.s:12048  .debug_str:0000000000001521 .LASF58
     /tmp/ccAbMSjc.s:12084  .debug_str:00000000000016f7 .LASF59
     /tmp/ccAbMSjc.s:11590  .debug_str:000000000000062d .LASF60
     /tmp/ccAbMSjc.s:11610  .debug_str:00000000000006c8 .LASF61
     /tmp/ccAbMSjc.s:11776  .debug_str:0000000000000c65 .LASF62
     /tmp/ccAbMSjc.s:11376  .debug_str:0000000000000000 .LASF63
     /tmp/ccAbMSjc.s:11938  .debug_str:0000000000001172 .LASF64
     /tmp/ccAbMSjc.s:12028  .debug_str:000000000000147e .LASF65
     /tmp/ccAbMSjc.s:11920  .debug_str:00000000000010dc .LASF67
     /tmp/ccAbMSjc.s:11872  .debug_str:0000000000000f82 .LASF66
     /tmp/ccAbMSjc.s:11758  .debug_str:0000000000000bbf .LASF68
     /tmp/ccAbMSjc.s:11410  .debug_str:0000000000000106 .LASF69
     /tmp/ccAbMSjc.s:11866  .debug_str:0000000000000f4c .LASF70
     /tmp/ccAbMSjc.s:12088  .debug_str:0000000000001726 .LASF73
     /tmp/ccAbMSjc.s:11884  .debug_str:0000000000000ff3 .LASF75
     /tmp/ccAbMSjc.s:11890  .debug_str:0000000000001028 .LASF71
     /tmp/ccAbMSjc.s:12010  .debug_str:00000000000013b0 .LASF72
     /tmp/ccAbMSjc.s:11522  .debug_str:0000000000000417 .LASF74
     /tmp/ccAbMSjc.s:11928  .debug_str:000000000000111e .LASF76
     /tmp/ccAbMSjc.s:11574  .debug_str:00000000000005c6 .LASF77
     /tmp/ccAbMSjc.s:11730  .debug_str:0000000000000ad8 .LASF78
GAS LISTING /tmp/ccAbMSjc.s 			page 134


     /tmp/ccAbMSjc.s:12058  .debug_str:0000000000001596 .LASF79
     /tmp/ccAbMSjc.s:11576  .debug_str:00000000000005cd .LASF80
     /tmp/ccAbMSjc.s:11900  .debug_str:0000000000001069 .LASF81
     /tmp/ccAbMSjc.s:11906  .debug_str:0000000000001088 .LASF82
     /tmp/ccAbMSjc.s:11592  .debug_str:0000000000000653 .LASF83
     /tmp/ccAbMSjc.s:11756  .debug_str:0000000000000ba9 .LASF84
     /tmp/ccAbMSjc.s:11560  .debug_str:0000000000000591 .LASF85
     /tmp/ccAbMSjc.s:11822  .debug_str:0000000000000e28 .LASF86
     /tmp/ccAbMSjc.s:11742  .debug_str:0000000000000b29 .LASF87
     /tmp/ccAbMSjc.s:12106  .debug_str:000000000000179b .LASF88
     /tmp/ccAbMSjc.s:11456  .debug_str:0000000000000269 .LASF89
     /tmp/ccAbMSjc.s:11934  .debug_str:0000000000001150 .LASF90
     /tmp/ccAbMSjc.s:12002  .debug_str:0000000000001362 .LASF91
     /tmp/ccAbMSjc.s:11544  .debug_str:00000000000004c9 .LASF92
     /tmp/ccAbMSjc.s:11566  .debug_str:00000000000005a7 .LASF93
     /tmp/ccAbMSjc.s:11604  .debug_str:00000000000006a4 .LASF94
     /tmp/ccAbMSjc.s:11992  .debug_str:000000000000132d .LASF95
     /tmp/ccAbMSjc.s:11464  .debug_str:00000000000002a3 .LASF96
     /tmp/ccAbMSjc.s:11646  .debug_str:000000000000081e .LASF97
     /tmp/ccAbMSjc.s:12102  .debug_str:000000000000176f .LASF98
     /tmp/ccAbMSjc.s:11718  .debug_str:0000000000000a8a .LASF99
     /tmp/ccAbMSjc.s:11642  .debug_str:00000000000007fb .LASF100
     /tmp/ccAbMSjc.s:12046  .debug_str:0000000000001503 .LASF101
     /tmp/ccAbMSjc.s:11554  .debug_str:0000000000000540 .LASF102
     /tmp/ccAbMSjc.s:11854  .debug_str:0000000000000eed .LASF103
     /tmp/ccAbMSjc.s:11832  .debug_str:0000000000000e68 .LASF104
     /tmp/ccAbMSjc.s:11594  .debug_str:000000000000065d .LASF105
     /tmp/ccAbMSjc.s:11806  .debug_str:0000000000000d49 .LASF106
     /tmp/ccAbMSjc.s:11826  .debug_str:0000000000000e47 .LASF107
     /tmp/ccAbMSjc.s:11740  .debug_str:0000000000000b17 .LASF108
     /tmp/ccAbMSjc.s:11878  .debug_str:0000000000000fb9 .LASF109
     /tmp/ccAbMSjc.s:11648  .debug_str:0000000000000825 .LASF110
     /tmp/ccAbMSjc.s:11434  .debug_str:00000000000001c3 .LASF111
     /tmp/ccAbMSjc.s:11710  .debug_str:0000000000000a21 .LASF112
     /tmp/ccAbMSjc.s:12120  .debug_str:0000000000001819 .LASF113
     /tmp/ccAbMSjc.s:12020  .debug_str:000000000000142a .LASF114
     /tmp/ccAbMSjc.s:12108  .debug_str:00000000000017b3 .LASF115
     /tmp/ccAbMSjc.s:11972  .debug_str:000000000000125c .LASF116
     /tmp/ccAbMSjc.s:12104  .debug_str:0000000000001782 .LASF117
     /tmp/ccAbMSjc.s:11818  .debug_str:0000000000000dd8 .LASF118
     /tmp/ccAbMSjc.s:11392  .debug_str:0000000000000060 .LASF119
     /tmp/ccAbMSjc.s:11622  .debug_str:0000000000000731 .LASF120
     /tmp/ccAbMSjc.s:11542  .debug_str:00000000000004b3 .LASF121
     /tmp/ccAbMSjc.s:12050  .debug_str:0000000000001545 .LASF122
     /tmp/ccAbMSjc.s:11450  .debug_str:0000000000000231 .LASF123
     /tmp/ccAbMSjc.s:12064  .debug_str:0000000000001675 .LASF124
     /tmp/ccAbMSjc.s:11440  .debug_str:00000000000001ee .LASF125
     /tmp/ccAbMSjc.s:12016  .debug_str:0000000000001401 .LASF126
     /tmp/ccAbMSjc.s:11582  .debug_str:00000000000005fd .LASF127
     /tmp/ccAbMSjc.s:11932  .debug_str:0000000000001138 .LASF128
     /tmp/ccAbMSjc.s:12018  .debug_str:0000000000001421 .LASF129
     /tmp/ccAbMSjc.s:11856  .debug_str:0000000000000ef8 .LASF130
     /tmp/ccAbMSjc.s:11686  .debug_str:0000000000000967 .LASF131
     /tmp/ccAbMSjc.s:12082  .debug_str:00000000000016e4 .LASF132
     /tmp/ccAbMSjc.s:11726  .debug_str:0000000000000aca .LASF133
     /tmp/ccAbMSjc.s:11840  .debug_str:0000000000000e9d .LASF190
     /tmp/ccAbMSjc.s:11432  .debug_str:00000000000001bc .LASF135
GAS LISTING /tmp/ccAbMSjc.s 			page 135


     /tmp/ccAbMSjc.s:11608  .debug_str:00000000000006c0 .LASF136
     /tmp/ccAbMSjc.s:11722  .debug_str:0000000000000aa4 .LASF137
     /tmp/ccAbMSjc.s:11712  .debug_str:0000000000000a43 .LASF138
     /tmp/ccAbMSjc.s:11918  .debug_str:00000000000010d4 .LASF139
     /tmp/ccAbMSjc.s:11846  .debug_str:0000000000000ec6 .LASF140
     /tmp/ccAbMSjc.s:11472  .debug_str:00000000000002fe .LASF141
     /tmp/ccAbMSjc.s:11970  .debug_str:0000000000001251 .LASF142
     /tmp/ccAbMSjc.s:11380  .debug_str:0000000000000018 .LASF143
     /tmp/ccAbMSjc.s:11512  .debug_str:00000000000003dd .LASF144
     /tmp/ccAbMSjc.s:11612  .debug_str:00000000000006e4 .LASF145
     /tmp/ccAbMSjc.s:12068  .debug_str:00000000000016a6 .LASF146
     /tmp/ccAbMSjc.s:11770  .debug_str:0000000000000c3b .LASF150
     /tmp/ccAbMSjc.s:12000  .debug_str:000000000000135a .LASF147
     /tmp/ccAbMSjc.s:11462  .debug_str:0000000000000290 .LASF148
     /tmp/ccAbMSjc.s:11800  .debug_str:0000000000000d1c .LASF149
     /tmp/ccAbMSjc.s:11628  .debug_str:000000000000078f .LASF151
     /tmp/ccAbMSjc.s:11792  .debug_str:0000000000000cf7 .LASF152
     /tmp/ccAbMSjc.s:11448  .debug_str:0000000000000224 .LASF153
     /tmp/ccAbMSjc.s:11616  .debug_str:00000000000006f4 .LASF154
     /tmp/ccAbMSjc.s:11954  .debug_str:00000000000011e3 .LASF155
     /tmp/ccAbMSjc.s:11690  .debug_str:000000000000097e .LASF156
     /tmp/ccAbMSjc.s:11778  .debug_str:0000000000000c8e .LASF157
     /tmp/ccAbMSjc.s:11976  .debug_str:0000000000001280 .LASF158
     /tmp/ccAbMSjc.s:11444  .debug_str:000000000000021a .LASF159
     /tmp/ccAbMSjc.s:11834  .debug_str:0000000000000e80 .LASF160
     /tmp/ccAbMSjc.s:11516  .debug_str:00000000000003fa .LASF161
     /tmp/ccAbMSjc.s:11524  .debug_str:000000000000041e .LASF162
     /tmp/ccAbMSjc.s:11588  .debug_str:0000000000000623 .LASF163
     /tmp/ccAbMSjc.s:11460  .debug_str:0000000000000286 .LASF164
     /tmp/ccAbMSjc.s:12034  .debug_str:000000000000149f .LASF165
     /tmp/ccAbMSjc.s:11536  .debug_str:000000000000047d .LASF166
     /tmp/ccAbMSjc.s:11400  .debug_str:00000000000000c5 .LASF167
     /tmp/ccAbMSjc.s:11894  .debug_str:0000000000001037 .LASF168
     /tmp/ccAbMSjc.s:11780  .debug_str:0000000000000ca1 .LASF169
     /tmp/ccAbMSjc.s:11676  .debug_str:000000000000091c .LASF170
     /tmp/ccAbMSjc.s:11474  .debug_str:0000000000000303 .LASF171
     /tmp/ccAbMSjc.s:11974  .debug_str:000000000000127b .LASF172
     /tmp/ccAbMSjc.s:11798  .debug_str:0000000000000d17 .LASF173
     /tmp/ccAbMSjc.s:11926  .debug_str:0000000000001118 .LASF174
     /tmp/ccAbMSjc.s:11402  .debug_str:00000000000000d1 .LASF175
     /tmp/ccAbMSjc.s:11572  .debug_str:00000000000005c1 .LASF176
     /tmp/ccAbMSjc.s:11768  .debug_str:0000000000000c33 .LASF177
     /tmp/ccAbMSjc.s:11430  .debug_str:00000000000001b7 .LASF178
     /tmp/ccAbMSjc.s:11422  .debug_str:0000000000000160 .LASF179
     /tmp/ccAbMSjc.s:11720  .debug_str:0000000000000a9b .LASF180
     /tmp/ccAbMSjc.s:11980  .debug_str:00000000000012ae .LASF181
     /tmp/ccAbMSjc.s:11788  .debug_str:0000000000000ce7 .LASF182
     /tmp/ccAbMSjc.s:12080  .debug_str:00000000000016dc .LASF183
     /tmp/ccAbMSjc.s:12094  .debug_str:0000000000001741 .LASF184
     /tmp/ccAbMSjc.s:11998  .debug_str:0000000000001349 .LASF185
     /tmp/ccAbMSjc.s:12072  .debug_str:00000000000016b5 .LASF186
     /tmp/ccAbMSjc.s:11644  .debug_str:0000000000000819 .LASF187
     /tmp/ccAbMSjc.s:11966  .debug_str:0000000000001233 .LASF188
     /tmp/ccAbMSjc.s:11678  .debug_str:0000000000000923 .LASF189
     /tmp/ccAbMSjc.s:11550  .debug_str:0000000000000515 .LASF191
     /tmp/ccAbMSjc.s:11508  .debug_str:00000000000003ce .LASF192
     /tmp/ccAbMSjc.s:11476  .debug_str:0000000000000308 .LASF193
GAS LISTING /tmp/ccAbMSjc.s 			page 136


     /tmp/ccAbMSjc.s:12078  .debug_str:00000000000016d0 .LASF194
     /tmp/ccAbMSjc.s:11986  .debug_str:00000000000012ed .LASF195
     /tmp/ccAbMSjc.s:11414  .debug_str:000000000000011c .LASF196
     /tmp/ccAbMSjc.s:12066  .debug_str:0000000000001699 .LASF197
     /tmp/ccAbMSjc.s:11598  .debug_str:0000000000000679 .LASF198
     /tmp/ccAbMSjc.s:11996  .debug_str:0000000000001341 .LASF199
     /tmp/ccAbMSjc.s:12024  .debug_str:0000000000001459 .LASF200
     /tmp/ccAbMSjc.s:11670  .debug_str:0000000000000901 .LASF201
     /tmp/ccAbMSjc.s:11876  .debug_str:0000000000000f9b .LASF202
     /tmp/ccAbMSjc.s:12112  .debug_str:00000000000017d1 .LASF203
     /tmp/ccAbMSjc.s:11424  .debug_str:000000000000016a .LASF204
     /tmp/ccAbMSjc.s:11698  .debug_str:00000000000009ae .LASF205
     /tmp/ccAbMSjc.s:12076  .debug_str:00000000000016c5 .LASF206
     /tmp/ccAbMSjc.s:11506  .debug_str:00000000000003ab .LASF207
     /tmp/ccAbMSjc.s:12062  .debug_str:000000000000166e .LASF208
     /tmp/ccAbMSjc.s:11652  .debug_str:0000000000000854 .LASF209
     /tmp/ccAbMSjc.s:11958  .debug_str:0000000000001203 .LASF210
     /tmp/ccAbMSjc.s:12036  .debug_str:00000000000014ad .LASF367
     /tmp/ccAbMSjc.s:11692  .debug_str:0000000000000987 .LASF211
     /tmp/ccAbMSjc.s:11838  .debug_str:0000000000000e97 .LASF215
     /tmp/ccAbMSjc.s:11458  .debug_str:0000000000000274 .LASF217
     /tmp/ccAbMSjc.s:12004  .debug_str:0000000000001369 .LASF212
     /tmp/ccAbMSjc.s:11662  .debug_str:00000000000008b5 .LASF213
     /tmp/ccAbMSjc.s:11406  .debug_str:00000000000000e5 .LASF214
     /tmp/ccAbMSjc.s:11436  .debug_str:00000000000001d8 .LASF216
     /tmp/ccAbMSjc.s:11772  .debug_str:0000000000000c47 .LASF218
     /tmp/ccAbMSjc.s:11578  .debug_str:00000000000005e1 .LASF219
     /tmp/ccAbMSjc.s:11704  .debug_str:0000000000000a04 .LASF220
     /tmp/ccAbMSjc.s:11870  .debug_str:0000000000000f71 .LASF221
     /tmp/ccAbMSjc.s:12074  .debug_str:00000000000016be .LASF368
     /tmp/ccAbMSjc.s:11446  .debug_str:000000000000021f .LASF222
     /tmp/ccAbMSjc.s:11562  .debug_str:000000000000059b .LASF223
     /tmp/ccAbMSjc.s:11898  .debug_str:0000000000001064 .LASF224
     /tmp/ccAbMSjc.s:11482  .debug_str:000000000000031f .LASF225
     /tmp/ccAbMSjc.s:11564  .debug_str:00000000000005a0 .LASF226
     /tmp/ccAbMSjc.s:11702  .debug_str:00000000000009f1 .LASF227
     /tmp/ccAbMSjc.s:11514  .debug_str:00000000000003f4 .LASF228
     /tmp/ccAbMSjc.s:11864  .debug_str:0000000000000f2e .LASF229
     /tmp/ccAbMSjc.s:11528  .debug_str:0000000000000447 .LASF230
     /tmp/ccAbMSjc.s:11896  .debug_str:000000000000104f .LASF231
     /tmp/ccAbMSjc.s:11684  .debug_str:000000000000095e .LASF281
     /tmp/ccAbMSjc.s:11830  .debug_str:0000000000000e53 .LASF282
     /tmp/ccAbMSjc.s:12110  .debug_str:00000000000017c5 .LASF232
     /tmp/ccAbMSjc.s:11532  .debug_str:0000000000000465 .LASF233
     /tmp/ccAbMSjc.s:11946  .debug_str:00000000000011b6 .LASF234
     /tmp/ccAbMSjc.s:11802  .debug_str:0000000000000d29 .LASF235
     /tmp/ccAbMSjc.s:11728  .debug_str:0000000000000acf .LASF236
     /tmp/ccAbMSjc.s:11390  .debug_str:0000000000000055 .LASF237
     /tmp/ccAbMSjc.s:11534  .debug_str:0000000000000471 .LASF238
     /tmp/ccAbMSjc.s:11994  .debug_str:0000000000001334 .LASF239
     /tmp/ccAbMSjc.s:11404  .debug_str:00000000000000db .LASF240
     /tmp/ccAbMSjc.s:11942  .debug_str:00000000000011a2 .LASF241
     /tmp/ccAbMSjc.s:11496  .debug_str:0000000000000375 .LASF242
     /tmp/ccAbMSjc.s:11408  .debug_str:00000000000000fb .LASF243
     /tmp/ccAbMSjc.s:12032  .debug_str:0000000000001496 .LASF244
     /tmp/ccAbMSjc.s:11924  .debug_str:00000000000010fc .LASF245
     /tmp/ccAbMSjc.s:11860  .debug_str:0000000000000f19 .LASF246
GAS LISTING /tmp/ccAbMSjc.s 			page 137


     /tmp/ccAbMSjc.s:11396  .debug_str:0000000000000091 .LASF247
     /tmp/ccAbMSjc.s:11746  .debug_str:0000000000000b3d .LASF248
     /tmp/ccAbMSjc.s:11470  .debug_str:00000000000002e1 .LASF249
     /tmp/ccAbMSjc.s:11438  .debug_str:00000000000001e4 .LASF250
     /tmp/ccAbMSjc.s:12116  .debug_str:00000000000017ed .LASF251
     /tmp/ccAbMSjc.s:11748  .debug_str:0000000000000b47 .LASF252
     /tmp/ccAbMSjc.s:11940  .debug_str:0000000000001192 .LASF253
     /tmp/ccAbMSjc.s:11714  .debug_str:0000000000000a4c .LASF254
     /tmp/ccAbMSjc.s:11454  .debug_str:0000000000000260 .LASF255
     /tmp/ccAbMSjc.s:11882  .debug_str:0000000000000fd5 .LASF256
     /tmp/ccAbMSjc.s:11858  .debug_str:0000000000000f0d .LASF257
     /tmp/ccAbMSjc.s:11814  .debug_str:0000000000000db1 .LASF258
     /tmp/ccAbMSjc.s:11696  .debug_str:00000000000009a8 .LASF259
     /tmp/ccAbMSjc.s:11754  .debug_str:0000000000000b89 .LASF260
     /tmp/ccAbMSjc.s:11744  .debug_str:0000000000000b34 .LASF261
     /tmp/ccAbMSjc.s:11586  .debug_str:0000000000000617 .LASF262
     /tmp/ccAbMSjc.s:11498  .debug_str:0000000000000380 .LASF263
     /tmp/ccAbMSjc.s:11660  .debug_str:00000000000008a9 .LASF264
     /tmp/ccAbMSjc.s:11738  .debug_str:0000000000000b12 .LASF265
     /tmp/ccAbMSjc.s:11388  .debug_str:0000000000000049 .LASF266
     /tmp/ccAbMSjc.s:11774  .debug_str:0000000000000c60 .LASF267
     /tmp/ccAbMSjc.s:12118  .debug_str:000000000000180a .LASF268
     /tmp/ccAbMSjc.s:11412  .debug_str:0000000000000115 .LASF269
     /tmp/ccAbMSjc.s:12022  .debug_str:0000000000001448 .LASF270
     /tmp/ccAbMSjc.s:11892  .debug_str:0000000000001031 .LASF271
     /tmp/ccAbMSjc.s:11732  .debug_str:0000000000000aeb .LASF272
     /tmp/ccAbMSjc.s:11484  .debug_str:0000000000000330 .LASF273
     /tmp/ccAbMSjc.s:11626  .debug_str:000000000000077d .LASF274
     /tmp/ccAbMSjc.s:11912  .debug_str:00000000000010b7 .LASF275
     /tmp/ccAbMSjc.s:11680  .debug_str:0000000000000933 .LASF276
     /tmp/ccAbMSjc.s:11784  .debug_str:0000000000000cc6 .LASF277
     /tmp/ccAbMSjc.s:12054  .debug_str:0000000000001573 .LASF278
     /tmp/ccAbMSjc.s:11688  .debug_str:000000000000096e .LASF279
     /tmp/ccAbMSjc.s:11862  .debug_str:0000000000000f22 .LASF280
     /tmp/ccAbMSjc.s:11880  .debug_str:0000000000000fc8 .LASF283
     /tmp/ccAbMSjc.s:11666  .debug_str:00000000000008cc .LASF284
     /tmp/ccAbMSjc.s:11922  .debug_str:00000000000010f6 .LASF285
     /tmp/ccAbMSjc.s:11916  .debug_str:00000000000010cf .LASF286
     /tmp/ccAbMSjc.s:11786  .debug_str:0000000000000cdc .LASF287
     /tmp/ccAbMSjc.s:11386  .debug_str:0000000000000040 .LASF288
     /tmp/ccAbMSjc.s:11952  .debug_str:00000000000011d9 .LASF289
     /tmp/ccAbMSjc.s:12030  .debug_str:000000000000148a .LASF290
     /tmp/ccAbMSjc.s:11904  .debug_str:000000000000107f .LASF291
     /tmp/ccAbMSjc.s:11708  .debug_str:0000000000000a1c .LASF292
     /tmp/ccAbMSjc.s:11736  .debug_str:0000000000000b0b .LASF293
     /tmp/ccAbMSjc.s:11888  .debug_str:0000000000001016 .LASF295
     /tmp/ccAbMSjc.s:11874  .debug_str:0000000000000f93 .LASF294
     /tmp/ccAbMSjc.s:12040  .debug_str:00000000000014bf .LASF296
     /tmp/ccAbMSjc.s:11908  .debug_str:000000000000109c .LASF297
     /tmp/ccAbMSjc.s:11658  .debug_str:0000000000000899 .LASF298
     /tmp/ccAbMSjc.s:11844  .debug_str:0000000000000ebc .LASF299
     /tmp/ccAbMSjc.s:12114  .debug_str:00000000000017e0 .LASF300
     /tmp/ccAbMSjc.s:11836  .debug_str:0000000000000e90 .LASF301
     /tmp/ccAbMSjc.s:11510  .debug_str:00000000000003d3 .LASF302
     /tmp/ccAbMSjc.s:12070  .debug_str:00000000000016ab .LASF303
     /tmp/ccAbMSjc.s:11962  .debug_str:0000000000001220 .LASF304
     /tmp/ccAbMSjc.s:11664  .debug_str:00000000000008bf .LASF305
GAS LISTING /tmp/ccAbMSjc.s 			page 138


     /tmp/ccAbMSjc.s:11978  .debug_str:0000000000001296 .LASF369
     /tmp/ccAbMSjc.s:11630  .debug_str:000000000000079b .LASF370
     /tmp/ccAbMSjc.s:12026  .debug_str:0000000000001478 .LASF306
     /tmp/ccAbMSjc.s:11716  .debug_str:0000000000000a70 .LASF307
     /tmp/ccAbMSjc.s:11632  .debug_str:00000000000007af .LASF308
     /tmp/ccAbMSjc.s:11968  .debug_str:000000000000123b .LASF309
     /tmp/ccAbMSjc.s:11442  .debug_str:00000000000001fe .LASF310
     /tmp/ccAbMSjc.s:11902  .debug_str:0000000000001071 .LASF311
     /tmp/ccAbMSjc.s:11552  .debug_str:0000000000000521 .LASF312
     /tmp/ccAbMSjc.s:12008  .debug_str:00000000000013a3 .LASF313
     /tmp/ccAbMSjc.s:11558  .debug_str:0000000000000573 .LASF314
     /tmp/ccAbMSjc.s:11960  .debug_str:0000000000001209 .LASF315
     /tmp/ccAbMSjc.s:11752  .debug_str:0000000000000b6c .LASF316
     /tmp/ccAbMSjc.s:11382  .debug_str:0000000000000024 .LASF317
     /tmp/ccAbMSjc.s:11734  .debug_str:0000000000000afb .LASF318
     /tmp/ccAbMSjc.s:12098  .debug_str:000000000000175a .LASF319
     /tmp/ccAbMSjc.s:11518  .debug_str:00000000000003ff .LASF320
     /tmp/ccAbMSjc.s:11384  .debug_str:0000000000000034 .LASF321
     /tmp/ccAbMSjc.s:12096  .debug_str:000000000000174c .LASF322
     /tmp/ccAbMSjc.s:3907   .text:00000000000013cc .LFB72
     /tmp/ccAbMSjc.s:3939   .text:00000000000013ec .LFE72
     /tmp/ccAbMSjc.s:3799   .text:0000000000001350 .LFB71
     /tmp/ccAbMSjc.s:3901   .text:00000000000013cc .LFE71
     /tmp/ccAbMSjc.s:11672  .debug_str:0000000000000907 .LASF323
     /tmp/ccAbMSjc.s:10020  .debug_loc:0000000000000000 .LLST99
     /tmp/ccAbMSjc.s:11886  .debug_str:0000000000001008 .LASF324
     /tmp/ccAbMSjc.s:10046  .debug_loc:0000000000000072 .LLST100
     /tmp/ccAbMSjc.s:10064  .debug_loc:00000000000000be .LLST101
     /tmp/ccAbMSjc.s:11556  .debug_str:000000000000056b .LASF325
     /tmp/ccAbMSjc.s:10090  .debug_loc:0000000000000130 .LLST102
     /tmp/ccAbMSjc.s:11600  .debug_str:0000000000000685 .LASF326
     /tmp/ccAbMSjc.s:10116  .debug_loc:00000000000001a2 .LLST103
     /tmp/ccAbMSjc.s:11502  .debug_str:0000000000000397 .LASF327
     /tmp/ccAbMSjc.s:10134  .debug_loc:00000000000001ee .LLST104
     /tmp/ccAbMSjc.s:12100  .debug_str:0000000000001768 .LASF328
     /tmp/ccAbMSjc.s:10160  .debug_loc:0000000000000260 .LLST105
     /tmp/ccAbMSjc.s:3832   .text:0000000000001388 .LVL331
     /tmp/ccAbMSjc.s:2790   .text:0000000000000ec4 .LFB70
     /tmp/ccAbMSjc.s:2823   .text:0000000000000ef0 .LFE70
     /tmp/ccAbMSjc.s:10181  .debug_loc:00000000000002be .LLST82
     /tmp/ccAbMSjc.s:2761   .text:0000000000000ec4 .LFE69
     /tmp/ccAbMSjc.s:10194  .debug_loc:00000000000002f6 .LLST78
     /tmp/ccAbMSjc.s:11706  .debug_str:0000000000000a15 .LASF329
     /tmp/ccAbMSjc.s:10213  .debug_loc:0000000000000352 .LLST79
     /tmp/ccAbMSjc.s:10224  .debug_loc:0000000000000388 .LLST80
     /tmp/ccAbMSjc.s:2607   .text:0000000000000de8 .LBB144
     /tmp/ccAbMSjc.s:2710   .text:0000000000000e7c .LBE144
     /tmp/ccAbMSjc.s:11492  .debug_str:000000000000035f .LASF330
     /tmp/ccAbMSjc.s:10241  .debug_loc:00000000000003d3 .LLST81
     /tmp/ccAbMSjc.s:2706   .text:0000000000000e7c .LVL240
     /tmp/ccAbMSjc.s:2572   .text:0000000000000d94 .LVL233
     /tmp/ccAbMSjc.s:2584   .text:0000000000000db8 .LVL236
     /tmp/ccAbMSjc.s:2589   .text:0000000000000dc4 .LVL237
     /tmp/ccAbMSjc.s:2600   .text:0000000000000de4 .LVL238
     /tmp/ccAbMSjc.s:2722   .text:0000000000000e88 .LVL241
     /tmp/ccAbMSjc.s:2754   .text:0000000000000eb8 .LVL247
     /tmp/ccAbMSjc.s:2758   .text:0000000000000ec4 .LVL248
GAS LISTING /tmp/ccAbMSjc.s 			page 139


     /tmp/ccAbMSjc.s:2479   .text:0000000000000d14 .LFB68
     /tmp/ccAbMSjc.s:2544   .text:0000000000000d70 .LFE68
     /tmp/ccAbMSjc.s:11828  .debug_str:0000000000000e4d .LASF331
     /tmp/ccAbMSjc.s:10248  .debug_loc:00000000000003f6 .LLST75
     /tmp/ccAbMSjc.s:10259  .debug_loc:000000000000042c .LLST76
     /tmp/ccAbMSjc.s:2517   .text:0000000000000d40 .LVL228
     /tmp/ccAbMSjc.s:2538   .text:0000000000000d60 .LVL231
     /tmp/ccAbMSjc.s:2541   .text:0000000000000d6c .LVL232
     /tmp/ccAbMSjc.s:2403   .text:0000000000000cac .LFB67
     /tmp/ccAbMSjc.s:2473   .text:0000000000000d14 .LFE67
     /tmp/ccAbMSjc.s:10268  .debug_loc:0000000000000451 .LLST72
     /tmp/ccAbMSjc.s:10279  .debug_loc:0000000000000487 .LLST73
     /tmp/ccAbMSjc.s:2441   .text:0000000000000cd8 .LVL220
     /tmp/ccAbMSjc.s:2462   .text:0000000000000cf8 .LVL223
     /tmp/ccAbMSjc.s:2467   .text:0000000000000d04 .LVL224
     /tmp/ccAbMSjc.s:2470   .text:0000000000000d10 .LVL225
     /tmp/ccAbMSjc.s:1180   .text:00000000000006b8 .LFB66
     /tmp/ccAbMSjc.s:1226   .text:00000000000006f0 .LFE66
     /tmp/ccAbMSjc.s:1057   .text:0000000000000604 .LFB65
     /tmp/ccAbMSjc.s:1174   .text:00000000000006b8 .LFE65
     /tmp/ccAbMSjc.s:1081   .text:0000000000000638 .LBB128
     /tmp/ccAbMSjc.s:11338  .debug_ranges:0000000000000000 .Ldebug_ranges0
     /tmp/ccAbMSjc.s:1090   .text:0000000000000638 .LBB130
     /tmp/ccAbMSjc.s:1104   .text:0000000000000640 .LBE130
     /tmp/ccAbMSjc.s:1091   .text:0000000000000638 .LBB131
     /tmp/ccAbMSjc.s:1103   .text:0000000000000640 .LBE131
     /tmp/ccAbMSjc.s:10288  .debug_loc:00000000000004ac .LLST35
     /tmp/ccAbMSjc.s:1111   .text:0000000000000640 .LBB133
     /tmp/ccAbMSjc.s:1126   .text:0000000000000648 .LBE133
     /tmp/ccAbMSjc.s:1112   .text:0000000000000640 .LBB134
     /tmp/ccAbMSjc.s:1125   .text:0000000000000648 .LBE134
     /tmp/ccAbMSjc.s:10296  .debug_loc:00000000000004d0 .LLST36
     /tmp/ccAbMSjc.s:1148   .text:0000000000000680 .LVL110
     /tmp/ccAbMSjc.s:1160   .text:00000000000006a4 .LVL111
     /tmp/ccAbMSjc.s:991    .text:00000000000005c0 .LFB64
     /tmp/ccAbMSjc.s:1051   .text:0000000000000604 .LFE64
     /tmp/ccAbMSjc.s:1010   .text:00000000000005e4 .LBB124
     /tmp/ccAbMSjc.s:1023   .text:00000000000005ec .LBE124
     /tmp/ccAbMSjc.s:10305  .debug_loc:00000000000004f6 .LLST34
     /tmp/ccAbMSjc.s:1036   .text:00000000000005f8 .LBB126
     /tmp/ccAbMSjc.s:1049   .text:0000000000000604 .LBE126
     /tmp/ccAbMSjc.s:2361   .text:0000000000000c78 .LFB63
     /tmp/ccAbMSjc.s:2397   .text:0000000000000cac .LFE63
     /tmp/ccAbMSjc.s:10314  .debug_loc:000000000000051c .LLST71
     /tmp/ccAbMSjc.s:2375   .text:0000000000000c90 .LVL216
     /tmp/ccAbMSjc.s:2386   .text:0000000000000c9c .LVL217
     /tmp/ccAbMSjc.s:879    .text:0000000000000538 .LFB62
     /tmp/ccAbMSjc.s:985    .text:00000000000005c0 .LFE62
     /tmp/ccAbMSjc.s:10321  .debug_loc:000000000000053f .LLST31
     /tmp/ccAbMSjc.s:10335  .debug_loc:0000000000000578 .LLST32
     /tmp/ccAbMSjc.s:935    .text:0000000000000574 .LBB121
     /tmp/ccAbMSjc.s:981    .text:00000000000005c0 .LBE121
     /tmp/ccAbMSjc.s:11790  .debug_str:0000000000000cf2 .LASF332
     /tmp/ccAbMSjc.s:10342  .debug_loc:000000000000059b .LLST33
     /tmp/ccAbMSjc.s:939    .text:000000000000057c .LVL101
     /tmp/ccAbMSjc.s:899    .text:0000000000000554 .LVL97
     /tmp/ccAbMSjc.s:826    .text:00000000000004e8 .LFB61
GAS LISTING /tmp/ccAbMSjc.s 			page 140


     /tmp/ccAbMSjc.s:873    .text:0000000000000538 .LFE61
     /tmp/ccAbMSjc.s:10349  .debug_loc:00000000000005be .LLST30
     /tmp/ccAbMSjc.s:862    .text:0000000000000528 .LVL94
     /tmp/ccAbMSjc.s:2270   .text:0000000000000be0 .LFB60
     /tmp/ccAbMSjc.s:2355   .text:0000000000000c78 .LFE60
     /tmp/ccAbMSjc.s:10356  .debug_loc:00000000000005e1 .LLST70
     /tmp/ccAbMSjc.s:2298   .text:0000000000000c1c .LVL206
     /tmp/ccAbMSjc.s:2319   .text:0000000000000c3c .LVL209
     /tmp/ccAbMSjc.s:2340   .text:0000000000000c5c .LVL212
     /tmp/ccAbMSjc.s:2345   .text:0000000000000c68 .LVL213
     /tmp/ccAbMSjc.s:2352   .text:0000000000000c74 .LVL215
     /tmp/ccAbMSjc.s:2190   .text:0000000000000b68 .LFB59
     /tmp/ccAbMSjc.s:2264   .text:0000000000000be0 .LFE59
     /tmp/ccAbMSjc.s:11494  .debug_str:000000000000036f .LASF333
     /tmp/ccAbMSjc.s:10371  .debug_loc:000000000000062a .LLST69
     /tmp/ccAbMSjc.s:2229   .text:0000000000000bac .LVL202
     /tmp/ccAbMSjc.s:2237   .text:0000000000000bbc .LVL203
     /tmp/ccAbMSjc.s:2250   .text:0000000000000bcc .LVL204
     /tmp/ccAbMSjc.s:2125   .text:0000000000000b20 .LFB58
     /tmp/ccAbMSjc.s:2184   .text:0000000000000b68 .LFE58
     /tmp/ccAbMSjc.s:10378  .debug_loc:000000000000064d .LLST67
     /tmp/ccAbMSjc.s:10389  .debug_loc:0000000000000683 .LLST68
     /tmp/ccAbMSjc.s:2162   .text:0000000000000b48 .LVL198
     /tmp/ccAbMSjc.s:2179   .text:0000000000000b60 .LVL200
     /tmp/ccAbMSjc.s:2048   .text:0000000000000ac0 .LFB57
     /tmp/ccAbMSjc.s:2119   .text:0000000000000b20 .LFE57
     /tmp/ccAbMSjc.s:10406  .debug_loc:00000000000006ce .LLST65
     /tmp/ccAbMSjc.s:10417  .debug_loc:0000000000000704 .LLST66
     /tmp/ccAbMSjc.s:2094   .text:0000000000000afc .LVL192
     /tmp/ccAbMSjc.s:2111   .text:0000000000000b14 .LVL194
     /tmp/ccAbMSjc.s:1973   .text:0000000000000a60 .LFB56
     /tmp/ccAbMSjc.s:2042   .text:0000000000000ac0 .LFE56
     /tmp/ccAbMSjc.s:10434  .debug_loc:000000000000074f .LLST62
     /tmp/ccAbMSjc.s:10445  .debug_loc:0000000000000785 .LLST64
     /tmp/ccAbMSjc.s:2013   .text:0000000000000a8c .LVL184
     /tmp/ccAbMSjc.s:2034   .text:0000000000000aac .LVL187
     /tmp/ccAbMSjc.s:2037   .text:0000000000000ab8 .LVL188
     /tmp/ccAbMSjc.s:1948   .text:0000000000000a60 .LFE55
     /tmp/ccAbMSjc.s:10462  .debug_loc:00000000000007d0 .LLST58
     /tmp/ccAbMSjc.s:11750  .debug_str:0000000000000b66 .LASF334
     /tmp/ccAbMSjc.s:10473  .debug_loc:0000000000000806 .LLST59
     /tmp/ccAbMSjc.s:10484  .debug_loc:000000000000083c .LLST60
     /tmp/ccAbMSjc.s:10495  .debug_loc:0000000000000872 .LLST61
     /tmp/ccAbMSjc.s:1877   .text:00000000000009f4 .LVL170
     /tmp/ccAbMSjc.s:1885   .text:0000000000000a08 .LVL171
     /tmp/ccAbMSjc.s:1908   .text:0000000000000a20 .LVL173
     /tmp/ccAbMSjc.s:1941   .text:0000000000000a54 .LVL180
     /tmp/ccAbMSjc.s:1945   .text:0000000000000a60 .LVL181
     /tmp/ccAbMSjc.s:786    .text:00000000000004ac .LFB54
     /tmp/ccAbMSjc.s:820    .text:00000000000004e8 .LFE54
     /tmp/ccAbMSjc.s:10512  .debug_loc:00000000000008bd .LLST29
     /tmp/ccAbMSjc.s:809    .text:00000000000004d8 .LVL92
     /tmp/ccAbMSjc.s:1765   .text:000000000000096c .LFB53
     /tmp/ccAbMSjc.s:1832   .text:00000000000009c4 .LFE53
     /tmp/ccAbMSjc.s:10519  .debug_loc:00000000000008e0 .LLST56
     /tmp/ccAbMSjc.s:1785   .text:000000000000098c .LBB141
     /tmp/ccAbMSjc.s:1796   .text:000000000000099c .LBE141
GAS LISTING /tmp/ccAbMSjc.s 			page 141


     /tmp/ccAbMSjc.s:10536  .debug_loc:000000000000092b .LLST57
     /tmp/ccAbMSjc.s:1795   .text:000000000000099c .LVL164
     /tmp/ccAbMSjc.s:1812   .text:00000000000009ac .LVL166
     /tmp/ccAbMSjc.s:1691   .text:0000000000000914 .LFB52
     /tmp/ccAbMSjc.s:1759   .text:000000000000096c .LFE52
     /tmp/ccAbMSjc.s:10543  .debug_loc:000000000000094e .LLST53
     /tmp/ccAbMSjc.s:10554  .debug_loc:0000000000000984 .LLST55
     /tmp/ccAbMSjc.s:1729   .text:000000000000093c .LVL158
     /tmp/ccAbMSjc.s:1750   .text:000000000000095c .LVL160
     /tmp/ccAbMSjc.s:1754   .text:0000000000000964 .LVL161
     /tmp/ccAbMSjc.s:1666   .text:0000000000000914 .LFE51
     /tmp/ccAbMSjc.s:10571  .debug_loc:00000000000009cf .LLST47
     /tmp/ccAbMSjc.s:11638  .debug_str:00000000000007df .LASF335
     /tmp/ccAbMSjc.s:10582  .debug_loc:0000000000000a05 .LLST48
     /tmp/ccAbMSjc.s:10593  .debug_loc:0000000000000a3b .LLST49
     /tmp/ccAbMSjc.s:10604  .debug_loc:0000000000000a71 .LLST50
     /tmp/ccAbMSjc.s:10615  .debug_loc:0000000000000aa7 .LLST51
     /tmp/ccAbMSjc.s:10626  .debug_loc:0000000000000add .LLST52
     /tmp/ccAbMSjc.s:1580   .text:000000000000088c .LVL142
     /tmp/ccAbMSjc.s:1591   .text:00000000000008ac .LVL143
     /tmp/ccAbMSjc.s:1620   .text:00000000000008cc .LVL145
     /tmp/ccAbMSjc.s:1659   .text:0000000000000908 .LVL154
     /tmp/ccAbMSjc.s:1663   .text:0000000000000914 .LVL155
     /tmp/ccAbMSjc.s:1495   .text:000000000000084c .LFE50
     /tmp/ccAbMSjc.s:10643  .debug_loc:0000000000000b28 .LLST41
     /tmp/ccAbMSjc.s:10654  .debug_loc:0000000000000b5e .LLST42
     /tmp/ccAbMSjc.s:10665  .debug_loc:0000000000000b94 .LLST43
     /tmp/ccAbMSjc.s:10676  .debug_loc:0000000000000bca .LLST44
     /tmp/ccAbMSjc.s:10687  .debug_loc:0000000000000c00 .LLST45
     /tmp/ccAbMSjc.s:10698  .debug_loc:0000000000000c36 .LLST46
     /tmp/ccAbMSjc.s:1402   .text:00000000000007b8 .LVL123
     /tmp/ccAbMSjc.s:1413   .text:00000000000007d8 .LVL124
     /tmp/ccAbMSjc.s:1429   .text:00000000000007f0 .LVL125
     /tmp/ccAbMSjc.s:1449   .text:0000000000000804 .LVL127
     /tmp/ccAbMSjc.s:1488   .text:0000000000000840 .LVL136
     /tmp/ccAbMSjc.s:1492   .text:000000000000084c .LVL137
     /tmp/ccAbMSjc.s:1283   .text:0000000000000728 .LFB49
     /tmp/ccAbMSjc.s:1341   .text:0000000000000778 .LFE49
     /tmp/ccAbMSjc.s:10715  .debug_loc:0000000000000c81 .LLST39
     /tmp/ccAbMSjc.s:10722  .debug_loc:0000000000000ca4 .LLST40
     /tmp/ccAbMSjc.s:1313   .text:0000000000000758 .LVL116
     /tmp/ccAbMSjc.s:1337   .text:0000000000000774 .LVL118
     /tmp/ccAbMSjc.s:1232   .text:00000000000006f0 .LFB48
     /tmp/ccAbMSjc.s:1277   .text:0000000000000728 .LFE48
     /tmp/ccAbMSjc.s:10733  .debug_loc:0000000000000cda .LLST37
     /tmp/ccAbMSjc.s:11816  .debug_str:0000000000000dd3 .LASF336
     /tmp/ccAbMSjc.s:10740  .debug_loc:0000000000000cfd .LLST38
     /tmp/ccAbMSjc.s:1255   .text:000000000000070c .LVL113
     /tmp/ccAbMSjc.s:1266   .text:0000000000000718 .LVL114
     /tmp/ccAbMSjc.s:2852   .text:0000000000000ef0 .LFB47
     /tmp/ccAbMSjc.s:3793   .text:0000000000001350 .LFE47
     /tmp/ccAbMSjc.s:12090  .debug_str:000000000000172f .LASF337
     /tmp/ccAbMSjc.s:10747  .debug_loc:0000000000000d20 .LLST83
     /tmp/ccAbMSjc.s:11812  .debug_str:0000000000000daa .LASF338
     /tmp/ccAbMSjc.s:11520  .debug_str:000000000000040d .LASF339
     /tmp/ccAbMSjc.s:10758  .debug_loc:0000000000000d56 .LLST96
     /tmp/ccAbMSjc.s:3055   .text:0000000000001040 .LBB193
GAS LISTING /tmp/ccAbMSjc.s 			page 142


     /tmp/ccAbMSjc.s:3068   .text:0000000000001044 .LBE193
     /tmp/ccAbMSjc.s:3072   .text:0000000000001048 .LBB195
     /tmp/ccAbMSjc.s:3085   .text:000000000000104c .LBE195
     /tmp/ccAbMSjc.s:3237   .text:00000000000010b0 .LBB197
     /tmp/ccAbMSjc.s:3248   .text:00000000000010b4 .LBE197
     /tmp/ccAbMSjc.s:10765  .debug_loc:0000000000000d79 .LLST97
     /tmp/ccAbMSjc.s:3253   .text:00000000000010b8 .LBB199
     /tmp/ccAbMSjc.s:3265   .text:00000000000010bc .LBE199
     /tmp/ccAbMSjc.s:10772  .debug_loc:0000000000000d9c .LLST98
     /tmp/ccAbMSjc.s:3228   .text:00000000000010a0 .LVL268
     /tmp/ccAbMSjc.s:3294   .text:00000000000010e0 .LVL276
     /tmp/ccAbMSjc.s:3302   .text:00000000000010ec .LVL277
     /tmp/ccAbMSjc.s:3310   .text:00000000000010f8 .LVL278
     /tmp/ccAbMSjc.s:3318   .text:0000000000001104 .LVL279
     /tmp/ccAbMSjc.s:3326   .text:0000000000001110 .LVL280
     /tmp/ccAbMSjc.s:3334   .text:000000000000111c .LVL281
     /tmp/ccAbMSjc.s:3342   .text:0000000000001128 .LVL282
     /tmp/ccAbMSjc.s:3350   .text:0000000000001134 .LVL283
     /tmp/ccAbMSjc.s:3358   .text:0000000000001140 .LVL284
     /tmp/ccAbMSjc.s:3366   .text:000000000000114c .LVL285
     /tmp/ccAbMSjc.s:3374   .text:0000000000001158 .LVL286
     /tmp/ccAbMSjc.s:3382   .text:0000000000001164 .LVL287
     /tmp/ccAbMSjc.s:3390   .text:0000000000001170 .LVL288
     /tmp/ccAbMSjc.s:3398   .text:000000000000117c .LVL289
     /tmp/ccAbMSjc.s:3406   .text:0000000000001188 .LVL290
     /tmp/ccAbMSjc.s:3414   .text:0000000000001194 .LVL291
     /tmp/ccAbMSjc.s:3431   .text:00000000000011b0 .LVL292
     /tmp/ccAbMSjc.s:3435   .text:00000000000011b8 .LVL293
     /tmp/ccAbMSjc.s:3441   .text:00000000000011bc .LBB175
     /tmp/ccAbMSjc.s:3572   .text:000000000000124c .LBE175
     /tmp/ccAbMSjc.s:3553   .text:000000000000122c .LBB183
     /tmp/ccAbMSjc.s:3568   .text:0000000000001248 .LBE183
     /tmp/ccAbMSjc.s:10779  .debug_loc:0000000000000dbf .LLST93
     /tmp/ccAbMSjc.s:3567   .text:0000000000001248 .LVL304
     /tmp/ccAbMSjc.s:3443   .text:00000000000011bc .LBB176
     /tmp/ccAbMSjc.s:3456   .text:00000000000011c0 .LBE176
     /tmp/ccAbMSjc.s:3460   .text:00000000000011c4 .LBB178
     /tmp/ccAbMSjc.s:3473   .text:00000000000011c8 .LBE178
     /tmp/ccAbMSjc.s:3478   .text:00000000000011cc .LBB180
     /tmp/ccAbMSjc.s:3490   .text:00000000000011d4 .LBE180
     /tmp/ccAbMSjc.s:10786  .debug_loc:0000000000000de2 .LLST92
     /tmp/ccAbMSjc.s:3521   .text:000000000000121c .LBB184
     /tmp/ccAbMSjc.s:3532   .text:0000000000001220 .LBE184
     /tmp/ccAbMSjc.s:10794  .debug_loc:0000000000000e06 .LLST94
     /tmp/ccAbMSjc.s:3537   .text:0000000000001224 .LBB186
     /tmp/ccAbMSjc.s:3551   .text:000000000000122c .LBE186
     /tmp/ccAbMSjc.s:10801  .debug_loc:0000000000000e29 .LLST95
     /tmp/ccAbMSjc.s:3500   .text:00000000000011f0 .LVL298
     /tmp/ccAbMSjc.s:3574   .text:000000000000124c .LBB160
     /tmp/ccAbMSjc.s:3734   .text:00000000000012e8 .LBE160
     /tmp/ccAbMSjc.s:10808  .debug_loc:0000000000000e4c .LLST87
     /tmp/ccAbMSjc.s:10815  .debug_loc:0000000000000e6f .LLST88
     /tmp/ccAbMSjc.s:10822  .debug_loc:0000000000000e92 .LLST89
     /tmp/ccAbMSjc.s:3728   .text:00000000000012e4 .LVL320
     /tmp/ccAbMSjc.s:3576   .text:000000000000124c .LBB161
     /tmp/ccAbMSjc.s:3589   .text:0000000000001250 .LBE161
     /tmp/ccAbMSjc.s:3593   .text:0000000000001254 .LBB163
GAS LISTING /tmp/ccAbMSjc.s 			page 143


     /tmp/ccAbMSjc.s:3606   .text:0000000000001258 .LBE163
     /tmp/ccAbMSjc.s:3687   .text:00000000000012bc .LBB168
     /tmp/ccAbMSjc.s:3698   .text:00000000000012c0 .LBE168
     /tmp/ccAbMSjc.s:10833  .debug_loc:0000000000000ec8 .LLST90
     /tmp/ccAbMSjc.s:3703   .text:00000000000012c4 .LBB170
     /tmp/ccAbMSjc.s:3717   .text:00000000000012cc .LBE170
     /tmp/ccAbMSjc.s:10840  .debug_loc:0000000000000eeb .LLST91
     /tmp/ccAbMSjc.s:3680   .text:00000000000012b0 .LVL314
     /tmp/ccAbMSjc.s:3682   .text:00000000000012b8 .LVL315
     /tmp/ccAbMSjc.s:3736   .text:00000000000012e8 .LBB157
     /tmp/ccAbMSjc.s:3786   .text:000000000000134c .LBE157
     /tmp/ccAbMSjc.s:10847  .debug_loc:0000000000000f0e .LLST86
     /tmp/ccAbMSjc.s:3752   .text:000000000000130c .LBB158
     /tmp/ccAbMSjc.s:3764   .text:0000000000001310 .LBE158
     /tmp/ccAbMSjc.s:3750   .text:000000000000130c .LVL323
     /tmp/ccAbMSjc.s:3771   .text:0000000000001324 .LVL324
     /tmp/ccAbMSjc.s:3776   .text:0000000000001334 .LVL325
     /tmp/ccAbMSjc.s:3781   .text:0000000000001344 .LVL326
     /tmp/ccAbMSjc.s:3785   .text:000000000000134c .LVL327
     /tmp/ccAbMSjc.s:2953   .text:0000000000000f78 .LBB152
     /tmp/ccAbMSjc.s:3049   .text:0000000000001040 .LBE152
     /tmp/ccAbMSjc.s:10854  .debug_loc:0000000000000f31 .LLST84
     /tmp/ccAbMSjc.s:10861  .debug_loc:0000000000000f54 .LLST85
     /tmp/ccAbMSjc.s:2965   .text:0000000000000f98 .LBB153
     /tmp/ccAbMSjc.s:2981   .text:0000000000000fa4 .LBE153
     /tmp/ccAbMSjc.s:2996   .text:0000000000000fc8 .LBB155
     /tmp/ccAbMSjc.s:3008   .text:0000000000000fcc .LBE155
     /tmp/ccAbMSjc.s:2958   .text:0000000000000f88 .LVL252
     /tmp/ccAbMSjc.s:2963   .text:0000000000000f98 .LVL253
     /tmp/ccAbMSjc.s:2989   .text:0000000000000fb8 .LVL256
     /tmp/ccAbMSjc.s:2994   .text:0000000000000fc8 .LVL257
     /tmp/ccAbMSjc.s:3015   .text:0000000000000fe0 .LVL258
     /tmp/ccAbMSjc.s:3020   .text:0000000000000ff0 .LVL259
     /tmp/ccAbMSjc.s:3028   .text:0000000000001010 .LVL260
     /tmp/ccAbMSjc.s:3042   .text:0000000000001034 .LVL262
     /tmp/ccAbMSjc.s:3046   .text:000000000000103c .LVL263
     /tmp/ccAbMSjc.s:2875   .text:0000000000000f08 .LBB146
     /tmp/ccAbMSjc.s:2890   .text:0000000000000f14 .LBE146
     /tmp/ccAbMSjc.s:3271   .text:00000000000010c4 .LVL273
     /tmp/ccAbMSjc.s:721    .text:0000000000000464 .LFB46
     /tmp/ccAbMSjc.s:780    .text:00000000000004ac .LFE46
     /tmp/ccAbMSjc.s:10868  .debug_loc:0000000000000f77 .LLST28
     /tmp/ccAbMSjc.s:639    .text:000000000000040c .LFB45
     /tmp/ccAbMSjc.s:715    .text:0000000000000464 .LFE45
     /tmp/ccAbMSjc.s:10881  .debug_loc:0000000000000faf .LLST27
     /tmp/ccAbMSjc.s:227    .text:0000000000000134 .LFB44
     /tmp/ccAbMSjc.s:633    .text:000000000000040c .LFE44
     /tmp/ccAbMSjc.s:11540  .debug_str:00000000000004aa .LASF340
     /tmp/ccAbMSjc.s:11500  .debug_str:000000000000038c .LASF341
     /tmp/ccAbMSjc.s:11794  .debug_str:0000000000000d07 .LASF342
     /tmp/ccAbMSjc.s:11964  .debug_str:000000000000122a .LASF343
     /tmp/ccAbMSjc.s:11694  .debug_str:00000000000009a1 .LASF344
     /tmp/ccAbMSjc.s:10894  .debug_loc:0000000000000fe7 .LLST12
     /tmp/ccAbMSjc.s:11538  .debug_str:00000000000004a5 .LASF345
     /tmp/ccAbMSjc.s:10901  .debug_loc:000000000000100a .LLST13
     /tmp/ccAbMSjc.s:11950  .debug_str:00000000000011d4 .LASF346
     /tmp/ccAbMSjc.s:10908  .debug_loc:000000000000102d .LLST14
GAS LISTING /tmp/ccAbMSjc.s 			page 144


     /tmp/ccAbMSjc.s:11378  .debug_str:0000000000000013 .LASF347
     /tmp/ccAbMSjc.s:10915  .debug_loc:0000000000001050 .LLST15
     /tmp/ccAbMSjc.s:345    .text:000000000000021c .LBB101
     /tmp/ccAbMSjc.s:369    .text:000000000000024c .LBE101
     /tmp/ccAbMSjc.s:10946  .debug_loc:00000000000010c0 .LLST16
     /tmp/ccAbMSjc.s:359    .text:0000000000000240 .LVL42
     /tmp/ccAbMSjc.s:370    .text:000000000000024c .LBB102
     /tmp/ccAbMSjc.s:389    .text:0000000000000274 .LBE102
     /tmp/ccAbMSjc.s:10960  .debug_loc:00000000000010f9 .LLST17
     /tmp/ccAbMSjc.s:379    .text:0000000000000268 .LVL45
     /tmp/ccAbMSjc.s:390    .text:0000000000000274 .LBB103
     /tmp/ccAbMSjc.s:409    .text:000000000000029c .LBE103
     /tmp/ccAbMSjc.s:10967  .debug_loc:000000000000111c .LLST18
     /tmp/ccAbMSjc.s:399    .text:0000000000000290 .LVL48
     /tmp/ccAbMSjc.s:410    .text:000000000000029c .LBB104
     /tmp/ccAbMSjc.s:426    .text:00000000000002c0 .LBE104
     /tmp/ccAbMSjc.s:10974  .debug_loc:000000000000113f .LLST19
     /tmp/ccAbMSjc.s:419    .text:00000000000002b8 .LVL51
     /tmp/ccAbMSjc.s:427    .text:00000000000002c0 .LBB105
     /tmp/ccAbMSjc.s:446    .text:00000000000002e8 .LBE105
     /tmp/ccAbMSjc.s:10981  .debug_loc:0000000000001162 .LLST20
     /tmp/ccAbMSjc.s:436    .text:00000000000002dc .LVL54
     /tmp/ccAbMSjc.s:447    .text:00000000000002e8 .LBB106
     /tmp/ccAbMSjc.s:466    .text:0000000000000310 .LBE106
     /tmp/ccAbMSjc.s:10988  .debug_loc:0000000000001185 .LLST21
     /tmp/ccAbMSjc.s:456    .text:0000000000000304 .LVL57
     /tmp/ccAbMSjc.s:467    .text:0000000000000310 .LBB107
     /tmp/ccAbMSjc.s:483    .text:0000000000000334 .LBE107
     /tmp/ccAbMSjc.s:10995  .debug_loc:00000000000011a8 .LLST22
     /tmp/ccAbMSjc.s:474    .text:0000000000000328 .LVL60
     /tmp/ccAbMSjc.s:258    .text:000000000000016c .LBB99
     /tmp/ccAbMSjc.s:270    .text:0000000000000170 .LBE99
     /tmp/ccAbMSjc.s:486    .text:0000000000000334 .LBB108
     /tmp/ccAbMSjc.s:498    .text:000000000000033c .LBE108
     /tmp/ccAbMSjc.s:11002  .debug_loc:00000000000011cb .LLST23
     /tmp/ccAbMSjc.s:552    .text:00000000000003c8 .LBB110
     /tmp/ccAbMSjc.s:553    .text:00000000000003c8 .LBB111
     /tmp/ccAbMSjc.s:566    .text:00000000000003d0 .LBE111
     /tmp/ccAbMSjc.s:11012  .debug_loc:00000000000011f1 .LLST24
     /tmp/ccAbMSjc.s:570    .text:00000000000003d0 .LBB113
     /tmp/ccAbMSjc.s:583    .text:00000000000003d8 .LBE113
     /tmp/ccAbMSjc.s:11020  .debug_loc:0000000000001215 .LLST25
     /tmp/ccAbMSjc.s:587    .text:00000000000003d8 .LBB115
     /tmp/ccAbMSjc.s:598    .text:00000000000003dc .LBE115
     /tmp/ccAbMSjc.s:11029  .debug_loc:000000000000123b .LLST26
     /tmp/ccAbMSjc.s:281    .text:0000000000000194 .LVL27
     /tmp/ccAbMSjc.s:285    .text:000000000000019c .LVL28
     /tmp/ccAbMSjc.s:289    .text:00000000000001a4 .LVL29
     /tmp/ccAbMSjc.s:293    .text:00000000000001ac .LVL30
     /tmp/ccAbMSjc.s:297    .text:00000000000001b4 .LVL31
     /tmp/ccAbMSjc.s:301    .text:00000000000001bc .LVL32
     /tmp/ccAbMSjc.s:305    .text:00000000000001c4 .LVL33
     /tmp/ccAbMSjc.s:508    .text:0000000000000360 .LVL65
     /tmp/ccAbMSjc.s:516    .text:000000000000037c .LVL66
     /tmp/ccAbMSjc.s:524    .text:0000000000000398 .LVL67
     /tmp/ccAbMSjc.s:532    .text:00000000000003b0 .LVL68
     /tmp/ccAbMSjc.s:66     .text:000000000000004c .LFB43
GAS LISTING /tmp/ccAbMSjc.s 			page 145


     /tmp/ccAbMSjc.s:221    .text:0000000000000134 .LFE43
     /tmp/ccAbMSjc.s:11037  .debug_loc:000000000000125f .LLST1
     /tmp/ccAbMSjc.s:11062  .debug_loc:00000000000012c1 .LLST2
     /tmp/ccAbMSjc.s:11760  .debug_str:0000000000000beb .LASF348
     /tmp/ccAbMSjc.s:11087  .debug_loc:0000000000001323 .LLST3
     /tmp/ccAbMSjc.s:11936  .debug_str:0000000000001168 .LASF349
     /tmp/ccAbMSjc.s:11113  .debug_loc:0000000000001395 .LLST4
     /tmp/ccAbMSjc.s:11570  .debug_str:00000000000005b7 .LASF350
     /tmp/ccAbMSjc.s:11166  .debug_loc:0000000000001426 .LLST5
     /tmp/ccAbMSjc.s:11944  .debug_str:00000000000011ac .LASF351
     /tmp/ccAbMSjc.s:11201  .debug_loc:0000000000001494 .LLST6
     /tmp/ccAbMSjc.s:11824  .debug_str:0000000000000e3e .LASF352
     /tmp/ccAbMSjc.s:11233  .debug_loc:00000000000014ff .LLST7
     /tmp/ccAbMSjc.s:11428  .debug_str:00000000000001b2 .LASF353
     /tmp/ccAbMSjc.s:11244  .debug_loc:0000000000001535 .LLST8
     /tmp/ccAbMSjc.s:11848  .debug_str:0000000000000ecb .LASF354
     /tmp/ccAbMSjc.s:11265  .debug_loc:0000000000001593 .LLST9
     /tmp/ccAbMSjc.s:11796  .debug_str:0000000000000d12 .LASF355
     /tmp/ccAbMSjc.s:11281  .debug_loc:00000000000015dd .LLST10
     /tmp/ccAbMSjc.s:11606  .debug_str:00000000000006b7 .LASF356
     /tmp/ccAbMSjc.s:11302  .debug_loc:000000000000163b .LLST11
     /tmp/ccAbMSjc.s:193    .text:0000000000000104 .LVL22
     /tmp/ccAbMSjc.s:209    .text:0000000000000120 .LVL24
     /tmp/ccAbMSjc.s:10     .text:0000000000000000 .LFB42
     /tmp/ccAbMSjc.s:60     .text:000000000000004c .LFE42
     /tmp/ccAbMSjc.s:29     .text:000000000000001c .LBB98
     /tmp/ccAbMSjc.s:49     .text:000000000000003c .LBE98
     /tmp/ccAbMSjc.s:11309  .debug_loc:000000000000165e .LLST0
     /tmp/ccAbMSjc.s:26     .text:000000000000001c .LVL0
     /tmp/ccAbMSjc.s:11850  .debug_str:0000000000000ed4 .LASF357
     /tmp/ccAbMSjc.s:11478  .debug_str:000000000000030d .LASF358
     /tmp/ccAbMSjc.s:11490  .debug_str:0000000000000350 .LASF371
     /tmp/ccAbMSjc.s:11398  .debug_str:00000000000000ad .LASF372
     /tmp/ccAbMSjc.s:12092  .debug_str:0000000000001735 .LASF359
     /tmp/ccAbMSjc.s:12052  .debug_str:0000000000001568 .LASF360
     /tmp/ccAbMSjc.s:11674  .debug_str:000000000000090e .LASF361
     /tmp/ccAbMSjc.s:11636  .debug_str:00000000000007cf .LASF362
     /tmp/ccAbMSjc.s:11762  .debug_str:0000000000000bf0 .LASF363
     /tmp/ccAbMSjc.s:3802   .text:0000000000001350 .LVL328
     /tmp/ccAbMSjc.s:3830   .text:0000000000001380 .LVL330
     /tmp/ccAbMSjc.s:3840   .text:0000000000001394 .LVL332
     /tmp/ccAbMSjc.s:3844   .text:0000000000001398 .LVL333
     /tmp/ccAbMSjc.s:3893   .text:00000000000013c0 .LVL336
     /tmp/ccAbMSjc.s:3890   .text:00000000000013bc .LVL335
     /tmp/ccAbMSjc.s:3896   .text:00000000000013c4 .LVL337
     /tmp/ccAbMSjc.s:3821   .text:0000000000001378 .LVL329
     /tmp/ccAbMSjc.s:2806   .text:0000000000000ed4 .LVL249
     /tmp/ccAbMSjc.s:2811   .text:0000000000000ed8 .LVL250
     /tmp/ccAbMSjc.s:2574   .text:0000000000000d98 .LVL234
     /tmp/ccAbMSjc.s:2582   .text:0000000000000db0 .LVL235
     /tmp/ccAbMSjc.s:2638   .text:0000000000000e34 .LVL239
     /tmp/ccAbMSjc.s:2738   .text:0000000000000ea0 .LVL243
     /tmp/ccAbMSjc.s:2749   .text:0000000000000eac .LVL246
     /tmp/ccAbMSjc.s:2744   .text:0000000000000ea4 .LVL244
     /tmp/ccAbMSjc.s:2732   .text:0000000000000e94 .LVL242
     /tmp/ccAbMSjc.s:2746   .text:0000000000000ea8 .LVL245
     /tmp/ccAbMSjc.s:2499   .text:0000000000000d2c .LVL226
GAS LISTING /tmp/ccAbMSjc.s 			page 146


     /tmp/ccAbMSjc.s:2527   .text:0000000000000d4c .LVL229
     /tmp/ccAbMSjc.s:2531   .text:0000000000000d54 .LVL230
     /tmp/ccAbMSjc.s:2505   .text:0000000000000d30 .LVL227
     /tmp/ccAbMSjc.s:2423   .text:0000000000000cc4 .LVL218
     /tmp/ccAbMSjc.s:2451   .text:0000000000000ce4 .LVL221
     /tmp/ccAbMSjc.s:2455   .text:0000000000000cec .LVL222
     /tmp/ccAbMSjc.s:2429   .text:0000000000000cc8 .LVL219
     /tmp/ccAbMSjc.s:1087   .text:0000000000000638 .LVL107
     /tmp/ccAbMSjc.s:1100   .text:0000000000000640 .LVL108
     /tmp/ccAbMSjc.s:1121   .text:0000000000000648 .LVL109
     /tmp/ccAbMSjc.s:1009   .text:00000000000005e4 .LVL104
     /tmp/ccAbMSjc.s:1019   .text:00000000000005ec .LVL105
     /tmp/ccAbMSjc.s:882    .text:0000000000000538 .LVL95
     /tmp/ccAbMSjc.s:892    .text:000000000000054c .LVL96
     /tmp/ccAbMSjc.s:909    .text:0000000000000560 .LVL98
     /tmp/ccAbMSjc.s:932    .text:0000000000000570 .LVL100
     /tmp/ccAbMSjc.s:946    .text:000000000000058c .LVL102
     /tmp/ccAbMSjc.s:957    .text:0000000000000594 .LVL103
     /tmp/ccAbMSjc.s:856    .text:000000000000051c .LVL93
     /tmp/ccAbMSjc.s:2300   .text:0000000000000c20 .LVL207
     /tmp/ccAbMSjc.s:2307   .text:0000000000000c30 .LVL208
     /tmp/ccAbMSjc.s:2332   .text:0000000000000c50 .LVL210
     /tmp/ccAbMSjc.s:2338   .text:0000000000000c54 .LVL211
     /tmp/ccAbMSjc.s:2347   .text:0000000000000c6c .LVL214
     /tmp/ccAbMSjc.s:2215   .text:0000000000000b8c .LVL201
     /tmp/ccAbMSjc.s:2259   .text:0000000000000bd8 .LVL205
     /tmp/ccAbMSjc.s:2143   .text:0000000000000b34 .LVL196
     /tmp/ccAbMSjc.s:2150   .text:0000000000000b3c .LVL197
     /tmp/ccAbMSjc.s:2173   .text:0000000000000b58 .LVL199
     /tmp/ccAbMSjc.s:2066   .text:0000000000000ad4 .LVL189
     /tmp/ccAbMSjc.s:2071   .text:0000000000000ad8 .LVL190
     /tmp/ccAbMSjc.s:2105   .text:0000000000000b0c .LVL193
     /tmp/ccAbMSjc.s:2083   .text:0000000000000af0 .LVL191
     /tmp/ccAbMSjc.s:2113   .text:0000000000000b18 .LVL195
     /tmp/ccAbMSjc.s:1993   .text:0000000000000a78 .LVL182
     /tmp/ccAbMSjc.s:2023   .text:0000000000000a98 .LVL185
     /tmp/ccAbMSjc.s:2027   .text:0000000000000aa0 .LVL186
     /tmp/ccAbMSjc.s:2002   .text:0000000000000a80 .LVL183
     /tmp/ccAbMSjc.s:1864   .text:00000000000009e4 .LVL168
     /tmp/ccAbMSjc.s:1921   .text:0000000000000a30 .LVL175
     /tmp/ccAbMSjc.s:1928   .text:0000000000000a3c .LVL177
     /tmp/ccAbMSjc.s:1937   .text:0000000000000a48 .LVL179
     /tmp/ccAbMSjc.s:1870   .text:00000000000009e8 .LVL169
     /tmp/ccAbMSjc.s:1924   .text:0000000000000a34 .LVL176
     /tmp/ccAbMSjc.s:1918   .text:0000000000000a2c .LVL174
     /tmp/ccAbMSjc.s:1934   .text:0000000000000a44 .LVL178
     /tmp/ccAbMSjc.s:1897   .text:0000000000000a14 .LVL172
     /tmp/ccAbMSjc.s:801    .text:00000000000004c8 .LVL91
     /tmp/ccAbMSjc.s:1777   .text:000000000000097c .LVL162
     /tmp/ccAbMSjc.s:1801   .text:00000000000009a0 .LVL165
     /tmp/ccAbMSjc.s:1823   .text:00000000000009bc .LVL167
     /tmp/ccAbMSjc.s:1787   .text:000000000000098c .LVL163
     /tmp/ccAbMSjc.s:1709   .text:0000000000000928 .LVL156
     /tmp/ccAbMSjc.s:1717   .text:0000000000000930 .LVL157
     /tmp/ccAbMSjc.s:1740   .text:000000000000094c .LVL159
     /tmp/ccAbMSjc.s:1567   .text:000000000000087c .LVL140
     /tmp/ccAbMSjc.s:1636   .text:00000000000008e0 .LVL148
GAS LISTING /tmp/ccAbMSjc.s 			page 147


     /tmp/ccAbMSjc.s:1646   .text:00000000000008f0 .LVL151
     /tmp/ccAbMSjc.s:1573   .text:0000000000000880 .LVL141
     /tmp/ccAbMSjc.s:1633   .text:00000000000008dc .LVL147
     /tmp/ccAbMSjc.s:1655   .text:00000000000008fc .LVL153
     /tmp/ccAbMSjc.s:1561   .text:0000000000000878 .LVL139
     /tmp/ccAbMSjc.s:1639   .text:00000000000008e4 .LVL149
     /tmp/ccAbMSjc.s:1555   .text:0000000000000874 .LVL138
     /tmp/ccAbMSjc.s:1642   .text:00000000000008e8 .LVL150
     /tmp/ccAbMSjc.s:1630   .text:00000000000008d8 .LVL146
     /tmp/ccAbMSjc.s:1652   .text:00000000000008f8 .LVL152
     /tmp/ccAbMSjc.s:1609   .text:00000000000008c0 .LVL144
     /tmp/ccAbMSjc.s:1389   .text:00000000000007a8 .LVL121
     /tmp/ccAbMSjc.s:1465   .text:0000000000000818 .LVL130
     /tmp/ccAbMSjc.s:1475   .text:0000000000000828 .LVL133
     /tmp/ccAbMSjc.s:1395   .text:00000000000007ac .LVL122
     /tmp/ccAbMSjc.s:1468   .text:000000000000081c .LVL131
     /tmp/ccAbMSjc.s:1383   .text:00000000000007a4 .LVL120
     /tmp/ccAbMSjc.s:1462   .text:0000000000000814 .LVL129
     /tmp/ccAbMSjc.s:1484   .text:0000000000000834 .LVL135
     /tmp/ccAbMSjc.s:1377   .text:00000000000007a0 .LVL119
     /tmp/ccAbMSjc.s:1471   .text:0000000000000820 .LVL132
     /tmp/ccAbMSjc.s:1459   .text:0000000000000810 .LVL128
     /tmp/ccAbMSjc.s:1481   .text:0000000000000830 .LVL134
     /tmp/ccAbMSjc.s:1438   .text:00000000000007f8 .LVL126
     /tmp/ccAbMSjc.s:1332   .text:000000000000076c .LVL117
     /tmp/ccAbMSjc.s:1302   .text:000000000000074c .LVL115
     /tmp/ccAbMSjc.s:1250   .text:0000000000000704 .LVL112
     /tmp/ccAbMSjc.s:2872   .text:0000000000000f08 .LVL251
     /tmp/ccAbMSjc.s:3281   .text:00000000000010d0 .LVL274
     /tmp/ccAbMSjc.s:3285   .text:00000000000010d8 .LVL275
     /tmp/ccAbMSjc.s:3108   .text:0000000000001074 .LVL266
     /tmp/ccAbMSjc.s:3114   .text:0000000000001080 .LVL267
     /tmp/ccAbMSjc.s:3236   .text:00000000000010b0 .LVL269
     /tmp/ccAbMSjc.s:3245   .text:00000000000010b4 .LVL270
     /tmp/ccAbMSjc.s:3252   .text:00000000000010b8 .LVL271
     /tmp/ccAbMSjc.s:3261   .text:00000000000010bc .LVL272
     /tmp/ccAbMSjc.s:3559   .text:0000000000001238 .LVL303
     /tmp/ccAbMSjc.s:3477   .text:00000000000011cc .LVL296
     /tmp/ccAbMSjc.s:3487   .text:00000000000011d4 .LVL297
     /tmp/ccAbMSjc.s:3520   .text:000000000000121c .LVL299
     /tmp/ccAbMSjc.s:3529   .text:0000000000001220 .LVL300
     /tmp/ccAbMSjc.s:3536   .text:0000000000001224 .LVL301
     /tmp/ccAbMSjc.s:3548   .text:000000000000122c .LVL302
     /tmp/ccAbMSjc.s:3613   .text:0000000000001268 .LVL307
     /tmp/ccAbMSjc.s:3636   .text:0000000000001278 .LVL309
     /tmp/ccAbMSjc.s:3646   .text:0000000000001288 .LVL310
     /tmp/ccAbMSjc.s:3669   .text:00000000000012a0 .LVL312
     /tmp/ccAbMSjc.s:3665   .text:0000000000001298 .LVL311
     /tmp/ccAbMSjc.s:3673   .text:00000000000012a8 .LVL313
     /tmp/ccAbMSjc.s:3714   .text:00000000000012cc .LVL319
     /tmp/ccAbMSjc.s:3686   .text:00000000000012bc .LVL316
     /tmp/ccAbMSjc.s:3695   .text:00000000000012c0 .LVL317
     /tmp/ccAbMSjc.s:3702   .text:00000000000012c4 .LVL318
     /tmp/ccAbMSjc.s:3741   .text:00000000000012f4 .LVL322
     /tmp/ccAbMSjc.s:2979   .text:0000000000000fa4 .LVL254
     /tmp/ccAbMSjc.s:2987   .text:0000000000000fb0 .LVL255
     /tmp/ccAbMSjc.s:3033   .text:000000000000101c .LVL261
GAS LISTING /tmp/ccAbMSjc.s 			page 148


     /tmp/ccAbMSjc.s:731    .text:0000000000000470 .LVL87
     /tmp/ccAbMSjc.s:743    .text:0000000000000490 .LVL88
     /tmp/ccAbMSjc.s:768    .text:00000000000004a4 .LVL90
     /tmp/ccAbMSjc.s:649    .text:0000000000000418 .LVL83
     /tmp/ccAbMSjc.s:659    .text:0000000000000430 .LVL84
     /tmp/ccAbMSjc.s:703    .text:000000000000045c .LVL86
     /tmp/ccAbMSjc.s:327    .text:00000000000001f0 .LVL38
     /tmp/ccAbMSjc.s:444    .text:00000000000002e8 .LVL56
     /tmp/ccAbMSjc.s:332    .text:00000000000001fc .LVL39
     /tmp/ccAbMSjc.s:628    .text:0000000000000404 .LVL82
     /tmp/ccAbMSjc.s:343    .text:000000000000021c .LVL40
     /tmp/ccAbMSjc.s:464    .text:0000000000000310 .LVL59
     /tmp/ccAbMSjc.s:541    .text:00000000000003c4 .LVL69
     /tmp/ccAbMSjc.s:558    .text:00000000000003cc .LVL71
     /tmp/ccAbMSjc.s:575    .text:00000000000003d4 .LVL73
     /tmp/ccAbMSjc.s:349    .text:0000000000000224 .LVL41
     /tmp/ccAbMSjc.s:625    .text:0000000000000400 .LVL81
     /tmp/ccAbMSjc.s:368    .text:000000000000024c .LVL44
     /tmp/ccAbMSjc.s:622    .text:00000000000003fc .LVL80
     /tmp/ccAbMSjc.s:388    .text:0000000000000274 .LVL47
     /tmp/ccAbMSjc.s:619    .text:00000000000003f8 .LVL79
     /tmp/ccAbMSjc.s:408    .text:000000000000029c .LVL50
     /tmp/ccAbMSjc.s:616    .text:00000000000003f4 .LVL78
     /tmp/ccAbMSjc.s:425    .text:00000000000002c0 .LVL53
     /tmp/ccAbMSjc.s:613    .text:00000000000003f0 .LVL77
     /tmp/ccAbMSjc.s:610    .text:00000000000003ec .LVL76
     /tmp/ccAbMSjc.s:502    .text:0000000000000344 .LVL64
     /tmp/ccAbMSjc.s:485    .text:0000000000000334 .LVL62
     /tmp/ccAbMSjc.s:495    .text:000000000000033c .LVL63
     /tmp/ccAbMSjc.s:550    .text:00000000000003c8 .LVL70
     /tmp/ccAbMSjc.s:563    .text:00000000000003d0 .LVL72
     /tmp/ccAbMSjc.s:580    .text:00000000000003d8 .LVL74
     /tmp/ccAbMSjc.s:595    .text:00000000000003dc .LVL75
     /tmp/ccAbMSjc.s:69     .text:000000000000004c .LVL4
     /tmp/ccAbMSjc.s:122    .text:00000000000000a0 .LVL10
     /tmp/ccAbMSjc.s:187    .text:00000000000000fc .LVL21
     /tmp/ccAbMSjc.s:125    .text:00000000000000a4 .LVL11
     /tmp/ccAbMSjc.s:163    .text:00000000000000d4 .LVL20
     /tmp/ccAbMSjc.s:94     .text:000000000000007c .LVL5
     /tmp/ccAbMSjc.s:111    .text:0000000000000090 .LVL8
     /tmp/ccAbMSjc.s:101    .text:0000000000000084 .LVL6
     /tmp/ccAbMSjc.s:130    .text:00000000000000a8 .LVL12
     /tmp/ccAbMSjc.s:204    .text:0000000000000118 .LVL23
     /tmp/ccAbMSjc.s:107    .text:000000000000008c .LVL7
     /tmp/ccAbMSjc.s:149    .text:00000000000000c0 .LVL16
     /tmp/ccAbMSjc.s:160    .text:00000000000000d0 .LVL19
     /tmp/ccAbMSjc.s:115    .text:0000000000000098 .LVL9
     /tmp/ccAbMSjc.s:134    .text:00000000000000b0 .LVL13
     /tmp/ccAbMSjc.s:141    .text:00000000000000b8 .LVL14
     /tmp/ccAbMSjc.s:144    .text:00000000000000bc .LVL15
     /tmp/ccAbMSjc.s:151    .text:00000000000000c4 .LVL17
     /tmp/ccAbMSjc.s:154    .text:00000000000000c8 .LVL18
     /tmp/ccAbMSjc.s:32     .text:0000000000000020 .LVL1
     /tmp/ccAbMSjc.s:45     .text:0000000000000038 .LVL2
     /tmp/ccAbMSjc.s:47     .text:000000000000003c .LVL3
     /tmp/ccAbMSjc.s:3979   .debug_info:0000000000000000 .Ldebug_info0
     /tmp/ccAbMSjc.s:567    .text:00000000000003d0 .LBE110
GAS LISTING /tmp/ccAbMSjc.s 			page 149


     /tmp/ccAbMSjc.s:569    .text:00000000000003d0 .LBB117
     /tmp/ccAbMSjc.s:584    .text:00000000000003d8 .LBE117
     /tmp/ccAbMSjc.s:586    .text:00000000000003d8 .LBB118
     /tmp/ccAbMSjc.s:599    .text:00000000000003dc .LBE118
     /tmp/ccAbMSjc.s:894    .text:000000000000054c .LBB119
     /tmp/ccAbMSjc.s:902    .text:0000000000000554 .LBE119
     /tmp/ccAbMSjc.s:904    .text:0000000000000554 .LBB123
     /tmp/ccAbMSjc.s:983    .text:00000000000005c0 .LBE123
     /tmp/ccAbMSjc.s:1085   .text:0000000000000638 .LBE128
     /tmp/ccAbMSjc.s:1088   .text:0000000000000638 .LBB138
     /tmp/ccAbMSjc.s:1107   .text:0000000000000640 .LBE138
     /tmp/ccAbMSjc.s:1109   .text:0000000000000640 .LBB139
     /tmp/ccAbMSjc.s:1128   .text:0000000000000648 .LBE139
     /tmp/ccAbMSjc.s:3639   .text:000000000000127c .LBB166
     /tmp/ccAbMSjc.s:3675   .text:00000000000012a8 .LBE166
     /tmp/ccAbMSjc.s:3719   .text:00000000000012cc .LBB167
     /tmp/ccAbMSjc.s:3732   .text:00000000000012e8 .LBE167
     /tmp/ccAbMSjc.s:3053   .text:0000000000001040 .LBB192
     /tmp/ccAbMSjc.s:3266   .text:00000000000010bc .LBE192
     /tmp/ccAbMSjc.s:3289   .text:00000000000010d8 .LBB201
     /tmp/ccAbMSjc.s:3439   .text:00000000000011bc .LBE201
     /tmp/ccAbMSjc.s:1498   .gcc_except_table:0000000000000000 .LLSDA50
     /tmp/ccAbMSjc.s:1668   .gcc_except_table:0000000000000038 .LLSDA51
     /tmp/ccAbMSjc.s:1950   .gcc_except_table:0000000000000063 .LLSDA55
     /tmp/ccAbMSjc.s:2763   .gcc_except_table:000000000000008e .LLSDA69

UNDEFINED SYMBOLS
_ZN5Buddy5allocEm
_ZN5RiscV14supervisorTrapEv
HEAP_START_ADDR
_Z9kmem_initPvi
_ZN15MemoryAllocator10initializeEv
_ZN9Scheduler10initializeEv
_ZN3TCB10initializeEv
_ZN3SCB10initializeEv
_ZN11ConsoleUtil10initializeEv
kernelTextEnd
userTextStart
userDataStart
userDataEnd
HEAP_END_ADDR
_ZN5Buddy16BLOCKS_AVAILABLEE
_ZN5Buddy16BUDDY_START_ADDRE
CONSOLE_RX_DATA
CONSOLE_TX_DATA
CONSOLE_STATUS
_ZN3TCB7runningE
_ZN10TCBWrapper7tcbWrapEPFvPvES0_
_ZN3TCB8dispatchEv
_ZN11ConsoleUtil11pendingPutcE
_ZN11ConsoleUtil9putOutputEc
_ZN11ConsoleUtil15putcUtilSyscallEv
_ZN11ConsoleUtil11pendingGetcE
_ZN9Scheduler9readyHeadE
_ZN3TCB10putcThreadE
_ZN9Scheduler3putEP3TCB
_ZN11ConsoleUtil10outputHeadE
GAS LISTING /tmp/ccAbMSjc.s 			page 150


_ZN11ConsoleUtil10outputTailE
_ZN15MemoryAllocator7kmallocEm
_ZN15MemoryAllocator11initializedE
_ZN15MemoryAllocator5kfreeEPv
_ZN3TCBnwEm
_ZN3TCBC1EPFvPvES0_Pmm
_ZN3TCBdlEPv
_Unwind_Resume
__gxx_personality_v0
_ZN3SCBnwEm
_ZN3SCBC1Em
_ZN3SCBdlEPv
_ZN3SCBD1Ev
_ZN3SCB4waitEv
_ZN3SCB6signalEv
_ZN9Scheduler5sleepEP3TCB
_ZN11ConsoleUtil8getInputEv
_ZN11ConsoleUtil9getOutputEv
_Z5kfreePKv
_ZN3TCBD1Ev
_Z7kmallocm
_ZN15MemoryAllocator6memcpyEPvS0_m
_ZN3TCB9currentPCE
_ZN3TCB9currentSPE
_ZN11ConsoleUtil11printStringEPKc
_ZN11ConsoleUtil8printIntEiii
_ZN11ConsoleUtil5printEPKciS1_i
_ZN9Scheduler5awakeEv
_ZN3TCB16timeSliceCounterE
plic_claim
plic_complete
_ZN11ConsoleUtil8putInputEc
