GAS LISTING /tmp/ccy6xxkH.s 			page 1


   1              		.file	"riscv.cpp"
   2              		.option pic
   3              		.option norelax
   4              		.text
   5              	.Ltext0:
   6              		.align	2
   7              		.globl	_ZN5RiscV10popSppSpieEv
   9              	_ZN5RiscV10popSppSpieEv:
  10              	.LFB45:
  11              		.file 1 "src/kernel/riscv.cpp"
   1:src/kernel/riscv.cpp **** //
   2:src/kernel/riscv.cpp **** // Created by os on 4/28/22.
   3:src/kernel/riscv.cpp **** //
   4:src/kernel/riscv.cpp **** 
   5:src/kernel/riscv.cpp **** #include "../../h/riscv.hpp"
   6:src/kernel/riscv.cpp **** #include "../../h/memoryAllocator.hpp"
   7:src/kernel/riscv.cpp **** #include "../../h/tcb.hpp"
   8:src/kernel/riscv.cpp **** #include "../../h/scheduler.hpp"
   9:src/kernel/riscv.cpp **** #include "../../h/printing.hpp"
  10:src/kernel/riscv.cpp **** #include "../../h/scb.hpp"
  11:src/kernel/riscv.cpp **** #include "../../h/userWrappers.hpp"
  12:src/kernel/riscv.cpp **** 
  13:src/kernel/riscv.cpp **** uint64 RiscV::globalTime = 0;
  14:src/kernel/riscv.cpp **** bool RiscV::userMainFinished = false;
  15:src/kernel/riscv.cpp **** void* RiscV::kPMT = nullptr;
  16:src/kernel/riscv.cpp **** void* RiscV::uPMT = nullptr;
  17:src/kernel/riscv.cpp **** 
  18:src/kernel/riscv.cpp **** //initailize each of the key components and switch to user mode for user code execution
  19:src/kernel/riscv.cpp **** void RiscV::initialize(){
  20:src/kernel/riscv.cpp ****     RiscV::w_stvec((uint64) &RiscV::supervisorTrap);
  21:src/kernel/riscv.cpp ****     kmem_init(BUDDY_START_ADDR_CONST, 4096);
  22:src/kernel/riscv.cpp ****     MemoryAllocator::initialize();
  23:src/kernel/riscv.cpp ****     Scheduler::initialize();
  24:src/kernel/riscv.cpp ****     TCB::initialize();
  25:src/kernel/riscv.cpp ****     SCB::initialize();
  26:src/kernel/riscv.cpp ****     ConsoleUtil::initialize();
  27:src/kernel/riscv.cpp ****     RiscV::buildKernelPMT();
  28:src/kernel/riscv.cpp ****     RiscV::startVirtualMemory();
  29:src/kernel/riscv.cpp ****     RiscV::enableInterrupts();
  30:src/kernel/riscv.cpp **** }
  31:src/kernel/riscv.cpp **** 
  32:src/kernel/riscv.cpp **** //get previous privilege and previous interrupt status
  33:src/kernel/riscv.cpp **** void RiscV::popSppSpie() {
  12              		.loc 1 33 26
  13              		.cfi_startproc
  14 0000 130101FF 		addi	sp,sp,-16
  15              		.cfi_def_cfa_offset 16
  16 0004 23348100 		sd	s0,8(sp)
  17              		.cfi_offset 8, -8
  18 0008 13040101 		addi	s0,sp,16
  19              		.cfi_def_cfa 8, 0
  34:src/kernel/riscv.cpp ****     uint64 ra = 0;
  20              		.loc 1 34 5
  21              	.LVL0:
  35:src/kernel/riscv.cpp ****     if(TCB::running->mode == TCB::Mode::SUPERVISOR)
  22              		.loc 1 35 5
  23              		.loc 1 35 22 is_stmt 0
GAS LISTING /tmp/ccy6xxkH.s 			page 2


  24 000c 97070000 		la	a5,_ZN3TCB7runningE
  24      83B70700 
  25 0014 83B70700 		ld	a5,0(a5)
  26 0018 83A64701 		lw	a3,20(a5)
  27              		.loc 1 35 5
  28 001c 13071000 		li	a4,1
  29 0020 6388E602 		beq	a3,a4,.L5
  36:src/kernel/riscv.cpp ****         asm("csrw sepc, ra");
  37:src/kernel/riscv.cpp ****     else
  38:src/kernel/riscv.cpp ****     {
  39:src/kernel/riscv.cpp ****         ra = (uint64)bodyWrapper;
  30              		.loc 1 39 9 is_stmt 1
  31              	.LVL1:
  40:src/kernel/riscv.cpp ****         asm("mv a0, %[iarg]" : : [iarg] "r" (TCB::running->body));
  32              		.loc 1 40 9
  33              		.loc 1 40 60 is_stmt 0
  34 0024 03B78701 		ld	a4,24(a5)
  35              		.loc 1 40 66
  36              	#APP
  37              	# 40 "src/kernel/riscv.cpp" 1
  41              	        asm("mv a1, %[iarg]" : : [iarg] "r" (TCB::running->args));
  38              		mv a0, a4
  39              	# 0 "" 2
  40              		.loc 1 41 9 is_stmt 1
  41              		.loc 1 41 60 is_stmt 0
  42              	#NO_APP
  43 002c 83B70702 		ld	a5,32(a5)
  44              		.loc 1 41 66
  45              	#APP
  46              	# 41 "src/kernel/riscv.cpp" 1
  42              	        asm("csrw sepc, %[ra]" : : [ra] "r" (ra));
  47              		mv a1, a5
  48              	# 0 "" 2
  49              		.loc 1 42 9 is_stmt 1
  50              		.loc 1 42 50 is_stmt 0
  51              	#NO_APP
  52 0034 97070000 		la	a5,_Z11bodyWrapperPFvPvES_
  52      83B70700 
  53              	#APP
  54              	# 42 "src/kernel/riscv.cpp" 1
  43              	    }
  55              		csrw sepc, a5
  56              	# 0 "" 2
  57              	.LVL2:
  58              	#NO_APP
  59              	.L3:
  44:src/kernel/riscv.cpp ****     asm("sret");
  60              		.loc 1 44 5 is_stmt 1
  61              		.loc 1 44 16 is_stmt 0
  62              	#APP
  63              	# 44 "src/kernel/riscv.cpp" 1
  45              	}
  64              		sret
  65              	# 0 "" 2
  66              		.loc 1 45 1
  67              	#NO_APP
  68 0044 03348100 		ld	s0,8(sp)
GAS LISTING /tmp/ccy6xxkH.s 			page 3


  69              		.cfi_remember_state
  70              		.cfi_restore 8
  71              		.cfi_def_cfa 2, 16
  72 0048 13010101 		addi	sp,sp,16
  73              		.cfi_def_cfa_offset 0
  74 004c 67800000 		jr	ra
  75              	.LVL3:
  76              	.L5:
  77              		.cfi_restore_state
  36:src/kernel/riscv.cpp ****         asm("csrw sepc, ra");
  78              		.loc 1 36 9 is_stmt 1
  36:src/kernel/riscv.cpp ****         asm("csrw sepc, ra");
  79              		.loc 1 36 29 is_stmt 0
  80              	#APP
  81              	# 36 "src/kernel/riscv.cpp" 1
  82              		csrw sepc, ra
  83              	# 0 "" 2
  84              	#NO_APP
  85 0054 6FF0DFFE 		j	.L3
  86              		.cfi_endproc
  87              	.LFE45:
  89              		.align	2
  90              		.globl	_ZN5RiscV28executeThreadDispatchSyscallEv
  92              	_ZN5RiscV28executeThreadDispatchSyscallEv:
  93              	.LFB53:
  46:src/kernel/riscv.cpp **** 
  47:src/kernel/riscv.cpp **** //handler function for traps
  48:src/kernel/riscv.cpp **** void RiscV::handleSupervisorTrap() {
  49:src/kernel/riscv.cpp **** 
  50:src/kernel/riscv.cpp ****     //read scause
  51:src/kernel/riscv.cpp ****     uint64 stval;
  52:src/kernel/riscv.cpp ****     asm("csrr %[stval], stval" : [stval] "=r" (stval));
  53:src/kernel/riscv.cpp ****     uint64 volatile scause = RiscV::r_scause();
  54:src/kernel/riscv.cpp **** 
  55:src/kernel/riscv.cpp ****     asm("csrr %[sscratch], sscratch" : [sscratch] "=r" (TCB::running->a0Location));
  56:src/kernel/riscv.cpp **** 
  57:src/kernel/riscv.cpp ****     if(scause == 0x09 || scause == 0x08) {
  58:src/kernel/riscv.cpp **** 
  59:src/kernel/riscv.cpp ****         //save sstatus and sepc
  60:src/kernel/riscv.cpp ****         //sepc should be increased by 4, since this is an ecall trap
  61:src/kernel/riscv.cpp ****         uint64 volatile sstatus = RiscV::r_sstatus();
  62:src/kernel/riscv.cpp ****         uint64 volatile sepc = RiscV::r_sepc()+4;
  63:src/kernel/riscv.cpp ****         TCB::running->sepc = sepc;
  64:src/kernel/riscv.cpp ****         TCB::running->sstatus = sstatus;
  65:src/kernel/riscv.cpp **** 
  66:src/kernel/riscv.cpp ****         //get the syscall ID from a0
  67:src/kernel/riscv.cpp ****         uint64 syscallID;
  68:src/kernel/riscv.cpp ****         asm("mv %[syscallID], a0" : [syscallID] "=r" (syscallID));
  69:src/kernel/riscv.cpp **** 
  70:src/kernel/riscv.cpp ****         switch(syscallID){
  71:src/kernel/riscv.cpp ****             case 0x01 : executeMemAllocSyscall();break;
  72:src/kernel/riscv.cpp ****             case 0x02 : executeMemFreeSyscall();break;
  73:src/kernel/riscv.cpp ****             case 0x11 : executeThreadCreateSyscall();break;
  74:src/kernel/riscv.cpp ****             case 0x12 : executeThreadExitSyscall();break;
  75:src/kernel/riscv.cpp ****             case 0x13 : executeThreadDispatchSyscall();break;
  76:src/kernel/riscv.cpp ****             case 0x14 : executeThreadAttachBodySyscall();break;
  77:src/kernel/riscv.cpp ****             case 0x15 : executeThreadStartSyscall();break;
GAS LISTING /tmp/ccy6xxkH.s 			page 4


  78:src/kernel/riscv.cpp ****             case 0x21 : executeSemOpenSyscall();break;
  79:src/kernel/riscv.cpp ****             case 0x22 : executeSemCloseSyscall();break;
  80:src/kernel/riscv.cpp ****             case 0x23 : executeSemWaitSyscall();break;
  81:src/kernel/riscv.cpp ****             case 0x24 : executeSemSignalSyscall();break;
  82:src/kernel/riscv.cpp ****             case 0x31 : executeTimeSleepSyscall();break;
  83:src/kernel/riscv.cpp ****             case 0x41 : executeGetcSyscall();break;
  84:src/kernel/riscv.cpp ****             case 0x42 : executePutcSyscall();break;
  85:src/kernel/riscv.cpp ****             case 0x43 : executePutcUtilSyscall();break;
  86:src/kernel/riscv.cpp ****             case 0x51 : executeThreadFreeSyscall();break;
  87:src/kernel/riscv.cpp ****             case 0x52 : executeSemaphoreFreeSyscall();break;
  88:src/kernel/riscv.cpp ****             //in this case we need to save SP and PC at this point so that newly created thread
  89:src/kernel/riscv.cpp ****             //can return to this point and exit trap routine regularly
  90:src/kernel/riscv.cpp ****             //note that getPC() returns PC incremented by 8 to skip executeForkSyscall
  91:src/kernel/riscv.cpp ****             case 0x61 : asm("mv %[sp], sp" : [sp] "=r"(TCB::currentSP));
  92:src/kernel/riscv.cpp ****                         RiscV::getPC();
  93:src/kernel/riscv.cpp ****                         executeForkSyscall();
  94:src/kernel/riscv.cpp ****                         break;
  95:src/kernel/riscv.cpp ****         }
  96:src/kernel/riscv.cpp **** 
  97:src/kernel/riscv.cpp ****         //write previously save sstatus and incremented sepc
  98:src/kernel/riscv.cpp ****         RiscV::w_sstatus(TCB::running->sstatus);
  99:src/kernel/riscv.cpp ****         RiscV::w_sepc(TCB::running->sepc);
 100:src/kernel/riscv.cpp ****     }
 101:src/kernel/riscv.cpp **** 
 102:src/kernel/riscv.cpp ****     //timer interrupt (in this system's implementation, timer tick is manifested as software interr
 103:src/kernel/riscv.cpp ****     else if(scause == (0x01UL<<63 | 0x1)){
 104:src/kernel/riscv.cpp **** 
 105:src/kernel/riscv.cpp ****         //save sstatus and sepc
 106:src/kernel/riscv.cpp ****         //this time sepc remains the same
 107:src/kernel/riscv.cpp ****         uint64 volatile sstatus = RiscV::r_sstatus();
 108:src/kernel/riscv.cpp ****         uint64 volatile sepc = RiscV::r_sepc();
 109:src/kernel/riscv.cpp **** 
 110:src/kernel/riscv.cpp ****         //clear the SIP bit for software interrupt
 111:src/kernel/riscv.cpp ****         mc_sip(SIP_SSIE);
 112:src/kernel/riscv.cpp **** 
 113:src/kernel/riscv.cpp **** 
 114:src/kernel/riscv.cpp ****         //increase global time and try to awake threads that are asleep
 115:src/kernel/riscv.cpp ****         globalTime += 1;
 116:src/kernel/riscv.cpp ****         Scheduler::awake();
 117:src/kernel/riscv.cpp **** 
 118:src/kernel/riscv.cpp ****         //check whether time slice has run out for running thread
 119:src/kernel/riscv.cpp ****         //if so, dispatch
 120:src/kernel/riscv.cpp ****         TCB::timeSliceCounter++;
 121:src/kernel/riscv.cpp ****         if(TCB::timeSliceCounter >= TCB::running->timeSlice) {
 122:src/kernel/riscv.cpp **** 
 123:src/kernel/riscv.cpp ****             TCB::timeSliceCounter = 0;
 124:src/kernel/riscv.cpp **** 
 125:src/kernel/riscv.cpp ****             TCB* old = TCB::running;
 126:src/kernel/riscv.cpp **** 
 127:src/kernel/riscv.cpp ****             old->status = TCB::Status::READY;
 128:src/kernel/riscv.cpp **** 
 129:src/kernel/riscv.cpp ****             TCB::dispatch();
 130:src/kernel/riscv.cpp ****         }
 131:src/kernel/riscv.cpp **** 
 132:src/kernel/riscv.cpp ****         //write previously save sstatus and sepc
 133:src/kernel/riscv.cpp ****         RiscV::w_sstatus(sstatus);
 134:src/kernel/riscv.cpp ****         RiscV::w_sepc(sepc);
GAS LISTING /tmp/ccy6xxkH.s 			page 5


 135:src/kernel/riscv.cpp ****     }
 136:src/kernel/riscv.cpp **** 
 137:src/kernel/riscv.cpp ****     //hardware interrupt, from console (note that here we only check for keyboard interrupts, handl
 138:src/kernel/riscv.cpp ****     else if(scause == (0x01UL<<63 | 0x9)){
 139:src/kernel/riscv.cpp ****         //save sstatus and sepc
 140:src/kernel/riscv.cpp ****         //this time sepc remains the same
 141:src/kernel/riscv.cpp ****         uint64 volatile sstatus = RiscV::r_sstatus();
 142:src/kernel/riscv.cpp ****         uint64 volatile sepc = RiscV::r_sepc();
 143:src/kernel/riscv.cpp **** 
 144:src/kernel/riscv.cpp ****         //get the console status register location, and console status reg value
 145:src/kernel/riscv.cpp ****         uint64 status = CONSOLE_STATUS;
 146:src/kernel/riscv.cpp ****         asm("mv a0, %[status]" : : [status] "r" (status));
 147:src/kernel/riscv.cpp ****         asm("lb a1, 0(a0)");
 148:src/kernel/riscv.cpp ****         asm("mv %[status], a1" : [status] "=r" (status));
 149:src/kernel/riscv.cpp **** 
 150:src/kernel/riscv.cpp ****         //if keyboard is ready to send data
 151:src/kernel/riscv.cpp ****         if(status & 1UL)
 152:src/kernel/riscv.cpp ****         {
 153:src/kernel/riscv.cpp ****             //fetch the character from CONSOLE_TX_DATA register
 154:src/kernel/riscv.cpp ****             uint64 data;
 155:src/kernel/riscv.cpp ****             char c;
 156:src/kernel/riscv.cpp ****             data = CONSOLE_TX_DATA;
 157:src/kernel/riscv.cpp ****             asm("mv a0, %[data]" : : [data] "r" (data));
 158:src/kernel/riscv.cpp ****             asm("lb a1, 0(a0)");
 159:src/kernel/riscv.cpp ****             asm("mv %[c], a1" : [c] "=r" (c));
 160:src/kernel/riscv.cpp **** 
 161:src/kernel/riscv.cpp ****             //if there was a getc request put the character into the input buffer, othrewise ignore
 162:src/kernel/riscv.cpp ****             if(ConsoleUtil::pendingGetc!=0) {
 163:src/kernel/riscv.cpp ****                 ConsoleUtil::pendingGetc--;
 164:src/kernel/riscv.cpp ****                 ConsoleUtil::putInput(c);
 165:src/kernel/riscv.cpp ****             }
 166:src/kernel/riscv.cpp ****         }
 167:src/kernel/riscv.cpp ****         plic_complete(plic_claim());
 168:src/kernel/riscv.cpp **** 
 169:src/kernel/riscv.cpp ****         RiscV::w_sstatus(sstatus);
 170:src/kernel/riscv.cpp ****         RiscV::w_sepc(sepc);
 171:src/kernel/riscv.cpp ****     }
 172:src/kernel/riscv.cpp **** 
 173:src/kernel/riscv.cpp ****     //illegal instruction, exit running thread
 174:src/kernel/riscv.cpp ****     else if(scause == 0x02){
 175:src/kernel/riscv.cpp ****         TCB* old = TCB::running;
 176:src/kernel/riscv.cpp ****         old->status = TCB::Status::FINISHED;
 177:src/kernel/riscv.cpp ****         ConsoleUtil::printString("sepc: ");
 178:src/kernel/riscv.cpp ****         uint64 sepc = RiscV::r_sepc();
 179:src/kernel/riscv.cpp ****         ConsoleUtil::printInt(sepc,16);
 180:src/kernel/riscv.cpp ****         ConsoleUtil::printString("\n");
 181:src/kernel/riscv.cpp ****         ConsoleUtil::printString("Illegal instruction\nExiting thread...\n");
 182:src/kernel/riscv.cpp ****         TCB::dispatch();
 183:src/kernel/riscv.cpp ****     }
 184:src/kernel/riscv.cpp **** 
 185:src/kernel/riscv.cpp ****     //some other kind of error, for more information check out RiscV handbook
 186:src/kernel/riscv.cpp ****     else{
 187:src/kernel/riscv.cpp ****         ConsoleUtil::printString("Error: \n");
 188:src/kernel/riscv.cpp ****         ConsoleUtil::printString("scause: ");
 189:src/kernel/riscv.cpp ****         uint64  scause = RiscV::r_scause();
 190:src/kernel/riscv.cpp ****         ConsoleUtil::printInt(scause);
 191:src/kernel/riscv.cpp ****         ConsoleUtil::printString("sepc: ");
GAS LISTING /tmp/ccy6xxkH.s 			page 6


 192:src/kernel/riscv.cpp ****         uint64 sepc = RiscV::r_sepc();
 193:src/kernel/riscv.cpp ****         ConsoleUtil::printInt(sepc,16);
 194:src/kernel/riscv.cpp ****         ConsoleUtil::printString("\n");
 195:src/kernel/riscv.cpp ****         ConsoleUtil::print("stvec: ",stval,"\n");
 196:src/kernel/riscv.cpp ****         TCB* old = TCB::running;
 197:src/kernel/riscv.cpp ****         old->status = TCB::Status::FINISHED;
 198:src/kernel/riscv.cpp ****         ConsoleUtil::printString("Exiting thread...\n");
 199:src/kernel/riscv.cpp ****         TCB::dispatch();
 200:src/kernel/riscv.cpp ****     }
 201:src/kernel/riscv.cpp **** 
 202:src/kernel/riscv.cpp ****     RiscV::jumpToDesignatedPrivilegeMode();
 203:src/kernel/riscv.cpp **** }
 204:src/kernel/riscv.cpp **** 
 205:src/kernel/riscv.cpp **** void RiscV::executeMemAllocSyscall(){
 206:src/kernel/riscv.cpp **** 
 207:src/kernel/riscv.cpp ****     //fetch the arguments from a0-a7 registers
 208:src/kernel/riscv.cpp ****     uint64 size;
 209:src/kernel/riscv.cpp ****     asm("mv %[size], a1" : [size] "=r" (size));
 210:src/kernel/riscv.cpp **** 
 211:src/kernel/riscv.cpp ****     //call internal allocator and return the address in a0
 212:src/kernel/riscv.cpp ****     uint64 addr =(uint64)MemoryAllocator::kmalloc(size);
 213:src/kernel/riscv.cpp **** 
 214:src/kernel/riscv.cpp ****     asm("mv a0, %[addr]" : : [addr] "r" (addr));
 215:src/kernel/riscv.cpp **** 
 216:src/kernel/riscv.cpp ****     RiscV::saveA0toSscratch();
 217:src/kernel/riscv.cpp **** }
 218:src/kernel/riscv.cpp **** 
 219:src/kernel/riscv.cpp **** void RiscV::executeMemFreeSyscall() {
 220:src/kernel/riscv.cpp **** 
 221:src/kernel/riscv.cpp ****     //fetch the arguments from a0-a7 registers
 222:src/kernel/riscv.cpp ****     uint64 iaddr, status;
 223:src/kernel/riscv.cpp **** 
 224:src/kernel/riscv.cpp **** 
 225:src/kernel/riscv.cpp ****     if(MemoryAllocator::initialized) {
 226:src/kernel/riscv.cpp ****         //call internal allocator and free memory which iaddr points to
 227:src/kernel/riscv.cpp ****         asm("mv %[iaddr], a1" : [iaddr] "=r"(iaddr));
 228:src/kernel/riscv.cpp ****         status = MemoryAllocator::kfree((void *) iaddr);;
 229:src/kernel/riscv.cpp ****     }
 230:src/kernel/riscv.cpp ****     else
 231:src/kernel/riscv.cpp ****         status = -1;
 232:src/kernel/riscv.cpp **** 
 233:src/kernel/riscv.cpp ****     //return status
 234:src/kernel/riscv.cpp ****     asm("mv a0, %[status]" : : [status] "r" (status));
 235:src/kernel/riscv.cpp **** 
 236:src/kernel/riscv.cpp ****     RiscV::saveA0toSscratch();
 237:src/kernel/riscv.cpp **** }
 238:src/kernel/riscv.cpp **** 
 239:src/kernel/riscv.cpp **** void RiscV::executeThreadCreateSyscall(){
 240:src/kernel/riscv.cpp **** 
 241:src/kernel/riscv.cpp ****     //fetch the arguments from a0-a7 registers
 242:src/kernel/riscv.cpp ****     uint64 iroutine, iargs, ihandle, istack;
 243:src/kernel/riscv.cpp **** 
 244:src/kernel/riscv.cpp ****     asm("mv %[istack], a7" : [istack] "=r"(istack));
 245:src/kernel/riscv.cpp ****     asm("mv %[ihandle], a1" : [ihandle] "=r"(ihandle));
 246:src/kernel/riscv.cpp ****     asm("mv %[iroutine], a2" : [iroutine] "=r"(iroutine));
 247:src/kernel/riscv.cpp ****     asm("mv %[iargs], a3" : [iargs] "=r"(iargs));
 248:src/kernel/riscv.cpp **** 
GAS LISTING /tmp/ccy6xxkH.s 			page 7


 249:src/kernel/riscv.cpp ****     //call constructor for Thread Control Block and if not null, write thread address into ihandle
 250:src/kernel/riscv.cpp ****     TCB *tcb = new TCB((TCB::Body)iroutine, (void*)iargs, (uint64*)istack, DEFAULT_TIME_SLICE);
 251:src/kernel/riscv.cpp **** 
 252:src/kernel/riscv.cpp ****     uint64 status = 0;
 253:src/kernel/riscv.cpp **** 
 254:src/kernel/riscv.cpp ****     if(tcb == nullptr){
 255:src/kernel/riscv.cpp ****         status = -1;
 256:src/kernel/riscv.cpp ****     }
 257:src/kernel/riscv.cpp ****     else{
 258:src/kernel/riscv.cpp ****         if(tcb->body)
 259:src/kernel/riscv.cpp ****             Scheduler::put(tcb);
 260:src/kernel/riscv.cpp ****         *((TCB**)ihandle) = tcb;
 261:src/kernel/riscv.cpp ****     }
 262:src/kernel/riscv.cpp **** 
 263:src/kernel/riscv.cpp ****     //return status
 264:src/kernel/riscv.cpp ****     asm("mv a0, %[status]" : : [status] "r" (status));
 265:src/kernel/riscv.cpp **** 
 266:src/kernel/riscv.cpp ****     RiscV::saveA0toSscratch();
 267:src/kernel/riscv.cpp **** }
 268:src/kernel/riscv.cpp **** 
 269:src/kernel/riscv.cpp **** void RiscV::executeThreadAttachBodySyscall(){
 270:src/kernel/riscv.cpp **** 
 271:src/kernel/riscv.cpp ****     //fetch the arguments from a0-a7 registers
 272:src/kernel/riscv.cpp ****     uint64 iroutine, iargs, ihandle, istack;
 273:src/kernel/riscv.cpp **** 
 274:src/kernel/riscv.cpp **** 
 275:src/kernel/riscv.cpp ****     asm("mv %[istack], a7" : [istack] "=r"(istack));
 276:src/kernel/riscv.cpp ****     asm("mv %[ihandle], a1" : [ihandle] "=r"(ihandle));
 277:src/kernel/riscv.cpp ****     asm("mv %[iroutine], a2" : [iroutine] "=r"(iroutine));
 278:src/kernel/riscv.cpp ****     asm("mv %[iargs], a3" : [iargs] "=r"(iargs));
 279:src/kernel/riscv.cpp **** 
 280:src/kernel/riscv.cpp ****     TCB *tcb = new TCB((TCB::Body)iroutine, (void*)iargs, (uint64*)istack, DEFAULT_TIME_SLICE);
 281:src/kernel/riscv.cpp **** 
 282:src/kernel/riscv.cpp ****     uint64 status = 0;
 283:src/kernel/riscv.cpp **** 
 284:src/kernel/riscv.cpp ****     if(tcb == nullptr){
 285:src/kernel/riscv.cpp ****         status = -1;
 286:src/kernel/riscv.cpp ****     }
 287:src/kernel/riscv.cpp ****     else{
 288:src/kernel/riscv.cpp ****         tcb->body = (TCB::Body)iroutine;
 289:src/kernel/riscv.cpp ****         tcb->args = (void*)iargs;
 290:src/kernel/riscv.cpp ****         *((TCB**)ihandle) = tcb;
 291:src/kernel/riscv.cpp ****     }
 292:src/kernel/riscv.cpp **** 
 293:src/kernel/riscv.cpp ****     asm("mv a0, %[status]" : : [status] "r" (status));
 294:src/kernel/riscv.cpp **** 
 295:src/kernel/riscv.cpp ****     RiscV::saveA0toSscratch();
 296:src/kernel/riscv.cpp **** }
 297:src/kernel/riscv.cpp **** 
 298:src/kernel/riscv.cpp **** void RiscV::executeThreadStartSyscall(){
 299:src/kernel/riscv.cpp **** 
 300:src/kernel/riscv.cpp ****     //fetch the arguments from a0-a7 registers
 301:src/kernel/riscv.cpp ****     uint64 ihandle;
 302:src/kernel/riscv.cpp **** 
 303:src/kernel/riscv.cpp ****     asm("mv %[ihandle], a1" : [ihandle] "=r"(ihandle));
 304:src/kernel/riscv.cpp **** 
 305:src/kernel/riscv.cpp ****     //get the handle and put tcb in scheduler if not null
GAS LISTING /tmp/ccy6xxkH.s 			page 8


 306:src/kernel/riscv.cpp ****     TCB* tcb =(TCB*)ihandle;
 307:src/kernel/riscv.cpp **** 
 308:src/kernel/riscv.cpp ****     uint64 status = 0;
 309:src/kernel/riscv.cpp **** 
 310:src/kernel/riscv.cpp ****     if(tcb == nullptr){
 311:src/kernel/riscv.cpp ****         status = -1;
 312:src/kernel/riscv.cpp ****     }
 313:src/kernel/riscv.cpp ****     else{
 314:src/kernel/riscv.cpp ****         tcb->status = TCB::Status::READY;
 315:src/kernel/riscv.cpp ****         Scheduler::put(tcb);
 316:src/kernel/riscv.cpp ****         TCB::dispatch();
 317:src/kernel/riscv.cpp ****     }
 318:src/kernel/riscv.cpp **** 
 319:src/kernel/riscv.cpp ****     //return status
 320:src/kernel/riscv.cpp ****     asm("mv a0, %[status]" : : [status] "r" (status));
 321:src/kernel/riscv.cpp **** 
 322:src/kernel/riscv.cpp ****     RiscV::saveA0toSscratch();
 323:src/kernel/riscv.cpp **** }
 324:src/kernel/riscv.cpp **** 
 325:src/kernel/riscv.cpp **** void RiscV::executeThreadExitSyscall() {
 326:src/kernel/riscv.cpp **** 
 327:src/kernel/riscv.cpp ****     //fetch the arguments from a0-a7 registers
 328:src/kernel/riscv.cpp ****     uint64 status = 0;
 329:src/kernel/riscv.cpp **** 
 330:src/kernel/riscv.cpp ****     //if thread not null, set status to finished and dispatch
 331:src/kernel/riscv.cpp ****     if(TCB::running == nullptr){
 332:src/kernel/riscv.cpp ****         status = -1;
 333:src/kernel/riscv.cpp ****     }
 334:src/kernel/riscv.cpp ****     else{
 335:src/kernel/riscv.cpp ****         TCB* old = TCB::running;
 336:src/kernel/riscv.cpp ****         old->status = TCB::Status::FINISHED;
 337:src/kernel/riscv.cpp ****         TCB::dispatch();
 338:src/kernel/riscv.cpp ****     }
 339:src/kernel/riscv.cpp **** 
 340:src/kernel/riscv.cpp ****     asm("mv a0, %[status]" : : [status] "r" (status));
 341:src/kernel/riscv.cpp **** 
 342:src/kernel/riscv.cpp ****     RiscV::saveA0toSscratch();
 343:src/kernel/riscv.cpp **** }
 344:src/kernel/riscv.cpp **** 
 345:src/kernel/riscv.cpp **** void RiscV::executeThreadDispatchSyscall(){
  94              		.loc 1 345 43 is_stmt 1
  95              		.cfi_startproc
  96 0058 130101FF 		addi	sp,sp,-16
  97              		.cfi_def_cfa_offset 16
  98 005c 23341100 		sd	ra,8(sp)
  99 0060 23308100 		sd	s0,0(sp)
 100              		.cfi_offset 1, -8
 101              		.cfi_offset 8, -16
 102 0064 13040101 		addi	s0,sp,16
 103              		.cfi_def_cfa 8, 0
 346:src/kernel/riscv.cpp **** 
 347:src/kernel/riscv.cpp ****     //dispatch current running thread
 348:src/kernel/riscv.cpp ****     TCB* old = TCB::running;
 104              		.loc 1 348 5
 105              		.loc 1 348 10 is_stmt 0
 106 0068 97070000 		la	a5,_ZN3TCB7runningE
 106      83B70700 
GAS LISTING /tmp/ccy6xxkH.s 			page 9


 107 0070 83B70700 		ld	a5,0(a5)
 108              	.LVL4:
 349:src/kernel/riscv.cpp ****     old->status = TCB::Status::READY;
 109              		.loc 1 349 5 is_stmt 1
 110              		.loc 1 349 17 is_stmt 0
 111 0074 13071000 		li	a4,1
 112 0078 23A8E700 		sw	a4,16(a5)
 350:src/kernel/riscv.cpp ****     TCB::dispatch();
 113              		.loc 1 350 5 is_stmt 1
 114              		.loc 1 350 18 is_stmt 0
 115 007c 97000000 		call	_ZN3TCB8dispatchEv@plt
 115      E7800000 
 116              	.LVL5:
 351:src/kernel/riscv.cpp **** }
 117              		.loc 1 351 1
 118 0084 83308100 		ld	ra,8(sp)
 119              		.cfi_restore 1
 120 0088 03340100 		ld	s0,0(sp)
 121              		.cfi_restore 8
 122              		.cfi_def_cfa 2, 16
 123 008c 13010101 		addi	sp,sp,16
 124              		.cfi_def_cfa_offset 0
 125 0090 67800000 		jr	ra
 126              		.cfi_endproc
 127              	.LFE53:
 129              		.align	2
 130              		.globl	_ZN5RiscV18executePutcSyscallEv
 132              	_ZN5RiscV18executePutcSyscallEv:
 133              	.LFB60:
 352:src/kernel/riscv.cpp **** 
 353:src/kernel/riscv.cpp **** void RiscV::executeSemOpenSyscall() {
 354:src/kernel/riscv.cpp **** 
 355:src/kernel/riscv.cpp ****     //fetch the arguments from a0-a7 registers
 356:src/kernel/riscv.cpp ****     uint64 ihandle, iinit;
 357:src/kernel/riscv.cpp **** 
 358:src/kernel/riscv.cpp ****     asm("mv %[ihandle], a1" : [ihandle] "=r"(ihandle));
 359:src/kernel/riscv.cpp ****     asm("mv %[iinit], a2" : [iinit] "=r"(iinit));
 360:src/kernel/riscv.cpp **** 
 361:src/kernel/riscv.cpp ****     //create new Semaphore Control Block and write it into ihandle if not null
 362:src/kernel/riscv.cpp ****     SCB *scb = new SCB(iinit);
 363:src/kernel/riscv.cpp **** 
 364:src/kernel/riscv.cpp ****     uint64 status = 0;
 365:src/kernel/riscv.cpp **** 
 366:src/kernel/riscv.cpp ****     if(scb == nullptr){
 367:src/kernel/riscv.cpp ****         status = -1;
 368:src/kernel/riscv.cpp ****     }
 369:src/kernel/riscv.cpp ****     else{
 370:src/kernel/riscv.cpp ****         *((SCB**)ihandle) = scb;
 371:src/kernel/riscv.cpp ****     }
 372:src/kernel/riscv.cpp **** 
 373:src/kernel/riscv.cpp ****     //return status
 374:src/kernel/riscv.cpp ****     asm("mv a0, %[status]" : : [status] "r" (status));
 375:src/kernel/riscv.cpp **** 
 376:src/kernel/riscv.cpp ****     RiscV::saveA0toSscratch();
 377:src/kernel/riscv.cpp **** 
 378:src/kernel/riscv.cpp **** }
 379:src/kernel/riscv.cpp **** 
GAS LISTING /tmp/ccy6xxkH.s 			page 10


 380:src/kernel/riscv.cpp **** void RiscV::executeSemCloseSyscall() {
 381:src/kernel/riscv.cpp **** 
 382:src/kernel/riscv.cpp ****     //fetch the arguments from a0-a7 registers
 383:src/kernel/riscv.cpp ****     uint64 ihandle;
 384:src/kernel/riscv.cpp **** 
 385:src/kernel/riscv.cpp ****     asm("mv %[ihandle], a1" : [ihandle] "=r"(ihandle));
 386:src/kernel/riscv.cpp **** 
 387:src/kernel/riscv.cpp ****     //delete scb if not null
 388:src/kernel/riscv.cpp ****     SCB *scb = (SCB*)ihandle;
 389:src/kernel/riscv.cpp ****     uint64 status = 0;
 390:src/kernel/riscv.cpp **** 
 391:src/kernel/riscv.cpp ****     if(scb == nullptr){
 392:src/kernel/riscv.cpp ****         status = -1;
 393:src/kernel/riscv.cpp ****     }
 394:src/kernel/riscv.cpp ****     else
 395:src/kernel/riscv.cpp ****         delete (SCB*)ihandle;
 396:src/kernel/riscv.cpp **** 
 397:src/kernel/riscv.cpp ****     //return status
 398:src/kernel/riscv.cpp ****     asm("mv a0, %[status]" : : [status] "r" (status));
 399:src/kernel/riscv.cpp **** 
 400:src/kernel/riscv.cpp ****     RiscV::saveA0toSscratch();
 401:src/kernel/riscv.cpp **** }
 402:src/kernel/riscv.cpp **** 
 403:src/kernel/riscv.cpp **** void RiscV::executeSemWaitSyscall() {
 404:src/kernel/riscv.cpp **** 
 405:src/kernel/riscv.cpp ****     //fetch the arguments from a0-a7 registers
 406:src/kernel/riscv.cpp ****     uint64 ihandle;
 407:src/kernel/riscv.cpp **** 
 408:src/kernel/riscv.cpp ****     asm("mv %[ihandle], a1" : [ihandle] "=r"(ihandle));
 409:src/kernel/riscv.cpp **** 
 410:src/kernel/riscv.cpp ****     uint64 status = 0;
 411:src/kernel/riscv.cpp ****     //call wait method on ihandle scb
 412:src/kernel/riscv.cpp **** 
 413:src/kernel/riscv.cpp ****     if(((SCB*)ihandle) != nullptr)
 414:src/kernel/riscv.cpp ****         ((SCB*)ihandle)->wait();
 415:src/kernel/riscv.cpp ****     else
 416:src/kernel/riscv.cpp ****         status = -1;
 417:src/kernel/riscv.cpp **** 
 418:src/kernel/riscv.cpp ****     if(TCB::running->semError != nullptr)
 419:src/kernel/riscv.cpp ****         status = -1;
 420:src/kernel/riscv.cpp ****     else
 421:src/kernel/riscv.cpp ****         status = 0;
 422:src/kernel/riscv.cpp **** 
 423:src/kernel/riscv.cpp ****     //return status
 424:src/kernel/riscv.cpp ****     asm("mv a0, %[status]" : : [status] "r" (status));
 425:src/kernel/riscv.cpp **** 
 426:src/kernel/riscv.cpp ****     RiscV::saveA0toSscratch();
 427:src/kernel/riscv.cpp **** 
 428:src/kernel/riscv.cpp **** }
 429:src/kernel/riscv.cpp **** 
 430:src/kernel/riscv.cpp **** void RiscV::executeSemSignalSyscall() {
 431:src/kernel/riscv.cpp **** 
 432:src/kernel/riscv.cpp ****     //fetch the arguments from a0-a7 registers
 433:src/kernel/riscv.cpp ****     uint64 ihandle;
 434:src/kernel/riscv.cpp **** 
 435:src/kernel/riscv.cpp ****     asm("mv %[ihandle], a1" : [ihandle] "=r"(ihandle));
 436:src/kernel/riscv.cpp **** 
GAS LISTING /tmp/ccy6xxkH.s 			page 11


 437:src/kernel/riscv.cpp ****     //call signal method on ihandle scb
 438:src/kernel/riscv.cpp **** 
 439:src/kernel/riscv.cpp ****     uint64 status = 0;
 440:src/kernel/riscv.cpp **** 
 441:src/kernel/riscv.cpp ****     if(((SCB*)ihandle) != nullptr)
 442:src/kernel/riscv.cpp ****         ((SCB*)ihandle)->signal();
 443:src/kernel/riscv.cpp ****     else
 444:src/kernel/riscv.cpp ****         status = -1;
 445:src/kernel/riscv.cpp **** 
 446:src/kernel/riscv.cpp ****     //return status
 447:src/kernel/riscv.cpp ****     asm("mv a0, %[status]" : : [status] "r" (status));
 448:src/kernel/riscv.cpp **** 
 449:src/kernel/riscv.cpp ****     RiscV::saveA0toSscratch();
 450:src/kernel/riscv.cpp **** }
 451:src/kernel/riscv.cpp **** 
 452:src/kernel/riscv.cpp **** void RiscV::executeTimeSleepSyscall() {
 453:src/kernel/riscv.cpp **** 
 454:src/kernel/riscv.cpp ****     //fetch the arguments from a0-a7 registers
 455:src/kernel/riscv.cpp ****     uint64 itime;
 456:src/kernel/riscv.cpp **** 
 457:src/kernel/riscv.cpp ****     asm("mv %[itime], a1" : [itime] "=r"(itime));
 458:src/kernel/riscv.cpp **** 
 459:src/kernel/riscv.cpp ****     //calculate wake time for running thread and put it to sleep
 460:src/kernel/riscv.cpp ****     //fetch new running with dispatch
 461:src/kernel/riscv.cpp ****     TCB* tcb = TCB::running;
 462:src/kernel/riscv.cpp ****     tcb->sleepTime = globalTime;
 463:src/kernel/riscv.cpp ****     tcb->wakeTime = globalTime + itime;
 464:src/kernel/riscv.cpp **** 
 465:src/kernel/riscv.cpp ****     Scheduler::sleep(tcb);
 466:src/kernel/riscv.cpp **** 
 467:src/kernel/riscv.cpp ****     tcb->status = TCB::Status::BLOCKED;
 468:src/kernel/riscv.cpp **** 
 469:src/kernel/riscv.cpp ****     TCB::dispatch();
 470:src/kernel/riscv.cpp **** 
 471:src/kernel/riscv.cpp ****     uint64 status = 0;
 472:src/kernel/riscv.cpp **** 
 473:src/kernel/riscv.cpp ****     //return status
 474:src/kernel/riscv.cpp ****     asm("mv a0, %[status]" : : [status] "r" (status));
 475:src/kernel/riscv.cpp **** 
 476:src/kernel/riscv.cpp ****     RiscV::saveA0toSscratch();
 477:src/kernel/riscv.cpp **** }
 478:src/kernel/riscv.cpp **** 
 479:src/kernel/riscv.cpp **** void RiscV::executeGetcSyscall() {
 480:src/kernel/riscv.cpp **** 
 481:src/kernel/riscv.cpp ****     //register a pending getc call
 482:src/kernel/riscv.cpp ****     if(!userMainFinished)
 483:src/kernel/riscv.cpp ****         ConsoleUtil::pendingGetc++;
 484:src/kernel/riscv.cpp **** 
 485:src/kernel/riscv.cpp ****     //get character from input buffer
 486:src/kernel/riscv.cpp ****     char c = ConsoleUtil::getInput();
 487:src/kernel/riscv.cpp **** 
 488:src/kernel/riscv.cpp ****     //if char == \n echo it as LF and CR
 489:src/kernel/riscv.cpp ****     if(c==13) {
 490:src/kernel/riscv.cpp ****         ConsoleUtil::putOutput(13);
 491:src/kernel/riscv.cpp ****         ConsoleUtil::putOutput(10);
 492:src/kernel/riscv.cpp ****     }
 493:src/kernel/riscv.cpp ****     //if not ESC character, echo it to console
GAS LISTING /tmp/ccy6xxkH.s 			page 12


 494:src/kernel/riscv.cpp ****     else if(c!=0x01b)
 495:src/kernel/riscv.cpp ****         ConsoleUtil::putOutput(c);
 496:src/kernel/riscv.cpp **** 
 497:src/kernel/riscv.cpp ****     //return character
 498:src/kernel/riscv.cpp ****     asm("mv a0, %[c]" : : [c] "r" (c));
 499:src/kernel/riscv.cpp **** 
 500:src/kernel/riscv.cpp ****     RiscV::saveA0toSscratch();
 501:src/kernel/riscv.cpp **** }
 502:src/kernel/riscv.cpp **** 
 503:src/kernel/riscv.cpp **** void RiscV::executePutcSyscall() {
 134              		.loc 1 503 34 is_stmt 1
 135              		.cfi_startproc
 136 0094 130101FF 		addi	sp,sp,-16
 137              		.cfi_def_cfa_offset 16
 138 0098 23341100 		sd	ra,8(sp)
 139 009c 23308100 		sd	s0,0(sp)
 140              		.cfi_offset 1, -8
 141              		.cfi_offset 8, -16
 142 00a0 13040101 		addi	s0,sp,16
 143              		.cfi_def_cfa 8, 0
 504:src/kernel/riscv.cpp **** 
 505:src/kernel/riscv.cpp ****     //register a pending putc call
 506:src/kernel/riscv.cpp ****     if(!userMainFinished)
 144              		.loc 1 506 5
 145              		.loc 1 506 8 is_stmt 0
 146 00a4 97070000 		lbu	a5,.LANCHOR0
 146      83C70700 
 147              		.loc 1 506 5
 148 00ac 639C0700 		bnez	a5,.L9
 507:src/kernel/riscv.cpp ****         ConsoleUtil::pendingPutc++;
 149              		.loc 1 507 9 is_stmt 1
 150              		.loc 1 507 33 is_stmt 0
 151 00b0 17070000 		la	a4,_ZN11ConsoleUtil11pendingPutcE
 151      03370700 
 152 00b8 83370700 		ld	a5,0(a4)
 153 00bc 93871700 		addi	a5,a5,1
 154 00c0 2330F700 		sd	a5,0(a4)
 155              	.L9:
 508:src/kernel/riscv.cpp **** 
 509:src/kernel/riscv.cpp ****     char c;
 156              		.loc 1 509 5 is_stmt 1
 510:src/kernel/riscv.cpp **** 
 511:src/kernel/riscv.cpp ****     asm("mv %[c], a1" : [c] "=r"(c));
 157              		.loc 1 511 5
 158              		.loc 1 511 37 is_stmt 0
 159              	#APP
 160              	# 511 "src/kernel/riscv.cpp" 1
 512              	
 161              		mv a0, a1
 162              	# 0 "" 2
 163              	.LVL6:
 513:src/kernel/riscv.cpp ****     //put character in output buffer
 514:src/kernel/riscv.cpp ****     ConsoleUtil::putOutput(c);
 164              		.loc 1 514 5 is_stmt 1
 165              		.loc 1 514 27 is_stmt 0
 166              	#NO_APP
 167 00c8 1375F50F 		andi	a0,a0,0xff
GAS LISTING /tmp/ccy6xxkH.s 			page 13


 168 00cc 97000000 		call	_ZN11ConsoleUtil9putOutputEc@plt
 168      E7800000 
 169              	.LVL7:
 515:src/kernel/riscv.cpp **** }
 170              		.loc 1 515 1
 171 00d4 83308100 		ld	ra,8(sp)
 172              		.cfi_restore 1
 173 00d8 03340100 		ld	s0,0(sp)
 174              		.cfi_restore 8
 175              		.cfi_def_cfa 2, 16
 176 00dc 13010101 		addi	sp,sp,16
 177              		.cfi_def_cfa_offset 0
 178 00e0 67800000 		jr	ra
 179              		.cfi_endproc
 180              	.LFE60:
 182              		.align	2
 183              		.globl	_ZN5RiscV29jumpToDesignatedPrivilegeModeEv
 185              	_ZN5RiscV29jumpToDesignatedPrivilegeModeEv:
 186              	.LFB63:
 516:src/kernel/riscv.cpp **** 
 517:src/kernel/riscv.cpp **** //wrapper function for putcThread
 518:src/kernel/riscv.cpp **** //spins in a while loop and checks whether console is ready to take output
 519:src/kernel/riscv.cpp **** //if ready read data from output buffer
 520:src/kernel/riscv.cpp **** void RiscV::putcWrapper(void* arg)
 521:src/kernel/riscv.cpp **** {
 522:src/kernel/riscv.cpp ****     while(true)
 523:src/kernel/riscv.cpp ****     {
 524:src/kernel/riscv.cpp ****         //read console status from status register
 525:src/kernel/riscv.cpp ****         uint64 status = CONSOLE_STATUS;
 526:src/kernel/riscv.cpp ****         asm("mv a0, %[status]" : : [status] "r" (status));
 527:src/kernel/riscv.cpp ****         asm("lb a1, 0(a0)");
 528:src/kernel/riscv.cpp ****         asm("mv %[status], a1" : [status] "=r" (status));
 529:src/kernel/riscv.cpp **** 
 530:src/kernel/riscv.cpp ****         //if console ready..
 531:src/kernel/riscv.cpp ****         if(status & 1UL<<5){
 532:src/kernel/riscv.cpp **** 
 533:src/kernel/riscv.cpp ****             //get character from output buffer with possible block if nothing in buffer
 534:src/kernel/riscv.cpp ****                 char volatile c = ConsoleUtil::putcUtilSyscall();
 535:src/kernel/riscv.cpp ****                 uint64 data = CONSOLE_RX_DATA;
 536:src/kernel/riscv.cpp ****                 asm("mv a0, %[data]" : : [data] "r"(data));
 537:src/kernel/riscv.cpp ****                 asm("mv a1, %[c]" : : [c] "r"(c));
 538:src/kernel/riscv.cpp ****                 asm("sb a1,0(a0)");
 539:src/kernel/riscv.cpp **** 
 540:src/kernel/riscv.cpp ****             //decrement number of pending putc requests
 541:src/kernel/riscv.cpp ****             if(ConsoleUtil::pendingPutc>0)
 542:src/kernel/riscv.cpp ****                 ConsoleUtil::pendingPutc--;
 543:src/kernel/riscv.cpp ****         }
 544:src/kernel/riscv.cpp ****         else
 545:src/kernel/riscv.cpp ****             RiscV::threadDispatchUtil();
 546:src/kernel/riscv.cpp ****     }
 547:src/kernel/riscv.cpp **** }
 548:src/kernel/riscv.cpp **** 
 549:src/kernel/riscv.cpp **** //utility syscall to get character from output buffer
 550:src/kernel/riscv.cpp **** //syscall is needed because we don't want to fiddle with kernel structures from anywhere but the tr
 551:src/kernel/riscv.cpp **** void RiscV::executePutcUtilSyscall() {
 552:src/kernel/riscv.cpp ****     char c = ConsoleUtil::getOutput();
 553:src/kernel/riscv.cpp ****     asm("mv a0, %[c]" : : [c] "r" ((uint64)(c)) );
GAS LISTING /tmp/ccy6xxkH.s 			page 14


 554:src/kernel/riscv.cpp **** 
 555:src/kernel/riscv.cpp ****     RiscV::saveA0toSscratch();
 556:src/kernel/riscv.cpp **** }
 557:src/kernel/riscv.cpp **** 
 558:src/kernel/riscv.cpp **** //return to privilege that was given at creation
 559:src/kernel/riscv.cpp **** void RiscV::jumpToDesignatedPrivilegeMode() {
 187              		.loc 1 559 45 is_stmt 1
 188              		.cfi_startproc
 189 00e4 130101FF 		addi	sp,sp,-16
 190              		.cfi_def_cfa_offset 16
 191 00e8 23348100 		sd	s0,8(sp)
 192              		.cfi_offset 8, -8
 193 00ec 13040101 		addi	s0,sp,16
 194              		.cfi_def_cfa 8, 0
 560:src/kernel/riscv.cpp ****     if(TCB::running->mode == TCB::Mode::SUPERVISOR) {
 195              		.loc 1 560 5
 196              		.loc 1 560 22 is_stmt 0
 197 00f0 97070000 		la	a5,_ZN3TCB7runningE
 197      83B70700 
 198 00f8 83B70700 		ld	a5,0(a5)
 199 00fc 03A74701 		lw	a4,20(a5)
 200              		.loc 1 560 5
 201 0100 93071000 		li	a5,1
 202 0104 630CF700 		beq	a4,a5,.L15
 561:src/kernel/riscv.cpp ****         RiscV::ms_sstatus(RiscV::SSTATUS_SPP);
 562:src/kernel/riscv.cpp ****     }
 563:src/kernel/riscv.cpp ****     else {
 564:src/kernel/riscv.cpp ****         RiscV::mc_sstatus(RiscV::SSTATUS_SPP);
 203              		.loc 1 564 9 is_stmt 1
 204              	.LVL8:
 205              	.LBB93:
 206              	.LBB94:
 207              		.file 2 "src/kernel/../../h/riscv.hpp"
   1:src/kernel/../../h/riscv.hpp **** //
   2:src/kernel/../../h/riscv.hpp **** // Created by os on 4/28/22.
   3:src/kernel/../../h/riscv.hpp **** //
   4:src/kernel/../../h/riscv.hpp **** 
   5:src/kernel/../../h/riscv.hpp **** #ifndef OS1_KERNEL_RISCV_HPP
   6:src/kernel/../../h/riscv.hpp **** #define OS1_KERNEL_RISCV_HPP
   7:src/kernel/../../h/riscv.hpp **** #include "../lib/hw.h"
   8:src/kernel/../../h/riscv.hpp **** class TCB;
   9:src/kernel/../../h/riscv.hpp **** 
  10:src/kernel/../../h/riscv.hpp **** class RiscV{
  11:src/kernel/../../h/riscv.hpp **** 
  12:src/kernel/../../h/riscv.hpp ****     static uint64 globalTime;
  13:src/kernel/../../h/riscv.hpp **** 
  14:src/kernel/../../h/riscv.hpp ****     static void* kPMT;
  15:src/kernel/../../h/riscv.hpp ****     static void* uPMT;
  16:src/kernel/../../h/riscv.hpp **** 
  17:src/kernel/../../h/riscv.hpp ****     static bool userMainFinished;
  18:src/kernel/../../h/riscv.hpp **** 
  19:src/kernel/../../h/riscv.hpp ****     enum BitMaskSstatus{
  20:src/kernel/../../h/riscv.hpp ****         SSTATUS_SIE = (1<<1),
  21:src/kernel/../../h/riscv.hpp ****         SSTATUS_SPIE = (1<<5),
  22:src/kernel/../../h/riscv.hpp ****         SSTATUS_SPP = (1<<8),
  23:src/kernel/../../h/riscv.hpp ****     };
  24:src/kernel/../../h/riscv.hpp **** 
GAS LISTING /tmp/ccy6xxkH.s 			page 15


  25:src/kernel/../../h/riscv.hpp ****     enum BitMaskSip{
  26:src/kernel/../../h/riscv.hpp ****         SIP_SSIE = (1<<1),
  27:src/kernel/../../h/riscv.hpp ****         SIP_STIE = (1<<5),
  28:src/kernel/../../h/riscv.hpp ****         SIP_SEIE = (1<<9),
  29:src/kernel/../../h/riscv.hpp ****     };
  30:src/kernel/../../h/riscv.hpp **** 
  31:src/kernel/../../h/riscv.hpp ****     static void executeMemAllocSyscall();   //wrapper function for moving parameters and calling Me
  32:src/kernel/../../h/riscv.hpp **** 
  33:src/kernel/../../h/riscv.hpp ****     static void executeMemFreeSyscall();    //wrapper function for moving parameters and calling Me
  34:src/kernel/../../h/riscv.hpp **** 
  35:src/kernel/../../h/riscv.hpp ****     static void executeThreadCreateSyscall();
  36:src/kernel/../../h/riscv.hpp **** 
  37:src/kernel/../../h/riscv.hpp ****     static void executeThreadExitSyscall();
  38:src/kernel/../../h/riscv.hpp **** 
  39:src/kernel/../../h/riscv.hpp ****     static void executeThreadDispatchSyscall();
  40:src/kernel/../../h/riscv.hpp **** 
  41:src/kernel/../../h/riscv.hpp ****     static void executeThreadAttachBodySyscall();
  42:src/kernel/../../h/riscv.hpp **** 
  43:src/kernel/../../h/riscv.hpp ****     static void executeThreadStartSyscall();
  44:src/kernel/../../h/riscv.hpp **** 
  45:src/kernel/../../h/riscv.hpp ****     static void executeSemOpenSyscall();
  46:src/kernel/../../h/riscv.hpp **** 
  47:src/kernel/../../h/riscv.hpp ****     static void executeSemCloseSyscall();
  48:src/kernel/../../h/riscv.hpp **** 
  49:src/kernel/../../h/riscv.hpp ****     static void executeSemWaitSyscall();
  50:src/kernel/../../h/riscv.hpp **** 
  51:src/kernel/../../h/riscv.hpp ****     static void executeSemSignalSyscall();
  52:src/kernel/../../h/riscv.hpp **** 
  53:src/kernel/../../h/riscv.hpp ****     static void executeTimeSleepSyscall();
  54:src/kernel/../../h/riscv.hpp **** 
  55:src/kernel/../../h/riscv.hpp ****     static void executeGetcSyscall();
  56:src/kernel/../../h/riscv.hpp **** 
  57:src/kernel/../../h/riscv.hpp ****     static void executePutcSyscall();
  58:src/kernel/../../h/riscv.hpp **** 
  59:src/kernel/../../h/riscv.hpp ****     static void executePutcUtilSyscall();
  60:src/kernel/../../h/riscv.hpp **** 
  61:src/kernel/../../h/riscv.hpp ****     static void executeThreadFreeSyscall();
  62:src/kernel/../../h/riscv.hpp **** 
  63:src/kernel/../../h/riscv.hpp ****     static void executeSemaphoreFreeSyscall();
  64:src/kernel/../../h/riscv.hpp **** 
  65:src/kernel/../../h/riscv.hpp ****     static void executeForkSyscall();
  66:src/kernel/../../h/riscv.hpp **** 
  67:src/kernel/../../h/riscv.hpp ****     static void putcWrapper(void *arg);
  68:src/kernel/../../h/riscv.hpp **** 
  69:src/kernel/../../h/riscv.hpp ****     static void threadCreateUtil(TCB** handle, void(*start_routine)(void*), void *arg);
  70:src/kernel/../../h/riscv.hpp **** 
  71:src/kernel/../../h/riscv.hpp ****     static void threadExitUtil();
  72:src/kernel/../../h/riscv.hpp **** 
  73:src/kernel/../../h/riscv.hpp ****     static void threadDispatchUtil();
  74:src/kernel/../../h/riscv.hpp **** 
  75:src/kernel/../../h/riscv.hpp ****     static uint64 r_scause();
  76:src/kernel/../../h/riscv.hpp **** 
  77:src/kernel/../../h/riscv.hpp ****     static void w_scause(uint64 scause);
  78:src/kernel/../../h/riscv.hpp **** 
  79:src/kernel/../../h/riscv.hpp ****     static uint64 r_sepc();
  80:src/kernel/../../h/riscv.hpp **** 
  81:src/kernel/../../h/riscv.hpp ****     static void w_sepc(uint64 sepc);
GAS LISTING /tmp/ccy6xxkH.s 			page 16


  82:src/kernel/../../h/riscv.hpp **** 
  83:src/kernel/../../h/riscv.hpp ****     static uint64 r_stvec();
  84:src/kernel/../../h/riscv.hpp **** 
  85:src/kernel/../../h/riscv.hpp ****     static void w_stvec(uint64 stvec);
  86:src/kernel/../../h/riscv.hpp **** 
  87:src/kernel/../../h/riscv.hpp ****     static uint64 r_sstatus();
  88:src/kernel/../../h/riscv.hpp **** 
  89:src/kernel/../../h/riscv.hpp ****     static void w_sstatus(uint64 sstatus);
  90:src/kernel/../../h/riscv.hpp **** 
  91:src/kernel/../../h/riscv.hpp ****     static void ms_sstatus(uint64 mask);
  92:src/kernel/../../h/riscv.hpp **** 
  93:src/kernel/../../h/riscv.hpp ****     static void mc_sstatus(uint64 mask);
  94:src/kernel/../../h/riscv.hpp **** 
  95:src/kernel/../../h/riscv.hpp ****     static void ms_sip(uint64 mask);
  96:src/kernel/../../h/riscv.hpp **** 
  97:src/kernel/../../h/riscv.hpp ****     static void mc_sip(uint64 mask);
  98:src/kernel/../../h/riscv.hpp **** 
  99:src/kernel/../../h/riscv.hpp ****     static void ms_sie(uint64 mask);
 100:src/kernel/../../h/riscv.hpp **** 
 101:src/kernel/../../h/riscv.hpp ****     static void mc_sie(uint64 mask);
 102:src/kernel/../../h/riscv.hpp **** 
 103:src/kernel/../../h/riscv.hpp ****     static void startVirtualMemory();
 104:src/kernel/../../h/riscv.hpp ****     static void shutVirtualMemory();
 105:src/kernel/../../h/riscv.hpp **** 
 106:src/kernel/../../h/riscv.hpp ****     static void saveA0toSscratch();
 107:src/kernel/../../h/riscv.hpp **** 
 108:src/kernel/../../h/riscv.hpp ****     static void jumpToDesignatedPrivilegeMode();
 109:src/kernel/../../h/riscv.hpp **** 
 110:src/kernel/../../h/riscv.hpp ****     static void popSppSpie();
 111:src/kernel/../../h/riscv.hpp **** 
 112:src/kernel/../../h/riscv.hpp ****     static void popSppSpie2();
 113:src/kernel/../../h/riscv.hpp **** 
 114:src/kernel/../../h/riscv.hpp ****     static void getPC();
 115:src/kernel/../../h/riscv.hpp **** 
 116:src/kernel/../../h/riscv.hpp ****     static void supervisorTrap();      //supervisorTrap defined in /src/supervisorTrap.S
 117:src/kernel/../../h/riscv.hpp **** 
 118:src/kernel/../../h/riscv.hpp ****     static void handleSupervisorTrap();
 119:src/kernel/../../h/riscv.hpp **** 
 120:src/kernel/../../h/riscv.hpp ****     static void enableInterrupts();
 121:src/kernel/../../h/riscv.hpp **** 
 122:src/kernel/../../h/riscv.hpp ****     static void disableInterrupts();
 123:src/kernel/../../h/riscv.hpp **** 
 124:src/kernel/../../h/riscv.hpp ****     static void enableHardwareInterrupts();
 125:src/kernel/../../h/riscv.hpp **** 
 126:src/kernel/../../h/riscv.hpp ****     static void disableHardwareInterrupts();
 127:src/kernel/../../h/riscv.hpp **** 
 128:src/kernel/../../h/riscv.hpp ****     static void enableTimerInterrupts();
 129:src/kernel/../../h/riscv.hpp **** 
 130:src/kernel/../../h/riscv.hpp ****     static void disableTimerInterrupts();
 131:src/kernel/../../h/riscv.hpp **** 
 132:src/kernel/../../h/riscv.hpp ****     static void handlePageFault(void* PMT,uint64 addr, uint64 mask);
 133:src/kernel/../../h/riscv.hpp **** 
 134:src/kernel/../../h/riscv.hpp ****     static void initialize();
 135:src/kernel/../../h/riscv.hpp **** 
 136:src/kernel/../../h/riscv.hpp ****     static void finalize();
 137:src/kernel/../../h/riscv.hpp **** 
 138:src/kernel/../../h/riscv.hpp ****     static void* getPMT();
GAS LISTING /tmp/ccy6xxkH.s 			page 17


 139:src/kernel/../../h/riscv.hpp **** 
 140:src/kernel/../../h/riscv.hpp ****     static void buildSection(void* PMT, uint64 start, uint64 end, uint64 mask);
 141:src/kernel/../../h/riscv.hpp **** 
 142:src/kernel/../../h/riscv.hpp ****     static void buildKernelPMT();
 143:src/kernel/../../h/riscv.hpp **** 
 144:src/kernel/../../h/riscv.hpp ****     friend class TCB;
 145:src/kernel/../../h/riscv.hpp **** 
 146:src/kernel/../../h/riscv.hpp ****     friend class System;
 147:src/kernel/../../h/riscv.hpp **** 
 148:src/kernel/../../h/riscv.hpp ****     friend class Scheduler;
 149:src/kernel/../../h/riscv.hpp **** 
 150:src/kernel/../../h/riscv.hpp ****     friend class ConsoleUtil;
 151:src/kernel/../../h/riscv.hpp **** };
 152:src/kernel/../../h/riscv.hpp **** 
 153:src/kernel/../../h/riscv.hpp **** inline uint64 RiscV::r_scause(){
 154:src/kernel/../../h/riscv.hpp ****     uint64 volatile scause;
 155:src/kernel/../../h/riscv.hpp ****     asm("csrr %[scause], scause" : [scause] "=r" (scause));
 156:src/kernel/../../h/riscv.hpp ****     return scause;
 157:src/kernel/../../h/riscv.hpp **** }
 158:src/kernel/../../h/riscv.hpp **** 
 159:src/kernel/../../h/riscv.hpp **** inline void RiscV::w_scause(uint64 scause){
 160:src/kernel/../../h/riscv.hpp ****     asm("csrw scause, %[scause]" : : [scause] "r" (scause));
 161:src/kernel/../../h/riscv.hpp **** }
 162:src/kernel/../../h/riscv.hpp **** 
 163:src/kernel/../../h/riscv.hpp **** inline uint64 RiscV::r_sepc(){
 164:src/kernel/../../h/riscv.hpp ****     uint64 sepc;
 165:src/kernel/../../h/riscv.hpp ****     asm("csrr %[sepc], sepc" : [sepc] "=r" (sepc));
 166:src/kernel/../../h/riscv.hpp ****     return sepc;
 167:src/kernel/../../h/riscv.hpp **** }
 168:src/kernel/../../h/riscv.hpp **** 
 169:src/kernel/../../h/riscv.hpp **** inline void RiscV::w_sepc(uint64 sepc){
 170:src/kernel/../../h/riscv.hpp ****     asm("csrw sepc, %[sepc]" : : [sepc] "r" (sepc));
 171:src/kernel/../../h/riscv.hpp **** }
 172:src/kernel/../../h/riscv.hpp **** 
 173:src/kernel/../../h/riscv.hpp **** inline uint64 RiscV::r_stvec(){
 174:src/kernel/../../h/riscv.hpp ****     uint64 stvec;
 175:src/kernel/../../h/riscv.hpp ****     asm("csrr %[stvec], stvec" : [stvec] "=r" (stvec));
 176:src/kernel/../../h/riscv.hpp ****     return stvec;
 177:src/kernel/../../h/riscv.hpp **** }
 178:src/kernel/../../h/riscv.hpp **** 
 179:src/kernel/../../h/riscv.hpp **** inline void RiscV::w_sstatus(uint64 sstatus){
 180:src/kernel/../../h/riscv.hpp ****     asm("csrw sstatus, %[sstatus]" : : [sstatus] "r" (sstatus));
 181:src/kernel/../../h/riscv.hpp **** }
 182:src/kernel/../../h/riscv.hpp **** 
 183:src/kernel/../../h/riscv.hpp **** inline uint64 RiscV::r_sstatus(){
 184:src/kernel/../../h/riscv.hpp ****     uint64 sstatus;
 185:src/kernel/../../h/riscv.hpp ****     asm("csrr %[sstatus], sstatus" : [sstatus] "=r" (sstatus));
 186:src/kernel/../../h/riscv.hpp ****     return sstatus;
 187:src/kernel/../../h/riscv.hpp **** }
 188:src/kernel/../../h/riscv.hpp **** 
 189:src/kernel/../../h/riscv.hpp **** inline void RiscV::w_stvec(uint64 stvec){
 190:src/kernel/../../h/riscv.hpp ****     asm("csrw stvec, %[stvec]" : : [stvec] "r" (stvec));
 191:src/kernel/../../h/riscv.hpp **** }
 192:src/kernel/../../h/riscv.hpp **** 
 193:src/kernel/../../h/riscv.hpp **** inline void  RiscV::ms_sstatus(uint64 mask) {
 194:src/kernel/../../h/riscv.hpp ****     asm("csrs sstatus, %[mask]" : : [mask] "r" (mask));
 195:src/kernel/../../h/riscv.hpp **** }
GAS LISTING /tmp/ccy6xxkH.s 			page 18


 196:src/kernel/../../h/riscv.hpp **** 
 197:src/kernel/../../h/riscv.hpp **** inline void  RiscV::mc_sstatus(uint64 mask) {
 198:src/kernel/../../h/riscv.hpp ****     asm("csrc sstatus, %[mask]" : : [mask] "r" (mask));
 208              		.loc 2 198 5
 209              		.loc 2 198 55 is_stmt 0
 210 0108 93070010 		li	a5,256
 211              	#APP
 212              	# 198 "src/kernel/../../h/riscv.hpp" 1
 199              	}
 213              		csrc sstatus, a5
 214              	# 0 "" 2
 215              	.LVL9:
 216              	#NO_APP
 217              	.L11:
 218              	.LBE94:
 219              	.LBE93:
 565:src/kernel/riscv.cpp ****     }
 566:src/kernel/riscv.cpp **** }
 220              		.loc 1 566 1
 221 0110 03348100 		ld	s0,8(sp)
 222              		.cfi_remember_state
 223              		.cfi_restore 8
 224              		.cfi_def_cfa 2, 16
 225 0114 13010101 		addi	sp,sp,16
 226              		.cfi_def_cfa_offset 0
 227 0118 67800000 		jr	ra
 228              	.L15:
 229              		.cfi_restore_state
 561:src/kernel/riscv.cpp ****     }
 230              		.loc 1 561 9 is_stmt 1
 231              	.LVL10:
 232              	.LBB95:
 233              	.LBB96:
 194:src/kernel/../../h/riscv.hpp **** }
 234              		.loc 2 194 5
 194:src/kernel/../../h/riscv.hpp **** }
 235              		.loc 2 194 55 is_stmt 0
 236 011c 93070010 		li	a5,256
 237              	#APP
 238              	# 194 "src/kernel/../../h/riscv.hpp" 1
 195:src/kernel/../../h/riscv.hpp **** 
 239              		csrs sstatus, a5
 240              	# 0 "" 2
 241              		.loc 2 195 1
 242              	#NO_APP
 243 0124 6FF0DFFE 		j	.L11
 244              	.LBE96:
 245              	.LBE95:
 246              		.cfi_endproc
 247              	.LFE63:
 249              		.align	2
 250              		.globl	_ZN5RiscV8finalizeEv
 252              	_ZN5RiscV8finalizeEv:
 253              	.LFB64:
 567:src/kernel/riscv.cpp **** 
 568:src/kernel/riscv.cpp **** 
 569:src/kernel/riscv.cpp **** //clear out the scheduler and let console finish remaining outputs if there are any
GAS LISTING /tmp/ccy6xxkH.s 			page 19


 570:src/kernel/riscv.cpp **** void RiscV::finalize() {
 254              		.loc 1 570 24 is_stmt 1
 255              		.cfi_startproc
 256 0128 130101FF 		addi	sp,sp,-16
 257              		.cfi_def_cfa_offset 16
 258 012c 23341100 		sd	ra,8(sp)
 259 0130 23308100 		sd	s0,0(sp)
 260              		.cfi_offset 1, -8
 261              		.cfi_offset 8, -16
 262 0134 13040101 		addi	s0,sp,16
 263              		.cfi_def_cfa 8, 0
 571:src/kernel/riscv.cpp ****     userMainFinished = true;
 264              		.loc 1 571 5
 265              		.loc 1 571 22 is_stmt 0
 266 0138 93071000 		li	a5,1
 267 013c 17070000 		sb	a5,.LANCHOR0,a4
 267      2300F700 
 572:src/kernel/riscv.cpp **** 
 573:src/kernel/riscv.cpp ****     ConsoleUtil::pendingPutc = 0;
 268              		.loc 1 573 5 is_stmt 1
 269              		.loc 1 573 30 is_stmt 0
 270 0144 97070000 		la	a5,_ZN11ConsoleUtil11pendingPutcE
 270      83B70700 
 271 014c 23B00700 		sd	zero,0(a5)
 574:src/kernel/riscv.cpp ****     ConsoleUtil::pendingGetc = 0;
 272              		.loc 1 574 5 is_stmt 1
 273              		.loc 1 574 30 is_stmt 0
 274 0150 97070000 		la	a5,_ZN11ConsoleUtil11pendingGetcE
 274      83B70700 
 275 0158 23B00700 		sd	zero,0(a5)
 575:src/kernel/riscv.cpp **** 
 576:src/kernel/riscv.cpp ****     RiscV::disableInterrupts();
 276              		.loc 1 576 5 is_stmt 1
 277              	.LBB97:
 278              	.LBB98:
 200:src/kernel/../../h/riscv.hpp **** 
 201:src/kernel/../../h/riscv.hpp **** inline void  RiscV::ms_sip(uint64 mask) {
 202:src/kernel/../../h/riscv.hpp ****     asm("csrs sip, %[mask]" : : [mask] "r" (mask));
 203:src/kernel/../../h/riscv.hpp **** }
 204:src/kernel/../../h/riscv.hpp **** 
 205:src/kernel/../../h/riscv.hpp **** inline void  RiscV::mc_sip(uint64 mask) {
 206:src/kernel/../../h/riscv.hpp ****     asm("csrc sip, %[mask]" : : [mask] "r" (mask));
 207:src/kernel/../../h/riscv.hpp **** }
 208:src/kernel/../../h/riscv.hpp **** 
 209:src/kernel/../../h/riscv.hpp **** inline void  RiscV::ms_sie(uint64 mask) {
 210:src/kernel/../../h/riscv.hpp ****     asm("csrs sie, %[mask]" : : [mask] "r" (mask));
 211:src/kernel/../../h/riscv.hpp **** }
 212:src/kernel/../../h/riscv.hpp **** 
 213:src/kernel/../../h/riscv.hpp **** inline void  RiscV::mc_sie(uint64 mask){
 214:src/kernel/../../h/riscv.hpp ****     asm("csrc sie, %[mask]" : : [mask] "r" (mask));
 215:src/kernel/../../h/riscv.hpp **** }
 216:src/kernel/../../h/riscv.hpp **** 
 217:src/kernel/../../h/riscv.hpp **** inline void RiscV::enableInterrupts() {
 218:src/kernel/../../h/riscv.hpp ****     RiscV::ms_sie(SIP_SSIE);
 219:src/kernel/../../h/riscv.hpp ****     RiscV::ms_sie(SIP_SEIE);
 220:src/kernel/../../h/riscv.hpp ****     RiscV::ms_sstatus(SSTATUS_SIE);
 221:src/kernel/../../h/riscv.hpp **** }
GAS LISTING /tmp/ccy6xxkH.s 			page 20


 222:src/kernel/../../h/riscv.hpp **** 
 223:src/kernel/../../h/riscv.hpp **** inline void RiscV::disableInterrupts() {
 224:src/kernel/../../h/riscv.hpp ****     disableTimerInterrupts();
 279              		.loc 2 224 5
 280              	.LBE98:
 281              	.LBE97:
 225:src/kernel/../../h/riscv.hpp ****     disableHardwareInterrupts();
 226:src/kernel/../../h/riscv.hpp **** }
 227:src/kernel/../../h/riscv.hpp **** 
 228:src/kernel/../../h/riscv.hpp **** inline void RiscV::enableHardwareInterrupts() {
 229:src/kernel/../../h/riscv.hpp ****     RiscV::mc_sie(SIP_SSIE);
 230:src/kernel/../../h/riscv.hpp ****     RiscV::ms_sstatus(SSTATUS_SIE);
 231:src/kernel/../../h/riscv.hpp ****     RiscV::ms_sie(SIP_SEIE);
 232:src/kernel/../../h/riscv.hpp **** }
 233:src/kernel/../../h/riscv.hpp **** 
 234:src/kernel/../../h/riscv.hpp **** inline void RiscV::disableHardwareInterrupts(){
 235:src/kernel/../../h/riscv.hpp ****     RiscV::mc_sie(SIP_SEIE);
 236:src/kernel/../../h/riscv.hpp **** }
 237:src/kernel/../../h/riscv.hpp **** 
 238:src/kernel/../../h/riscv.hpp **** inline void RiscV::enableTimerInterrupts() {
 239:src/kernel/../../h/riscv.hpp ****     RiscV::mc_sie(SIP_SEIE);
 240:src/kernel/../../h/riscv.hpp ****     RiscV::ms_sstatus(SSTATUS_SIE);
 241:src/kernel/../../h/riscv.hpp ****     RiscV::ms_sie(SIP_SSIE);
 242:src/kernel/../../h/riscv.hpp **** }
 243:src/kernel/../../h/riscv.hpp **** 
 244:src/kernel/../../h/riscv.hpp **** inline void RiscV::disableTimerInterrupts(){
 245:src/kernel/../../h/riscv.hpp ****     RiscV::mc_sie(SIP_SSIE);
 282              		.loc 2 245 5
 283              	.LVL11:
 284              	.LBB107:
 285              	.LBB105:
 286              	.LBB99:
 287              	.LBB100:
 288              	.LBB101:
 214:src/kernel/../../h/riscv.hpp **** }
 289              		.loc 2 214 5
 214:src/kernel/../../h/riscv.hpp **** }
 290              		.loc 2 214 51 is_stmt 0
 291 015c 93072000 		li	a5,2
 292              	#APP
 293              	# 214 "src/kernel/../../h/riscv.hpp" 1
 294              		csrc sie, a5
 295              	# 0 "" 2
 296              	.LVL12:
 297              	#NO_APP
 298              	.LBE101:
 299              	.LBE100:
 300              	.LBE99:
 225:src/kernel/../../h/riscv.hpp ****     disableHardwareInterrupts();
 301              		.loc 2 225 5 is_stmt 1
 302              	.LBE105:
 303              	.LBE107:
 235:src/kernel/../../h/riscv.hpp **** }
 304              		.loc 2 235 5
 305              	.LBB108:
 306              	.LBB106:
 307              	.LBB102:
GAS LISTING /tmp/ccy6xxkH.s 			page 21


 308              	.LBB103:
 309              	.LBB104:
 214:src/kernel/../../h/riscv.hpp **** }
 310              		.loc 2 214 5
 214:src/kernel/../../h/riscv.hpp **** }
 311              		.loc 2 214 51 is_stmt 0
 312 0164 93070020 		li	a5,512
 313              	#APP
 314              	# 214 "src/kernel/../../h/riscv.hpp" 1
 315              		csrc sie, a5
 316              	# 0 "" 2
 317              	.LVL13:
 318              	#NO_APP
 319              	.L18:
 320              	.LBE104:
 321              	.LBE103:
 322              	.LBE102:
 323              	.LBE106:
 324              	.LBE108:
 577:src/kernel/riscv.cpp **** 
 578:src/kernel/riscv.cpp ****     while(Scheduler::readyHead != nullptr)
 325              		.loc 1 578 5 is_stmt 1
 326              		.loc 1 578 32
 327 016c 97070000 		la	a5,_ZN9Scheduler9readyHeadE
 327      83B70700 
 328 0174 83B70700 		ld	a5,0(a5)
 329 0178 638C0700 		beqz	a5,.L17
 579:src/kernel/riscv.cpp ****         Scheduler::readyHead = Scheduler::readyHead->next;
 330              		.loc 1 579 9
 331              		.loc 1 579 54 is_stmt 0
 332 017c 03B78704 		ld	a4,72(a5)
 333              		.loc 1 579 30
 334 0180 97070000 		la	a5,_ZN9Scheduler9readyHeadE
 334      83B70700 
 335 0188 23B0E700 		sd	a4,0(a5)
 578:src/kernel/riscv.cpp ****         Scheduler::readyHead = Scheduler::readyHead->next;
 336              		.loc 1 578 5
 337 018c 6FF01FFE 		j	.L18
 338              	.L17:
 580:src/kernel/riscv.cpp **** 
 581:src/kernel/riscv.cpp ****     Scheduler::put(TCB::putcThread);
 339              		.loc 1 581 5 is_stmt 1
 340              		.loc 1 581 19 is_stmt 0
 341 0190 97070000 		la	a5,_ZN3TCB10putcThreadE
 341      83B70700 
 342 0198 03B50700 		ld	a0,0(a5)
 343 019c 97000000 		call	_ZN9Scheduler3putEP3TCB@plt
 343      E7800000 
 344              	.LVL14:
 345              	.L20:
 582:src/kernel/riscv.cpp **** 
 583:src/kernel/riscv.cpp ****     while(ConsoleUtil::outputHead != ConsoleUtil::outputTail)
 346              		.loc 1 583 5 is_stmt 1
 347              		.loc 1 583 35
 348 01a4 97070000 		la	a5,_ZN11ConsoleUtil10outputHeadE
 348      83B70700 
 349 01ac 03B70700 		ld	a4,0(a5)
GAS LISTING /tmp/ccy6xxkH.s 			page 22


 350 01b0 97070000 		la	a5,_ZN11ConsoleUtil10outputTailE
 350      83B70700 
 351 01b8 83B70700 		ld	a5,0(a5)
 352 01bc 6308F700 		beq	a4,a5,.L16
 584:src/kernel/riscv.cpp ****         TCB::dispatch();
 353              		.loc 1 584 9
 354              		.loc 1 584 22 is_stmt 0
 355 01c0 97000000 		call	_ZN3TCB8dispatchEv@plt
 355      E7800000 
 356              	.LVL15:
 583:src/kernel/riscv.cpp ****         TCB::dispatch();
 357              		.loc 1 583 5
 358 01c8 6FF0DFFD 		j	.L20
 359              	.L16:
 585:src/kernel/riscv.cpp **** }
 360              		.loc 1 585 1
 361 01cc 83308100 		ld	ra,8(sp)
 362              		.cfi_restore 1
 363 01d0 03340100 		ld	s0,0(sp)
 364              		.cfi_restore 8
 365              		.cfi_def_cfa 2, 16
 366 01d4 13010101 		addi	sp,sp,16
 367              		.cfi_def_cfa_offset 0
 368 01d8 67800000 		jr	ra
 369              		.cfi_endproc
 370              	.LFE64:
 372              		.align	2
 373              		.globl	_ZN5RiscV16saveA0toSscratchEv
 375              	_ZN5RiscV16saveA0toSscratchEv:
 376              	.LFB65:
 586:src/kernel/riscv.cpp **** 
 587:src/kernel/riscv.cpp **** //write value in a0 to a memory location where a0 is store on stack for currently running thread
 588:src/kernel/riscv.cpp **** void RiscV::saveA0toSscratch()
 589:src/kernel/riscv.cpp **** {
 377              		.loc 1 589 1 is_stmt 1
 378              		.cfi_startproc
 379 01dc 130101FF 		addi	sp,sp,-16
 380              		.cfi_def_cfa_offset 16
 381 01e0 23348100 		sd	s0,8(sp)
 382              		.cfi_offset 8, -8
 383 01e4 13040101 		addi	s0,sp,16
 384              		.cfi_def_cfa 8, 0
 590:src/kernel/riscv.cpp ****     uint64 a1;
 385              		.loc 1 590 5
 591:src/kernel/riscv.cpp ****     asm("mv %[a1], a1": [a1] "=r"(a1));
 386              		.loc 1 591 5
 387              		.loc 1 591 39 is_stmt 0
 388              	#APP
 389              	# 591 "src/kernel/riscv.cpp" 1
 592              	    asm("mv a1, %[a0]" : :  [a0] "r"(TCB::running->a0Location));
 390              		mv a5, a1
 391              	# 0 "" 2
 392              		.loc 1 592 5 is_stmt 1
 393              		.loc 1 592 52 is_stmt 0
 394              	#NO_APP
 395 01ec 17070000 		la	a4,_ZN3TCB7runningE
 395      03370700 
GAS LISTING /tmp/ccy6xxkH.s 			page 23


 396 01f4 03370700 		ld	a4,0(a4)
 397 01f8 03378706 		ld	a4,104(a4)
 398              		.loc 1 592 64
 399              	#APP
 400              	# 592 "src/kernel/riscv.cpp" 1
 593              	    asm("sd a0, 80(a1)");
 401              		mv a1, a4
 402              	# 0 "" 2
 403              		.loc 1 593 5 is_stmt 1
 404              		.loc 1 593 25 is_stmt 0
 405              	# 593 "src/kernel/riscv.cpp" 1
 594              	    asm("mv a1,%[a1]"::  [a1]"r"(a1));
 406              		sd a0, 80(a1)
 407              	# 0 "" 2
 408              		.loc 1 594 5 is_stmt 1
 409              		.loc 1 594 38 is_stmt 0
 410              	# 594 "src/kernel/riscv.cpp" 1
 595              	}
 411              		mv a1,a5
 412              	# 0 "" 2
 413              		.loc 1 595 1
 414              	#NO_APP
 415 0208 03348100 		ld	s0,8(sp)
 416              		.cfi_restore 8
 417              		.cfi_def_cfa 2, 16
 418 020c 13010101 		addi	sp,sp,16
 419              		.cfi_def_cfa_offset 0
 420 0210 67800000 		jr	ra
 421              		.cfi_endproc
 422              	.LFE65:
 424              		.align	2
 425              		.globl	_ZN5RiscV22executeMemAllocSyscallEv
 427              	_ZN5RiscV22executeMemAllocSyscallEv:
 428              	.LFB47:
 205:src/kernel/riscv.cpp **** 
 429              		.loc 1 205 37 is_stmt 1
 430              		.cfi_startproc
 431 0214 130101FF 		addi	sp,sp,-16
 432              		.cfi_def_cfa_offset 16
 433 0218 23341100 		sd	ra,8(sp)
 434 021c 23308100 		sd	s0,0(sp)
 435              		.cfi_offset 1, -8
 436              		.cfi_offset 8, -16
 437 0220 13040101 		addi	s0,sp,16
 438              		.cfi_def_cfa 8, 0
 208:src/kernel/riscv.cpp ****     asm("mv %[size], a1" : [size] "=r" (size));
 439              		.loc 1 208 5
 209:src/kernel/riscv.cpp **** 
 440              		.loc 1 209 5
 209:src/kernel/riscv.cpp **** 
 441              		.loc 1 209 47 is_stmt 0
 442              	#APP
 443              	# 209 "src/kernel/riscv.cpp" 1
 444              		mv a0, a1
 445              	# 0 "" 2
 446              	.LVL16:
 212:src/kernel/riscv.cpp **** 
GAS LISTING /tmp/ccy6xxkH.s 			page 24


 447              		.loc 1 212 5 is_stmt 1
 212:src/kernel/riscv.cpp **** 
 448              		.loc 1 212 50 is_stmt 0
 449              	#NO_APP
 450 0228 97000000 		call	_ZN15MemoryAllocator7kmallocEm@plt
 450      E7800000 
 451              	.LVL17:
 214:src/kernel/riscv.cpp **** 
 452              		.loc 1 214 5 is_stmt 1
 214:src/kernel/riscv.cpp **** 
 453              		.loc 1 214 48 is_stmt 0
 454              	#APP
 455              	# 214 "src/kernel/riscv.cpp" 1
 216:src/kernel/riscv.cpp **** }
 456              		mv a0, a0
 457              	# 0 "" 2
 458              		.loc 1 216 5 is_stmt 1
 216:src/kernel/riscv.cpp **** }
 459              		.loc 1 216 28 is_stmt 0
 460              	#NO_APP
 461 0234 97000000 		call	_ZN5RiscV16saveA0toSscratchEv
 461      E7800000 
 462              	.LVL18:
 217:src/kernel/riscv.cpp **** 
 463              		.loc 1 217 1
 464 023c 83308100 		ld	ra,8(sp)
 465              		.cfi_restore 1
 466 0240 03340100 		ld	s0,0(sp)
 467              		.cfi_restore 8
 468              		.cfi_def_cfa 2, 16
 469 0244 13010101 		addi	sp,sp,16
 470              		.cfi_def_cfa_offset 0
 471 0248 67800000 		jr	ra
 472              		.cfi_endproc
 473              	.LFE47:
 475              		.align	2
 476              		.globl	_ZN5RiscV21executeMemFreeSyscallEv
 478              	_ZN5RiscV21executeMemFreeSyscallEv:
 479              	.LFB48:
 219:src/kernel/riscv.cpp **** 
 480              		.loc 1 219 37 is_stmt 1
 481              		.cfi_startproc
 482 024c 130101FF 		addi	sp,sp,-16
 483              		.cfi_def_cfa_offset 16
 484 0250 23341100 		sd	ra,8(sp)
 485 0254 23308100 		sd	s0,0(sp)
 486              		.cfi_offset 1, -8
 487              		.cfi_offset 8, -16
 488 0258 13040101 		addi	s0,sp,16
 489              		.cfi_def_cfa 8, 0
 222:src/kernel/riscv.cpp **** 
 490              		.loc 1 222 5
 225:src/kernel/riscv.cpp ****         //call internal allocator and free memory which iaddr points to
 491              		.loc 1 225 5
 492 025c 97070000 		la	a5,_ZN15MemoryAllocator11initializedE
 492      83B70700 
 493 0264 83C70700 		lbu	a5,0(a5)
GAS LISTING /tmp/ccy6xxkH.s 			page 25


 494 0268 63920702 		bnez	a5,.L30
 231:src/kernel/riscv.cpp **** 
 495              		.loc 1 231 16 is_stmt 0
 496 026c 1305F0FF 		li	a0,-1
 497              	.L27:
 498              	.LVL19:
 234:src/kernel/riscv.cpp **** 
 499              		.loc 1 234 5 is_stmt 1
 234:src/kernel/riscv.cpp **** 
 500              		.loc 1 234 54 is_stmt 0
 501              	#APP
 502              	# 234 "src/kernel/riscv.cpp" 1
 236:src/kernel/riscv.cpp **** }
 503              		mv a0, a0
 504              	# 0 "" 2
 505              		.loc 1 236 5 is_stmt 1
 236:src/kernel/riscv.cpp **** }
 506              		.loc 1 236 28 is_stmt 0
 507              	#NO_APP
 508 0274 97000000 		call	_ZN5RiscV16saveA0toSscratchEv
 508      E7800000 
 509              	.LVL20:
 237:src/kernel/riscv.cpp **** 
 510              		.loc 1 237 1
 511 027c 83308100 		ld	ra,8(sp)
 512              		.cfi_remember_state
 513              		.cfi_restore 1
 514 0280 03340100 		ld	s0,0(sp)
 515              		.cfi_restore 8
 516              		.cfi_def_cfa 2, 16
 517 0284 13010101 		addi	sp,sp,16
 518              		.cfi_def_cfa_offset 0
 519 0288 67800000 		jr	ra
 520              	.L30:
 521              		.cfi_restore_state
 227:src/kernel/riscv.cpp ****         status = MemoryAllocator::kfree((void *) iaddr);;
 522              		.loc 1 227 9 is_stmt 1
 227:src/kernel/riscv.cpp ****         status = MemoryAllocator::kfree((void *) iaddr);;
 523              		.loc 1 227 53 is_stmt 0
 524              	#APP
 525              	# 227 "src/kernel/riscv.cpp" 1
 526              		mv a0, a1
 527              	# 0 "" 2
 528              	.LVL21:
 228:src/kernel/riscv.cpp ****     }
 529              		.loc 1 228 9 is_stmt 1
 228:src/kernel/riscv.cpp ****     }
 530              		.loc 1 228 40 is_stmt 0
 531              	#NO_APP
 532 0290 97000000 		call	_ZN15MemoryAllocator5kfreeEPv@plt
 532      E7800000 
 533              	.LVL22:
 228:src/kernel/riscv.cpp ****     }
 534              		.loc 1 228 57 is_stmt 1
 535 0298 6FF09FFD 		j	.L27
 536              		.cfi_endproc
 537              	.LFE48:
GAS LISTING /tmp/ccy6xxkH.s 			page 26


 539              		.align	2
 540              		.globl	_ZN5RiscV26executeThreadCreateSyscallEv
 542              	_ZN5RiscV26executeThreadCreateSyscallEv:
 543              	.LFB49:
 239:src/kernel/riscv.cpp **** 
 544              		.loc 1 239 41
 545              		.cfi_startproc
 546              		.cfi_personality 0x9b,DW.ref.__gxx_personality_v0
 547              		.cfi_lsda 0x1b,.LLSDA49
 548 029c 130101FC 		addi	sp,sp,-64
 549              		.cfi_def_cfa_offset 64
 550 02a0 233C1102 		sd	ra,56(sp)
 551 02a4 23388102 		sd	s0,48(sp)
 552 02a8 23349102 		sd	s1,40(sp)
 553 02ac 23302103 		sd	s2,32(sp)
 554 02b0 233C3101 		sd	s3,24(sp)
 555 02b4 23384101 		sd	s4,16(sp)
 556 02b8 23345101 		sd	s5,8(sp)
 557              		.cfi_offset 1, -8
 558              		.cfi_offset 8, -16
 559              		.cfi_offset 9, -24
 560              		.cfi_offset 18, -32
 561              		.cfi_offset 19, -40
 562              		.cfi_offset 20, -48
 563              		.cfi_offset 21, -56
 564 02bc 13040104 		addi	s0,sp,64
 565              		.cfi_def_cfa 8, 0
 242:src/kernel/riscv.cpp **** 
 566              		.loc 1 242 5
 244:src/kernel/riscv.cpp ****     asm("mv %[ihandle], a1" : [ihandle] "=r"(ihandle));
 567              		.loc 1 244 5
 244:src/kernel/riscv.cpp ****     asm("mv %[ihandle], a1" : [ihandle] "=r"(ihandle));
 568              		.loc 1 244 52 is_stmt 0
 569              	#APP
 570              	# 244 "src/kernel/riscv.cpp" 1
 571              		mv s5, a7
 572              	# 0 "" 2
 573              	.LVL23:
 245:src/kernel/riscv.cpp ****     asm("mv %[iroutine], a2" : [iroutine] "=r"(iroutine));
 574              		.loc 1 245 5 is_stmt 1
 245:src/kernel/riscv.cpp ****     asm("mv %[iroutine], a2" : [iroutine] "=r"(iroutine));
 575              		.loc 1 245 55 is_stmt 0
 576              	# 245 "src/kernel/riscv.cpp" 1
 577              		mv s2, a1
 578              	# 0 "" 2
 579              	.LVL24:
 246:src/kernel/riscv.cpp ****     asm("mv %[iargs], a3" : [iargs] "=r"(iargs));
 580              		.loc 1 246 5 is_stmt 1
 246:src/kernel/riscv.cpp ****     asm("mv %[iargs], a3" : [iargs] "=r"(iargs));
 581              		.loc 1 246 58 is_stmt 0
 582              	# 246 "src/kernel/riscv.cpp" 1
 583              		mv s3, a2
 584              	# 0 "" 2
 585              	.LVL25:
 247:src/kernel/riscv.cpp **** 
 586              		.loc 1 247 5 is_stmt 1
 247:src/kernel/riscv.cpp **** 
GAS LISTING /tmp/ccy6xxkH.s 			page 27


 587              		.loc 1 247 49 is_stmt 0
 588              	# 247 "src/kernel/riscv.cpp" 1
 589              		mv s4, a3
 590              	# 0 "" 2
 591              	.LVL26:
 250:src/kernel/riscv.cpp **** 
 592              		.loc 1 250 5 is_stmt 1
 250:src/kernel/riscv.cpp **** 
 593              		.loc 1 250 94 is_stmt 0
 594              	#NO_APP
 595 02d0 13050007 		li	a0,112
 596              	.LEHB0:
 597 02d4 97000000 		call	_ZN3TCBnwEm@plt
 597      E7800000 
 598              	.LVL27:
 599              	.LEHE0:
 600 02dc 93040500 		mv	s1,a0
 601 02e0 630E0500 		beqz	a0,.L32
 250:src/kernel/riscv.cpp **** 
 602              		.loc 1 250 94 discriminator 1
 603 02e4 13072000 		li	a4,2
 604 02e8 93860A00 		mv	a3,s5
 605 02ec 13060A00 		mv	a2,s4
 606 02f0 93850900 		mv	a1,s3
 607              	.LEHB1:
 608 02f4 97000000 		call	_ZN3TCBC1EPFvPvES0_Pmm@plt
 608      E7800000 
 609              	.LVL28:
 610              	.LEHE1:
 611              	.L32:
 252:src/kernel/riscv.cpp **** 
 612              		.loc 1 252 5 is_stmt 1 discriminator 6
 254:src/kernel/riscv.cpp ****         status = -1;
 613              		.loc 1 254 5 discriminator 6
 614 02fc 63880404 		beqz	s1,.L36
 258:src/kernel/riscv.cpp ****             Scheduler::put(tcb);
 615              		.loc 1 258 9
 258:src/kernel/riscv.cpp ****             Scheduler::put(tcb);
 616              		.loc 1 258 17 is_stmt 0
 617 0300 83B78401 		ld	a5,24(s1)
 258:src/kernel/riscv.cpp ****             Scheduler::put(tcb);
 618              		.loc 1 258 9
 619 0304 63880700 		beqz	a5,.L34
 259:src/kernel/riscv.cpp ****         *((TCB**)ihandle) = tcb;
 620              		.loc 1 259 13 is_stmt 1
 259:src/kernel/riscv.cpp ****         *((TCB**)ihandle) = tcb;
 621              		.loc 1 259 27 is_stmt 0
 622 0308 13850400 		mv	a0,s1
 623              	.LEHB2:
 624 030c 97000000 		call	_ZN9Scheduler3putEP3TCB@plt
 624      E7800000 
 625              	.LVL29:
 626              	.LEHE2:
 627              	.L34:
 260:src/kernel/riscv.cpp ****     }
 628              		.loc 1 260 9 is_stmt 1
 260:src/kernel/riscv.cpp ****     }
GAS LISTING /tmp/ccy6xxkH.s 			page 28


 629              		.loc 1 260 27 is_stmt 0
 630 0314 23309900 		sd	s1,0(s2)
 252:src/kernel/riscv.cpp **** 
 631              		.loc 1 252 12
 632 0318 93070000 		li	a5,0
 633              	.L33:
 634              	.LVL30:
 264:src/kernel/riscv.cpp **** 
 635              		.loc 1 264 5 is_stmt 1
 264:src/kernel/riscv.cpp **** 
 636              		.loc 1 264 54 is_stmt 0
 637              	#APP
 638              	# 264 "src/kernel/riscv.cpp" 1
 266:src/kernel/riscv.cpp **** }
 639              		mv a0, a5
 640              	# 0 "" 2
 641              		.loc 1 266 5 is_stmt 1
 266:src/kernel/riscv.cpp **** }
 642              		.loc 1 266 28 is_stmt 0
 643              	#NO_APP
 644 0320 97000000 		call	_ZN5RiscV16saveA0toSscratchEv
 644      E7800000 
 645              	.LVL31:
 267:src/kernel/riscv.cpp **** 
 646              		.loc 1 267 1
 647 0328 83308103 		ld	ra,56(sp)
 648              		.cfi_remember_state
 649              		.cfi_restore 1
 650 032c 03340103 		ld	s0,48(sp)
 651              		.cfi_restore 8
 652              		.cfi_def_cfa 2, 64
 653 0330 83348102 		ld	s1,40(sp)
 654              		.cfi_restore 9
 655              	.LVL32:
 656 0334 03390102 		ld	s2,32(sp)
 657              		.cfi_restore 18
 658              	.LVL33:
 659 0338 83398101 		ld	s3,24(sp)
 660              		.cfi_restore 19
 661              	.LVL34:
 662 033c 033A0101 		ld	s4,16(sp)
 663              		.cfi_restore 20
 664              	.LVL35:
 665 0340 833A8100 		ld	s5,8(sp)
 666              		.cfi_restore 21
 667              	.LVL36:
 668 0344 13010104 		addi	sp,sp,64
 669              		.cfi_def_cfa_offset 0
 670 0348 67800000 		jr	ra
 671              	.LVL37:
 672              	.L36:
 673              		.cfi_restore_state
 255:src/kernel/riscv.cpp ****     }
 674              		.loc 1 255 16
 675 034c 9307F0FF 		li	a5,-1
 676 0350 6FF0DFFC 		j	.L33
 677              	.LVL38:
GAS LISTING /tmp/ccy6xxkH.s 			page 29


 678              	.L37:
 679 0354 13090500 		mv	s2,a0
 680              	.LVL39:
 250:src/kernel/riscv.cpp **** 
 681              		.loc 1 250 94
 682 0358 13850400 		mv	a0,s1
 683 035c 97000000 		call	_ZN3TCBdlEPv@plt
 683      E7800000 
 684              	.LVL40:
 685 0364 13050900 		mv	a0,s2
 686              	.LEHB3:
 687 0368 97000000 		call	_Unwind_Resume@plt
 687      E7800000 
 688              	.LVL41:
 689              	.LEHE3:
 690              		.cfi_endproc
 691              	.LFE49:
 692              		.globl	__gxx_personality_v0
 693              		.section	.gcc_except_table,"a",@progbits
 694              	.LLSDA49:
 695 0000 FF       		.byte	0xff
 696 0001 FF       		.byte	0xff
 697 0002 03       		.byte	0x3
 698 0003 34       		.byte	0x34
 699 0004 00000000 		.4byte	.LEHB0-.LFB49
 700 0008 00000000 		.4byte	.LEHE0-.LEHB0
 701 000c 00000000 		.4byte	0
 702 0010 00       		.byte	0
 703 0011 00000000 		.4byte	.LEHB1-.LFB49
 704 0015 00000000 		.4byte	.LEHE1-.LEHB1
 705 0019 00000000 		.4byte	.L37-.LFB49
 706 001d 00       		.byte	0
 707 001e 00000000 		.4byte	.LEHB2-.LFB49
 708 0022 00000000 		.4byte	.LEHE2-.LEHB2
 709 0026 00000000 		.4byte	0
 710 002a 00       		.byte	0
 711 002b 00000000 		.4byte	.LEHB3-.LFB49
 712 002f 00000000 		.4byte	.LEHE3-.LEHB3
 713 0033 00000000 		.4byte	0
 714 0037 00       		.byte	0
 715              		.text
 717              		.align	2
 718              		.globl	_ZN5RiscV30executeThreadAttachBodySyscallEv
 720              	_ZN5RiscV30executeThreadAttachBodySyscallEv:
 721              	.LFB50:
 269:src/kernel/riscv.cpp **** 
 722              		.loc 1 269 45 is_stmt 1
 723              		.cfi_startproc
 724              		.cfi_personality 0x9b,DW.ref.__gxx_personality_v0
 725              		.cfi_lsda 0x1b,.LLSDA50
 726 0370 130101FC 		addi	sp,sp,-64
 727              		.cfi_def_cfa_offset 64
 728 0374 233C1102 		sd	ra,56(sp)
 729 0378 23388102 		sd	s0,48(sp)
 730 037c 23349102 		sd	s1,40(sp)
 731 0380 23302103 		sd	s2,32(sp)
 732 0384 233C3101 		sd	s3,24(sp)
GAS LISTING /tmp/ccy6xxkH.s 			page 30


 733 0388 23384101 		sd	s4,16(sp)
 734 038c 23345101 		sd	s5,8(sp)
 735              		.cfi_offset 1, -8
 736              		.cfi_offset 8, -16
 737              		.cfi_offset 9, -24
 738              		.cfi_offset 18, -32
 739              		.cfi_offset 19, -40
 740              		.cfi_offset 20, -48
 741              		.cfi_offset 21, -56
 742 0390 13040104 		addi	s0,sp,64
 743              		.cfi_def_cfa 8, 0
 272:src/kernel/riscv.cpp **** 
 744              		.loc 1 272 5
 275:src/kernel/riscv.cpp ****     asm("mv %[ihandle], a1" : [ihandle] "=r"(ihandle));
 745              		.loc 1 275 5
 275:src/kernel/riscv.cpp ****     asm("mv %[ihandle], a1" : [ihandle] "=r"(ihandle));
 746              		.loc 1 275 52 is_stmt 0
 747              	#APP
 748              	# 275 "src/kernel/riscv.cpp" 1
 749              		mv s5, a7
 750              	# 0 "" 2
 751              	.LVL42:
 276:src/kernel/riscv.cpp ****     asm("mv %[iroutine], a2" : [iroutine] "=r"(iroutine));
 752              		.loc 1 276 5 is_stmt 1
 276:src/kernel/riscv.cpp ****     asm("mv %[iroutine], a2" : [iroutine] "=r"(iroutine));
 753              		.loc 1 276 55 is_stmt 0
 754              	# 276 "src/kernel/riscv.cpp" 1
 755              		mv s4, a1
 756              	# 0 "" 2
 757              	.LVL43:
 277:src/kernel/riscv.cpp ****     asm("mv %[iargs], a3" : [iargs] "=r"(iargs));
 758              		.loc 1 277 5 is_stmt 1
 277:src/kernel/riscv.cpp ****     asm("mv %[iargs], a3" : [iargs] "=r"(iargs));
 759              		.loc 1 277 58 is_stmt 0
 760              	# 277 "src/kernel/riscv.cpp" 1
 761              		mv s3, a2
 762              	# 0 "" 2
 763              	.LVL44:
 278:src/kernel/riscv.cpp **** 
 764              		.loc 1 278 5 is_stmt 1
 278:src/kernel/riscv.cpp **** 
 765              		.loc 1 278 49 is_stmt 0
 766              	# 278 "src/kernel/riscv.cpp" 1
 767              		mv s2, a3
 768              	# 0 "" 2
 769              	.LVL45:
 280:src/kernel/riscv.cpp **** 
 770              		.loc 1 280 5 is_stmt 1
 280:src/kernel/riscv.cpp **** 
 771              		.loc 1 280 94 is_stmt 0
 772              	#NO_APP
 773 03a4 13050007 		li	a0,112
 774              	.LEHB4:
 775 03a8 97000000 		call	_ZN3TCBnwEm@plt
 775      E7800000 
 776              	.LVL46:
 777              	.LEHE4:
GAS LISTING /tmp/ccy6xxkH.s 			page 31


 778 03b0 93040500 		mv	s1,a0
 779 03b4 630E0500 		beqz	a0,.L41
 280:src/kernel/riscv.cpp **** 
 780              		.loc 1 280 94 discriminator 1
 781 03b8 13072000 		li	a4,2
 782 03bc 93860A00 		mv	a3,s5
 783 03c0 13060900 		mv	a2,s2
 784 03c4 93850900 		mv	a1,s3
 785              	.LEHB5:
 786 03c8 97000000 		call	_ZN3TCBC1EPFvPvES0_Pmm@plt
 786      E7800000 
 787              	.LVL47:
 788              	.LEHE5:
 789              	.L41:
 282:src/kernel/riscv.cpp **** 
 790              		.loc 1 282 5 is_stmt 1 discriminator 6
 284:src/kernel/riscv.cpp ****         status = -1;
 791              		.loc 1 284 5 discriminator 6
 792 03d0 63820404 		beqz	s1,.L44
 288:src/kernel/riscv.cpp ****         tcb->args = (void*)iargs;
 793              		.loc 1 288 9
 288:src/kernel/riscv.cpp ****         tcb->args = (void*)iargs;
 794              		.loc 1 288 19 is_stmt 0
 795 03d4 23BC3401 		sd	s3,24(s1)
 289:src/kernel/riscv.cpp ****         *((TCB**)ihandle) = tcb;
 796              		.loc 1 289 9 is_stmt 1
 289:src/kernel/riscv.cpp ****         *((TCB**)ihandle) = tcb;
 797              		.loc 1 289 19 is_stmt 0
 798 03d8 23B02403 		sd	s2,32(s1)
 290:src/kernel/riscv.cpp ****     }
 799              		.loc 1 290 9 is_stmt 1
 290:src/kernel/riscv.cpp ****     }
 800              		.loc 1 290 27 is_stmt 0
 801 03dc 23309A00 		sd	s1,0(s4)
 282:src/kernel/riscv.cpp **** 
 802              		.loc 1 282 12
 803 03e0 93070000 		li	a5,0
 804              	.L42:
 805              	.LVL48:
 293:src/kernel/riscv.cpp **** 
 806              		.loc 1 293 5 is_stmt 1
 293:src/kernel/riscv.cpp **** 
 807              		.loc 1 293 54 is_stmt 0
 808              	#APP
 809              	# 293 "src/kernel/riscv.cpp" 1
 295:src/kernel/riscv.cpp **** }
 810              		mv a0, a5
 811              	# 0 "" 2
 812              		.loc 1 295 5 is_stmt 1
 295:src/kernel/riscv.cpp **** }
 813              		.loc 1 295 28 is_stmt 0
 814              	#NO_APP
 815 03e8 97000000 		call	_ZN5RiscV16saveA0toSscratchEv
 815      E7800000 
 816              	.LVL49:
 296:src/kernel/riscv.cpp **** 
 817              		.loc 1 296 1
GAS LISTING /tmp/ccy6xxkH.s 			page 32


 818 03f0 83308103 		ld	ra,56(sp)
 819              		.cfi_remember_state
 820              		.cfi_restore 1
 821 03f4 03340103 		ld	s0,48(sp)
 822              		.cfi_restore 8
 823              		.cfi_def_cfa 2, 64
 824 03f8 83348102 		ld	s1,40(sp)
 825              		.cfi_restore 9
 826              	.LVL50:
 827 03fc 03390102 		ld	s2,32(sp)
 828              		.cfi_restore 18
 829              	.LVL51:
 830 0400 83398101 		ld	s3,24(sp)
 831              		.cfi_restore 19
 832              	.LVL52:
 833 0404 033A0101 		ld	s4,16(sp)
 834              		.cfi_restore 20
 835              	.LVL53:
 836 0408 833A8100 		ld	s5,8(sp)
 837              		.cfi_restore 21
 838              	.LVL54:
 839 040c 13010104 		addi	sp,sp,64
 840              		.cfi_def_cfa_offset 0
 841 0410 67800000 		jr	ra
 842              	.LVL55:
 843              	.L44:
 844              		.cfi_restore_state
 285:src/kernel/riscv.cpp ****     }
 845              		.loc 1 285 16
 846 0414 9307F0FF 		li	a5,-1
 847 0418 6FF0DFFC 		j	.L42
 848              	.LVL56:
 849              	.L45:
 850 041c 13090500 		mv	s2,a0
 851              	.LVL57:
 280:src/kernel/riscv.cpp **** 
 852              		.loc 1 280 94
 853 0420 13850400 		mv	a0,s1
 854 0424 97000000 		call	_ZN3TCBdlEPv@plt
 854      E7800000 
 855              	.LVL58:
 856 042c 13050900 		mv	a0,s2
 857              	.LEHB6:
 858 0430 97000000 		call	_Unwind_Resume@plt
 858      E7800000 
 859              	.LVL59:
 860              	.LEHE6:
 861              		.cfi_endproc
 862              	.LFE50:
 863              		.section	.gcc_except_table
 864              	.LLSDA50:
 865 0038 FF       		.byte	0xff
 866 0039 FF       		.byte	0xff
 867 003a 03       		.byte	0x3
 868 003b 27       		.byte	0x27
 869 003c 00000000 		.4byte	.LEHB4-.LFB50
 870 0040 00000000 		.4byte	.LEHE4-.LEHB4
GAS LISTING /tmp/ccy6xxkH.s 			page 33


 871 0044 00000000 		.4byte	0
 872 0048 00       		.byte	0
 873 0049 00000000 		.4byte	.LEHB5-.LFB50
 874 004d 00000000 		.4byte	.LEHE5-.LEHB5
 875 0051 00000000 		.4byte	.L45-.LFB50
 876 0055 00       		.byte	0
 877 0056 00000000 		.4byte	.LEHB6-.LFB50
 878 005a 00000000 		.4byte	.LEHE6-.LEHB6
 879 005e 00000000 		.4byte	0
 880 0062 00       		.byte	0
 881              		.text
 883              		.align	2
 884              		.globl	_ZN5RiscV25executeThreadStartSyscallEv
 886              	_ZN5RiscV25executeThreadStartSyscallEv:
 887              	.LFB51:
 298:src/kernel/riscv.cpp **** 
 888              		.loc 1 298 40 is_stmt 1
 889              		.cfi_startproc
 890 0438 130101FF 		addi	sp,sp,-16
 891              		.cfi_def_cfa_offset 16
 892 043c 23341100 		sd	ra,8(sp)
 893 0440 23308100 		sd	s0,0(sp)
 894              		.cfi_offset 1, -8
 895              		.cfi_offset 8, -16
 896 0444 13040101 		addi	s0,sp,16
 897              		.cfi_def_cfa 8, 0
 301:src/kernel/riscv.cpp **** 
 898              		.loc 1 301 5
 303:src/kernel/riscv.cpp **** 
 899              		.loc 1 303 5
 303:src/kernel/riscv.cpp **** 
 900              		.loc 1 303 55 is_stmt 0
 901              	#APP
 902              	# 303 "src/kernel/riscv.cpp" 1
 903              		mv a0, a1
 904              	# 0 "" 2
 905              	.LVL60:
 306:src/kernel/riscv.cpp **** 
 906              		.loc 1 306 5 is_stmt 1
 308:src/kernel/riscv.cpp **** 
 907              		.loc 1 308 5
 310:src/kernel/riscv.cpp ****         status = -1;
 908              		.loc 1 310 5
 909              	#NO_APP
 910 044c 63120502 		bnez	a0,.L52
 311:src/kernel/riscv.cpp ****     }
 911              		.loc 1 311 16 is_stmt 0
 912 0450 9307F0FF 		li	a5,-1
 913              	.LVL61:
 914              	.L49:
 320:src/kernel/riscv.cpp **** 
 915              		.loc 1 320 5 is_stmt 1
 320:src/kernel/riscv.cpp **** 
 916              		.loc 1 320 54 is_stmt 0
 917              	#APP
 918              	# 320 "src/kernel/riscv.cpp" 1
 322:src/kernel/riscv.cpp **** }
GAS LISTING /tmp/ccy6xxkH.s 			page 34


 919              		mv a0, a5
 920              	# 0 "" 2
 921              		.loc 1 322 5 is_stmt 1
 322:src/kernel/riscv.cpp **** }
 922              		.loc 1 322 28 is_stmt 0
 923              	#NO_APP
 924 0458 97000000 		call	_ZN5RiscV16saveA0toSscratchEv
 924      E7800000 
 925              	.LVL62:
 323:src/kernel/riscv.cpp **** 
 926              		.loc 1 323 1
 927 0460 83308100 		ld	ra,8(sp)
 928              		.cfi_remember_state
 929              		.cfi_restore 1
 930 0464 03340100 		ld	s0,0(sp)
 931              		.cfi_restore 8
 932              		.cfi_def_cfa 2, 16
 933 0468 13010101 		addi	sp,sp,16
 934              		.cfi_def_cfa_offset 0
 935 046c 67800000 		jr	ra
 936              	.LVL63:
 937              	.L52:
 938              		.cfi_restore_state
 314:src/kernel/riscv.cpp ****         Scheduler::put(tcb);
 939              		.loc 1 314 9 is_stmt 1
 314:src/kernel/riscv.cpp ****         Scheduler::put(tcb);
 940              		.loc 1 314 21 is_stmt 0
 941 0470 93071000 		li	a5,1
 942 0474 2328F500 		sw	a5,16(a0)
 315:src/kernel/riscv.cpp ****         TCB::dispatch();
 943              		.loc 1 315 9 is_stmt 1
 315:src/kernel/riscv.cpp ****         TCB::dispatch();
 944              		.loc 1 315 23 is_stmt 0
 945 0478 97000000 		call	_ZN9Scheduler3putEP3TCB@plt
 945      E7800000 
 946              	.LVL64:
 316:src/kernel/riscv.cpp ****     }
 947              		.loc 1 316 9 is_stmt 1
 316:src/kernel/riscv.cpp ****     }
 948              		.loc 1 316 22 is_stmt 0
 949 0480 97000000 		call	_ZN3TCB8dispatchEv@plt
 949      E7800000 
 950              	.LVL65:
 308:src/kernel/riscv.cpp **** 
 951              		.loc 1 308 12
 952 0488 93070000 		li	a5,0
 953 048c 6FF09FFC 		j	.L49
 954              		.cfi_endproc
 955              	.LFE51:
 957              		.align	2
 958              		.globl	_ZN5RiscV24executeThreadExitSyscallEv
 960              	_ZN5RiscV24executeThreadExitSyscallEv:
 961              	.LFB52:
 325:src/kernel/riscv.cpp **** 
 962              		.loc 1 325 40 is_stmt 1
 963              		.cfi_startproc
 964 0490 130101FF 		addi	sp,sp,-16
GAS LISTING /tmp/ccy6xxkH.s 			page 35


 965              		.cfi_def_cfa_offset 16
 966 0494 23341100 		sd	ra,8(sp)
 967 0498 23308100 		sd	s0,0(sp)
 968              		.cfi_offset 1, -8
 969              		.cfi_offset 8, -16
 970 049c 13040101 		addi	s0,sp,16
 971              		.cfi_def_cfa 8, 0
 328:src/kernel/riscv.cpp **** 
 972              		.loc 1 328 5
 973              	.LVL66:
 331:src/kernel/riscv.cpp ****         status = -1;
 974              		.loc 1 331 5
 975              	.LBB109:
 331:src/kernel/riscv.cpp ****         status = -1;
 976              		.loc 1 331 21 is_stmt 0
 977 04a0 97070000 		la	a5,_ZN3TCB7runningE
 977      83B70700 
 978 04a8 83B70700 		ld	a5,0(a5)
 331:src/kernel/riscv.cpp ****         status = -1;
 979              		.loc 1 331 5
 980 04ac 638A0702 		beqz	a5,.L55
 981              	.LBB110:
 335:src/kernel/riscv.cpp ****         old->status = TCB::Status::FINISHED;
 982              		.loc 1 335 9 is_stmt 1
 983              	.LVL67:
 336:src/kernel/riscv.cpp ****         TCB::dispatch();
 984              		.loc 1 336 9
 336:src/kernel/riscv.cpp ****         TCB::dispatch();
 985              		.loc 1 336 21 is_stmt 0
 986 04b0 13072000 		li	a4,2
 987 04b4 23A8E700 		sw	a4,16(a5)
 337:src/kernel/riscv.cpp ****     }
 988              		.loc 1 337 9 is_stmt 1
 337:src/kernel/riscv.cpp ****     }
 989              		.loc 1 337 22 is_stmt 0
 990 04b8 97000000 		call	_ZN3TCB8dispatchEv@plt
 990      E7800000 
 991              	.LVL68:
 992              	.LBE110:
 993              	.LBE109:
 328:src/kernel/riscv.cpp **** 
 994              		.loc 1 328 12
 995 04c0 93070000 		li	a5,0
 996              	.L54:
 997              	.LVL69:
 340:src/kernel/riscv.cpp **** 
 998              		.loc 1 340 5 is_stmt 1
 340:src/kernel/riscv.cpp **** 
 999              		.loc 1 340 54 is_stmt 0
 1000              	#APP
 1001              	# 340 "src/kernel/riscv.cpp" 1
 342:src/kernel/riscv.cpp **** }
 1002              		mv a0, a5
 1003              	# 0 "" 2
 1004              		.loc 1 342 5 is_stmt 1
 342:src/kernel/riscv.cpp **** }
 1005              		.loc 1 342 28 is_stmt 0
GAS LISTING /tmp/ccy6xxkH.s 			page 36


 1006              	#NO_APP
 1007 04c8 97000000 		call	_ZN5RiscV16saveA0toSscratchEv
 1007      E7800000 
 1008              	.LVL70:
 343:src/kernel/riscv.cpp **** 
 1009              		.loc 1 343 1
 1010 04d0 83308100 		ld	ra,8(sp)
 1011              		.cfi_remember_state
 1012              		.cfi_restore 1
 1013 04d4 03340100 		ld	s0,0(sp)
 1014              		.cfi_restore 8
 1015              		.cfi_def_cfa 2, 16
 1016 04d8 13010101 		addi	sp,sp,16
 1017              		.cfi_def_cfa_offset 0
 1018 04dc 67800000 		jr	ra
 1019              	.LVL71:
 1020              	.L55:
 1021              		.cfi_restore_state
 1022              	.LBB111:
 332:src/kernel/riscv.cpp ****     }
 1023              		.loc 1 332 16
 1024 04e0 9307F0FF 		li	a5,-1
 1025 04e4 6FF01FFE 		j	.L54
 1026              	.LBE111:
 1027              		.cfi_endproc
 1028              	.LFE52:
 1030              		.align	2
 1031              		.globl	_ZN5RiscV21executeSemOpenSyscallEv
 1033              	_ZN5RiscV21executeSemOpenSyscallEv:
 1034              	.LFB54:
 353:src/kernel/riscv.cpp **** 
 1035              		.loc 1 353 37 is_stmt 1
 1036              		.cfi_startproc
 1037              		.cfi_personality 0x9b,DW.ref.__gxx_personality_v0
 1038              		.cfi_lsda 0x1b,.LLSDA54
 1039 04e8 130101FD 		addi	sp,sp,-48
 1040              		.cfi_def_cfa_offset 48
 1041 04ec 23341102 		sd	ra,40(sp)
 1042 04f0 23308102 		sd	s0,32(sp)
 1043 04f4 233C9100 		sd	s1,24(sp)
 1044 04f8 23382101 		sd	s2,16(sp)
 1045 04fc 23343101 		sd	s3,8(sp)
 1046              		.cfi_offset 1, -8
 1047              		.cfi_offset 8, -16
 1048              		.cfi_offset 9, -24
 1049              		.cfi_offset 18, -32
 1050              		.cfi_offset 19, -40
 1051 0500 13040103 		addi	s0,sp,48
 1052              		.cfi_def_cfa 8, 0
 356:src/kernel/riscv.cpp **** 
 1053              		.loc 1 356 5
 358:src/kernel/riscv.cpp ****     asm("mv %[iinit], a2" : [iinit] "=r"(iinit));
 1054              		.loc 1 358 5
 358:src/kernel/riscv.cpp ****     asm("mv %[iinit], a2" : [iinit] "=r"(iinit));
 1055              		.loc 1 358 55 is_stmt 0
 1056              	#APP
 1057              	# 358 "src/kernel/riscv.cpp" 1
GAS LISTING /tmp/ccy6xxkH.s 			page 37


 1058              		mv s2, a1
 1059              	# 0 "" 2
 1060              	.LVL72:
 359:src/kernel/riscv.cpp **** 
 1061              		.loc 1 359 5 is_stmt 1
 359:src/kernel/riscv.cpp **** 
 1062              		.loc 1 359 49 is_stmt 0
 1063              	# 359 "src/kernel/riscv.cpp" 1
 1064              		mv s3, a2
 1065              	# 0 "" 2
 1066              	.LVL73:
 362:src/kernel/riscv.cpp **** 
 1067              		.loc 1 362 5 is_stmt 1
 362:src/kernel/riscv.cpp **** 
 1068              		.loc 1 362 29 is_stmt 0
 1069              	#NO_APP
 1070 050c 13058001 		li	a0,24
 1071              	.LEHB7:
 1072 0510 97000000 		call	_ZN3SCBnwEm@plt
 1072      E7800000 
 1073              	.LVL74:
 1074              	.LEHE7:
 1075 0518 93040500 		mv	s1,a0
 1076 051c 63080500 		beqz	a0,.L58
 362:src/kernel/riscv.cpp **** 
 1077              		.loc 1 362 29 discriminator 1
 1078 0520 93850900 		mv	a1,s3
 1079              	.LEHB8:
 1080 0524 97000000 		call	_ZN3SCBC1Em@plt
 1080      E7800000 
 1081              	.LVL75:
 1082              	.LEHE8:
 1083              	.L58:
 364:src/kernel/riscv.cpp **** 
 1084              		.loc 1 364 5 is_stmt 1 discriminator 6
 366:src/kernel/riscv.cpp ****         status = -1;
 1085              		.loc 1 366 5 discriminator 6
 1086 052c 638A0402 		beqz	s1,.L61
 370:src/kernel/riscv.cpp ****     }
 1087              		.loc 1 370 9
 370:src/kernel/riscv.cpp ****     }
 1088              		.loc 1 370 27 is_stmt 0
 1089 0530 23309900 		sd	s1,0(s2)
 364:src/kernel/riscv.cpp **** 
 1090              		.loc 1 364 12
 1091 0534 93070000 		li	a5,0
 1092              	.L59:
 1093              	.LVL76:
 374:src/kernel/riscv.cpp **** 
 1094              		.loc 1 374 5 is_stmt 1
 374:src/kernel/riscv.cpp **** 
 1095              		.loc 1 374 54 is_stmt 0
 1096              	#APP
 1097              	# 374 "src/kernel/riscv.cpp" 1
 376:src/kernel/riscv.cpp **** 
 1098              		mv a0, a5
 1099              	# 0 "" 2
GAS LISTING /tmp/ccy6xxkH.s 			page 38


 1100              		.loc 1 376 5 is_stmt 1
 376:src/kernel/riscv.cpp **** 
 1101              		.loc 1 376 28 is_stmt 0
 1102              	#NO_APP
 1103 053c 97000000 		call	_ZN5RiscV16saveA0toSscratchEv
 1103      E7800000 
 1104              	.LVL77:
 378:src/kernel/riscv.cpp **** 
 1105              		.loc 1 378 1
 1106 0544 83308102 		ld	ra,40(sp)
 1107              		.cfi_remember_state
 1108              		.cfi_restore 1
 1109 0548 03340102 		ld	s0,32(sp)
 1110              		.cfi_restore 8
 1111              		.cfi_def_cfa 2, 48
 1112 054c 83348101 		ld	s1,24(sp)
 1113              		.cfi_restore 9
 1114              	.LVL78:
 1115 0550 03390101 		ld	s2,16(sp)
 1116              		.cfi_restore 18
 1117              	.LVL79:
 1118 0554 83398100 		ld	s3,8(sp)
 1119              		.cfi_restore 19
 1120              	.LVL80:
 1121 0558 13010103 		addi	sp,sp,48
 1122              		.cfi_def_cfa_offset 0
 1123 055c 67800000 		jr	ra
 1124              	.LVL81:
 1125              	.L61:
 1126              		.cfi_restore_state
 367:src/kernel/riscv.cpp ****     }
 1127              		.loc 1 367 16
 1128 0560 9307F0FF 		li	a5,-1
 1129 0564 6FF05FFD 		j	.L59
 1130              	.LVL82:
 1131              	.L62:
 1132 0568 13090500 		mv	s2,a0
 1133              	.LVL83:
 362:src/kernel/riscv.cpp **** 
 1134              		.loc 1 362 29
 1135 056c 13850400 		mv	a0,s1
 1136 0570 97000000 		call	_ZN3SCBdlEPv@plt
 1136      E7800000 
 1137              	.LVL84:
 1138 0578 13050900 		mv	a0,s2
 1139              	.LEHB9:
 1140 057c 97000000 		call	_Unwind_Resume@plt
 1140      E7800000 
 1141              	.LVL85:
 1142              	.LEHE9:
 1143              		.cfi_endproc
 1144              	.LFE54:
 1145              		.section	.gcc_except_table
 1146              	.LLSDA54:
 1147 0063 FF       		.byte	0xff
 1148 0064 FF       		.byte	0xff
 1149 0065 03       		.byte	0x3
GAS LISTING /tmp/ccy6xxkH.s 			page 39


 1150 0066 27       		.byte	0x27
 1151 0067 00000000 		.4byte	.LEHB7-.LFB54
 1152 006b 00000000 		.4byte	.LEHE7-.LEHB7
 1153 006f 00000000 		.4byte	0
 1154 0073 00       		.byte	0
 1155 0074 00000000 		.4byte	.LEHB8-.LFB54
 1156 0078 00000000 		.4byte	.LEHE8-.LEHB8
 1157 007c 00000000 		.4byte	.L62-.LFB54
 1158 0080 00       		.byte	0
 1159 0081 00000000 		.4byte	.LEHB9-.LFB54
 1160 0085 00000000 		.4byte	.LEHE9-.LEHB9
 1161 0089 00000000 		.4byte	0
 1162 008d 00       		.byte	0
 1163              		.text
 1165              		.align	2
 1166              		.globl	_ZN5RiscV22executeSemCloseSyscallEv
 1168              	_ZN5RiscV22executeSemCloseSyscallEv:
 1169              	.LFB55:
 380:src/kernel/riscv.cpp **** 
 1170              		.loc 1 380 38 is_stmt 1
 1171              		.cfi_startproc
 1172 0584 130101FE 		addi	sp,sp,-32
 1173              		.cfi_def_cfa_offset 32
 1174 0588 233C1100 		sd	ra,24(sp)
 1175 058c 23388100 		sd	s0,16(sp)
 1176 0590 23349100 		sd	s1,8(sp)
 1177              		.cfi_offset 1, -8
 1178              		.cfi_offset 8, -16
 1179              		.cfi_offset 9, -24
 1180 0594 13040102 		addi	s0,sp,32
 1181              		.cfi_def_cfa 8, 0
 383:src/kernel/riscv.cpp **** 
 1182              		.loc 1 383 5
 385:src/kernel/riscv.cpp **** 
 1183              		.loc 1 385 5
 385:src/kernel/riscv.cpp **** 
 1184              		.loc 1 385 55 is_stmt 0
 1185              	#APP
 1186              	# 385 "src/kernel/riscv.cpp" 1
 1187              		mv s1, a1
 1188              	# 0 "" 2
 1189              	.LVL86:
 388:src/kernel/riscv.cpp ****     uint64 status = 0;
 1190              		.loc 1 388 5 is_stmt 1
 389:src/kernel/riscv.cpp **** 
 1191              		.loc 1 389 5
 391:src/kernel/riscv.cpp ****         status = -1;
 1192              		.loc 1 391 5
 1193              	#NO_APP
 1194 059c 63940402 		bnez	s1,.L69
 392:src/kernel/riscv.cpp ****     }
 1195              		.loc 1 392 16 is_stmt 0
 1196 05a0 9307F0FF 		li	a5,-1
 1197              	.L66:
 1198              	.LVL87:
 398:src/kernel/riscv.cpp **** 
 1199              		.loc 1 398 5 is_stmt 1
GAS LISTING /tmp/ccy6xxkH.s 			page 40


 398:src/kernel/riscv.cpp **** 
 1200              		.loc 1 398 54 is_stmt 0
 1201              	#APP
 1202              	# 398 "src/kernel/riscv.cpp" 1
 400:src/kernel/riscv.cpp **** }
 1203              		mv a0, a5
 1204              	# 0 "" 2
 1205              		.loc 1 400 5 is_stmt 1
 400:src/kernel/riscv.cpp **** }
 1206              		.loc 1 400 28 is_stmt 0
 1207              	#NO_APP
 1208 05a8 97000000 		call	_ZN5RiscV16saveA0toSscratchEv
 1208      E7800000 
 1209              	.LVL88:
 401:src/kernel/riscv.cpp **** 
 1210              		.loc 1 401 1
 1211 05b0 83308101 		ld	ra,24(sp)
 1212              		.cfi_remember_state
 1213              		.cfi_restore 1
 1214 05b4 03340101 		ld	s0,16(sp)
 1215              		.cfi_restore 8
 1216              		.cfi_def_cfa 2, 32
 1217 05b8 83348100 		ld	s1,8(sp)
 1218              		.cfi_restore 9
 1219              	.LVL89:
 1220 05bc 13010102 		addi	sp,sp,32
 1221              		.cfi_def_cfa_offset 0
 1222 05c0 67800000 		jr	ra
 1223              	.LVL90:
 1224              	.L69:
 1225              		.cfi_restore_state
 395:src/kernel/riscv.cpp **** 
 1226              		.loc 1 395 9 is_stmt 1 discriminator 1
 395:src/kernel/riscv.cpp **** 
 1227              		.loc 1 395 22 is_stmt 0 discriminator 1
 1228 05c4 13850400 		mv	a0,s1
 1229 05c8 97000000 		call	_ZN3SCBD1Ev@plt
 1229      E7800000 
 1230              	.LVL91:
 1231 05d0 13850400 		mv	a0,s1
 1232 05d4 97000000 		call	_ZN3SCBdlEPv@plt
 1232      E7800000 
 1233              	.LVL92:
 389:src/kernel/riscv.cpp **** 
 1234              		.loc 1 389 12 discriminator 1
 1235 05dc 93070000 		li	a5,0
 1236 05e0 6FF05FFC 		j	.L66
 1237              		.cfi_endproc
 1238              	.LFE55:
 1240              		.align	2
 1241              		.globl	_ZN5RiscV21executeSemWaitSyscallEv
 1243              	_ZN5RiscV21executeSemWaitSyscallEv:
 1244              	.LFB56:
 403:src/kernel/riscv.cpp **** 
 1245              		.loc 1 403 37 is_stmt 1
 1246              		.cfi_startproc
 1247 05e4 130101FF 		addi	sp,sp,-16
GAS LISTING /tmp/ccy6xxkH.s 			page 41


 1248              		.cfi_def_cfa_offset 16
 1249 05e8 23341100 		sd	ra,8(sp)
 1250 05ec 23308100 		sd	s0,0(sp)
 1251              		.cfi_offset 1, -8
 1252              		.cfi_offset 8, -16
 1253 05f0 13040101 		addi	s0,sp,16
 1254              		.cfi_def_cfa 8, 0
 406:src/kernel/riscv.cpp **** 
 1255              		.loc 1 406 5
 408:src/kernel/riscv.cpp **** 
 1256              		.loc 1 408 5
 408:src/kernel/riscv.cpp **** 
 1257              		.loc 1 408 55 is_stmt 0
 1258              	#APP
 1259              	# 408 "src/kernel/riscv.cpp" 1
 1260              		mv a0, a1
 1261              	# 0 "" 2
 1262              	.LVL93:
 410:src/kernel/riscv.cpp ****     //call wait method on ihandle scb
 1263              		.loc 1 410 5 is_stmt 1
 413:src/kernel/riscv.cpp ****         ((SCB*)ihandle)->wait();
 1264              		.loc 1 413 5
 1265              	#NO_APP
 1266 05f8 631C0502 		bnez	a0,.L75
 1267              	.LVL94:
 1268              	.L71:
 418:src/kernel/riscv.cpp ****         status = -1;
 1269              		.loc 1 418 5
 418:src/kernel/riscv.cpp ****         status = -1;
 1270              		.loc 1 418 22 is_stmt 0
 1271 05fc 97070000 		la	a5,_ZN3TCB7runningE
 1271      83B70700 
 1272 0604 83B70700 		ld	a5,0(a5)
 1273 0608 83B70706 		ld	a5,96(a5)
 418:src/kernel/riscv.cpp ****         status = -1;
 1274              		.loc 1 418 5
 1275 060c 63880702 		beqz	a5,.L73
 419:src/kernel/riscv.cpp ****     else
 1276              		.loc 1 419 16
 1277 0610 9307F0FF 		li	a5,-1
 1278              	.L72:
 1279              	.LVL95:
 424:src/kernel/riscv.cpp **** 
 1280              		.loc 1 424 5 is_stmt 1
 424:src/kernel/riscv.cpp **** 
 1281              		.loc 1 424 54 is_stmt 0
 1282              	#APP
 1283              	# 424 "src/kernel/riscv.cpp" 1
 426:src/kernel/riscv.cpp **** 
 1284              		mv a0, a5
 1285              	# 0 "" 2
 1286              		.loc 1 426 5 is_stmt 1
 426:src/kernel/riscv.cpp **** 
 1287              		.loc 1 426 28 is_stmt 0
 1288              	#NO_APP
 1289 0618 97000000 		call	_ZN5RiscV16saveA0toSscratchEv
 1289      E7800000 
GAS LISTING /tmp/ccy6xxkH.s 			page 42


 1290              	.LVL96:
 428:src/kernel/riscv.cpp **** 
 1291              		.loc 1 428 1
 1292 0620 83308100 		ld	ra,8(sp)
 1293              		.cfi_remember_state
 1294              		.cfi_restore 1
 1295 0624 03340100 		ld	s0,0(sp)
 1296              		.cfi_restore 8
 1297              		.cfi_def_cfa 2, 16
 1298 0628 13010101 		addi	sp,sp,16
 1299              		.cfi_def_cfa_offset 0
 1300 062c 67800000 		jr	ra
 1301              	.LVL97:
 1302              	.L75:
 1303              		.cfi_restore_state
 414:src/kernel/riscv.cpp ****     else
 1304              		.loc 1 414 9 is_stmt 1
 414:src/kernel/riscv.cpp ****     else
 1305              		.loc 1 414 30 is_stmt 0
 1306 0630 97000000 		call	_ZN3SCB4waitEv@plt
 1306      E7800000 
 1307              	.LVL98:
 1308 0638 6FF05FFC 		j	.L71
 1309              	.LVL99:
 1310              	.L73:
 421:src/kernel/riscv.cpp **** 
 1311              		.loc 1 421 16
 1312 063c 93070000 		li	a5,0
 1313 0640 6FF05FFD 		j	.L72
 1314              		.cfi_endproc
 1315              	.LFE56:
 1317              		.align	2
 1318              		.globl	_ZN5RiscV23executeSemSignalSyscallEv
 1320              	_ZN5RiscV23executeSemSignalSyscallEv:
 1321              	.LFB57:
 430:src/kernel/riscv.cpp **** 
 1322              		.loc 1 430 39 is_stmt 1
 1323              		.cfi_startproc
 1324 0644 130101FF 		addi	sp,sp,-16
 1325              		.cfi_def_cfa_offset 16
 1326 0648 23341100 		sd	ra,8(sp)
 1327 064c 23308100 		sd	s0,0(sp)
 1328              		.cfi_offset 1, -8
 1329              		.cfi_offset 8, -16
 1330 0650 13040101 		addi	s0,sp,16
 1331              		.cfi_def_cfa 8, 0
 433:src/kernel/riscv.cpp **** 
 1332              		.loc 1 433 5
 435:src/kernel/riscv.cpp **** 
 1333              		.loc 1 435 5
 435:src/kernel/riscv.cpp **** 
 1334              		.loc 1 435 55 is_stmt 0
 1335              	#APP
 1336              	# 435 "src/kernel/riscv.cpp" 1
 1337              		mv a0, a1
 1338              	# 0 "" 2
 1339              	.LVL100:
GAS LISTING /tmp/ccy6xxkH.s 			page 43


 439:src/kernel/riscv.cpp **** 
 1340              		.loc 1 439 5 is_stmt 1
 441:src/kernel/riscv.cpp ****         ((SCB*)ihandle)->signal();
 1341              		.loc 1 441 5
 1342              	#NO_APP
 1343 0658 63120502 		bnez	a0,.L80
 444:src/kernel/riscv.cpp **** 
 1344              		.loc 1 444 16 is_stmt 0
 1345 065c 9307F0FF 		li	a5,-1
 1346              	.LVL101:
 1347              	.L77:
 447:src/kernel/riscv.cpp **** 
 1348              		.loc 1 447 5 is_stmt 1
 447:src/kernel/riscv.cpp **** 
 1349              		.loc 1 447 54 is_stmt 0
 1350              	#APP
 1351              	# 447 "src/kernel/riscv.cpp" 1
 449:src/kernel/riscv.cpp **** }
 1352              		mv a0, a5
 1353              	# 0 "" 2
 1354              		.loc 1 449 5 is_stmt 1
 449:src/kernel/riscv.cpp **** }
 1355              		.loc 1 449 28 is_stmt 0
 1356              	#NO_APP
 1357 0664 97000000 		call	_ZN5RiscV16saveA0toSscratchEv
 1357      E7800000 
 1358              	.LVL102:
 450:src/kernel/riscv.cpp **** 
 1359              		.loc 1 450 1
 1360 066c 83308100 		ld	ra,8(sp)
 1361              		.cfi_remember_state
 1362              		.cfi_restore 1
 1363 0670 03340100 		ld	s0,0(sp)
 1364              		.cfi_restore 8
 1365              		.cfi_def_cfa 2, 16
 1366 0674 13010101 		addi	sp,sp,16
 1367              		.cfi_def_cfa_offset 0
 1368 0678 67800000 		jr	ra
 1369              	.LVL103:
 1370              	.L80:
 1371              		.cfi_restore_state
 442:src/kernel/riscv.cpp ****     else
 1372              		.loc 1 442 9 is_stmt 1
 442:src/kernel/riscv.cpp ****     else
 1373              		.loc 1 442 32 is_stmt 0
 1374 067c 97000000 		call	_ZN3SCB6signalEv@plt
 1374      E7800000 
 1375              	.LVL104:
 439:src/kernel/riscv.cpp **** 
 1376              		.loc 1 439 12
 1377 0684 93070000 		li	a5,0
 1378 0688 6FF09FFD 		j	.L77
 1379              		.cfi_endproc
 1380              	.LFE57:
 1382              		.align	2
 1383              		.globl	_ZN5RiscV23executeTimeSleepSyscallEv
 1385              	_ZN5RiscV23executeTimeSleepSyscallEv:
GAS LISTING /tmp/ccy6xxkH.s 			page 44


 1386              	.LFB58:
 452:src/kernel/riscv.cpp **** 
 1387              		.loc 1 452 39 is_stmt 1
 1388              		.cfi_startproc
 1389 068c 130101FE 		addi	sp,sp,-32
 1390              		.cfi_def_cfa_offset 32
 1391 0690 233C1100 		sd	ra,24(sp)
 1392 0694 23388100 		sd	s0,16(sp)
 1393 0698 23349100 		sd	s1,8(sp)
 1394              		.cfi_offset 1, -8
 1395              		.cfi_offset 8, -16
 1396              		.cfi_offset 9, -24
 1397 069c 13040102 		addi	s0,sp,32
 1398              		.cfi_def_cfa 8, 0
 455:src/kernel/riscv.cpp **** 
 1399              		.loc 1 455 5
 457:src/kernel/riscv.cpp **** 
 1400              		.loc 1 457 5
 457:src/kernel/riscv.cpp **** 
 1401              		.loc 1 457 49 is_stmt 0
 1402              	#APP
 1403              	# 457 "src/kernel/riscv.cpp" 1
 461:src/kernel/riscv.cpp ****     tcb->sleepTime = globalTime;
 1404              		mv a4, a1
 1405              	# 0 "" 2
 1406              		.loc 1 461 5 is_stmt 1
 461:src/kernel/riscv.cpp ****     tcb->sleepTime = globalTime;
 1407              		.loc 1 461 10 is_stmt 0
 1408              	#NO_APP
 1409 06a4 97070000 		la	a5,_ZN3TCB7runningE
 1409      83B70700 
 1410 06ac 83B40700 		ld	s1,0(a5)
 1411              	.LVL105:
 462:src/kernel/riscv.cpp ****     tcb->wakeTime = globalTime + itime;
 1412              		.loc 1 462 5 is_stmt 1
 462:src/kernel/riscv.cpp ****     tcb->wakeTime = globalTime + itime;
 1413              		.loc 1 462 20 is_stmt 0
 1414 06b0 97070000 		ld	a5,.LANCHOR0+8
 1414      83B70700 
 1415 06b8 23B8F404 		sd	a5,80(s1)
 463:src/kernel/riscv.cpp **** 
 1416              		.loc 1 463 5 is_stmt 1
 463:src/kernel/riscv.cpp **** 
 1417              		.loc 1 463 32 is_stmt 0
 1418 06bc B387E700 		add	a5,a5,a4
 463:src/kernel/riscv.cpp **** 
 1419              		.loc 1 463 19
 1420 06c0 23BCF404 		sd	a5,88(s1)
 465:src/kernel/riscv.cpp **** 
 1421              		.loc 1 465 5 is_stmt 1
 465:src/kernel/riscv.cpp **** 
 1422              		.loc 1 465 21 is_stmt 0
 1423 06c4 13850400 		mv	a0,s1
 1424 06c8 97000000 		call	_ZN9Scheduler5sleepEP3TCB@plt
 1424      E7800000 
 1425              	.LVL106:
 467:src/kernel/riscv.cpp **** 
GAS LISTING /tmp/ccy6xxkH.s 			page 45


 1426              		.loc 1 467 5 is_stmt 1
 467:src/kernel/riscv.cpp **** 
 1427              		.loc 1 467 17 is_stmt 0
 1428 06d0 93073000 		li	a5,3
 1429 06d4 23A8F400 		sw	a5,16(s1)
 469:src/kernel/riscv.cpp **** 
 1430              		.loc 1 469 5 is_stmt 1
 469:src/kernel/riscv.cpp **** 
 1431              		.loc 1 469 18 is_stmt 0
 1432 06d8 97000000 		call	_ZN3TCB8dispatchEv@plt
 1432      E7800000 
 1433              	.LVL107:
 471:src/kernel/riscv.cpp **** 
 1434              		.loc 1 471 5 is_stmt 1
 474:src/kernel/riscv.cpp **** 
 1435              		.loc 1 474 5
 474:src/kernel/riscv.cpp **** 
 1436              		.loc 1 474 54 is_stmt 0
 1437 06e0 93070000 		li	a5,0
 1438              	#APP
 1439              	# 474 "src/kernel/riscv.cpp" 1
 476:src/kernel/riscv.cpp **** }
 1440              		mv a0, a5
 1441              	# 0 "" 2
 1442              		.loc 1 476 5 is_stmt 1
 476:src/kernel/riscv.cpp **** }
 1443              		.loc 1 476 28 is_stmt 0
 1444              	#NO_APP
 1445 06e8 97000000 		call	_ZN5RiscV16saveA0toSscratchEv
 1445      E7800000 
 1446              	.LVL108:
 477:src/kernel/riscv.cpp **** 
 1447              		.loc 1 477 1
 1448 06f0 83308101 		ld	ra,24(sp)
 1449              		.cfi_restore 1
 1450 06f4 03340101 		ld	s0,16(sp)
 1451              		.cfi_restore 8
 1452              		.cfi_def_cfa 2, 32
 1453 06f8 83348100 		ld	s1,8(sp)
 1454              		.cfi_restore 9
 1455              	.LVL109:
 1456 06fc 13010102 		addi	sp,sp,32
 1457              		.cfi_def_cfa_offset 0
 1458 0700 67800000 		jr	ra
 1459              		.cfi_endproc
 1460              	.LFE58:
 1462              		.align	2
 1463              		.globl	_ZN5RiscV18executeGetcSyscallEv
 1465              	_ZN5RiscV18executeGetcSyscallEv:
 1466              	.LFB59:
 479:src/kernel/riscv.cpp **** 
 1467              		.loc 1 479 34 is_stmt 1
 1468              		.cfi_startproc
 1469 0704 130101FE 		addi	sp,sp,-32
 1470              		.cfi_def_cfa_offset 32
 1471 0708 233C1100 		sd	ra,24(sp)
 1472 070c 23388100 		sd	s0,16(sp)
GAS LISTING /tmp/ccy6xxkH.s 			page 46


 1473 0710 23349100 		sd	s1,8(sp)
 1474              		.cfi_offset 1, -8
 1475              		.cfi_offset 8, -16
 1476              		.cfi_offset 9, -24
 1477 0714 13040102 		addi	s0,sp,32
 1478              		.cfi_def_cfa 8, 0
 482:src/kernel/riscv.cpp ****         ConsoleUtil::pendingGetc++;
 1479              		.loc 1 482 5
 482:src/kernel/riscv.cpp ****         ConsoleUtil::pendingGetc++;
 1480              		.loc 1 482 8 is_stmt 0
 1481 0718 97070000 		lbu	a5,.LANCHOR0
 1481      83C70700 
 482:src/kernel/riscv.cpp ****         ConsoleUtil::pendingGetc++;
 1482              		.loc 1 482 5
 1483 0720 639C0700 		bnez	a5,.L84
 483:src/kernel/riscv.cpp **** 
 1484              		.loc 1 483 9 is_stmt 1
 483:src/kernel/riscv.cpp **** 
 1485              		.loc 1 483 33 is_stmt 0
 1486 0724 17070000 		la	a4,_ZN11ConsoleUtil11pendingGetcE
 1486      03370700 
 1487 072c 83370700 		ld	a5,0(a4)
 1488 0730 93871700 		addi	a5,a5,1
 1489 0734 2330F700 		sd	a5,0(a4)
 1490              	.L84:
 486:src/kernel/riscv.cpp **** 
 1491              		.loc 1 486 5 is_stmt 1
 486:src/kernel/riscv.cpp **** 
 1492              		.loc 1 486 35 is_stmt 0
 1493 0738 97000000 		call	_ZN11ConsoleUtil8getInputEv@plt
 1493      E7800000 
 1494              	.LVL110:
 1495 0740 93040500 		mv	s1,a0
 1496              	.LVL111:
 489:src/kernel/riscv.cpp ****         ConsoleUtil::putOutput(13);
 1497              		.loc 1 489 5 is_stmt 1
 1498 0744 9307D000 		li	a5,13
 1499 0748 6306F502 		beq	a0,a5,.L88
 494:src/kernel/riscv.cpp ****         ConsoleUtil::putOutput(c);
 1500              		.loc 1 494 10
 1501 074c 9307B001 		li	a5,27
 1502 0750 6310F504 		bne	a0,a5,.L89
 1503              	.LVL112:
 1504              	.L86:
 498:src/kernel/riscv.cpp **** 
 1505              		.loc 1 498 5
 498:src/kernel/riscv.cpp **** 
 1506              		.loc 1 498 39 is_stmt 0
 1507              	#APP
 1508              	# 498 "src/kernel/riscv.cpp" 1
 500:src/kernel/riscv.cpp **** }
 1509              		mv a0, s1
 1510              	# 0 "" 2
 1511              		.loc 1 500 5 is_stmt 1
 500:src/kernel/riscv.cpp **** }
 1512              		.loc 1 500 28 is_stmt 0
 1513              	#NO_APP
GAS LISTING /tmp/ccy6xxkH.s 			page 47


 1514 0758 97000000 		call	_ZN5RiscV16saveA0toSscratchEv
 1514      E7800000 
 1515              	.LVL113:
 501:src/kernel/riscv.cpp **** 
 1516              		.loc 1 501 1
 1517 0760 83308101 		ld	ra,24(sp)
 1518              		.cfi_remember_state
 1519              		.cfi_restore 1
 1520 0764 03340101 		ld	s0,16(sp)
 1521              		.cfi_restore 8
 1522              		.cfi_def_cfa 2, 32
 1523 0768 83348100 		ld	s1,8(sp)
 1524              		.cfi_restore 9
 1525 076c 13010102 		addi	sp,sp,32
 1526              		.cfi_def_cfa_offset 0
 1527 0770 67800000 		jr	ra
 1528              	.LVL114:
 1529              	.L88:
 1530              		.cfi_restore_state
 490:src/kernel/riscv.cpp ****         ConsoleUtil::putOutput(10);
 1531              		.loc 1 490 9 is_stmt 1
 490:src/kernel/riscv.cpp ****         ConsoleUtil::putOutput(10);
 1532              		.loc 1 490 31 is_stmt 0
 1533 0774 1305D000 		li	a0,13
 1534              	.LVL115:
 1535 0778 97000000 		call	_ZN11ConsoleUtil9putOutputEc@plt
 1535      E7800000 
 1536              	.LVL116:
 491:src/kernel/riscv.cpp ****     }
 1537              		.loc 1 491 9 is_stmt 1
 491:src/kernel/riscv.cpp ****     }
 1538              		.loc 1 491 31 is_stmt 0
 1539 0780 1305A000 		li	a0,10
 1540 0784 97000000 		call	_ZN11ConsoleUtil9putOutputEc@plt
 1540      E7800000 
 1541              	.LVL117:
 1542 078c 6FF09FFC 		j	.L86
 1543              	.LVL118:
 1544              	.L89:
 495:src/kernel/riscv.cpp **** 
 1545              		.loc 1 495 9 is_stmt 1
 495:src/kernel/riscv.cpp **** 
 1546              		.loc 1 495 31 is_stmt 0
 1547 0790 97000000 		call	_ZN11ConsoleUtil9putOutputEc@plt
 1547      E7800000 
 1548              	.LVL119:
 1549 0798 6FF0DFFB 		j	.L86
 1550              		.cfi_endproc
 1551              	.LFE59:
 1553              		.align	2
 1554              		.globl	_ZN5RiscV22executePutcUtilSyscallEv
 1556              	_ZN5RiscV22executePutcUtilSyscallEv:
 1557              	.LFB62:
 551:src/kernel/riscv.cpp ****     char c = ConsoleUtil::getOutput();
 1558              		.loc 1 551 38 is_stmt 1
 1559              		.cfi_startproc
 1560 079c 130101FF 		addi	sp,sp,-16
GAS LISTING /tmp/ccy6xxkH.s 			page 48


 1561              		.cfi_def_cfa_offset 16
 1562 07a0 23341100 		sd	ra,8(sp)
 1563 07a4 23308100 		sd	s0,0(sp)
 1564              		.cfi_offset 1, -8
 1565              		.cfi_offset 8, -16
 1566 07a8 13040101 		addi	s0,sp,16
 1567              		.cfi_def_cfa 8, 0
 552:src/kernel/riscv.cpp ****     asm("mv a0, %[c]" : : [c] "r" ((uint64)(c)) );
 1568              		.loc 1 552 5
 552:src/kernel/riscv.cpp ****     asm("mv a0, %[c]" : : [c] "r" ((uint64)(c)) );
 1569              		.loc 1 552 36 is_stmt 0
 1570 07ac 97000000 		call	_ZN11ConsoleUtil9getOutputEv@plt
 1570      E7800000 
 1571              	.LVL120:
 553:src/kernel/riscv.cpp **** 
 1572              		.loc 1 553 5 is_stmt 1
 553:src/kernel/riscv.cpp **** 
 1573              		.loc 1 553 50 is_stmt 0
 1574              	#APP
 1575              	# 553 "src/kernel/riscv.cpp" 1
 555:src/kernel/riscv.cpp **** }
 1576              		mv a0, a0
 1577              	# 0 "" 2
 1578              		.loc 1 555 5 is_stmt 1
 555:src/kernel/riscv.cpp **** }
 1579              		.loc 1 555 28 is_stmt 0
 1580              	#NO_APP
 1581 07b8 97000000 		call	_ZN5RiscV16saveA0toSscratchEv
 1581      E7800000 
 1582              	.LVL121:
 556:src/kernel/riscv.cpp **** 
 1583              		.loc 1 556 1
 1584 07c0 83308100 		ld	ra,8(sp)
 1585              		.cfi_restore 1
 1586 07c4 03340100 		ld	s0,0(sp)
 1587              		.cfi_restore 8
 1588              		.cfi_def_cfa 2, 16
 1589 07c8 13010101 		addi	sp,sp,16
 1590              		.cfi_def_cfa_offset 0
 1591 07cc 67800000 		jr	ra
 1592              		.cfi_endproc
 1593              	.LFE62:
 1595              		.align	2
 1596              		.globl	_ZN5RiscV24executeThreadFreeSyscallEv
 1598              	_ZN5RiscV24executeThreadFreeSyscallEv:
 1599              	.LFB66:
 596:src/kernel/riscv.cpp **** 
 597:src/kernel/riscv.cpp **** //syscall to free the space that is allocated for thread
 598:src/kernel/riscv.cpp **** void RiscV::executeThreadFreeSyscall() {
 1600              		.loc 1 598 40 is_stmt 1
 1601              		.cfi_startproc
 1602 07d0 130101FE 		addi	sp,sp,-32
 1603              		.cfi_def_cfa_offset 32
 1604 07d4 233C1100 		sd	ra,24(sp)
 1605 07d8 23388100 		sd	s0,16(sp)
 1606 07dc 23349100 		sd	s1,8(sp)
 1607              		.cfi_offset 1, -8
GAS LISTING /tmp/ccy6xxkH.s 			page 49


 1608              		.cfi_offset 8, -16
 1609              		.cfi_offset 9, -24
 1610 07e0 13040102 		addi	s0,sp,32
 1611              		.cfi_def_cfa 8, 0
 599:src/kernel/riscv.cpp ****     uint64 iaddr, status;
 1612              		.loc 1 599 5
 600:src/kernel/riscv.cpp **** 
 601:src/kernel/riscv.cpp ****     asm("mv %[iaddr], a1" : [iaddr] "=r"(iaddr));
 1613              		.loc 1 601 5
 1614              		.loc 1 601 49 is_stmt 0
 1615              	#APP
 1616              	# 601 "src/kernel/riscv.cpp" 1
 602              	
 1617              		mv s1, a1
 1618              	# 0 "" 2
 1619              	.LVL122:
 603:src/kernel/riscv.cpp ****     TCB *thr = (TCB*)iaddr;
 1620              		.loc 1 603 5 is_stmt 1
 604:src/kernel/riscv.cpp **** 
 605:src/kernel/riscv.cpp ****     if(thr == nullptr)
 1621              		.loc 1 605 5
 1622              	#NO_APP
 1623 07e8 63940402 		bnez	s1,.L95
 1624              	.L93:
 1625              	.LVL123:
 606:src/kernel/riscv.cpp ****         status = -1;
 607:src/kernel/riscv.cpp ****     else {
 608:src/kernel/riscv.cpp ****         kfree(thr->stack);
 609:src/kernel/riscv.cpp ****         delete thr;
 610:src/kernel/riscv.cpp ****     }
 611:src/kernel/riscv.cpp **** 
 612:src/kernel/riscv.cpp ****     //return status
 613:src/kernel/riscv.cpp ****     asm("mv a0, %[status]" : : [status] "r" (status));
 1626              		.loc 1 613 5
 1627              		.loc 1 613 54 is_stmt 0
 1628 07ec 9307F0FF 		li	a5,-1
 1629              	#APP
 1630              	# 613 "src/kernel/riscv.cpp" 1
 614              	
 615:src/kernel/riscv.cpp ****     RiscV::saveA0toSscratch();
 1631              		mv a0, a5
 1632              	# 0 "" 2
 1633              		.loc 1 615 5 is_stmt 1
 1634              		.loc 1 615 28 is_stmt 0
 1635              	#NO_APP
 1636 07f4 97000000 		call	_ZN5RiscV16saveA0toSscratchEv
 1636      E7800000 
 1637              	.LVL124:
 616:src/kernel/riscv.cpp **** }
 1638              		.loc 1 616 1
 1639 07fc 83308101 		ld	ra,24(sp)
 1640              		.cfi_remember_state
 1641              		.cfi_restore 1
 1642 0800 03340101 		ld	s0,16(sp)
 1643              		.cfi_restore 8
 1644              		.cfi_def_cfa 2, 32
 1645 0804 83348100 		ld	s1,8(sp)
GAS LISTING /tmp/ccy6xxkH.s 			page 50


 1646              		.cfi_restore 9
 1647              	.LVL125:
 1648 0808 13010102 		addi	sp,sp,32
 1649              		.cfi_def_cfa_offset 0
 1650 080c 67800000 		jr	ra
 1651              	.LVL126:
 1652              	.L95:
 1653              		.cfi_restore_state
 608:src/kernel/riscv.cpp ****         delete thr;
 1654              		.loc 1 608 9 is_stmt 1
 608:src/kernel/riscv.cpp ****         delete thr;
 1655              		.loc 1 608 14 is_stmt 0
 1656 0810 03B58402 		ld	a0,40(s1)
 1657 0814 97000000 		call	_Z5kfreePKv@plt
 1657      E7800000 
 1658              	.LVL127:
 609:src/kernel/riscv.cpp ****     }
 1659              		.loc 1 609 9 is_stmt 1
 609:src/kernel/riscv.cpp ****     }
 1660              		.loc 1 609 16 is_stmt 0
 1661 081c 13850400 		mv	a0,s1
 1662 0820 97000000 		call	_ZN3TCBD1Ev@plt
 1662      E7800000 
 1663              	.LVL128:
 1664 0828 13850400 		mv	a0,s1
 1665 082c 97000000 		call	_ZN3TCBdlEPv@plt
 1665      E7800000 
 1666              	.LVL129:
 1667 0834 6FF09FFB 		j	.L93
 1668              		.cfi_endproc
 1669              	.LFE66:
 1671              		.align	2
 1672              		.globl	_ZN5RiscV27executeSemaphoreFreeSyscallEv
 1674              	_ZN5RiscV27executeSemaphoreFreeSyscallEv:
 1675              	.LFB67:
 617:src/kernel/riscv.cpp **** 
 618:src/kernel/riscv.cpp **** //syscall to free the space that is allocated for semaphore
 619:src/kernel/riscv.cpp **** void RiscV::executeSemaphoreFreeSyscall() {
 1676              		.loc 1 619 43 is_stmt 1
 1677              		.cfi_startproc
 1678 0838 130101FE 		addi	sp,sp,-32
 1679              		.cfi_def_cfa_offset 32
 1680 083c 233C1100 		sd	ra,24(sp)
 1681 0840 23388100 		sd	s0,16(sp)
 1682 0844 23349100 		sd	s1,8(sp)
 1683              		.cfi_offset 1, -8
 1684              		.cfi_offset 8, -16
 1685              		.cfi_offset 9, -24
 1686 0848 13040102 		addi	s0,sp,32
 1687              		.cfi_def_cfa 8, 0
 620:src/kernel/riscv.cpp ****     uint64 iaddr, status;
 1688              		.loc 1 620 5
 621:src/kernel/riscv.cpp **** 
 622:src/kernel/riscv.cpp ****     //call internal allocator and free memory which iaddr points to
 623:src/kernel/riscv.cpp ****     asm("mv %[iaddr], a1" : [iaddr] "=r"(iaddr));
 1689              		.loc 1 623 5
 1690              		.loc 1 623 49 is_stmt 0
GAS LISTING /tmp/ccy6xxkH.s 			page 51


 1691              	#APP
 1692              	# 623 "src/kernel/riscv.cpp" 1
 624              	
 1693              		mv s1, a1
 1694              	# 0 "" 2
 1695              	.LVL130:
 625:src/kernel/riscv.cpp ****     SCB *scb = (SCB*)iaddr;
 1696              		.loc 1 625 5 is_stmt 1
 626:src/kernel/riscv.cpp **** 
 627:src/kernel/riscv.cpp ****     if(scb == nullptr){
 1697              		.loc 1 627 5
 1698              	#NO_APP
 1699 0850 63940402 		bnez	s1,.L99
 1700              	.L97:
 1701              	.LVL131:
 628:src/kernel/riscv.cpp ****         status = -1;
 629:src/kernel/riscv.cpp ****     }
 630:src/kernel/riscv.cpp ****     else
 631:src/kernel/riscv.cpp ****         delete scb;
 632:src/kernel/riscv.cpp **** 
 633:src/kernel/riscv.cpp ****     //return status
 634:src/kernel/riscv.cpp ****     asm("mv a0, %[status]" : : [status] "r" (status));
 1702              		.loc 1 634 5
 1703              		.loc 1 634 54 is_stmt 0
 1704 0854 9307F0FF 		li	a5,-1
 1705              	#APP
 1706              	# 634 "src/kernel/riscv.cpp" 1
 635              	
 636:src/kernel/riscv.cpp ****     RiscV::saveA0toSscratch();
 1707              		mv a0, a5
 1708              	# 0 "" 2
 1709              		.loc 1 636 5 is_stmt 1
 1710              		.loc 1 636 28 is_stmt 0
 1711              	#NO_APP
 1712 085c 97000000 		call	_ZN5RiscV16saveA0toSscratchEv
 1712      E7800000 
 1713              	.LVL132:
 637:src/kernel/riscv.cpp **** }
 1714              		.loc 1 637 1
 1715 0864 83308101 		ld	ra,24(sp)
 1716              		.cfi_remember_state
 1717              		.cfi_restore 1
 1718 0868 03340101 		ld	s0,16(sp)
 1719              		.cfi_restore 8
 1720              		.cfi_def_cfa 2, 32
 1721 086c 83348100 		ld	s1,8(sp)
 1722              		.cfi_restore 9
 1723              	.LVL133:
 1724 0870 13010102 		addi	sp,sp,32
 1725              		.cfi_def_cfa_offset 0
 1726 0874 67800000 		jr	ra
 1727              	.LVL134:
 1728              	.L99:
 1729              		.cfi_restore_state
 631:src/kernel/riscv.cpp **** 
 1730              		.loc 1 631 9 is_stmt 1 discriminator 1
 631:src/kernel/riscv.cpp **** 
GAS LISTING /tmp/ccy6xxkH.s 			page 52


 1731              		.loc 1 631 16 is_stmt 0 discriminator 1
 1732 0878 13850400 		mv	a0,s1
 1733 087c 97000000 		call	_ZN3SCBD1Ev@plt
 1733      E7800000 
 1734              	.LVL135:
 1735 0884 13850400 		mv	a0,s1
 1736 0888 97000000 		call	_ZN3SCBdlEPv@plt
 1736      E7800000 
 1737              	.LVL136:
 1738 0890 6FF05FFC 		j	.L97
 1739              		.cfi_endproc
 1740              	.LFE67:
 1742              		.align	2
 1743              		.globl	_ZN5RiscV18executeForkSyscallEv
 1745              	_ZN5RiscV18executeForkSyscallEv:
 1746              	.LFB68:
 638:src/kernel/riscv.cpp **** 
 639:src/kernel/riscv.cpp **** //fork syscall
 640:src/kernel/riscv.cpp **** void RiscV::executeForkSyscall() {
 1747              		.loc 1 640 34 is_stmt 1
 1748              		.cfi_startproc
 1749              		.cfi_personality 0x9b,DW.ref.__gxx_personality_v0
 1750              		.cfi_lsda 0x1b,.LLSDA68
 1751 0894 130101FE 		addi	sp,sp,-32
 1752              		.cfi_def_cfa_offset 32
 1753 0898 233C1100 		sd	ra,24(sp)
 1754 089c 23388100 		sd	s0,16(sp)
 1755 08a0 23349100 		sd	s1,8(sp)
 1756 08a4 23302101 		sd	s2,0(sp)
 1757              		.cfi_offset 1, -8
 1758              		.cfi_offset 8, -16
 1759              		.cfi_offset 9, -24
 1760              		.cfi_offset 18, -32
 1761 08a8 13040102 		addi	s0,sp,32
 1762              		.cfi_def_cfa 8, 0
 641:src/kernel/riscv.cpp **** 
 642:src/kernel/riscv.cpp ****     //create new stack and copy stack from currently running stack into the new one
 643:src/kernel/riscv.cpp ****     uint64 *stack = (uint64*)kmalloc(DEFAULT_STACK_SIZE);
 1763              		.loc 1 643 5
 1764              		.loc 1 643 37 is_stmt 0
 1765 08ac 37150000 		li	a0,4096
 1766              	.LEHB10:
 1767 08b0 97000000 		call	_Z7kmallocm@plt
 1767      E7800000 
 1768              	.LVL137:
 1769 08b8 13090500 		mv	s2,a0
 1770              	.LVL138:
 644:src/kernel/riscv.cpp **** 
 645:src/kernel/riscv.cpp ****     MemoryAllocator::memcpy((void*)TCB::running->stack,(void*)stack,DEFAULT_STACK_SIZE);
 1771              		.loc 1 645 5 is_stmt 1
 1772              		.loc 1 645 28 is_stmt 0
 1773 08bc 97070000 		la	a5,_ZN3TCB7runningE
 1773      83B70700 
 1774 08c4 83B70700 		ld	a5,0(a5)
 1775 08c8 37160000 		li	a2,4096
 1776 08cc 93050500 		mv	a1,a0
 1777 08d0 03B58702 		ld	a0,40(a5)
GAS LISTING /tmp/ccy6xxkH.s 			page 53


 1778              	.LVL139:
 1779 08d4 97000000 		call	_ZN15MemoryAllocator6memcpyEPvS0_m@plt
 1779      E7800000 
 1780              	.LVL140:
 646:src/kernel/riscv.cpp **** 
 647:src/kernel/riscv.cpp ****     //create new TCB for new thread
 648:src/kernel/riscv.cpp ****     TCB *forked = new TCB(nullptr, nullptr, stack, DEFAULT_TIME_SLICE);
 1781              		.loc 1 648 5 is_stmt 1
 1782              		.loc 1 648 70 is_stmt 0
 1783 08dc 13050007 		li	a0,112
 1784 08e0 97000000 		call	_ZN3TCBnwEm@plt
 1784      E7800000 
 1785              	.LVL141:
 1786              	.LEHE10:
 1787 08e8 93040500 		mv	s1,a0
 1788 08ec 630E0500 		beqz	a0,.L101
 1789              		.loc 1 648 70 discriminator 1
 1790 08f0 13072000 		li	a4,2
 1791 08f4 93060900 		mv	a3,s2
 1792 08f8 13060000 		li	a2,0
 1793 08fc 93050000 		li	a1,0
 1794              	.LEHB11:
 1795 0900 97000000 		call	_ZN3TCBC1EPFvPvES0_Pmm@plt
 1795      E7800000 
 1796              	.LVL142:
 1797              	.LEHE11:
 1798              	.L101:
 649:src/kernel/riscv.cpp **** 
 650:src/kernel/riscv.cpp ****     uint64 status = 0;
 1799              		.loc 1 650 5 is_stmt 1 discriminator 6
 651:src/kernel/riscv.cpp **** 
 652:src/kernel/riscv.cpp ****     if(forked) {
 1800              		.loc 1 652 5 discriminator 6
 1801              	.LBB112:
 1802 0908 638E040A 		beqz	s1,.L104
 1803              	.LBB113:
 653:src/kernel/riscv.cpp **** 
 654:src/kernel/riscv.cpp ****         //set return address where forked thread should return
 655:src/kernel/riscv.cpp ****         forked->context.ra = TCB::currentPC;
 1804              		.loc 1 655 9
 1805              		.loc 1 655 28 is_stmt 0
 1806 090c 97070000 		la	a5,_ZN3TCB9currentPCE
 1806      83B70700 
 1807 0914 83B70700 		ld	a5,0(a5)
 1808 0918 23B4F400 		sd	a5,8(s1)
 656:src/kernel/riscv.cpp **** 
 657:src/kernel/riscv.cpp ****         //set SP value where forked thread's stack starts
 658:src/kernel/riscv.cpp ****         forked->context.sp = (uint64)((char*)stack + TCB::currentSP - (char*)TCB::running->stack);
 1809              		.loc 1 658 9 is_stmt 1
 1810              		.loc 1 658 59 is_stmt 0
 1811 091c 97070000 		la	a5,_ZN3TCB9currentSPE
 1811      83B70700 
 1812 0924 83B70700 		ld	a5,0(a5)
 1813              		.loc 1 658 52
 1814 0928 B307F900 		add	a5,s2,a5
 1815              		.loc 1 658 71
 1816 092c 17070000 		la	a4,_ZN3TCB7runningE
GAS LISTING /tmp/ccy6xxkH.s 			page 54


 1816      03370700 
 1817 0934 83360700 		ld	a3,0(a4)
 1818              		.loc 1 658 92
 1819 0938 83B68602 		ld	a3,40(a3)
 1820              		.loc 1 658 69
 1821 093c B387D740 		sub	a5,a5,a3
 1822              		.loc 1 658 28
 1823 0940 23B0F400 		sd	a5,0(s1)
 659:src/kernel/riscv.cpp **** 
 660:src/kernel/riscv.cpp ****         //get memory location of where registers are stored from previous context switch
 661:src/kernel/riscv.cpp ****         uint64 registerStartSP = (uint64)((char*)TCB::running->a0Location - (char*)TCB::running->st
 1824              		.loc 1 661 9 is_stmt 1
 1825              		.loc 1 661 64 is_stmt 0
 1826 0944 83370700 		ld	a5,0(a4)
 1827 0948 03B58706 		ld	a0,104(a5)
 1828              		.loc 1 661 98
 1829 094c 83B78702 		ld	a5,40(a5)
 1830              		.loc 1 661 75
 1831 0950 3305F540 		sub	a0,a0,a5
 1832              		.loc 1 661 104
 1833 0954 3309A900 		add	s2,s2,a0
 1834              	.LVL143:
 662:src/kernel/riscv.cpp **** 
 663:src/kernel/riscv.cpp ****         forked->a0Location = registerStartSP;
 1835              		.loc 1 663 9 is_stmt 1
 1836              		.loc 1 663 28 is_stmt 0
 1837 0958 23B42407 		sd	s2,104(s1)
 664:src/kernel/riscv.cpp **** 
 665:src/kernel/riscv.cpp ****         uint64 a1,a0;
 1838              		.loc 1 665 9 is_stmt 1
 666:src/kernel/riscv.cpp **** 
 667:src/kernel/riscv.cpp ****         //write address of stored registers in SP of forked thread so that it can return regularly
 668:src/kernel/riscv.cpp ****         asm("mv %[a1], a1": [a1] "=r"(a1));
 1839              		.loc 1 668 9
 1840              		.loc 1 668 43 is_stmt 0
 1841              	#APP
 1842              	# 668 "src/kernel/riscv.cpp" 1
 669              	
 670:src/kernel/riscv.cpp ****         asm("mv %[a0], a0": [a0] "=r"(a0));
 1843              		mv a3, a1
 1844              	# 0 "" 2
 1845              		.loc 1 670 9 is_stmt 1
 1846              		.loc 1 670 43 is_stmt 0
 1847              	# 670 "src/kernel/riscv.cpp" 1
 671              	
 672:src/kernel/riscv.cpp ****         asm("mv a0,%[a0]"::  [a0]"r"(registerStartSP));
 1848              		mv a5, a0
 1849              	# 0 "" 2
 1850              		.loc 1 672 9 is_stmt 1
 1851              		.loc 1 672 55 is_stmt 0
 1852              	# 672 "src/kernel/riscv.cpp" 1
 673              	
 674:src/kernel/riscv.cpp ****         asm("mv a1, %[a0]" : :  [a0] "r"(registerStartSP));
 1853              		mv a0,s2
 1854              	# 0 "" 2
 1855              		.loc 1 674 9 is_stmt 1
 1856              		.loc 1 674 59 is_stmt 0
GAS LISTING /tmp/ccy6xxkH.s 			page 55


 1857              	# 674 "src/kernel/riscv.cpp" 1
 675              	
 676:src/kernel/riscv.cpp ****         asm("sd a0, 16(a1)");
 1858              		mv a1, s2
 1859              	# 0 "" 2
 1860              		.loc 1 676 9 is_stmt 1
 1861              		.loc 1 676 29 is_stmt 0
 1862              	# 676 "src/kernel/riscv.cpp" 1
 677              	
 678:src/kernel/riscv.cpp ****         //write 0 in a0 register of forked thread because fork should return 0 in context of child,
 679:src/kernel/riscv.cpp ****         asm("li a0, 0");
 1863              		sd a0, 16(a1)
 1864              	# 0 "" 2
 1865              		.loc 1 679 9 is_stmt 1
 1866              		.loc 1 679 24 is_stmt 0
 1867              	# 679 "src/kernel/riscv.cpp" 1
 680              	
 681:src/kernel/riscv.cpp ****         asm("sd a0, 80(a1)");
 1868              		li a0, 0
 1869              	# 0 "" 2
 1870              		.loc 1 681 9 is_stmt 1
 1871              		.loc 1 681 29 is_stmt 0
 1872              	# 681 "src/kernel/riscv.cpp" 1
 682              	
 683:src/kernel/riscv.cpp ****         asm("mv a1,%[a1]"::  [a1]"r"(a1));
 1873              		sd a0, 80(a1)
 1874              	# 0 "" 2
 1875              		.loc 1 683 9 is_stmt 1
 1876              		.loc 1 683 42 is_stmt 0
 1877              	# 683 "src/kernel/riscv.cpp" 1
 684              	
 685:src/kernel/riscv.cpp ****         asm("mv a0,%[a0]"::  [a0]"r"(a0));
 1878              		mv a1,a3
 1879              	# 0 "" 2
 1880              		.loc 1 685 9 is_stmt 1
 1881              		.loc 1 685 42 is_stmt 0
 1882              	# 685 "src/kernel/riscv.cpp" 1
 686              	
 687:src/kernel/riscv.cpp ****         forked->sepc = TCB::running->sepc;
 1883              		mv a0,a5
 1884              	# 0 "" 2
 1885              		.loc 1 687 9 is_stmt 1
 1886              		.loc 1 687 38 is_stmt 0
 1887              	#NO_APP
 1888 0980 83370700 		ld	a5,0(a4)
 1889 0984 03B78703 		ld	a4,56(a5)
 1890              		.loc 1 687 22
 1891 0988 23BCE402 		sd	a4,56(s1)
 688:src/kernel/riscv.cpp **** 
 689:src/kernel/riscv.cpp ****         forked->sstatus = TCB::running->sstatus;
 1892              		.loc 1 689 9 is_stmt 1
 1893              		.loc 1 689 41 is_stmt 0
 1894 098c 83B70704 		ld	a5,64(a5)
 1895              		.loc 1 689 25
 1896 0990 23B0F404 		sd	a5,64(s1)
 690:src/kernel/riscv.cpp **** 
 691:src/kernel/riscv.cpp ****         //put forked in scheduler
GAS LISTING /tmp/ccy6xxkH.s 			page 56


 692:src/kernel/riscv.cpp ****         Scheduler::put(forked);
 1897              		.loc 1 692 9 is_stmt 1
 1898              		.loc 1 692 23 is_stmt 0
 1899 0994 13850400 		mv	a0,s1
 1900              	.LEHB12:
 1901 0998 97000000 		call	_ZN9Scheduler3putEP3TCB@plt
 1901      E7800000 
 1902              	.LVL144:
 1903              	.LEHE12:
 693:src/kernel/riscv.cpp **** 
 694:src/kernel/riscv.cpp ****         //return address of forked as thread ID
 695:src/kernel/riscv.cpp ****         status = (uint64)forked;
 1904              		.loc 1 695 9 is_stmt 1
 1905              	.L102:
 1906              	.LBE113:
 1907              	.LBE112:
 696:src/kernel/riscv.cpp ****     }else
 697:src/kernel/riscv.cpp ****         status = -1;
 698:src/kernel/riscv.cpp **** 
 699:src/kernel/riscv.cpp ****     asm("mv a0, %[status]" : : [status] "r" (status));
 1908              		.loc 1 699 5
 1909              		.loc 1 699 54 is_stmt 0
 1910              	#APP
 1911              	# 699 "src/kernel/riscv.cpp" 1
 700              	
 701:src/kernel/riscv.cpp ****     RiscV::saveA0toSscratch();
 1912              		mv a0, s1
 1913              	# 0 "" 2
 1914              		.loc 1 701 5 is_stmt 1
 1915              		.loc 1 701 28 is_stmt 0
 1916              	#NO_APP
 1917 09a4 97000000 		call	_ZN5RiscV16saveA0toSscratchEv
 1917      E7800000 
 1918              	.LVL145:
 702:src/kernel/riscv.cpp **** 
 703:src/kernel/riscv.cpp **** }
 1919              		.loc 1 703 1
 1920 09ac 83308101 		ld	ra,24(sp)
 1921              		.cfi_remember_state
 1922              		.cfi_restore 1
 1923 09b0 03340101 		ld	s0,16(sp)
 1924              		.cfi_restore 8
 1925              		.cfi_def_cfa 2, 32
 1926 09b4 83348100 		ld	s1,8(sp)
 1927              		.cfi_restore 9
 1928              	.LVL146:
 1929 09b8 03390100 		ld	s2,0(sp)
 1930              		.cfi_restore 18
 1931 09bc 13010102 		addi	sp,sp,32
 1932              		.cfi_def_cfa_offset 0
 1933 09c0 67800000 		jr	ra
 1934              	.LVL147:
 1935              	.L104:
 1936              		.cfi_restore_state
 1937              	.LBB114:
 697:src/kernel/riscv.cpp **** 
 1938              		.loc 1 697 16
GAS LISTING /tmp/ccy6xxkH.s 			page 57


 1939 09c4 9304F0FF 		li	s1,-1
 1940              	.LVL148:
 1941 09c8 6FF09FFD 		j	.L102
 1942              	.LVL149:
 1943              	.L105:
 1944 09cc 13090500 		mv	s2,a0
 1945              	.LVL150:
 1946              	.LBE114:
 648:src/kernel/riscv.cpp **** 
 1947              		.loc 1 648 70
 1948 09d0 13850400 		mv	a0,s1
 1949 09d4 97000000 		call	_ZN3TCBdlEPv@plt
 1949      E7800000 
 1950              	.LVL151:
 1951 09dc 13050900 		mv	a0,s2
 1952              	.LEHB13:
 1953 09e0 97000000 		call	_Unwind_Resume@plt
 1953      E7800000 
 1954              	.LVL152:
 1955              	.LEHE13:
 1956              		.cfi_endproc
 1957              	.LFE68:
 1958              		.section	.gcc_except_table
 1959              	.LLSDA68:
 1960 008e FF       		.byte	0xff
 1961 008f FF       		.byte	0xff
 1962 0090 03       		.byte	0x3
 1963 0091 34       		.byte	0x34
 1964 0092 00000000 		.4byte	.LEHB10-.LFB68
 1965 0096 00000000 		.4byte	.LEHE10-.LEHB10
 1966 009a 00000000 		.4byte	0
 1967 009e 00       		.byte	0
 1968 009f 00000000 		.4byte	.LEHB11-.LFB68
 1969 00a3 00000000 		.4byte	.LEHE11-.LEHB11
 1970 00a7 00000000 		.4byte	.L105-.LFB68
 1971 00ab 00       		.byte	0
 1972 00ac 00000000 		.4byte	.LEHB12-.LFB68
 1973 00b0 00000000 		.4byte	.LEHE12-.LEHB12
 1974 00b4 00000000 		.4byte	0
 1975 00b8 00       		.byte	0
 1976 00b9 00000000 		.4byte	.LEHB13-.LFB68
 1977 00bd 00000000 		.4byte	.LEHE13-.LEHB13
 1978 00c1 00000000 		.4byte	0
 1979 00c5 00       		.byte	0
 1980              		.text
 1982              		.align	2
 1983              		.globl	_ZN5RiscV5getPCEv
 1985              	_ZN5RiscV5getPCEv:
 1986              	.LFB69:
 704:src/kernel/riscv.cpp **** 
 705:src/kernel/riscv.cpp **** void RiscV::getPC(){
 1987              		.loc 1 705 20 is_stmt 1
 1988              		.cfi_startproc
 1989 09e8 130101FF 		addi	sp,sp,-16
 1990              		.cfi_def_cfa_offset 16
 1991 09ec 23348100 		sd	s0,8(sp)
 1992              		.cfi_offset 8, -8
GAS LISTING /tmp/ccy6xxkH.s 			page 58


 1993 09f0 13040101 		addi	s0,sp,16
 1994              		.cfi_def_cfa 8, 0
 706:src/kernel/riscv.cpp ****     uint64 ra;
 1995              		.loc 1 706 5
 707:src/kernel/riscv.cpp **** 
 708:src/kernel/riscv.cpp ****     asm("mv %[ra], ra" : [ra] "=r"(ra));
 1996              		.loc 1 708 5
 1997              		.loc 1 708 40 is_stmt 0
 1998              	#APP
 1999              	# 708 "src/kernel/riscv.cpp" 1
 709              	
 2000              		mv a5, ra
 2001              	# 0 "" 2
 2002              	.LVL153:
 710:src/kernel/riscv.cpp ****     TCB::currentPC = ra + 8;
 2003              		.loc 1 710 5 is_stmt 1
 2004              		.loc 1 710 25 is_stmt 0
 2005              	#NO_APP
 2006 09f8 93878700 		addi	a5,a5,8
 2007              	.LVL154:
 2008              		.loc 1 710 20
 2009 09fc 17070000 		la	a4,_ZN3TCB9currentPCE
 2009      03370700 
 2010 0a04 2330F700 		sd	a5,0(a4)
 711:src/kernel/riscv.cpp **** }
 2011              		.loc 1 711 1
 2012 0a08 03348100 		ld	s0,8(sp)
 2013              		.cfi_restore 8
 2014              		.cfi_def_cfa 2, 16
 2015 0a0c 13010101 		addi	sp,sp,16
 2016              		.cfi_def_cfa_offset 0
 2017 0a10 67800000 		jr	ra
 2018              		.cfi_endproc
 2019              	.LFE69:
 2021              		.section	.rodata.str1.8,"aMS",@progbits,1
 2022              		.align	3
 2023              	.LC0:
 2024 0000 73657063 		.string	"sepc: "
 2024      3A2000
 2025 0007 00       		.align	3
 2026              	.LC1:
 2027 0008 0A00     		.string	"\n"
 2028 000a 00000000 		.align	3
 2028      0000
 2029              	.LC2:
 2030 0010 496C6C65 		.string	"Illegal instruction\nExiting thread...\n"
 2030      67616C20 
 2030      696E7374 
 2030      72756374 
 2030      696F6E0A 
 2031 0037 00       		.align	3
 2032              	.LC3:
 2033 0038 4572726F 		.string	"Error: \n"
 2033      723A200A 
 2033      00
 2034 0041 00000000 		.align	3
 2034      000000
GAS LISTING /tmp/ccy6xxkH.s 			page 59


 2035              	.LC4:
 2036 0048 73636175 		.string	"scause: "
 2036      73653A20 
 2036      00
 2037 0051 00000000 		.align	3
 2037      000000
 2038              	.LC5:
 2039 0058 73747665 		.string	"stvec: "
 2039      633A2000 
 2040              		.align	3
 2041              	.LC6:
 2042 0060 45786974 		.string	"Exiting thread...\n"
 2042      696E6720 
 2042      74687265 
 2042      61642E2E 
 2042      2E0A00
 2043              		.text
 2044              		.align	2
 2045              		.globl	_ZN5RiscV20handleSupervisorTrapEv
 2047              	_ZN5RiscV20handleSupervisorTrapEv:
 2048              	.LFB46:
  48:src/kernel/riscv.cpp **** 
 2049              		.loc 1 48 36 is_stmt 1
 2050              		.cfi_startproc
 2051 0a14 130101F9 		addi	sp,sp,-112
 2052              		.cfi_def_cfa_offset 112
 2053 0a18 23341106 		sd	ra,104(sp)
 2054 0a1c 23308106 		sd	s0,96(sp)
 2055 0a20 233C9104 		sd	s1,88(sp)
 2056              		.cfi_offset 1, -8
 2057              		.cfi_offset 8, -16
 2058              		.cfi_offset 9, -24
 2059 0a24 13040107 		addi	s0,sp,112
 2060              		.cfi_def_cfa 8, 0
  51:src/kernel/riscv.cpp ****     asm("csrr %[stval], stval" : [stval] "=r" (stval));
 2061              		.loc 1 51 5
  52:src/kernel/riscv.cpp ****     uint64 volatile scause = RiscV::r_scause();
 2062              		.loc 1 52 5
  52:src/kernel/riscv.cpp ****     uint64 volatile scause = RiscV::r_scause();
 2063              		.loc 1 52 55 is_stmt 0
 2064              	#APP
 2065              	# 52 "src/kernel/riscv.cpp" 1
 2066              		csrr s1, stval
 2067              	# 0 "" 2
 2068              	.LVL155:
  53:src/kernel/riscv.cpp **** 
 2069              		.loc 1 53 5 is_stmt 1
 2070              	#NO_APP
 2071              	.LBB115:
 2072              	.LBB116:
 154:src/kernel/../../h/riscv.hpp ****     asm("csrr %[scause], scause" : [scause] "=r" (scause));
 2073              		.loc 2 154 5
 155:src/kernel/../../h/riscv.hpp ****     return scause;
 2074              		.loc 2 155 5
 155:src/kernel/../../h/riscv.hpp ****     return scause;
 2075              		.loc 2 155 59 is_stmt 0
 2076              	#APP
GAS LISTING /tmp/ccy6xxkH.s 			page 60


 2077              	# 155 "src/kernel/../../h/riscv.hpp" 1
 2078              		csrr a5, scause
 2079              	# 0 "" 2
 2080              	#NO_APP
 2081 0a30 2334F4FC 		sd	a5,-56(s0)
 156:src/kernel/../../h/riscv.hpp **** }
 2082              		.loc 2 156 5 is_stmt 1
 156:src/kernel/../../h/riscv.hpp **** }
 2083              		.loc 2 156 12 is_stmt 0
 2084 0a34 833784FC 		ld	a5,-56(s0)
 2085              	.LBE116:
 2086              	.LBE115:
  53:src/kernel/riscv.cpp **** 
 2087              		.loc 1 53 46
 2088 0a38 233CF4FC 		sd	a5,-40(s0)
  55:src/kernel/riscv.cpp **** 
 2089              		.loc 1 55 5 is_stmt 1
  55:src/kernel/riscv.cpp **** 
 2090              		.loc 1 55 71 is_stmt 0
 2091 0a3c 97070000 		la	a5,_ZN3TCB7runningE
 2091      83B70700 
 2092 0a44 83B70700 		ld	a5,0(a5)
  55:src/kernel/riscv.cpp **** 
 2093              		.loc 1 55 83
 2094              	#APP
 2095              	# 55 "src/kernel/riscv.cpp" 1
 2096              		csrr a4, sscratch
 2097              	# 0 "" 2
 2098              	#NO_APP
 2099 0a4c 23B4E706 		sd	a4,104(a5)
  57:src/kernel/riscv.cpp **** 
 2100              		.loc 1 57 5 is_stmt 1
 2101              	.LBB117:
  57:src/kernel/riscv.cpp **** 
 2102              		.loc 1 57 15 is_stmt 0
 2103 0a50 033784FD 		ld	a4,-40(s0)
  57:src/kernel/riscv.cpp **** 
 2104              		.loc 1 57 23
 2105 0a54 93079000 		li	a5,9
 2106 0a58 6306F710 		beq	a4,a5,.L111
  57:src/kernel/riscv.cpp **** 
 2107              		.loc 1 57 33 discriminator 2
 2108 0a5c 033784FD 		ld	a4,-40(s0)
  57:src/kernel/riscv.cpp **** 
 2109              		.loc 1 57 23 discriminator 2
 2110 0a60 93078000 		li	a5,8
 2111 0a64 6300F710 		beq	a4,a5,.L111
 2112              	.LBE117:
 103:src/kernel/riscv.cpp **** 
 2113              		.loc 1 103 10 is_stmt 1
 2114              	.LBB172:
 2115              	.LBB118:
 103:src/kernel/riscv.cpp **** 
 2116              		.loc 1 103 20 is_stmt 0
 2117 0a68 033784FD 		ld	a4,-40(s0)
 103:src/kernel/riscv.cpp **** 
 2118              		.loc 1 103 10
GAS LISTING /tmp/ccy6xxkH.s 			page 61


 2119 0a6c 9307F0FF 		li	a5,-1
 2120 0a70 9397F703 		slli	a5,a5,63
 2121 0a74 93871700 		addi	a5,a5,1
 2122 0a78 6304F726 		beq	a4,a5,.L141
 2123              	.LBE118:
 2124              	.LBE172:
 138:src/kernel/riscv.cpp ****         //save sstatus and sepc
 2125              		.loc 1 138 10 is_stmt 1
 2126              	.LBB173:
 2127              	.LBB159:
 2128              	.LBB119:
 138:src/kernel/riscv.cpp ****         //save sstatus and sepc
 2129              		.loc 1 138 20 is_stmt 0
 2130 0a7c 033784FD 		ld	a4,-40(s0)
 138:src/kernel/riscv.cpp ****         //save sstatus and sepc
 2131              		.loc 1 138 10
 2132 0a80 9307F0FF 		li	a5,-1
 2133 0a84 9397F703 		slli	a5,a5,63
 2134 0a88 93879700 		addi	a5,a5,9
 2135 0a8c 6302F72E 		beq	a4,a5,.L142
 2136              	.LBE119:
 2137              	.LBE159:
 2138              	.LBE173:
 174:src/kernel/riscv.cpp ****         TCB* old = TCB::running;
 2139              		.loc 1 174 10 is_stmt 1
 2140              	.LBB174:
 2141              	.LBB160:
 2142              	.LBB143:
 2143              	.LBB120:
 174:src/kernel/riscv.cpp ****         TCB* old = TCB::running;
 2144              		.loc 1 174 20 is_stmt 0
 2145 0a90 033784FD 		ld	a4,-40(s0)
 174:src/kernel/riscv.cpp ****         TCB* old = TCB::running;
 2146              		.loc 1 174 10
 2147 0a94 93072000 		li	a5,2
 2148 0a98 630AF736 		beq	a4,a5,.L143
 2149              	.LBB121:
 187:src/kernel/riscv.cpp ****         ConsoleUtil::printString("scause: ");
 2150              		.loc 1 187 9 is_stmt 1
 187:src/kernel/riscv.cpp ****         ConsoleUtil::printString("scause: ");
 2151              		.loc 1 187 33 is_stmt 0
 2152 0a9c 17050000 		lla	a0,.LC3
 2152      13050500 
 2153 0aa4 97000000 		call	_ZN11ConsoleUtil11printStringEPKc@plt
 2153      E7800000 
 2154              	.LVL156:
 188:src/kernel/riscv.cpp ****         uint64  scause = RiscV::r_scause();
 2155              		.loc 1 188 9 is_stmt 1
 188:src/kernel/riscv.cpp ****         uint64  scause = RiscV::r_scause();
 2156              		.loc 1 188 33 is_stmt 0
 2157 0aac 17050000 		lla	a0,.LC4
 2157      13050500 
 2158 0ab4 97000000 		call	_ZN11ConsoleUtil11printStringEPKc@plt
 2158      E7800000 
 2159              	.LVL157:
 189:src/kernel/riscv.cpp ****         ConsoleUtil::printInt(scause);
 2160              		.loc 1 189 9 is_stmt 1
GAS LISTING /tmp/ccy6xxkH.s 			page 62


 2161              	.LBB122:
 2162              	.LBB123:
 154:src/kernel/../../h/riscv.hpp ****     asm("csrr %[scause], scause" : [scause] "=r" (scause));
 2163              		.loc 2 154 5
 155:src/kernel/../../h/riscv.hpp ****     return scause;
 2164              		.loc 2 155 5
 155:src/kernel/../../h/riscv.hpp ****     return scause;
 2165              		.loc 2 155 59 is_stmt 0
 2166              	#APP
 2167              	# 155 "src/kernel/../../h/riscv.hpp" 1
 2168              		csrr a5, scause
 2169              	# 0 "" 2
 2170              	#NO_APP
 2171 0ac0 2338F4FC 		sd	a5,-48(s0)
 156:src/kernel/../../h/riscv.hpp **** }
 2172              		.loc 2 156 5 is_stmt 1
 156:src/kernel/../../h/riscv.hpp **** }
 2173              		.loc 2 156 12 is_stmt 0
 2174 0ac4 033504FD 		ld	a0,-48(s0)
 2175              	.LVL158:
 2176              	.LBE123:
 2177              	.LBE122:
 190:src/kernel/riscv.cpp ****         ConsoleUtil::printString("sepc: ");
 2178              		.loc 1 190 9 is_stmt 1
 190:src/kernel/riscv.cpp ****         ConsoleUtil::printString("sepc: ");
 2179              		.loc 1 190 30 is_stmt 0
 2180 0ac8 13060000 		li	a2,0
 2181 0acc 9305A000 		li	a1,10
 2182 0ad0 1B050500 		sext.w	a0,a0
 2183              	.LVL159:
 2184 0ad4 97000000 		call	_ZN11ConsoleUtil8printIntEiii@plt
 2184      E7800000 
 2185              	.LVL160:
 191:src/kernel/riscv.cpp ****         uint64 sepc = RiscV::r_sepc();
 2186              		.loc 1 191 9 is_stmt 1
 191:src/kernel/riscv.cpp ****         uint64 sepc = RiscV::r_sepc();
 2187              		.loc 1 191 33 is_stmt 0
 2188 0adc 17050000 		lla	a0,.LC0
 2188      13050500 
 2189 0ae4 97000000 		call	_ZN11ConsoleUtil11printStringEPKc@plt
 2189      E7800000 
 2190              	.LVL161:
 192:src/kernel/riscv.cpp ****         ConsoleUtil::printInt(sepc,16);
 2191              		.loc 1 192 9 is_stmt 1
 2192              	.LBB124:
 2193              	.LBB125:
 164:src/kernel/../../h/riscv.hpp ****     asm("csrr %[sepc], sepc" : [sepc] "=r" (sepc));
 2194              		.loc 2 164 5
 165:src/kernel/../../h/riscv.hpp ****     return sepc;
 2195              		.loc 2 165 5
 165:src/kernel/../../h/riscv.hpp ****     return sepc;
 2196              		.loc 2 165 51 is_stmt 0
 2197              	#APP
 2198              	# 165 "src/kernel/../../h/riscv.hpp" 1
 166:src/kernel/../../h/riscv.hpp **** }
 2199              		csrr a0, sepc
 2200              	# 0 "" 2
GAS LISTING /tmp/ccy6xxkH.s 			page 63


 2201              		.loc 2 166 5 is_stmt 1
 2202              	#NO_APP
 2203              	.LBE125:
 2204              	.LBE124:
 193:src/kernel/riscv.cpp ****         ConsoleUtil::printString("\n");
 2205              		.loc 1 193 9
 193:src/kernel/riscv.cpp ****         ConsoleUtil::printString("\n");
 2206              		.loc 1 193 30 is_stmt 0
 2207 0af0 13060000 		li	a2,0
 2208 0af4 93050001 		li	a1,16
 2209 0af8 1B050500 		sext.w	a0,a0
 2210 0afc 97000000 		call	_ZN11ConsoleUtil8printIntEiii@plt
 2210      E7800000 
 2211              	.LVL162:
 194:src/kernel/riscv.cpp ****         ConsoleUtil::print("stvec: ",stval,"\n");
 2212              		.loc 1 194 9 is_stmt 1
 194:src/kernel/riscv.cpp ****         ConsoleUtil::print("stvec: ",stval,"\n");
 2213              		.loc 1 194 33 is_stmt 0
 2214 0b04 17050000 		lla	a0,.LC1
 2214      13050500 
 2215 0b0c 97000000 		call	_ZN11ConsoleUtil11printStringEPKc@plt
 2215      E7800000 
 2216              	.LVL163:
 195:src/kernel/riscv.cpp ****         TCB* old = TCB::running;
 2217              		.loc 1 195 9 is_stmt 1
 195:src/kernel/riscv.cpp ****         TCB* old = TCB::running;
 2218              		.loc 1 195 27 is_stmt 0
 2219 0b14 93060001 		li	a3,16
 2220 0b18 17060000 		lla	a2,.LC1
 2220      13060600 
 2221 0b20 9B850400 		sext.w	a1,s1
 2222 0b24 17050000 		lla	a0,.LC5
 2222      13050500 
 2223 0b2c 97000000 		call	_ZN11ConsoleUtil5printEPKciS1_i@plt
 2223      E7800000 
 2224              	.LVL164:
 196:src/kernel/riscv.cpp ****         old->status = TCB::Status::FINISHED;
 2225              		.loc 1 196 9 is_stmt 1
 196:src/kernel/riscv.cpp ****         old->status = TCB::Status::FINISHED;
 2226              		.loc 1 196 14 is_stmt 0
 2227 0b34 97070000 		la	a5,_ZN3TCB7runningE
 2227      83B70700 
 2228 0b3c 83B70700 		ld	a5,0(a5)
 2229              	.LVL165:
 197:src/kernel/riscv.cpp ****         ConsoleUtil::printString("Exiting thread...\n");
 2230              		.loc 1 197 9 is_stmt 1
 197:src/kernel/riscv.cpp ****         ConsoleUtil::printString("Exiting thread...\n");
 2231              		.loc 1 197 21 is_stmt 0
 2232 0b40 13072000 		li	a4,2
 2233 0b44 23A8E700 		sw	a4,16(a5)
 198:src/kernel/riscv.cpp ****         TCB::dispatch();
 2234              		.loc 1 198 9 is_stmt 1
 198:src/kernel/riscv.cpp ****         TCB::dispatch();
 2235              		.loc 1 198 33 is_stmt 0
 2236 0b48 17050000 		lla	a0,.LC6
 2236      13050500 
 2237 0b50 97000000 		call	_ZN11ConsoleUtil11printStringEPKc@plt
GAS LISTING /tmp/ccy6xxkH.s 			page 64


 2237      E7800000 
 2238              	.LVL166:
 199:src/kernel/riscv.cpp ****     }
 2239              		.loc 1 199 9 is_stmt 1
 199:src/kernel/riscv.cpp ****     }
 2240              		.loc 1 199 22 is_stmt 0
 2241 0b58 97000000 		call	_ZN3TCB8dispatchEv@plt
 2241      E7800000 
 2242              	.LVL167:
 2243 0b60 6F000008 		j	.L134
 2244              	.L111:
 2245              	.LBE121:
 2246              	.LBE120:
 2247              	.LBE143:
 2248              	.LBE160:
 2249              	.LBB161:
  61:src/kernel/riscv.cpp ****         uint64 volatile sepc = RiscV::r_sepc()+4;
 2250              		.loc 1 61 9 is_stmt 1
 2251              	.LBB162:
 2252              	.LBB163:
 184:src/kernel/../../h/riscv.hpp ****     asm("csrr %[sstatus], sstatus" : [sstatus] "=r" (sstatus));
 2253              		.loc 2 184 5
 185:src/kernel/../../h/riscv.hpp ****     return sstatus;
 2254              		.loc 2 185 5
 185:src/kernel/../../h/riscv.hpp ****     return sstatus;
 2255              		.loc 2 185 63 is_stmt 0
 2256              	#APP
 2257              	# 185 "src/kernel/../../h/riscv.hpp" 1
 2258              		csrr a5, sstatus
 2259              	# 0 "" 2
 2260              	.LVL168:
 186:src/kernel/../../h/riscv.hpp **** }
 2261              		.loc 2 186 5 is_stmt 1
 2262              	#NO_APP
 2263              	.LBE163:
 2264              	.LBE162:
  61:src/kernel/riscv.cpp ****         uint64 volatile sepc = RiscV::r_sepc()+4;
 2265              		.loc 1 61 52 is_stmt 0
 2266 0b68 233CF4F8 		sd	a5,-104(s0)
  62:src/kernel/riscv.cpp ****         TCB::running->sepc = sepc;
 2267              		.loc 1 62 9 is_stmt 1
 2268              	.LBB164:
 2269              	.LBB165:
 164:src/kernel/../../h/riscv.hpp ****     asm("csrr %[sepc], sepc" : [sepc] "=r" (sepc));
 2270              		.loc 2 164 5
 165:src/kernel/../../h/riscv.hpp ****     return sepc;
 2271              		.loc 2 165 5
 165:src/kernel/../../h/riscv.hpp ****     return sepc;
 2272              		.loc 2 165 51 is_stmt 0
 2273              	#APP
 2274              	# 165 "src/kernel/../../h/riscv.hpp" 1
 2275              		csrr a5, sepc
 2276              	# 0 "" 2
 2277              	.LVL169:
 166:src/kernel/../../h/riscv.hpp **** }
 2278              		.loc 2 166 5 is_stmt 1
 2279              	#NO_APP
GAS LISTING /tmp/ccy6xxkH.s 			page 65


 2280              	.LBE165:
 2281              	.LBE164:
  62:src/kernel/riscv.cpp ****         TCB::running->sepc = sepc;
 2282              		.loc 1 62 47 is_stmt 0
 2283 0b70 93874700 		addi	a5,a5,4
  62:src/kernel/riscv.cpp ****         TCB::running->sepc = sepc;
 2284              		.loc 1 62 48
 2285 0b74 2330F4FA 		sd	a5,-96(s0)
  63:src/kernel/riscv.cpp ****         TCB::running->sstatus = sstatus;
 2286              		.loc 1 63 9 is_stmt 1
  63:src/kernel/riscv.cpp ****         TCB::running->sstatus = sstatus;
 2287              		.loc 1 63 23 is_stmt 0
 2288 0b78 97070000 		la	a5,_ZN3TCB7runningE
 2288      83B70700 
 2289 0b80 83B70700 		ld	a5,0(a5)
  63:src/kernel/riscv.cpp ****         TCB::running->sstatus = sstatus;
 2290              		.loc 1 63 28
 2291 0b84 033704FA 		ld	a4,-96(s0)
 2292 0b88 23BCE702 		sd	a4,56(a5)
  64:src/kernel/riscv.cpp **** 
 2293              		.loc 1 64 9 is_stmt 1
  64:src/kernel/riscv.cpp **** 
 2294              		.loc 1 64 31 is_stmt 0
 2295 0b8c 033784F9 		ld	a4,-104(s0)
 2296 0b90 23B0E704 		sd	a4,64(a5)
  67:src/kernel/riscv.cpp ****         asm("mv %[syscallID], a0" : [syscallID] "=r" (syscallID));
 2297              		.loc 1 67 9 is_stmt 1
  68:src/kernel/riscv.cpp **** 
 2298              		.loc 1 68 9
  68:src/kernel/riscv.cpp **** 
 2299              		.loc 1 68 66 is_stmt 0
 2300              	#APP
 2301              	# 68 "src/kernel/riscv.cpp" 1
 2302              		mv a5, a0
 2303              	# 0 "" 2
 2304              	.LVL170:
  70:src/kernel/riscv.cpp ****             case 0x01 : executeMemAllocSyscall();break;
 2305              		.loc 1 70 9 is_stmt 1
 2306              	#NO_APP
 2307 0b98 13071006 		li	a4,97
 2308 0b9c 6364F702 		bgtu	a5,a4,.L114
 2309 0ba0 93972700 		slli	a5,a5,2
 2310              	.LVL171:
 2311 0ba4 17070000 		lla	a4,.L116
 2311      13070700 
 2312 0bac B387E700 		add	a5,a5,a4
 2313 0bb0 83A70700 		lw	a5,0(a5)
 2314 0bb4 B387E700 		add	a5,a5,a4
 2315 0bb8 67800700 		jr	a5
 2316              		.section	.rodata
 2317              		.align	2
 2318              		.align	2
 2319              	.L116:
 2320 0000 00000000 		.word	.L114-.L116
 2321 0004 00000000 		.word	.L133-.L116
 2322 0008 00000000 		.word	.L132-.L116
 2323 000c 00000000 		.word	.L114-.L116
GAS LISTING /tmp/ccy6xxkH.s 			page 66


 2324 0010 00000000 		.word	.L114-.L116
 2325 0014 00000000 		.word	.L114-.L116
 2326 0018 00000000 		.word	.L114-.L116
 2327 001c 00000000 		.word	.L114-.L116
 2328 0020 00000000 		.word	.L114-.L116
 2329 0024 00000000 		.word	.L114-.L116
 2330 0028 00000000 		.word	.L114-.L116
 2331 002c 00000000 		.word	.L114-.L116
 2332 0030 00000000 		.word	.L114-.L116
 2333 0034 00000000 		.word	.L114-.L116
 2334 0038 00000000 		.word	.L114-.L116
 2335 003c 00000000 		.word	.L114-.L116
 2336 0040 00000000 		.word	.L114-.L116
 2337 0044 00000000 		.word	.L131-.L116
 2338 0048 00000000 		.word	.L130-.L116
 2339 004c 00000000 		.word	.L129-.L116
 2340 0050 00000000 		.word	.L128-.L116
 2341 0054 00000000 		.word	.L127-.L116
 2342 0058 00000000 		.word	.L114-.L116
 2343 005c 00000000 		.word	.L114-.L116
 2344 0060 00000000 		.word	.L114-.L116
 2345 0064 00000000 		.word	.L114-.L116
 2346 0068 00000000 		.word	.L114-.L116
 2347 006c 00000000 		.word	.L114-.L116
 2348 0070 00000000 		.word	.L114-.L116
 2349 0074 00000000 		.word	.L114-.L116
 2350 0078 00000000 		.word	.L114-.L116
 2351 007c 00000000 		.word	.L114-.L116
 2352 0080 00000000 		.word	.L114-.L116
 2353 0084 00000000 		.word	.L126-.L116
 2354 0088 00000000 		.word	.L125-.L116
 2355 008c 00000000 		.word	.L124-.L116
 2356 0090 00000000 		.word	.L123-.L116
 2357 0094 00000000 		.word	.L114-.L116
 2358 0098 00000000 		.word	.L114-.L116
 2359 009c 00000000 		.word	.L114-.L116
 2360 00a0 00000000 		.word	.L114-.L116
 2361 00a4 00000000 		.word	.L114-.L116
 2362 00a8 00000000 		.word	.L114-.L116
 2363 00ac 00000000 		.word	.L114-.L116
 2364 00b0 00000000 		.word	.L114-.L116
 2365 00b4 00000000 		.word	.L114-.L116
 2366 00b8 00000000 		.word	.L114-.L116
 2367 00bc 00000000 		.word	.L114-.L116
 2368 00c0 00000000 		.word	.L114-.L116
 2369 00c4 00000000 		.word	.L122-.L116
 2370 00c8 00000000 		.word	.L114-.L116
 2371 00cc 00000000 		.word	.L114-.L116
 2372 00d0 00000000 		.word	.L114-.L116
 2373 00d4 00000000 		.word	.L114-.L116
 2374 00d8 00000000 		.word	.L114-.L116
 2375 00dc 00000000 		.word	.L114-.L116
 2376 00e0 00000000 		.word	.L114-.L116
 2377 00e4 00000000 		.word	.L114-.L116
 2378 00e8 00000000 		.word	.L114-.L116
 2379 00ec 00000000 		.word	.L114-.L116
 2380 00f0 00000000 		.word	.L114-.L116
GAS LISTING /tmp/ccy6xxkH.s 			page 67


 2381 00f4 00000000 		.word	.L114-.L116
 2382 00f8 00000000 		.word	.L114-.L116
 2383 00fc 00000000 		.word	.L114-.L116
 2384 0100 00000000 		.word	.L114-.L116
 2385 0104 00000000 		.word	.L121-.L116
 2386 0108 00000000 		.word	.L120-.L116
 2387 010c 00000000 		.word	.L119-.L116
 2388 0110 00000000 		.word	.L114-.L116
 2389 0114 00000000 		.word	.L114-.L116
 2390 0118 00000000 		.word	.L114-.L116
 2391 011c 00000000 		.word	.L114-.L116
 2392 0120 00000000 		.word	.L114-.L116
 2393 0124 00000000 		.word	.L114-.L116
 2394 0128 00000000 		.word	.L114-.L116
 2395 012c 00000000 		.word	.L114-.L116
 2396 0130 00000000 		.word	.L114-.L116
 2397 0134 00000000 		.word	.L114-.L116
 2398 0138 00000000 		.word	.L114-.L116
 2399 013c 00000000 		.word	.L114-.L116
 2400 0140 00000000 		.word	.L114-.L116
 2401 0144 00000000 		.word	.L118-.L116
 2402 0148 00000000 		.word	.L117-.L116
 2403 014c 00000000 		.word	.L114-.L116
 2404 0150 00000000 		.word	.L114-.L116
 2405 0154 00000000 		.word	.L114-.L116
 2406 0158 00000000 		.word	.L114-.L116
 2407 015c 00000000 		.word	.L114-.L116
 2408 0160 00000000 		.word	.L114-.L116
 2409 0164 00000000 		.word	.L114-.L116
 2410 0168 00000000 		.word	.L114-.L116
 2411 016c 00000000 		.word	.L114-.L116
 2412 0170 00000000 		.word	.L114-.L116
 2413 0174 00000000 		.word	.L114-.L116
 2414 0178 00000000 		.word	.L114-.L116
 2415 017c 00000000 		.word	.L114-.L116
 2416 0180 00000000 		.word	.L114-.L116
 2417 0184 00000000 		.word	.L115-.L116
 2418              		.text
 2419              	.L133:
  71:src/kernel/riscv.cpp ****             case 0x02 : executeMemFreeSyscall();break;
 2420              		.loc 1 71 13
  71:src/kernel/riscv.cpp ****             case 0x02 : executeMemFreeSyscall();break;
 2421              		.loc 1 71 25
  71:src/kernel/riscv.cpp ****             case 0x02 : executeMemFreeSyscall();break;
 2422              		.loc 1 71 47 is_stmt 0
 2423 0bbc 97000000 		call	_ZN5RiscV22executeMemAllocSyscallEv
 2423      E7800000 
 2424              	.LVL172:
  71:src/kernel/riscv.cpp ****             case 0x02 : executeMemFreeSyscall();break;
 2425              		.loc 1 71 50 is_stmt 1
 2426              	.L114:
  98:src/kernel/riscv.cpp ****         RiscV::w_sepc(TCB::running->sepc);
 2427              		.loc 1 98 9
  98:src/kernel/riscv.cpp ****         RiscV::w_sepc(TCB::running->sepc);
 2428              		.loc 1 98 25 is_stmt 0
 2429 0bc4 97070000 		la	a5,_ZN3TCB7runningE
 2429      83B70700 
GAS LISTING /tmp/ccy6xxkH.s 			page 68


 2430 0bcc 83B70700 		ld	a5,0(a5)
 2431 0bd0 03B70704 		ld	a4,64(a5)
 2432              	.LVL173:
 2433              	.LBB166:
 2434              	.LBB167:
 180:src/kernel/../../h/riscv.hpp **** }
 2435              		.loc 2 180 5 is_stmt 1
 180:src/kernel/../../h/riscv.hpp **** }
 2436              		.loc 2 180 64 is_stmt 0
 2437              	#APP
 2438              	# 180 "src/kernel/../../h/riscv.hpp" 1
 2439              		csrw sstatus, a4
 2440              	# 0 "" 2
 2441              	.LVL174:
 2442              	#NO_APP
 2443              	.LBE167:
 2444              	.LBE166:
  99:src/kernel/riscv.cpp ****     }
 2445              		.loc 1 99 9 is_stmt 1
  99:src/kernel/riscv.cpp ****     }
 2446              		.loc 1 99 22 is_stmt 0
 2447 0bd8 83B78703 		ld	a5,56(a5)
 2448              	.LVL175:
 2449              	.LBB168:
 2450              	.LBB169:
 170:src/kernel/../../h/riscv.hpp **** }
 2451              		.loc 2 170 5 is_stmt 1
 170:src/kernel/../../h/riscv.hpp **** }
 2452              		.loc 2 170 52 is_stmt 0
 2453              	#APP
 2454              	# 170 "src/kernel/../../h/riscv.hpp" 1
 2455              		csrw sepc, a5
 2456              	# 0 "" 2
 2457              	.LVL176:
 2458              	#NO_APP
 2459              	.L134:
 2460              	.LBE169:
 2461              	.LBE168:
 2462              	.LBE161:
 2463              	.LBE174:
 202:src/kernel/riscv.cpp **** }
 2464              		.loc 1 202 5 is_stmt 1
 202:src/kernel/riscv.cpp **** }
 2465              		.loc 1 202 41 is_stmt 0
 2466 0be0 97000000 		call	_ZN5RiscV29jumpToDesignatedPrivilegeModeEv
 2466      E7800000 
 2467              	.LVL177:
 203:src/kernel/riscv.cpp **** 
 2468              		.loc 1 203 1
 2469 0be8 83308106 		ld	ra,104(sp)
 2470              		.cfi_remember_state
 2471              		.cfi_restore 1
 2472 0bec 03340106 		ld	s0,96(sp)
 2473              		.cfi_restore 8
 2474              		.cfi_def_cfa 2, 112
 2475 0bf0 83348105 		ld	s1,88(sp)
 2476              		.cfi_restore 9
GAS LISTING /tmp/ccy6xxkH.s 			page 69


 2477              	.LVL178:
 2478 0bf4 13010107 		addi	sp,sp,112
 2479              		.cfi_def_cfa_offset 0
 2480 0bf8 67800000 		jr	ra
 2481              	.LVL179:
 2482              	.L132:
 2483              		.cfi_restore_state
 2484              	.LBB175:
 2485              	.LBB170:
  72:src/kernel/riscv.cpp ****             case 0x11 : executeThreadCreateSyscall();break;
 2486              		.loc 1 72 13 is_stmt 1
  72:src/kernel/riscv.cpp ****             case 0x11 : executeThreadCreateSyscall();break;
 2487              		.loc 1 72 25
  72:src/kernel/riscv.cpp ****             case 0x11 : executeThreadCreateSyscall();break;
 2488              		.loc 1 72 46 is_stmt 0
 2489 0bfc 97000000 		call	_ZN5RiscV21executeMemFreeSyscallEv
 2489      E7800000 
 2490              	.LVL180:
  72:src/kernel/riscv.cpp ****             case 0x11 : executeThreadCreateSyscall();break;
 2491              		.loc 1 72 49 is_stmt 1
 2492 0c04 6FF01FFC 		j	.L114
 2493              	.L131:
  73:src/kernel/riscv.cpp ****             case 0x12 : executeThreadExitSyscall();break;
 2494              		.loc 1 73 13
  73:src/kernel/riscv.cpp ****             case 0x12 : executeThreadExitSyscall();break;
 2495              		.loc 1 73 25
  73:src/kernel/riscv.cpp ****             case 0x12 : executeThreadExitSyscall();break;
 2496              		.loc 1 73 51 is_stmt 0
 2497 0c08 97000000 		call	_ZN5RiscV26executeThreadCreateSyscallEv
 2497      E7800000 
 2498              	.LVL181:
  73:src/kernel/riscv.cpp ****             case 0x12 : executeThreadExitSyscall();break;
 2499              		.loc 1 73 54 is_stmt 1
 2500 0c10 6FF05FFB 		j	.L114
 2501              	.L130:
  74:src/kernel/riscv.cpp ****             case 0x13 : executeThreadDispatchSyscall();break;
 2502              		.loc 1 74 13
  74:src/kernel/riscv.cpp ****             case 0x13 : executeThreadDispatchSyscall();break;
 2503              		.loc 1 74 25
  74:src/kernel/riscv.cpp ****             case 0x13 : executeThreadDispatchSyscall();break;
 2504              		.loc 1 74 49 is_stmt 0
 2505 0c14 97000000 		call	_ZN5RiscV24executeThreadExitSyscallEv
 2505      E7800000 
 2506              	.LVL182:
  74:src/kernel/riscv.cpp ****             case 0x13 : executeThreadDispatchSyscall();break;
 2507              		.loc 1 74 52 is_stmt 1
 2508 0c1c 6FF09FFA 		j	.L114
 2509              	.L129:
  75:src/kernel/riscv.cpp ****             case 0x14 : executeThreadAttachBodySyscall();break;
 2510              		.loc 1 75 13
  75:src/kernel/riscv.cpp ****             case 0x14 : executeThreadAttachBodySyscall();break;
 2511              		.loc 1 75 25
  75:src/kernel/riscv.cpp ****             case 0x14 : executeThreadAttachBodySyscall();break;
 2512              		.loc 1 75 53 is_stmt 0
 2513 0c20 97000000 		call	_ZN5RiscV28executeThreadDispatchSyscallEv
 2513      E7800000 
 2514              	.LVL183:
GAS LISTING /tmp/ccy6xxkH.s 			page 70


  75:src/kernel/riscv.cpp ****             case 0x14 : executeThreadAttachBodySyscall();break;
 2515              		.loc 1 75 56 is_stmt 1
 2516 0c28 6FF0DFF9 		j	.L114
 2517              	.L128:
  76:src/kernel/riscv.cpp ****             case 0x15 : executeThreadStartSyscall();break;
 2518              		.loc 1 76 13
  76:src/kernel/riscv.cpp ****             case 0x15 : executeThreadStartSyscall();break;
 2519              		.loc 1 76 25
  76:src/kernel/riscv.cpp ****             case 0x15 : executeThreadStartSyscall();break;
 2520              		.loc 1 76 55 is_stmt 0
 2521 0c2c 97000000 		call	_ZN5RiscV30executeThreadAttachBodySyscallEv
 2521      E7800000 
 2522              	.LVL184:
  76:src/kernel/riscv.cpp ****             case 0x15 : executeThreadStartSyscall();break;
 2523              		.loc 1 76 58 is_stmt 1
 2524 0c34 6FF01FF9 		j	.L114
 2525              	.L127:
  77:src/kernel/riscv.cpp ****             case 0x21 : executeSemOpenSyscall();break;
 2526              		.loc 1 77 13
  77:src/kernel/riscv.cpp ****             case 0x21 : executeSemOpenSyscall();break;
 2527              		.loc 1 77 25
  77:src/kernel/riscv.cpp ****             case 0x21 : executeSemOpenSyscall();break;
 2528              		.loc 1 77 50 is_stmt 0
 2529 0c38 97000000 		call	_ZN5RiscV25executeThreadStartSyscallEv
 2529      E7800000 
 2530              	.LVL185:
  77:src/kernel/riscv.cpp ****             case 0x21 : executeSemOpenSyscall();break;
 2531              		.loc 1 77 53 is_stmt 1
 2532 0c40 6FF05FF8 		j	.L114
 2533              	.L126:
  78:src/kernel/riscv.cpp ****             case 0x22 : executeSemCloseSyscall();break;
 2534              		.loc 1 78 13
  78:src/kernel/riscv.cpp ****             case 0x22 : executeSemCloseSyscall();break;
 2535              		.loc 1 78 25
  78:src/kernel/riscv.cpp ****             case 0x22 : executeSemCloseSyscall();break;
 2536              		.loc 1 78 46 is_stmt 0
 2537 0c44 97000000 		call	_ZN5RiscV21executeSemOpenSyscallEv
 2537      E7800000 
 2538              	.LVL186:
  78:src/kernel/riscv.cpp ****             case 0x22 : executeSemCloseSyscall();break;
 2539              		.loc 1 78 49 is_stmt 1
 2540 0c4c 6FF09FF7 		j	.L114
 2541              	.L125:
  79:src/kernel/riscv.cpp ****             case 0x23 : executeSemWaitSyscall();break;
 2542              		.loc 1 79 13
  79:src/kernel/riscv.cpp ****             case 0x23 : executeSemWaitSyscall();break;
 2543              		.loc 1 79 25
  79:src/kernel/riscv.cpp ****             case 0x23 : executeSemWaitSyscall();break;
 2544              		.loc 1 79 47 is_stmt 0
 2545 0c50 97000000 		call	_ZN5RiscV22executeSemCloseSyscallEv
 2545      E7800000 
 2546              	.LVL187:
  79:src/kernel/riscv.cpp ****             case 0x23 : executeSemWaitSyscall();break;
 2547              		.loc 1 79 50 is_stmt 1
 2548 0c58 6FF0DFF6 		j	.L114
 2549              	.L124:
  80:src/kernel/riscv.cpp ****             case 0x24 : executeSemSignalSyscall();break;
GAS LISTING /tmp/ccy6xxkH.s 			page 71


 2550              		.loc 1 80 13
  80:src/kernel/riscv.cpp ****             case 0x24 : executeSemSignalSyscall();break;
 2551              		.loc 1 80 25
  80:src/kernel/riscv.cpp ****             case 0x24 : executeSemSignalSyscall();break;
 2552              		.loc 1 80 46 is_stmt 0
 2553 0c5c 97000000 		call	_ZN5RiscV21executeSemWaitSyscallEv
 2553      E7800000 
 2554              	.LVL188:
  80:src/kernel/riscv.cpp ****             case 0x24 : executeSemSignalSyscall();break;
 2555              		.loc 1 80 49 is_stmt 1
 2556 0c64 6FF01FF6 		j	.L114
 2557              	.L123:
  81:src/kernel/riscv.cpp ****             case 0x31 : executeTimeSleepSyscall();break;
 2558              		.loc 1 81 13
  81:src/kernel/riscv.cpp ****             case 0x31 : executeTimeSleepSyscall();break;
 2559              		.loc 1 81 25
  81:src/kernel/riscv.cpp ****             case 0x31 : executeTimeSleepSyscall();break;
 2560              		.loc 1 81 48 is_stmt 0
 2561 0c68 97000000 		call	_ZN5RiscV23executeSemSignalSyscallEv
 2561      E7800000 
 2562              	.LVL189:
  81:src/kernel/riscv.cpp ****             case 0x31 : executeTimeSleepSyscall();break;
 2563              		.loc 1 81 51 is_stmt 1
 2564 0c70 6FF05FF5 		j	.L114
 2565              	.L122:
  82:src/kernel/riscv.cpp ****             case 0x41 : executeGetcSyscall();break;
 2566              		.loc 1 82 13
  82:src/kernel/riscv.cpp ****             case 0x41 : executeGetcSyscall();break;
 2567              		.loc 1 82 25
  82:src/kernel/riscv.cpp ****             case 0x41 : executeGetcSyscall();break;
 2568              		.loc 1 82 48 is_stmt 0
 2569 0c74 97000000 		call	_ZN5RiscV23executeTimeSleepSyscallEv
 2569      E7800000 
 2570              	.LVL190:
  82:src/kernel/riscv.cpp ****             case 0x41 : executeGetcSyscall();break;
 2571              		.loc 1 82 51 is_stmt 1
 2572 0c7c 6FF09FF4 		j	.L114
 2573              	.L121:
  83:src/kernel/riscv.cpp ****             case 0x42 : executePutcSyscall();break;
 2574              		.loc 1 83 13
  83:src/kernel/riscv.cpp ****             case 0x42 : executePutcSyscall();break;
 2575              		.loc 1 83 25
  83:src/kernel/riscv.cpp ****             case 0x42 : executePutcSyscall();break;
 2576              		.loc 1 83 43 is_stmt 0
 2577 0c80 97000000 		call	_ZN5RiscV18executeGetcSyscallEv
 2577      E7800000 
 2578              	.LVL191:
  83:src/kernel/riscv.cpp ****             case 0x42 : executePutcSyscall();break;
 2579              		.loc 1 83 46 is_stmt 1
 2580 0c88 6FF0DFF3 		j	.L114
 2581              	.L120:
  84:src/kernel/riscv.cpp ****             case 0x43 : executePutcUtilSyscall();break;
 2582              		.loc 1 84 13
  84:src/kernel/riscv.cpp ****             case 0x43 : executePutcUtilSyscall();break;
 2583              		.loc 1 84 25
  84:src/kernel/riscv.cpp ****             case 0x43 : executePutcUtilSyscall();break;
 2584              		.loc 1 84 43 is_stmt 0
GAS LISTING /tmp/ccy6xxkH.s 			page 72


 2585 0c8c 97000000 		call	_ZN5RiscV18executePutcSyscallEv
 2585      E7800000 
 2586              	.LVL192:
  84:src/kernel/riscv.cpp ****             case 0x43 : executePutcUtilSyscall();break;
 2587              		.loc 1 84 46 is_stmt 1
 2588 0c94 6FF01FF3 		j	.L114
 2589              	.L119:
  85:src/kernel/riscv.cpp ****             case 0x51 : executeThreadFreeSyscall();break;
 2590              		.loc 1 85 13
  85:src/kernel/riscv.cpp ****             case 0x51 : executeThreadFreeSyscall();break;
 2591              		.loc 1 85 25
  85:src/kernel/riscv.cpp ****             case 0x51 : executeThreadFreeSyscall();break;
 2592              		.loc 1 85 47 is_stmt 0
 2593 0c98 97000000 		call	_ZN5RiscV22executePutcUtilSyscallEv
 2593      E7800000 
 2594              	.LVL193:
  85:src/kernel/riscv.cpp ****             case 0x51 : executeThreadFreeSyscall();break;
 2595              		.loc 1 85 50 is_stmt 1
 2596 0ca0 6FF05FF2 		j	.L114
 2597              	.L118:
  86:src/kernel/riscv.cpp ****             case 0x52 : executeSemaphoreFreeSyscall();break;
 2598              		.loc 1 86 13
  86:src/kernel/riscv.cpp ****             case 0x52 : executeSemaphoreFreeSyscall();break;
 2599              		.loc 1 86 25
  86:src/kernel/riscv.cpp ****             case 0x52 : executeSemaphoreFreeSyscall();break;
 2600              		.loc 1 86 49 is_stmt 0
 2601 0ca4 97000000 		call	_ZN5RiscV24executeThreadFreeSyscallEv
 2601      E7800000 
 2602              	.LVL194:
  86:src/kernel/riscv.cpp ****             case 0x52 : executeSemaphoreFreeSyscall();break;
 2603              		.loc 1 86 52 is_stmt 1
 2604 0cac 6FF09FF1 		j	.L114
 2605              	.L117:
  87:src/kernel/riscv.cpp ****             //in this case we need to save SP and PC at this point so that newly created thread
 2606              		.loc 1 87 13
  87:src/kernel/riscv.cpp ****             //in this case we need to save SP and PC at this point so that newly created thread
 2607              		.loc 1 87 25
  87:src/kernel/riscv.cpp ****             //in this case we need to save SP and PC at this point so that newly created thread
 2608              		.loc 1 87 52 is_stmt 0
 2609 0cb0 97000000 		call	_ZN5RiscV27executeSemaphoreFreeSyscallEv
 2609      E7800000 
 2610              	.LVL195:
  87:src/kernel/riscv.cpp ****             //in this case we need to save SP and PC at this point so that newly created thread
 2611              		.loc 1 87 55 is_stmt 1
 2612 0cb8 6FF0DFF0 		j	.L114
 2613              	.L115:
  91:src/kernel/riscv.cpp ****                         RiscV::getPC();
 2614              		.loc 1 91 13
  91:src/kernel/riscv.cpp ****                         RiscV::getPC();
 2615              		.loc 1 91 25
  91:src/kernel/riscv.cpp ****                         RiscV::getPC();
 2616              		.loc 1 91 72 is_stmt 0
 2617              	#APP
 2618              	# 91 "src/kernel/riscv.cpp" 1
 2619              		mv a5, sp
 2620              	# 0 "" 2
 2621              	#NO_APP
GAS LISTING /tmp/ccy6xxkH.s 			page 73


 2622 0cc0 17070000 		la	a4,_ZN3TCB9currentSPE
 2622      03370700 
 2623 0cc8 2330F700 		sd	a5,0(a4)
  92:src/kernel/riscv.cpp ****                         executeForkSyscall();
 2624              		.loc 1 92 25 is_stmt 1
  92:src/kernel/riscv.cpp ****                         executeForkSyscall();
 2625              		.loc 1 92 37 is_stmt 0
 2626 0ccc 97000000 		call	_ZN5RiscV5getPCEv
 2626      E7800000 
 2627              	.LVL196:
  93:src/kernel/riscv.cpp ****                         break;
 2628              		.loc 1 93 25 is_stmt 1
  93:src/kernel/riscv.cpp ****                         break;
 2629              		.loc 1 93 43 is_stmt 0
 2630 0cd4 97000000 		call	_ZN5RiscV18executeForkSyscallEv
 2630      E7800000 
 2631              	.LVL197:
  94:src/kernel/riscv.cpp ****         }
 2632              		.loc 1 94 25 is_stmt 1
 2633 0cdc 6FF09FEE 		j	.L114
 2634              	.L141:
 2635              	.LBE170:
 2636              	.LBB171:
 2637              	.LBB144:
 107:src/kernel/riscv.cpp ****         uint64 volatile sepc = RiscV::r_sepc();
 2638              		.loc 1 107 9
 2639              	.LBB145:
 2640              	.LBB146:
 184:src/kernel/../../h/riscv.hpp ****     asm("csrr %[sstatus], sstatus" : [sstatus] "=r" (sstatus));
 2641              		.loc 2 184 5
 185:src/kernel/../../h/riscv.hpp ****     return sstatus;
 2642              		.loc 2 185 5
 185:src/kernel/../../h/riscv.hpp ****     return sstatus;
 2643              		.loc 2 185 63 is_stmt 0
 2644              	#APP
 2645              	# 185 "src/kernel/../../h/riscv.hpp" 1
 2646              		csrr a5, sstatus
 2647              	# 0 "" 2
 2648              	.LVL198:
 186:src/kernel/../../h/riscv.hpp **** }
 2649              		.loc 2 186 5 is_stmt 1
 2650              	#NO_APP
 2651              	.LBE146:
 2652              	.LBE145:
 107:src/kernel/riscv.cpp ****         uint64 volatile sepc = RiscV::r_sepc();
 2653              		.loc 1 107 52 is_stmt 0
 2654 0ce4 2334F4FA 		sd	a5,-88(s0)
 108:src/kernel/riscv.cpp **** 
 2655              		.loc 1 108 9 is_stmt 1
 2656              	.LBB147:
 2657              	.LBB148:
 164:src/kernel/../../h/riscv.hpp ****     asm("csrr %[sepc], sepc" : [sepc] "=r" (sepc));
 2658              		.loc 2 164 5
 165:src/kernel/../../h/riscv.hpp ****     return sepc;
 2659              		.loc 2 165 5
 165:src/kernel/../../h/riscv.hpp ****     return sepc;
 2660              		.loc 2 165 51 is_stmt 0
GAS LISTING /tmp/ccy6xxkH.s 			page 74


 2661              	#APP
 2662              	# 165 "src/kernel/../../h/riscv.hpp" 1
 2663              		csrr a5, sepc
 2664              	# 0 "" 2
 2665              	.LVL199:
 166:src/kernel/../../h/riscv.hpp **** }
 2666              		.loc 2 166 5 is_stmt 1
 2667              	#NO_APP
 2668              	.LBE148:
 2669              	.LBE147:
 108:src/kernel/riscv.cpp **** 
 2670              		.loc 1 108 46 is_stmt 0
 2671 0cec 2338F4FA 		sd	a5,-80(s0)
 111:src/kernel/riscv.cpp **** 
 2672              		.loc 1 111 9 is_stmt 1
 2673              	.LVL200:
 2674              	.LBB149:
 2675              	.LBB150:
 206:src/kernel/../../h/riscv.hpp **** }
 2676              		.loc 2 206 5
 206:src/kernel/../../h/riscv.hpp **** }
 2677              		.loc 2 206 51 is_stmt 0
 2678 0cf0 93072000 		li	a5,2
 2679              	#APP
 2680              	# 206 "src/kernel/../../h/riscv.hpp" 1
 2681              		csrc sip, a5
 2682              	# 0 "" 2
 2683              	.LVL201:
 2684              	#NO_APP
 2685              	.LBE150:
 2686              	.LBE149:
 115:src/kernel/riscv.cpp ****         Scheduler::awake();
 2687              		.loc 1 115 9 is_stmt 1
 115:src/kernel/riscv.cpp ****         Scheduler::awake();
 2688              		.loc 1 115 20 is_stmt 0
 2689 0cf8 17070000 		lla	a4,.LANCHOR0
 2689      13070700 
 2690 0d00 83378700 		ld	a5,8(a4)
 2691 0d04 93871700 		addi	a5,a5,1
 2692 0d08 2334F700 		sd	a5,8(a4)
 116:src/kernel/riscv.cpp **** 
 2693              		.loc 1 116 9 is_stmt 1
 116:src/kernel/riscv.cpp **** 
 2694              		.loc 1 116 25 is_stmt 0
 2695 0d0c 97000000 		call	_ZN9Scheduler5awakeEv@plt
 2695      E7800000 
 2696              	.LVL202:
 120:src/kernel/riscv.cpp ****         if(TCB::timeSliceCounter >= TCB::running->timeSlice) {
 2697              		.loc 1 120 9 is_stmt 1
 120:src/kernel/riscv.cpp ****         if(TCB::timeSliceCounter >= TCB::running->timeSlice) {
 2698              		.loc 1 120 30 is_stmt 0
 2699 0d14 17070000 		la	a4,_ZN3TCB16timeSliceCounterE
 2699      03370700 
 2700 0d1c 83370700 		ld	a5,0(a4)
 2701 0d20 93871700 		addi	a5,a5,1
 2702 0d24 2330F700 		sd	a5,0(a4)
 121:src/kernel/riscv.cpp **** 
GAS LISTING /tmp/ccy6xxkH.s 			page 75


 2703              		.loc 1 121 9 is_stmt 1
 2704              	.LBB151:
 121:src/kernel/riscv.cpp **** 
 2705              		.loc 1 121 51 is_stmt 0
 2706 0d28 17070000 		la	a4,_ZN3TCB7runningE
 2706      03370700 
 2707 0d30 03370700 		ld	a4,0(a4)
 2708 0d34 83360703 		ld	a3,48(a4)
 121:src/kernel/riscv.cpp **** 
 2709              		.loc 1 121 9
 2710 0d38 63FCD700 		bgeu	a5,a3,.L144
 2711              	.L135:
 2712              	.LBE151:
 133:src/kernel/riscv.cpp ****         RiscV::w_sepc(sepc);
 2713              		.loc 1 133 9 is_stmt 1
 133:src/kernel/riscv.cpp ****         RiscV::w_sepc(sepc);
 2714              		.loc 1 133 25 is_stmt 0
 2715 0d3c 833784FA 		ld	a5,-88(s0)
 2716              	.LVL203:
 2717              	.LBB153:
 2718              	.LBB154:
 180:src/kernel/../../h/riscv.hpp **** }
 2719              		.loc 2 180 5 is_stmt 1
 180:src/kernel/../../h/riscv.hpp **** }
 2720              		.loc 2 180 64 is_stmt 0
 2721              	#APP
 2722              	# 180 "src/kernel/../../h/riscv.hpp" 1
 2723              		csrw sstatus, a5
 2724              	# 0 "" 2
 2725              	.LVL204:
 2726              	#NO_APP
 2727              	.LBE154:
 2728              	.LBE153:
 134:src/kernel/riscv.cpp ****     }
 2729              		.loc 1 134 9 is_stmt 1
 134:src/kernel/riscv.cpp ****     }
 2730              		.loc 1 134 22 is_stmt 0
 2731 0d44 833704FB 		ld	a5,-80(s0)
 2732              	.LVL205:
 2733              	.LBB155:
 2734              	.LBB156:
 170:src/kernel/../../h/riscv.hpp **** }
 2735              		.loc 2 170 5 is_stmt 1
 170:src/kernel/../../h/riscv.hpp **** }
 2736              		.loc 2 170 52 is_stmt 0
 2737              	#APP
 2738              	# 170 "src/kernel/../../h/riscv.hpp" 1
 171:src/kernel/../../h/riscv.hpp **** 
 2739              		csrw sepc, a5
 2740              	# 0 "" 2
 2741              		.loc 2 171 1
 2742              	#NO_APP
 2743 0d4c 6FF05FE9 		j	.L134
 2744              	.LVL206:
 2745              	.L144:
 2746              	.LBE156:
 2747              	.LBE155:
GAS LISTING /tmp/ccy6xxkH.s 			page 76


 2748              	.LBB157:
 2749              	.LBB152:
 123:src/kernel/riscv.cpp **** 
 2750              		.loc 1 123 13 is_stmt 1
 123:src/kernel/riscv.cpp **** 
 2751              		.loc 1 123 35 is_stmt 0
 2752 0d50 97070000 		la	a5,_ZN3TCB16timeSliceCounterE
 2752      83B70700 
 2753 0d58 23B00700 		sd	zero,0(a5)
 125:src/kernel/riscv.cpp **** 
 2754              		.loc 1 125 13 is_stmt 1
 2755              	.LVL207:
 127:src/kernel/riscv.cpp **** 
 2756              		.loc 1 127 13
 127:src/kernel/riscv.cpp **** 
 2757              		.loc 1 127 25 is_stmt 0
 2758 0d5c 93071000 		li	a5,1
 2759 0d60 2328F700 		sw	a5,16(a4)
 129:src/kernel/riscv.cpp ****         }
 2760              		.loc 1 129 13 is_stmt 1
 129:src/kernel/riscv.cpp ****         }
 2761              		.loc 1 129 26 is_stmt 0
 2762 0d64 97000000 		call	_ZN3TCB8dispatchEv@plt
 2762      E7800000 
 2763              	.LVL208:
 2764              	.LBE152:
 2765 0d6c 6FF01FFD 		j	.L135
 2766              	.L142:
 2767              	.LBE157:
 2768              	.LBE144:
 2769              	.LBB158:
 2770              	.LBB129:
 141:src/kernel/riscv.cpp ****         uint64 volatile sepc = RiscV::r_sepc();
 2771              		.loc 1 141 9 is_stmt 1
 2772              	.LBB130:
 2773              	.LBB131:
 184:src/kernel/../../h/riscv.hpp ****     asm("csrr %[sstatus], sstatus" : [sstatus] "=r" (sstatus));
 2774              		.loc 2 184 5
 185:src/kernel/../../h/riscv.hpp ****     return sstatus;
 2775              		.loc 2 185 5
 185:src/kernel/../../h/riscv.hpp ****     return sstatus;
 2776              		.loc 2 185 63 is_stmt 0
 2777              	#APP
 2778              	# 185 "src/kernel/../../h/riscv.hpp" 1
 2779              		csrr a5, sstatus
 2780              	# 0 "" 2
 2781              	.LVL209:
 186:src/kernel/../../h/riscv.hpp **** }
 2782              		.loc 2 186 5 is_stmt 1
 2783              	#NO_APP
 2784              	.LBE131:
 2785              	.LBE130:
 141:src/kernel/riscv.cpp ****         uint64 volatile sepc = RiscV::r_sepc();
 2786              		.loc 1 141 52 is_stmt 0
 2787 0d74 233CF4FA 		sd	a5,-72(s0)
 142:src/kernel/riscv.cpp **** 
 2788              		.loc 1 142 9 is_stmt 1
GAS LISTING /tmp/ccy6xxkH.s 			page 77


 2789              	.LBB132:
 2790              	.LBB133:
 164:src/kernel/../../h/riscv.hpp ****     asm("csrr %[sepc], sepc" : [sepc] "=r" (sepc));
 2791              		.loc 2 164 5
 165:src/kernel/../../h/riscv.hpp ****     return sepc;
 2792              		.loc 2 165 5
 165:src/kernel/../../h/riscv.hpp ****     return sepc;
 2793              		.loc 2 165 51 is_stmt 0
 2794              	#APP
 2795              	# 165 "src/kernel/../../h/riscv.hpp" 1
 2796              		csrr a5, sepc
 2797              	# 0 "" 2
 2798              	.LVL210:
 166:src/kernel/../../h/riscv.hpp **** }
 2799              		.loc 2 166 5 is_stmt 1
 2800              	#NO_APP
 2801              	.LBE133:
 2802              	.LBE132:
 142:src/kernel/riscv.cpp **** 
 2803              		.loc 1 142 46 is_stmt 0
 2804 0d7c 2330F4FC 		sd	a5,-64(s0)
 145:src/kernel/riscv.cpp ****         asm("mv a0, %[status]" : : [status] "r" (status));
 2805              		.loc 1 145 9 is_stmt 1
 145:src/kernel/riscv.cpp ****         asm("mv a0, %[status]" : : [status] "r" (status));
 2806              		.loc 1 145 16 is_stmt 0
 2807 0d80 97070000 		la	a5,CONSOLE_STATUS
 2807      83B70700 
 2808 0d88 83B70700 		ld	a5,0(a5)
 2809              	.LVL211:
 146:src/kernel/riscv.cpp ****         asm("lb a1, 0(a0)");
 2810              		.loc 1 146 9 is_stmt 1
 146:src/kernel/riscv.cpp ****         asm("lb a1, 0(a0)");
 2811              		.loc 1 146 58 is_stmt 0
 2812              	#APP
 2813              	# 146 "src/kernel/riscv.cpp" 1
 147:src/kernel/riscv.cpp ****         asm("mv %[status], a1" : [status] "=r" (status));
 2814              		mv a0, a5
 2815              	# 0 "" 2
 2816              		.loc 1 147 9 is_stmt 1
 147:src/kernel/riscv.cpp ****         asm("mv %[status], a1" : [status] "=r" (status));
 2817              		.loc 1 147 28 is_stmt 0
 2818              	# 147 "src/kernel/riscv.cpp" 1
 148:src/kernel/riscv.cpp **** 
 2819              		lb a1, 0(a0)
 2820              	# 0 "" 2
 2821              		.loc 1 148 9 is_stmt 1
 148:src/kernel/riscv.cpp **** 
 2822              		.loc 1 148 57 is_stmt 0
 2823              	# 148 "src/kernel/riscv.cpp" 1
 2824              		mv a5, a1
 2825              	# 0 "" 2
 2826              	.LVL212:
 151:src/kernel/riscv.cpp ****         {
 2827              		.loc 1 151 9 is_stmt 1
 2828              	#NO_APP
 2829              	.LBB134:
 151:src/kernel/riscv.cpp ****         {
GAS LISTING /tmp/ccy6xxkH.s 			page 78


 2830              		.loc 1 151 19 is_stmt 0
 2831 0d98 93F71700 		andi	a5,a5,1
 2832              	.LVL213:
 151:src/kernel/riscv.cpp ****         {
 2833              		.loc 1 151 9
 2834 0d9c 63880702 		beqz	a5,.L137
 2835              	.LBB135:
 154:src/kernel/riscv.cpp ****             char c;
 2836              		.loc 1 154 13 is_stmt 1
 155:src/kernel/riscv.cpp ****             data = CONSOLE_TX_DATA;
 2837              		.loc 1 155 13
 156:src/kernel/riscv.cpp ****             asm("mv a0, %[data]" : : [data] "r" (data));
 2838              		.loc 1 156 13
 156:src/kernel/riscv.cpp ****             asm("mv a0, %[data]" : : [data] "r" (data));
 2839              		.loc 1 156 18 is_stmt 0
 2840 0da0 97070000 		la	a5,CONSOLE_TX_DATA
 2840      83B70700 
 2841 0da8 83B70700 		ld	a5,0(a5)
 2842              	.LVL214:
 157:src/kernel/riscv.cpp ****             asm("lb a1, 0(a0)");
 2843              		.loc 1 157 13 is_stmt 1
 157:src/kernel/riscv.cpp ****             asm("lb a1, 0(a0)");
 2844              		.loc 1 157 56 is_stmt 0
 2845              	#APP
 2846              	# 157 "src/kernel/riscv.cpp" 1
 158:src/kernel/riscv.cpp ****             asm("mv %[c], a1" : [c] "=r" (c));
 2847              		mv a0, a5
 2848              	# 0 "" 2
 2849              		.loc 1 158 13 is_stmt 1
 158:src/kernel/riscv.cpp ****             asm("mv %[c], a1" : [c] "=r" (c));
 2850              		.loc 1 158 32 is_stmt 0
 2851              	# 158 "src/kernel/riscv.cpp" 1
 159:src/kernel/riscv.cpp **** 
 2852              		lb a1, 0(a0)
 2853              	# 0 "" 2
 2854              		.loc 1 159 13 is_stmt 1
 159:src/kernel/riscv.cpp **** 
 2855              		.loc 1 159 46 is_stmt 0
 2856              	# 159 "src/kernel/riscv.cpp" 1
 2857              		mv a0, a1
 2858              	# 0 "" 2
 2859              	#NO_APP
 2860 0db8 1375F50F 		andi	a0,a0,0xff
 2861              	.LVL215:
 162:src/kernel/riscv.cpp ****                 ConsoleUtil::pendingGetc--;
 2862              		.loc 1 162 13 is_stmt 1
 162:src/kernel/riscv.cpp ****                 ConsoleUtil::pendingGetc--;
 2863              		.loc 1 162 40 is_stmt 0
 2864 0dbc 97070000 		la	a5,_ZN11ConsoleUtil11pendingGetcE
 2864      83B70700 
 2865              	.LVL216:
 2866 0dc4 83B70700 		ld	a5,0(a5)
 162:src/kernel/riscv.cpp ****                 ConsoleUtil::pendingGetc--;
 2867              		.loc 1 162 13
 2868 0dc8 63940702 		bnez	a5,.L145
 2869              	.LVL217:
 2870              	.L137:
GAS LISTING /tmp/ccy6xxkH.s 			page 79


 2871              	.LBE135:
 2872              	.LBE134:
 167:src/kernel/riscv.cpp **** 
 2873              		.loc 1 167 9 is_stmt 1
 167:src/kernel/riscv.cpp **** 
 2874              		.loc 1 167 22 is_stmt 0
 2875 0dcc 97000000 		call	plic_claim@plt
 2875      E7800000 
 2876              	.LVL218:
 2877 0dd4 97000000 		call	plic_complete@plt
 2877      E7800000 
 2878              	.LVL219:
 169:src/kernel/riscv.cpp ****         RiscV::w_sepc(sepc);
 2879              		.loc 1 169 9 is_stmt 1
 169:src/kernel/riscv.cpp ****         RiscV::w_sepc(sepc);
 2880              		.loc 1 169 25 is_stmt 0
 2881 0ddc 833784FB 		ld	a5,-72(s0)
 2882              	.LVL220:
 2883              	.LBB137:
 2884              	.LBB138:
 180:src/kernel/../../h/riscv.hpp **** }
 2885              		.loc 2 180 5 is_stmt 1
 180:src/kernel/../../h/riscv.hpp **** }
 2886              		.loc 2 180 64 is_stmt 0
 2887              	#APP
 2888              	# 180 "src/kernel/../../h/riscv.hpp" 1
 2889              		csrw sstatus, a5
 2890              	# 0 "" 2
 2891              	.LVL221:
 2892              	#NO_APP
 2893              	.LBE138:
 2894              	.LBE137:
 170:src/kernel/riscv.cpp ****     }
 2895              		.loc 1 170 9 is_stmt 1
 170:src/kernel/riscv.cpp ****     }
 2896              		.loc 1 170 22 is_stmt 0
 2897 0de4 833704FC 		ld	a5,-64(s0)
 2898              	.LVL222:
 2899              	.LBB139:
 2900              	.LBB140:
 170:src/kernel/../../h/riscv.hpp **** }
 2901              		.loc 2 170 5 is_stmt 1
 170:src/kernel/../../h/riscv.hpp **** }
 2902              		.loc 2 170 52 is_stmt 0
 2903              	#APP
 2904              	# 170 "src/kernel/../../h/riscv.hpp" 1
 171:src/kernel/../../h/riscv.hpp **** 
 2905              		csrw sepc, a5
 2906              	# 0 "" 2
 2907              		.loc 2 171 1
 2908              	#NO_APP
 2909 0dec 6FF05FDF 		j	.L134
 2910              	.LVL223:
 2911              	.L145:
 2912              	.LBE140:
 2913              	.LBE139:
 2914              	.LBB141:
GAS LISTING /tmp/ccy6xxkH.s 			page 80


 2915              	.LBB136:
 163:src/kernel/riscv.cpp ****                 ConsoleUtil::putInput(c);
 2916              		.loc 1 163 17 is_stmt 1
 163:src/kernel/riscv.cpp ****                 ConsoleUtil::putInput(c);
 2917              		.loc 1 163 41 is_stmt 0
 2918 0df0 9387F7FF 		addi	a5,a5,-1
 2919 0df4 17070000 		la	a4,_ZN11ConsoleUtil11pendingGetcE
 2919      03370700 
 2920 0dfc 2330F700 		sd	a5,0(a4)
 164:src/kernel/riscv.cpp ****             }
 2921              		.loc 1 164 17 is_stmt 1
 164:src/kernel/riscv.cpp ****             }
 2922              		.loc 1 164 38 is_stmt 0
 2923 0e00 97000000 		call	_ZN11ConsoleUtil8putInputEc@plt
 2923      E7800000 
 2924              	.LVL224:
 2925 0e08 6FF05FFC 		j	.L137
 2926              	.LVL225:
 2927              	.L143:
 2928              	.LBE136:
 2929              	.LBE141:
 2930              	.LBE129:
 2931              	.LBB142:
 2932              	.LBB126:
 175:src/kernel/riscv.cpp ****         old->status = TCB::Status::FINISHED;
 2933              		.loc 1 175 9 is_stmt 1
 175:src/kernel/riscv.cpp ****         old->status = TCB::Status::FINISHED;
 2934              		.loc 1 175 14 is_stmt 0
 2935 0e0c 97070000 		la	a5,_ZN3TCB7runningE
 2935      83B70700 
 2936 0e14 83B70700 		ld	a5,0(a5)
 2937              	.LVL226:
 176:src/kernel/riscv.cpp ****         ConsoleUtil::printString("sepc: ");
 2938              		.loc 1 176 9 is_stmt 1
 176:src/kernel/riscv.cpp ****         ConsoleUtil::printString("sepc: ");
 2939              		.loc 1 176 21 is_stmt 0
 2940 0e18 13072000 		li	a4,2
 2941 0e1c 23A8E700 		sw	a4,16(a5)
 177:src/kernel/riscv.cpp ****         uint64 sepc = RiscV::r_sepc();
 2942              		.loc 1 177 9 is_stmt 1
 177:src/kernel/riscv.cpp ****         uint64 sepc = RiscV::r_sepc();
 2943              		.loc 1 177 33 is_stmt 0
 2944 0e20 17050000 		lla	a0,.LC0
 2944      13050500 
 2945 0e28 97000000 		call	_ZN11ConsoleUtil11printStringEPKc@plt
 2945      E7800000 
 2946              	.LVL227:
 178:src/kernel/riscv.cpp ****         ConsoleUtil::printInt(sepc,16);
 2947              		.loc 1 178 9 is_stmt 1
 2948              	.LBB127:
 2949              	.LBB128:
 164:src/kernel/../../h/riscv.hpp ****     asm("csrr %[sepc], sepc" : [sepc] "=r" (sepc));
 2950              		.loc 2 164 5
 165:src/kernel/../../h/riscv.hpp ****     return sepc;
 2951              		.loc 2 165 5
 165:src/kernel/../../h/riscv.hpp ****     return sepc;
 2952              		.loc 2 165 51 is_stmt 0
GAS LISTING /tmp/ccy6xxkH.s 			page 81


 2953              	#APP
 2954              	# 165 "src/kernel/../../h/riscv.hpp" 1
 166:src/kernel/../../h/riscv.hpp **** }
 2955              		csrr a0, sepc
 2956              	# 0 "" 2
 2957              		.loc 2 166 5 is_stmt 1
 2958              	#NO_APP
 2959              	.LBE128:
 2960              	.LBE127:
 179:src/kernel/riscv.cpp ****         ConsoleUtil::printString("\n");
 2961              		.loc 1 179 9
 179:src/kernel/riscv.cpp ****         ConsoleUtil::printString("\n");
 2962              		.loc 1 179 30 is_stmt 0
 2963 0e34 13060000 		li	a2,0
 2964 0e38 93050001 		li	a1,16
 2965 0e3c 1B050500 		sext.w	a0,a0
 2966 0e40 97000000 		call	_ZN11ConsoleUtil8printIntEiii@plt
 2966      E7800000 
 2967              	.LVL228:
 180:src/kernel/riscv.cpp ****         ConsoleUtil::printString("Illegal instruction\nExiting thread...\n");
 2968              		.loc 1 180 9 is_stmt 1
 180:src/kernel/riscv.cpp ****         ConsoleUtil::printString("Illegal instruction\nExiting thread...\n");
 2969              		.loc 1 180 33 is_stmt 0
 2970 0e48 17050000 		lla	a0,.LC1
 2970      13050500 
 2971 0e50 97000000 		call	_ZN11ConsoleUtil11printStringEPKc@plt
 2971      E7800000 
 2972              	.LVL229:
 181:src/kernel/riscv.cpp ****         TCB::dispatch();
 2973              		.loc 1 181 9 is_stmt 1
 181:src/kernel/riscv.cpp ****         TCB::dispatch();
 2974              		.loc 1 181 33 is_stmt 0
 2975 0e58 17050000 		lla	a0,.LC2
 2975      13050500 
 2976 0e60 97000000 		call	_ZN11ConsoleUtil11printStringEPKc@plt
 2976      E7800000 
 2977              	.LVL230:
 182:src/kernel/riscv.cpp ****     }
 2978              		.loc 1 182 9 is_stmt 1
 182:src/kernel/riscv.cpp ****     }
 2979              		.loc 1 182 22 is_stmt 0
 2980 0e68 97000000 		call	_ZN3TCB8dispatchEv@plt
 2980      E7800000 
 2981              	.LVL231:
 2982              	.LBE126:
 2983 0e70 6FF01FD7 		j	.L134
 2984              	.LBE142:
 2985              	.LBE158:
 2986              	.LBE171:
 2987              	.LBE175:
 2988              		.cfi_endproc
 2989              	.LFE46:
 2991              		.align	2
 2992              		.globl	_ZN5RiscV16threadCreateUtilEPP3TCBPFvPvES3_
 2994              	_ZN5RiscV16threadCreateUtilEPP3TCBPFvPvES3_:
 2995              	.LFB70:
 712:src/kernel/riscv.cpp **** 
GAS LISTING /tmp/ccy6xxkH.s 			page 82


 713:src/kernel/riscv.cpp **** void RiscV::threadCreateUtil(TCB **handle, void (*start_routine)(void *), void *arg) {
 2996              		.loc 1 713 86 is_stmt 1
 2997              		.cfi_startproc
 2998              	.LVL232:
 2999 0e74 130101FD 		addi	sp,sp,-48
 3000              		.cfi_def_cfa_offset 48
 3001 0e78 23341102 		sd	ra,40(sp)
 3002 0e7c 23308102 		sd	s0,32(sp)
 3003 0e80 233C9100 		sd	s1,24(sp)
 3004 0e84 23382101 		sd	s2,16(sp)
 3005 0e88 23343101 		sd	s3,8(sp)
 3006              		.cfi_offset 1, -8
 3007              		.cfi_offset 8, -16
 3008              		.cfi_offset 9, -24
 3009              		.cfi_offset 18, -32
 3010              		.cfi_offset 19, -40
 3011 0e8c 13040103 		addi	s0,sp,48
 3012              		.cfi_def_cfa 8, 0
 3013 0e90 13090500 		mv	s2,a0
 3014 0e94 93840500 		mv	s1,a1
 3015 0e98 93090600 		mv	s3,a2
 714:src/kernel/riscv.cpp ****     uint64 ihandle = (uint64)handle;
 3016              		.loc 1 714 5
 3017              	.LVL233:
 715:src/kernel/riscv.cpp ****     uint64 iroutine = (uint64)start_routine;
 3018              		.loc 1 715 5
 716:src/kernel/riscv.cpp ****     uint64 iarg = (uint64)arg;
 3019              		.loc 1 716 5
 717:src/kernel/riscv.cpp ****     uint64 istack = 0;
 3020              		.loc 1 717 5
 718:src/kernel/riscv.cpp **** 
 719:src/kernel/riscv.cpp ****     if(start_routine) {
 3021              		.loc 1 719 5
 3022 0e9c 638E0500 		beqz	a1,.L149
 720:src/kernel/riscv.cpp ****         istack = (uint64) MemoryAllocator::kmalloc(DEFAULT_STACK_SIZE);
 3023              		.loc 1 720 9
 3024              		.loc 1 720 51 is_stmt 0
 3025 0ea0 37150000 		li	a0,4096
 3026              	.LVL234:
 3027 0ea4 97000000 		call	_ZN15MemoryAllocator7kmallocEm@plt
 3027      E7800000 
 3028              	.LVL235:
 721:src/kernel/riscv.cpp ****         if(istack == 0) {
 3029              		.loc 1 721 9 is_stmt 1
 3030 0eac 63180500 		bnez	a0,.L147
 722:src/kernel/riscv.cpp ****             *handle = nullptr;
 3031              		.loc 1 722 13
 3032              		.loc 1 722 21 is_stmt 0
 3033 0eb0 23300900 		sd	zero,0(s2)
 723:src/kernel/riscv.cpp ****             return;
 3034              		.loc 1 723 13 is_stmt 1
 3035 0eb4 6F000002 		j	.L146
 3036              	.LVL236:
 3037              	.L149:
 717:src/kernel/riscv.cpp **** 
 3038              		.loc 1 717 12 is_stmt 0
 3039 0eb8 13050000 		li	a0,0
GAS LISTING /tmp/ccy6xxkH.s 			page 83


 3040              	.LVL237:
 3041              	.L147:
 724:src/kernel/riscv.cpp ****         }
 725:src/kernel/riscv.cpp ****     }
 726:src/kernel/riscv.cpp **** 
 727:src/kernel/riscv.cpp ****     asm("mv a7, %[istack]" : : [istack] "r" (istack));
 3042              		.loc 1 727 5 is_stmt 1
 3043              		.loc 1 727 54 is_stmt 0
 3044              	#APP
 3045              	# 727 "src/kernel/riscv.cpp" 1
 728              	    asm("mv a3, %[iarg]" : : [iarg] "r" (iarg));
 3046              		mv a7, a0
 3047              	# 0 "" 2
 3048              		.loc 1 728 5 is_stmt 1
 3049              		.loc 1 728 48 is_stmt 0
 3050              	# 728 "src/kernel/riscv.cpp" 1
 729              	    asm("mv a2, %[iroutine]" : : [iroutine] "r" (iroutine));
 3051              		mv a3, s3
 3052              	# 0 "" 2
 3053              		.loc 1 729 5 is_stmt 1
 3054              		.loc 1 729 60 is_stmt 0
 3055              	# 729 "src/kernel/riscv.cpp" 1
 730              	    asm("mv a1, %[ihandle]" : : [ihandle] "r" (ihandle));
 3056              		mv a2, s1
 3057              	# 0 "" 2
 3058              		.loc 1 730 5 is_stmt 1
 3059              		.loc 1 730 57 is_stmt 0
 3060              	# 730 "src/kernel/riscv.cpp" 1
 731              	    asm("li a0, 0x11");
 3061              		mv a1, s2
 3062              	# 0 "" 2
 3063              		.loc 1 731 5 is_stmt 1
 3064              		.loc 1 731 23 is_stmt 0
 3065              	# 731 "src/kernel/riscv.cpp" 1
 732              	
 733:src/kernel/riscv.cpp ****     asm("ecall");
 3066              		li a0, 0x11
 3067              	# 0 "" 2
 3068              		.loc 1 733 5 is_stmt 1
 3069              		.loc 1 733 17 is_stmt 0
 3070              	# 733 "src/kernel/riscv.cpp" 1
 734              	
 735:src/kernel/riscv.cpp ****     uint64 status;
 3071              		ecall
 3072              	# 0 "" 2
 3073              		.loc 1 735 5 is_stmt 1
 736:src/kernel/riscv.cpp **** 
 737:src/kernel/riscv.cpp ****     asm("mv %[status], a0" : [status] "=r" (status));
 3074              		.loc 1 737 5
 3075              	.LVL238:
 3076              	#NO_APP
 3077              	.L146:
 738:src/kernel/riscv.cpp **** 
 739:src/kernel/riscv.cpp **** }
 3078              		.loc 1 739 1 is_stmt 0
 3079 0ed4 83308102 		ld	ra,40(sp)
 3080              		.cfi_restore 1
GAS LISTING /tmp/ccy6xxkH.s 			page 84


 3081 0ed8 03340102 		ld	s0,32(sp)
 3082              		.cfi_restore 8
 3083              		.cfi_def_cfa 2, 48
 3084 0edc 83348101 		ld	s1,24(sp)
 3085              		.cfi_restore 9
 3086              	.LVL239:
 3087 0ee0 03390101 		ld	s2,16(sp)
 3088              		.cfi_restore 18
 3089              	.LVL240:
 3090 0ee4 83398100 		ld	s3,8(sp)
 3091              		.cfi_restore 19
 3092              	.LVL241:
 3093 0ee8 13010103 		addi	sp,sp,48
 3094              		.cfi_def_cfa_offset 0
 3095 0eec 67800000 		jr	ra
 3096              		.cfi_endproc
 3097              	.LFE70:
 3099              		.align	2
 3100              		.globl	_ZN5RiscV14threadExitUtilEv
 3102              	_ZN5RiscV14threadExitUtilEv:
 3103              	.LFB71:
 740:src/kernel/riscv.cpp **** 
 741:src/kernel/riscv.cpp **** void RiscV::threadExitUtil() {
 3104              		.loc 1 741 30 is_stmt 1
 3105              		.cfi_startproc
 3106 0ef0 130101FF 		addi	sp,sp,-16
 3107              		.cfi_def_cfa_offset 16
 3108 0ef4 23348100 		sd	s0,8(sp)
 3109              		.cfi_offset 8, -8
 3110 0ef8 13040101 		addi	s0,sp,16
 3111              		.cfi_def_cfa 8, 0
 742:src/kernel/riscv.cpp ****     asm("li a0, 0x12");
 3112              		.loc 1 742 5
 3113              		.loc 1 742 23 is_stmt 0
 3114              	#APP
 3115              	# 742 "src/kernel/riscv.cpp" 1
 743              	
 744:src/kernel/riscv.cpp ****     asm("ecall");
 3116              		li a0, 0x12
 3117              	# 0 "" 2
 3118              		.loc 1 744 5 is_stmt 1
 3119              		.loc 1 744 17 is_stmt 0
 3120              	# 744 "src/kernel/riscv.cpp" 1
 745              	
 746:src/kernel/riscv.cpp ****     uint64 status;
 3121              		ecall
 3122              	# 0 "" 2
 3123              		.loc 1 746 5 is_stmt 1
 747:src/kernel/riscv.cpp **** 
 748:src/kernel/riscv.cpp ****     asm("mv %[status], a0" : [status] "=r" (status));
 3124              		.loc 1 748 5
 3125              	.LVL242:
 749:src/kernel/riscv.cpp **** }
 3126              		.loc 1 749 1 is_stmt 0
 3127              	#NO_APP
 3128 0f04 03348100 		ld	s0,8(sp)
 3129              		.cfi_restore 8
GAS LISTING /tmp/ccy6xxkH.s 			page 85


 3130              		.cfi_def_cfa 2, 16
 3131 0f08 13010101 		addi	sp,sp,16
 3132              		.cfi_def_cfa_offset 0
 3133 0f0c 67800000 		jr	ra
 3134              		.cfi_endproc
 3135              	.LFE71:
 3137              		.align	2
 3138              		.globl	_ZN5RiscV18threadDispatchUtilEv
 3140              	_ZN5RiscV18threadDispatchUtilEv:
 3141              	.LFB72:
 750:src/kernel/riscv.cpp **** 
 751:src/kernel/riscv.cpp **** void RiscV::threadDispatchUtil() {
 3142              		.loc 1 751 34 is_stmt 1
 3143              		.cfi_startproc
 3144 0f10 130101FF 		addi	sp,sp,-16
 3145              		.cfi_def_cfa_offset 16
 3146 0f14 23348100 		sd	s0,8(sp)
 3147              		.cfi_offset 8, -8
 3148 0f18 13040101 		addi	s0,sp,16
 3149              		.cfi_def_cfa 8, 0
 752:src/kernel/riscv.cpp ****     asm("li a0, 0x13");
 3150              		.loc 1 752 5
 3151              		.loc 1 752 23 is_stmt 0
 3152              	#APP
 3153              	# 752 "src/kernel/riscv.cpp" 1
 753              	
 754:src/kernel/riscv.cpp ****     asm("ecall");
 3154              		li a0, 0x13
 3155              	# 0 "" 2
 3156              		.loc 1 754 5 is_stmt 1
 3157              		.loc 1 754 17 is_stmt 0
 3158              	# 754 "src/kernel/riscv.cpp" 1
 755              	}
 3159              		ecall
 3160              	# 0 "" 2
 3161              		.loc 1 755 1
 3162              	#NO_APP
 3163 0f24 03348100 		ld	s0,8(sp)
 3164              		.cfi_restore 8
 3165              		.cfi_def_cfa 2, 16
 3166 0f28 13010101 		addi	sp,sp,16
 3167              		.cfi_def_cfa_offset 0
 3168 0f2c 67800000 		jr	ra
 3169              		.cfi_endproc
 3170              	.LFE72:
 3172              		.align	2
 3173              		.globl	_ZN5RiscV11putcWrapperEPv
 3175              	_ZN5RiscV11putcWrapperEPv:
 3176              	.LFB61:
 521:src/kernel/riscv.cpp ****     while(true)
 3177              		.loc 1 521 1 is_stmt 1
 3178              		.cfi_startproc
 3179              	.LVL243:
 3180 0f30 130101FE 		addi	sp,sp,-32
 3181              		.cfi_def_cfa_offset 32
 3182 0f34 233C1100 		sd	ra,24(sp)
 3183 0f38 23388100 		sd	s0,16(sp)
GAS LISTING /tmp/ccy6xxkH.s 			page 86


 3184              		.cfi_offset 1, -8
 3185              		.cfi_offset 8, -16
 3186 0f3c 13040102 		addi	s0,sp,32
 3187              		.cfi_def_cfa 8, 0
 3188 0f40 6F00C000 		j	.L156
 3189              	.LVL244:
 3190              	.L157:
 3191              	.LBB176:
 3192              	.LBB177:
 545:src/kernel/riscv.cpp ****     }
 3193              		.loc 1 545 13
 545:src/kernel/riscv.cpp ****     }
 3194              		.loc 1 545 38 is_stmt 0
 3195 0f44 97000000 		call	_ZN5RiscV18threadDispatchUtilEv
 3195      E7800000 
 3196              	.LVL245:
 3197              	.L156:
 3198              	.LBE177:
 3199              	.LBE176:
 522:src/kernel/riscv.cpp ****     {
 3200              		.loc 1 522 5 is_stmt 1
 3201              	.LBB180:
 525:src/kernel/riscv.cpp ****         asm("mv a0, %[status]" : : [status] "r" (status));
 3202              		.loc 1 525 9
 525:src/kernel/riscv.cpp ****         asm("mv a0, %[status]" : : [status] "r" (status));
 3203              		.loc 1 525 16 is_stmt 0
 3204 0f4c 97070000 		la	a5,CONSOLE_STATUS
 3204      83B70700 
 3205 0f54 83B70700 		ld	a5,0(a5)
 3206              	.LVL246:
 526:src/kernel/riscv.cpp ****         asm("lb a1, 0(a0)");
 3207              		.loc 1 526 9 is_stmt 1
 526:src/kernel/riscv.cpp ****         asm("lb a1, 0(a0)");
 3208              		.loc 1 526 58 is_stmt 0
 3209              	#APP
 3210              	# 526 "src/kernel/riscv.cpp" 1
 527:src/kernel/riscv.cpp ****         asm("mv %[status], a1" : [status] "=r" (status));
 3211              		mv a0, a5
 3212              	# 0 "" 2
 3213              		.loc 1 527 9 is_stmt 1
 527:src/kernel/riscv.cpp ****         asm("mv %[status], a1" : [status] "=r" (status));
 3214              		.loc 1 527 28 is_stmt 0
 3215              	# 527 "src/kernel/riscv.cpp" 1
 528:src/kernel/riscv.cpp **** 
 3216              		lb a1, 0(a0)
 3217              	# 0 "" 2
 3218              		.loc 1 528 9 is_stmt 1
 528:src/kernel/riscv.cpp **** 
 3219              		.loc 1 528 57 is_stmt 0
 3220              	# 528 "src/kernel/riscv.cpp" 1
 3221              		mv a5, a1
 3222              	# 0 "" 2
 3223              	.LVL247:
 531:src/kernel/riscv.cpp **** 
 3224              		.loc 1 531 9 is_stmt 1
 3225              	#NO_APP
 3226              	.LBB179:
GAS LISTING /tmp/ccy6xxkH.s 			page 87


 531:src/kernel/riscv.cpp **** 
 3227              		.loc 1 531 19 is_stmt 0
 3228 0f64 93F70702 		andi	a5,a5,32
 3229              	.LVL248:
 531:src/kernel/riscv.cpp **** 
 3230              		.loc 1 531 9
 3231 0f68 E38E07FC 		beqz	a5,.L157
 3232              	.LBB178:
 534:src/kernel/riscv.cpp ****                 uint64 data = CONSOLE_RX_DATA;
 3233              		.loc 1 534 17 is_stmt 1
 534:src/kernel/riscv.cpp ****                 uint64 data = CONSOLE_RX_DATA;
 3234              		.loc 1 534 63 is_stmt 0
 3235 0f6c 97000000 		call	_ZN11ConsoleUtil15putcUtilSyscallEv@plt
 3235      E7800000 
 3236              	.LVL249:
 534:src/kernel/riscv.cpp ****                 uint64 data = CONSOLE_RX_DATA;
 3237              		.loc 1 534 64
 3238 0f74 A307A4FE 		sb	a0,-17(s0)
 535:src/kernel/riscv.cpp ****                 asm("mv a0, %[data]" : : [data] "r"(data));
 3239              		.loc 1 535 17 is_stmt 1
 535:src/kernel/riscv.cpp ****                 asm("mv a0, %[data]" : : [data] "r"(data));
 3240              		.loc 1 535 24 is_stmt 0
 3241 0f78 97070000 		la	a5,CONSOLE_RX_DATA
 3241      83B70700 
 3242 0f80 83B70700 		ld	a5,0(a5)
 3243              	.LVL250:
 536:src/kernel/riscv.cpp ****                 asm("mv a1, %[c]" : : [c] "r"(c));
 3244              		.loc 1 536 17 is_stmt 1
 536:src/kernel/riscv.cpp ****                 asm("mv a1, %[c]" : : [c] "r"(c));
 3245              		.loc 1 536 59 is_stmt 0
 3246              	#APP
 3247              	# 536 "src/kernel/riscv.cpp" 1
 537:src/kernel/riscv.cpp ****                 asm("sb a1,0(a0)");
 3248              		mv a0, a5
 3249              	# 0 "" 2
 3250              		.loc 1 537 17 is_stmt 1
 537:src/kernel/riscv.cpp ****                 asm("sb a1,0(a0)");
 3251              		.loc 1 537 47 is_stmt 0
 3252              	#NO_APP
 3253 0f88 8347F4FE 		lbu	a5,-17(s0)
 3254              	.LVL251:
 537:src/kernel/riscv.cpp ****                 asm("sb a1,0(a0)");
 3255              		.loc 1 537 50
 3256              	#APP
 3257              	# 537 "src/kernel/riscv.cpp" 1
 538:src/kernel/riscv.cpp **** 
 3258              		mv a1, a5
 3259              	# 0 "" 2
 3260              		.loc 1 538 17 is_stmt 1
 538:src/kernel/riscv.cpp **** 
 3261              		.loc 1 538 35 is_stmt 0
 3262              	# 538 "src/kernel/riscv.cpp" 1
 541:src/kernel/riscv.cpp ****                 ConsoleUtil::pendingPutc--;
 3263              		sb a1,0(a0)
 3264              	# 0 "" 2
 3265              		.loc 1 541 13 is_stmt 1
 541:src/kernel/riscv.cpp ****                 ConsoleUtil::pendingPutc--;
GAS LISTING /tmp/ccy6xxkH.s 			page 88


 3266              		.loc 1 541 40 is_stmt 0
 3267              	#NO_APP
 3268 0f94 97070000 		la	a5,_ZN11ConsoleUtil11pendingPutcE
 3268      83B70700 
 3269 0f9c 83B70700 		ld	a5,0(a5)
 541:src/kernel/riscv.cpp ****                 ConsoleUtil::pendingPutc--;
 3270              		.loc 1 541 13
 3271 0fa0 E38607FA 		beqz	a5,.L156
 542:src/kernel/riscv.cpp ****         }
 3272              		.loc 1 542 17 is_stmt 1
 542:src/kernel/riscv.cpp ****         }
 3273              		.loc 1 542 41 is_stmt 0
 3274 0fa4 9387F7FF 		addi	a5,a5,-1
 3275 0fa8 17070000 		la	a4,_ZN11ConsoleUtil11pendingPutcE
 3275      03370700 
 3276 0fb0 2330F700 		sd	a5,0(a4)
 3277 0fb4 6FF09FF9 		j	.L156
 3278              	.LBE178:
 3279              	.LBE179:
 3280              	.LBE180:
 3281              		.cfi_endproc
 3282              	.LFE61:
 3284              		.align	2
 3285              		.globl	_ZN5RiscV6getPMTEv
 3287              	_ZN5RiscV6getPMTEv:
 3288              	.LFB75:
 756:src/kernel/riscv.cpp **** 
 757:src/kernel/riscv.cpp **** void RiscV::buildSection(void *PMT, uint64 start, uint64 end, uint64 mask) {
 758:src/kernel/riscv.cpp ****     for(uint64 i=start;i< end;i+=0x1000) {
 759:src/kernel/riscv.cpp ****         handlePageFault(kPMT,i, mask);
 760:src/kernel/riscv.cpp ****     }
 761:src/kernel/riscv.cpp **** }
 762:src/kernel/riscv.cpp **** 
 763:src/kernel/riscv.cpp **** void RiscV::buildKernelPMT() {
 764:src/kernel/riscv.cpp ****     RiscV::kPMT = RiscV::getPMT();
 765:src/kernel/riscv.cpp ****     uint64 bEnd = ((uint64)Buddy::BUDDY_START_ADDR + (Buddy::BLOCKS_AVAILABLE<<12));
 766:src/kernel/riscv.cpp **** 
 767:src/kernel/riscv.cpp **** 
 768:src/kernel/riscv.cpp ****     RiscV::buildSection(kPMT, OS_ENTRY, KERNEL_TEXT_END, 0xb);
 769:src/kernel/riscv.cpp ****     RiscV::buildSection(kPMT, KERNEL_TEXT_END, USER_TEXT_START, 0x7);
 770:src/kernel/riscv.cpp ****     RiscV::buildSection(kPMT, USER_TEXT_START, USER_DATA_START, 0x1b);
 771:src/kernel/riscv.cpp ****     RiscV::buildSection(kPMT, USER_DATA_START, USER_DATA_END, 0x17);
 772:src/kernel/riscv.cpp ****     RiscV::buildSection(kPMT, USER_DATA_END, bEnd, 0x7);
 773:src/kernel/riscv.cpp ****     RiscV::buildSection(kPMT, bEnd, HEAP_END, 0x17);
 774:src/kernel/riscv.cpp **** 
 775:src/kernel/riscv.cpp **** 
 776:src/kernel/riscv.cpp ****     RiscV::ms_sstatus(1<<18);
 777:src/kernel/riscv.cpp ****     handlePageFault(kPMT, (uint64)CONSOLE_RX_DATA,0xf);
 778:src/kernel/riscv.cpp ****     handlePageFault(kPMT, (uint64)CONSOLE_TX_DATA,0xf);
 779:src/kernel/riscv.cpp ****     handlePageFault(kPMT, (uint64)CONSOLE_STATUS,0xf);
 780:src/kernel/riscv.cpp ****     handlePageFault(kPMT, (uint64)0xc201004,0xf);
 781:src/kernel/riscv.cpp **** }
 782:src/kernel/riscv.cpp **** 
 783:src/kernel/riscv.cpp **** void* RiscV::getPMT(){
 3289              		.loc 1 783 22 is_stmt 1
 3290              		.cfi_startproc
 3291 0fb8 130101FF 		addi	sp,sp,-16
GAS LISTING /tmp/ccy6xxkH.s 			page 89


 3292              		.cfi_def_cfa_offset 16
 3293 0fbc 23341100 		sd	ra,8(sp)
 3294 0fc0 23308100 		sd	s0,0(sp)
 3295              		.cfi_offset 1, -8
 3296              		.cfi_offset 8, -16
 3297 0fc4 13040101 		addi	s0,sp,16
 3298              		.cfi_def_cfa 8, 0
 784:src/kernel/riscv.cpp ****     void* ret = Buddy::alloc(1);
 3299              		.loc 1 784 5
 3300              		.loc 1 784 29 is_stmt 0
 3301 0fc8 13051000 		li	a0,1
 3302 0fcc 97000000 		call	_ZN5Buddy5allocEm@plt
 3302      E7800000 
 3303              	.LVL252:
 785:src/kernel/riscv.cpp ****     uint64* arr = (uint64*)ret;
 3304              		.loc 1 785 5 is_stmt 1
 786:src/kernel/riscv.cpp ****     for(int i=0;i<512;i++)
 3305              		.loc 1 786 5
 3306              	.LBB181:
 3307              		.loc 1 786 13 is_stmt 0
 3308 0fd4 93070000 		li	a5,0
 3309              	.LVL253:
 3310              	.L162:
 3311              		.loc 1 786 18 is_stmt 1 discriminator 3
 3312 0fd8 1307F01F 		li	a4,511
 3313 0fdc 634CF700 		bgt	a5,a4,.L160
 787:src/kernel/riscv.cpp ****         arr[i] = 0;
 3314              		.loc 1 787 9 discriminator 2
 3315              		.loc 1 787 14 is_stmt 0 discriminator 2
 3316 0fe0 13973700 		slli	a4,a5,3
 3317 0fe4 3307E500 		add	a4,a0,a4
 3318              		.loc 1 787 16 discriminator 2
 3319 0fe8 23300700 		sd	zero,0(a4)
 786:src/kernel/riscv.cpp ****     for(int i=0;i<512;i++)
 3320              		.loc 1 786 5 is_stmt 1 discriminator 2
 3321 0fec 9B871700 		addiw	a5,a5,1
 3322              	.LVL254:
 3323 0ff0 6FF09FFE 		j	.L162
 3324              	.LVL255:
 3325              	.L160:
 3326              	.LBE181:
 788:src/kernel/riscv.cpp ****     return ret;
 789:src/kernel/riscv.cpp **** }
 3327              		.loc 1 789 1 is_stmt 0
 3328 0ff4 83308100 		ld	ra,8(sp)
 3329              		.cfi_restore 1
 3330 0ff8 03340100 		ld	s0,0(sp)
 3331              		.cfi_restore 8
 3332              		.cfi_def_cfa 2, 16
 3333 0ffc 13010101 		addi	sp,sp,16
 3334              		.cfi_def_cfa_offset 0
 3335 1000 67800000 		jr	ra
 3336              		.cfi_endproc
 3337              	.LFE75:
 3339              		.align	2
 3340              		.globl	_ZN5RiscV15handlePageFaultEPvmm
 3342              	_ZN5RiscV15handlePageFaultEPvmm:
GAS LISTING /tmp/ccy6xxkH.s 			page 90


 3343              	.LFB76:
 790:src/kernel/riscv.cpp **** 
 791:src/kernel/riscv.cpp **** void RiscV::handlePageFault(void* PMT, uint64 addr, uint64 mask){
 3344              		.loc 1 791 65 is_stmt 1
 3345              		.cfi_startproc
 3346              	.LVL256:
 3347 1004 130101FC 		addi	sp,sp,-64
 3348              		.cfi_def_cfa_offset 64
 3349 1008 233C1102 		sd	ra,56(sp)
 3350 100c 23388102 		sd	s0,48(sp)
 3351 1010 23349102 		sd	s1,40(sp)
 3352 1014 23302103 		sd	s2,32(sp)
 3353 1018 233C3101 		sd	s3,24(sp)
 3354 101c 23384101 		sd	s4,16(sp)
 3355 1020 23345101 		sd	s5,8(sp)
 3356              		.cfi_offset 1, -8
 3357              		.cfi_offset 8, -16
 3358              		.cfi_offset 9, -24
 3359              		.cfi_offset 18, -32
 3360              		.cfi_offset 19, -40
 3361              		.cfi_offset 20, -48
 3362              		.cfi_offset 21, -56
 3363 1024 13040104 		addi	s0,sp,64
 3364              		.cfi_def_cfa 8, 0
 3365 1028 93090600 		mv	s3,a2
 792:src/kernel/riscv.cpp ****     uint64 pmt2Entry = (addr >> 30) & (0x1ff);;
 3366              		.loc 1 792 5
 3367              		.loc 1 792 30 is_stmt 0
 3368 102c 93D7E501 		srli	a5,a1,30
 3369              		.loc 1 792 12
 3370 1030 93F7F71F 		andi	a5,a5,511
 3371              	.LVL257:
 3372              		.loc 1 792 47 is_stmt 1
 793:src/kernel/riscv.cpp ****     uint64 pmt1Entry = (addr >> 21) & (0x1ff);
 3373              		.loc 1 793 5
 3374              		.loc 1 793 30 is_stmt 0
 3375 1034 13D95501 		srli	s2,a1,21
 3376              		.loc 1 793 12
 3377 1038 1379F91F 		andi	s2,s2,511
 3378              	.LVL258:
 794:src/kernel/riscv.cpp ****     uint64 pmt0Entry = (addr >> 12) & (0x1ff);
 3379              		.loc 1 794 5 is_stmt 1
 3380              		.loc 1 794 30 is_stmt 0
 3381 103c 93D4C500 		srli	s1,a1,12
 3382              		.loc 1 794 12
 3383 1040 13FAF41F 		andi	s4,s1,511
 3384              	.LVL259:
 795:src/kernel/riscv.cpp ****     uint64 pmt2Desc = ((uint64*)PMT)[pmt2Entry];
 3385              		.loc 1 795 5 is_stmt 1
 3386              		.loc 1 795 47 is_stmt 0
 3387 1044 93973700 		slli	a5,a5,3
 3388              	.LVL260:
 3389 1048 B30AF500 		add	s5,a0,a5
 3390              		.loc 1 795 12
 3391 104c 83B70A00 		ld	a5,0(s5)
 3392              	.LVL261:
 796:src/kernel/riscv.cpp ****     void* pmt1 = nullptr;
GAS LISTING /tmp/ccy6xxkH.s 			page 91


 3393              		.loc 1 796 5 is_stmt 1
 797:src/kernel/riscv.cpp ****     if(pmt2Desc == 0){
 3394              		.loc 1 797 5
 3395 1050 63820706 		beqz	a5,.L171
 798:src/kernel/riscv.cpp ****         pmt1 = RiscV::getPMT();
 799:src/kernel/riscv.cpp ****         ((uint64*)PMT)[pmt2Entry] = (((uint64)pmt1 >> 12) << 10) | (uint64)1;
 800:src/kernel/riscv.cpp ****     }
 801:src/kernel/riscv.cpp ****     else
 802:src/kernel/riscv.cpp ****         pmt1 = (void*)((pmt2Desc >> 10) << 12);
 3396              		.loc 1 802 9
 3397              		.loc 1 802 34 is_stmt 0
 3398 1054 13D5A700 		srli	a0,a5,10
 3399              	.LVL262:
 3400              		.loc 1 802 41
 3401 1058 1315C500 		slli	a0,a0,12
 3402              	.LVL263:
 3403              	.L166:
 803:src/kernel/riscv.cpp ****     uint64 pmt1Desc = ((uint64*)pmt1)[pmt1Entry];
 3404              		.loc 1 803 5 is_stmt 1
 3405              		.loc 1 803 48 is_stmt 0
 3406 105c 13193900 		slli	s2,s2,3
 3407              	.LVL264:
 3408 1060 33092501 		add	s2,a0,s2
 3409              		.loc 1 803 12
 3410 1064 03350900 		ld	a0,0(s2)
 3411              	.LVL265:
 804:src/kernel/riscv.cpp ****     void* pmt0 = nullptr;
 3412              		.loc 1 804 5 is_stmt 1
 805:src/kernel/riscv.cpp ****     if(pmt1Desc == 0){
 3413              		.loc 1 805 5
 3414 1068 63040506 		beqz	a0,.L172
 806:src/kernel/riscv.cpp ****         pmt0 = RiscV::getPMT();
 807:src/kernel/riscv.cpp ****         ((uint64*)pmt1)[pmt1Entry] = (((uint64)pmt0 >> 12) << 10) | (uint64)1;
 808:src/kernel/riscv.cpp ****     }
 809:src/kernel/riscv.cpp ****     else
 810:src/kernel/riscv.cpp ****         pmt0 = (void*)((pmt1Desc >> 10) << 12);
 3415              		.loc 1 810 9
 3416              		.loc 1 810 34 is_stmt 0
 3417 106c 1355A500 		srli	a0,a0,10
 3418              	.LVL266:
 3419              		.loc 1 810 41
 3420 1070 1315C500 		slli	a0,a0,12
 3421              	.LVL267:
 3422              	.L168:
 811:src/kernel/riscv.cpp ****     uint64 pmt0Desc = ((uint64*)pmt0)[pmt0Entry];
 3423              		.loc 1 811 5 is_stmt 1
 3424              		.loc 1 811 48 is_stmt 0
 3425 1074 131A3A00 		slli	s4,s4,3
 3426              	.LVL268:
 3427 1078 33054501 		add	a0,a0,s4
 3428              	.LVL269:
 3429              		.loc 1 811 12
 3430 107c 83370500 		ld	a5,0(a0)
 3431              	.LVL270:
 812:src/kernel/riscv.cpp ****     if(pmt0Desc == 0) {
 3432              		.loc 1 812 5 is_stmt 1
 3433 1080 63980700 		bnez	a5,.L164
GAS LISTING /tmp/ccy6xxkH.s 			page 92


 813:src/kernel/riscv.cpp ****         ((uint64 *) pmt0)[pmt0Entry] = ((addr >> 12) << 10) | mask;
 3434              		.loc 1 813 9
 3435              		.loc 1 813 54 is_stmt 0
 3436 1084 9394A400 		slli	s1,s1,10
 3437              	.LVL271:
 3438              		.loc 1 813 61
 3439 1088 B3E93401 		or	s3,s1,s3
 3440              	.LVL272:
 3441              		.loc 1 813 38
 3442 108c 23303501 		sd	s3,0(a0)
 3443              	.L164:
 814:src/kernel/riscv.cpp ****     }
 815:src/kernel/riscv.cpp **** }...
 3444              		.loc 1 815 1
 3445 1090 83308103 		ld	ra,56(sp)
 3446              		.cfi_remember_state
 3447              		.cfi_restore 1
 3448 1094 03340103 		ld	s0,48(sp)
 3449              		.cfi_restore 8
 3450              		.cfi_def_cfa 2, 64
 3451 1098 83348102 		ld	s1,40(sp)
 3452              		.cfi_restore 9
 3453 109c 03390102 		ld	s2,32(sp)
 3454              		.cfi_restore 18
 3455 10a0 83398101 		ld	s3,24(sp)
 3456              		.cfi_restore 19
 3457 10a4 033A0101 		ld	s4,16(sp)
 3458              		.cfi_restore 20
 3459 10a8 833A8100 		ld	s5,8(sp)
 3460              		.cfi_restore 21
 3461 10ac 13010104 		addi	sp,sp,64
 3462              		.cfi_def_cfa_offset 0
 3463 10b0 67800000 		jr	ra
 3464              	.LVL273:
 3465              	.L171:
 3466              		.cfi_restore_state
 798:src/kernel/riscv.cpp ****         pmt1 = RiscV::getPMT();
 3467              		.loc 1 798 9 is_stmt 1
 798:src/kernel/riscv.cpp ****         pmt1 = RiscV::getPMT();
 3468              		.loc 1 798 29 is_stmt 0
 3469 10b4 97000000 		call	_ZN5RiscV6getPMTEv
 3469      E7800000 
 3470              	.LVL274:
 799:src/kernel/riscv.cpp ****         ((uint64*)PMT)[pmt2Entry] = (((uint64)pmt1 >> 12) << 10) | (uint64)1;
 3471              		.loc 1 799 9 is_stmt 1
 799:src/kernel/riscv.cpp ****         ((uint64*)PMT)[pmt2Entry] = (((uint64)pmt1 >> 12) << 10) | (uint64)1;
 3472              		.loc 1 799 52 is_stmt 0
 3473 10bc 9357C500 		srli	a5,a0,12
 799:src/kernel/riscv.cpp ****         ((uint64*)PMT)[pmt2Entry] = (((uint64)pmt1 >> 12) << 10) | (uint64)1;
 3474              		.loc 1 799 59
 3475 10c0 9397A700 		slli	a5,a5,10
 799:src/kernel/riscv.cpp ****         ((uint64*)PMT)[pmt2Entry] = (((uint64)pmt1 >> 12) << 10) | (uint64)1;
 3476              		.loc 1 799 66
 3477 10c4 93E71700 		ori	a5,a5,1
 799:src/kernel/riscv.cpp ****         ((uint64*)PMT)[pmt2Entry] = (((uint64)pmt1 >> 12) << 10) | (uint64)1;
 3478              		.loc 1 799 35
 3479 10c8 23B0FA00 		sd	a5,0(s5)
GAS LISTING /tmp/ccy6xxkH.s 			page 93


 3480 10cc 6FF01FF9 		j	.L166
 3481              	.LVL275:
 3482              	.L172:
 806:src/kernel/riscv.cpp ****         pmt0 = RiscV::getPMT();
 3483              		.loc 1 806 9 is_stmt 1
 806:src/kernel/riscv.cpp ****         pmt0 = RiscV::getPMT();
 3484              		.loc 1 806 29 is_stmt 0
 3485 10d0 97000000 		call	_ZN5RiscV6getPMTEv
 3485      E7800000 
 3486              	.LVL276:
 807:src/kernel/riscv.cpp ****         ((uint64*)pmt1)[pmt1Entry] = (((uint64)pmt0 >> 12) << 10) | (uint64)1;
 3487              		.loc 1 807 9 is_stmt 1
 807:src/kernel/riscv.cpp ****         ((uint64*)pmt1)[pmt1Entry] = (((uint64)pmt0 >> 12) << 10) | (uint64)1;
 3488              		.loc 1 807 53 is_stmt 0
 3489 10d8 9357C500 		srli	a5,a0,12
 807:src/kernel/riscv.cpp ****         ((uint64*)pmt1)[pmt1Entry] = (((uint64)pmt0 >> 12) << 10) | (uint64)1;
 3490              		.loc 1 807 60
 3491 10dc 9397A700 		slli	a5,a5,10
 807:src/kernel/riscv.cpp ****         ((uint64*)pmt1)[pmt1Entry] = (((uint64)pmt0 >> 12) << 10) | (uint64)1;
 3492              		.loc 1 807 67
 3493 10e0 93E71700 		ori	a5,a5,1
 807:src/kernel/riscv.cpp ****         ((uint64*)pmt1)[pmt1Entry] = (((uint64)pmt0 >> 12) << 10) | (uint64)1;
 3494              		.loc 1 807 36
 3495 10e4 2330F900 		sd	a5,0(s2)
 3496 10e8 6FF0DFF8 		j	.L168
 3497              		.cfi_endproc
 3498              	.LFE76:
 3500              		.align	2
 3501              		.globl	_ZN5RiscV12buildSectionEPvmmm
 3503              	_ZN5RiscV12buildSectionEPvmmm:
 3504              	.LFB73:
 757:src/kernel/riscv.cpp **** void RiscV::buildSection(void *PMT, uint64 start, uint64 end, uint64 mask) {
 3505              		.loc 1 757 76 is_stmt 1
 3506              		.cfi_startproc
 3507              	.LVL277:
 3508 10ec 130101FD 		addi	sp,sp,-48
 3509              		.cfi_def_cfa_offset 48
 3510 10f0 23341102 		sd	ra,40(sp)
 3511 10f4 23308102 		sd	s0,32(sp)
 3512 10f8 233C9100 		sd	s1,24(sp)
 3513 10fc 23382101 		sd	s2,16(sp)
 3514 1100 23343101 		sd	s3,8(sp)
 3515              		.cfi_offset 1, -8
 3516              		.cfi_offset 8, -16
 3517              		.cfi_offset 9, -24
 3518              		.cfi_offset 18, -32
 3519              		.cfi_offset 19, -40
 3520 1104 13040103 		addi	s0,sp,48
 3521              		.cfi_def_cfa 8, 0
 3522 1108 93840500 		mv	s1,a1
 3523 110c 13090600 		mv	s2,a2
 3524 1110 93890600 		mv	s3,a3
 758:src/kernel/riscv.cpp ****     for(uint64 i=start;i< end;i+=0x1000) {
 3525              		.loc 1 758 5
 3526              	.LVL278:
 3527              	.L175:
 3528              	.LBB182:
GAS LISTING /tmp/ccy6xxkH.s 			page 94


 758:src/kernel/riscv.cpp ****     for(uint64 i=start;i< end;i+=0x1000) {
 3529              		.loc 1 758 25 discriminator 3
 3530 1114 63F42403 		bgeu	s1,s2,.L173
 759:src/kernel/riscv.cpp ****         handlePageFault(kPMT,i, mask);
 3531              		.loc 1 759 9 discriminator 2
 759:src/kernel/riscv.cpp ****         handlePageFault(kPMT,i, mask);
 3532              		.loc 1 759 24 is_stmt 0 discriminator 2
 3533 1118 13860900 		mv	a2,s3
 3534 111c 93850400 		mv	a1,s1
 3535 1120 17050000 		ld	a0,.LANCHOR0+16
 3535      03350500 
 3536 1128 97000000 		call	_ZN5RiscV15handlePageFaultEPvmm
 3536      E7800000 
 3537              	.LVL279:
 758:src/kernel/riscv.cpp ****     for(uint64 i=start;i< end;i+=0x1000) {
 3538              		.loc 1 758 5 is_stmt 1 discriminator 2
 758:src/kernel/riscv.cpp ****     for(uint64 i=start;i< end;i+=0x1000) {
 3539              		.loc 1 758 32 is_stmt 0 discriminator 2
 3540 1130 B7170000 		li	a5,4096
 3541 1134 B384F400 		add	s1,s1,a5
 3542              	.LVL280:
 758:src/kernel/riscv.cpp ****     for(uint64 i=start;i< end;i+=0x1000) {
 3543              		.loc 1 758 5 discriminator 2
 3544 1138 6FF0DFFD 		j	.L175
 3545              	.L173:
 3546              	.LBE182:
 761:src/kernel/riscv.cpp **** }
 3547              		.loc 1 761 1
 3548 113c 83308102 		ld	ra,40(sp)
 3549              		.cfi_restore 1
 3550 1140 03340102 		ld	s0,32(sp)
 3551              		.cfi_restore 8
 3552              		.cfi_def_cfa 2, 48
 3553 1144 83348101 		ld	s1,24(sp)
 3554              		.cfi_restore 9
 3555              	.LVL281:
 3556 1148 03390101 		ld	s2,16(sp)
 3557              		.cfi_restore 18
 3558              	.LVL282:
 3559 114c 83398100 		ld	s3,8(sp)
 3560              		.cfi_restore 19
 3561              	.LVL283:
 3562 1150 13010103 		addi	sp,sp,48
 3563              		.cfi_def_cfa_offset 0
 3564 1154 67800000 		jr	ra
 3565              		.cfi_endproc
 3566              	.LFE73:
 3568              		.align	2
 3569              		.globl	_ZN5RiscV14buildKernelPMTEv
 3571              	_ZN5RiscV14buildKernelPMTEv:
 3572              	.LFB74:
 763:src/kernel/riscv.cpp **** void RiscV::buildKernelPMT() {
 3573              		.loc 1 763 30 is_stmt 1
 3574              		.cfi_startproc
 3575 1158 130101FD 		addi	sp,sp,-48
 3576              		.cfi_def_cfa_offset 48
 3577 115c 23341102 		sd	ra,40(sp)
GAS LISTING /tmp/ccy6xxkH.s 			page 95


 3578 1160 23308102 		sd	s0,32(sp)
 3579 1164 233C9100 		sd	s1,24(sp)
 3580 1168 23382101 		sd	s2,16(sp)
 3581 116c 23343101 		sd	s3,8(sp)
 3582 1170 23304101 		sd	s4,0(sp)
 3583              		.cfi_offset 1, -8
 3584              		.cfi_offset 8, -16
 3585              		.cfi_offset 9, -24
 3586              		.cfi_offset 18, -32
 3587              		.cfi_offset 19, -40
 3588              		.cfi_offset 20, -48
 3589 1174 13040103 		addi	s0,sp,48
 3590              		.cfi_def_cfa 8, 0
 764:src/kernel/riscv.cpp ****     RiscV::kPMT = RiscV::getPMT();
 3591              		.loc 1 764 5
 764:src/kernel/riscv.cpp ****     RiscV::kPMT = RiscV::getPMT();
 3592              		.loc 1 764 32 is_stmt 0
 3593 1178 97000000 		call	_ZN5RiscV6getPMTEv
 3593      E7800000 
 3594              	.LVL284:
 764:src/kernel/riscv.cpp ****     RiscV::kPMT = RiscV::getPMT();
 3595              		.loc 1 764 17
 3596 1180 97040000 		lla	s1,.LANCHOR0
 3596      93840400 
 3597 1188 23B8A400 		sd	a0,16(s1)
 765:src/kernel/riscv.cpp ****     uint64 bEnd = ((uint64)Buddy::BUDDY_START_ADDR + (Buddy::BLOCKS_AVAILABLE<<12));
 3598              		.loc 1 765 5 is_stmt 1
 765:src/kernel/riscv.cpp ****     uint64 bEnd = ((uint64)Buddy::BUDDY_START_ADDR + (Buddy::BLOCKS_AVAILABLE<<12));
 3599              		.loc 1 765 78 is_stmt 0
 3600 118c 97070000 		la	a5,_ZN5Buddy16BLOCKS_AVAILABLEE
 3600      83B70700 
 3601 1194 03B90700 		ld	s2,0(a5)
 3602 1198 1319C900 		slli	s2,s2,12
 765:src/kernel/riscv.cpp ****     uint64 bEnd = ((uint64)Buddy::BUDDY_START_ADDR + (Buddy::BLOCKS_AVAILABLE<<12));
 3603              		.loc 1 765 52
 3604 119c 97070000 		la	a5,_ZN5Buddy16BUDDY_START_ADDRE
 3604      83B70700 
 3605 11a4 83B70700 		ld	a5,0(a5)
 765:src/kernel/riscv.cpp ****     uint64 bEnd = ((uint64)Buddy::BUDDY_START_ADDR + (Buddy::BLOCKS_AVAILABLE<<12));
 3606              		.loc 1 765 12
 3607 11a8 3309F900 		add	s2,s2,a5
 3608              	.LVL285:
 768:src/kernel/riscv.cpp ****     RiscV::buildSection(kPMT, OS_ENTRY, KERNEL_TEXT_END, 0xb);
 3609              		.loc 1 768 5 is_stmt 1
 768:src/kernel/riscv.cpp ****     RiscV::buildSection(kPMT, OS_ENTRY, KERNEL_TEXT_END, 0xb);
 3610              		.loc 1 768 24 is_stmt 0
 3611 11ac 170A0000 		la	s4,kernelTextEnd
 3611      033A0A00 
 3612 11b4 9306B000 		li	a3,11
 3613 11b8 13060A00 		mv	a2,s4
 3614 11bc 93051000 		li	a1,1
 3615 11c0 9395F501 		slli	a1,a1,31
 3616 11c4 97000000 		call	_ZN5RiscV12buildSectionEPvmmm
 3616      E7800000 
 3617              	.LVL286:
 769:src/kernel/riscv.cpp ****     RiscV::buildSection(kPMT, KERNEL_TEXT_END, USER_TEXT_START, 0x7);
 3618              		.loc 1 769 5 is_stmt 1
GAS LISTING /tmp/ccy6xxkH.s 			page 96


 769:src/kernel/riscv.cpp ****     RiscV::buildSection(kPMT, KERNEL_TEXT_END, USER_TEXT_START, 0x7);
 3619              		.loc 1 769 24 is_stmt 0
 3620 11cc 97090000 		la	s3,userTextStart
 3620      83B90900 
 3621 11d4 93067000 		li	a3,7
 3622 11d8 13860900 		mv	a2,s3
 3623 11dc 93050A00 		mv	a1,s4
 3624 11e0 03B50401 		ld	a0,16(s1)
 3625 11e4 97000000 		call	_ZN5RiscV12buildSectionEPvmmm
 3625      E7800000 
 3626              	.LVL287:
 770:src/kernel/riscv.cpp ****     RiscV::buildSection(kPMT, USER_TEXT_START, USER_DATA_START, 0x1b);
 3627              		.loc 1 770 5 is_stmt 1
 770:src/kernel/riscv.cpp ****     RiscV::buildSection(kPMT, USER_TEXT_START, USER_DATA_START, 0x1b);
 3628              		.loc 1 770 24 is_stmt 0
 3629 11ec 170A0000 		la	s4,userDataStart
 3629      033A0A00 
 3630 11f4 9306B001 		li	a3,27
 3631 11f8 13060A00 		mv	a2,s4
 3632 11fc 93850900 		mv	a1,s3
 3633 1200 03B50401 		ld	a0,16(s1)
 3634 1204 97000000 		call	_ZN5RiscV12buildSectionEPvmmm
 3634      E7800000 
 3635              	.LVL288:
 771:src/kernel/riscv.cpp ****     RiscV::buildSection(kPMT, USER_DATA_START, USER_DATA_END, 0x17);
 3636              		.loc 1 771 5 is_stmt 1
 771:src/kernel/riscv.cpp ****     RiscV::buildSection(kPMT, USER_DATA_START, USER_DATA_END, 0x17);
 3637              		.loc 1 771 24 is_stmt 0
 3638 120c 97090000 		la	s3,userDataEnd
 3638      83B90900 
 3639 1214 93067001 		li	a3,23
 3640 1218 13860900 		mv	a2,s3
 3641 121c 93050A00 		mv	a1,s4
 3642 1220 03B50401 		ld	a0,16(s1)
 3643 1224 97000000 		call	_ZN5RiscV12buildSectionEPvmmm
 3643      E7800000 
 3644              	.LVL289:
 772:src/kernel/riscv.cpp ****     RiscV::buildSection(kPMT, USER_DATA_END, bEnd, 0x7);
 3645              		.loc 1 772 5 is_stmt 1
 772:src/kernel/riscv.cpp ****     RiscV::buildSection(kPMT, USER_DATA_END, bEnd, 0x7);
 3646              		.loc 1 772 24 is_stmt 0
 3647 122c 93067000 		li	a3,7
 3648 1230 13060900 		mv	a2,s2
 3649 1234 93850900 		mv	a1,s3
 3650 1238 03B50401 		ld	a0,16(s1)
 3651 123c 97000000 		call	_ZN5RiscV12buildSectionEPvmmm
 3651      E7800000 
 3652              	.LVL290:
 773:src/kernel/riscv.cpp ****     RiscV::buildSection(kPMT, bEnd, HEAP_END, 0x17);
 3653              		.loc 1 773 5 is_stmt 1
 773:src/kernel/riscv.cpp ****     RiscV::buildSection(kPMT, bEnd, HEAP_END, 0x17);
 3654              		.loc 1 773 24 is_stmt 0
 3655 1244 93067001 		li	a3,23
 3656 1248 97070000 		la	a5,HEAP_END_ADDR
 3656      83B70700 
 3657 1250 03B60700 		ld	a2,0(a5)
 3658 1254 93050900 		mv	a1,s2
GAS LISTING /tmp/ccy6xxkH.s 			page 97


 3659 1258 03B50401 		ld	a0,16(s1)
 3660 125c 97000000 		call	_ZN5RiscV12buildSectionEPvmmm
 3660      E7800000 
 3661              	.LVL291:
 776:src/kernel/riscv.cpp ****     RiscV::ms_sstatus(1<<18);
 3662              		.loc 1 776 5 is_stmt 1
 3663              	.LBB183:
 3664              	.LBB184:
 194:src/kernel/../../h/riscv.hpp **** }
 3665              		.loc 2 194 5
 194:src/kernel/../../h/riscv.hpp **** }
 3666              		.loc 2 194 55 is_stmt 0
 3667 1264 B7070400 		li	a5,262144
 3668              	#APP
 3669              	# 194 "src/kernel/../../h/riscv.hpp" 1
 3670              		csrs sstatus, a5
 3671              	# 0 "" 2
 3672              	.LVL292:
 3673              	#NO_APP
 3674              	.LBE184:
 3675              	.LBE183:
 777:src/kernel/riscv.cpp ****     handlePageFault(kPMT, (uint64)CONSOLE_RX_DATA,0xf);
 3676              		.loc 1 777 5 is_stmt 1
 777:src/kernel/riscv.cpp ****     handlePageFault(kPMT, (uint64)CONSOLE_RX_DATA,0xf);
 3677              		.loc 1 777 20 is_stmt 0
 3678 126c 1306F000 		li	a2,15
 3679 1270 97070000 		la	a5,CONSOLE_RX_DATA
 3679      83B70700 
 3680 1278 83B50700 		ld	a1,0(a5)
 3681 127c 03B50401 		ld	a0,16(s1)
 3682 1280 97000000 		call	_ZN5RiscV15handlePageFaultEPvmm
 3682      E7800000 
 3683              	.LVL293:
 778:src/kernel/riscv.cpp ****     handlePageFault(kPMT, (uint64)CONSOLE_TX_DATA,0xf);
 3684              		.loc 1 778 5 is_stmt 1
 778:src/kernel/riscv.cpp ****     handlePageFault(kPMT, (uint64)CONSOLE_TX_DATA,0xf);
 3685              		.loc 1 778 20 is_stmt 0
 3686 1288 1306F000 		li	a2,15
 3687 128c 97070000 		la	a5,CONSOLE_TX_DATA
 3687      83B70700 
 3688 1294 83B50700 		ld	a1,0(a5)
 3689 1298 03B50401 		ld	a0,16(s1)
 3690 129c 97000000 		call	_ZN5RiscV15handlePageFaultEPvmm
 3690      E7800000 
 3691              	.LVL294:
 779:src/kernel/riscv.cpp ****     handlePageFault(kPMT, (uint64)CONSOLE_STATUS,0xf);
 3692              		.loc 1 779 5 is_stmt 1
 779:src/kernel/riscv.cpp ****     handlePageFault(kPMT, (uint64)CONSOLE_STATUS,0xf);
 3693              		.loc 1 779 20 is_stmt 0
 3694 12a4 1306F000 		li	a2,15
 3695 12a8 97070000 		la	a5,CONSOLE_STATUS
 3695      83B70700 
 3696 12b0 83B50700 		ld	a1,0(a5)
 3697 12b4 03B50401 		ld	a0,16(s1)
 3698 12b8 97000000 		call	_ZN5RiscV15handlePageFaultEPvmm
 3698      E7800000 
 3699              	.LVL295:
GAS LISTING /tmp/ccy6xxkH.s 			page 98


 780:src/kernel/riscv.cpp ****     handlePageFault(kPMT, (uint64)0xc201004,0xf);
 3700              		.loc 1 780 5 is_stmt 1
 780:src/kernel/riscv.cpp ****     handlePageFault(kPMT, (uint64)0xc201004,0xf);
 3701              		.loc 1 780 20 is_stmt 0
 3702 12c0 1306F000 		li	a2,15
 3703 12c4 B715200C 		li	a1,203427840
 3704 12c8 93854500 		addi	a1,a1,4
 3705 12cc 03B50401 		ld	a0,16(s1)
 3706 12d0 97000000 		call	_ZN5RiscV15handlePageFaultEPvmm
 3706      E7800000 
 3707              	.LVL296:
 781:src/kernel/riscv.cpp **** }
 3708              		.loc 1 781 1
 3709 12d8 83308102 		ld	ra,40(sp)
 3710              		.cfi_restore 1
 3711 12dc 03340102 		ld	s0,32(sp)
 3712              		.cfi_restore 8
 3713              		.cfi_def_cfa 2, 48
 3714 12e0 83348101 		ld	s1,24(sp)
 3715              		.cfi_restore 9
 3716 12e4 03390101 		ld	s2,16(sp)
 3717              		.cfi_restore 18
 3718              	.LVL297:
 3719 12e8 83398100 		ld	s3,8(sp)
 3720              		.cfi_restore 19
 3721 12ec 033A0100 		ld	s4,0(sp)
 3722              		.cfi_restore 20
 3723 12f0 13010103 		addi	sp,sp,48
 3724              		.cfi_def_cfa_offset 0
 3725 12f4 67800000 		jr	ra
 3726              		.cfi_endproc
 3727              	.LFE74:
 3729              		.align	2
 3730              		.globl	_ZN5RiscV10initializeEv
 3732              	_ZN5RiscV10initializeEv:
 3733              	.LFB44:
  19:src/kernel/riscv.cpp **** void RiscV::initialize(){
 3734              		.loc 1 19 25 is_stmt 1
 3735              		.cfi_startproc
 3736 12f8 130101FF 		addi	sp,sp,-16
 3737              		.cfi_def_cfa_offset 16
 3738 12fc 23341100 		sd	ra,8(sp)
 3739 1300 23308100 		sd	s0,0(sp)
 3740              		.cfi_offset 1, -8
 3741              		.cfi_offset 8, -16
 3742 1304 13040101 		addi	s0,sp,16
 3743              		.cfi_def_cfa 8, 0
  20:src/kernel/riscv.cpp ****     RiscV::w_stvec((uint64) &RiscV::supervisorTrap);
 3744              		.loc 1 20 5
  20:src/kernel/riscv.cpp ****     RiscV::w_stvec((uint64) &RiscV::supervisorTrap);
 3745              		.loc 1 20 19 is_stmt 0
 3746 1308 97070000 		la	a5,_ZN5RiscV14supervisorTrapEv
 3746      83B70700 
 3747              	.LVL298:
 3748              	.LBB185:
 3749              	.LBB186:
 190:src/kernel/../../h/riscv.hpp **** }
GAS LISTING /tmp/ccy6xxkH.s 			page 99


 3750              		.loc 2 190 5 is_stmt 1
 190:src/kernel/../../h/riscv.hpp **** }
 3751              		.loc 2 190 56 is_stmt 0
 3752              	#APP
 3753              	# 190 "src/kernel/../../h/riscv.hpp" 1
 3754              		csrw stvec, a5
 3755              	# 0 "" 2
 3756              	.LVL299:
 3757              	#NO_APP
 3758              	.LBE186:
 3759              	.LBE185:
  21:src/kernel/riscv.cpp ****     kmem_init(BUDDY_START_ADDR_CONST, 4096);
 3760              		.loc 1 21 5 is_stmt 1
  21:src/kernel/riscv.cpp ****     kmem_init(BUDDY_START_ADDR_CONST, 4096);
 3761              		.loc 1 21 15 is_stmt 0
 3762 1314 97070000 		la	a5,HEAP_START_ADDR
 3762      83B70700 
 3763 131c 03B50700 		ld	a0,0(a5)
 3764 1320 1355C500 		srli	a0,a0,12
 3765 1324 13052500 		addi	a0,a0,2
  21:src/kernel/riscv.cpp ****     kmem_init(BUDDY_START_ADDR_CONST, 4096);
 3766              		.loc 1 21 14
 3767 1328 B7150000 		li	a1,4096
 3768 132c 1315C500 		slli	a0,a0,12
 3769 1330 97000000 		call	_Z9kmem_initPvi@plt
 3769      E7800000 
 3770              	.LVL300:
  22:src/kernel/riscv.cpp ****     MemoryAllocator::initialize();
 3771              		.loc 1 22 5 is_stmt 1
  22:src/kernel/riscv.cpp ****     MemoryAllocator::initialize();
 3772              		.loc 1 22 32 is_stmt 0
 3773 1338 97000000 		call	_ZN15MemoryAllocator10initializeEv@plt
 3773      E7800000 
 3774              	.LVL301:
  23:src/kernel/riscv.cpp ****     Scheduler::initialize();
 3775              		.loc 1 23 5 is_stmt 1
  23:src/kernel/riscv.cpp ****     Scheduler::initialize();
 3776              		.loc 1 23 26 is_stmt 0
 3777 1340 97000000 		call	_ZN9Scheduler10initializeEv@plt
 3777      E7800000 
 3778              	.LVL302:
  24:src/kernel/riscv.cpp ****     TCB::initialize();
 3779              		.loc 1 24 5 is_stmt 1
  24:src/kernel/riscv.cpp ****     TCB::initialize();
 3780              		.loc 1 24 20 is_stmt 0
 3781 1348 97000000 		call	_ZN3TCB10initializeEv@plt
 3781      E7800000 
 3782              	.LVL303:
  25:src/kernel/riscv.cpp ****     SCB::initialize();
 3783              		.loc 1 25 5 is_stmt 1
  25:src/kernel/riscv.cpp ****     SCB::initialize();
 3784              		.loc 1 25 20 is_stmt 0
 3785 1350 97000000 		call	_ZN3SCB10initializeEv@plt
 3785      E7800000 
 3786              	.LVL304:
  26:src/kernel/riscv.cpp ****     ConsoleUtil::initialize();
 3787              		.loc 1 26 5 is_stmt 1
GAS LISTING /tmp/ccy6xxkH.s 			page 100


  26:src/kernel/riscv.cpp ****     ConsoleUtil::initialize();
 3788              		.loc 1 26 28 is_stmt 0
 3789 1358 97000000 		call	_ZN11ConsoleUtil10initializeEv@plt
 3789      E7800000 
 3790              	.LVL305:
  27:src/kernel/riscv.cpp ****     RiscV::buildKernelPMT();
 3791              		.loc 1 27 5 is_stmt 1
  27:src/kernel/riscv.cpp ****     RiscV::buildKernelPMT();
 3792              		.loc 1 27 26 is_stmt 0
 3793 1360 97000000 		call	_ZN5RiscV14buildKernelPMTEv
 3793      E7800000 
 3794              	.LVL306:
  28:src/kernel/riscv.cpp ****     RiscV::startVirtualMemory();
 3795              		.loc 1 28 5 is_stmt 1
 3796              	.LBB187:
 3797              	.LBB188:
 246:src/kernel/../../h/riscv.hpp **** }
 247:src/kernel/../../h/riscv.hpp **** 
 248:src/kernel/../../h/riscv.hpp **** inline void RiscV::startVirtualMemory() {
 249:src/kernel/../../h/riscv.hpp ****     uint64 satp = ((uint64)1<<63) | ((uint64)(RiscV::kPMT)>>12);
 3798              		.loc 2 249 5
 3799              		.loc 2 249 59 is_stmt 0
 3800 1368 97070000 		ld	a5,.LANCHOR0+16
 3800      83B70700 
 3801 1370 93D7C700 		srli	a5,a5,12
 3802              		.loc 2 249 12
 3803 1374 1307F0FF 		li	a4,-1
 3804 1378 1317F703 		slli	a4,a4,63
 3805 137c B3E7E700 		or	a5,a5,a4
 3806              	.LVL307:
 250:src/kernel/../../h/riscv.hpp ****     asm("csrw satp, %[satp]" : : [satp] "r" (satp));
 3807              		.loc 2 250 5 is_stmt 1
 3808              		.loc 2 250 52 is_stmt 0
 3809              	#APP
 3810              	# 250 "src/kernel/../../h/riscv.hpp" 1
 251              	}
 3811              		csrw satp, a5
 3812              	# 0 "" 2
 3813              	.LVL308:
 3814              	#NO_APP
 3815              	.LBE188:
 3816              	.LBE187:
  29:src/kernel/riscv.cpp ****     RiscV::enableInterrupts();
 3817              		.loc 1 29 5 is_stmt 1
 218:src/kernel/../../h/riscv.hpp ****     RiscV::ms_sie(SIP_SEIE);
 3818              		.loc 2 218 5
 3819              	.LBB189:
 3820              	.LBB190:
 3821              	.LBB191:
 210:src/kernel/../../h/riscv.hpp **** }
 3822              		.loc 2 210 5
 210:src/kernel/../../h/riscv.hpp **** }
 3823              		.loc 2 210 51 is_stmt 0
 3824 1384 93072000 		li	a5,2
 3825              	#APP
 3826              	# 210 "src/kernel/../../h/riscv.hpp" 1
 3827              		csrs sie, a5
GAS LISTING /tmp/ccy6xxkH.s 			page 101


 3828              	# 0 "" 2
 3829              	.LVL309:
 3830              	#NO_APP
 3831              	.LBE191:
 3832              	.LBE190:
 3833              	.LBE189:
 219:src/kernel/../../h/riscv.hpp ****     RiscV::ms_sstatus(SSTATUS_SIE);
 3834              		.loc 2 219 5 is_stmt 1
 3835              	.LBB196:
 3836              	.LBB192:
 3837              	.LBB193:
 210:src/kernel/../../h/riscv.hpp **** }
 3838              		.loc 2 210 5
 210:src/kernel/../../h/riscv.hpp **** }
 3839              		.loc 2 210 51 is_stmt 0
 3840 138c 13070020 		li	a4,512
 3841              	#APP
 3842              	# 210 "src/kernel/../../h/riscv.hpp" 1
 3843              		csrs sie, a4
 3844              	# 0 "" 2
 3845              	.LVL310:
 3846              	#NO_APP
 3847              	.LBE193:
 3848              	.LBE192:
 3849              	.LBE196:
 220:src/kernel/../../h/riscv.hpp **** }
 3850              		.loc 2 220 5 is_stmt 1
 3851              	.LBB197:
 3852              	.LBB194:
 3853              	.LBB195:
 194:src/kernel/../../h/riscv.hpp **** }
 3854              		.loc 2 194 5
 194:src/kernel/../../h/riscv.hpp **** }
 3855              		.loc 2 194 55 is_stmt 0
 3856              	#APP
 3857              	# 194 "src/kernel/../../h/riscv.hpp" 1
 3858              		csrs sstatus, a5
 3859              	# 0 "" 2
 3860              	.LVL311:
 3861              	#NO_APP
 3862              	.LBE195:
 3863              	.LBE194:
 3864              	.LBE197:
  30:src/kernel/riscv.cpp **** }
 3865              		.loc 1 30 1
 3866 1398 83308100 		ld	ra,8(sp)
 3867              		.cfi_restore 1
 3868 139c 03340100 		ld	s0,0(sp)
 3869              		.cfi_restore 8
 3870              		.cfi_def_cfa 2, 16
 3871 13a0 13010101 		addi	sp,sp,16
 3872              		.cfi_def_cfa_offset 0
 3873 13a4 67800000 		jr	ra
 3874              		.cfi_endproc
 3875              	.LFE44:
 3877              		.globl	_ZN5RiscV4uPMTE
 3878              		.globl	_ZN5RiscV4kPMTE
GAS LISTING /tmp/ccy6xxkH.s 			page 102


 3879              		.globl	_ZN5RiscV16userMainFinishedE
 3880              		.globl	_ZN5RiscV10globalTimeE
 3881              		.bss
 3882              		.align	3
 3883              		.set	.LANCHOR0,. + 0
 3886              	_ZN5RiscV16userMainFinishedE:
 3887 0000 00       		.zero	1
 3888 0001 00000000 		.zero	7
 3888      000000
 3891              	_ZN5RiscV10globalTimeE:
 3892 0008 00000000 		.zero	8
 3892      00000000 
 3895              	_ZN5RiscV4kPMTE:
 3896 0010 00000000 		.zero	8
 3896      00000000 
 3899              	_ZN5RiscV4uPMTE:
 3900 0018 00000000 		.zero	8
 3900      00000000 
 3901              		.text
 3902              	.Letext0:
 3903              		.file 3 "src/kernel/../../h/../lib/hw.h"
 3904              		.file 4 "src/kernel/../../h/tcb.hpp"
 3905              		.file 5 "src/kernel/../../h/../h/utility.hpp"
 3906              		.file 6 "src/kernel/../../h/memoryAllocator.hpp"
 3907              		.file 7 "src/kernel/../../h/../h/../h/../h/buddyAllocator.hpp"
 3908              		.file 8 "src/kernel/../../h/../h/../h/../h/consoleUtil.hpp"
 3909              		.file 9 "src/kernel/../../h/scb.hpp"
 3910              		.file 10 "src/kernel/../../h/../h/../h/../h/../h/slab_t.hpp"
 3911              		.file 11 "src/kernel/../../h/../h/../h/../h/cache_t.hpp"
 3912              		.file 12 "src/kernel/../../h/scheduler.hpp"
 3913              		.file 13 "src/kernel/../../h/../h/slab.hpp"
 12035              		.align	3
 12038              	DW.ref.__gxx_personality_v0:
 12039 0000 00000000 		.dword	__gxx_personality_v0
 12039      00000000 
 12040              		.ident	"GCC: (Ubuntu 9.4.0-1ubuntu1~20.04) 9.4.0"
 12041              		.section	.note.GNU-stack,"",@progbits
GAS LISTING /tmp/ccy6xxkH.s 			page 103


DEFINED SYMBOLS
                            *ABS*:0000000000000000 riscv.cpp
     /tmp/ccy6xxkH.s:9      .text:0000000000000000 _ZN5RiscV10popSppSpieEv
     /tmp/ccy6xxkH.s:13     .text:0000000000000000 .L0 
     /tmp/ccy6xxkH.s:14     .text:0000000000000000 .L0 
     /tmp/ccy6xxkH.s:15     .text:0000000000000004 .L0 
     /tmp/ccy6xxkH.s:17     .text:0000000000000008 .L0 
     /tmp/ccy6xxkH.s:19     .text:000000000000000c .L0 
     /tmp/ccy6xxkH.s:22     .text:000000000000000c .L0 
     /tmp/ccy6xxkH.s:23     .text:000000000000000c .L0 
     /tmp/ccy6xxkH.s:24     .text:000000000000000c .L0 
     /tmp/ccy6xxkH.s:28     .text:000000000000001c .L0 
     /tmp/ccy6xxkH.s:32     .text:0000000000000024 .L0 
     /tmp/ccy6xxkH.s:33     .text:0000000000000024 .L0 
     /tmp/ccy6xxkH.s:34     .text:0000000000000024 .L0 
src/kernel/riscv.cpp:40     .text:0000000000000028 .L0 
     /tmp/ccy6xxkH.s:41     .text:000000000000002c .L0 
     /tmp/ccy6xxkH.s:43     .text:000000000000002c .L0 
src/kernel/riscv.cpp:41     .text:0000000000000030 .L0 
     /tmp/ccy6xxkH.s:50     .text:0000000000000034 .L0 
     /tmp/ccy6xxkH.s:52     .text:0000000000000034 .L0 
     /tmp/ccy6xxkH.s:61     .text:0000000000000040 .L0 
src/kernel/riscv.cpp:44     .text:0000000000000040 .L0 
     /tmp/ccy6xxkH.s:68     .text:0000000000000044 .L0 
     /tmp/ccy6xxkH.s:69     .text:0000000000000048 .L0 
     /tmp/ccy6xxkH.s:70     .text:0000000000000048 .L0 
     /tmp/ccy6xxkH.s:71     .text:0000000000000048 .L0 
     /tmp/ccy6xxkH.s:73     .text:000000000000004c .L0 
     /tmp/ccy6xxkH.s:77     .text:0000000000000050 .L0 
     /tmp/ccy6xxkH.s:79     .text:0000000000000050 .L0 
src/kernel/riscv.cpp:36     .text:0000000000000050 .L0 
     /tmp/ccy6xxkH.s:86     .text:0000000000000058 .L0 
     /tmp/ccy6xxkH.s:92     .text:0000000000000058 _ZN5RiscV28executeThreadDispatchSyscallEv
     /tmp/ccy6xxkH.s:95     .text:0000000000000058 .L0 
     /tmp/ccy6xxkH.s:96     .text:0000000000000058 .L0 
     /tmp/ccy6xxkH.s:97     .text:000000000000005c .L0 
     /tmp/ccy6xxkH.s:100    .text:0000000000000064 .L0 
     /tmp/ccy6xxkH.s:101    .text:0000000000000064 .L0 
     /tmp/ccy6xxkH.s:103    .text:0000000000000068 .L0 
     /tmp/ccy6xxkH.s:105    .text:0000000000000068 .L0 
     /tmp/ccy6xxkH.s:106    .text:0000000000000068 .L0 
     /tmp/ccy6xxkH.s:110    .text:0000000000000074 .L0 
     /tmp/ccy6xxkH.s:111    .text:0000000000000074 .L0 
     /tmp/ccy6xxkH.s:114    .text:000000000000007c .L0 
     /tmp/ccy6xxkH.s:115    .text:000000000000007c .L0 
     /tmp/ccy6xxkH.s:118    .text:0000000000000084 .L0 
     /tmp/ccy6xxkH.s:119    .text:0000000000000088 .L0 
     /tmp/ccy6xxkH.s:121    .text:000000000000008c .L0 
     /tmp/ccy6xxkH.s:122    .text:000000000000008c .L0 
     /tmp/ccy6xxkH.s:124    .text:0000000000000090 .L0 
     /tmp/ccy6xxkH.s:126    .text:0000000000000094 .L0 
     /tmp/ccy6xxkH.s:132    .text:0000000000000094 _ZN5RiscV18executePutcSyscallEv
     /tmp/ccy6xxkH.s:135    .text:0000000000000094 .L0 
     /tmp/ccy6xxkH.s:136    .text:0000000000000094 .L0 
     /tmp/ccy6xxkH.s:137    .text:0000000000000098 .L0 
     /tmp/ccy6xxkH.s:140    .text:00000000000000a0 .L0 
     /tmp/ccy6xxkH.s:141    .text:00000000000000a0 .L0 
GAS LISTING /tmp/ccy6xxkH.s 			page 104


     /tmp/ccy6xxkH.s:143    .text:00000000000000a4 .L0 
     /tmp/ccy6xxkH.s:145    .text:00000000000000a4 .L0 
     /tmp/ccy6xxkH.s:146    .text:00000000000000a4 .L0 
     /tmp/ccy6xxkH.s:148    .text:00000000000000ac .L0 
     /tmp/ccy6xxkH.s:150    .text:00000000000000b0 .L0 
     /tmp/ccy6xxkH.s:151    .text:00000000000000b0 .L0 
     /tmp/ccy6xxkH.s:157    .text:00000000000000c4 .L0 
     /tmp/ccy6xxkH.s:158    .text:00000000000000c4 .L0 
src/kernel/riscv.cpp:511    .text:00000000000000c4 .L0 
     /tmp/ccy6xxkH.s:165    .text:00000000000000c8 .L0 
     /tmp/ccy6xxkH.s:167    .text:00000000000000c8 .L0 
     /tmp/ccy6xxkH.s:171    .text:00000000000000d4 .L0 
     /tmp/ccy6xxkH.s:172    .text:00000000000000d8 .L0 
     /tmp/ccy6xxkH.s:174    .text:00000000000000dc .L0 
     /tmp/ccy6xxkH.s:175    .text:00000000000000dc .L0 
     /tmp/ccy6xxkH.s:177    .text:00000000000000e0 .L0 
     /tmp/ccy6xxkH.s:179    .text:00000000000000e4 .L0 
     /tmp/ccy6xxkH.s:185    .text:00000000000000e4 _ZN5RiscV29jumpToDesignatedPrivilegeModeEv
     /tmp/ccy6xxkH.s:188    .text:00000000000000e4 .L0 
     /tmp/ccy6xxkH.s:189    .text:00000000000000e4 .L0 
     /tmp/ccy6xxkH.s:190    .text:00000000000000e8 .L0 
     /tmp/ccy6xxkH.s:192    .text:00000000000000ec .L0 
     /tmp/ccy6xxkH.s:194    .text:00000000000000f0 .L0 
     /tmp/ccy6xxkH.s:196    .text:00000000000000f0 .L0 
     /tmp/ccy6xxkH.s:197    .text:00000000000000f0 .L0 
     /tmp/ccy6xxkH.s:201    .text:0000000000000100 .L0 
     /tmp/ccy6xxkH.s:208    .text:0000000000000108 .L0 
     /tmp/ccy6xxkH.s:209    .text:0000000000000108 .L0 
     /tmp/ccy6xxkH.s:210    .text:0000000000000108 .L0 
     /tmp/ccy6xxkH.s:221    .text:0000000000000110 .L0 
     /tmp/ccy6xxkH.s:222    .text:0000000000000114 .L0 
     /tmp/ccy6xxkH.s:223    .text:0000000000000114 .L0 
     /tmp/ccy6xxkH.s:224    .text:0000000000000114 .L0 
     /tmp/ccy6xxkH.s:226    .text:0000000000000118 .L0 
     /tmp/ccy6xxkH.s:229    .text:000000000000011c .L0 
     /tmp/ccy6xxkH.s:234    .text:000000000000011c .L0 
     /tmp/ccy6xxkH.s:235    .text:000000000000011c .L0 
     /tmp/ccy6xxkH.s:236    .text:000000000000011c .L0 
     /tmp/ccy6xxkH.s:243    .text:0000000000000124 .L0 
     /tmp/ccy6xxkH.s:246    .text:0000000000000128 .L0 
     /tmp/ccy6xxkH.s:252    .text:0000000000000128 _ZN5RiscV8finalizeEv
     /tmp/ccy6xxkH.s:255    .text:0000000000000128 .L0 
     /tmp/ccy6xxkH.s:256    .text:0000000000000128 .L0 
     /tmp/ccy6xxkH.s:257    .text:000000000000012c .L0 
     /tmp/ccy6xxkH.s:260    .text:0000000000000134 .L0 
     /tmp/ccy6xxkH.s:261    .text:0000000000000134 .L0 
     /tmp/ccy6xxkH.s:263    .text:0000000000000138 .L0 
     /tmp/ccy6xxkH.s:265    .text:0000000000000138 .L0 
     /tmp/ccy6xxkH.s:266    .text:0000000000000138 .L0 
     /tmp/ccy6xxkH.s:269    .text:0000000000000144 .L0 
     /tmp/ccy6xxkH.s:270    .text:0000000000000144 .L0 
     /tmp/ccy6xxkH.s:273    .text:0000000000000150 .L0 
     /tmp/ccy6xxkH.s:274    .text:0000000000000150 .L0 
     /tmp/ccy6xxkH.s:279    .text:000000000000015c .L0 
     /tmp/ccy6xxkH.s:282    .text:000000000000015c .L0 
     /tmp/ccy6xxkH.s:289    .text:000000000000015c .L0 
     /tmp/ccy6xxkH.s:290    .text:000000000000015c .L0 
GAS LISTING /tmp/ccy6xxkH.s 			page 105


     /tmp/ccy6xxkH.s:291    .text:000000000000015c .L0 
     /tmp/ccy6xxkH.s:304    .text:0000000000000164 .L0 
     /tmp/ccy6xxkH.s:310    .text:0000000000000164 .L0 
     /tmp/ccy6xxkH.s:311    .text:0000000000000164 .L0 
     /tmp/ccy6xxkH.s:312    .text:0000000000000164 .L0 
     /tmp/ccy6xxkH.s:326    .text:000000000000016c .L0 
     /tmp/ccy6xxkH.s:327    .text:000000000000016c .L0 
     /tmp/ccy6xxkH.s:331    .text:000000000000017c .L0 
     /tmp/ccy6xxkH.s:332    .text:000000000000017c .L0 
     /tmp/ccy6xxkH.s:334    .text:0000000000000180 .L0 
     /tmp/ccy6xxkH.s:337    .text:000000000000018c .L0 
     /tmp/ccy6xxkH.s:340    .text:0000000000000190 .L0 
     /tmp/ccy6xxkH.s:341    .text:0000000000000190 .L0 
     /tmp/ccy6xxkH.s:347    .text:00000000000001a4 .L0 
     /tmp/ccy6xxkH.s:348    .text:00000000000001a4 .L0 
     /tmp/ccy6xxkH.s:354    .text:00000000000001c0 .L0 
     /tmp/ccy6xxkH.s:355    .text:00000000000001c0 .L0 
     /tmp/ccy6xxkH.s:358    .text:00000000000001c8 .L0 
     /tmp/ccy6xxkH.s:361    .text:00000000000001cc .L0 
     /tmp/ccy6xxkH.s:362    .text:00000000000001d0 .L0 
     /tmp/ccy6xxkH.s:364    .text:00000000000001d4 .L0 
     /tmp/ccy6xxkH.s:365    .text:00000000000001d4 .L0 
     /tmp/ccy6xxkH.s:367    .text:00000000000001d8 .L0 
     /tmp/ccy6xxkH.s:369    .text:00000000000001dc .L0 
     /tmp/ccy6xxkH.s:375    .text:00000000000001dc _ZN5RiscV16saveA0toSscratchEv
     /tmp/ccy6xxkH.s:378    .text:00000000000001dc .L0 
     /tmp/ccy6xxkH.s:379    .text:00000000000001dc .L0 
     /tmp/ccy6xxkH.s:380    .text:00000000000001e0 .L0 
     /tmp/ccy6xxkH.s:382    .text:00000000000001e4 .L0 
     /tmp/ccy6xxkH.s:384    .text:00000000000001e8 .L0 
     /tmp/ccy6xxkH.s:386    .text:00000000000001e8 .L0 
     /tmp/ccy6xxkH.s:387    .text:00000000000001e8 .L0 
src/kernel/riscv.cpp:591    .text:00000000000001e8 .L0 
     /tmp/ccy6xxkH.s:393    .text:00000000000001ec .L0 
     /tmp/ccy6xxkH.s:395    .text:00000000000001ec .L0 
src/kernel/riscv.cpp:592    .text:00000000000001fc .L0 
     /tmp/ccy6xxkH.s:404    .text:0000000000000200 .L0 
src/kernel/riscv.cpp:593    .text:0000000000000200 .L0 
     /tmp/ccy6xxkH.s:409    .text:0000000000000204 .L0 
src/kernel/riscv.cpp:594    .text:0000000000000204 .L0 
     /tmp/ccy6xxkH.s:415    .text:0000000000000208 .L0 
     /tmp/ccy6xxkH.s:416    .text:000000000000020c .L0 
     /tmp/ccy6xxkH.s:417    .text:000000000000020c .L0 
     /tmp/ccy6xxkH.s:419    .text:0000000000000210 .L0 
     /tmp/ccy6xxkH.s:421    .text:0000000000000214 .L0 
     /tmp/ccy6xxkH.s:427    .text:0000000000000214 _ZN5RiscV22executeMemAllocSyscallEv
     /tmp/ccy6xxkH.s:430    .text:0000000000000214 .L0 
     /tmp/ccy6xxkH.s:431    .text:0000000000000214 .L0 
     /tmp/ccy6xxkH.s:432    .text:0000000000000218 .L0 
     /tmp/ccy6xxkH.s:435    .text:0000000000000220 .L0 
     /tmp/ccy6xxkH.s:436    .text:0000000000000220 .L0 
     /tmp/ccy6xxkH.s:438    .text:0000000000000224 .L0 
     /tmp/ccy6xxkH.s:440    .text:0000000000000224 .L0 
     /tmp/ccy6xxkH.s:441    .text:0000000000000224 .L0 
src/kernel/riscv.cpp:209    .text:0000000000000224 .L0 
     /tmp/ccy6xxkH.s:448    .text:0000000000000228 .L0 
     /tmp/ccy6xxkH.s:450    .text:0000000000000228 .L0 
GAS LISTING /tmp/ccy6xxkH.s 			page 106


     /tmp/ccy6xxkH.s:453    .text:0000000000000230 .L0 
src/kernel/riscv.cpp:214    .text:0000000000000230 .L0 
     /tmp/ccy6xxkH.s:459    .text:0000000000000234 .L0 
     /tmp/ccy6xxkH.s:461    .text:0000000000000234 .L0 
     /tmp/ccy6xxkH.s:464    .text:000000000000023c .L0 
     /tmp/ccy6xxkH.s:465    .text:0000000000000240 .L0 
     /tmp/ccy6xxkH.s:467    .text:0000000000000244 .L0 
     /tmp/ccy6xxkH.s:468    .text:0000000000000244 .L0 
     /tmp/ccy6xxkH.s:470    .text:0000000000000248 .L0 
     /tmp/ccy6xxkH.s:472    .text:000000000000024c .L0 
     /tmp/ccy6xxkH.s:478    .text:000000000000024c _ZN5RiscV21executeMemFreeSyscallEv
     /tmp/ccy6xxkH.s:481    .text:000000000000024c .L0 
     /tmp/ccy6xxkH.s:482    .text:000000000000024c .L0 
     /tmp/ccy6xxkH.s:483    .text:0000000000000250 .L0 
     /tmp/ccy6xxkH.s:486    .text:0000000000000258 .L0 
     /tmp/ccy6xxkH.s:487    .text:0000000000000258 .L0 
     /tmp/ccy6xxkH.s:489    .text:000000000000025c .L0 
     /tmp/ccy6xxkH.s:491    .text:000000000000025c .L0 
     /tmp/ccy6xxkH.s:492    .text:000000000000025c .L0 
     /tmp/ccy6xxkH.s:496    .text:000000000000026c .L0 
     /tmp/ccy6xxkH.s:500    .text:0000000000000270 .L0 
src/kernel/riscv.cpp:234    .text:0000000000000270 .L0 
     /tmp/ccy6xxkH.s:506    .text:0000000000000274 .L0 
     /tmp/ccy6xxkH.s:508    .text:0000000000000274 .L0 
     /tmp/ccy6xxkH.s:511    .text:000000000000027c .L0 
     /tmp/ccy6xxkH.s:512    .text:0000000000000280 .L0 
     /tmp/ccy6xxkH.s:513    .text:0000000000000280 .L0 
     /tmp/ccy6xxkH.s:515    .text:0000000000000284 .L0 
     /tmp/ccy6xxkH.s:516    .text:0000000000000284 .L0 
     /tmp/ccy6xxkH.s:518    .text:0000000000000288 .L0 
     /tmp/ccy6xxkH.s:521    .text:000000000000028c .L0 
     /tmp/ccy6xxkH.s:523    .text:000000000000028c .L0 
src/kernel/riscv.cpp:227    .text:000000000000028c .L0 
     /tmp/ccy6xxkH.s:530    .text:0000000000000290 .L0 
     /tmp/ccy6xxkH.s:532    .text:0000000000000290 .L0 
     /tmp/ccy6xxkH.s:535    .text:0000000000000298 .L0 
     /tmp/ccy6xxkH.s:536    .text:000000000000029c .L0 
     /tmp/ccy6xxkH.s:542    .text:000000000000029c _ZN5RiscV26executeThreadCreateSyscallEv
     /tmp/ccy6xxkH.s:545    .text:000000000000029c .L0 
     /tmp/ccy6xxkH.s:12038  .data.rel.local.DW.ref.__gxx_personality_v0:0000000000000000 DW.ref.__gxx_personality_v0
     /tmp/ccy6xxkH.s:548    .text:000000000000029c .L0 
     /tmp/ccy6xxkH.s:549    .text:00000000000002a0 .L0 
     /tmp/ccy6xxkH.s:557    .text:00000000000002bc .L0 
     /tmp/ccy6xxkH.s:558    .text:00000000000002bc .L0 
     /tmp/ccy6xxkH.s:559    .text:00000000000002bc .L0 
     /tmp/ccy6xxkH.s:560    .text:00000000000002bc .L0 
     /tmp/ccy6xxkH.s:561    .text:00000000000002bc .L0 
     /tmp/ccy6xxkH.s:562    .text:00000000000002bc .L0 
     /tmp/ccy6xxkH.s:563    .text:00000000000002bc .L0 
     /tmp/ccy6xxkH.s:565    .text:00000000000002c0 .L0 
     /tmp/ccy6xxkH.s:567    .text:00000000000002c0 .L0 
     /tmp/ccy6xxkH.s:568    .text:00000000000002c0 .L0 
src/kernel/riscv.cpp:244    .text:00000000000002c0 .L0 
     /tmp/ccy6xxkH.s:575    .text:00000000000002c4 .L0 
src/kernel/riscv.cpp:245    .text:00000000000002c4 .L0 
     /tmp/ccy6xxkH.s:581    .text:00000000000002c8 .L0 
src/kernel/riscv.cpp:246    .text:00000000000002c8 .L0 
GAS LISTING /tmp/ccy6xxkH.s 			page 107


     /tmp/ccy6xxkH.s:587    .text:00000000000002cc .L0 
src/kernel/riscv.cpp:247    .text:00000000000002cc .L0 
     /tmp/ccy6xxkH.s:593    .text:00000000000002d0 .L0 
     /tmp/ccy6xxkH.s:595    .text:00000000000002d0 .L0 
     /tmp/ccy6xxkH.s:603    .text:00000000000002e4 .L0 
     /tmp/ccy6xxkH.s:613    .text:00000000000002fc .L0 
     /tmp/ccy6xxkH.s:614    .text:00000000000002fc .L0 
     /tmp/ccy6xxkH.s:616    .text:0000000000000300 .L0 
     /tmp/ccy6xxkH.s:617    .text:0000000000000300 .L0 
     /tmp/ccy6xxkH.s:619    .text:0000000000000304 .L0 
     /tmp/ccy6xxkH.s:621    .text:0000000000000308 .L0 
     /tmp/ccy6xxkH.s:622    .text:0000000000000308 .L0 
     /tmp/ccy6xxkH.s:629    .text:0000000000000314 .L0 
     /tmp/ccy6xxkH.s:630    .text:0000000000000314 .L0 
     /tmp/ccy6xxkH.s:632    .text:0000000000000318 .L0 
     /tmp/ccy6xxkH.s:636    .text:000000000000031c .L0 
src/kernel/riscv.cpp:264    .text:000000000000031c .L0 
     /tmp/ccy6xxkH.s:642    .text:0000000000000320 .L0 
     /tmp/ccy6xxkH.s:644    .text:0000000000000320 .L0 
     /tmp/ccy6xxkH.s:647    .text:0000000000000328 .L0 
     /tmp/ccy6xxkH.s:648    .text:000000000000032c .L0 
     /tmp/ccy6xxkH.s:649    .text:000000000000032c .L0 
     /tmp/ccy6xxkH.s:651    .text:0000000000000330 .L0 
     /tmp/ccy6xxkH.s:652    .text:0000000000000330 .L0 
     /tmp/ccy6xxkH.s:654    .text:0000000000000334 .L0 
     /tmp/ccy6xxkH.s:657    .text:0000000000000338 .L0 
     /tmp/ccy6xxkH.s:660    .text:000000000000033c .L0 
     /tmp/ccy6xxkH.s:663    .text:0000000000000340 .L0 
     /tmp/ccy6xxkH.s:666    .text:0000000000000344 .L0 
     /tmp/ccy6xxkH.s:669    .text:0000000000000348 .L0 
     /tmp/ccy6xxkH.s:673    .text:000000000000034c .L0 
     /tmp/ccy6xxkH.s:675    .text:000000000000034c .L0 
     /tmp/ccy6xxkH.s:682    .text:0000000000000358 .L0 
     /tmp/ccy6xxkH.s:690    .text:0000000000000370 .L0 
     /tmp/ccy6xxkH.s:720    .text:0000000000000370 _ZN5RiscV30executeThreadAttachBodySyscallEv
     /tmp/ccy6xxkH.s:723    .text:0000000000000370 .L0 
     /tmp/ccy6xxkH.s:726    .text:0000000000000370 .L0 
     /tmp/ccy6xxkH.s:727    .text:0000000000000374 .L0 
     /tmp/ccy6xxkH.s:735    .text:0000000000000390 .L0 
     /tmp/ccy6xxkH.s:736    .text:0000000000000390 .L0 
     /tmp/ccy6xxkH.s:737    .text:0000000000000390 .L0 
     /tmp/ccy6xxkH.s:738    .text:0000000000000390 .L0 
     /tmp/ccy6xxkH.s:739    .text:0000000000000390 .L0 
     /tmp/ccy6xxkH.s:740    .text:0000000000000390 .L0 
     /tmp/ccy6xxkH.s:741    .text:0000000000000390 .L0 
     /tmp/ccy6xxkH.s:743    .text:0000000000000394 .L0 
     /tmp/ccy6xxkH.s:745    .text:0000000000000394 .L0 
     /tmp/ccy6xxkH.s:746    .text:0000000000000394 .L0 
src/kernel/riscv.cpp:275    .text:0000000000000394 .L0 
     /tmp/ccy6xxkH.s:753    .text:0000000000000398 .L0 
src/kernel/riscv.cpp:276    .text:0000000000000398 .L0 
     /tmp/ccy6xxkH.s:759    .text:000000000000039c .L0 
src/kernel/riscv.cpp:277    .text:000000000000039c .L0 
     /tmp/ccy6xxkH.s:765    .text:00000000000003a0 .L0 
src/kernel/riscv.cpp:278    .text:00000000000003a0 .L0 
     /tmp/ccy6xxkH.s:771    .text:00000000000003a4 .L0 
     /tmp/ccy6xxkH.s:773    .text:00000000000003a4 .L0 
GAS LISTING /tmp/ccy6xxkH.s 			page 108


     /tmp/ccy6xxkH.s:781    .text:00000000000003b8 .L0 
     /tmp/ccy6xxkH.s:791    .text:00000000000003d0 .L0 
     /tmp/ccy6xxkH.s:792    .text:00000000000003d0 .L0 
     /tmp/ccy6xxkH.s:794    .text:00000000000003d4 .L0 
     /tmp/ccy6xxkH.s:795    .text:00000000000003d4 .L0 
     /tmp/ccy6xxkH.s:797    .text:00000000000003d8 .L0 
     /tmp/ccy6xxkH.s:798    .text:00000000000003d8 .L0 
     /tmp/ccy6xxkH.s:800    .text:00000000000003dc .L0 
     /tmp/ccy6xxkH.s:801    .text:00000000000003dc .L0 
     /tmp/ccy6xxkH.s:803    .text:00000000000003e0 .L0 
     /tmp/ccy6xxkH.s:807    .text:00000000000003e4 .L0 
src/kernel/riscv.cpp:293    .text:00000000000003e4 .L0 
     /tmp/ccy6xxkH.s:813    .text:00000000000003e8 .L0 
     /tmp/ccy6xxkH.s:815    .text:00000000000003e8 .L0 
     /tmp/ccy6xxkH.s:818    .text:00000000000003f0 .L0 
     /tmp/ccy6xxkH.s:819    .text:00000000000003f4 .L0 
     /tmp/ccy6xxkH.s:820    .text:00000000000003f4 .L0 
     /tmp/ccy6xxkH.s:822    .text:00000000000003f8 .L0 
     /tmp/ccy6xxkH.s:823    .text:00000000000003f8 .L0 
     /tmp/ccy6xxkH.s:825    .text:00000000000003fc .L0 
     /tmp/ccy6xxkH.s:828    .text:0000000000000400 .L0 
     /tmp/ccy6xxkH.s:831    .text:0000000000000404 .L0 
     /tmp/ccy6xxkH.s:834    .text:0000000000000408 .L0 
     /tmp/ccy6xxkH.s:837    .text:000000000000040c .L0 
     /tmp/ccy6xxkH.s:840    .text:0000000000000410 .L0 
     /tmp/ccy6xxkH.s:844    .text:0000000000000414 .L0 
     /tmp/ccy6xxkH.s:846    .text:0000000000000414 .L0 
     /tmp/ccy6xxkH.s:853    .text:0000000000000420 .L0 
     /tmp/ccy6xxkH.s:861    .text:0000000000000438 .L0 
     /tmp/ccy6xxkH.s:886    .text:0000000000000438 _ZN5RiscV25executeThreadStartSyscallEv
     /tmp/ccy6xxkH.s:889    .text:0000000000000438 .L0 
     /tmp/ccy6xxkH.s:890    .text:0000000000000438 .L0 
     /tmp/ccy6xxkH.s:891    .text:000000000000043c .L0 
     /tmp/ccy6xxkH.s:894    .text:0000000000000444 .L0 
     /tmp/ccy6xxkH.s:895    .text:0000000000000444 .L0 
     /tmp/ccy6xxkH.s:897    .text:0000000000000448 .L0 
     /tmp/ccy6xxkH.s:899    .text:0000000000000448 .L0 
     /tmp/ccy6xxkH.s:900    .text:0000000000000448 .L0 
src/kernel/riscv.cpp:303    .text:0000000000000448 .L0 
     /tmp/ccy6xxkH.s:907    .text:000000000000044c .L0 
     /tmp/ccy6xxkH.s:908    .text:000000000000044c .L0 
     /tmp/ccy6xxkH.s:910    .text:000000000000044c .L0 
     /tmp/ccy6xxkH.s:912    .text:0000000000000450 .L0 
     /tmp/ccy6xxkH.s:916    .text:0000000000000454 .L0 
src/kernel/riscv.cpp:320    .text:0000000000000454 .L0 
     /tmp/ccy6xxkH.s:922    .text:0000000000000458 .L0 
     /tmp/ccy6xxkH.s:924    .text:0000000000000458 .L0 
     /tmp/ccy6xxkH.s:927    .text:0000000000000460 .L0 
     /tmp/ccy6xxkH.s:928    .text:0000000000000464 .L0 
     /tmp/ccy6xxkH.s:929    .text:0000000000000464 .L0 
     /tmp/ccy6xxkH.s:931    .text:0000000000000468 .L0 
     /tmp/ccy6xxkH.s:932    .text:0000000000000468 .L0 
     /tmp/ccy6xxkH.s:934    .text:000000000000046c .L0 
     /tmp/ccy6xxkH.s:938    .text:0000000000000470 .L0 
     /tmp/ccy6xxkH.s:940    .text:0000000000000470 .L0 
     /tmp/ccy6xxkH.s:941    .text:0000000000000470 .L0 
     /tmp/ccy6xxkH.s:944    .text:0000000000000478 .L0 
GAS LISTING /tmp/ccy6xxkH.s 			page 109


     /tmp/ccy6xxkH.s:945    .text:0000000000000478 .L0 
     /tmp/ccy6xxkH.s:948    .text:0000000000000480 .L0 
     /tmp/ccy6xxkH.s:949    .text:0000000000000480 .L0 
     /tmp/ccy6xxkH.s:952    .text:0000000000000488 .L0 
     /tmp/ccy6xxkH.s:954    .text:0000000000000490 .L0 
     /tmp/ccy6xxkH.s:960    .text:0000000000000490 _ZN5RiscV24executeThreadExitSyscallEv
     /tmp/ccy6xxkH.s:963    .text:0000000000000490 .L0 
     /tmp/ccy6xxkH.s:964    .text:0000000000000490 .L0 
     /tmp/ccy6xxkH.s:965    .text:0000000000000494 .L0 
     /tmp/ccy6xxkH.s:968    .text:000000000000049c .L0 
     /tmp/ccy6xxkH.s:969    .text:000000000000049c .L0 
     /tmp/ccy6xxkH.s:971    .text:00000000000004a0 .L0 
     /tmp/ccy6xxkH.s:974    .text:00000000000004a0 .L0 
     /tmp/ccy6xxkH.s:976    .text:00000000000004a0 .L0 
     /tmp/ccy6xxkH.s:977    .text:00000000000004a0 .L0 
     /tmp/ccy6xxkH.s:980    .text:00000000000004ac .L0 
     /tmp/ccy6xxkH.s:984    .text:00000000000004b0 .L0 
     /tmp/ccy6xxkH.s:985    .text:00000000000004b0 .L0 
     /tmp/ccy6xxkH.s:986    .text:00000000000004b0 .L0 
     /tmp/ccy6xxkH.s:989    .text:00000000000004b8 .L0 
     /tmp/ccy6xxkH.s:990    .text:00000000000004b8 .L0 
     /tmp/ccy6xxkH.s:995    .text:00000000000004c0 .L0 
     /tmp/ccy6xxkH.s:999    .text:00000000000004c4 .L0 
src/kernel/riscv.cpp:340    .text:00000000000004c4 .L0 
     /tmp/ccy6xxkH.s:1005   .text:00000000000004c8 .L0 
     /tmp/ccy6xxkH.s:1007   .text:00000000000004c8 .L0 
     /tmp/ccy6xxkH.s:1010   .text:00000000000004d0 .L0 
     /tmp/ccy6xxkH.s:1011   .text:00000000000004d4 .L0 
     /tmp/ccy6xxkH.s:1012   .text:00000000000004d4 .L0 
     /tmp/ccy6xxkH.s:1014   .text:00000000000004d8 .L0 
     /tmp/ccy6xxkH.s:1015   .text:00000000000004d8 .L0 
     /tmp/ccy6xxkH.s:1017   .text:00000000000004dc .L0 
     /tmp/ccy6xxkH.s:1021   .text:00000000000004e0 .L0 
     /tmp/ccy6xxkH.s:1024   .text:00000000000004e0 .L0 
     /tmp/ccy6xxkH.s:1027   .text:00000000000004e8 .L0 
     /tmp/ccy6xxkH.s:1033   .text:00000000000004e8 _ZN5RiscV21executeSemOpenSyscallEv
     /tmp/ccy6xxkH.s:1036   .text:00000000000004e8 .L0 
     /tmp/ccy6xxkH.s:1039   .text:00000000000004e8 .L0 
     /tmp/ccy6xxkH.s:1040   .text:00000000000004ec .L0 
     /tmp/ccy6xxkH.s:1046   .text:0000000000000500 .L0 
     /tmp/ccy6xxkH.s:1047   .text:0000000000000500 .L0 
     /tmp/ccy6xxkH.s:1048   .text:0000000000000500 .L0 
     /tmp/ccy6xxkH.s:1049   .text:0000000000000500 .L0 
     /tmp/ccy6xxkH.s:1050   .text:0000000000000500 .L0 
     /tmp/ccy6xxkH.s:1052   .text:0000000000000504 .L0 
     /tmp/ccy6xxkH.s:1054   .text:0000000000000504 .L0 
     /tmp/ccy6xxkH.s:1055   .text:0000000000000504 .L0 
src/kernel/riscv.cpp:358    .text:0000000000000504 .L0 
     /tmp/ccy6xxkH.s:1062   .text:0000000000000508 .L0 
src/kernel/riscv.cpp:359    .text:0000000000000508 .L0 
     /tmp/ccy6xxkH.s:1068   .text:000000000000050c .L0 
     /tmp/ccy6xxkH.s:1070   .text:000000000000050c .L0 
     /tmp/ccy6xxkH.s:1078   .text:0000000000000520 .L0 
     /tmp/ccy6xxkH.s:1085   .text:000000000000052c .L0 
     /tmp/ccy6xxkH.s:1086   .text:000000000000052c .L0 
     /tmp/ccy6xxkH.s:1088   .text:0000000000000530 .L0 
     /tmp/ccy6xxkH.s:1089   .text:0000000000000530 .L0 
GAS LISTING /tmp/ccy6xxkH.s 			page 110


     /tmp/ccy6xxkH.s:1091   .text:0000000000000534 .L0 
     /tmp/ccy6xxkH.s:1095   .text:0000000000000538 .L0 
src/kernel/riscv.cpp:374    .text:0000000000000538 .L0 
     /tmp/ccy6xxkH.s:1101   .text:000000000000053c .L0 
     /tmp/ccy6xxkH.s:1103   .text:000000000000053c .L0 
     /tmp/ccy6xxkH.s:1106   .text:0000000000000544 .L0 
     /tmp/ccy6xxkH.s:1107   .text:0000000000000548 .L0 
     /tmp/ccy6xxkH.s:1108   .text:0000000000000548 .L0 
     /tmp/ccy6xxkH.s:1110   .text:000000000000054c .L0 
     /tmp/ccy6xxkH.s:1111   .text:000000000000054c .L0 
     /tmp/ccy6xxkH.s:1113   .text:0000000000000550 .L0 
     /tmp/ccy6xxkH.s:1116   .text:0000000000000554 .L0 
     /tmp/ccy6xxkH.s:1119   .text:0000000000000558 .L0 
     /tmp/ccy6xxkH.s:1122   .text:000000000000055c .L0 
     /tmp/ccy6xxkH.s:1126   .text:0000000000000560 .L0 
     /tmp/ccy6xxkH.s:1128   .text:0000000000000560 .L0 
     /tmp/ccy6xxkH.s:1135   .text:000000000000056c .L0 
     /tmp/ccy6xxkH.s:1143   .text:0000000000000584 .L0 
     /tmp/ccy6xxkH.s:1168   .text:0000000000000584 _ZN5RiscV22executeSemCloseSyscallEv
     /tmp/ccy6xxkH.s:1171   .text:0000000000000584 .L0 
     /tmp/ccy6xxkH.s:1172   .text:0000000000000584 .L0 
     /tmp/ccy6xxkH.s:1173   .text:0000000000000588 .L0 
     /tmp/ccy6xxkH.s:1177   .text:0000000000000594 .L0 
     /tmp/ccy6xxkH.s:1178   .text:0000000000000594 .L0 
     /tmp/ccy6xxkH.s:1179   .text:0000000000000594 .L0 
     /tmp/ccy6xxkH.s:1181   .text:0000000000000598 .L0 
     /tmp/ccy6xxkH.s:1183   .text:0000000000000598 .L0 
     /tmp/ccy6xxkH.s:1184   .text:0000000000000598 .L0 
src/kernel/riscv.cpp:385    .text:0000000000000598 .L0 
     /tmp/ccy6xxkH.s:1191   .text:000000000000059c .L0 
     /tmp/ccy6xxkH.s:1192   .text:000000000000059c .L0 
     /tmp/ccy6xxkH.s:1194   .text:000000000000059c .L0 
     /tmp/ccy6xxkH.s:1196   .text:00000000000005a0 .L0 
     /tmp/ccy6xxkH.s:1200   .text:00000000000005a4 .L0 
src/kernel/riscv.cpp:398    .text:00000000000005a4 .L0 
     /tmp/ccy6xxkH.s:1206   .text:00000000000005a8 .L0 
     /tmp/ccy6xxkH.s:1208   .text:00000000000005a8 .L0 
     /tmp/ccy6xxkH.s:1211   .text:00000000000005b0 .L0 
     /tmp/ccy6xxkH.s:1212   .text:00000000000005b4 .L0 
     /tmp/ccy6xxkH.s:1213   .text:00000000000005b4 .L0 
     /tmp/ccy6xxkH.s:1215   .text:00000000000005b8 .L0 
     /tmp/ccy6xxkH.s:1216   .text:00000000000005b8 .L0 
     /tmp/ccy6xxkH.s:1218   .text:00000000000005bc .L0 
     /tmp/ccy6xxkH.s:1221   .text:00000000000005c0 .L0 
     /tmp/ccy6xxkH.s:1225   .text:00000000000005c4 .L0 
     /tmp/ccy6xxkH.s:1227   .text:00000000000005c4 .L0 
     /tmp/ccy6xxkH.s:1228   .text:00000000000005c4 .L0 
     /tmp/ccy6xxkH.s:1235   .text:00000000000005dc .L0 
     /tmp/ccy6xxkH.s:1237   .text:00000000000005e4 .L0 
     /tmp/ccy6xxkH.s:1243   .text:00000000000005e4 _ZN5RiscV21executeSemWaitSyscallEv
     /tmp/ccy6xxkH.s:1246   .text:00000000000005e4 .L0 
     /tmp/ccy6xxkH.s:1247   .text:00000000000005e4 .L0 
     /tmp/ccy6xxkH.s:1248   .text:00000000000005e8 .L0 
     /tmp/ccy6xxkH.s:1251   .text:00000000000005f0 .L0 
     /tmp/ccy6xxkH.s:1252   .text:00000000000005f0 .L0 
     /tmp/ccy6xxkH.s:1254   .text:00000000000005f4 .L0 
     /tmp/ccy6xxkH.s:1256   .text:00000000000005f4 .L0 
GAS LISTING /tmp/ccy6xxkH.s 			page 111


     /tmp/ccy6xxkH.s:1257   .text:00000000000005f4 .L0 
src/kernel/riscv.cpp:408    .text:00000000000005f4 .L0 
     /tmp/ccy6xxkH.s:1264   .text:00000000000005f8 .L0 
     /tmp/ccy6xxkH.s:1266   .text:00000000000005f8 .L0 
     /tmp/ccy6xxkH.s:1270   .text:00000000000005fc .L0 
     /tmp/ccy6xxkH.s:1271   .text:00000000000005fc .L0 
     /tmp/ccy6xxkH.s:1275   .text:000000000000060c .L0 
     /tmp/ccy6xxkH.s:1277   .text:0000000000000610 .L0 
     /tmp/ccy6xxkH.s:1281   .text:0000000000000614 .L0 
src/kernel/riscv.cpp:424    .text:0000000000000614 .L0 
     /tmp/ccy6xxkH.s:1287   .text:0000000000000618 .L0 
     /tmp/ccy6xxkH.s:1289   .text:0000000000000618 .L0 
     /tmp/ccy6xxkH.s:1292   .text:0000000000000620 .L0 
     /tmp/ccy6xxkH.s:1293   .text:0000000000000624 .L0 
     /tmp/ccy6xxkH.s:1294   .text:0000000000000624 .L0 
     /tmp/ccy6xxkH.s:1296   .text:0000000000000628 .L0 
     /tmp/ccy6xxkH.s:1297   .text:0000000000000628 .L0 
     /tmp/ccy6xxkH.s:1299   .text:000000000000062c .L0 
     /tmp/ccy6xxkH.s:1303   .text:0000000000000630 .L0 
     /tmp/ccy6xxkH.s:1305   .text:0000000000000630 .L0 
     /tmp/ccy6xxkH.s:1306   .text:0000000000000630 .L0 
     /tmp/ccy6xxkH.s:1312   .text:000000000000063c .L0 
     /tmp/ccy6xxkH.s:1314   .text:0000000000000644 .L0 
     /tmp/ccy6xxkH.s:1320   .text:0000000000000644 _ZN5RiscV23executeSemSignalSyscallEv
     /tmp/ccy6xxkH.s:1323   .text:0000000000000644 .L0 
     /tmp/ccy6xxkH.s:1324   .text:0000000000000644 .L0 
     /tmp/ccy6xxkH.s:1325   .text:0000000000000648 .L0 
     /tmp/ccy6xxkH.s:1328   .text:0000000000000650 .L0 
     /tmp/ccy6xxkH.s:1329   .text:0000000000000650 .L0 
     /tmp/ccy6xxkH.s:1331   .text:0000000000000654 .L0 
     /tmp/ccy6xxkH.s:1333   .text:0000000000000654 .L0 
     /tmp/ccy6xxkH.s:1334   .text:0000000000000654 .L0 
src/kernel/riscv.cpp:435    .text:0000000000000654 .L0 
     /tmp/ccy6xxkH.s:1341   .text:0000000000000658 .L0 
     /tmp/ccy6xxkH.s:1343   .text:0000000000000658 .L0 
     /tmp/ccy6xxkH.s:1345   .text:000000000000065c .L0 
     /tmp/ccy6xxkH.s:1349   .text:0000000000000660 .L0 
src/kernel/riscv.cpp:447    .text:0000000000000660 .L0 
     /tmp/ccy6xxkH.s:1355   .text:0000000000000664 .L0 
     /tmp/ccy6xxkH.s:1357   .text:0000000000000664 .L0 
     /tmp/ccy6xxkH.s:1360   .text:000000000000066c .L0 
     /tmp/ccy6xxkH.s:1361   .text:0000000000000670 .L0 
     /tmp/ccy6xxkH.s:1362   .text:0000000000000670 .L0 
     /tmp/ccy6xxkH.s:1364   .text:0000000000000674 .L0 
     /tmp/ccy6xxkH.s:1365   .text:0000000000000674 .L0 
     /tmp/ccy6xxkH.s:1367   .text:0000000000000678 .L0 
     /tmp/ccy6xxkH.s:1371   .text:000000000000067c .L0 
     /tmp/ccy6xxkH.s:1373   .text:000000000000067c .L0 
     /tmp/ccy6xxkH.s:1374   .text:000000000000067c .L0 
     /tmp/ccy6xxkH.s:1377   .text:0000000000000684 .L0 
     /tmp/ccy6xxkH.s:1379   .text:000000000000068c .L0 
     /tmp/ccy6xxkH.s:1385   .text:000000000000068c _ZN5RiscV23executeTimeSleepSyscallEv
     /tmp/ccy6xxkH.s:1388   .text:000000000000068c .L0 
     /tmp/ccy6xxkH.s:1389   .text:000000000000068c .L0 
     /tmp/ccy6xxkH.s:1390   .text:0000000000000690 .L0 
     /tmp/ccy6xxkH.s:1394   .text:000000000000069c .L0 
     /tmp/ccy6xxkH.s:1395   .text:000000000000069c .L0 
GAS LISTING /tmp/ccy6xxkH.s 			page 112


     /tmp/ccy6xxkH.s:1396   .text:000000000000069c .L0 
     /tmp/ccy6xxkH.s:1398   .text:00000000000006a0 .L0 
     /tmp/ccy6xxkH.s:1400   .text:00000000000006a0 .L0 
     /tmp/ccy6xxkH.s:1401   .text:00000000000006a0 .L0 
src/kernel/riscv.cpp:457    .text:00000000000006a0 .L0 
     /tmp/ccy6xxkH.s:1407   .text:00000000000006a4 .L0 
     /tmp/ccy6xxkH.s:1409   .text:00000000000006a4 .L0 
     /tmp/ccy6xxkH.s:1413   .text:00000000000006b0 .L0 
     /tmp/ccy6xxkH.s:1414   .text:00000000000006b0 .L0 
     /tmp/ccy6xxkH.s:1417   .text:00000000000006bc .L0 
     /tmp/ccy6xxkH.s:1418   .text:00000000000006bc .L0 
     /tmp/ccy6xxkH.s:1420   .text:00000000000006c0 .L0 
     /tmp/ccy6xxkH.s:1422   .text:00000000000006c4 .L0 
     /tmp/ccy6xxkH.s:1423   .text:00000000000006c4 .L0 
     /tmp/ccy6xxkH.s:1427   .text:00000000000006d0 .L0 
     /tmp/ccy6xxkH.s:1428   .text:00000000000006d0 .L0 
     /tmp/ccy6xxkH.s:1431   .text:00000000000006d8 .L0 
     /tmp/ccy6xxkH.s:1432   .text:00000000000006d8 .L0 
     /tmp/ccy6xxkH.s:1435   .text:00000000000006e0 .L0 
     /tmp/ccy6xxkH.s:1436   .text:00000000000006e0 .L0 
     /tmp/ccy6xxkH.s:1437   .text:00000000000006e0 .L0 
     /tmp/ccy6xxkH.s:1443   .text:00000000000006e8 .L0 
     /tmp/ccy6xxkH.s:1445   .text:00000000000006e8 .L0 
     /tmp/ccy6xxkH.s:1448   .text:00000000000006f0 .L0 
     /tmp/ccy6xxkH.s:1449   .text:00000000000006f4 .L0 
     /tmp/ccy6xxkH.s:1451   .text:00000000000006f8 .L0 
     /tmp/ccy6xxkH.s:1452   .text:00000000000006f8 .L0 
     /tmp/ccy6xxkH.s:1454   .text:00000000000006fc .L0 
     /tmp/ccy6xxkH.s:1457   .text:0000000000000700 .L0 
     /tmp/ccy6xxkH.s:1459   .text:0000000000000704 .L0 
     /tmp/ccy6xxkH.s:1465   .text:0000000000000704 _ZN5RiscV18executeGetcSyscallEv
     /tmp/ccy6xxkH.s:1468   .text:0000000000000704 .L0 
     /tmp/ccy6xxkH.s:1469   .text:0000000000000704 .L0 
     /tmp/ccy6xxkH.s:1470   .text:0000000000000708 .L0 
     /tmp/ccy6xxkH.s:1474   .text:0000000000000714 .L0 
     /tmp/ccy6xxkH.s:1475   .text:0000000000000714 .L0 
     /tmp/ccy6xxkH.s:1476   .text:0000000000000714 .L0 
     /tmp/ccy6xxkH.s:1478   .text:0000000000000718 .L0 
     /tmp/ccy6xxkH.s:1480   .text:0000000000000718 .L0 
     /tmp/ccy6xxkH.s:1481   .text:0000000000000718 .L0 
     /tmp/ccy6xxkH.s:1483   .text:0000000000000720 .L0 
     /tmp/ccy6xxkH.s:1485   .text:0000000000000724 .L0 
     /tmp/ccy6xxkH.s:1486   .text:0000000000000724 .L0 
     /tmp/ccy6xxkH.s:1492   .text:0000000000000738 .L0 
     /tmp/ccy6xxkH.s:1493   .text:0000000000000738 .L0 
     /tmp/ccy6xxkH.s:1498   .text:0000000000000744 .L0 
     /tmp/ccy6xxkH.s:1501   .text:000000000000074c .L0 
     /tmp/ccy6xxkH.s:1506   .text:0000000000000754 .L0 
src/kernel/riscv.cpp:498    .text:0000000000000754 .L0 
     /tmp/ccy6xxkH.s:1512   .text:0000000000000758 .L0 
     /tmp/ccy6xxkH.s:1514   .text:0000000000000758 .L0 
     /tmp/ccy6xxkH.s:1517   .text:0000000000000760 .L0 
     /tmp/ccy6xxkH.s:1518   .text:0000000000000764 .L0 
     /tmp/ccy6xxkH.s:1519   .text:0000000000000764 .L0 
     /tmp/ccy6xxkH.s:1521   .text:0000000000000768 .L0 
     /tmp/ccy6xxkH.s:1522   .text:0000000000000768 .L0 
     /tmp/ccy6xxkH.s:1524   .text:000000000000076c .L0 
GAS LISTING /tmp/ccy6xxkH.s 			page 113


     /tmp/ccy6xxkH.s:1526   .text:0000000000000770 .L0 
     /tmp/ccy6xxkH.s:1530   .text:0000000000000774 .L0 
     /tmp/ccy6xxkH.s:1532   .text:0000000000000774 .L0 
     /tmp/ccy6xxkH.s:1533   .text:0000000000000774 .L0 
     /tmp/ccy6xxkH.s:1538   .text:0000000000000780 .L0 
     /tmp/ccy6xxkH.s:1539   .text:0000000000000780 .L0 
     /tmp/ccy6xxkH.s:1546   .text:0000000000000790 .L0 
     /tmp/ccy6xxkH.s:1547   .text:0000000000000790 .L0 
     /tmp/ccy6xxkH.s:1550   .text:000000000000079c .L0 
     /tmp/ccy6xxkH.s:1556   .text:000000000000079c _ZN5RiscV22executePutcUtilSyscallEv
     /tmp/ccy6xxkH.s:1559   .text:000000000000079c .L0 
     /tmp/ccy6xxkH.s:1560   .text:000000000000079c .L0 
     /tmp/ccy6xxkH.s:1561   .text:00000000000007a0 .L0 
     /tmp/ccy6xxkH.s:1564   .text:00000000000007a8 .L0 
     /tmp/ccy6xxkH.s:1565   .text:00000000000007a8 .L0 
     /tmp/ccy6xxkH.s:1567   .text:00000000000007ac .L0 
     /tmp/ccy6xxkH.s:1569   .text:00000000000007ac .L0 
     /tmp/ccy6xxkH.s:1570   .text:00000000000007ac .L0 
     /tmp/ccy6xxkH.s:1573   .text:00000000000007b4 .L0 
src/kernel/riscv.cpp:553    .text:00000000000007b4 .L0 
     /tmp/ccy6xxkH.s:1579   .text:00000000000007b8 .L0 
     /tmp/ccy6xxkH.s:1581   .text:00000000000007b8 .L0 
     /tmp/ccy6xxkH.s:1584   .text:00000000000007c0 .L0 
     /tmp/ccy6xxkH.s:1585   .text:00000000000007c4 .L0 
     /tmp/ccy6xxkH.s:1587   .text:00000000000007c8 .L0 
     /tmp/ccy6xxkH.s:1588   .text:00000000000007c8 .L0 
     /tmp/ccy6xxkH.s:1590   .text:00000000000007cc .L0 
     /tmp/ccy6xxkH.s:1592   .text:00000000000007d0 .L0 
     /tmp/ccy6xxkH.s:1598   .text:00000000000007d0 _ZN5RiscV24executeThreadFreeSyscallEv
     /tmp/ccy6xxkH.s:1601   .text:00000000000007d0 .L0 
     /tmp/ccy6xxkH.s:1602   .text:00000000000007d0 .L0 
     /tmp/ccy6xxkH.s:1603   .text:00000000000007d4 .L0 
     /tmp/ccy6xxkH.s:1607   .text:00000000000007e0 .L0 
     /tmp/ccy6xxkH.s:1608   .text:00000000000007e0 .L0 
     /tmp/ccy6xxkH.s:1609   .text:00000000000007e0 .L0 
     /tmp/ccy6xxkH.s:1611   .text:00000000000007e4 .L0 
     /tmp/ccy6xxkH.s:1613   .text:00000000000007e4 .L0 
     /tmp/ccy6xxkH.s:1614   .text:00000000000007e4 .L0 
src/kernel/riscv.cpp:601    .text:00000000000007e4 .L0 
     /tmp/ccy6xxkH.s:1621   .text:00000000000007e8 .L0 
     /tmp/ccy6xxkH.s:1623   .text:00000000000007e8 .L0 
     /tmp/ccy6xxkH.s:1627   .text:00000000000007ec .L0 
     /tmp/ccy6xxkH.s:1628   .text:00000000000007ec .L0 
     /tmp/ccy6xxkH.s:1634   .text:00000000000007f4 .L0 
     /tmp/ccy6xxkH.s:1636   .text:00000000000007f4 .L0 
     /tmp/ccy6xxkH.s:1639   .text:00000000000007fc .L0 
     /tmp/ccy6xxkH.s:1640   .text:0000000000000800 .L0 
     /tmp/ccy6xxkH.s:1641   .text:0000000000000800 .L0 
     /tmp/ccy6xxkH.s:1643   .text:0000000000000804 .L0 
     /tmp/ccy6xxkH.s:1644   .text:0000000000000804 .L0 
     /tmp/ccy6xxkH.s:1646   .text:0000000000000808 .L0 
     /tmp/ccy6xxkH.s:1649   .text:000000000000080c .L0 
     /tmp/ccy6xxkH.s:1653   .text:0000000000000810 .L0 
     /tmp/ccy6xxkH.s:1655   .text:0000000000000810 .L0 
     /tmp/ccy6xxkH.s:1656   .text:0000000000000810 .L0 
     /tmp/ccy6xxkH.s:1660   .text:000000000000081c .L0 
     /tmp/ccy6xxkH.s:1661   .text:000000000000081c .L0 
GAS LISTING /tmp/ccy6xxkH.s 			page 114


     /tmp/ccy6xxkH.s:1668   .text:0000000000000838 .L0 
     /tmp/ccy6xxkH.s:1674   .text:0000000000000838 _ZN5RiscV27executeSemaphoreFreeSyscallEv
     /tmp/ccy6xxkH.s:1677   .text:0000000000000838 .L0 
     /tmp/ccy6xxkH.s:1678   .text:0000000000000838 .L0 
     /tmp/ccy6xxkH.s:1679   .text:000000000000083c .L0 
     /tmp/ccy6xxkH.s:1683   .text:0000000000000848 .L0 
     /tmp/ccy6xxkH.s:1684   .text:0000000000000848 .L0 
     /tmp/ccy6xxkH.s:1685   .text:0000000000000848 .L0 
     /tmp/ccy6xxkH.s:1687   .text:000000000000084c .L0 
     /tmp/ccy6xxkH.s:1689   .text:000000000000084c .L0 
     /tmp/ccy6xxkH.s:1690   .text:000000000000084c .L0 
src/kernel/riscv.cpp:623    .text:000000000000084c .L0 
     /tmp/ccy6xxkH.s:1697   .text:0000000000000850 .L0 
     /tmp/ccy6xxkH.s:1699   .text:0000000000000850 .L0 
     /tmp/ccy6xxkH.s:1703   .text:0000000000000854 .L0 
     /tmp/ccy6xxkH.s:1704   .text:0000000000000854 .L0 
     /tmp/ccy6xxkH.s:1710   .text:000000000000085c .L0 
     /tmp/ccy6xxkH.s:1712   .text:000000000000085c .L0 
     /tmp/ccy6xxkH.s:1715   .text:0000000000000864 .L0 
     /tmp/ccy6xxkH.s:1716   .text:0000000000000868 .L0 
     /tmp/ccy6xxkH.s:1717   .text:0000000000000868 .L0 
     /tmp/ccy6xxkH.s:1719   .text:000000000000086c .L0 
     /tmp/ccy6xxkH.s:1720   .text:000000000000086c .L0 
     /tmp/ccy6xxkH.s:1722   .text:0000000000000870 .L0 
     /tmp/ccy6xxkH.s:1725   .text:0000000000000874 .L0 
     /tmp/ccy6xxkH.s:1729   .text:0000000000000878 .L0 
     /tmp/ccy6xxkH.s:1731   .text:0000000000000878 .L0 
     /tmp/ccy6xxkH.s:1732   .text:0000000000000878 .L0 
     /tmp/ccy6xxkH.s:1739   .text:0000000000000894 .L0 
     /tmp/ccy6xxkH.s:1745   .text:0000000000000894 _ZN5RiscV18executeForkSyscallEv
     /tmp/ccy6xxkH.s:1748   .text:0000000000000894 .L0 
     /tmp/ccy6xxkH.s:1751   .text:0000000000000894 .L0 
     /tmp/ccy6xxkH.s:1752   .text:0000000000000898 .L0 
     /tmp/ccy6xxkH.s:1757   .text:00000000000008a8 .L0 
     /tmp/ccy6xxkH.s:1758   .text:00000000000008a8 .L0 
     /tmp/ccy6xxkH.s:1759   .text:00000000000008a8 .L0 
     /tmp/ccy6xxkH.s:1760   .text:00000000000008a8 .L0 
     /tmp/ccy6xxkH.s:1762   .text:00000000000008ac .L0 
     /tmp/ccy6xxkH.s:1764   .text:00000000000008ac .L0 
     /tmp/ccy6xxkH.s:1765   .text:00000000000008ac .L0 
     /tmp/ccy6xxkH.s:1772   .text:00000000000008bc .L0 
     /tmp/ccy6xxkH.s:1773   .text:00000000000008bc .L0 
     /tmp/ccy6xxkH.s:1782   .text:00000000000008dc .L0 
     /tmp/ccy6xxkH.s:1783   .text:00000000000008dc .L0 
     /tmp/ccy6xxkH.s:1790   .text:00000000000008f0 .L0 
     /tmp/ccy6xxkH.s:1800   .text:0000000000000908 .L0 
     /tmp/ccy6xxkH.s:1802   .text:0000000000000908 .L0 
     /tmp/ccy6xxkH.s:1805   .text:000000000000090c .L0 
     /tmp/ccy6xxkH.s:1806   .text:000000000000090c .L0 
     /tmp/ccy6xxkH.s:1810   .text:000000000000091c .L0 
     /tmp/ccy6xxkH.s:1811   .text:000000000000091c .L0 
     /tmp/ccy6xxkH.s:1814   .text:0000000000000928 .L0 
     /tmp/ccy6xxkH.s:1816   .text:000000000000092c .L0 
     /tmp/ccy6xxkH.s:1819   .text:0000000000000938 .L0 
     /tmp/ccy6xxkH.s:1821   .text:000000000000093c .L0 
     /tmp/ccy6xxkH.s:1823   .text:0000000000000940 .L0 
     /tmp/ccy6xxkH.s:1825   .text:0000000000000944 .L0 
GAS LISTING /tmp/ccy6xxkH.s 			page 115


     /tmp/ccy6xxkH.s:1826   .text:0000000000000944 .L0 
     /tmp/ccy6xxkH.s:1829   .text:000000000000094c .L0 
     /tmp/ccy6xxkH.s:1831   .text:0000000000000950 .L0 
     /tmp/ccy6xxkH.s:1833   .text:0000000000000954 .L0 
     /tmp/ccy6xxkH.s:1836   .text:0000000000000958 .L0 
     /tmp/ccy6xxkH.s:1837   .text:0000000000000958 .L0 
     /tmp/ccy6xxkH.s:1839   .text:000000000000095c .L0 
     /tmp/ccy6xxkH.s:1840   .text:000000000000095c .L0 
src/kernel/riscv.cpp:668    .text:000000000000095c .L0 
     /tmp/ccy6xxkH.s:1846   .text:0000000000000960 .L0 
src/kernel/riscv.cpp:670    .text:0000000000000960 .L0 
     /tmp/ccy6xxkH.s:1851   .text:0000000000000964 .L0 
src/kernel/riscv.cpp:672    .text:0000000000000964 .L0 
     /tmp/ccy6xxkH.s:1856   .text:0000000000000968 .L0 
src/kernel/riscv.cpp:674    .text:0000000000000968 .L0 
     /tmp/ccy6xxkH.s:1861   .text:000000000000096c .L0 
src/kernel/riscv.cpp:676    .text:000000000000096c .L0 
     /tmp/ccy6xxkH.s:1866   .text:0000000000000970 .L0 
src/kernel/riscv.cpp:679    .text:0000000000000970 .L0 
     /tmp/ccy6xxkH.s:1871   .text:0000000000000974 .L0 
src/kernel/riscv.cpp:681    .text:0000000000000974 .L0 
     /tmp/ccy6xxkH.s:1876   .text:0000000000000978 .L0 
src/kernel/riscv.cpp:683    .text:0000000000000978 .L0 
     /tmp/ccy6xxkH.s:1881   .text:000000000000097c .L0 
src/kernel/riscv.cpp:685    .text:000000000000097c .L0 
     /tmp/ccy6xxkH.s:1886   .text:0000000000000980 .L0 
     /tmp/ccy6xxkH.s:1888   .text:0000000000000980 .L0 
     /tmp/ccy6xxkH.s:1891   .text:0000000000000988 .L0 
     /tmp/ccy6xxkH.s:1893   .text:000000000000098c .L0 
     /tmp/ccy6xxkH.s:1894   .text:000000000000098c .L0 
     /tmp/ccy6xxkH.s:1896   .text:0000000000000990 .L0 
     /tmp/ccy6xxkH.s:1898   .text:0000000000000994 .L0 
     /tmp/ccy6xxkH.s:1899   .text:0000000000000994 .L0 
     /tmp/ccy6xxkH.s:1908   .text:00000000000009a0 .L0 
     /tmp/ccy6xxkH.s:1909   .text:00000000000009a0 .L0 
src/kernel/riscv.cpp:699    .text:00000000000009a0 .L0 
     /tmp/ccy6xxkH.s:1915   .text:00000000000009a4 .L0 
     /tmp/ccy6xxkH.s:1917   .text:00000000000009a4 .L0 
     /tmp/ccy6xxkH.s:1920   .text:00000000000009ac .L0 
     /tmp/ccy6xxkH.s:1921   .text:00000000000009b0 .L0 
     /tmp/ccy6xxkH.s:1922   .text:00000000000009b0 .L0 
     /tmp/ccy6xxkH.s:1924   .text:00000000000009b4 .L0 
     /tmp/ccy6xxkH.s:1925   .text:00000000000009b4 .L0 
     /tmp/ccy6xxkH.s:1927   .text:00000000000009b8 .L0 
     /tmp/ccy6xxkH.s:1930   .text:00000000000009bc .L0 
     /tmp/ccy6xxkH.s:1932   .text:00000000000009c0 .L0 
     /tmp/ccy6xxkH.s:1936   .text:00000000000009c4 .L0 
     /tmp/ccy6xxkH.s:1939   .text:00000000000009c4 .L0 
     /tmp/ccy6xxkH.s:1948   .text:00000000000009d0 .L0 
     /tmp/ccy6xxkH.s:1956   .text:00000000000009e8 .L0 
     /tmp/ccy6xxkH.s:1985   .text:00000000000009e8 _ZN5RiscV5getPCEv
     /tmp/ccy6xxkH.s:1988   .text:00000000000009e8 .L0 
     /tmp/ccy6xxkH.s:1989   .text:00000000000009e8 .L0 
     /tmp/ccy6xxkH.s:1990   .text:00000000000009ec .L0 
     /tmp/ccy6xxkH.s:1992   .text:00000000000009f0 .L0 
     /tmp/ccy6xxkH.s:1994   .text:00000000000009f4 .L0 
     /tmp/ccy6xxkH.s:1996   .text:00000000000009f4 .L0 
GAS LISTING /tmp/ccy6xxkH.s 			page 116


     /tmp/ccy6xxkH.s:1997   .text:00000000000009f4 .L0 
src/kernel/riscv.cpp:708    .text:00000000000009f4 .L0 
     /tmp/ccy6xxkH.s:2004   .text:00000000000009f8 .L0 
     /tmp/ccy6xxkH.s:2006   .text:00000000000009f8 .L0 
     /tmp/ccy6xxkH.s:2009   .text:00000000000009fc .L0 
     /tmp/ccy6xxkH.s:2012   .text:0000000000000a08 .L0 
     /tmp/ccy6xxkH.s:2013   .text:0000000000000a0c .L0 
     /tmp/ccy6xxkH.s:2014   .text:0000000000000a0c .L0 
     /tmp/ccy6xxkH.s:2016   .text:0000000000000a10 .L0 
     /tmp/ccy6xxkH.s:2018   .text:0000000000000a14 .L0 
     /tmp/ccy6xxkH.s:2047   .text:0000000000000a14 _ZN5RiscV20handleSupervisorTrapEv
     /tmp/ccy6xxkH.s:2050   .text:0000000000000a14 .L0 
     /tmp/ccy6xxkH.s:2051   .text:0000000000000a14 .L0 
     /tmp/ccy6xxkH.s:2052   .text:0000000000000a18 .L0 
     /tmp/ccy6xxkH.s:2056   .text:0000000000000a24 .L0 
     /tmp/ccy6xxkH.s:2057   .text:0000000000000a24 .L0 
     /tmp/ccy6xxkH.s:2058   .text:0000000000000a24 .L0 
     /tmp/ccy6xxkH.s:2060   .text:0000000000000a28 .L0 
     /tmp/ccy6xxkH.s:2062   .text:0000000000000a28 .L0 
     /tmp/ccy6xxkH.s:2063   .text:0000000000000a28 .L0 
src/kernel/riscv.cpp:52     .text:0000000000000a28 .L0 
     /tmp/ccy6xxkH.s:2073   .text:0000000000000a2c .L0 
     /tmp/ccy6xxkH.s:2074   .text:0000000000000a2c .L0 
     /tmp/ccy6xxkH.s:2075   .text:0000000000000a2c .L0 
src/kernel/../../h/riscv.hpp:155    .text:0000000000000a2c .L0 
     /tmp/ccy6xxkH.s:2083   .text:0000000000000a34 .L0 
     /tmp/ccy6xxkH.s:2084   .text:0000000000000a34 .L0 
     /tmp/ccy6xxkH.s:2088   .text:0000000000000a38 .L0 
     /tmp/ccy6xxkH.s:2090   .text:0000000000000a3c .L0 
     /tmp/ccy6xxkH.s:2091   .text:0000000000000a3c .L0 
src/kernel/riscv.cpp:55     .text:0000000000000a48 .L0 
     /tmp/ccy6xxkH.s:2102   .text:0000000000000a50 .L0 
     /tmp/ccy6xxkH.s:2103   .text:0000000000000a50 .L0 
     /tmp/ccy6xxkH.s:2105   .text:0000000000000a54 .L0 
     /tmp/ccy6xxkH.s:2108   .text:0000000000000a5c .L0 
     /tmp/ccy6xxkH.s:2110   .text:0000000000000a60 .L0 
     /tmp/ccy6xxkH.s:2116   .text:0000000000000a68 .L0 
     /tmp/ccy6xxkH.s:2117   .text:0000000000000a68 .L0 
     /tmp/ccy6xxkH.s:2119   .text:0000000000000a6c .L0 
     /tmp/ccy6xxkH.s:2129   .text:0000000000000a7c .L0 
     /tmp/ccy6xxkH.s:2130   .text:0000000000000a7c .L0 
     /tmp/ccy6xxkH.s:2132   .text:0000000000000a80 .L0 
     /tmp/ccy6xxkH.s:2144   .text:0000000000000a90 .L0 
     /tmp/ccy6xxkH.s:2145   .text:0000000000000a90 .L0 
     /tmp/ccy6xxkH.s:2147   .text:0000000000000a94 .L0 
     /tmp/ccy6xxkH.s:2151   .text:0000000000000a9c .L0 
     /tmp/ccy6xxkH.s:2152   .text:0000000000000a9c .L0 
     /tmp/ccy6xxkH.s:2156   .text:0000000000000aac .L0 
     /tmp/ccy6xxkH.s:2157   .text:0000000000000aac .L0 
     /tmp/ccy6xxkH.s:2163   .text:0000000000000abc .L0 
     /tmp/ccy6xxkH.s:2164   .text:0000000000000abc .L0 
     /tmp/ccy6xxkH.s:2165   .text:0000000000000abc .L0 
src/kernel/../../h/riscv.hpp:155    .text:0000000000000abc .L0 
     /tmp/ccy6xxkH.s:2173   .text:0000000000000ac4 .L0 
     /tmp/ccy6xxkH.s:2174   .text:0000000000000ac4 .L0 
     /tmp/ccy6xxkH.s:2179   .text:0000000000000ac8 .L0 
     /tmp/ccy6xxkH.s:2180   .text:0000000000000ac8 .L0 
GAS LISTING /tmp/ccy6xxkH.s 			page 117


     /tmp/ccy6xxkH.s:2187   .text:0000000000000adc .L0 
     /tmp/ccy6xxkH.s:2188   .text:0000000000000adc .L0 
     /tmp/ccy6xxkH.s:2194   .text:0000000000000aec .L0 
     /tmp/ccy6xxkH.s:2195   .text:0000000000000aec .L0 
     /tmp/ccy6xxkH.s:2196   .text:0000000000000aec .L0 
src/kernel/../../h/riscv.hpp:165    .text:0000000000000aec .L0 
     /tmp/ccy6xxkH.s:2205   .text:0000000000000af0 .L0 
     /tmp/ccy6xxkH.s:2206   .text:0000000000000af0 .L0 
     /tmp/ccy6xxkH.s:2207   .text:0000000000000af0 .L0 
     /tmp/ccy6xxkH.s:2213   .text:0000000000000b04 .L0 
     /tmp/ccy6xxkH.s:2214   .text:0000000000000b04 .L0 
     /tmp/ccy6xxkH.s:2218   .text:0000000000000b14 .L0 
     /tmp/ccy6xxkH.s:2219   .text:0000000000000b14 .L0 
     /tmp/ccy6xxkH.s:2226   .text:0000000000000b34 .L0 
     /tmp/ccy6xxkH.s:2227   .text:0000000000000b34 .L0 
     /tmp/ccy6xxkH.s:2231   .text:0000000000000b40 .L0 
     /tmp/ccy6xxkH.s:2232   .text:0000000000000b40 .L0 
     /tmp/ccy6xxkH.s:2235   .text:0000000000000b48 .L0 
     /tmp/ccy6xxkH.s:2236   .text:0000000000000b48 .L0 
     /tmp/ccy6xxkH.s:2240   .text:0000000000000b58 .L0 
     /tmp/ccy6xxkH.s:2241   .text:0000000000000b58 .L0 
     /tmp/ccy6xxkH.s:2253   .text:0000000000000b64 .L0 
     /tmp/ccy6xxkH.s:2254   .text:0000000000000b64 .L0 
     /tmp/ccy6xxkH.s:2255   .text:0000000000000b64 .L0 
src/kernel/../../h/riscv.hpp:185    .text:0000000000000b64 .L0 
     /tmp/ccy6xxkH.s:2265   .text:0000000000000b68 .L0 
     /tmp/ccy6xxkH.s:2266   .text:0000000000000b68 .L0 
     /tmp/ccy6xxkH.s:2270   .text:0000000000000b6c .L0 
     /tmp/ccy6xxkH.s:2271   .text:0000000000000b6c .L0 
     /tmp/ccy6xxkH.s:2272   .text:0000000000000b6c .L0 
src/kernel/../../h/riscv.hpp:165    .text:0000000000000b6c .L0 
     /tmp/ccy6xxkH.s:2282   .text:0000000000000b70 .L0 
     /tmp/ccy6xxkH.s:2283   .text:0000000000000b70 .L0 
     /tmp/ccy6xxkH.s:2285   .text:0000000000000b74 .L0 
     /tmp/ccy6xxkH.s:2287   .text:0000000000000b78 .L0 
     /tmp/ccy6xxkH.s:2288   .text:0000000000000b78 .L0 
     /tmp/ccy6xxkH.s:2291   .text:0000000000000b84 .L0 
     /tmp/ccy6xxkH.s:2294   .text:0000000000000b8c .L0 
     /tmp/ccy6xxkH.s:2295   .text:0000000000000b8c .L0 
     /tmp/ccy6xxkH.s:2298   .text:0000000000000b94 .L0 
     /tmp/ccy6xxkH.s:2299   .text:0000000000000b94 .L0 
src/kernel/riscv.cpp:68     .text:0000000000000b94 .L0 
     /tmp/ccy6xxkH.s:2307   .text:0000000000000b98 .L0 
     /tmp/ccy6xxkH.s:2421   .text:0000000000000bbc .L0 
     /tmp/ccy6xxkH.s:2422   .text:0000000000000bbc .L0 
     /tmp/ccy6xxkH.s:2423   .text:0000000000000bbc .L0 
     /tmp/ccy6xxkH.s:2427   .text:0000000000000bc4 .L0 
     /tmp/ccy6xxkH.s:2428   .text:0000000000000bc4 .L0 
     /tmp/ccy6xxkH.s:2429   .text:0000000000000bc4 .L0 
     /tmp/ccy6xxkH.s:2436   .text:0000000000000bd4 .L0 
src/kernel/../../h/riscv.hpp:180    .text:0000000000000bd4 .L0 
     /tmp/ccy6xxkH.s:2446   .text:0000000000000bd8 .L0 
     /tmp/ccy6xxkH.s:2447   .text:0000000000000bd8 .L0 
     /tmp/ccy6xxkH.s:2452   .text:0000000000000bdc .L0 
src/kernel/../../h/riscv.hpp:170    .text:0000000000000bdc .L0 
     /tmp/ccy6xxkH.s:2465   .text:0000000000000be0 .L0 
     /tmp/ccy6xxkH.s:2466   .text:0000000000000be0 .L0 
GAS LISTING /tmp/ccy6xxkH.s 			page 118


     /tmp/ccy6xxkH.s:2469   .text:0000000000000be8 .L0 
     /tmp/ccy6xxkH.s:2470   .text:0000000000000bec .L0 
     /tmp/ccy6xxkH.s:2471   .text:0000000000000bec .L0 
     /tmp/ccy6xxkH.s:2473   .text:0000000000000bf0 .L0 
     /tmp/ccy6xxkH.s:2474   .text:0000000000000bf0 .L0 
     /tmp/ccy6xxkH.s:2476   .text:0000000000000bf4 .L0 
     /tmp/ccy6xxkH.s:2479   .text:0000000000000bf8 .L0 
     /tmp/ccy6xxkH.s:2483   .text:0000000000000bfc .L0 
     /tmp/ccy6xxkH.s:2487   .text:0000000000000bfc .L0 
     /tmp/ccy6xxkH.s:2488   .text:0000000000000bfc .L0 
     /tmp/ccy6xxkH.s:2489   .text:0000000000000bfc .L0 
     /tmp/ccy6xxkH.s:2492   .text:0000000000000c04 .L0 
     /tmp/ccy6xxkH.s:2495   .text:0000000000000c08 .L0 
     /tmp/ccy6xxkH.s:2496   .text:0000000000000c08 .L0 
     /tmp/ccy6xxkH.s:2497   .text:0000000000000c08 .L0 
     /tmp/ccy6xxkH.s:2500   .text:0000000000000c10 .L0 
     /tmp/ccy6xxkH.s:2503   .text:0000000000000c14 .L0 
     /tmp/ccy6xxkH.s:2504   .text:0000000000000c14 .L0 
     /tmp/ccy6xxkH.s:2505   .text:0000000000000c14 .L0 
     /tmp/ccy6xxkH.s:2508   .text:0000000000000c1c .L0 
     /tmp/ccy6xxkH.s:2511   .text:0000000000000c20 .L0 
     /tmp/ccy6xxkH.s:2512   .text:0000000000000c20 .L0 
     /tmp/ccy6xxkH.s:2513   .text:0000000000000c20 .L0 
     /tmp/ccy6xxkH.s:2516   .text:0000000000000c28 .L0 
     /tmp/ccy6xxkH.s:2519   .text:0000000000000c2c .L0 
     /tmp/ccy6xxkH.s:2520   .text:0000000000000c2c .L0 
     /tmp/ccy6xxkH.s:2521   .text:0000000000000c2c .L0 
     /tmp/ccy6xxkH.s:2524   .text:0000000000000c34 .L0 
     /tmp/ccy6xxkH.s:2527   .text:0000000000000c38 .L0 
     /tmp/ccy6xxkH.s:2528   .text:0000000000000c38 .L0 
     /tmp/ccy6xxkH.s:2529   .text:0000000000000c38 .L0 
     /tmp/ccy6xxkH.s:2532   .text:0000000000000c40 .L0 
     /tmp/ccy6xxkH.s:2535   .text:0000000000000c44 .L0 
     /tmp/ccy6xxkH.s:2536   .text:0000000000000c44 .L0 
     /tmp/ccy6xxkH.s:2537   .text:0000000000000c44 .L0 
     /tmp/ccy6xxkH.s:2540   .text:0000000000000c4c .L0 
     /tmp/ccy6xxkH.s:2543   .text:0000000000000c50 .L0 
     /tmp/ccy6xxkH.s:2544   .text:0000000000000c50 .L0 
     /tmp/ccy6xxkH.s:2545   .text:0000000000000c50 .L0 
     /tmp/ccy6xxkH.s:2548   .text:0000000000000c58 .L0 
     /tmp/ccy6xxkH.s:2551   .text:0000000000000c5c .L0 
     /tmp/ccy6xxkH.s:2552   .text:0000000000000c5c .L0 
     /tmp/ccy6xxkH.s:2553   .text:0000000000000c5c .L0 
     /tmp/ccy6xxkH.s:2556   .text:0000000000000c64 .L0 
     /tmp/ccy6xxkH.s:2559   .text:0000000000000c68 .L0 
     /tmp/ccy6xxkH.s:2560   .text:0000000000000c68 .L0 
     /tmp/ccy6xxkH.s:2561   .text:0000000000000c68 .L0 
     /tmp/ccy6xxkH.s:2564   .text:0000000000000c70 .L0 
     /tmp/ccy6xxkH.s:2567   .text:0000000000000c74 .L0 
     /tmp/ccy6xxkH.s:2568   .text:0000000000000c74 .L0 
     /tmp/ccy6xxkH.s:2569   .text:0000000000000c74 .L0 
     /tmp/ccy6xxkH.s:2572   .text:0000000000000c7c .L0 
     /tmp/ccy6xxkH.s:2575   .text:0000000000000c80 .L0 
     /tmp/ccy6xxkH.s:2576   .text:0000000000000c80 .L0 
     /tmp/ccy6xxkH.s:2577   .text:0000000000000c80 .L0 
     /tmp/ccy6xxkH.s:2580   .text:0000000000000c88 .L0 
     /tmp/ccy6xxkH.s:2583   .text:0000000000000c8c .L0 
GAS LISTING /tmp/ccy6xxkH.s 			page 119


     /tmp/ccy6xxkH.s:2584   .text:0000000000000c8c .L0 
     /tmp/ccy6xxkH.s:2585   .text:0000000000000c8c .L0 
     /tmp/ccy6xxkH.s:2588   .text:0000000000000c94 .L0 
     /tmp/ccy6xxkH.s:2591   .text:0000000000000c98 .L0 
     /tmp/ccy6xxkH.s:2592   .text:0000000000000c98 .L0 
     /tmp/ccy6xxkH.s:2593   .text:0000000000000c98 .L0 
     /tmp/ccy6xxkH.s:2596   .text:0000000000000ca0 .L0 
     /tmp/ccy6xxkH.s:2599   .text:0000000000000ca4 .L0 
     /tmp/ccy6xxkH.s:2600   .text:0000000000000ca4 .L0 
     /tmp/ccy6xxkH.s:2601   .text:0000000000000ca4 .L0 
     /tmp/ccy6xxkH.s:2604   .text:0000000000000cac .L0 
     /tmp/ccy6xxkH.s:2607   .text:0000000000000cb0 .L0 
     /tmp/ccy6xxkH.s:2608   .text:0000000000000cb0 .L0 
     /tmp/ccy6xxkH.s:2609   .text:0000000000000cb0 .L0 
     /tmp/ccy6xxkH.s:2612   .text:0000000000000cb8 .L0 
     /tmp/ccy6xxkH.s:2615   .text:0000000000000cbc .L0 
     /tmp/ccy6xxkH.s:2616   .text:0000000000000cbc .L0 
src/kernel/riscv.cpp:91     .text:0000000000000cbc .L0 
     /tmp/ccy6xxkH.s:2625   .text:0000000000000ccc .L0 
     /tmp/ccy6xxkH.s:2626   .text:0000000000000ccc .L0 
     /tmp/ccy6xxkH.s:2629   .text:0000000000000cd4 .L0 
     /tmp/ccy6xxkH.s:2630   .text:0000000000000cd4 .L0 
     /tmp/ccy6xxkH.s:2633   .text:0000000000000cdc .L0 
     /tmp/ccy6xxkH.s:2641   .text:0000000000000ce0 .L0 
     /tmp/ccy6xxkH.s:2642   .text:0000000000000ce0 .L0 
     /tmp/ccy6xxkH.s:2643   .text:0000000000000ce0 .L0 
src/kernel/../../h/riscv.hpp:185    .text:0000000000000ce0 .L0 
     /tmp/ccy6xxkH.s:2653   .text:0000000000000ce4 .L0 
     /tmp/ccy6xxkH.s:2654   .text:0000000000000ce4 .L0 
     /tmp/ccy6xxkH.s:2658   .text:0000000000000ce8 .L0 
     /tmp/ccy6xxkH.s:2659   .text:0000000000000ce8 .L0 
     /tmp/ccy6xxkH.s:2660   .text:0000000000000ce8 .L0 
src/kernel/../../h/riscv.hpp:165    .text:0000000000000ce8 .L0 
     /tmp/ccy6xxkH.s:2670   .text:0000000000000cec .L0 
     /tmp/ccy6xxkH.s:2671   .text:0000000000000cec .L0 
     /tmp/ccy6xxkH.s:2676   .text:0000000000000cf0 .L0 
     /tmp/ccy6xxkH.s:2677   .text:0000000000000cf0 .L0 
     /tmp/ccy6xxkH.s:2678   .text:0000000000000cf0 .L0 
     /tmp/ccy6xxkH.s:2688   .text:0000000000000cf8 .L0 
     /tmp/ccy6xxkH.s:2689   .text:0000000000000cf8 .L0 
     /tmp/ccy6xxkH.s:2694   .text:0000000000000d0c .L0 
     /tmp/ccy6xxkH.s:2695   .text:0000000000000d0c .L0 
     /tmp/ccy6xxkH.s:2698   .text:0000000000000d14 .L0 
     /tmp/ccy6xxkH.s:2699   .text:0000000000000d14 .L0 
     /tmp/ccy6xxkH.s:2705   .text:0000000000000d28 .L0 
     /tmp/ccy6xxkH.s:2706   .text:0000000000000d28 .L0 
     /tmp/ccy6xxkH.s:2710   .text:0000000000000d38 .L0 
     /tmp/ccy6xxkH.s:2714   .text:0000000000000d3c .L0 
     /tmp/ccy6xxkH.s:2715   .text:0000000000000d3c .L0 
     /tmp/ccy6xxkH.s:2720   .text:0000000000000d40 .L0 
src/kernel/../../h/riscv.hpp:180    .text:0000000000000d40 .L0 
     /tmp/ccy6xxkH.s:2730   .text:0000000000000d44 .L0 
     /tmp/ccy6xxkH.s:2731   .text:0000000000000d44 .L0 
     /tmp/ccy6xxkH.s:2736   .text:0000000000000d48 .L0 
src/kernel/../../h/riscv.hpp:170    .text:0000000000000d48 .L0 
     /tmp/ccy6xxkH.s:2743   .text:0000000000000d4c .L0 
     /tmp/ccy6xxkH.s:2751   .text:0000000000000d50 .L0 
GAS LISTING /tmp/ccy6xxkH.s 			page 120


     /tmp/ccy6xxkH.s:2752   .text:0000000000000d50 .L0 
     /tmp/ccy6xxkH.s:2756   .text:0000000000000d5c .L0 
     /tmp/ccy6xxkH.s:2757   .text:0000000000000d5c .L0 
     /tmp/ccy6xxkH.s:2758   .text:0000000000000d5c .L0 
     /tmp/ccy6xxkH.s:2761   .text:0000000000000d64 .L0 
     /tmp/ccy6xxkH.s:2762   .text:0000000000000d64 .L0 
     /tmp/ccy6xxkH.s:2774   .text:0000000000000d70 .L0 
     /tmp/ccy6xxkH.s:2775   .text:0000000000000d70 .L0 
     /tmp/ccy6xxkH.s:2776   .text:0000000000000d70 .L0 
src/kernel/../../h/riscv.hpp:185    .text:0000000000000d70 .L0 
     /tmp/ccy6xxkH.s:2786   .text:0000000000000d74 .L0 
     /tmp/ccy6xxkH.s:2787   .text:0000000000000d74 .L0 
     /tmp/ccy6xxkH.s:2791   .text:0000000000000d78 .L0 
     /tmp/ccy6xxkH.s:2792   .text:0000000000000d78 .L0 
     /tmp/ccy6xxkH.s:2793   .text:0000000000000d78 .L0 
src/kernel/../../h/riscv.hpp:165    .text:0000000000000d78 .L0 
     /tmp/ccy6xxkH.s:2803   .text:0000000000000d7c .L0 
     /tmp/ccy6xxkH.s:2804   .text:0000000000000d7c .L0 
     /tmp/ccy6xxkH.s:2806   .text:0000000000000d80 .L0 
     /tmp/ccy6xxkH.s:2807   .text:0000000000000d80 .L0 
     /tmp/ccy6xxkH.s:2811   .text:0000000000000d8c .L0 
src/kernel/riscv.cpp:146    .text:0000000000000d8c .L0 
     /tmp/ccy6xxkH.s:2817   .text:0000000000000d90 .L0 
src/kernel/riscv.cpp:147    .text:0000000000000d90 .L0 
     /tmp/ccy6xxkH.s:2822   .text:0000000000000d94 .L0 
src/kernel/riscv.cpp:148    .text:0000000000000d94 .L0 
     /tmp/ccy6xxkH.s:2830   .text:0000000000000d98 .L0 
     /tmp/ccy6xxkH.s:2831   .text:0000000000000d98 .L0 
     /tmp/ccy6xxkH.s:2834   .text:0000000000000d9c .L0 
     /tmp/ccy6xxkH.s:2837   .text:0000000000000da0 .L0 
     /tmp/ccy6xxkH.s:2838   .text:0000000000000da0 .L0 
     /tmp/ccy6xxkH.s:2839   .text:0000000000000da0 .L0 
     /tmp/ccy6xxkH.s:2840   .text:0000000000000da0 .L0 
     /tmp/ccy6xxkH.s:2844   .text:0000000000000dac .L0 
src/kernel/riscv.cpp:157    .text:0000000000000dac .L0 
     /tmp/ccy6xxkH.s:2850   .text:0000000000000db0 .L0 
src/kernel/riscv.cpp:158    .text:0000000000000db0 .L0 
     /tmp/ccy6xxkH.s:2855   .text:0000000000000db4 .L0 
src/kernel/riscv.cpp:159    .text:0000000000000db4 .L0 
     /tmp/ccy6xxkH.s:2863   .text:0000000000000dbc .L0 
     /tmp/ccy6xxkH.s:2864   .text:0000000000000dbc .L0 
     /tmp/ccy6xxkH.s:2868   .text:0000000000000dc8 .L0 
     /tmp/ccy6xxkH.s:2874   .text:0000000000000dcc .L0 
     /tmp/ccy6xxkH.s:2875   .text:0000000000000dcc .L0 
     /tmp/ccy6xxkH.s:2880   .text:0000000000000ddc .L0 
     /tmp/ccy6xxkH.s:2881   .text:0000000000000ddc .L0 
     /tmp/ccy6xxkH.s:2886   .text:0000000000000de0 .L0 
src/kernel/../../h/riscv.hpp:180    .text:0000000000000de0 .L0 
     /tmp/ccy6xxkH.s:2896   .text:0000000000000de4 .L0 
     /tmp/ccy6xxkH.s:2897   .text:0000000000000de4 .L0 
     /tmp/ccy6xxkH.s:2902   .text:0000000000000de8 .L0 
src/kernel/../../h/riscv.hpp:170    .text:0000000000000de8 .L0 
     /tmp/ccy6xxkH.s:2909   .text:0000000000000dec .L0 
     /tmp/ccy6xxkH.s:2917   .text:0000000000000df0 .L0 
     /tmp/ccy6xxkH.s:2918   .text:0000000000000df0 .L0 
     /tmp/ccy6xxkH.s:2922   .text:0000000000000e00 .L0 
     /tmp/ccy6xxkH.s:2923   .text:0000000000000e00 .L0 
GAS LISTING /tmp/ccy6xxkH.s 			page 121


     /tmp/ccy6xxkH.s:2934   .text:0000000000000e0c .L0 
     /tmp/ccy6xxkH.s:2935   .text:0000000000000e0c .L0 
     /tmp/ccy6xxkH.s:2939   .text:0000000000000e18 .L0 
     /tmp/ccy6xxkH.s:2940   .text:0000000000000e18 .L0 
     /tmp/ccy6xxkH.s:2943   .text:0000000000000e20 .L0 
     /tmp/ccy6xxkH.s:2944   .text:0000000000000e20 .L0 
     /tmp/ccy6xxkH.s:2950   .text:0000000000000e30 .L0 
     /tmp/ccy6xxkH.s:2951   .text:0000000000000e30 .L0 
     /tmp/ccy6xxkH.s:2952   .text:0000000000000e30 .L0 
src/kernel/../../h/riscv.hpp:165    .text:0000000000000e30 .L0 
     /tmp/ccy6xxkH.s:2961   .text:0000000000000e34 .L0 
     /tmp/ccy6xxkH.s:2962   .text:0000000000000e34 .L0 
     /tmp/ccy6xxkH.s:2963   .text:0000000000000e34 .L0 
     /tmp/ccy6xxkH.s:2969   .text:0000000000000e48 .L0 
     /tmp/ccy6xxkH.s:2970   .text:0000000000000e48 .L0 
     /tmp/ccy6xxkH.s:2974   .text:0000000000000e58 .L0 
     /tmp/ccy6xxkH.s:2975   .text:0000000000000e58 .L0 
     /tmp/ccy6xxkH.s:2979   .text:0000000000000e68 .L0 
     /tmp/ccy6xxkH.s:2980   .text:0000000000000e68 .L0 
     /tmp/ccy6xxkH.s:2988   .text:0000000000000e74 .L0 
     /tmp/ccy6xxkH.s:2994   .text:0000000000000e74 _ZN5RiscV16threadCreateUtilEPP3TCBPFvPvES3_
     /tmp/ccy6xxkH.s:2997   .text:0000000000000e74 .L0 
     /tmp/ccy6xxkH.s:2999   .text:0000000000000e74 .L0 
     /tmp/ccy6xxkH.s:3000   .text:0000000000000e78 .L0 
     /tmp/ccy6xxkH.s:3006   .text:0000000000000e8c .L0 
     /tmp/ccy6xxkH.s:3007   .text:0000000000000e8c .L0 
     /tmp/ccy6xxkH.s:3008   .text:0000000000000e8c .L0 
     /tmp/ccy6xxkH.s:3009   .text:0000000000000e8c .L0 
     /tmp/ccy6xxkH.s:3010   .text:0000000000000e8c .L0 
     /tmp/ccy6xxkH.s:3012   .text:0000000000000e90 .L0 
     /tmp/ccy6xxkH.s:3018   .text:0000000000000e9c .L0 
     /tmp/ccy6xxkH.s:3019   .text:0000000000000e9c .L0 
     /tmp/ccy6xxkH.s:3020   .text:0000000000000e9c .L0 
     /tmp/ccy6xxkH.s:3021   .text:0000000000000e9c .L0 
     /tmp/ccy6xxkH.s:3022   .text:0000000000000e9c .L0 
     /tmp/ccy6xxkH.s:3024   .text:0000000000000ea0 .L0 
     /tmp/ccy6xxkH.s:3025   .text:0000000000000ea0 .L0 
     /tmp/ccy6xxkH.s:3030   .text:0000000000000eac .L0 
     /tmp/ccy6xxkH.s:3032   .text:0000000000000eb0 .L0 
     /tmp/ccy6xxkH.s:3033   .text:0000000000000eb0 .L0 
     /tmp/ccy6xxkH.s:3035   .text:0000000000000eb4 .L0 
     /tmp/ccy6xxkH.s:3039   .text:0000000000000eb8 .L0 
     /tmp/ccy6xxkH.s:3043   .text:0000000000000ebc .L0 
src/kernel/riscv.cpp:727    .text:0000000000000ebc .L0 
     /tmp/ccy6xxkH.s:3049   .text:0000000000000ec0 .L0 
src/kernel/riscv.cpp:728    .text:0000000000000ec0 .L0 
     /tmp/ccy6xxkH.s:3054   .text:0000000000000ec4 .L0 
src/kernel/riscv.cpp:729    .text:0000000000000ec4 .L0 
     /tmp/ccy6xxkH.s:3059   .text:0000000000000ec8 .L0 
src/kernel/riscv.cpp:730    .text:0000000000000ec8 .L0 
     /tmp/ccy6xxkH.s:3064   .text:0000000000000ecc .L0 
src/kernel/riscv.cpp:731    .text:0000000000000ecc .L0 
     /tmp/ccy6xxkH.s:3069   .text:0000000000000ed0 .L0 
src/kernel/riscv.cpp:733    .text:0000000000000ed0 .L0 
     /tmp/ccy6xxkH.s:3074   .text:0000000000000ed4 .L0 
     /tmp/ccy6xxkH.s:3078   .text:0000000000000ed4 .L0 
     /tmp/ccy6xxkH.s:3079   .text:0000000000000ed4 .L0 
GAS LISTING /tmp/ccy6xxkH.s 			page 122


     /tmp/ccy6xxkH.s:3080   .text:0000000000000ed8 .L0 
     /tmp/ccy6xxkH.s:3082   .text:0000000000000edc .L0 
     /tmp/ccy6xxkH.s:3083   .text:0000000000000edc .L0 
     /tmp/ccy6xxkH.s:3085   .text:0000000000000ee0 .L0 
     /tmp/ccy6xxkH.s:3088   .text:0000000000000ee4 .L0 
     /tmp/ccy6xxkH.s:3091   .text:0000000000000ee8 .L0 
     /tmp/ccy6xxkH.s:3094   .text:0000000000000eec .L0 
     /tmp/ccy6xxkH.s:3096   .text:0000000000000ef0 .L0 
     /tmp/ccy6xxkH.s:3102   .text:0000000000000ef0 _ZN5RiscV14threadExitUtilEv
     /tmp/ccy6xxkH.s:3105   .text:0000000000000ef0 .L0 
     /tmp/ccy6xxkH.s:3106   .text:0000000000000ef0 .L0 
     /tmp/ccy6xxkH.s:3107   .text:0000000000000ef4 .L0 
     /tmp/ccy6xxkH.s:3109   .text:0000000000000ef8 .L0 
     /tmp/ccy6xxkH.s:3111   .text:0000000000000efc .L0 
     /tmp/ccy6xxkH.s:3113   .text:0000000000000efc .L0 
src/kernel/riscv.cpp:742    .text:0000000000000efc .L0 
     /tmp/ccy6xxkH.s:3119   .text:0000000000000f00 .L0 
src/kernel/riscv.cpp:744    .text:0000000000000f00 .L0 
     /tmp/ccy6xxkH.s:3124   .text:0000000000000f04 .L0 
     /tmp/ccy6xxkH.s:3126   .text:0000000000000f04 .L0 
     /tmp/ccy6xxkH.s:3128   .text:0000000000000f04 .L0 
     /tmp/ccy6xxkH.s:3129   .text:0000000000000f08 .L0 
     /tmp/ccy6xxkH.s:3130   .text:0000000000000f08 .L0 
     /tmp/ccy6xxkH.s:3132   .text:0000000000000f0c .L0 
     /tmp/ccy6xxkH.s:3134   .text:0000000000000f10 .L0 
     /tmp/ccy6xxkH.s:3140   .text:0000000000000f10 _ZN5RiscV18threadDispatchUtilEv
     /tmp/ccy6xxkH.s:3143   .text:0000000000000f10 .L0 
     /tmp/ccy6xxkH.s:3144   .text:0000000000000f10 .L0 
     /tmp/ccy6xxkH.s:3145   .text:0000000000000f14 .L0 
     /tmp/ccy6xxkH.s:3147   .text:0000000000000f18 .L0 
     /tmp/ccy6xxkH.s:3149   .text:0000000000000f1c .L0 
     /tmp/ccy6xxkH.s:3151   .text:0000000000000f1c .L0 
src/kernel/riscv.cpp:752    .text:0000000000000f1c .L0 
     /tmp/ccy6xxkH.s:3157   .text:0000000000000f20 .L0 
src/kernel/riscv.cpp:754    .text:0000000000000f20 .L0 
     /tmp/ccy6xxkH.s:3163   .text:0000000000000f24 .L0 
     /tmp/ccy6xxkH.s:3164   .text:0000000000000f28 .L0 
     /tmp/ccy6xxkH.s:3165   .text:0000000000000f28 .L0 
     /tmp/ccy6xxkH.s:3167   .text:0000000000000f2c .L0 
     /tmp/ccy6xxkH.s:3169   .text:0000000000000f30 .L0 
     /tmp/ccy6xxkH.s:3175   .text:0000000000000f30 _ZN5RiscV11putcWrapperEPv
     /tmp/ccy6xxkH.s:3178   .text:0000000000000f30 .L0 
     /tmp/ccy6xxkH.s:3180   .text:0000000000000f30 .L0 
     /tmp/ccy6xxkH.s:3181   .text:0000000000000f34 .L0 
     /tmp/ccy6xxkH.s:3184   .text:0000000000000f3c .L0 
     /tmp/ccy6xxkH.s:3185   .text:0000000000000f3c .L0 
     /tmp/ccy6xxkH.s:3187   .text:0000000000000f40 .L0 
     /tmp/ccy6xxkH.s:3194   .text:0000000000000f44 .L0 
     /tmp/ccy6xxkH.s:3195   .text:0000000000000f44 .L0 
     /tmp/ccy6xxkH.s:3202   .text:0000000000000f4c .L0 
     /tmp/ccy6xxkH.s:3203   .text:0000000000000f4c .L0 
     /tmp/ccy6xxkH.s:3204   .text:0000000000000f4c .L0 
     /tmp/ccy6xxkH.s:3208   .text:0000000000000f58 .L0 
src/kernel/riscv.cpp:526    .text:0000000000000f58 .L0 
     /tmp/ccy6xxkH.s:3214   .text:0000000000000f5c .L0 
src/kernel/riscv.cpp:527    .text:0000000000000f5c .L0 
     /tmp/ccy6xxkH.s:3219   .text:0000000000000f60 .L0 
GAS LISTING /tmp/ccy6xxkH.s 			page 123


src/kernel/riscv.cpp:528    .text:0000000000000f60 .L0 
     /tmp/ccy6xxkH.s:3227   .text:0000000000000f64 .L0 
     /tmp/ccy6xxkH.s:3228   .text:0000000000000f64 .L0 
     /tmp/ccy6xxkH.s:3231   .text:0000000000000f68 .L0 
     /tmp/ccy6xxkH.s:3234   .text:0000000000000f6c .L0 
     /tmp/ccy6xxkH.s:3235   .text:0000000000000f6c .L0 
     /tmp/ccy6xxkH.s:3238   .text:0000000000000f74 .L0 
     /tmp/ccy6xxkH.s:3240   .text:0000000000000f78 .L0 
     /tmp/ccy6xxkH.s:3241   .text:0000000000000f78 .L0 
     /tmp/ccy6xxkH.s:3245   .text:0000000000000f84 .L0 
src/kernel/riscv.cpp:536    .text:0000000000000f84 .L0 
     /tmp/ccy6xxkH.s:3251   .text:0000000000000f88 .L0 
     /tmp/ccy6xxkH.s:3253   .text:0000000000000f88 .L0 
src/kernel/riscv.cpp:537    .text:0000000000000f8c .L0 
     /tmp/ccy6xxkH.s:3261   .text:0000000000000f90 .L0 
src/kernel/riscv.cpp:538    .text:0000000000000f90 .L0 
     /tmp/ccy6xxkH.s:3266   .text:0000000000000f94 .L0 
     /tmp/ccy6xxkH.s:3268   .text:0000000000000f94 .L0 
     /tmp/ccy6xxkH.s:3271   .text:0000000000000fa0 .L0 
     /tmp/ccy6xxkH.s:3273   .text:0000000000000fa4 .L0 
     /tmp/ccy6xxkH.s:3274   .text:0000000000000fa4 .L0 
     /tmp/ccy6xxkH.s:3281   .text:0000000000000fb8 .L0 
     /tmp/ccy6xxkH.s:3287   .text:0000000000000fb8 _ZN5RiscV6getPMTEv
     /tmp/ccy6xxkH.s:3290   .text:0000000000000fb8 .L0 
     /tmp/ccy6xxkH.s:3291   .text:0000000000000fb8 .L0 
     /tmp/ccy6xxkH.s:3292   .text:0000000000000fbc .L0 
     /tmp/ccy6xxkH.s:3295   .text:0000000000000fc4 .L0 
     /tmp/ccy6xxkH.s:3296   .text:0000000000000fc4 .L0 
     /tmp/ccy6xxkH.s:3298   .text:0000000000000fc8 .L0 
     /tmp/ccy6xxkH.s:3300   .text:0000000000000fc8 .L0 
     /tmp/ccy6xxkH.s:3301   .text:0000000000000fc8 .L0 
     /tmp/ccy6xxkH.s:3305   .text:0000000000000fd4 .L0 
     /tmp/ccy6xxkH.s:3307   .text:0000000000000fd4 .L0 
     /tmp/ccy6xxkH.s:3308   .text:0000000000000fd4 .L0 
     /tmp/ccy6xxkH.s:3312   .text:0000000000000fd8 .L0 
     /tmp/ccy6xxkH.s:3315   .text:0000000000000fe0 .L0 
     /tmp/ccy6xxkH.s:3316   .text:0000000000000fe0 .L0 
     /tmp/ccy6xxkH.s:3319   .text:0000000000000fe8 .L0 
     /tmp/ccy6xxkH.s:3321   .text:0000000000000fec .L0 
     /tmp/ccy6xxkH.s:3328   .text:0000000000000ff4 .L0 
     /tmp/ccy6xxkH.s:3329   .text:0000000000000ff8 .L0 
     /tmp/ccy6xxkH.s:3331   .text:0000000000000ffc .L0 
     /tmp/ccy6xxkH.s:3332   .text:0000000000000ffc .L0 
     /tmp/ccy6xxkH.s:3334   .text:0000000000001000 .L0 
     /tmp/ccy6xxkH.s:3336   .text:0000000000001004 .L0 
     /tmp/ccy6xxkH.s:3342   .text:0000000000001004 _ZN5RiscV15handlePageFaultEPvmm
     /tmp/ccy6xxkH.s:3345   .text:0000000000001004 .L0 
     /tmp/ccy6xxkH.s:3347   .text:0000000000001004 .L0 
     /tmp/ccy6xxkH.s:3348   .text:0000000000001008 .L0 
     /tmp/ccy6xxkH.s:3356   .text:0000000000001024 .L0 
     /tmp/ccy6xxkH.s:3357   .text:0000000000001024 .L0 
     /tmp/ccy6xxkH.s:3358   .text:0000000000001024 .L0 
     /tmp/ccy6xxkH.s:3359   .text:0000000000001024 .L0 
     /tmp/ccy6xxkH.s:3360   .text:0000000000001024 .L0 
     /tmp/ccy6xxkH.s:3361   .text:0000000000001024 .L0 
     /tmp/ccy6xxkH.s:3362   .text:0000000000001024 .L0 
     /tmp/ccy6xxkH.s:3364   .text:0000000000001028 .L0 
GAS LISTING /tmp/ccy6xxkH.s 			page 124


     /tmp/ccy6xxkH.s:3367   .text:000000000000102c .L0 
     /tmp/ccy6xxkH.s:3368   .text:000000000000102c .L0 
     /tmp/ccy6xxkH.s:3370   .text:0000000000001030 .L0 
     /tmp/ccy6xxkH.s:3373   .text:0000000000001034 .L0 
     /tmp/ccy6xxkH.s:3374   .text:0000000000001034 .L0 
     /tmp/ccy6xxkH.s:3375   .text:0000000000001034 .L0 
     /tmp/ccy6xxkH.s:3377   .text:0000000000001038 .L0 
     /tmp/ccy6xxkH.s:3380   .text:000000000000103c .L0 
     /tmp/ccy6xxkH.s:3381   .text:000000000000103c .L0 
     /tmp/ccy6xxkH.s:3383   .text:0000000000001040 .L0 
     /tmp/ccy6xxkH.s:3386   .text:0000000000001044 .L0 
     /tmp/ccy6xxkH.s:3387   .text:0000000000001044 .L0 
     /tmp/ccy6xxkH.s:3391   .text:000000000000104c .L0 
     /tmp/ccy6xxkH.s:3394   .text:0000000000001050 .L0 
     /tmp/ccy6xxkH.s:3395   .text:0000000000001050 .L0 
     /tmp/ccy6xxkH.s:3397   .text:0000000000001054 .L0 
     /tmp/ccy6xxkH.s:3398   .text:0000000000001054 .L0 
     /tmp/ccy6xxkH.s:3401   .text:0000000000001058 .L0 
     /tmp/ccy6xxkH.s:3405   .text:000000000000105c .L0 
     /tmp/ccy6xxkH.s:3406   .text:000000000000105c .L0 
     /tmp/ccy6xxkH.s:3410   .text:0000000000001064 .L0 
     /tmp/ccy6xxkH.s:3413   .text:0000000000001068 .L0 
     /tmp/ccy6xxkH.s:3414   .text:0000000000001068 .L0 
     /tmp/ccy6xxkH.s:3416   .text:000000000000106c .L0 
     /tmp/ccy6xxkH.s:3417   .text:000000000000106c .L0 
     /tmp/ccy6xxkH.s:3420   .text:0000000000001070 .L0 
     /tmp/ccy6xxkH.s:3424   .text:0000000000001074 .L0 
     /tmp/ccy6xxkH.s:3425   .text:0000000000001074 .L0 
     /tmp/ccy6xxkH.s:3430   .text:000000000000107c .L0 
     /tmp/ccy6xxkH.s:3433   .text:0000000000001080 .L0 
     /tmp/ccy6xxkH.s:3435   .text:0000000000001084 .L0 
     /tmp/ccy6xxkH.s:3436   .text:0000000000001084 .L0 
     /tmp/ccy6xxkH.s:3439   .text:0000000000001088 .L0 
     /tmp/ccy6xxkH.s:3442   .text:000000000000108c .L0 
     /tmp/ccy6xxkH.s:3445   .text:0000000000001090 .L0 
     /tmp/ccy6xxkH.s:3446   .text:0000000000001094 .L0 
     /tmp/ccy6xxkH.s:3447   .text:0000000000001094 .L0 
     /tmp/ccy6xxkH.s:3449   .text:0000000000001098 .L0 
     /tmp/ccy6xxkH.s:3450   .text:0000000000001098 .L0 
     /tmp/ccy6xxkH.s:3452   .text:000000000000109c .L0 
     /tmp/ccy6xxkH.s:3454   .text:00000000000010a0 .L0 
     /tmp/ccy6xxkH.s:3456   .text:00000000000010a4 .L0 
     /tmp/ccy6xxkH.s:3458   .text:00000000000010a8 .L0 
     /tmp/ccy6xxkH.s:3460   .text:00000000000010ac .L0 
     /tmp/ccy6xxkH.s:3462   .text:00000000000010b0 .L0 
     /tmp/ccy6xxkH.s:3466   .text:00000000000010b4 .L0 
     /tmp/ccy6xxkH.s:3468   .text:00000000000010b4 .L0 
     /tmp/ccy6xxkH.s:3469   .text:00000000000010b4 .L0 
     /tmp/ccy6xxkH.s:3472   .text:00000000000010bc .L0 
     /tmp/ccy6xxkH.s:3473   .text:00000000000010bc .L0 
     /tmp/ccy6xxkH.s:3475   .text:00000000000010c0 .L0 
     /tmp/ccy6xxkH.s:3477   .text:00000000000010c4 .L0 
     /tmp/ccy6xxkH.s:3479   .text:00000000000010c8 .L0 
     /tmp/ccy6xxkH.s:3484   .text:00000000000010d0 .L0 
     /tmp/ccy6xxkH.s:3485   .text:00000000000010d0 .L0 
     /tmp/ccy6xxkH.s:3488   .text:00000000000010d8 .L0 
     /tmp/ccy6xxkH.s:3489   .text:00000000000010d8 .L0 
GAS LISTING /tmp/ccy6xxkH.s 			page 125


     /tmp/ccy6xxkH.s:3491   .text:00000000000010dc .L0 
     /tmp/ccy6xxkH.s:3493   .text:00000000000010e0 .L0 
     /tmp/ccy6xxkH.s:3495   .text:00000000000010e4 .L0 
     /tmp/ccy6xxkH.s:3497   .text:00000000000010ec .L0 
     /tmp/ccy6xxkH.s:3503   .text:00000000000010ec _ZN5RiscV12buildSectionEPvmmm
     /tmp/ccy6xxkH.s:3506   .text:00000000000010ec .L0 
     /tmp/ccy6xxkH.s:3508   .text:00000000000010ec .L0 
     /tmp/ccy6xxkH.s:3509   .text:00000000000010f0 .L0 
     /tmp/ccy6xxkH.s:3515   .text:0000000000001104 .L0 
     /tmp/ccy6xxkH.s:3516   .text:0000000000001104 .L0 
     /tmp/ccy6xxkH.s:3517   .text:0000000000001104 .L0 
     /tmp/ccy6xxkH.s:3518   .text:0000000000001104 .L0 
     /tmp/ccy6xxkH.s:3519   .text:0000000000001104 .L0 
     /tmp/ccy6xxkH.s:3521   .text:0000000000001108 .L0 
     /tmp/ccy6xxkH.s:3529   .text:0000000000001114 .L0 
     /tmp/ccy6xxkH.s:3530   .text:0000000000001114 .L0 
     /tmp/ccy6xxkH.s:3532   .text:0000000000001118 .L0 
     /tmp/ccy6xxkH.s:3533   .text:0000000000001118 .L0 
     /tmp/ccy6xxkH.s:3539   .text:0000000000001130 .L0 
     /tmp/ccy6xxkH.s:3540   .text:0000000000001130 .L0 
     /tmp/ccy6xxkH.s:3544   .text:0000000000001138 .L0 
     /tmp/ccy6xxkH.s:3548   .text:000000000000113c .L0 
     /tmp/ccy6xxkH.s:3549   .text:0000000000001140 .L0 
     /tmp/ccy6xxkH.s:3551   .text:0000000000001144 .L0 
     /tmp/ccy6xxkH.s:3552   .text:0000000000001144 .L0 
     /tmp/ccy6xxkH.s:3554   .text:0000000000001148 .L0 
     /tmp/ccy6xxkH.s:3557   .text:000000000000114c .L0 
     /tmp/ccy6xxkH.s:3560   .text:0000000000001150 .L0 
     /tmp/ccy6xxkH.s:3563   .text:0000000000001154 .L0 
     /tmp/ccy6xxkH.s:3565   .text:0000000000001158 .L0 
     /tmp/ccy6xxkH.s:3571   .text:0000000000001158 _ZN5RiscV14buildKernelPMTEv
     /tmp/ccy6xxkH.s:3574   .text:0000000000001158 .L0 
     /tmp/ccy6xxkH.s:3575   .text:0000000000001158 .L0 
     /tmp/ccy6xxkH.s:3576   .text:000000000000115c .L0 
     /tmp/ccy6xxkH.s:3583   .text:0000000000001174 .L0 
     /tmp/ccy6xxkH.s:3584   .text:0000000000001174 .L0 
     /tmp/ccy6xxkH.s:3585   .text:0000000000001174 .L0 
     /tmp/ccy6xxkH.s:3586   .text:0000000000001174 .L0 
     /tmp/ccy6xxkH.s:3587   .text:0000000000001174 .L0 
     /tmp/ccy6xxkH.s:3588   .text:0000000000001174 .L0 
     /tmp/ccy6xxkH.s:3590   .text:0000000000001178 .L0 
     /tmp/ccy6xxkH.s:3592   .text:0000000000001178 .L0 
     /tmp/ccy6xxkH.s:3593   .text:0000000000001178 .L0 
     /tmp/ccy6xxkH.s:3596   .text:0000000000001180 .L0 
     /tmp/ccy6xxkH.s:3599   .text:000000000000118c .L0 
     /tmp/ccy6xxkH.s:3600   .text:000000000000118c .L0 
     /tmp/ccy6xxkH.s:3604   .text:000000000000119c .L0 
     /tmp/ccy6xxkH.s:3607   .text:00000000000011a8 .L0 
     /tmp/ccy6xxkH.s:3610   .text:00000000000011ac .L0 
     /tmp/ccy6xxkH.s:3611   .text:00000000000011ac .L0 
     /tmp/ccy6xxkH.s:3619   .text:00000000000011cc .L0 
     /tmp/ccy6xxkH.s:3620   .text:00000000000011cc .L0 
     /tmp/ccy6xxkH.s:3628   .text:00000000000011ec .L0 
     /tmp/ccy6xxkH.s:3629   .text:00000000000011ec .L0 
     /tmp/ccy6xxkH.s:3637   .text:000000000000120c .L0 
     /tmp/ccy6xxkH.s:3638   .text:000000000000120c .L0 
     /tmp/ccy6xxkH.s:3646   .text:000000000000122c .L0 
GAS LISTING /tmp/ccy6xxkH.s 			page 126


     /tmp/ccy6xxkH.s:3647   .text:000000000000122c .L0 
     /tmp/ccy6xxkH.s:3654   .text:0000000000001244 .L0 
     /tmp/ccy6xxkH.s:3655   .text:0000000000001244 .L0 
     /tmp/ccy6xxkH.s:3665   .text:0000000000001264 .L0 
     /tmp/ccy6xxkH.s:3666   .text:0000000000001264 .L0 
     /tmp/ccy6xxkH.s:3667   .text:0000000000001264 .L0 
     /tmp/ccy6xxkH.s:3677   .text:000000000000126c .L0 
     /tmp/ccy6xxkH.s:3678   .text:000000000000126c .L0 
     /tmp/ccy6xxkH.s:3685   .text:0000000000001288 .L0 
     /tmp/ccy6xxkH.s:3686   .text:0000000000001288 .L0 
     /tmp/ccy6xxkH.s:3693   .text:00000000000012a4 .L0 
     /tmp/ccy6xxkH.s:3694   .text:00000000000012a4 .L0 
     /tmp/ccy6xxkH.s:3701   .text:00000000000012c0 .L0 
     /tmp/ccy6xxkH.s:3702   .text:00000000000012c0 .L0 
     /tmp/ccy6xxkH.s:3709   .text:00000000000012d8 .L0 
     /tmp/ccy6xxkH.s:3710   .text:00000000000012dc .L0 
     /tmp/ccy6xxkH.s:3712   .text:00000000000012e0 .L0 
     /tmp/ccy6xxkH.s:3713   .text:00000000000012e0 .L0 
     /tmp/ccy6xxkH.s:3715   .text:00000000000012e4 .L0 
     /tmp/ccy6xxkH.s:3717   .text:00000000000012e8 .L0 
     /tmp/ccy6xxkH.s:3720   .text:00000000000012ec .L0 
     /tmp/ccy6xxkH.s:3722   .text:00000000000012f0 .L0 
     /tmp/ccy6xxkH.s:3724   .text:00000000000012f4 .L0 
     /tmp/ccy6xxkH.s:3726   .text:00000000000012f8 .L0 
     /tmp/ccy6xxkH.s:3732   .text:00000000000012f8 _ZN5RiscV10initializeEv
     /tmp/ccy6xxkH.s:3735   .text:00000000000012f8 .L0 
     /tmp/ccy6xxkH.s:3736   .text:00000000000012f8 .L0 
     /tmp/ccy6xxkH.s:3737   .text:00000000000012fc .L0 
     /tmp/ccy6xxkH.s:3740   .text:0000000000001304 .L0 
     /tmp/ccy6xxkH.s:3741   .text:0000000000001304 .L0 
     /tmp/ccy6xxkH.s:3743   .text:0000000000001308 .L0 
     /tmp/ccy6xxkH.s:3745   .text:0000000000001308 .L0 
     /tmp/ccy6xxkH.s:3746   .text:0000000000001308 .L0 
     /tmp/ccy6xxkH.s:3751   .text:0000000000001310 .L0 
src/kernel/../../h/riscv.hpp:190    .text:0000000000001310 .L0 
     /tmp/ccy6xxkH.s:3761   .text:0000000000001314 .L0 
     /tmp/ccy6xxkH.s:3762   .text:0000000000001314 .L0 
     /tmp/ccy6xxkH.s:3767   .text:0000000000001328 .L0 
     /tmp/ccy6xxkH.s:3772   .text:0000000000001338 .L0 
     /tmp/ccy6xxkH.s:3773   .text:0000000000001338 .L0 
     /tmp/ccy6xxkH.s:3776   .text:0000000000001340 .L0 
     /tmp/ccy6xxkH.s:3777   .text:0000000000001340 .L0 
     /tmp/ccy6xxkH.s:3780   .text:0000000000001348 .L0 
     /tmp/ccy6xxkH.s:3781   .text:0000000000001348 .L0 
     /tmp/ccy6xxkH.s:3784   .text:0000000000001350 .L0 
     /tmp/ccy6xxkH.s:3785   .text:0000000000001350 .L0 
     /tmp/ccy6xxkH.s:3788   .text:0000000000001358 .L0 
     /tmp/ccy6xxkH.s:3789   .text:0000000000001358 .L0 
     /tmp/ccy6xxkH.s:3792   .text:0000000000001360 .L0 
     /tmp/ccy6xxkH.s:3793   .text:0000000000001360 .L0 
     /tmp/ccy6xxkH.s:3798   .text:0000000000001368 .L0 
     /tmp/ccy6xxkH.s:3799   .text:0000000000001368 .L0 
     /tmp/ccy6xxkH.s:3800   .text:0000000000001368 .L0 
     /tmp/ccy6xxkH.s:3803   .text:0000000000001374 .L0 
     /tmp/ccy6xxkH.s:3808   .text:0000000000001380 .L0 
src/kernel/../../h/riscv.hpp:250    .text:0000000000001380 .L0 
     /tmp/ccy6xxkH.s:3818   .text:0000000000001384 .L0 
GAS LISTING /tmp/ccy6xxkH.s 			page 127


     /tmp/ccy6xxkH.s:3822   .text:0000000000001384 .L0 
     /tmp/ccy6xxkH.s:3823   .text:0000000000001384 .L0 
     /tmp/ccy6xxkH.s:3824   .text:0000000000001384 .L0 
     /tmp/ccy6xxkH.s:3838   .text:000000000000138c .L0 
     /tmp/ccy6xxkH.s:3839   .text:000000000000138c .L0 
     /tmp/ccy6xxkH.s:3840   .text:000000000000138c .L0 
     /tmp/ccy6xxkH.s:3854   .text:0000000000001394 .L0 
     /tmp/ccy6xxkH.s:3855   .text:0000000000001394 .L0 
src/kernel/../../h/riscv.hpp:194    .text:0000000000001394 .L0 
     /tmp/ccy6xxkH.s:3866   .text:0000000000001398 .L0 
     /tmp/ccy6xxkH.s:3867   .text:000000000000139c .L0 
     /tmp/ccy6xxkH.s:3869   .text:00000000000013a0 .L0 
     /tmp/ccy6xxkH.s:3870   .text:00000000000013a0 .L0 
     /tmp/ccy6xxkH.s:3872   .text:00000000000013a4 .L0 
     /tmp/ccy6xxkH.s:3874   .text:00000000000013a8 .L0 
     /tmp/ccy6xxkH.s:3899   .bss:0000000000000018 _ZN5RiscV4uPMTE
     /tmp/ccy6xxkH.s:3895   .bss:0000000000000010 _ZN5RiscV4kPMTE
     /tmp/ccy6xxkH.s:3886   .bss:0000000000000000 _ZN5RiscV16userMainFinishedE
     /tmp/ccy6xxkH.s:3891   .bss:0000000000000008 _ZN5RiscV10globalTimeE
     /tmp/ccy6xxkH.s:3883   .bss:0000000000000000 .LANCHOR0
     /tmp/ccy6xxkH.s:3914   .text:00000000000013a8 .L0 
     /tmp/ccy6xxkH.s:24     .text:000000000000000c .L0 
     /tmp/ccy6xxkH.s:52     .text:0000000000000034 .L0 
     /tmp/ccy6xxkH.s:106    .text:0000000000000068 .L0 
     /tmp/ccy6xxkH.s:146    .text:00000000000000a4 .L0 
     /tmp/ccy6xxkH.s:151    .text:00000000000000b0 .L0 
     /tmp/ccy6xxkH.s:197    .text:00000000000000f0 .L0 
     /tmp/ccy6xxkH.s:267    .text:000000000000013c .L0 
     /tmp/ccy6xxkH.s:270    .text:0000000000000144 .L0 
     /tmp/ccy6xxkH.s:274    .text:0000000000000150 .L0 
     /tmp/ccy6xxkH.s:327    .text:000000000000016c .L0 
     /tmp/ccy6xxkH.s:334    .text:0000000000000180 .L0 
     /tmp/ccy6xxkH.s:341    .text:0000000000000190 .L0 
     /tmp/ccy6xxkH.s:348    .text:00000000000001a4 .L0 
     /tmp/ccy6xxkH.s:350    .text:00000000000001b0 .L0 
     /tmp/ccy6xxkH.s:395    .text:00000000000001ec .L0 
     /tmp/ccy6xxkH.s:492    .text:000000000000025c .L0 
     /tmp/ccy6xxkH.s:977    .text:00000000000004a0 .L0 
     /tmp/ccy6xxkH.s:1271   .text:00000000000005fc .L0 
     /tmp/ccy6xxkH.s:1409   .text:00000000000006a4 .L0 
     /tmp/ccy6xxkH.s:1414   .text:00000000000006b0 .L0 
     /tmp/ccy6xxkH.s:1481   .text:0000000000000718 .L0 
     /tmp/ccy6xxkH.s:1486   .text:0000000000000724 .L0 
     /tmp/ccy6xxkH.s:1773   .text:00000000000008bc .L0 
     /tmp/ccy6xxkH.s:1806   .text:000000000000090c .L0 
     /tmp/ccy6xxkH.s:1811   .text:000000000000091c .L0 
     /tmp/ccy6xxkH.s:1816   .text:000000000000092c .L0 
     /tmp/ccy6xxkH.s:2009   .text:00000000000009fc .L0 
     /tmp/ccy6xxkH.s:2091   .text:0000000000000a3c .L0 
     /tmp/ccy6xxkH.s:2032   .rodata.str1.8:0000000000000038 .LC3
     /tmp/ccy6xxkH.s:2152   .text:0000000000000a9c .L0 
     /tmp/ccy6xxkH.s:2035   .rodata.str1.8:0000000000000048 .LC4
     /tmp/ccy6xxkH.s:2157   .text:0000000000000aac .L0 
     /tmp/ccy6xxkH.s:2023   .rodata.str1.8:0000000000000000 .LC0
     /tmp/ccy6xxkH.s:2188   .text:0000000000000adc .L0 
     /tmp/ccy6xxkH.s:2026   .rodata.str1.8:0000000000000008 .LC1
     /tmp/ccy6xxkH.s:2214   .text:0000000000000b04 .L0 
GAS LISTING /tmp/ccy6xxkH.s 			page 128


     /tmp/ccy6xxkH.s:2220   .text:0000000000000b18 .L0 
     /tmp/ccy6xxkH.s:2038   .rodata.str1.8:0000000000000058 .LC5
     /tmp/ccy6xxkH.s:2222   .text:0000000000000b24 .L0 
     /tmp/ccy6xxkH.s:2227   .text:0000000000000b34 .L0 
     /tmp/ccy6xxkH.s:2041   .rodata.str1.8:0000000000000060 .LC6
     /tmp/ccy6xxkH.s:2236   .text:0000000000000b48 .L0 
     /tmp/ccy6xxkH.s:2288   .text:0000000000000b78 .L0 
     /tmp/ccy6xxkH.s:2319   .rodata:0000000000000000 .L116
     /tmp/ccy6xxkH.s:2311   .text:0000000000000ba4 .L0 
     /tmp/ccy6xxkH.s:2429   .text:0000000000000bc4 .L0 
     /tmp/ccy6xxkH.s:2622   .text:0000000000000cc0 .L0 
     /tmp/ccy6xxkH.s:2689   .text:0000000000000cf8 .L0 
     /tmp/ccy6xxkH.s:2699   .text:0000000000000d14 .L0 
     /tmp/ccy6xxkH.s:2706   .text:0000000000000d28 .L0 
     /tmp/ccy6xxkH.s:2752   .text:0000000000000d50 .L0 
     /tmp/ccy6xxkH.s:2807   .text:0000000000000d80 .L0 
     /tmp/ccy6xxkH.s:2840   .text:0000000000000da0 .L0 
     /tmp/ccy6xxkH.s:2864   .text:0000000000000dbc .L0 
     /tmp/ccy6xxkH.s:2919   .text:0000000000000df4 .L0 
     /tmp/ccy6xxkH.s:2935   .text:0000000000000e0c .L0 
     /tmp/ccy6xxkH.s:2944   .text:0000000000000e20 .L0 
     /tmp/ccy6xxkH.s:2970   .text:0000000000000e48 .L0 
     /tmp/ccy6xxkH.s:2029   .rodata.str1.8:0000000000000010 .LC2
     /tmp/ccy6xxkH.s:2975   .text:0000000000000e58 .L0 
     /tmp/ccy6xxkH.s:3204   .text:0000000000000f4c .L0 
     /tmp/ccy6xxkH.s:3241   .text:0000000000000f78 .L0 
     /tmp/ccy6xxkH.s:3268   .text:0000000000000f94 .L0 
     /tmp/ccy6xxkH.s:3275   .text:0000000000000fa8 .L0 
     /tmp/ccy6xxkH.s:3535   .text:0000000000001120 .L0 
     /tmp/ccy6xxkH.s:3596   .text:0000000000001180 .L0 
     /tmp/ccy6xxkH.s:3600   .text:000000000000118c .L0 
     /tmp/ccy6xxkH.s:3604   .text:000000000000119c .L0 
     /tmp/ccy6xxkH.s:3611   .text:00000000000011ac .L0 
     /tmp/ccy6xxkH.s:3620   .text:00000000000011cc .L0 
     /tmp/ccy6xxkH.s:3629   .text:00000000000011ec .L0 
     /tmp/ccy6xxkH.s:3638   .text:000000000000120c .L0 
     /tmp/ccy6xxkH.s:3656   .text:0000000000001248 .L0 
     /tmp/ccy6xxkH.s:3679   .text:0000000000001270 .L0 
     /tmp/ccy6xxkH.s:3687   .text:000000000000128c .L0 
     /tmp/ccy6xxkH.s:3695   .text:00000000000012a8 .L0 
     /tmp/ccy6xxkH.s:3746   .text:0000000000001308 .L0 
     /tmp/ccy6xxkH.s:3762   .text:0000000000001314 .L0 
     /tmp/ccy6xxkH.s:3800   .text:0000000000001368 .L0 
     /tmp/ccy6xxkH.s:76     .text:0000000000000050 .L5
     /tmp/ccy6xxkH.s:59     .text:0000000000000040 .L3
     /tmp/ccy6xxkH.s:155    .text:00000000000000c4 .L9
     /tmp/ccy6xxkH.s:228    .text:000000000000011c .L15
     /tmp/ccy6xxkH.s:217    .text:0000000000000110 .L11
     /tmp/ccy6xxkH.s:338    .text:0000000000000190 .L17
     /tmp/ccy6xxkH.s:319    .text:000000000000016c .L18
     /tmp/ccy6xxkH.s:359    .text:00000000000001cc .L16
     /tmp/ccy6xxkH.s:345    .text:00000000000001a4 .L20
     /tmp/ccy6xxkH.s:520    .text:000000000000028c .L30
     /tmp/ccy6xxkH.s:497    .text:0000000000000270 .L27
     /tmp/ccy6xxkH.s:611    .text:00000000000002fc .L32
     /tmp/ccy6xxkH.s:672    .text:000000000000034c .L36
     /tmp/ccy6xxkH.s:627    .text:0000000000000314 .L34
GAS LISTING /tmp/ccy6xxkH.s 			page 129


     /tmp/ccy6xxkH.s:633    .text:000000000000031c .L33
     /tmp/ccy6xxkH.s:789    .text:00000000000003d0 .L41
     /tmp/ccy6xxkH.s:843    .text:0000000000000414 .L44
     /tmp/ccy6xxkH.s:804    .text:00000000000003e4 .L42
     /tmp/ccy6xxkH.s:937    .text:0000000000000470 .L52
     /tmp/ccy6xxkH.s:914    .text:0000000000000454 .L49
     /tmp/ccy6xxkH.s:1020   .text:00000000000004e0 .L55
     /tmp/ccy6xxkH.s:996    .text:00000000000004c4 .L54
     /tmp/ccy6xxkH.s:1083   .text:000000000000052c .L58
     /tmp/ccy6xxkH.s:1125   .text:0000000000000560 .L61
     /tmp/ccy6xxkH.s:1092   .text:0000000000000538 .L59
     /tmp/ccy6xxkH.s:1224   .text:00000000000005c4 .L69
     /tmp/ccy6xxkH.s:1197   .text:00000000000005a4 .L66
     /tmp/ccy6xxkH.s:1302   .text:0000000000000630 .L75
     /tmp/ccy6xxkH.s:1310   .text:000000000000063c .L73
     /tmp/ccy6xxkH.s:1268   .text:00000000000005fc .L71
     /tmp/ccy6xxkH.s:1278   .text:0000000000000614 .L72
     /tmp/ccy6xxkH.s:1370   .text:000000000000067c .L80
     /tmp/ccy6xxkH.s:1347   .text:0000000000000660 .L77
     /tmp/ccy6xxkH.s:1490   .text:0000000000000738 .L84
     /tmp/ccy6xxkH.s:1529   .text:0000000000000774 .L88
     /tmp/ccy6xxkH.s:1544   .text:0000000000000790 .L89
     /tmp/ccy6xxkH.s:1504   .text:0000000000000754 .L86
     /tmp/ccy6xxkH.s:1652   .text:0000000000000810 .L95
     /tmp/ccy6xxkH.s:1624   .text:00000000000007ec .L93
     /tmp/ccy6xxkH.s:1728   .text:0000000000000878 .L99
     /tmp/ccy6xxkH.s:1700   .text:0000000000000854 .L97
     /tmp/ccy6xxkH.s:1798   .text:0000000000000908 .L101
     /tmp/ccy6xxkH.s:1935   .text:00000000000009c4 .L104
     /tmp/ccy6xxkH.s:1905   .text:00000000000009a0 .L102
     /tmp/ccy6xxkH.s:2244   .text:0000000000000b64 .L111
     /tmp/ccy6xxkH.s:2634   .text:0000000000000ce0 .L141
     /tmp/ccy6xxkH.s:2766   .text:0000000000000d70 .L142
     /tmp/ccy6xxkH.s:2927   .text:0000000000000e0c .L143
     /tmp/ccy6xxkH.s:2459   .text:0000000000000be0 .L134
     /tmp/ccy6xxkH.s:2426   .text:0000000000000bc4 .L114
     /tmp/ccy6xxkH.s:2745   .text:0000000000000d50 .L144
     /tmp/ccy6xxkH.s:2711   .text:0000000000000d3c .L135
     /tmp/ccy6xxkH.s:2870   .text:0000000000000dcc .L137
     /tmp/ccy6xxkH.s:2911   .text:0000000000000df0 .L145
     /tmp/ccy6xxkH.s:3037   .text:0000000000000eb8 .L149
     /tmp/ccy6xxkH.s:3041   .text:0000000000000ebc .L147
     /tmp/ccy6xxkH.s:3077   .text:0000000000000ed4 .L146
     /tmp/ccy6xxkH.s:3197   .text:0000000000000f4c .L156
     /tmp/ccy6xxkH.s:3190   .text:0000000000000f44 .L157
     /tmp/ccy6xxkH.s:3325   .text:0000000000000ff4 .L160
     /tmp/ccy6xxkH.s:3310   .text:0000000000000fd8 .L162
     /tmp/ccy6xxkH.s:3465   .text:00000000000010b4 .L171
     /tmp/ccy6xxkH.s:3482   .text:00000000000010d0 .L172
     /tmp/ccy6xxkH.s:3443   .text:0000000000001090 .L164
     /tmp/ccy6xxkH.s:3403   .text:000000000000105c .L166
     /tmp/ccy6xxkH.s:3422   .text:0000000000001074 .L168
     /tmp/ccy6xxkH.s:3545   .text:000000000000113c .L173
     /tmp/ccy6xxkH.s:3527   .text:0000000000001114 .L175
     /tmp/ccy6xxkH.s:596    .text:00000000000002d4 .LEHB0
     /tmp/ccy6xxkH.s:543    .text:000000000000029c .LFB49
     /tmp/ccy6xxkH.s:599    .text:00000000000002dc .LEHE0
GAS LISTING /tmp/ccy6xxkH.s 			page 130


     /tmp/ccy6xxkH.s:607    .text:00000000000002f4 .LEHB1
     /tmp/ccy6xxkH.s:610    .text:00000000000002fc .LEHE1
     /tmp/ccy6xxkH.s:678    .text:0000000000000354 .L37
     /tmp/ccy6xxkH.s:623    .text:000000000000030c .LEHB2
     /tmp/ccy6xxkH.s:626    .text:0000000000000314 .LEHE2
     /tmp/ccy6xxkH.s:686    .text:0000000000000368 .LEHB3
     /tmp/ccy6xxkH.s:689    .text:0000000000000370 .LEHE3
     /tmp/ccy6xxkH.s:774    .text:00000000000003a8 .LEHB4
     /tmp/ccy6xxkH.s:721    .text:0000000000000370 .LFB50
     /tmp/ccy6xxkH.s:777    .text:00000000000003b0 .LEHE4
     /tmp/ccy6xxkH.s:785    .text:00000000000003c8 .LEHB5
     /tmp/ccy6xxkH.s:788    .text:00000000000003d0 .LEHE5
     /tmp/ccy6xxkH.s:849    .text:000000000000041c .L45
     /tmp/ccy6xxkH.s:857    .text:0000000000000430 .LEHB6
     /tmp/ccy6xxkH.s:860    .text:0000000000000438 .LEHE6
     /tmp/ccy6xxkH.s:1071   .text:0000000000000510 .LEHB7
     /tmp/ccy6xxkH.s:1034   .text:00000000000004e8 .LFB54
     /tmp/ccy6xxkH.s:1074   .text:0000000000000518 .LEHE7
     /tmp/ccy6xxkH.s:1079   .text:0000000000000524 .LEHB8
     /tmp/ccy6xxkH.s:1082   .text:000000000000052c .LEHE8
     /tmp/ccy6xxkH.s:1131   .text:0000000000000568 .L62
     /tmp/ccy6xxkH.s:1139   .text:000000000000057c .LEHB9
     /tmp/ccy6xxkH.s:1142   .text:0000000000000584 .LEHE9
     /tmp/ccy6xxkH.s:1766   .text:00000000000008b0 .LEHB10
     /tmp/ccy6xxkH.s:1746   .text:0000000000000894 .LFB68
     /tmp/ccy6xxkH.s:1786   .text:00000000000008e8 .LEHE10
     /tmp/ccy6xxkH.s:1794   .text:0000000000000900 .LEHB11
     /tmp/ccy6xxkH.s:1797   .text:0000000000000908 .LEHE11
     /tmp/ccy6xxkH.s:1943   .text:00000000000009cc .L105
     /tmp/ccy6xxkH.s:1900   .text:0000000000000998 .LEHB12
     /tmp/ccy6xxkH.s:1903   .text:00000000000009a0 .LEHE12
     /tmp/ccy6xxkH.s:1952   .text:00000000000009e0 .LEHB13
     /tmp/ccy6xxkH.s:1955   .text:00000000000009e8 .LEHE13
     /tmp/ccy6xxkH.s:2419   .text:0000000000000bbc .L133
     /tmp/ccy6xxkH.s:2482   .text:0000000000000bfc .L132
     /tmp/ccy6xxkH.s:2493   .text:0000000000000c08 .L131
     /tmp/ccy6xxkH.s:2501   .text:0000000000000c14 .L130
     /tmp/ccy6xxkH.s:2509   .text:0000000000000c20 .L129
     /tmp/ccy6xxkH.s:2517   .text:0000000000000c2c .L128
     /tmp/ccy6xxkH.s:2525   .text:0000000000000c38 .L127
     /tmp/ccy6xxkH.s:2533   .text:0000000000000c44 .L126
     /tmp/ccy6xxkH.s:2541   .text:0000000000000c50 .L125
     /tmp/ccy6xxkH.s:2549   .text:0000000000000c5c .L124
     /tmp/ccy6xxkH.s:2557   .text:0000000000000c68 .L123
     /tmp/ccy6xxkH.s:2565   .text:0000000000000c74 .L122
     /tmp/ccy6xxkH.s:2573   .text:0000000000000c80 .L121
     /tmp/ccy6xxkH.s:2581   .text:0000000000000c8c .L120
     /tmp/ccy6xxkH.s:2589   .text:0000000000000c98 .L119
     /tmp/ccy6xxkH.s:2597   .text:0000000000000ca4 .L118
     /tmp/ccy6xxkH.s:2605   .text:0000000000000cb0 .L117
     /tmp/ccy6xxkH.s:2613   .text:0000000000000cbc .L115
     /tmp/ccy6xxkH.s:8606   .debug_abbrev:0000000000000000 .Ldebug_abbrev0
     /tmp/ccy6xxkH.s:11968  .debug_str:000000000000163d .LASF369
     /tmp/ccy6xxkH.s:11672  .debug_str:0000000000000c93 .LASF370
     /tmp/ccy6xxkH.s:11888  .debug_str:0000000000001343 .LASF371
     /tmp/ccy6xxkH.s:5      .text:0000000000000000 .Ltext0
     /tmp/ccy6xxkH.s:3902   .text:00000000000013a8 .Letext0
GAS LISTING /tmp/ccy6xxkH.s 			page 131


     /tmp/ccy6xxkH.s:11274  .debug_line:0000000000000000 .Ldebug_line0
     /tmp/ccy6xxkH.s:11328  .debug_str:00000000000001c5 .LASF0
     /tmp/ccy6xxkH.s:11964  .debug_str:0000000000001622 .LASF1
     /tmp/ccy6xxkH.s:11896  .debug_str:00000000000013ab .LASF2
     /tmp/ccy6xxkH.s:11838  .debug_str:00000000000011bd .LASF4
     /tmp/ccy6xxkH.s:11854  .debug_str:0000000000001244 .LASF3
     /tmp/ccy6xxkH.s:11480  .debug_str:000000000000061e .LASF5
     /tmp/ccy6xxkH.s:11552  .debug_str:0000000000000876 .LASF6
     /tmp/ccy6xxkH.s:11756  .debug_str:0000000000000f44 .LASF7
     /tmp/ccy6xxkH.s:11370  .debug_str:00000000000002f1 .LASF8
     /tmp/ccy6xxkH.s:11950  .debug_str:0000000000001571 .LASF9
     /tmp/ccy6xxkH.s:11484  .debug_str:0000000000000630 .LASF10
     /tmp/ccy6xxkH.s:11406  .debug_str:00000000000003b8 .LASF11
     /tmp/ccy6xxkH.s:11584  .debug_str:0000000000000983 .LASF12
     /tmp/ccy6xxkH.s:11496  .debug_str:0000000000000691 .LASF13
     /tmp/ccy6xxkH.s:11816  .debug_str:0000000000001131 .LASF14
     /tmp/ccy6xxkH.s:11502  .debug_str:00000000000006b6 .LASF15
     /tmp/ccy6xxkH.s:11448  .debug_str:0000000000000527 .LASF16
     /tmp/ccy6xxkH.s:11382  .debug_str:0000000000000339 .LASF144
     /tmp/ccy6xxkH.s:11558  .debug_str:00000000000008bf .LASF20
     /tmp/ccy6xxkH.s:11946  .debug_str:0000000000001552 .LASF17
     /tmp/ccy6xxkH.s:11320  .debug_str:0000000000000154 .LASF18
     /tmp/ccy6xxkH.s:11520  .debug_str:000000000000074d .LASF19
     /tmp/ccy6xxkH.s:11514  .debug_str:0000000000000711 .LASF21
     /tmp/ccy6xxkH.s:11468  .debug_str:00000000000005d6 .LASF22
     /tmp/ccy6xxkH.s:11772  .debug_str:0000000000000fd2 .LASF23
     /tmp/ccy6xxkH.s:11820  .debug_str:000000000000114c .LASF24
     /tmp/ccy6xxkH.s:11318  .debug_str:0000000000000149 .LASF25
     /tmp/ccy6xxkH.s:11390  .debug_str:000000000000036b .LASF26
     /tmp/ccy6xxkH.s:11890  .debug_str:0000000000001374 .LASF27
     /tmp/ccy6xxkH.s:11862  .debug_str:0000000000001274 .LASF28
     /tmp/ccy6xxkH.s:11746  .debug_str:0000000000000f0f .LASF29
     /tmp/ccy6xxkH.s:11670  .debug_str:0000000000000c6f .LASF31
     /tmp/ccy6xxkH.s:11542  .debug_str:000000000000081a .LASF30
     /tmp/ccy6xxkH.s:11952  .debug_str:000000000000157f .LASF32
     /tmp/ccy6xxkH.s:11368  .debug_str:00000000000002d6 .LASF33
     /tmp/ccy6xxkH.s:11570  .debug_str:000000000000090e .LASF34
     /tmp/ccy6xxkH.s:11428  .debug_str:000000000000044a .LASF35
     /tmp/ccy6xxkH.s:11894  .debug_str:0000000000001385 .LASF36
     /tmp/ccy6xxkH.s:11688  .debug_str:0000000000000d1e .LASF37
     /tmp/ccy6xxkH.s:11724  .debug_str:0000000000000e68 .LASF38
     /tmp/ccy6xxkH.s:11322  .debug_str:0000000000000161 .LASF39
     /tmp/ccy6xxkH.s:11518  .debug_str:0000000000000721 .LASF40
     /tmp/ccy6xxkH.s:11534  .debug_str:00000000000007dd .LASF41
     /tmp/ccy6xxkH.s:11914  .debug_str:000000000000141b .LASF42
     /tmp/ccy6xxkH.s:11708  .debug_str:0000000000000d9d .LASF43
     /tmp/ccy6xxkH.s:11446  .debug_str:0000000000000504 .LASF44
     /tmp/ccy6xxkH.s:11432  .debug_str:000000000000046a .LASF45
     /tmp/ccy6xxkH.s:11922  .debug_str:000000000000147c .LASF46
     /tmp/ccy6xxkH.s:11996  .debug_str:00000000000017cf .LASF47
     /tmp/ccy6xxkH.s:11714  .debug_str:0000000000000df1 .LASF48
     /tmp/ccy6xxkH.s:11354  .debug_str:0000000000000268 .LASF49
     /tmp/ccy6xxkH.s:11712  .debug_str:0000000000000dcc .LASF50
     /tmp/ccy6xxkH.s:11920  .debug_str:0000000000001464 .LASF51
     /tmp/ccy6xxkH.s:11524  .debug_str:0000000000000780 .LASF52
     /tmp/ccy6xxkH.s:11388  .debug_str:0000000000000358 .LASF53
     /tmp/ccy6xxkH.s:11602  .debug_str:0000000000000a0d .LASF54
GAS LISTING /tmp/ccy6xxkH.s 			page 132


     /tmp/ccy6xxkH.s:11556  .debug_str:00000000000008ac .LASF55
     /tmp/ccy6xxkH.s:11628  .debug_str:0000000000000b10 .LASF56
     /tmp/ccy6xxkH.s:11294  .debug_str:000000000000007a .LASF57
     /tmp/ccy6xxkH.s:11956  .debug_str:00000000000015c0 .LASF58
     /tmp/ccy6xxkH.s:11994  .debug_str:00000000000017b6 .LASF59
     /tmp/ccy6xxkH.s:11490  .debug_str:0000000000000655 .LASF60
     /tmp/ccy6xxkH.s:11510  .debug_str:00000000000006f0 .LASF61
     /tmp/ccy6xxkH.s:11682  .debug_str:0000000000000cda .LASF62
     /tmp/ccy6xxkH.s:11276  .debug_str:0000000000000000 .LASF63
     /tmp/ccy6xxkH.s:11846  .debug_str:00000000000011fe .LASF64
     /tmp/ccy6xxkH.s:11936  .debug_str:000000000000151d .LASF65
     /tmp/ccy6xxkH.s:11828  .debug_str:0000000000001168 .LASF67
     /tmp/ccy6xxkH.s:11778  .debug_str:0000000000001008 .LASF66
     /tmp/ccy6xxkH.s:11664  .debug_str:0000000000000c34 .LASF68
     /tmp/ccy6xxkH.s:11312  .debug_str:0000000000000126 .LASF69
     /tmp/ccy6xxkH.s:11770  .debug_str:0000000000000fb6 .LASF70
     /tmp/ccy6xxkH.s:11884  .debug_str:0000000000001327 .LASF71
     /tmp/ccy6xxkH.s:11296  .debug_str:0000000000000091 .LASF72
     /tmp/ccy6xxkH.s:11998  .debug_str:00000000000017e5 .LASF75
     /tmp/ccy6xxkH.s:11790  .debug_str:0000000000001079 .LASF77
     /tmp/ccy6xxkH.s:11796  .debug_str:00000000000010ae .LASF73
     /tmp/ccy6xxkH.s:11918  .debug_str:000000000000144f .LASF74
     /tmp/ccy6xxkH.s:11424  .debug_str:0000000000000433 .LASF76
     /tmp/ccy6xxkH.s:11836  .debug_str:00000000000011aa .LASF78
     /tmp/ccy6xxkH.s:11474  .debug_str:00000000000005ee .LASF79
     /tmp/ccy6xxkH.s:11634  .debug_str:0000000000000b3e .LASF80
     /tmp/ccy6xxkH.s:11966  .debug_str:0000000000001635 .LASF81
     /tmp/ccy6xxkH.s:11476  .debug_str:00000000000005f5 .LASF82
     /tmp/ccy6xxkH.s:11806  .debug_str:00000000000010ef .LASF83
     /tmp/ccy6xxkH.s:11812  .debug_str:000000000000110e .LASF84
     /tmp/ccy6xxkH.s:11492  .debug_str:000000000000067b .LASF85
     /tmp/ccy6xxkH.s:11662  .debug_str:0000000000000c1e .LASF86
     /tmp/ccy6xxkH.s:11460  .debug_str:00000000000005b9 .LASF87
     /tmp/ccy6xxkH.s:11726  .debug_str:0000000000000e92 .LASF88
     /tmp/ccy6xxkH.s:11648  .debug_str:0000000000000b9e .LASF89
     /tmp/ccy6xxkH.s:12016  .debug_str:000000000000185a .LASF90
     /tmp/ccy6xxkH.s:11358  .debug_str:0000000000000289 .LASF91
     /tmp/ccy6xxkH.s:11842  .debug_str:00000000000011dc .LASF92
     /tmp/ccy6xxkH.s:11910  .debug_str:0000000000001401 .LASF93
     /tmp/ccy6xxkH.s:11444  .debug_str:00000000000004f1 .LASF94
     /tmp/ccy6xxkH.s:11466  .debug_str:00000000000005cf .LASF95
     /tmp/ccy6xxkH.s:11504  .debug_str:00000000000006cc .LASF96
     /tmp/ccy6xxkH.s:11898  .debug_str:00000000000013b9 .LASF97
     /tmp/ccy6xxkH.s:11366  .debug_str:00000000000002c3 .LASF98
     /tmp/ccy6xxkH.s:11548  .debug_str:0000000000000853 .LASF99
     /tmp/ccy6xxkH.s:12012  .debug_str:000000000000182e .LASF100
     /tmp/ccy6xxkH.s:11902  .debug_str:00000000000013cd .LASF101
     /tmp/ccy6xxkH.s:11988  .debug_str:000000000000177b .LASF102
     /tmp/ccy6xxkH.s:11600  .debug_str:00000000000009fb .LASF103
     /tmp/ccy6xxkH.s:11590  .debug_str:00000000000009a3 .LASF104
     /tmp/ccy6xxkH.s:11620  .debug_str:0000000000000acd .LASF105
     /tmp/ccy6xxkH.s:11544  .debug_str:0000000000000830 .LASF106
     /tmp/ccy6xxkH.s:11954  .debug_str:00000000000015a2 .LASF107
     /tmp/ccy6xxkH.s:11454  .debug_str:0000000000000568 .LASF108
     /tmp/ccy6xxkH.s:11758  .debug_str:0000000000000f57 .LASF109
     /tmp/ccy6xxkH.s:11736  .debug_str:0000000000000ed2 .LASF110
     /tmp/ccy6xxkH.s:11494  .debug_str:0000000000000685 .LASF111
GAS LISTING /tmp/ccy6xxkH.s 			page 133


     /tmp/ccy6xxkH.s:11710  .debug_str:0000000000000db3 .LASF112
     /tmp/ccy6xxkH.s:11730  .debug_str:0000000000000eb1 .LASF113
     /tmp/ccy6xxkH.s:11646  .debug_str:0000000000000b8c .LASF114
     /tmp/ccy6xxkH.s:11784  .debug_str:000000000000103f .LASF115
     /tmp/ccy6xxkH.s:11550  .debug_str:000000000000085a .LASF116
     /tmp/ccy6xxkH.s:11336  .debug_str:00000000000001e3 .LASF117
     /tmp/ccy6xxkH.s:11612  .debug_str:0000000000000a60 .LASF118
     /tmp/ccy6xxkH.s:12030  .debug_str:00000000000018d8 .LASF119
     /tmp/ccy6xxkH.s:11928  .debug_str:00000000000014c9 .LASF120
     /tmp/ccy6xxkH.s:12018  .debug_str:0000000000001872 .LASF121
     /tmp/ccy6xxkH.s:11876  .debug_str:00000000000012d5 .LASF122
     /tmp/ccy6xxkH.s:12014  .debug_str:0000000000001841 .LASF123
     /tmp/ccy6xxkH.s:11722  .debug_str:0000000000000e42 .LASF124
     /tmp/ccy6xxkH.s:11292  .debug_str:0000000000000060 .LASF125
     /tmp/ccy6xxkH.s:11522  .debug_str:0000000000000759 .LASF126
     /tmp/ccy6xxkH.s:11442  .debug_str:00000000000004db .LASF127
     /tmp/ccy6xxkH.s:11958  .debug_str:00000000000015e4 .LASF128
     /tmp/ccy6xxkH.s:11352  .debug_str:0000000000000251 .LASF129
     /tmp/ccy6xxkH.s:11972  .debug_str:0000000000001714 .LASF130
     /tmp/ccy6xxkH.s:11342  .debug_str:000000000000020e .LASF131
     /tmp/ccy6xxkH.s:11924  .debug_str:00000000000014a0 .LASF132
     /tmp/ccy6xxkH.s:11482  .debug_str:0000000000000625 .LASF133
     /tmp/ccy6xxkH.s:11840  .debug_str:00000000000011c4 .LASF134
     /tmp/ccy6xxkH.s:11926  .debug_str:00000000000014c0 .LASF135
     /tmp/ccy6xxkH.s:11760  .debug_str:0000000000000f62 .LASF136
     /tmp/ccy6xxkH.s:11588  .debug_str:000000000000099c .LASF137
     /tmp/ccy6xxkH.s:11992  .debug_str:00000000000017a3 .LASF138
     /tmp/ccy6xxkH.s:11538  .debug_str:0000000000000807 .LASF139
     /tmp/ccy6xxkH.s:11618  .debug_str:0000000000000aaf .LASF140
     /tmp/ccy6xxkH.s:11644  .debug_str:0000000000000b7d .LASF141
     /tmp/ccy6xxkH.s:11776  .debug_str:0000000000000fec .LASF142
     /tmp/ccy6xxkH.s:11630  .debug_str:0000000000000b30 .LASF143
     /tmp/ccy6xxkH.s:11744  .debug_str:0000000000000f07 .LASF204
     /tmp/ccy6xxkH.s:11334  .debug_str:00000000000001dc .LASF145
     /tmp/ccy6xxkH.s:11508  .debug_str:00000000000006e8 .LASF146
     /tmp/ccy6xxkH.s:11626  .debug_str:0000000000000b0a .LASF147
     /tmp/ccy6xxkH.s:11614  .debug_str:0000000000000a82 .LASF148
     /tmp/ccy6xxkH.s:11826  .debug_str:0000000000001160 .LASF149
     /tmp/ccy6xxkH.s:11750  .debug_str:0000000000000f30 .LASF150
     /tmp/ccy6xxkH.s:11374  .debug_str:000000000000031e .LASF151
     /tmp/ccy6xxkH.s:11874  .debug_str:00000000000012ca .LASF152
     /tmp/ccy6xxkH.s:11280  .debug_str:0000000000000018 .LASF153
     /tmp/ccy6xxkH.s:11414  .debug_str:00000000000003f9 .LASF154
     /tmp/ccy6xxkH.s:11512  .debug_str:000000000000070c .LASF155
     /tmp/ccy6xxkH.s:11976  .debug_str:0000000000001745 .LASF156
     /tmp/ccy6xxkH.s:11676  .debug_str:0000000000000cb0 .LASF160
     /tmp/ccy6xxkH.s:11908  .debug_str:00000000000013f9 .LASF157
     /tmp/ccy6xxkH.s:11364  .debug_str:00000000000002b0 .LASF158
     /tmp/ccy6xxkH.s:11704  .debug_str:0000000000000d86 .LASF159
     /tmp/ccy6xxkH.s:11528  .debug_str:00000000000007b7 .LASF161
     /tmp/ccy6xxkH.s:11698  .debug_str:0000000000000d6c .LASF162
     /tmp/ccy6xxkH.s:11350  .debug_str:0000000000000244 .LASF163
     /tmp/ccy6xxkH.s:11516  .debug_str:000000000000071c .LASF164
     /tmp/ccy6xxkH.s:11860  .debug_str:0000000000001265 .LASF165
     /tmp/ccy6xxkH.s:11594  .debug_str:00000000000009d2 .LASF166
     /tmp/ccy6xxkH.s:11684  .debug_str:0000000000000d03 .LASF167
     /tmp/ccy6xxkH.s:11880  .debug_str:00000000000012f9 .LASF168
GAS LISTING /tmp/ccy6xxkH.s 			page 134


     /tmp/ccy6xxkH.s:11346  .debug_str:000000000000023a .LASF169
     /tmp/ccy6xxkH.s:11738  .debug_str:0000000000000eea .LASF170
     /tmp/ccy6xxkH.s:11418  .debug_str:0000000000000416 .LASF171
     /tmp/ccy6xxkH.s:11426  .debug_str:000000000000043a .LASF172
     /tmp/ccy6xxkH.s:11488  .debug_str:000000000000064b .LASF173
     /tmp/ccy6xxkH.s:11362  .debug_str:00000000000002a6 .LASF174
     /tmp/ccy6xxkH.s:11942  .debug_str:000000000000153e .LASF175
     /tmp/ccy6xxkH.s:11440  .debug_str:00000000000004b3 .LASF176
     /tmp/ccy6xxkH.s:11302  .debug_str:00000000000000e5 .LASF177
     /tmp/ccy6xxkH.s:11800  .debug_str:00000000000010bd .LASF178
     /tmp/ccy6xxkH.s:11686  .debug_str:0000000000000d16 .LASF179
     /tmp/ccy6xxkH.s:11578  .debug_str:0000000000000951 .LASF180
     /tmp/ccy6xxkH.s:11376  .debug_str:0000000000000323 .LASF181
     /tmp/ccy6xxkH.s:11878  .debug_str:00000000000012f4 .LASF182
     /tmp/ccy6xxkH.s:11702  .debug_str:0000000000000d81 .LASF183
     /tmp/ccy6xxkH.s:11834  .debug_str:00000000000011a4 .LASF184
     /tmp/ccy6xxkH.s:11304  .debug_str:00000000000000f1 .LASF185
     /tmp/ccy6xxkH.s:11472  .debug_str:00000000000005e9 .LASF186
     /tmp/ccy6xxkH.s:11674  .debug_str:0000000000000ca8 .LASF187
     /tmp/ccy6xxkH.s:11332  .debug_str:00000000000001d7 .LASF188
     /tmp/ccy6xxkH.s:11324  .debug_str:0000000000000180 .LASF189
     /tmp/ccy6xxkH.s:11624  .debug_str:0000000000000b01 .LASF190
     /tmp/ccy6xxkH.s:11886  .debug_str:000000000000133a .LASF191
     /tmp/ccy6xxkH.s:11694  .debug_str:0000000000000d5c .LASF192
     /tmp/ccy6xxkH.s:11990  .debug_str:000000000000179b .LASF193
     /tmp/ccy6xxkH.s:12004  .debug_str:0000000000001800 .LASF194
     /tmp/ccy6xxkH.s:11904  .debug_str:00000000000013e0 .LASF195
     /tmp/ccy6xxkH.s:11980  .debug_str:0000000000001754 .LASF196
     /tmp/ccy6xxkH.s:11546  .debug_str:000000000000084e .LASF197
     /tmp/ccy6xxkH.s:11870  .debug_str:00000000000012ac .LASF198
     /tmp/ccy6xxkH.s:12008  .debug_str:0000000000001819 .LASF199
     /tmp/ccy6xxkH.s:11420  .debug_str:000000000000041b .LASF200
     /tmp/ccy6xxkH.s:11284  .debug_str:0000000000000034 .LASF201
     /tmp/ccy6xxkH.s:12006  .debug_str:000000000000180b .LASF202
     /tmp/ccy6xxkH.s:11580  .debug_str:0000000000000958 .LASF203
     /tmp/ccy6xxkH.s:11450  .debug_str:000000000000053d .LASF205
     /tmp/ccy6xxkH.s:11410  .debug_str:00000000000003ea .LASF206
     /tmp/ccy6xxkH.s:11378  .debug_str:0000000000000328 .LASF207
     /tmp/ccy6xxkH.s:11986  .debug_str:000000000000176f .LASF208
     /tmp/ccy6xxkH.s:11892  .debug_str:0000000000001379 .LASF209
     /tmp/ccy6xxkH.s:11316  .debug_str:000000000000013c .LASF210
     /tmp/ccy6xxkH.s:11974  .debug_str:0000000000001738 .LASF211
     /tmp/ccy6xxkH.s:11498  .debug_str:00000000000006a1 .LASF212
     /tmp/ccy6xxkH.s:11906  .debug_str:00000000000013f1 .LASF213
     /tmp/ccy6xxkH.s:11932  .debug_str:00000000000014f8 .LASF214
     /tmp/ccy6xxkH.s:11572  .debug_str:0000000000000936 .LASF215
     /tmp/ccy6xxkH.s:11782  .debug_str:0000000000001021 .LASF216
     /tmp/ccy6xxkH.s:12022  .debug_str:0000000000001890 .LASF217
     /tmp/ccy6xxkH.s:11326  .debug_str:000000000000018a .LASF218
     /tmp/ccy6xxkH.s:11622  .debug_str:0000000000000ade .LASF219
     /tmp/ccy6xxkH.s:11984  .debug_str:0000000000001764 .LASF220
     /tmp/ccy6xxkH.s:11408  .debug_str:00000000000003c7 .LASF221
     /tmp/ccy6xxkH.s:11970  .debug_str:000000000000170d .LASF222
     /tmp/ccy6xxkH.s:11554  .debug_str:0000000000000889 .LASF223
     /tmp/ccy6xxkH.s:11864  .debug_str:0000000000001285 .LASF224
     /tmp/ccy6xxkH.s:11944  .debug_str:000000000000154c .LASF372
     /tmp/ccy6xxkH.s:11596  .debug_str:00000000000009db .LASF225
GAS LISTING /tmp/ccy6xxkH.s 			page 135


     /tmp/ccy6xxkH.s:11742  .debug_str:0000000000000f01 .LASF229
     /tmp/ccy6xxkH.s:11360  .debug_str:0000000000000294 .LASF231
     /tmp/ccy6xxkH.s:11912  .debug_str:0000000000001408 .LASF226
     /tmp/ccy6xxkH.s:11564  .debug_str:00000000000008ea .LASF227
     /tmp/ccy6xxkH.s:11308  .debug_str:0000000000000105 .LASF228
     /tmp/ccy6xxkH.s:11338  .debug_str:00000000000001f8 .LASF230
     /tmp/ccy6xxkH.s:11678  .debug_str:0000000000000cbc .LASF232
     /tmp/ccy6xxkH.s:11478  .debug_str:0000000000000609 .LASF233
     /tmp/ccy6xxkH.s:11606  .debug_str:0000000000000a40 .LASF234
     /tmp/ccy6xxkH.s:11774  .debug_str:0000000000000fdb .LASF235
     /tmp/ccy6xxkH.s:11982  .debug_str:000000000000175d .LASF373
     /tmp/ccy6xxkH.s:11348  .debug_str:000000000000023f .LASF236
     /tmp/ccy6xxkH.s:11462  .debug_str:00000000000005c3 .LASF237
     /tmp/ccy6xxkH.s:11804  .debug_str:00000000000010ea .LASF238
     /tmp/ccy6xxkH.s:11384  .debug_str:000000000000033f .LASF239
     /tmp/ccy6xxkH.s:11464  .debug_str:00000000000005c8 .LASF240
     /tmp/ccy6xxkH.s:11604  .debug_str:0000000000000a2d .LASF241
     /tmp/ccy6xxkH.s:11416  .debug_str:0000000000000410 .LASF242
     /tmp/ccy6xxkH.s:11768  .debug_str:0000000000000f98 .LASF243
     /tmp/ccy6xxkH.s:11430  .debug_str:0000000000000463 .LASF244
     /tmp/ccy6xxkH.s:11802  .debug_str:00000000000010d5 .LASF245
     /tmp/ccy6xxkH.s:11586  .debug_str:0000000000000993 .LASF295
     /tmp/ccy6xxkH.s:11734  .debug_str:0000000000000ebd .LASF296
     /tmp/ccy6xxkH.s:12020  .debug_str:0000000000001884 .LASF246
     /tmp/ccy6xxkH.s:11436  .debug_str:000000000000049b .LASF247
     /tmp/ccy6xxkH.s:11852  .debug_str:0000000000001238 .LASF248
     /tmp/ccy6xxkH.s:11706  .debug_str:0000000000000d93 .LASF249
     /tmp/ccy6xxkH.s:11632  .debug_str:0000000000000b35 .LASF250
     /tmp/ccy6xxkH.s:11290  .debug_str:0000000000000055 .LASF251
     /tmp/ccy6xxkH.s:11438  .debug_str:00000000000004a7 .LASF252
     /tmp/ccy6xxkH.s:11900  .debug_str:00000000000013c0 .LASF253
     /tmp/ccy6xxkH.s:11306  .debug_str:00000000000000fb .LASF254
     /tmp/ccy6xxkH.s:11850  .debug_str:000000000000122e .LASF255
     /tmp/ccy6xxkH.s:11398  .debug_str:0000000000000395 .LASF256
     /tmp/ccy6xxkH.s:11310  .debug_str:000000000000011b .LASF257
     /tmp/ccy6xxkH.s:11940  .debug_str:0000000000001535 .LASF258
     /tmp/ccy6xxkH.s:11832  .debug_str:0000000000001188 .LASF259
     /tmp/ccy6xxkH.s:11764  .debug_str:0000000000000f83 .LASF260
     /tmp/ccy6xxkH.s:11298  .debug_str:00000000000000b1 .LASF261
     /tmp/ccy6xxkH.s:11652  .debug_str:0000000000000bb2 .LASF262
     /tmp/ccy6xxkH.s:11372  .debug_str:0000000000000301 .LASF263
     /tmp/ccy6xxkH.s:11340  .debug_str:0000000000000204 .LASF264
     /tmp/ccy6xxkH.s:12026  .debug_str:00000000000018ac .LASF265
     /tmp/ccy6xxkH.s:11654  .debug_str:0000000000000bbc .LASF266
     /tmp/ccy6xxkH.s:11848  .debug_str:000000000000121e .LASF267
     /tmp/ccy6xxkH.s:11616  .debug_str:0000000000000a8b .LASF268
     /tmp/ccy6xxkH.s:11356  .debug_str:0000000000000280 .LASF269
     /tmp/ccy6xxkH.s:11788  .debug_str:000000000000105b .LASF270
     /tmp/ccy6xxkH.s:11762  .debug_str:0000000000000f77 .LASF271
     /tmp/ccy6xxkH.s:11718  .debug_str:0000000000000e1b .LASF272
     /tmp/ccy6xxkH.s:11598  .debug_str:00000000000009f5 .LASF273
     /tmp/ccy6xxkH.s:11660  .debug_str:0000000000000bfe .LASF274
     /tmp/ccy6xxkH.s:11650  .debug_str:0000000000000ba9 .LASF275
     /tmp/ccy6xxkH.s:11486  .debug_str:000000000000063f .LASF276
     /tmp/ccy6xxkH.s:11402  .debug_str:00000000000003a7 .LASF277
     /tmp/ccy6xxkH.s:11562  .debug_str:00000000000008de .LASF278
     /tmp/ccy6xxkH.s:11642  .debug_str:0000000000000b78 .LASF279
GAS LISTING /tmp/ccy6xxkH.s 			page 136


     /tmp/ccy6xxkH.s:11288  .debug_str:0000000000000049 .LASF280
     /tmp/ccy6xxkH.s:11680  .debug_str:0000000000000cd5 .LASF281
     /tmp/ccy6xxkH.s:12028  .debug_str:00000000000018c9 .LASF282
     /tmp/ccy6xxkH.s:11314  .debug_str:0000000000000135 .LASF283
     /tmp/ccy6xxkH.s:11930  .debug_str:00000000000014e7 .LASF284
     /tmp/ccy6xxkH.s:11798  .debug_str:00000000000010b7 .LASF285
     /tmp/ccy6xxkH.s:11636  .debug_str:0000000000000b51 .LASF286
     /tmp/ccy6xxkH.s:11386  .debug_str:0000000000000350 .LASF287
     /tmp/ccy6xxkH.s:11526  .debug_str:00000000000007a5 .LASF288
     /tmp/ccy6xxkH.s:11818  .debug_str:000000000000113d .LASF289
     /tmp/ccy6xxkH.s:11582  .debug_str:0000000000000968 .LASF290
     /tmp/ccy6xxkH.s:11690  .debug_str:0000000000000d3b .LASF291
     /tmp/ccy6xxkH.s:11962  .debug_str:0000000000001612 .LASF292
     /tmp/ccy6xxkH.s:11592  .debug_str:00000000000009c2 .LASF293
     /tmp/ccy6xxkH.s:11766  .debug_str:0000000000000f8c .LASF294
     /tmp/ccy6xxkH.s:11786  .debug_str:000000000000104e .LASF297
     /tmp/ccy6xxkH.s:11568  .debug_str:0000000000000901 .LASF298
     /tmp/ccy6xxkH.s:11830  .debug_str:0000000000001182 .LASF299
     /tmp/ccy6xxkH.s:11822  .debug_str:0000000000001155 .LASF300
     /tmp/ccy6xxkH.s:11692  .debug_str:0000000000000d51 .LASF301
     /tmp/ccy6xxkH.s:11286  .debug_str:0000000000000040 .LASF302
     /tmp/ccy6xxkH.s:11858  .debug_str:000000000000125b .LASF303
     /tmp/ccy6xxkH.s:11938  .debug_str:0000000000001529 .LASF304
     /tmp/ccy6xxkH.s:11810  .debug_str:0000000000001105 .LASF305
     /tmp/ccy6xxkH.s:11610  .debug_str:0000000000000a5b .LASF306
     /tmp/ccy6xxkH.s:11640  .debug_str:0000000000000b71 .LASF307
     /tmp/ccy6xxkH.s:11794  .debug_str:000000000000109c .LASF309
     /tmp/ccy6xxkH.s:11780  .debug_str:0000000000001019 .LASF308
     /tmp/ccy6xxkH.s:11948  .debug_str:000000000000155e .LASF310
     /tmp/ccy6xxkH.s:11814  .debug_str:0000000000001122 .LASF311
     /tmp/ccy6xxkH.s:11560  .debug_str:00000000000008ce .LASF312
     /tmp/ccy6xxkH.s:11748  .debug_str:0000000000000f26 .LASF313
     /tmp/ccy6xxkH.s:12024  .debug_str:000000000000189f .LASF314
     /tmp/ccy6xxkH.s:11740  .debug_str:0000000000000efa .LASF315
     /tmp/ccy6xxkH.s:11412  .debug_str:00000000000003ef .LASF316
     /tmp/ccy6xxkH.s:11978  .debug_str:000000000000174a .LASF317
     /tmp/ccy6xxkH.s:11868  .debug_str:00000000000012a2 .LASF318
     /tmp/ccy6xxkH.s:11566  .debug_str:00000000000008f4 .LASF319
     /tmp/ccy6xxkH.s:11882  .debug_str:000000000000130f .LASF374
     /tmp/ccy6xxkH.s:11530  .debug_str:00000000000007c3 .LASF375
     /tmp/ccy6xxkH.s:11934  .debug_str:0000000000001517 .LASF320
     /tmp/ccy6xxkH.s:11434  .debug_str:0000000000000481 .LASF321
     /tmp/ccy6xxkH.s:11532  .debug_str:00000000000007d7 .LASF322
     /tmp/ccy6xxkH.s:11872  .debug_str:00000000000012b4 .LASF323
     /tmp/ccy6xxkH.s:11344  .debug_str:000000000000021e .LASF324
     /tmp/ccy6xxkH.s:11808  .debug_str:00000000000010f7 .LASF325
     /tmp/ccy6xxkH.s:11452  .debug_str:0000000000000549 .LASF326
     /tmp/ccy6xxkH.s:11916  .debug_str:0000000000001442 .LASF327
     /tmp/ccy6xxkH.s:11458  .debug_str:000000000000059b .LASF328
     /tmp/ccy6xxkH.s:11866  .debug_str:000000000000128b .LASF329
     /tmp/ccy6xxkH.s:11658  .debug_str:0000000000000be1 .LASF330
     /tmp/ccy6xxkH.s:11282  .debug_str:0000000000000024 .LASF331
     /tmp/ccy6xxkH.s:11638  .debug_str:0000000000000b61 .LASF332
     /tmp/ccy6xxkH.s:3343   .text:0000000000001004 .LFB76
     /tmp/ccy6xxkH.s:3498   .text:00000000000010ec .LFE76
     /tmp/ccy6xxkH.s:9956   .debug_loc:0000000000000000 .LLST79
     /tmp/ccy6xxkH.s:11720  .debug_str:0000000000000e3d .LASF333
GAS LISTING /tmp/ccy6xxkH.s 			page 137


     /tmp/ccy6xxkH.s:9981   .debug_loc:0000000000000062 .LLST80
     /tmp/ccy6xxkH.s:11666  .debug_str:0000000000000c60 .LASF334
     /tmp/ccy6xxkH.s:10006  .debug_loc:00000000000000c4 .LLST81
     /tmp/ccy6xxkH.s:11844  .debug_str:00000000000011f4 .LASF335
     /tmp/ccy6xxkH.s:10032  .debug_loc:0000000000000136 .LLST82
     /tmp/ccy6xxkH.s:11470  .debug_str:00000000000005df .LASF336
     /tmp/ccy6xxkH.s:10085  .debug_loc:00000000000001c7 .LLST83
     /tmp/ccy6xxkH.s:11608  .debug_str:0000000000000a51 .LASF337
     /tmp/ccy6xxkH.s:10120  .debug_loc:0000000000000235 .LLST84
     /tmp/ccy6xxkH.s:11728  .debug_str:0000000000000ea8 .LASF338
     /tmp/ccy6xxkH.s:10152  .debug_loc:00000000000002a0 .LLST85
     /tmp/ccy6xxkH.s:11330  .debug_str:00000000000001d2 .LASF339
     /tmp/ccy6xxkH.s:10163  .debug_loc:00000000000002d6 .LLST86
     /tmp/ccy6xxkH.s:11752  .debug_str:0000000000000f35 .LASF340
     /tmp/ccy6xxkH.s:10184  .debug_loc:0000000000000334 .LLST87
     /tmp/ccy6xxkH.s:11700  .debug_str:0000000000000d7c .LASF341
     /tmp/ccy6xxkH.s:10200  .debug_loc:000000000000037e .LLST88
     /tmp/ccy6xxkH.s:11506  .debug_str:00000000000006df .LASF342
     /tmp/ccy6xxkH.s:10221  .debug_loc:00000000000003dc .LLST89
     /tmp/ccy6xxkH.s:3470   .text:00000000000010bc .LVL274
     /tmp/ccy6xxkH.s:3486   .text:00000000000010d8 .LVL276
     /tmp/ccy6xxkH.s:3288   .text:0000000000000fb8 .LFB75
     /tmp/ccy6xxkH.s:3337   .text:0000000000001004 .LFE75
     /tmp/ccy6xxkH.s:3306   .text:0000000000000fd4 .LBB181
     /tmp/ccy6xxkH.s:3326   .text:0000000000000ff4 .LBE181
     /tmp/ccy6xxkH.s:10228  .debug_loc:00000000000003ff .LLST78
     /tmp/ccy6xxkH.s:3303   .text:0000000000000fd4 .LVL252
     /tmp/ccy6xxkH.s:3572   .text:0000000000001158 .LFB74
     /tmp/ccy6xxkH.s:3727   .text:00000000000012f8 .LFE74
     /tmp/ccy6xxkH.s:11856  .debug_str:0000000000001256 .LASF343
     /tmp/ccy6xxkH.s:10244  .debug_loc:0000000000000449 .LLST95
     /tmp/ccy6xxkH.s:3663   .text:0000000000001264 .LBB183
     /tmp/ccy6xxkH.s:3675   .text:000000000000126c .LBE183
     /tmp/ccy6xxkH.s:10251  .debug_loc:000000000000046c .LLST96
     /tmp/ccy6xxkH.s:3594   .text:0000000000001180 .LVL284
     /tmp/ccy6xxkH.s:3617   .text:00000000000011cc .LVL286
     /tmp/ccy6xxkH.s:3626   .text:00000000000011ec .LVL287
     /tmp/ccy6xxkH.s:3635   .text:000000000000120c .LVL288
     /tmp/ccy6xxkH.s:3644   .text:000000000000122c .LVL289
     /tmp/ccy6xxkH.s:3652   .text:0000000000001244 .LVL290
     /tmp/ccy6xxkH.s:3661   .text:0000000000001264 .LVL291
     /tmp/ccy6xxkH.s:3683   .text:0000000000001288 .LVL293
     /tmp/ccy6xxkH.s:3691   .text:00000000000012a4 .LVL294
     /tmp/ccy6xxkH.s:3699   .text:00000000000012c0 .LVL295
     /tmp/ccy6xxkH.s:3707   .text:00000000000012d8 .LVL296
     /tmp/ccy6xxkH.s:3504   .text:00000000000010ec .LFB73
     /tmp/ccy6xxkH.s:3566   .text:0000000000001158 .LFE73
     /tmp/ccy6xxkH.s:10261  .debug_loc:0000000000000492 .LLST90
     /tmp/ccy6xxkH.s:11824  .debug_str:000000000000115a .LASF344
     /tmp/ccy6xxkH.s:10275  .debug_loc:00000000000004cb .LLST91
     /tmp/ccy6xxkH.s:10289  .debug_loc:0000000000000504 .LLST92
     /tmp/ccy6xxkH.s:10307  .debug_loc:0000000000000550 .LLST93
     /tmp/ccy6xxkH.s:3528   .text:0000000000001114 .LBB182
     /tmp/ccy6xxkH.s:3546   .text:000000000000113c .LBE182
     /tmp/ccy6xxkH.s:10325  .debug_loc:000000000000059c .LLST94
     /tmp/ccy6xxkH.s:3537   .text:0000000000001130 .LVL279
     /tmp/ccy6xxkH.s:3141   .text:0000000000000f10 .LFB72
GAS LISTING /tmp/ccy6xxkH.s 			page 138


     /tmp/ccy6xxkH.s:3170   .text:0000000000000f30 .LFE72
     /tmp/ccy6xxkH.s:3103   .text:0000000000000ef0 .LFB71
     /tmp/ccy6xxkH.s:3135   .text:0000000000000f10 .LFE71
     /tmp/ccy6xxkH.s:2995   .text:0000000000000e74 .LFB70
     /tmp/ccy6xxkH.s:3097   .text:0000000000000ef0 .LFE70
     /tmp/ccy6xxkH.s:11574  .debug_str:000000000000093c .LASF345
     /tmp/ccy6xxkH.s:10332  .debug_loc:00000000000005bf .LLST68
     /tmp/ccy6xxkH.s:11792  .debug_str:000000000000108e .LASF346
     /tmp/ccy6xxkH.s:10358  .debug_loc:0000000000000631 .LLST69
     /tmp/ccy6xxkH.s:10376  .debug_loc:000000000000067d .LLST70
     /tmp/ccy6xxkH.s:11456  .debug_str:0000000000000593 .LASF347
     /tmp/ccy6xxkH.s:10402  .debug_loc:00000000000006ef .LLST71
     /tmp/ccy6xxkH.s:11500  .debug_str:00000000000006ad .LASF348
     /tmp/ccy6xxkH.s:10428  .debug_loc:0000000000000761 .LLST72
     /tmp/ccy6xxkH.s:11404  .debug_str:00000000000003b3 .LASF349
     /tmp/ccy6xxkH.s:10446  .debug_loc:00000000000007ad .LLST73
     /tmp/ccy6xxkH.s:12010  .debug_str:0000000000001827 .LASF350
     /tmp/ccy6xxkH.s:10472  .debug_loc:000000000000081f .LLST74
     /tmp/ccy6xxkH.s:3028   .text:0000000000000eac .LVL235
     /tmp/ccy6xxkH.s:1986   .text:00000000000009e8 .LFB69
     /tmp/ccy6xxkH.s:2019   .text:0000000000000a14 .LFE69
     /tmp/ccy6xxkH.s:10493  .debug_loc:000000000000087d .LLST51
     /tmp/ccy6xxkH.s:1957   .text:00000000000009e8 .LFE68
     /tmp/ccy6xxkH.s:10506  .debug_loc:00000000000008b5 .LLST47
     /tmp/ccy6xxkH.s:11400  .debug_str:00000000000003a0 .LASF351
     /tmp/ccy6xxkH.s:10525  .debug_loc:0000000000000911 .LLST48
     /tmp/ccy6xxkH.s:10536  .debug_loc:0000000000000947 .LLST49
     /tmp/ccy6xxkH.s:1803   .text:000000000000090c .LBB113
     /tmp/ccy6xxkH.s:1906   .text:00000000000009a0 .LBE113
     /tmp/ccy6xxkH.s:11394  .debug_str:000000000000037f .LASF352
     /tmp/ccy6xxkH.s:10553  .debug_loc:0000000000000992 .LLST50
     /tmp/ccy6xxkH.s:1902   .text:00000000000009a0 .LVL144
     /tmp/ccy6xxkH.s:1768   .text:00000000000008b8 .LVL137
     /tmp/ccy6xxkH.s:1780   .text:00000000000008dc .LVL140
     /tmp/ccy6xxkH.s:1785   .text:00000000000008e8 .LVL141
     /tmp/ccy6xxkH.s:1796   .text:0000000000000908 .LVL142
     /tmp/ccy6xxkH.s:1918   .text:00000000000009ac .LVL145
     /tmp/ccy6xxkH.s:1950   .text:00000000000009dc .LVL151
     /tmp/ccy6xxkH.s:1954   .text:00000000000009e8 .LVL152
     /tmp/ccy6xxkH.s:1675   .text:0000000000000838 .LFB67
     /tmp/ccy6xxkH.s:1740   .text:0000000000000894 .LFE67
     /tmp/ccy6xxkH.s:11732  .debug_str:0000000000000eb7 .LASF353
     /tmp/ccy6xxkH.s:10560  .debug_loc:00000000000009b5 .LLST44
     /tmp/ccy6xxkH.s:10571  .debug_loc:00000000000009eb .LLST45
     /tmp/ccy6xxkH.s:1713   .text:0000000000000864 .LVL132
     /tmp/ccy6xxkH.s:1734   .text:0000000000000884 .LVL135
     /tmp/ccy6xxkH.s:1737   .text:0000000000000890 .LVL136
     /tmp/ccy6xxkH.s:1599   .text:00000000000007d0 .LFB66
     /tmp/ccy6xxkH.s:1669   .text:0000000000000838 .LFE66
     /tmp/ccy6xxkH.s:10580  .debug_loc:0000000000000a10 .LLST41
     /tmp/ccy6xxkH.s:10591  .debug_loc:0000000000000a46 .LLST42
     /tmp/ccy6xxkH.s:1637   .text:00000000000007fc .LVL124
     /tmp/ccy6xxkH.s:1658   .text:000000000000081c .LVL127
     /tmp/ccy6xxkH.s:1663   .text:0000000000000828 .LVL128
     /tmp/ccy6xxkH.s:1666   .text:0000000000000834 .LVL129
     /tmp/ccy6xxkH.s:376    .text:00000000000001dc .LFB65
     /tmp/ccy6xxkH.s:422    .text:0000000000000214 .LFE65
GAS LISTING /tmp/ccy6xxkH.s 			page 139


     /tmp/ccy6xxkH.s:253    .text:0000000000000128 .LFB64
     /tmp/ccy6xxkH.s:370    .text:00000000000001dc .LFE64
     /tmp/ccy6xxkH.s:277    .text:000000000000015c .LBB97
     /tmp/ccy6xxkH.s:11238  .debug_ranges:0000000000000000 .Ldebug_ranges0
     /tmp/ccy6xxkH.s:286    .text:000000000000015c .LBB99
     /tmp/ccy6xxkH.s:300    .text:0000000000000164 .LBE99
     /tmp/ccy6xxkH.s:287    .text:000000000000015c .LBB100
     /tmp/ccy6xxkH.s:299    .text:0000000000000164 .LBE100
     /tmp/ccy6xxkH.s:10600  .debug_loc:0000000000000a6b .LLST4
     /tmp/ccy6xxkH.s:307    .text:0000000000000164 .LBB102
     /tmp/ccy6xxkH.s:322    .text:000000000000016c .LBE102
     /tmp/ccy6xxkH.s:308    .text:0000000000000164 .LBB103
     /tmp/ccy6xxkH.s:321    .text:000000000000016c .LBE103
     /tmp/ccy6xxkH.s:10608  .debug_loc:0000000000000a8f .LLST5
     /tmp/ccy6xxkH.s:344    .text:00000000000001a4 .LVL14
     /tmp/ccy6xxkH.s:356    .text:00000000000001c8 .LVL15
     /tmp/ccy6xxkH.s:186    .text:00000000000000e4 .LFB63
     /tmp/ccy6xxkH.s:247    .text:0000000000000128 .LFE63
     /tmp/ccy6xxkH.s:205    .text:0000000000000108 .LBB93
     /tmp/ccy6xxkH.s:219    .text:0000000000000110 .LBE93
     /tmp/ccy6xxkH.s:10617  .debug_loc:0000000000000ab5 .LLST3
     /tmp/ccy6xxkH.s:232    .text:000000000000011c .LBB95
     /tmp/ccy6xxkH.s:245    .text:0000000000000128 .LBE95
     /tmp/ccy6xxkH.s:1557   .text:000000000000079c .LFB62
     /tmp/ccy6xxkH.s:1593   .text:00000000000007d0 .LFE62
     /tmp/ccy6xxkH.s:10626  .debug_loc:0000000000000adb .LLST40
     /tmp/ccy6xxkH.s:1571   .text:00000000000007b4 .LVL120
     /tmp/ccy6xxkH.s:1582   .text:00000000000007c0 .LVL121
     /tmp/ccy6xxkH.s:3176   .text:0000000000000f30 .LFB61
     /tmp/ccy6xxkH.s:3282   .text:0000000000000fb8 .LFE61
     /tmp/ccy6xxkH.s:10633  .debug_loc:0000000000000afe .LLST75
     /tmp/ccy6xxkH.s:10647  .debug_loc:0000000000000b37 .LLST76
     /tmp/ccy6xxkH.s:3232   .text:0000000000000f6c .LBB178
     /tmp/ccy6xxkH.s:3278   .text:0000000000000fb8 .LBE178
     /tmp/ccy6xxkH.s:11696  .debug_str:0000000000000d67 .LASF354
     /tmp/ccy6xxkH.s:10654  .debug_loc:0000000000000b5a .LLST77
     /tmp/ccy6xxkH.s:3236   .text:0000000000000f74 .LVL249
     /tmp/ccy6xxkH.s:3196   .text:0000000000000f4c .LVL245
     /tmp/ccy6xxkH.s:133    .text:0000000000000094 .LFB60
     /tmp/ccy6xxkH.s:180    .text:00000000000000e4 .LFE60
     /tmp/ccy6xxkH.s:10661  .debug_loc:0000000000000b7d .LLST2
     /tmp/ccy6xxkH.s:169    .text:00000000000000d4 .LVL7
     /tmp/ccy6xxkH.s:1466   .text:0000000000000704 .LFB59
     /tmp/ccy6xxkH.s:1551   .text:000000000000079c .LFE59
     /tmp/ccy6xxkH.s:10668  .debug_loc:0000000000000ba0 .LLST39
     /tmp/ccy6xxkH.s:1494   .text:0000000000000740 .LVL110
     /tmp/ccy6xxkH.s:1515   .text:0000000000000760 .LVL113
     /tmp/ccy6xxkH.s:1536   .text:0000000000000780 .LVL116
     /tmp/ccy6xxkH.s:1541   .text:000000000000078c .LVL117
     /tmp/ccy6xxkH.s:1548   .text:0000000000000798 .LVL119
     /tmp/ccy6xxkH.s:1386   .text:000000000000068c .LFB58
     /tmp/ccy6xxkH.s:1460   .text:0000000000000704 .LFE58
     /tmp/ccy6xxkH.s:11396  .debug_str:000000000000038f .LASF355
     /tmp/ccy6xxkH.s:10683  .debug_loc:0000000000000be9 .LLST38
     /tmp/ccy6xxkH.s:1425   .text:00000000000006d0 .LVL106
     /tmp/ccy6xxkH.s:1433   .text:00000000000006e0 .LVL107
     /tmp/ccy6xxkH.s:1446   .text:00000000000006f0 .LVL108
GAS LISTING /tmp/ccy6xxkH.s 			page 140


     /tmp/ccy6xxkH.s:1321   .text:0000000000000644 .LFB57
     /tmp/ccy6xxkH.s:1380   .text:000000000000068c .LFE57
     /tmp/ccy6xxkH.s:10690  .debug_loc:0000000000000c0c .LLST36
     /tmp/ccy6xxkH.s:10701  .debug_loc:0000000000000c42 .LLST37
     /tmp/ccy6xxkH.s:1358   .text:000000000000066c .LVL102
     /tmp/ccy6xxkH.s:1375   .text:0000000000000684 .LVL104
     /tmp/ccy6xxkH.s:1244   .text:00000000000005e4 .LFB56
     /tmp/ccy6xxkH.s:1315   .text:0000000000000644 .LFE56
     /tmp/ccy6xxkH.s:10718  .debug_loc:0000000000000c8d .LLST34
     /tmp/ccy6xxkH.s:10729  .debug_loc:0000000000000cc3 .LLST35
     /tmp/ccy6xxkH.s:1290   .text:0000000000000620 .LVL96
     /tmp/ccy6xxkH.s:1307   .text:0000000000000638 .LVL98
     /tmp/ccy6xxkH.s:1169   .text:0000000000000584 .LFB55
     /tmp/ccy6xxkH.s:1238   .text:00000000000005e4 .LFE55
     /tmp/ccy6xxkH.s:10746  .debug_loc:0000000000000d0e .LLST31
     /tmp/ccy6xxkH.s:10757  .debug_loc:0000000000000d44 .LLST33
     /tmp/ccy6xxkH.s:1209   .text:00000000000005b0 .LVL88
     /tmp/ccy6xxkH.s:1230   .text:00000000000005d0 .LVL91
     /tmp/ccy6xxkH.s:1233   .text:00000000000005dc .LVL92
     /tmp/ccy6xxkH.s:1144   .text:0000000000000584 .LFE54
     /tmp/ccy6xxkH.s:10774  .debug_loc:0000000000000d8f .LLST27
     /tmp/ccy6xxkH.s:11656  .debug_str:0000000000000bdb .LASF356
     /tmp/ccy6xxkH.s:10785  .debug_loc:0000000000000dc5 .LLST28
     /tmp/ccy6xxkH.s:10796  .debug_loc:0000000000000dfb .LLST29
     /tmp/ccy6xxkH.s:10807  .debug_loc:0000000000000e31 .LLST30
     /tmp/ccy6xxkH.s:1073   .text:0000000000000518 .LVL74
     /tmp/ccy6xxkH.s:1081   .text:000000000000052c .LVL75
     /tmp/ccy6xxkH.s:1104   .text:0000000000000544 .LVL77
     /tmp/ccy6xxkH.s:1137   .text:0000000000000578 .LVL84
     /tmp/ccy6xxkH.s:1141   .text:0000000000000584 .LVL85
     /tmp/ccy6xxkH.s:93     .text:0000000000000058 .LFB53
     /tmp/ccy6xxkH.s:127    .text:0000000000000094 .LFE53
     /tmp/ccy6xxkH.s:10824  .debug_loc:0000000000000e7c .LLST1
     /tmp/ccy6xxkH.s:116    .text:0000000000000084 .LVL5
     /tmp/ccy6xxkH.s:961    .text:0000000000000490 .LFB52
     /tmp/ccy6xxkH.s:1028   .text:00000000000004e8 .LFE52
     /tmp/ccy6xxkH.s:10831  .debug_loc:0000000000000e9f .LLST25
     /tmp/ccy6xxkH.s:981    .text:00000000000004b0 .LBB110
     /tmp/ccy6xxkH.s:992    .text:00000000000004c0 .LBE110
     /tmp/ccy6xxkH.s:10848  .debug_loc:0000000000000eea .LLST26
     /tmp/ccy6xxkH.s:991    .text:00000000000004c0 .LVL68
     /tmp/ccy6xxkH.s:1008   .text:00000000000004d0 .LVL70
     /tmp/ccy6xxkH.s:887    .text:0000000000000438 .LFB51
     /tmp/ccy6xxkH.s:955    .text:0000000000000490 .LFE51
     /tmp/ccy6xxkH.s:10855  .debug_loc:0000000000000f0d .LLST22
     /tmp/ccy6xxkH.s:10866  .debug_loc:0000000000000f43 .LLST24
     /tmp/ccy6xxkH.s:925    .text:0000000000000460 .LVL62
     /tmp/ccy6xxkH.s:946    .text:0000000000000480 .LVL64
     /tmp/ccy6xxkH.s:950    .text:0000000000000488 .LVL65
     /tmp/ccy6xxkH.s:862    .text:0000000000000438 .LFE50
     /tmp/ccy6xxkH.s:10883  .debug_loc:0000000000000f8e .LLST16
     /tmp/ccy6xxkH.s:11540  .debug_str:0000000000000814 .LASF357
     /tmp/ccy6xxkH.s:10894  .debug_loc:0000000000000fc4 .LLST17
     /tmp/ccy6xxkH.s:10905  .debug_loc:0000000000000ffa .LLST18
     /tmp/ccy6xxkH.s:10916  .debug_loc:0000000000001030 .LLST19
     /tmp/ccy6xxkH.s:10927  .debug_loc:0000000000001066 .LLST20
     /tmp/ccy6xxkH.s:10938  .debug_loc:000000000000109c .LLST21
GAS LISTING /tmp/ccy6xxkH.s 			page 141


     /tmp/ccy6xxkH.s:776    .text:00000000000003b0 .LVL46
     /tmp/ccy6xxkH.s:787    .text:00000000000003d0 .LVL47
     /tmp/ccy6xxkH.s:816    .text:00000000000003f0 .LVL49
     /tmp/ccy6xxkH.s:855    .text:000000000000042c .LVL58
     /tmp/ccy6xxkH.s:859    .text:0000000000000438 .LVL59
     /tmp/ccy6xxkH.s:691    .text:0000000000000370 .LFE49
     /tmp/ccy6xxkH.s:10955  .debug_loc:00000000000010e7 .LLST10
     /tmp/ccy6xxkH.s:10966  .debug_loc:000000000000111d .LLST11
     /tmp/ccy6xxkH.s:10977  .debug_loc:0000000000001153 .LLST12
     /tmp/ccy6xxkH.s:10988  .debug_loc:0000000000001189 .LLST13
     /tmp/ccy6xxkH.s:10999  .debug_loc:00000000000011bf .LLST14
     /tmp/ccy6xxkH.s:11010  .debug_loc:00000000000011f5 .LLST15
     /tmp/ccy6xxkH.s:598    .text:00000000000002dc .LVL27
     /tmp/ccy6xxkH.s:609    .text:00000000000002fc .LVL28
     /tmp/ccy6xxkH.s:625    .text:0000000000000314 .LVL29
     /tmp/ccy6xxkH.s:645    .text:0000000000000328 .LVL31
     /tmp/ccy6xxkH.s:684    .text:0000000000000364 .LVL40
     /tmp/ccy6xxkH.s:688    .text:0000000000000370 .LVL41
     /tmp/ccy6xxkH.s:479    .text:000000000000024c .LFB48
     /tmp/ccy6xxkH.s:537    .text:000000000000029c .LFE48
     /tmp/ccy6xxkH.s:11027  .debug_loc:0000000000001240 .LLST8
     /tmp/ccy6xxkH.s:11034  .debug_loc:0000000000001263 .LLST9
     /tmp/ccy6xxkH.s:509    .text:000000000000027c .LVL20
     /tmp/ccy6xxkH.s:533    .text:0000000000000298 .LVL22
     /tmp/ccy6xxkH.s:428    .text:0000000000000214 .LFB47
     /tmp/ccy6xxkH.s:473    .text:000000000000024c .LFE47
     /tmp/ccy6xxkH.s:11045  .debug_loc:0000000000001299 .LLST6
     /tmp/ccy6xxkH.s:11052  .debug_loc:00000000000012bc .LLST7
     /tmp/ccy6xxkH.s:451    .text:0000000000000230 .LVL17
     /tmp/ccy6xxkH.s:462    .text:000000000000023c .LVL18
     /tmp/ccy6xxkH.s:2048   .text:0000000000000a14 .LFB46
     /tmp/ccy6xxkH.s:2989   .text:0000000000000e74 .LFE46
     /tmp/ccy6xxkH.s:12000  .debug_str:00000000000017ee .LASF358
     /tmp/ccy6xxkH.s:11059  .debug_loc:00000000000012df .LLST52
     /tmp/ccy6xxkH.s:11716  .debug_str:0000000000000e14 .LASF359
     /tmp/ccy6xxkH.s:11422  .debug_str:0000000000000429 .LASF360
     /tmp/ccy6xxkH.s:11070  .debug_loc:0000000000001315 .LLST65
     /tmp/ccy6xxkH.s:2251   .text:0000000000000b64 .LBB162
     /tmp/ccy6xxkH.s:2264   .text:0000000000000b68 .LBE162
     /tmp/ccy6xxkH.s:2268   .text:0000000000000b6c .LBB164
     /tmp/ccy6xxkH.s:2281   .text:0000000000000b70 .LBE164
     /tmp/ccy6xxkH.s:2433   .text:0000000000000bd4 .LBB166
     /tmp/ccy6xxkH.s:2444   .text:0000000000000bd8 .LBE166
     /tmp/ccy6xxkH.s:11077  .debug_loc:0000000000001338 .LLST66
     /tmp/ccy6xxkH.s:2449   .text:0000000000000bdc .LBB168
     /tmp/ccy6xxkH.s:2461   .text:0000000000000be0 .LBE168
     /tmp/ccy6xxkH.s:11084  .debug_loc:000000000000135b .LLST67
     /tmp/ccy6xxkH.s:2424   .text:0000000000000bc4 .LVL172
     /tmp/ccy6xxkH.s:2490   .text:0000000000000c04 .LVL180
     /tmp/ccy6xxkH.s:2498   .text:0000000000000c10 .LVL181
     /tmp/ccy6xxkH.s:2506   .text:0000000000000c1c .LVL182
     /tmp/ccy6xxkH.s:2514   .text:0000000000000c28 .LVL183
     /tmp/ccy6xxkH.s:2522   .text:0000000000000c34 .LVL184
     /tmp/ccy6xxkH.s:2530   .text:0000000000000c40 .LVL185
     /tmp/ccy6xxkH.s:2538   .text:0000000000000c4c .LVL186
     /tmp/ccy6xxkH.s:2546   .text:0000000000000c58 .LVL187
     /tmp/ccy6xxkH.s:2554   .text:0000000000000c64 .LVL188
GAS LISTING /tmp/ccy6xxkH.s 			page 142


     /tmp/ccy6xxkH.s:2562   .text:0000000000000c70 .LVL189
     /tmp/ccy6xxkH.s:2570   .text:0000000000000c7c .LVL190
     /tmp/ccy6xxkH.s:2578   .text:0000000000000c88 .LVL191
     /tmp/ccy6xxkH.s:2586   .text:0000000000000c94 .LVL192
     /tmp/ccy6xxkH.s:2594   .text:0000000000000ca0 .LVL193
     /tmp/ccy6xxkH.s:2602   .text:0000000000000cac .LVL194
     /tmp/ccy6xxkH.s:2610   .text:0000000000000cb8 .LVL195
     /tmp/ccy6xxkH.s:2627   .text:0000000000000cd4 .LVL196
     /tmp/ccy6xxkH.s:2631   .text:0000000000000cdc .LVL197
     /tmp/ccy6xxkH.s:2637   .text:0000000000000ce0 .LBB144
     /tmp/ccy6xxkH.s:2768   .text:0000000000000d70 .LBE144
     /tmp/ccy6xxkH.s:2749   .text:0000000000000d50 .LBB152
     /tmp/ccy6xxkH.s:2764   .text:0000000000000d6c .LBE152
     /tmp/ccy6xxkH.s:11091  .debug_loc:000000000000137e .LLST62
     /tmp/ccy6xxkH.s:2763   .text:0000000000000d6c .LVL208
     /tmp/ccy6xxkH.s:2639   .text:0000000000000ce0 .LBB145
     /tmp/ccy6xxkH.s:2652   .text:0000000000000ce4 .LBE145
     /tmp/ccy6xxkH.s:2656   .text:0000000000000ce8 .LBB147
     /tmp/ccy6xxkH.s:2669   .text:0000000000000cec .LBE147
     /tmp/ccy6xxkH.s:2674   .text:0000000000000cf0 .LBB149
     /tmp/ccy6xxkH.s:2686   .text:0000000000000cf8 .LBE149
     /tmp/ccy6xxkH.s:11098  .debug_loc:00000000000013a1 .LLST61
     /tmp/ccy6xxkH.s:2717   .text:0000000000000d40 .LBB153
     /tmp/ccy6xxkH.s:2728   .text:0000000000000d44 .LBE153
     /tmp/ccy6xxkH.s:11106  .debug_loc:00000000000013c5 .LLST63
     /tmp/ccy6xxkH.s:2733   .text:0000000000000d48 .LBB155
     /tmp/ccy6xxkH.s:2747   .text:0000000000000d50 .LBE155
     /tmp/ccy6xxkH.s:11113  .debug_loc:00000000000013e8 .LLST64
     /tmp/ccy6xxkH.s:2696   .text:0000000000000d14 .LVL202
     /tmp/ccy6xxkH.s:2770   .text:0000000000000d70 .LBB129
     /tmp/ccy6xxkH.s:2930   .text:0000000000000e0c .LBE129
     /tmp/ccy6xxkH.s:11120  .debug_loc:000000000000140b .LLST56
     /tmp/ccy6xxkH.s:11127  .debug_loc:000000000000142e .LLST57
     /tmp/ccy6xxkH.s:11134  .debug_loc:0000000000001451 .LLST58
     /tmp/ccy6xxkH.s:2924   .text:0000000000000e08 .LVL224
     /tmp/ccy6xxkH.s:2772   .text:0000000000000d70 .LBB130
     /tmp/ccy6xxkH.s:2785   .text:0000000000000d74 .LBE130
     /tmp/ccy6xxkH.s:2789   .text:0000000000000d78 .LBB132
     /tmp/ccy6xxkH.s:2802   .text:0000000000000d7c .LBE132
     /tmp/ccy6xxkH.s:2883   .text:0000000000000de0 .LBB137
     /tmp/ccy6xxkH.s:2894   .text:0000000000000de4 .LBE137
     /tmp/ccy6xxkH.s:11145  .debug_loc:0000000000001487 .LLST59
     /tmp/ccy6xxkH.s:2899   .text:0000000000000de8 .LBB139
     /tmp/ccy6xxkH.s:2913   .text:0000000000000df0 .LBE139
     /tmp/ccy6xxkH.s:11152  .debug_loc:00000000000014aa .LLST60
     /tmp/ccy6xxkH.s:2876   .text:0000000000000dd4 .LVL218
     /tmp/ccy6xxkH.s:2878   .text:0000000000000ddc .LVL219
     /tmp/ccy6xxkH.s:2932   .text:0000000000000e0c .LBB126
     /tmp/ccy6xxkH.s:2982   .text:0000000000000e70 .LBE126
     /tmp/ccy6xxkH.s:11159  .debug_loc:00000000000014cd .LLST55
     /tmp/ccy6xxkH.s:2948   .text:0000000000000e30 .LBB127
     /tmp/ccy6xxkH.s:2960   .text:0000000000000e34 .LBE127
     /tmp/ccy6xxkH.s:2946   .text:0000000000000e30 .LVL227
     /tmp/ccy6xxkH.s:2967   .text:0000000000000e48 .LVL228
     /tmp/ccy6xxkH.s:2972   .text:0000000000000e58 .LVL229
     /tmp/ccy6xxkH.s:2977   .text:0000000000000e68 .LVL230
     /tmp/ccy6xxkH.s:2981   .text:0000000000000e70 .LVL231
GAS LISTING /tmp/ccy6xxkH.s 			page 143


     /tmp/ccy6xxkH.s:2149   .text:0000000000000a9c .LBB121
     /tmp/ccy6xxkH.s:2245   .text:0000000000000b64 .LBE121
     /tmp/ccy6xxkH.s:11166  .debug_loc:00000000000014f0 .LLST53
     /tmp/ccy6xxkH.s:11173  .debug_loc:0000000000001513 .LLST54
     /tmp/ccy6xxkH.s:2161   .text:0000000000000abc .LBB122
     /tmp/ccy6xxkH.s:2177   .text:0000000000000ac8 .LBE122
     /tmp/ccy6xxkH.s:2192   .text:0000000000000aec .LBB124
     /tmp/ccy6xxkH.s:2204   .text:0000000000000af0 .LBE124
     /tmp/ccy6xxkH.s:2154   .text:0000000000000aac .LVL156
     /tmp/ccy6xxkH.s:2159   .text:0000000000000abc .LVL157
     /tmp/ccy6xxkH.s:2185   .text:0000000000000adc .LVL160
     /tmp/ccy6xxkH.s:2190   .text:0000000000000aec .LVL161
     /tmp/ccy6xxkH.s:2211   .text:0000000000000b04 .LVL162
     /tmp/ccy6xxkH.s:2216   .text:0000000000000b14 .LVL163
     /tmp/ccy6xxkH.s:2224   .text:0000000000000b34 .LVL164
     /tmp/ccy6xxkH.s:2238   .text:0000000000000b58 .LVL166
     /tmp/ccy6xxkH.s:2242   .text:0000000000000b60 .LVL167
     /tmp/ccy6xxkH.s:2071   .text:0000000000000a2c .LBB115
     /tmp/ccy6xxkH.s:2086   .text:0000000000000a38 .LBE115
     /tmp/ccy6xxkH.s:2467   .text:0000000000000be8 .LVL177
     /tmp/ccy6xxkH.s:10     .text:0000000000000000 .LFB45
     /tmp/ccy6xxkH.s:87     .text:0000000000000058 .LFE45
     /tmp/ccy6xxkH.s:11180  .debug_loc:0000000000001536 .LLST0
     /tmp/ccy6xxkH.s:3733   .text:00000000000012f8 .LFB44
     /tmp/ccy6xxkH.s:3875   .text:00000000000013a8 .LFE44
     /tmp/ccy6xxkH.s:3748   .text:0000000000001310 .LBB185
     /tmp/ccy6xxkH.s:3759   .text:0000000000001314 .LBE185
     /tmp/ccy6xxkH.s:3796   .text:0000000000001368 .LBB187
     /tmp/ccy6xxkH.s:3816   .text:0000000000001384 .LBE187
     /tmp/ccy6xxkH.s:11193  .debug_loc:000000000000156e .LLST97
     /tmp/ccy6xxkH.s:3819   .text:0000000000001384 .LBB189
     /tmp/ccy6xxkH.s:3820   .text:0000000000001384 .LBB190
     /tmp/ccy6xxkH.s:3832   .text:000000000000138c .LBE190
     /tmp/ccy6xxkH.s:11200  .debug_loc:0000000000001591 .LLST98
     /tmp/ccy6xxkH.s:3836   .text:000000000000138c .LBB192
     /tmp/ccy6xxkH.s:3848   .text:0000000000001394 .LBE192
     /tmp/ccy6xxkH.s:11208  .debug_loc:00000000000015b5 .LLST99
     /tmp/ccy6xxkH.s:3852   .text:0000000000001394 .LBB194
     /tmp/ccy6xxkH.s:3863   .text:0000000000001398 .LBE194
     /tmp/ccy6xxkH.s:11217  .debug_loc:00000000000015db .LLST100
     /tmp/ccy6xxkH.s:3770   .text:0000000000001338 .LVL300
     /tmp/ccy6xxkH.s:3774   .text:0000000000001340 .LVL301
     /tmp/ccy6xxkH.s:3778   .text:0000000000001348 .LVL302
     /tmp/ccy6xxkH.s:3782   .text:0000000000001350 .LVL303
     /tmp/ccy6xxkH.s:3786   .text:0000000000001358 .LVL304
     /tmp/ccy6xxkH.s:3790   .text:0000000000001360 .LVL305
     /tmp/ccy6xxkH.s:3794   .text:0000000000001368 .LVL306
     /tmp/ccy6xxkH.s:11278  .debug_str:0000000000000013 .LASF361
     /tmp/ccy6xxkH.s:11754  .debug_str:0000000000000f3e .LASF362
     /tmp/ccy6xxkH.s:11380  .debug_str:000000000000032d .LASF363
     /tmp/ccy6xxkH.s:11392  .debug_str:0000000000000370 .LASF376
     /tmp/ccy6xxkH.s:11300  .debug_str:00000000000000cd .LASF377
     /tmp/ccy6xxkH.s:12002  .debug_str:00000000000017f4 .LASF364
     /tmp/ccy6xxkH.s:11960  .debug_str:0000000000001607 .LASF365
     /tmp/ccy6xxkH.s:11576  .debug_str:0000000000000943 .LASF366
     /tmp/ccy6xxkH.s:11536  .debug_str:00000000000007f7 .LASF367
     /tmp/ccy6xxkH.s:11668  .debug_str:0000000000000c65 .LASF368
GAS LISTING /tmp/ccy6xxkH.s 			page 144


     /tmp/ccy6xxkH.s:3346   .text:0000000000001004 .LVL256
     /tmp/ccy6xxkH.s:3399   .text:0000000000001058 .LVL262
     /tmp/ccy6xxkH.s:3464   .text:00000000000010b4 .LVL273
     /tmp/ccy6xxkH.s:3402   .text:000000000000105c .LVL263
     /tmp/ccy6xxkH.s:3440   .text:000000000000108c .LVL272
     /tmp/ccy6xxkH.s:3371   .text:0000000000001034 .LVL257
     /tmp/ccy6xxkH.s:3388   .text:0000000000001048 .LVL260
     /tmp/ccy6xxkH.s:3378   .text:000000000000103c .LVL258
     /tmp/ccy6xxkH.s:3407   .text:0000000000001060 .LVL264
     /tmp/ccy6xxkH.s:3481   .text:00000000000010d0 .LVL275
     /tmp/ccy6xxkH.s:3384   .text:0000000000001044 .LVL259
     /tmp/ccy6xxkH.s:3426   .text:0000000000001078 .LVL268
     /tmp/ccy6xxkH.s:3437   .text:0000000000001088 .LVL271
     /tmp/ccy6xxkH.s:3392   .text:0000000000001050 .LVL261
     /tmp/ccy6xxkH.s:3411   .text:0000000000001068 .LVL265
     /tmp/ccy6xxkH.s:3418   .text:0000000000001070 .LVL266
     /tmp/ccy6xxkH.s:3421   .text:0000000000001074 .LVL267
     /tmp/ccy6xxkH.s:3428   .text:000000000000107c .LVL269
     /tmp/ccy6xxkH.s:3431   .text:0000000000001080 .LVL270
     /tmp/ccy6xxkH.s:3309   .text:0000000000000fd8 .LVL253
     /tmp/ccy6xxkH.s:3322   .text:0000000000000ff0 .LVL254
     /tmp/ccy6xxkH.s:3324   .text:0000000000000ff4 .LVL255
     /tmp/ccy6xxkH.s:3608   .text:00000000000011ac .LVL285
     /tmp/ccy6xxkH.s:3718   .text:00000000000012e8 .LVL297
     /tmp/ccy6xxkH.s:3672   .text:000000000000126c .LVL292
     /tmp/ccy6xxkH.s:3507   .text:00000000000010ec .LVL277
     /tmp/ccy6xxkH.s:3526   .text:0000000000001114 .LVL278
     /tmp/ccy6xxkH.s:3558   .text:000000000000114c .LVL282
     /tmp/ccy6xxkH.s:3561   .text:0000000000001150 .LVL283
     /tmp/ccy6xxkH.s:3555   .text:0000000000001148 .LVL281
     /tmp/ccy6xxkH.s:2998   .text:0000000000000e74 .LVL232
     /tmp/ccy6xxkH.s:3026   .text:0000000000000ea4 .LVL234
     /tmp/ccy6xxkH.s:3036   .text:0000000000000eb8 .LVL236
     /tmp/ccy6xxkH.s:3040   .text:0000000000000ebc .LVL237
     /tmp/ccy6xxkH.s:3089   .text:0000000000000ee4 .LVL240
     /tmp/ccy6xxkH.s:3086   .text:0000000000000ee0 .LVL239
     /tmp/ccy6xxkH.s:3092   .text:0000000000000ee8 .LVL241
     /tmp/ccy6xxkH.s:3017   .text:0000000000000e9c .LVL233
     /tmp/ccy6xxkH.s:2002   .text:00000000000009f8 .LVL153
     /tmp/ccy6xxkH.s:2007   .text:00000000000009fc .LVL154
     /tmp/ccy6xxkH.s:1770   .text:00000000000008bc .LVL138
     /tmp/ccy6xxkH.s:1778   .text:00000000000008d4 .LVL139
     /tmp/ccy6xxkH.s:1834   .text:0000000000000958 .LVL143
     /tmp/ccy6xxkH.s:1934   .text:00000000000009c4 .LVL147
     /tmp/ccy6xxkH.s:1945   .text:00000000000009d0 .LVL150
     /tmp/ccy6xxkH.s:1940   .text:00000000000009c8 .LVL148
     /tmp/ccy6xxkH.s:1928   .text:00000000000009b8 .LVL146
     /tmp/ccy6xxkH.s:1942   .text:00000000000009cc .LVL149
     /tmp/ccy6xxkH.s:1695   .text:0000000000000850 .LVL130
     /tmp/ccy6xxkH.s:1723   .text:0000000000000870 .LVL133
     /tmp/ccy6xxkH.s:1727   .text:0000000000000878 .LVL134
     /tmp/ccy6xxkH.s:1701   .text:0000000000000854 .LVL131
     /tmp/ccy6xxkH.s:1619   .text:00000000000007e8 .LVL122
     /tmp/ccy6xxkH.s:1647   .text:0000000000000808 .LVL125
     /tmp/ccy6xxkH.s:1651   .text:0000000000000810 .LVL126
     /tmp/ccy6xxkH.s:1625   .text:00000000000007ec .LVL123
     /tmp/ccy6xxkH.s:283    .text:000000000000015c .LVL11
GAS LISTING /tmp/ccy6xxkH.s 			page 145


     /tmp/ccy6xxkH.s:296    .text:0000000000000164 .LVL12
     /tmp/ccy6xxkH.s:317    .text:000000000000016c .LVL13
     /tmp/ccy6xxkH.s:204    .text:0000000000000108 .LVL8
     /tmp/ccy6xxkH.s:215    .text:0000000000000110 .LVL9
     /tmp/ccy6xxkH.s:3179   .text:0000000000000f30 .LVL243
     /tmp/ccy6xxkH.s:3189   .text:0000000000000f44 .LVL244
     /tmp/ccy6xxkH.s:3206   .text:0000000000000f58 .LVL246
     /tmp/ccy6xxkH.s:3229   .text:0000000000000f68 .LVL248
     /tmp/ccy6xxkH.s:3243   .text:0000000000000f84 .LVL250
     /tmp/ccy6xxkH.s:3254   .text:0000000000000f8c .LVL251
     /tmp/ccy6xxkH.s:163    .text:00000000000000c8 .LVL6
     /tmp/ccy6xxkH.s:1496   .text:0000000000000744 .LVL111
     /tmp/ccy6xxkH.s:1503   .text:0000000000000754 .LVL112
     /tmp/ccy6xxkH.s:1528   .text:0000000000000774 .LVL114
     /tmp/ccy6xxkH.s:1534   .text:0000000000000778 .LVL115
     /tmp/ccy6xxkH.s:1543   .text:0000000000000790 .LVL118
     /tmp/ccy6xxkH.s:1411   .text:00000000000006b0 .LVL105
     /tmp/ccy6xxkH.s:1455   .text:00000000000006fc .LVL109
     /tmp/ccy6xxkH.s:1339   .text:0000000000000658 .LVL100
     /tmp/ccy6xxkH.s:1346   .text:0000000000000660 .LVL101
     /tmp/ccy6xxkH.s:1369   .text:000000000000067c .LVL103
     /tmp/ccy6xxkH.s:1262   .text:00000000000005f8 .LVL93
     /tmp/ccy6xxkH.s:1267   .text:00000000000005fc .LVL94
     /tmp/ccy6xxkH.s:1301   .text:0000000000000630 .LVL97
     /tmp/ccy6xxkH.s:1279   .text:0000000000000614 .LVL95
     /tmp/ccy6xxkH.s:1309   .text:000000000000063c .LVL99
     /tmp/ccy6xxkH.s:1189   .text:000000000000059c .LVL86
     /tmp/ccy6xxkH.s:1219   .text:00000000000005bc .LVL89
     /tmp/ccy6xxkH.s:1223   .text:00000000000005c4 .LVL90
     /tmp/ccy6xxkH.s:1198   .text:00000000000005a4 .LVL87
     /tmp/ccy6xxkH.s:1060   .text:0000000000000508 .LVL72
     /tmp/ccy6xxkH.s:1117   .text:0000000000000554 .LVL79
     /tmp/ccy6xxkH.s:1124   .text:0000000000000560 .LVL81
     /tmp/ccy6xxkH.s:1133   .text:000000000000056c .LVL83
     /tmp/ccy6xxkH.s:1066   .text:000000000000050c .LVL73
     /tmp/ccy6xxkH.s:1120   .text:0000000000000558 .LVL80
     /tmp/ccy6xxkH.s:1114   .text:0000000000000550 .LVL78
     /tmp/ccy6xxkH.s:1130   .text:0000000000000568 .LVL82
     /tmp/ccy6xxkH.s:1093   .text:0000000000000538 .LVL76
     /tmp/ccy6xxkH.s:108    .text:0000000000000074 .LVL4
     /tmp/ccy6xxkH.s:973    .text:00000000000004a0 .LVL66
     /tmp/ccy6xxkH.s:997    .text:00000000000004c4 .LVL69
     /tmp/ccy6xxkH.s:1019   .text:00000000000004e0 .LVL71
     /tmp/ccy6xxkH.s:983    .text:00000000000004b0 .LVL67
     /tmp/ccy6xxkH.s:905    .text:000000000000044c .LVL60
     /tmp/ccy6xxkH.s:913    .text:0000000000000454 .LVL61
     /tmp/ccy6xxkH.s:936    .text:0000000000000470 .LVL63
     /tmp/ccy6xxkH.s:763    .text:00000000000003a0 .LVL44
     /tmp/ccy6xxkH.s:832    .text:0000000000000404 .LVL52
     /tmp/ccy6xxkH.s:842    .text:0000000000000414 .LVL55
     /tmp/ccy6xxkH.s:769    .text:00000000000003a4 .LVL45
     /tmp/ccy6xxkH.s:829    .text:0000000000000400 .LVL51
     /tmp/ccy6xxkH.s:851    .text:0000000000000420 .LVL57
     /tmp/ccy6xxkH.s:757    .text:000000000000039c .LVL43
     /tmp/ccy6xxkH.s:835    .text:0000000000000408 .LVL53
     /tmp/ccy6xxkH.s:751    .text:0000000000000398 .LVL42
     /tmp/ccy6xxkH.s:838    .text:000000000000040c .LVL54
GAS LISTING /tmp/ccy6xxkH.s 			page 146


     /tmp/ccy6xxkH.s:826    .text:00000000000003fc .LVL50
     /tmp/ccy6xxkH.s:848    .text:000000000000041c .LVL56
     /tmp/ccy6xxkH.s:805    .text:00000000000003e4 .LVL48
     /tmp/ccy6xxkH.s:585    .text:00000000000002cc .LVL25
     /tmp/ccy6xxkH.s:661    .text:000000000000033c .LVL34
     /tmp/ccy6xxkH.s:671    .text:000000000000034c .LVL37
     /tmp/ccy6xxkH.s:591    .text:00000000000002d0 .LVL26
     /tmp/ccy6xxkH.s:664    .text:0000000000000340 .LVL35
     /tmp/ccy6xxkH.s:579    .text:00000000000002c8 .LVL24
     /tmp/ccy6xxkH.s:658    .text:0000000000000338 .LVL33
     /tmp/ccy6xxkH.s:680    .text:0000000000000358 .LVL39
     /tmp/ccy6xxkH.s:573    .text:00000000000002c4 .LVL23
     /tmp/ccy6xxkH.s:667    .text:0000000000000344 .LVL36
     /tmp/ccy6xxkH.s:655    .text:0000000000000334 .LVL32
     /tmp/ccy6xxkH.s:677    .text:0000000000000354 .LVL38
     /tmp/ccy6xxkH.s:634    .text:000000000000031c .LVL30
     /tmp/ccy6xxkH.s:528    .text:0000000000000290 .LVL21
     /tmp/ccy6xxkH.s:498    .text:0000000000000270 .LVL19
     /tmp/ccy6xxkH.s:446    .text:0000000000000228 .LVL16
     /tmp/ccy6xxkH.s:2068   .text:0000000000000a2c .LVL155
     /tmp/ccy6xxkH.s:2477   .text:0000000000000bf4 .LVL178
     /tmp/ccy6xxkH.s:2481   .text:0000000000000bfc .LVL179
     /tmp/ccy6xxkH.s:2304   .text:0000000000000b98 .LVL170
     /tmp/ccy6xxkH.s:2310   .text:0000000000000ba4 .LVL171
     /tmp/ccy6xxkH.s:2432   .text:0000000000000bd4 .LVL173
     /tmp/ccy6xxkH.s:2441   .text:0000000000000bd8 .LVL174
     /tmp/ccy6xxkH.s:2448   .text:0000000000000bdc .LVL175
     /tmp/ccy6xxkH.s:2457   .text:0000000000000be0 .LVL176
     /tmp/ccy6xxkH.s:2755   .text:0000000000000d5c .LVL207
     /tmp/ccy6xxkH.s:2673   .text:0000000000000cf0 .LVL200
     /tmp/ccy6xxkH.s:2683   .text:0000000000000cf8 .LVL201
     /tmp/ccy6xxkH.s:2716   .text:0000000000000d40 .LVL203
     /tmp/ccy6xxkH.s:2725   .text:0000000000000d44 .LVL204
     /tmp/ccy6xxkH.s:2732   .text:0000000000000d48 .LVL205
     /tmp/ccy6xxkH.s:2744   .text:0000000000000d50 .LVL206
     /tmp/ccy6xxkH.s:2809   .text:0000000000000d8c .LVL211
     /tmp/ccy6xxkH.s:2832   .text:0000000000000d9c .LVL213
     /tmp/ccy6xxkH.s:2842   .text:0000000000000dac .LVL214
     /tmp/ccy6xxkH.s:2865   .text:0000000000000dc4 .LVL216
     /tmp/ccy6xxkH.s:2861   .text:0000000000000dbc .LVL215
     /tmp/ccy6xxkH.s:2869   .text:0000000000000dcc .LVL217
     /tmp/ccy6xxkH.s:2910   .text:0000000000000df0 .LVL223
     /tmp/ccy6xxkH.s:2882   .text:0000000000000de0 .LVL220
     /tmp/ccy6xxkH.s:2891   .text:0000000000000de4 .LVL221
     /tmp/ccy6xxkH.s:2898   .text:0000000000000de8 .LVL222
     /tmp/ccy6xxkH.s:2937   .text:0000000000000e18 .LVL226
     /tmp/ccy6xxkH.s:2175   .text:0000000000000ac8 .LVL158
     /tmp/ccy6xxkH.s:2183   .text:0000000000000ad4 .LVL159
     /tmp/ccy6xxkH.s:2229   .text:0000000000000b40 .LVL165
     /tmp/ccy6xxkH.s:21     .text:000000000000000c .LVL0
     /tmp/ccy6xxkH.s:31     .text:0000000000000024 .LVL1
     /tmp/ccy6xxkH.s:75     .text:0000000000000050 .LVL3
     /tmp/ccy6xxkH.s:3806   .text:0000000000001380 .LVL307
     /tmp/ccy6xxkH.s:3813   .text:0000000000001384 .LVL308
     /tmp/ccy6xxkH.s:3829   .text:000000000000138c .LVL309
     /tmp/ccy6xxkH.s:3845   .text:0000000000001394 .LVL310
     /tmp/ccy6xxkH.s:3860   .text:0000000000001398 .LVL311
GAS LISTING /tmp/ccy6xxkH.s 			page 147


     /tmp/ccy6xxkH.s:3915   .debug_info:0000000000000000 .Ldebug_info0
     /tmp/ccy6xxkH.s:281    .text:000000000000015c .LBE97
     /tmp/ccy6xxkH.s:284    .text:000000000000015c .LBB107
     /tmp/ccy6xxkH.s:303    .text:0000000000000164 .LBE107
     /tmp/ccy6xxkH.s:305    .text:0000000000000164 .LBB108
     /tmp/ccy6xxkH.s:324    .text:000000000000016c .LBE108
     /tmp/ccy6xxkH.s:2835   .text:0000000000000da0 .LBB135
     /tmp/ccy6xxkH.s:2871   .text:0000000000000dcc .LBE135
     /tmp/ccy6xxkH.s:2915   .text:0000000000000df0 .LBB136
     /tmp/ccy6xxkH.s:2928   .text:0000000000000e0c .LBE136
     /tmp/ccy6xxkH.s:2249   .text:0000000000000b64 .LBB161
     /tmp/ccy6xxkH.s:2462   .text:0000000000000be0 .LBE161
     /tmp/ccy6xxkH.s:2485   .text:0000000000000bfc .LBB170
     /tmp/ccy6xxkH.s:2635   .text:0000000000000ce0 .LBE170
     /tmp/ccy6xxkH.s:3191   .text:0000000000000f44 .LBB176
     /tmp/ccy6xxkH.s:3199   .text:0000000000000f4c .LBE176
     /tmp/ccy6xxkH.s:3201   .text:0000000000000f4c .LBB180
     /tmp/ccy6xxkH.s:3280   .text:0000000000000fb8 .LBE180
     /tmp/ccy6xxkH.s:3833   .text:000000000000138c .LBE189
     /tmp/ccy6xxkH.s:3835   .text:000000000000138c .LBB196
     /tmp/ccy6xxkH.s:3849   .text:0000000000001394 .LBE196
     /tmp/ccy6xxkH.s:3851   .text:0000000000001394 .LBB197
     /tmp/ccy6xxkH.s:3864   .text:0000000000001398 .LBE197
     /tmp/ccy6xxkH.s:694    .gcc_except_table:0000000000000000 .LLSDA49
     /tmp/ccy6xxkH.s:864    .gcc_except_table:0000000000000038 .LLSDA50
     /tmp/ccy6xxkH.s:1146   .gcc_except_table:0000000000000063 .LLSDA54
     /tmp/ccy6xxkH.s:1959   .gcc_except_table:000000000000008e .LLSDA68

UNDEFINED SYMBOLS
_ZN3TCB7runningE
_Z11bodyWrapperPFvPvES_
_ZN3TCB8dispatchEv
_ZN11ConsoleUtil11pendingPutcE
_ZN11ConsoleUtil9putOutputEc
_ZN11ConsoleUtil11pendingGetcE
_ZN9Scheduler9readyHeadE
_ZN3TCB10putcThreadE
_ZN9Scheduler3putEP3TCB
_ZN11ConsoleUtil10outputHeadE
_ZN11ConsoleUtil10outputTailE
_ZN15MemoryAllocator7kmallocEm
_ZN15MemoryAllocator11initializedE
_ZN15MemoryAllocator5kfreeEPv
_ZN3TCBnwEm
_ZN3TCBC1EPFvPvES0_Pmm
_ZN3TCBdlEPv
_Unwind_Resume
__gxx_personality_v0
_ZN3SCBnwEm
_ZN3SCBC1Em
_ZN3SCBdlEPv
_ZN3SCBD1Ev
_ZN3SCB4waitEv
_ZN3SCB6signalEv
_ZN9Scheduler5sleepEP3TCB
_ZN11ConsoleUtil8getInputEv
_ZN11ConsoleUtil9getOutputEv
GAS LISTING /tmp/ccy6xxkH.s 			page 148


_Z5kfreePKv
_ZN3TCBD1Ev
_Z7kmallocm
_ZN15MemoryAllocator6memcpyEPvS0_m
_ZN3TCB9currentPCE
_ZN3TCB9currentSPE
_ZN11ConsoleUtil11printStringEPKc
_ZN11ConsoleUtil8printIntEiii
_ZN11ConsoleUtil5printEPKciS1_i
_ZN9Scheduler5awakeEv
_ZN3TCB16timeSliceCounterE
CONSOLE_STATUS
CONSOLE_TX_DATA
plic_claim
plic_complete
_ZN11ConsoleUtil8putInputEc
_ZN11ConsoleUtil15putcUtilSyscallEv
CONSOLE_RX_DATA
_ZN5Buddy5allocEm
_ZN5Buddy16BLOCKS_AVAILABLEE
_ZN5Buddy16BUDDY_START_ADDRE
kernelTextEnd
userTextStart
userDataStart
userDataEnd
HEAP_END_ADDR
_ZN5RiscV14supervisorTrapEv
HEAP_START_ADDR
_Z9kmem_initPvi
_ZN15MemoryAllocator10initializeEv
_ZN9Scheduler10initializeEv
_ZN3TCB10initializeEv
_ZN3SCB10initializeEv
_ZN11ConsoleUtil10initializeEv
