GAS LISTING /tmp/ccI3Gnq8.s 			page 1


   1              		.file	"riscv.cpp"
   2              		.option pic
   3              		.option norelax
   4              		.text
   5              	.Ltext0:
   6              		.align	2
   7              		.globl	_ZN5RiscV6getPMTEv
   9              	_ZN5RiscV6getPMTEv:
  10              	.LFB42:
  11              		.file 1 "src/kernel/riscv.cpp"
   1:src/kernel/riscv.cpp **** //
   2:src/kernel/riscv.cpp **** // Created by os on 4/28/22.
   3:src/kernel/riscv.cpp **** //
   4:src/kernel/riscv.cpp **** 
   5:src/kernel/riscv.cpp **** #include "../../h/riscv.hpp"
   6:src/kernel/riscv.cpp **** #include "../../h/memoryAllocator.hpp"
   7:src/kernel/riscv.cpp **** #include "../../h/tcb.hpp"
   8:src/kernel/riscv.cpp **** #include "../../h/scheduler.hpp"
   9:src/kernel/riscv.cpp **** #include "../../h/printing.hpp"
  10:src/kernel/riscv.cpp **** #include "../../h/scb.hpp"
  11:src/kernel/riscv.cpp **** #include "../../h/tcbWrapperUtil.hpp"
  12:src/kernel/riscv.cpp **** 
  13:src/kernel/riscv.cpp **** uint64 RiscV::globalTime = 0;
  14:src/kernel/riscv.cpp **** bool RiscV::userMainFinished = false;
  15:src/kernel/riscv.cpp **** void* RiscV::kPMT = nullptr;
  16:src/kernel/riscv.cpp **** void* RiscV::uPMT = nullptr;
  17:src/kernel/riscv.cpp **** extern char *userTextStart;
  18:src/kernel/riscv.cpp **** extern char *userDataStart;
  19:src/kernel/riscv.cpp **** extern char *userDataEnd;
  20:src/kernel/riscv.cpp **** extern char *kernelTextEnd;
  21:src/kernel/riscv.cpp **** 
  22:src/kernel/riscv.cpp **** void* RiscV::getPMT(){
  12              		.loc 1 22 22
  13              		.cfi_startproc
  14 0000 130101FF 		addi	sp,sp,-16
  15              		.cfi_def_cfa_offset 16
  16 0004 23341100 		sd	ra,8(sp)
  17 0008 23308100 		sd	s0,0(sp)
  18              		.cfi_offset 1, -8
  19              		.cfi_offset 8, -16
  20 000c 13040101 		addi	s0,sp,16
  21              		.cfi_def_cfa 8, 0
  23:src/kernel/riscv.cpp ****     void* ret = Buddy::alloc(1);
  22              		.loc 1 23 5
  23              		.loc 1 23 29 is_stmt 0
  24 0010 13051000 		li	a0,1
  25 0014 97000000 		call	_ZN5Buddy5allocEm@plt
  25      E7800000 
  26              	.LVL0:
  24:src/kernel/riscv.cpp ****     uint64* arr = (uint64*)ret;
  27              		.loc 1 24 5 is_stmt 1
  25:src/kernel/riscv.cpp ****     for(int i=0;i<512;i++)
  28              		.loc 1 25 5
  29              	.LBB98:
  30              		.loc 1 25 13 is_stmt 0
  31 001c 93070000 		li	a5,0
  32              	.LVL1:
GAS LISTING /tmp/ccI3Gnq8.s 			page 2


  33              	.L3:
  34              		.loc 1 25 18 is_stmt 1 discriminator 3
  35 0020 1307F01F 		li	a4,511
  36 0024 634CF700 		bgt	a5,a4,.L1
  26:src/kernel/riscv.cpp ****         arr[i] = 0;
  37              		.loc 1 26 9 discriminator 2
  38              		.loc 1 26 14 is_stmt 0 discriminator 2
  39 0028 13973700 		slli	a4,a5,3
  40 002c 3307E500 		add	a4,a0,a4
  41              		.loc 1 26 16 discriminator 2
  42 0030 23300700 		sd	zero,0(a4)
  25:src/kernel/riscv.cpp ****     for(int i=0;i<512;i++)
  43              		.loc 1 25 5 is_stmt 1 discriminator 2
  44 0034 9B871700 		addiw	a5,a5,1
  45              	.LVL2:
  46 0038 6FF09FFE 		j	.L3
  47              	.LVL3:
  48              	.L1:
  49              	.LBE98:
  27:src/kernel/riscv.cpp ****     return ret;
  28:src/kernel/riscv.cpp **** }
  50              		.loc 1 28 1 is_stmt 0
  51 003c 83308100 		ld	ra,8(sp)
  52              		.cfi_restore 1
  53 0040 03340100 		ld	s0,0(sp)
  54              		.cfi_restore 8
  55              		.cfi_def_cfa 2, 16
  56 0044 13010101 		addi	sp,sp,16
  57              		.cfi_def_cfa_offset 0
  58 0048 67800000 		jr	ra
  59              		.cfi_endproc
  60              	.LFE42:
  62              		.align	2
  63              		.globl	_ZN5RiscV15handlePageFaultEPvmm
  65              	_ZN5RiscV15handlePageFaultEPvmm:
  66              	.LFB43:
  29:src/kernel/riscv.cpp **** 
  30:src/kernel/riscv.cpp **** void RiscV::handlePageFault(void* PMT, uint64 addr, uint64 mask){
  67              		.loc 1 30 65 is_stmt 1
  68              		.cfi_startproc
  69              	.LVL4:
  70 004c 130101FC 		addi	sp,sp,-64
  71              		.cfi_def_cfa_offset 64
  72 0050 233C1102 		sd	ra,56(sp)
  73 0054 23388102 		sd	s0,48(sp)
  74 0058 23349102 		sd	s1,40(sp)
  75 005c 23302103 		sd	s2,32(sp)
  76 0060 233C3101 		sd	s3,24(sp)
  77 0064 23384101 		sd	s4,16(sp)
  78 0068 23345101 		sd	s5,8(sp)
  79              		.cfi_offset 1, -8
  80              		.cfi_offset 8, -16
  81              		.cfi_offset 9, -24
  82              		.cfi_offset 18, -32
  83              		.cfi_offset 19, -40
  84              		.cfi_offset 20, -48
  85              		.cfi_offset 21, -56
GAS LISTING /tmp/ccI3Gnq8.s 			page 3


  86 006c 13040104 		addi	s0,sp,64
  87              		.cfi_def_cfa 8, 0
  88 0070 93090600 		mv	s3,a2
  31:src/kernel/riscv.cpp ****     uint64 pmt2Entry = (addr >> 30) & (0x1ff);;
  89              		.loc 1 31 5
  90              		.loc 1 31 30 is_stmt 0
  91 0074 93D7E501 		srli	a5,a1,30
  92              		.loc 1 31 12
  93 0078 93F7F71F 		andi	a5,a5,511
  94              	.LVL5:
  95              		.loc 1 31 47 is_stmt 1
  32:src/kernel/riscv.cpp ****     uint64 pmt1Entry = (addr >> 21) & (0x1ff);
  96              		.loc 1 32 5
  97              		.loc 1 32 30 is_stmt 0
  98 007c 13D95501 		srli	s2,a1,21
  99              		.loc 1 32 12
 100 0080 1379F91F 		andi	s2,s2,511
 101              	.LVL6:
  33:src/kernel/riscv.cpp ****     uint64 pmt0Entry = (addr >> 12) & (0x1ff);
 102              		.loc 1 33 5 is_stmt 1
 103              		.loc 1 33 30 is_stmt 0
 104 0084 93D4C500 		srli	s1,a1,12
 105              		.loc 1 33 12
 106 0088 13FAF41F 		andi	s4,s1,511
 107              	.LVL7:
  34:src/kernel/riscv.cpp ****     uint64 pmt2Desc = ((uint64*)PMT)[pmt2Entry];
 108              		.loc 1 34 5 is_stmt 1
 109              		.loc 1 34 47 is_stmt 0
 110 008c 93973700 		slli	a5,a5,3
 111              	.LVL8:
 112 0090 B30AF500 		add	s5,a0,a5
 113              		.loc 1 34 12
 114 0094 83B70A00 		ld	a5,0(s5)
 115              	.LVL9:
  35:src/kernel/riscv.cpp ****     void* pmt1 = nullptr;
 116              		.loc 1 35 5 is_stmt 1
  36:src/kernel/riscv.cpp ****     if(pmt2Desc == 0){
 117              		.loc 1 36 5
 118 0098 63820706 		beqz	a5,.L12
  37:src/kernel/riscv.cpp ****         pmt1 = RiscV::getPMT();
  38:src/kernel/riscv.cpp ****         ((uint64*)PMT)[pmt2Entry] = (((uint64)pmt1 >> 12) << 10) | (uint64)1;
  39:src/kernel/riscv.cpp ****     }
  40:src/kernel/riscv.cpp ****     else
  41:src/kernel/riscv.cpp ****         pmt1 = (void*)((pmt2Desc >> 10) << 12);
 119              		.loc 1 41 9
 120              		.loc 1 41 34 is_stmt 0
 121 009c 13D5A700 		srli	a0,a5,10
 122              	.LVL10:
 123              		.loc 1 41 41
 124 00a0 1315C500 		slli	a0,a0,12
 125              	.LVL11:
 126              	.L7:
  42:src/kernel/riscv.cpp ****     uint64 pmt1Desc = ((uint64*)pmt1)[pmt1Entry];
 127              		.loc 1 42 5 is_stmt 1
 128              		.loc 1 42 48 is_stmt 0
 129 00a4 13193900 		slli	s2,s2,3
 130              	.LVL12:
GAS LISTING /tmp/ccI3Gnq8.s 			page 4


 131 00a8 33092501 		add	s2,a0,s2
 132              		.loc 1 42 12
 133 00ac 03350900 		ld	a0,0(s2)
 134              	.LVL13:
  43:src/kernel/riscv.cpp ****     void* pmt0 = nullptr;
 135              		.loc 1 43 5 is_stmt 1
  44:src/kernel/riscv.cpp ****     if(pmt1Desc == 0){
 136              		.loc 1 44 5
 137 00b0 63040506 		beqz	a0,.L13
  45:src/kernel/riscv.cpp ****         pmt0 = RiscV::getPMT();
  46:src/kernel/riscv.cpp ****         ((uint64*)pmt1)[pmt1Entry] = (((uint64)pmt0 >> 12) << 10) | (uint64)1;
  47:src/kernel/riscv.cpp ****     }
  48:src/kernel/riscv.cpp ****     else
  49:src/kernel/riscv.cpp ****         pmt0 = (void*)((pmt1Desc >> 10) << 12);
 138              		.loc 1 49 9
 139              		.loc 1 49 34 is_stmt 0
 140 00b4 1355A500 		srli	a0,a0,10
 141              	.LVL14:
 142              		.loc 1 49 41
 143 00b8 1315C500 		slli	a0,a0,12
 144              	.LVL15:
 145              	.L9:
  50:src/kernel/riscv.cpp ****     uint64 pmt0Desc = ((uint64*)pmt0)[pmt0Entry];
 146              		.loc 1 50 5 is_stmt 1
 147              		.loc 1 50 48 is_stmt 0
 148 00bc 131A3A00 		slli	s4,s4,3
 149              	.LVL16:
 150 00c0 33054501 		add	a0,a0,s4
 151              	.LVL17:
 152              		.loc 1 50 12
 153 00c4 83370500 		ld	a5,0(a0)
 154              	.LVL18:
  51:src/kernel/riscv.cpp ****     if(pmt0Desc == 0) {
 155              		.loc 1 51 5 is_stmt 1
 156 00c8 63980700 		bnez	a5,.L5
  52:src/kernel/riscv.cpp ****         ((uint64 *) pmt0)[pmt0Entry] = ((addr >> 12) << 10) | mask;
 157              		.loc 1 52 9
 158              		.loc 1 52 54 is_stmt 0
 159 00cc 9394A400 		slli	s1,s1,10
 160              	.LVL19:
 161              		.loc 1 52 61
 162 00d0 B3E93401 		or	s3,s1,s3
 163              	.LVL20:
 164              		.loc 1 52 38
 165 00d4 23303501 		sd	s3,0(a0)
 166              	.L5:
  53:src/kernel/riscv.cpp ****     }
  54:src/kernel/riscv.cpp **** }
 167              		.loc 1 54 1
 168 00d8 83308103 		ld	ra,56(sp)
 169              		.cfi_remember_state
 170              		.cfi_restore 1
 171 00dc 03340103 		ld	s0,48(sp)
 172              		.cfi_restore 8
 173              		.cfi_def_cfa 2, 64
 174 00e0 83348102 		ld	s1,40(sp)
 175              		.cfi_restore 9
GAS LISTING /tmp/ccI3Gnq8.s 			page 5


 176 00e4 03390102 		ld	s2,32(sp)
 177              		.cfi_restore 18
 178 00e8 83398101 		ld	s3,24(sp)
 179              		.cfi_restore 19
 180 00ec 033A0101 		ld	s4,16(sp)
 181              		.cfi_restore 20
 182 00f0 833A8100 		ld	s5,8(sp)
 183              		.cfi_restore 21
 184 00f4 13010104 		addi	sp,sp,64
 185              		.cfi_def_cfa_offset 0
 186 00f8 67800000 		jr	ra
 187              	.LVL21:
 188              	.L12:
 189              		.cfi_restore_state
  37:src/kernel/riscv.cpp ****         ((uint64*)PMT)[pmt2Entry] = (((uint64)pmt1 >> 12) << 10) | (uint64)1;
 190              		.loc 1 37 9 is_stmt 1
  37:src/kernel/riscv.cpp ****         ((uint64*)PMT)[pmt2Entry] = (((uint64)pmt1 >> 12) << 10) | (uint64)1;
 191              		.loc 1 37 29 is_stmt 0
 192 00fc 97000000 		call	_ZN5RiscV6getPMTEv
 192      E7800000 
 193              	.LVL22:
  38:src/kernel/riscv.cpp ****     }
 194              		.loc 1 38 9 is_stmt 1
  38:src/kernel/riscv.cpp ****     }
 195              		.loc 1 38 52 is_stmt 0
 196 0104 9357C500 		srli	a5,a0,12
  38:src/kernel/riscv.cpp ****     }
 197              		.loc 1 38 59
 198 0108 9397A700 		slli	a5,a5,10
  38:src/kernel/riscv.cpp ****     }
 199              		.loc 1 38 66
 200 010c 93E71700 		ori	a5,a5,1
  38:src/kernel/riscv.cpp ****     }
 201              		.loc 1 38 35
 202 0110 23B0FA00 		sd	a5,0(s5)
 203 0114 6FF01FF9 		j	.L7
 204              	.LVL23:
 205              	.L13:
  45:src/kernel/riscv.cpp ****         ((uint64*)pmt1)[pmt1Entry] = (((uint64)pmt0 >> 12) << 10) | (uint64)1;
 206              		.loc 1 45 9 is_stmt 1
  45:src/kernel/riscv.cpp ****         ((uint64*)pmt1)[pmt1Entry] = (((uint64)pmt0 >> 12) << 10) | (uint64)1;
 207              		.loc 1 45 29 is_stmt 0
 208 0118 97000000 		call	_ZN5RiscV6getPMTEv
 208      E7800000 
 209              	.LVL24:
  46:src/kernel/riscv.cpp ****     }
 210              		.loc 1 46 9 is_stmt 1
  46:src/kernel/riscv.cpp ****     }
 211              		.loc 1 46 53 is_stmt 0
 212 0120 9357C500 		srli	a5,a0,12
  46:src/kernel/riscv.cpp ****     }
 213              		.loc 1 46 60
 214 0124 9397A700 		slli	a5,a5,10
  46:src/kernel/riscv.cpp ****     }
 215              		.loc 1 46 67
 216 0128 93E71700 		ori	a5,a5,1
  46:src/kernel/riscv.cpp ****     }
GAS LISTING /tmp/ccI3Gnq8.s 			page 6


 217              		.loc 1 46 36
 218 012c 2330F900 		sd	a5,0(s2)
 219 0130 6FF0DFF8 		j	.L9
 220              		.cfi_endproc
 221              	.LFE43:
 223              		.align	2
 224              		.globl	_ZN5RiscV10initializeEv
 226              	_ZN5RiscV10initializeEv:
 227              	.LFB44:
  55:src/kernel/riscv.cpp **** //initailize each of the key components and switch to user mode for user code execution
  56:src/kernel/riscv.cpp **** void RiscV::initialize(){
 228              		.loc 1 56 25 is_stmt 1
 229              		.cfi_startproc
 230 0134 130101FB 		addi	sp,sp,-80
 231              		.cfi_def_cfa_offset 80
 232 0138 23341104 		sd	ra,72(sp)
 233 013c 23308104 		sd	s0,64(sp)
 234 0140 233C9102 		sd	s1,56(sp)
 235 0144 23382103 		sd	s2,48(sp)
 236 0148 23343103 		sd	s3,40(sp)
 237 014c 23304103 		sd	s4,32(sp)
 238 0150 233C5101 		sd	s5,24(sp)
 239 0154 23386101 		sd	s6,16(sp)
 240 0158 23347101 		sd	s7,8(sp)
 241 015c 23308101 		sd	s8,0(sp)
 242              		.cfi_offset 1, -8
 243              		.cfi_offset 8, -16
 244              		.cfi_offset 9, -24
 245              		.cfi_offset 18, -32
 246              		.cfi_offset 19, -40
 247              		.cfi_offset 20, -48
 248              		.cfi_offset 21, -56
 249              		.cfi_offset 22, -64
 250              		.cfi_offset 23, -72
 251              		.cfi_offset 24, -80
 252 0160 13040105 		addi	s0,sp,80
 253              		.cfi_def_cfa 8, 0
  57:src/kernel/riscv.cpp ****     RiscV::w_stvec((uint64) &RiscV::supervisorTrap);
 254              		.loc 1 57 5
 255              		.loc 1 57 19 is_stmt 0
 256 0164 97070000 		la	a5,_ZN5RiscV14supervisorTrapEv
 256      83B70700 
 257              	.LVL25:
 258              	.LBB99:
 259              	.LBB100:
 260              		.file 2 "src/kernel/../../h/riscv.hpp"
   1:src/kernel/../../h/riscv.hpp **** //
   2:src/kernel/../../h/riscv.hpp **** // Created by os on 4/28/22.
   3:src/kernel/../../h/riscv.hpp **** //
   4:src/kernel/../../h/riscv.hpp **** 
   5:src/kernel/../../h/riscv.hpp **** #ifndef OS1_KERNEL_RISCV_HPP
   6:src/kernel/../../h/riscv.hpp **** #define OS1_KERNEL_RISCV_HPP
   7:src/kernel/../../h/riscv.hpp **** #include "../lib/hw.h"
   8:src/kernel/../../h/riscv.hpp **** class TCB;
   9:src/kernel/../../h/riscv.hpp **** 
  10:src/kernel/../../h/riscv.hpp **** class RiscV{
  11:src/kernel/../../h/riscv.hpp **** 
GAS LISTING /tmp/ccI3Gnq8.s 			page 7


  12:src/kernel/../../h/riscv.hpp ****     static uint64 globalTime;
  13:src/kernel/../../h/riscv.hpp **** 
  14:src/kernel/../../h/riscv.hpp ****     static void* kPMT;
  15:src/kernel/../../h/riscv.hpp ****     static void* uPMT;
  16:src/kernel/../../h/riscv.hpp **** 
  17:src/kernel/../../h/riscv.hpp ****     static bool userMainFinished;
  18:src/kernel/../../h/riscv.hpp **** 
  19:src/kernel/../../h/riscv.hpp ****     enum BitMaskSstatus{
  20:src/kernel/../../h/riscv.hpp ****         SSTATUS_SIE = (1<<1),
  21:src/kernel/../../h/riscv.hpp ****         SSTATUS_SPIE = (1<<5),
  22:src/kernel/../../h/riscv.hpp ****         SSTATUS_SPP = (1<<8),
  23:src/kernel/../../h/riscv.hpp ****     };
  24:src/kernel/../../h/riscv.hpp **** 
  25:src/kernel/../../h/riscv.hpp ****     enum BitMaskSip{
  26:src/kernel/../../h/riscv.hpp ****         SIP_SSIE = (1<<1),
  27:src/kernel/../../h/riscv.hpp ****         SIP_STIE = (1<<5),
  28:src/kernel/../../h/riscv.hpp ****         SIP_SEIE = (1<<9),
  29:src/kernel/../../h/riscv.hpp ****     };
  30:src/kernel/../../h/riscv.hpp **** 
  31:src/kernel/../../h/riscv.hpp ****     static void executeMemAllocSyscall();   //wrapper function for moving parameters and calling Me
  32:src/kernel/../../h/riscv.hpp **** 
  33:src/kernel/../../h/riscv.hpp ****     static void executeMemFreeSyscall();    //wrapper function for moving parameters and calling Me
  34:src/kernel/../../h/riscv.hpp **** 
  35:src/kernel/../../h/riscv.hpp ****     static void executeThreadCreateSyscall();
  36:src/kernel/../../h/riscv.hpp **** 
  37:src/kernel/../../h/riscv.hpp ****     static void executeThreadExitSyscall();
  38:src/kernel/../../h/riscv.hpp **** 
  39:src/kernel/../../h/riscv.hpp ****     static void executeThreadDispatchSyscall();
  40:src/kernel/../../h/riscv.hpp **** 
  41:src/kernel/../../h/riscv.hpp ****     static void executeThreadAttachBodySyscall();
  42:src/kernel/../../h/riscv.hpp **** 
  43:src/kernel/../../h/riscv.hpp ****     static void executeThreadStartSyscall();
  44:src/kernel/../../h/riscv.hpp **** 
  45:src/kernel/../../h/riscv.hpp ****     static void executeSemOpenSyscall();
  46:src/kernel/../../h/riscv.hpp **** 
  47:src/kernel/../../h/riscv.hpp ****     static void executeSemCloseSyscall();
  48:src/kernel/../../h/riscv.hpp **** 
  49:src/kernel/../../h/riscv.hpp ****     static void executeSemWaitSyscall();
  50:src/kernel/../../h/riscv.hpp **** 
  51:src/kernel/../../h/riscv.hpp ****     static void executeSemSignalSyscall();
  52:src/kernel/../../h/riscv.hpp **** 
  53:src/kernel/../../h/riscv.hpp ****     static void executeTimeSleepSyscall();
  54:src/kernel/../../h/riscv.hpp **** 
  55:src/kernel/../../h/riscv.hpp ****     static void executeGetcSyscall();
  56:src/kernel/../../h/riscv.hpp **** 
  57:src/kernel/../../h/riscv.hpp ****     static void executePutcSyscall();
  58:src/kernel/../../h/riscv.hpp **** 
  59:src/kernel/../../h/riscv.hpp ****     static void executePutcUtilSyscall();
  60:src/kernel/../../h/riscv.hpp **** 
  61:src/kernel/../../h/riscv.hpp ****     static void executeThreadFreeSyscall();
  62:src/kernel/../../h/riscv.hpp **** 
  63:src/kernel/../../h/riscv.hpp ****     static void executeSemaphoreFreeSyscall();
  64:src/kernel/../../h/riscv.hpp **** 
  65:src/kernel/../../h/riscv.hpp ****     static void executeForkSyscall();
  66:src/kernel/../../h/riscv.hpp **** 
  67:src/kernel/../../h/riscv.hpp ****     static void putcWrapper(void *arg);
  68:src/kernel/../../h/riscv.hpp **** 
GAS LISTING /tmp/ccI3Gnq8.s 			page 8


  69:src/kernel/../../h/riscv.hpp ****     static void threadCreateUtil(TCB** handle, void(*start_routine)(void*), void *arg);
  70:src/kernel/../../h/riscv.hpp **** 
  71:src/kernel/../../h/riscv.hpp ****     static void threadExitUtil();
  72:src/kernel/../../h/riscv.hpp **** 
  73:src/kernel/../../h/riscv.hpp ****     static void threadDispatchUtil();
  74:src/kernel/../../h/riscv.hpp **** 
  75:src/kernel/../../h/riscv.hpp ****     static uint64 r_scause();
  76:src/kernel/../../h/riscv.hpp **** 
  77:src/kernel/../../h/riscv.hpp ****     static void w_scause(uint64 scause);
  78:src/kernel/../../h/riscv.hpp **** 
  79:src/kernel/../../h/riscv.hpp ****     static uint64 r_sepc();
  80:src/kernel/../../h/riscv.hpp **** 
  81:src/kernel/../../h/riscv.hpp ****     static void w_sepc(uint64 sepc);
  82:src/kernel/../../h/riscv.hpp **** 
  83:src/kernel/../../h/riscv.hpp ****     static uint64 r_stvec();
  84:src/kernel/../../h/riscv.hpp **** 
  85:src/kernel/../../h/riscv.hpp ****     static void w_stvec(uint64 stvec);
  86:src/kernel/../../h/riscv.hpp **** 
  87:src/kernel/../../h/riscv.hpp ****     static uint64 r_sstatus();
  88:src/kernel/../../h/riscv.hpp **** 
  89:src/kernel/../../h/riscv.hpp ****     static void w_sstatus(uint64 sstatus);
  90:src/kernel/../../h/riscv.hpp **** 
  91:src/kernel/../../h/riscv.hpp ****     static void ms_sstatus(uint64 mask);
  92:src/kernel/../../h/riscv.hpp **** 
  93:src/kernel/../../h/riscv.hpp ****     static void mc_sstatus(uint64 mask);
  94:src/kernel/../../h/riscv.hpp **** 
  95:src/kernel/../../h/riscv.hpp ****     static void ms_sip(uint64 mask);
  96:src/kernel/../../h/riscv.hpp **** 
  97:src/kernel/../../h/riscv.hpp ****     static void mc_sip(uint64 mask);
  98:src/kernel/../../h/riscv.hpp **** 
  99:src/kernel/../../h/riscv.hpp ****     static void ms_sie(uint64 mask);
 100:src/kernel/../../h/riscv.hpp **** 
 101:src/kernel/../../h/riscv.hpp ****     static void mc_sie(uint64 mask);
 102:src/kernel/../../h/riscv.hpp **** 
 103:src/kernel/../../h/riscv.hpp ****     static void saveA0toSscratch();
 104:src/kernel/../../h/riscv.hpp **** 
 105:src/kernel/../../h/riscv.hpp ****     static void jumpToDesignatedPrivilegeMode();
 106:src/kernel/../../h/riscv.hpp **** 
 107:src/kernel/../../h/riscv.hpp ****     static void popSppSpie();
 108:src/kernel/../../h/riscv.hpp **** 
 109:src/kernel/../../h/riscv.hpp ****     static void popSppSpie2();
 110:src/kernel/../../h/riscv.hpp **** 
 111:src/kernel/../../h/riscv.hpp ****     static void getPC();
 112:src/kernel/../../h/riscv.hpp **** 
 113:src/kernel/../../h/riscv.hpp ****     static void supervisorTrap();      //supervisorTrap defined in /src/supervisorTrap.S
 114:src/kernel/../../h/riscv.hpp **** 
 115:src/kernel/../../h/riscv.hpp ****     static void handleSupervisorTrap();
 116:src/kernel/../../h/riscv.hpp **** 
 117:src/kernel/../../h/riscv.hpp ****     static void enableInterrupts();
 118:src/kernel/../../h/riscv.hpp **** 
 119:src/kernel/../../h/riscv.hpp ****     static void disableInterrupts();
 120:src/kernel/../../h/riscv.hpp **** 
 121:src/kernel/../../h/riscv.hpp ****     static void enableHardwareInterrupts();
 122:src/kernel/../../h/riscv.hpp **** 
 123:src/kernel/../../h/riscv.hpp ****     static void disableHardwareInterrupts();
 124:src/kernel/../../h/riscv.hpp **** 
 125:src/kernel/../../h/riscv.hpp ****     static void enableTimerInterrupts();
GAS LISTING /tmp/ccI3Gnq8.s 			page 9


 126:src/kernel/../../h/riscv.hpp **** 
 127:src/kernel/../../h/riscv.hpp ****     static void disableTimerInterrupts();
 128:src/kernel/../../h/riscv.hpp **** 
 129:src/kernel/../../h/riscv.hpp ****     static void handlePageFault(void* PMT,uint64 addr, uint64 mask);
 130:src/kernel/../../h/riscv.hpp **** 
 131:src/kernel/../../h/riscv.hpp ****     static void initialize();
 132:src/kernel/../../h/riscv.hpp **** 
 133:src/kernel/../../h/riscv.hpp ****     static void finalize();
 134:src/kernel/../../h/riscv.hpp **** 
 135:src/kernel/../../h/riscv.hpp ****     static void* getPMT();
 136:src/kernel/../../h/riscv.hpp **** 
 137:src/kernel/../../h/riscv.hpp ****     friend class TCB;
 138:src/kernel/../../h/riscv.hpp **** 
 139:src/kernel/../../h/riscv.hpp ****     friend class System;
 140:src/kernel/../../h/riscv.hpp **** 
 141:src/kernel/../../h/riscv.hpp ****     friend class Scheduler;
 142:src/kernel/../../h/riscv.hpp **** 
 143:src/kernel/../../h/riscv.hpp ****     friend class ConsoleUtil;
 144:src/kernel/../../h/riscv.hpp **** };
 145:src/kernel/../../h/riscv.hpp **** 
 146:src/kernel/../../h/riscv.hpp **** inline uint64 RiscV::r_scause(){
 147:src/kernel/../../h/riscv.hpp ****     uint64 volatile scause;
 148:src/kernel/../../h/riscv.hpp ****     asm("csrr %[scause], scause" : [scause] "=r" (scause));
 149:src/kernel/../../h/riscv.hpp ****     return scause;
 150:src/kernel/../../h/riscv.hpp **** }
 151:src/kernel/../../h/riscv.hpp **** 
 152:src/kernel/../../h/riscv.hpp **** inline void RiscV::w_scause(uint64 scause){
 153:src/kernel/../../h/riscv.hpp ****     asm("csrw scause, %[scause]" : : [scause] "r" (scause));
 154:src/kernel/../../h/riscv.hpp **** }
 155:src/kernel/../../h/riscv.hpp **** 
 156:src/kernel/../../h/riscv.hpp **** inline uint64 RiscV::r_sepc(){
 157:src/kernel/../../h/riscv.hpp ****     uint64 sepc;
 158:src/kernel/../../h/riscv.hpp ****     asm("csrr %[sepc], sepc" : [sepc] "=r" (sepc));
 159:src/kernel/../../h/riscv.hpp ****     return sepc;
 160:src/kernel/../../h/riscv.hpp **** }
 161:src/kernel/../../h/riscv.hpp **** 
 162:src/kernel/../../h/riscv.hpp **** inline void RiscV::w_sepc(uint64 sepc){
 163:src/kernel/../../h/riscv.hpp ****     asm("csrw sepc, %[sepc]" : : [sepc] "r" (sepc));
 164:src/kernel/../../h/riscv.hpp **** }
 165:src/kernel/../../h/riscv.hpp **** 
 166:src/kernel/../../h/riscv.hpp **** inline uint64 RiscV::r_stvec(){
 167:src/kernel/../../h/riscv.hpp ****     uint64 stvec;
 168:src/kernel/../../h/riscv.hpp ****     asm("csrr %[stvec], stvec" : [stvec] "=r" (stvec));
 169:src/kernel/../../h/riscv.hpp ****     return stvec;
 170:src/kernel/../../h/riscv.hpp **** }
 171:src/kernel/../../h/riscv.hpp **** 
 172:src/kernel/../../h/riscv.hpp **** inline void RiscV::w_sstatus(uint64 sstatus){
 173:src/kernel/../../h/riscv.hpp ****     asm("csrw sstatus, %[sstatus]" : : [sstatus] "r" (sstatus));
 174:src/kernel/../../h/riscv.hpp **** }
 175:src/kernel/../../h/riscv.hpp **** 
 176:src/kernel/../../h/riscv.hpp **** inline uint64 RiscV::r_sstatus(){
 177:src/kernel/../../h/riscv.hpp ****     uint64 sstatus;
 178:src/kernel/../../h/riscv.hpp ****     asm("csrr %[sstatus], sstatus" : [sstatus] "=r" (sstatus));
 179:src/kernel/../../h/riscv.hpp ****     return sstatus;
 180:src/kernel/../../h/riscv.hpp **** }
 181:src/kernel/../../h/riscv.hpp **** 
 182:src/kernel/../../h/riscv.hpp **** inline void RiscV::w_stvec(uint64 stvec){
GAS LISTING /tmp/ccI3Gnq8.s 			page 10


 183:src/kernel/../../h/riscv.hpp ****     asm("csrw stvec, %[stvec]" : : [stvec] "r" (stvec));
 261              		.loc 2 183 5 is_stmt 1
 262              		.loc 2 183 56 is_stmt 0
 263              	#APP
 264              	# 183 "src/kernel/../../h/riscv.hpp" 1
 184              	}
 265              		csrw stvec, a5
 266              	# 0 "" 2
 267              	.LVL26:
 268              	#NO_APP
 269              	.LBE100:
 270              	.LBE99:
  58:src/kernel/riscv.cpp ****     kmem_init(BUDDY_START_ADDR_CONST, 4096);
 271              		.loc 1 58 5 is_stmt 1
 272              		.loc 1 58 15 is_stmt 0
 273 0170 97040000 		la	s1,HEAP_START_ADDR
 273      83B40400 
 274 0178 03B50400 		ld	a0,0(s1)
 275 017c 1355C500 		srli	a0,a0,12
 276 0180 13052500 		addi	a0,a0,2
 277              		.loc 1 58 14
 278 0184 B7150000 		li	a1,4096
 279 0188 1315C500 		slli	a0,a0,12
 280 018c 97000000 		call	_Z9kmem_initPvi@plt
 280      E7800000 
 281              	.LVL27:
  59:src/kernel/riscv.cpp ****     MemoryAllocator::initialize();
 282              		.loc 1 59 5 is_stmt 1
 283              		.loc 1 59 32 is_stmt 0
 284 0194 97000000 		call	_ZN15MemoryAllocator10initializeEv@plt
 284      E7800000 
 285              	.LVL28:
  60:src/kernel/riscv.cpp ****     Scheduler::initialize();
 286              		.loc 1 60 5 is_stmt 1
 287              		.loc 1 60 26 is_stmt 0
 288 019c 97000000 		call	_ZN9Scheduler10initializeEv@plt
 288      E7800000 
 289              	.LVL29:
  61:src/kernel/riscv.cpp ****     TCB::initialize();
 290              		.loc 1 61 5 is_stmt 1
 291              		.loc 1 61 20 is_stmt 0
 292 01a4 97000000 		call	_ZN3TCB10initializeEv@plt
 292      E7800000 
 293              	.LVL30:
  62:src/kernel/riscv.cpp ****     SCB::initialize();
 294              		.loc 1 62 5 is_stmt 1
 295              		.loc 1 62 20 is_stmt 0
 296 01ac 97000000 		call	_ZN3SCB10initializeEv@plt
 296      E7800000 
 297              	.LVL31:
  63:src/kernel/riscv.cpp ****     ConsoleUtil::initialize();
 298              		.loc 1 63 5 is_stmt 1
 299              		.loc 1 63 28 is_stmt 0
 300 01b4 97000000 		call	_ZN11ConsoleUtil10initializeEv@plt
 300      E7800000 
 301              	.LVL32:
  64:src/kernel/riscv.cpp ****     RiscV::kPMT = RiscV::getPMT();
GAS LISTING /tmp/ccI3Gnq8.s 			page 11


 302              		.loc 1 64 5 is_stmt 1
 303              		.loc 1 64 32 is_stmt 0
 304 01bc 97000000 		call	_ZN5RiscV6getPMTEv
 304      E7800000 
 305              	.LVL33:
 306              		.loc 1 64 17
 307 01c4 97070000 		sd	a0,.LANCHOR0,a5
 307      23B0A700 
  65:src/kernel/riscv.cpp ****     uint64 kTextEnd = ((uint64)(&kernelTextEnd));
 308              		.loc 1 65 5 is_stmt 1
 309              		.loc 1 65 12 is_stmt 0
 310 01cc 170B0000 		la	s6,kernelTextEnd
 310      033B0B00 
 311              	.LVL34:
  66:src/kernel/riscv.cpp ****     uint64 uTextStart = ((uint64)(&userTextStart));
 312              		.loc 1 66 5 is_stmt 1
 313              		.loc 1 66 12 is_stmt 0
 314 01d4 970A0000 		la	s5,userTextStart
 314      83BA0A00 
 315              	.LVL35:
  67:src/kernel/riscv.cpp ****     uint64 uDataStart = ((uint64)(&userDataStart));
 316              		.loc 1 67 5 is_stmt 1
 317              		.loc 1 67 12 is_stmt 0
 318 01dc 170A0000 		la	s4,userDataStart
 318      033A0A00 
 319              	.LVL36:
  68:src/kernel/riscv.cpp ****     uint64 uDataEnd = ((uint64)(&userDataEnd));
 320              		.loc 1 68 5 is_stmt 1
 321              		.loc 1 68 12 is_stmt 0
 322 01e4 97090000 		la	s3,userDataEnd
 322      83B90900 
 323              	.LVL37:
  69:src/kernel/riscv.cpp ****     uint64 hStart = ((uint64)HEAP_START_ADDR);
 324              		.loc 1 69 5 is_stmt 1
 325              		.loc 1 69 12 is_stmt 0
 326 01ec 03B90400 		ld	s2,0(s1)
 327              	.LVL38:
  70:src/kernel/riscv.cpp ****     uint64 hEnd = ((uint64)HEAP_END_ADDR);
 328              		.loc 1 70 5 is_stmt 1
 329              		.loc 1 70 12 is_stmt 0
 330 01f0 97070000 		la	a5,HEAP_END_ADDR
 330      83B70700 
 331 01f8 03BC0700 		ld	s8,0(a5)
 332              	.LVL39:
  71:src/kernel/riscv.cpp ****     uint64 bEnd = ((uint64)Buddy::BUDDY_START_ADDR + (Buddy::BLOCKS_AVAILABLE<<12));
 333              		.loc 1 71 5 is_stmt 1
 334              		.loc 1 71 78 is_stmt 0
 335 01fc 97070000 		la	a5,_ZN5Buddy16BLOCKS_AVAILABLEE
 335      83B70700 
 336 0204 83B40700 		ld	s1,0(a5)
 337 0208 9394C400 		slli	s1,s1,12
 338              		.loc 1 71 52
 339 020c 97070000 		la	a5,_ZN5Buddy16BUDDY_START_ADDRE
 339      83B70700 
 340 0214 83B70700 		ld	a5,0(a5)
 341              		.loc 1 71 12
 342 0218 B384F400 		add	s1,s1,a5
GAS LISTING /tmp/ccI3Gnq8.s 			page 12


 343              	.LVL40:
  72:src/kernel/riscv.cpp **** 
  73:src/kernel/riscv.cpp **** 
  74:src/kernel/riscv.cpp ****     for(uint64 i=0x80000000;i< kTextEnd;i+=0x1000) {
 344              		.loc 1 74 5 is_stmt 1
 345              	.LBB101:
 346              		.loc 1 74 16 is_stmt 0
 347 021c 930B1000 		li	s7,1
 348 0220 939BFB01 		slli	s7,s7,31
 349              	.LVL41:
 350              	.L16:
 351              		.loc 1 74 30 is_stmt 1 discriminator 3
 352 0224 63F46B03 		bgeu	s7,s6,.L15
  75:src/kernel/riscv.cpp ****         handlePageFault(kPMT,i, 0xb);
 353              		.loc 1 75 9 discriminator 2
 354              		.loc 1 75 24 is_stmt 0 discriminator 2
 355 0228 1306B000 		li	a2,11
 356 022c 93850B00 		mv	a1,s7
 357 0230 17050000 		ld	a0,.LANCHOR0
 357      03350500 
 358 0238 97000000 		call	_ZN5RiscV15handlePageFaultEPvmm
 358      E7800000 
 359              	.LVL42:
  74:src/kernel/riscv.cpp ****         handlePageFault(kPMT,i, 0xb);
 360              		.loc 1 74 5 is_stmt 1 discriminator 2
  74:src/kernel/riscv.cpp ****         handlePageFault(kPMT,i, 0xb);
 361              		.loc 1 74 42 is_stmt 0 discriminator 2
 362 0240 B7170000 		li	a5,4096
 363 0244 B38BFB00 		add	s7,s7,a5
 364              	.LVL43:
  74:src/kernel/riscv.cpp ****         handlePageFault(kPMT,i, 0xb);
 365              		.loc 1 74 5 discriminator 2
 366 0248 6FF0DFFD 		j	.L16
 367              	.L15:
 368              	.LVL44:
 369              	.LBE101:
 370              	.LBB102:
  76:src/kernel/riscv.cpp ****     }
  77:src/kernel/riscv.cpp **** 
  78:src/kernel/riscv.cpp ****     for(uint64 i=kTextEnd;i<uTextStart;i+=0x1000) {
 371              		.loc 1 78 28 is_stmt 1 discriminator 3
 372 024c 63745B03 		bgeu	s6,s5,.L17
  79:src/kernel/riscv.cpp ****         handlePageFault(kPMT,i, 0x7);
 373              		.loc 1 79 9 discriminator 2
 374              		.loc 1 79 24 is_stmt 0 discriminator 2
 375 0250 13067000 		li	a2,7
 376 0254 93050B00 		mv	a1,s6
 377 0258 17050000 		ld	a0,.LANCHOR0
 377      03350500 
 378 0260 97000000 		call	_ZN5RiscV15handlePageFaultEPvmm
 378      E7800000 
 379              	.LVL45:
  78:src/kernel/riscv.cpp ****         handlePageFault(kPMT,i, 0x7);
 380              		.loc 1 78 5 is_stmt 1 discriminator 2
  78:src/kernel/riscv.cpp ****         handlePageFault(kPMT,i, 0x7);
 381              		.loc 1 78 41 is_stmt 0 discriminator 2
 382 0268 B7170000 		li	a5,4096
GAS LISTING /tmp/ccI3Gnq8.s 			page 13


 383 026c 330BFB00 		add	s6,s6,a5
 384              	.LVL46:
  78:src/kernel/riscv.cpp ****         handlePageFault(kPMT,i, 0x7);
 385              		.loc 1 78 5 discriminator 2
 386 0270 6FF0DFFD 		j	.L15
 387              	.L17:
 388              	.LVL47:
 389              	.LBE102:
 390              	.LBB103:
  80:src/kernel/riscv.cpp ****     }
  81:src/kernel/riscv.cpp **** 
  82:src/kernel/riscv.cpp ****     for (uint64 i = uTextStart; i < uDataStart; i+=0x1000) {
 391              		.loc 1 82 35 is_stmt 1 discriminator 3
 392 0274 63F44A03 		bgeu	s5,s4,.L18
  83:src/kernel/riscv.cpp ****         handlePageFault(kPMT, i, 0x1b);
 393              		.loc 1 83 9 discriminator 2
 394              		.loc 1 83 24 is_stmt 0 discriminator 2
 395 0278 1306B001 		li	a2,27
 396 027c 93850A00 		mv	a1,s5
 397 0280 17050000 		ld	a0,.LANCHOR0
 397      03350500 
 398 0288 97000000 		call	_ZN5RiscV15handlePageFaultEPvmm
 398      E7800000 
 399              	.LVL48:
  82:src/kernel/riscv.cpp ****         handlePageFault(kPMT, i, 0x1b);
 400              		.loc 1 82 5 is_stmt 1 discriminator 2
  82:src/kernel/riscv.cpp ****         handlePageFault(kPMT, i, 0x1b);
 401              		.loc 1 82 50 is_stmt 0 discriminator 2
 402 0290 B7170000 		li	a5,4096
 403 0294 B38AFA00 		add	s5,s5,a5
 404              	.LVL49:
  82:src/kernel/riscv.cpp ****         handlePageFault(kPMT, i, 0x1b);
 405              		.loc 1 82 5 discriminator 2
 406 0298 6FF0DFFD 		j	.L17
 407              	.L18:
 408              	.LVL50:
 409              	.LBE103:
 410              	.LBB104:
  84:src/kernel/riscv.cpp ****     }
  85:src/kernel/riscv.cpp **** 
  86:src/kernel/riscv.cpp **** 
  87:src/kernel/riscv.cpp ****     for(uint64 i=uDataStart;i<uDataEnd;i++) {
 411              		.loc 1 87 30 is_stmt 1 discriminator 3
 412 029c 63723A03 		bgeu	s4,s3,.L19
  88:src/kernel/riscv.cpp ****         handlePageFault(kPMT,i, 0x1f);
 413              		.loc 1 88 9 discriminator 2
 414              		.loc 1 88 24 is_stmt 0 discriminator 2
 415 02a0 1306F001 		li	a2,31
 416 02a4 93050A00 		mv	a1,s4
 417 02a8 17050000 		ld	a0,.LANCHOR0
 417      03350500 
 418 02b0 97000000 		call	_ZN5RiscV15handlePageFaultEPvmm
 418      E7800000 
 419              	.LVL51:
  87:src/kernel/riscv.cpp ****         handlePageFault(kPMT,i, 0x1f);
 420              		.loc 1 87 5 is_stmt 1 discriminator 2
 421 02b8 130A1A00 		addi	s4,s4,1
GAS LISTING /tmp/ccI3Gnq8.s 			page 14


 422              	.LVL52:
 423 02bc 6FF01FFE 		j	.L18
 424              	.L19:
 425              	.LVL53:
 426              	.LBE104:
 427              	.LBB105:
  89:src/kernel/riscv.cpp ****     }
  90:src/kernel/riscv.cpp **** 
  91:src/kernel/riscv.cpp ****     for(uint64 i=uDataEnd;i<hStart;i+=0x1000) {
 428              		.loc 1 91 28 discriminator 3
 429 02c0 63F42903 		bgeu	s3,s2,.L20
  92:src/kernel/riscv.cpp ****         handlePageFault(kPMT,i, 0x7);
 430              		.loc 1 92 9 discriminator 2
 431              		.loc 1 92 24 is_stmt 0 discriminator 2
 432 02c4 13067000 		li	a2,7
 433 02c8 93850900 		mv	a1,s3
 434 02cc 17050000 		ld	a0,.LANCHOR0
 434      03350500 
 435 02d4 97000000 		call	_ZN5RiscV15handlePageFaultEPvmm
 435      E7800000 
 436              	.LVL54:
  91:src/kernel/riscv.cpp ****         handlePageFault(kPMT,i, 0x7);
 437              		.loc 1 91 5 is_stmt 1 discriminator 2
  91:src/kernel/riscv.cpp ****         handlePageFault(kPMT,i, 0x7);
 438              		.loc 1 91 37 is_stmt 0 discriminator 2
 439 02dc B7170000 		li	a5,4096
 440 02e0 B389F900 		add	s3,s3,a5
 441              	.LVL55:
  91:src/kernel/riscv.cpp ****         handlePageFault(kPMT,i, 0x7);
 442              		.loc 1 91 5 discriminator 2
 443 02e4 6FF0DFFD 		j	.L19
 444              	.LVL56:
 445              	.L20:
 446              	.LBE105:
 447              	.LBB106:
  93:src/kernel/riscv.cpp ****     }
  94:src/kernel/riscv.cpp **** 
  95:src/kernel/riscv.cpp ****     for(uint64 i=hStart;i<bEnd;i+=0x1000) {
 448              		.loc 1 95 26 is_stmt 1 discriminator 3
 449 02e8 63749904 		bgeu	s2,s1,.L21
  96:src/kernel/riscv.cpp ****         handlePageFault(kPMT,i, 0x7);
 450              		.loc 1 96 9 discriminator 2
 451              		.loc 1 96 24 is_stmt 0 discriminator 2
 452 02ec 13067000 		li	a2,7
 453 02f0 93050900 		mv	a1,s2
 454 02f4 17050000 		ld	a0,.LANCHOR0
 454      03350500 
 455 02fc 97000000 		call	_ZN5RiscV15handlePageFaultEPvmm
 455      E7800000 
 456              	.LVL57:
  95:src/kernel/riscv.cpp ****         handlePageFault(kPMT,i, 0x7);
 457              		.loc 1 95 5 is_stmt 1 discriminator 2
  95:src/kernel/riscv.cpp ****         handlePageFault(kPMT,i, 0x7);
 458              		.loc 1 95 33 is_stmt 0 discriminator 2
 459 0304 B7170000 		li	a5,4096
 460 0308 3309F900 		add	s2,s2,a5
 461              	.LVL58:
GAS LISTING /tmp/ccI3Gnq8.s 			page 15


  95:src/kernel/riscv.cpp ****         handlePageFault(kPMT,i, 0x7);
 462              		.loc 1 95 5 discriminator 2
 463 030c 6FF0DFFD 		j	.L20
 464              	.LVL59:
 465              	.L24:
 466              	.LBE106:
 467              	.LBB107:
  97:src/kernel/riscv.cpp ****     }
  98:src/kernel/riscv.cpp **** 
  99:src/kernel/riscv.cpp ****     for(uint64 i = bEnd;i<hEnd;i+=0x1000){
 100:src/kernel/riscv.cpp ****         handlePageFault(kPMT,i, 0x17);
 468              		.loc 1 100 9 is_stmt 1 discriminator 2
 469              		.loc 1 100 24 is_stmt 0 discriminator 2
 470 0310 13067001 		li	a2,23
 471 0314 93850400 		mv	a1,s1
 472 0318 17050000 		ld	a0,.LANCHOR0
 472      03350500 
 473 0320 97000000 		call	_ZN5RiscV15handlePageFaultEPvmm
 473      E7800000 
 474              	.LVL60:
  99:src/kernel/riscv.cpp ****         handlePageFault(kPMT,i, 0x17);
 475              		.loc 1 99 5 is_stmt 1 discriminator 2
  99:src/kernel/riscv.cpp ****         handlePageFault(kPMT,i, 0x17);
 476              		.loc 1 99 33 is_stmt 0 discriminator 2
 477 0328 B7170000 		li	a5,4096
 478 032c B384F400 		add	s1,s1,a5
 479              	.LVL61:
 480              	.L21:
  99:src/kernel/riscv.cpp ****         handlePageFault(kPMT,i, 0x17);
 481              		.loc 1 99 26 is_stmt 1 discriminator 3
 482 0330 E3E084FF 		bltu	s1,s8,.L24
 483              	.LBE107:
 101:src/kernel/riscv.cpp ****     }
 102:src/kernel/riscv.cpp **** 
 103:src/kernel/riscv.cpp **** 
 104:src/kernel/riscv.cpp ****     RiscV::ms_sstatus(1<<18);
 484              		.loc 1 104 5
 485              	.LVL62:
 486              	.LBB108:
 487              	.LBB109:
 185:src/kernel/../../h/riscv.hpp **** 
 186:src/kernel/../../h/riscv.hpp **** inline void  RiscV::ms_sstatus(uint64 mask) {
 187:src/kernel/../../h/riscv.hpp ****     asm("csrs sstatus, %[mask]" : : [mask] "r" (mask));
 488              		.loc 2 187 5
 489              		.loc 2 187 55 is_stmt 0
 490 0334 B7070400 		li	a5,262144
 491              	#APP
 492              	# 187 "src/kernel/../../h/riscv.hpp" 1
 188              	}
 493              		csrs sstatus, a5
 494              	# 0 "" 2
 495              	.LVL63:
 496              	#NO_APP
 497              	.LBE109:
 498              	.LBE108:
 105:src/kernel/riscv.cpp ****     handlePageFault(kPMT, (uint64)CONSOLE_RX_DATA,0xf);
 499              		.loc 1 105 5 is_stmt 1
GAS LISTING /tmp/ccI3Gnq8.s 			page 16


 500              		.loc 1 105 20 is_stmt 0
 501 033c 97040000 		lla	s1,.LANCHOR0
 501      93840400 
 502              	.LVL64:
 503 0344 1306F000 		li	a2,15
 504 0348 97070000 		la	a5,CONSOLE_RX_DATA
 504      83B70700 
 505 0350 83B50700 		ld	a1,0(a5)
 506 0354 03B50400 		ld	a0,0(s1)
 507 0358 97000000 		call	_ZN5RiscV15handlePageFaultEPvmm
 507      E7800000 
 508              	.LVL65:
 106:src/kernel/riscv.cpp ****     handlePageFault(kPMT, (uint64)CONSOLE_TX_DATA,0xf);
 509              		.loc 1 106 5 is_stmt 1
 510              		.loc 1 106 20 is_stmt 0
 511 0360 1306F000 		li	a2,15
 512 0364 97070000 		la	a5,CONSOLE_TX_DATA
 512      83B70700 
 513 036c 83B50700 		ld	a1,0(a5)
 514 0370 03B50400 		ld	a0,0(s1)
 515 0374 97000000 		call	_ZN5RiscV15handlePageFaultEPvmm
 515      E7800000 
 516              	.LVL66:
 107:src/kernel/riscv.cpp ****     handlePageFault(kPMT, (uint64)CONSOLE_STATUS,0xf);
 517              		.loc 1 107 5 is_stmt 1
 518              		.loc 1 107 20 is_stmt 0
 519 037c 1306F000 		li	a2,15
 520 0380 97070000 		la	a5,CONSOLE_STATUS
 520      83B70700 
 521 0388 83B50700 		ld	a1,0(a5)
 522 038c 03B50400 		ld	a0,0(s1)
 523 0390 97000000 		call	_ZN5RiscV15handlePageFaultEPvmm
 523      E7800000 
 524              	.LVL67:
 108:src/kernel/riscv.cpp ****     handlePageFault(kPMT, (uint64)0xc201004,0xf);
 525              		.loc 1 108 5 is_stmt 1
 526              		.loc 1 108 20 is_stmt 0
 527 0398 1306F000 		li	a2,15
 528 039c B715200C 		li	a1,203427840
 529 03a0 93854500 		addi	a1,a1,4
 530 03a4 03B50400 		ld	a0,0(s1)
 531 03a8 97000000 		call	_ZN5RiscV15handlePageFaultEPvmm
 531      E7800000 
 532              	.LVL68:
 109:src/kernel/riscv.cpp **** 
 110:src/kernel/riscv.cpp **** //    ConsoleUtil::print("kTextEnd:", kTextEnd, "\n");
 111:src/kernel/riscv.cpp **** //    ConsoleUtil::print("uTextStart:", uTextStart, "\n");
 112:src/kernel/riscv.cpp **** //    ConsoleUtil::print("uDataStart:", uDataStart, "\n");
 113:src/kernel/riscv.cpp **** //    ConsoleUtil::print("uDataEnd:", uDataEnd, "\n");
 114:src/kernel/riscv.cpp **** //    ConsoleUtil::print("hStart:", hStart, "\n");
 115:src/kernel/riscv.cpp **** //    ConsoleUtil::print("bEnd:", bEnd, "\n");
 116:src/kernel/riscv.cpp **** //    ConsoleUtil::print("hEnd:", hEnd, "\n");
 117:src/kernel/riscv.cpp **** 
 118:src/kernel/riscv.cpp ****     uint64 satp = ((uint64)1<<63) | ((uint64)(RiscV::kPMT)>>12);
 533              		.loc 1 118 5 is_stmt 1
 534              		.loc 1 118 59 is_stmt 0
 535 03b0 83B70400 		ld	a5,0(s1)
GAS LISTING /tmp/ccI3Gnq8.s 			page 17


 536 03b4 93D7C700 		srli	a5,a5,12
 537              		.loc 1 118 12
 538 03b8 1307F0FF 		li	a4,-1
 539 03bc 1317F703 		slli	a4,a4,63
 540 03c0 B3E7E700 		or	a5,a5,a4
 541              	.LVL69:
 119:src/kernel/riscv.cpp ****     asm("csrw satp, %[satp]" : : [satp] "r" (satp));
 542              		.loc 1 119 5 is_stmt 1
 543              		.loc 1 119 52 is_stmt 0
 544              	#APP
 545              	# 119 "src/kernel/riscv.cpp" 1
 120              	
 121:src/kernel/riscv.cpp ****     RiscV::enableInterrupts();
 546              		csrw satp, a5
 547              	# 0 "" 2
 548              		.loc 1 121 5 is_stmt 1
 189:src/kernel/../../h/riscv.hpp **** 
 190:src/kernel/../../h/riscv.hpp **** inline void  RiscV::mc_sstatus(uint64 mask) {
 191:src/kernel/../../h/riscv.hpp ****     asm("csrc sstatus, %[mask]" : : [mask] "r" (mask));
 192:src/kernel/../../h/riscv.hpp **** }
 193:src/kernel/../../h/riscv.hpp **** 
 194:src/kernel/../../h/riscv.hpp **** inline void  RiscV::ms_sip(uint64 mask) {
 195:src/kernel/../../h/riscv.hpp ****     asm("csrs sip, %[mask]" : : [mask] "r" (mask));
 196:src/kernel/../../h/riscv.hpp **** }
 197:src/kernel/../../h/riscv.hpp **** 
 198:src/kernel/../../h/riscv.hpp **** inline void  RiscV::mc_sip(uint64 mask) {
 199:src/kernel/../../h/riscv.hpp ****     asm("csrc sip, %[mask]" : : [mask] "r" (mask));
 200:src/kernel/../../h/riscv.hpp **** }
 201:src/kernel/../../h/riscv.hpp **** 
 202:src/kernel/../../h/riscv.hpp **** inline void  RiscV::ms_sie(uint64 mask) {
 203:src/kernel/../../h/riscv.hpp ****     asm("csrs sie, %[mask]" : : [mask] "r" (mask));
 204:src/kernel/../../h/riscv.hpp **** }
 205:src/kernel/../../h/riscv.hpp **** 
 206:src/kernel/../../h/riscv.hpp **** inline void  RiscV::mc_sie(uint64 mask){
 207:src/kernel/../../h/riscv.hpp ****     asm("csrc sie, %[mask]" : : [mask] "r" (mask));
 208:src/kernel/../../h/riscv.hpp **** }
 209:src/kernel/../../h/riscv.hpp **** 
 210:src/kernel/../../h/riscv.hpp **** inline void RiscV::enableInterrupts() {
 211:src/kernel/../../h/riscv.hpp ****     RiscV::ms_sie(SIP_SSIE);
 549              		.loc 2 211 5
 550              	.LVL70:
 551              	#NO_APP
 552              	.LBB110:
 553              	.LBB111:
 554              	.LBB112:
 203:src/kernel/../../h/riscv.hpp **** }
 555              		.loc 2 203 5
 203:src/kernel/../../h/riscv.hpp **** }
 556              		.loc 2 203 51 is_stmt 0
 557 03c8 93072000 		li	a5,2
 558              	.LVL71:
 559              	#APP
 560              	# 203 "src/kernel/../../h/riscv.hpp" 1
 561              		csrs sie, a5
 562              	# 0 "" 2
 563              	.LVL72:
 564              	#NO_APP
GAS LISTING /tmp/ccI3Gnq8.s 			page 18


 565              	.LBE112:
 566              	.LBE111:
 567              	.LBE110:
 212:src/kernel/../../h/riscv.hpp ****     RiscV::ms_sie(SIP_SEIE);
 568              		.loc 2 212 5 is_stmt 1
 569              	.LBB117:
 570              	.LBB113:
 571              	.LBB114:
 203:src/kernel/../../h/riscv.hpp **** }
 572              		.loc 2 203 5
 203:src/kernel/../../h/riscv.hpp **** }
 573              		.loc 2 203 51 is_stmt 0
 574 03d0 13070020 		li	a4,512
 575              	.LVL73:
 576              	#APP
 577              	# 203 "src/kernel/../../h/riscv.hpp" 1
 578              		csrs sie, a4
 579              	# 0 "" 2
 580              	.LVL74:
 581              	#NO_APP
 582              	.LBE114:
 583              	.LBE113:
 584              	.LBE117:
 213:src/kernel/../../h/riscv.hpp ****     RiscV::ms_sstatus(SSTATUS_SIE);
 585              		.loc 2 213 5 is_stmt 1
 586              	.LBB118:
 587              	.LBB115:
 588              	.LBB116:
 187:src/kernel/../../h/riscv.hpp **** }
 589              		.loc 2 187 5
 187:src/kernel/../../h/riscv.hpp **** }
 590              		.loc 2 187 55 is_stmt 0
 591              	#APP
 592              	# 187 "src/kernel/../../h/riscv.hpp" 1
 593              		csrs sstatus, a5
 594              	# 0 "" 2
 595              	.LVL75:
 596              	#NO_APP
 597              	.LBE116:
 598              	.LBE115:
 599              	.LBE118:
 122:src/kernel/riscv.cpp **** //    RiscV::enableHardwareInterrupts();
 123:src/kernel/riscv.cpp **** }
 600              		.loc 1 123 1
 601 03dc 83308104 		ld	ra,72(sp)
 602              		.cfi_restore 1
 603 03e0 03340104 		ld	s0,64(sp)
 604              		.cfi_restore 8
 605              		.cfi_def_cfa 2, 80
 606 03e4 83348103 		ld	s1,56(sp)
 607              		.cfi_restore 9
 608 03e8 03390103 		ld	s2,48(sp)
 609              		.cfi_restore 18
 610              	.LVL76:
 611 03ec 83398102 		ld	s3,40(sp)
 612              		.cfi_restore 19
 613              	.LVL77:
GAS LISTING /tmp/ccI3Gnq8.s 			page 19


 614 03f0 033A0102 		ld	s4,32(sp)
 615              		.cfi_restore 20
 616              	.LVL78:
 617 03f4 833A8101 		ld	s5,24(sp)
 618              		.cfi_restore 21
 619              	.LVL79:
 620 03f8 033B0101 		ld	s6,16(sp)
 621              		.cfi_restore 22
 622              	.LVL80:
 623 03fc 833B8100 		ld	s7,8(sp)
 624              		.cfi_restore 23
 625              	.LVL81:
 626 0400 033C0100 		ld	s8,0(sp)
 627              		.cfi_restore 24
 628              	.LVL82:
 629 0404 13010105 		addi	sp,sp,80
 630              		.cfi_def_cfa_offset 0
 631 0408 67800000 		jr	ra
 632              		.cfi_endproc
 633              	.LFE44:
 635              		.align	2
 636              		.globl	_ZN5RiscV10popSppSpieEv
 638              	_ZN5RiscV10popSppSpieEv:
 639              	.LFB45:
 124:src/kernel/riscv.cpp **** 
 125:src/kernel/riscv.cpp **** //get previous privilege and previous interrupt status
 126:src/kernel/riscv.cpp **** void RiscV::popSppSpie() {
 640              		.loc 1 126 26 is_stmt 1
 641              		.cfi_startproc
 642 040c 130101FF 		addi	sp,sp,-16
 643              		.cfi_def_cfa_offset 16
 644 0410 23348100 		sd	s0,8(sp)
 645              		.cfi_offset 8, -8
 646 0414 13040101 		addi	s0,sp,16
 647              		.cfi_def_cfa 8, 0
 127:src/kernel/riscv.cpp ****     uint64 ra = 0;
 648              		.loc 1 127 5
 649              	.LVL83:
 128:src/kernel/riscv.cpp ****     if(TCB::running->mode == TCB::Mode::SUPERVISOR)
 650              		.loc 1 128 5
 651              		.loc 1 128 22 is_stmt 0
 652 0418 97070000 		la	a5,_ZN3TCB7runningE
 652      83B70700 
 653 0420 83B70700 		ld	a5,0(a5)
 654 0424 83A64701 		lw	a3,20(a5)
 655              		.loc 1 128 5
 656 0428 13071000 		li	a4,1
 657 042c 6388E602 		beq	a3,a4,.L29
 129:src/kernel/riscv.cpp ****         asm("csrw sepc, ra");
 130:src/kernel/riscv.cpp ****     else
 131:src/kernel/riscv.cpp ****     {
 132:src/kernel/riscv.cpp ****         ra = (uint64)TCBWrapper::tcbWrap;
 658              		.loc 1 132 9 is_stmt 1
 659              	.LVL84:
 133:src/kernel/riscv.cpp ****         asm("mv a0, %[iarg]" : : [iarg] "r" (TCB::running->body));
 660              		.loc 1 133 9
 661              		.loc 1 133 60 is_stmt 0
GAS LISTING /tmp/ccI3Gnq8.s 			page 20


 662 0430 03B78701 		ld	a4,24(a5)
 663              		.loc 1 133 66
 664              	#APP
 665              	# 133 "src/kernel/riscv.cpp" 1
 134              	        asm("mv a1, %[iarg]" : : [iarg] "r" (TCB::running->args));
 666              		mv a0, a4
 667              	# 0 "" 2
 668              		.loc 1 134 9 is_stmt 1
 669              		.loc 1 134 60 is_stmt 0
 670              	#NO_APP
 671 0438 83B70702 		ld	a5,32(a5)
 672              		.loc 1 134 66
 673              	#APP
 674              	# 134 "src/kernel/riscv.cpp" 1
 135              	        asm("csrw sepc, %[ra]" : : [ra] "r" (ra));
 675              		mv a1, a5
 676              	# 0 "" 2
 677              		.loc 1 135 9 is_stmt 1
 678              		.loc 1 135 50 is_stmt 0
 679              	#NO_APP
 680 0440 97070000 		la	a5,_ZN10TCBWrapper7tcbWrapEPFvPvES0_
 680      83B70700 
 681              	#APP
 682              	# 135 "src/kernel/riscv.cpp" 1
 136              	    }
 683              		csrw sepc, a5
 684              	# 0 "" 2
 685              	.LVL85:
 686              	#NO_APP
 687              	.L27:
 137:src/kernel/riscv.cpp ****     asm("sret");
 688              		.loc 1 137 5 is_stmt 1
 689              		.loc 1 137 16 is_stmt 0
 690              	#APP
 691              	# 137 "src/kernel/riscv.cpp" 1
 138              	}
 692              		sret
 693              	# 0 "" 2
 694              		.loc 1 138 1
 695              	#NO_APP
 696 0450 03348100 		ld	s0,8(sp)
 697              		.cfi_remember_state
 698              		.cfi_restore 8
 699              		.cfi_def_cfa 2, 16
 700 0454 13010101 		addi	sp,sp,16
 701              		.cfi_def_cfa_offset 0
 702 0458 67800000 		jr	ra
 703              	.LVL86:
 704              	.L29:
 705              		.cfi_restore_state
 129:src/kernel/riscv.cpp ****         asm("csrw sepc, ra");
 706              		.loc 1 129 9 is_stmt 1
 129:src/kernel/riscv.cpp ****         asm("csrw sepc, ra");
 707              		.loc 1 129 29 is_stmt 0
 708              	#APP
 709              	# 129 "src/kernel/riscv.cpp" 1
 710              		csrw sepc, ra
GAS LISTING /tmp/ccI3Gnq8.s 			page 21


 711              	# 0 "" 2
 712              	#NO_APP
 713 0460 6FF0DFFE 		j	.L27
 714              		.cfi_endproc
 715              	.LFE45:
 717              		.align	2
 718              		.globl	_ZN5RiscV11popSppSpie2Ev
 720              	_ZN5RiscV11popSppSpie2Ev:
 721              	.LFB46:
 139:src/kernel/riscv.cpp **** 
 140:src/kernel/riscv.cpp **** void RiscV::popSppSpie2() {
 722              		.loc 1 140 27 is_stmt 1
 723              		.cfi_startproc
 724 0464 130101FF 		addi	sp,sp,-16
 725              		.cfi_def_cfa_offset 16
 726 0468 23348100 		sd	s0,8(sp)
 727              		.cfi_offset 8, -8
 728 046c 13040101 		addi	s0,sp,16
 729              		.cfi_def_cfa 8, 0
 141:src/kernel/riscv.cpp ****     uint64 ra = 0;
 730              		.loc 1 141 5
 731              	.LVL87:
 142:src/kernel/riscv.cpp ****     if(TCB::running->mode == TCB::Mode::SUPERVISOR)
 732              		.loc 1 142 5
 733              		.loc 1 142 22 is_stmt 0
 734 0470 97070000 		la	a5,_ZN3TCB7runningE
 734      83B70700 
 735 0478 83B70700 		ld	a5,0(a5)
 736 047c 03A74701 		lw	a4,20(a5)
 737              		.loc 1 142 5
 738 0480 93071000 		li	a5,1
 739 0484 6300F702 		beq	a4,a5,.L34
 143:src/kernel/riscv.cpp ****         asm("csrw sepc, ra");
 144:src/kernel/riscv.cpp ****     else
 145:src/kernel/riscv.cpp ****     {
 146:src/kernel/riscv.cpp ****         ra = (uint64)TCBWrapper::tcbWrap;
 740              		.loc 1 146 9 is_stmt 1
 741              		.loc 1 146 12 is_stmt 0
 742 0488 97070000 		la	a5,_ZN10TCBWrapper7tcbWrapEPFvPvES0_
 742      83B70700 
 743              	.LVL88:
 147:src/kernel/riscv.cpp ****         asm("csrw sepc, %[ra]" : : [ra] "r" (ra));
 744              		.loc 1 147 9 is_stmt 1
 745              		.loc 1 147 50 is_stmt 0
 746              	#APP
 747              	# 147 "src/kernel/riscv.cpp" 1
 148              	    }
 748              		csrw sepc, a5
 749              	# 0 "" 2
 750              	.LVL89:
 751              	#NO_APP
 752              	.L32:
 149:src/kernel/riscv.cpp ****     asm("sret");
 753              		.loc 1 149 5 is_stmt 1
 754              		.loc 1 149 16 is_stmt 0
 755              	#APP
 756              	# 149 "src/kernel/riscv.cpp" 1
GAS LISTING /tmp/ccI3Gnq8.s 			page 22


 150              	}
 757              		sret
 758              	# 0 "" 2
 759              		.loc 1 150 1
 760              	#NO_APP
 761 0498 03348100 		ld	s0,8(sp)
 762              		.cfi_remember_state
 763              		.cfi_restore 8
 764              		.cfi_def_cfa 2, 16
 765 049c 13010101 		addi	sp,sp,16
 766              		.cfi_def_cfa_offset 0
 767 04a0 67800000 		jr	ra
 768              	.LVL90:
 769              	.L34:
 770              		.cfi_restore_state
 143:src/kernel/riscv.cpp ****         asm("csrw sepc, ra");
 771              		.loc 1 143 9 is_stmt 1
 143:src/kernel/riscv.cpp ****         asm("csrw sepc, ra");
 772              		.loc 1 143 29 is_stmt 0
 773              	#APP
 774              	# 143 "src/kernel/riscv.cpp" 1
 775              		csrw sepc, ra
 776              	# 0 "" 2
 777              	#NO_APP
 778 04a8 6FF0DFFE 		j	.L32
 779              		.cfi_endproc
 780              	.LFE46:
 782              		.align	2
 783              		.globl	_ZN5RiscV28executeThreadDispatchSyscallEv
 785              	_ZN5RiscV28executeThreadDispatchSyscallEv:
 786              	.LFB54:
 151:src/kernel/riscv.cpp **** 
 152:src/kernel/riscv.cpp **** //handler function for traps
 153:src/kernel/riscv.cpp **** void RiscV::handleSupervisorTrap() {
 154:src/kernel/riscv.cpp **** 
 155:src/kernel/riscv.cpp ****     //read scause
 156:src/kernel/riscv.cpp ****     uint64 stval;
 157:src/kernel/riscv.cpp ****     asm("csrr %[stval], stval" : [stval] "=r" (stval));
 158:src/kernel/riscv.cpp ****     uint64 volatile scause = RiscV::r_scause();
 159:src/kernel/riscv.cpp **** 
 160:src/kernel/riscv.cpp ****     asm("csrr %[sscratch], sscratch" : [sscratch] "=r" (TCB::running->a0Location));
 161:src/kernel/riscv.cpp **** 
 162:src/kernel/riscv.cpp ****     //interrupt from ecall (both user and supervisor mode)
 163:src/kernel/riscv.cpp **** //    if(scause == 0x0c){
 164:src/kernel/riscv.cpp **** //        uint64 stvec = RiscV::r_stvec();
 165:src/kernel/riscv.cpp **** //        handlePageFault(kPMT, stvec, 0xb);
 166:src/kernel/riscv.cpp **** //    }
 167:src/kernel/riscv.cpp **** //    else if(scause == 0xd || scause == 0xf){
 168:src/kernel/riscv.cpp **** //        uint64 stvec = RiscV::r_stvec();
 169:src/kernel/riscv.cpp **** //        handlePageFault(kPMT, stvec, 0x17);
 170:src/kernel/riscv.cpp **** //    }
 171:src/kernel/riscv.cpp ****     if(scause == 0x09 || scause == 0x08) {
 172:src/kernel/riscv.cpp **** 
 173:src/kernel/riscv.cpp ****         //save sstatus and sepc
 174:src/kernel/riscv.cpp ****         //sepc should be increased by 4, since this is an ecall trap
 175:src/kernel/riscv.cpp ****         uint64 volatile sstatus = RiscV::r_sstatus();
 176:src/kernel/riscv.cpp ****         uint64 volatile sepc = RiscV::r_sepc()+4;
GAS LISTING /tmp/ccI3Gnq8.s 			page 23


 177:src/kernel/riscv.cpp ****         TCB::running->sepc = sepc;
 178:src/kernel/riscv.cpp ****         TCB::running->sstatus = sstatus;
 179:src/kernel/riscv.cpp **** 
 180:src/kernel/riscv.cpp ****         //get the syscall ID from a0
 181:src/kernel/riscv.cpp ****         uint64 syscallID;
 182:src/kernel/riscv.cpp ****         asm("mv %[syscallID], a0" : [syscallID] "=r" (syscallID));
 183:src/kernel/riscv.cpp **** 
 184:src/kernel/riscv.cpp ****         switch(syscallID){
 185:src/kernel/riscv.cpp ****             case 0x01 : executeMemAllocSyscall();break;
 186:src/kernel/riscv.cpp ****             case 0x02 : executeMemFreeSyscall();break;
 187:src/kernel/riscv.cpp ****             case 0x11 : executeThreadCreateSyscall();break;
 188:src/kernel/riscv.cpp ****             case 0x12 : executeThreadExitSyscall();break;
 189:src/kernel/riscv.cpp ****             case 0x13 : executeThreadDispatchSyscall();break;
 190:src/kernel/riscv.cpp ****             case 0x14 : executeThreadAttachBodySyscall();break;
 191:src/kernel/riscv.cpp ****             case 0x15 : executeThreadStartSyscall();break;
 192:src/kernel/riscv.cpp ****             case 0x21 : executeSemOpenSyscall();break;
 193:src/kernel/riscv.cpp ****             case 0x22 : executeSemCloseSyscall();break;
 194:src/kernel/riscv.cpp ****             case 0x23 : executeSemWaitSyscall();break;
 195:src/kernel/riscv.cpp ****             case 0x24 : executeSemSignalSyscall();break;
 196:src/kernel/riscv.cpp ****             case 0x31 : executeTimeSleepSyscall();break;
 197:src/kernel/riscv.cpp ****             case 0x41 : executeGetcSyscall();break;
 198:src/kernel/riscv.cpp ****             case 0x42 : executePutcSyscall();break;
 199:src/kernel/riscv.cpp ****             case 0x43 : executePutcUtilSyscall();break;
 200:src/kernel/riscv.cpp ****             case 0x51 : executeThreadFreeSyscall();break;
 201:src/kernel/riscv.cpp ****             case 0x52 : executeSemaphoreFreeSyscall();break;
 202:src/kernel/riscv.cpp ****             //in this case we need to save SP and PC at this point so that newly created thread
 203:src/kernel/riscv.cpp ****             //can return to this point and exit trap routine regularly
 204:src/kernel/riscv.cpp ****             //note that getPC() returns PC incremented by 8 to skip executeForkSyscall
 205:src/kernel/riscv.cpp ****             case 0x61 : asm("mv %[sp], sp" : [sp] "=r"(TCB::currentSP));
 206:src/kernel/riscv.cpp ****                         RiscV::getPC();
 207:src/kernel/riscv.cpp ****                         executeForkSyscall();
 208:src/kernel/riscv.cpp ****                         break;
 209:src/kernel/riscv.cpp ****         }
 210:src/kernel/riscv.cpp **** 
 211:src/kernel/riscv.cpp ****         //write previously save sstatus and incremented sepc
 212:src/kernel/riscv.cpp ****         RiscV::w_sstatus(TCB::running->sstatus);
 213:src/kernel/riscv.cpp ****         RiscV::w_sepc(TCB::running->sepc);
 214:src/kernel/riscv.cpp ****     }
 215:src/kernel/riscv.cpp **** 
 216:src/kernel/riscv.cpp ****     //timer interrupt (in this system's implementation, timer tick is manifested as software interr
 217:src/kernel/riscv.cpp ****     else if(scause == (0x01UL<<63 | 0x1)){
 218:src/kernel/riscv.cpp **** 
 219:src/kernel/riscv.cpp ****         //save sstatus and sepc
 220:src/kernel/riscv.cpp ****         //this time sepc remains the same
 221:src/kernel/riscv.cpp ****         uint64 volatile sstatus = RiscV::r_sstatus();
 222:src/kernel/riscv.cpp ****         uint64 volatile sepc = RiscV::r_sepc();
 223:src/kernel/riscv.cpp **** 
 224:src/kernel/riscv.cpp ****         //clear the SIP bit for software interrupt
 225:src/kernel/riscv.cpp ****         mc_sip(SIP_SSIE);
 226:src/kernel/riscv.cpp **** 
 227:src/kernel/riscv.cpp **** 
 228:src/kernel/riscv.cpp ****         //increase global time and try to awake threads that are asleep
 229:src/kernel/riscv.cpp ****         globalTime += 1;
 230:src/kernel/riscv.cpp ****         Scheduler::awake();
 231:src/kernel/riscv.cpp **** 
 232:src/kernel/riscv.cpp ****         //check whether time slice has run out for running thread
 233:src/kernel/riscv.cpp ****         //if so, dispatch
GAS LISTING /tmp/ccI3Gnq8.s 			page 24


 234:src/kernel/riscv.cpp ****         TCB::timeSliceCounter++;
 235:src/kernel/riscv.cpp ****         if(TCB::timeSliceCounter >= TCB::running->timeSlice) {
 236:src/kernel/riscv.cpp **** 
 237:src/kernel/riscv.cpp ****             TCB::timeSliceCounter = 0;
 238:src/kernel/riscv.cpp **** 
 239:src/kernel/riscv.cpp ****             TCB* old = TCB::running;
 240:src/kernel/riscv.cpp **** 
 241:src/kernel/riscv.cpp ****             old->status = TCB::Status::READY;
 242:src/kernel/riscv.cpp **** 
 243:src/kernel/riscv.cpp ****             TCB::dispatch();
 244:src/kernel/riscv.cpp ****         }
 245:src/kernel/riscv.cpp **** 
 246:src/kernel/riscv.cpp ****         //write previously save sstatus and sepc
 247:src/kernel/riscv.cpp ****         RiscV::w_sstatus(sstatus);
 248:src/kernel/riscv.cpp ****         RiscV::w_sepc(sepc);
 249:src/kernel/riscv.cpp ****     }
 250:src/kernel/riscv.cpp **** 
 251:src/kernel/riscv.cpp ****     //hardware interrupt, from console (note that here we only check for keyboard interrupts, handl
 252:src/kernel/riscv.cpp ****     else if(scause == (0x01UL<<63 | 0x9)){
 253:src/kernel/riscv.cpp ****         //save sstatus and sepc
 254:src/kernel/riscv.cpp ****         //this time sepc remains the same
 255:src/kernel/riscv.cpp ****         uint64 volatile sstatus = RiscV::r_sstatus();
 256:src/kernel/riscv.cpp ****         uint64 volatile sepc = RiscV::r_sepc();
 257:src/kernel/riscv.cpp **** 
 258:src/kernel/riscv.cpp ****         //get the console status register location, and console status reg value
 259:src/kernel/riscv.cpp ****         uint64 status = CONSOLE_STATUS;
 260:src/kernel/riscv.cpp ****         asm("mv a0, %[status]" : : [status] "r" (status));
 261:src/kernel/riscv.cpp ****         asm("lb a1, 0(a0)");
 262:src/kernel/riscv.cpp ****         asm("mv %[status], a1" : [status] "=r" (status));
 263:src/kernel/riscv.cpp **** 
 264:src/kernel/riscv.cpp ****         //if keyboard is ready to send data
 265:src/kernel/riscv.cpp ****         if(status & 1UL)
 266:src/kernel/riscv.cpp ****         {
 267:src/kernel/riscv.cpp ****             //fetch the character from CONSOLE_TX_DATA register
 268:src/kernel/riscv.cpp ****             uint64 data;
 269:src/kernel/riscv.cpp ****             char c;
 270:src/kernel/riscv.cpp ****             data = CONSOLE_TX_DATA;
 271:src/kernel/riscv.cpp ****             asm("mv a0, %[data]" : : [data] "r" (data));
 272:src/kernel/riscv.cpp ****             asm("lb a1, 0(a0)");
 273:src/kernel/riscv.cpp ****             asm("mv %[c], a1" : [c] "=r" (c));
 274:src/kernel/riscv.cpp **** 
 275:src/kernel/riscv.cpp ****             //if there was a getc request put the character into the input buffer, othrewise ignore
 276:src/kernel/riscv.cpp ****             if(ConsoleUtil::pendingGetc!=0) {
 277:src/kernel/riscv.cpp ****                 ConsoleUtil::pendingGetc--;
 278:src/kernel/riscv.cpp ****                 ConsoleUtil::putInput(c);
 279:src/kernel/riscv.cpp ****             }
 280:src/kernel/riscv.cpp ****         }
 281:src/kernel/riscv.cpp ****         plic_complete(plic_claim());
 282:src/kernel/riscv.cpp **** 
 283:src/kernel/riscv.cpp ****         RiscV::w_sstatus(sstatus);
 284:src/kernel/riscv.cpp ****         RiscV::w_sepc(sepc);
 285:src/kernel/riscv.cpp ****     }
 286:src/kernel/riscv.cpp **** 
 287:src/kernel/riscv.cpp ****     //illegal instruction, exit running thread
 288:src/kernel/riscv.cpp ****     else if(scause == 0x02){
 289:src/kernel/riscv.cpp ****         TCB* old = TCB::running;
 290:src/kernel/riscv.cpp ****         old->status = TCB::Status::FINISHED;
GAS LISTING /tmp/ccI3Gnq8.s 			page 25


 291:src/kernel/riscv.cpp ****         ConsoleUtil::printString("sepc: ");
 292:src/kernel/riscv.cpp ****         uint64 sepc = RiscV::r_sepc();
 293:src/kernel/riscv.cpp ****         ConsoleUtil::printInt(sepc,16);
 294:src/kernel/riscv.cpp ****         ConsoleUtil::printString("\n");
 295:src/kernel/riscv.cpp ****         ConsoleUtil::printString("Illegal instruction\nExiting thread...\n");
 296:src/kernel/riscv.cpp ****         TCB::dispatch();
 297:src/kernel/riscv.cpp ****     }
 298:src/kernel/riscv.cpp **** 
 299:src/kernel/riscv.cpp ****     //some other kind of error, for more information check out RiscV handbook
 300:src/kernel/riscv.cpp ****     else{
 301:src/kernel/riscv.cpp ****         ConsoleUtil::printString("Error: \n");
 302:src/kernel/riscv.cpp ****         ConsoleUtil::printString("scause: ");
 303:src/kernel/riscv.cpp ****         uint64  scause = RiscV::r_scause();
 304:src/kernel/riscv.cpp ****         ConsoleUtil::printInt(scause);
 305:src/kernel/riscv.cpp ****         ConsoleUtil::printString("sepc: ");
 306:src/kernel/riscv.cpp ****         uint64 sepc = RiscV::r_sepc();
 307:src/kernel/riscv.cpp ****         ConsoleUtil::printInt(sepc,16);
 308:src/kernel/riscv.cpp ****         ConsoleUtil::printString("\n");
 309:src/kernel/riscv.cpp ****         ConsoleUtil::print("stvec: ",stval,"\n");
 310:src/kernel/riscv.cpp ****         TCB* old = TCB::running;
 311:src/kernel/riscv.cpp ****         old->status = TCB::Status::FINISHED;
 312:src/kernel/riscv.cpp ****         ConsoleUtil::printString("Exiting thread...\n");
 313:src/kernel/riscv.cpp ****         TCB::dispatch();
 314:src/kernel/riscv.cpp ****     }
 315:src/kernel/riscv.cpp **** 
 316:src/kernel/riscv.cpp ****     RiscV::jumpToDesignatedPrivilegeMode();
 317:src/kernel/riscv.cpp **** }
 318:src/kernel/riscv.cpp **** 
 319:src/kernel/riscv.cpp **** void RiscV::executeMemAllocSyscall(){
 320:src/kernel/riscv.cpp **** 
 321:src/kernel/riscv.cpp ****     //fetch the arguments from a0-a7 registers
 322:src/kernel/riscv.cpp ****     uint64 size;
 323:src/kernel/riscv.cpp ****     asm("mv %[size], a1" : [size] "=r" (size));
 324:src/kernel/riscv.cpp **** 
 325:src/kernel/riscv.cpp ****     //call internal allocator and return the address in a0
 326:src/kernel/riscv.cpp ****     uint64 addr =(uint64)MemoryAllocator::kmalloc(size);
 327:src/kernel/riscv.cpp **** 
 328:src/kernel/riscv.cpp ****     asm("mv a0, %[addr]" : : [addr] "r" (addr));
 329:src/kernel/riscv.cpp **** 
 330:src/kernel/riscv.cpp ****     RiscV::saveA0toSscratch();
 331:src/kernel/riscv.cpp **** }
 332:src/kernel/riscv.cpp **** 
 333:src/kernel/riscv.cpp **** void RiscV::executeMemFreeSyscall() {
 334:src/kernel/riscv.cpp **** 
 335:src/kernel/riscv.cpp ****     //fetch the arguments from a0-a7 registers
 336:src/kernel/riscv.cpp ****     uint64 iaddr, status;
 337:src/kernel/riscv.cpp **** 
 338:src/kernel/riscv.cpp **** 
 339:src/kernel/riscv.cpp ****     if(MemoryAllocator::initialized) {
 340:src/kernel/riscv.cpp ****         //call internal allocator and free memory which iaddr points to
 341:src/kernel/riscv.cpp ****         asm("mv %[iaddr], a1" : [iaddr] "=r"(iaddr));
 342:src/kernel/riscv.cpp ****         status = MemoryAllocator::kfree((void *) iaddr);;
 343:src/kernel/riscv.cpp ****     }
 344:src/kernel/riscv.cpp ****     else
 345:src/kernel/riscv.cpp ****         status = -1;
 346:src/kernel/riscv.cpp **** 
 347:src/kernel/riscv.cpp ****     //return status
GAS LISTING /tmp/ccI3Gnq8.s 			page 26


 348:src/kernel/riscv.cpp ****     asm("mv a0, %[status]" : : [status] "r" (status));
 349:src/kernel/riscv.cpp **** 
 350:src/kernel/riscv.cpp ****     RiscV::saveA0toSscratch();
 351:src/kernel/riscv.cpp **** }
 352:src/kernel/riscv.cpp **** 
 353:src/kernel/riscv.cpp **** void RiscV::executeThreadCreateSyscall(){
 354:src/kernel/riscv.cpp **** 
 355:src/kernel/riscv.cpp ****     //fetch the arguments from a0-a7 registers
 356:src/kernel/riscv.cpp ****     uint64 iroutine, iargs, ihandle, istack;
 357:src/kernel/riscv.cpp **** 
 358:src/kernel/riscv.cpp ****     asm("mv %[istack], a7" : [istack] "=r"(istack));
 359:src/kernel/riscv.cpp ****     asm("mv %[ihandle], a1" : [ihandle] "=r"(ihandle));
 360:src/kernel/riscv.cpp ****     asm("mv %[iroutine], a2" : [iroutine] "=r"(iroutine));
 361:src/kernel/riscv.cpp ****     asm("mv %[iargs], a3" : [iargs] "=r"(iargs));
 362:src/kernel/riscv.cpp **** 
 363:src/kernel/riscv.cpp ****     //call constructor for Thread Control Block and if not null, write thread address into ihandle
 364:src/kernel/riscv.cpp ****     TCB *tcb = new TCB((TCB::Body)iroutine, (void*)iargs, (uint64*)istack, DEFAULT_TIME_SLICE);
 365:src/kernel/riscv.cpp **** 
 366:src/kernel/riscv.cpp ****     uint64 status = 0;
 367:src/kernel/riscv.cpp **** 
 368:src/kernel/riscv.cpp ****     if(tcb == nullptr){
 369:src/kernel/riscv.cpp ****         status = -1;
 370:src/kernel/riscv.cpp ****     }
 371:src/kernel/riscv.cpp ****     else{
 372:src/kernel/riscv.cpp ****         if(tcb->body)
 373:src/kernel/riscv.cpp ****             Scheduler::put(tcb);
 374:src/kernel/riscv.cpp ****         *((TCB**)ihandle) = tcb;
 375:src/kernel/riscv.cpp ****     }
 376:src/kernel/riscv.cpp **** 
 377:src/kernel/riscv.cpp ****     //return status
 378:src/kernel/riscv.cpp ****     asm("mv a0, %[status]" : : [status] "r" (status));
 379:src/kernel/riscv.cpp **** 
 380:src/kernel/riscv.cpp ****     RiscV::saveA0toSscratch();
 381:src/kernel/riscv.cpp **** }
 382:src/kernel/riscv.cpp **** 
 383:src/kernel/riscv.cpp **** void RiscV::executeThreadAttachBodySyscall(){
 384:src/kernel/riscv.cpp **** 
 385:src/kernel/riscv.cpp ****     //fetch the arguments from a0-a7 registers
 386:src/kernel/riscv.cpp ****     uint64 iroutine, iargs, ihandle, istack;
 387:src/kernel/riscv.cpp **** 
 388:src/kernel/riscv.cpp **** 
 389:src/kernel/riscv.cpp ****     asm("mv %[istack], a7" : [istack] "=r"(istack));
 390:src/kernel/riscv.cpp ****     asm("mv %[ihandle], a1" : [ihandle] "=r"(ihandle));
 391:src/kernel/riscv.cpp ****     asm("mv %[iroutine], a2" : [iroutine] "=r"(iroutine));
 392:src/kernel/riscv.cpp ****     asm("mv %[iargs], a3" : [iargs] "=r"(iargs));
 393:src/kernel/riscv.cpp **** 
 394:src/kernel/riscv.cpp ****     TCB *tcb = new TCB((TCB::Body)iroutine, (void*)iargs, (uint64*)istack, DEFAULT_TIME_SLICE);
 395:src/kernel/riscv.cpp **** 
 396:src/kernel/riscv.cpp ****     uint64 status = 0;
 397:src/kernel/riscv.cpp **** 
 398:src/kernel/riscv.cpp ****     if(tcb == nullptr){
 399:src/kernel/riscv.cpp ****         status = -1;
 400:src/kernel/riscv.cpp ****     }
 401:src/kernel/riscv.cpp ****     else{
 402:src/kernel/riscv.cpp ****         tcb->body = (TCB::Body)iroutine;
 403:src/kernel/riscv.cpp ****         tcb->args = (void*)iargs;
 404:src/kernel/riscv.cpp ****         *((TCB**)ihandle) = tcb;
GAS LISTING /tmp/ccI3Gnq8.s 			page 27


 405:src/kernel/riscv.cpp ****     }
 406:src/kernel/riscv.cpp **** 
 407:src/kernel/riscv.cpp ****     asm("mv a0, %[status]" : : [status] "r" (status));
 408:src/kernel/riscv.cpp **** 
 409:src/kernel/riscv.cpp ****     RiscV::saveA0toSscratch();
 410:src/kernel/riscv.cpp **** }
 411:src/kernel/riscv.cpp **** 
 412:src/kernel/riscv.cpp **** void RiscV::executeThreadStartSyscall(){
 413:src/kernel/riscv.cpp **** 
 414:src/kernel/riscv.cpp ****     //fetch the arguments from a0-a7 registers
 415:src/kernel/riscv.cpp ****     uint64 ihandle;
 416:src/kernel/riscv.cpp **** 
 417:src/kernel/riscv.cpp ****     asm("mv %[ihandle], a1" : [ihandle] "=r"(ihandle));
 418:src/kernel/riscv.cpp **** 
 419:src/kernel/riscv.cpp ****     //get the handle and put tcb in scheduler if not null
 420:src/kernel/riscv.cpp ****     TCB* tcb =(TCB*)ihandle;
 421:src/kernel/riscv.cpp **** 
 422:src/kernel/riscv.cpp ****     uint64 status = 0;
 423:src/kernel/riscv.cpp **** 
 424:src/kernel/riscv.cpp ****     if(tcb == nullptr){
 425:src/kernel/riscv.cpp ****         status = -1;
 426:src/kernel/riscv.cpp ****     }
 427:src/kernel/riscv.cpp ****     else{
 428:src/kernel/riscv.cpp ****         tcb->status = TCB::Status::READY;
 429:src/kernel/riscv.cpp ****         Scheduler::put(tcb);
 430:src/kernel/riscv.cpp ****         TCB::dispatch();
 431:src/kernel/riscv.cpp ****     }
 432:src/kernel/riscv.cpp **** 
 433:src/kernel/riscv.cpp ****     //return status
 434:src/kernel/riscv.cpp ****     asm("mv a0, %[status]" : : [status] "r" (status));
 435:src/kernel/riscv.cpp **** 
 436:src/kernel/riscv.cpp ****     RiscV::saveA0toSscratch();
 437:src/kernel/riscv.cpp **** }
 438:src/kernel/riscv.cpp **** 
 439:src/kernel/riscv.cpp **** void RiscV::executeThreadExitSyscall() {
 440:src/kernel/riscv.cpp **** 
 441:src/kernel/riscv.cpp ****     //fetch the arguments from a0-a7 registers
 442:src/kernel/riscv.cpp ****     uint64 status = 0;
 443:src/kernel/riscv.cpp **** 
 444:src/kernel/riscv.cpp ****     //if thread not null, set status to finished and dispatch
 445:src/kernel/riscv.cpp ****     if(TCB::running == nullptr){
 446:src/kernel/riscv.cpp ****         status = -1;
 447:src/kernel/riscv.cpp ****     }
 448:src/kernel/riscv.cpp ****     else{
 449:src/kernel/riscv.cpp ****         TCB* old = TCB::running;
 450:src/kernel/riscv.cpp ****         old->status = TCB::Status::FINISHED;
 451:src/kernel/riscv.cpp ****         TCB::dispatch();
 452:src/kernel/riscv.cpp ****     }
 453:src/kernel/riscv.cpp **** 
 454:src/kernel/riscv.cpp ****     asm("mv a0, %[status]" : : [status] "r" (status));
 455:src/kernel/riscv.cpp **** 
 456:src/kernel/riscv.cpp ****     RiscV::saveA0toSscratch();
 457:src/kernel/riscv.cpp **** }
 458:src/kernel/riscv.cpp **** 
 459:src/kernel/riscv.cpp **** void RiscV::executeThreadDispatchSyscall(){
 787              		.loc 1 459 43 is_stmt 1
 788              		.cfi_startproc
GAS LISTING /tmp/ccI3Gnq8.s 			page 28


 789 04ac 130101FF 		addi	sp,sp,-16
 790              		.cfi_def_cfa_offset 16
 791 04b0 23341100 		sd	ra,8(sp)
 792 04b4 23308100 		sd	s0,0(sp)
 793              		.cfi_offset 1, -8
 794              		.cfi_offset 8, -16
 795 04b8 13040101 		addi	s0,sp,16
 796              		.cfi_def_cfa 8, 0
 460:src/kernel/riscv.cpp **** 
 461:src/kernel/riscv.cpp ****     //dispatch current running thread
 462:src/kernel/riscv.cpp ****     TCB* old = TCB::running;
 797              		.loc 1 462 5
 798              		.loc 1 462 10 is_stmt 0
 799 04bc 97070000 		la	a5,_ZN3TCB7runningE
 799      83B70700 
 800 04c4 83B70700 		ld	a5,0(a5)
 801              	.LVL91:
 463:src/kernel/riscv.cpp ****     old->status = TCB::Status::READY;
 802              		.loc 1 463 5 is_stmt 1
 803              		.loc 1 463 17 is_stmt 0
 804 04c8 13071000 		li	a4,1
 805 04cc 23A8E700 		sw	a4,16(a5)
 464:src/kernel/riscv.cpp ****     TCB::dispatch();
 806              		.loc 1 464 5 is_stmt 1
 807              		.loc 1 464 18 is_stmt 0
 808 04d0 97000000 		call	_ZN3TCB8dispatchEv@plt
 808      E7800000 
 809              	.LVL92:
 465:src/kernel/riscv.cpp **** }
 810              		.loc 1 465 1
 811 04d8 83308100 		ld	ra,8(sp)
 812              		.cfi_restore 1
 813 04dc 03340100 		ld	s0,0(sp)
 814              		.cfi_restore 8
 815              		.cfi_def_cfa 2, 16
 816 04e0 13010101 		addi	sp,sp,16
 817              		.cfi_def_cfa_offset 0
 818 04e4 67800000 		jr	ra
 819              		.cfi_endproc
 820              	.LFE54:
 822              		.align	2
 823              		.globl	_ZN5RiscV18executePutcSyscallEv
 825              	_ZN5RiscV18executePutcSyscallEv:
 826              	.LFB61:
 466:src/kernel/riscv.cpp **** 
 467:src/kernel/riscv.cpp **** void RiscV::executeSemOpenSyscall() {
 468:src/kernel/riscv.cpp **** 
 469:src/kernel/riscv.cpp ****     //fetch the arguments from a0-a7 registers
 470:src/kernel/riscv.cpp ****     uint64 ihandle, iinit;
 471:src/kernel/riscv.cpp **** 
 472:src/kernel/riscv.cpp ****     asm("mv %[ihandle], a1" : [ihandle] "=r"(ihandle));
 473:src/kernel/riscv.cpp ****     asm("mv %[iinit], a2" : [iinit] "=r"(iinit));
 474:src/kernel/riscv.cpp **** 
 475:src/kernel/riscv.cpp ****     //create new Semaphore Control Block and write it into ihandle if not null
 476:src/kernel/riscv.cpp ****     SCB *scb = new SCB(iinit);
 477:src/kernel/riscv.cpp **** 
 478:src/kernel/riscv.cpp ****     uint64 status = 0;
GAS LISTING /tmp/ccI3Gnq8.s 			page 29


 479:src/kernel/riscv.cpp **** 
 480:src/kernel/riscv.cpp ****     if(scb == nullptr){
 481:src/kernel/riscv.cpp ****         status = -1;
 482:src/kernel/riscv.cpp ****     }
 483:src/kernel/riscv.cpp ****     else{
 484:src/kernel/riscv.cpp ****         *((SCB**)ihandle) = scb;
 485:src/kernel/riscv.cpp ****     }
 486:src/kernel/riscv.cpp **** 
 487:src/kernel/riscv.cpp ****     //return status
 488:src/kernel/riscv.cpp ****     asm("mv a0, %[status]" : : [status] "r" (status));
 489:src/kernel/riscv.cpp **** 
 490:src/kernel/riscv.cpp ****     RiscV::saveA0toSscratch();
 491:src/kernel/riscv.cpp **** 
 492:src/kernel/riscv.cpp **** }
 493:src/kernel/riscv.cpp **** 
 494:src/kernel/riscv.cpp **** void RiscV::executeSemCloseSyscall() {
 495:src/kernel/riscv.cpp **** 
 496:src/kernel/riscv.cpp ****     //fetch the arguments from a0-a7 registers
 497:src/kernel/riscv.cpp ****     uint64 ihandle;
 498:src/kernel/riscv.cpp **** 
 499:src/kernel/riscv.cpp ****     asm("mv %[ihandle], a1" : [ihandle] "=r"(ihandle));
 500:src/kernel/riscv.cpp **** 
 501:src/kernel/riscv.cpp ****     //delete scb if not null
 502:src/kernel/riscv.cpp ****     SCB *scb = (SCB*)ihandle;
 503:src/kernel/riscv.cpp ****     uint64 status = 0;
 504:src/kernel/riscv.cpp **** 
 505:src/kernel/riscv.cpp ****     if(scb == nullptr){
 506:src/kernel/riscv.cpp ****         status = -1;
 507:src/kernel/riscv.cpp ****     }
 508:src/kernel/riscv.cpp ****     else
 509:src/kernel/riscv.cpp ****         delete (SCB*)ihandle;
 510:src/kernel/riscv.cpp **** 
 511:src/kernel/riscv.cpp ****     //return status
 512:src/kernel/riscv.cpp ****     asm("mv a0, %[status]" : : [status] "r" (status));
 513:src/kernel/riscv.cpp **** 
 514:src/kernel/riscv.cpp ****     RiscV::saveA0toSscratch();
 515:src/kernel/riscv.cpp **** }
 516:src/kernel/riscv.cpp **** 
 517:src/kernel/riscv.cpp **** void RiscV::executeSemWaitSyscall() {
 518:src/kernel/riscv.cpp **** 
 519:src/kernel/riscv.cpp ****     //fetch the arguments from a0-a7 registers
 520:src/kernel/riscv.cpp ****     uint64 ihandle;
 521:src/kernel/riscv.cpp **** 
 522:src/kernel/riscv.cpp ****     asm("mv %[ihandle], a1" : [ihandle] "=r"(ihandle));
 523:src/kernel/riscv.cpp **** 
 524:src/kernel/riscv.cpp ****     uint64 status = 0;
 525:src/kernel/riscv.cpp ****     //call wait method on ihandle scb
 526:src/kernel/riscv.cpp **** 
 527:src/kernel/riscv.cpp ****     if(((SCB*)ihandle) != nullptr)
 528:src/kernel/riscv.cpp ****         ((SCB*)ihandle)->wait();
 529:src/kernel/riscv.cpp ****     else
 530:src/kernel/riscv.cpp ****         status = -1;
 531:src/kernel/riscv.cpp **** 
 532:src/kernel/riscv.cpp ****     if(TCB::running->semError != nullptr)
 533:src/kernel/riscv.cpp ****         status = -1;
 534:src/kernel/riscv.cpp ****     else
 535:src/kernel/riscv.cpp ****         status = 0;
GAS LISTING /tmp/ccI3Gnq8.s 			page 30


 536:src/kernel/riscv.cpp **** 
 537:src/kernel/riscv.cpp ****     //return status
 538:src/kernel/riscv.cpp ****     asm("mv a0, %[status]" : : [status] "r" (status));
 539:src/kernel/riscv.cpp **** 
 540:src/kernel/riscv.cpp ****     RiscV::saveA0toSscratch();
 541:src/kernel/riscv.cpp **** 
 542:src/kernel/riscv.cpp **** }
 543:src/kernel/riscv.cpp **** 
 544:src/kernel/riscv.cpp **** void RiscV::executeSemSignalSyscall() {
 545:src/kernel/riscv.cpp **** 
 546:src/kernel/riscv.cpp ****     //fetch the arguments from a0-a7 registers
 547:src/kernel/riscv.cpp ****     uint64 ihandle;
 548:src/kernel/riscv.cpp **** 
 549:src/kernel/riscv.cpp ****     asm("mv %[ihandle], a1" : [ihandle] "=r"(ihandle));
 550:src/kernel/riscv.cpp **** 
 551:src/kernel/riscv.cpp ****     //call signal method on ihandle scb
 552:src/kernel/riscv.cpp **** 
 553:src/kernel/riscv.cpp ****     uint64 status = 0;
 554:src/kernel/riscv.cpp **** 
 555:src/kernel/riscv.cpp ****     if(((SCB*)ihandle) != nullptr)
 556:src/kernel/riscv.cpp ****         ((SCB*)ihandle)->signal();
 557:src/kernel/riscv.cpp ****     else
 558:src/kernel/riscv.cpp ****         status = -1;
 559:src/kernel/riscv.cpp **** 
 560:src/kernel/riscv.cpp ****     //return status
 561:src/kernel/riscv.cpp ****     asm("mv a0, %[status]" : : [status] "r" (status));
 562:src/kernel/riscv.cpp **** 
 563:src/kernel/riscv.cpp ****     RiscV::saveA0toSscratch();
 564:src/kernel/riscv.cpp **** }
 565:src/kernel/riscv.cpp **** 
 566:src/kernel/riscv.cpp **** void RiscV::executeTimeSleepSyscall() {
 567:src/kernel/riscv.cpp **** 
 568:src/kernel/riscv.cpp ****     //fetch the arguments from a0-a7 registers
 569:src/kernel/riscv.cpp ****     uint64 itime;
 570:src/kernel/riscv.cpp **** 
 571:src/kernel/riscv.cpp ****     asm("mv %[itime], a1" : [itime] "=r"(itime));
 572:src/kernel/riscv.cpp **** 
 573:src/kernel/riscv.cpp ****     //calculate wake time for running thread and put it to sleep
 574:src/kernel/riscv.cpp ****     //fetch new running with dispatch
 575:src/kernel/riscv.cpp ****     TCB* tcb = TCB::running;
 576:src/kernel/riscv.cpp ****     tcb->sleepTime = globalTime;
 577:src/kernel/riscv.cpp ****     tcb->wakeTime = globalTime + itime;
 578:src/kernel/riscv.cpp **** 
 579:src/kernel/riscv.cpp ****     Scheduler::sleep(tcb);
 580:src/kernel/riscv.cpp **** 
 581:src/kernel/riscv.cpp ****     tcb->status = TCB::Status::BLOCKED;
 582:src/kernel/riscv.cpp **** 
 583:src/kernel/riscv.cpp ****     TCB::dispatch();
 584:src/kernel/riscv.cpp **** 
 585:src/kernel/riscv.cpp ****     uint64 status = 0;
 586:src/kernel/riscv.cpp **** 
 587:src/kernel/riscv.cpp ****     //return status
 588:src/kernel/riscv.cpp ****     asm("mv a0, %[status]" : : [status] "r" (status));
 589:src/kernel/riscv.cpp **** 
 590:src/kernel/riscv.cpp ****     RiscV::saveA0toSscratch();
 591:src/kernel/riscv.cpp **** }
 592:src/kernel/riscv.cpp **** 
GAS LISTING /tmp/ccI3Gnq8.s 			page 31


 593:src/kernel/riscv.cpp **** void RiscV::executeGetcSyscall() {
 594:src/kernel/riscv.cpp **** 
 595:src/kernel/riscv.cpp ****     //register a pending getc call
 596:src/kernel/riscv.cpp ****     if(!userMainFinished)
 597:src/kernel/riscv.cpp ****         ConsoleUtil::pendingGetc++;
 598:src/kernel/riscv.cpp **** 
 599:src/kernel/riscv.cpp ****     //get character from input buffer
 600:src/kernel/riscv.cpp ****     char c = ConsoleUtil::getInput();
 601:src/kernel/riscv.cpp **** 
 602:src/kernel/riscv.cpp ****     //if char == \n echo it as LF and CR
 603:src/kernel/riscv.cpp ****     if(c==13) {
 604:src/kernel/riscv.cpp ****         ConsoleUtil::putOutput(13);
 605:src/kernel/riscv.cpp ****         ConsoleUtil::putOutput(10);
 606:src/kernel/riscv.cpp ****     }
 607:src/kernel/riscv.cpp ****     //if not ESC character, echo it to console
 608:src/kernel/riscv.cpp ****     else if(c!=0x01b)
 609:src/kernel/riscv.cpp ****         ConsoleUtil::putOutput(c);
 610:src/kernel/riscv.cpp **** 
 611:src/kernel/riscv.cpp ****     //return character
 612:src/kernel/riscv.cpp ****     asm("mv a0, %[c]" : : [c] "r" (c));
 613:src/kernel/riscv.cpp **** 
 614:src/kernel/riscv.cpp ****     RiscV::saveA0toSscratch();
 615:src/kernel/riscv.cpp **** }
 616:src/kernel/riscv.cpp **** 
 617:src/kernel/riscv.cpp **** void RiscV::executePutcSyscall() {
 827              		.loc 1 617 34 is_stmt 1
 828              		.cfi_startproc
 829 04e8 130101FF 		addi	sp,sp,-16
 830              		.cfi_def_cfa_offset 16
 831 04ec 23341100 		sd	ra,8(sp)
 832 04f0 23308100 		sd	s0,0(sp)
 833              		.cfi_offset 1, -8
 834              		.cfi_offset 8, -16
 835 04f4 13040101 		addi	s0,sp,16
 836              		.cfi_def_cfa 8, 0
 618:src/kernel/riscv.cpp **** 
 619:src/kernel/riscv.cpp ****     //register a pending putc call
 620:src/kernel/riscv.cpp ****     if(!userMainFinished)
 837              		.loc 1 620 5
 838              		.loc 1 620 8 is_stmt 0
 839 04f8 97070000 		lbu	a5,.LANCHOR0+8
 839      83C70700 
 840              		.loc 1 620 5
 841 0500 639C0700 		bnez	a5,.L38
 621:src/kernel/riscv.cpp ****         ConsoleUtil::pendingPutc++;
 842              		.loc 1 621 9 is_stmt 1
 843              		.loc 1 621 33 is_stmt 0
 844 0504 17070000 		la	a4,_ZN11ConsoleUtil11pendingPutcE
 844      03370700 
 845 050c 83370700 		ld	a5,0(a4)
 846 0510 93871700 		addi	a5,a5,1
 847 0514 2330F700 		sd	a5,0(a4)
 848              	.L38:
 622:src/kernel/riscv.cpp **** 
 623:src/kernel/riscv.cpp ****     char c;
 849              		.loc 1 623 5 is_stmt 1
 624:src/kernel/riscv.cpp **** 
GAS LISTING /tmp/ccI3Gnq8.s 			page 32


 625:src/kernel/riscv.cpp ****     asm("mv %[c], a1" : [c] "=r"(c));
 850              		.loc 1 625 5
 851              		.loc 1 625 37 is_stmt 0
 852              	#APP
 853              	# 625 "src/kernel/riscv.cpp" 1
 626              	
 854              		mv a0, a1
 855              	# 0 "" 2
 856              	.LVL93:
 627:src/kernel/riscv.cpp ****     //put character in output buffer
 628:src/kernel/riscv.cpp ****     ConsoleUtil::putOutput(c);
 857              		.loc 1 628 5 is_stmt 1
 858              		.loc 1 628 27 is_stmt 0
 859              	#NO_APP
 860 051c 1375F50F 		andi	a0,a0,0xff
 861 0520 97000000 		call	_ZN11ConsoleUtil9putOutputEc@plt
 861      E7800000 
 862              	.LVL94:
 629:src/kernel/riscv.cpp **** }
 863              		.loc 1 629 1
 864 0528 83308100 		ld	ra,8(sp)
 865              		.cfi_restore 1
 866 052c 03340100 		ld	s0,0(sp)
 867              		.cfi_restore 8
 868              		.cfi_def_cfa 2, 16
 869 0530 13010101 		addi	sp,sp,16
 870              		.cfi_def_cfa_offset 0
 871 0534 67800000 		jr	ra
 872              		.cfi_endproc
 873              	.LFE61:
 875              		.align	2
 876              		.globl	_ZN5RiscV29jumpToDesignatedPrivilegeModeEv
 878              	_ZN5RiscV29jumpToDesignatedPrivilegeModeEv:
 879              	.LFB64:
 630:src/kernel/riscv.cpp **** 
 631:src/kernel/riscv.cpp **** //wrapper function for putcThread
 632:src/kernel/riscv.cpp **** //spins in a while loop and checks whether console is ready to take output
 633:src/kernel/riscv.cpp **** //if ready read data from output buffer
 634:src/kernel/riscv.cpp **** void RiscV::putcWrapper(void* arg)
 635:src/kernel/riscv.cpp **** {
 636:src/kernel/riscv.cpp ****     while(true)
 637:src/kernel/riscv.cpp ****     {
 638:src/kernel/riscv.cpp ****         //read console status from status register
 639:src/kernel/riscv.cpp ****         uint64 status = CONSOLE_STATUS;
 640:src/kernel/riscv.cpp ****         asm("mv a0, %[status]" : : [status] "r" (status));
 641:src/kernel/riscv.cpp ****         asm("lb a1, 0(a0)");
 642:src/kernel/riscv.cpp ****         asm("mv %[status], a1" : [status] "=r" (status));
 643:src/kernel/riscv.cpp **** 
 644:src/kernel/riscv.cpp ****         //if console ready..
 645:src/kernel/riscv.cpp ****         if(status & 1UL<<5){
 646:src/kernel/riscv.cpp **** 
 647:src/kernel/riscv.cpp ****             //get character from output buffer with possible block if nothing in buffer
 648:src/kernel/riscv.cpp ****                 char volatile c = ConsoleUtil::putcUtilSyscall();
 649:src/kernel/riscv.cpp ****                 uint64 data = CONSOLE_RX_DATA;
 650:src/kernel/riscv.cpp ****                 asm("mv a0, %[data]" : : [data] "r"(data));
 651:src/kernel/riscv.cpp ****                 asm("mv a1, %[c]" : : [c] "r"(c));
 652:src/kernel/riscv.cpp ****                 asm("sb a1,0(a0)");
GAS LISTING /tmp/ccI3Gnq8.s 			page 33


 653:src/kernel/riscv.cpp **** 
 654:src/kernel/riscv.cpp ****             //decrement number of pending putc requests
 655:src/kernel/riscv.cpp ****             if(ConsoleUtil::pendingPutc>0)
 656:src/kernel/riscv.cpp ****                 ConsoleUtil::pendingPutc--;
 657:src/kernel/riscv.cpp ****         }
 658:src/kernel/riscv.cpp ****         else
 659:src/kernel/riscv.cpp ****             RiscV::threadDispatchUtil();
 660:src/kernel/riscv.cpp ****     }
 661:src/kernel/riscv.cpp **** }
 662:src/kernel/riscv.cpp **** 
 663:src/kernel/riscv.cpp **** //utility syscall to get character from output buffer
 664:src/kernel/riscv.cpp **** //syscall is needed because we don't want to fiddle with kernel structures from anywhere but the tr
 665:src/kernel/riscv.cpp **** void RiscV::executePutcUtilSyscall() {
 666:src/kernel/riscv.cpp ****     char c = ConsoleUtil::getOutput();
 667:src/kernel/riscv.cpp ****     asm("mv a0, %[c]" : : [c] "r" ((uint64)(c)) );
 668:src/kernel/riscv.cpp **** 
 669:src/kernel/riscv.cpp ****     RiscV::saveA0toSscratch();
 670:src/kernel/riscv.cpp **** }
 671:src/kernel/riscv.cpp **** 
 672:src/kernel/riscv.cpp **** //return to privilege that was given at creation
 673:src/kernel/riscv.cpp **** void RiscV::jumpToDesignatedPrivilegeMode() {
 880              		.loc 1 673 45 is_stmt 1
 881              		.cfi_startproc
 882 0538 130101FF 		addi	sp,sp,-16
 883              		.cfi_def_cfa_offset 16
 884 053c 23348100 		sd	s0,8(sp)
 885              		.cfi_offset 8, -8
 886 0540 13040101 		addi	s0,sp,16
 887              		.cfi_def_cfa 8, 0
 674:src/kernel/riscv.cpp ****     if(TCB::running->mode == TCB::Mode::SUPERVISOR) {
 888              		.loc 1 674 5
 889              		.loc 1 674 22 is_stmt 0
 890 0544 97070000 		la	a5,_ZN3TCB7runningE
 890      83B70700 
 891 054c 83B70700 		ld	a5,0(a5)
 892 0550 03A74701 		lw	a4,20(a5)
 893              		.loc 1 674 5
 894 0554 93071000 		li	a5,1
 895 0558 630CF700 		beq	a4,a5,.L44
 675:src/kernel/riscv.cpp ****         RiscV::ms_sstatus(RiscV::SSTATUS_SPP);
 676:src/kernel/riscv.cpp ****     }
 677:src/kernel/riscv.cpp ****     else {
 678:src/kernel/riscv.cpp ****         RiscV::mc_sstatus(RiscV::SSTATUS_SPP);
 896              		.loc 1 678 9 is_stmt 1
 897              	.LVL95:
 898              	.LBB119:
 899              	.LBB120:
 191:src/kernel/../../h/riscv.hpp **** }
 900              		.loc 2 191 5
 191:src/kernel/../../h/riscv.hpp **** }
 901              		.loc 2 191 55 is_stmt 0
 902 055c 93070010 		li	a5,256
 903              	#APP
 904              	# 191 "src/kernel/../../h/riscv.hpp" 1
 905              		csrc sstatus, a5
 906              	# 0 "" 2
 907              	.LVL96:
GAS LISTING /tmp/ccI3Gnq8.s 			page 34


 908              	#NO_APP
 909              	.L40:
 910              	.LBE120:
 911              	.LBE119:
 679:src/kernel/riscv.cpp ****     }
 680:src/kernel/riscv.cpp **** }
 912              		.loc 1 680 1
 913 0564 03348100 		ld	s0,8(sp)
 914              		.cfi_remember_state
 915              		.cfi_restore 8
 916              		.cfi_def_cfa 2, 16
 917 0568 13010101 		addi	sp,sp,16
 918              		.cfi_def_cfa_offset 0
 919 056c 67800000 		jr	ra
 920              	.L44:
 921              		.cfi_restore_state
 675:src/kernel/riscv.cpp ****     }
 922              		.loc 1 675 9 is_stmt 1
 923              	.LVL97:
 924              	.LBB121:
 925              	.LBB122:
 187:src/kernel/../../h/riscv.hpp **** }
 926              		.loc 2 187 5
 187:src/kernel/../../h/riscv.hpp **** }
 927              		.loc 2 187 55 is_stmt 0
 928 0570 93070010 		li	a5,256
 929              	#APP
 930              	# 187 "src/kernel/../../h/riscv.hpp" 1
 188:src/kernel/../../h/riscv.hpp **** 
 931              		csrs sstatus, a5
 932              	# 0 "" 2
 933              		.loc 2 188 1
 934              	#NO_APP
 935 0578 6FF0DFFE 		j	.L40
 936              	.LBE122:
 937              	.LBE121:
 938              		.cfi_endproc
 939              	.LFE64:
 941              		.align	2
 942              		.globl	_ZN5RiscV8finalizeEv
 944              	_ZN5RiscV8finalizeEv:
 945              	.LFB65:
 681:src/kernel/riscv.cpp **** 
 682:src/kernel/riscv.cpp **** 
 683:src/kernel/riscv.cpp **** //clear out the scheduler and let console finish remaining outputs if there are any
 684:src/kernel/riscv.cpp **** void RiscV::finalize() {
 946              		.loc 1 684 24 is_stmt 1
 947              		.cfi_startproc
 948 057c 130101FF 		addi	sp,sp,-16
 949              		.cfi_def_cfa_offset 16
 950 0580 23341100 		sd	ra,8(sp)
 951 0584 23308100 		sd	s0,0(sp)
 952              		.cfi_offset 1, -8
 953              		.cfi_offset 8, -16
 954 0588 13040101 		addi	s0,sp,16
 955              		.cfi_def_cfa 8, 0
 685:src/kernel/riscv.cpp ****     userMainFinished = true;
GAS LISTING /tmp/ccI3Gnq8.s 			page 35


 956              		.loc 1 685 5
 957              		.loc 1 685 22 is_stmt 0
 958 058c 93071000 		li	a5,1
 959 0590 17070000 		sb	a5,.LANCHOR0+8,a4
 959      2300F700 
 686:src/kernel/riscv.cpp **** 
 687:src/kernel/riscv.cpp ****     ConsoleUtil::pendingPutc = 0;
 960              		.loc 1 687 5 is_stmt 1
 961              		.loc 1 687 30 is_stmt 0
 962 0598 97070000 		la	a5,_ZN11ConsoleUtil11pendingPutcE
 962      83B70700 
 963 05a0 23B00700 		sd	zero,0(a5)
 688:src/kernel/riscv.cpp ****     ConsoleUtil::pendingGetc = 0;
 964              		.loc 1 688 5 is_stmt 1
 965              		.loc 1 688 30 is_stmt 0
 966 05a4 97070000 		la	a5,_ZN11ConsoleUtil11pendingGetcE
 966      83B70700 
 967 05ac 23B00700 		sd	zero,0(a5)
 689:src/kernel/riscv.cpp **** 
 690:src/kernel/riscv.cpp ****     RiscV::disableInterrupts();
 968              		.loc 1 690 5 is_stmt 1
 969              	.LBB123:
 970              	.LBB124:
 214:src/kernel/../../h/riscv.hpp **** }
 215:src/kernel/../../h/riscv.hpp **** 
 216:src/kernel/../../h/riscv.hpp **** inline void RiscV::disableInterrupts() {
 217:src/kernel/../../h/riscv.hpp ****     disableTimerInterrupts();
 971              		.loc 2 217 5
 972              	.LBE124:
 973              	.LBE123:
 218:src/kernel/../../h/riscv.hpp ****     disableHardwareInterrupts();
 219:src/kernel/../../h/riscv.hpp **** }
 220:src/kernel/../../h/riscv.hpp **** 
 221:src/kernel/../../h/riscv.hpp **** inline void RiscV::enableHardwareInterrupts() {
 222:src/kernel/../../h/riscv.hpp ****     RiscV::mc_sie(SIP_SSIE);
 223:src/kernel/../../h/riscv.hpp ****     RiscV::ms_sstatus(SSTATUS_SIE);
 224:src/kernel/../../h/riscv.hpp ****     RiscV::ms_sie(SIP_SEIE);
 225:src/kernel/../../h/riscv.hpp **** }
 226:src/kernel/../../h/riscv.hpp **** 
 227:src/kernel/../../h/riscv.hpp **** inline void RiscV::disableHardwareInterrupts(){
 228:src/kernel/../../h/riscv.hpp ****     RiscV::mc_sie(SIP_SEIE);
 229:src/kernel/../../h/riscv.hpp **** }
 230:src/kernel/../../h/riscv.hpp **** 
 231:src/kernel/../../h/riscv.hpp **** inline void RiscV::enableTimerInterrupts() {
 232:src/kernel/../../h/riscv.hpp ****     RiscV::mc_sie(SIP_SEIE);
 233:src/kernel/../../h/riscv.hpp ****     RiscV::ms_sstatus(SSTATUS_SIE);
 234:src/kernel/../../h/riscv.hpp ****     RiscV::ms_sie(SIP_SSIE);
 235:src/kernel/../../h/riscv.hpp **** }
 236:src/kernel/../../h/riscv.hpp **** 
 237:src/kernel/../../h/riscv.hpp **** inline void RiscV::disableTimerInterrupts(){
 238:src/kernel/../../h/riscv.hpp ****     RiscV::mc_sie(SIP_SSIE);
 974              		.loc 2 238 5
 975              	.LVL98:
 976              	.LBB133:
 977              	.LBB131:
 978              	.LBB125:
 979              	.LBB126:
GAS LISTING /tmp/ccI3Gnq8.s 			page 36


 980              	.LBB127:
 207:src/kernel/../../h/riscv.hpp **** }
 981              		.loc 2 207 5
 207:src/kernel/../../h/riscv.hpp **** }
 982              		.loc 2 207 51 is_stmt 0
 983 05b0 93072000 		li	a5,2
 984              	#APP
 985              	# 207 "src/kernel/../../h/riscv.hpp" 1
 986              		csrc sie, a5
 987              	# 0 "" 2
 988              	.LVL99:
 989              	#NO_APP
 990              	.LBE127:
 991              	.LBE126:
 992              	.LBE125:
 218:src/kernel/../../h/riscv.hpp ****     disableHardwareInterrupts();
 993              		.loc 2 218 5 is_stmt 1
 994              	.LBE131:
 995              	.LBE133:
 228:src/kernel/../../h/riscv.hpp **** }
 996              		.loc 2 228 5
 997              	.LBB134:
 998              	.LBB132:
 999              	.LBB128:
 1000              	.LBB129:
 1001              	.LBB130:
 207:src/kernel/../../h/riscv.hpp **** }
 1002              		.loc 2 207 5
 207:src/kernel/../../h/riscv.hpp **** }
 1003              		.loc 2 207 51 is_stmt 0
 1004 05b8 93070020 		li	a5,512
 1005              	#APP
 1006              	# 207 "src/kernel/../../h/riscv.hpp" 1
 1007              		csrc sie, a5
 1008              	# 0 "" 2
 1009              	.LVL100:
 1010              	#NO_APP
 1011              	.L47:
 1012              	.LBE130:
 1013              	.LBE129:
 1014              	.LBE128:
 1015              	.LBE132:
 1016              	.LBE134:
 691:src/kernel/riscv.cpp **** 
 692:src/kernel/riscv.cpp ****     while(Scheduler::readyHead != nullptr)
 1017              		.loc 1 692 5 is_stmt 1
 1018              		.loc 1 692 32
 1019 05c0 97070000 		la	a5,_ZN9Scheduler9readyHeadE
 1019      83B70700 
 1020 05c8 83B70700 		ld	a5,0(a5)
 1021 05cc 638C0700 		beqz	a5,.L46
 693:src/kernel/riscv.cpp ****         Scheduler::readyHead = Scheduler::readyHead->next;
 1022              		.loc 1 693 9
 1023              		.loc 1 693 54 is_stmt 0
 1024 05d0 03B78704 		ld	a4,72(a5)
 1025              		.loc 1 693 30
 1026 05d4 97070000 		la	a5,_ZN9Scheduler9readyHeadE
GAS LISTING /tmp/ccI3Gnq8.s 			page 37


 1026      83B70700 
 1027 05dc 23B0E700 		sd	a4,0(a5)
 692:src/kernel/riscv.cpp ****         Scheduler::readyHead = Scheduler::readyHead->next;
 1028              		.loc 1 692 5
 1029 05e0 6FF01FFE 		j	.L47
 1030              	.L46:
 694:src/kernel/riscv.cpp **** 
 695:src/kernel/riscv.cpp ****     Scheduler::put(TCB::putcThread);
 1031              		.loc 1 695 5 is_stmt 1
 1032              		.loc 1 695 19 is_stmt 0
 1033 05e4 97070000 		la	a5,_ZN3TCB10putcThreadE
 1033      83B70700 
 1034 05ec 03B50700 		ld	a0,0(a5)
 1035 05f0 97000000 		call	_ZN9Scheduler3putEP3TCB@plt
 1035      E7800000 
 1036              	.LVL101:
 1037              	.L49:
 696:src/kernel/riscv.cpp **** 
 697:src/kernel/riscv.cpp ****     while(ConsoleUtil::outputHead != ConsoleUtil::outputTail)
 1038              		.loc 1 697 5 is_stmt 1
 1039              		.loc 1 697 35
 1040 05f8 97070000 		la	a5,_ZN11ConsoleUtil10outputHeadE
 1040      83B70700 
 1041 0600 03B70700 		ld	a4,0(a5)
 1042 0604 97070000 		la	a5,_ZN11ConsoleUtil10outputTailE
 1042      83B70700 
 1043 060c 83B70700 		ld	a5,0(a5)
 1044 0610 6308F700 		beq	a4,a5,.L45
 698:src/kernel/riscv.cpp ****         TCB::dispatch();
 1045              		.loc 1 698 9
 1046              		.loc 1 698 22 is_stmt 0
 1047 0614 97000000 		call	_ZN3TCB8dispatchEv@plt
 1047      E7800000 
 1048              	.LVL102:
 697:src/kernel/riscv.cpp ****         TCB::dispatch();
 1049              		.loc 1 697 5
 1050 061c 6FF0DFFD 		j	.L49
 1051              	.L45:
 699:src/kernel/riscv.cpp **** }
 1052              		.loc 1 699 1
 1053 0620 83308100 		ld	ra,8(sp)
 1054              		.cfi_restore 1
 1055 0624 03340100 		ld	s0,0(sp)
 1056              		.cfi_restore 8
 1057              		.cfi_def_cfa 2, 16
 1058 0628 13010101 		addi	sp,sp,16
 1059              		.cfi_def_cfa_offset 0
 1060 062c 67800000 		jr	ra
 1061              		.cfi_endproc
 1062              	.LFE65:
 1064              		.align	2
 1065              		.globl	_ZN5RiscV16saveA0toSscratchEv
 1067              	_ZN5RiscV16saveA0toSscratchEv:
 1068              	.LFB66:
 700:src/kernel/riscv.cpp **** 
 701:src/kernel/riscv.cpp **** //write value in a0 to a memory location where a0 is store on stack for currently running thread
 702:src/kernel/riscv.cpp **** void RiscV::saveA0toSscratch()
GAS LISTING /tmp/ccI3Gnq8.s 			page 38


 703:src/kernel/riscv.cpp **** {
 1069              		.loc 1 703 1 is_stmt 1
 1070              		.cfi_startproc
 1071 0630 130101FF 		addi	sp,sp,-16
 1072              		.cfi_def_cfa_offset 16
 1073 0634 23348100 		sd	s0,8(sp)
 1074              		.cfi_offset 8, -8
 1075 0638 13040101 		addi	s0,sp,16
 1076              		.cfi_def_cfa 8, 0
 704:src/kernel/riscv.cpp ****     uint64 a1;
 1077              		.loc 1 704 5
 705:src/kernel/riscv.cpp ****     asm("mv %[a1], a1": [a1] "=r"(a1));
 1078              		.loc 1 705 5
 1079              		.loc 1 705 39 is_stmt 0
 1080              	#APP
 1081              	# 705 "src/kernel/riscv.cpp" 1
 706              	    asm("mv a1, %[a0]" : :  [a0] "r"(TCB::running->a0Location));
 1082              		mv a5, a1
 1083              	# 0 "" 2
 1084              		.loc 1 706 5 is_stmt 1
 1085              		.loc 1 706 52 is_stmt 0
 1086              	#NO_APP
 1087 0640 17070000 		la	a4,_ZN3TCB7runningE
 1087      03370700 
 1088 0648 03370700 		ld	a4,0(a4)
 1089 064c 03378706 		ld	a4,104(a4)
 1090              		.loc 1 706 64
 1091              	#APP
 1092              	# 706 "src/kernel/riscv.cpp" 1
 707              	    asm("sd a0, 80(a1)");
 1093              		mv a1, a4
 1094              	# 0 "" 2
 1095              		.loc 1 707 5 is_stmt 1
 1096              		.loc 1 707 25 is_stmt 0
 1097              	# 707 "src/kernel/riscv.cpp" 1
 708              	    asm("mv a1,%[a1]"::  [a1]"r"(a1));
 1098              		sd a0, 80(a1)
 1099              	# 0 "" 2
 1100              		.loc 1 708 5 is_stmt 1
 1101              		.loc 1 708 38 is_stmt 0
 1102              	# 708 "src/kernel/riscv.cpp" 1
 709              	}
 1103              		mv a1,a5
 1104              	# 0 "" 2
 1105              		.loc 1 709 1
 1106              	#NO_APP
 1107 065c 03348100 		ld	s0,8(sp)
 1108              		.cfi_restore 8
 1109              		.cfi_def_cfa 2, 16
 1110 0660 13010101 		addi	sp,sp,16
 1111              		.cfi_def_cfa_offset 0
 1112 0664 67800000 		jr	ra
 1113              		.cfi_endproc
 1114              	.LFE66:
 1116              		.align	2
 1117              		.globl	_ZN5RiscV22executeMemAllocSyscallEv
 1119              	_ZN5RiscV22executeMemAllocSyscallEv:
GAS LISTING /tmp/ccI3Gnq8.s 			page 39


 1120              	.LFB48:
 319:src/kernel/riscv.cpp **** 
 1121              		.loc 1 319 37 is_stmt 1
 1122              		.cfi_startproc
 1123 0668 130101FF 		addi	sp,sp,-16
 1124              		.cfi_def_cfa_offset 16
 1125 066c 23341100 		sd	ra,8(sp)
 1126 0670 23308100 		sd	s0,0(sp)
 1127              		.cfi_offset 1, -8
 1128              		.cfi_offset 8, -16
 1129 0674 13040101 		addi	s0,sp,16
 1130              		.cfi_def_cfa 8, 0
 322:src/kernel/riscv.cpp ****     asm("mv %[size], a1" : [size] "=r" (size));
 1131              		.loc 1 322 5
 323:src/kernel/riscv.cpp **** 
 1132              		.loc 1 323 5
 323:src/kernel/riscv.cpp **** 
 1133              		.loc 1 323 47 is_stmt 0
 1134              	#APP
 1135              	# 323 "src/kernel/riscv.cpp" 1
 1136              		mv a0, a1
 1137              	# 0 "" 2
 1138              	.LVL103:
 326:src/kernel/riscv.cpp **** 
 1139              		.loc 1 326 5 is_stmt 1
 326:src/kernel/riscv.cpp **** 
 1140              		.loc 1 326 50 is_stmt 0
 1141              	#NO_APP
 1142 067c 97000000 		call	_ZN15MemoryAllocator7kmallocEm@plt
 1142      E7800000 
 1143              	.LVL104:
 328:src/kernel/riscv.cpp **** 
 1144              		.loc 1 328 5 is_stmt 1
 328:src/kernel/riscv.cpp **** 
 1145              		.loc 1 328 48 is_stmt 0
 1146              	#APP
 1147              	# 328 "src/kernel/riscv.cpp" 1
 330:src/kernel/riscv.cpp **** }
 1148              		mv a0, a0
 1149              	# 0 "" 2
 1150              		.loc 1 330 5 is_stmt 1
 330:src/kernel/riscv.cpp **** }
 1151              		.loc 1 330 28 is_stmt 0
 1152              	#NO_APP
 1153 0688 97000000 		call	_ZN5RiscV16saveA0toSscratchEv
 1153      E7800000 
 1154              	.LVL105:
 331:src/kernel/riscv.cpp **** 
 1155              		.loc 1 331 1
 1156 0690 83308100 		ld	ra,8(sp)
 1157              		.cfi_restore 1
 1158 0694 03340100 		ld	s0,0(sp)
 1159              		.cfi_restore 8
 1160              		.cfi_def_cfa 2, 16
 1161 0698 13010101 		addi	sp,sp,16
 1162              		.cfi_def_cfa_offset 0
 1163 069c 67800000 		jr	ra
GAS LISTING /tmp/ccI3Gnq8.s 			page 40


 1164              		.cfi_endproc
 1165              	.LFE48:
 1167              		.align	2
 1168              		.globl	_ZN5RiscV21executeMemFreeSyscallEv
 1170              	_ZN5RiscV21executeMemFreeSyscallEv:
 1171              	.LFB49:
 333:src/kernel/riscv.cpp **** 
 1172              		.loc 1 333 37 is_stmt 1
 1173              		.cfi_startproc
 1174 06a0 130101FF 		addi	sp,sp,-16
 1175              		.cfi_def_cfa_offset 16
 1176 06a4 23341100 		sd	ra,8(sp)
 1177 06a8 23308100 		sd	s0,0(sp)
 1178              		.cfi_offset 1, -8
 1179              		.cfi_offset 8, -16
 1180 06ac 13040101 		addi	s0,sp,16
 1181              		.cfi_def_cfa 8, 0
 336:src/kernel/riscv.cpp **** 
 1182              		.loc 1 336 5
 339:src/kernel/riscv.cpp ****         //call internal allocator and free memory which iaddr points to
 1183              		.loc 1 339 5
 1184 06b0 97070000 		la	a5,_ZN15MemoryAllocator11initializedE
 1184      83B70700 
 1185 06b8 83C70700 		lbu	a5,0(a5)
 1186 06bc 63920702 		bnez	a5,.L59
 345:src/kernel/riscv.cpp **** 
 1187              		.loc 1 345 16 is_stmt 0
 1188 06c0 1305F0FF 		li	a0,-1
 1189              	.L56:
 1190              	.LVL106:
 348:src/kernel/riscv.cpp **** 
 1191              		.loc 1 348 5 is_stmt 1
 348:src/kernel/riscv.cpp **** 
 1192              		.loc 1 348 54 is_stmt 0
 1193              	#APP
 1194              	# 348 "src/kernel/riscv.cpp" 1
 350:src/kernel/riscv.cpp **** }
 1195              		mv a0, a0
 1196              	# 0 "" 2
 1197              		.loc 1 350 5 is_stmt 1
 350:src/kernel/riscv.cpp **** }
 1198              		.loc 1 350 28 is_stmt 0
 1199              	#NO_APP
 1200 06c8 97000000 		call	_ZN5RiscV16saveA0toSscratchEv
 1200      E7800000 
 1201              	.LVL107:
 351:src/kernel/riscv.cpp **** 
 1202              		.loc 1 351 1
 1203 06d0 83308100 		ld	ra,8(sp)
 1204              		.cfi_remember_state
 1205              		.cfi_restore 1
 1206 06d4 03340100 		ld	s0,0(sp)
 1207              		.cfi_restore 8
 1208              		.cfi_def_cfa 2, 16
 1209 06d8 13010101 		addi	sp,sp,16
 1210              		.cfi_def_cfa_offset 0
 1211 06dc 67800000 		jr	ra
GAS LISTING /tmp/ccI3Gnq8.s 			page 41


 1212              	.L59:
 1213              		.cfi_restore_state
 341:src/kernel/riscv.cpp ****         status = MemoryAllocator::kfree((void *) iaddr);;
 1214              		.loc 1 341 9 is_stmt 1
 341:src/kernel/riscv.cpp ****         status = MemoryAllocator::kfree((void *) iaddr);;
 1215              		.loc 1 341 53 is_stmt 0
 1216              	#APP
 1217              	# 341 "src/kernel/riscv.cpp" 1
 1218              		mv a0, a1
 1219              	# 0 "" 2
 1220              	.LVL108:
 342:src/kernel/riscv.cpp ****     }
 1221              		.loc 1 342 9 is_stmt 1
 342:src/kernel/riscv.cpp ****     }
 1222              		.loc 1 342 40 is_stmt 0
 1223              	#NO_APP
 1224 06e4 97000000 		call	_ZN15MemoryAllocator5kfreeEPv@plt
 1224      E7800000 
 1225              	.LVL109:
 342:src/kernel/riscv.cpp ****     }
 1226              		.loc 1 342 57 is_stmt 1
 1227 06ec 6FF09FFD 		j	.L56
 1228              		.cfi_endproc
 1229              	.LFE49:
 1231              		.align	2
 1232              		.globl	_ZN5RiscV26executeThreadCreateSyscallEv
 1234              	_ZN5RiscV26executeThreadCreateSyscallEv:
 1235              	.LFB50:
 353:src/kernel/riscv.cpp **** 
 1236              		.loc 1 353 41
 1237              		.cfi_startproc
 1238              		.cfi_personality 0x9b,DW.ref.__gxx_personality_v0
 1239              		.cfi_lsda 0x1b,.LLSDA50
 1240 06f0 130101FC 		addi	sp,sp,-64
 1241              		.cfi_def_cfa_offset 64
 1242 06f4 233C1102 		sd	ra,56(sp)
 1243 06f8 23388102 		sd	s0,48(sp)
 1244 06fc 23349102 		sd	s1,40(sp)
 1245 0700 23302103 		sd	s2,32(sp)
 1246 0704 233C3101 		sd	s3,24(sp)
 1247 0708 23384101 		sd	s4,16(sp)
 1248 070c 23345101 		sd	s5,8(sp)
 1249              		.cfi_offset 1, -8
 1250              		.cfi_offset 8, -16
 1251              		.cfi_offset 9, -24
 1252              		.cfi_offset 18, -32
 1253              		.cfi_offset 19, -40
 1254              		.cfi_offset 20, -48
 1255              		.cfi_offset 21, -56
 1256 0710 13040104 		addi	s0,sp,64
 1257              		.cfi_def_cfa 8, 0
 356:src/kernel/riscv.cpp **** 
 1258              		.loc 1 356 5
 358:src/kernel/riscv.cpp ****     asm("mv %[ihandle], a1" : [ihandle] "=r"(ihandle));
 1259              		.loc 1 358 5
 358:src/kernel/riscv.cpp ****     asm("mv %[ihandle], a1" : [ihandle] "=r"(ihandle));
 1260              		.loc 1 358 52 is_stmt 0
GAS LISTING /tmp/ccI3Gnq8.s 			page 42


 1261              	#APP
 1262              	# 358 "src/kernel/riscv.cpp" 1
 1263              		mv s5, a7
 1264              	# 0 "" 2
 1265              	.LVL110:
 359:src/kernel/riscv.cpp ****     asm("mv %[iroutine], a2" : [iroutine] "=r"(iroutine));
 1266              		.loc 1 359 5 is_stmt 1
 359:src/kernel/riscv.cpp ****     asm("mv %[iroutine], a2" : [iroutine] "=r"(iroutine));
 1267              		.loc 1 359 55 is_stmt 0
 1268              	# 359 "src/kernel/riscv.cpp" 1
 1269              		mv s2, a1
 1270              	# 0 "" 2
 1271              	.LVL111:
 360:src/kernel/riscv.cpp ****     asm("mv %[iargs], a3" : [iargs] "=r"(iargs));
 1272              		.loc 1 360 5 is_stmt 1
 360:src/kernel/riscv.cpp ****     asm("mv %[iargs], a3" : [iargs] "=r"(iargs));
 1273              		.loc 1 360 58 is_stmt 0
 1274              	# 360 "src/kernel/riscv.cpp" 1
 1275              		mv s3, a2
 1276              	# 0 "" 2
 1277              	.LVL112:
 361:src/kernel/riscv.cpp **** 
 1278              		.loc 1 361 5 is_stmt 1
 361:src/kernel/riscv.cpp **** 
 1279              		.loc 1 361 49 is_stmt 0
 1280              	# 361 "src/kernel/riscv.cpp" 1
 1281              		mv s4, a3
 1282              	# 0 "" 2
 1283              	.LVL113:
 364:src/kernel/riscv.cpp **** 
 1284              		.loc 1 364 5 is_stmt 1
 364:src/kernel/riscv.cpp **** 
 1285              		.loc 1 364 94 is_stmt 0
 1286              	#NO_APP
 1287 0724 13050007 		li	a0,112
 1288              	.LEHB0:
 1289 0728 97000000 		call	_ZN3TCBnwEm@plt
 1289      E7800000 
 1290              	.LVL114:
 1291              	.LEHE0:
 1292 0730 93040500 		mv	s1,a0
 1293 0734 630E0500 		beqz	a0,.L61
 364:src/kernel/riscv.cpp **** 
 1294              		.loc 1 364 94 discriminator 1
 1295 0738 13072000 		li	a4,2
 1296 073c 93860A00 		mv	a3,s5
 1297 0740 13060A00 		mv	a2,s4
 1298 0744 93850900 		mv	a1,s3
 1299              	.LEHB1:
 1300 0748 97000000 		call	_ZN3TCBC1EPFvPvES0_Pmm@plt
 1300      E7800000 
 1301              	.LVL115:
 1302              	.LEHE1:
 1303              	.L61:
 366:src/kernel/riscv.cpp **** 
 1304              		.loc 1 366 5 is_stmt 1 discriminator 6
 368:src/kernel/riscv.cpp ****         status = -1;
GAS LISTING /tmp/ccI3Gnq8.s 			page 43


 1305              		.loc 1 368 5 discriminator 6
 1306 0750 63880404 		beqz	s1,.L65
 372:src/kernel/riscv.cpp ****             Scheduler::put(tcb);
 1307              		.loc 1 372 9
 372:src/kernel/riscv.cpp ****             Scheduler::put(tcb);
 1308              		.loc 1 372 17 is_stmt 0
 1309 0754 83B78401 		ld	a5,24(s1)
 372:src/kernel/riscv.cpp ****             Scheduler::put(tcb);
 1310              		.loc 1 372 9
 1311 0758 63880700 		beqz	a5,.L63
 373:src/kernel/riscv.cpp ****         *((TCB**)ihandle) = tcb;
 1312              		.loc 1 373 13 is_stmt 1
 373:src/kernel/riscv.cpp ****         *((TCB**)ihandle) = tcb;
 1313              		.loc 1 373 27 is_stmt 0
 1314 075c 13850400 		mv	a0,s1
 1315              	.LEHB2:
 1316 0760 97000000 		call	_ZN9Scheduler3putEP3TCB@plt
 1316      E7800000 
 1317              	.LVL116:
 1318              	.LEHE2:
 1319              	.L63:
 374:src/kernel/riscv.cpp ****     }
 1320              		.loc 1 374 9 is_stmt 1
 374:src/kernel/riscv.cpp ****     }
 1321              		.loc 1 374 27 is_stmt 0
 1322 0768 23309900 		sd	s1,0(s2)
 366:src/kernel/riscv.cpp **** 
 1323              		.loc 1 366 12
 1324 076c 93070000 		li	a5,0
 1325              	.L62:
 1326              	.LVL117:
 378:src/kernel/riscv.cpp **** 
 1327              		.loc 1 378 5 is_stmt 1
 378:src/kernel/riscv.cpp **** 
 1328              		.loc 1 378 54 is_stmt 0
 1329              	#APP
 1330              	# 378 "src/kernel/riscv.cpp" 1
 380:src/kernel/riscv.cpp **** }
 1331              		mv a0, a5
 1332              	# 0 "" 2
 1333              		.loc 1 380 5 is_stmt 1
 380:src/kernel/riscv.cpp **** }
 1334              		.loc 1 380 28 is_stmt 0
 1335              	#NO_APP
 1336 0774 97000000 		call	_ZN5RiscV16saveA0toSscratchEv
 1336      E7800000 
 1337              	.LVL118:
 381:src/kernel/riscv.cpp **** 
 1338              		.loc 1 381 1
 1339 077c 83308103 		ld	ra,56(sp)
 1340              		.cfi_remember_state
 1341              		.cfi_restore 1
 1342 0780 03340103 		ld	s0,48(sp)
 1343              		.cfi_restore 8
 1344              		.cfi_def_cfa 2, 64
 1345 0784 83348102 		ld	s1,40(sp)
 1346              		.cfi_restore 9
GAS LISTING /tmp/ccI3Gnq8.s 			page 44


 1347              	.LVL119:
 1348 0788 03390102 		ld	s2,32(sp)
 1349              		.cfi_restore 18
 1350              	.LVL120:
 1351 078c 83398101 		ld	s3,24(sp)
 1352              		.cfi_restore 19
 1353              	.LVL121:
 1354 0790 033A0101 		ld	s4,16(sp)
 1355              		.cfi_restore 20
 1356              	.LVL122:
 1357 0794 833A8100 		ld	s5,8(sp)
 1358              		.cfi_restore 21
 1359              	.LVL123:
 1360 0798 13010104 		addi	sp,sp,64
 1361              		.cfi_def_cfa_offset 0
 1362 079c 67800000 		jr	ra
 1363              	.LVL124:
 1364              	.L65:
 1365              		.cfi_restore_state
 369:src/kernel/riscv.cpp ****     }
 1366              		.loc 1 369 16
 1367 07a0 9307F0FF 		li	a5,-1
 1368 07a4 6FF0DFFC 		j	.L62
 1369              	.LVL125:
 1370              	.L66:
 1371 07a8 13090500 		mv	s2,a0
 1372              	.LVL126:
 364:src/kernel/riscv.cpp **** 
 1373              		.loc 1 364 94
 1374 07ac 13850400 		mv	a0,s1
 1375 07b0 97000000 		call	_ZN3TCBdlEPv@plt
 1375      E7800000 
 1376              	.LVL127:
 1377 07b8 13050900 		mv	a0,s2
 1378              	.LEHB3:
 1379 07bc 97000000 		call	_Unwind_Resume@plt
 1379      E7800000 
 1380              	.LVL128:
 1381              	.LEHE3:
 1382              		.cfi_endproc
 1383              	.LFE50:
 1384              		.globl	__gxx_personality_v0
 1385              		.section	.gcc_except_table,"a",@progbits
 1386              	.LLSDA50:
 1387 0000 FF       		.byte	0xff
 1388 0001 FF       		.byte	0xff
 1389 0002 03       		.byte	0x3
 1390 0003 34       		.byte	0x34
 1391 0004 00000000 		.4byte	.LEHB0-.LFB50
 1392 0008 00000000 		.4byte	.LEHE0-.LEHB0
 1393 000c 00000000 		.4byte	0
 1394 0010 00       		.byte	0
 1395 0011 00000000 		.4byte	.LEHB1-.LFB50
 1396 0015 00000000 		.4byte	.LEHE1-.LEHB1
 1397 0019 00000000 		.4byte	.L66-.LFB50
 1398 001d 00       		.byte	0
 1399 001e 00000000 		.4byte	.LEHB2-.LFB50
GAS LISTING /tmp/ccI3Gnq8.s 			page 45


 1400 0022 00000000 		.4byte	.LEHE2-.LEHB2
 1401 0026 00000000 		.4byte	0
 1402 002a 00       		.byte	0
 1403 002b 00000000 		.4byte	.LEHB3-.LFB50
 1404 002f 00000000 		.4byte	.LEHE3-.LEHB3
 1405 0033 00000000 		.4byte	0
 1406 0037 00       		.byte	0
 1407              		.text
 1409              		.align	2
 1410              		.globl	_ZN5RiscV30executeThreadAttachBodySyscallEv
 1412              	_ZN5RiscV30executeThreadAttachBodySyscallEv:
 1413              	.LFB51:
 383:src/kernel/riscv.cpp **** 
 1414              		.loc 1 383 45 is_stmt 1
 1415              		.cfi_startproc
 1416              		.cfi_personality 0x9b,DW.ref.__gxx_personality_v0
 1417              		.cfi_lsda 0x1b,.LLSDA51
 1418 07c4 130101FC 		addi	sp,sp,-64
 1419              		.cfi_def_cfa_offset 64
 1420 07c8 233C1102 		sd	ra,56(sp)
 1421 07cc 23388102 		sd	s0,48(sp)
 1422 07d0 23349102 		sd	s1,40(sp)
 1423 07d4 23302103 		sd	s2,32(sp)
 1424 07d8 233C3101 		sd	s3,24(sp)
 1425 07dc 23384101 		sd	s4,16(sp)
 1426 07e0 23345101 		sd	s5,8(sp)
 1427              		.cfi_offset 1, -8
 1428              		.cfi_offset 8, -16
 1429              		.cfi_offset 9, -24
 1430              		.cfi_offset 18, -32
 1431              		.cfi_offset 19, -40
 1432              		.cfi_offset 20, -48
 1433              		.cfi_offset 21, -56
 1434 07e4 13040104 		addi	s0,sp,64
 1435              		.cfi_def_cfa 8, 0
 386:src/kernel/riscv.cpp **** 
 1436              		.loc 1 386 5
 389:src/kernel/riscv.cpp ****     asm("mv %[ihandle], a1" : [ihandle] "=r"(ihandle));
 1437              		.loc 1 389 5
 389:src/kernel/riscv.cpp ****     asm("mv %[ihandle], a1" : [ihandle] "=r"(ihandle));
 1438              		.loc 1 389 52 is_stmt 0
 1439              	#APP
 1440              	# 389 "src/kernel/riscv.cpp" 1
 1441              		mv s5, a7
 1442              	# 0 "" 2
 1443              	.LVL129:
 390:src/kernel/riscv.cpp ****     asm("mv %[iroutine], a2" : [iroutine] "=r"(iroutine));
 1444              		.loc 1 390 5 is_stmt 1
 390:src/kernel/riscv.cpp ****     asm("mv %[iroutine], a2" : [iroutine] "=r"(iroutine));
 1445              		.loc 1 390 55 is_stmt 0
 1446              	# 390 "src/kernel/riscv.cpp" 1
 1447              		mv s4, a1
 1448              	# 0 "" 2
 1449              	.LVL130:
 391:src/kernel/riscv.cpp ****     asm("mv %[iargs], a3" : [iargs] "=r"(iargs));
 1450              		.loc 1 391 5 is_stmt 1
 391:src/kernel/riscv.cpp ****     asm("mv %[iargs], a3" : [iargs] "=r"(iargs));
GAS LISTING /tmp/ccI3Gnq8.s 			page 46


 1451              		.loc 1 391 58 is_stmt 0
 1452              	# 391 "src/kernel/riscv.cpp" 1
 1453              		mv s3, a2
 1454              	# 0 "" 2
 1455              	.LVL131:
 392:src/kernel/riscv.cpp **** 
 1456              		.loc 1 392 5 is_stmt 1
 392:src/kernel/riscv.cpp **** 
 1457              		.loc 1 392 49 is_stmt 0
 1458              	# 392 "src/kernel/riscv.cpp" 1
 1459              		mv s2, a3
 1460              	# 0 "" 2
 1461              	.LVL132:
 394:src/kernel/riscv.cpp **** 
 1462              		.loc 1 394 5 is_stmt 1
 394:src/kernel/riscv.cpp **** 
 1463              		.loc 1 394 94 is_stmt 0
 1464              	#NO_APP
 1465 07f8 13050007 		li	a0,112
 1466              	.LEHB4:
 1467 07fc 97000000 		call	_ZN3TCBnwEm@plt
 1467      E7800000 
 1468              	.LVL133:
 1469              	.LEHE4:
 1470 0804 93040500 		mv	s1,a0
 1471 0808 630E0500 		beqz	a0,.L70
 394:src/kernel/riscv.cpp **** 
 1472              		.loc 1 394 94 discriminator 1
 1473 080c 13072000 		li	a4,2
 1474 0810 93860A00 		mv	a3,s5
 1475 0814 13060900 		mv	a2,s2
 1476 0818 93850900 		mv	a1,s3
 1477              	.LEHB5:
 1478 081c 97000000 		call	_ZN3TCBC1EPFvPvES0_Pmm@plt
 1478      E7800000 
 1479              	.LVL134:
 1480              	.LEHE5:
 1481              	.L70:
 396:src/kernel/riscv.cpp **** 
 1482              		.loc 1 396 5 is_stmt 1 discriminator 6
 398:src/kernel/riscv.cpp ****         status = -1;
 1483              		.loc 1 398 5 discriminator 6
 1484 0824 63820404 		beqz	s1,.L73
 402:src/kernel/riscv.cpp ****         tcb->args = (void*)iargs;
 1485              		.loc 1 402 9
 402:src/kernel/riscv.cpp ****         tcb->args = (void*)iargs;
 1486              		.loc 1 402 19 is_stmt 0
 1487 0828 23BC3401 		sd	s3,24(s1)
 403:src/kernel/riscv.cpp ****         *((TCB**)ihandle) = tcb;
 1488              		.loc 1 403 9 is_stmt 1
 403:src/kernel/riscv.cpp ****         *((TCB**)ihandle) = tcb;
 1489              		.loc 1 403 19 is_stmt 0
 1490 082c 23B02403 		sd	s2,32(s1)
 404:src/kernel/riscv.cpp ****     }
 1491              		.loc 1 404 9 is_stmt 1
 404:src/kernel/riscv.cpp ****     }
 1492              		.loc 1 404 27 is_stmt 0
GAS LISTING /tmp/ccI3Gnq8.s 			page 47


 1493 0830 23309A00 		sd	s1,0(s4)
 396:src/kernel/riscv.cpp **** 
 1494              		.loc 1 396 12
 1495 0834 93070000 		li	a5,0
 1496              	.L71:
 1497              	.LVL135:
 407:src/kernel/riscv.cpp **** 
 1498              		.loc 1 407 5 is_stmt 1
 407:src/kernel/riscv.cpp **** 
 1499              		.loc 1 407 54 is_stmt 0
 1500              	#APP
 1501              	# 407 "src/kernel/riscv.cpp" 1
 409:src/kernel/riscv.cpp **** }
 1502              		mv a0, a5
 1503              	# 0 "" 2
 1504              		.loc 1 409 5 is_stmt 1
 409:src/kernel/riscv.cpp **** }
 1505              		.loc 1 409 28 is_stmt 0
 1506              	#NO_APP
 1507 083c 97000000 		call	_ZN5RiscV16saveA0toSscratchEv
 1507      E7800000 
 1508              	.LVL136:
 410:src/kernel/riscv.cpp **** 
 1509              		.loc 1 410 1
 1510 0844 83308103 		ld	ra,56(sp)
 1511              		.cfi_remember_state
 1512              		.cfi_restore 1
 1513 0848 03340103 		ld	s0,48(sp)
 1514              		.cfi_restore 8
 1515              		.cfi_def_cfa 2, 64
 1516 084c 83348102 		ld	s1,40(sp)
 1517              		.cfi_restore 9
 1518              	.LVL137:
 1519 0850 03390102 		ld	s2,32(sp)
 1520              		.cfi_restore 18
 1521              	.LVL138:
 1522 0854 83398101 		ld	s3,24(sp)
 1523              		.cfi_restore 19
 1524              	.LVL139:
 1525 0858 033A0101 		ld	s4,16(sp)
 1526              		.cfi_restore 20
 1527              	.LVL140:
 1528 085c 833A8100 		ld	s5,8(sp)
 1529              		.cfi_restore 21
 1530              	.LVL141:
 1531 0860 13010104 		addi	sp,sp,64
 1532              		.cfi_def_cfa_offset 0
 1533 0864 67800000 		jr	ra
 1534              	.LVL142:
 1535              	.L73:
 1536              		.cfi_restore_state
 399:src/kernel/riscv.cpp ****     }
 1537              		.loc 1 399 16
 1538 0868 9307F0FF 		li	a5,-1
 1539 086c 6FF0DFFC 		j	.L71
 1540              	.LVL143:
 1541              	.L74:
GAS LISTING /tmp/ccI3Gnq8.s 			page 48


 1542 0870 13090500 		mv	s2,a0
 1543              	.LVL144:
 394:src/kernel/riscv.cpp **** 
 1544              		.loc 1 394 94
 1545 0874 13850400 		mv	a0,s1
 1546 0878 97000000 		call	_ZN3TCBdlEPv@plt
 1546      E7800000 
 1547              	.LVL145:
 1548 0880 13050900 		mv	a0,s2
 1549              	.LEHB6:
 1550 0884 97000000 		call	_Unwind_Resume@plt
 1550      E7800000 
 1551              	.LVL146:
 1552              	.LEHE6:
 1553              		.cfi_endproc
 1554              	.LFE51:
 1555              		.section	.gcc_except_table
 1556              	.LLSDA51:
 1557 0038 FF       		.byte	0xff
 1558 0039 FF       		.byte	0xff
 1559 003a 03       		.byte	0x3
 1560 003b 27       		.byte	0x27
 1561 003c 00000000 		.4byte	.LEHB4-.LFB51
 1562 0040 00000000 		.4byte	.LEHE4-.LEHB4
 1563 0044 00000000 		.4byte	0
 1564 0048 00       		.byte	0
 1565 0049 00000000 		.4byte	.LEHB5-.LFB51
 1566 004d 00000000 		.4byte	.LEHE5-.LEHB5
 1567 0051 00000000 		.4byte	.L74-.LFB51
 1568 0055 00       		.byte	0
 1569 0056 00000000 		.4byte	.LEHB6-.LFB51
 1570 005a 00000000 		.4byte	.LEHE6-.LEHB6
 1571 005e 00000000 		.4byte	0
 1572 0062 00       		.byte	0
 1573              		.text
 1575              		.align	2
 1576              		.globl	_ZN5RiscV25executeThreadStartSyscallEv
 1578              	_ZN5RiscV25executeThreadStartSyscallEv:
 1579              	.LFB52:
 412:src/kernel/riscv.cpp **** 
 1580              		.loc 1 412 40 is_stmt 1
 1581              		.cfi_startproc
 1582 088c 130101FF 		addi	sp,sp,-16
 1583              		.cfi_def_cfa_offset 16
 1584 0890 23341100 		sd	ra,8(sp)
 1585 0894 23308100 		sd	s0,0(sp)
 1586              		.cfi_offset 1, -8
 1587              		.cfi_offset 8, -16
 1588 0898 13040101 		addi	s0,sp,16
 1589              		.cfi_def_cfa 8, 0
 415:src/kernel/riscv.cpp **** 
 1590              		.loc 1 415 5
 417:src/kernel/riscv.cpp **** 
 1591              		.loc 1 417 5
 417:src/kernel/riscv.cpp **** 
 1592              		.loc 1 417 55 is_stmt 0
 1593              	#APP
GAS LISTING /tmp/ccI3Gnq8.s 			page 49


 1594              	# 417 "src/kernel/riscv.cpp" 1
 1595              		mv a0, a1
 1596              	# 0 "" 2
 1597              	.LVL147:
 420:src/kernel/riscv.cpp **** 
 1598              		.loc 1 420 5 is_stmt 1
 422:src/kernel/riscv.cpp **** 
 1599              		.loc 1 422 5
 424:src/kernel/riscv.cpp ****         status = -1;
 1600              		.loc 1 424 5
 1601              	#NO_APP
 1602 08a0 63120502 		bnez	a0,.L81
 425:src/kernel/riscv.cpp ****     }
 1603              		.loc 1 425 16 is_stmt 0
 1604 08a4 9307F0FF 		li	a5,-1
 1605              	.LVL148:
 1606              	.L78:
 434:src/kernel/riscv.cpp **** 
 1607              		.loc 1 434 5 is_stmt 1
 434:src/kernel/riscv.cpp **** 
 1608              		.loc 1 434 54 is_stmt 0
 1609              	#APP
 1610              	# 434 "src/kernel/riscv.cpp" 1
 436:src/kernel/riscv.cpp **** }
 1611              		mv a0, a5
 1612              	# 0 "" 2
 1613              		.loc 1 436 5 is_stmt 1
 436:src/kernel/riscv.cpp **** }
 1614              		.loc 1 436 28 is_stmt 0
 1615              	#NO_APP
 1616 08ac 97000000 		call	_ZN5RiscV16saveA0toSscratchEv
 1616      E7800000 
 1617              	.LVL149:
 437:src/kernel/riscv.cpp **** 
 1618              		.loc 1 437 1
 1619 08b4 83308100 		ld	ra,8(sp)
 1620              		.cfi_remember_state
 1621              		.cfi_restore 1
 1622 08b8 03340100 		ld	s0,0(sp)
 1623              		.cfi_restore 8
 1624              		.cfi_def_cfa 2, 16
 1625 08bc 13010101 		addi	sp,sp,16
 1626              		.cfi_def_cfa_offset 0
 1627 08c0 67800000 		jr	ra
 1628              	.LVL150:
 1629              	.L81:
 1630              		.cfi_restore_state
 428:src/kernel/riscv.cpp ****         Scheduler::put(tcb);
 1631              		.loc 1 428 9 is_stmt 1
 428:src/kernel/riscv.cpp ****         Scheduler::put(tcb);
 1632              		.loc 1 428 21 is_stmt 0
 1633 08c4 93071000 		li	a5,1
 1634 08c8 2328F500 		sw	a5,16(a0)
 429:src/kernel/riscv.cpp ****         TCB::dispatch();
 1635              		.loc 1 429 9 is_stmt 1
 429:src/kernel/riscv.cpp ****         TCB::dispatch();
 1636              		.loc 1 429 23 is_stmt 0
GAS LISTING /tmp/ccI3Gnq8.s 			page 50


 1637 08cc 97000000 		call	_ZN9Scheduler3putEP3TCB@plt
 1637      E7800000 
 1638              	.LVL151:
 430:src/kernel/riscv.cpp ****     }
 1639              		.loc 1 430 9 is_stmt 1
 430:src/kernel/riscv.cpp ****     }
 1640              		.loc 1 430 22 is_stmt 0
 1641 08d4 97000000 		call	_ZN3TCB8dispatchEv@plt
 1641      E7800000 
 1642              	.LVL152:
 422:src/kernel/riscv.cpp **** 
 1643              		.loc 1 422 12
 1644 08dc 93070000 		li	a5,0
 1645 08e0 6FF09FFC 		j	.L78
 1646              		.cfi_endproc
 1647              	.LFE52:
 1649              		.align	2
 1650              		.globl	_ZN5RiscV24executeThreadExitSyscallEv
 1652              	_ZN5RiscV24executeThreadExitSyscallEv:
 1653              	.LFB53:
 439:src/kernel/riscv.cpp **** 
 1654              		.loc 1 439 40 is_stmt 1
 1655              		.cfi_startproc
 1656 08e4 130101FF 		addi	sp,sp,-16
 1657              		.cfi_def_cfa_offset 16
 1658 08e8 23341100 		sd	ra,8(sp)
 1659 08ec 23308100 		sd	s0,0(sp)
 1660              		.cfi_offset 1, -8
 1661              		.cfi_offset 8, -16
 1662 08f0 13040101 		addi	s0,sp,16
 1663              		.cfi_def_cfa 8, 0
 442:src/kernel/riscv.cpp **** 
 1664              		.loc 1 442 5
 1665              	.LVL153:
 445:src/kernel/riscv.cpp ****         status = -1;
 1666              		.loc 1 445 5
 1667              	.LBB135:
 445:src/kernel/riscv.cpp ****         status = -1;
 1668              		.loc 1 445 21 is_stmt 0
 1669 08f4 97070000 		la	a5,_ZN3TCB7runningE
 1669      83B70700 
 1670 08fc 83B70700 		ld	a5,0(a5)
 445:src/kernel/riscv.cpp ****         status = -1;
 1671              		.loc 1 445 5
 1672 0900 638A0702 		beqz	a5,.L84
 1673              	.LBB136:
 449:src/kernel/riscv.cpp ****         old->status = TCB::Status::FINISHED;
 1674              		.loc 1 449 9 is_stmt 1
 1675              	.LVL154:
 450:src/kernel/riscv.cpp ****         TCB::dispatch();
 1676              		.loc 1 450 9
 450:src/kernel/riscv.cpp ****         TCB::dispatch();
 1677              		.loc 1 450 21 is_stmt 0
 1678 0904 13072000 		li	a4,2
 1679 0908 23A8E700 		sw	a4,16(a5)
 451:src/kernel/riscv.cpp ****     }
 1680              		.loc 1 451 9 is_stmt 1
GAS LISTING /tmp/ccI3Gnq8.s 			page 51


 451:src/kernel/riscv.cpp ****     }
 1681              		.loc 1 451 22 is_stmt 0
 1682 090c 97000000 		call	_ZN3TCB8dispatchEv@plt
 1682      E7800000 
 1683              	.LVL155:
 1684              	.LBE136:
 1685              	.LBE135:
 442:src/kernel/riscv.cpp **** 
 1686              		.loc 1 442 12
 1687 0914 93070000 		li	a5,0
 1688              	.L83:
 1689              	.LVL156:
 454:src/kernel/riscv.cpp **** 
 1690              		.loc 1 454 5 is_stmt 1
 454:src/kernel/riscv.cpp **** 
 1691              		.loc 1 454 54 is_stmt 0
 1692              	#APP
 1693              	# 454 "src/kernel/riscv.cpp" 1
 456:src/kernel/riscv.cpp **** }
 1694              		mv a0, a5
 1695              	# 0 "" 2
 1696              		.loc 1 456 5 is_stmt 1
 456:src/kernel/riscv.cpp **** }
 1697              		.loc 1 456 28 is_stmt 0
 1698              	#NO_APP
 1699 091c 97000000 		call	_ZN5RiscV16saveA0toSscratchEv
 1699      E7800000 
 1700              	.LVL157:
 457:src/kernel/riscv.cpp **** 
 1701              		.loc 1 457 1
 1702 0924 83308100 		ld	ra,8(sp)
 1703              		.cfi_remember_state
 1704              		.cfi_restore 1
 1705 0928 03340100 		ld	s0,0(sp)
 1706              		.cfi_restore 8
 1707              		.cfi_def_cfa 2, 16
 1708 092c 13010101 		addi	sp,sp,16
 1709              		.cfi_def_cfa_offset 0
 1710 0930 67800000 		jr	ra
 1711              	.LVL158:
 1712              	.L84:
 1713              		.cfi_restore_state
 1714              	.LBB137:
 446:src/kernel/riscv.cpp ****     }
 1715              		.loc 1 446 16
 1716 0934 9307F0FF 		li	a5,-1
 1717 0938 6FF01FFE 		j	.L83
 1718              	.LBE137:
 1719              		.cfi_endproc
 1720              	.LFE53:
 1722              		.align	2
 1723              		.globl	_ZN5RiscV21executeSemOpenSyscallEv
 1725              	_ZN5RiscV21executeSemOpenSyscallEv:
 1726              	.LFB55:
 467:src/kernel/riscv.cpp **** 
 1727              		.loc 1 467 37 is_stmt 1
 1728              		.cfi_startproc
GAS LISTING /tmp/ccI3Gnq8.s 			page 52


 1729              		.cfi_personality 0x9b,DW.ref.__gxx_personality_v0
 1730              		.cfi_lsda 0x1b,.LLSDA55
 1731 093c 130101FD 		addi	sp,sp,-48
 1732              		.cfi_def_cfa_offset 48
 1733 0940 23341102 		sd	ra,40(sp)
 1734 0944 23308102 		sd	s0,32(sp)
 1735 0948 233C9100 		sd	s1,24(sp)
 1736 094c 23382101 		sd	s2,16(sp)
 1737 0950 23343101 		sd	s3,8(sp)
 1738              		.cfi_offset 1, -8
 1739              		.cfi_offset 8, -16
 1740              		.cfi_offset 9, -24
 1741              		.cfi_offset 18, -32
 1742              		.cfi_offset 19, -40
 1743 0954 13040103 		addi	s0,sp,48
 1744              		.cfi_def_cfa 8, 0
 470:src/kernel/riscv.cpp **** 
 1745              		.loc 1 470 5
 472:src/kernel/riscv.cpp ****     asm("mv %[iinit], a2" : [iinit] "=r"(iinit));
 1746              		.loc 1 472 5
 472:src/kernel/riscv.cpp ****     asm("mv %[iinit], a2" : [iinit] "=r"(iinit));
 1747              		.loc 1 472 55 is_stmt 0
 1748              	#APP
 1749              	# 472 "src/kernel/riscv.cpp" 1
 1750              		mv s2, a1
 1751              	# 0 "" 2
 1752              	.LVL159:
 473:src/kernel/riscv.cpp **** 
 1753              		.loc 1 473 5 is_stmt 1
 473:src/kernel/riscv.cpp **** 
 1754              		.loc 1 473 49 is_stmt 0
 1755              	# 473 "src/kernel/riscv.cpp" 1
 1756              		mv s3, a2
 1757              	# 0 "" 2
 1758              	.LVL160:
 476:src/kernel/riscv.cpp **** 
 1759              		.loc 1 476 5 is_stmt 1
 476:src/kernel/riscv.cpp **** 
 1760              		.loc 1 476 29 is_stmt 0
 1761              	#NO_APP
 1762 0960 13058001 		li	a0,24
 1763              	.LEHB7:
 1764 0964 97000000 		call	_ZN3SCBnwEm@plt
 1764      E7800000 
 1765              	.LVL161:
 1766              	.LEHE7:
 1767 096c 93040500 		mv	s1,a0
 1768 0970 63080500 		beqz	a0,.L87
 476:src/kernel/riscv.cpp **** 
 1769              		.loc 1 476 29 discriminator 1
 1770 0974 93850900 		mv	a1,s3
 1771              	.LEHB8:
 1772 0978 97000000 		call	_ZN3SCBC1Em@plt
 1772      E7800000 
 1773              	.LVL162:
 1774              	.LEHE8:
 1775              	.L87:
GAS LISTING /tmp/ccI3Gnq8.s 			page 53


 478:src/kernel/riscv.cpp **** 
 1776              		.loc 1 478 5 is_stmt 1 discriminator 6
 480:src/kernel/riscv.cpp ****         status = -1;
 1777              		.loc 1 480 5 discriminator 6
 1778 0980 638A0402 		beqz	s1,.L90
 484:src/kernel/riscv.cpp ****     }
 1779              		.loc 1 484 9
 484:src/kernel/riscv.cpp ****     }
 1780              		.loc 1 484 27 is_stmt 0
 1781 0984 23309900 		sd	s1,0(s2)
 478:src/kernel/riscv.cpp **** 
 1782              		.loc 1 478 12
 1783 0988 93070000 		li	a5,0
 1784              	.L88:
 1785              	.LVL163:
 488:src/kernel/riscv.cpp **** 
 1786              		.loc 1 488 5 is_stmt 1
 488:src/kernel/riscv.cpp **** 
 1787              		.loc 1 488 54 is_stmt 0
 1788              	#APP
 1789              	# 488 "src/kernel/riscv.cpp" 1
 490:src/kernel/riscv.cpp **** 
 1790              		mv a0, a5
 1791              	# 0 "" 2
 1792              		.loc 1 490 5 is_stmt 1
 490:src/kernel/riscv.cpp **** 
 1793              		.loc 1 490 28 is_stmt 0
 1794              	#NO_APP
 1795 0990 97000000 		call	_ZN5RiscV16saveA0toSscratchEv
 1795      E7800000 
 1796              	.LVL164:
 492:src/kernel/riscv.cpp **** 
 1797              		.loc 1 492 1
 1798 0998 83308102 		ld	ra,40(sp)
 1799              		.cfi_remember_state
 1800              		.cfi_restore 1
 1801 099c 03340102 		ld	s0,32(sp)
 1802              		.cfi_restore 8
 1803              		.cfi_def_cfa 2, 48
 1804 09a0 83348101 		ld	s1,24(sp)
 1805              		.cfi_restore 9
 1806              	.LVL165:
 1807 09a4 03390101 		ld	s2,16(sp)
 1808              		.cfi_restore 18
 1809              	.LVL166:
 1810 09a8 83398100 		ld	s3,8(sp)
 1811              		.cfi_restore 19
 1812              	.LVL167:
 1813 09ac 13010103 		addi	sp,sp,48
 1814              		.cfi_def_cfa_offset 0
 1815 09b0 67800000 		jr	ra
 1816              	.LVL168:
 1817              	.L90:
 1818              		.cfi_restore_state
 481:src/kernel/riscv.cpp ****     }
 1819              		.loc 1 481 16
 1820 09b4 9307F0FF 		li	a5,-1
GAS LISTING /tmp/ccI3Gnq8.s 			page 54


 1821 09b8 6FF05FFD 		j	.L88
 1822              	.LVL169:
 1823              	.L91:
 1824 09bc 13090500 		mv	s2,a0
 1825              	.LVL170:
 476:src/kernel/riscv.cpp **** 
 1826              		.loc 1 476 29
 1827 09c0 13850400 		mv	a0,s1
 1828 09c4 97000000 		call	_ZN3SCBdlEPv@plt
 1828      E7800000 
 1829              	.LVL171:
 1830 09cc 13050900 		mv	a0,s2
 1831              	.LEHB9:
 1832 09d0 97000000 		call	_Unwind_Resume@plt
 1832      E7800000 
 1833              	.LVL172:
 1834              	.LEHE9:
 1835              		.cfi_endproc
 1836              	.LFE55:
 1837              		.section	.gcc_except_table
 1838              	.LLSDA55:
 1839 0063 FF       		.byte	0xff
 1840 0064 FF       		.byte	0xff
 1841 0065 03       		.byte	0x3
 1842 0066 27       		.byte	0x27
 1843 0067 00000000 		.4byte	.LEHB7-.LFB55
 1844 006b 00000000 		.4byte	.LEHE7-.LEHB7
 1845 006f 00000000 		.4byte	0
 1846 0073 00       		.byte	0
 1847 0074 00000000 		.4byte	.LEHB8-.LFB55
 1848 0078 00000000 		.4byte	.LEHE8-.LEHB8
 1849 007c 00000000 		.4byte	.L91-.LFB55
 1850 0080 00       		.byte	0
 1851 0081 00000000 		.4byte	.LEHB9-.LFB55
 1852 0085 00000000 		.4byte	.LEHE9-.LEHB9
 1853 0089 00000000 		.4byte	0
 1854 008d 00       		.byte	0
 1855              		.text
 1857              		.align	2
 1858              		.globl	_ZN5RiscV22executeSemCloseSyscallEv
 1860              	_ZN5RiscV22executeSemCloseSyscallEv:
 1861              	.LFB56:
 494:src/kernel/riscv.cpp **** 
 1862              		.loc 1 494 38 is_stmt 1
 1863              		.cfi_startproc
 1864 09d8 130101FE 		addi	sp,sp,-32
 1865              		.cfi_def_cfa_offset 32
 1866 09dc 233C1100 		sd	ra,24(sp)
 1867 09e0 23388100 		sd	s0,16(sp)
 1868 09e4 23349100 		sd	s1,8(sp)
 1869              		.cfi_offset 1, -8
 1870              		.cfi_offset 8, -16
 1871              		.cfi_offset 9, -24
 1872 09e8 13040102 		addi	s0,sp,32
 1873              		.cfi_def_cfa 8, 0
 497:src/kernel/riscv.cpp **** 
 1874              		.loc 1 497 5
GAS LISTING /tmp/ccI3Gnq8.s 			page 55


 499:src/kernel/riscv.cpp **** 
 1875              		.loc 1 499 5
 499:src/kernel/riscv.cpp **** 
 1876              		.loc 1 499 55 is_stmt 0
 1877              	#APP
 1878              	# 499 "src/kernel/riscv.cpp" 1
 1879              		mv s1, a1
 1880              	# 0 "" 2
 1881              	.LVL173:
 502:src/kernel/riscv.cpp ****     uint64 status = 0;
 1882              		.loc 1 502 5 is_stmt 1
 503:src/kernel/riscv.cpp **** 
 1883              		.loc 1 503 5
 505:src/kernel/riscv.cpp ****         status = -1;
 1884              		.loc 1 505 5
 1885              	#NO_APP
 1886 09f0 63940402 		bnez	s1,.L98
 506:src/kernel/riscv.cpp ****     }
 1887              		.loc 1 506 16 is_stmt 0
 1888 09f4 9307F0FF 		li	a5,-1
 1889              	.L95:
 1890              	.LVL174:
 512:src/kernel/riscv.cpp **** 
 1891              		.loc 1 512 5 is_stmt 1
 512:src/kernel/riscv.cpp **** 
 1892              		.loc 1 512 54 is_stmt 0
 1893              	#APP
 1894              	# 512 "src/kernel/riscv.cpp" 1
 514:src/kernel/riscv.cpp **** }
 1895              		mv a0, a5
 1896              	# 0 "" 2
 1897              		.loc 1 514 5 is_stmt 1
 514:src/kernel/riscv.cpp **** }
 1898              		.loc 1 514 28 is_stmt 0
 1899              	#NO_APP
 1900 09fc 97000000 		call	_ZN5RiscV16saveA0toSscratchEv
 1900      E7800000 
 1901              	.LVL175:
 515:src/kernel/riscv.cpp **** 
 1902              		.loc 1 515 1
 1903 0a04 83308101 		ld	ra,24(sp)
 1904              		.cfi_remember_state
 1905              		.cfi_restore 1
 1906 0a08 03340101 		ld	s0,16(sp)
 1907              		.cfi_restore 8
 1908              		.cfi_def_cfa 2, 32
 1909 0a0c 83348100 		ld	s1,8(sp)
 1910              		.cfi_restore 9
 1911              	.LVL176:
 1912 0a10 13010102 		addi	sp,sp,32
 1913              		.cfi_def_cfa_offset 0
 1914 0a14 67800000 		jr	ra
 1915              	.LVL177:
 1916              	.L98:
 1917              		.cfi_restore_state
 509:src/kernel/riscv.cpp **** 
 1918              		.loc 1 509 9 is_stmt 1 discriminator 1
GAS LISTING /tmp/ccI3Gnq8.s 			page 56


 509:src/kernel/riscv.cpp **** 
 1919              		.loc 1 509 22 is_stmt 0 discriminator 1
 1920 0a18 13850400 		mv	a0,s1
 1921 0a1c 97000000 		call	_ZN3SCBD1Ev@plt
 1921      E7800000 
 1922              	.LVL178:
 1923 0a24 13850400 		mv	a0,s1
 1924 0a28 97000000 		call	_ZN3SCBdlEPv@plt
 1924      E7800000 
 1925              	.LVL179:
 503:src/kernel/riscv.cpp **** 
 1926              		.loc 1 503 12 discriminator 1
 1927 0a30 93070000 		li	a5,0
 1928 0a34 6FF05FFC 		j	.L95
 1929              		.cfi_endproc
 1930              	.LFE56:
 1932              		.align	2
 1933              		.globl	_ZN5RiscV21executeSemWaitSyscallEv
 1935              	_ZN5RiscV21executeSemWaitSyscallEv:
 1936              	.LFB57:
 517:src/kernel/riscv.cpp **** 
 1937              		.loc 1 517 37 is_stmt 1
 1938              		.cfi_startproc
 1939 0a38 130101FF 		addi	sp,sp,-16
 1940              		.cfi_def_cfa_offset 16
 1941 0a3c 23341100 		sd	ra,8(sp)
 1942 0a40 23308100 		sd	s0,0(sp)
 1943              		.cfi_offset 1, -8
 1944              		.cfi_offset 8, -16
 1945 0a44 13040101 		addi	s0,sp,16
 1946              		.cfi_def_cfa 8, 0
 520:src/kernel/riscv.cpp **** 
 1947              		.loc 1 520 5
 522:src/kernel/riscv.cpp **** 
 1948              		.loc 1 522 5
 522:src/kernel/riscv.cpp **** 
 1949              		.loc 1 522 55 is_stmt 0
 1950              	#APP
 1951              	# 522 "src/kernel/riscv.cpp" 1
 1952              		mv a0, a1
 1953              	# 0 "" 2
 1954              	.LVL180:
 524:src/kernel/riscv.cpp ****     //call wait method on ihandle scb
 1955              		.loc 1 524 5 is_stmt 1
 527:src/kernel/riscv.cpp ****         ((SCB*)ihandle)->wait();
 1956              		.loc 1 527 5
 1957              	#NO_APP
 1958 0a4c 631C0502 		bnez	a0,.L104
 1959              	.LVL181:
 1960              	.L100:
 532:src/kernel/riscv.cpp ****         status = -1;
 1961              		.loc 1 532 5
 532:src/kernel/riscv.cpp ****         status = -1;
 1962              		.loc 1 532 22 is_stmt 0
 1963 0a50 97070000 		la	a5,_ZN3TCB7runningE
 1963      83B70700 
 1964 0a58 83B70700 		ld	a5,0(a5)
GAS LISTING /tmp/ccI3Gnq8.s 			page 57


 1965 0a5c 83B70706 		ld	a5,96(a5)
 532:src/kernel/riscv.cpp ****         status = -1;
 1966              		.loc 1 532 5
 1967 0a60 63880702 		beqz	a5,.L102
 533:src/kernel/riscv.cpp ****     else
 1968              		.loc 1 533 16
 1969 0a64 9307F0FF 		li	a5,-1
 1970              	.L101:
 1971              	.LVL182:
 538:src/kernel/riscv.cpp **** 
 1972              		.loc 1 538 5 is_stmt 1
 538:src/kernel/riscv.cpp **** 
 1973              		.loc 1 538 54 is_stmt 0
 1974              	#APP
 1975              	# 538 "src/kernel/riscv.cpp" 1
 540:src/kernel/riscv.cpp **** 
 1976              		mv a0, a5
 1977              	# 0 "" 2
 1978              		.loc 1 540 5 is_stmt 1
 540:src/kernel/riscv.cpp **** 
 1979              		.loc 1 540 28 is_stmt 0
 1980              	#NO_APP
 1981 0a6c 97000000 		call	_ZN5RiscV16saveA0toSscratchEv
 1981      E7800000 
 1982              	.LVL183:
 542:src/kernel/riscv.cpp **** 
 1983              		.loc 1 542 1
 1984 0a74 83308100 		ld	ra,8(sp)
 1985              		.cfi_remember_state
 1986              		.cfi_restore 1
 1987 0a78 03340100 		ld	s0,0(sp)
 1988              		.cfi_restore 8
 1989              		.cfi_def_cfa 2, 16
 1990 0a7c 13010101 		addi	sp,sp,16
 1991              		.cfi_def_cfa_offset 0
 1992 0a80 67800000 		jr	ra
 1993              	.LVL184:
 1994              	.L104:
 1995              		.cfi_restore_state
 528:src/kernel/riscv.cpp ****     else
 1996              		.loc 1 528 9 is_stmt 1
 528:src/kernel/riscv.cpp ****     else
 1997              		.loc 1 528 30 is_stmt 0
 1998 0a84 97000000 		call	_ZN3SCB4waitEv@plt
 1998      E7800000 
 1999              	.LVL185:
 2000 0a8c 6FF05FFC 		j	.L100
 2001              	.LVL186:
 2002              	.L102:
 535:src/kernel/riscv.cpp **** 
 2003              		.loc 1 535 16
 2004 0a90 93070000 		li	a5,0
 2005 0a94 6FF05FFD 		j	.L101
 2006              		.cfi_endproc
 2007              	.LFE57:
 2009              		.align	2
 2010              		.globl	_ZN5RiscV23executeSemSignalSyscallEv
GAS LISTING /tmp/ccI3Gnq8.s 			page 58


 2012              	_ZN5RiscV23executeSemSignalSyscallEv:
 2013              	.LFB58:
 544:src/kernel/riscv.cpp **** 
 2014              		.loc 1 544 39 is_stmt 1
 2015              		.cfi_startproc
 2016 0a98 130101FF 		addi	sp,sp,-16
 2017              		.cfi_def_cfa_offset 16
 2018 0a9c 23341100 		sd	ra,8(sp)
 2019 0aa0 23308100 		sd	s0,0(sp)
 2020              		.cfi_offset 1, -8
 2021              		.cfi_offset 8, -16
 2022 0aa4 13040101 		addi	s0,sp,16
 2023              		.cfi_def_cfa 8, 0
 547:src/kernel/riscv.cpp **** 
 2024              		.loc 1 547 5
 549:src/kernel/riscv.cpp **** 
 2025              		.loc 1 549 5
 549:src/kernel/riscv.cpp **** 
 2026              		.loc 1 549 55 is_stmt 0
 2027              	#APP
 2028              	# 549 "src/kernel/riscv.cpp" 1
 2029              		mv a0, a1
 2030              	# 0 "" 2
 2031              	.LVL187:
 553:src/kernel/riscv.cpp **** 
 2032              		.loc 1 553 5 is_stmt 1
 555:src/kernel/riscv.cpp ****         ((SCB*)ihandle)->signal();
 2033              		.loc 1 555 5
 2034              	#NO_APP
 2035 0aac 63120502 		bnez	a0,.L109
 558:src/kernel/riscv.cpp **** 
 2036              		.loc 1 558 16 is_stmt 0
 2037 0ab0 9307F0FF 		li	a5,-1
 2038              	.LVL188:
 2039              	.L106:
 561:src/kernel/riscv.cpp **** 
 2040              		.loc 1 561 5 is_stmt 1
 561:src/kernel/riscv.cpp **** 
 2041              		.loc 1 561 54 is_stmt 0
 2042              	#APP
 2043              	# 561 "src/kernel/riscv.cpp" 1
 563:src/kernel/riscv.cpp **** }
 2044              		mv a0, a5
 2045              	# 0 "" 2
 2046              		.loc 1 563 5 is_stmt 1
 563:src/kernel/riscv.cpp **** }
 2047              		.loc 1 563 28 is_stmt 0
 2048              	#NO_APP
 2049 0ab8 97000000 		call	_ZN5RiscV16saveA0toSscratchEv
 2049      E7800000 
 2050              	.LVL189:
 564:src/kernel/riscv.cpp **** 
 2051              		.loc 1 564 1
 2052 0ac0 83308100 		ld	ra,8(sp)
 2053              		.cfi_remember_state
 2054              		.cfi_restore 1
 2055 0ac4 03340100 		ld	s0,0(sp)
GAS LISTING /tmp/ccI3Gnq8.s 			page 59


 2056              		.cfi_restore 8
 2057              		.cfi_def_cfa 2, 16
 2058 0ac8 13010101 		addi	sp,sp,16
 2059              		.cfi_def_cfa_offset 0
 2060 0acc 67800000 		jr	ra
 2061              	.LVL190:
 2062              	.L109:
 2063              		.cfi_restore_state
 556:src/kernel/riscv.cpp ****     else
 2064              		.loc 1 556 9 is_stmt 1
 556:src/kernel/riscv.cpp ****     else
 2065              		.loc 1 556 32 is_stmt 0
 2066 0ad0 97000000 		call	_ZN3SCB6signalEv@plt
 2066      E7800000 
 2067              	.LVL191:
 553:src/kernel/riscv.cpp **** 
 2068              		.loc 1 553 12
 2069 0ad8 93070000 		li	a5,0
 2070 0adc 6FF09FFD 		j	.L106
 2071              		.cfi_endproc
 2072              	.LFE58:
 2074              		.align	2
 2075              		.globl	_ZN5RiscV23executeTimeSleepSyscallEv
 2077              	_ZN5RiscV23executeTimeSleepSyscallEv:
 2078              	.LFB59:
 566:src/kernel/riscv.cpp **** 
 2079              		.loc 1 566 39 is_stmt 1
 2080              		.cfi_startproc
 2081 0ae0 130101FE 		addi	sp,sp,-32
 2082              		.cfi_def_cfa_offset 32
 2083 0ae4 233C1100 		sd	ra,24(sp)
 2084 0ae8 23388100 		sd	s0,16(sp)
 2085 0aec 23349100 		sd	s1,8(sp)
 2086              		.cfi_offset 1, -8
 2087              		.cfi_offset 8, -16
 2088              		.cfi_offset 9, -24
 2089 0af0 13040102 		addi	s0,sp,32
 2090              		.cfi_def_cfa 8, 0
 569:src/kernel/riscv.cpp **** 
 2091              		.loc 1 569 5
 571:src/kernel/riscv.cpp **** 
 2092              		.loc 1 571 5
 571:src/kernel/riscv.cpp **** 
 2093              		.loc 1 571 49 is_stmt 0
 2094              	#APP
 2095              	# 571 "src/kernel/riscv.cpp" 1
 575:src/kernel/riscv.cpp ****     tcb->sleepTime = globalTime;
 2096              		mv a4, a1
 2097              	# 0 "" 2
 2098              		.loc 1 575 5 is_stmt 1
 575:src/kernel/riscv.cpp ****     tcb->sleepTime = globalTime;
 2099              		.loc 1 575 10 is_stmt 0
 2100              	#NO_APP
 2101 0af8 97070000 		la	a5,_ZN3TCB7runningE
 2101      83B70700 
 2102 0b00 83B40700 		ld	s1,0(a5)
 2103              	.LVL192:
GAS LISTING /tmp/ccI3Gnq8.s 			page 60


 576:src/kernel/riscv.cpp ****     tcb->wakeTime = globalTime + itime;
 2104              		.loc 1 576 5 is_stmt 1
 576:src/kernel/riscv.cpp ****     tcb->wakeTime = globalTime + itime;
 2105              		.loc 1 576 20 is_stmt 0
 2106 0b04 97070000 		ld	a5,.LANCHOR0+16
 2106      83B70700 
 2107 0b0c 23B8F404 		sd	a5,80(s1)
 577:src/kernel/riscv.cpp **** 
 2108              		.loc 1 577 5 is_stmt 1
 577:src/kernel/riscv.cpp **** 
 2109              		.loc 1 577 32 is_stmt 0
 2110 0b10 B387E700 		add	a5,a5,a4
 577:src/kernel/riscv.cpp **** 
 2111              		.loc 1 577 19
 2112 0b14 23BCF404 		sd	a5,88(s1)
 579:src/kernel/riscv.cpp **** 
 2113              		.loc 1 579 5 is_stmt 1
 579:src/kernel/riscv.cpp **** 
 2114              		.loc 1 579 21 is_stmt 0
 2115 0b18 13850400 		mv	a0,s1
 2116 0b1c 97000000 		call	_ZN9Scheduler5sleepEP3TCB@plt
 2116      E7800000 
 2117              	.LVL193:
 581:src/kernel/riscv.cpp **** 
 2118              		.loc 1 581 5 is_stmt 1
 581:src/kernel/riscv.cpp **** 
 2119              		.loc 1 581 17 is_stmt 0
 2120 0b24 93073000 		li	a5,3
 2121 0b28 23A8F400 		sw	a5,16(s1)
 583:src/kernel/riscv.cpp **** 
 2122              		.loc 1 583 5 is_stmt 1
 583:src/kernel/riscv.cpp **** 
 2123              		.loc 1 583 18 is_stmt 0
 2124 0b2c 97000000 		call	_ZN3TCB8dispatchEv@plt
 2124      E7800000 
 2125              	.LVL194:
 585:src/kernel/riscv.cpp **** 
 2126              		.loc 1 585 5 is_stmt 1
 588:src/kernel/riscv.cpp **** 
 2127              		.loc 1 588 5
 588:src/kernel/riscv.cpp **** 
 2128              		.loc 1 588 54 is_stmt 0
 2129 0b34 93070000 		li	a5,0
 2130              	#APP
 2131              	# 588 "src/kernel/riscv.cpp" 1
 590:src/kernel/riscv.cpp **** }
 2132              		mv a0, a5
 2133              	# 0 "" 2
 2134              		.loc 1 590 5 is_stmt 1
 590:src/kernel/riscv.cpp **** }
 2135              		.loc 1 590 28 is_stmt 0
 2136              	#NO_APP
 2137 0b3c 97000000 		call	_ZN5RiscV16saveA0toSscratchEv
 2137      E7800000 
 2138              	.LVL195:
 591:src/kernel/riscv.cpp **** 
 2139              		.loc 1 591 1
GAS LISTING /tmp/ccI3Gnq8.s 			page 61


 2140 0b44 83308101 		ld	ra,24(sp)
 2141              		.cfi_restore 1
 2142 0b48 03340101 		ld	s0,16(sp)
 2143              		.cfi_restore 8
 2144              		.cfi_def_cfa 2, 32
 2145 0b4c 83348100 		ld	s1,8(sp)
 2146              		.cfi_restore 9
 2147              	.LVL196:
 2148 0b50 13010102 		addi	sp,sp,32
 2149              		.cfi_def_cfa_offset 0
 2150 0b54 67800000 		jr	ra
 2151              		.cfi_endproc
 2152              	.LFE59:
 2154              		.align	2
 2155              		.globl	_ZN5RiscV18executeGetcSyscallEv
 2157              	_ZN5RiscV18executeGetcSyscallEv:
 2158              	.LFB60:
 593:src/kernel/riscv.cpp **** 
 2159              		.loc 1 593 34 is_stmt 1
 2160              		.cfi_startproc
 2161 0b58 130101FE 		addi	sp,sp,-32
 2162              		.cfi_def_cfa_offset 32
 2163 0b5c 233C1100 		sd	ra,24(sp)
 2164 0b60 23388100 		sd	s0,16(sp)
 2165 0b64 23349100 		sd	s1,8(sp)
 2166              		.cfi_offset 1, -8
 2167              		.cfi_offset 8, -16
 2168              		.cfi_offset 9, -24
 2169 0b68 13040102 		addi	s0,sp,32
 2170              		.cfi_def_cfa 8, 0
 596:src/kernel/riscv.cpp ****         ConsoleUtil::pendingGetc++;
 2171              		.loc 1 596 5
 596:src/kernel/riscv.cpp ****         ConsoleUtil::pendingGetc++;
 2172              		.loc 1 596 8 is_stmt 0
 2173 0b6c 97070000 		lbu	a5,.LANCHOR0+8
 2173      83C70700 
 596:src/kernel/riscv.cpp ****         ConsoleUtil::pendingGetc++;
 2174              		.loc 1 596 5
 2175 0b74 639C0700 		bnez	a5,.L113
 597:src/kernel/riscv.cpp **** 
 2176              		.loc 1 597 9 is_stmt 1
 597:src/kernel/riscv.cpp **** 
 2177              		.loc 1 597 33 is_stmt 0
 2178 0b78 17070000 		la	a4,_ZN11ConsoleUtil11pendingGetcE
 2178      03370700 
 2179 0b80 83370700 		ld	a5,0(a4)
 2180 0b84 93871700 		addi	a5,a5,1
 2181 0b88 2330F700 		sd	a5,0(a4)
 2182              	.L113:
 600:src/kernel/riscv.cpp **** 
 2183              		.loc 1 600 5 is_stmt 1
 600:src/kernel/riscv.cpp **** 
 2184              		.loc 1 600 35 is_stmt 0
 2185 0b8c 97000000 		call	_ZN11ConsoleUtil8getInputEv@plt
 2185      E7800000 
 2186              	.LVL197:
 2187 0b94 93040500 		mv	s1,a0
GAS LISTING /tmp/ccI3Gnq8.s 			page 62


 2188              	.LVL198:
 603:src/kernel/riscv.cpp ****         ConsoleUtil::putOutput(13);
 2189              		.loc 1 603 5 is_stmt 1
 2190 0b98 9307D000 		li	a5,13
 2191 0b9c 6306F502 		beq	a0,a5,.L117
 608:src/kernel/riscv.cpp ****         ConsoleUtil::putOutput(c);
 2192              		.loc 1 608 10
 2193 0ba0 9307B001 		li	a5,27
 2194 0ba4 6310F504 		bne	a0,a5,.L118
 2195              	.LVL199:
 2196              	.L115:
 612:src/kernel/riscv.cpp **** 
 2197              		.loc 1 612 5
 612:src/kernel/riscv.cpp **** 
 2198              		.loc 1 612 39 is_stmt 0
 2199              	#APP
 2200              	# 612 "src/kernel/riscv.cpp" 1
 614:src/kernel/riscv.cpp **** }
 2201              		mv a0, s1
 2202              	# 0 "" 2
 2203              		.loc 1 614 5 is_stmt 1
 614:src/kernel/riscv.cpp **** }
 2204              		.loc 1 614 28 is_stmt 0
 2205              	#NO_APP
 2206 0bac 97000000 		call	_ZN5RiscV16saveA0toSscratchEv
 2206      E7800000 
 2207              	.LVL200:
 615:src/kernel/riscv.cpp **** 
 2208              		.loc 1 615 1
 2209 0bb4 83308101 		ld	ra,24(sp)
 2210              		.cfi_remember_state
 2211              		.cfi_restore 1
 2212 0bb8 03340101 		ld	s0,16(sp)
 2213              		.cfi_restore 8
 2214              		.cfi_def_cfa 2, 32
 2215 0bbc 83348100 		ld	s1,8(sp)
 2216              		.cfi_restore 9
 2217 0bc0 13010102 		addi	sp,sp,32
 2218              		.cfi_def_cfa_offset 0
 2219 0bc4 67800000 		jr	ra
 2220              	.LVL201:
 2221              	.L117:
 2222              		.cfi_restore_state
 604:src/kernel/riscv.cpp ****         ConsoleUtil::putOutput(10);
 2223              		.loc 1 604 9 is_stmt 1
 604:src/kernel/riscv.cpp ****         ConsoleUtil::putOutput(10);
 2224              		.loc 1 604 31 is_stmt 0
 2225 0bc8 1305D000 		li	a0,13
 2226              	.LVL202:
 2227 0bcc 97000000 		call	_ZN11ConsoleUtil9putOutputEc@plt
 2227      E7800000 
 2228              	.LVL203:
 605:src/kernel/riscv.cpp ****     }
 2229              		.loc 1 605 9 is_stmt 1
 605:src/kernel/riscv.cpp ****     }
 2230              		.loc 1 605 31 is_stmt 0
 2231 0bd4 1305A000 		li	a0,10
GAS LISTING /tmp/ccI3Gnq8.s 			page 63


 2232 0bd8 97000000 		call	_ZN11ConsoleUtil9putOutputEc@plt
 2232      E7800000 
 2233              	.LVL204:
 2234 0be0 6FF09FFC 		j	.L115
 2235              	.LVL205:
 2236              	.L118:
 609:src/kernel/riscv.cpp **** 
 2237              		.loc 1 609 9 is_stmt 1
 609:src/kernel/riscv.cpp **** 
 2238              		.loc 1 609 31 is_stmt 0
 2239 0be4 97000000 		call	_ZN11ConsoleUtil9putOutputEc@plt
 2239      E7800000 
 2240              	.LVL206:
 2241 0bec 6FF0DFFB 		j	.L115
 2242              		.cfi_endproc
 2243              	.LFE60:
 2245              		.align	2
 2246              		.globl	_ZN5RiscV22executePutcUtilSyscallEv
 2248              	_ZN5RiscV22executePutcUtilSyscallEv:
 2249              	.LFB63:
 665:src/kernel/riscv.cpp ****     char c = ConsoleUtil::getOutput();
 2250              		.loc 1 665 38 is_stmt 1
 2251              		.cfi_startproc
 2252 0bf0 130101FF 		addi	sp,sp,-16
 2253              		.cfi_def_cfa_offset 16
 2254 0bf4 23341100 		sd	ra,8(sp)
 2255 0bf8 23308100 		sd	s0,0(sp)
 2256              		.cfi_offset 1, -8
 2257              		.cfi_offset 8, -16
 2258 0bfc 13040101 		addi	s0,sp,16
 2259              		.cfi_def_cfa 8, 0
 666:src/kernel/riscv.cpp ****     asm("mv a0, %[c]" : : [c] "r" ((uint64)(c)) );
 2260              		.loc 1 666 5
 666:src/kernel/riscv.cpp ****     asm("mv a0, %[c]" : : [c] "r" ((uint64)(c)) );
 2261              		.loc 1 666 36 is_stmt 0
 2262 0c00 97000000 		call	_ZN11ConsoleUtil9getOutputEv@plt
 2262      E7800000 
 2263              	.LVL207:
 667:src/kernel/riscv.cpp **** 
 2264              		.loc 1 667 5 is_stmt 1
 667:src/kernel/riscv.cpp **** 
 2265              		.loc 1 667 50 is_stmt 0
 2266              	#APP
 2267              	# 667 "src/kernel/riscv.cpp" 1
 669:src/kernel/riscv.cpp **** }
 2268              		mv a0, a0
 2269              	# 0 "" 2
 2270              		.loc 1 669 5 is_stmt 1
 669:src/kernel/riscv.cpp **** }
 2271              		.loc 1 669 28 is_stmt 0
 2272              	#NO_APP
 2273 0c0c 97000000 		call	_ZN5RiscV16saveA0toSscratchEv
 2273      E7800000 
 2274              	.LVL208:
 670:src/kernel/riscv.cpp **** 
 2275              		.loc 1 670 1
 2276 0c14 83308100 		ld	ra,8(sp)
GAS LISTING /tmp/ccI3Gnq8.s 			page 64


 2277              		.cfi_restore 1
 2278 0c18 03340100 		ld	s0,0(sp)
 2279              		.cfi_restore 8
 2280              		.cfi_def_cfa 2, 16
 2281 0c1c 13010101 		addi	sp,sp,16
 2282              		.cfi_def_cfa_offset 0
 2283 0c20 67800000 		jr	ra
 2284              		.cfi_endproc
 2285              	.LFE63:
 2287              		.align	2
 2288              		.globl	_ZN5RiscV24executeThreadFreeSyscallEv
 2290              	_ZN5RiscV24executeThreadFreeSyscallEv:
 2291              	.LFB67:
 710:src/kernel/riscv.cpp **** 
 711:src/kernel/riscv.cpp **** //syscall to free the space that is allocated for thread
 712:src/kernel/riscv.cpp **** void RiscV::executeThreadFreeSyscall() {
 2292              		.loc 1 712 40 is_stmt 1
 2293              		.cfi_startproc
 2294 0c24 130101FE 		addi	sp,sp,-32
 2295              		.cfi_def_cfa_offset 32
 2296 0c28 233C1100 		sd	ra,24(sp)
 2297 0c2c 23388100 		sd	s0,16(sp)
 2298 0c30 23349100 		sd	s1,8(sp)
 2299              		.cfi_offset 1, -8
 2300              		.cfi_offset 8, -16
 2301              		.cfi_offset 9, -24
 2302 0c34 13040102 		addi	s0,sp,32
 2303              		.cfi_def_cfa 8, 0
 713:src/kernel/riscv.cpp ****     uint64 iaddr, status;
 2304              		.loc 1 713 5
 714:src/kernel/riscv.cpp **** 
 715:src/kernel/riscv.cpp ****     asm("mv %[iaddr], a1" : [iaddr] "=r"(iaddr));
 2305              		.loc 1 715 5
 2306              		.loc 1 715 49 is_stmt 0
 2307              	#APP
 2308              	# 715 "src/kernel/riscv.cpp" 1
 716              	
 2309              		mv s1, a1
 2310              	# 0 "" 2
 2311              	.LVL209:
 717:src/kernel/riscv.cpp ****     TCB *thr = (TCB*)iaddr;
 2312              		.loc 1 717 5 is_stmt 1
 718:src/kernel/riscv.cpp **** 
 719:src/kernel/riscv.cpp ****     if(thr == nullptr)
 2313              		.loc 1 719 5
 2314              	#NO_APP
 2315 0c3c 63940402 		bnez	s1,.L124
 2316              	.L122:
 2317              	.LVL210:
 720:src/kernel/riscv.cpp ****         status = -1;
 721:src/kernel/riscv.cpp ****     else {
 722:src/kernel/riscv.cpp ****         kfree(thr->stack);
 723:src/kernel/riscv.cpp ****         delete thr;
 724:src/kernel/riscv.cpp ****     }
 725:src/kernel/riscv.cpp **** 
 726:src/kernel/riscv.cpp ****     //return status
 727:src/kernel/riscv.cpp ****     asm("mv a0, %[status]" : : [status] "r" (status));
GAS LISTING /tmp/ccI3Gnq8.s 			page 65


 2318              		.loc 1 727 5
 2319              		.loc 1 727 54 is_stmt 0
 2320 0c40 9307F0FF 		li	a5,-1
 2321              	#APP
 2322              	# 727 "src/kernel/riscv.cpp" 1
 728              	
 729:src/kernel/riscv.cpp ****     RiscV::saveA0toSscratch();
 2323              		mv a0, a5
 2324              	# 0 "" 2
 2325              		.loc 1 729 5 is_stmt 1
 2326              		.loc 1 729 28 is_stmt 0
 2327              	#NO_APP
 2328 0c48 97000000 		call	_ZN5RiscV16saveA0toSscratchEv
 2328      E7800000 
 2329              	.LVL211:
 730:src/kernel/riscv.cpp **** }
 2330              		.loc 1 730 1
 2331 0c50 83308101 		ld	ra,24(sp)
 2332              		.cfi_remember_state
 2333              		.cfi_restore 1
 2334 0c54 03340101 		ld	s0,16(sp)
 2335              		.cfi_restore 8
 2336              		.cfi_def_cfa 2, 32
 2337 0c58 83348100 		ld	s1,8(sp)
 2338              		.cfi_restore 9
 2339              	.LVL212:
 2340 0c5c 13010102 		addi	sp,sp,32
 2341              		.cfi_def_cfa_offset 0
 2342 0c60 67800000 		jr	ra
 2343              	.LVL213:
 2344              	.L124:
 2345              		.cfi_restore_state
 722:src/kernel/riscv.cpp ****         delete thr;
 2346              		.loc 1 722 9 is_stmt 1
 722:src/kernel/riscv.cpp ****         delete thr;
 2347              		.loc 1 722 14 is_stmt 0
 2348 0c64 03B58402 		ld	a0,40(s1)
 2349 0c68 97000000 		call	_Z5kfreePKv@plt
 2349      E7800000 
 2350              	.LVL214:
 723:src/kernel/riscv.cpp ****     }
 2351              		.loc 1 723 9 is_stmt 1
 723:src/kernel/riscv.cpp ****     }
 2352              		.loc 1 723 16 is_stmt 0
 2353 0c70 13850400 		mv	a0,s1
 2354 0c74 97000000 		call	_ZN3TCBD1Ev@plt
 2354      E7800000 
 2355              	.LVL215:
 2356 0c7c 13850400 		mv	a0,s1
 2357 0c80 97000000 		call	_ZN3TCBdlEPv@plt
 2357      E7800000 
 2358              	.LVL216:
 2359 0c88 6FF09FFB 		j	.L122
 2360              		.cfi_endproc
 2361              	.LFE67:
 2363              		.align	2
 2364              		.globl	_ZN5RiscV27executeSemaphoreFreeSyscallEv
GAS LISTING /tmp/ccI3Gnq8.s 			page 66


 2366              	_ZN5RiscV27executeSemaphoreFreeSyscallEv:
 2367              	.LFB68:
 731:src/kernel/riscv.cpp **** 
 732:src/kernel/riscv.cpp **** //syscall to free the space that is allocated for semaphore
 733:src/kernel/riscv.cpp **** void RiscV::executeSemaphoreFreeSyscall() {
 2368              		.loc 1 733 43 is_stmt 1
 2369              		.cfi_startproc
 2370 0c8c 130101FE 		addi	sp,sp,-32
 2371              		.cfi_def_cfa_offset 32
 2372 0c90 233C1100 		sd	ra,24(sp)
 2373 0c94 23388100 		sd	s0,16(sp)
 2374 0c98 23349100 		sd	s1,8(sp)
 2375              		.cfi_offset 1, -8
 2376              		.cfi_offset 8, -16
 2377              		.cfi_offset 9, -24
 2378 0c9c 13040102 		addi	s0,sp,32
 2379              		.cfi_def_cfa 8, 0
 734:src/kernel/riscv.cpp ****     uint64 iaddr, status;
 2380              		.loc 1 734 5
 735:src/kernel/riscv.cpp **** 
 736:src/kernel/riscv.cpp ****     //call internal allocator and free memory which iaddr points to
 737:src/kernel/riscv.cpp ****     asm("mv %[iaddr], a1" : [iaddr] "=r"(iaddr));
 2381              		.loc 1 737 5
 2382              		.loc 1 737 49 is_stmt 0
 2383              	#APP
 2384              	# 737 "src/kernel/riscv.cpp" 1
 738              	
 2385              		mv s1, a1
 2386              	# 0 "" 2
 2387              	.LVL217:
 739:src/kernel/riscv.cpp ****     SCB *scb = (SCB*)iaddr;
 2388              		.loc 1 739 5 is_stmt 1
 740:src/kernel/riscv.cpp **** 
 741:src/kernel/riscv.cpp ****     if(scb == nullptr){
 2389              		.loc 1 741 5
 2390              	#NO_APP
 2391 0ca4 63940402 		bnez	s1,.L128
 2392              	.L126:
 2393              	.LVL218:
 742:src/kernel/riscv.cpp ****         status = -1;
 743:src/kernel/riscv.cpp ****     }
 744:src/kernel/riscv.cpp ****     else
 745:src/kernel/riscv.cpp ****         delete scb;
 746:src/kernel/riscv.cpp **** 
 747:src/kernel/riscv.cpp ****     //return status
 748:src/kernel/riscv.cpp ****     asm("mv a0, %[status]" : : [status] "r" (status));
 2394              		.loc 1 748 5
 2395              		.loc 1 748 54 is_stmt 0
 2396 0ca8 9307F0FF 		li	a5,-1
 2397              	#APP
 2398              	# 748 "src/kernel/riscv.cpp" 1
 749              	
 750:src/kernel/riscv.cpp ****     RiscV::saveA0toSscratch();
 2399              		mv a0, a5
 2400              	# 0 "" 2
 2401              		.loc 1 750 5 is_stmt 1
 2402              		.loc 1 750 28 is_stmt 0
GAS LISTING /tmp/ccI3Gnq8.s 			page 67


 2403              	#NO_APP
 2404 0cb0 97000000 		call	_ZN5RiscV16saveA0toSscratchEv
 2404      E7800000 
 2405              	.LVL219:
 751:src/kernel/riscv.cpp **** }
 2406              		.loc 1 751 1
 2407 0cb8 83308101 		ld	ra,24(sp)
 2408              		.cfi_remember_state
 2409              		.cfi_restore 1
 2410 0cbc 03340101 		ld	s0,16(sp)
 2411              		.cfi_restore 8
 2412              		.cfi_def_cfa 2, 32
 2413 0cc0 83348100 		ld	s1,8(sp)
 2414              		.cfi_restore 9
 2415              	.LVL220:
 2416 0cc4 13010102 		addi	sp,sp,32
 2417              		.cfi_def_cfa_offset 0
 2418 0cc8 67800000 		jr	ra
 2419              	.LVL221:
 2420              	.L128:
 2421              		.cfi_restore_state
 745:src/kernel/riscv.cpp **** 
 2422              		.loc 1 745 9 is_stmt 1 discriminator 1
 745:src/kernel/riscv.cpp **** 
 2423              		.loc 1 745 16 is_stmt 0 discriminator 1
 2424 0ccc 13850400 		mv	a0,s1
 2425 0cd0 97000000 		call	_ZN3SCBD1Ev@plt
 2425      E7800000 
 2426              	.LVL222:
 2427 0cd8 13850400 		mv	a0,s1
 2428 0cdc 97000000 		call	_ZN3SCBdlEPv@plt
 2428      E7800000 
 2429              	.LVL223:
 2430 0ce4 6FF05FFC 		j	.L126
 2431              		.cfi_endproc
 2432              	.LFE68:
 2434              		.align	2
 2435              		.globl	_ZN5RiscV18executeForkSyscallEv
 2437              	_ZN5RiscV18executeForkSyscallEv:
 2438              	.LFB69:
 752:src/kernel/riscv.cpp **** 
 753:src/kernel/riscv.cpp **** //fork syscall
 754:src/kernel/riscv.cpp **** void RiscV::executeForkSyscall() {
 2439              		.loc 1 754 34 is_stmt 1
 2440              		.cfi_startproc
 2441              		.cfi_personality 0x9b,DW.ref.__gxx_personality_v0
 2442              		.cfi_lsda 0x1b,.LLSDA69
 2443 0ce8 130101FE 		addi	sp,sp,-32
 2444              		.cfi_def_cfa_offset 32
 2445 0cec 233C1100 		sd	ra,24(sp)
 2446 0cf0 23388100 		sd	s0,16(sp)
 2447 0cf4 23349100 		sd	s1,8(sp)
 2448 0cf8 23302101 		sd	s2,0(sp)
 2449              		.cfi_offset 1, -8
 2450              		.cfi_offset 8, -16
 2451              		.cfi_offset 9, -24
 2452              		.cfi_offset 18, -32
GAS LISTING /tmp/ccI3Gnq8.s 			page 68


 2453 0cfc 13040102 		addi	s0,sp,32
 2454              		.cfi_def_cfa 8, 0
 755:src/kernel/riscv.cpp **** 
 756:src/kernel/riscv.cpp ****     //create new stack and copy stack from currently running stack into the new one
 757:src/kernel/riscv.cpp ****     uint64 *stack = (uint64*)kmalloc(DEFAULT_STACK_SIZE);
 2455              		.loc 1 757 5
 2456              		.loc 1 757 37 is_stmt 0
 2457 0d00 37150000 		li	a0,4096
 2458              	.LEHB10:
 2459 0d04 97000000 		call	_Z7kmallocm@plt
 2459      E7800000 
 2460              	.LVL224:
 2461 0d0c 13090500 		mv	s2,a0
 2462              	.LVL225:
 758:src/kernel/riscv.cpp **** 
 759:src/kernel/riscv.cpp ****     MemoryAllocator::memcpy((void*)TCB::running->stack,(void*)stack,DEFAULT_STACK_SIZE);
 2463              		.loc 1 759 5 is_stmt 1
 2464              		.loc 1 759 28 is_stmt 0
 2465 0d10 97070000 		la	a5,_ZN3TCB7runningE
 2465      83B70700 
 2466 0d18 83B70700 		ld	a5,0(a5)
 2467 0d1c 37160000 		li	a2,4096
 2468 0d20 93050500 		mv	a1,a0
 2469 0d24 03B58702 		ld	a0,40(a5)
 2470              	.LVL226:
 2471 0d28 97000000 		call	_ZN15MemoryAllocator6memcpyEPvS0_m@plt
 2471      E7800000 
 2472              	.LVL227:
 760:src/kernel/riscv.cpp **** 
 761:src/kernel/riscv.cpp ****     //create new TCB for new thread
 762:src/kernel/riscv.cpp ****     TCB *forked = new TCB(nullptr, nullptr, stack, DEFAULT_TIME_SLICE);
 2473              		.loc 1 762 5 is_stmt 1
 2474              		.loc 1 762 70 is_stmt 0
 2475 0d30 13050007 		li	a0,112
 2476 0d34 97000000 		call	_ZN3TCBnwEm@plt
 2476      E7800000 
 2477              	.LVL228:
 2478              	.LEHE10:
 2479 0d3c 93040500 		mv	s1,a0
 2480 0d40 630E0500 		beqz	a0,.L130
 2481              		.loc 1 762 70 discriminator 1
 2482 0d44 13072000 		li	a4,2
 2483 0d48 93060900 		mv	a3,s2
 2484 0d4c 13060000 		li	a2,0
 2485 0d50 93050000 		li	a1,0
 2486              	.LEHB11:
 2487 0d54 97000000 		call	_ZN3TCBC1EPFvPvES0_Pmm@plt
 2487      E7800000 
 2488              	.LVL229:
 2489              	.LEHE11:
 2490              	.L130:
 763:src/kernel/riscv.cpp **** 
 764:src/kernel/riscv.cpp ****     uint64 status = 0;
 2491              		.loc 1 764 5 is_stmt 1 discriminator 6
 765:src/kernel/riscv.cpp **** 
 766:src/kernel/riscv.cpp ****     if(forked) {
 2492              		.loc 1 766 5 discriminator 6
GAS LISTING /tmp/ccI3Gnq8.s 			page 69


 2493              	.LBB138:
 2494 0d5c 638E040A 		beqz	s1,.L133
 2495              	.LBB139:
 767:src/kernel/riscv.cpp **** 
 768:src/kernel/riscv.cpp ****         //set return address where forked thread should return
 769:src/kernel/riscv.cpp ****         forked->context.ra = TCB::currentPC;
 2496              		.loc 1 769 9
 2497              		.loc 1 769 28 is_stmt 0
 2498 0d60 97070000 		la	a5,_ZN3TCB9currentPCE
 2498      83B70700 
 2499 0d68 83B70700 		ld	a5,0(a5)
 2500 0d6c 23B4F400 		sd	a5,8(s1)
 770:src/kernel/riscv.cpp **** 
 771:src/kernel/riscv.cpp ****         //set SP value where forked thread's stack starts
 772:src/kernel/riscv.cpp ****         forked->context.sp = (uint64)((char*)stack + TCB::currentSP - (char*)TCB::running->stack);
 2501              		.loc 1 772 9 is_stmt 1
 2502              		.loc 1 772 59 is_stmt 0
 2503 0d70 97070000 		la	a5,_ZN3TCB9currentSPE
 2503      83B70700 
 2504 0d78 83B70700 		ld	a5,0(a5)
 2505              		.loc 1 772 52
 2506 0d7c B307F900 		add	a5,s2,a5
 2507              		.loc 1 772 71
 2508 0d80 17070000 		la	a4,_ZN3TCB7runningE
 2508      03370700 
 2509 0d88 83360700 		ld	a3,0(a4)
 2510              		.loc 1 772 92
 2511 0d8c 83B68602 		ld	a3,40(a3)
 2512              		.loc 1 772 69
 2513 0d90 B387D740 		sub	a5,a5,a3
 2514              		.loc 1 772 28
 2515 0d94 23B0F400 		sd	a5,0(s1)
 773:src/kernel/riscv.cpp **** 
 774:src/kernel/riscv.cpp ****         //get memory location of where registers are stored from previous context switch
 775:src/kernel/riscv.cpp ****         uint64 registerStartSP = (uint64)((char*)TCB::running->a0Location - (char*)TCB::running->st
 2516              		.loc 1 775 9 is_stmt 1
 2517              		.loc 1 775 64 is_stmt 0
 2518 0d98 83370700 		ld	a5,0(a4)
 2519 0d9c 03B58706 		ld	a0,104(a5)
 2520              		.loc 1 775 98
 2521 0da0 83B78702 		ld	a5,40(a5)
 2522              		.loc 1 775 75
 2523 0da4 3305F540 		sub	a0,a0,a5
 2524              		.loc 1 775 104
 2525 0da8 3309A900 		add	s2,s2,a0
 2526              	.LVL230:
 776:src/kernel/riscv.cpp **** 
 777:src/kernel/riscv.cpp ****         forked->a0Location = registerStartSP;
 2527              		.loc 1 777 9 is_stmt 1
 2528              		.loc 1 777 28 is_stmt 0
 2529 0dac 23B42407 		sd	s2,104(s1)
 778:src/kernel/riscv.cpp **** 
 779:src/kernel/riscv.cpp ****         uint64 a1,a0;
 2530              		.loc 1 779 9 is_stmt 1
 780:src/kernel/riscv.cpp **** 
 781:src/kernel/riscv.cpp ****         //write address of stored registers in SP of forked thread so that it can return regularly
 782:src/kernel/riscv.cpp ****         asm("mv %[a1], a1": [a1] "=r"(a1));
GAS LISTING /tmp/ccI3Gnq8.s 			page 70


 2531              		.loc 1 782 9
 2532              		.loc 1 782 43 is_stmt 0
 2533              	#APP
 2534              	# 782 "src/kernel/riscv.cpp" 1
 783              	
 784:src/kernel/riscv.cpp ****         asm("mv %[a0], a0": [a0] "=r"(a0));
 2535              		mv a3, a1
 2536              	# 0 "" 2
 2537              		.loc 1 784 9 is_stmt 1
 2538              		.loc 1 784 43 is_stmt 0
 2539              	# 784 "src/kernel/riscv.cpp" 1
 785              	
 786:src/kernel/riscv.cpp ****         asm("mv a0,%[a0]"::  [a0]"r"(registerStartSP));
 2540              		mv a5, a0
 2541              	# 0 "" 2
 2542              		.loc 1 786 9 is_stmt 1
 2543              		.loc 1 786 55 is_stmt 0
 2544              	# 786 "src/kernel/riscv.cpp" 1
 787              	
 788:src/kernel/riscv.cpp ****         asm("mv a1, %[a0]" : :  [a0] "r"(registerStartSP));
 2545              		mv a0,s2
 2546              	# 0 "" 2
 2547              		.loc 1 788 9 is_stmt 1
 2548              		.loc 1 788 59 is_stmt 0
 2549              	# 788 "src/kernel/riscv.cpp" 1
 789              	
 790:src/kernel/riscv.cpp ****         asm("sd a0, 16(a1)");
 2550              		mv a1, s2
 2551              	# 0 "" 2
 2552              		.loc 1 790 9 is_stmt 1
 2553              		.loc 1 790 29 is_stmt 0
 2554              	# 790 "src/kernel/riscv.cpp" 1
 791              	
 792:src/kernel/riscv.cpp ****         //write 0 in a0 register of forked thread because fork should return 0 in context of child,
 793:src/kernel/riscv.cpp ****         asm("li a0, 0");
 2555              		sd a0, 16(a1)
 2556              	# 0 "" 2
 2557              		.loc 1 793 9 is_stmt 1
 2558              		.loc 1 793 24 is_stmt 0
 2559              	# 793 "src/kernel/riscv.cpp" 1
 794              	
 795:src/kernel/riscv.cpp ****         asm("sd a0, 80(a1)");
 2560              		li a0, 0
 2561              	# 0 "" 2
 2562              		.loc 1 795 9 is_stmt 1
 2563              		.loc 1 795 29 is_stmt 0
 2564              	# 795 "src/kernel/riscv.cpp" 1
 796              	
 797:src/kernel/riscv.cpp ****         asm("mv a1,%[a1]"::  [a1]"r"(a1));
 2565              		sd a0, 80(a1)
 2566              	# 0 "" 2
 2567              		.loc 1 797 9 is_stmt 1
 2568              		.loc 1 797 42 is_stmt 0
 2569              	# 797 "src/kernel/riscv.cpp" 1
 798              	
 799:src/kernel/riscv.cpp ****         asm("mv a0,%[a0]"::  [a0]"r"(a0));
 2570              		mv a1,a3
GAS LISTING /tmp/ccI3Gnq8.s 			page 71


 2571              	# 0 "" 2
 2572              		.loc 1 799 9 is_stmt 1
 2573              		.loc 1 799 42 is_stmt 0
 2574              	# 799 "src/kernel/riscv.cpp" 1
 800              	
 801:src/kernel/riscv.cpp ****         forked->sepc = TCB::running->sepc;
 2575              		mv a0,a5
 2576              	# 0 "" 2
 2577              		.loc 1 801 9 is_stmt 1
 2578              		.loc 1 801 38 is_stmt 0
 2579              	#NO_APP
 2580 0dd4 83370700 		ld	a5,0(a4)
 2581 0dd8 03B78703 		ld	a4,56(a5)
 2582              		.loc 1 801 22
 2583 0ddc 23BCE402 		sd	a4,56(s1)
 802:src/kernel/riscv.cpp **** 
 803:src/kernel/riscv.cpp ****         forked->sstatus = TCB::running->sstatus;
 2584              		.loc 1 803 9 is_stmt 1
 2585              		.loc 1 803 41 is_stmt 0
 2586 0de0 83B70704 		ld	a5,64(a5)
 2587              		.loc 1 803 25
 2588 0de4 23B0F404 		sd	a5,64(s1)
 804:src/kernel/riscv.cpp **** 
 805:src/kernel/riscv.cpp ****         //put forked in scheduler
 806:src/kernel/riscv.cpp ****         Scheduler::put(forked);
 2589              		.loc 1 806 9 is_stmt 1
 2590              		.loc 1 806 23 is_stmt 0
 2591 0de8 13850400 		mv	a0,s1
 2592              	.LEHB12:
 2593 0dec 97000000 		call	_ZN9Scheduler3putEP3TCB@plt
 2593      E7800000 
 2594              	.LVL231:
 2595              	.LEHE12:
 807:src/kernel/riscv.cpp **** 
 808:src/kernel/riscv.cpp ****         //return address of forked as thread ID
 809:src/kernel/riscv.cpp ****         status = (uint64)forked;
 2596              		.loc 1 809 9 is_stmt 1
 2597              	.L131:
 2598              	.LBE139:
 2599              	.LBE138:
 810:src/kernel/riscv.cpp ****     }else
 811:src/kernel/riscv.cpp ****         status = -1;
 812:src/kernel/riscv.cpp **** 
 813:src/kernel/riscv.cpp ****     asm("mv a0, %[status]" : : [status] "r" (status));
 2600              		.loc 1 813 5
 2601              		.loc 1 813 54 is_stmt 0
 2602              	#APP
 2603              	# 813 "src/kernel/riscv.cpp" 1
 814              	
 815:src/kernel/riscv.cpp ****     RiscV::saveA0toSscratch();
 2604              		mv a0, s1
 2605              	# 0 "" 2
 2606              		.loc 1 815 5 is_stmt 1
 2607              		.loc 1 815 28 is_stmt 0
 2608              	#NO_APP
 2609 0df8 97000000 		call	_ZN5RiscV16saveA0toSscratchEv
 2609      E7800000 
GAS LISTING /tmp/ccI3Gnq8.s 			page 72


 2610              	.LVL232:
 816:src/kernel/riscv.cpp **** 
 817:src/kernel/riscv.cpp **** }
 2611              		.loc 1 817 1
 2612 0e00 83308101 		ld	ra,24(sp)
 2613              		.cfi_remember_state
 2614              		.cfi_restore 1
 2615 0e04 03340101 		ld	s0,16(sp)
 2616              		.cfi_restore 8
 2617              		.cfi_def_cfa 2, 32
 2618 0e08 83348100 		ld	s1,8(sp)
 2619              		.cfi_restore 9
 2620              	.LVL233:
 2621 0e0c 03390100 		ld	s2,0(sp)
 2622              		.cfi_restore 18
 2623 0e10 13010102 		addi	sp,sp,32
 2624              		.cfi_def_cfa_offset 0
 2625 0e14 67800000 		jr	ra
 2626              	.LVL234:
 2627              	.L133:
 2628              		.cfi_restore_state
 2629              	.LBB140:
 811:src/kernel/riscv.cpp **** 
 2630              		.loc 1 811 16
 2631 0e18 9304F0FF 		li	s1,-1
 2632              	.LVL235:
 2633 0e1c 6FF09FFD 		j	.L131
 2634              	.LVL236:
 2635              	.L134:
 2636 0e20 13090500 		mv	s2,a0
 2637              	.LVL237:
 2638              	.LBE140:
 762:src/kernel/riscv.cpp **** 
 2639              		.loc 1 762 70
 2640 0e24 13850400 		mv	a0,s1
 2641 0e28 97000000 		call	_ZN3TCBdlEPv@plt
 2641      E7800000 
 2642              	.LVL238:
 2643 0e30 13050900 		mv	a0,s2
 2644              	.LEHB13:
 2645 0e34 97000000 		call	_Unwind_Resume@plt
 2645      E7800000 
 2646              	.LVL239:
 2647              	.LEHE13:
 2648              		.cfi_endproc
 2649              	.LFE69:
 2650              		.section	.gcc_except_table
 2651              	.LLSDA69:
 2652 008e FF       		.byte	0xff
 2653 008f FF       		.byte	0xff
 2654 0090 03       		.byte	0x3
 2655 0091 34       		.byte	0x34
 2656 0092 00000000 		.4byte	.LEHB10-.LFB69
 2657 0096 00000000 		.4byte	.LEHE10-.LEHB10
 2658 009a 00000000 		.4byte	0
 2659 009e 00       		.byte	0
 2660 009f 00000000 		.4byte	.LEHB11-.LFB69
GAS LISTING /tmp/ccI3Gnq8.s 			page 73


 2661 00a3 00000000 		.4byte	.LEHE11-.LEHB11
 2662 00a7 00000000 		.4byte	.L134-.LFB69
 2663 00ab 00       		.byte	0
 2664 00ac 00000000 		.4byte	.LEHB12-.LFB69
 2665 00b0 00000000 		.4byte	.LEHE12-.LEHB12
 2666 00b4 00000000 		.4byte	0
 2667 00b8 00       		.byte	0
 2668 00b9 00000000 		.4byte	.LEHB13-.LFB69
 2669 00bd 00000000 		.4byte	.LEHE13-.LEHB13
 2670 00c1 00000000 		.4byte	0
 2671 00c5 00       		.byte	0
 2672              		.text
 2674              		.align	2
 2675              		.globl	_ZN5RiscV5getPCEv
 2677              	_ZN5RiscV5getPCEv:
 2678              	.LFB70:
 818:src/kernel/riscv.cpp **** 
 819:src/kernel/riscv.cpp **** void RiscV::getPC(){
 2679              		.loc 1 819 20 is_stmt 1
 2680              		.cfi_startproc
 2681 0e3c 130101FF 		addi	sp,sp,-16
 2682              		.cfi_def_cfa_offset 16
 2683 0e40 23348100 		sd	s0,8(sp)
 2684              		.cfi_offset 8, -8
 2685 0e44 13040101 		addi	s0,sp,16
 2686              		.cfi_def_cfa 8, 0
 820:src/kernel/riscv.cpp ****     uint64 ra;
 2687              		.loc 1 820 5
 821:src/kernel/riscv.cpp **** 
 822:src/kernel/riscv.cpp ****     asm("mv %[ra], ra" : [ra] "=r"(ra));
 2688              		.loc 1 822 5
 2689              		.loc 1 822 40 is_stmt 0
 2690              	#APP
 2691              	# 822 "src/kernel/riscv.cpp" 1
 823              	
 2692              		mv a5, ra
 2693              	# 0 "" 2
 2694              	.LVL240:
 824:src/kernel/riscv.cpp ****     TCB::currentPC = ra + 8;
 2695              		.loc 1 824 5 is_stmt 1
 2696              		.loc 1 824 25 is_stmt 0
 2697              	#NO_APP
 2698 0e4c 93878700 		addi	a5,a5,8
 2699              	.LVL241:
 2700              		.loc 1 824 20
 2701 0e50 17070000 		la	a4,_ZN3TCB9currentPCE
 2701      03370700 
 2702 0e58 2330F700 		sd	a5,0(a4)
 825:src/kernel/riscv.cpp **** }
 2703              		.loc 1 825 1
 2704 0e5c 03348100 		ld	s0,8(sp)
 2705              		.cfi_restore 8
 2706              		.cfi_def_cfa 2, 16
 2707 0e60 13010101 		addi	sp,sp,16
 2708              		.cfi_def_cfa_offset 0
 2709 0e64 67800000 		jr	ra
 2710              		.cfi_endproc
GAS LISTING /tmp/ccI3Gnq8.s 			page 74


 2711              	.LFE70:
 2713              		.section	.rodata.str1.8,"aMS",@progbits,1
 2714              		.align	3
 2715              	.LC0:
 2716 0000 73657063 		.string	"sepc: "
 2716      3A2000
 2717 0007 00       		.align	3
 2718              	.LC1:
 2719 0008 0A00     		.string	"\n"
 2720 000a 00000000 		.align	3
 2720      0000
 2721              	.LC2:
 2722 0010 496C6C65 		.string	"Illegal instruction\nExiting thread...\n"
 2722      67616C20 
 2722      696E7374 
 2722      72756374 
 2722      696F6E0A 
 2723 0037 00       		.align	3
 2724              	.LC3:
 2725 0038 4572726F 		.string	"Error: \n"
 2725      723A200A 
 2725      00
 2726 0041 00000000 		.align	3
 2726      000000
 2727              	.LC4:
 2728 0048 73636175 		.string	"scause: "
 2728      73653A20 
 2728      00
 2729 0051 00000000 		.align	3
 2729      000000
 2730              	.LC5:
 2731 0058 73747665 		.string	"stvec: "
 2731      633A2000 
 2732              		.align	3
 2733              	.LC6:
 2734 0060 45786974 		.string	"Exiting thread...\n"
 2734      696E6720 
 2734      74687265 
 2734      61642E2E 
 2734      2E0A00
 2735              		.text
 2736              		.align	2
 2737              		.globl	_ZN5RiscV20handleSupervisorTrapEv
 2739              	_ZN5RiscV20handleSupervisorTrapEv:
 2740              	.LFB47:
 153:src/kernel/riscv.cpp **** 
 2741              		.loc 1 153 36 is_stmt 1
 2742              		.cfi_startproc
 2743 0e68 130101F9 		addi	sp,sp,-112
 2744              		.cfi_def_cfa_offset 112
 2745 0e6c 23341106 		sd	ra,104(sp)
 2746 0e70 23308106 		sd	s0,96(sp)
 2747 0e74 233C9104 		sd	s1,88(sp)
 2748              		.cfi_offset 1, -8
 2749              		.cfi_offset 8, -16
 2750              		.cfi_offset 9, -24
 2751 0e78 13040107 		addi	s0,sp,112
GAS LISTING /tmp/ccI3Gnq8.s 			page 75


 2752              		.cfi_def_cfa 8, 0
 156:src/kernel/riscv.cpp ****     asm("csrr %[stval], stval" : [stval] "=r" (stval));
 2753              		.loc 1 156 5
 157:src/kernel/riscv.cpp ****     uint64 volatile scause = RiscV::r_scause();
 2754              		.loc 1 157 5
 157:src/kernel/riscv.cpp ****     uint64 volatile scause = RiscV::r_scause();
 2755              		.loc 1 157 55 is_stmt 0
 2756              	#APP
 2757              	# 157 "src/kernel/riscv.cpp" 1
 2758              		csrr s1, stval
 2759              	# 0 "" 2
 2760              	.LVL242:
 158:src/kernel/riscv.cpp **** 
 2761              		.loc 1 158 5 is_stmt 1
 2762              	#NO_APP
 2763              	.LBB141:
 2764              	.LBB142:
 147:src/kernel/../../h/riscv.hpp ****     asm("csrr %[scause], scause" : [scause] "=r" (scause));
 2765              		.loc 2 147 5
 148:src/kernel/../../h/riscv.hpp ****     return scause;
 2766              		.loc 2 148 5
 148:src/kernel/../../h/riscv.hpp ****     return scause;
 2767              		.loc 2 148 59 is_stmt 0
 2768              	#APP
 2769              	# 148 "src/kernel/../../h/riscv.hpp" 1
 2770              		csrr a5, scause
 2771              	# 0 "" 2
 2772              	#NO_APP
 2773 0e84 2334F4FC 		sd	a5,-56(s0)
 149:src/kernel/../../h/riscv.hpp **** }
 2774              		.loc 2 149 5 is_stmt 1
 149:src/kernel/../../h/riscv.hpp **** }
 2775              		.loc 2 149 12 is_stmt 0
 2776 0e88 833784FC 		ld	a5,-56(s0)
 2777              	.LBE142:
 2778              	.LBE141:
 158:src/kernel/riscv.cpp **** 
 2779              		.loc 1 158 46
 2780 0e8c 233CF4FC 		sd	a5,-40(s0)
 160:src/kernel/riscv.cpp **** 
 2781              		.loc 1 160 5 is_stmt 1
 160:src/kernel/riscv.cpp **** 
 2782              		.loc 1 160 71 is_stmt 0
 2783 0e90 97070000 		la	a5,_ZN3TCB7runningE
 2783      83B70700 
 2784 0e98 83B70700 		ld	a5,0(a5)
 160:src/kernel/riscv.cpp **** 
 2785              		.loc 1 160 83
 2786              	#APP
 2787              	# 160 "src/kernel/riscv.cpp" 1
 2788              		csrr a4, sscratch
 2789              	# 0 "" 2
 2790              	#NO_APP
 2791 0ea0 23B4E706 		sd	a4,104(a5)
 171:src/kernel/riscv.cpp **** 
 2792              		.loc 1 171 5 is_stmt 1
 2793              	.LBB143:
GAS LISTING /tmp/ccI3Gnq8.s 			page 76


 171:src/kernel/riscv.cpp **** 
 2794              		.loc 1 171 15 is_stmt 0
 2795 0ea4 033784FD 		ld	a4,-40(s0)
 171:src/kernel/riscv.cpp **** 
 2796              		.loc 1 171 23
 2797 0ea8 93079000 		li	a5,9
 2798 0eac 6306F710 		beq	a4,a5,.L140
 171:src/kernel/riscv.cpp **** 
 2799              		.loc 1 171 33 discriminator 2
 2800 0eb0 033784FD 		ld	a4,-40(s0)
 171:src/kernel/riscv.cpp **** 
 2801              		.loc 1 171 23 discriminator 2
 2802 0eb4 93078000 		li	a5,8
 2803 0eb8 6300F710 		beq	a4,a5,.L140
 2804              	.LBE143:
 217:src/kernel/riscv.cpp **** 
 2805              		.loc 1 217 10 is_stmt 1
 2806              	.LBB198:
 2807              	.LBB144:
 217:src/kernel/riscv.cpp **** 
 2808              		.loc 1 217 20 is_stmt 0
 2809 0ebc 033784FD 		ld	a4,-40(s0)
 217:src/kernel/riscv.cpp **** 
 2810              		.loc 1 217 10
 2811 0ec0 9307F0FF 		li	a5,-1
 2812 0ec4 9397F703 		slli	a5,a5,63
 2813 0ec8 93871700 		addi	a5,a5,1
 2814 0ecc 6304F726 		beq	a4,a5,.L170
 2815              	.LBE144:
 2816              	.LBE198:
 252:src/kernel/riscv.cpp ****         //save sstatus and sepc
 2817              		.loc 1 252 10 is_stmt 1
 2818              	.LBB199:
 2819              	.LBB185:
 2820              	.LBB145:
 252:src/kernel/riscv.cpp ****         //save sstatus and sepc
 2821              		.loc 1 252 20 is_stmt 0
 2822 0ed0 033784FD 		ld	a4,-40(s0)
 252:src/kernel/riscv.cpp ****         //save sstatus and sepc
 2823              		.loc 1 252 10
 2824 0ed4 9307F0FF 		li	a5,-1
 2825 0ed8 9397F703 		slli	a5,a5,63
 2826 0edc 93879700 		addi	a5,a5,9
 2827 0ee0 6302F72E 		beq	a4,a5,.L171
 2828              	.LBE145:
 2829              	.LBE185:
 2830              	.LBE199:
 288:src/kernel/riscv.cpp ****         TCB* old = TCB::running;
 2831              		.loc 1 288 10 is_stmt 1
 2832              	.LBB200:
 2833              	.LBB186:
 2834              	.LBB169:
 2835              	.LBB146:
 288:src/kernel/riscv.cpp ****         TCB* old = TCB::running;
 2836              		.loc 1 288 20 is_stmt 0
 2837 0ee4 033784FD 		ld	a4,-40(s0)
 288:src/kernel/riscv.cpp ****         TCB* old = TCB::running;
GAS LISTING /tmp/ccI3Gnq8.s 			page 77


 2838              		.loc 1 288 10
 2839 0ee8 93072000 		li	a5,2
 2840 0eec 630AF736 		beq	a4,a5,.L172
 2841              	.LBB147:
 301:src/kernel/riscv.cpp ****         ConsoleUtil::printString("scause: ");
 2842              		.loc 1 301 9 is_stmt 1
 301:src/kernel/riscv.cpp ****         ConsoleUtil::printString("scause: ");
 2843              		.loc 1 301 33 is_stmt 0
 2844 0ef0 17050000 		lla	a0,.LC3
 2844      13050500 
 2845 0ef8 97000000 		call	_ZN11ConsoleUtil11printStringEPKc@plt
 2845      E7800000 
 2846              	.LVL243:
 302:src/kernel/riscv.cpp ****         uint64  scause = RiscV::r_scause();
 2847              		.loc 1 302 9 is_stmt 1
 302:src/kernel/riscv.cpp ****         uint64  scause = RiscV::r_scause();
 2848              		.loc 1 302 33 is_stmt 0
 2849 0f00 17050000 		lla	a0,.LC4
 2849      13050500 
 2850 0f08 97000000 		call	_ZN11ConsoleUtil11printStringEPKc@plt
 2850      E7800000 
 2851              	.LVL244:
 303:src/kernel/riscv.cpp ****         ConsoleUtil::printInt(scause);
 2852              		.loc 1 303 9 is_stmt 1
 2853              	.LBB148:
 2854              	.LBB149:
 147:src/kernel/../../h/riscv.hpp ****     asm("csrr %[scause], scause" : [scause] "=r" (scause));
 2855              		.loc 2 147 5
 148:src/kernel/../../h/riscv.hpp ****     return scause;
 2856              		.loc 2 148 5
 148:src/kernel/../../h/riscv.hpp ****     return scause;
 2857              		.loc 2 148 59 is_stmt 0
 2858              	#APP
 2859              	# 148 "src/kernel/../../h/riscv.hpp" 1
 2860              		csrr a5, scause
 2861              	# 0 "" 2
 2862              	#NO_APP
 2863 0f14 2338F4FC 		sd	a5,-48(s0)
 149:src/kernel/../../h/riscv.hpp **** }
 2864              		.loc 2 149 5 is_stmt 1
 149:src/kernel/../../h/riscv.hpp **** }
 2865              		.loc 2 149 12 is_stmt 0
 2866 0f18 033504FD 		ld	a0,-48(s0)
 2867              	.LVL245:
 2868              	.LBE149:
 2869              	.LBE148:
 304:src/kernel/riscv.cpp ****         ConsoleUtil::printString("sepc: ");
 2870              		.loc 1 304 9 is_stmt 1
 304:src/kernel/riscv.cpp ****         ConsoleUtil::printString("sepc: ");
 2871              		.loc 1 304 30 is_stmt 0
 2872 0f1c 13060000 		li	a2,0
 2873 0f20 9305A000 		li	a1,10
 2874 0f24 1B050500 		sext.w	a0,a0
 2875              	.LVL246:
 2876 0f28 97000000 		call	_ZN11ConsoleUtil8printIntEiii@plt
 2876      E7800000 
 2877              	.LVL247:
GAS LISTING /tmp/ccI3Gnq8.s 			page 78


 305:src/kernel/riscv.cpp ****         uint64 sepc = RiscV::r_sepc();
 2878              		.loc 1 305 9 is_stmt 1
 305:src/kernel/riscv.cpp ****         uint64 sepc = RiscV::r_sepc();
 2879              		.loc 1 305 33 is_stmt 0
 2880 0f30 17050000 		lla	a0,.LC0
 2880      13050500 
 2881 0f38 97000000 		call	_ZN11ConsoleUtil11printStringEPKc@plt
 2881      E7800000 
 2882              	.LVL248:
 306:src/kernel/riscv.cpp ****         ConsoleUtil::printInt(sepc,16);
 2883              		.loc 1 306 9 is_stmt 1
 2884              	.LBB150:
 2885              	.LBB151:
 157:src/kernel/../../h/riscv.hpp ****     asm("csrr %[sepc], sepc" : [sepc] "=r" (sepc));
 2886              		.loc 2 157 5
 158:src/kernel/../../h/riscv.hpp ****     return sepc;
 2887              		.loc 2 158 5
 158:src/kernel/../../h/riscv.hpp ****     return sepc;
 2888              		.loc 2 158 51 is_stmt 0
 2889              	#APP
 2890              	# 158 "src/kernel/../../h/riscv.hpp" 1
 159:src/kernel/../../h/riscv.hpp **** }
 2891              		csrr a0, sepc
 2892              	# 0 "" 2
 2893              		.loc 2 159 5 is_stmt 1
 2894              	#NO_APP
 2895              	.LBE151:
 2896              	.LBE150:
 307:src/kernel/riscv.cpp ****         ConsoleUtil::printString("\n");
 2897              		.loc 1 307 9
 307:src/kernel/riscv.cpp ****         ConsoleUtil::printString("\n");
 2898              		.loc 1 307 30 is_stmt 0
 2899 0f44 13060000 		li	a2,0
 2900 0f48 93050001 		li	a1,16
 2901 0f4c 1B050500 		sext.w	a0,a0
 2902 0f50 97000000 		call	_ZN11ConsoleUtil8printIntEiii@plt
 2902      E7800000 
 2903              	.LVL249:
 308:src/kernel/riscv.cpp ****         ConsoleUtil::print("stvec: ",stval,"\n");
 2904              		.loc 1 308 9 is_stmt 1
 308:src/kernel/riscv.cpp ****         ConsoleUtil::print("stvec: ",stval,"\n");
 2905              		.loc 1 308 33 is_stmt 0
 2906 0f58 17050000 		lla	a0,.LC1
 2906      13050500 
 2907 0f60 97000000 		call	_ZN11ConsoleUtil11printStringEPKc@plt
 2907      E7800000 
 2908              	.LVL250:
 309:src/kernel/riscv.cpp ****         TCB* old = TCB::running;
 2909              		.loc 1 309 9 is_stmt 1
 309:src/kernel/riscv.cpp ****         TCB* old = TCB::running;
 2910              		.loc 1 309 27 is_stmt 0
 2911 0f68 93060001 		li	a3,16
 2912 0f6c 17060000 		lla	a2,.LC1
 2912      13060600 
 2913 0f74 9B850400 		sext.w	a1,s1
 2914 0f78 17050000 		lla	a0,.LC5
 2914      13050500 
GAS LISTING /tmp/ccI3Gnq8.s 			page 79


 2915 0f80 97000000 		call	_ZN11ConsoleUtil5printEPKciS1_i@plt
 2915      E7800000 
 2916              	.LVL251:
 310:src/kernel/riscv.cpp ****         old->status = TCB::Status::FINISHED;
 2917              		.loc 1 310 9 is_stmt 1
 310:src/kernel/riscv.cpp ****         old->status = TCB::Status::FINISHED;
 2918              		.loc 1 310 14 is_stmt 0
 2919 0f88 97070000 		la	a5,_ZN3TCB7runningE
 2919      83B70700 
 2920 0f90 83B70700 		ld	a5,0(a5)
 2921              	.LVL252:
 311:src/kernel/riscv.cpp ****         ConsoleUtil::printString("Exiting thread...\n");
 2922              		.loc 1 311 9 is_stmt 1
 311:src/kernel/riscv.cpp ****         ConsoleUtil::printString("Exiting thread...\n");
 2923              		.loc 1 311 21 is_stmt 0
 2924 0f94 13072000 		li	a4,2
 2925 0f98 23A8E700 		sw	a4,16(a5)
 312:src/kernel/riscv.cpp ****         TCB::dispatch();
 2926              		.loc 1 312 9 is_stmt 1
 312:src/kernel/riscv.cpp ****         TCB::dispatch();
 2927              		.loc 1 312 33 is_stmt 0
 2928 0f9c 17050000 		lla	a0,.LC6
 2928      13050500 
 2929 0fa4 97000000 		call	_ZN11ConsoleUtil11printStringEPKc@plt
 2929      E7800000 
 2930              	.LVL253:
 313:src/kernel/riscv.cpp ****     }
 2931              		.loc 1 313 9 is_stmt 1
 313:src/kernel/riscv.cpp ****     }
 2932              		.loc 1 313 22 is_stmt 0
 2933 0fac 97000000 		call	_ZN3TCB8dispatchEv@plt
 2933      E7800000 
 2934              	.LVL254:
 2935 0fb4 6F000008 		j	.L163
 2936              	.L140:
 2937              	.LBE147:
 2938              	.LBE146:
 2939              	.LBE169:
 2940              	.LBE186:
 2941              	.LBB187:
 175:src/kernel/riscv.cpp ****         uint64 volatile sepc = RiscV::r_sepc()+4;
 2942              		.loc 1 175 9 is_stmt 1
 2943              	.LBB188:
 2944              	.LBB189:
 177:src/kernel/../../h/riscv.hpp ****     asm("csrr %[sstatus], sstatus" : [sstatus] "=r" (sstatus));
 2945              		.loc 2 177 5
 178:src/kernel/../../h/riscv.hpp ****     return sstatus;
 2946              		.loc 2 178 5
 178:src/kernel/../../h/riscv.hpp ****     return sstatus;
 2947              		.loc 2 178 63 is_stmt 0
 2948              	#APP
 2949              	# 178 "src/kernel/../../h/riscv.hpp" 1
 2950              		csrr a5, sstatus
 2951              	# 0 "" 2
 2952              	.LVL255:
 179:src/kernel/../../h/riscv.hpp **** }
 2953              		.loc 2 179 5 is_stmt 1
GAS LISTING /tmp/ccI3Gnq8.s 			page 80


 2954              	#NO_APP
 2955              	.LBE189:
 2956              	.LBE188:
 175:src/kernel/riscv.cpp ****         uint64 volatile sepc = RiscV::r_sepc()+4;
 2957              		.loc 1 175 52 is_stmt 0
 2958 0fbc 233CF4F8 		sd	a5,-104(s0)
 176:src/kernel/riscv.cpp ****         TCB::running->sepc = sepc;
 2959              		.loc 1 176 9 is_stmt 1
 2960              	.LBB190:
 2961              	.LBB191:
 157:src/kernel/../../h/riscv.hpp ****     asm("csrr %[sepc], sepc" : [sepc] "=r" (sepc));
 2962              		.loc 2 157 5
 158:src/kernel/../../h/riscv.hpp ****     return sepc;
 2963              		.loc 2 158 5
 158:src/kernel/../../h/riscv.hpp ****     return sepc;
 2964              		.loc 2 158 51 is_stmt 0
 2965              	#APP
 2966              	# 158 "src/kernel/../../h/riscv.hpp" 1
 2967              		csrr a5, sepc
 2968              	# 0 "" 2
 2969              	.LVL256:
 159:src/kernel/../../h/riscv.hpp **** }
 2970              		.loc 2 159 5 is_stmt 1
 2971              	#NO_APP
 2972              	.LBE191:
 2973              	.LBE190:
 176:src/kernel/riscv.cpp ****         TCB::running->sepc = sepc;
 2974              		.loc 1 176 47 is_stmt 0
 2975 0fc4 93874700 		addi	a5,a5,4
 176:src/kernel/riscv.cpp ****         TCB::running->sepc = sepc;
 2976              		.loc 1 176 48
 2977 0fc8 2330F4FA 		sd	a5,-96(s0)
 177:src/kernel/riscv.cpp ****         TCB::running->sstatus = sstatus;
 2978              		.loc 1 177 9 is_stmt 1
 177:src/kernel/riscv.cpp ****         TCB::running->sstatus = sstatus;
 2979              		.loc 1 177 23 is_stmt 0
 2980 0fcc 97070000 		la	a5,_ZN3TCB7runningE
 2980      83B70700 
 2981 0fd4 83B70700 		ld	a5,0(a5)
 177:src/kernel/riscv.cpp ****         TCB::running->sstatus = sstatus;
 2982              		.loc 1 177 28
 2983 0fd8 033704FA 		ld	a4,-96(s0)
 2984 0fdc 23BCE702 		sd	a4,56(a5)
 178:src/kernel/riscv.cpp **** 
 2985              		.loc 1 178 9 is_stmt 1
 178:src/kernel/riscv.cpp **** 
 2986              		.loc 1 178 31 is_stmt 0
 2987 0fe0 033784F9 		ld	a4,-104(s0)
 2988 0fe4 23B0E704 		sd	a4,64(a5)
 181:src/kernel/riscv.cpp ****         asm("mv %[syscallID], a0" : [syscallID] "=r" (syscallID));
 2989              		.loc 1 181 9 is_stmt 1
 182:src/kernel/riscv.cpp **** 
 2990              		.loc 1 182 9
 182:src/kernel/riscv.cpp **** 
 2991              		.loc 1 182 66 is_stmt 0
 2992              	#APP
 2993              	# 182 "src/kernel/riscv.cpp" 1
GAS LISTING /tmp/ccI3Gnq8.s 			page 81


 2994              		mv a5, a0
 2995              	# 0 "" 2
 2996              	.LVL257:
 184:src/kernel/riscv.cpp ****             case 0x01 : executeMemAllocSyscall();break;
 2997              		.loc 1 184 9 is_stmt 1
 2998              	#NO_APP
 2999 0fec 13071006 		li	a4,97
 3000 0ff0 6364F702 		bgtu	a5,a4,.L143
 3001 0ff4 93972700 		slli	a5,a5,2
 3002              	.LVL258:
 3003 0ff8 17070000 		lla	a4,.L145
 3003      13070700 
 3004 1000 B387E700 		add	a5,a5,a4
 3005 1004 83A70700 		lw	a5,0(a5)
 3006 1008 B387E700 		add	a5,a5,a4
 3007 100c 67800700 		jr	a5
 3008              		.section	.rodata
 3009              		.align	2
 3010              		.align	2
 3011              	.L145:
 3012 0000 00000000 		.word	.L143-.L145
 3013 0004 00000000 		.word	.L162-.L145
 3014 0008 00000000 		.word	.L161-.L145
 3015 000c 00000000 		.word	.L143-.L145
 3016 0010 00000000 		.word	.L143-.L145
 3017 0014 00000000 		.word	.L143-.L145
 3018 0018 00000000 		.word	.L143-.L145
 3019 001c 00000000 		.word	.L143-.L145
 3020 0020 00000000 		.word	.L143-.L145
 3021 0024 00000000 		.word	.L143-.L145
 3022 0028 00000000 		.word	.L143-.L145
 3023 002c 00000000 		.word	.L143-.L145
 3024 0030 00000000 		.word	.L143-.L145
 3025 0034 00000000 		.word	.L143-.L145
 3026 0038 00000000 		.word	.L143-.L145
 3027 003c 00000000 		.word	.L143-.L145
 3028 0040 00000000 		.word	.L143-.L145
 3029 0044 00000000 		.word	.L160-.L145
 3030 0048 00000000 		.word	.L159-.L145
 3031 004c 00000000 		.word	.L158-.L145
 3032 0050 00000000 		.word	.L157-.L145
 3033 0054 00000000 		.word	.L156-.L145
 3034 0058 00000000 		.word	.L143-.L145
 3035 005c 00000000 		.word	.L143-.L145
 3036 0060 00000000 		.word	.L143-.L145
 3037 0064 00000000 		.word	.L143-.L145
 3038 0068 00000000 		.word	.L143-.L145
 3039 006c 00000000 		.word	.L143-.L145
 3040 0070 00000000 		.word	.L143-.L145
 3041 0074 00000000 		.word	.L143-.L145
 3042 0078 00000000 		.word	.L143-.L145
 3043 007c 00000000 		.word	.L143-.L145
 3044 0080 00000000 		.word	.L143-.L145
 3045 0084 00000000 		.word	.L155-.L145
 3046 0088 00000000 		.word	.L154-.L145
 3047 008c 00000000 		.word	.L153-.L145
 3048 0090 00000000 		.word	.L152-.L145
GAS LISTING /tmp/ccI3Gnq8.s 			page 82


 3049 0094 00000000 		.word	.L143-.L145
 3050 0098 00000000 		.word	.L143-.L145
 3051 009c 00000000 		.word	.L143-.L145
 3052 00a0 00000000 		.word	.L143-.L145
 3053 00a4 00000000 		.word	.L143-.L145
 3054 00a8 00000000 		.word	.L143-.L145
 3055 00ac 00000000 		.word	.L143-.L145
 3056 00b0 00000000 		.word	.L143-.L145
 3057 00b4 00000000 		.word	.L143-.L145
 3058 00b8 00000000 		.word	.L143-.L145
 3059 00bc 00000000 		.word	.L143-.L145
 3060 00c0 00000000 		.word	.L143-.L145
 3061 00c4 00000000 		.word	.L151-.L145
 3062 00c8 00000000 		.word	.L143-.L145
 3063 00cc 00000000 		.word	.L143-.L145
 3064 00d0 00000000 		.word	.L143-.L145
 3065 00d4 00000000 		.word	.L143-.L145
 3066 00d8 00000000 		.word	.L143-.L145
 3067 00dc 00000000 		.word	.L143-.L145
 3068 00e0 00000000 		.word	.L143-.L145
 3069 00e4 00000000 		.word	.L143-.L145
 3070 00e8 00000000 		.word	.L143-.L145
 3071 00ec 00000000 		.word	.L143-.L145
 3072 00f0 00000000 		.word	.L143-.L145
 3073 00f4 00000000 		.word	.L143-.L145
 3074 00f8 00000000 		.word	.L143-.L145
 3075 00fc 00000000 		.word	.L143-.L145
 3076 0100 00000000 		.word	.L143-.L145
 3077 0104 00000000 		.word	.L150-.L145
 3078 0108 00000000 		.word	.L149-.L145
 3079 010c 00000000 		.word	.L148-.L145
 3080 0110 00000000 		.word	.L143-.L145
 3081 0114 00000000 		.word	.L143-.L145
 3082 0118 00000000 		.word	.L143-.L145
 3083 011c 00000000 		.word	.L143-.L145
 3084 0120 00000000 		.word	.L143-.L145
 3085 0124 00000000 		.word	.L143-.L145
 3086 0128 00000000 		.word	.L143-.L145
 3087 012c 00000000 		.word	.L143-.L145
 3088 0130 00000000 		.word	.L143-.L145
 3089 0134 00000000 		.word	.L143-.L145
 3090 0138 00000000 		.word	.L143-.L145
 3091 013c 00000000 		.word	.L143-.L145
 3092 0140 00000000 		.word	.L143-.L145
 3093 0144 00000000 		.word	.L147-.L145
 3094 0148 00000000 		.word	.L146-.L145
 3095 014c 00000000 		.word	.L143-.L145
 3096 0150 00000000 		.word	.L143-.L145
 3097 0154 00000000 		.word	.L143-.L145
 3098 0158 00000000 		.word	.L143-.L145
 3099 015c 00000000 		.word	.L143-.L145
 3100 0160 00000000 		.word	.L143-.L145
 3101 0164 00000000 		.word	.L143-.L145
 3102 0168 00000000 		.word	.L143-.L145
 3103 016c 00000000 		.word	.L143-.L145
 3104 0170 00000000 		.word	.L143-.L145
 3105 0174 00000000 		.word	.L143-.L145
GAS LISTING /tmp/ccI3Gnq8.s 			page 83


 3106 0178 00000000 		.word	.L143-.L145
 3107 017c 00000000 		.word	.L143-.L145
 3108 0180 00000000 		.word	.L143-.L145
 3109 0184 00000000 		.word	.L144-.L145
 3110              		.text
 3111              	.L162:
 185:src/kernel/riscv.cpp ****             case 0x02 : executeMemFreeSyscall();break;
 3112              		.loc 1 185 13
 185:src/kernel/riscv.cpp ****             case 0x02 : executeMemFreeSyscall();break;
 3113              		.loc 1 185 25
 185:src/kernel/riscv.cpp ****             case 0x02 : executeMemFreeSyscall();break;
 3114              		.loc 1 185 47 is_stmt 0
 3115 1010 97000000 		call	_ZN5RiscV22executeMemAllocSyscallEv
 3115      E7800000 
 3116              	.LVL259:
 185:src/kernel/riscv.cpp ****             case 0x02 : executeMemFreeSyscall();break;
 3117              		.loc 1 185 50 is_stmt 1
 3118              	.L143:
 212:src/kernel/riscv.cpp ****         RiscV::w_sepc(TCB::running->sepc);
 3119              		.loc 1 212 9
 212:src/kernel/riscv.cpp ****         RiscV::w_sepc(TCB::running->sepc);
 3120              		.loc 1 212 25 is_stmt 0
 3121 1018 97070000 		la	a5,_ZN3TCB7runningE
 3121      83B70700 
 3122 1020 83B70700 		ld	a5,0(a5)
 3123 1024 03B70704 		ld	a4,64(a5)
 3124              	.LVL260:
 3125              	.LBB192:
 3126              	.LBB193:
 173:src/kernel/../../h/riscv.hpp **** }
 3127              		.loc 2 173 5 is_stmt 1
 173:src/kernel/../../h/riscv.hpp **** }
 3128              		.loc 2 173 64 is_stmt 0
 3129              	#APP
 3130              	# 173 "src/kernel/../../h/riscv.hpp" 1
 3131              		csrw sstatus, a4
 3132              	# 0 "" 2
 3133              	.LVL261:
 3134              	#NO_APP
 3135              	.LBE193:
 3136              	.LBE192:
 213:src/kernel/riscv.cpp ****     }
 3137              		.loc 1 213 9 is_stmt 1
 213:src/kernel/riscv.cpp ****     }
 3138              		.loc 1 213 22 is_stmt 0
 3139 102c 83B78703 		ld	a5,56(a5)
 3140              	.LVL262:
 3141              	.LBB194:
 3142              	.LBB195:
 163:src/kernel/../../h/riscv.hpp **** }
 3143              		.loc 2 163 5 is_stmt 1
 163:src/kernel/../../h/riscv.hpp **** }
 3144              		.loc 2 163 52 is_stmt 0
 3145              	#APP
 3146              	# 163 "src/kernel/../../h/riscv.hpp" 1
 3147              		csrw sepc, a5
 3148              	# 0 "" 2
GAS LISTING /tmp/ccI3Gnq8.s 			page 84


 3149              	.LVL263:
 3150              	#NO_APP
 3151              	.L163:
 3152              	.LBE195:
 3153              	.LBE194:
 3154              	.LBE187:
 3155              	.LBE200:
 316:src/kernel/riscv.cpp **** }
 3156              		.loc 1 316 5 is_stmt 1
 316:src/kernel/riscv.cpp **** }
 3157              		.loc 1 316 41 is_stmt 0
 3158 1034 97000000 		call	_ZN5RiscV29jumpToDesignatedPrivilegeModeEv
 3158      E7800000 
 3159              	.LVL264:
 317:src/kernel/riscv.cpp **** 
 3160              		.loc 1 317 1
 3161 103c 83308106 		ld	ra,104(sp)
 3162              		.cfi_remember_state
 3163              		.cfi_restore 1
 3164 1040 03340106 		ld	s0,96(sp)
 3165              		.cfi_restore 8
 3166              		.cfi_def_cfa 2, 112
 3167 1044 83348105 		ld	s1,88(sp)
 3168              		.cfi_restore 9
 3169              	.LVL265:
 3170 1048 13010107 		addi	sp,sp,112
 3171              		.cfi_def_cfa_offset 0
 3172 104c 67800000 		jr	ra
 3173              	.LVL266:
 3174              	.L161:
 3175              		.cfi_restore_state
 3176              	.LBB201:
 3177              	.LBB196:
 186:src/kernel/riscv.cpp ****             case 0x11 : executeThreadCreateSyscall();break;
 3178              		.loc 1 186 13 is_stmt 1
 186:src/kernel/riscv.cpp ****             case 0x11 : executeThreadCreateSyscall();break;
 3179              		.loc 1 186 25
 186:src/kernel/riscv.cpp ****             case 0x11 : executeThreadCreateSyscall();break;
 3180              		.loc 1 186 46 is_stmt 0
 3181 1050 97000000 		call	_ZN5RiscV21executeMemFreeSyscallEv
 3181      E7800000 
 3182              	.LVL267:
 186:src/kernel/riscv.cpp ****             case 0x11 : executeThreadCreateSyscall();break;
 3183              		.loc 1 186 49 is_stmt 1
 3184 1058 6FF01FFC 		j	.L143
 3185              	.L160:
 187:src/kernel/riscv.cpp ****             case 0x12 : executeThreadExitSyscall();break;
 3186              		.loc 1 187 13
 187:src/kernel/riscv.cpp ****             case 0x12 : executeThreadExitSyscall();break;
 3187              		.loc 1 187 25
 187:src/kernel/riscv.cpp ****             case 0x12 : executeThreadExitSyscall();break;
 3188              		.loc 1 187 51 is_stmt 0
 3189 105c 97000000 		call	_ZN5RiscV26executeThreadCreateSyscallEv
 3189      E7800000 
 3190              	.LVL268:
 187:src/kernel/riscv.cpp ****             case 0x12 : executeThreadExitSyscall();break;
 3191              		.loc 1 187 54 is_stmt 1
GAS LISTING /tmp/ccI3Gnq8.s 			page 85


 3192 1064 6FF05FFB 		j	.L143
 3193              	.L159:
 188:src/kernel/riscv.cpp ****             case 0x13 : executeThreadDispatchSyscall();break;
 3194              		.loc 1 188 13
 188:src/kernel/riscv.cpp ****             case 0x13 : executeThreadDispatchSyscall();break;
 3195              		.loc 1 188 25
 188:src/kernel/riscv.cpp ****             case 0x13 : executeThreadDispatchSyscall();break;
 3196              		.loc 1 188 49 is_stmt 0
 3197 1068 97000000 		call	_ZN5RiscV24executeThreadExitSyscallEv
 3197      E7800000 
 3198              	.LVL269:
 188:src/kernel/riscv.cpp ****             case 0x13 : executeThreadDispatchSyscall();break;
 3199              		.loc 1 188 52 is_stmt 1
 3200 1070 6FF09FFA 		j	.L143
 3201              	.L158:
 189:src/kernel/riscv.cpp ****             case 0x14 : executeThreadAttachBodySyscall();break;
 3202              		.loc 1 189 13
 189:src/kernel/riscv.cpp ****             case 0x14 : executeThreadAttachBodySyscall();break;
 3203              		.loc 1 189 25
 189:src/kernel/riscv.cpp ****             case 0x14 : executeThreadAttachBodySyscall();break;
 3204              		.loc 1 189 53 is_stmt 0
 3205 1074 97000000 		call	_ZN5RiscV28executeThreadDispatchSyscallEv
 3205      E7800000 
 3206              	.LVL270:
 189:src/kernel/riscv.cpp ****             case 0x14 : executeThreadAttachBodySyscall();break;
 3207              		.loc 1 189 56 is_stmt 1
 3208 107c 6FF0DFF9 		j	.L143
 3209              	.L157:
 190:src/kernel/riscv.cpp ****             case 0x15 : executeThreadStartSyscall();break;
 3210              		.loc 1 190 13
 190:src/kernel/riscv.cpp ****             case 0x15 : executeThreadStartSyscall();break;
 3211              		.loc 1 190 25
 190:src/kernel/riscv.cpp ****             case 0x15 : executeThreadStartSyscall();break;
 3212              		.loc 1 190 55 is_stmt 0
 3213 1080 97000000 		call	_ZN5RiscV30executeThreadAttachBodySyscallEv
 3213      E7800000 
 3214              	.LVL271:
 190:src/kernel/riscv.cpp ****             case 0x15 : executeThreadStartSyscall();break;
 3215              		.loc 1 190 58 is_stmt 1
 3216 1088 6FF01FF9 		j	.L143
 3217              	.L156:
 191:src/kernel/riscv.cpp ****             case 0x21 : executeSemOpenSyscall();break;
 3218              		.loc 1 191 13
 191:src/kernel/riscv.cpp ****             case 0x21 : executeSemOpenSyscall();break;
 3219              		.loc 1 191 25
 191:src/kernel/riscv.cpp ****             case 0x21 : executeSemOpenSyscall();break;
 3220              		.loc 1 191 50 is_stmt 0
 3221 108c 97000000 		call	_ZN5RiscV25executeThreadStartSyscallEv
 3221      E7800000 
 3222              	.LVL272:
 191:src/kernel/riscv.cpp ****             case 0x21 : executeSemOpenSyscall();break;
 3223              		.loc 1 191 53 is_stmt 1
 3224 1094 6FF05FF8 		j	.L143
 3225              	.L155:
 192:src/kernel/riscv.cpp ****             case 0x22 : executeSemCloseSyscall();break;
 3226              		.loc 1 192 13
 192:src/kernel/riscv.cpp ****             case 0x22 : executeSemCloseSyscall();break;
GAS LISTING /tmp/ccI3Gnq8.s 			page 86


 3227              		.loc 1 192 25
 192:src/kernel/riscv.cpp ****             case 0x22 : executeSemCloseSyscall();break;
 3228              		.loc 1 192 46 is_stmt 0
 3229 1098 97000000 		call	_ZN5RiscV21executeSemOpenSyscallEv
 3229      E7800000 
 3230              	.LVL273:
 192:src/kernel/riscv.cpp ****             case 0x22 : executeSemCloseSyscall();break;
 3231              		.loc 1 192 49 is_stmt 1
 3232 10a0 6FF09FF7 		j	.L143
 3233              	.L154:
 193:src/kernel/riscv.cpp ****             case 0x23 : executeSemWaitSyscall();break;
 3234              		.loc 1 193 13
 193:src/kernel/riscv.cpp ****             case 0x23 : executeSemWaitSyscall();break;
 3235              		.loc 1 193 25
 193:src/kernel/riscv.cpp ****             case 0x23 : executeSemWaitSyscall();break;
 3236              		.loc 1 193 47 is_stmt 0
 3237 10a4 97000000 		call	_ZN5RiscV22executeSemCloseSyscallEv
 3237      E7800000 
 3238              	.LVL274:
 193:src/kernel/riscv.cpp ****             case 0x23 : executeSemWaitSyscall();break;
 3239              		.loc 1 193 50 is_stmt 1
 3240 10ac 6FF0DFF6 		j	.L143
 3241              	.L153:
 194:src/kernel/riscv.cpp ****             case 0x24 : executeSemSignalSyscall();break;
 3242              		.loc 1 194 13
 194:src/kernel/riscv.cpp ****             case 0x24 : executeSemSignalSyscall();break;
 3243              		.loc 1 194 25
 194:src/kernel/riscv.cpp ****             case 0x24 : executeSemSignalSyscall();break;
 3244              		.loc 1 194 46 is_stmt 0
 3245 10b0 97000000 		call	_ZN5RiscV21executeSemWaitSyscallEv
 3245      E7800000 
 3246              	.LVL275:
 194:src/kernel/riscv.cpp ****             case 0x24 : executeSemSignalSyscall();break;
 3247              		.loc 1 194 49 is_stmt 1
 3248 10b8 6FF01FF6 		j	.L143
 3249              	.L152:
 195:src/kernel/riscv.cpp ****             case 0x31 : executeTimeSleepSyscall();break;
 3250              		.loc 1 195 13
 195:src/kernel/riscv.cpp ****             case 0x31 : executeTimeSleepSyscall();break;
 3251              		.loc 1 195 25
 195:src/kernel/riscv.cpp ****             case 0x31 : executeTimeSleepSyscall();break;
 3252              		.loc 1 195 48 is_stmt 0
 3253 10bc 97000000 		call	_ZN5RiscV23executeSemSignalSyscallEv
 3253      E7800000 
 3254              	.LVL276:
 195:src/kernel/riscv.cpp ****             case 0x31 : executeTimeSleepSyscall();break;
 3255              		.loc 1 195 51 is_stmt 1
 3256 10c4 6FF05FF5 		j	.L143
 3257              	.L151:
 196:src/kernel/riscv.cpp ****             case 0x41 : executeGetcSyscall();break;
 3258              		.loc 1 196 13
 196:src/kernel/riscv.cpp ****             case 0x41 : executeGetcSyscall();break;
 3259              		.loc 1 196 25
 196:src/kernel/riscv.cpp ****             case 0x41 : executeGetcSyscall();break;
 3260              		.loc 1 196 48 is_stmt 0
 3261 10c8 97000000 		call	_ZN5RiscV23executeTimeSleepSyscallEv
 3261      E7800000 
GAS LISTING /tmp/ccI3Gnq8.s 			page 87


 3262              	.LVL277:
 196:src/kernel/riscv.cpp ****             case 0x41 : executeGetcSyscall();break;
 3263              		.loc 1 196 51 is_stmt 1
 3264 10d0 6FF09FF4 		j	.L143
 3265              	.L150:
 197:src/kernel/riscv.cpp ****             case 0x42 : executePutcSyscall();break;
 3266              		.loc 1 197 13
 197:src/kernel/riscv.cpp ****             case 0x42 : executePutcSyscall();break;
 3267              		.loc 1 197 25
 197:src/kernel/riscv.cpp ****             case 0x42 : executePutcSyscall();break;
 3268              		.loc 1 197 43 is_stmt 0
 3269 10d4 97000000 		call	_ZN5RiscV18executeGetcSyscallEv
 3269      E7800000 
 3270              	.LVL278:
 197:src/kernel/riscv.cpp ****             case 0x42 : executePutcSyscall();break;
 3271              		.loc 1 197 46 is_stmt 1
 3272 10dc 6FF0DFF3 		j	.L143
 3273              	.L149:
 198:src/kernel/riscv.cpp ****             case 0x43 : executePutcUtilSyscall();break;
 3274              		.loc 1 198 13
 198:src/kernel/riscv.cpp ****             case 0x43 : executePutcUtilSyscall();break;
 3275              		.loc 1 198 25
 198:src/kernel/riscv.cpp ****             case 0x43 : executePutcUtilSyscall();break;
 3276              		.loc 1 198 43 is_stmt 0
 3277 10e0 97000000 		call	_ZN5RiscV18executePutcSyscallEv
 3277      E7800000 
 3278              	.LVL279:
 198:src/kernel/riscv.cpp ****             case 0x43 : executePutcUtilSyscall();break;
 3279              		.loc 1 198 46 is_stmt 1
 3280 10e8 6FF01FF3 		j	.L143
 3281              	.L148:
 199:src/kernel/riscv.cpp ****             case 0x51 : executeThreadFreeSyscall();break;
 3282              		.loc 1 199 13
 199:src/kernel/riscv.cpp ****             case 0x51 : executeThreadFreeSyscall();break;
 3283              		.loc 1 199 25
 199:src/kernel/riscv.cpp ****             case 0x51 : executeThreadFreeSyscall();break;
 3284              		.loc 1 199 47 is_stmt 0
 3285 10ec 97000000 		call	_ZN5RiscV22executePutcUtilSyscallEv
 3285      E7800000 
 3286              	.LVL280:
 199:src/kernel/riscv.cpp ****             case 0x51 : executeThreadFreeSyscall();break;
 3287              		.loc 1 199 50 is_stmt 1
 3288 10f4 6FF05FF2 		j	.L143
 3289              	.L147:
 200:src/kernel/riscv.cpp ****             case 0x52 : executeSemaphoreFreeSyscall();break;
 3290              		.loc 1 200 13
 200:src/kernel/riscv.cpp ****             case 0x52 : executeSemaphoreFreeSyscall();break;
 3291              		.loc 1 200 25
 200:src/kernel/riscv.cpp ****             case 0x52 : executeSemaphoreFreeSyscall();break;
 3292              		.loc 1 200 49 is_stmt 0
 3293 10f8 97000000 		call	_ZN5RiscV24executeThreadFreeSyscallEv
 3293      E7800000 
 3294              	.LVL281:
 200:src/kernel/riscv.cpp ****             case 0x52 : executeSemaphoreFreeSyscall();break;
 3295              		.loc 1 200 52 is_stmt 1
 3296 1100 6FF09FF1 		j	.L143
 3297              	.L146:
GAS LISTING /tmp/ccI3Gnq8.s 			page 88


 201:src/kernel/riscv.cpp ****             //in this case we need to save SP and PC at this point so that newly created thread
 3298              		.loc 1 201 13
 201:src/kernel/riscv.cpp ****             //in this case we need to save SP and PC at this point so that newly created thread
 3299              		.loc 1 201 25
 201:src/kernel/riscv.cpp ****             //in this case we need to save SP and PC at this point so that newly created thread
 3300              		.loc 1 201 52 is_stmt 0
 3301 1104 97000000 		call	_ZN5RiscV27executeSemaphoreFreeSyscallEv
 3301      E7800000 
 3302              	.LVL282:
 201:src/kernel/riscv.cpp ****             //in this case we need to save SP and PC at this point so that newly created thread
 3303              		.loc 1 201 55 is_stmt 1
 3304 110c 6FF0DFF0 		j	.L143
 3305              	.L144:
 205:src/kernel/riscv.cpp ****                         RiscV::getPC();
 3306              		.loc 1 205 13
 205:src/kernel/riscv.cpp ****                         RiscV::getPC();
 3307              		.loc 1 205 25
 205:src/kernel/riscv.cpp ****                         RiscV::getPC();
 3308              		.loc 1 205 72 is_stmt 0
 3309              	#APP
 3310              	# 205 "src/kernel/riscv.cpp" 1
 3311              		mv a5, sp
 3312              	# 0 "" 2
 3313              	#NO_APP
 3314 1114 17070000 		la	a4,_ZN3TCB9currentSPE
 3314      03370700 
 3315 111c 2330F700 		sd	a5,0(a4)
 206:src/kernel/riscv.cpp ****                         executeForkSyscall();
 3316              		.loc 1 206 25 is_stmt 1
 206:src/kernel/riscv.cpp ****                         executeForkSyscall();
 3317              		.loc 1 206 37 is_stmt 0
 3318 1120 97000000 		call	_ZN5RiscV5getPCEv
 3318      E7800000 
 3319              	.LVL283:
 207:src/kernel/riscv.cpp ****                         break;
 3320              		.loc 1 207 25 is_stmt 1
 207:src/kernel/riscv.cpp ****                         break;
 3321              		.loc 1 207 43 is_stmt 0
 3322 1128 97000000 		call	_ZN5RiscV18executeForkSyscallEv
 3322      E7800000 
 3323              	.LVL284:
 208:src/kernel/riscv.cpp ****         }
 3324              		.loc 1 208 25 is_stmt 1
 3325 1130 6FF09FEE 		j	.L143
 3326              	.L170:
 3327              	.LBE196:
 3328              	.LBB197:
 3329              	.LBB170:
 221:src/kernel/riscv.cpp ****         uint64 volatile sepc = RiscV::r_sepc();
 3330              		.loc 1 221 9
 3331              	.LBB171:
 3332              	.LBB172:
 177:src/kernel/../../h/riscv.hpp ****     asm("csrr %[sstatus], sstatus" : [sstatus] "=r" (sstatus));
 3333              		.loc 2 177 5
 178:src/kernel/../../h/riscv.hpp ****     return sstatus;
 3334              		.loc 2 178 5
 178:src/kernel/../../h/riscv.hpp ****     return sstatus;
GAS LISTING /tmp/ccI3Gnq8.s 			page 89


 3335              		.loc 2 178 63 is_stmt 0
 3336              	#APP
 3337              	# 178 "src/kernel/../../h/riscv.hpp" 1
 3338              		csrr a5, sstatus
 3339              	# 0 "" 2
 3340              	.LVL285:
 179:src/kernel/../../h/riscv.hpp **** }
 3341              		.loc 2 179 5 is_stmt 1
 3342              	#NO_APP
 3343              	.LBE172:
 3344              	.LBE171:
 221:src/kernel/riscv.cpp ****         uint64 volatile sepc = RiscV::r_sepc();
 3345              		.loc 1 221 52 is_stmt 0
 3346 1138 2334F4FA 		sd	a5,-88(s0)
 222:src/kernel/riscv.cpp **** 
 3347              		.loc 1 222 9 is_stmt 1
 3348              	.LBB173:
 3349              	.LBB174:
 157:src/kernel/../../h/riscv.hpp ****     asm("csrr %[sepc], sepc" : [sepc] "=r" (sepc));
 3350              		.loc 2 157 5
 158:src/kernel/../../h/riscv.hpp ****     return sepc;
 3351              		.loc 2 158 5
 158:src/kernel/../../h/riscv.hpp ****     return sepc;
 3352              		.loc 2 158 51 is_stmt 0
 3353              	#APP
 3354              	# 158 "src/kernel/../../h/riscv.hpp" 1
 3355              		csrr a5, sepc
 3356              	# 0 "" 2
 3357              	.LVL286:
 159:src/kernel/../../h/riscv.hpp **** }
 3358              		.loc 2 159 5 is_stmt 1
 3359              	#NO_APP
 3360              	.LBE174:
 3361              	.LBE173:
 222:src/kernel/riscv.cpp **** 
 3362              		.loc 1 222 46 is_stmt 0
 3363 1140 2338F4FA 		sd	a5,-80(s0)
 225:src/kernel/riscv.cpp **** 
 3364              		.loc 1 225 9 is_stmt 1
 3365              	.LVL287:
 3366              	.LBB175:
 3367              	.LBB176:
 199:src/kernel/../../h/riscv.hpp **** }
 3368              		.loc 2 199 5
 199:src/kernel/../../h/riscv.hpp **** }
 3369              		.loc 2 199 51 is_stmt 0
 3370 1144 93072000 		li	a5,2
 3371              	#APP
 3372              	# 199 "src/kernel/../../h/riscv.hpp" 1
 3373              		csrc sip, a5
 3374              	# 0 "" 2
 3375              	.LVL288:
 3376              	#NO_APP
 3377              	.LBE176:
 3378              	.LBE175:
 229:src/kernel/riscv.cpp ****         Scheduler::awake();
 3379              		.loc 1 229 9 is_stmt 1
GAS LISTING /tmp/ccI3Gnq8.s 			page 90


 229:src/kernel/riscv.cpp ****         Scheduler::awake();
 3380              		.loc 1 229 20 is_stmt 0
 3381 114c 17070000 		lla	a4,.LANCHOR0
 3381      13070700 
 3382 1154 83370701 		ld	a5,16(a4)
 3383 1158 93871700 		addi	a5,a5,1
 3384 115c 2338F700 		sd	a5,16(a4)
 230:src/kernel/riscv.cpp **** 
 3385              		.loc 1 230 9 is_stmt 1
 230:src/kernel/riscv.cpp **** 
 3386              		.loc 1 230 25 is_stmt 0
 3387 1160 97000000 		call	_ZN9Scheduler5awakeEv@plt
 3387      E7800000 
 3388              	.LVL289:
 234:src/kernel/riscv.cpp ****         if(TCB::timeSliceCounter >= TCB::running->timeSlice) {
 3389              		.loc 1 234 9 is_stmt 1
 234:src/kernel/riscv.cpp ****         if(TCB::timeSliceCounter >= TCB::running->timeSlice) {
 3390              		.loc 1 234 30 is_stmt 0
 3391 1168 17070000 		la	a4,_ZN3TCB16timeSliceCounterE
 3391      03370700 
 3392 1170 83370700 		ld	a5,0(a4)
 3393 1174 93871700 		addi	a5,a5,1
 3394 1178 2330F700 		sd	a5,0(a4)
 235:src/kernel/riscv.cpp **** 
 3395              		.loc 1 235 9 is_stmt 1
 3396              	.LBB177:
 235:src/kernel/riscv.cpp **** 
 3397              		.loc 1 235 51 is_stmt 0
 3398 117c 17070000 		la	a4,_ZN3TCB7runningE
 3398      03370700 
 3399 1184 03370700 		ld	a4,0(a4)
 3400 1188 83360703 		ld	a3,48(a4)
 235:src/kernel/riscv.cpp **** 
 3401              		.loc 1 235 9
 3402 118c 63FCD700 		bgeu	a5,a3,.L173
 3403              	.L164:
 3404              	.LBE177:
 247:src/kernel/riscv.cpp ****         RiscV::w_sepc(sepc);
 3405              		.loc 1 247 9 is_stmt 1
 247:src/kernel/riscv.cpp ****         RiscV::w_sepc(sepc);
 3406              		.loc 1 247 25 is_stmt 0
 3407 1190 833784FA 		ld	a5,-88(s0)
 3408              	.LVL290:
 3409              	.LBB179:
 3410              	.LBB180:
 173:src/kernel/../../h/riscv.hpp **** }
 3411              		.loc 2 173 5 is_stmt 1
 173:src/kernel/../../h/riscv.hpp **** }
 3412              		.loc 2 173 64 is_stmt 0
 3413              	#APP
 3414              	# 173 "src/kernel/../../h/riscv.hpp" 1
 3415              		csrw sstatus, a5
 3416              	# 0 "" 2
 3417              	.LVL291:
 3418              	#NO_APP
 3419              	.LBE180:
 3420              	.LBE179:
GAS LISTING /tmp/ccI3Gnq8.s 			page 91


 248:src/kernel/riscv.cpp ****     }
 3421              		.loc 1 248 9 is_stmt 1
 248:src/kernel/riscv.cpp ****     }
 3422              		.loc 1 248 22 is_stmt 0
 3423 1198 833704FB 		ld	a5,-80(s0)
 3424              	.LVL292:
 3425              	.LBB181:
 3426              	.LBB182:
 163:src/kernel/../../h/riscv.hpp **** }
 3427              		.loc 2 163 5 is_stmt 1
 163:src/kernel/../../h/riscv.hpp **** }
 3428              		.loc 2 163 52 is_stmt 0
 3429              	#APP
 3430              	# 163 "src/kernel/../../h/riscv.hpp" 1
 164:src/kernel/../../h/riscv.hpp **** 
 3431              		csrw sepc, a5
 3432              	# 0 "" 2
 3433              		.loc 2 164 1
 3434              	#NO_APP
 3435 11a0 6FF05FE9 		j	.L163
 3436              	.LVL293:
 3437              	.L173:
 3438              	.LBE182:
 3439              	.LBE181:
 3440              	.LBB183:
 3441              	.LBB178:
 237:src/kernel/riscv.cpp **** 
 3442              		.loc 1 237 13 is_stmt 1
 237:src/kernel/riscv.cpp **** 
 3443              		.loc 1 237 35 is_stmt 0
 3444 11a4 97070000 		la	a5,_ZN3TCB16timeSliceCounterE
 3444      83B70700 
 3445 11ac 23B00700 		sd	zero,0(a5)
 239:src/kernel/riscv.cpp **** 
 3446              		.loc 1 239 13 is_stmt 1
 3447              	.LVL294:
 241:src/kernel/riscv.cpp **** 
 3448              		.loc 1 241 13
 241:src/kernel/riscv.cpp **** 
 3449              		.loc 1 241 25 is_stmt 0
 3450 11b0 93071000 		li	a5,1
 3451 11b4 2328F700 		sw	a5,16(a4)
 243:src/kernel/riscv.cpp ****         }
 3452              		.loc 1 243 13 is_stmt 1
 243:src/kernel/riscv.cpp ****         }
 3453              		.loc 1 243 26 is_stmt 0
 3454 11b8 97000000 		call	_ZN3TCB8dispatchEv@plt
 3454      E7800000 
 3455              	.LVL295:
 3456              	.LBE178:
 3457 11c0 6FF01FFD 		j	.L164
 3458              	.L171:
 3459              	.LBE183:
 3460              	.LBE170:
 3461              	.LBB184:
 3462              	.LBB155:
 255:src/kernel/riscv.cpp ****         uint64 volatile sepc = RiscV::r_sepc();
GAS LISTING /tmp/ccI3Gnq8.s 			page 92


 3463              		.loc 1 255 9 is_stmt 1
 3464              	.LBB156:
 3465              	.LBB157:
 177:src/kernel/../../h/riscv.hpp ****     asm("csrr %[sstatus], sstatus" : [sstatus] "=r" (sstatus));
 3466              		.loc 2 177 5
 178:src/kernel/../../h/riscv.hpp ****     return sstatus;
 3467              		.loc 2 178 5
 178:src/kernel/../../h/riscv.hpp ****     return sstatus;
 3468              		.loc 2 178 63 is_stmt 0
 3469              	#APP
 3470              	# 178 "src/kernel/../../h/riscv.hpp" 1
 3471              		csrr a5, sstatus
 3472              	# 0 "" 2
 3473              	.LVL296:
 179:src/kernel/../../h/riscv.hpp **** }
 3474              		.loc 2 179 5 is_stmt 1
 3475              	#NO_APP
 3476              	.LBE157:
 3477              	.LBE156:
 255:src/kernel/riscv.cpp ****         uint64 volatile sepc = RiscV::r_sepc();
 3478              		.loc 1 255 52 is_stmt 0
 3479 11c8 233CF4FA 		sd	a5,-72(s0)
 256:src/kernel/riscv.cpp **** 
 3480              		.loc 1 256 9 is_stmt 1
 3481              	.LBB158:
 3482              	.LBB159:
 157:src/kernel/../../h/riscv.hpp ****     asm("csrr %[sepc], sepc" : [sepc] "=r" (sepc));
 3483              		.loc 2 157 5
 158:src/kernel/../../h/riscv.hpp ****     return sepc;
 3484              		.loc 2 158 5
 158:src/kernel/../../h/riscv.hpp ****     return sepc;
 3485              		.loc 2 158 51 is_stmt 0
 3486              	#APP
 3487              	# 158 "src/kernel/../../h/riscv.hpp" 1
 3488              		csrr a5, sepc
 3489              	# 0 "" 2
 3490              	.LVL297:
 159:src/kernel/../../h/riscv.hpp **** }
 3491              		.loc 2 159 5 is_stmt 1
 3492              	#NO_APP
 3493              	.LBE159:
 3494              	.LBE158:
 256:src/kernel/riscv.cpp **** 
 3495              		.loc 1 256 46 is_stmt 0
 3496 11d0 2330F4FC 		sd	a5,-64(s0)
 259:src/kernel/riscv.cpp ****         asm("mv a0, %[status]" : : [status] "r" (status));
 3497              		.loc 1 259 9 is_stmt 1
 259:src/kernel/riscv.cpp ****         asm("mv a0, %[status]" : : [status] "r" (status));
 3498              		.loc 1 259 16 is_stmt 0
 3499 11d4 97070000 		la	a5,CONSOLE_STATUS
 3499      83B70700 
 3500 11dc 83B70700 		ld	a5,0(a5)
 3501              	.LVL298:
 260:src/kernel/riscv.cpp ****         asm("lb a1, 0(a0)");
 3502              		.loc 1 260 9 is_stmt 1
 260:src/kernel/riscv.cpp ****         asm("lb a1, 0(a0)");
 3503              		.loc 1 260 58 is_stmt 0
GAS LISTING /tmp/ccI3Gnq8.s 			page 93


 3504              	#APP
 3505              	# 260 "src/kernel/riscv.cpp" 1
 261:src/kernel/riscv.cpp ****         asm("mv %[status], a1" : [status] "=r" (status));
 3506              		mv a0, a5
 3507              	# 0 "" 2
 3508              		.loc 1 261 9 is_stmt 1
 261:src/kernel/riscv.cpp ****         asm("mv %[status], a1" : [status] "=r" (status));
 3509              		.loc 1 261 28 is_stmt 0
 3510              	# 261 "src/kernel/riscv.cpp" 1
 262:src/kernel/riscv.cpp **** 
 3511              		lb a1, 0(a0)
 3512              	# 0 "" 2
 3513              		.loc 1 262 9 is_stmt 1
 262:src/kernel/riscv.cpp **** 
 3514              		.loc 1 262 57 is_stmt 0
 3515              	# 262 "src/kernel/riscv.cpp" 1
 3516              		mv a5, a1
 3517              	# 0 "" 2
 3518              	.LVL299:
 265:src/kernel/riscv.cpp ****         {
 3519              		.loc 1 265 9 is_stmt 1
 3520              	#NO_APP
 3521              	.LBB160:
 265:src/kernel/riscv.cpp ****         {
 3522              		.loc 1 265 19 is_stmt 0
 3523 11ec 93F71700 		andi	a5,a5,1
 3524              	.LVL300:
 265:src/kernel/riscv.cpp ****         {
 3525              		.loc 1 265 9
 3526 11f0 63880702 		beqz	a5,.L166
 3527              	.LBB161:
 268:src/kernel/riscv.cpp ****             char c;
 3528              		.loc 1 268 13 is_stmt 1
 269:src/kernel/riscv.cpp ****             data = CONSOLE_TX_DATA;
 3529              		.loc 1 269 13
 270:src/kernel/riscv.cpp ****             asm("mv a0, %[data]" : : [data] "r" (data));
 3530              		.loc 1 270 13
 270:src/kernel/riscv.cpp ****             asm("mv a0, %[data]" : : [data] "r" (data));
 3531              		.loc 1 270 18 is_stmt 0
 3532 11f4 97070000 		la	a5,CONSOLE_TX_DATA
 3532      83B70700 
 3533 11fc 83B70700 		ld	a5,0(a5)
 3534              	.LVL301:
 271:src/kernel/riscv.cpp ****             asm("lb a1, 0(a0)");
 3535              		.loc 1 271 13 is_stmt 1
 271:src/kernel/riscv.cpp ****             asm("lb a1, 0(a0)");
 3536              		.loc 1 271 56 is_stmt 0
 3537              	#APP
 3538              	# 271 "src/kernel/riscv.cpp" 1
 272:src/kernel/riscv.cpp ****             asm("mv %[c], a1" : [c] "=r" (c));
 3539              		mv a0, a5
 3540              	# 0 "" 2
 3541              		.loc 1 272 13 is_stmt 1
 272:src/kernel/riscv.cpp ****             asm("mv %[c], a1" : [c] "=r" (c));
 3542              		.loc 1 272 32 is_stmt 0
 3543              	# 272 "src/kernel/riscv.cpp" 1
 273:src/kernel/riscv.cpp **** 
GAS LISTING /tmp/ccI3Gnq8.s 			page 94


 3544              		lb a1, 0(a0)
 3545              	# 0 "" 2
 3546              		.loc 1 273 13 is_stmt 1
 273:src/kernel/riscv.cpp **** 
 3547              		.loc 1 273 46 is_stmt 0
 3548              	# 273 "src/kernel/riscv.cpp" 1
 3549              		mv a0, a1
 3550              	# 0 "" 2
 3551              	#NO_APP
 3552 120c 1375F50F 		andi	a0,a0,0xff
 3553              	.LVL302:
 276:src/kernel/riscv.cpp ****                 ConsoleUtil::pendingGetc--;
 3554              		.loc 1 276 13 is_stmt 1
 276:src/kernel/riscv.cpp ****                 ConsoleUtil::pendingGetc--;
 3555              		.loc 1 276 40 is_stmt 0
 3556 1210 97070000 		la	a5,_ZN11ConsoleUtil11pendingGetcE
 3556      83B70700 
 3557              	.LVL303:
 3558 1218 83B70700 		ld	a5,0(a5)
 276:src/kernel/riscv.cpp ****                 ConsoleUtil::pendingGetc--;
 3559              		.loc 1 276 13
 3560 121c 63940702 		bnez	a5,.L174
 3561              	.LVL304:
 3562              	.L166:
 3563              	.LBE161:
 3564              	.LBE160:
 281:src/kernel/riscv.cpp **** 
 3565              		.loc 1 281 9 is_stmt 1
 281:src/kernel/riscv.cpp **** 
 3566              		.loc 1 281 22 is_stmt 0
 3567 1220 97000000 		call	plic_claim@plt
 3567      E7800000 
 3568              	.LVL305:
 3569 1228 97000000 		call	plic_complete@plt
 3569      E7800000 
 3570              	.LVL306:
 283:src/kernel/riscv.cpp ****         RiscV::w_sepc(sepc);
 3571              		.loc 1 283 9 is_stmt 1
 283:src/kernel/riscv.cpp ****         RiscV::w_sepc(sepc);
 3572              		.loc 1 283 25 is_stmt 0
 3573 1230 833784FB 		ld	a5,-72(s0)
 3574              	.LVL307:
 3575              	.LBB163:
 3576              	.LBB164:
 173:src/kernel/../../h/riscv.hpp **** }
 3577              		.loc 2 173 5 is_stmt 1
 173:src/kernel/../../h/riscv.hpp **** }
 3578              		.loc 2 173 64 is_stmt 0
 3579              	#APP
 3580              	# 173 "src/kernel/../../h/riscv.hpp" 1
 3581              		csrw sstatus, a5
 3582              	# 0 "" 2
 3583              	.LVL308:
 3584              	#NO_APP
 3585              	.LBE164:
 3586              	.LBE163:
 284:src/kernel/riscv.cpp ****     }
GAS LISTING /tmp/ccI3Gnq8.s 			page 95


 3587              		.loc 1 284 9 is_stmt 1
 284:src/kernel/riscv.cpp ****     }
 3588              		.loc 1 284 22 is_stmt 0
 3589 1238 833704FC 		ld	a5,-64(s0)
 3590              	.LVL309:
 3591              	.LBB165:
 3592              	.LBB166:
 163:src/kernel/../../h/riscv.hpp **** }
 3593              		.loc 2 163 5 is_stmt 1
 163:src/kernel/../../h/riscv.hpp **** }
 3594              		.loc 2 163 52 is_stmt 0
 3595              	#APP
 3596              	# 163 "src/kernel/../../h/riscv.hpp" 1
 164:src/kernel/../../h/riscv.hpp **** 
 3597              		csrw sepc, a5
 3598              	# 0 "" 2
 3599              		.loc 2 164 1
 3600              	#NO_APP
 3601 1240 6FF05FDF 		j	.L163
 3602              	.LVL310:
 3603              	.L174:
 3604              	.LBE166:
 3605              	.LBE165:
 3606              	.LBB167:
 3607              	.LBB162:
 277:src/kernel/riscv.cpp ****                 ConsoleUtil::putInput(c);
 3608              		.loc 1 277 17 is_stmt 1
 277:src/kernel/riscv.cpp ****                 ConsoleUtil::putInput(c);
 3609              		.loc 1 277 41 is_stmt 0
 3610 1244 9387F7FF 		addi	a5,a5,-1
 3611 1248 17070000 		la	a4,_ZN11ConsoleUtil11pendingGetcE
 3611      03370700 
 3612 1250 2330F700 		sd	a5,0(a4)
 278:src/kernel/riscv.cpp ****             }
 3613              		.loc 1 278 17 is_stmt 1
 278:src/kernel/riscv.cpp ****             }
 3614              		.loc 1 278 38 is_stmt 0
 3615 1254 97000000 		call	_ZN11ConsoleUtil8putInputEc@plt
 3615      E7800000 
 3616              	.LVL311:
 3617 125c 6FF05FFC 		j	.L166
 3618              	.LVL312:
 3619              	.L172:
 3620              	.LBE162:
 3621              	.LBE167:
 3622              	.LBE155:
 3623              	.LBB168:
 3624              	.LBB152:
 289:src/kernel/riscv.cpp ****         old->status = TCB::Status::FINISHED;
 3625              		.loc 1 289 9 is_stmt 1
 289:src/kernel/riscv.cpp ****         old->status = TCB::Status::FINISHED;
 3626              		.loc 1 289 14 is_stmt 0
 3627 1260 97070000 		la	a5,_ZN3TCB7runningE
 3627      83B70700 
 3628 1268 83B70700 		ld	a5,0(a5)
 3629              	.LVL313:
 290:src/kernel/riscv.cpp ****         ConsoleUtil::printString("sepc: ");
GAS LISTING /tmp/ccI3Gnq8.s 			page 96


 3630              		.loc 1 290 9 is_stmt 1
 290:src/kernel/riscv.cpp ****         ConsoleUtil::printString("sepc: ");
 3631              		.loc 1 290 21 is_stmt 0
 3632 126c 13072000 		li	a4,2
 3633 1270 23A8E700 		sw	a4,16(a5)
 291:src/kernel/riscv.cpp ****         uint64 sepc = RiscV::r_sepc();
 3634              		.loc 1 291 9 is_stmt 1
 291:src/kernel/riscv.cpp ****         uint64 sepc = RiscV::r_sepc();
 3635              		.loc 1 291 33 is_stmt 0
 3636 1274 17050000 		lla	a0,.LC0
 3636      13050500 
 3637 127c 97000000 		call	_ZN11ConsoleUtil11printStringEPKc@plt
 3637      E7800000 
 3638              	.LVL314:
 292:src/kernel/riscv.cpp ****         ConsoleUtil::printInt(sepc,16);
 3639              		.loc 1 292 9 is_stmt 1
 3640              	.LBB153:
 3641              	.LBB154:
 157:src/kernel/../../h/riscv.hpp ****     asm("csrr %[sepc], sepc" : [sepc] "=r" (sepc));
 3642              		.loc 2 157 5
 158:src/kernel/../../h/riscv.hpp ****     return sepc;
 3643              		.loc 2 158 5
 158:src/kernel/../../h/riscv.hpp ****     return sepc;
 3644              		.loc 2 158 51 is_stmt 0
 3645              	#APP
 3646              	# 158 "src/kernel/../../h/riscv.hpp" 1
 159:src/kernel/../../h/riscv.hpp **** }
 3647              		csrr a0, sepc
 3648              	# 0 "" 2
 3649              		.loc 2 159 5 is_stmt 1
 3650              	#NO_APP
 3651              	.LBE154:
 3652              	.LBE153:
 293:src/kernel/riscv.cpp ****         ConsoleUtil::printString("\n");
 3653              		.loc 1 293 9
 293:src/kernel/riscv.cpp ****         ConsoleUtil::printString("\n");
 3654              		.loc 1 293 30 is_stmt 0
 3655 1288 13060000 		li	a2,0
 3656 128c 93050001 		li	a1,16
 3657 1290 1B050500 		sext.w	a0,a0
 3658 1294 97000000 		call	_ZN11ConsoleUtil8printIntEiii@plt
 3658      E7800000 
 3659              	.LVL315:
 294:src/kernel/riscv.cpp ****         ConsoleUtil::printString("Illegal instruction\nExiting thread...\n");
 3660              		.loc 1 294 9 is_stmt 1
 294:src/kernel/riscv.cpp ****         ConsoleUtil::printString("Illegal instruction\nExiting thread...\n");
 3661              		.loc 1 294 33 is_stmt 0
 3662 129c 17050000 		lla	a0,.LC1
 3662      13050500 
 3663 12a4 97000000 		call	_ZN11ConsoleUtil11printStringEPKc@plt
 3663      E7800000 
 3664              	.LVL316:
 295:src/kernel/riscv.cpp ****         TCB::dispatch();
 3665              		.loc 1 295 9 is_stmt 1
 295:src/kernel/riscv.cpp ****         TCB::dispatch();
 3666              		.loc 1 295 33 is_stmt 0
 3667 12ac 17050000 		lla	a0,.LC2
GAS LISTING /tmp/ccI3Gnq8.s 			page 97


 3667      13050500 
 3668 12b4 97000000 		call	_ZN11ConsoleUtil11printStringEPKc@plt
 3668      E7800000 
 3669              	.LVL317:
 296:src/kernel/riscv.cpp ****     }
 3670              		.loc 1 296 9 is_stmt 1
 296:src/kernel/riscv.cpp ****     }
 3671              		.loc 1 296 22 is_stmt 0
 3672 12bc 97000000 		call	_ZN3TCB8dispatchEv@plt
 3672      E7800000 
 3673              	.LVL318:
 3674              	.LBE152:
 3675 12c4 6FF01FD7 		j	.L163
 3676              	.LBE168:
 3677              	.LBE184:
 3678              	.LBE197:
 3679              	.LBE201:
 3680              		.cfi_endproc
 3681              	.LFE47:
 3683              		.align	2
 3684              		.globl	_ZN5RiscV16threadCreateUtilEPP3TCBPFvPvES3_
 3686              	_ZN5RiscV16threadCreateUtilEPP3TCBPFvPvES3_:
 3687              	.LFB71:
 826:src/kernel/riscv.cpp **** 
 827:src/kernel/riscv.cpp **** void RiscV::threadCreateUtil(TCB **handle, void (*start_routine)(void *), void *arg) {
 3688              		.loc 1 827 86 is_stmt 1
 3689              		.cfi_startproc
 3690              	.LVL319:
 3691 12c8 130101FD 		addi	sp,sp,-48
 3692              		.cfi_def_cfa_offset 48
 3693 12cc 23341102 		sd	ra,40(sp)
 3694 12d0 23308102 		sd	s0,32(sp)
 3695 12d4 233C9100 		sd	s1,24(sp)
 3696 12d8 23382101 		sd	s2,16(sp)
 3697 12dc 23343101 		sd	s3,8(sp)
 3698              		.cfi_offset 1, -8
 3699              		.cfi_offset 8, -16
 3700              		.cfi_offset 9, -24
 3701              		.cfi_offset 18, -32
 3702              		.cfi_offset 19, -40
 3703 12e0 13040103 		addi	s0,sp,48
 3704              		.cfi_def_cfa 8, 0
 3705 12e4 13090500 		mv	s2,a0
 3706 12e8 93840500 		mv	s1,a1
 3707 12ec 93090600 		mv	s3,a2
 828:src/kernel/riscv.cpp ****     uint64 ihandle = (uint64)handle;
 3708              		.loc 1 828 5
 3709              	.LVL320:
 829:src/kernel/riscv.cpp ****     uint64 iroutine = (uint64)start_routine;
 3710              		.loc 1 829 5
 830:src/kernel/riscv.cpp ****     uint64 iarg = (uint64)arg;
 3711              		.loc 1 830 5
 831:src/kernel/riscv.cpp ****     uint64 istack = 0;
 3712              		.loc 1 831 5
 832:src/kernel/riscv.cpp **** 
 833:src/kernel/riscv.cpp ****     if(start_routine) {
 3713              		.loc 1 833 5
GAS LISTING /tmp/ccI3Gnq8.s 			page 98


 3714 12f0 638E0500 		beqz	a1,.L178
 834:src/kernel/riscv.cpp ****         istack = (uint64) MemoryAllocator::kmalloc(DEFAULT_STACK_SIZE);
 3715              		.loc 1 834 9
 3716              		.loc 1 834 51 is_stmt 0
 3717 12f4 37150000 		li	a0,4096
 3718              	.LVL321:
 3719 12f8 97000000 		call	_ZN15MemoryAllocator7kmallocEm@plt
 3719      E7800000 
 3720              	.LVL322:
 835:src/kernel/riscv.cpp ****         if(istack == 0) {
 3721              		.loc 1 835 9 is_stmt 1
 3722 1300 63180500 		bnez	a0,.L176
 836:src/kernel/riscv.cpp ****             *handle = nullptr;
 3723              		.loc 1 836 13
 3724              		.loc 1 836 21 is_stmt 0
 3725 1304 23300900 		sd	zero,0(s2)
 837:src/kernel/riscv.cpp ****             return;
 3726              		.loc 1 837 13 is_stmt 1
 3727 1308 6F000002 		j	.L175
 3728              	.LVL323:
 3729              	.L178:
 831:src/kernel/riscv.cpp **** 
 3730              		.loc 1 831 12 is_stmt 0
 3731 130c 13050000 		li	a0,0
 3732              	.LVL324:
 3733              	.L176:
 838:src/kernel/riscv.cpp ****         }
 839:src/kernel/riscv.cpp ****     }
 840:src/kernel/riscv.cpp **** 
 841:src/kernel/riscv.cpp ****     asm("mv a7, %[istack]" : : [istack] "r" (istack));
 3734              		.loc 1 841 5 is_stmt 1
 3735              		.loc 1 841 54 is_stmt 0
 3736              	#APP
 3737              	# 841 "src/kernel/riscv.cpp" 1
 842              	    asm("mv a3, %[iarg]" : : [iarg] "r" (iarg));
 3738              		mv a7, a0
 3739              	# 0 "" 2
 3740              		.loc 1 842 5 is_stmt 1
 3741              		.loc 1 842 48 is_stmt 0
 3742              	# 842 "src/kernel/riscv.cpp" 1
 843              	    asm("mv a2, %[iroutine]" : : [iroutine] "r" (iroutine));
 3743              		mv a3, s3
 3744              	# 0 "" 2
 3745              		.loc 1 843 5 is_stmt 1
 3746              		.loc 1 843 60 is_stmt 0
 3747              	# 843 "src/kernel/riscv.cpp" 1
 844              	    asm("mv a1, %[ihandle]" : : [ihandle] "r" (ihandle));
 3748              		mv a2, s1
 3749              	# 0 "" 2
 3750              		.loc 1 844 5 is_stmt 1
 3751              		.loc 1 844 57 is_stmt 0
 3752              	# 844 "src/kernel/riscv.cpp" 1
 845              	    asm("li a0, 0x11");
 3753              		mv a1, s2
 3754              	# 0 "" 2
 3755              		.loc 1 845 5 is_stmt 1
 3756              		.loc 1 845 23 is_stmt 0
GAS LISTING /tmp/ccI3Gnq8.s 			page 99


 3757              	# 845 "src/kernel/riscv.cpp" 1
 846              	
 847:src/kernel/riscv.cpp ****     asm("ecall");
 3758              		li a0, 0x11
 3759              	# 0 "" 2
 3760              		.loc 1 847 5 is_stmt 1
 3761              		.loc 1 847 17 is_stmt 0
 3762              	# 847 "src/kernel/riscv.cpp" 1
 848              	
 849:src/kernel/riscv.cpp ****     uint64 status;
 3763              		ecall
 3764              	# 0 "" 2
 3765              		.loc 1 849 5 is_stmt 1
 850:src/kernel/riscv.cpp **** 
 851:src/kernel/riscv.cpp ****     asm("mv %[status], a0" : [status] "=r" (status));
 3766              		.loc 1 851 5
 3767              	.LVL325:
 3768              	#NO_APP
 3769              	.L175:
 852:src/kernel/riscv.cpp **** 
 853:src/kernel/riscv.cpp **** }
 3770              		.loc 1 853 1 is_stmt 0
 3771 1328 83308102 		ld	ra,40(sp)
 3772              		.cfi_restore 1
 3773 132c 03340102 		ld	s0,32(sp)
 3774              		.cfi_restore 8
 3775              		.cfi_def_cfa 2, 48
 3776 1330 83348101 		ld	s1,24(sp)
 3777              		.cfi_restore 9
 3778              	.LVL326:
 3779 1334 03390101 		ld	s2,16(sp)
 3780              		.cfi_restore 18
 3781              	.LVL327:
 3782 1338 83398100 		ld	s3,8(sp)
 3783              		.cfi_restore 19
 3784              	.LVL328:
 3785 133c 13010103 		addi	sp,sp,48
 3786              		.cfi_def_cfa_offset 0
 3787 1340 67800000 		jr	ra
 3788              		.cfi_endproc
 3789              	.LFE71:
 3791              		.align	2
 3792              		.globl	_ZN5RiscV14threadExitUtilEv
 3794              	_ZN5RiscV14threadExitUtilEv:
 3795              	.LFB72:
 854:src/kernel/riscv.cpp **** 
 855:src/kernel/riscv.cpp **** void RiscV::threadExitUtil() {
 3796              		.loc 1 855 30 is_stmt 1
 3797              		.cfi_startproc
 3798 1344 130101FF 		addi	sp,sp,-16
 3799              		.cfi_def_cfa_offset 16
 3800 1348 23348100 		sd	s0,8(sp)
 3801              		.cfi_offset 8, -8
 3802 134c 13040101 		addi	s0,sp,16
 3803              		.cfi_def_cfa 8, 0
 856:src/kernel/riscv.cpp ****     asm("li a0, 0x12");
 3804              		.loc 1 856 5
GAS LISTING /tmp/ccI3Gnq8.s 			page 100


 3805              		.loc 1 856 23 is_stmt 0
 3806              	#APP
 3807              	# 856 "src/kernel/riscv.cpp" 1
 857              	
 858:src/kernel/riscv.cpp ****     asm("ecall");
 3808              		li a0, 0x12
 3809              	# 0 "" 2
 3810              		.loc 1 858 5 is_stmt 1
 3811              		.loc 1 858 17 is_stmt 0
 3812              	# 858 "src/kernel/riscv.cpp" 1
 859              	
 860:src/kernel/riscv.cpp ****     uint64 status;
 3813              		ecall
 3814              	# 0 "" 2
 3815              		.loc 1 860 5 is_stmt 1
 861:src/kernel/riscv.cpp **** 
 862:src/kernel/riscv.cpp ****     asm("mv %[status], a0" : [status] "=r" (status));
 3816              		.loc 1 862 5
 3817              	.LVL329:
 863:src/kernel/riscv.cpp **** }
 3818              		.loc 1 863 1 is_stmt 0
 3819              	#NO_APP
 3820 1358 03348100 		ld	s0,8(sp)
 3821              		.cfi_restore 8
 3822              		.cfi_def_cfa 2, 16
 3823 135c 13010101 		addi	sp,sp,16
 3824              		.cfi_def_cfa_offset 0
 3825 1360 67800000 		jr	ra
 3826              		.cfi_endproc
 3827              	.LFE72:
 3829              		.align	2
 3830              		.globl	_ZN5RiscV18threadDispatchUtilEv
 3832              	_ZN5RiscV18threadDispatchUtilEv:
 3833              	.LFB73:
 864:src/kernel/riscv.cpp **** 
 865:src/kernel/riscv.cpp **** void RiscV::threadDispatchUtil() {
 3834              		.loc 1 865 34 is_stmt 1
 3835              		.cfi_startproc
 3836 1364 130101FF 		addi	sp,sp,-16
 3837              		.cfi_def_cfa_offset 16
 3838 1368 23348100 		sd	s0,8(sp)
 3839              		.cfi_offset 8, -8
 3840 136c 13040101 		addi	s0,sp,16
 3841              		.cfi_def_cfa 8, 0
 866:src/kernel/riscv.cpp ****     asm("li a0, 0x13");
 3842              		.loc 1 866 5
 3843              		.loc 1 866 23 is_stmt 0
 3844              	#APP
 3845              	# 866 "src/kernel/riscv.cpp" 1
 867              	
 868:src/kernel/riscv.cpp ****     asm("ecall");
 3846              		li a0, 0x13
 3847              	# 0 "" 2
 3848              		.loc 1 868 5 is_stmt 1
 3849              		.loc 1 868 17 is_stmt 0
 3850              	# 868 "src/kernel/riscv.cpp" 1
 869              	}
GAS LISTING /tmp/ccI3Gnq8.s 			page 101


 3851              		ecall
 3852              	# 0 "" 2
 3853              		.loc 1 869 1
 3854              	#NO_APP
 3855 1378 03348100 		ld	s0,8(sp)
 3856              		.cfi_restore 8
 3857              		.cfi_def_cfa 2, 16
 3858 137c 13010101 		addi	sp,sp,16
 3859              		.cfi_def_cfa_offset 0
 3860 1380 67800000 		jr	ra
 3861              		.cfi_endproc
 3862              	.LFE73:
 3864              		.align	2
 3865              		.globl	_ZN5RiscV11putcWrapperEPv
 3867              	_ZN5RiscV11putcWrapperEPv:
 3868              	.LFB62:
 635:src/kernel/riscv.cpp ****     while(true)
 3869              		.loc 1 635 1 is_stmt 1
 3870              		.cfi_startproc
 3871              	.LVL330:
 3872 1384 130101FE 		addi	sp,sp,-32
 3873              		.cfi_def_cfa_offset 32
 3874 1388 233C1100 		sd	ra,24(sp)
 3875 138c 23388100 		sd	s0,16(sp)
 3876              		.cfi_offset 1, -8
 3877              		.cfi_offset 8, -16
 3878 1390 13040102 		addi	s0,sp,32
 3879              		.cfi_def_cfa 8, 0
 3880 1394 6F00C000 		j	.L185
 3881              	.LVL331:
 3882              	.L186:
 3883              	.LBB202:
 3884              	.LBB203:
 659:src/kernel/riscv.cpp ****     }
 3885              		.loc 1 659 13
 659:src/kernel/riscv.cpp ****     }
 3886              		.loc 1 659 38 is_stmt 0
 3887 1398 97000000 		call	_ZN5RiscV18threadDispatchUtilEv
 3887      E7800000 
 3888              	.LVL332:
 3889              	.L185:
 3890              	.LBE203:
 3891              	.LBE202:
 636:src/kernel/riscv.cpp ****     {
 3892              		.loc 1 636 5 is_stmt 1
 3893              	.LBB206:
 639:src/kernel/riscv.cpp ****         asm("mv a0, %[status]" : : [status] "r" (status));
 3894              		.loc 1 639 9
 639:src/kernel/riscv.cpp ****         asm("mv a0, %[status]" : : [status] "r" (status));
 3895              		.loc 1 639 16 is_stmt 0
 3896 13a0 97070000 		la	a5,CONSOLE_STATUS
 3896      83B70700 
 3897 13a8 83B70700 		ld	a5,0(a5)
 3898              	.LVL333:
 640:src/kernel/riscv.cpp ****         asm("lb a1, 0(a0)");
 3899              		.loc 1 640 9 is_stmt 1
 640:src/kernel/riscv.cpp ****         asm("lb a1, 0(a0)");
GAS LISTING /tmp/ccI3Gnq8.s 			page 102


 3900              		.loc 1 640 58 is_stmt 0
 3901              	#APP
 3902              	# 640 "src/kernel/riscv.cpp" 1
 641:src/kernel/riscv.cpp ****         asm("mv %[status], a1" : [status] "=r" (status));
 3903              		mv a0, a5
 3904              	# 0 "" 2
 3905              		.loc 1 641 9 is_stmt 1
 641:src/kernel/riscv.cpp ****         asm("mv %[status], a1" : [status] "=r" (status));
 3906              		.loc 1 641 28 is_stmt 0
 3907              	# 641 "src/kernel/riscv.cpp" 1
 642:src/kernel/riscv.cpp **** 
 3908              		lb a1, 0(a0)
 3909              	# 0 "" 2
 3910              		.loc 1 642 9 is_stmt 1
 642:src/kernel/riscv.cpp **** 
 3911              		.loc 1 642 57 is_stmt 0
 3912              	# 642 "src/kernel/riscv.cpp" 1
 3913              		mv a5, a1
 3914              	# 0 "" 2
 3915              	.LVL334:
 645:src/kernel/riscv.cpp **** 
 3916              		.loc 1 645 9 is_stmt 1
 3917              	#NO_APP
 3918              	.LBB205:
 645:src/kernel/riscv.cpp **** 
 3919              		.loc 1 645 19 is_stmt 0
 3920 13b8 93F70702 		andi	a5,a5,32
 3921              	.LVL335:
 645:src/kernel/riscv.cpp **** 
 3922              		.loc 1 645 9
 3923 13bc E38E07FC 		beqz	a5,.L186
 3924              	.LBB204:
 648:src/kernel/riscv.cpp ****                 uint64 data = CONSOLE_RX_DATA;
 3925              		.loc 1 648 17 is_stmt 1
 648:src/kernel/riscv.cpp ****                 uint64 data = CONSOLE_RX_DATA;
 3926              		.loc 1 648 63 is_stmt 0
 3927 13c0 97000000 		call	_ZN11ConsoleUtil15putcUtilSyscallEv@plt
 3927      E7800000 
 3928              	.LVL336:
 648:src/kernel/riscv.cpp ****                 uint64 data = CONSOLE_RX_DATA;
 3929              		.loc 1 648 64
 3930 13c8 A307A4FE 		sb	a0,-17(s0)
 649:src/kernel/riscv.cpp ****                 asm("mv a0, %[data]" : : [data] "r"(data));
 3931              		.loc 1 649 17 is_stmt 1
 649:src/kernel/riscv.cpp ****                 asm("mv a0, %[data]" : : [data] "r"(data));
 3932              		.loc 1 649 24 is_stmt 0
 3933 13cc 97070000 		la	a5,CONSOLE_RX_DATA
 3933      83B70700 
 3934 13d4 83B70700 		ld	a5,0(a5)
 3935              	.LVL337:
 650:src/kernel/riscv.cpp ****                 asm("mv a1, %[c]" : : [c] "r"(c));
 3936              		.loc 1 650 17 is_stmt 1
 650:src/kernel/riscv.cpp ****                 asm("mv a1, %[c]" : : [c] "r"(c));
 3937              		.loc 1 650 59 is_stmt 0
 3938              	#APP
 3939              	# 650 "src/kernel/riscv.cpp" 1
 651:src/kernel/riscv.cpp ****                 asm("sb a1,0(a0)");
