GAS LISTING /tmp/ccnlBL9w.s 			page 1


   1              		.file	"riscv.cpp"
   2              		.option pic
   3              		.option norelax
   4              		.text
   5              	.Ltext0:
   6              		.align	2
   7              		.globl	_ZN5RiscV10popSppSpieEv
   9              	_ZN5RiscV10popSppSpieEv:
  10              	.LFB48:
  11              		.file 1 "src/kernel/riscv.cpp"
   1:src/kernel/riscv.cpp **** //
   2:src/kernel/riscv.cpp **** // Created by os on 4/28/22.
   3:src/kernel/riscv.cpp **** //
   4:src/kernel/riscv.cpp **** 
   5:src/kernel/riscv.cpp **** #include "../../h/kernel/riscv.hpp"
   6:src/kernel/riscv.cpp **** #include "../../h/kernel/memory_allocator.hpp"
   7:src/kernel/riscv.cpp **** #include "../../h/kernel/tcb.hpp"
   8:src/kernel/riscv.cpp **** #include "../../h/kernel/scheduler.hpp"
   9:src/kernel/riscv.cpp **** #include "../../h/user/printing.hpp"
  10:src/kernel/riscv.cpp **** #include "../../h/kernel/scb.hpp"
  11:src/kernel/riscv.cpp **** #include "../../h/user/user_wrappers.hpp"
  12:src/kernel/riscv.cpp **** 
  13:src/kernel/riscv.cpp **** uint64 RiscV::globalTime = 0;
  14:src/kernel/riscv.cpp **** bool RiscV::userMainFinished = false;
  15:src/kernel/riscv.cpp **** void* RiscV::kPMT = nullptr;
  16:src/kernel/riscv.cpp **** void* RiscV::uPMT = nullptr;
  17:src/kernel/riscv.cpp **** bool RiscV::initialized = false;
  18:src/kernel/riscv.cpp **** 
  19:src/kernel/riscv.cpp **** //initailize each of the key components and switch to user mode for user code execution
  20:src/kernel/riscv.cpp **** void RiscV::initialize(){
  21:src/kernel/riscv.cpp ****     RiscV::w_stvec((uint64) &RiscV::supervisorTrap);
  22:src/kernel/riscv.cpp ****     kmem_init(BUDDY_START_ADDR_CONST, 4096);
  23:src/kernel/riscv.cpp ****     MemoryAllocator::initialize();
  24:src/kernel/riscv.cpp ****     Scheduler::initialize();
  25:src/kernel/riscv.cpp ****     TCB::initialize();
  26:src/kernel/riscv.cpp ****     SCB::initialize();
  27:src/kernel/riscv.cpp ****     ConsoleUtil::initialize();
  28:src/kernel/riscv.cpp ****     RiscV::buildKernelPMT();
  29:src/kernel/riscv.cpp ****     RiscV::buildUserPMT();
  30:src/kernel/riscv.cpp ****     RiscV::initialized = true;
  31:src/kernel/riscv.cpp ****     RiscV::startVirtualMemory(RiscV::kPMT);
  32:src/kernel/riscv.cpp ****     RiscV::enableInterrupts();
  33:src/kernel/riscv.cpp **** }
  34:src/kernel/riscv.cpp **** 
  35:src/kernel/riscv.cpp **** //get previous privilege and previous interrupt status
  36:src/kernel/riscv.cpp **** void RiscV::popSppSpie() {
  12              		.loc 1 36 26
  13              		.cfi_startproc
  14 0000 130101FF 		addi	sp,sp,-16
  15              		.cfi_def_cfa_offset 16
  16 0004 23348100 		sd	s0,8(sp)
  17              		.cfi_offset 8, -8
  18 0008 13040101 		addi	s0,sp,16
  19              		.cfi_def_cfa 8, 0
  37:src/kernel/riscv.cpp ****     if(TCB::running->mode == TCB::Mode::SUPERVISOR)
  20              		.loc 1 37 5
  21              		.loc 1 37 22 is_stmt 0
GAS LISTING /tmp/ccnlBL9w.s 			page 2


  22 000c 97070000 		la	a5,_ZN3TCB7runningE
  22      83B70700 
  23 0014 83B70700 		ld	a5,0(a5)
  24 0018 83A64701 		lw	a3,20(a5)
  25              		.loc 1 37 5
  26 001c 13071000 		li	a4,1
  27 0020 6388E602 		beq	a3,a4,.L5
  38:src/kernel/riscv.cpp ****         asm("csrw sepc, ra");
  39:src/kernel/riscv.cpp ****     else{
  40:src/kernel/riscv.cpp ****         asm("mv a0, %[iarg]" : : [iarg] "r" (TCB::running->body));
  28              		.loc 1 40 9 is_stmt 1
  29              		.loc 1 40 60 is_stmt 0
  30 0024 03B78701 		ld	a4,24(a5)
  31              		.loc 1 40 66
  32              	#APP
  33              	# 40 "src/kernel/riscv.cpp" 1
  41              	        asm("mv a1, %[iarg]" : : [iarg] "r" (TCB::running->args));
  34              		mv a0, a4
  35              	# 0 "" 2
  36              		.loc 1 41 9 is_stmt 1
  37              		.loc 1 41 60 is_stmt 0
  38              	#NO_APP
  39 002c 83B70702 		ld	a5,32(a5)
  40              		.loc 1 41 66
  41              	#APP
  42              	# 41 "src/kernel/riscv.cpp" 1
  42              	        asm("csrw sepc, %[ra]" : : [ra] "r" ((uint64)bodyWrapper));
  43              		mv a1, a5
  44              	# 0 "" 2
  45              		.loc 1 42 9 is_stmt 1
  46              		.loc 1 42 67 is_stmt 0
  47              	#NO_APP
  48 0034 97070000 		la	a5,_Z11bodyWrapperPFvPvES_
  48      83B70700 
  49              	#APP
  50              	# 42 "src/kernel/riscv.cpp" 1
  43              	    }
  51              		csrw sepc, a5
  52              	# 0 "" 2
  53              	#NO_APP
  54              	.L3:
  44:src/kernel/riscv.cpp ****     asm("sret");
  55              		.loc 1 44 5 is_stmt 1
  56              		.loc 1 44 16 is_stmt 0
  57              	#APP
  58              	# 44 "src/kernel/riscv.cpp" 1
  45              	}
  59              		sret
  60              	# 0 "" 2
  61              		.loc 1 45 1
  62              	#NO_APP
  63 0044 03348100 		ld	s0,8(sp)
  64              		.cfi_remember_state
  65              		.cfi_restore 8
  66              		.cfi_def_cfa 2, 16
  67 0048 13010101 		addi	sp,sp,16
  68              		.cfi_def_cfa_offset 0
GAS LISTING /tmp/ccnlBL9w.s 			page 3


  69 004c 67800000 		jr	ra
  70              	.L5:
  71              		.cfi_restore_state
  38:src/kernel/riscv.cpp ****         asm("csrw sepc, ra");
  72              		.loc 1 38 9 is_stmt 1
  38:src/kernel/riscv.cpp ****         asm("csrw sepc, ra");
  73              		.loc 1 38 29 is_stmt 0
  74              	#APP
  75              	# 38 "src/kernel/riscv.cpp" 1
  76              		csrw sepc, ra
  77              	# 0 "" 2
  78              	#NO_APP
  79 0054 6FF0DFFE 		j	.L3
  80              		.cfi_endproc
  81              	.LFE48:
  83              		.align	2
  84              		.globl	_ZN5RiscV28executeThreadDispatchSyscallEv
  86              	_ZN5RiscV28executeThreadDispatchSyscallEv:
  87              	.LFB56:
  46:src/kernel/riscv.cpp **** 
  47:src/kernel/riscv.cpp **** //handler function for traps
  48:src/kernel/riscv.cpp **** void RiscV::handleSupervisorTrap() {
  49:src/kernel/riscv.cpp **** 
  50:src/kernel/riscv.cpp ****     //read scause
  51:src/kernel/riscv.cpp ****     uint64 stval;
  52:src/kernel/riscv.cpp ****     asm("csrr %[stval], stval" : [stval] "=r" (stval));
  53:src/kernel/riscv.cpp ****     uint64 volatile scause = RiscV::r_scause();
  54:src/kernel/riscv.cpp **** 
  55:src/kernel/riscv.cpp ****     asm("csrr %[sscratch], sscratch" : [sscratch] "=r" (TCB::running->a0Location));
  56:src/kernel/riscv.cpp **** 
  57:src/kernel/riscv.cpp ****     if(scause == 0x09 || scause == 0x08) {
  58:src/kernel/riscv.cpp **** 
  59:src/kernel/riscv.cpp ****         //save sstatus and sepc
  60:src/kernel/riscv.cpp ****         //sepc should be increased by 4, since this is an ecall trap
  61:src/kernel/riscv.cpp ****         uint64 volatile sstatus = RiscV::r_sstatus();
  62:src/kernel/riscv.cpp ****         uint64 volatile sepc = RiscV::r_sepc()+4;
  63:src/kernel/riscv.cpp ****         TCB::running->sepc = sepc;
  64:src/kernel/riscv.cpp ****         TCB::running->sstatus = sstatus;
  65:src/kernel/riscv.cpp **** 
  66:src/kernel/riscv.cpp ****         //get the syscall ID from a0
  67:src/kernel/riscv.cpp ****         uint64 syscallID;
  68:src/kernel/riscv.cpp ****         asm("mv %[syscallID], a0" : [syscallID] "=r" (syscallID));
  69:src/kernel/riscv.cpp **** 
  70:src/kernel/riscv.cpp ****         switch(syscallID){
  71:src/kernel/riscv.cpp ****             case 0x01 : executeMemAllocSyscall();break;
  72:src/kernel/riscv.cpp ****             case 0x02 : executeMemFreeSyscall();break;
  73:src/kernel/riscv.cpp ****             case 0x11 : executeThreadCreateSyscall();break;
  74:src/kernel/riscv.cpp ****             case 0x12 : executeThreadExitSyscall();break;
  75:src/kernel/riscv.cpp ****             case 0x13 : executeThreadDispatchSyscall();break;
  76:src/kernel/riscv.cpp ****             case 0x14 : executeThreadAttachBodySyscall();break;
  77:src/kernel/riscv.cpp ****             case 0x15 : executeThreadStartSyscall();break;
  78:src/kernel/riscv.cpp ****             case 0x21 : executeSemOpenSyscall();break;
  79:src/kernel/riscv.cpp ****             case 0x22 : executeSemCloseSyscall();break;
  80:src/kernel/riscv.cpp ****             case 0x23 : executeSemWaitSyscall();break;
  81:src/kernel/riscv.cpp ****             case 0x24 : executeSemSignalSyscall();break;
  82:src/kernel/riscv.cpp ****             case 0x31 : executeTimeSleepSyscall();break;
  83:src/kernel/riscv.cpp ****             case 0x41 : executeGetcSyscall();break;
GAS LISTING /tmp/ccnlBL9w.s 			page 4


  84:src/kernel/riscv.cpp ****             case 0x42 : executePutcSyscall();break;
  85:src/kernel/riscv.cpp ****             case 0x43 : executePutcUtilSyscall();break;
  86:src/kernel/riscv.cpp ****             case 0x51 : executeThreadFreeSyscall();break;
  87:src/kernel/riscv.cpp ****             case 0x52 : executeSemaphoreFreeSyscall();break;
  88:src/kernel/riscv.cpp ****             //in this case we need to save SP and PC at this point so that newly created thread
  89:src/kernel/riscv.cpp ****             //can return to this point and exit trap routine regularly
  90:src/kernel/riscv.cpp ****             //note that getPC() returns PC incremented by 8 to skip executeForkSyscall
  91:src/kernel/riscv.cpp ****             case 0x61 : asm("mv %[sp], sp" : [sp] "=r"(TCB::currentSP));
  92:src/kernel/riscv.cpp ****                         RiscV::getPC();
  93:src/kernel/riscv.cpp ****                         executeForkSyscall();
  94:src/kernel/riscv.cpp ****                         break;
  95:src/kernel/riscv.cpp ****         }
  96:src/kernel/riscv.cpp **** 
  97:src/kernel/riscv.cpp ****         //write previously save sstatus and incremented sepc
  98:src/kernel/riscv.cpp ****         RiscV::w_sstatus(TCB::running->sstatus);
  99:src/kernel/riscv.cpp ****         RiscV::w_sepc(TCB::running->sepc);
 100:src/kernel/riscv.cpp ****     }
 101:src/kernel/riscv.cpp **** 
 102:src/kernel/riscv.cpp ****     //timer interrupt (in this system's implementation, timer tick is manifested as software interr
 103:src/kernel/riscv.cpp ****     else if(scause == (0x01UL<<63 | 0x1)){
 104:src/kernel/riscv.cpp **** 
 105:src/kernel/riscv.cpp ****         //save sstatus and sepc
 106:src/kernel/riscv.cpp ****         //this time sepc remains the same
 107:src/kernel/riscv.cpp ****         uint64 volatile sstatus = RiscV::r_sstatus();
 108:src/kernel/riscv.cpp ****         uint64 volatile sepc = RiscV::r_sepc();
 109:src/kernel/riscv.cpp **** 
 110:src/kernel/riscv.cpp ****         //clear the SIP bit for software interrupt
 111:src/kernel/riscv.cpp ****         mc_sip(SIP_SSIE);
 112:src/kernel/riscv.cpp **** 
 113:src/kernel/riscv.cpp **** 
 114:src/kernel/riscv.cpp ****         //increase global time and try to awake threads that are asleep
 115:src/kernel/riscv.cpp ****         globalTime += 1;
 116:src/kernel/riscv.cpp ****         Scheduler::awake();
 117:src/kernel/riscv.cpp **** 
 118:src/kernel/riscv.cpp ****         //check whether time slice has run out for running thread
 119:src/kernel/riscv.cpp ****         //if so, dispatch
 120:src/kernel/riscv.cpp ****         TCB::timeSliceCounter++;
 121:src/kernel/riscv.cpp ****         if(TCB::timeSliceCounter >= TCB::running->timeSlice) {
 122:src/kernel/riscv.cpp **** 
 123:src/kernel/riscv.cpp ****             TCB::timeSliceCounter = 0;
 124:src/kernel/riscv.cpp **** 
 125:src/kernel/riscv.cpp ****             TCB* old = TCB::running;
 126:src/kernel/riscv.cpp **** 
 127:src/kernel/riscv.cpp ****             old->status = TCB::Status::READY;
 128:src/kernel/riscv.cpp **** 
 129:src/kernel/riscv.cpp ****             TCB::dispatch();
 130:src/kernel/riscv.cpp ****         }
 131:src/kernel/riscv.cpp **** 
 132:src/kernel/riscv.cpp ****         //write previously save sstatus and sepc
 133:src/kernel/riscv.cpp ****         RiscV::w_sstatus(sstatus);
 134:src/kernel/riscv.cpp ****         RiscV::w_sepc(sepc);
 135:src/kernel/riscv.cpp ****     }
 136:src/kernel/riscv.cpp **** 
 137:src/kernel/riscv.cpp ****     //hardware interrupt, from console (note that here we only check for keyboard interrupts, handl
 138:src/kernel/riscv.cpp ****     else if(scause == (0x01UL<<63 | 0x9)){
 139:src/kernel/riscv.cpp ****         //save sstatus and sepc
 140:src/kernel/riscv.cpp ****         //this time sepc remains the same
GAS LISTING /tmp/ccnlBL9w.s 			page 5


 141:src/kernel/riscv.cpp ****         uint64 volatile sstatus = RiscV::r_sstatus();
 142:src/kernel/riscv.cpp ****         uint64 volatile sepc = RiscV::r_sepc();
 143:src/kernel/riscv.cpp **** 
 144:src/kernel/riscv.cpp ****         //get the console status register location, and console status reg value
 145:src/kernel/riscv.cpp ****         uint64 status = CONSOLE_STATUS;
 146:src/kernel/riscv.cpp ****         asm("mv a0, %[status]" : : [status] "r" (status));
 147:src/kernel/riscv.cpp ****         asm("lb a1, 0(a0)");
 148:src/kernel/riscv.cpp ****         asm("mv %[status], a1" : [status] "=r" (status));
 149:src/kernel/riscv.cpp **** 
 150:src/kernel/riscv.cpp ****         //if keyboard is ready to send data
 151:src/kernel/riscv.cpp ****         if(status & 1UL)
 152:src/kernel/riscv.cpp ****         {
 153:src/kernel/riscv.cpp ****             //fetch the character from CONSOLE_TX_DATA register
 154:src/kernel/riscv.cpp ****             uint64 data;
 155:src/kernel/riscv.cpp ****             char c;
 156:src/kernel/riscv.cpp ****             data = CONSOLE_TX_DATA;
 157:src/kernel/riscv.cpp ****             asm("mv a0, %[data]" : : [data] "r" (data));
 158:src/kernel/riscv.cpp ****             asm("lb a1, 0(a0)");
 159:src/kernel/riscv.cpp ****             asm("mv %[c], a1" : [c] "=r" (c));
 160:src/kernel/riscv.cpp **** 
 161:src/kernel/riscv.cpp ****             //if there was a getc request put the character into the input buffer, othrewise ignore
 162:src/kernel/riscv.cpp ****             if(ConsoleUtil::pendingGetc!=0) {
 163:src/kernel/riscv.cpp ****                 ConsoleUtil::pendingGetc--;
 164:src/kernel/riscv.cpp ****                 ConsoleUtil::putInput(c);
 165:src/kernel/riscv.cpp ****             }
 166:src/kernel/riscv.cpp ****         }
 167:src/kernel/riscv.cpp ****         plic_complete(plic_claim());
 168:src/kernel/riscv.cpp **** 
 169:src/kernel/riscv.cpp ****         RiscV::w_sstatus(sstatus);
 170:src/kernel/riscv.cpp ****         RiscV::w_sepc(sepc);
 171:src/kernel/riscv.cpp ****     }
 172:src/kernel/riscv.cpp **** 
 173:src/kernel/riscv.cpp ****     //illegal instruction, exit running thread
 174:src/kernel/riscv.cpp ****     else if(scause == 0x02){
 175:src/kernel/riscv.cpp ****         TCB* old = TCB::running;
 176:src/kernel/riscv.cpp ****         old->status = TCB::Status::FINISHED;
 177:src/kernel/riscv.cpp ****         ConsoleUtil::printString("sepc: ");
 178:src/kernel/riscv.cpp ****         uint64 sepc = RiscV::r_sepc();
 179:src/kernel/riscv.cpp ****         ConsoleUtil::printInt(sepc,16);
 180:src/kernel/riscv.cpp ****         ConsoleUtil::printString("\n");
 181:src/kernel/riscv.cpp ****         ConsoleUtil::printString("Illegal instruction\nExiting thread...\n");
 182:src/kernel/riscv.cpp ****         TCB::dispatch();
 183:src/kernel/riscv.cpp ****     }
 184:src/kernel/riscv.cpp **** 
 185:src/kernel/riscv.cpp ****     //some other kind of error, for more information check out RiscV handbook
 186:src/kernel/riscv.cpp ****     else{
 187:src/kernel/riscv.cpp ****         ConsoleUtil::printString("Error: \n");
 188:src/kernel/riscv.cpp ****         ConsoleUtil::printString("scause: ");
 189:src/kernel/riscv.cpp ****         uint64  scause = RiscV::r_scause();
 190:src/kernel/riscv.cpp ****         ConsoleUtil::printInt(scause);
 191:src/kernel/riscv.cpp ****         ConsoleUtil::printString("sepc: ");
 192:src/kernel/riscv.cpp ****         uint64 sepc = RiscV::r_sepc();
 193:src/kernel/riscv.cpp ****         ConsoleUtil::printInt(sepc,16);
 194:src/kernel/riscv.cpp ****         ConsoleUtil::printString("\n");
 195:src/kernel/riscv.cpp ****         ConsoleUtil::print("stvec: ",stval,"\n");
 196:src/kernel/riscv.cpp ****         TCB* old = TCB::running;
 197:src/kernel/riscv.cpp ****         old->status = TCB::Status::FINISHED;
GAS LISTING /tmp/ccnlBL9w.s 			page 6


 198:src/kernel/riscv.cpp ****         ConsoleUtil::printString("Exiting thread...\n");
 199:src/kernel/riscv.cpp ****         TCB::dispatch();
 200:src/kernel/riscv.cpp ****     }
 201:src/kernel/riscv.cpp **** 
 202:src/kernel/riscv.cpp ****     RiscV::jumpToDesignatedPrivilegeMode();
 203:src/kernel/riscv.cpp **** }
 204:src/kernel/riscv.cpp **** 
 205:src/kernel/riscv.cpp **** void RiscV::executeMemAllocSyscall(){
 206:src/kernel/riscv.cpp **** 
 207:src/kernel/riscv.cpp ****     //fetch the arguments from a0-a7 registers
 208:src/kernel/riscv.cpp ****     uint64 size;
 209:src/kernel/riscv.cpp ****     asm("mv %[size], a1" : [size] "=r" (size));
 210:src/kernel/riscv.cpp **** 
 211:src/kernel/riscv.cpp ****     //call internal allocator and return the address in a0
 212:src/kernel/riscv.cpp ****     uint64 addr =(uint64)MemoryAllocator::kmalloc(size);
 213:src/kernel/riscv.cpp **** 
 214:src/kernel/riscv.cpp ****     asm("mv a0, %[addr]" : : [addr] "r" (addr));
 215:src/kernel/riscv.cpp **** 
 216:src/kernel/riscv.cpp ****     RiscV::saveA0toSscratch();
 217:src/kernel/riscv.cpp **** }
 218:src/kernel/riscv.cpp **** 
 219:src/kernel/riscv.cpp **** void RiscV::executeMemFreeSyscall() {
 220:src/kernel/riscv.cpp **** 
 221:src/kernel/riscv.cpp ****     //fetch the arguments from a0-a7 registers
 222:src/kernel/riscv.cpp ****     uint64 iaddr, status;
 223:src/kernel/riscv.cpp **** 
 224:src/kernel/riscv.cpp **** 
 225:src/kernel/riscv.cpp ****     if(MemoryAllocator::initialized) {
 226:src/kernel/riscv.cpp ****         //call internal allocator and free memory which iaddr points to
 227:src/kernel/riscv.cpp ****         asm("mv %[iaddr], a1" : [iaddr] "=r"(iaddr));
 228:src/kernel/riscv.cpp ****         status = MemoryAllocator::kfree((void *) iaddr);;
 229:src/kernel/riscv.cpp ****     }
 230:src/kernel/riscv.cpp ****     else
 231:src/kernel/riscv.cpp ****         status = -1;
 232:src/kernel/riscv.cpp **** 
 233:src/kernel/riscv.cpp ****     //return status
 234:src/kernel/riscv.cpp ****     asm("mv a0, %[status]" : : [status] "r" (status));
 235:src/kernel/riscv.cpp **** 
 236:src/kernel/riscv.cpp ****     RiscV::saveA0toSscratch();
 237:src/kernel/riscv.cpp **** }
 238:src/kernel/riscv.cpp **** 
 239:src/kernel/riscv.cpp **** void RiscV::executeThreadCreateSyscall(){
 240:src/kernel/riscv.cpp **** 
 241:src/kernel/riscv.cpp ****     //fetch the arguments from a0-a7 registers
 242:src/kernel/riscv.cpp ****     uint64 iroutine, iargs, ihandle, istack;
 243:src/kernel/riscv.cpp **** 
 244:src/kernel/riscv.cpp ****     asm("mv %[istack], a7" : [istack] "=r"(istack));
 245:src/kernel/riscv.cpp ****     asm("mv %[ihandle], a1" : [ihandle] "=r"(ihandle));
 246:src/kernel/riscv.cpp ****     asm("mv %[iroutine], a2" : [iroutine] "=r"(iroutine));
 247:src/kernel/riscv.cpp ****     asm("mv %[iargs], a3" : [iargs] "=r"(iargs));
 248:src/kernel/riscv.cpp **** 
 249:src/kernel/riscv.cpp ****     //call constructor for Thread Control Block and if not null, write thread address into ihandle
 250:src/kernel/riscv.cpp ****     TCB *tcb = new TCB((TCB::Body)iroutine, (void*)iargs, (uint64*)istack, DEFAULT_TIME_SLICE);
 251:src/kernel/riscv.cpp **** 
 252:src/kernel/riscv.cpp ****     uint64 status = 0;
 253:src/kernel/riscv.cpp **** 
 254:src/kernel/riscv.cpp ****     if(tcb == nullptr){
GAS LISTING /tmp/ccnlBL9w.s 			page 7


 255:src/kernel/riscv.cpp ****         status = -1;
 256:src/kernel/riscv.cpp ****     }
 257:src/kernel/riscv.cpp ****     else{
 258:src/kernel/riscv.cpp ****         if(tcb->body)
 259:src/kernel/riscv.cpp ****             Scheduler::put(tcb);
 260:src/kernel/riscv.cpp ****         *((TCB**)ihandle) = tcb;
 261:src/kernel/riscv.cpp ****     }
 262:src/kernel/riscv.cpp **** 
 263:src/kernel/riscv.cpp ****     //return status
 264:src/kernel/riscv.cpp ****     asm("mv a0, %[status]" : : [status] "r" (status));
 265:src/kernel/riscv.cpp **** 
 266:src/kernel/riscv.cpp ****     RiscV::saveA0toSscratch();
 267:src/kernel/riscv.cpp **** }
 268:src/kernel/riscv.cpp **** 
 269:src/kernel/riscv.cpp **** void RiscV::executeThreadAttachBodySyscall(){
 270:src/kernel/riscv.cpp **** 
 271:src/kernel/riscv.cpp ****     //fetch the arguments from a0-a7 registers
 272:src/kernel/riscv.cpp ****     uint64 iroutine, iargs, ihandle, istack;
 273:src/kernel/riscv.cpp **** 
 274:src/kernel/riscv.cpp **** 
 275:src/kernel/riscv.cpp ****     asm("mv %[istack], a7" : [istack] "=r"(istack));
 276:src/kernel/riscv.cpp ****     asm("mv %[ihandle], a1" : [ihandle] "=r"(ihandle));
 277:src/kernel/riscv.cpp ****     asm("mv %[iroutine], a2" : [iroutine] "=r"(iroutine));
 278:src/kernel/riscv.cpp ****     asm("mv %[iargs], a3" : [iargs] "=r"(iargs));
 279:src/kernel/riscv.cpp **** 
 280:src/kernel/riscv.cpp ****     TCB *tcb = new TCB((TCB::Body)iroutine, (void*)iargs, (uint64*)istack, DEFAULT_TIME_SLICE);
 281:src/kernel/riscv.cpp **** 
 282:src/kernel/riscv.cpp ****     uint64 status = 0;
 283:src/kernel/riscv.cpp **** 
 284:src/kernel/riscv.cpp ****     if(tcb == nullptr){
 285:src/kernel/riscv.cpp ****         status = -1;
 286:src/kernel/riscv.cpp ****     }
 287:src/kernel/riscv.cpp ****     else{
 288:src/kernel/riscv.cpp ****         tcb->body = (TCB::Body)iroutine;
 289:src/kernel/riscv.cpp ****         tcb->args = (void*)iargs;
 290:src/kernel/riscv.cpp ****         *((TCB**)ihandle) = tcb;
 291:src/kernel/riscv.cpp ****     }
 292:src/kernel/riscv.cpp **** 
 293:src/kernel/riscv.cpp ****     asm("mv a0, %[status]" : : [status] "r" (status));
 294:src/kernel/riscv.cpp **** 
 295:src/kernel/riscv.cpp ****     RiscV::saveA0toSscratch();
 296:src/kernel/riscv.cpp **** }
 297:src/kernel/riscv.cpp **** 
 298:src/kernel/riscv.cpp **** void RiscV::executeThreadStartSyscall(){
 299:src/kernel/riscv.cpp **** 
 300:src/kernel/riscv.cpp ****     //fetch the arguments from a0-a7 registers
 301:src/kernel/riscv.cpp ****     uint64 ihandle;
 302:src/kernel/riscv.cpp **** 
 303:src/kernel/riscv.cpp ****     asm("mv %[ihandle], a1" : [ihandle] "=r"(ihandle));
 304:src/kernel/riscv.cpp **** 
 305:src/kernel/riscv.cpp ****     //get the handle and put tcb in scheduler if not null
 306:src/kernel/riscv.cpp ****     TCB* tcb =(TCB*)ihandle;
 307:src/kernel/riscv.cpp **** 
 308:src/kernel/riscv.cpp ****     uint64 status = 0;
 309:src/kernel/riscv.cpp **** 
 310:src/kernel/riscv.cpp ****     if(tcb == nullptr){
 311:src/kernel/riscv.cpp ****         status = -1;
GAS LISTING /tmp/ccnlBL9w.s 			page 8


 312:src/kernel/riscv.cpp ****     }
 313:src/kernel/riscv.cpp ****     else{
 314:src/kernel/riscv.cpp ****         tcb->status = TCB::Status::READY;
 315:src/kernel/riscv.cpp ****         Scheduler::put(tcb);
 316:src/kernel/riscv.cpp ****         TCB::dispatch();
 317:src/kernel/riscv.cpp ****     }
 318:src/kernel/riscv.cpp **** 
 319:src/kernel/riscv.cpp ****     //return status
 320:src/kernel/riscv.cpp ****     asm("mv a0, %[status]" : : [status] "r" (status));
 321:src/kernel/riscv.cpp **** 
 322:src/kernel/riscv.cpp ****     RiscV::saveA0toSscratch();
 323:src/kernel/riscv.cpp **** }
 324:src/kernel/riscv.cpp **** 
 325:src/kernel/riscv.cpp **** void RiscV::executeThreadExitSyscall() {
 326:src/kernel/riscv.cpp **** 
 327:src/kernel/riscv.cpp ****     //fetch the arguments from a0-a7 registers
 328:src/kernel/riscv.cpp ****     uint64 status = 0;
 329:src/kernel/riscv.cpp **** 
 330:src/kernel/riscv.cpp ****     //if thread not null, set status to finished and dispatch
 331:src/kernel/riscv.cpp ****     if(TCB::running == nullptr){
 332:src/kernel/riscv.cpp ****         status = -1;
 333:src/kernel/riscv.cpp ****     }
 334:src/kernel/riscv.cpp ****     else{
 335:src/kernel/riscv.cpp ****         TCB* old = TCB::running;
 336:src/kernel/riscv.cpp ****         old->status = TCB::Status::FINISHED;
 337:src/kernel/riscv.cpp ****         TCB::dispatch();
 338:src/kernel/riscv.cpp ****     }
 339:src/kernel/riscv.cpp **** 
 340:src/kernel/riscv.cpp ****     asm("mv a0, %[status]" : : [status] "r" (status));
 341:src/kernel/riscv.cpp **** 
 342:src/kernel/riscv.cpp ****     RiscV::saveA0toSscratch();
 343:src/kernel/riscv.cpp **** }
 344:src/kernel/riscv.cpp **** 
 345:src/kernel/riscv.cpp **** void RiscV::executeThreadDispatchSyscall(){
  88              		.loc 1 345 43 is_stmt 1
  89              		.cfi_startproc
  90 0058 130101FF 		addi	sp,sp,-16
  91              		.cfi_def_cfa_offset 16
  92 005c 23341100 		sd	ra,8(sp)
  93 0060 23308100 		sd	s0,0(sp)
  94              		.cfi_offset 1, -8
  95              		.cfi_offset 8, -16
  96 0064 13040101 		addi	s0,sp,16
  97              		.cfi_def_cfa 8, 0
 346:src/kernel/riscv.cpp **** 
 347:src/kernel/riscv.cpp ****     //dispatch current running thread
 348:src/kernel/riscv.cpp ****     TCB* old = TCB::running;
  98              		.loc 1 348 5
  99              		.loc 1 348 10 is_stmt 0
 100 0068 97070000 		la	a5,_ZN3TCB7runningE
 100      83B70700 
 101 0070 83B70700 		ld	a5,0(a5)
 102              	.LVL0:
 349:src/kernel/riscv.cpp ****     old->status = TCB::Status::READY;
 103              		.loc 1 349 5 is_stmt 1
 104              		.loc 1 349 17 is_stmt 0
 105 0074 13071000 		li	a4,1
GAS LISTING /tmp/ccnlBL9w.s 			page 9


 106 0078 23A8E700 		sw	a4,16(a5)
 350:src/kernel/riscv.cpp ****     TCB::dispatch();
 107              		.loc 1 350 5 is_stmt 1
 108              		.loc 1 350 18 is_stmt 0
 109 007c 97000000 		call	_ZN3TCB8dispatchEv@plt
 109      E7800000 
 110              	.LVL1:
 351:src/kernel/riscv.cpp **** }
 111              		.loc 1 351 1
 112 0084 83308100 		ld	ra,8(sp)
 113              		.cfi_restore 1
 114 0088 03340100 		ld	s0,0(sp)
 115              		.cfi_restore 8
 116              		.cfi_def_cfa 2, 16
 117 008c 13010101 		addi	sp,sp,16
 118              		.cfi_def_cfa_offset 0
 119 0090 67800000 		jr	ra
 120              		.cfi_endproc
 121              	.LFE56:
 123              		.align	2
 124              		.globl	_ZN5RiscV18executePutcSyscallEv
 126              	_ZN5RiscV18executePutcSyscallEv:
 127              	.LFB63:
 352:src/kernel/riscv.cpp **** 
 353:src/kernel/riscv.cpp **** void RiscV::executeSemOpenSyscall() {
 354:src/kernel/riscv.cpp **** 
 355:src/kernel/riscv.cpp ****     //fetch the arguments from a0-a7 registers
 356:src/kernel/riscv.cpp ****     uint64 ihandle, iinit;
 357:src/kernel/riscv.cpp **** 
 358:src/kernel/riscv.cpp ****     asm("mv %[ihandle], a1" : [ihandle] "=r"(ihandle));
 359:src/kernel/riscv.cpp ****     asm("mv %[iinit], a2" : [iinit] "=r"(iinit));
 360:src/kernel/riscv.cpp **** 
 361:src/kernel/riscv.cpp ****     //create new Semaphore Control Block and write it into ihandle if not null
 362:src/kernel/riscv.cpp ****     SCB *scb = new SCB(iinit);
 363:src/kernel/riscv.cpp **** 
 364:src/kernel/riscv.cpp ****     uint64 status = 0;
 365:src/kernel/riscv.cpp **** 
 366:src/kernel/riscv.cpp ****     if(scb == nullptr){
 367:src/kernel/riscv.cpp ****         status = -1;
 368:src/kernel/riscv.cpp ****     }
 369:src/kernel/riscv.cpp ****     else{
 370:src/kernel/riscv.cpp ****         *((SCB**)ihandle) = scb;
 371:src/kernel/riscv.cpp ****     }
 372:src/kernel/riscv.cpp **** 
 373:src/kernel/riscv.cpp ****     //return status
 374:src/kernel/riscv.cpp ****     asm("mv a0, %[status]" : : [status] "r" (status));
 375:src/kernel/riscv.cpp **** 
 376:src/kernel/riscv.cpp ****     RiscV::saveA0toSscratch();
 377:src/kernel/riscv.cpp **** 
 378:src/kernel/riscv.cpp **** }
 379:src/kernel/riscv.cpp **** 
 380:src/kernel/riscv.cpp **** void RiscV::executeSemCloseSyscall() {
 381:src/kernel/riscv.cpp **** 
 382:src/kernel/riscv.cpp ****     //fetch the arguments from a0-a7 registers
 383:src/kernel/riscv.cpp ****     uint64 ihandle;
 384:src/kernel/riscv.cpp **** 
 385:src/kernel/riscv.cpp ****     asm("mv %[ihandle], a1" : [ihandle] "=r"(ihandle));
GAS LISTING /tmp/ccnlBL9w.s 			page 10


 386:src/kernel/riscv.cpp **** 
 387:src/kernel/riscv.cpp ****     //delete scb if not null
 388:src/kernel/riscv.cpp ****     SCB *scb = (SCB*)ihandle;
 389:src/kernel/riscv.cpp ****     uint64 status = 0;
 390:src/kernel/riscv.cpp **** 
 391:src/kernel/riscv.cpp ****     if(scb == nullptr){
 392:src/kernel/riscv.cpp ****         status = -1;
 393:src/kernel/riscv.cpp ****     }
 394:src/kernel/riscv.cpp ****     else
 395:src/kernel/riscv.cpp ****         delete (SCB*)ihandle;
 396:src/kernel/riscv.cpp **** 
 397:src/kernel/riscv.cpp ****     //return status
 398:src/kernel/riscv.cpp ****     asm("mv a0, %[status]" : : [status] "r" (status));
 399:src/kernel/riscv.cpp **** 
 400:src/kernel/riscv.cpp ****     RiscV::saveA0toSscratch();
 401:src/kernel/riscv.cpp **** }
 402:src/kernel/riscv.cpp **** 
 403:src/kernel/riscv.cpp **** void RiscV::executeSemWaitSyscall() {
 404:src/kernel/riscv.cpp **** 
 405:src/kernel/riscv.cpp ****     //fetch the arguments from a0-a7 registers
 406:src/kernel/riscv.cpp ****     uint64 ihandle;
 407:src/kernel/riscv.cpp **** 
 408:src/kernel/riscv.cpp ****     asm("mv %[ihandle], a1" : [ihandle] "=r"(ihandle));
 409:src/kernel/riscv.cpp **** 
 410:src/kernel/riscv.cpp ****     uint64 status = 0;
 411:src/kernel/riscv.cpp ****     //call wait method on ihandle scb
 412:src/kernel/riscv.cpp **** 
 413:src/kernel/riscv.cpp ****     if(((SCB*)ihandle) != nullptr)
 414:src/kernel/riscv.cpp ****         ((SCB*)ihandle)->wait();
 415:src/kernel/riscv.cpp ****     else
 416:src/kernel/riscv.cpp ****         status = -1;
 417:src/kernel/riscv.cpp **** 
 418:src/kernel/riscv.cpp ****     if(TCB::running->semError != nullptr)
 419:src/kernel/riscv.cpp ****         status = -1;
 420:src/kernel/riscv.cpp ****     else
 421:src/kernel/riscv.cpp ****         status = 0;
 422:src/kernel/riscv.cpp **** 
 423:src/kernel/riscv.cpp ****     //return status
 424:src/kernel/riscv.cpp ****     asm("mv a0, %[status]" : : [status] "r" (status));
 425:src/kernel/riscv.cpp **** 
 426:src/kernel/riscv.cpp ****     RiscV::saveA0toSscratch();
 427:src/kernel/riscv.cpp **** 
 428:src/kernel/riscv.cpp **** }
 429:src/kernel/riscv.cpp **** 
 430:src/kernel/riscv.cpp **** void RiscV::executeSemSignalSyscall() {
 431:src/kernel/riscv.cpp **** 
 432:src/kernel/riscv.cpp ****     //fetch the arguments from a0-a7 registers
 433:src/kernel/riscv.cpp ****     uint64 ihandle;
 434:src/kernel/riscv.cpp **** 
 435:src/kernel/riscv.cpp ****     asm("mv %[ihandle], a1" : [ihandle] "=r"(ihandle));
 436:src/kernel/riscv.cpp **** 
 437:src/kernel/riscv.cpp ****     //call signal method on ihandle scb
 438:src/kernel/riscv.cpp **** 
 439:src/kernel/riscv.cpp ****     uint64 status = 0;
 440:src/kernel/riscv.cpp **** 
 441:src/kernel/riscv.cpp ****     if(((SCB*)ihandle) != nullptr)
 442:src/kernel/riscv.cpp ****         ((SCB*)ihandle)->signal();
GAS LISTING /tmp/ccnlBL9w.s 			page 11


 443:src/kernel/riscv.cpp ****     else
 444:src/kernel/riscv.cpp ****         status = -1;
 445:src/kernel/riscv.cpp **** 
 446:src/kernel/riscv.cpp ****     //return status
 447:src/kernel/riscv.cpp ****     asm("mv a0, %[status]" : : [status] "r" (status));
 448:src/kernel/riscv.cpp **** 
 449:src/kernel/riscv.cpp ****     RiscV::saveA0toSscratch();
 450:src/kernel/riscv.cpp **** }
 451:src/kernel/riscv.cpp **** 
 452:src/kernel/riscv.cpp **** void RiscV::executeTimeSleepSyscall() {
 453:src/kernel/riscv.cpp **** 
 454:src/kernel/riscv.cpp ****     //fetch the arguments from a0-a7 registers
 455:src/kernel/riscv.cpp ****     uint64 itime;
 456:src/kernel/riscv.cpp **** 
 457:src/kernel/riscv.cpp ****     asm("mv %[itime], a1" : [itime] "=r"(itime));
 458:src/kernel/riscv.cpp **** 
 459:src/kernel/riscv.cpp ****     //calculate wake time for running thread and put it to sleep
 460:src/kernel/riscv.cpp ****     //fetch new running with dispatch
 461:src/kernel/riscv.cpp ****     TCB* tcb = TCB::running;
 462:src/kernel/riscv.cpp ****     tcb->sleepTime = globalTime;
 463:src/kernel/riscv.cpp ****     tcb->wakeTime = globalTime + itime;
 464:src/kernel/riscv.cpp **** 
 465:src/kernel/riscv.cpp ****     Scheduler::sleep(tcb);
 466:src/kernel/riscv.cpp **** 
 467:src/kernel/riscv.cpp ****     tcb->status = TCB::Status::BLOCKED;
 468:src/kernel/riscv.cpp **** 
 469:src/kernel/riscv.cpp ****     TCB::dispatch();
 470:src/kernel/riscv.cpp **** 
 471:src/kernel/riscv.cpp ****     uint64 status = 0;
 472:src/kernel/riscv.cpp **** 
 473:src/kernel/riscv.cpp ****     //return status
 474:src/kernel/riscv.cpp ****     asm("mv a0, %[status]" : : [status] "r" (status));
 475:src/kernel/riscv.cpp **** 
 476:src/kernel/riscv.cpp ****     RiscV::saveA0toSscratch();
 477:src/kernel/riscv.cpp **** }
 478:src/kernel/riscv.cpp **** 
 479:src/kernel/riscv.cpp **** void RiscV::executeGetcSyscall() {
 480:src/kernel/riscv.cpp **** 
 481:src/kernel/riscv.cpp ****     //register a pending getc call
 482:src/kernel/riscv.cpp ****     if(!userMainFinished)
 483:src/kernel/riscv.cpp ****         ConsoleUtil::pendingGetc++;
 484:src/kernel/riscv.cpp **** 
 485:src/kernel/riscv.cpp ****     //get character from input buffer
 486:src/kernel/riscv.cpp ****     char c = ConsoleUtil::getInput();
 487:src/kernel/riscv.cpp **** 
 488:src/kernel/riscv.cpp ****     //if char == \n echo it as LF and CR
 489:src/kernel/riscv.cpp ****     if(c==13) {
 490:src/kernel/riscv.cpp ****         ConsoleUtil::putOutput(13);
 491:src/kernel/riscv.cpp ****         ConsoleUtil::putOutput(10);
 492:src/kernel/riscv.cpp ****     }
 493:src/kernel/riscv.cpp ****     //if not ESC character, echo it to console
 494:src/kernel/riscv.cpp ****     else if(c!=0x01b)
 495:src/kernel/riscv.cpp ****         ConsoleUtil::putOutput(c);
 496:src/kernel/riscv.cpp **** 
 497:src/kernel/riscv.cpp ****     //return character
 498:src/kernel/riscv.cpp ****     asm("mv a0, %[c]" : : [c] "r" (c));
 499:src/kernel/riscv.cpp **** 
GAS LISTING /tmp/ccnlBL9w.s 			page 12


 500:src/kernel/riscv.cpp ****     RiscV::saveA0toSscratch();
 501:src/kernel/riscv.cpp **** }
 502:src/kernel/riscv.cpp **** 
 503:src/kernel/riscv.cpp **** void RiscV::executePutcSyscall() {
 128              		.loc 1 503 34 is_stmt 1
 129              		.cfi_startproc
 130 0094 130101FF 		addi	sp,sp,-16
 131              		.cfi_def_cfa_offset 16
 132 0098 23341100 		sd	ra,8(sp)
 133 009c 23308100 		sd	s0,0(sp)
 134              		.cfi_offset 1, -8
 135              		.cfi_offset 8, -16
 136 00a0 13040101 		addi	s0,sp,16
 137              		.cfi_def_cfa 8, 0
 504:src/kernel/riscv.cpp **** 
 505:src/kernel/riscv.cpp ****     //register a pending putc call
 506:src/kernel/riscv.cpp ****     if(!userMainFinished)
 138              		.loc 1 506 5
 139              		.loc 1 506 8 is_stmt 0
 140 00a4 97070000 		lbu	a5,.LANCHOR0
 140      83C70700 
 141              		.loc 1 506 5
 142 00ac 639C0700 		bnez	a5,.L9
 507:src/kernel/riscv.cpp ****         ConsoleUtil::pendingPutc++;
 143              		.loc 1 507 9 is_stmt 1
 144              		.loc 1 507 33 is_stmt 0
 145 00b0 17070000 		la	a4,_ZN11ConsoleUtil11pendingPutcE
 145      03370700 
 146 00b8 83370700 		ld	a5,0(a4)
 147 00bc 93871700 		addi	a5,a5,1
 148 00c0 2330F700 		sd	a5,0(a4)
 149              	.L9:
 508:src/kernel/riscv.cpp **** 
 509:src/kernel/riscv.cpp ****     char c;
 150              		.loc 1 509 5 is_stmt 1
 510:src/kernel/riscv.cpp **** 
 511:src/kernel/riscv.cpp ****     asm("mv %[c], a1" : [c] "=r"(c));
 151              		.loc 1 511 5
 152              		.loc 1 511 37 is_stmt 0
 153              	#APP
 154              	# 511 "src/kernel/riscv.cpp" 1
 512              	
 155              		mv a0, a1
 156              	# 0 "" 2
 157              	.LVL2:
 513:src/kernel/riscv.cpp ****     //put character in output buffer
 514:src/kernel/riscv.cpp ****     ConsoleUtil::putOutput(c);
 158              		.loc 1 514 5 is_stmt 1
 159              		.loc 1 514 27 is_stmt 0
 160              	#NO_APP
 161 00c8 1375F50F 		andi	a0,a0,0xff
 162 00cc 97000000 		call	_ZN11ConsoleUtil9putOutputEc@plt
 162      E7800000 
 163              	.LVL3:
 515:src/kernel/riscv.cpp **** }
 164              		.loc 1 515 1
 165 00d4 83308100 		ld	ra,8(sp)
GAS LISTING /tmp/ccnlBL9w.s 			page 13


 166              		.cfi_restore 1
 167 00d8 03340100 		ld	s0,0(sp)
 168              		.cfi_restore 8
 169              		.cfi_def_cfa 2, 16
 170 00dc 13010101 		addi	sp,sp,16
 171              		.cfi_def_cfa_offset 0
 172 00e0 67800000 		jr	ra
 173              		.cfi_endproc
 174              	.LFE63:
 176              		.align	2
 177              		.globl	_ZN5RiscV29jumpToDesignatedPrivilegeModeEv
 179              	_ZN5RiscV29jumpToDesignatedPrivilegeModeEv:
 180              	.LFB66:
 516:src/kernel/riscv.cpp **** 
 517:src/kernel/riscv.cpp **** //wrapper function for putcThread
 518:src/kernel/riscv.cpp **** //spins in a while loop and checks whether console is ready to take output
 519:src/kernel/riscv.cpp **** //if ready read data from output buffer
 520:src/kernel/riscv.cpp **** void RiscV::putcWrapper(void* arg)
 521:src/kernel/riscv.cpp **** {
 522:src/kernel/riscv.cpp ****     while(true)
 523:src/kernel/riscv.cpp ****     {
 524:src/kernel/riscv.cpp ****         //read console status from status register
 525:src/kernel/riscv.cpp ****         uint64 status = CONSOLE_STATUS;
 526:src/kernel/riscv.cpp ****         asm("mv a0, %[status]" : : [status] "r" (status));
 527:src/kernel/riscv.cpp ****         asm("lb a1, 0(a0)");
 528:src/kernel/riscv.cpp ****         asm("mv %[status], a1" : [status] "=r" (status));
 529:src/kernel/riscv.cpp **** 
 530:src/kernel/riscv.cpp ****         //if console ready..
 531:src/kernel/riscv.cpp ****         if(status & 1UL<<5){
 532:src/kernel/riscv.cpp **** 
 533:src/kernel/riscv.cpp ****             //get character from output buffer with possible block if nothing in buffer
 534:src/kernel/riscv.cpp ****                 char volatile c = ConsoleUtil::putcUtilSyscall();
 535:src/kernel/riscv.cpp ****                 uint64 data = CONSOLE_RX_DATA;
 536:src/kernel/riscv.cpp ****                 asm("mv a0, %[data]" : : [data] "r"(data));
 537:src/kernel/riscv.cpp ****                 asm("mv a1, %[c]" : : [c] "r"(c));
 538:src/kernel/riscv.cpp ****                 asm("sb a1,0(a0)");
 539:src/kernel/riscv.cpp **** 
 540:src/kernel/riscv.cpp ****             //decrement number of pending putc requests
 541:src/kernel/riscv.cpp ****             if(ConsoleUtil::pendingPutc>0)
 542:src/kernel/riscv.cpp ****                 ConsoleUtil::pendingPutc--;
 543:src/kernel/riscv.cpp ****         }
 544:src/kernel/riscv.cpp ****         else
 545:src/kernel/riscv.cpp ****             RiscV::threadDispatchUtil();
 546:src/kernel/riscv.cpp ****     }
 547:src/kernel/riscv.cpp **** }
 548:src/kernel/riscv.cpp **** 
 549:src/kernel/riscv.cpp **** //utility syscall to get character from output buffer
 550:src/kernel/riscv.cpp **** //syscall is needed because we don't want to fiddle with kernel structures from anywhere but the tr
 551:src/kernel/riscv.cpp **** void RiscV::executePutcUtilSyscall() {
 552:src/kernel/riscv.cpp ****     char c = ConsoleUtil::getOutput();
 553:src/kernel/riscv.cpp ****     asm("mv a0, %[c]" : : [c] "r" ((uint64)(c)) );
 554:src/kernel/riscv.cpp **** 
 555:src/kernel/riscv.cpp ****     RiscV::saveA0toSscratch();
 556:src/kernel/riscv.cpp **** }
 557:src/kernel/riscv.cpp **** 
 558:src/kernel/riscv.cpp **** //return to privilege that was given at creation
 559:src/kernel/riscv.cpp **** void RiscV::jumpToDesignatedPrivilegeMode() {
GAS LISTING /tmp/ccnlBL9w.s 			page 14


 181              		.loc 1 559 45 is_stmt 1
 182              		.cfi_startproc
 183 00e4 130101FF 		addi	sp,sp,-16
 184              		.cfi_def_cfa_offset 16
 185 00e8 23348100 		sd	s0,8(sp)
 186              		.cfi_offset 8, -8
 187 00ec 13040101 		addi	s0,sp,16
 188              		.cfi_def_cfa 8, 0
 560:src/kernel/riscv.cpp ****     if(TCB::running->mode == TCB::Mode::SUPERVISOR) {
 189              		.loc 1 560 5
 190              		.loc 1 560 22 is_stmt 0
 191 00f0 97070000 		la	a5,_ZN3TCB7runningE
 191      83B70700 
 192 00f8 83B70700 		ld	a5,0(a5)
 193 00fc 03A74701 		lw	a4,20(a5)
 194              		.loc 1 560 5
 195 0100 93071000 		li	a5,1
 196 0104 630CF700 		beq	a4,a5,.L15
 561:src/kernel/riscv.cpp ****         RiscV::ms_sstatus(RiscV::SSTATUS_SPP);
 562:src/kernel/riscv.cpp ****     }
 563:src/kernel/riscv.cpp ****     else {
 564:src/kernel/riscv.cpp ****         RiscV::mc_sstatus(RiscV::SSTATUS_SPP);
 197              		.loc 1 564 9 is_stmt 1
 198              	.LVL4:
 199              	.LBB105:
 200              	.LBB106:
 201              		.file 2 "src/kernel/../../h/kernel/riscv.hpp"
   1:src/kernel/../../h/kernel/riscv.hpp **** //
   2:src/kernel/../../h/kernel/riscv.hpp **** // Created by os on 4/28/22.
   3:src/kernel/../../h/kernel/riscv.hpp **** //
   4:src/kernel/../../h/kernel/riscv.hpp **** 
   5:src/kernel/../../h/kernel/riscv.hpp **** #ifndef OS1_KERNEL_RISCV_HPP
   6:src/kernel/../../h/kernel/riscv.hpp **** #define OS1_KERNEL_RISCV_HPP
   7:src/kernel/../../h/kernel/riscv.hpp **** #include "../../lib/hw.h"
   8:src/kernel/../../h/kernel/riscv.hpp **** class TCB;
   9:src/kernel/../../h/kernel/riscv.hpp **** class SlabAllocator;
  10:src/kernel/../../h/kernel/riscv.hpp **** 
  11:src/kernel/../../h/kernel/riscv.hpp **** class RiscV{
  12:src/kernel/../../h/kernel/riscv.hpp **** 
  13:src/kernel/../../h/kernel/riscv.hpp ****     static uint64 globalTime;
  14:src/kernel/../../h/kernel/riscv.hpp **** 
  15:src/kernel/../../h/kernel/riscv.hpp ****     static void* kPMT;
  16:src/kernel/../../h/kernel/riscv.hpp ****     static void* uPMT;
  17:src/kernel/../../h/kernel/riscv.hpp **** 
  18:src/kernel/../../h/kernel/riscv.hpp ****     static bool initialized;
  19:src/kernel/../../h/kernel/riscv.hpp **** 
  20:src/kernel/../../h/kernel/riscv.hpp ****     static bool userMainFinished;
  21:src/kernel/../../h/kernel/riscv.hpp **** 
  22:src/kernel/../../h/kernel/riscv.hpp ****     enum BitMaskSstatus{
  23:src/kernel/../../h/kernel/riscv.hpp ****         SSTATUS_SIE = (1<<1),
  24:src/kernel/../../h/kernel/riscv.hpp ****         SSTATUS_SPIE = (1<<5),
  25:src/kernel/../../h/kernel/riscv.hpp ****         SSTATUS_SPP = (1<<8),
  26:src/kernel/../../h/kernel/riscv.hpp ****     };
  27:src/kernel/../../h/kernel/riscv.hpp **** 
  28:src/kernel/../../h/kernel/riscv.hpp ****     enum BitMaskSip{
  29:src/kernel/../../h/kernel/riscv.hpp ****         SIP_SSIE = (1<<1),
  30:src/kernel/../../h/kernel/riscv.hpp ****         SIP_STIE = (1<<5),
GAS LISTING /tmp/ccnlBL9w.s 			page 15


  31:src/kernel/../../h/kernel/riscv.hpp ****         SIP_SEIE = (1<<9),
  32:src/kernel/../../h/kernel/riscv.hpp ****     };
  33:src/kernel/../../h/kernel/riscv.hpp **** 
  34:src/kernel/../../h/kernel/riscv.hpp ****     static void executeMemAllocSyscall();   //wrapper function for moving parameters and calling Me
  35:src/kernel/../../h/kernel/riscv.hpp **** 
  36:src/kernel/../../h/kernel/riscv.hpp ****     static void executeMemFreeSyscall();    //wrapper function for moving parameters and calling Me
  37:src/kernel/../../h/kernel/riscv.hpp **** 
  38:src/kernel/../../h/kernel/riscv.hpp ****     static void executeThreadCreateSyscall();
  39:src/kernel/../../h/kernel/riscv.hpp **** 
  40:src/kernel/../../h/kernel/riscv.hpp ****     static void executeThreadExitSyscall();
  41:src/kernel/../../h/kernel/riscv.hpp **** 
  42:src/kernel/../../h/kernel/riscv.hpp ****     static void executeThreadDispatchSyscall();
  43:src/kernel/../../h/kernel/riscv.hpp **** 
  44:src/kernel/../../h/kernel/riscv.hpp ****     static void executeThreadAttachBodySyscall();
  45:src/kernel/../../h/kernel/riscv.hpp **** 
  46:src/kernel/../../h/kernel/riscv.hpp ****     static void executeThreadStartSyscall();
  47:src/kernel/../../h/kernel/riscv.hpp **** 
  48:src/kernel/../../h/kernel/riscv.hpp ****     static void executeSemOpenSyscall();
  49:src/kernel/../../h/kernel/riscv.hpp **** 
  50:src/kernel/../../h/kernel/riscv.hpp ****     static void executeSemCloseSyscall();
  51:src/kernel/../../h/kernel/riscv.hpp **** 
  52:src/kernel/../../h/kernel/riscv.hpp ****     static void executeSemWaitSyscall();
  53:src/kernel/../../h/kernel/riscv.hpp **** 
  54:src/kernel/../../h/kernel/riscv.hpp ****     static void executeSemSignalSyscall();
  55:src/kernel/../../h/kernel/riscv.hpp **** 
  56:src/kernel/../../h/kernel/riscv.hpp ****     static void executeTimeSleepSyscall();
  57:src/kernel/../../h/kernel/riscv.hpp **** 
  58:src/kernel/../../h/kernel/riscv.hpp ****     static void executeGetcSyscall();
  59:src/kernel/../../h/kernel/riscv.hpp **** 
  60:src/kernel/../../h/kernel/riscv.hpp ****     static void executePutcSyscall();
  61:src/kernel/../../h/kernel/riscv.hpp **** 
  62:src/kernel/../../h/kernel/riscv.hpp ****     static void executePutcUtilSyscall();
  63:src/kernel/../../h/kernel/riscv.hpp **** 
  64:src/kernel/../../h/kernel/riscv.hpp ****     static void executeThreadFreeSyscall();
  65:src/kernel/../../h/kernel/riscv.hpp **** 
  66:src/kernel/../../h/kernel/riscv.hpp ****     static void executeSemaphoreFreeSyscall();
  67:src/kernel/../../h/kernel/riscv.hpp **** 
  68:src/kernel/../../h/kernel/riscv.hpp ****     static void executeForkSyscall();
  69:src/kernel/../../h/kernel/riscv.hpp **** 
  70:src/kernel/../../h/kernel/riscv.hpp ****     static void putcWrapper(void *arg);
  71:src/kernel/../../h/kernel/riscv.hpp **** 
  72:src/kernel/../../h/kernel/riscv.hpp ****     static void threadCreateUtil(TCB** handle, void(*start_routine)(void*), void *arg);
  73:src/kernel/../../h/kernel/riscv.hpp **** 
  74:src/kernel/../../h/kernel/riscv.hpp ****     static void threadExitUtil();
  75:src/kernel/../../h/kernel/riscv.hpp **** 
  76:src/kernel/../../h/kernel/riscv.hpp ****     static void threadDispatchUtil();
  77:src/kernel/../../h/kernel/riscv.hpp **** 
  78:src/kernel/../../h/kernel/riscv.hpp ****     static uint64 r_scause();
  79:src/kernel/../../h/kernel/riscv.hpp **** 
  80:src/kernel/../../h/kernel/riscv.hpp ****     static void w_scause(uint64 scause);
  81:src/kernel/../../h/kernel/riscv.hpp **** 
  82:src/kernel/../../h/kernel/riscv.hpp ****     static uint64 r_sepc();
  83:src/kernel/../../h/kernel/riscv.hpp **** 
  84:src/kernel/../../h/kernel/riscv.hpp ****     static void w_sepc(uint64 sepc);
  85:src/kernel/../../h/kernel/riscv.hpp **** 
  86:src/kernel/../../h/kernel/riscv.hpp ****     static uint64 r_stvec();
  87:src/kernel/../../h/kernel/riscv.hpp **** 
GAS LISTING /tmp/ccnlBL9w.s 			page 16


  88:src/kernel/../../h/kernel/riscv.hpp ****     static void w_stvec(uint64 stvec);
  89:src/kernel/../../h/kernel/riscv.hpp **** 
  90:src/kernel/../../h/kernel/riscv.hpp ****     static uint64 r_sstatus();
  91:src/kernel/../../h/kernel/riscv.hpp **** 
  92:src/kernel/../../h/kernel/riscv.hpp ****     static void w_sstatus(uint64 sstatus);
  93:src/kernel/../../h/kernel/riscv.hpp **** 
  94:src/kernel/../../h/kernel/riscv.hpp ****     static void ms_sstatus(uint64 mask);
  95:src/kernel/../../h/kernel/riscv.hpp **** 
  96:src/kernel/../../h/kernel/riscv.hpp ****     static void mc_sstatus(uint64 mask);
  97:src/kernel/../../h/kernel/riscv.hpp **** 
  98:src/kernel/../../h/kernel/riscv.hpp ****     static void ms_sip(uint64 mask);
  99:src/kernel/../../h/kernel/riscv.hpp **** 
 100:src/kernel/../../h/kernel/riscv.hpp ****     static void mc_sip(uint64 mask);
 101:src/kernel/../../h/kernel/riscv.hpp **** 
 102:src/kernel/../../h/kernel/riscv.hpp ****     static void ms_sie(uint64 mask);
 103:src/kernel/../../h/kernel/riscv.hpp **** 
 104:src/kernel/../../h/kernel/riscv.hpp ****     static void mc_sie(uint64 mask);
 105:src/kernel/../../h/kernel/riscv.hpp **** 
 106:src/kernel/../../h/kernel/riscv.hpp ****     static uint64 getPMT2Entry(uint64 addr);
 107:src/kernel/../../h/kernel/riscv.hpp **** 
 108:src/kernel/../../h/kernel/riscv.hpp ****     static uint64 getPMT1Entry(uint64 addr);
 109:src/kernel/../../h/kernel/riscv.hpp **** 
 110:src/kernel/../../h/kernel/riscv.hpp ****     static uint64 getPMT0Entry(uint64 addr);
 111:src/kernel/../../h/kernel/riscv.hpp **** 
 112:src/kernel/../../h/kernel/riscv.hpp ****     static void startVirtualMemory(void *PMT);
 113:src/kernel/../../h/kernel/riscv.hpp ****     static void shutVirtualMemory();
 114:src/kernel/../../h/kernel/riscv.hpp **** 
 115:src/kernel/../../h/kernel/riscv.hpp ****     static void saveA0toSscratch();
 116:src/kernel/../../h/kernel/riscv.hpp **** 
 117:src/kernel/../../h/kernel/riscv.hpp ****     static void jumpToDesignatedPrivilegeMode();
 118:src/kernel/../../h/kernel/riscv.hpp **** 
 119:src/kernel/../../h/kernel/riscv.hpp ****     static void popSppSpie();
 120:src/kernel/../../h/kernel/riscv.hpp **** 
 121:src/kernel/../../h/kernel/riscv.hpp ****     static void popSppSpie2();
 122:src/kernel/../../h/kernel/riscv.hpp **** 
 123:src/kernel/../../h/kernel/riscv.hpp ****     static void getPC();
 124:src/kernel/../../h/kernel/riscv.hpp **** 
 125:src/kernel/../../h/kernel/riscv.hpp ****     static void supervisorTrap();      //supervisorTrap defined in /src/supervisorTrap.S
 126:src/kernel/../../h/kernel/riscv.hpp **** 
 127:src/kernel/../../h/kernel/riscv.hpp ****     static void handleSupervisorTrap();
 128:src/kernel/../../h/kernel/riscv.hpp **** 
 129:src/kernel/../../h/kernel/riscv.hpp ****     static void enableInterrupts();
 130:src/kernel/../../h/kernel/riscv.hpp **** 
 131:src/kernel/../../h/kernel/riscv.hpp ****     static void disableInterrupts();
 132:src/kernel/../../h/kernel/riscv.hpp **** 
 133:src/kernel/../../h/kernel/riscv.hpp ****     static void enableHardwareInterrupts();
 134:src/kernel/../../h/kernel/riscv.hpp **** 
 135:src/kernel/../../h/kernel/riscv.hpp ****     static void disableHardwareInterrupts();
 136:src/kernel/../../h/kernel/riscv.hpp **** 
 137:src/kernel/../../h/kernel/riscv.hpp ****     static void enableTimerInterrupts();
 138:src/kernel/../../h/kernel/riscv.hpp **** 
 139:src/kernel/../../h/kernel/riscv.hpp ****     static void disableTimerInterrupts();
 140:src/kernel/../../h/kernel/riscv.hpp **** 
 141:src/kernel/../../h/kernel/riscv.hpp ****     static void handlePageFault(void* PMT,uint64 addr, uint64 mask);
 142:src/kernel/../../h/kernel/riscv.hpp **** 
 143:src/kernel/../../h/kernel/riscv.hpp ****     static void initialize();
 144:src/kernel/../../h/kernel/riscv.hpp **** 
GAS LISTING /tmp/ccnlBL9w.s 			page 17


 145:src/kernel/../../h/kernel/riscv.hpp ****     static void finalize();
 146:src/kernel/../../h/kernel/riscv.hpp **** 
 147:src/kernel/../../h/kernel/riscv.hpp ****     static void* getPMT();
 148:src/kernel/../../h/kernel/riscv.hpp **** 
 149:src/kernel/../../h/kernel/riscv.hpp ****     static void buildSection(void* PMT, uint64 start, uint64 end, uint64 mask);
 150:src/kernel/../../h/kernel/riscv.hpp **** 
 151:src/kernel/../../h/kernel/riscv.hpp ****     static void buildKernelPMT();
 152:src/kernel/../../h/kernel/riscv.hpp **** 
 153:src/kernel/../../h/kernel/riscv.hpp ****     static void buildUserPMT();
 154:src/kernel/../../h/kernel/riscv.hpp **** 
 155:src/kernel/../../h/kernel/riscv.hpp ****     static void mapConsoleRegisters(void *PMT);
 156:src/kernel/../../h/kernel/riscv.hpp **** 
 157:src/kernel/../../h/kernel/riscv.hpp ****     friend class TCB;
 158:src/kernel/../../h/kernel/riscv.hpp **** 
 159:src/kernel/../../h/kernel/riscv.hpp ****     friend class System;
 160:src/kernel/../../h/kernel/riscv.hpp **** 
 161:src/kernel/../../h/kernel/riscv.hpp ****     friend class Scheduler;
 162:src/kernel/../../h/kernel/riscv.hpp **** 
 163:src/kernel/../../h/kernel/riscv.hpp ****     friend class ConsoleUtil;
 164:src/kernel/../../h/kernel/riscv.hpp **** 
 165:src/kernel/../../h/kernel/riscv.hpp ****     friend class SlabAllocator;
 166:src/kernel/../../h/kernel/riscv.hpp **** };
 167:src/kernel/../../h/kernel/riscv.hpp **** 
 168:src/kernel/../../h/kernel/riscv.hpp **** inline uint64 RiscV::r_scause(){
 169:src/kernel/../../h/kernel/riscv.hpp ****     uint64 volatile scause;
 170:src/kernel/../../h/kernel/riscv.hpp ****     asm("csrr %[scause], scause" : [scause] "=r" (scause));
 171:src/kernel/../../h/kernel/riscv.hpp ****     return scause;
 172:src/kernel/../../h/kernel/riscv.hpp **** }
 173:src/kernel/../../h/kernel/riscv.hpp **** 
 174:src/kernel/../../h/kernel/riscv.hpp **** inline void RiscV::w_scause(uint64 scause){
 175:src/kernel/../../h/kernel/riscv.hpp ****     asm("csrw scause, %[scause]" : : [scause] "r" (scause));
 176:src/kernel/../../h/kernel/riscv.hpp **** }
 177:src/kernel/../../h/kernel/riscv.hpp **** 
 178:src/kernel/../../h/kernel/riscv.hpp **** inline uint64 RiscV::r_sepc(){
 179:src/kernel/../../h/kernel/riscv.hpp ****     uint64 sepc;
 180:src/kernel/../../h/kernel/riscv.hpp ****     asm("csrr %[sepc], sepc" : [sepc] "=r" (sepc));
 181:src/kernel/../../h/kernel/riscv.hpp ****     return sepc;
 182:src/kernel/../../h/kernel/riscv.hpp **** }
 183:src/kernel/../../h/kernel/riscv.hpp **** 
 184:src/kernel/../../h/kernel/riscv.hpp **** inline void RiscV::w_sepc(uint64 sepc){
 185:src/kernel/../../h/kernel/riscv.hpp ****     asm("csrw sepc, %[sepc]" : : [sepc] "r" (sepc));
 186:src/kernel/../../h/kernel/riscv.hpp **** }
 187:src/kernel/../../h/kernel/riscv.hpp **** 
 188:src/kernel/../../h/kernel/riscv.hpp **** inline uint64 RiscV::r_stvec(){
 189:src/kernel/../../h/kernel/riscv.hpp ****     uint64 stvec;
 190:src/kernel/../../h/kernel/riscv.hpp ****     asm("csrr %[stvec], stvec" : [stvec] "=r" (stvec));
 191:src/kernel/../../h/kernel/riscv.hpp ****     return stvec;
 192:src/kernel/../../h/kernel/riscv.hpp **** }
 193:src/kernel/../../h/kernel/riscv.hpp **** 
 194:src/kernel/../../h/kernel/riscv.hpp **** inline void RiscV::w_sstatus(uint64 sstatus){
 195:src/kernel/../../h/kernel/riscv.hpp ****     asm("csrw sstatus, %[sstatus]" : : [sstatus] "r" (sstatus));
 196:src/kernel/../../h/kernel/riscv.hpp **** }
 197:src/kernel/../../h/kernel/riscv.hpp **** 
 198:src/kernel/../../h/kernel/riscv.hpp **** inline uint64 RiscV::r_sstatus(){
 199:src/kernel/../../h/kernel/riscv.hpp ****     uint64 sstatus;
 200:src/kernel/../../h/kernel/riscv.hpp ****     asm("csrr %[sstatus], sstatus" : [sstatus] "=r" (sstatus));
 201:src/kernel/../../h/kernel/riscv.hpp ****     return sstatus;
GAS LISTING /tmp/ccnlBL9w.s 			page 18


 202:src/kernel/../../h/kernel/riscv.hpp **** }
 203:src/kernel/../../h/kernel/riscv.hpp **** 
 204:src/kernel/../../h/kernel/riscv.hpp **** inline void RiscV::w_stvec(uint64 stvec){
 205:src/kernel/../../h/kernel/riscv.hpp ****     asm("csrw stvec, %[stvec]" : : [stvec] "r" (stvec));
 206:src/kernel/../../h/kernel/riscv.hpp **** }
 207:src/kernel/../../h/kernel/riscv.hpp **** 
 208:src/kernel/../../h/kernel/riscv.hpp **** inline void  RiscV::ms_sstatus(uint64 mask) {
 209:src/kernel/../../h/kernel/riscv.hpp ****     asm("csrs sstatus, %[mask]" : : [mask] "r" (mask));
 210:src/kernel/../../h/kernel/riscv.hpp **** }
 211:src/kernel/../../h/kernel/riscv.hpp **** 
 212:src/kernel/../../h/kernel/riscv.hpp **** inline void  RiscV::mc_sstatus(uint64 mask) {
 213:src/kernel/../../h/kernel/riscv.hpp ****     asm("csrc sstatus, %[mask]" : : [mask] "r" (mask));
 202              		.loc 2 213 5
 203              		.loc 2 213 55 is_stmt 0
 204 0108 93070010 		li	a5,256
 205              	#APP
 206              	# 213 "src/kernel/../../h/kernel/riscv.hpp" 1
 214              	}
 207              		csrc sstatus, a5
 208              	# 0 "" 2
 209              	.LVL5:
 210              	#NO_APP
 211              	.L11:
 212              	.LBE106:
 213              	.LBE105:
 565:src/kernel/riscv.cpp ****     }
 566:src/kernel/riscv.cpp **** }
 214              		.loc 1 566 1
 215 0110 03348100 		ld	s0,8(sp)
 216              		.cfi_remember_state
 217              		.cfi_restore 8
 218              		.cfi_def_cfa 2, 16
 219 0114 13010101 		addi	sp,sp,16
 220              		.cfi_def_cfa_offset 0
 221 0118 67800000 		jr	ra
 222              	.L15:
 223              		.cfi_restore_state
 561:src/kernel/riscv.cpp ****     }
 224              		.loc 1 561 9 is_stmt 1
 225              	.LVL6:
 226              	.LBB107:
 227              	.LBB108:
 209:src/kernel/../../h/kernel/riscv.hpp **** }
 228              		.loc 2 209 5
 209:src/kernel/../../h/kernel/riscv.hpp **** }
 229              		.loc 2 209 55 is_stmt 0
 230 011c 93070010 		li	a5,256
 231              	#APP
 232              	# 209 "src/kernel/../../h/kernel/riscv.hpp" 1
 210:src/kernel/../../h/kernel/riscv.hpp **** 
 233              		csrs sstatus, a5
 234              	# 0 "" 2
 235              		.loc 2 210 1
 236              	#NO_APP
 237 0124 6FF0DFFE 		j	.L11
 238              	.LBE108:
 239              	.LBE107:
GAS LISTING /tmp/ccnlBL9w.s 			page 19


 240              		.cfi_endproc
 241              	.LFE66:
 243              		.align	2
 244              		.globl	_ZN5RiscV8finalizeEv
 246              	_ZN5RiscV8finalizeEv:
 247              	.LFB67:
 567:src/kernel/riscv.cpp **** 
 568:src/kernel/riscv.cpp **** 
 569:src/kernel/riscv.cpp **** //clear out the scheduler and let console finish remaining outputs if there are any
 570:src/kernel/riscv.cpp **** void RiscV::finalize() {
 248              		.loc 1 570 24 is_stmt 1
 249              		.cfi_startproc
 250 0128 130101FF 		addi	sp,sp,-16
 251              		.cfi_def_cfa_offset 16
 252 012c 23341100 		sd	ra,8(sp)
 253 0130 23308100 		sd	s0,0(sp)
 254              		.cfi_offset 1, -8
 255              		.cfi_offset 8, -16
 256 0134 13040101 		addi	s0,sp,16
 257              		.cfi_def_cfa 8, 0
 571:src/kernel/riscv.cpp ****     userMainFinished = true;
 258              		.loc 1 571 5
 259              		.loc 1 571 22 is_stmt 0
 260 0138 93071000 		li	a5,1
 261 013c 17070000 		sb	a5,.LANCHOR0,a4
 261      2300F700 
 572:src/kernel/riscv.cpp **** 
 573:src/kernel/riscv.cpp ****     ConsoleUtil::pendingPutc = 0;
 262              		.loc 1 573 5 is_stmt 1
 263              		.loc 1 573 30 is_stmt 0
 264 0144 97070000 		la	a5,_ZN11ConsoleUtil11pendingPutcE
 264      83B70700 
 265 014c 23B00700 		sd	zero,0(a5)
 574:src/kernel/riscv.cpp ****     ConsoleUtil::pendingGetc = 0;
 266              		.loc 1 574 5 is_stmt 1
 267              		.loc 1 574 30 is_stmt 0
 268 0150 97070000 		la	a5,_ZN11ConsoleUtil11pendingGetcE
 268      83B70700 
 269 0158 23B00700 		sd	zero,0(a5)
 575:src/kernel/riscv.cpp **** 
 576:src/kernel/riscv.cpp ****     RiscV::disableInterrupts();
 270              		.loc 1 576 5 is_stmt 1
 271              	.LBB109:
 272              	.LBB110:
 215:src/kernel/../../h/kernel/riscv.hpp **** 
 216:src/kernel/../../h/kernel/riscv.hpp **** inline void  RiscV::ms_sip(uint64 mask) {
 217:src/kernel/../../h/kernel/riscv.hpp ****     asm("csrs sip, %[mask]" : : [mask] "r" (mask));
 218:src/kernel/../../h/kernel/riscv.hpp **** }
 219:src/kernel/../../h/kernel/riscv.hpp **** 
 220:src/kernel/../../h/kernel/riscv.hpp **** inline void  RiscV::mc_sip(uint64 mask) {
 221:src/kernel/../../h/kernel/riscv.hpp ****     asm("csrc sip, %[mask]" : : [mask] "r" (mask));
 222:src/kernel/../../h/kernel/riscv.hpp **** }
 223:src/kernel/../../h/kernel/riscv.hpp **** 
 224:src/kernel/../../h/kernel/riscv.hpp **** inline void  RiscV::ms_sie(uint64 mask) {
 225:src/kernel/../../h/kernel/riscv.hpp ****     asm("csrs sie, %[mask]" : : [mask] "r" (mask));
 226:src/kernel/../../h/kernel/riscv.hpp **** }
 227:src/kernel/../../h/kernel/riscv.hpp **** 
GAS LISTING /tmp/ccnlBL9w.s 			page 20


 228:src/kernel/../../h/kernel/riscv.hpp **** inline void  RiscV::mc_sie(uint64 mask){
 229:src/kernel/../../h/kernel/riscv.hpp ****     asm("csrc sie, %[mask]" : : [mask] "r" (mask));
 230:src/kernel/../../h/kernel/riscv.hpp **** }
 231:src/kernel/../../h/kernel/riscv.hpp **** 
 232:src/kernel/../../h/kernel/riscv.hpp **** inline void RiscV::enableInterrupts() {
 233:src/kernel/../../h/kernel/riscv.hpp ****     RiscV::ms_sie(SIP_SSIE);
 234:src/kernel/../../h/kernel/riscv.hpp ****     RiscV::ms_sie(SIP_SEIE);
 235:src/kernel/../../h/kernel/riscv.hpp ****     RiscV::ms_sstatus(SSTATUS_SIE);
 236:src/kernel/../../h/kernel/riscv.hpp **** }
 237:src/kernel/../../h/kernel/riscv.hpp **** 
 238:src/kernel/../../h/kernel/riscv.hpp **** inline void RiscV::disableInterrupts() {
 239:src/kernel/../../h/kernel/riscv.hpp ****     disableTimerInterrupts();
 273              		.loc 2 239 5
 274              	.LBE110:
 275              	.LBE109:
 240:src/kernel/../../h/kernel/riscv.hpp ****     disableHardwareInterrupts();
 241:src/kernel/../../h/kernel/riscv.hpp **** }
 242:src/kernel/../../h/kernel/riscv.hpp **** 
 243:src/kernel/../../h/kernel/riscv.hpp **** inline void RiscV::enableHardwareInterrupts() {
 244:src/kernel/../../h/kernel/riscv.hpp ****     RiscV::mc_sie(SIP_SSIE);
 245:src/kernel/../../h/kernel/riscv.hpp ****     RiscV::ms_sstatus(SSTATUS_SIE);
 246:src/kernel/../../h/kernel/riscv.hpp ****     RiscV::ms_sie(SIP_SEIE);
 247:src/kernel/../../h/kernel/riscv.hpp **** }
 248:src/kernel/../../h/kernel/riscv.hpp **** 
 249:src/kernel/../../h/kernel/riscv.hpp **** inline void RiscV::disableHardwareInterrupts(){
 250:src/kernel/../../h/kernel/riscv.hpp ****     RiscV::mc_sie(SIP_SEIE);
 251:src/kernel/../../h/kernel/riscv.hpp **** }
 252:src/kernel/../../h/kernel/riscv.hpp **** 
 253:src/kernel/../../h/kernel/riscv.hpp **** inline void RiscV::enableTimerInterrupts() {
 254:src/kernel/../../h/kernel/riscv.hpp ****     RiscV::mc_sie(SIP_SEIE);
 255:src/kernel/../../h/kernel/riscv.hpp ****     RiscV::ms_sstatus(SSTATUS_SIE);
 256:src/kernel/../../h/kernel/riscv.hpp ****     RiscV::ms_sie(SIP_SSIE);
 257:src/kernel/../../h/kernel/riscv.hpp **** }
 258:src/kernel/../../h/kernel/riscv.hpp **** 
 259:src/kernel/../../h/kernel/riscv.hpp **** inline void RiscV::disableTimerInterrupts(){
 260:src/kernel/../../h/kernel/riscv.hpp ****     RiscV::mc_sie(SIP_SSIE);
 276              		.loc 2 260 5
 277              	.LVL7:
 278              	.LBB119:
 279              	.LBB117:
 280              	.LBB111:
 281              	.LBB112:
 282              	.LBB113:
 229:src/kernel/../../h/kernel/riscv.hpp **** }
 283              		.loc 2 229 5
 229:src/kernel/../../h/kernel/riscv.hpp **** }
 284              		.loc 2 229 51 is_stmt 0
 285 015c 93072000 		li	a5,2
 286              	#APP
 287              	# 229 "src/kernel/../../h/kernel/riscv.hpp" 1
 288              		csrc sie, a5
 289              	# 0 "" 2
 290              	.LVL8:
 291              	#NO_APP
 292              	.LBE113:
 293              	.LBE112:
 294              	.LBE111:
GAS LISTING /tmp/ccnlBL9w.s 			page 21


 240:src/kernel/../../h/kernel/riscv.hpp ****     disableHardwareInterrupts();
 295              		.loc 2 240 5 is_stmt 1
 296              	.LBE117:
 297              	.LBE119:
 250:src/kernel/../../h/kernel/riscv.hpp **** }
 298              		.loc 2 250 5
 299              	.LBB120:
 300              	.LBB118:
 301              	.LBB114:
 302              	.LBB115:
 303              	.LBB116:
 229:src/kernel/../../h/kernel/riscv.hpp **** }
 304              		.loc 2 229 5
 229:src/kernel/../../h/kernel/riscv.hpp **** }
 305              		.loc 2 229 51 is_stmt 0
 306 0164 93070020 		li	a5,512
 307              	#APP
 308              	# 229 "src/kernel/../../h/kernel/riscv.hpp" 1
 309              		csrc sie, a5
 310              	# 0 "" 2
 311              	.LVL9:
 312              	#NO_APP
 313              	.L18:
 314              	.LBE116:
 315              	.LBE115:
 316              	.LBE114:
 317              	.LBE118:
 318              	.LBE120:
 577:src/kernel/riscv.cpp **** 
 578:src/kernel/riscv.cpp ****     while(Scheduler::readyHead != nullptr)
 319              		.loc 1 578 5 is_stmt 1
 320              		.loc 1 578 32
 321 016c 97070000 		la	a5,_ZN9Scheduler9readyHeadE
 321      83B70700 
 322 0174 83B70700 		ld	a5,0(a5)
 323 0178 638C0700 		beqz	a5,.L17
 579:src/kernel/riscv.cpp ****         Scheduler::readyHead = Scheduler::readyHead->next;
 324              		.loc 1 579 9
 325              		.loc 1 579 54 is_stmt 0
 326 017c 03B78704 		ld	a4,72(a5)
 327              		.loc 1 579 30
 328 0180 97070000 		la	a5,_ZN9Scheduler9readyHeadE
 328      83B70700 
 329 0188 23B0E700 		sd	a4,0(a5)
 578:src/kernel/riscv.cpp ****         Scheduler::readyHead = Scheduler::readyHead->next;
 330              		.loc 1 578 5
 331 018c 6FF01FFE 		j	.L18
 332              	.L17:
 580:src/kernel/riscv.cpp **** 
 581:src/kernel/riscv.cpp ****     Scheduler::put(TCB::putcThread);
 333              		.loc 1 581 5 is_stmt 1
 334              		.loc 1 581 19 is_stmt 0
 335 0190 97070000 		la	a5,_ZN3TCB10putcThreadE
 335      83B70700 
 336 0198 03B50700 		ld	a0,0(a5)
 337 019c 97000000 		call	_ZN9Scheduler3putEP3TCB@plt
 337      E7800000 
GAS LISTING /tmp/ccnlBL9w.s 			page 22


 338              	.LVL10:
 339              	.L20:
 582:src/kernel/riscv.cpp **** 
 583:src/kernel/riscv.cpp ****     while(ConsoleUtil::outputHead != ConsoleUtil::outputTail)
 340              		.loc 1 583 5 is_stmt 1
 341              		.loc 1 583 35
 342 01a4 97070000 		la	a5,_ZN11ConsoleUtil10outputHeadE
 342      83B70700 
 343 01ac 03B70700 		ld	a4,0(a5)
 344 01b0 97070000 		la	a5,_ZN11ConsoleUtil10outputTailE
 344      83B70700 
 345 01b8 83B70700 		ld	a5,0(a5)
 346 01bc 6308F700 		beq	a4,a5,.L16
 584:src/kernel/riscv.cpp ****         TCB::dispatch();
 347              		.loc 1 584 9
 348              		.loc 1 584 22 is_stmt 0
 349 01c0 97000000 		call	_ZN3TCB8dispatchEv@plt
 349      E7800000 
 350              	.LVL11:
 583:src/kernel/riscv.cpp ****         TCB::dispatch();
 351              		.loc 1 583 5
 352 01c8 6FF0DFFD 		j	.L20
 353              	.L16:
 585:src/kernel/riscv.cpp **** }
 354              		.loc 1 585 1
 355 01cc 83308100 		ld	ra,8(sp)
 356              		.cfi_restore 1
 357 01d0 03340100 		ld	s0,0(sp)
 358              		.cfi_restore 8
 359              		.cfi_def_cfa 2, 16
 360 01d4 13010101 		addi	sp,sp,16
 361              		.cfi_def_cfa_offset 0
 362 01d8 67800000 		jr	ra
 363              		.cfi_endproc
 364              	.LFE67:
 366              		.align	2
 367              		.globl	_ZN5RiscV16saveA0toSscratchEv
 369              	_ZN5RiscV16saveA0toSscratchEv:
 370              	.LFB68:
 586:src/kernel/riscv.cpp **** 
 587:src/kernel/riscv.cpp **** //write value in a0 to a memory location where a0 is store on stack for currently running thread
 588:src/kernel/riscv.cpp **** void RiscV::saveA0toSscratch()
 589:src/kernel/riscv.cpp **** {
 371              		.loc 1 589 1 is_stmt 1
 372              		.cfi_startproc
 373 01dc 130101FF 		addi	sp,sp,-16
 374              		.cfi_def_cfa_offset 16
 375 01e0 23348100 		sd	s0,8(sp)
 376              		.cfi_offset 8, -8
 377 01e4 13040101 		addi	s0,sp,16
 378              		.cfi_def_cfa 8, 0
 590:src/kernel/riscv.cpp ****     uint64 a1;
 379              		.loc 1 590 5
 591:src/kernel/riscv.cpp ****     asm("mv %[a1], a1": [a1] "=r"(a1));
 380              		.loc 1 591 5
 381              		.loc 1 591 39 is_stmt 0
 382              	#APP
GAS LISTING /tmp/ccnlBL9w.s 			page 23


 383              	# 591 "src/kernel/riscv.cpp" 1
 592              	    asm("mv a1, %[a0]" : :  [a0] "r"(TCB::running->a0Location));
 384              		mv a5, a1
 385              	# 0 "" 2
 386              		.loc 1 592 5 is_stmt 1
 387              		.loc 1 592 52 is_stmt 0
 388              	#NO_APP
 389 01ec 17070000 		la	a4,_ZN3TCB7runningE
 389      03370700 
 390 01f4 03370700 		ld	a4,0(a4)
 391 01f8 03378706 		ld	a4,104(a4)
 392              		.loc 1 592 64
 393              	#APP
 394              	# 592 "src/kernel/riscv.cpp" 1
 593              	    asm("sd a0, 80(a1)");
 395              		mv a1, a4
 396              	# 0 "" 2
 397              		.loc 1 593 5 is_stmt 1
 398              		.loc 1 593 25 is_stmt 0
 399              	# 593 "src/kernel/riscv.cpp" 1
 594              	    asm("mv a1,%[a1]"::  [a1]"r"(a1));
 400              		sd a0, 80(a1)
 401              	# 0 "" 2
 402              		.loc 1 594 5 is_stmt 1
 403              		.loc 1 594 38 is_stmt 0
 404              	# 594 "src/kernel/riscv.cpp" 1
 595              	}
 405              		mv a1,a5
 406              	# 0 "" 2
 407              		.loc 1 595 1
 408              	#NO_APP
 409 0208 03348100 		ld	s0,8(sp)
 410              		.cfi_restore 8
 411              		.cfi_def_cfa 2, 16
 412 020c 13010101 		addi	sp,sp,16
 413              		.cfi_def_cfa_offset 0
 414 0210 67800000 		jr	ra
 415              		.cfi_endproc
 416              	.LFE68:
 418              		.align	2
 419              		.globl	_ZN5RiscV22executeMemAllocSyscallEv
 421              	_ZN5RiscV22executeMemAllocSyscallEv:
 422              	.LFB50:
 205:src/kernel/riscv.cpp **** 
 423              		.loc 1 205 37 is_stmt 1
 424              		.cfi_startproc
 425 0214 130101FF 		addi	sp,sp,-16
 426              		.cfi_def_cfa_offset 16
 427 0218 23341100 		sd	ra,8(sp)
 428 021c 23308100 		sd	s0,0(sp)
 429              		.cfi_offset 1, -8
 430              		.cfi_offset 8, -16
 431 0220 13040101 		addi	s0,sp,16
 432              		.cfi_def_cfa 8, 0
 208:src/kernel/riscv.cpp ****     asm("mv %[size], a1" : [size] "=r" (size));
 433              		.loc 1 208 5
 209:src/kernel/riscv.cpp **** 
GAS LISTING /tmp/ccnlBL9w.s 			page 24


 434              		.loc 1 209 5
 209:src/kernel/riscv.cpp **** 
 435              		.loc 1 209 47 is_stmt 0
 436              	#APP
 437              	# 209 "src/kernel/riscv.cpp" 1
 438              		mv a0, a1
 439              	# 0 "" 2
 440              	.LVL12:
 212:src/kernel/riscv.cpp **** 
 441              		.loc 1 212 5 is_stmt 1
 212:src/kernel/riscv.cpp **** 
 442              		.loc 1 212 50 is_stmt 0
 443              	#NO_APP
 444 0228 97000000 		call	_ZN15MemoryAllocator7kmallocEm@plt
 444      E7800000 
 445              	.LVL13:
 214:src/kernel/riscv.cpp **** 
 446              		.loc 1 214 5 is_stmt 1
 214:src/kernel/riscv.cpp **** 
 447              		.loc 1 214 48 is_stmt 0
 448              	#APP
 449              	# 214 "src/kernel/riscv.cpp" 1
 216:src/kernel/riscv.cpp **** }
 450              		mv a0, a0
 451              	# 0 "" 2
 452              		.loc 1 216 5 is_stmt 1
 216:src/kernel/riscv.cpp **** }
 453              		.loc 1 216 28 is_stmt 0
 454              	#NO_APP
 455 0234 97000000 		call	_ZN5RiscV16saveA0toSscratchEv
 455      E7800000 
 456              	.LVL14:
 217:src/kernel/riscv.cpp **** 
 457              		.loc 1 217 1
 458 023c 83308100 		ld	ra,8(sp)
 459              		.cfi_restore 1
 460 0240 03340100 		ld	s0,0(sp)
 461              		.cfi_restore 8
 462              		.cfi_def_cfa 2, 16
 463 0244 13010101 		addi	sp,sp,16
 464              		.cfi_def_cfa_offset 0
 465 0248 67800000 		jr	ra
 466              		.cfi_endproc
 467              	.LFE50:
 469              		.align	2
 470              		.globl	_ZN5RiscV21executeMemFreeSyscallEv
 472              	_ZN5RiscV21executeMemFreeSyscallEv:
 473              	.LFB51:
 219:src/kernel/riscv.cpp **** 
 474              		.loc 1 219 37 is_stmt 1
 475              		.cfi_startproc
 476 024c 130101FF 		addi	sp,sp,-16
 477              		.cfi_def_cfa_offset 16
 478 0250 23341100 		sd	ra,8(sp)
 479 0254 23308100 		sd	s0,0(sp)
 480              		.cfi_offset 1, -8
 481              		.cfi_offset 8, -16
GAS LISTING /tmp/ccnlBL9w.s 			page 25


 482 0258 13040101 		addi	s0,sp,16
 483              		.cfi_def_cfa 8, 0
 222:src/kernel/riscv.cpp **** 
 484              		.loc 1 222 5
 225:src/kernel/riscv.cpp ****         //call internal allocator and free memory which iaddr points to
 485              		.loc 1 225 5
 486 025c 97070000 		la	a5,_ZN15MemoryAllocator11initializedE
 486      83B70700 
 487 0264 83C70700 		lbu	a5,0(a5)
 488 0268 63920702 		bnez	a5,.L30
 231:src/kernel/riscv.cpp **** 
 489              		.loc 1 231 16 is_stmt 0
 490 026c 1305F0FF 		li	a0,-1
 491              	.L27:
 492              	.LVL15:
 234:src/kernel/riscv.cpp **** 
 493              		.loc 1 234 5 is_stmt 1
 234:src/kernel/riscv.cpp **** 
 494              		.loc 1 234 54 is_stmt 0
 495              	#APP
 496              	# 234 "src/kernel/riscv.cpp" 1
 236:src/kernel/riscv.cpp **** }
 497              		mv a0, a0
 498              	# 0 "" 2
 499              		.loc 1 236 5 is_stmt 1
 236:src/kernel/riscv.cpp **** }
 500              		.loc 1 236 28 is_stmt 0
 501              	#NO_APP
 502 0274 97000000 		call	_ZN5RiscV16saveA0toSscratchEv
 502      E7800000 
 503              	.LVL16:
 237:src/kernel/riscv.cpp **** 
 504              		.loc 1 237 1
 505 027c 83308100 		ld	ra,8(sp)
 506              		.cfi_remember_state
 507              		.cfi_restore 1
 508 0280 03340100 		ld	s0,0(sp)
 509              		.cfi_restore 8
 510              		.cfi_def_cfa 2, 16
 511 0284 13010101 		addi	sp,sp,16
 512              		.cfi_def_cfa_offset 0
 513 0288 67800000 		jr	ra
 514              	.L30:
 515              		.cfi_restore_state
 227:src/kernel/riscv.cpp ****         status = MemoryAllocator::kfree((void *) iaddr);;
 516              		.loc 1 227 9 is_stmt 1
 227:src/kernel/riscv.cpp ****         status = MemoryAllocator::kfree((void *) iaddr);;
 517              		.loc 1 227 53 is_stmt 0
 518              	#APP
 519              	# 227 "src/kernel/riscv.cpp" 1
 520              		mv a0, a1
 521              	# 0 "" 2
 522              	.LVL17:
 228:src/kernel/riscv.cpp ****     }
 523              		.loc 1 228 9 is_stmt 1
 228:src/kernel/riscv.cpp ****     }
 524              		.loc 1 228 40 is_stmt 0
GAS LISTING /tmp/ccnlBL9w.s 			page 26


 525              	#NO_APP
 526 0290 97000000 		call	_ZN15MemoryAllocator5kfreeEPv@plt
 526      E7800000 
 527              	.LVL18:
 228:src/kernel/riscv.cpp ****     }
 528              		.loc 1 228 57 is_stmt 1
 529 0298 6FF09FFD 		j	.L27
 530              		.cfi_endproc
 531              	.LFE51:
 533              		.align	2
 534              		.globl	_ZN5RiscV26executeThreadCreateSyscallEv
 536              	_ZN5RiscV26executeThreadCreateSyscallEv:
 537              	.LFB52:
 239:src/kernel/riscv.cpp **** 
 538              		.loc 1 239 41
 539              		.cfi_startproc
 540              		.cfi_personality 0x9b,DW.ref.__gxx_personality_v0
 541              		.cfi_lsda 0x1b,.LLSDA52
 542 029c 130101FC 		addi	sp,sp,-64
 543              		.cfi_def_cfa_offset 64
 544 02a0 233C1102 		sd	ra,56(sp)
 545 02a4 23388102 		sd	s0,48(sp)
 546 02a8 23349102 		sd	s1,40(sp)
 547 02ac 23302103 		sd	s2,32(sp)
 548 02b0 233C3101 		sd	s3,24(sp)
 549 02b4 23384101 		sd	s4,16(sp)
 550 02b8 23345101 		sd	s5,8(sp)
 551              		.cfi_offset 1, -8
 552              		.cfi_offset 8, -16
 553              		.cfi_offset 9, -24
 554              		.cfi_offset 18, -32
 555              		.cfi_offset 19, -40
 556              		.cfi_offset 20, -48
 557              		.cfi_offset 21, -56
 558 02bc 13040104 		addi	s0,sp,64
 559              		.cfi_def_cfa 8, 0
 242:src/kernel/riscv.cpp **** 
 560              		.loc 1 242 5
 244:src/kernel/riscv.cpp ****     asm("mv %[ihandle], a1" : [ihandle] "=r"(ihandle));
 561              		.loc 1 244 5
 244:src/kernel/riscv.cpp ****     asm("mv %[ihandle], a1" : [ihandle] "=r"(ihandle));
 562              		.loc 1 244 52 is_stmt 0
 563              	#APP
 564              	# 244 "src/kernel/riscv.cpp" 1
 565              		mv s5, a7
 566              	# 0 "" 2
 567              	.LVL19:
 245:src/kernel/riscv.cpp ****     asm("mv %[iroutine], a2" : [iroutine] "=r"(iroutine));
 568              		.loc 1 245 5 is_stmt 1
 245:src/kernel/riscv.cpp ****     asm("mv %[iroutine], a2" : [iroutine] "=r"(iroutine));
 569              		.loc 1 245 55 is_stmt 0
 570              	# 245 "src/kernel/riscv.cpp" 1
 571              		mv s2, a1
 572              	# 0 "" 2
 573              	.LVL20:
 246:src/kernel/riscv.cpp ****     asm("mv %[iargs], a3" : [iargs] "=r"(iargs));
 574              		.loc 1 246 5 is_stmt 1
GAS LISTING /tmp/ccnlBL9w.s 			page 27


 246:src/kernel/riscv.cpp ****     asm("mv %[iargs], a3" : [iargs] "=r"(iargs));
 575              		.loc 1 246 58 is_stmt 0
 576              	# 246 "src/kernel/riscv.cpp" 1
 577              		mv s3, a2
 578              	# 0 "" 2
 579              	.LVL21:
 247:src/kernel/riscv.cpp **** 
 580              		.loc 1 247 5 is_stmt 1
 247:src/kernel/riscv.cpp **** 
 581              		.loc 1 247 49 is_stmt 0
 582              	# 247 "src/kernel/riscv.cpp" 1
 583              		mv s4, a3
 584              	# 0 "" 2
 585              	.LVL22:
 250:src/kernel/riscv.cpp **** 
 586              		.loc 1 250 5 is_stmt 1
 250:src/kernel/riscv.cpp **** 
 587              		.loc 1 250 94 is_stmt 0
 588              	#NO_APP
 589 02d0 13050007 		li	a0,112
 590              	.LEHB0:
 591 02d4 97000000 		call	_ZN3TCBnwEm@plt
 591      E7800000 
 592              	.LVL23:
 593              	.LEHE0:
 594 02dc 93040500 		mv	s1,a0
 595 02e0 630E0500 		beqz	a0,.L32
 250:src/kernel/riscv.cpp **** 
 596              		.loc 1 250 94 discriminator 1
 597 02e4 13072000 		li	a4,2
 598 02e8 93860A00 		mv	a3,s5
 599 02ec 13060A00 		mv	a2,s4
 600 02f0 93850900 		mv	a1,s3
 601              	.LEHB1:
 602 02f4 97000000 		call	_ZN3TCBC1EPFvPvES0_Pmm@plt
 602      E7800000 
 603              	.LVL24:
 604              	.LEHE1:
 605              	.L32:
 252:src/kernel/riscv.cpp **** 
 606              		.loc 1 252 5 is_stmt 1 discriminator 6
 254:src/kernel/riscv.cpp ****         status = -1;
 607              		.loc 1 254 5 discriminator 6
 608 02fc 63880404 		beqz	s1,.L36
 258:src/kernel/riscv.cpp ****             Scheduler::put(tcb);
 609              		.loc 1 258 9
 258:src/kernel/riscv.cpp ****             Scheduler::put(tcb);
 610              		.loc 1 258 17 is_stmt 0
 611 0300 83B78401 		ld	a5,24(s1)
 258:src/kernel/riscv.cpp ****             Scheduler::put(tcb);
 612              		.loc 1 258 9
 613 0304 63880700 		beqz	a5,.L34
 259:src/kernel/riscv.cpp ****         *((TCB**)ihandle) = tcb;
 614              		.loc 1 259 13 is_stmt 1
 259:src/kernel/riscv.cpp ****         *((TCB**)ihandle) = tcb;
 615              		.loc 1 259 27 is_stmt 0
 616 0308 13850400 		mv	a0,s1
GAS LISTING /tmp/ccnlBL9w.s 			page 28


 617              	.LEHB2:
 618 030c 97000000 		call	_ZN9Scheduler3putEP3TCB@plt
 618      E7800000 
 619              	.LVL25:
 620              	.LEHE2:
 621              	.L34:
 260:src/kernel/riscv.cpp ****     }
 622              		.loc 1 260 9 is_stmt 1
 260:src/kernel/riscv.cpp ****     }
 623              		.loc 1 260 27 is_stmt 0
 624 0314 23309900 		sd	s1,0(s2)
 252:src/kernel/riscv.cpp **** 
 625              		.loc 1 252 12
 626 0318 93070000 		li	a5,0
 627              	.L33:
 628              	.LVL26:
 264:src/kernel/riscv.cpp **** 
 629              		.loc 1 264 5 is_stmt 1
 264:src/kernel/riscv.cpp **** 
 630              		.loc 1 264 54 is_stmt 0
 631              	#APP
 632              	# 264 "src/kernel/riscv.cpp" 1
 266:src/kernel/riscv.cpp **** }
 633              		mv a0, a5
 634              	# 0 "" 2
 635              		.loc 1 266 5 is_stmt 1
 266:src/kernel/riscv.cpp **** }
 636              		.loc 1 266 28 is_stmt 0
 637              	#NO_APP
 638 0320 97000000 		call	_ZN5RiscV16saveA0toSscratchEv
 638      E7800000 
 639              	.LVL27:
 267:src/kernel/riscv.cpp **** 
 640              		.loc 1 267 1
 641 0328 83308103 		ld	ra,56(sp)
 642              		.cfi_remember_state
 643              		.cfi_restore 1
 644 032c 03340103 		ld	s0,48(sp)
 645              		.cfi_restore 8
 646              		.cfi_def_cfa 2, 64
 647 0330 83348102 		ld	s1,40(sp)
 648              		.cfi_restore 9
 649              	.LVL28:
 650 0334 03390102 		ld	s2,32(sp)
 651              		.cfi_restore 18
 652              	.LVL29:
 653 0338 83398101 		ld	s3,24(sp)
 654              		.cfi_restore 19
 655              	.LVL30:
 656 033c 033A0101 		ld	s4,16(sp)
 657              		.cfi_restore 20
 658              	.LVL31:
 659 0340 833A8100 		ld	s5,8(sp)
 660              		.cfi_restore 21
 661              	.LVL32:
 662 0344 13010104 		addi	sp,sp,64
 663              		.cfi_def_cfa_offset 0
GAS LISTING /tmp/ccnlBL9w.s 			page 29


 664 0348 67800000 		jr	ra
 665              	.LVL33:
 666              	.L36:
 667              		.cfi_restore_state
 255:src/kernel/riscv.cpp ****     }
 668              		.loc 1 255 16
 669 034c 9307F0FF 		li	a5,-1
 670 0350 6FF0DFFC 		j	.L33
 671              	.LVL34:
 672              	.L37:
 673 0354 13090500 		mv	s2,a0
 674              	.LVL35:
 250:src/kernel/riscv.cpp **** 
 675              		.loc 1 250 94
 676 0358 13850400 		mv	a0,s1
 677 035c 97000000 		call	_ZN3TCBdlEPv@plt
 677      E7800000 
 678              	.LVL36:
 679 0364 13050900 		mv	a0,s2
 680              	.LEHB3:
 681 0368 97000000 		call	_Unwind_Resume@plt
 681      E7800000 
 682              	.LVL37:
 683              	.LEHE3:
 684              		.cfi_endproc
 685              	.LFE52:
 686              		.globl	__gxx_personality_v0
 687              		.section	.gcc_except_table,"a",@progbits
 688              	.LLSDA52:
 689 0000 FF       		.byte	0xff
 690 0001 FF       		.byte	0xff
 691 0002 03       		.byte	0x3
 692 0003 34       		.byte	0x34
 693 0004 00000000 		.4byte	.LEHB0-.LFB52
 694 0008 00000000 		.4byte	.LEHE0-.LEHB0
 695 000c 00000000 		.4byte	0
 696 0010 00       		.byte	0
 697 0011 00000000 		.4byte	.LEHB1-.LFB52
 698 0015 00000000 		.4byte	.LEHE1-.LEHB1
 699 0019 00000000 		.4byte	.L37-.LFB52
 700 001d 00       		.byte	0
 701 001e 00000000 		.4byte	.LEHB2-.LFB52
 702 0022 00000000 		.4byte	.LEHE2-.LEHB2
 703 0026 00000000 		.4byte	0
 704 002a 00       		.byte	0
 705 002b 00000000 		.4byte	.LEHB3-.LFB52
 706 002f 00000000 		.4byte	.LEHE3-.LEHB3
 707 0033 00000000 		.4byte	0
 708 0037 00       		.byte	0
 709              		.text
 711              		.align	2
 712              		.globl	_ZN5RiscV30executeThreadAttachBodySyscallEv
 714              	_ZN5RiscV30executeThreadAttachBodySyscallEv:
 715              	.LFB53:
 269:src/kernel/riscv.cpp **** 
 716              		.loc 1 269 45 is_stmt 1
 717              		.cfi_startproc
GAS LISTING /tmp/ccnlBL9w.s 			page 30


 718              		.cfi_personality 0x9b,DW.ref.__gxx_personality_v0
 719              		.cfi_lsda 0x1b,.LLSDA53
 720 0370 130101FC 		addi	sp,sp,-64
 721              		.cfi_def_cfa_offset 64
 722 0374 233C1102 		sd	ra,56(sp)
 723 0378 23388102 		sd	s0,48(sp)
 724 037c 23349102 		sd	s1,40(sp)
 725 0380 23302103 		sd	s2,32(sp)
 726 0384 233C3101 		sd	s3,24(sp)
 727 0388 23384101 		sd	s4,16(sp)
 728 038c 23345101 		sd	s5,8(sp)
 729              		.cfi_offset 1, -8
 730              		.cfi_offset 8, -16
 731              		.cfi_offset 9, -24
 732              		.cfi_offset 18, -32
 733              		.cfi_offset 19, -40
 734              		.cfi_offset 20, -48
 735              		.cfi_offset 21, -56
 736 0390 13040104 		addi	s0,sp,64
 737              		.cfi_def_cfa 8, 0
 272:src/kernel/riscv.cpp **** 
 738              		.loc 1 272 5
 275:src/kernel/riscv.cpp ****     asm("mv %[ihandle], a1" : [ihandle] "=r"(ihandle));
 739              		.loc 1 275 5
 275:src/kernel/riscv.cpp ****     asm("mv %[ihandle], a1" : [ihandle] "=r"(ihandle));
 740              		.loc 1 275 52 is_stmt 0
 741              	#APP
 742              	# 275 "src/kernel/riscv.cpp" 1
 743              		mv s5, a7
 744              	# 0 "" 2
 745              	.LVL38:
 276:src/kernel/riscv.cpp ****     asm("mv %[iroutine], a2" : [iroutine] "=r"(iroutine));
 746              		.loc 1 276 5 is_stmt 1
 276:src/kernel/riscv.cpp ****     asm("mv %[iroutine], a2" : [iroutine] "=r"(iroutine));
 747              		.loc 1 276 55 is_stmt 0
 748              	# 276 "src/kernel/riscv.cpp" 1
 749              		mv s4, a1
 750              	# 0 "" 2
 751              	.LVL39:
 277:src/kernel/riscv.cpp ****     asm("mv %[iargs], a3" : [iargs] "=r"(iargs));
 752              		.loc 1 277 5 is_stmt 1
 277:src/kernel/riscv.cpp ****     asm("mv %[iargs], a3" : [iargs] "=r"(iargs));
 753              		.loc 1 277 58 is_stmt 0
 754              	# 277 "src/kernel/riscv.cpp" 1
 755              		mv s3, a2
 756              	# 0 "" 2
 757              	.LVL40:
 278:src/kernel/riscv.cpp **** 
 758              		.loc 1 278 5 is_stmt 1
 278:src/kernel/riscv.cpp **** 
 759              		.loc 1 278 49 is_stmt 0
 760              	# 278 "src/kernel/riscv.cpp" 1
 761              		mv s2, a3
 762              	# 0 "" 2
 763              	.LVL41:
 280:src/kernel/riscv.cpp **** 
 764              		.loc 1 280 5 is_stmt 1
GAS LISTING /tmp/ccnlBL9w.s 			page 31


 280:src/kernel/riscv.cpp **** 
 765              		.loc 1 280 94 is_stmt 0
 766              	#NO_APP
 767 03a4 13050007 		li	a0,112
 768              	.LEHB4:
 769 03a8 97000000 		call	_ZN3TCBnwEm@plt
 769      E7800000 
 770              	.LVL42:
 771              	.LEHE4:
 772 03b0 93040500 		mv	s1,a0
 773 03b4 630E0500 		beqz	a0,.L41
 280:src/kernel/riscv.cpp **** 
 774              		.loc 1 280 94 discriminator 1
 775 03b8 13072000 		li	a4,2
 776 03bc 93860A00 		mv	a3,s5
 777 03c0 13060900 		mv	a2,s2
 778 03c4 93850900 		mv	a1,s3
 779              	.LEHB5:
 780 03c8 97000000 		call	_ZN3TCBC1EPFvPvES0_Pmm@plt
 780      E7800000 
 781              	.LVL43:
 782              	.LEHE5:
 783              	.L41:
 282:src/kernel/riscv.cpp **** 
 784              		.loc 1 282 5 is_stmt 1 discriminator 6
 284:src/kernel/riscv.cpp ****         status = -1;
 785              		.loc 1 284 5 discriminator 6
 786 03d0 63820404 		beqz	s1,.L44
 288:src/kernel/riscv.cpp ****         tcb->args = (void*)iargs;
 787              		.loc 1 288 9
 288:src/kernel/riscv.cpp ****         tcb->args = (void*)iargs;
 788              		.loc 1 288 19 is_stmt 0
 789 03d4 23BC3401 		sd	s3,24(s1)
 289:src/kernel/riscv.cpp ****         *((TCB**)ihandle) = tcb;
 790              		.loc 1 289 9 is_stmt 1
 289:src/kernel/riscv.cpp ****         *((TCB**)ihandle) = tcb;
 791              		.loc 1 289 19 is_stmt 0
 792 03d8 23B02403 		sd	s2,32(s1)
 290:src/kernel/riscv.cpp ****     }
 793              		.loc 1 290 9 is_stmt 1
 290:src/kernel/riscv.cpp ****     }
 794              		.loc 1 290 27 is_stmt 0
 795 03dc 23309A00 		sd	s1,0(s4)
 282:src/kernel/riscv.cpp **** 
 796              		.loc 1 282 12
 797 03e0 93070000 		li	a5,0
 798              	.L42:
 799              	.LVL44:
 293:src/kernel/riscv.cpp **** 
 800              		.loc 1 293 5 is_stmt 1
 293:src/kernel/riscv.cpp **** 
 801              		.loc 1 293 54 is_stmt 0
 802              	#APP
 803              	# 293 "src/kernel/riscv.cpp" 1
 295:src/kernel/riscv.cpp **** }
 804              		mv a0, a5
 805              	# 0 "" 2
GAS LISTING /tmp/ccnlBL9w.s 			page 32


 806              		.loc 1 295 5 is_stmt 1
 295:src/kernel/riscv.cpp **** }
 807              		.loc 1 295 28 is_stmt 0
 808              	#NO_APP
 809 03e8 97000000 		call	_ZN5RiscV16saveA0toSscratchEv
 809      E7800000 
 810              	.LVL45:
 296:src/kernel/riscv.cpp **** 
 811              		.loc 1 296 1
 812 03f0 83308103 		ld	ra,56(sp)
 813              		.cfi_remember_state
 814              		.cfi_restore 1
 815 03f4 03340103 		ld	s0,48(sp)
 816              		.cfi_restore 8
 817              		.cfi_def_cfa 2, 64
 818 03f8 83348102 		ld	s1,40(sp)
 819              		.cfi_restore 9
 820              	.LVL46:
 821 03fc 03390102 		ld	s2,32(sp)
 822              		.cfi_restore 18
 823              	.LVL47:
 824 0400 83398101 		ld	s3,24(sp)
 825              		.cfi_restore 19
 826              	.LVL48:
 827 0404 033A0101 		ld	s4,16(sp)
 828              		.cfi_restore 20
 829              	.LVL49:
 830 0408 833A8100 		ld	s5,8(sp)
 831              		.cfi_restore 21
 832              	.LVL50:
 833 040c 13010104 		addi	sp,sp,64
 834              		.cfi_def_cfa_offset 0
 835 0410 67800000 		jr	ra
 836              	.LVL51:
 837              	.L44:
 838              		.cfi_restore_state
 285:src/kernel/riscv.cpp ****     }
 839              		.loc 1 285 16
 840 0414 9307F0FF 		li	a5,-1
 841 0418 6FF0DFFC 		j	.L42
 842              	.LVL52:
 843              	.L45:
 844 041c 13090500 		mv	s2,a0
 845              	.LVL53:
 280:src/kernel/riscv.cpp **** 
 846              		.loc 1 280 94
 847 0420 13850400 		mv	a0,s1
 848 0424 97000000 		call	_ZN3TCBdlEPv@plt
 848      E7800000 
 849              	.LVL54:
 850 042c 13050900 		mv	a0,s2
 851              	.LEHB6:
 852 0430 97000000 		call	_Unwind_Resume@plt
 852      E7800000 
 853              	.LVL55:
 854              	.LEHE6:
 855              		.cfi_endproc
GAS LISTING /tmp/ccnlBL9w.s 			page 33


 856              	.LFE53:
 857              		.section	.gcc_except_table
 858              	.LLSDA53:
 859 0038 FF       		.byte	0xff
 860 0039 FF       		.byte	0xff
 861 003a 03       		.byte	0x3
 862 003b 27       		.byte	0x27
 863 003c 00000000 		.4byte	.LEHB4-.LFB53
 864 0040 00000000 		.4byte	.LEHE4-.LEHB4
 865 0044 00000000 		.4byte	0
 866 0048 00       		.byte	0
 867 0049 00000000 		.4byte	.LEHB5-.LFB53
 868 004d 00000000 		.4byte	.LEHE5-.LEHB5
 869 0051 00000000 		.4byte	.L45-.LFB53
 870 0055 00       		.byte	0
 871 0056 00000000 		.4byte	.LEHB6-.LFB53
 872 005a 00000000 		.4byte	.LEHE6-.LEHB6
 873 005e 00000000 		.4byte	0
 874 0062 00       		.byte	0
 875              		.text
 877              		.align	2
 878              		.globl	_ZN5RiscV25executeThreadStartSyscallEv
 880              	_ZN5RiscV25executeThreadStartSyscallEv:
 881              	.LFB54:
 298:src/kernel/riscv.cpp **** 
 882              		.loc 1 298 40 is_stmt 1
 883              		.cfi_startproc
 884 0438 130101FF 		addi	sp,sp,-16
 885              		.cfi_def_cfa_offset 16
 886 043c 23341100 		sd	ra,8(sp)
 887 0440 23308100 		sd	s0,0(sp)
 888              		.cfi_offset 1, -8
 889              		.cfi_offset 8, -16
 890 0444 13040101 		addi	s0,sp,16
 891              		.cfi_def_cfa 8, 0
 301:src/kernel/riscv.cpp **** 
 892              		.loc 1 301 5
 303:src/kernel/riscv.cpp **** 
 893              		.loc 1 303 5
 303:src/kernel/riscv.cpp **** 
 894              		.loc 1 303 55 is_stmt 0
 895              	#APP
 896              	# 303 "src/kernel/riscv.cpp" 1
 897              		mv a0, a1
 898              	# 0 "" 2
 899              	.LVL56:
 306:src/kernel/riscv.cpp **** 
 900              		.loc 1 306 5 is_stmt 1
 308:src/kernel/riscv.cpp **** 
 901              		.loc 1 308 5
 310:src/kernel/riscv.cpp ****         status = -1;
 902              		.loc 1 310 5
 903              	#NO_APP
 904 044c 63120502 		bnez	a0,.L52
 311:src/kernel/riscv.cpp ****     }
 905              		.loc 1 311 16 is_stmt 0
 906 0450 9307F0FF 		li	a5,-1
GAS LISTING /tmp/ccnlBL9w.s 			page 34


 907              	.LVL57:
 908              	.L49:
 320:src/kernel/riscv.cpp **** 
 909              		.loc 1 320 5 is_stmt 1
 320:src/kernel/riscv.cpp **** 
 910              		.loc 1 320 54 is_stmt 0
 911              	#APP
 912              	# 320 "src/kernel/riscv.cpp" 1
 322:src/kernel/riscv.cpp **** }
 913              		mv a0, a5
 914              	# 0 "" 2
 915              		.loc 1 322 5 is_stmt 1
 322:src/kernel/riscv.cpp **** }
 916              		.loc 1 322 28 is_stmt 0
 917              	#NO_APP
 918 0458 97000000 		call	_ZN5RiscV16saveA0toSscratchEv
 918      E7800000 
 919              	.LVL58:
 323:src/kernel/riscv.cpp **** 
 920              		.loc 1 323 1
 921 0460 83308100 		ld	ra,8(sp)
 922              		.cfi_remember_state
 923              		.cfi_restore 1
 924 0464 03340100 		ld	s0,0(sp)
 925              		.cfi_restore 8
 926              		.cfi_def_cfa 2, 16
 927 0468 13010101 		addi	sp,sp,16
 928              		.cfi_def_cfa_offset 0
 929 046c 67800000 		jr	ra
 930              	.LVL59:
 931              	.L52:
 932              		.cfi_restore_state
 314:src/kernel/riscv.cpp ****         Scheduler::put(tcb);
 933              		.loc 1 314 9 is_stmt 1
 314:src/kernel/riscv.cpp ****         Scheduler::put(tcb);
 934              		.loc 1 314 21 is_stmt 0
 935 0470 93071000 		li	a5,1
 936 0474 2328F500 		sw	a5,16(a0)
 315:src/kernel/riscv.cpp ****         TCB::dispatch();
 937              		.loc 1 315 9 is_stmt 1
 315:src/kernel/riscv.cpp ****         TCB::dispatch();
 938              		.loc 1 315 23 is_stmt 0
 939 0478 97000000 		call	_ZN9Scheduler3putEP3TCB@plt
 939      E7800000 
 940              	.LVL60:
 316:src/kernel/riscv.cpp ****     }
 941              		.loc 1 316 9 is_stmt 1
 316:src/kernel/riscv.cpp ****     }
 942              		.loc 1 316 22 is_stmt 0
 943 0480 97000000 		call	_ZN3TCB8dispatchEv@plt
 943      E7800000 
 944              	.LVL61:
 308:src/kernel/riscv.cpp **** 
 945              		.loc 1 308 12
 946 0488 93070000 		li	a5,0
 947 048c 6FF09FFC 		j	.L49
 948              		.cfi_endproc
GAS LISTING /tmp/ccnlBL9w.s 			page 35


 949              	.LFE54:
 951              		.align	2
 952              		.globl	_ZN5RiscV24executeThreadExitSyscallEv
 954              	_ZN5RiscV24executeThreadExitSyscallEv:
 955              	.LFB55:
 325:src/kernel/riscv.cpp **** 
 956              		.loc 1 325 40 is_stmt 1
 957              		.cfi_startproc
 958 0490 130101FF 		addi	sp,sp,-16
 959              		.cfi_def_cfa_offset 16
 960 0494 23341100 		sd	ra,8(sp)
 961 0498 23308100 		sd	s0,0(sp)
 962              		.cfi_offset 1, -8
 963              		.cfi_offset 8, -16
 964 049c 13040101 		addi	s0,sp,16
 965              		.cfi_def_cfa 8, 0
 328:src/kernel/riscv.cpp **** 
 966              		.loc 1 328 5
 967              	.LVL62:
 331:src/kernel/riscv.cpp ****         status = -1;
 968              		.loc 1 331 5
 969              	.LBB121:
 331:src/kernel/riscv.cpp ****         status = -1;
 970              		.loc 1 331 21 is_stmt 0
 971 04a0 97070000 		la	a5,_ZN3TCB7runningE
 971      83B70700 
 972 04a8 83B70700 		ld	a5,0(a5)
 331:src/kernel/riscv.cpp ****         status = -1;
 973              		.loc 1 331 5
 974 04ac 638A0702 		beqz	a5,.L55
 975              	.LBB122:
 335:src/kernel/riscv.cpp ****         old->status = TCB::Status::FINISHED;
 976              		.loc 1 335 9 is_stmt 1
 977              	.LVL63:
 336:src/kernel/riscv.cpp ****         TCB::dispatch();
 978              		.loc 1 336 9
 336:src/kernel/riscv.cpp ****         TCB::dispatch();
 979              		.loc 1 336 21 is_stmt 0
 980 04b0 13072000 		li	a4,2
 981 04b4 23A8E700 		sw	a4,16(a5)
 337:src/kernel/riscv.cpp ****     }
 982              		.loc 1 337 9 is_stmt 1
 337:src/kernel/riscv.cpp ****     }
 983              		.loc 1 337 22 is_stmt 0
 984 04b8 97000000 		call	_ZN3TCB8dispatchEv@plt
 984      E7800000 
 985              	.LVL64:
 986              	.LBE122:
 987              	.LBE121:
 328:src/kernel/riscv.cpp **** 
 988              		.loc 1 328 12
 989 04c0 93070000 		li	a5,0
 990              	.L54:
 991              	.LVL65:
 340:src/kernel/riscv.cpp **** 
 992              		.loc 1 340 5 is_stmt 1
 340:src/kernel/riscv.cpp **** 
GAS LISTING /tmp/ccnlBL9w.s 			page 36


 993              		.loc 1 340 54 is_stmt 0
 994              	#APP
 995              	# 340 "src/kernel/riscv.cpp" 1
 342:src/kernel/riscv.cpp **** }
 996              		mv a0, a5
 997              	# 0 "" 2
 998              		.loc 1 342 5 is_stmt 1
 342:src/kernel/riscv.cpp **** }
 999              		.loc 1 342 28 is_stmt 0
 1000              	#NO_APP
 1001 04c8 97000000 		call	_ZN5RiscV16saveA0toSscratchEv
 1001      E7800000 
 1002              	.LVL66:
 343:src/kernel/riscv.cpp **** 
 1003              		.loc 1 343 1
 1004 04d0 83308100 		ld	ra,8(sp)
 1005              		.cfi_remember_state
 1006              		.cfi_restore 1
 1007 04d4 03340100 		ld	s0,0(sp)
 1008              		.cfi_restore 8
 1009              		.cfi_def_cfa 2, 16
 1010 04d8 13010101 		addi	sp,sp,16
 1011              		.cfi_def_cfa_offset 0
 1012 04dc 67800000 		jr	ra
 1013              	.LVL67:
 1014              	.L55:
 1015              		.cfi_restore_state
 1016              	.LBB123:
 332:src/kernel/riscv.cpp ****     }
 1017              		.loc 1 332 16
 1018 04e0 9307F0FF 		li	a5,-1
 1019 04e4 6FF01FFE 		j	.L54
 1020              	.LBE123:
 1021              		.cfi_endproc
 1022              	.LFE55:
 1024              		.align	2
 1025              		.globl	_ZN5RiscV21executeSemOpenSyscallEv
 1027              	_ZN5RiscV21executeSemOpenSyscallEv:
 1028              	.LFB57:
 353:src/kernel/riscv.cpp **** 
 1029              		.loc 1 353 37 is_stmt 1
 1030              		.cfi_startproc
 1031              		.cfi_personality 0x9b,DW.ref.__gxx_personality_v0
 1032              		.cfi_lsda 0x1b,.LLSDA57
 1033 04e8 130101FD 		addi	sp,sp,-48
 1034              		.cfi_def_cfa_offset 48
 1035 04ec 23341102 		sd	ra,40(sp)
 1036 04f0 23308102 		sd	s0,32(sp)
 1037 04f4 233C9100 		sd	s1,24(sp)
 1038 04f8 23382101 		sd	s2,16(sp)
 1039 04fc 23343101 		sd	s3,8(sp)
 1040              		.cfi_offset 1, -8
 1041              		.cfi_offset 8, -16
 1042              		.cfi_offset 9, -24
 1043              		.cfi_offset 18, -32
 1044              		.cfi_offset 19, -40
 1045 0500 13040103 		addi	s0,sp,48
GAS LISTING /tmp/ccnlBL9w.s 			page 37


 1046              		.cfi_def_cfa 8, 0
 356:src/kernel/riscv.cpp **** 
 1047              		.loc 1 356 5
 358:src/kernel/riscv.cpp ****     asm("mv %[iinit], a2" : [iinit] "=r"(iinit));
 1048              		.loc 1 358 5
 358:src/kernel/riscv.cpp ****     asm("mv %[iinit], a2" : [iinit] "=r"(iinit));
 1049              		.loc 1 358 55 is_stmt 0
 1050              	#APP
 1051              	# 358 "src/kernel/riscv.cpp" 1
 1052              		mv s2, a1
 1053              	# 0 "" 2
 1054              	.LVL68:
 359:src/kernel/riscv.cpp **** 
 1055              		.loc 1 359 5 is_stmt 1
 359:src/kernel/riscv.cpp **** 
 1056              		.loc 1 359 49 is_stmt 0
 1057              	# 359 "src/kernel/riscv.cpp" 1
 1058              		mv s3, a2
 1059              	# 0 "" 2
 1060              	.LVL69:
 362:src/kernel/riscv.cpp **** 
 1061              		.loc 1 362 5 is_stmt 1
 362:src/kernel/riscv.cpp **** 
 1062              		.loc 1 362 29 is_stmt 0
 1063              	#NO_APP
 1064 050c 13058001 		li	a0,24
 1065              	.LEHB7:
 1066 0510 97000000 		call	_ZN3SCBnwEm@plt
 1066      E7800000 
 1067              	.LVL70:
 1068              	.LEHE7:
 1069 0518 93040500 		mv	s1,a0
 1070 051c 63080500 		beqz	a0,.L58
 362:src/kernel/riscv.cpp **** 
 1071              		.loc 1 362 29 discriminator 1
 1072 0520 93850900 		mv	a1,s3
 1073              	.LEHB8:
 1074 0524 97000000 		call	_ZN3SCBC1Em@plt
 1074      E7800000 
 1075              	.LVL71:
 1076              	.LEHE8:
 1077              	.L58:
 364:src/kernel/riscv.cpp **** 
 1078              		.loc 1 364 5 is_stmt 1 discriminator 6
 366:src/kernel/riscv.cpp ****         status = -1;
 1079              		.loc 1 366 5 discriminator 6
 1080 052c 638A0402 		beqz	s1,.L61
 370:src/kernel/riscv.cpp ****     }
 1081              		.loc 1 370 9
 370:src/kernel/riscv.cpp ****     }
 1082              		.loc 1 370 27 is_stmt 0
 1083 0530 23309900 		sd	s1,0(s2)
 364:src/kernel/riscv.cpp **** 
 1084              		.loc 1 364 12
 1085 0534 93070000 		li	a5,0
 1086              	.L59:
 1087              	.LVL72:
GAS LISTING /tmp/ccnlBL9w.s 			page 38


 374:src/kernel/riscv.cpp **** 
 1088              		.loc 1 374 5 is_stmt 1
 374:src/kernel/riscv.cpp **** 
 1089              		.loc 1 374 54 is_stmt 0
 1090              	#APP
 1091              	# 374 "src/kernel/riscv.cpp" 1
 376:src/kernel/riscv.cpp **** 
 1092              		mv a0, a5
 1093              	# 0 "" 2
 1094              		.loc 1 376 5 is_stmt 1
 376:src/kernel/riscv.cpp **** 
 1095              		.loc 1 376 28 is_stmt 0
 1096              	#NO_APP
 1097 053c 97000000 		call	_ZN5RiscV16saveA0toSscratchEv
 1097      E7800000 
 1098              	.LVL73:
 378:src/kernel/riscv.cpp **** 
 1099              		.loc 1 378 1
 1100 0544 83308102 		ld	ra,40(sp)
 1101              		.cfi_remember_state
 1102              		.cfi_restore 1
 1103 0548 03340102 		ld	s0,32(sp)
 1104              		.cfi_restore 8
 1105              		.cfi_def_cfa 2, 48
 1106 054c 83348101 		ld	s1,24(sp)
 1107              		.cfi_restore 9
 1108              	.LVL74:
 1109 0550 03390101 		ld	s2,16(sp)
 1110              		.cfi_restore 18
 1111              	.LVL75:
 1112 0554 83398100 		ld	s3,8(sp)
 1113              		.cfi_restore 19
 1114              	.LVL76:
 1115 0558 13010103 		addi	sp,sp,48
 1116              		.cfi_def_cfa_offset 0
 1117 055c 67800000 		jr	ra
 1118              	.LVL77:
 1119              	.L61:
 1120              		.cfi_restore_state
 367:src/kernel/riscv.cpp ****     }
 1121              		.loc 1 367 16
 1122 0560 9307F0FF 		li	a5,-1
 1123 0564 6FF05FFD 		j	.L59
 1124              	.LVL78:
 1125              	.L62:
 1126 0568 13090500 		mv	s2,a0
 1127              	.LVL79:
 362:src/kernel/riscv.cpp **** 
 1128              		.loc 1 362 29
 1129 056c 13850400 		mv	a0,s1
 1130 0570 97000000 		call	_ZN3SCBdlEPv@plt
 1130      E7800000 
 1131              	.LVL80:
 1132 0578 13050900 		mv	a0,s2
 1133              	.LEHB9:
 1134 057c 97000000 		call	_Unwind_Resume@plt
 1134      E7800000 
GAS LISTING /tmp/ccnlBL9w.s 			page 39


 1135              	.LVL81:
 1136              	.LEHE9:
 1137              		.cfi_endproc
 1138              	.LFE57:
 1139              		.section	.gcc_except_table
 1140              	.LLSDA57:
 1141 0063 FF       		.byte	0xff
 1142 0064 FF       		.byte	0xff
 1143 0065 03       		.byte	0x3
 1144 0066 27       		.byte	0x27
 1145 0067 00000000 		.4byte	.LEHB7-.LFB57
 1146 006b 00000000 		.4byte	.LEHE7-.LEHB7
 1147 006f 00000000 		.4byte	0
 1148 0073 00       		.byte	0
 1149 0074 00000000 		.4byte	.LEHB8-.LFB57
 1150 0078 00000000 		.4byte	.LEHE8-.LEHB8
 1151 007c 00000000 		.4byte	.L62-.LFB57
 1152 0080 00       		.byte	0
 1153 0081 00000000 		.4byte	.LEHB9-.LFB57
 1154 0085 00000000 		.4byte	.LEHE9-.LEHB9
 1155 0089 00000000 		.4byte	0
 1156 008d 00       		.byte	0
 1157              		.text
 1159              		.align	2
 1160              		.globl	_ZN5RiscV22executeSemCloseSyscallEv
 1162              	_ZN5RiscV22executeSemCloseSyscallEv:
 1163              	.LFB58:
 380:src/kernel/riscv.cpp **** 
 1164              		.loc 1 380 38 is_stmt 1
 1165              		.cfi_startproc
 1166 0584 130101FE 		addi	sp,sp,-32
 1167              		.cfi_def_cfa_offset 32
 1168 0588 233C1100 		sd	ra,24(sp)
 1169 058c 23388100 		sd	s0,16(sp)
 1170 0590 23349100 		sd	s1,8(sp)
 1171              		.cfi_offset 1, -8
 1172              		.cfi_offset 8, -16
 1173              		.cfi_offset 9, -24
 1174 0594 13040102 		addi	s0,sp,32
 1175              		.cfi_def_cfa 8, 0
 383:src/kernel/riscv.cpp **** 
 1176              		.loc 1 383 5
 385:src/kernel/riscv.cpp **** 
 1177              		.loc 1 385 5
 385:src/kernel/riscv.cpp **** 
 1178              		.loc 1 385 55 is_stmt 0
 1179              	#APP
 1180              	# 385 "src/kernel/riscv.cpp" 1
 1181              		mv s1, a1
 1182              	# 0 "" 2
 1183              	.LVL82:
 388:src/kernel/riscv.cpp ****     uint64 status = 0;
 1184              		.loc 1 388 5 is_stmt 1
 389:src/kernel/riscv.cpp **** 
 1185              		.loc 1 389 5
 391:src/kernel/riscv.cpp ****         status = -1;
 1186              		.loc 1 391 5
GAS LISTING /tmp/ccnlBL9w.s 			page 40


 1187              	#NO_APP
 1188 059c 63940402 		bnez	s1,.L69
 392:src/kernel/riscv.cpp ****     }
 1189              		.loc 1 392 16 is_stmt 0
 1190 05a0 9307F0FF 		li	a5,-1
 1191              	.L66:
 1192              	.LVL83:
 398:src/kernel/riscv.cpp **** 
 1193              		.loc 1 398 5 is_stmt 1
 398:src/kernel/riscv.cpp **** 
 1194              		.loc 1 398 54 is_stmt 0
 1195              	#APP
 1196              	# 398 "src/kernel/riscv.cpp" 1
 400:src/kernel/riscv.cpp **** }
 1197              		mv a0, a5
 1198              	# 0 "" 2
 1199              		.loc 1 400 5 is_stmt 1
 400:src/kernel/riscv.cpp **** }
 1200              		.loc 1 400 28 is_stmt 0
 1201              	#NO_APP
 1202 05a8 97000000 		call	_ZN5RiscV16saveA0toSscratchEv
 1202      E7800000 
 1203              	.LVL84:
 401:src/kernel/riscv.cpp **** 
 1204              		.loc 1 401 1
 1205 05b0 83308101 		ld	ra,24(sp)
 1206              		.cfi_remember_state
 1207              		.cfi_restore 1
 1208 05b4 03340101 		ld	s0,16(sp)
 1209              		.cfi_restore 8
 1210              		.cfi_def_cfa 2, 32
 1211 05b8 83348100 		ld	s1,8(sp)
 1212              		.cfi_restore 9
 1213              	.LVL85:
 1214 05bc 13010102 		addi	sp,sp,32
 1215              		.cfi_def_cfa_offset 0
 1216 05c0 67800000 		jr	ra
 1217              	.LVL86:
 1218              	.L69:
 1219              		.cfi_restore_state
 395:src/kernel/riscv.cpp **** 
 1220              		.loc 1 395 9 is_stmt 1 discriminator 1
 395:src/kernel/riscv.cpp **** 
 1221              		.loc 1 395 22 is_stmt 0 discriminator 1
 1222 05c4 13850400 		mv	a0,s1
 1223 05c8 97000000 		call	_ZN3SCBD1Ev@plt
 1223      E7800000 
 1224              	.LVL87:
 1225 05d0 13850400 		mv	a0,s1
 1226 05d4 97000000 		call	_ZN3SCBdlEPv@plt
 1226      E7800000 
 1227              	.LVL88:
 389:src/kernel/riscv.cpp **** 
 1228              		.loc 1 389 12 discriminator 1
 1229 05dc 93070000 		li	a5,0
 1230 05e0 6FF05FFC 		j	.L66
 1231              		.cfi_endproc
GAS LISTING /tmp/ccnlBL9w.s 			page 41


 1232              	.LFE58:
 1234              		.align	2
 1235              		.globl	_ZN5RiscV21executeSemWaitSyscallEv
 1237              	_ZN5RiscV21executeSemWaitSyscallEv:
 1238              	.LFB59:
 403:src/kernel/riscv.cpp **** 
 1239              		.loc 1 403 37 is_stmt 1
 1240              		.cfi_startproc
 1241 05e4 130101FF 		addi	sp,sp,-16
 1242              		.cfi_def_cfa_offset 16
 1243 05e8 23341100 		sd	ra,8(sp)
 1244 05ec 23308100 		sd	s0,0(sp)
 1245              		.cfi_offset 1, -8
 1246              		.cfi_offset 8, -16
 1247 05f0 13040101 		addi	s0,sp,16
 1248              		.cfi_def_cfa 8, 0
 406:src/kernel/riscv.cpp **** 
 1249              		.loc 1 406 5
 408:src/kernel/riscv.cpp **** 
 1250              		.loc 1 408 5
 408:src/kernel/riscv.cpp **** 
 1251              		.loc 1 408 55 is_stmt 0
 1252              	#APP
 1253              	# 408 "src/kernel/riscv.cpp" 1
 1254              		mv a0, a1
 1255              	# 0 "" 2
 1256              	.LVL89:
 410:src/kernel/riscv.cpp ****     //call wait method on ihandle scb
 1257              		.loc 1 410 5 is_stmt 1
 413:src/kernel/riscv.cpp ****         ((SCB*)ihandle)->wait();
 1258              		.loc 1 413 5
 1259              	#NO_APP
 1260 05f8 631C0502 		bnez	a0,.L75
 1261              	.LVL90:
 1262              	.L71:
 418:src/kernel/riscv.cpp ****         status = -1;
 1263              		.loc 1 418 5
 418:src/kernel/riscv.cpp ****         status = -1;
 1264              		.loc 1 418 22 is_stmt 0
 1265 05fc 97070000 		la	a5,_ZN3TCB7runningE
 1265      83B70700 
 1266 0604 83B70700 		ld	a5,0(a5)
 1267 0608 83B70706 		ld	a5,96(a5)
 418:src/kernel/riscv.cpp ****         status = -1;
 1268              		.loc 1 418 5
 1269 060c 63880702 		beqz	a5,.L73
 419:src/kernel/riscv.cpp ****     else
 1270              		.loc 1 419 16
 1271 0610 9307F0FF 		li	a5,-1
 1272              	.L72:
 1273              	.LVL91:
 424:src/kernel/riscv.cpp **** 
 1274              		.loc 1 424 5 is_stmt 1
 424:src/kernel/riscv.cpp **** 
 1275              		.loc 1 424 54 is_stmt 0
 1276              	#APP
 1277              	# 424 "src/kernel/riscv.cpp" 1
GAS LISTING /tmp/ccnlBL9w.s 			page 42


 426:src/kernel/riscv.cpp **** 
 1278              		mv a0, a5
 1279              	# 0 "" 2
 1280              		.loc 1 426 5 is_stmt 1
 426:src/kernel/riscv.cpp **** 
 1281              		.loc 1 426 28 is_stmt 0
 1282              	#NO_APP
 1283 0618 97000000 		call	_ZN5RiscV16saveA0toSscratchEv
 1283      E7800000 
 1284              	.LVL92:
 428:src/kernel/riscv.cpp **** 
 1285              		.loc 1 428 1
 1286 0620 83308100 		ld	ra,8(sp)
 1287              		.cfi_remember_state
 1288              		.cfi_restore 1
 1289 0624 03340100 		ld	s0,0(sp)
 1290              		.cfi_restore 8
 1291              		.cfi_def_cfa 2, 16
 1292 0628 13010101 		addi	sp,sp,16
 1293              		.cfi_def_cfa_offset 0
 1294 062c 67800000 		jr	ra
 1295              	.LVL93:
 1296              	.L75:
 1297              		.cfi_restore_state
 414:src/kernel/riscv.cpp ****     else
 1298              		.loc 1 414 9 is_stmt 1
 414:src/kernel/riscv.cpp ****     else
 1299              		.loc 1 414 30 is_stmt 0
 1300 0630 97000000 		call	_ZN3SCB4waitEv@plt
 1300      E7800000 
 1301              	.LVL94:
 1302 0638 6FF05FFC 		j	.L71
 1303              	.LVL95:
 1304              	.L73:
 421:src/kernel/riscv.cpp **** 
 1305              		.loc 1 421 16
 1306 063c 93070000 		li	a5,0
 1307 0640 6FF05FFD 		j	.L72
 1308              		.cfi_endproc
 1309              	.LFE59:
 1311              		.align	2
 1312              		.globl	_ZN5RiscV23executeSemSignalSyscallEv
 1314              	_ZN5RiscV23executeSemSignalSyscallEv:
 1315              	.LFB60:
 430:src/kernel/riscv.cpp **** 
 1316              		.loc 1 430 39 is_stmt 1
 1317              		.cfi_startproc
 1318 0644 130101FF 		addi	sp,sp,-16
 1319              		.cfi_def_cfa_offset 16
 1320 0648 23341100 		sd	ra,8(sp)
 1321 064c 23308100 		sd	s0,0(sp)
 1322              		.cfi_offset 1, -8
 1323              		.cfi_offset 8, -16
 1324 0650 13040101 		addi	s0,sp,16
 1325              		.cfi_def_cfa 8, 0
 433:src/kernel/riscv.cpp **** 
 1326              		.loc 1 433 5
GAS LISTING /tmp/ccnlBL9w.s 			page 43


 435:src/kernel/riscv.cpp **** 
 1327              		.loc 1 435 5
 435:src/kernel/riscv.cpp **** 
 1328              		.loc 1 435 55 is_stmt 0
 1329              	#APP
 1330              	# 435 "src/kernel/riscv.cpp" 1
 1331              		mv a0, a1
 1332              	# 0 "" 2
 1333              	.LVL96:
 439:src/kernel/riscv.cpp **** 
 1334              		.loc 1 439 5 is_stmt 1
 441:src/kernel/riscv.cpp ****         ((SCB*)ihandle)->signal();
 1335              		.loc 1 441 5
 1336              	#NO_APP
 1337 0658 63120502 		bnez	a0,.L80
 444:src/kernel/riscv.cpp **** 
 1338              		.loc 1 444 16 is_stmt 0
 1339 065c 9307F0FF 		li	a5,-1
 1340              	.LVL97:
 1341              	.L77:
 447:src/kernel/riscv.cpp **** 
 1342              		.loc 1 447 5 is_stmt 1
 447:src/kernel/riscv.cpp **** 
 1343              		.loc 1 447 54 is_stmt 0
 1344              	#APP
 1345              	# 447 "src/kernel/riscv.cpp" 1
 449:src/kernel/riscv.cpp **** }
 1346              		mv a0, a5
 1347              	# 0 "" 2
 1348              		.loc 1 449 5 is_stmt 1
 449:src/kernel/riscv.cpp **** }
 1349              		.loc 1 449 28 is_stmt 0
 1350              	#NO_APP
 1351 0664 97000000 		call	_ZN5RiscV16saveA0toSscratchEv
 1351      E7800000 
 1352              	.LVL98:
 450:src/kernel/riscv.cpp **** 
 1353              		.loc 1 450 1
 1354 066c 83308100 		ld	ra,8(sp)
 1355              		.cfi_remember_state
 1356              		.cfi_restore 1
 1357 0670 03340100 		ld	s0,0(sp)
 1358              		.cfi_restore 8
 1359              		.cfi_def_cfa 2, 16
 1360 0674 13010101 		addi	sp,sp,16
 1361              		.cfi_def_cfa_offset 0
 1362 0678 67800000 		jr	ra
 1363              	.LVL99:
 1364              	.L80:
 1365              		.cfi_restore_state
 442:src/kernel/riscv.cpp ****     else
 1366              		.loc 1 442 9 is_stmt 1
 442:src/kernel/riscv.cpp ****     else
 1367              		.loc 1 442 32 is_stmt 0
 1368 067c 97000000 		call	_ZN3SCB6signalEv@plt
 1368      E7800000 
 1369              	.LVL100:
GAS LISTING /tmp/ccnlBL9w.s 			page 44


 439:src/kernel/riscv.cpp **** 
 1370              		.loc 1 439 12
 1371 0684 93070000 		li	a5,0
 1372 0688 6FF09FFD 		j	.L77
 1373              		.cfi_endproc
 1374              	.LFE60:
 1376              		.align	2
 1377              		.globl	_ZN5RiscV23executeTimeSleepSyscallEv
 1379              	_ZN5RiscV23executeTimeSleepSyscallEv:
 1380              	.LFB61:
 452:src/kernel/riscv.cpp **** 
 1381              		.loc 1 452 39 is_stmt 1
 1382              		.cfi_startproc
 1383 068c 130101FE 		addi	sp,sp,-32
 1384              		.cfi_def_cfa_offset 32
 1385 0690 233C1100 		sd	ra,24(sp)
 1386 0694 23388100 		sd	s0,16(sp)
 1387 0698 23349100 		sd	s1,8(sp)
 1388              		.cfi_offset 1, -8
 1389              		.cfi_offset 8, -16
 1390              		.cfi_offset 9, -24
 1391 069c 13040102 		addi	s0,sp,32
 1392              		.cfi_def_cfa 8, 0
 455:src/kernel/riscv.cpp **** 
 1393              		.loc 1 455 5
 457:src/kernel/riscv.cpp **** 
 1394              		.loc 1 457 5
 457:src/kernel/riscv.cpp **** 
 1395              		.loc 1 457 49 is_stmt 0
 1396              	#APP
 1397              	# 457 "src/kernel/riscv.cpp" 1
 461:src/kernel/riscv.cpp ****     tcb->sleepTime = globalTime;
 1398              		mv a4, a1
 1399              	# 0 "" 2
 1400              		.loc 1 461 5 is_stmt 1
 461:src/kernel/riscv.cpp ****     tcb->sleepTime = globalTime;
 1401              		.loc 1 461 10 is_stmt 0
 1402              	#NO_APP
 1403 06a4 97070000 		la	a5,_ZN3TCB7runningE
 1403      83B70700 
 1404 06ac 83B40700 		ld	s1,0(a5)
 1405              	.LVL101:
 462:src/kernel/riscv.cpp ****     tcb->wakeTime = globalTime + itime;
 1406              		.loc 1 462 5 is_stmt 1
 462:src/kernel/riscv.cpp ****     tcb->wakeTime = globalTime + itime;
 1407              		.loc 1 462 20 is_stmt 0
 1408 06b0 97070000 		ld	a5,.LANCHOR0+8
 1408      83B70700 
 1409 06b8 23B8F404 		sd	a5,80(s1)
 463:src/kernel/riscv.cpp **** 
 1410              		.loc 1 463 5 is_stmt 1
 463:src/kernel/riscv.cpp **** 
 1411              		.loc 1 463 32 is_stmt 0
 1412 06bc B387E700 		add	a5,a5,a4
 463:src/kernel/riscv.cpp **** 
 1413              		.loc 1 463 19
 1414 06c0 23BCF404 		sd	a5,88(s1)
GAS LISTING /tmp/ccnlBL9w.s 			page 45


 465:src/kernel/riscv.cpp **** 
 1415              		.loc 1 465 5 is_stmt 1
 465:src/kernel/riscv.cpp **** 
 1416              		.loc 1 465 21 is_stmt 0
 1417 06c4 13850400 		mv	a0,s1
 1418 06c8 97000000 		call	_ZN9Scheduler5sleepEP3TCB@plt
 1418      E7800000 
 1419              	.LVL102:
 467:src/kernel/riscv.cpp **** 
 1420              		.loc 1 467 5 is_stmt 1
 467:src/kernel/riscv.cpp **** 
 1421              		.loc 1 467 17 is_stmt 0
 1422 06d0 93073000 		li	a5,3
 1423 06d4 23A8F400 		sw	a5,16(s1)
 469:src/kernel/riscv.cpp **** 
 1424              		.loc 1 469 5 is_stmt 1
 469:src/kernel/riscv.cpp **** 
 1425              		.loc 1 469 18 is_stmt 0
 1426 06d8 97000000 		call	_ZN3TCB8dispatchEv@plt
 1426      E7800000 
 1427              	.LVL103:
 471:src/kernel/riscv.cpp **** 
 1428              		.loc 1 471 5 is_stmt 1
 474:src/kernel/riscv.cpp **** 
 1429              		.loc 1 474 5
 474:src/kernel/riscv.cpp **** 
 1430              		.loc 1 474 54 is_stmt 0
 1431 06e0 93070000 		li	a5,0
 1432              	#APP
 1433              	# 474 "src/kernel/riscv.cpp" 1
 476:src/kernel/riscv.cpp **** }
 1434              		mv a0, a5
 1435              	# 0 "" 2
 1436              		.loc 1 476 5 is_stmt 1
 476:src/kernel/riscv.cpp **** }
 1437              		.loc 1 476 28 is_stmt 0
 1438              	#NO_APP
 1439 06e8 97000000 		call	_ZN5RiscV16saveA0toSscratchEv
 1439      E7800000 
 1440              	.LVL104:
 477:src/kernel/riscv.cpp **** 
 1441              		.loc 1 477 1
 1442 06f0 83308101 		ld	ra,24(sp)
 1443              		.cfi_restore 1
 1444 06f4 03340101 		ld	s0,16(sp)
 1445              		.cfi_restore 8
 1446              		.cfi_def_cfa 2, 32
 1447 06f8 83348100 		ld	s1,8(sp)
 1448              		.cfi_restore 9
 1449              	.LVL105:
 1450 06fc 13010102 		addi	sp,sp,32
 1451              		.cfi_def_cfa_offset 0
 1452 0700 67800000 		jr	ra
 1453              		.cfi_endproc
 1454              	.LFE61:
 1456              		.align	2
 1457              		.globl	_ZN5RiscV18executeGetcSyscallEv
GAS LISTING /tmp/ccnlBL9w.s 			page 46


 1459              	_ZN5RiscV18executeGetcSyscallEv:
 1460              	.LFB62:
 479:src/kernel/riscv.cpp **** 
 1461              		.loc 1 479 34 is_stmt 1
 1462              		.cfi_startproc
 1463 0704 130101FE 		addi	sp,sp,-32
 1464              		.cfi_def_cfa_offset 32
 1465 0708 233C1100 		sd	ra,24(sp)
 1466 070c 23388100 		sd	s0,16(sp)
 1467 0710 23349100 		sd	s1,8(sp)
 1468              		.cfi_offset 1, -8
 1469              		.cfi_offset 8, -16
 1470              		.cfi_offset 9, -24
 1471 0714 13040102 		addi	s0,sp,32
 1472              		.cfi_def_cfa 8, 0
 482:src/kernel/riscv.cpp ****         ConsoleUtil::pendingGetc++;
 1473              		.loc 1 482 5
 482:src/kernel/riscv.cpp ****         ConsoleUtil::pendingGetc++;
 1474              		.loc 1 482 8 is_stmt 0
 1475 0718 97070000 		lbu	a5,.LANCHOR0
 1475      83C70700 
 482:src/kernel/riscv.cpp ****         ConsoleUtil::pendingGetc++;
 1476              		.loc 1 482 5
 1477 0720 639C0700 		bnez	a5,.L84
 483:src/kernel/riscv.cpp **** 
 1478              		.loc 1 483 9 is_stmt 1
 483:src/kernel/riscv.cpp **** 
 1479              		.loc 1 483 33 is_stmt 0
 1480 0724 17070000 		la	a4,_ZN11ConsoleUtil11pendingGetcE
 1480      03370700 
 1481 072c 83370700 		ld	a5,0(a4)
 1482 0730 93871700 		addi	a5,a5,1
 1483 0734 2330F700 		sd	a5,0(a4)
 1484              	.L84:
 486:src/kernel/riscv.cpp **** 
 1485              		.loc 1 486 5 is_stmt 1
 486:src/kernel/riscv.cpp **** 
 1486              		.loc 1 486 35 is_stmt 0
 1487 0738 97000000 		call	_ZN11ConsoleUtil8getInputEv@plt
 1487      E7800000 
 1488              	.LVL106:
 1489 0740 93040500 		mv	s1,a0
 1490              	.LVL107:
 489:src/kernel/riscv.cpp ****         ConsoleUtil::putOutput(13);
 1491              		.loc 1 489 5 is_stmt 1
 1492 0744 9307D000 		li	a5,13
 1493 0748 6306F502 		beq	a0,a5,.L88
 494:src/kernel/riscv.cpp ****         ConsoleUtil::putOutput(c);
 1494              		.loc 1 494 10
 1495 074c 9307B001 		li	a5,27
 1496 0750 6310F504 		bne	a0,a5,.L89
 1497              	.LVL108:
 1498              	.L86:
 498:src/kernel/riscv.cpp **** 
 1499              		.loc 1 498 5
 498:src/kernel/riscv.cpp **** 
 1500              		.loc 1 498 39 is_stmt 0
GAS LISTING /tmp/ccnlBL9w.s 			page 47


 1501              	#APP
 1502              	# 498 "src/kernel/riscv.cpp" 1
 500:src/kernel/riscv.cpp **** }
 1503              		mv a0, s1
 1504              	# 0 "" 2
 1505              		.loc 1 500 5 is_stmt 1
 500:src/kernel/riscv.cpp **** }
 1506              		.loc 1 500 28 is_stmt 0
 1507              	#NO_APP
 1508 0758 97000000 		call	_ZN5RiscV16saveA0toSscratchEv
 1508      E7800000 
 1509              	.LVL109:
 501:src/kernel/riscv.cpp **** 
 1510              		.loc 1 501 1
 1511 0760 83308101 		ld	ra,24(sp)
 1512              		.cfi_remember_state
 1513              		.cfi_restore 1
 1514 0764 03340101 		ld	s0,16(sp)
 1515              		.cfi_restore 8
 1516              		.cfi_def_cfa 2, 32
 1517 0768 83348100 		ld	s1,8(sp)
 1518              		.cfi_restore 9
 1519 076c 13010102 		addi	sp,sp,32
 1520              		.cfi_def_cfa_offset 0
 1521 0770 67800000 		jr	ra
 1522              	.LVL110:
 1523              	.L88:
 1524              		.cfi_restore_state
 490:src/kernel/riscv.cpp ****         ConsoleUtil::putOutput(10);
 1525              		.loc 1 490 9 is_stmt 1
 490:src/kernel/riscv.cpp ****         ConsoleUtil::putOutput(10);
 1526              		.loc 1 490 31 is_stmt 0
 1527 0774 1305D000 		li	a0,13
 1528              	.LVL111:
 1529 0778 97000000 		call	_ZN11ConsoleUtil9putOutputEc@plt
 1529      E7800000 
 1530              	.LVL112:
 491:src/kernel/riscv.cpp ****     }
 1531              		.loc 1 491 9 is_stmt 1
 491:src/kernel/riscv.cpp ****     }
 1532              		.loc 1 491 31 is_stmt 0
 1533 0780 1305A000 		li	a0,10
 1534 0784 97000000 		call	_ZN11ConsoleUtil9putOutputEc@plt
 1534      E7800000 
 1535              	.LVL113:
 1536 078c 6FF09FFC 		j	.L86
 1537              	.LVL114:
 1538              	.L89:
 495:src/kernel/riscv.cpp **** 
 1539              		.loc 1 495 9 is_stmt 1
 495:src/kernel/riscv.cpp **** 
 1540              		.loc 1 495 31 is_stmt 0
 1541 0790 97000000 		call	_ZN11ConsoleUtil9putOutputEc@plt
 1541      E7800000 
 1542              	.LVL115:
 1543 0798 6FF0DFFB 		j	.L86
 1544              		.cfi_endproc
GAS LISTING /tmp/ccnlBL9w.s 			page 48


 1545              	.LFE62:
 1547              		.align	2
 1548              		.globl	_ZN5RiscV22executePutcUtilSyscallEv
 1550              	_ZN5RiscV22executePutcUtilSyscallEv:
 1551              	.LFB65:
 551:src/kernel/riscv.cpp ****     char c = ConsoleUtil::getOutput();
 1552              		.loc 1 551 38 is_stmt 1
 1553              		.cfi_startproc
 1554 079c 130101FF 		addi	sp,sp,-16
 1555              		.cfi_def_cfa_offset 16
 1556 07a0 23341100 		sd	ra,8(sp)
 1557 07a4 23308100 		sd	s0,0(sp)
 1558              		.cfi_offset 1, -8
 1559              		.cfi_offset 8, -16
 1560 07a8 13040101 		addi	s0,sp,16
 1561              		.cfi_def_cfa 8, 0
 552:src/kernel/riscv.cpp ****     asm("mv a0, %[c]" : : [c] "r" ((uint64)(c)) );
 1562              		.loc 1 552 5
 552:src/kernel/riscv.cpp ****     asm("mv a0, %[c]" : : [c] "r" ((uint64)(c)) );
 1563              		.loc 1 552 36 is_stmt 0
 1564 07ac 97000000 		call	_ZN11ConsoleUtil9getOutputEv@plt
 1564      E7800000 
 1565              	.LVL116:
 553:src/kernel/riscv.cpp **** 
 1566              		.loc 1 553 5 is_stmt 1
 553:src/kernel/riscv.cpp **** 
 1567              		.loc 1 553 50 is_stmt 0
 1568              	#APP
 1569              	# 553 "src/kernel/riscv.cpp" 1
 555:src/kernel/riscv.cpp **** }
 1570              		mv a0, a0
 1571              	# 0 "" 2
 1572              		.loc 1 555 5 is_stmt 1
 555:src/kernel/riscv.cpp **** }
 1573              		.loc 1 555 28 is_stmt 0
 1574              	#NO_APP
 1575 07b8 97000000 		call	_ZN5RiscV16saveA0toSscratchEv
 1575      E7800000 
 1576              	.LVL117:
 556:src/kernel/riscv.cpp **** 
 1577              		.loc 1 556 1
 1578 07c0 83308100 		ld	ra,8(sp)
 1579              		.cfi_restore 1
 1580 07c4 03340100 		ld	s0,0(sp)
 1581              		.cfi_restore 8
 1582              		.cfi_def_cfa 2, 16
 1583 07c8 13010101 		addi	sp,sp,16
 1584              		.cfi_def_cfa_offset 0
 1585 07cc 67800000 		jr	ra
 1586              		.cfi_endproc
 1587              	.LFE65:
 1589              		.align	2
 1590              		.globl	_ZN5RiscV24executeThreadFreeSyscallEv
 1592              	_ZN5RiscV24executeThreadFreeSyscallEv:
 1593              	.LFB69:
 596:src/kernel/riscv.cpp **** 
 597:src/kernel/riscv.cpp **** //syscall to free the space that is allocated for thread
GAS LISTING /tmp/ccnlBL9w.s 			page 49


 598:src/kernel/riscv.cpp **** void RiscV::executeThreadFreeSyscall() {
 1594              		.loc 1 598 40 is_stmt 1
 1595              		.cfi_startproc
 1596 07d0 130101FE 		addi	sp,sp,-32
 1597              		.cfi_def_cfa_offset 32
 1598 07d4 233C1100 		sd	ra,24(sp)
 1599 07d8 23388100 		sd	s0,16(sp)
 1600 07dc 23349100 		sd	s1,8(sp)
 1601              		.cfi_offset 1, -8
 1602              		.cfi_offset 8, -16
 1603              		.cfi_offset 9, -24
 1604 07e0 13040102 		addi	s0,sp,32
 1605              		.cfi_def_cfa 8, 0
 599:src/kernel/riscv.cpp ****     uint64 iaddr, status;
 1606              		.loc 1 599 5
 600:src/kernel/riscv.cpp **** 
 601:src/kernel/riscv.cpp ****     asm("mv %[iaddr], a1" : [iaddr] "=r"(iaddr));
 1607              		.loc 1 601 5
 1608              		.loc 1 601 49 is_stmt 0
 1609              	#APP
 1610              	# 601 "src/kernel/riscv.cpp" 1
 602              	
 1611              		mv s1, a1
 1612              	# 0 "" 2
 1613              	.LVL118:
 603:src/kernel/riscv.cpp ****     TCB *thr = (TCB*)iaddr;
 1614              		.loc 1 603 5 is_stmt 1
 604:src/kernel/riscv.cpp **** 
 605:src/kernel/riscv.cpp ****     if(thr == nullptr)
 1615              		.loc 1 605 5
 1616              	#NO_APP
 1617 07e8 63940402 		bnez	s1,.L95
 1618              	.L93:
 1619              	.LVL119:
 606:src/kernel/riscv.cpp ****         status = -1;
 607:src/kernel/riscv.cpp ****     else {
 608:src/kernel/riscv.cpp ****         kfree(thr->stack);
 609:src/kernel/riscv.cpp ****         delete thr;
 610:src/kernel/riscv.cpp ****     }
 611:src/kernel/riscv.cpp **** 
 612:src/kernel/riscv.cpp ****     //return status
 613:src/kernel/riscv.cpp ****     asm("mv a0, %[status]" : : [status] "r" (status));
 1620              		.loc 1 613 5
 1621              		.loc 1 613 54 is_stmt 0
 1622 07ec 9307F0FF 		li	a5,-1
 1623              	#APP
 1624              	# 613 "src/kernel/riscv.cpp" 1
 614              	
 615:src/kernel/riscv.cpp ****     RiscV::saveA0toSscratch();
 1625              		mv a0, a5
 1626              	# 0 "" 2
 1627              		.loc 1 615 5 is_stmt 1
 1628              		.loc 1 615 28 is_stmt 0
 1629              	#NO_APP
 1630 07f4 97000000 		call	_ZN5RiscV16saveA0toSscratchEv
 1630      E7800000 
 1631              	.LVL120:
GAS LISTING /tmp/ccnlBL9w.s 			page 50


 616:src/kernel/riscv.cpp **** }
 1632              		.loc 1 616 1
 1633 07fc 83308101 		ld	ra,24(sp)
 1634              		.cfi_remember_state
 1635              		.cfi_restore 1
 1636 0800 03340101 		ld	s0,16(sp)
 1637              		.cfi_restore 8
 1638              		.cfi_def_cfa 2, 32
 1639 0804 83348100 		ld	s1,8(sp)
 1640              		.cfi_restore 9
 1641              	.LVL121:
 1642 0808 13010102 		addi	sp,sp,32
 1643              		.cfi_def_cfa_offset 0
 1644 080c 67800000 		jr	ra
 1645              	.LVL122:
 1646              	.L95:
 1647              		.cfi_restore_state
 608:src/kernel/riscv.cpp ****         delete thr;
 1648              		.loc 1 608 9 is_stmt 1
 608:src/kernel/riscv.cpp ****         delete thr;
 1649              		.loc 1 608 14 is_stmt 0
 1650 0810 03B58402 		ld	a0,40(s1)
 1651 0814 97000000 		call	_Z5kfreePKv@plt
 1651      E7800000 
 1652              	.LVL123:
 609:src/kernel/riscv.cpp ****     }
 1653              		.loc 1 609 9 is_stmt 1
 609:src/kernel/riscv.cpp ****     }
 1654              		.loc 1 609 16 is_stmt 0
 1655 081c 13850400 		mv	a0,s1
 1656 0820 97000000 		call	_ZN3TCBD1Ev@plt
 1656      E7800000 
 1657              	.LVL124:
 1658 0828 13850400 		mv	a0,s1
 1659 082c 97000000 		call	_ZN3TCBdlEPv@plt
 1659      E7800000 
 1660              	.LVL125:
 1661 0834 6FF09FFB 		j	.L93
 1662              		.cfi_endproc
 1663              	.LFE69:
 1665              		.align	2
 1666              		.globl	_ZN5RiscV27executeSemaphoreFreeSyscallEv
 1668              	_ZN5RiscV27executeSemaphoreFreeSyscallEv:
 1669              	.LFB70:
 617:src/kernel/riscv.cpp **** 
 618:src/kernel/riscv.cpp **** //syscall to free the space that is allocated for semaphore
 619:src/kernel/riscv.cpp **** void RiscV::executeSemaphoreFreeSyscall() {
 1670              		.loc 1 619 43 is_stmt 1
 1671              		.cfi_startproc
 1672 0838 130101FE 		addi	sp,sp,-32
 1673              		.cfi_def_cfa_offset 32
 1674 083c 233C1100 		sd	ra,24(sp)
 1675 0840 23388100 		sd	s0,16(sp)
 1676 0844 23349100 		sd	s1,8(sp)
 1677              		.cfi_offset 1, -8
 1678              		.cfi_offset 8, -16
 1679              		.cfi_offset 9, -24
GAS LISTING /tmp/ccnlBL9w.s 			page 51


 1680 0848 13040102 		addi	s0,sp,32
 1681              		.cfi_def_cfa 8, 0
 620:src/kernel/riscv.cpp ****     uint64 iaddr, status;
 1682              		.loc 1 620 5
 621:src/kernel/riscv.cpp **** 
 622:src/kernel/riscv.cpp ****     //call internal allocator and free memory which iaddr points to
 623:src/kernel/riscv.cpp ****     asm("mv %[iaddr], a1" : [iaddr] "=r"(iaddr));
 1683              		.loc 1 623 5
 1684              		.loc 1 623 49 is_stmt 0
 1685              	#APP
 1686              	# 623 "src/kernel/riscv.cpp" 1
 624              	
 1687              		mv s1, a1
 1688              	# 0 "" 2
 1689              	.LVL126:
 625:src/kernel/riscv.cpp ****     SCB *scb = (SCB*)iaddr;
 1690              		.loc 1 625 5 is_stmt 1
 626:src/kernel/riscv.cpp **** 
 627:src/kernel/riscv.cpp ****     if(scb == nullptr){
 1691              		.loc 1 627 5
 1692              	#NO_APP
 1693 0850 63940402 		bnez	s1,.L99
 1694              	.L97:
 1695              	.LVL127:
 628:src/kernel/riscv.cpp ****         status = -1;
 629:src/kernel/riscv.cpp ****     }
 630:src/kernel/riscv.cpp ****     else
 631:src/kernel/riscv.cpp ****         delete scb;
 632:src/kernel/riscv.cpp **** 
 633:src/kernel/riscv.cpp ****     //return status
 634:src/kernel/riscv.cpp ****     asm("mv a0, %[status]" : : [status] "r" (status));
 1696              		.loc 1 634 5
 1697              		.loc 1 634 54 is_stmt 0
 1698 0854 9307F0FF 		li	a5,-1
 1699              	#APP
 1700              	# 634 "src/kernel/riscv.cpp" 1
 635              	
 636:src/kernel/riscv.cpp ****     RiscV::saveA0toSscratch();
 1701              		mv a0, a5
 1702              	# 0 "" 2
 1703              		.loc 1 636 5 is_stmt 1
 1704              		.loc 1 636 28 is_stmt 0
 1705              	#NO_APP
 1706 085c 97000000 		call	_ZN5RiscV16saveA0toSscratchEv
 1706      E7800000 
 1707              	.LVL128:
 637:src/kernel/riscv.cpp **** }
 1708              		.loc 1 637 1
 1709 0864 83308101 		ld	ra,24(sp)
 1710              		.cfi_remember_state
 1711              		.cfi_restore 1
 1712 0868 03340101 		ld	s0,16(sp)
 1713              		.cfi_restore 8
 1714              		.cfi_def_cfa 2, 32
 1715 086c 83348100 		ld	s1,8(sp)
 1716              		.cfi_restore 9
 1717              	.LVL129:
GAS LISTING /tmp/ccnlBL9w.s 			page 52


 1718 0870 13010102 		addi	sp,sp,32
 1719              		.cfi_def_cfa_offset 0
 1720 0874 67800000 		jr	ra
 1721              	.LVL130:
 1722              	.L99:
 1723              		.cfi_restore_state
 631:src/kernel/riscv.cpp **** 
 1724              		.loc 1 631 9 is_stmt 1 discriminator 1
 631:src/kernel/riscv.cpp **** 
 1725              		.loc 1 631 16 is_stmt 0 discriminator 1
 1726 0878 13850400 		mv	a0,s1
 1727 087c 97000000 		call	_ZN3SCBD1Ev@plt
 1727      E7800000 
 1728              	.LVL131:
 1729 0884 13850400 		mv	a0,s1
 1730 0888 97000000 		call	_ZN3SCBdlEPv@plt
 1730      E7800000 
 1731              	.LVL132:
 1732 0890 6FF05FFC 		j	.L97
 1733              		.cfi_endproc
 1734              	.LFE70:
 1736              		.align	2
 1737              		.globl	_ZN5RiscV5getPCEv
 1739              	_ZN5RiscV5getPCEv:
 1740              	.LFB72:
 638:src/kernel/riscv.cpp **** 
 639:src/kernel/riscv.cpp **** //fork syscall
 640:src/kernel/riscv.cpp **** void RiscV::executeForkSyscall() {
 641:src/kernel/riscv.cpp **** 
 642:src/kernel/riscv.cpp ****     //create new stack and copy stack from currently running stack into the new one
 643:src/kernel/riscv.cpp ****     uint64 *stack = (uint64*)MemoryAllocator::kmalloc((DEFAULT_STACK_SIZE+MEM_BLOCK_SIZE-1)/MEM_BLO
 644:src/kernel/riscv.cpp ****     handlePageFault(kPMT, (uint64)stack, 0x17);
 645:src/kernel/riscv.cpp **** 
 646:src/kernel/riscv.cpp ****     MemoryAllocator::memcpy((void*)TCB::running->stack,(void*)stack,DEFAULT_STACK_SIZE);
 647:src/kernel/riscv.cpp **** 
 648:src/kernel/riscv.cpp ****     //create new TCB for new thread
 649:src/kernel/riscv.cpp ****     TCB *forked = new TCB(nullptr, nullptr, stack, DEFAULT_TIME_SLICE);
 650:src/kernel/riscv.cpp **** 
 651:src/kernel/riscv.cpp ****     uint64 status = 0;
 652:src/kernel/riscv.cpp **** 
 653:src/kernel/riscv.cpp ****     if(forked) {
 654:src/kernel/riscv.cpp **** 
 655:src/kernel/riscv.cpp ****         //set return address where forked thread should return
 656:src/kernel/riscv.cpp ****         forked->context.ra = TCB::currentPC;
 657:src/kernel/riscv.cpp **** 
 658:src/kernel/riscv.cpp ****         //set SP value where forked thread's stack starts
 659:src/kernel/riscv.cpp ****         forked->context.sp = (uint64)((char*)stack + TCB::currentSP - (char*)TCB::running->stack);
 660:src/kernel/riscv.cpp **** 
 661:src/kernel/riscv.cpp ****         //get memory location of where registers are stored from previous context switch
 662:src/kernel/riscv.cpp ****         uint64 registerStartSP = (uint64)((char*)TCB::running->a0Location - (char*)TCB::running->st
 663:src/kernel/riscv.cpp **** 
 664:src/kernel/riscv.cpp ****         forked->a0Location = registerStartSP;
 665:src/kernel/riscv.cpp **** 
 666:src/kernel/riscv.cpp ****         uint64 a1,a0;
 667:src/kernel/riscv.cpp **** 
 668:src/kernel/riscv.cpp ****         //write address of stored registers in SP of forked thread so that it can return regularly
 669:src/kernel/riscv.cpp ****         asm("mv %[a1], a1": [a1] "=r"(a1));
GAS LISTING /tmp/ccnlBL9w.s 			page 53


 670:src/kernel/riscv.cpp **** 
 671:src/kernel/riscv.cpp ****         asm("mv %[a0], a0": [a0] "=r"(a0));
 672:src/kernel/riscv.cpp **** 
 673:src/kernel/riscv.cpp ****         asm("mv a0,%[a0]"::  [a0]"r"(registerStartSP));
 674:src/kernel/riscv.cpp **** 
 675:src/kernel/riscv.cpp ****         asm("mv a1, %[a0]" : :  [a0] "r"(registerStartSP));
 676:src/kernel/riscv.cpp **** 
 677:src/kernel/riscv.cpp ****         asm("sd a0, 16(a1)");
 678:src/kernel/riscv.cpp **** 
 679:src/kernel/riscv.cpp ****         //write 0 in a0 register of forked thread because fork should return 0 in context of child,
 680:src/kernel/riscv.cpp ****         asm("li a0, 0");
 681:src/kernel/riscv.cpp **** 
 682:src/kernel/riscv.cpp ****         asm("sd a0, 80(a1)");
 683:src/kernel/riscv.cpp **** 
 684:src/kernel/riscv.cpp ****         asm("mv a1,%[a1]"::  [a1]"r"(a1));
 685:src/kernel/riscv.cpp **** 
 686:src/kernel/riscv.cpp ****         asm("mv a0,%[a0]"::  [a0]"r"(a0));
 687:src/kernel/riscv.cpp **** 
 688:src/kernel/riscv.cpp ****         forked->sepc = TCB::running->sepc;
 689:src/kernel/riscv.cpp **** 
 690:src/kernel/riscv.cpp ****         forked->sstatus = TCB::running->sstatus;
 691:src/kernel/riscv.cpp **** 
 692:src/kernel/riscv.cpp ****         //put forked in scheduler
 693:src/kernel/riscv.cpp ****         Scheduler::put(forked);
 694:src/kernel/riscv.cpp **** 
 695:src/kernel/riscv.cpp ****         //return address of forked as thread ID
 696:src/kernel/riscv.cpp ****         status = (uint64)forked;
 697:src/kernel/riscv.cpp ****     }else
 698:src/kernel/riscv.cpp ****         status = -1;
 699:src/kernel/riscv.cpp **** 
 700:src/kernel/riscv.cpp ****     asm("mv a0, %[status]" : : [status] "r" (status));
 701:src/kernel/riscv.cpp **** 
 702:src/kernel/riscv.cpp ****     RiscV::saveA0toSscratch();
 703:src/kernel/riscv.cpp **** 
 704:src/kernel/riscv.cpp **** }
 705:src/kernel/riscv.cpp **** 
 706:src/kernel/riscv.cpp **** void RiscV::getPC(){
 1741              		.loc 1 706 20 is_stmt 1
 1742              		.cfi_startproc
 1743 0894 130101FF 		addi	sp,sp,-16
 1744              		.cfi_def_cfa_offset 16
 1745 0898 23348100 		sd	s0,8(sp)
 1746              		.cfi_offset 8, -8
 1747 089c 13040101 		addi	s0,sp,16
 1748              		.cfi_def_cfa 8, 0
 707:src/kernel/riscv.cpp ****     uint64 ra;
 1749              		.loc 1 707 5
 708:src/kernel/riscv.cpp **** 
 709:src/kernel/riscv.cpp ****     asm("mv %[ra], ra" : [ra] "=r"(ra));
 1750              		.loc 1 709 5
 1751              		.loc 1 709 40 is_stmt 0
 1752              	#APP
 1753              	# 709 "src/kernel/riscv.cpp" 1
 710              	
 1754              		mv a5, ra
 1755              	# 0 "" 2
 1756              	.LVL133:
GAS LISTING /tmp/ccnlBL9w.s 			page 54


 711:src/kernel/riscv.cpp ****     TCB::currentPC = ra + 8;
 1757              		.loc 1 711 5 is_stmt 1
 1758              		.loc 1 711 25 is_stmt 0
 1759              	#NO_APP
 1760 08a4 93878700 		addi	a5,a5,8
 1761              	.LVL134:
 1762              		.loc 1 711 20
 1763 08a8 17070000 		la	a4,_ZN3TCB9currentPCE
 1763      03370700 
 1764 08b0 2330F700 		sd	a5,0(a4)
 712:src/kernel/riscv.cpp **** }
 1765              		.loc 1 712 1
 1766 08b4 03348100 		ld	s0,8(sp)
 1767              		.cfi_restore 8
 1768              		.cfi_def_cfa 2, 16
 1769 08b8 13010101 		addi	sp,sp,16
 1770              		.cfi_def_cfa_offset 0
 1771 08bc 67800000 		jr	ra
 1772              		.cfi_endproc
 1773              	.LFE72:
 1775              		.align	2
 1776              		.globl	_ZN5RiscV16threadCreateUtilEPP3TCBPFvPvES3_
 1778              	_ZN5RiscV16threadCreateUtilEPP3TCBPFvPvES3_:
 1779              	.LFB73:
 713:src/kernel/riscv.cpp **** 
 714:src/kernel/riscv.cpp **** void RiscV::threadCreateUtil(TCB **handle, void (*start_routine)(void *), void *arg) {
 1780              		.loc 1 714 86 is_stmt 1
 1781              		.cfi_startproc
 1782              	.LVL135:
 1783 08c0 130101FD 		addi	sp,sp,-48
 1784              		.cfi_def_cfa_offset 48
 1785 08c4 23341102 		sd	ra,40(sp)
 1786 08c8 23308102 		sd	s0,32(sp)
 1787 08cc 233C9100 		sd	s1,24(sp)
 1788 08d0 23382101 		sd	s2,16(sp)
 1789 08d4 23343101 		sd	s3,8(sp)
 1790              		.cfi_offset 1, -8
 1791              		.cfi_offset 8, -16
 1792              		.cfi_offset 9, -24
 1793              		.cfi_offset 18, -32
 1794              		.cfi_offset 19, -40
 1795 08d8 13040103 		addi	s0,sp,48
 1796              		.cfi_def_cfa 8, 0
 1797 08dc 13090500 		mv	s2,a0
 1798 08e0 93840500 		mv	s1,a1
 1799 08e4 93090600 		mv	s3,a2
 715:src/kernel/riscv.cpp ****     uint64 ihandle = (uint64)handle;
 1800              		.loc 1 715 5
 1801              	.LVL136:
 716:src/kernel/riscv.cpp ****     uint64 iroutine = (uint64)start_routine;
 1802              		.loc 1 716 5
 717:src/kernel/riscv.cpp ****     uint64 iarg = (uint64)arg;
 1803              		.loc 1 717 5
 718:src/kernel/riscv.cpp ****     uint64 istack = 0;
 1804              		.loc 1 718 5
 719:src/kernel/riscv.cpp **** 
 720:src/kernel/riscv.cpp ****     if(start_routine) {
GAS LISTING /tmp/ccnlBL9w.s 			page 55


 1805              		.loc 1 720 5
 1806 08e8 638E0500 		beqz	a1,.L105
 721:src/kernel/riscv.cpp ****         istack = (uint64) MemoryAllocator::kmalloc((DEFAULT_STACK_SIZE+MEM_BLOCK_SIZE-1)/MEM_BLOCK_
 1807              		.loc 1 721 9
 1808              		.loc 1 721 51 is_stmt 0
 1809 08ec 13050004 		li	a0,64
 1810              	.LVL137:
 1811 08f0 97000000 		call	_ZN15MemoryAllocator7kmallocEm@plt
 1811      E7800000 
 1812              	.LVL138:
 722:src/kernel/riscv.cpp ****         if(istack == 0) {
 1813              		.loc 1 722 9 is_stmt 1
 1814 08f8 63180500 		bnez	a0,.L103
 723:src/kernel/riscv.cpp ****             *handle = nullptr;
 1815              		.loc 1 723 13
 1816              		.loc 1 723 21 is_stmt 0
 1817 08fc 23300900 		sd	zero,0(s2)
 724:src/kernel/riscv.cpp ****             return;
 1818              		.loc 1 724 13 is_stmt 1
 1819 0900 6F000002 		j	.L102
 1820              	.LVL139:
 1821              	.L105:
 718:src/kernel/riscv.cpp **** 
 1822              		.loc 1 718 12 is_stmt 0
 1823 0904 13050000 		li	a0,0
 1824              	.LVL140:
 1825              	.L103:
 725:src/kernel/riscv.cpp ****         }
 726:src/kernel/riscv.cpp ****     }
 727:src/kernel/riscv.cpp **** 
 728:src/kernel/riscv.cpp ****     asm("mv a7, %[istack]" : : [istack] "r" (istack));
 1826              		.loc 1 728 5 is_stmt 1
 1827              		.loc 1 728 54 is_stmt 0
 1828              	#APP
 1829              	# 728 "src/kernel/riscv.cpp" 1
 729              	    asm("mv a3, %[iarg]" : : [iarg] "r" (iarg));
 1830              		mv a7, a0
 1831              	# 0 "" 2
 1832              		.loc 1 729 5 is_stmt 1
 1833              		.loc 1 729 48 is_stmt 0
 1834              	# 729 "src/kernel/riscv.cpp" 1
 730              	    asm("mv a2, %[iroutine]" : : [iroutine] "r" (iroutine));
 1835              		mv a3, s3
 1836              	# 0 "" 2
 1837              		.loc 1 730 5 is_stmt 1
 1838              		.loc 1 730 60 is_stmt 0
 1839              	# 730 "src/kernel/riscv.cpp" 1
 731              	    asm("mv a1, %[ihandle]" : : [ihandle] "r" (ihandle));
 1840              		mv a2, s1
 1841              	# 0 "" 2
 1842              		.loc 1 731 5 is_stmt 1
 1843              		.loc 1 731 57 is_stmt 0
 1844              	# 731 "src/kernel/riscv.cpp" 1
 732              	    asm("li a0, 0x11");
 1845              		mv a1, s2
 1846              	# 0 "" 2
 1847              		.loc 1 732 5 is_stmt 1
GAS LISTING /tmp/ccnlBL9w.s 			page 56


 1848              		.loc 1 732 23 is_stmt 0
 1849              	# 732 "src/kernel/riscv.cpp" 1
 733              	
 734:src/kernel/riscv.cpp ****     asm("ecall");
 1850              		li a0, 0x11
 1851              	# 0 "" 2
 1852              		.loc 1 734 5 is_stmt 1
 1853              		.loc 1 734 17 is_stmt 0
 1854              	# 734 "src/kernel/riscv.cpp" 1
 735              	
 736:src/kernel/riscv.cpp ****     uint64 status;
 1855              		ecall
 1856              	# 0 "" 2
 1857              		.loc 1 736 5 is_stmt 1
 737:src/kernel/riscv.cpp **** 
 738:src/kernel/riscv.cpp ****     asm("mv %[status], a0" : [status] "=r" (status));
 1858              		.loc 1 738 5
 1859              	.LVL141:
 1860              	#NO_APP
 1861              	.L102:
 739:src/kernel/riscv.cpp **** 
 740:src/kernel/riscv.cpp **** }
 1862              		.loc 1 740 1 is_stmt 0
 1863 0920 83308102 		ld	ra,40(sp)
 1864              		.cfi_restore 1
 1865 0924 03340102 		ld	s0,32(sp)
 1866              		.cfi_restore 8
 1867              		.cfi_def_cfa 2, 48
 1868 0928 83348101 		ld	s1,24(sp)
 1869              		.cfi_restore 9
 1870              	.LVL142:
 1871 092c 03390101 		ld	s2,16(sp)
 1872              		.cfi_restore 18
 1873              	.LVL143:
 1874 0930 83398100 		ld	s3,8(sp)
 1875              		.cfi_restore 19
 1876              	.LVL144:
 1877 0934 13010103 		addi	sp,sp,48
 1878              		.cfi_def_cfa_offset 0
 1879 0938 67800000 		jr	ra
 1880              		.cfi_endproc
 1881              	.LFE73:
 1883              		.align	2
 1884              		.globl	_ZN5RiscV14threadExitUtilEv
 1886              	_ZN5RiscV14threadExitUtilEv:
 1887              	.LFB74:
 741:src/kernel/riscv.cpp **** 
 742:src/kernel/riscv.cpp **** void RiscV::threadExitUtil() {
 1888              		.loc 1 742 30 is_stmt 1
 1889              		.cfi_startproc
 1890 093c 130101FF 		addi	sp,sp,-16
 1891              		.cfi_def_cfa_offset 16
 1892 0940 23348100 		sd	s0,8(sp)
 1893              		.cfi_offset 8, -8
 1894 0944 13040101 		addi	s0,sp,16
 1895              		.cfi_def_cfa 8, 0
 743:src/kernel/riscv.cpp ****     asm("li a0, 0x12");
GAS LISTING /tmp/ccnlBL9w.s 			page 57


 1896              		.loc 1 743 5
 1897              		.loc 1 743 23 is_stmt 0
 1898              	#APP
 1899              	# 743 "src/kernel/riscv.cpp" 1
 744              	
 745:src/kernel/riscv.cpp ****     asm("ecall");
 1900              		li a0, 0x12
 1901              	# 0 "" 2
 1902              		.loc 1 745 5 is_stmt 1
 1903              		.loc 1 745 17 is_stmt 0
 1904              	# 745 "src/kernel/riscv.cpp" 1
 746              	
 747:src/kernel/riscv.cpp ****     uint64 status;
 1905              		ecall
 1906              	# 0 "" 2
 1907              		.loc 1 747 5 is_stmt 1
 748:src/kernel/riscv.cpp **** 
 749:src/kernel/riscv.cpp ****     asm("mv %[status], a0" : [status] "=r" (status));
 1908              		.loc 1 749 5
 1909              	.LVL145:
 750:src/kernel/riscv.cpp **** }
 1910              		.loc 1 750 1 is_stmt 0
 1911              	#NO_APP
 1912 0950 03348100 		ld	s0,8(sp)
 1913              		.cfi_restore 8
 1914              		.cfi_def_cfa 2, 16
 1915 0954 13010101 		addi	sp,sp,16
 1916              		.cfi_def_cfa_offset 0
 1917 0958 67800000 		jr	ra
 1918              		.cfi_endproc
 1919              	.LFE74:
 1921              		.align	2
 1922              		.globl	_ZN5RiscV18threadDispatchUtilEv
 1924              	_ZN5RiscV18threadDispatchUtilEv:
 1925              	.LFB75:
 751:src/kernel/riscv.cpp **** 
 752:src/kernel/riscv.cpp **** void RiscV::threadDispatchUtil() {
 1926              		.loc 1 752 34 is_stmt 1
 1927              		.cfi_startproc
 1928 095c 130101FF 		addi	sp,sp,-16
 1929              		.cfi_def_cfa_offset 16
 1930 0960 23348100 		sd	s0,8(sp)
 1931              		.cfi_offset 8, -8
 1932 0964 13040101 		addi	s0,sp,16
 1933              		.cfi_def_cfa 8, 0
 753:src/kernel/riscv.cpp ****     asm("li a0, 0x13");
 1934              		.loc 1 753 5
 1935              		.loc 1 753 23 is_stmt 0
 1936              	#APP
 1937              	# 753 "src/kernel/riscv.cpp" 1
 754              	
 755:src/kernel/riscv.cpp ****     asm("ecall");
 1938              		li a0, 0x13
 1939              	# 0 "" 2
 1940              		.loc 1 755 5 is_stmt 1
 1941              		.loc 1 755 17 is_stmt 0
 1942              	# 755 "src/kernel/riscv.cpp" 1
GAS LISTING /tmp/ccnlBL9w.s 			page 58


 756              	}
 1943              		ecall
 1944              	# 0 "" 2
 1945              		.loc 1 756 1
 1946              	#NO_APP
 1947 0970 03348100 		ld	s0,8(sp)
 1948              		.cfi_restore 8
 1949              		.cfi_def_cfa 2, 16
 1950 0974 13010101 		addi	sp,sp,16
 1951              		.cfi_def_cfa_offset 0
 1952 0978 67800000 		jr	ra
 1953              		.cfi_endproc
 1954              	.LFE75:
 1956              		.align	2
 1957              		.globl	_ZN5RiscV11putcWrapperEPv
 1959              	_ZN5RiscV11putcWrapperEPv:
 1960              	.LFB64:
 521:src/kernel/riscv.cpp ****     while(true)
 1961              		.loc 1 521 1 is_stmt 1
 1962              		.cfi_startproc
 1963              	.LVL146:
 1964 097c 130101FE 		addi	sp,sp,-32
 1965              		.cfi_def_cfa_offset 32
 1966 0980 233C1100 		sd	ra,24(sp)
 1967 0984 23388100 		sd	s0,16(sp)
 1968              		.cfi_offset 1, -8
 1969              		.cfi_offset 8, -16
 1970 0988 13040102 		addi	s0,sp,32
 1971              		.cfi_def_cfa 8, 0
 1972 098c 6F00C000 		j	.L112
 1973              	.LVL147:
 1974              	.L113:
 1975              	.LBB124:
 1976              	.LBB125:
 545:src/kernel/riscv.cpp ****     }
 1977              		.loc 1 545 13
 545:src/kernel/riscv.cpp ****     }
 1978              		.loc 1 545 38 is_stmt 0
 1979 0990 97000000 		call	_ZN5RiscV18threadDispatchUtilEv
 1979      E7800000 
 1980              	.LVL148:
 1981              	.L112:
 1982              	.LBE125:
 1983              	.LBE124:
 522:src/kernel/riscv.cpp ****     {
 1984              		.loc 1 522 5 is_stmt 1
 1985              	.LBB128:
 525:src/kernel/riscv.cpp ****         asm("mv a0, %[status]" : : [status] "r" (status));
 1986              		.loc 1 525 9
 525:src/kernel/riscv.cpp ****         asm("mv a0, %[status]" : : [status] "r" (status));
 1987              		.loc 1 525 16 is_stmt 0
 1988 0998 97070000 		la	a5,CONSOLE_STATUS
 1988      83B70700 
 1989 09a0 83B70700 		ld	a5,0(a5)
 1990              	.LVL149:
 526:src/kernel/riscv.cpp ****         asm("lb a1, 0(a0)");
 1991              		.loc 1 526 9 is_stmt 1
GAS LISTING /tmp/ccnlBL9w.s 			page 59


 526:src/kernel/riscv.cpp ****         asm("lb a1, 0(a0)");
 1992              		.loc 1 526 58 is_stmt 0
 1993              	#APP
 1994              	# 526 "src/kernel/riscv.cpp" 1
 527:src/kernel/riscv.cpp ****         asm("mv %[status], a1" : [status] "=r" (status));
 1995              		mv a0, a5
 1996              	# 0 "" 2
 1997              		.loc 1 527 9 is_stmt 1
 527:src/kernel/riscv.cpp ****         asm("mv %[status], a1" : [status] "=r" (status));
 1998              		.loc 1 527 28 is_stmt 0
 1999              	# 527 "src/kernel/riscv.cpp" 1
 528:src/kernel/riscv.cpp **** 
 2000              		lb a1, 0(a0)
 2001              	# 0 "" 2
 2002              		.loc 1 528 9 is_stmt 1
 528:src/kernel/riscv.cpp **** 
 2003              		.loc 1 528 57 is_stmt 0
 2004              	# 528 "src/kernel/riscv.cpp" 1
 2005              		mv a5, a1
 2006              	# 0 "" 2
 2007              	.LVL150:
 531:src/kernel/riscv.cpp **** 
 2008              		.loc 1 531 9 is_stmt 1
 2009              	#NO_APP
 2010              	.LBB127:
 531:src/kernel/riscv.cpp **** 
 2011              		.loc 1 531 19 is_stmt 0
 2012 09b0 93F70702 		andi	a5,a5,32
 2013              	.LVL151:
 531:src/kernel/riscv.cpp **** 
 2014              		.loc 1 531 9
 2015 09b4 E38E07FC 		beqz	a5,.L113
 2016              	.LBB126:
 534:src/kernel/riscv.cpp ****                 uint64 data = CONSOLE_RX_DATA;
 2017              		.loc 1 534 17 is_stmt 1
 534:src/kernel/riscv.cpp ****                 uint64 data = CONSOLE_RX_DATA;
 2018              		.loc 1 534 63 is_stmt 0
 2019 09b8 97000000 		call	_ZN11ConsoleUtil15putcUtilSyscallEv@plt
 2019      E7800000 
 2020              	.LVL152:
 534:src/kernel/riscv.cpp ****                 uint64 data = CONSOLE_RX_DATA;
 2021              		.loc 1 534 64
 2022 09c0 A307A4FE 		sb	a0,-17(s0)
 535:src/kernel/riscv.cpp ****                 asm("mv a0, %[data]" : : [data] "r"(data));
 2023              		.loc 1 535 17 is_stmt 1
 535:src/kernel/riscv.cpp ****                 asm("mv a0, %[data]" : : [data] "r"(data));
 2024              		.loc 1 535 24 is_stmt 0
 2025 09c4 97070000 		la	a5,CONSOLE_RX_DATA
 2025      83B70700 
 2026 09cc 83B70700 		ld	a5,0(a5)
 2027              	.LVL153:
 536:src/kernel/riscv.cpp ****                 asm("mv a1, %[c]" : : [c] "r"(c));
 2028              		.loc 1 536 17 is_stmt 1
 536:src/kernel/riscv.cpp ****                 asm("mv a1, %[c]" : : [c] "r"(c));
 2029              		.loc 1 536 59 is_stmt 0
 2030              	#APP
 2031              	# 536 "src/kernel/riscv.cpp" 1
GAS LISTING /tmp/ccnlBL9w.s 			page 60


 537:src/kernel/riscv.cpp ****                 asm("sb a1,0(a0)");
 2032              		mv a0, a5
 2033              	# 0 "" 2
 2034              		.loc 1 537 17 is_stmt 1
 537:src/kernel/riscv.cpp ****                 asm("sb a1,0(a0)");
 2035              		.loc 1 537 47 is_stmt 0
 2036              	#NO_APP
 2037 09d4 8347F4FE 		lbu	a5,-17(s0)
 2038              	.LVL154:
 537:src/kernel/riscv.cpp ****                 asm("sb a1,0(a0)");
 2039              		.loc 1 537 50
 2040              	#APP
 2041              	# 537 "src/kernel/riscv.cpp" 1
 538:src/kernel/riscv.cpp **** 
 2042              		mv a1, a5
 2043              	# 0 "" 2
 2044              		.loc 1 538 17 is_stmt 1
 538:src/kernel/riscv.cpp **** 
 2045              		.loc 1 538 35 is_stmt 0
 2046              	# 538 "src/kernel/riscv.cpp" 1
 541:src/kernel/riscv.cpp ****                 ConsoleUtil::pendingPutc--;
 2047              		sb a1,0(a0)
 2048              	# 0 "" 2
 2049              		.loc 1 541 13 is_stmt 1
 541:src/kernel/riscv.cpp ****                 ConsoleUtil::pendingPutc--;
 2050              		.loc 1 541 40 is_stmt 0
 2051              	#NO_APP
 2052 09e0 97070000 		la	a5,_ZN11ConsoleUtil11pendingPutcE
 2052      83B70700 
 2053 09e8 83B70700 		ld	a5,0(a5)
 541:src/kernel/riscv.cpp ****                 ConsoleUtil::pendingPutc--;
 2054              		.loc 1 541 13
 2055 09ec E38607FA 		beqz	a5,.L112
 542:src/kernel/riscv.cpp ****         }
 2056              		.loc 1 542 17 is_stmt 1
 542:src/kernel/riscv.cpp ****         }
 2057              		.loc 1 542 41 is_stmt 0
 2058 09f0 9387F7FF 		addi	a5,a5,-1
 2059 09f4 17070000 		la	a4,_ZN11ConsoleUtil11pendingPutcE
 2059      03370700 
 2060 09fc 2330F700 		sd	a5,0(a4)
 2061 0a00 6FF09FF9 		j	.L112
 2062              	.LBE126:
 2063              	.LBE127:
 2064              	.LBE128:
 2065              		.cfi_endproc
 2066              	.LFE64:
 2068              		.align	2
 2069              		.globl	_ZN5RiscV6getPMTEv
 2071              	_ZN5RiscV6getPMTEv:
 2072              	.LFB79:
 757:src/kernel/riscv.cpp **** 
 758:src/kernel/riscv.cpp **** void RiscV::buildSection(void *PMT, uint64 start, uint64 end, uint64 mask) {
 759:src/kernel/riscv.cpp ****     for(uint64 i=start;i< end;i+=0x1000) {
 760:src/kernel/riscv.cpp ****         handlePageFault(PMT,i, mask);
 761:src/kernel/riscv.cpp ****     }
 762:src/kernel/riscv.cpp **** }
GAS LISTING /tmp/ccnlBL9w.s 			page 61


 763:src/kernel/riscv.cpp **** 
 764:src/kernel/riscv.cpp **** void RiscV::buildKernelPMT() {
 765:src/kernel/riscv.cpp ****     RiscV::kPMT = RiscV::getPMT();
 766:src/kernel/riscv.cpp ****     uint64 bEnd = ((uint64)Buddy::BUDDY_START_ADDR + (Buddy::BLOCKS_AVAILABLE<<12));
 767:src/kernel/riscv.cpp **** 
 768:src/kernel/riscv.cpp **** 
 769:src/kernel/riscv.cpp ****     RiscV::buildSection(kPMT, OS_ENTRY, KERNEL_TEXT_END, 0xb);
 770:src/kernel/riscv.cpp ****     RiscV::buildSection(kPMT, KERNEL_TEXT_END, USER_TEXT_START, 0x7);
 771:src/kernel/riscv.cpp ****     RiscV::buildSection(kPMT, USER_TEXT_START, USER_DATA_START, 0x1b);
 772:src/kernel/riscv.cpp ****     RiscV::buildSection(kPMT, USER_DATA_START, USER_DATA_END, 0x17);
 773:src/kernel/riscv.cpp ****     RiscV::buildSection(kPMT, USER_DATA_END, bEnd, 0x7);
 774:src/kernel/riscv.cpp ****     RiscV::buildSection(kPMT, bEnd, HEAP_END, 0x17);
 775:src/kernel/riscv.cpp **** 
 776:src/kernel/riscv.cpp ****     RiscV::mapConsoleRegisters(kPMT);
 777:src/kernel/riscv.cpp ****     RiscV::ms_sstatus(1<<18);
 778:src/kernel/riscv.cpp **** }
 779:src/kernel/riscv.cpp **** 
 780:src/kernel/riscv.cpp **** void RiscV::buildUserPMT() {
 781:src/kernel/riscv.cpp ****     RiscV::uPMT = RiscV::getPMT();
 782:src/kernel/riscv.cpp ****     uint64 bEnd = ((uint64)Buddy::BUDDY_START_ADDR + (Buddy::BLOCKS_AVAILABLE<<12));
 783:src/kernel/riscv.cpp **** 
 784:src/kernel/riscv.cpp **** 
 785:src/kernel/riscv.cpp ****     RiscV::buildSection(uPMT, OS_ENTRY, KERNEL_TEXT_END, 0xb);
 786:src/kernel/riscv.cpp ****     RiscV::buildSection(uPMT, KERNEL_TEXT_END, USER_TEXT_START, 0x7);
 787:src/kernel/riscv.cpp ****     RiscV::buildSection(uPMT, USER_TEXT_START, USER_DATA_START, 0x1b);
 788:src/kernel/riscv.cpp ****     RiscV::buildSection(uPMT, USER_DATA_START, USER_DATA_END, 0x17);
 789:src/kernel/riscv.cpp ****     RiscV::buildSection(uPMT, USER_DATA_END, bEnd, 0x7);
 790:src/kernel/riscv.cpp ****     RiscV::buildSection(uPMT, bEnd, HEAP_END, 0x17);
 791:src/kernel/riscv.cpp **** 
 792:src/kernel/riscv.cpp ****     RiscV::mapConsoleRegisters(uPMT);
 793:src/kernel/riscv.cpp ****     RiscV::ms_sstatus(1<<18);
 794:src/kernel/riscv.cpp **** }
 795:src/kernel/riscv.cpp **** 
 796:src/kernel/riscv.cpp **** void* RiscV::getPMT(){
 2073              		.loc 1 796 22 is_stmt 1
 2074              		.cfi_startproc
 2075 0a04 130101FF 		addi	sp,sp,-16
 2076              		.cfi_def_cfa_offset 16
 2077 0a08 23341100 		sd	ra,8(sp)
 2078 0a0c 23308100 		sd	s0,0(sp)
 2079              		.cfi_offset 1, -8
 2080              		.cfi_offset 8, -16
 2081 0a10 13040101 		addi	s0,sp,16
 2082              		.cfi_def_cfa 8, 0
 797:src/kernel/riscv.cpp ****     void* ret = Buddy::alloc(1);
 2083              		.loc 1 797 5
 2084              		.loc 1 797 29 is_stmt 0
 2085 0a14 13051000 		li	a0,1
 2086 0a18 97000000 		call	_ZN5Buddy5allocEm@plt
 2086      E7800000 
 2087              	.LVL155:
 798:src/kernel/riscv.cpp ****     uint64* arr = (uint64*)ret;
 2088              		.loc 1 798 5 is_stmt 1
 799:src/kernel/riscv.cpp ****     for(int i=0;i<512;i++)
 2089              		.loc 1 799 5
 2090              	.LBB129:
 2091              		.loc 1 799 13 is_stmt 0
GAS LISTING /tmp/ccnlBL9w.s 			page 62


 2092 0a20 93070000 		li	a5,0
 2093              	.LVL156:
 2094              	.L118:
 2095              		.loc 1 799 18 is_stmt 1 discriminator 3
 2096 0a24 1307F01F 		li	a4,511
 2097 0a28 634CF700 		bgt	a5,a4,.L116
 800:src/kernel/riscv.cpp ****         arr[i] = 0;
 2098              		.loc 1 800 9 discriminator 2
 2099              		.loc 1 800 14 is_stmt 0 discriminator 2
 2100 0a2c 13973700 		slli	a4,a5,3
 2101 0a30 3307E500 		add	a4,a0,a4
 2102              		.loc 1 800 16 discriminator 2
 2103 0a34 23300700 		sd	zero,0(a4)
 799:src/kernel/riscv.cpp ****     for(int i=0;i<512;i++)
 2104              		.loc 1 799 5 is_stmt 1 discriminator 2
 2105 0a38 9B871700 		addiw	a5,a5,1
 2106              	.LVL157:
 2107 0a3c 6FF09FFE 		j	.L118
 2108              	.LVL158:
 2109              	.L116:
 2110              	.LBE129:
 801:src/kernel/riscv.cpp ****     return ret;
 802:src/kernel/riscv.cpp **** }
 2111              		.loc 1 802 1 is_stmt 0
 2112 0a40 83308100 		ld	ra,8(sp)
 2113              		.cfi_restore 1
 2114 0a44 03340100 		ld	s0,0(sp)
 2115              		.cfi_restore 8
 2116              		.cfi_def_cfa 2, 16
 2117 0a48 13010101 		addi	sp,sp,16
 2118              		.cfi_def_cfa_offset 0
 2119 0a4c 67800000 		jr	ra
 2120              		.cfi_endproc
 2121              	.LFE79:
 2123              		.align	2
 2124              		.globl	_ZN5RiscV15handlePageFaultEPvmm
 2126              	_ZN5RiscV15handlePageFaultEPvmm:
 2127              	.LFB80:
 803:src/kernel/riscv.cpp **** 
 804:src/kernel/riscv.cpp **** void RiscV::handlePageFault(void* PMT, uint64 addr, uint64 mask){
 2128              		.loc 1 804 65 is_stmt 1
 2129              		.cfi_startproc
 2130              	.LVL159:
 2131 0a50 130101FC 		addi	sp,sp,-64
 2132              		.cfi_def_cfa_offset 64
 2133 0a54 233C1102 		sd	ra,56(sp)
 2134 0a58 23388102 		sd	s0,48(sp)
 2135 0a5c 23349102 		sd	s1,40(sp)
 2136 0a60 23302103 		sd	s2,32(sp)
 2137 0a64 233C3101 		sd	s3,24(sp)
 2138 0a68 23384101 		sd	s4,16(sp)
 2139 0a6c 23345101 		sd	s5,8(sp)
 2140              		.cfi_offset 1, -8
 2141              		.cfi_offset 8, -16
 2142              		.cfi_offset 9, -24
 2143              		.cfi_offset 18, -32
 2144              		.cfi_offset 19, -40
GAS LISTING /tmp/ccnlBL9w.s 			page 63


 2145              		.cfi_offset 20, -48
 2146              		.cfi_offset 21, -56
 2147 0a70 13040104 		addi	s0,sp,64
 2148              		.cfi_def_cfa 8, 0
 2149 0a74 93090600 		mv	s3,a2
 805:src/kernel/riscv.cpp ****     uint64 pmt2Entry = RiscV::getPMT2Entry(addr);
 2150              		.loc 1 805 5
 2151              	.LVL160:
 2152              	.LBB130:
 2153              	.LBB131:
 261:src/kernel/../../h/kernel/riscv.hpp **** }
 262:src/kernel/../../h/kernel/riscv.hpp **** 
 263:src/kernel/../../h/kernel/riscv.hpp **** inline void RiscV::startVirtualMemory(void* PMT) {
 264:src/kernel/../../h/kernel/riscv.hpp ****     uint64 satp = ((uint64)1<<63) | ((uint64)(PMT)>>12);
 265:src/kernel/../../h/kernel/riscv.hpp ****     asm("csrw satp, %[satp]" : : [satp] "r" (satp));
 266:src/kernel/../../h/kernel/riscv.hpp **** }
 267:src/kernel/../../h/kernel/riscv.hpp **** 
 268:src/kernel/../../h/kernel/riscv.hpp **** inline void RiscV::shutVirtualMemory() {
 269:src/kernel/../../h/kernel/riscv.hpp ****     uint64 satp = 0;
 270:src/kernel/../../h/kernel/riscv.hpp ****     asm("csrw satp, %[satp]" : : [satp] "r" (satp));
 271:src/kernel/../../h/kernel/riscv.hpp **** }
 272:src/kernel/../../h/kernel/riscv.hpp **** 
 273:src/kernel/../../h/kernel/riscv.hpp **** inline uint64 RiscV::getPMT2Entry(uint64 addr) {
 274:src/kernel/../../h/kernel/riscv.hpp ****     return (addr >> 30) & (0x1ff);
 2154              		.loc 2 274 5
 2155              		.loc 2 274 18 is_stmt 0
 2156 0a78 93D7E501 		srli	a5,a1,30
 2157              		.loc 2 274 33
 2158 0a7c 93F7F71F 		andi	a5,a5,511
 2159              	.LVL161:
 2160              	.LBE131:
 2161              	.LBE130:
 806:src/kernel/riscv.cpp ****     uint64 pmt1Entry = RiscV::getPMT1Entry(addr);
 2162              		.loc 1 806 5 is_stmt 1
 2163              	.LBB132:
 2164              	.LBB133:
 275:src/kernel/../../h/kernel/riscv.hpp **** }
 276:src/kernel/../../h/kernel/riscv.hpp **** 
 277:src/kernel/../../h/kernel/riscv.hpp **** inline uint64 RiscV::getPMT1Entry(uint64 addr) {
 278:src/kernel/../../h/kernel/riscv.hpp ****     return (addr >> 21) & (0x1ff);
 2165              		.loc 2 278 5
 2166              		.loc 2 278 18 is_stmt 0
 2167 0a80 13D95501 		srli	s2,a1,21
 2168              		.loc 2 278 33
 2169 0a84 1379F91F 		andi	s2,s2,511
 2170              	.LVL162:
 2171              	.LBE133:
 2172              	.LBE132:
 807:src/kernel/riscv.cpp ****     uint64 pmt0Entry = RiscV::getPMT0Entry(addr);
 2173              		.loc 1 807 5 is_stmt 1
 2174              	.LBB134:
 2175              	.LBB135:
 279:src/kernel/../../h/kernel/riscv.hpp **** }
 280:src/kernel/../../h/kernel/riscv.hpp **** 
 281:src/kernel/../../h/kernel/riscv.hpp **** inline uint64 RiscV::getPMT0Entry(uint64 addr) {
 282:src/kernel/../../h/kernel/riscv.hpp ****     return (addr >> 12) & (0x1ff);
 2176              		.loc 2 282 5
GAS LISTING /tmp/ccnlBL9w.s 			page 64


 2177              		.loc 2 282 18 is_stmt 0
 2178 0a88 93D4C500 		srli	s1,a1,12
 2179              		.loc 2 282 33
 2180 0a8c 13FAF41F 		andi	s4,s1,511
 2181              	.LVL163:
 2182              	.LBE135:
 2183              	.LBE134:
 808:src/kernel/riscv.cpp ****     uint64 pmt2Desc = ((uint64*)PMT)[pmt2Entry];
 2184              		.loc 1 808 5 is_stmt 1
 2185              		.loc 1 808 47 is_stmt 0
 2186 0a90 93973700 		slli	a5,a5,3
 2187              	.LVL164:
 2188 0a94 B30AF500 		add	s5,a0,a5
 2189              		.loc 1 808 12
 2190 0a98 83B70A00 		ld	a5,0(s5)
 2191              	.LVL165:
 809:src/kernel/riscv.cpp ****     void* pmt1 = nullptr;
 2192              		.loc 1 809 5 is_stmt 1
 810:src/kernel/riscv.cpp ****     if(pmt2Desc == 0){
 2193              		.loc 1 810 5
 2194              	.LBB136:
 2195 0a9c 638E0704 		beqz	a5,.L126
 811:src/kernel/riscv.cpp ****         pmt1 = RiscV::getPMT();
 812:src/kernel/riscv.cpp ****         uint64 frame = (uint64)pmt1 >> 12;
 813:src/kernel/riscv.cpp ****         ((uint64*)PMT)[pmt2Entry] = (frame << 10) | (uint64)1;
 814:src/kernel/riscv.cpp ****     }
 815:src/kernel/riscv.cpp ****     else
 816:src/kernel/riscv.cpp ****         pmt1 = (void*)((pmt2Desc >> 10) << 12);
 2196              		.loc 1 816 9
 2197              		.loc 1 816 34 is_stmt 0
 2198 0aa0 13D5A700 		srli	a0,a5,10
 2199              	.LVL166:
 2200              		.loc 1 816 41
 2201 0aa4 1315C500 		slli	a0,a0,12
 2202              	.LVL167:
 2203              	.L122:
 2204              	.LBE136:
 817:src/kernel/riscv.cpp ****     uint64 pmt1Desc = ((uint64*)pmt1)[pmt1Entry];
 2205              		.loc 1 817 5 is_stmt 1
 2206              		.loc 1 817 48 is_stmt 0
 2207 0aa8 13193900 		slli	s2,s2,3
 2208              	.LVL168:
 2209 0aac 33092501 		add	s2,a0,s2
 2210              		.loc 1 817 12
 2211 0ab0 03350900 		ld	a0,0(s2)
 2212              	.LVL169:
 818:src/kernel/riscv.cpp ****     void* pmt0 = nullptr;
 2213              		.loc 1 818 5 is_stmt 1
 819:src/kernel/riscv.cpp ****     if(pmt1Desc == 0){
 2214              		.loc 1 819 5
 2215              	.LBB138:
 2216 0ab4 63000506 		beqz	a0,.L127
 820:src/kernel/riscv.cpp ****         pmt0 = RiscV::getPMT();
 821:src/kernel/riscv.cpp ****         uint64 frame = (uint64)pmt0 >> 12;
 822:src/kernel/riscv.cpp ****         ((uint64*)pmt1)[pmt1Entry] = (frame << 10) | (uint64)1;
 823:src/kernel/riscv.cpp ****     }
 824:src/kernel/riscv.cpp ****     else
GAS LISTING /tmp/ccnlBL9w.s 			page 65


 825:src/kernel/riscv.cpp ****         pmt0 = (void*)((pmt1Desc >> 10) << 12);
 2217              		.loc 1 825 9
 2218              		.loc 1 825 34 is_stmt 0
 2219 0ab8 1355A500 		srli	a0,a0,10
 2220              	.LVL170:
 2221              		.loc 1 825 41
 2222 0abc 1315C500 		slli	a0,a0,12
 2223              	.LVL171:
 2224              	.L124:
 2225              	.LBE138:
 826:src/kernel/riscv.cpp ****     uint64 frame = addr >> 12;
 2226              		.loc 1 826 5 is_stmt 1
 827:src/kernel/riscv.cpp ****     ((uint64 *) pmt0)[pmt0Entry] = (frame << 10) | mask;
 2227              		.loc 1 827 5
 2228              		.loc 1 827 43 is_stmt 0
 2229 0ac0 9394A400 		slli	s1,s1,10
 2230              	.LVL172:
 2231              		.loc 1 827 32
 2232 0ac4 131A3A00 		slli	s4,s4,3
 2233              	.LVL173:
 2234 0ac8 33054501 		add	a0,a0,s4
 2235              	.LVL174:
 2236              		.loc 1 827 50
 2237 0acc B3E93401 		or	s3,s1,s3
 2238              	.LVL175:
 2239              		.loc 1 827 34
 2240 0ad0 23303501 		sd	s3,0(a0)
 828:src/kernel/riscv.cpp **** }
 2241              		.loc 1 828 1
 2242 0ad4 83308103 		ld	ra,56(sp)
 2243              		.cfi_remember_state
 2244              		.cfi_restore 1
 2245 0ad8 03340103 		ld	s0,48(sp)
 2246              		.cfi_restore 8
 2247              		.cfi_def_cfa 2, 64
 2248 0adc 83348102 		ld	s1,40(sp)
 2249              		.cfi_restore 9
 2250 0ae0 03390102 		ld	s2,32(sp)
 2251              		.cfi_restore 18
 2252 0ae4 83398101 		ld	s3,24(sp)
 2253              		.cfi_restore 19
 2254 0ae8 033A0101 		ld	s4,16(sp)
 2255              		.cfi_restore 20
 2256 0aec 833A8100 		ld	s5,8(sp)
 2257              		.cfi_restore 21
 2258 0af0 13010104 		addi	sp,sp,64
 2259              		.cfi_def_cfa_offset 0
 2260 0af4 67800000 		jr	ra
 2261              	.LVL176:
 2262              	.L126:
 2263              		.cfi_restore_state
 2264              	.LBB140:
 2265              	.LBB137:
 811:src/kernel/riscv.cpp ****         uint64 frame = (uint64)pmt1 >> 12;
 2266              		.loc 1 811 9 is_stmt 1
 811:src/kernel/riscv.cpp ****         uint64 frame = (uint64)pmt1 >> 12;
 2267              		.loc 1 811 29 is_stmt 0
GAS LISTING /tmp/ccnlBL9w.s 			page 66


 2268 0af8 97000000 		call	_ZN5RiscV6getPMTEv
 2268      E7800000 
 2269              	.LVL177:
 812:src/kernel/riscv.cpp ****         ((uint64*)PMT)[pmt2Entry] = (frame << 10) | (uint64)1;
 2270              		.loc 1 812 9 is_stmt 1
 812:src/kernel/riscv.cpp ****         ((uint64*)PMT)[pmt2Entry] = (frame << 10) | (uint64)1;
 2271              		.loc 1 812 16 is_stmt 0
 2272 0b00 9357C500 		srli	a5,a0,12
 2273              	.LVL178:
 813:src/kernel/riscv.cpp ****     }
 2274              		.loc 1 813 9 is_stmt 1
 813:src/kernel/riscv.cpp ****     }
 2275              		.loc 1 813 44 is_stmt 0
 2276 0b04 9397A700 		slli	a5,a5,10
 2277              	.LVL179:
 813:src/kernel/riscv.cpp ****     }
 2278              		.loc 1 813 51
 2279 0b08 93E71700 		ori	a5,a5,1
 813:src/kernel/riscv.cpp ****     }
 2280              		.loc 1 813 35
 2281 0b0c 23B0FA00 		sd	a5,0(s5)
 2282              	.LBE137:
 2283 0b10 6FF09FF9 		j	.L122
 2284              	.LVL180:
 2285              	.L127:
 2286              	.LBE140:
 2287              	.LBB141:
 2288              	.LBB139:
 820:src/kernel/riscv.cpp ****         uint64 frame = (uint64)pmt0 >> 12;
 2289              		.loc 1 820 9 is_stmt 1
 820:src/kernel/riscv.cpp ****         uint64 frame = (uint64)pmt0 >> 12;
 2290              		.loc 1 820 29 is_stmt 0
 2291 0b14 97000000 		call	_ZN5RiscV6getPMTEv
 2291      E7800000 
 2292              	.LVL181:
 821:src/kernel/riscv.cpp ****         ((uint64*)pmt1)[pmt1Entry] = (frame << 10) | (uint64)1;
 2293              		.loc 1 821 9 is_stmt 1
 821:src/kernel/riscv.cpp ****         ((uint64*)pmt1)[pmt1Entry] = (frame << 10) | (uint64)1;
 2294              		.loc 1 821 16 is_stmt 0
 2295 0b1c 9357C500 		srli	a5,a0,12
 2296              	.LVL182:
 822:src/kernel/riscv.cpp ****     }
 2297              		.loc 1 822 9 is_stmt 1
 822:src/kernel/riscv.cpp ****     }
 2298              		.loc 1 822 45 is_stmt 0
 2299 0b20 9397A700 		slli	a5,a5,10
 2300              	.LVL183:
 822:src/kernel/riscv.cpp ****     }
 2301              		.loc 1 822 52
 2302 0b24 93E71700 		ori	a5,a5,1
 822:src/kernel/riscv.cpp ****     }
 2303              		.loc 1 822 36
 2304 0b28 2330F900 		sd	a5,0(s2)
 2305              	.LBE139:
 2306 0b2c 6FF05FF9 		j	.L124
 2307              	.LBE141:
 2308              		.cfi_endproc
GAS LISTING /tmp/ccnlBL9w.s 			page 67


 2309              	.LFE80:
 2311              		.align	2
 2312              		.globl	_ZN5RiscV18executeForkSyscallEv
 2314              	_ZN5RiscV18executeForkSyscallEv:
 2315              	.LFB71:
 640:src/kernel/riscv.cpp **** 
 2316              		.loc 1 640 34 is_stmt 1
 2317              		.cfi_startproc
 2318              		.cfi_personality 0x9b,DW.ref.__gxx_personality_v0
 2319              		.cfi_lsda 0x1b,.LLSDA71
 2320 0b30 130101FE 		addi	sp,sp,-32
 2321              		.cfi_def_cfa_offset 32
 2322 0b34 233C1100 		sd	ra,24(sp)
 2323 0b38 23388100 		sd	s0,16(sp)
 2324 0b3c 23349100 		sd	s1,8(sp)
 2325 0b40 23302101 		sd	s2,0(sp)
 2326              		.cfi_offset 1, -8
 2327              		.cfi_offset 8, -16
 2328              		.cfi_offset 9, -24
 2329              		.cfi_offset 18, -32
 2330 0b44 13040102 		addi	s0,sp,32
 2331              		.cfi_def_cfa 8, 0
 643:src/kernel/riscv.cpp ****     handlePageFault(kPMT, (uint64)stack, 0x17);
 2332              		.loc 1 643 5
 643:src/kernel/riscv.cpp ****     handlePageFault(kPMT, (uint64)stack, 0x17);
 2333              		.loc 1 643 54 is_stmt 0
 2334 0b48 13050004 		li	a0,64
 2335              	.LEHB10:
 2336 0b4c 97000000 		call	_ZN15MemoryAllocator7kmallocEm@plt
 2336      E7800000 
 2337              	.LVL184:
 2338 0b54 13090500 		mv	s2,a0
 2339              	.LVL185:
 644:src/kernel/riscv.cpp **** 
 2340              		.loc 1 644 5 is_stmt 1
 644:src/kernel/riscv.cpp **** 
 2341              		.loc 1 644 20 is_stmt 0
 2342 0b58 13067001 		li	a2,23
 2343 0b5c 93050500 		mv	a1,a0
 2344 0b60 17050000 		ld	a0,.LANCHOR0+16
 2344      03350500 
 2345              	.LVL186:
 2346 0b68 97000000 		call	_ZN5RiscV15handlePageFaultEPvmm
 2346      E7800000 
 2347              	.LVL187:
 646:src/kernel/riscv.cpp **** 
 2348              		.loc 1 646 5 is_stmt 1
 646:src/kernel/riscv.cpp **** 
 2349              		.loc 1 646 28 is_stmt 0
 2350 0b70 97070000 		la	a5,_ZN3TCB7runningE
 2350      83B70700 
 2351 0b78 83B70700 		ld	a5,0(a5)
 2352 0b7c 37160000 		li	a2,4096
 2353 0b80 93050900 		mv	a1,s2
 2354 0b84 03B58702 		ld	a0,40(a5)
 2355 0b88 97000000 		call	_ZN15MemoryAllocator6memcpyEPvS0_m@plt
 2355      E7800000 
GAS LISTING /tmp/ccnlBL9w.s 			page 68


 2356              	.LVL188:
 649:src/kernel/riscv.cpp **** 
 2357              		.loc 1 649 5 is_stmt 1
 649:src/kernel/riscv.cpp **** 
 2358              		.loc 1 649 70 is_stmt 0
 2359 0b90 13050007 		li	a0,112
 2360 0b94 97000000 		call	_ZN3TCBnwEm@plt
 2360      E7800000 
 2361              	.LVL189:
 2362              	.LEHE10:
 2363 0b9c 93040500 		mv	s1,a0
 2364 0ba0 630E0500 		beqz	a0,.L129
 649:src/kernel/riscv.cpp **** 
 2365              		.loc 1 649 70 discriminator 1
 2366 0ba4 13072000 		li	a4,2
 2367 0ba8 93060900 		mv	a3,s2
 2368 0bac 13060000 		li	a2,0
 2369 0bb0 93050000 		li	a1,0
 2370              	.LEHB11:
 2371 0bb4 97000000 		call	_ZN3TCBC1EPFvPvES0_Pmm@plt
 2371      E7800000 
 2372              	.LVL190:
 2373              	.LEHE11:
 2374              	.L129:
 651:src/kernel/riscv.cpp **** 
 2375              		.loc 1 651 5 is_stmt 1 discriminator 6
 653:src/kernel/riscv.cpp **** 
 2376              		.loc 1 653 5 discriminator 6
 2377              	.LBB142:
 2378 0bbc 638E040A 		beqz	s1,.L132
 2379              	.LBB143:
 656:src/kernel/riscv.cpp **** 
 2380              		.loc 1 656 9
 656:src/kernel/riscv.cpp **** 
 2381              		.loc 1 656 28 is_stmt 0
 2382 0bc0 97070000 		la	a5,_ZN3TCB9currentPCE
 2382      83B70700 
 2383 0bc8 83B70700 		ld	a5,0(a5)
 2384 0bcc 23B4F400 		sd	a5,8(s1)
 659:src/kernel/riscv.cpp **** 
 2385              		.loc 1 659 9 is_stmt 1
 659:src/kernel/riscv.cpp **** 
 2386              		.loc 1 659 59 is_stmt 0
 2387 0bd0 97070000 		la	a5,_ZN3TCB9currentSPE
 2387      83B70700 
 2388 0bd8 83B70700 		ld	a5,0(a5)
 659:src/kernel/riscv.cpp **** 
 2389              		.loc 1 659 52
 2390 0bdc B307F900 		add	a5,s2,a5
 659:src/kernel/riscv.cpp **** 
 2391              		.loc 1 659 71
 2392 0be0 17070000 		la	a4,_ZN3TCB7runningE
 2392      03370700 
 2393 0be8 83360700 		ld	a3,0(a4)
 659:src/kernel/riscv.cpp **** 
 2394              		.loc 1 659 92
 2395 0bec 83B68602 		ld	a3,40(a3)
GAS LISTING /tmp/ccnlBL9w.s 			page 69


 659:src/kernel/riscv.cpp **** 
 2396              		.loc 1 659 69
 2397 0bf0 B387D740 		sub	a5,a5,a3
 659:src/kernel/riscv.cpp **** 
 2398              		.loc 1 659 28
 2399 0bf4 23B0F400 		sd	a5,0(s1)
 662:src/kernel/riscv.cpp **** 
 2400              		.loc 1 662 9 is_stmt 1
 662:src/kernel/riscv.cpp **** 
 2401              		.loc 1 662 64 is_stmt 0
 2402 0bf8 83370700 		ld	a5,0(a4)
 2403 0bfc 03B58706 		ld	a0,104(a5)
 662:src/kernel/riscv.cpp **** 
 2404              		.loc 1 662 98
 2405 0c00 83B78702 		ld	a5,40(a5)
 662:src/kernel/riscv.cpp **** 
 2406              		.loc 1 662 75
 2407 0c04 3305F540 		sub	a0,a0,a5
 662:src/kernel/riscv.cpp **** 
 2408              		.loc 1 662 104
 2409 0c08 3309A900 		add	s2,s2,a0
 2410              	.LVL191:
 664:src/kernel/riscv.cpp **** 
 2411              		.loc 1 664 9 is_stmt 1
 664:src/kernel/riscv.cpp **** 
 2412              		.loc 1 664 28 is_stmt 0
 2413 0c0c 23B42407 		sd	s2,104(s1)
 666:src/kernel/riscv.cpp **** 
 2414              		.loc 1 666 9 is_stmt 1
 669:src/kernel/riscv.cpp **** 
 2415              		.loc 1 669 9
 669:src/kernel/riscv.cpp **** 
 2416              		.loc 1 669 43 is_stmt 0
 2417              	#APP
 2418              	# 669 "src/kernel/riscv.cpp" 1
 671:src/kernel/riscv.cpp **** 
 2419              		mv a3, a1
 2420              	# 0 "" 2
 2421              		.loc 1 671 9 is_stmt 1
 671:src/kernel/riscv.cpp **** 
 2422              		.loc 1 671 43 is_stmt 0
 2423              	# 671 "src/kernel/riscv.cpp" 1
 673:src/kernel/riscv.cpp **** 
 2424              		mv a5, a0
 2425              	# 0 "" 2
 2426              		.loc 1 673 9 is_stmt 1
 673:src/kernel/riscv.cpp **** 
 2427              		.loc 1 673 55 is_stmt 0
 2428              	# 673 "src/kernel/riscv.cpp" 1
 675:src/kernel/riscv.cpp **** 
 2429              		mv a0,s2
 2430              	# 0 "" 2
 2431              		.loc 1 675 9 is_stmt 1
 675:src/kernel/riscv.cpp **** 
 2432              		.loc 1 675 59 is_stmt 0
 2433              	# 675 "src/kernel/riscv.cpp" 1
 677:src/kernel/riscv.cpp **** 
GAS LISTING /tmp/ccnlBL9w.s 			page 70


 2434              		mv a1, s2
 2435              	# 0 "" 2
 2436              		.loc 1 677 9 is_stmt 1
 677:src/kernel/riscv.cpp **** 
 2437              		.loc 1 677 29 is_stmt 0
 2438              	# 677 "src/kernel/riscv.cpp" 1
 680:src/kernel/riscv.cpp **** 
 2439              		sd a0, 16(a1)
 2440              	# 0 "" 2
 2441              		.loc 1 680 9 is_stmt 1
 680:src/kernel/riscv.cpp **** 
 2442              		.loc 1 680 24 is_stmt 0
 2443              	# 680 "src/kernel/riscv.cpp" 1
 682:src/kernel/riscv.cpp **** 
 2444              		li a0, 0
 2445              	# 0 "" 2
 2446              		.loc 1 682 9 is_stmt 1
 682:src/kernel/riscv.cpp **** 
 2447              		.loc 1 682 29 is_stmt 0
 2448              	# 682 "src/kernel/riscv.cpp" 1
 684:src/kernel/riscv.cpp **** 
 2449              		sd a0, 80(a1)
 2450              	# 0 "" 2
 2451              		.loc 1 684 9 is_stmt 1
 684:src/kernel/riscv.cpp **** 
 2452              		.loc 1 684 42 is_stmt 0
 2453              	# 684 "src/kernel/riscv.cpp" 1
 686:src/kernel/riscv.cpp **** 
 2454              		mv a1,a3
 2455              	# 0 "" 2
 2456              		.loc 1 686 9 is_stmt 1
 686:src/kernel/riscv.cpp **** 
 2457              		.loc 1 686 42 is_stmt 0
 2458              	# 686 "src/kernel/riscv.cpp" 1
 688:src/kernel/riscv.cpp **** 
 2459              		mv a0,a5
 2460              	# 0 "" 2
 2461              		.loc 1 688 9 is_stmt 1
 688:src/kernel/riscv.cpp **** 
 2462              		.loc 1 688 38 is_stmt 0
 2463              	#NO_APP
 2464 0c34 83370700 		ld	a5,0(a4)
 2465 0c38 03B78703 		ld	a4,56(a5)
 688:src/kernel/riscv.cpp **** 
 2466              		.loc 1 688 22
 2467 0c3c 23BCE402 		sd	a4,56(s1)
 690:src/kernel/riscv.cpp **** 
 2468              		.loc 1 690 9 is_stmt 1
 690:src/kernel/riscv.cpp **** 
 2469              		.loc 1 690 41 is_stmt 0
 2470 0c40 83B70704 		ld	a5,64(a5)
 690:src/kernel/riscv.cpp **** 
 2471              		.loc 1 690 25
 2472 0c44 23B0F404 		sd	a5,64(s1)
 693:src/kernel/riscv.cpp **** 
 2473              		.loc 1 693 9 is_stmt 1
 693:src/kernel/riscv.cpp **** 
GAS LISTING /tmp/ccnlBL9w.s 			page 71


 2474              		.loc 1 693 23 is_stmt 0
 2475 0c48 13850400 		mv	a0,s1
 2476              	.LEHB12:
 2477 0c4c 97000000 		call	_ZN9Scheduler3putEP3TCB@plt
 2477      E7800000 
 2478              	.LVL192:
 2479              	.LEHE12:
 696:src/kernel/riscv.cpp ****     }else
 2480              		.loc 1 696 9 is_stmt 1
 2481              	.L130:
 2482              	.LBE143:
 2483              	.LBE142:
 700:src/kernel/riscv.cpp **** 
 2484              		.loc 1 700 5
 700:src/kernel/riscv.cpp **** 
 2485              		.loc 1 700 54 is_stmt 0
 2486              	#APP
 2487              	# 700 "src/kernel/riscv.cpp" 1
 702:src/kernel/riscv.cpp **** 
 2488              		mv a0, s1
 2489              	# 0 "" 2
 2490              		.loc 1 702 5 is_stmt 1
 702:src/kernel/riscv.cpp **** 
 2491              		.loc 1 702 28 is_stmt 0
 2492              	#NO_APP
 2493 0c58 97000000 		call	_ZN5RiscV16saveA0toSscratchEv
 2493      E7800000 
 2494              	.LVL193:
 704:src/kernel/riscv.cpp **** 
 2495              		.loc 1 704 1
 2496 0c60 83308101 		ld	ra,24(sp)
 2497              		.cfi_remember_state
 2498              		.cfi_restore 1
 2499 0c64 03340101 		ld	s0,16(sp)
 2500              		.cfi_restore 8
 2501              		.cfi_def_cfa 2, 32
 2502 0c68 83348100 		ld	s1,8(sp)
 2503              		.cfi_restore 9
 2504              	.LVL194:
 2505 0c6c 03390100 		ld	s2,0(sp)
 2506              		.cfi_restore 18
 2507 0c70 13010102 		addi	sp,sp,32
 2508              		.cfi_def_cfa_offset 0
 2509 0c74 67800000 		jr	ra
 2510              	.LVL195:
 2511              	.L132:
 2512              		.cfi_restore_state
 2513              	.LBB144:
 698:src/kernel/riscv.cpp **** 
 2514              		.loc 1 698 16
 2515 0c78 9304F0FF 		li	s1,-1
 2516              	.LVL196:
 2517 0c7c 6FF09FFD 		j	.L130
 2518              	.LVL197:
 2519              	.L133:
 2520 0c80 13090500 		mv	s2,a0
 2521              	.LVL198:
GAS LISTING /tmp/ccnlBL9w.s 			page 72


 2522              	.LBE144:
 649:src/kernel/riscv.cpp **** 
 2523              		.loc 1 649 70
 2524 0c84 13850400 		mv	a0,s1
 2525 0c88 97000000 		call	_ZN3TCBdlEPv@plt
 2525      E7800000 
 2526              	.LVL199:
 2527 0c90 13050900 		mv	a0,s2
 2528              	.LEHB13:
 2529 0c94 97000000 		call	_Unwind_Resume@plt
 2529      E7800000 
 2530              	.LVL200:
 2531              	.LEHE13:
 2532              		.cfi_endproc
 2533              	.LFE71:
 2534              		.section	.gcc_except_table
 2535              	.LLSDA71:
 2536 008e FF       		.byte	0xff
 2537 008f FF       		.byte	0xff
 2538 0090 03       		.byte	0x3
 2539 0091 34       		.byte	0x34
 2540 0092 00000000 		.4byte	.LEHB10-.LFB71
 2541 0096 00000000 		.4byte	.LEHE10-.LEHB10
 2542 009a 00000000 		.4byte	0
 2543 009e 00       		.byte	0
 2544 009f 00000000 		.4byte	.LEHB11-.LFB71
 2545 00a3 00000000 		.4byte	.LEHE11-.LEHB11
 2546 00a7 00000000 		.4byte	.L133-.LFB71
 2547 00ab 00       		.byte	0
 2548 00ac 00000000 		.4byte	.LEHB12-.LFB71
 2549 00b0 00000000 		.4byte	.LEHE12-.LEHB12
 2550 00b4 00000000 		.4byte	0
 2551 00b8 00       		.byte	0
 2552 00b9 00000000 		.4byte	.LEHB13-.LFB71
 2553 00bd 00000000 		.4byte	.LEHE13-.LEHB13
 2554 00c1 00000000 		.4byte	0
 2555 00c5 00       		.byte	0
 2556              		.text
 2558              		.section	.rodata.str1.8,"aMS",@progbits,1
 2559              		.align	3
 2560              	.LC0:
 2561 0000 73657063 		.string	"sepc: "
 2561      3A2000
 2562 0007 00       		.align	3
 2563              	.LC1:
 2564 0008 0A00     		.string	"\n"
 2565 000a 00000000 		.align	3
 2565      0000
 2566              	.LC2:
 2567 0010 496C6C65 		.string	"Illegal instruction\nExiting thread...\n"
 2567      67616C20 
 2567      696E7374 
 2567      72756374 
 2567      696F6E0A 
 2568 0037 00       		.align	3
 2569              	.LC3:
 2570 0038 4572726F 		.string	"Error: \n"
GAS LISTING /tmp/ccnlBL9w.s 			page 73


 2570      723A200A 
 2570      00
 2571 0041 00000000 		.align	3
 2571      000000
 2572              	.LC4:
 2573 0048 73636175 		.string	"scause: "
 2573      73653A20 
 2573      00
 2574 0051 00000000 		.align	3
 2574      000000
 2575              	.LC5:
 2576 0058 73747665 		.string	"stvec: "
 2576      633A2000 
 2577              		.align	3
 2578              	.LC6:
 2579 0060 45786974 		.string	"Exiting thread...\n"
 2579      696E6720 
 2579      74687265 
 2579      61642E2E 
 2579      2E0A00
 2580              		.text
 2581              		.align	2
 2582              		.globl	_ZN5RiscV20handleSupervisorTrapEv
 2584              	_ZN5RiscV20handleSupervisorTrapEv:
 2585              	.LFB49:
  48:src/kernel/riscv.cpp **** 
 2586              		.loc 1 48 36 is_stmt 1
 2587              		.cfi_startproc
 2588 0c9c 130101F9 		addi	sp,sp,-112
 2589              		.cfi_def_cfa_offset 112
 2590 0ca0 23341106 		sd	ra,104(sp)
 2591 0ca4 23308106 		sd	s0,96(sp)
 2592 0ca8 233C9104 		sd	s1,88(sp)
 2593              		.cfi_offset 1, -8
 2594              		.cfi_offset 8, -16
 2595              		.cfi_offset 9, -24
 2596 0cac 13040107 		addi	s0,sp,112
 2597              		.cfi_def_cfa 8, 0
  51:src/kernel/riscv.cpp ****     asm("csrr %[stval], stval" : [stval] "=r" (stval));
 2598              		.loc 1 51 5
  52:src/kernel/riscv.cpp ****     uint64 volatile scause = RiscV::r_scause();
 2599              		.loc 1 52 5
  52:src/kernel/riscv.cpp ****     uint64 volatile scause = RiscV::r_scause();
 2600              		.loc 1 52 55 is_stmt 0
 2601              	#APP
 2602              	# 52 "src/kernel/riscv.cpp" 1
 2603              		csrr s1, stval
 2604              	# 0 "" 2
 2605              	.LVL201:
  53:src/kernel/riscv.cpp **** 
 2606              		.loc 1 53 5 is_stmt 1
 2607              	#NO_APP
 2608              	.LBB145:
 2609              	.LBB146:
 169:src/kernel/../../h/kernel/riscv.hpp ****     asm("csrr %[scause], scause" : [scause] "=r" (scause));
 2610              		.loc 2 169 5
 170:src/kernel/../../h/kernel/riscv.hpp ****     return scause;
GAS LISTING /tmp/ccnlBL9w.s 			page 74


 2611              		.loc 2 170 5
 170:src/kernel/../../h/kernel/riscv.hpp ****     return scause;
 2612              		.loc 2 170 59 is_stmt 0
 2613              	#APP
 2614              	# 170 "src/kernel/../../h/kernel/riscv.hpp" 1
 2615              		csrr a5, scause
 2616              	# 0 "" 2
 2617              	#NO_APP
 2618 0cb8 2334F4FC 		sd	a5,-56(s0)
 171:src/kernel/../../h/kernel/riscv.hpp **** }
 2619              		.loc 2 171 5 is_stmt 1
 171:src/kernel/../../h/kernel/riscv.hpp **** }
 2620              		.loc 2 171 12 is_stmt 0
 2621 0cbc 833784FC 		ld	a5,-56(s0)
 2622              	.LBE146:
 2623              	.LBE145:
  53:src/kernel/riscv.cpp **** 
 2624              		.loc 1 53 46
 2625 0cc0 233CF4FC 		sd	a5,-40(s0)
  55:src/kernel/riscv.cpp **** 
 2626              		.loc 1 55 5 is_stmt 1
  55:src/kernel/riscv.cpp **** 
 2627              		.loc 1 55 71 is_stmt 0
 2628 0cc4 97070000 		la	a5,_ZN3TCB7runningE
 2628      83B70700 
 2629 0ccc 83B70700 		ld	a5,0(a5)
  55:src/kernel/riscv.cpp **** 
 2630              		.loc 1 55 83
 2631              	#APP
 2632              	# 55 "src/kernel/riscv.cpp" 1
 2633              		csrr a4, sscratch
 2634              	# 0 "" 2
 2635              	#NO_APP
 2636 0cd4 23B4E706 		sd	a4,104(a5)
  57:src/kernel/riscv.cpp **** 
 2637              		.loc 1 57 5 is_stmt 1
 2638              	.LBB147:
  57:src/kernel/riscv.cpp **** 
 2639              		.loc 1 57 15 is_stmt 0
 2640 0cd8 033784FD 		ld	a4,-40(s0)
  57:src/kernel/riscv.cpp **** 
 2641              		.loc 1 57 23
 2642 0cdc 93079000 		li	a5,9
 2643 0ce0 6306F710 		beq	a4,a5,.L137
  57:src/kernel/riscv.cpp **** 
 2644              		.loc 1 57 33 discriminator 2
 2645 0ce4 033784FD 		ld	a4,-40(s0)
  57:src/kernel/riscv.cpp **** 
 2646              		.loc 1 57 23 discriminator 2
 2647 0ce8 93078000 		li	a5,8
 2648 0cec 6300F710 		beq	a4,a5,.L137
 2649              	.LBE147:
 103:src/kernel/riscv.cpp **** 
 2650              		.loc 1 103 10 is_stmt 1
 2651              	.LBB202:
 2652              	.LBB148:
 103:src/kernel/riscv.cpp **** 
GAS LISTING /tmp/ccnlBL9w.s 			page 75


 2653              		.loc 1 103 20 is_stmt 0
 2654 0cf0 033784FD 		ld	a4,-40(s0)
 103:src/kernel/riscv.cpp **** 
 2655              		.loc 1 103 10
 2656 0cf4 9307F0FF 		li	a5,-1
 2657 0cf8 9397F703 		slli	a5,a5,63
 2658 0cfc 93871700 		addi	a5,a5,1
 2659 0d00 6304F726 		beq	a4,a5,.L167
 2660              	.LBE148:
 2661              	.LBE202:
 138:src/kernel/riscv.cpp ****         //save sstatus and sepc
 2662              		.loc 1 138 10 is_stmt 1
 2663              	.LBB203:
 2664              	.LBB189:
 2665              	.LBB149:
 138:src/kernel/riscv.cpp ****         //save sstatus and sepc
 2666              		.loc 1 138 20 is_stmt 0
 2667 0d04 033784FD 		ld	a4,-40(s0)
 138:src/kernel/riscv.cpp ****         //save sstatus and sepc
 2668              		.loc 1 138 10
 2669 0d08 9307F0FF 		li	a5,-1
 2670 0d0c 9397F703 		slli	a5,a5,63
 2671 0d10 93879700 		addi	a5,a5,9
 2672 0d14 6302F72E 		beq	a4,a5,.L168
 2673              	.LBE149:
 2674              	.LBE189:
 2675              	.LBE203:
 174:src/kernel/riscv.cpp ****         TCB* old = TCB::running;
 2676              		.loc 1 174 10 is_stmt 1
 2677              	.LBB204:
 2678              	.LBB190:
 2679              	.LBB173:
 2680              	.LBB150:
 174:src/kernel/riscv.cpp ****         TCB* old = TCB::running;
 2681              		.loc 1 174 20 is_stmt 0
 2682 0d18 033784FD 		ld	a4,-40(s0)
 174:src/kernel/riscv.cpp ****         TCB* old = TCB::running;
 2683              		.loc 1 174 10
 2684 0d1c 93072000 		li	a5,2
 2685 0d20 630AF736 		beq	a4,a5,.L169
 2686              	.LBB151:
 187:src/kernel/riscv.cpp ****         ConsoleUtil::printString("scause: ");
 2687              		.loc 1 187 9 is_stmt 1
 187:src/kernel/riscv.cpp ****         ConsoleUtil::printString("scause: ");
 2688              		.loc 1 187 33 is_stmt 0
 2689 0d24 17050000 		lla	a0,.LC3
 2689      13050500 
 2690 0d2c 97000000 		call	_ZN11ConsoleUtil11printStringEPKc@plt
 2690      E7800000 
 2691              	.LVL202:
 188:src/kernel/riscv.cpp ****         uint64  scause = RiscV::r_scause();
 2692              		.loc 1 188 9 is_stmt 1
 188:src/kernel/riscv.cpp ****         uint64  scause = RiscV::r_scause();
 2693              		.loc 1 188 33 is_stmt 0
 2694 0d34 17050000 		lla	a0,.LC4
 2694      13050500 
 2695 0d3c 97000000 		call	_ZN11ConsoleUtil11printStringEPKc@plt
GAS LISTING /tmp/ccnlBL9w.s 			page 76


 2695      E7800000 
 2696              	.LVL203:
 189:src/kernel/riscv.cpp ****         ConsoleUtil::printInt(scause);
 2697              		.loc 1 189 9 is_stmt 1
 2698              	.LBB152:
 2699              	.LBB153:
 169:src/kernel/../../h/kernel/riscv.hpp ****     asm("csrr %[scause], scause" : [scause] "=r" (scause));
 2700              		.loc 2 169 5
 170:src/kernel/../../h/kernel/riscv.hpp ****     return scause;
 2701              		.loc 2 170 5
 170:src/kernel/../../h/kernel/riscv.hpp ****     return scause;
 2702              		.loc 2 170 59 is_stmt 0
 2703              	#APP
 2704              	# 170 "src/kernel/../../h/kernel/riscv.hpp" 1
 2705              		csrr a5, scause
 2706              	# 0 "" 2
 2707              	#NO_APP
 2708 0d48 2338F4FC 		sd	a5,-48(s0)
 171:src/kernel/../../h/kernel/riscv.hpp **** }
 2709              		.loc 2 171 5 is_stmt 1
 171:src/kernel/../../h/kernel/riscv.hpp **** }
 2710              		.loc 2 171 12 is_stmt 0
 2711 0d4c 033504FD 		ld	a0,-48(s0)
 2712              	.LVL204:
 2713              	.LBE153:
 2714              	.LBE152:
 190:src/kernel/riscv.cpp ****         ConsoleUtil::printString("sepc: ");
 2715              		.loc 1 190 9 is_stmt 1
 190:src/kernel/riscv.cpp ****         ConsoleUtil::printString("sepc: ");
 2716              		.loc 1 190 30 is_stmt 0
 2717 0d50 13060000 		li	a2,0
 2718 0d54 9305A000 		li	a1,10
 2719 0d58 1B050500 		sext.w	a0,a0
 2720              	.LVL205:
 2721 0d5c 97000000 		call	_ZN11ConsoleUtil8printIntEiii@plt
 2721      E7800000 
 2722              	.LVL206:
 191:src/kernel/riscv.cpp ****         uint64 sepc = RiscV::r_sepc();
 2723              		.loc 1 191 9 is_stmt 1
 191:src/kernel/riscv.cpp ****         uint64 sepc = RiscV::r_sepc();
 2724              		.loc 1 191 33 is_stmt 0
 2725 0d64 17050000 		lla	a0,.LC0
 2725      13050500 
 2726 0d6c 97000000 		call	_ZN11ConsoleUtil11printStringEPKc@plt
 2726      E7800000 
 2727              	.LVL207:
 192:src/kernel/riscv.cpp ****         ConsoleUtil::printInt(sepc,16);
 2728              		.loc 1 192 9 is_stmt 1
 2729              	.LBB154:
 2730              	.LBB155:
 179:src/kernel/../../h/kernel/riscv.hpp ****     asm("csrr %[sepc], sepc" : [sepc] "=r" (sepc));
 2731              		.loc 2 179 5
 180:src/kernel/../../h/kernel/riscv.hpp ****     return sepc;
 2732              		.loc 2 180 5
 180:src/kernel/../../h/kernel/riscv.hpp ****     return sepc;
 2733              		.loc 2 180 51 is_stmt 0
 2734              	#APP
GAS LISTING /tmp/ccnlBL9w.s 			page 77


 2735              	# 180 "src/kernel/../../h/kernel/riscv.hpp" 1
 181:src/kernel/../../h/kernel/riscv.hpp **** }
 2736              		csrr a0, sepc
 2737              	# 0 "" 2
 2738              		.loc 2 181 5 is_stmt 1
 2739              	#NO_APP
 2740              	.LBE155:
 2741              	.LBE154:
 193:src/kernel/riscv.cpp ****         ConsoleUtil::printString("\n");
 2742              		.loc 1 193 9
 193:src/kernel/riscv.cpp ****         ConsoleUtil::printString("\n");
 2743              		.loc 1 193 30 is_stmt 0
 2744 0d78 13060000 		li	a2,0
 2745 0d7c 93050001 		li	a1,16
 2746 0d80 1B050500 		sext.w	a0,a0
 2747 0d84 97000000 		call	_ZN11ConsoleUtil8printIntEiii@plt
 2747      E7800000 
 2748              	.LVL208:
 194:src/kernel/riscv.cpp ****         ConsoleUtil::print("stvec: ",stval,"\n");
 2749              		.loc 1 194 9 is_stmt 1
 194:src/kernel/riscv.cpp ****         ConsoleUtil::print("stvec: ",stval,"\n");
 2750              		.loc 1 194 33 is_stmt 0
 2751 0d8c 17050000 		lla	a0,.LC1
 2751      13050500 
 2752 0d94 97000000 		call	_ZN11ConsoleUtil11printStringEPKc@plt
 2752      E7800000 
 2753              	.LVL209:
 195:src/kernel/riscv.cpp ****         TCB* old = TCB::running;
 2754              		.loc 1 195 9 is_stmt 1
 195:src/kernel/riscv.cpp ****         TCB* old = TCB::running;
 2755              		.loc 1 195 27 is_stmt 0
 2756 0d9c 93060001 		li	a3,16
 2757 0da0 17060000 		lla	a2,.LC1
 2757      13060600 
 2758 0da8 9B850400 		sext.w	a1,s1
 2759 0dac 17050000 		lla	a0,.LC5
 2759      13050500 
 2760 0db4 97000000 		call	_ZN11ConsoleUtil5printEPKciS1_i@plt
 2760      E7800000 
 2761              	.LVL210:
 196:src/kernel/riscv.cpp ****         old->status = TCB::Status::FINISHED;
 2762              		.loc 1 196 9 is_stmt 1
 196:src/kernel/riscv.cpp ****         old->status = TCB::Status::FINISHED;
 2763              		.loc 1 196 14 is_stmt 0
 2764 0dbc 97070000 		la	a5,_ZN3TCB7runningE
 2764      83B70700 
 2765 0dc4 83B70700 		ld	a5,0(a5)
 2766              	.LVL211:
 197:src/kernel/riscv.cpp ****         ConsoleUtil::printString("Exiting thread...\n");
 2767              		.loc 1 197 9 is_stmt 1
 197:src/kernel/riscv.cpp ****         ConsoleUtil::printString("Exiting thread...\n");
 2768              		.loc 1 197 21 is_stmt 0
 2769 0dc8 13072000 		li	a4,2
 2770 0dcc 23A8E700 		sw	a4,16(a5)
 198:src/kernel/riscv.cpp ****         TCB::dispatch();
 2771              		.loc 1 198 9 is_stmt 1
 198:src/kernel/riscv.cpp ****         TCB::dispatch();
GAS LISTING /tmp/ccnlBL9w.s 			page 78


 2772              		.loc 1 198 33 is_stmt 0
 2773 0dd0 17050000 		lla	a0,.LC6
 2773      13050500 
 2774 0dd8 97000000 		call	_ZN11ConsoleUtil11printStringEPKc@plt
 2774      E7800000 
 2775              	.LVL212:
 199:src/kernel/riscv.cpp ****     }
 2776              		.loc 1 199 9 is_stmt 1
 199:src/kernel/riscv.cpp ****     }
 2777              		.loc 1 199 22 is_stmt 0
 2778 0de0 97000000 		call	_ZN3TCB8dispatchEv@plt
 2778      E7800000 
 2779              	.LVL213:
 2780 0de8 6F000008 		j	.L160
 2781              	.L137:
 2782              	.LBE151:
 2783              	.LBE150:
 2784              	.LBE173:
 2785              	.LBE190:
 2786              	.LBB191:
  61:src/kernel/riscv.cpp ****         uint64 volatile sepc = RiscV::r_sepc()+4;
 2787              		.loc 1 61 9 is_stmt 1
 2788              	.LBB192:
 2789              	.LBB193:
 199:src/kernel/../../h/kernel/riscv.hpp ****     asm("csrr %[sstatus], sstatus" : [sstatus] "=r" (sstatus));
 2790              		.loc 2 199 5
 200:src/kernel/../../h/kernel/riscv.hpp ****     return sstatus;
 2791              		.loc 2 200 5
 200:src/kernel/../../h/kernel/riscv.hpp ****     return sstatus;
 2792              		.loc 2 200 63 is_stmt 0
 2793              	#APP
 2794              	# 200 "src/kernel/../../h/kernel/riscv.hpp" 1
 2795              		csrr a5, sstatus
 2796              	# 0 "" 2
 2797              	.LVL214:
 201:src/kernel/../../h/kernel/riscv.hpp **** }
 2798              		.loc 2 201 5 is_stmt 1
 2799              	#NO_APP
 2800              	.LBE193:
 2801              	.LBE192:
  61:src/kernel/riscv.cpp ****         uint64 volatile sepc = RiscV::r_sepc()+4;
 2802              		.loc 1 61 52 is_stmt 0
 2803 0df0 233CF4F8 		sd	a5,-104(s0)
  62:src/kernel/riscv.cpp ****         TCB::running->sepc = sepc;
 2804              		.loc 1 62 9 is_stmt 1
 2805              	.LBB194:
 2806              	.LBB195:
 179:src/kernel/../../h/kernel/riscv.hpp ****     asm("csrr %[sepc], sepc" : [sepc] "=r" (sepc));
 2807              		.loc 2 179 5
 180:src/kernel/../../h/kernel/riscv.hpp ****     return sepc;
 2808              		.loc 2 180 5
 180:src/kernel/../../h/kernel/riscv.hpp ****     return sepc;
 2809              		.loc 2 180 51 is_stmt 0
 2810              	#APP
 2811              	# 180 "src/kernel/../../h/kernel/riscv.hpp" 1
 2812              		csrr a5, sepc
 2813              	# 0 "" 2
GAS LISTING /tmp/ccnlBL9w.s 			page 79


 2814              	.LVL215:
 181:src/kernel/../../h/kernel/riscv.hpp **** }
 2815              		.loc 2 181 5 is_stmt 1
 2816              	#NO_APP
 2817              	.LBE195:
 2818              	.LBE194:
  62:src/kernel/riscv.cpp ****         TCB::running->sepc = sepc;
 2819              		.loc 1 62 47 is_stmt 0
 2820 0df8 93874700 		addi	a5,a5,4
  62:src/kernel/riscv.cpp ****         TCB::running->sepc = sepc;
 2821              		.loc 1 62 48
 2822 0dfc 2330F4FA 		sd	a5,-96(s0)
  63:src/kernel/riscv.cpp ****         TCB::running->sstatus = sstatus;
 2823              		.loc 1 63 9 is_stmt 1
  63:src/kernel/riscv.cpp ****         TCB::running->sstatus = sstatus;
 2824              		.loc 1 63 23 is_stmt 0
 2825 0e00 97070000 		la	a5,_ZN3TCB7runningE
 2825      83B70700 
 2826 0e08 83B70700 		ld	a5,0(a5)
  63:src/kernel/riscv.cpp ****         TCB::running->sstatus = sstatus;
 2827              		.loc 1 63 28
 2828 0e0c 033704FA 		ld	a4,-96(s0)
 2829 0e10 23BCE702 		sd	a4,56(a5)
  64:src/kernel/riscv.cpp **** 
 2830              		.loc 1 64 9 is_stmt 1
  64:src/kernel/riscv.cpp **** 
 2831              		.loc 1 64 31 is_stmt 0
 2832 0e14 033784F9 		ld	a4,-104(s0)
 2833 0e18 23B0E704 		sd	a4,64(a5)
  67:src/kernel/riscv.cpp ****         asm("mv %[syscallID], a0" : [syscallID] "=r" (syscallID));
 2834              		.loc 1 67 9 is_stmt 1
  68:src/kernel/riscv.cpp **** 
 2835              		.loc 1 68 9
  68:src/kernel/riscv.cpp **** 
 2836              		.loc 1 68 66 is_stmt 0
 2837              	#APP
 2838              	# 68 "src/kernel/riscv.cpp" 1
 2839              		mv a5, a0
 2840              	# 0 "" 2
 2841              	.LVL216:
  70:src/kernel/riscv.cpp ****             case 0x01 : executeMemAllocSyscall();break;
 2842              		.loc 1 70 9 is_stmt 1
 2843              	#NO_APP
 2844 0e20 13071006 		li	a4,97
 2845 0e24 6364F702 		bgtu	a5,a4,.L140
 2846 0e28 93972700 		slli	a5,a5,2
 2847              	.LVL217:
 2848 0e2c 17070000 		lla	a4,.L142
 2848      13070700 
 2849 0e34 B387E700 		add	a5,a5,a4
 2850 0e38 83A70700 		lw	a5,0(a5)
 2851 0e3c B387E700 		add	a5,a5,a4
 2852 0e40 67800700 		jr	a5
 2853              		.section	.rodata
 2854              		.align	2
 2855              		.align	2
 2856              	.L142:
GAS LISTING /tmp/ccnlBL9w.s 			page 80


 2857 0000 00000000 		.word	.L140-.L142
 2858 0004 00000000 		.word	.L159-.L142
 2859 0008 00000000 		.word	.L158-.L142
 2860 000c 00000000 		.word	.L140-.L142
 2861 0010 00000000 		.word	.L140-.L142
 2862 0014 00000000 		.word	.L140-.L142
 2863 0018 00000000 		.word	.L140-.L142
 2864 001c 00000000 		.word	.L140-.L142
 2865 0020 00000000 		.word	.L140-.L142
 2866 0024 00000000 		.word	.L140-.L142
 2867 0028 00000000 		.word	.L140-.L142
 2868 002c 00000000 		.word	.L140-.L142
 2869 0030 00000000 		.word	.L140-.L142
 2870 0034 00000000 		.word	.L140-.L142
 2871 0038 00000000 		.word	.L140-.L142
 2872 003c 00000000 		.word	.L140-.L142
 2873 0040 00000000 		.word	.L140-.L142
 2874 0044 00000000 		.word	.L157-.L142
 2875 0048 00000000 		.word	.L156-.L142
 2876 004c 00000000 		.word	.L155-.L142
 2877 0050 00000000 		.word	.L154-.L142
 2878 0054 00000000 		.word	.L153-.L142
 2879 0058 00000000 		.word	.L140-.L142
 2880 005c 00000000 		.word	.L140-.L142
 2881 0060 00000000 		.word	.L140-.L142
 2882 0064 00000000 		.word	.L140-.L142
 2883 0068 00000000 		.word	.L140-.L142
 2884 006c 00000000 		.word	.L140-.L142
 2885 0070 00000000 		.word	.L140-.L142
 2886 0074 00000000 		.word	.L140-.L142
 2887 0078 00000000 		.word	.L140-.L142
 2888 007c 00000000 		.word	.L140-.L142
 2889 0080 00000000 		.word	.L140-.L142
 2890 0084 00000000 		.word	.L152-.L142
 2891 0088 00000000 		.word	.L151-.L142
 2892 008c 00000000 		.word	.L150-.L142
 2893 0090 00000000 		.word	.L149-.L142
 2894 0094 00000000 		.word	.L140-.L142
 2895 0098 00000000 		.word	.L140-.L142
 2896 009c 00000000 		.word	.L140-.L142
 2897 00a0 00000000 		.word	.L140-.L142
 2898 00a4 00000000 		.word	.L140-.L142
 2899 00a8 00000000 		.word	.L140-.L142
 2900 00ac 00000000 		.word	.L140-.L142
 2901 00b0 00000000 		.word	.L140-.L142
 2902 00b4 00000000 		.word	.L140-.L142
 2903 00b8 00000000 		.word	.L140-.L142
 2904 00bc 00000000 		.word	.L140-.L142
 2905 00c0 00000000 		.word	.L140-.L142
 2906 00c4 00000000 		.word	.L148-.L142
 2907 00c8 00000000 		.word	.L140-.L142
 2908 00cc 00000000 		.word	.L140-.L142
 2909 00d0 00000000 		.word	.L140-.L142
 2910 00d4 00000000 		.word	.L140-.L142
 2911 00d8 00000000 		.word	.L140-.L142
 2912 00dc 00000000 		.word	.L140-.L142
 2913 00e0 00000000 		.word	.L140-.L142
GAS LISTING /tmp/ccnlBL9w.s 			page 81


 2914 00e4 00000000 		.word	.L140-.L142
 2915 00e8 00000000 		.word	.L140-.L142
 2916 00ec 00000000 		.word	.L140-.L142
 2917 00f0 00000000 		.word	.L140-.L142
 2918 00f4 00000000 		.word	.L140-.L142
 2919 00f8 00000000 		.word	.L140-.L142
 2920 00fc 00000000 		.word	.L140-.L142
 2921 0100 00000000 		.word	.L140-.L142
 2922 0104 00000000 		.word	.L147-.L142
 2923 0108 00000000 		.word	.L146-.L142
 2924 010c 00000000 		.word	.L145-.L142
 2925 0110 00000000 		.word	.L140-.L142
 2926 0114 00000000 		.word	.L140-.L142
 2927 0118 00000000 		.word	.L140-.L142
 2928 011c 00000000 		.word	.L140-.L142
 2929 0120 00000000 		.word	.L140-.L142
 2930 0124 00000000 		.word	.L140-.L142
 2931 0128 00000000 		.word	.L140-.L142
 2932 012c 00000000 		.word	.L140-.L142
 2933 0130 00000000 		.word	.L140-.L142
 2934 0134 00000000 		.word	.L140-.L142
 2935 0138 00000000 		.word	.L140-.L142
 2936 013c 00000000 		.word	.L140-.L142
 2937 0140 00000000 		.word	.L140-.L142
 2938 0144 00000000 		.word	.L144-.L142
 2939 0148 00000000 		.word	.L143-.L142
 2940 014c 00000000 		.word	.L140-.L142
 2941 0150 00000000 		.word	.L140-.L142
 2942 0154 00000000 		.word	.L140-.L142
 2943 0158 00000000 		.word	.L140-.L142
 2944 015c 00000000 		.word	.L140-.L142
 2945 0160 00000000 		.word	.L140-.L142
 2946 0164 00000000 		.word	.L140-.L142
 2947 0168 00000000 		.word	.L140-.L142
 2948 016c 00000000 		.word	.L140-.L142
 2949 0170 00000000 		.word	.L140-.L142
 2950 0174 00000000 		.word	.L140-.L142
 2951 0178 00000000 		.word	.L140-.L142
 2952 017c 00000000 		.word	.L140-.L142
 2953 0180 00000000 		.word	.L140-.L142
 2954 0184 00000000 		.word	.L141-.L142
 2955              		.text
 2956              	.L159:
  71:src/kernel/riscv.cpp ****             case 0x02 : executeMemFreeSyscall();break;
 2957              		.loc 1 71 13
  71:src/kernel/riscv.cpp ****             case 0x02 : executeMemFreeSyscall();break;
 2958              		.loc 1 71 25
  71:src/kernel/riscv.cpp ****             case 0x02 : executeMemFreeSyscall();break;
 2959              		.loc 1 71 47 is_stmt 0
 2960 0e44 97000000 		call	_ZN5RiscV22executeMemAllocSyscallEv
 2960      E7800000 
 2961              	.LVL218:
  71:src/kernel/riscv.cpp ****             case 0x02 : executeMemFreeSyscall();break;
 2962              		.loc 1 71 50 is_stmt 1
 2963              	.L140:
  98:src/kernel/riscv.cpp ****         RiscV::w_sepc(TCB::running->sepc);
 2964              		.loc 1 98 9
GAS LISTING /tmp/ccnlBL9w.s 			page 82


  98:src/kernel/riscv.cpp ****         RiscV::w_sepc(TCB::running->sepc);
 2965              		.loc 1 98 25 is_stmt 0
 2966 0e4c 97070000 		la	a5,_ZN3TCB7runningE
 2966      83B70700 
 2967 0e54 83B70700 		ld	a5,0(a5)
 2968 0e58 03B70704 		ld	a4,64(a5)
 2969              	.LVL219:
 2970              	.LBB196:
 2971              	.LBB197:
 195:src/kernel/../../h/kernel/riscv.hpp **** }
 2972              		.loc 2 195 5 is_stmt 1
 195:src/kernel/../../h/kernel/riscv.hpp **** }
 2973              		.loc 2 195 64 is_stmt 0
 2974              	#APP
 2975              	# 195 "src/kernel/../../h/kernel/riscv.hpp" 1
 2976              		csrw sstatus, a4
 2977              	# 0 "" 2
 2978              	.LVL220:
 2979              	#NO_APP
 2980              	.LBE197:
 2981              	.LBE196:
  99:src/kernel/riscv.cpp ****     }
 2982              		.loc 1 99 9 is_stmt 1
  99:src/kernel/riscv.cpp ****     }
 2983              		.loc 1 99 22 is_stmt 0
 2984 0e60 83B78703 		ld	a5,56(a5)
 2985              	.LVL221:
 2986              	.LBB198:
 2987              	.LBB199:
 185:src/kernel/../../h/kernel/riscv.hpp **** }
 2988              		.loc 2 185 5 is_stmt 1
 185:src/kernel/../../h/kernel/riscv.hpp **** }
 2989              		.loc 2 185 52 is_stmt 0
 2990              	#APP
 2991              	# 185 "src/kernel/../../h/kernel/riscv.hpp" 1
 2992              		csrw sepc, a5
 2993              	# 0 "" 2
 2994              	.LVL222:
 2995              	#NO_APP
 2996              	.L160:
 2997              	.LBE199:
 2998              	.LBE198:
 2999              	.LBE191:
 3000              	.LBE204:
 202:src/kernel/riscv.cpp **** }
 3001              		.loc 1 202 5 is_stmt 1
 202:src/kernel/riscv.cpp **** }
 3002              		.loc 1 202 41 is_stmt 0
 3003 0e68 97000000 		call	_ZN5RiscV29jumpToDesignatedPrivilegeModeEv
 3003      E7800000 
 3004              	.LVL223:
 203:src/kernel/riscv.cpp **** 
 3005              		.loc 1 203 1
 3006 0e70 83308106 		ld	ra,104(sp)
 3007              		.cfi_remember_state
 3008              		.cfi_restore 1
 3009 0e74 03340106 		ld	s0,96(sp)
GAS LISTING /tmp/ccnlBL9w.s 			page 83


 3010              		.cfi_restore 8
 3011              		.cfi_def_cfa 2, 112
 3012 0e78 83348105 		ld	s1,88(sp)
 3013              		.cfi_restore 9
 3014              	.LVL224:
 3015 0e7c 13010107 		addi	sp,sp,112
 3016              		.cfi_def_cfa_offset 0
 3017 0e80 67800000 		jr	ra
 3018              	.LVL225:
 3019              	.L158:
 3020              		.cfi_restore_state
 3021              	.LBB205:
 3022              	.LBB200:
  72:src/kernel/riscv.cpp ****             case 0x11 : executeThreadCreateSyscall();break;
 3023              		.loc 1 72 13 is_stmt 1
  72:src/kernel/riscv.cpp ****             case 0x11 : executeThreadCreateSyscall();break;
 3024              		.loc 1 72 25
  72:src/kernel/riscv.cpp ****             case 0x11 : executeThreadCreateSyscall();break;
 3025              		.loc 1 72 46 is_stmt 0
 3026 0e84 97000000 		call	_ZN5RiscV21executeMemFreeSyscallEv
 3026      E7800000 
 3027              	.LVL226:
  72:src/kernel/riscv.cpp ****             case 0x11 : executeThreadCreateSyscall();break;
 3028              		.loc 1 72 49 is_stmt 1
 3029 0e8c 6FF01FFC 		j	.L140
 3030              	.L157:
  73:src/kernel/riscv.cpp ****             case 0x12 : executeThreadExitSyscall();break;
 3031              		.loc 1 73 13
  73:src/kernel/riscv.cpp ****             case 0x12 : executeThreadExitSyscall();break;
 3032              		.loc 1 73 25
  73:src/kernel/riscv.cpp ****             case 0x12 : executeThreadExitSyscall();break;
 3033              		.loc 1 73 51 is_stmt 0
 3034 0e90 97000000 		call	_ZN5RiscV26executeThreadCreateSyscallEv
 3034      E7800000 
 3035              	.LVL227:
  73:src/kernel/riscv.cpp ****             case 0x12 : executeThreadExitSyscall();break;
 3036              		.loc 1 73 54 is_stmt 1
 3037 0e98 6FF05FFB 		j	.L140
 3038              	.L156:
  74:src/kernel/riscv.cpp ****             case 0x13 : executeThreadDispatchSyscall();break;
 3039              		.loc 1 74 13
  74:src/kernel/riscv.cpp ****             case 0x13 : executeThreadDispatchSyscall();break;
 3040              		.loc 1 74 25
  74:src/kernel/riscv.cpp ****             case 0x13 : executeThreadDispatchSyscall();break;
 3041              		.loc 1 74 49 is_stmt 0
 3042 0e9c 97000000 		call	_ZN5RiscV24executeThreadExitSyscallEv
 3042      E7800000 
 3043              	.LVL228:
  74:src/kernel/riscv.cpp ****             case 0x13 : executeThreadDispatchSyscall();break;
 3044              		.loc 1 74 52 is_stmt 1
 3045 0ea4 6FF09FFA 		j	.L140
 3046              	.L155:
  75:src/kernel/riscv.cpp ****             case 0x14 : executeThreadAttachBodySyscall();break;
 3047              		.loc 1 75 13
  75:src/kernel/riscv.cpp ****             case 0x14 : executeThreadAttachBodySyscall();break;
 3048              		.loc 1 75 25
  75:src/kernel/riscv.cpp ****             case 0x14 : executeThreadAttachBodySyscall();break;
GAS LISTING /tmp/ccnlBL9w.s 			page 84


 3049              		.loc 1 75 53 is_stmt 0
 3050 0ea8 97000000 		call	_ZN5RiscV28executeThreadDispatchSyscallEv
 3050      E7800000 
 3051              	.LVL229:
  75:src/kernel/riscv.cpp ****             case 0x14 : executeThreadAttachBodySyscall();break;
 3052              		.loc 1 75 56 is_stmt 1
 3053 0eb0 6FF0DFF9 		j	.L140
 3054              	.L154:
  76:src/kernel/riscv.cpp ****             case 0x15 : executeThreadStartSyscall();break;
 3055              		.loc 1 76 13
  76:src/kernel/riscv.cpp ****             case 0x15 : executeThreadStartSyscall();break;
 3056              		.loc 1 76 25
  76:src/kernel/riscv.cpp ****             case 0x15 : executeThreadStartSyscall();break;
 3057              		.loc 1 76 55 is_stmt 0
 3058 0eb4 97000000 		call	_ZN5RiscV30executeThreadAttachBodySyscallEv
 3058      E7800000 
 3059              	.LVL230:
  76:src/kernel/riscv.cpp ****             case 0x15 : executeThreadStartSyscall();break;
 3060              		.loc 1 76 58 is_stmt 1
 3061 0ebc 6FF01FF9 		j	.L140
 3062              	.L153:
  77:src/kernel/riscv.cpp ****             case 0x21 : executeSemOpenSyscall();break;
 3063              		.loc 1 77 13
  77:src/kernel/riscv.cpp ****             case 0x21 : executeSemOpenSyscall();break;
 3064              		.loc 1 77 25
  77:src/kernel/riscv.cpp ****             case 0x21 : executeSemOpenSyscall();break;
 3065              		.loc 1 77 50 is_stmt 0
 3066 0ec0 97000000 		call	_ZN5RiscV25executeThreadStartSyscallEv
 3066      E7800000 
 3067              	.LVL231:
  77:src/kernel/riscv.cpp ****             case 0x21 : executeSemOpenSyscall();break;
 3068              		.loc 1 77 53 is_stmt 1
 3069 0ec8 6FF05FF8 		j	.L140
 3070              	.L152:
  78:src/kernel/riscv.cpp ****             case 0x22 : executeSemCloseSyscall();break;
 3071              		.loc 1 78 13
  78:src/kernel/riscv.cpp ****             case 0x22 : executeSemCloseSyscall();break;
 3072              		.loc 1 78 25
  78:src/kernel/riscv.cpp ****             case 0x22 : executeSemCloseSyscall();break;
 3073              		.loc 1 78 46 is_stmt 0
 3074 0ecc 97000000 		call	_ZN5RiscV21executeSemOpenSyscallEv
 3074      E7800000 
 3075              	.LVL232:
  78:src/kernel/riscv.cpp ****             case 0x22 : executeSemCloseSyscall();break;
 3076              		.loc 1 78 49 is_stmt 1
 3077 0ed4 6FF09FF7 		j	.L140
 3078              	.L151:
  79:src/kernel/riscv.cpp ****             case 0x23 : executeSemWaitSyscall();break;
 3079              		.loc 1 79 13
  79:src/kernel/riscv.cpp ****             case 0x23 : executeSemWaitSyscall();break;
 3080              		.loc 1 79 25
  79:src/kernel/riscv.cpp ****             case 0x23 : executeSemWaitSyscall();break;
 3081              		.loc 1 79 47 is_stmt 0
 3082 0ed8 97000000 		call	_ZN5RiscV22executeSemCloseSyscallEv
 3082      E7800000 
 3083              	.LVL233:
  79:src/kernel/riscv.cpp ****             case 0x23 : executeSemWaitSyscall();break;
GAS LISTING /tmp/ccnlBL9w.s 			page 85


 3084              		.loc 1 79 50 is_stmt 1
 3085 0ee0 6FF0DFF6 		j	.L140
 3086              	.L150:
  80:src/kernel/riscv.cpp ****             case 0x24 : executeSemSignalSyscall();break;
 3087              		.loc 1 80 13
  80:src/kernel/riscv.cpp ****             case 0x24 : executeSemSignalSyscall();break;
 3088              		.loc 1 80 25
  80:src/kernel/riscv.cpp ****             case 0x24 : executeSemSignalSyscall();break;
 3089              		.loc 1 80 46 is_stmt 0
 3090 0ee4 97000000 		call	_ZN5RiscV21executeSemWaitSyscallEv
 3090      E7800000 
 3091              	.LVL234:
  80:src/kernel/riscv.cpp ****             case 0x24 : executeSemSignalSyscall();break;
 3092              		.loc 1 80 49 is_stmt 1
 3093 0eec 6FF01FF6 		j	.L140
 3094              	.L149:
  81:src/kernel/riscv.cpp ****             case 0x31 : executeTimeSleepSyscall();break;
 3095              		.loc 1 81 13
  81:src/kernel/riscv.cpp ****             case 0x31 : executeTimeSleepSyscall();break;
 3096              		.loc 1 81 25
  81:src/kernel/riscv.cpp ****             case 0x31 : executeTimeSleepSyscall();break;
 3097              		.loc 1 81 48 is_stmt 0
 3098 0ef0 97000000 		call	_ZN5RiscV23executeSemSignalSyscallEv
 3098      E7800000 
 3099              	.LVL235:
  81:src/kernel/riscv.cpp ****             case 0x31 : executeTimeSleepSyscall();break;
 3100              		.loc 1 81 51 is_stmt 1
 3101 0ef8 6FF05FF5 		j	.L140
 3102              	.L148:
  82:src/kernel/riscv.cpp ****             case 0x41 : executeGetcSyscall();break;
 3103              		.loc 1 82 13
  82:src/kernel/riscv.cpp ****             case 0x41 : executeGetcSyscall();break;
 3104              		.loc 1 82 25
  82:src/kernel/riscv.cpp ****             case 0x41 : executeGetcSyscall();break;
 3105              		.loc 1 82 48 is_stmt 0
 3106 0efc 97000000 		call	_ZN5RiscV23executeTimeSleepSyscallEv
 3106      E7800000 
 3107              	.LVL236:
  82:src/kernel/riscv.cpp ****             case 0x41 : executeGetcSyscall();break;
 3108              		.loc 1 82 51 is_stmt 1
 3109 0f04 6FF09FF4 		j	.L140
 3110              	.L147:
  83:src/kernel/riscv.cpp ****             case 0x42 : executePutcSyscall();break;
 3111              		.loc 1 83 13
  83:src/kernel/riscv.cpp ****             case 0x42 : executePutcSyscall();break;
 3112              		.loc 1 83 25
  83:src/kernel/riscv.cpp ****             case 0x42 : executePutcSyscall();break;
 3113              		.loc 1 83 43 is_stmt 0
 3114 0f08 97000000 		call	_ZN5RiscV18executeGetcSyscallEv
 3114      E7800000 
 3115              	.LVL237:
  83:src/kernel/riscv.cpp ****             case 0x42 : executePutcSyscall();break;
 3116              		.loc 1 83 46 is_stmt 1
 3117 0f10 6FF0DFF3 		j	.L140
 3118              	.L146:
  84:src/kernel/riscv.cpp ****             case 0x43 : executePutcUtilSyscall();break;
 3119              		.loc 1 84 13
GAS LISTING /tmp/ccnlBL9w.s 			page 86


  84:src/kernel/riscv.cpp ****             case 0x43 : executePutcUtilSyscall();break;
 3120              		.loc 1 84 25
  84:src/kernel/riscv.cpp ****             case 0x43 : executePutcUtilSyscall();break;
 3121              		.loc 1 84 43 is_stmt 0
 3122 0f14 97000000 		call	_ZN5RiscV18executePutcSyscallEv
 3122      E7800000 
 3123              	.LVL238:
  84:src/kernel/riscv.cpp ****             case 0x43 : executePutcUtilSyscall();break;
 3124              		.loc 1 84 46 is_stmt 1
 3125 0f1c 6FF01FF3 		j	.L140
 3126              	.L145:
  85:src/kernel/riscv.cpp ****             case 0x51 : executeThreadFreeSyscall();break;
 3127              		.loc 1 85 13
  85:src/kernel/riscv.cpp ****             case 0x51 : executeThreadFreeSyscall();break;
 3128              		.loc 1 85 25
  85:src/kernel/riscv.cpp ****             case 0x51 : executeThreadFreeSyscall();break;
 3129              		.loc 1 85 47 is_stmt 0
 3130 0f20 97000000 		call	_ZN5RiscV22executePutcUtilSyscallEv
 3130      E7800000 
 3131              	.LVL239:
  85:src/kernel/riscv.cpp ****             case 0x51 : executeThreadFreeSyscall();break;
 3132              		.loc 1 85 50 is_stmt 1
 3133 0f28 6FF05FF2 		j	.L140
 3134              	.L144:
  86:src/kernel/riscv.cpp ****             case 0x52 : executeSemaphoreFreeSyscall();break;
 3135              		.loc 1 86 13
  86:src/kernel/riscv.cpp ****             case 0x52 : executeSemaphoreFreeSyscall();break;
 3136              		.loc 1 86 25
  86:src/kernel/riscv.cpp ****             case 0x52 : executeSemaphoreFreeSyscall();break;
 3137              		.loc 1 86 49 is_stmt 0
 3138 0f2c 97000000 		call	_ZN5RiscV24executeThreadFreeSyscallEv
 3138      E7800000 
 3139              	.LVL240:
  86:src/kernel/riscv.cpp ****             case 0x52 : executeSemaphoreFreeSyscall();break;
 3140              		.loc 1 86 52 is_stmt 1
 3141 0f34 6FF09FF1 		j	.L140
 3142              	.L143:
  87:src/kernel/riscv.cpp ****             //in this case we need to save SP and PC at this point so that newly created thread
 3143              		.loc 1 87 13
  87:src/kernel/riscv.cpp ****             //in this case we need to save SP and PC at this point so that newly created thread
 3144              		.loc 1 87 25
  87:src/kernel/riscv.cpp ****             //in this case we need to save SP and PC at this point so that newly created thread
 3145              		.loc 1 87 52 is_stmt 0
 3146 0f38 97000000 		call	_ZN5RiscV27executeSemaphoreFreeSyscallEv
 3146      E7800000 
 3147              	.LVL241:
  87:src/kernel/riscv.cpp ****             //in this case we need to save SP and PC at this point so that newly created thread
 3148              		.loc 1 87 55 is_stmt 1
 3149 0f40 6FF0DFF0 		j	.L140
 3150              	.L141:
  91:src/kernel/riscv.cpp ****                         RiscV::getPC();
 3151              		.loc 1 91 13
  91:src/kernel/riscv.cpp ****                         RiscV::getPC();
 3152              		.loc 1 91 25
  91:src/kernel/riscv.cpp ****                         RiscV::getPC();
 3153              		.loc 1 91 72 is_stmt 0
 3154              	#APP
GAS LISTING /tmp/ccnlBL9w.s 			page 87


 3155              	# 91 "src/kernel/riscv.cpp" 1
 3156              		mv a5, sp
 3157              	# 0 "" 2
 3158              	#NO_APP
 3159 0f48 17070000 		la	a4,_ZN3TCB9currentSPE
 3159      03370700 
 3160 0f50 2330F700 		sd	a5,0(a4)
  92:src/kernel/riscv.cpp ****                         executeForkSyscall();
 3161              		.loc 1 92 25 is_stmt 1
  92:src/kernel/riscv.cpp ****                         executeForkSyscall();
 3162              		.loc 1 92 37 is_stmt 0
 3163 0f54 97000000 		call	_ZN5RiscV5getPCEv
 3163      E7800000 
 3164              	.LVL242:
  93:src/kernel/riscv.cpp ****                         break;
 3165              		.loc 1 93 25 is_stmt 1
  93:src/kernel/riscv.cpp ****                         break;
 3166              		.loc 1 93 43 is_stmt 0
 3167 0f5c 97000000 		call	_ZN5RiscV18executeForkSyscallEv
 3167      E7800000 
 3168              	.LVL243:
  94:src/kernel/riscv.cpp ****         }
 3169              		.loc 1 94 25 is_stmt 1
 3170 0f64 6FF09FEE 		j	.L140
 3171              	.L167:
 3172              	.LBE200:
 3173              	.LBB201:
 3174              	.LBB174:
 107:src/kernel/riscv.cpp ****         uint64 volatile sepc = RiscV::r_sepc();
 3175              		.loc 1 107 9
 3176              	.LBB175:
 3177              	.LBB176:
 199:src/kernel/../../h/kernel/riscv.hpp ****     asm("csrr %[sstatus], sstatus" : [sstatus] "=r" (sstatus));
 3178              		.loc 2 199 5
 200:src/kernel/../../h/kernel/riscv.hpp ****     return sstatus;
 3179              		.loc 2 200 5
 200:src/kernel/../../h/kernel/riscv.hpp ****     return sstatus;
 3180              		.loc 2 200 63 is_stmt 0
 3181              	#APP
 3182              	# 200 "src/kernel/../../h/kernel/riscv.hpp" 1
 3183              		csrr a5, sstatus
 3184              	# 0 "" 2
 3185              	.LVL244:
 201:src/kernel/../../h/kernel/riscv.hpp **** }
 3186              		.loc 2 201 5 is_stmt 1
 3187              	#NO_APP
 3188              	.LBE176:
 3189              	.LBE175:
 107:src/kernel/riscv.cpp ****         uint64 volatile sepc = RiscV::r_sepc();
 3190              		.loc 1 107 52 is_stmt 0
 3191 0f6c 2334F4FA 		sd	a5,-88(s0)
 108:src/kernel/riscv.cpp **** 
 3192              		.loc 1 108 9 is_stmt 1
 3193              	.LBB177:
 3194              	.LBB178:
 179:src/kernel/../../h/kernel/riscv.hpp ****     asm("csrr %[sepc], sepc" : [sepc] "=r" (sepc));
 3195              		.loc 2 179 5
GAS LISTING /tmp/ccnlBL9w.s 			page 88


 180:src/kernel/../../h/kernel/riscv.hpp ****     return sepc;
 3196              		.loc 2 180 5
 180:src/kernel/../../h/kernel/riscv.hpp ****     return sepc;
 3197              		.loc 2 180 51 is_stmt 0
 3198              	#APP
 3199              	# 180 "src/kernel/../../h/kernel/riscv.hpp" 1
 3200              		csrr a5, sepc
 3201              	# 0 "" 2
 3202              	.LVL245:
 181:src/kernel/../../h/kernel/riscv.hpp **** }
 3203              		.loc 2 181 5 is_stmt 1
 3204              	#NO_APP
 3205              	.LBE178:
 3206              	.LBE177:
 108:src/kernel/riscv.cpp **** 
 3207              		.loc 1 108 46 is_stmt 0
 3208 0f74 2338F4FA 		sd	a5,-80(s0)
 111:src/kernel/riscv.cpp **** 
 3209              		.loc 1 111 9 is_stmt 1
 3210              	.LVL246:
 3211              	.LBB179:
 3212              	.LBB180:
 221:src/kernel/../../h/kernel/riscv.hpp **** }
 3213              		.loc 2 221 5
 221:src/kernel/../../h/kernel/riscv.hpp **** }
 3214              		.loc 2 221 51 is_stmt 0
 3215 0f78 93072000 		li	a5,2
 3216              	#APP
 3217              	# 221 "src/kernel/../../h/kernel/riscv.hpp" 1
 3218              		csrc sip, a5
 3219              	# 0 "" 2
 3220              	.LVL247:
 3221              	#NO_APP
 3222              	.LBE180:
 3223              	.LBE179:
 115:src/kernel/riscv.cpp ****         Scheduler::awake();
 3224              		.loc 1 115 9 is_stmt 1
 115:src/kernel/riscv.cpp ****         Scheduler::awake();
 3225              		.loc 1 115 20 is_stmt 0
 3226 0f80 17070000 		lla	a4,.LANCHOR0
 3226      13070700 
 3227 0f88 83378700 		ld	a5,8(a4)
 3228 0f8c 93871700 		addi	a5,a5,1
 3229 0f90 2334F700 		sd	a5,8(a4)
 116:src/kernel/riscv.cpp **** 
 3230              		.loc 1 116 9 is_stmt 1
 116:src/kernel/riscv.cpp **** 
 3231              		.loc 1 116 25 is_stmt 0
 3232 0f94 97000000 		call	_ZN9Scheduler5awakeEv@plt
 3232      E7800000 
 3233              	.LVL248:
 120:src/kernel/riscv.cpp ****         if(TCB::timeSliceCounter >= TCB::running->timeSlice) {
 3234              		.loc 1 120 9 is_stmt 1
 120:src/kernel/riscv.cpp ****         if(TCB::timeSliceCounter >= TCB::running->timeSlice) {
 3235              		.loc 1 120 30 is_stmt 0
 3236 0f9c 17070000 		la	a4,_ZN3TCB16timeSliceCounterE
 3236      03370700 
GAS LISTING /tmp/ccnlBL9w.s 			page 89


 3237 0fa4 83370700 		ld	a5,0(a4)
 3238 0fa8 93871700 		addi	a5,a5,1
 3239 0fac 2330F700 		sd	a5,0(a4)
 121:src/kernel/riscv.cpp **** 
 3240              		.loc 1 121 9 is_stmt 1
 3241              	.LBB181:
 121:src/kernel/riscv.cpp **** 
 3242              		.loc 1 121 51 is_stmt 0
 3243 0fb0 17070000 		la	a4,_ZN3TCB7runningE
 3243      03370700 
 3244 0fb8 03370700 		ld	a4,0(a4)
 3245 0fbc 83360703 		ld	a3,48(a4)
 121:src/kernel/riscv.cpp **** 
 3246              		.loc 1 121 9
 3247 0fc0 63FCD700 		bgeu	a5,a3,.L170
 3248              	.L161:
 3249              	.LBE181:
 133:src/kernel/riscv.cpp ****         RiscV::w_sepc(sepc);
 3250              		.loc 1 133 9 is_stmt 1
 133:src/kernel/riscv.cpp ****         RiscV::w_sepc(sepc);
 3251              		.loc 1 133 25 is_stmt 0
 3252 0fc4 833784FA 		ld	a5,-88(s0)
 3253              	.LVL249:
 3254              	.LBB183:
 3255              	.LBB184:
 195:src/kernel/../../h/kernel/riscv.hpp **** }
 3256              		.loc 2 195 5 is_stmt 1
 195:src/kernel/../../h/kernel/riscv.hpp **** }
 3257              		.loc 2 195 64 is_stmt 0
 3258              	#APP
 3259              	# 195 "src/kernel/../../h/kernel/riscv.hpp" 1
 3260              		csrw sstatus, a5
 3261              	# 0 "" 2
 3262              	.LVL250:
 3263              	#NO_APP
 3264              	.LBE184:
 3265              	.LBE183:
 134:src/kernel/riscv.cpp ****     }
 3266              		.loc 1 134 9 is_stmt 1
 134:src/kernel/riscv.cpp ****     }
 3267              		.loc 1 134 22 is_stmt 0
 3268 0fcc 833704FB 		ld	a5,-80(s0)
 3269              	.LVL251:
 3270              	.LBB185:
 3271              	.LBB186:
 185:src/kernel/../../h/kernel/riscv.hpp **** }
 3272              		.loc 2 185 5 is_stmt 1
 185:src/kernel/../../h/kernel/riscv.hpp **** }
 3273              		.loc 2 185 52 is_stmt 0
 3274              	#APP
 3275              	# 185 "src/kernel/../../h/kernel/riscv.hpp" 1
 186:src/kernel/../../h/kernel/riscv.hpp **** 
 3276              		csrw sepc, a5
 3277              	# 0 "" 2
 3278              		.loc 2 186 1
 3279              	#NO_APP
 3280 0fd4 6FF05FE9 		j	.L160
GAS LISTING /tmp/ccnlBL9w.s 			page 90


 3281              	.LVL252:
 3282              	.L170:
 3283              	.LBE186:
 3284              	.LBE185:
 3285              	.LBB187:
 3286              	.LBB182:
 123:src/kernel/riscv.cpp **** 
 3287              		.loc 1 123 13 is_stmt 1
 123:src/kernel/riscv.cpp **** 
 3288              		.loc 1 123 35 is_stmt 0
 3289 0fd8 97070000 		la	a5,_ZN3TCB16timeSliceCounterE
 3289      83B70700 
 3290 0fe0 23B00700 		sd	zero,0(a5)
 125:src/kernel/riscv.cpp **** 
 3291              		.loc 1 125 13 is_stmt 1
 3292              	.LVL253:
 127:src/kernel/riscv.cpp **** 
 3293              		.loc 1 127 13
 127:src/kernel/riscv.cpp **** 
 3294              		.loc 1 127 25 is_stmt 0
 3295 0fe4 93071000 		li	a5,1
 3296 0fe8 2328F700 		sw	a5,16(a4)
 129:src/kernel/riscv.cpp ****         }
 3297              		.loc 1 129 13 is_stmt 1
 129:src/kernel/riscv.cpp ****         }
 3298              		.loc 1 129 26 is_stmt 0
 3299 0fec 97000000 		call	_ZN3TCB8dispatchEv@plt
 3299      E7800000 
 3300              	.LVL254:
 3301              	.LBE182:
 3302 0ff4 6FF01FFD 		j	.L161
 3303              	.L168:
 3304              	.LBE187:
 3305              	.LBE174:
 3306              	.LBB188:
 3307              	.LBB159:
 141:src/kernel/riscv.cpp ****         uint64 volatile sepc = RiscV::r_sepc();
 3308              		.loc 1 141 9 is_stmt 1
 3309              	.LBB160:
 3310              	.LBB161:
 199:src/kernel/../../h/kernel/riscv.hpp ****     asm("csrr %[sstatus], sstatus" : [sstatus] "=r" (sstatus));
 3311              		.loc 2 199 5
 200:src/kernel/../../h/kernel/riscv.hpp ****     return sstatus;
 3312              		.loc 2 200 5
 200:src/kernel/../../h/kernel/riscv.hpp ****     return sstatus;
 3313              		.loc 2 200 63 is_stmt 0
 3314              	#APP
 3315              	# 200 "src/kernel/../../h/kernel/riscv.hpp" 1
 3316              		csrr a5, sstatus
 3317              	# 0 "" 2
 3318              	.LVL255:
 201:src/kernel/../../h/kernel/riscv.hpp **** }
 3319              		.loc 2 201 5 is_stmt 1
 3320              	#NO_APP
 3321              	.LBE161:
 3322              	.LBE160:
 141:src/kernel/riscv.cpp ****         uint64 volatile sepc = RiscV::r_sepc();
GAS LISTING /tmp/ccnlBL9w.s 			page 91


 3323              		.loc 1 141 52 is_stmt 0
 3324 0ffc 233CF4FA 		sd	a5,-72(s0)
 142:src/kernel/riscv.cpp **** 
 3325              		.loc 1 142 9 is_stmt 1
 3326              	.LBB162:
 3327              	.LBB163:
 179:src/kernel/../../h/kernel/riscv.hpp ****     asm("csrr %[sepc], sepc" : [sepc] "=r" (sepc));
 3328              		.loc 2 179 5
 180:src/kernel/../../h/kernel/riscv.hpp ****     return sepc;
 3329              		.loc 2 180 5
 180:src/kernel/../../h/kernel/riscv.hpp ****     return sepc;
 3330              		.loc 2 180 51 is_stmt 0
 3331              	#APP
 3332              	# 180 "src/kernel/../../h/kernel/riscv.hpp" 1
 3333              		csrr a5, sepc
 3334              	# 0 "" 2
 3335              	.LVL256:
 181:src/kernel/../../h/kernel/riscv.hpp **** }
 3336              		.loc 2 181 5 is_stmt 1
 3337              	#NO_APP
 3338              	.LBE163:
 3339              	.LBE162:
 142:src/kernel/riscv.cpp **** 
 3340              		.loc 1 142 46 is_stmt 0
 3341 1004 2330F4FC 		sd	a5,-64(s0)
 145:src/kernel/riscv.cpp ****         asm("mv a0, %[status]" : : [status] "r" (status));
 3342              		.loc 1 145 9 is_stmt 1
 145:src/kernel/riscv.cpp ****         asm("mv a0, %[status]" : : [status] "r" (status));
 3343              		.loc 1 145 16 is_stmt 0
 3344 1008 97070000 		la	a5,CONSOLE_STATUS
 3344      83B70700 
 3345 1010 83B70700 		ld	a5,0(a5)
 3346              	.LVL257:
 146:src/kernel/riscv.cpp ****         asm("lb a1, 0(a0)");
 3347              		.loc 1 146 9 is_stmt 1
 146:src/kernel/riscv.cpp ****         asm("lb a1, 0(a0)");
 3348              		.loc 1 146 58 is_stmt 0
 3349              	#APP
 3350              	# 146 "src/kernel/riscv.cpp" 1
 147:src/kernel/riscv.cpp ****         asm("mv %[status], a1" : [status] "=r" (status));
 3351              		mv a0, a5
 3352              	# 0 "" 2
 3353              		.loc 1 147 9 is_stmt 1
 147:src/kernel/riscv.cpp ****         asm("mv %[status], a1" : [status] "=r" (status));
 3354              		.loc 1 147 28 is_stmt 0
 3355              	# 147 "src/kernel/riscv.cpp" 1
 148:src/kernel/riscv.cpp **** 
 3356              		lb a1, 0(a0)
 3357              	# 0 "" 2
 3358              		.loc 1 148 9 is_stmt 1
 148:src/kernel/riscv.cpp **** 
 3359              		.loc 1 148 57 is_stmt 0
 3360              	# 148 "src/kernel/riscv.cpp" 1
 3361              		mv a5, a1
 3362              	# 0 "" 2
 3363              	.LVL258:
 151:src/kernel/riscv.cpp ****         {
GAS LISTING /tmp/ccnlBL9w.s 			page 92


 3364              		.loc 1 151 9 is_stmt 1
 3365              	#NO_APP
 3366              	.LBB164:
 151:src/kernel/riscv.cpp ****         {
 3367              		.loc 1 151 19 is_stmt 0
 3368 1020 93F71700 		andi	a5,a5,1
 3369              	.LVL259:
 151:src/kernel/riscv.cpp ****         {
 3370              		.loc 1 151 9
 3371 1024 63880702 		beqz	a5,.L163
 3372              	.LBB165:
 154:src/kernel/riscv.cpp ****             char c;
 3373              		.loc 1 154 13 is_stmt 1
 155:src/kernel/riscv.cpp ****             data = CONSOLE_TX_DATA;
 3374              		.loc 1 155 13
 156:src/kernel/riscv.cpp ****             asm("mv a0, %[data]" : : [data] "r" (data));
 3375              		.loc 1 156 13
 156:src/kernel/riscv.cpp ****             asm("mv a0, %[data]" : : [data] "r" (data));
 3376              		.loc 1 156 18 is_stmt 0
 3377 1028 97070000 		la	a5,CONSOLE_TX_DATA
 3377      83B70700 
 3378 1030 83B70700 		ld	a5,0(a5)
 3379              	.LVL260:
 157:src/kernel/riscv.cpp ****             asm("lb a1, 0(a0)");
 3380              		.loc 1 157 13 is_stmt 1
 157:src/kernel/riscv.cpp ****             asm("lb a1, 0(a0)");
 3381              		.loc 1 157 56 is_stmt 0
 3382              	#APP
 3383              	# 157 "src/kernel/riscv.cpp" 1
 158:src/kernel/riscv.cpp ****             asm("mv %[c], a1" : [c] "=r" (c));
 3384              		mv a0, a5
 3385              	# 0 "" 2
 3386              		.loc 1 158 13 is_stmt 1
 158:src/kernel/riscv.cpp ****             asm("mv %[c], a1" : [c] "=r" (c));
 3387              		.loc 1 158 32 is_stmt 0
 3388              	# 158 "src/kernel/riscv.cpp" 1
 159:src/kernel/riscv.cpp **** 
 3389              		lb a1, 0(a0)
 3390              	# 0 "" 2
 3391              		.loc 1 159 13 is_stmt 1
 159:src/kernel/riscv.cpp **** 
 3392              		.loc 1 159 46 is_stmt 0
 3393              	# 159 "src/kernel/riscv.cpp" 1
 3394              		mv a0, a1
 3395              	# 0 "" 2
 3396              	#NO_APP
 3397 1040 1375F50F 		andi	a0,a0,0xff
 3398              	.LVL261:
 162:src/kernel/riscv.cpp ****                 ConsoleUtil::pendingGetc--;
 3399              		.loc 1 162 13 is_stmt 1
 162:src/kernel/riscv.cpp ****                 ConsoleUtil::pendingGetc--;
 3400              		.loc 1 162 40 is_stmt 0
 3401 1044 97070000 		la	a5,_ZN11ConsoleUtil11pendingGetcE
 3401      83B70700 
 3402              	.LVL262:
 3403 104c 83B70700 		ld	a5,0(a5)
 162:src/kernel/riscv.cpp ****                 ConsoleUtil::pendingGetc--;
GAS LISTING /tmp/ccnlBL9w.s 			page 93


 3404              		.loc 1 162 13
 3405 1050 63940702 		bnez	a5,.L171
 3406              	.LVL263:
 3407              	.L163:
 3408              	.LBE165:
 3409              	.LBE164:
 167:src/kernel/riscv.cpp **** 
 3410              		.loc 1 167 9 is_stmt 1
 167:src/kernel/riscv.cpp **** 
 3411              		.loc 1 167 22 is_stmt 0
 3412 1054 97000000 		call	plic_claim@plt
 3412      E7800000 
 3413              	.LVL264:
 3414 105c 97000000 		call	plic_complete@plt
 3414      E7800000 
 3415              	.LVL265:
 169:src/kernel/riscv.cpp ****         RiscV::w_sepc(sepc);
 3416              		.loc 1 169 9 is_stmt 1
 169:src/kernel/riscv.cpp ****         RiscV::w_sepc(sepc);
 3417              		.loc 1 169 25 is_stmt 0
 3418 1064 833784FB 		ld	a5,-72(s0)
 3419              	.LVL266:
 3420              	.LBB167:
 3421              	.LBB168:
 195:src/kernel/../../h/kernel/riscv.hpp **** }
 3422              		.loc 2 195 5 is_stmt 1
 195:src/kernel/../../h/kernel/riscv.hpp **** }
 3423              		.loc 2 195 64 is_stmt 0
 3424              	#APP
 3425              	# 195 "src/kernel/../../h/kernel/riscv.hpp" 1
 3426              		csrw sstatus, a5
 3427              	# 0 "" 2
 3428              	.LVL267:
 3429              	#NO_APP
 3430              	.LBE168:
 3431              	.LBE167:
 170:src/kernel/riscv.cpp ****     }
 3432              		.loc 1 170 9 is_stmt 1
 170:src/kernel/riscv.cpp ****     }
 3433              		.loc 1 170 22 is_stmt 0
 3434 106c 833704FC 		ld	a5,-64(s0)
 3435              	.LVL268:
 3436              	.LBB169:
 3437              	.LBB170:
 185:src/kernel/../../h/kernel/riscv.hpp **** }
 3438              		.loc 2 185 5 is_stmt 1
 185:src/kernel/../../h/kernel/riscv.hpp **** }
 3439              		.loc 2 185 52 is_stmt 0
 3440              	#APP
 3441              	# 185 "src/kernel/../../h/kernel/riscv.hpp" 1
 186:src/kernel/../../h/kernel/riscv.hpp **** 
 3442              		csrw sepc, a5
 3443              	# 0 "" 2
 3444              		.loc 2 186 1
 3445              	#NO_APP
 3446 1074 6FF05FDF 		j	.L160
 3447              	.LVL269:
GAS LISTING /tmp/ccnlBL9w.s 			page 94


 3448              	.L171:
 3449              	.LBE170:
 3450              	.LBE169:
 3451              	.LBB171:
 3452              	.LBB166:
 163:src/kernel/riscv.cpp ****                 ConsoleUtil::putInput(c);
 3453              		.loc 1 163 17 is_stmt 1
 163:src/kernel/riscv.cpp ****                 ConsoleUtil::putInput(c);
 3454              		.loc 1 163 41 is_stmt 0
 3455 1078 9387F7FF 		addi	a5,a5,-1
 3456 107c 17070000 		la	a4,_ZN11ConsoleUtil11pendingGetcE
 3456      03370700 
 3457 1084 2330F700 		sd	a5,0(a4)
 164:src/kernel/riscv.cpp ****             }
 3458              		.loc 1 164 17 is_stmt 1
 164:src/kernel/riscv.cpp ****             }
 3459              		.loc 1 164 38 is_stmt 0
 3460 1088 97000000 		call	_ZN11ConsoleUtil8putInputEc@plt
 3460      E7800000 
 3461              	.LVL270:
 3462 1090 6FF05FFC 		j	.L163
 3463              	.LVL271:
 3464              	.L169:
 3465              	.LBE166:
 3466              	.LBE171:
 3467              	.LBE159:
 3468              	.LBB172:
 3469              	.LBB156:
 175:src/kernel/riscv.cpp ****         old->status = TCB::Status::FINISHED;
 3470              		.loc 1 175 9 is_stmt 1
 175:src/kernel/riscv.cpp ****         old->status = TCB::Status::FINISHED;
 3471              		.loc 1 175 14 is_stmt 0
 3472 1094 97070000 		la	a5,_ZN3TCB7runningE
 3472      83B70700 
 3473 109c 83B70700 		ld	a5,0(a5)
 3474              	.LVL272:
 176:src/kernel/riscv.cpp ****         ConsoleUtil::printString("sepc: ");
 3475              		.loc 1 176 9 is_stmt 1
 176:src/kernel/riscv.cpp ****         ConsoleUtil::printString("sepc: ");
 3476              		.loc 1 176 21 is_stmt 0
 3477 10a0 13072000 		li	a4,2
 3478 10a4 23A8E700 		sw	a4,16(a5)
 177:src/kernel/riscv.cpp ****         uint64 sepc = RiscV::r_sepc();
 3479              		.loc 1 177 9 is_stmt 1
 177:src/kernel/riscv.cpp ****         uint64 sepc = RiscV::r_sepc();
 3480              		.loc 1 177 33 is_stmt 0
 3481 10a8 17050000 		lla	a0,.LC0
 3481      13050500 
 3482 10b0 97000000 		call	_ZN11ConsoleUtil11printStringEPKc@plt
 3482      E7800000 
 3483              	.LVL273:
 178:src/kernel/riscv.cpp ****         ConsoleUtil::printInt(sepc,16);
 3484              		.loc 1 178 9 is_stmt 1
 3485              	.LBB157:
 3486              	.LBB158:
 179:src/kernel/../../h/kernel/riscv.hpp ****     asm("csrr %[sepc], sepc" : [sepc] "=r" (sepc));
 3487              		.loc 2 179 5
GAS LISTING /tmp/ccnlBL9w.s 			page 95


 180:src/kernel/../../h/kernel/riscv.hpp ****     return sepc;
 3488              		.loc 2 180 5
 180:src/kernel/../../h/kernel/riscv.hpp ****     return sepc;
 3489              		.loc 2 180 51 is_stmt 0
 3490              	#APP
 3491              	# 180 "src/kernel/../../h/kernel/riscv.hpp" 1
 181:src/kernel/../../h/kernel/riscv.hpp **** }
 3492              		csrr a0, sepc
 3493              	# 0 "" 2
 3494              		.loc 2 181 5 is_stmt 1
 3495              	#NO_APP
 3496              	.LBE158:
 3497              	.LBE157:
 179:src/kernel/riscv.cpp ****         ConsoleUtil::printString("\n");
 3498              		.loc 1 179 9
 179:src/kernel/riscv.cpp ****         ConsoleUtil::printString("\n");
 3499              		.loc 1 179 30 is_stmt 0
 3500 10bc 13060000 		li	a2,0
 3501 10c0 93050001 		li	a1,16
 3502 10c4 1B050500 		sext.w	a0,a0
 3503 10c8 97000000 		call	_ZN11ConsoleUtil8printIntEiii@plt
 3503      E7800000 
 3504              	.LVL274:
 180:src/kernel/riscv.cpp ****         ConsoleUtil::printString("Illegal instruction\nExiting thread...\n");
 3505              		.loc 1 180 9 is_stmt 1
 180:src/kernel/riscv.cpp ****         ConsoleUtil::printString("Illegal instruction\nExiting thread...\n");
 3506              		.loc 1 180 33 is_stmt 0
 3507 10d0 17050000 		lla	a0,.LC1
 3507      13050500 
 3508 10d8 97000000 		call	_ZN11ConsoleUtil11printStringEPKc@plt
 3508      E7800000 
 3509              	.LVL275:
 181:src/kernel/riscv.cpp ****         TCB::dispatch();
 3510              		.loc 1 181 9 is_stmt 1
 181:src/kernel/riscv.cpp ****         TCB::dispatch();
 3511              		.loc 1 181 33 is_stmt 0
 3512 10e0 17050000 		lla	a0,.LC2
 3512      13050500 
 3513 10e8 97000000 		call	_ZN11ConsoleUtil11printStringEPKc@plt
 3513      E7800000 
 3514              	.LVL276:
 182:src/kernel/riscv.cpp ****     }
 3515              		.loc 1 182 9 is_stmt 1
 182:src/kernel/riscv.cpp ****     }
 3516              		.loc 1 182 22 is_stmt 0
 3517 10f0 97000000 		call	_ZN3TCB8dispatchEv@plt
 3517      E7800000 
 3518              	.LVL277:
 3519              	.LBE156:
 3520 10f8 6FF01FD7 		j	.L160
 3521              	.LBE172:
 3522              	.LBE188:
 3523              	.LBE201:
 3524              	.LBE205:
 3525              		.cfi_endproc
 3526              	.LFE49:
 3528              		.align	2
GAS LISTING /tmp/ccnlBL9w.s 			page 96


 3529              		.globl	_ZN5RiscV12buildSectionEPvmmm
 3531              	_ZN5RiscV12buildSectionEPvmmm:
 3532              	.LFB76:
 758:src/kernel/riscv.cpp ****     for(uint64 i=start;i< end;i+=0x1000) {
 3533              		.loc 1 758 76 is_stmt 1
 3534              		.cfi_startproc
 3535              	.LVL278:
 3536 10fc 130101FD 		addi	sp,sp,-48
 3537              		.cfi_def_cfa_offset 48
 3538 1100 23341102 		sd	ra,40(sp)
 3539 1104 23308102 		sd	s0,32(sp)
 3540 1108 233C9100 		sd	s1,24(sp)
 3541 110c 23382101 		sd	s2,16(sp)
 3542 1110 23343101 		sd	s3,8(sp)
 3543 1114 23304101 		sd	s4,0(sp)
 3544              		.cfi_offset 1, -8
 3545              		.cfi_offset 8, -16
 3546              		.cfi_offset 9, -24
 3547              		.cfi_offset 18, -32
 3548              		.cfi_offset 19, -40
 3549              		.cfi_offset 20, -48
 3550 1118 13040103 		addi	s0,sp,48
 3551              		.cfi_def_cfa 8, 0
 3552 111c 130A0500 		mv	s4,a0
 3553 1120 93840500 		mv	s1,a1
 3554 1124 13090600 		mv	s2,a2
 3555 1128 93890600 		mv	s3,a3
 759:src/kernel/riscv.cpp ****         handlePageFault(PMT,i, mask);
 3556              		.loc 1 759 5
 3557              	.LVL279:
 3558              	.L174:
 3559              	.LBB206:
 759:src/kernel/riscv.cpp ****         handlePageFault(PMT,i, mask);
 3560              		.loc 1 759 25 discriminator 3
 3561 112c 63F22403 		bgeu	s1,s2,.L172
 760:src/kernel/riscv.cpp ****     }
 3562              		.loc 1 760 9 discriminator 2
 760:src/kernel/riscv.cpp ****     }
 3563              		.loc 1 760 24 is_stmt 0 discriminator 2
 3564 1130 13860900 		mv	a2,s3
 3565 1134 93850400 		mv	a1,s1
 3566 1138 13050A00 		mv	a0,s4
 3567 113c 97000000 		call	_ZN5RiscV15handlePageFaultEPvmm
 3567      E7800000 
 3568              	.LVL280:
 759:src/kernel/riscv.cpp ****         handlePageFault(PMT,i, mask);
 3569              		.loc 1 759 5 is_stmt 1 discriminator 2
 759:src/kernel/riscv.cpp ****         handlePageFault(PMT,i, mask);
 3570              		.loc 1 759 32 is_stmt 0 discriminator 2
 3571 1144 B7170000 		li	a5,4096
 3572 1148 B384F400 		add	s1,s1,a5
 3573              	.LVL281:
 759:src/kernel/riscv.cpp ****         handlePageFault(PMT,i, mask);
 3574              		.loc 1 759 5 discriminator 2
 3575 114c 6FF01FFE 		j	.L174
 3576              	.L172:
 3577              	.LBE206:
GAS LISTING /tmp/ccnlBL9w.s 			page 97


 762:src/kernel/riscv.cpp **** 
 3578              		.loc 1 762 1
 3579 1150 83308102 		ld	ra,40(sp)
 3580              		.cfi_restore 1
 3581 1154 03340102 		ld	s0,32(sp)
 3582              		.cfi_restore 8
 3583              		.cfi_def_cfa 2, 48
 3584 1158 83348101 		ld	s1,24(sp)
 3585              		.cfi_restore 9
 3586              	.LVL282:
 3587 115c 03390101 		ld	s2,16(sp)
 3588              		.cfi_restore 18
 3589              	.LVL283:
 3590 1160 83398100 		ld	s3,8(sp)
 3591              		.cfi_restore 19
 3592              	.LVL284:
 3593 1164 033A0100 		ld	s4,0(sp)
 3594              		.cfi_restore 20
 3595              	.LVL285:
 3596 1168 13010103 		addi	sp,sp,48
 3597              		.cfi_def_cfa_offset 0
 3598 116c 67800000 		jr	ra
 3599              		.cfi_endproc
 3600              	.LFE76:
 3602              		.align	2
 3603              		.globl	_ZN5RiscV19mapConsoleRegistersEPv
 3605              	_ZN5RiscV19mapConsoleRegistersEPv:
 3606              	.LFB81:
 829:src/kernel/riscv.cpp **** 
 830:src/kernel/riscv.cpp **** void RiscV::mapConsoleRegisters(void *PMT) {
 3607              		.loc 1 830 44 is_stmt 1
 3608              		.cfi_startproc
 3609              	.LVL286:
 3610 1170 130101FE 		addi	sp,sp,-32
 3611              		.cfi_def_cfa_offset 32
 3612 1174 233C1100 		sd	ra,24(sp)
 3613 1178 23388100 		sd	s0,16(sp)
 3614 117c 23349100 		sd	s1,8(sp)
 3615              		.cfi_offset 1, -8
 3616              		.cfi_offset 8, -16
 3617              		.cfi_offset 9, -24
 3618 1180 13040102 		addi	s0,sp,32
 3619              		.cfi_def_cfa 8, 0
 3620 1184 93040500 		mv	s1,a0
 831:src/kernel/riscv.cpp ****     handlePageFault(PMT, (uint64)CONSOLE_STATUS,0x1f);
 3621              		.loc 1 831 5
 3622              		.loc 1 831 20 is_stmt 0
 3623 1188 1306F001 		li	a2,31
 3624 118c 97070000 		la	a5,CONSOLE_STATUS
 3624      83B70700 
 3625 1194 83B50700 		ld	a1,0(a5)
 3626 1198 97000000 		call	_ZN5RiscV15handlePageFaultEPvmm
 3626      E7800000 
 3627              	.LVL287:
 832:src/kernel/riscv.cpp ****     handlePageFault(PMT, (uint64)CONSOLE_TX_DATA,0x1f);
 3628              		.loc 1 832 5 is_stmt 1
 3629              		.loc 1 832 20 is_stmt 0
GAS LISTING /tmp/ccnlBL9w.s 			page 98


 3630 11a0 1306F001 		li	a2,31
 3631 11a4 97070000 		la	a5,CONSOLE_TX_DATA
 3631      83B70700 
 3632 11ac 83B50700 		ld	a1,0(a5)
 3633 11b0 13850400 		mv	a0,s1
 3634 11b4 97000000 		call	_ZN5RiscV15handlePageFaultEPvmm
 3634      E7800000 
 3635              	.LVL288:
 833:src/kernel/riscv.cpp ****     handlePageFault(PMT, (uint64)CONSOLE_RX_DATA,0x1f);
 3636              		.loc 1 833 5 is_stmt 1
 3637              		.loc 1 833 20 is_stmt 0
 3638 11bc 1306F001 		li	a2,31
 3639 11c0 97070000 		la	a5,CONSOLE_RX_DATA
 3639      83B70700 
 3640 11c8 83B50700 		ld	a1,0(a5)
 3641 11cc 13850400 		mv	a0,s1
 3642 11d0 97000000 		call	_ZN5RiscV15handlePageFaultEPvmm
 3642      E7800000 
 3643              	.LVL289:
 834:src/kernel/riscv.cpp ****     handlePageFault(PMT, (uint64)PLIC_CLAIM_PF,0x1f);
 3644              		.loc 1 834 5 is_stmt 1
 3645              		.loc 1 834 20 is_stmt 0
 3646 11d8 1306F001 		li	a2,31
 3647 11dc B715200C 		li	a1,203427840
 3648 11e0 93854500 		addi	a1,a1,4
 3649 11e4 13850400 		mv	a0,s1
 3650 11e8 97000000 		call	_ZN5RiscV15handlePageFaultEPvmm
 3650      E7800000 
 3651              	.LVL290:
 835:src/kernel/riscv.cpp **** }...
 3652              		.loc 1 835 1
 3653 11f0 83308101 		ld	ra,24(sp)
 3654              		.cfi_restore 1
 3655 11f4 03340101 		ld	s0,16(sp)
 3656              		.cfi_restore 8
 3657              		.cfi_def_cfa 2, 32
 3658 11f8 83348100 		ld	s1,8(sp)
 3659              		.cfi_restore 9
 3660              	.LVL291:
 3661 11fc 13010102 		addi	sp,sp,32
 3662              		.cfi_def_cfa_offset 0
 3663 1200 67800000 		jr	ra
 3664              		.cfi_endproc
 3665              	.LFE81:
 3667              		.align	2
 3668              		.globl	_ZN5RiscV14buildKernelPMTEv
 3670              	_ZN5RiscV14buildKernelPMTEv:
 3671              	.LFB77:
 764:src/kernel/riscv.cpp **** void RiscV::buildKernelPMT() {
 3672              		.loc 1 764 30 is_stmt 1
 3673              		.cfi_startproc
 3674 1204 130101FD 		addi	sp,sp,-48
 3675              		.cfi_def_cfa_offset 48
 3676 1208 23341102 		sd	ra,40(sp)
 3677 120c 23308102 		sd	s0,32(sp)
 3678 1210 233C9100 		sd	s1,24(sp)
 3679 1214 23382101 		sd	s2,16(sp)
GAS LISTING /tmp/ccnlBL9w.s 			page 99


 3680 1218 23343101 		sd	s3,8(sp)
 3681 121c 23304101 		sd	s4,0(sp)
 3682              		.cfi_offset 1, -8
 3683              		.cfi_offset 8, -16
 3684              		.cfi_offset 9, -24
 3685              		.cfi_offset 18, -32
 3686              		.cfi_offset 19, -40
 3687              		.cfi_offset 20, -48
 3688 1220 13040103 		addi	s0,sp,48
 3689              		.cfi_def_cfa 8, 0
 765:src/kernel/riscv.cpp ****     RiscV::kPMT = RiscV::getPMT();
 3690              		.loc 1 765 5
 765:src/kernel/riscv.cpp ****     RiscV::kPMT = RiscV::getPMT();
 3691              		.loc 1 765 32 is_stmt 0
 3692 1224 97000000 		call	_ZN5RiscV6getPMTEv
 3692      E7800000 
 3693              	.LVL292:
 765:src/kernel/riscv.cpp ****     RiscV::kPMT = RiscV::getPMT();
 3694              		.loc 1 765 17
 3695 122c 97040000 		lla	s1,.LANCHOR0
 3695      93840400 
 3696 1234 23B8A400 		sd	a0,16(s1)
 766:src/kernel/riscv.cpp ****     uint64 bEnd = ((uint64)Buddy::BUDDY_START_ADDR + (Buddy::BLOCKS_AVAILABLE<<12));
 3697              		.loc 1 766 5 is_stmt 1
 766:src/kernel/riscv.cpp ****     uint64 bEnd = ((uint64)Buddy::BUDDY_START_ADDR + (Buddy::BLOCKS_AVAILABLE<<12));
 3698              		.loc 1 766 78 is_stmt 0
 3699 1238 97070000 		la	a5,_ZN5Buddy16BLOCKS_AVAILABLEE
 3699      83B70700 
 3700 1240 03B90700 		ld	s2,0(a5)
 3701 1244 1319C900 		slli	s2,s2,12
 766:src/kernel/riscv.cpp ****     uint64 bEnd = ((uint64)Buddy::BUDDY_START_ADDR + (Buddy::BLOCKS_AVAILABLE<<12));
 3702              		.loc 1 766 52
 3703 1248 97070000 		la	a5,_ZN5Buddy16BUDDY_START_ADDRE
 3703      83B70700 
 3704 1250 83B70700 		ld	a5,0(a5)
 766:src/kernel/riscv.cpp ****     uint64 bEnd = ((uint64)Buddy::BUDDY_START_ADDR + (Buddy::BLOCKS_AVAILABLE<<12));
 3705              		.loc 1 766 12
 3706 1254 3309F900 		add	s2,s2,a5
 3707              	.LVL293:
 769:src/kernel/riscv.cpp ****     RiscV::buildSection(kPMT, OS_ENTRY, KERNEL_TEXT_END, 0xb);
 3708              		.loc 1 769 5 is_stmt 1
 769:src/kernel/riscv.cpp ****     RiscV::buildSection(kPMT, OS_ENTRY, KERNEL_TEXT_END, 0xb);
 3709              		.loc 1 769 24 is_stmt 0
 3710 1258 170A0000 		la	s4,kernelTextEnd
 3710      033A0A00 
 3711 1260 9306B000 		li	a3,11
 3712 1264 13060A00 		mv	a2,s4
 3713 1268 93051000 		li	a1,1
 3714 126c 9395F501 		slli	a1,a1,31
 3715 1270 97000000 		call	_ZN5RiscV12buildSectionEPvmmm
 3715      E7800000 
 3716              	.LVL294:
 770:src/kernel/riscv.cpp ****     RiscV::buildSection(kPMT, KERNEL_TEXT_END, USER_TEXT_START, 0x7);
 3717              		.loc 1 770 5 is_stmt 1
 770:src/kernel/riscv.cpp ****     RiscV::buildSection(kPMT, KERNEL_TEXT_END, USER_TEXT_START, 0x7);
 3718              		.loc 1 770 24 is_stmt 0
 3719 1278 97090000 		la	s3,userTextStart
GAS LISTING /tmp/ccnlBL9w.s 			page 100


 3719      83B90900 
 3720 1280 93067000 		li	a3,7
 3721 1284 13860900 		mv	a2,s3
 3722 1288 93050A00 		mv	a1,s4
 3723 128c 03B50401 		ld	a0,16(s1)
 3724 1290 97000000 		call	_ZN5RiscV12buildSectionEPvmmm
 3724      E7800000 
 3725              	.LVL295:
 771:src/kernel/riscv.cpp ****     RiscV::buildSection(kPMT, USER_TEXT_START, USER_DATA_START, 0x1b);
 3726              		.loc 1 771 5 is_stmt 1
 771:src/kernel/riscv.cpp ****     RiscV::buildSection(kPMT, USER_TEXT_START, USER_DATA_START, 0x1b);
 3727              		.loc 1 771 24 is_stmt 0
 3728 1298 170A0000 		la	s4,userDataStart
 3728      033A0A00 
 3729 12a0 9306B001 		li	a3,27
 3730 12a4 13060A00 		mv	a2,s4
 3731 12a8 93850900 		mv	a1,s3
 3732 12ac 03B50401 		ld	a0,16(s1)
 3733 12b0 97000000 		call	_ZN5RiscV12buildSectionEPvmmm
 3733      E7800000 
 3734              	.LVL296:
 772:src/kernel/riscv.cpp ****     RiscV::buildSection(kPMT, USER_DATA_START, USER_DATA_END, 0x17);
 3735              		.loc 1 772 5 is_stmt 1
 772:src/kernel/riscv.cpp ****     RiscV::buildSection(kPMT, USER_DATA_START, USER_DATA_END, 0x17);
 3736              		.loc 1 772 24 is_stmt 0
 3737 12b8 97090000 		la	s3,userDataEnd
 3737      83B90900 
 3738 12c0 93067001 		li	a3,23
 3739 12c4 13860900 		mv	a2,s3
 3740 12c8 93050A00 		mv	a1,s4
 3741 12cc 03B50401 		ld	a0,16(s1)
 3742 12d0 97000000 		call	_ZN5RiscV12buildSectionEPvmmm
 3742      E7800000 
 3743              	.LVL297:
 773:src/kernel/riscv.cpp ****     RiscV::buildSection(kPMT, USER_DATA_END, bEnd, 0x7);
 3744              		.loc 1 773 5 is_stmt 1
 773:src/kernel/riscv.cpp ****     RiscV::buildSection(kPMT, USER_DATA_END, bEnd, 0x7);
 3745              		.loc 1 773 24 is_stmt 0
 3746 12d8 93067000 		li	a3,7
 3747 12dc 13060900 		mv	a2,s2
 3748 12e0 93850900 		mv	a1,s3
 3749 12e4 03B50401 		ld	a0,16(s1)
 3750 12e8 97000000 		call	_ZN5RiscV12buildSectionEPvmmm
 3750      E7800000 
 3751              	.LVL298:
 774:src/kernel/riscv.cpp ****     RiscV::buildSection(kPMT, bEnd, HEAP_END, 0x17);
 3752              		.loc 1 774 5 is_stmt 1
 774:src/kernel/riscv.cpp ****     RiscV::buildSection(kPMT, bEnd, HEAP_END, 0x17);
 3753              		.loc 1 774 24 is_stmt 0
 3754 12f0 93067001 		li	a3,23
 3755 12f4 97070000 		la	a5,HEAP_END_ADDR
 3755      83B70700 
 3756 12fc 03B60700 		ld	a2,0(a5)
 3757 1300 93050900 		mv	a1,s2
 3758 1304 03B50401 		ld	a0,16(s1)
 3759 1308 97000000 		call	_ZN5RiscV12buildSectionEPvmmm
 3759      E7800000 
GAS LISTING /tmp/ccnlBL9w.s 			page 101


 3760              	.LVL299:
 776:src/kernel/riscv.cpp ****     RiscV::mapConsoleRegisters(kPMT);
 3761              		.loc 1 776 5 is_stmt 1
 776:src/kernel/riscv.cpp ****     RiscV::mapConsoleRegisters(kPMT);
 3762              		.loc 1 776 31 is_stmt 0
 3763 1310 03B50401 		ld	a0,16(s1)
 3764 1314 97000000 		call	_ZN5RiscV19mapConsoleRegistersEPv
 3764      E7800000 
 3765              	.LVL300:
 777:src/kernel/riscv.cpp ****     RiscV::ms_sstatus(1<<18);
 3766              		.loc 1 777 5 is_stmt 1
 3767              	.LBB207:
 3768              	.LBB208:
 209:src/kernel/../../h/kernel/riscv.hpp **** }
 3769              		.loc 2 209 5
 209:src/kernel/../../h/kernel/riscv.hpp **** }
 3770              		.loc 2 209 55 is_stmt 0
 3771 131c B7070400 		li	a5,262144
 3772              	#APP
 3773              	# 209 "src/kernel/../../h/kernel/riscv.hpp" 1
 3774              		csrs sstatus, a5
 3775              	# 0 "" 2
 3776              	.LVL301:
 3777              	#NO_APP
 3778              	.LBE208:
 3779              	.LBE207:
 778:src/kernel/riscv.cpp **** }
 3780              		.loc 1 778 1
 3781 1324 83308102 		ld	ra,40(sp)
 3782              		.cfi_restore 1
 3783 1328 03340102 		ld	s0,32(sp)
 3784              		.cfi_restore 8
 3785              		.cfi_def_cfa 2, 48
 3786 132c 83348101 		ld	s1,24(sp)
 3787              		.cfi_restore 9
 3788 1330 03390101 		ld	s2,16(sp)
 3789              		.cfi_restore 18
 3790              	.LVL302:
 3791 1334 83398100 		ld	s3,8(sp)
 3792              		.cfi_restore 19
 3793 1338 033A0100 		ld	s4,0(sp)
 3794              		.cfi_restore 20
 3795 133c 13010103 		addi	sp,sp,48
 3796              		.cfi_def_cfa_offset 0
 3797 1340 67800000 		jr	ra
 3798              		.cfi_endproc
 3799              	.LFE77:
 3801              		.align	2
 3802              		.globl	_ZN5RiscV12buildUserPMTEv
 3804              	_ZN5RiscV12buildUserPMTEv:
 3805              	.LFB78:
 780:src/kernel/riscv.cpp **** void RiscV::buildUserPMT() {
 3806              		.loc 1 780 28 is_stmt 1
 3807              		.cfi_startproc
 3808 1344 130101FD 		addi	sp,sp,-48
 3809              		.cfi_def_cfa_offset 48
 3810 1348 23341102 		sd	ra,40(sp)
GAS LISTING /tmp/ccnlBL9w.s 			page 102


 3811 134c 23308102 		sd	s0,32(sp)
 3812 1350 233C9100 		sd	s1,24(sp)
 3813 1354 23382101 		sd	s2,16(sp)
 3814 1358 23343101 		sd	s3,8(sp)
 3815 135c 23304101 		sd	s4,0(sp)
 3816              		.cfi_offset 1, -8
 3817              		.cfi_offset 8, -16
 3818              		.cfi_offset 9, -24
 3819              		.cfi_offset 18, -32
 3820              		.cfi_offset 19, -40
 3821              		.cfi_offset 20, -48
 3822 1360 13040103 		addi	s0,sp,48
 3823              		.cfi_def_cfa 8, 0
 781:src/kernel/riscv.cpp ****     RiscV::uPMT = RiscV::getPMT();
 3824              		.loc 1 781 5
 781:src/kernel/riscv.cpp ****     RiscV::uPMT = RiscV::getPMT();
 3825              		.loc 1 781 32 is_stmt 0
 3826 1364 97000000 		call	_ZN5RiscV6getPMTEv
 3826      E7800000 
 3827              	.LVL303:
 781:src/kernel/riscv.cpp ****     RiscV::uPMT = RiscV::getPMT();
 3828              		.loc 1 781 17
 3829 136c 97040000 		lla	s1,.LANCHOR0
 3829      93840400 
 3830 1374 23BCA400 		sd	a0,24(s1)
 782:src/kernel/riscv.cpp ****     uint64 bEnd = ((uint64)Buddy::BUDDY_START_ADDR + (Buddy::BLOCKS_AVAILABLE<<12));
 3831              		.loc 1 782 5 is_stmt 1
 782:src/kernel/riscv.cpp ****     uint64 bEnd = ((uint64)Buddy::BUDDY_START_ADDR + (Buddy::BLOCKS_AVAILABLE<<12));
 3832              		.loc 1 782 78 is_stmt 0
 3833 1378 97070000 		la	a5,_ZN5Buddy16BLOCKS_AVAILABLEE
 3833      83B70700 
 3834 1380 03B90700 		ld	s2,0(a5)
 3835 1384 1319C900 		slli	s2,s2,12
 782:src/kernel/riscv.cpp ****     uint64 bEnd = ((uint64)Buddy::BUDDY_START_ADDR + (Buddy::BLOCKS_AVAILABLE<<12));
 3836              		.loc 1 782 52
 3837 1388 97070000 		la	a5,_ZN5Buddy16BUDDY_START_ADDRE
 3837      83B70700 
 3838 1390 83B70700 		ld	a5,0(a5)
 782:src/kernel/riscv.cpp ****     uint64 bEnd = ((uint64)Buddy::BUDDY_START_ADDR + (Buddy::BLOCKS_AVAILABLE<<12));
 3839              		.loc 1 782 12
 3840 1394 3309F900 		add	s2,s2,a5
 3841              	.LVL304:
 785:src/kernel/riscv.cpp ****     RiscV::buildSection(uPMT, OS_ENTRY, KERNEL_TEXT_END, 0xb);
 3842              		.loc 1 785 5 is_stmt 1
 785:src/kernel/riscv.cpp ****     RiscV::buildSection(uPMT, OS_ENTRY, KERNEL_TEXT_END, 0xb);
 3843              		.loc 1 785 24 is_stmt 0
 3844 1398 170A0000 		la	s4,kernelTextEnd
 3844      033A0A00 
 3845 13a0 9306B000 		li	a3,11
 3846 13a4 13060A00 		mv	a2,s4
 3847 13a8 93051000 		li	a1,1
 3848 13ac 9395F501 		slli	a1,a1,31
 3849 13b0 97000000 		call	_ZN5RiscV12buildSectionEPvmmm
 3849      E7800000 
 3850              	.LVL305:
 786:src/kernel/riscv.cpp ****     RiscV::buildSection(uPMT, KERNEL_TEXT_END, USER_TEXT_START, 0x7);
 3851              		.loc 1 786 5 is_stmt 1
GAS LISTING /tmp/ccnlBL9w.s 			page 103


 786:src/kernel/riscv.cpp ****     RiscV::buildSection(uPMT, KERNEL_TEXT_END, USER_TEXT_START, 0x7);
 3852              		.loc 1 786 24 is_stmt 0
 3853 13b8 97090000 		la	s3,userTextStart
 3853      83B90900 
 3854 13c0 93067000 		li	a3,7
 3855 13c4 13860900 		mv	a2,s3
 3856 13c8 93050A00 		mv	a1,s4
 3857 13cc 03B58401 		ld	a0,24(s1)
 3858 13d0 97000000 		call	_ZN5RiscV12buildSectionEPvmmm
 3858      E7800000 
 3859              	.LVL306:
 787:src/kernel/riscv.cpp ****     RiscV::buildSection(uPMT, USER_TEXT_START, USER_DATA_START, 0x1b);
 3860              		.loc 1 787 5 is_stmt 1
 787:src/kernel/riscv.cpp ****     RiscV::buildSection(uPMT, USER_TEXT_START, USER_DATA_START, 0x1b);
 3861              		.loc 1 787 24 is_stmt 0
 3862 13d8 170A0000 		la	s4,userDataStart
 3862      033A0A00 
 3863 13e0 9306B001 		li	a3,27
 3864 13e4 13060A00 		mv	a2,s4
 3865 13e8 93850900 		mv	a1,s3
 3866 13ec 03B58401 		ld	a0,24(s1)
 3867 13f0 97000000 		call	_ZN5RiscV12buildSectionEPvmmm
 3867      E7800000 
 3868              	.LVL307:
 788:src/kernel/riscv.cpp ****     RiscV::buildSection(uPMT, USER_DATA_START, USER_DATA_END, 0x17);
 3869              		.loc 1 788 5 is_stmt 1
 788:src/kernel/riscv.cpp ****     RiscV::buildSection(uPMT, USER_DATA_START, USER_DATA_END, 0x17);
 3870              		.loc 1 788 24 is_stmt 0
 3871 13f8 97090000 		la	s3,userDataEnd
 3871      83B90900 
 3872 1400 93067001 		li	a3,23
 3873 1404 13860900 		mv	a2,s3
 3874 1408 93050A00 		mv	a1,s4
 3875 140c 03B58401 		ld	a0,24(s1)
 3876 1410 97000000 		call	_ZN5RiscV12buildSectionEPvmmm
 3876      E7800000 
 3877              	.LVL308:
 789:src/kernel/riscv.cpp ****     RiscV::buildSection(uPMT, USER_DATA_END, bEnd, 0x7);
 3878              		.loc 1 789 5 is_stmt 1
 789:src/kernel/riscv.cpp ****     RiscV::buildSection(uPMT, USER_DATA_END, bEnd, 0x7);
 3879              		.loc 1 789 24 is_stmt 0
 3880 1418 93067000 		li	a3,7
 3881 141c 13060900 		mv	a2,s2
 3882 1420 93850900 		mv	a1,s3
 3883 1424 03B58401 		ld	a0,24(s1)
 3884 1428 97000000 		call	_ZN5RiscV12buildSectionEPvmmm
 3884      E7800000 
 3885              	.LVL309:
 790:src/kernel/riscv.cpp ****     RiscV::buildSection(uPMT, bEnd, HEAP_END, 0x17);
 3886              		.loc 1 790 5 is_stmt 1
 790:src/kernel/riscv.cpp ****     RiscV::buildSection(uPMT, bEnd, HEAP_END, 0x17);
 3887              		.loc 1 790 24 is_stmt 0
 3888 1430 93067001 		li	a3,23
 3889 1434 97070000 		la	a5,HEAP_END_ADDR
 3889      83B70700 
 3890 143c 03B60700 		ld	a2,0(a5)
 3891 1440 93050900 		mv	a1,s2
GAS LISTING /tmp/ccnlBL9w.s 			page 104


 3892 1444 03B58401 		ld	a0,24(s1)
 3893 1448 97000000 		call	_ZN5RiscV12buildSectionEPvmmm
 3893      E7800000 
 3894              	.LVL310:
 792:src/kernel/riscv.cpp ****     RiscV::mapConsoleRegisters(uPMT);
 3895              		.loc 1 792 5 is_stmt 1
 792:src/kernel/riscv.cpp ****     RiscV::mapConsoleRegisters(uPMT);
 3896              		.loc 1 792 31 is_stmt 0
 3897 1450 03B58401 		ld	a0,24(s1)
 3898 1454 97000000 		call	_ZN5RiscV19mapConsoleRegistersEPv
 3898      E7800000 
 3899              	.LVL311:
 793:src/kernel/riscv.cpp ****     RiscV::ms_sstatus(1<<18);
 3900              		.loc 1 793 5 is_stmt 1
 3901              	.LBB209:
 3902              	.LBB210:
 209:src/kernel/../../h/kernel/riscv.hpp **** }
 3903              		.loc 2 209 5
 209:src/kernel/../../h/kernel/riscv.hpp **** }
 3904              		.loc 2 209 55 is_stmt 0
 3905 145c B7070400 		li	a5,262144
 3906              	#APP
 3907              	# 209 "src/kernel/../../h/kernel/riscv.hpp" 1
 3908              		csrs sstatus, a5
 3909              	# 0 "" 2
 3910              	.LVL312:
 3911              	#NO_APP
 3912              	.LBE210:
 3913              	.LBE209:
 794:src/kernel/riscv.cpp **** }
 3914              		.loc 1 794 1
 3915 1464 83308102 		ld	ra,40(sp)
 3916              		.cfi_restore 1
 3917 1468 03340102 		ld	s0,32(sp)
 3918              		.cfi_restore 8
 3919              		.cfi_def_cfa 2, 48
 3920 146c 83348101 		ld	s1,24(sp)
 3921              		.cfi_restore 9
 3922 1470 03390101 		ld	s2,16(sp)
 3923              		.cfi_restore 18
 3924              	.LVL313:
 3925 1474 83398100 		ld	s3,8(sp)
 3926              		.cfi_restore 19
 3927 1478 033A0100 		ld	s4,0(sp)
 3928              		.cfi_restore 20
 3929 147c 13010103 		addi	sp,sp,48
 3930              		.cfi_def_cfa_offset 0
 3931 1480 67800000 		jr	ra
 3932              		.cfi_endproc
 3933              	.LFE78:
 3935              		.align	2
 3936              		.globl	_ZN5RiscV10initializeEv
 3938              	_ZN5RiscV10initializeEv:
 3939              	.LFB47:
  20:src/kernel/riscv.cpp **** void RiscV::initialize(){
 3940              		.loc 1 20 25 is_stmt 1
 3941              		.cfi_startproc
GAS LISTING /tmp/ccnlBL9w.s 			page 105


 3942 1484 130101FF 		addi	sp,sp,-16
 3943              		.cfi_def_cfa_offset 16
 3944 1488 23341100 		sd	ra,8(sp)
 3945 148c 23308100 		sd	s0,0(sp)
 3946              		.cfi_offset 1, -8
 3947              		.cfi_offset 8, -16
 3948 1490 13040101 		addi	s0,sp,16
 3949              		.cfi_def_cfa 8, 0
  21:src/kernel/riscv.cpp ****     RiscV::w_stvec((uint64) &RiscV::supervisorTrap);
 3950              		.loc 1 21 5
  21:src/kernel/riscv.cpp ****     RiscV::w_stvec((uint64) &RiscV::supervisorTrap);
 3951              		.loc 1 21 19 is_stmt 0
 3952 1494 97070000 		la	a5,_ZN5RiscV14supervisorTrapEv
 3952      83B70700 
 3953              	.LVL314:
 3954              	.LBB211:
 3955              	.LBB212:
 205:src/kernel/../../h/kernel/riscv.hpp **** }
 3956              		.loc 2 205 5 is_stmt 1
 205:src/kernel/../../h/kernel/riscv.hpp **** }
 3957              		.loc 2 205 56 is_stmt 0
 3958              	#APP
 3959              	# 205 "src/kernel/../../h/kernel/riscv.hpp" 1
 3960              		csrw stvec, a5
 3961              	# 0 "" 2
 3962              	.LVL315:
 3963              	#NO_APP
 3964              	.LBE212:
 3965              	.LBE211:
  22:src/kernel/riscv.cpp ****     kmem_init(BUDDY_START_ADDR_CONST, 4096);
 3966              		.loc 1 22 5 is_stmt 1
  22:src/kernel/riscv.cpp ****     kmem_init(BUDDY_START_ADDR_CONST, 4096);
 3967              		.loc 1 22 15 is_stmt 0
 3968 14a0 97070000 		la	a5,HEAP_START_ADDR
 3968      83B70700 
 3969 14a8 03B50700 		ld	a0,0(a5)
 3970 14ac 1355C500 		srli	a0,a0,12
 3971 14b0 13052500 		addi	a0,a0,2
  22:src/kernel/riscv.cpp ****     kmem_init(BUDDY_START_ADDR_CONST, 4096);
 3972              		.loc 1 22 14
 3973 14b4 B7150000 		li	a1,4096
 3974 14b8 1315C500 		slli	a0,a0,12
 3975 14bc 97000000 		call	_Z9kmem_initPvi@plt
 3975      E7800000 
 3976              	.LVL316:
  23:src/kernel/riscv.cpp ****     MemoryAllocator::initialize();
 3977              		.loc 1 23 5 is_stmt 1
  23:src/kernel/riscv.cpp ****     MemoryAllocator::initialize();
 3978              		.loc 1 23 32 is_stmt 0
 3979 14c4 97000000 		call	_ZN15MemoryAllocator10initializeEv@plt
 3979      E7800000 
 3980              	.LVL317:
  24:src/kernel/riscv.cpp ****     Scheduler::initialize();
 3981              		.loc 1 24 5 is_stmt 1
  24:src/kernel/riscv.cpp ****     Scheduler::initialize();
 3982              		.loc 1 24 26 is_stmt 0
 3983 14cc 97000000 		call	_ZN9Scheduler10initializeEv@plt
GAS LISTING /tmp/ccnlBL9w.s 			page 106


 3983      E7800000 
 3984              	.LVL318:
  25:src/kernel/riscv.cpp ****     TCB::initialize();
 3985              		.loc 1 25 5 is_stmt 1
  25:src/kernel/riscv.cpp ****     TCB::initialize();
 3986              		.loc 1 25 20 is_stmt 0
 3987 14d4 97000000 		call	_ZN3TCB10initializeEv@plt
 3987      E7800000 
 3988              	.LVL319:
  26:src/kernel/riscv.cpp ****     SCB::initialize();
 3989              		.loc 1 26 5 is_stmt 1
  26:src/kernel/riscv.cpp ****     SCB::initialize();
 3990              		.loc 1 26 20 is_stmt 0
 3991 14dc 97000000 		call	_ZN3SCB10initializeEv@plt
 3991      E7800000 
 3992              	.LVL320:
  27:src/kernel/riscv.cpp ****     ConsoleUtil::initialize();
 3993              		.loc 1 27 5 is_stmt 1
  27:src/kernel/riscv.cpp ****     ConsoleUtil::initialize();
 3994              		.loc 1 27 28 is_stmt 0
 3995 14e4 97000000 		call	_ZN11ConsoleUtil10initializeEv@plt
 3995      E7800000 
 3996              	.LVL321:
  28:src/kernel/riscv.cpp ****     RiscV::buildKernelPMT();
 3997              		.loc 1 28 5 is_stmt 1
  28:src/kernel/riscv.cpp ****     RiscV::buildKernelPMT();
 3998              		.loc 1 28 26 is_stmt 0
 3999 14ec 97000000 		call	_ZN5RiscV14buildKernelPMTEv
 3999      E7800000 
 4000              	.LVL322:
  29:src/kernel/riscv.cpp ****     RiscV::buildUserPMT();
 4001              		.loc 1 29 5 is_stmt 1
  29:src/kernel/riscv.cpp ****     RiscV::buildUserPMT();
 4002              		.loc 1 29 24 is_stmt 0
 4003 14f4 97000000 		call	_ZN5RiscV12buildUserPMTEv
 4003      E7800000 
 4004              	.LVL323:
  30:src/kernel/riscv.cpp ****     RiscV::initialized = true;
 4005              		.loc 1 30 5 is_stmt 1
  30:src/kernel/riscv.cpp ****     RiscV::initialized = true;
 4006              		.loc 1 30 24 is_stmt 0
 4007 14fc 97070000 		lla	a5,.LANCHOR0
 4007      93870700 
 4008 1504 13071000 		li	a4,1
 4009 1508 2380E702 		sb	a4,32(a5)
  31:src/kernel/riscv.cpp ****     RiscV::startVirtualMemory(RiscV::kPMT);
 4010              		.loc 1 31 5 is_stmt 1
  31:src/kernel/riscv.cpp ****     RiscV::startVirtualMemory(RiscV::kPMT);
 4011              		.loc 1 31 30 is_stmt 0
 4012 150c 83B70701 		ld	a5,16(a5)
 4013              	.LVL324:
 4014              	.LBB213:
 4015              	.LBB214:
 264:src/kernel/../../h/kernel/riscv.hpp ****     asm("csrw satp, %[satp]" : : [satp] "r" (satp));
 4016              		.loc 2 264 5 is_stmt 1
 264:src/kernel/../../h/kernel/riscv.hpp ****     asm("csrw satp, %[satp]" : : [satp] "r" (satp));
 4017              		.loc 2 264 51 is_stmt 0
GAS LISTING /tmp/ccnlBL9w.s 			page 107


 4018 1510 93D7C700 		srli	a5,a5,12
 4019              	.LVL325:
 264:src/kernel/../../h/kernel/riscv.hpp ****     asm("csrw satp, %[satp]" : : [satp] "r" (satp));
 4020              		.loc 2 264 12
 4021 1514 1307F0FF 		li	a4,-1
 4022 1518 1317F703 		slli	a4,a4,63
 4023 151c B3E7E700 		or	a5,a5,a4
 4024              	.LVL326:
 265:src/kernel/../../h/kernel/riscv.hpp **** }
 4025              		.loc 2 265 5 is_stmt 1
 265:src/kernel/../../h/kernel/riscv.hpp **** }
 4026              		.loc 2 265 52 is_stmt 0
 4027              	#APP
 4028              	# 265 "src/kernel/../../h/kernel/riscv.hpp" 1
 4029              		csrw satp, a5
 4030              	# 0 "" 2
 4031              	.LVL327:
 4032              	#NO_APP
 4033              	.LBE214:
 4034              	.LBE213:
  32:src/kernel/riscv.cpp ****     RiscV::enableInterrupts();
 4035              		.loc 1 32 5 is_stmt 1
 233:src/kernel/../../h/kernel/riscv.hpp ****     RiscV::ms_sie(SIP_SEIE);
 4036              		.loc 2 233 5
 4037              	.LBB215:
 4038              	.LBB216:
 4039              	.LBB217:
 225:src/kernel/../../h/kernel/riscv.hpp **** }
 4040              		.loc 2 225 5
 225:src/kernel/../../h/kernel/riscv.hpp **** }
 4041              		.loc 2 225 51 is_stmt 0
 4042 1524 93072000 		li	a5,2
 4043              	#APP
 4044              	# 225 "src/kernel/../../h/kernel/riscv.hpp" 1
 4045              		csrs sie, a5
 4046              	# 0 "" 2
 4047              	.LVL328:
 4048              	#NO_APP
 4049              	.LBE217:
 4050              	.LBE216:
 4051              	.LBE215:
 234:src/kernel/../../h/kernel/riscv.hpp ****     RiscV::ms_sstatus(SSTATUS_SIE);
 4052              		.loc 2 234 5 is_stmt 1
 4053              	.LBB222:
 4054              	.LBB218:
 4055              	.LBB219:
 225:src/kernel/../../h/kernel/riscv.hpp **** }
 4056              		.loc 2 225 5
 225:src/kernel/../../h/kernel/riscv.hpp **** }
 4057              		.loc 2 225 51 is_stmt 0
 4058 152c 13070020 		li	a4,512
 4059              	#APP
 4060              	# 225 "src/kernel/../../h/kernel/riscv.hpp" 1
 4061              		csrs sie, a4
 4062              	# 0 "" 2
 4063              	.LVL329:
 4064              	#NO_APP
GAS LISTING /tmp/ccnlBL9w.s 			page 108


 4065              	.LBE219:
 4066              	.LBE218:
 4067              	.LBE222:
 235:src/kernel/../../h/kernel/riscv.hpp **** }
 4068              		.loc 2 235 5 is_stmt 1
 4069              	.LBB223:
 4070              	.LBB220:
 4071              	.LBB221:
 209:src/kernel/../../h/kernel/riscv.hpp **** }
 4072              		.loc 2 209 5
 209:src/kernel/../../h/kernel/riscv.hpp **** }
 4073              		.loc 2 209 55 is_stmt 0
 4074              	#APP
 4075              	# 209 "src/kernel/../../h/kernel/riscv.hpp" 1
 4076              		csrs sstatus, a5
 4077              	# 0 "" 2
 4078              	.LVL330:
 4079              	#NO_APP
 4080              	.LBE221:
 4081              	.LBE220:
 4082              	.LBE223:
  33:src/kernel/riscv.cpp **** }
 4083              		.loc 1 33 1
 4084 1538 83308100 		ld	ra,8(sp)
 4085              		.cfi_restore 1
 4086 153c 03340100 		ld	s0,0(sp)
 4087              		.cfi_restore 8
 4088              		.cfi_def_cfa 2, 16
 4089 1540 13010101 		addi	sp,sp,16
 4090              		.cfi_def_cfa_offset 0
 4091 1544 67800000 		jr	ra
 4092              		.cfi_endproc
 4093              	.LFE47:
 4095              		.globl	_ZN5RiscV11initializedE
 4096              		.globl	_ZN5RiscV4uPMTE
 4097              		.globl	_ZN5RiscV4kPMTE
 4098              		.globl	_ZN5RiscV16userMainFinishedE
 4099              		.globl	_ZN5RiscV10globalTimeE
 4100              		.bss
 4101              		.align	3
 4102              		.set	.LANCHOR0,. + 0
 4105              	_ZN5RiscV16userMainFinishedE:
 4106 0000 00       		.zero	1
 4107 0001 00000000 		.zero	7
 4107      000000
 4110              	_ZN5RiscV10globalTimeE:
 4111 0008 00000000 		.zero	8
 4111      00000000 
 4114              	_ZN5RiscV4kPMTE:
 4115 0010 00000000 		.zero	8
 4115      00000000 
 4118              	_ZN5RiscV4uPMTE:
 4119 0018 00000000 		.zero	8
 4119      00000000 
 4122              	_ZN5RiscV11initializedE:
 4123 0020 00       		.zero	1
 4124              		.text
GAS LISTING /tmp/ccnlBL9w.s 			page 109


 4125              	.Letext0:
 4126              		.file 3 "src/kernel/../../h/kernel/../../lib/hw.h"
 4127              		.file 4 "src/kernel/../../h/kernel/tcb.hpp"
 4128              		.file 5 "src/kernel/../../h/kernel/utility.hpp"
 4129              		.file 6 "src/kernel/../../h/kernel/memory_allocator.hpp"
 4130              		.file 7 "src/kernel/../../h/kernel/buddy_allocator.hpp"
 4131              		.file 8 "src/kernel/../../h/kernel/console_util.hpp"
 4132              		.file 9 "src/kernel/../../h/kernel/scb.hpp"
 4133              		.file 10 "src/kernel/../../h/kernel/slab_t.hpp"
 4134              		.file 11 "src/kernel/../../h/kernel/cache_t.hpp"
 4135              		.file 12 "src/kernel/../../h/kernel/scheduler.hpp"
 4136              		.file 13 "src/kernel/../../h/kernel/slab.hpp"
 12851              		.align	3
 12854              	DW.ref.__gxx_personality_v0:
 12855 0000 00000000 		.dword	__gxx_personality_v0
 12855      00000000 
 12856              		.ident	"GCC: (Ubuntu 9.4.0-1ubuntu1~20.04) 9.4.0"
 12857              		.section	.note.GNU-stack,"",@progbits
GAS LISTING /tmp/ccnlBL9w.s 			page 110


DEFINED SYMBOLS
                            *ABS*:0000000000000000 riscv.cpp
     /tmp/ccnlBL9w.s:9      .text:0000000000000000 _ZN5RiscV10popSppSpieEv
     /tmp/ccnlBL9w.s:13     .text:0000000000000000 .L0 
     /tmp/ccnlBL9w.s:14     .text:0000000000000000 .L0 
     /tmp/ccnlBL9w.s:15     .text:0000000000000004 .L0 
     /tmp/ccnlBL9w.s:17     .text:0000000000000008 .L0 
     /tmp/ccnlBL9w.s:19     .text:000000000000000c .L0 
     /tmp/ccnlBL9w.s:21     .text:000000000000000c .L0 
     /tmp/ccnlBL9w.s:22     .text:000000000000000c .L0 
     /tmp/ccnlBL9w.s:26     .text:000000000000001c .L0 
     /tmp/ccnlBL9w.s:29     .text:0000000000000024 .L0 
     /tmp/ccnlBL9w.s:30     .text:0000000000000024 .L0 
src/kernel/riscv.cpp:40     .text:0000000000000028 .L0 
     /tmp/ccnlBL9w.s:37     .text:000000000000002c .L0 
     /tmp/ccnlBL9w.s:39     .text:000000000000002c .L0 
src/kernel/riscv.cpp:41     .text:0000000000000030 .L0 
     /tmp/ccnlBL9w.s:46     .text:0000000000000034 .L0 
     /tmp/ccnlBL9w.s:48     .text:0000000000000034 .L0 
     /tmp/ccnlBL9w.s:56     .text:0000000000000040 .L0 
src/kernel/riscv.cpp:44     .text:0000000000000040 .L0 
     /tmp/ccnlBL9w.s:63     .text:0000000000000044 .L0 
     /tmp/ccnlBL9w.s:64     .text:0000000000000048 .L0 
     /tmp/ccnlBL9w.s:65     .text:0000000000000048 .L0 
     /tmp/ccnlBL9w.s:66     .text:0000000000000048 .L0 
     /tmp/ccnlBL9w.s:68     .text:000000000000004c .L0 
     /tmp/ccnlBL9w.s:71     .text:0000000000000050 .L0 
     /tmp/ccnlBL9w.s:73     .text:0000000000000050 .L0 
src/kernel/riscv.cpp:38     .text:0000000000000050 .L0 
     /tmp/ccnlBL9w.s:80     .text:0000000000000058 .L0 
     /tmp/ccnlBL9w.s:86     .text:0000000000000058 _ZN5RiscV28executeThreadDispatchSyscallEv
     /tmp/ccnlBL9w.s:89     .text:0000000000000058 .L0 
     /tmp/ccnlBL9w.s:90     .text:0000000000000058 .L0 
     /tmp/ccnlBL9w.s:91     .text:000000000000005c .L0 
     /tmp/ccnlBL9w.s:94     .text:0000000000000064 .L0 
     /tmp/ccnlBL9w.s:95     .text:0000000000000064 .L0 
     /tmp/ccnlBL9w.s:97     .text:0000000000000068 .L0 
     /tmp/ccnlBL9w.s:99     .text:0000000000000068 .L0 
     /tmp/ccnlBL9w.s:100    .text:0000000000000068 .L0 
     /tmp/ccnlBL9w.s:104    .text:0000000000000074 .L0 
     /tmp/ccnlBL9w.s:105    .text:0000000000000074 .L0 
     /tmp/ccnlBL9w.s:108    .text:000000000000007c .L0 
     /tmp/ccnlBL9w.s:109    .text:000000000000007c .L0 
     /tmp/ccnlBL9w.s:112    .text:0000000000000084 .L0 
     /tmp/ccnlBL9w.s:113    .text:0000000000000088 .L0 
     /tmp/ccnlBL9w.s:115    .text:000000000000008c .L0 
     /tmp/ccnlBL9w.s:116    .text:000000000000008c .L0 
     /tmp/ccnlBL9w.s:118    .text:0000000000000090 .L0 
     /tmp/ccnlBL9w.s:120    .text:0000000000000094 .L0 
     /tmp/ccnlBL9w.s:126    .text:0000000000000094 _ZN5RiscV18executePutcSyscallEv
     /tmp/ccnlBL9w.s:129    .text:0000000000000094 .L0 
     /tmp/ccnlBL9w.s:130    .text:0000000000000094 .L0 
     /tmp/ccnlBL9w.s:131    .text:0000000000000098 .L0 
     /tmp/ccnlBL9w.s:134    .text:00000000000000a0 .L0 
     /tmp/ccnlBL9w.s:135    .text:00000000000000a0 .L0 
     /tmp/ccnlBL9w.s:137    .text:00000000000000a4 .L0 
     /tmp/ccnlBL9w.s:139    .text:00000000000000a4 .L0 
GAS LISTING /tmp/ccnlBL9w.s 			page 111


     /tmp/ccnlBL9w.s:140    .text:00000000000000a4 .L0 
     /tmp/ccnlBL9w.s:142    .text:00000000000000ac .L0 
     /tmp/ccnlBL9w.s:144    .text:00000000000000b0 .L0 
     /tmp/ccnlBL9w.s:145    .text:00000000000000b0 .L0 
     /tmp/ccnlBL9w.s:151    .text:00000000000000c4 .L0 
     /tmp/ccnlBL9w.s:152    .text:00000000000000c4 .L0 
src/kernel/riscv.cpp:511    .text:00000000000000c4 .L0 
     /tmp/ccnlBL9w.s:159    .text:00000000000000c8 .L0 
     /tmp/ccnlBL9w.s:161    .text:00000000000000c8 .L0 
     /tmp/ccnlBL9w.s:165    .text:00000000000000d4 .L0 
     /tmp/ccnlBL9w.s:166    .text:00000000000000d8 .L0 
     /tmp/ccnlBL9w.s:168    .text:00000000000000dc .L0 
     /tmp/ccnlBL9w.s:169    .text:00000000000000dc .L0 
     /tmp/ccnlBL9w.s:171    .text:00000000000000e0 .L0 
     /tmp/ccnlBL9w.s:173    .text:00000000000000e4 .L0 
     /tmp/ccnlBL9w.s:179    .text:00000000000000e4 _ZN5RiscV29jumpToDesignatedPrivilegeModeEv
     /tmp/ccnlBL9w.s:182    .text:00000000000000e4 .L0 
     /tmp/ccnlBL9w.s:183    .text:00000000000000e4 .L0 
     /tmp/ccnlBL9w.s:184    .text:00000000000000e8 .L0 
     /tmp/ccnlBL9w.s:186    .text:00000000000000ec .L0 
     /tmp/ccnlBL9w.s:188    .text:00000000000000f0 .L0 
     /tmp/ccnlBL9w.s:190    .text:00000000000000f0 .L0 
     /tmp/ccnlBL9w.s:191    .text:00000000000000f0 .L0 
     /tmp/ccnlBL9w.s:195    .text:0000000000000100 .L0 
     /tmp/ccnlBL9w.s:202    .text:0000000000000108 .L0 
     /tmp/ccnlBL9w.s:203    .text:0000000000000108 .L0 
     /tmp/ccnlBL9w.s:204    .text:0000000000000108 .L0 
     /tmp/ccnlBL9w.s:215    .text:0000000000000110 .L0 
     /tmp/ccnlBL9w.s:216    .text:0000000000000114 .L0 
     /tmp/ccnlBL9w.s:217    .text:0000000000000114 .L0 
     /tmp/ccnlBL9w.s:218    .text:0000000000000114 .L0 
     /tmp/ccnlBL9w.s:220    .text:0000000000000118 .L0 
     /tmp/ccnlBL9w.s:223    .text:000000000000011c .L0 
     /tmp/ccnlBL9w.s:228    .text:000000000000011c .L0 
     /tmp/ccnlBL9w.s:229    .text:000000000000011c .L0 
     /tmp/ccnlBL9w.s:230    .text:000000000000011c .L0 
     /tmp/ccnlBL9w.s:237    .text:0000000000000124 .L0 
     /tmp/ccnlBL9w.s:240    .text:0000000000000128 .L0 
     /tmp/ccnlBL9w.s:246    .text:0000000000000128 _ZN5RiscV8finalizeEv
     /tmp/ccnlBL9w.s:249    .text:0000000000000128 .L0 
     /tmp/ccnlBL9w.s:250    .text:0000000000000128 .L0 
     /tmp/ccnlBL9w.s:251    .text:000000000000012c .L0 
     /tmp/ccnlBL9w.s:254    .text:0000000000000134 .L0 
     /tmp/ccnlBL9w.s:255    .text:0000000000000134 .L0 
     /tmp/ccnlBL9w.s:257    .text:0000000000000138 .L0 
     /tmp/ccnlBL9w.s:259    .text:0000000000000138 .L0 
     /tmp/ccnlBL9w.s:260    .text:0000000000000138 .L0 
     /tmp/ccnlBL9w.s:263    .text:0000000000000144 .L0 
     /tmp/ccnlBL9w.s:264    .text:0000000000000144 .L0 
     /tmp/ccnlBL9w.s:267    .text:0000000000000150 .L0 
     /tmp/ccnlBL9w.s:268    .text:0000000000000150 .L0 
     /tmp/ccnlBL9w.s:273    .text:000000000000015c .L0 
     /tmp/ccnlBL9w.s:276    .text:000000000000015c .L0 
     /tmp/ccnlBL9w.s:283    .text:000000000000015c .L0 
     /tmp/ccnlBL9w.s:284    .text:000000000000015c .L0 
     /tmp/ccnlBL9w.s:285    .text:000000000000015c .L0 
     /tmp/ccnlBL9w.s:298    .text:0000000000000164 .L0 
GAS LISTING /tmp/ccnlBL9w.s 			page 112


     /tmp/ccnlBL9w.s:304    .text:0000000000000164 .L0 
     /tmp/ccnlBL9w.s:305    .text:0000000000000164 .L0 
     /tmp/ccnlBL9w.s:306    .text:0000000000000164 .L0 
     /tmp/ccnlBL9w.s:320    .text:000000000000016c .L0 
     /tmp/ccnlBL9w.s:321    .text:000000000000016c .L0 
     /tmp/ccnlBL9w.s:325    .text:000000000000017c .L0 
     /tmp/ccnlBL9w.s:326    .text:000000000000017c .L0 
     /tmp/ccnlBL9w.s:328    .text:0000000000000180 .L0 
     /tmp/ccnlBL9w.s:331    .text:000000000000018c .L0 
     /tmp/ccnlBL9w.s:334    .text:0000000000000190 .L0 
     /tmp/ccnlBL9w.s:335    .text:0000000000000190 .L0 
     /tmp/ccnlBL9w.s:341    .text:00000000000001a4 .L0 
     /tmp/ccnlBL9w.s:342    .text:00000000000001a4 .L0 
     /tmp/ccnlBL9w.s:348    .text:00000000000001c0 .L0 
     /tmp/ccnlBL9w.s:349    .text:00000000000001c0 .L0 
     /tmp/ccnlBL9w.s:352    .text:00000000000001c8 .L0 
     /tmp/ccnlBL9w.s:355    .text:00000000000001cc .L0 
     /tmp/ccnlBL9w.s:356    .text:00000000000001d0 .L0 
     /tmp/ccnlBL9w.s:358    .text:00000000000001d4 .L0 
     /tmp/ccnlBL9w.s:359    .text:00000000000001d4 .L0 
     /tmp/ccnlBL9w.s:361    .text:00000000000001d8 .L0 
     /tmp/ccnlBL9w.s:363    .text:00000000000001dc .L0 
     /tmp/ccnlBL9w.s:369    .text:00000000000001dc _ZN5RiscV16saveA0toSscratchEv
     /tmp/ccnlBL9w.s:372    .text:00000000000001dc .L0 
     /tmp/ccnlBL9w.s:373    .text:00000000000001dc .L0 
     /tmp/ccnlBL9w.s:374    .text:00000000000001e0 .L0 
     /tmp/ccnlBL9w.s:376    .text:00000000000001e4 .L0 
     /tmp/ccnlBL9w.s:378    .text:00000000000001e8 .L0 
     /tmp/ccnlBL9w.s:380    .text:00000000000001e8 .L0 
     /tmp/ccnlBL9w.s:381    .text:00000000000001e8 .L0 
src/kernel/riscv.cpp:591    .text:00000000000001e8 .L0 
     /tmp/ccnlBL9w.s:387    .text:00000000000001ec .L0 
     /tmp/ccnlBL9w.s:389    .text:00000000000001ec .L0 
src/kernel/riscv.cpp:592    .text:00000000000001fc .L0 
     /tmp/ccnlBL9w.s:398    .text:0000000000000200 .L0 
src/kernel/riscv.cpp:593    .text:0000000000000200 .L0 
     /tmp/ccnlBL9w.s:403    .text:0000000000000204 .L0 
src/kernel/riscv.cpp:594    .text:0000000000000204 .L0 
     /tmp/ccnlBL9w.s:409    .text:0000000000000208 .L0 
     /tmp/ccnlBL9w.s:410    .text:000000000000020c .L0 
     /tmp/ccnlBL9w.s:411    .text:000000000000020c .L0 
     /tmp/ccnlBL9w.s:413    .text:0000000000000210 .L0 
     /tmp/ccnlBL9w.s:415    .text:0000000000000214 .L0 
     /tmp/ccnlBL9w.s:421    .text:0000000000000214 _ZN5RiscV22executeMemAllocSyscallEv
     /tmp/ccnlBL9w.s:424    .text:0000000000000214 .L0 
     /tmp/ccnlBL9w.s:425    .text:0000000000000214 .L0 
     /tmp/ccnlBL9w.s:426    .text:0000000000000218 .L0 
     /tmp/ccnlBL9w.s:429    .text:0000000000000220 .L0 
     /tmp/ccnlBL9w.s:430    .text:0000000000000220 .L0 
     /tmp/ccnlBL9w.s:432    .text:0000000000000224 .L0 
     /tmp/ccnlBL9w.s:434    .text:0000000000000224 .L0 
     /tmp/ccnlBL9w.s:435    .text:0000000000000224 .L0 
src/kernel/riscv.cpp:209    .text:0000000000000224 .L0 
     /tmp/ccnlBL9w.s:442    .text:0000000000000228 .L0 
     /tmp/ccnlBL9w.s:444    .text:0000000000000228 .L0 
     /tmp/ccnlBL9w.s:447    .text:0000000000000230 .L0 
src/kernel/riscv.cpp:214    .text:0000000000000230 .L0 
GAS LISTING /tmp/ccnlBL9w.s 			page 113


     /tmp/ccnlBL9w.s:453    .text:0000000000000234 .L0 
     /tmp/ccnlBL9w.s:455    .text:0000000000000234 .L0 
     /tmp/ccnlBL9w.s:458    .text:000000000000023c .L0 
     /tmp/ccnlBL9w.s:459    .text:0000000000000240 .L0 
     /tmp/ccnlBL9w.s:461    .text:0000000000000244 .L0 
     /tmp/ccnlBL9w.s:462    .text:0000000000000244 .L0 
     /tmp/ccnlBL9w.s:464    .text:0000000000000248 .L0 
     /tmp/ccnlBL9w.s:466    .text:000000000000024c .L0 
     /tmp/ccnlBL9w.s:472    .text:000000000000024c _ZN5RiscV21executeMemFreeSyscallEv
     /tmp/ccnlBL9w.s:475    .text:000000000000024c .L0 
     /tmp/ccnlBL9w.s:476    .text:000000000000024c .L0 
     /tmp/ccnlBL9w.s:477    .text:0000000000000250 .L0 
     /tmp/ccnlBL9w.s:480    .text:0000000000000258 .L0 
     /tmp/ccnlBL9w.s:481    .text:0000000000000258 .L0 
     /tmp/ccnlBL9w.s:483    .text:000000000000025c .L0 
     /tmp/ccnlBL9w.s:485    .text:000000000000025c .L0 
     /tmp/ccnlBL9w.s:486    .text:000000000000025c .L0 
     /tmp/ccnlBL9w.s:490    .text:000000000000026c .L0 
     /tmp/ccnlBL9w.s:494    .text:0000000000000270 .L0 
src/kernel/riscv.cpp:234    .text:0000000000000270 .L0 
     /tmp/ccnlBL9w.s:500    .text:0000000000000274 .L0 
     /tmp/ccnlBL9w.s:502    .text:0000000000000274 .L0 
     /tmp/ccnlBL9w.s:505    .text:000000000000027c .L0 
     /tmp/ccnlBL9w.s:506    .text:0000000000000280 .L0 
     /tmp/ccnlBL9w.s:507    .text:0000000000000280 .L0 
     /tmp/ccnlBL9w.s:509    .text:0000000000000284 .L0 
     /tmp/ccnlBL9w.s:510    .text:0000000000000284 .L0 
     /tmp/ccnlBL9w.s:512    .text:0000000000000288 .L0 
     /tmp/ccnlBL9w.s:515    .text:000000000000028c .L0 
     /tmp/ccnlBL9w.s:517    .text:000000000000028c .L0 
src/kernel/riscv.cpp:227    .text:000000000000028c .L0 
     /tmp/ccnlBL9w.s:524    .text:0000000000000290 .L0 
     /tmp/ccnlBL9w.s:526    .text:0000000000000290 .L0 
     /tmp/ccnlBL9w.s:529    .text:0000000000000298 .L0 
     /tmp/ccnlBL9w.s:530    .text:000000000000029c .L0 
     /tmp/ccnlBL9w.s:536    .text:000000000000029c _ZN5RiscV26executeThreadCreateSyscallEv
     /tmp/ccnlBL9w.s:539    .text:000000000000029c .L0 
     /tmp/ccnlBL9w.s:12854  .data.rel.local.DW.ref.__gxx_personality_v0:0000000000000000 DW.ref.__gxx_personality_v0
     /tmp/ccnlBL9w.s:542    .text:000000000000029c .L0 
     /tmp/ccnlBL9w.s:543    .text:00000000000002a0 .L0 
     /tmp/ccnlBL9w.s:551    .text:00000000000002bc .L0 
     /tmp/ccnlBL9w.s:552    .text:00000000000002bc .L0 
     /tmp/ccnlBL9w.s:553    .text:00000000000002bc .L0 
     /tmp/ccnlBL9w.s:554    .text:00000000000002bc .L0 
     /tmp/ccnlBL9w.s:555    .text:00000000000002bc .L0 
     /tmp/ccnlBL9w.s:556    .text:00000000000002bc .L0 
     /tmp/ccnlBL9w.s:557    .text:00000000000002bc .L0 
     /tmp/ccnlBL9w.s:559    .text:00000000000002c0 .L0 
     /tmp/ccnlBL9w.s:561    .text:00000000000002c0 .L0 
     /tmp/ccnlBL9w.s:562    .text:00000000000002c0 .L0 
src/kernel/riscv.cpp:244    .text:00000000000002c0 .L0 
     /tmp/ccnlBL9w.s:569    .text:00000000000002c4 .L0 
src/kernel/riscv.cpp:245    .text:00000000000002c4 .L0 
     /tmp/ccnlBL9w.s:575    .text:00000000000002c8 .L0 
src/kernel/riscv.cpp:246    .text:00000000000002c8 .L0 
     /tmp/ccnlBL9w.s:581    .text:00000000000002cc .L0 
src/kernel/riscv.cpp:247    .text:00000000000002cc .L0 
GAS LISTING /tmp/ccnlBL9w.s 			page 114


     /tmp/ccnlBL9w.s:587    .text:00000000000002d0 .L0 
     /tmp/ccnlBL9w.s:589    .text:00000000000002d0 .L0 
     /tmp/ccnlBL9w.s:597    .text:00000000000002e4 .L0 
     /tmp/ccnlBL9w.s:607    .text:00000000000002fc .L0 
     /tmp/ccnlBL9w.s:608    .text:00000000000002fc .L0 
     /tmp/ccnlBL9w.s:610    .text:0000000000000300 .L0 
     /tmp/ccnlBL9w.s:611    .text:0000000000000300 .L0 
     /tmp/ccnlBL9w.s:613    .text:0000000000000304 .L0 
     /tmp/ccnlBL9w.s:615    .text:0000000000000308 .L0 
     /tmp/ccnlBL9w.s:616    .text:0000000000000308 .L0 
     /tmp/ccnlBL9w.s:623    .text:0000000000000314 .L0 
     /tmp/ccnlBL9w.s:624    .text:0000000000000314 .L0 
     /tmp/ccnlBL9w.s:626    .text:0000000000000318 .L0 
     /tmp/ccnlBL9w.s:630    .text:000000000000031c .L0 
src/kernel/riscv.cpp:264    .text:000000000000031c .L0 
     /tmp/ccnlBL9w.s:636    .text:0000000000000320 .L0 
     /tmp/ccnlBL9w.s:638    .text:0000000000000320 .L0 
     /tmp/ccnlBL9w.s:641    .text:0000000000000328 .L0 
     /tmp/ccnlBL9w.s:642    .text:000000000000032c .L0 
     /tmp/ccnlBL9w.s:643    .text:000000000000032c .L0 
     /tmp/ccnlBL9w.s:645    .text:0000000000000330 .L0 
     /tmp/ccnlBL9w.s:646    .text:0000000000000330 .L0 
     /tmp/ccnlBL9w.s:648    .text:0000000000000334 .L0 
     /tmp/ccnlBL9w.s:651    .text:0000000000000338 .L0 
     /tmp/ccnlBL9w.s:654    .text:000000000000033c .L0 
     /tmp/ccnlBL9w.s:657    .text:0000000000000340 .L0 
     /tmp/ccnlBL9w.s:660    .text:0000000000000344 .L0 
     /tmp/ccnlBL9w.s:663    .text:0000000000000348 .L0 
     /tmp/ccnlBL9w.s:667    .text:000000000000034c .L0 
     /tmp/ccnlBL9w.s:669    .text:000000000000034c .L0 
     /tmp/ccnlBL9w.s:676    .text:0000000000000358 .L0 
     /tmp/ccnlBL9w.s:684    .text:0000000000000370 .L0 
     /tmp/ccnlBL9w.s:714    .text:0000000000000370 _ZN5RiscV30executeThreadAttachBodySyscallEv
     /tmp/ccnlBL9w.s:717    .text:0000000000000370 .L0 
     /tmp/ccnlBL9w.s:720    .text:0000000000000370 .L0 
     /tmp/ccnlBL9w.s:721    .text:0000000000000374 .L0 
     /tmp/ccnlBL9w.s:729    .text:0000000000000390 .L0 
     /tmp/ccnlBL9w.s:730    .text:0000000000000390 .L0 
     /tmp/ccnlBL9w.s:731    .text:0000000000000390 .L0 
     /tmp/ccnlBL9w.s:732    .text:0000000000000390 .L0 
     /tmp/ccnlBL9w.s:733    .text:0000000000000390 .L0 
     /tmp/ccnlBL9w.s:734    .text:0000000000000390 .L0 
     /tmp/ccnlBL9w.s:735    .text:0000000000000390 .L0 
     /tmp/ccnlBL9w.s:737    .text:0000000000000394 .L0 
     /tmp/ccnlBL9w.s:739    .text:0000000000000394 .L0 
     /tmp/ccnlBL9w.s:740    .text:0000000000000394 .L0 
src/kernel/riscv.cpp:275    .text:0000000000000394 .L0 
     /tmp/ccnlBL9w.s:747    .text:0000000000000398 .L0 
src/kernel/riscv.cpp:276    .text:0000000000000398 .L0 
     /tmp/ccnlBL9w.s:753    .text:000000000000039c .L0 
src/kernel/riscv.cpp:277    .text:000000000000039c .L0 
     /tmp/ccnlBL9w.s:759    .text:00000000000003a0 .L0 
src/kernel/riscv.cpp:278    .text:00000000000003a0 .L0 
     /tmp/ccnlBL9w.s:765    .text:00000000000003a4 .L0 
     /tmp/ccnlBL9w.s:767    .text:00000000000003a4 .L0 
     /tmp/ccnlBL9w.s:775    .text:00000000000003b8 .L0 
     /tmp/ccnlBL9w.s:785    .text:00000000000003d0 .L0 
GAS LISTING /tmp/ccnlBL9w.s 			page 115


     /tmp/ccnlBL9w.s:786    .text:00000000000003d0 .L0 
     /tmp/ccnlBL9w.s:788    .text:00000000000003d4 .L0 
     /tmp/ccnlBL9w.s:789    .text:00000000000003d4 .L0 
     /tmp/ccnlBL9w.s:791    .text:00000000000003d8 .L0 
     /tmp/ccnlBL9w.s:792    .text:00000000000003d8 .L0 
     /tmp/ccnlBL9w.s:794    .text:00000000000003dc .L0 
     /tmp/ccnlBL9w.s:795    .text:00000000000003dc .L0 
     /tmp/ccnlBL9w.s:797    .text:00000000000003e0 .L0 
     /tmp/ccnlBL9w.s:801    .text:00000000000003e4 .L0 
src/kernel/riscv.cpp:293    .text:00000000000003e4 .L0 
     /tmp/ccnlBL9w.s:807    .text:00000000000003e8 .L0 
     /tmp/ccnlBL9w.s:809    .text:00000000000003e8 .L0 
     /tmp/ccnlBL9w.s:812    .text:00000000000003f0 .L0 
     /tmp/ccnlBL9w.s:813    .text:00000000000003f4 .L0 
     /tmp/ccnlBL9w.s:814    .text:00000000000003f4 .L0 
     /tmp/ccnlBL9w.s:816    .text:00000000000003f8 .L0 
     /tmp/ccnlBL9w.s:817    .text:00000000000003f8 .L0 
     /tmp/ccnlBL9w.s:819    .text:00000000000003fc .L0 
     /tmp/ccnlBL9w.s:822    .text:0000000000000400 .L0 
     /tmp/ccnlBL9w.s:825    .text:0000000000000404 .L0 
     /tmp/ccnlBL9w.s:828    .text:0000000000000408 .L0 
     /tmp/ccnlBL9w.s:831    .text:000000000000040c .L0 
     /tmp/ccnlBL9w.s:834    .text:0000000000000410 .L0 
     /tmp/ccnlBL9w.s:838    .text:0000000000000414 .L0 
     /tmp/ccnlBL9w.s:840    .text:0000000000000414 .L0 
     /tmp/ccnlBL9w.s:847    .text:0000000000000420 .L0 
     /tmp/ccnlBL9w.s:855    .text:0000000000000438 .L0 
     /tmp/ccnlBL9w.s:880    .text:0000000000000438 _ZN5RiscV25executeThreadStartSyscallEv
     /tmp/ccnlBL9w.s:883    .text:0000000000000438 .L0 
     /tmp/ccnlBL9w.s:884    .text:0000000000000438 .L0 
     /tmp/ccnlBL9w.s:885    .text:000000000000043c .L0 
     /tmp/ccnlBL9w.s:888    .text:0000000000000444 .L0 
     /tmp/ccnlBL9w.s:889    .text:0000000000000444 .L0 
     /tmp/ccnlBL9w.s:891    .text:0000000000000448 .L0 
     /tmp/ccnlBL9w.s:893    .text:0000000000000448 .L0 
     /tmp/ccnlBL9w.s:894    .text:0000000000000448 .L0 
src/kernel/riscv.cpp:303    .text:0000000000000448 .L0 
     /tmp/ccnlBL9w.s:901    .text:000000000000044c .L0 
     /tmp/ccnlBL9w.s:902    .text:000000000000044c .L0 
     /tmp/ccnlBL9w.s:904    .text:000000000000044c .L0 
     /tmp/ccnlBL9w.s:906    .text:0000000000000450 .L0 
     /tmp/ccnlBL9w.s:910    .text:0000000000000454 .L0 
src/kernel/riscv.cpp:320    .text:0000000000000454 .L0 
     /tmp/ccnlBL9w.s:916    .text:0000000000000458 .L0 
     /tmp/ccnlBL9w.s:918    .text:0000000000000458 .L0 
     /tmp/ccnlBL9w.s:921    .text:0000000000000460 .L0 
     /tmp/ccnlBL9w.s:922    .text:0000000000000464 .L0 
     /tmp/ccnlBL9w.s:923    .text:0000000000000464 .L0 
     /tmp/ccnlBL9w.s:925    .text:0000000000000468 .L0 
     /tmp/ccnlBL9w.s:926    .text:0000000000000468 .L0 
     /tmp/ccnlBL9w.s:928    .text:000000000000046c .L0 
     /tmp/ccnlBL9w.s:932    .text:0000000000000470 .L0 
     /tmp/ccnlBL9w.s:934    .text:0000000000000470 .L0 
     /tmp/ccnlBL9w.s:935    .text:0000000000000470 .L0 
     /tmp/ccnlBL9w.s:938    .text:0000000000000478 .L0 
     /tmp/ccnlBL9w.s:939    .text:0000000000000478 .L0 
     /tmp/ccnlBL9w.s:942    .text:0000000000000480 .L0 
GAS LISTING /tmp/ccnlBL9w.s 			page 116


     /tmp/ccnlBL9w.s:943    .text:0000000000000480 .L0 
     /tmp/ccnlBL9w.s:946    .text:0000000000000488 .L0 
     /tmp/ccnlBL9w.s:948    .text:0000000000000490 .L0 
     /tmp/ccnlBL9w.s:954    .text:0000000000000490 _ZN5RiscV24executeThreadExitSyscallEv
     /tmp/ccnlBL9w.s:957    .text:0000000000000490 .L0 
     /tmp/ccnlBL9w.s:958    .text:0000000000000490 .L0 
     /tmp/ccnlBL9w.s:959    .text:0000000000000494 .L0 
     /tmp/ccnlBL9w.s:962    .text:000000000000049c .L0 
     /tmp/ccnlBL9w.s:963    .text:000000000000049c .L0 
     /tmp/ccnlBL9w.s:965    .text:00000000000004a0 .L0 
     /tmp/ccnlBL9w.s:968    .text:00000000000004a0 .L0 
     /tmp/ccnlBL9w.s:970    .text:00000000000004a0 .L0 
     /tmp/ccnlBL9w.s:971    .text:00000000000004a0 .L0 
     /tmp/ccnlBL9w.s:974    .text:00000000000004ac .L0 
     /tmp/ccnlBL9w.s:978    .text:00000000000004b0 .L0 
     /tmp/ccnlBL9w.s:979    .text:00000000000004b0 .L0 
     /tmp/ccnlBL9w.s:980    .text:00000000000004b0 .L0 
     /tmp/ccnlBL9w.s:983    .text:00000000000004b8 .L0 
     /tmp/ccnlBL9w.s:984    .text:00000000000004b8 .L0 
     /tmp/ccnlBL9w.s:989    .text:00000000000004c0 .L0 
     /tmp/ccnlBL9w.s:993    .text:00000000000004c4 .L0 
src/kernel/riscv.cpp:340    .text:00000000000004c4 .L0 
     /tmp/ccnlBL9w.s:999    .text:00000000000004c8 .L0 
     /tmp/ccnlBL9w.s:1001   .text:00000000000004c8 .L0 
     /tmp/ccnlBL9w.s:1004   .text:00000000000004d0 .L0 
     /tmp/ccnlBL9w.s:1005   .text:00000000000004d4 .L0 
     /tmp/ccnlBL9w.s:1006   .text:00000000000004d4 .L0 
     /tmp/ccnlBL9w.s:1008   .text:00000000000004d8 .L0 
     /tmp/ccnlBL9w.s:1009   .text:00000000000004d8 .L0 
     /tmp/ccnlBL9w.s:1011   .text:00000000000004dc .L0 
     /tmp/ccnlBL9w.s:1015   .text:00000000000004e0 .L0 
     /tmp/ccnlBL9w.s:1018   .text:00000000000004e0 .L0 
     /tmp/ccnlBL9w.s:1021   .text:00000000000004e8 .L0 
     /tmp/ccnlBL9w.s:1027   .text:00000000000004e8 _ZN5RiscV21executeSemOpenSyscallEv
     /tmp/ccnlBL9w.s:1030   .text:00000000000004e8 .L0 
     /tmp/ccnlBL9w.s:1033   .text:00000000000004e8 .L0 
     /tmp/ccnlBL9w.s:1034   .text:00000000000004ec .L0 
     /tmp/ccnlBL9w.s:1040   .text:0000000000000500 .L0 
     /tmp/ccnlBL9w.s:1041   .text:0000000000000500 .L0 
     /tmp/ccnlBL9w.s:1042   .text:0000000000000500 .L0 
     /tmp/ccnlBL9w.s:1043   .text:0000000000000500 .L0 
     /tmp/ccnlBL9w.s:1044   .text:0000000000000500 .L0 
     /tmp/ccnlBL9w.s:1046   .text:0000000000000504 .L0 
     /tmp/ccnlBL9w.s:1048   .text:0000000000000504 .L0 
     /tmp/ccnlBL9w.s:1049   .text:0000000000000504 .L0 
src/kernel/riscv.cpp:358    .text:0000000000000504 .L0 
     /tmp/ccnlBL9w.s:1056   .text:0000000000000508 .L0 
src/kernel/riscv.cpp:359    .text:0000000000000508 .L0 
     /tmp/ccnlBL9w.s:1062   .text:000000000000050c .L0 
     /tmp/ccnlBL9w.s:1064   .text:000000000000050c .L0 
     /tmp/ccnlBL9w.s:1072   .text:0000000000000520 .L0 
     /tmp/ccnlBL9w.s:1079   .text:000000000000052c .L0 
     /tmp/ccnlBL9w.s:1080   .text:000000000000052c .L0 
     /tmp/ccnlBL9w.s:1082   .text:0000000000000530 .L0 
     /tmp/ccnlBL9w.s:1083   .text:0000000000000530 .L0 
     /tmp/ccnlBL9w.s:1085   .text:0000000000000534 .L0 
     /tmp/ccnlBL9w.s:1089   .text:0000000000000538 .L0 
GAS LISTING /tmp/ccnlBL9w.s 			page 117


src/kernel/riscv.cpp:374    .text:0000000000000538 .L0 
     /tmp/ccnlBL9w.s:1095   .text:000000000000053c .L0 
     /tmp/ccnlBL9w.s:1097   .text:000000000000053c .L0 
     /tmp/ccnlBL9w.s:1100   .text:0000000000000544 .L0 
     /tmp/ccnlBL9w.s:1101   .text:0000000000000548 .L0 
     /tmp/ccnlBL9w.s:1102   .text:0000000000000548 .L0 
     /tmp/ccnlBL9w.s:1104   .text:000000000000054c .L0 
     /tmp/ccnlBL9w.s:1105   .text:000000000000054c .L0 
     /tmp/ccnlBL9w.s:1107   .text:0000000000000550 .L0 
     /tmp/ccnlBL9w.s:1110   .text:0000000000000554 .L0 
     /tmp/ccnlBL9w.s:1113   .text:0000000000000558 .L0 
     /tmp/ccnlBL9w.s:1116   .text:000000000000055c .L0 
     /tmp/ccnlBL9w.s:1120   .text:0000000000000560 .L0 
     /tmp/ccnlBL9w.s:1122   .text:0000000000000560 .L0 
     /tmp/ccnlBL9w.s:1129   .text:000000000000056c .L0 
     /tmp/ccnlBL9w.s:1137   .text:0000000000000584 .L0 
     /tmp/ccnlBL9w.s:1162   .text:0000000000000584 _ZN5RiscV22executeSemCloseSyscallEv
     /tmp/ccnlBL9w.s:1165   .text:0000000000000584 .L0 
     /tmp/ccnlBL9w.s:1166   .text:0000000000000584 .L0 
     /tmp/ccnlBL9w.s:1167   .text:0000000000000588 .L0 
     /tmp/ccnlBL9w.s:1171   .text:0000000000000594 .L0 
     /tmp/ccnlBL9w.s:1172   .text:0000000000000594 .L0 
     /tmp/ccnlBL9w.s:1173   .text:0000000000000594 .L0 
     /tmp/ccnlBL9w.s:1175   .text:0000000000000598 .L0 
     /tmp/ccnlBL9w.s:1177   .text:0000000000000598 .L0 
     /tmp/ccnlBL9w.s:1178   .text:0000000000000598 .L0 
src/kernel/riscv.cpp:385    .text:0000000000000598 .L0 
     /tmp/ccnlBL9w.s:1185   .text:000000000000059c .L0 
     /tmp/ccnlBL9w.s:1186   .text:000000000000059c .L0 
     /tmp/ccnlBL9w.s:1188   .text:000000000000059c .L0 
     /tmp/ccnlBL9w.s:1190   .text:00000000000005a0 .L0 
     /tmp/ccnlBL9w.s:1194   .text:00000000000005a4 .L0 
src/kernel/riscv.cpp:398    .text:00000000000005a4 .L0 
     /tmp/ccnlBL9w.s:1200   .text:00000000000005a8 .L0 
     /tmp/ccnlBL9w.s:1202   .text:00000000000005a8 .L0 
     /tmp/ccnlBL9w.s:1205   .text:00000000000005b0 .L0 
     /tmp/ccnlBL9w.s:1206   .text:00000000000005b4 .L0 
     /tmp/ccnlBL9w.s:1207   .text:00000000000005b4 .L0 
     /tmp/ccnlBL9w.s:1209   .text:00000000000005b8 .L0 
     /tmp/ccnlBL9w.s:1210   .text:00000000000005b8 .L0 
     /tmp/ccnlBL9w.s:1212   .text:00000000000005bc .L0 
     /tmp/ccnlBL9w.s:1215   .text:00000000000005c0 .L0 
     /tmp/ccnlBL9w.s:1219   .text:00000000000005c4 .L0 
     /tmp/ccnlBL9w.s:1221   .text:00000000000005c4 .L0 
     /tmp/ccnlBL9w.s:1222   .text:00000000000005c4 .L0 
     /tmp/ccnlBL9w.s:1229   .text:00000000000005dc .L0 
     /tmp/ccnlBL9w.s:1231   .text:00000000000005e4 .L0 
     /tmp/ccnlBL9w.s:1237   .text:00000000000005e4 _ZN5RiscV21executeSemWaitSyscallEv
     /tmp/ccnlBL9w.s:1240   .text:00000000000005e4 .L0 
     /tmp/ccnlBL9w.s:1241   .text:00000000000005e4 .L0 
     /tmp/ccnlBL9w.s:1242   .text:00000000000005e8 .L0 
     /tmp/ccnlBL9w.s:1245   .text:00000000000005f0 .L0 
     /tmp/ccnlBL9w.s:1246   .text:00000000000005f0 .L0 
     /tmp/ccnlBL9w.s:1248   .text:00000000000005f4 .L0 
     /tmp/ccnlBL9w.s:1250   .text:00000000000005f4 .L0 
     /tmp/ccnlBL9w.s:1251   .text:00000000000005f4 .L0 
src/kernel/riscv.cpp:408    .text:00000000000005f4 .L0 
GAS LISTING /tmp/ccnlBL9w.s 			page 118


     /tmp/ccnlBL9w.s:1258   .text:00000000000005f8 .L0 
     /tmp/ccnlBL9w.s:1260   .text:00000000000005f8 .L0 
     /tmp/ccnlBL9w.s:1264   .text:00000000000005fc .L0 
     /tmp/ccnlBL9w.s:1265   .text:00000000000005fc .L0 
     /tmp/ccnlBL9w.s:1269   .text:000000000000060c .L0 
     /tmp/ccnlBL9w.s:1271   .text:0000000000000610 .L0 
     /tmp/ccnlBL9w.s:1275   .text:0000000000000614 .L0 
src/kernel/riscv.cpp:424    .text:0000000000000614 .L0 
     /tmp/ccnlBL9w.s:1281   .text:0000000000000618 .L0 
     /tmp/ccnlBL9w.s:1283   .text:0000000000000618 .L0 
     /tmp/ccnlBL9w.s:1286   .text:0000000000000620 .L0 
     /tmp/ccnlBL9w.s:1287   .text:0000000000000624 .L0 
     /tmp/ccnlBL9w.s:1288   .text:0000000000000624 .L0 
     /tmp/ccnlBL9w.s:1290   .text:0000000000000628 .L0 
     /tmp/ccnlBL9w.s:1291   .text:0000000000000628 .L0 
     /tmp/ccnlBL9w.s:1293   .text:000000000000062c .L0 
     /tmp/ccnlBL9w.s:1297   .text:0000000000000630 .L0 
     /tmp/ccnlBL9w.s:1299   .text:0000000000000630 .L0 
     /tmp/ccnlBL9w.s:1300   .text:0000000000000630 .L0 
     /tmp/ccnlBL9w.s:1306   .text:000000000000063c .L0 
     /tmp/ccnlBL9w.s:1308   .text:0000000000000644 .L0 
     /tmp/ccnlBL9w.s:1314   .text:0000000000000644 _ZN5RiscV23executeSemSignalSyscallEv
     /tmp/ccnlBL9w.s:1317   .text:0000000000000644 .L0 
     /tmp/ccnlBL9w.s:1318   .text:0000000000000644 .L0 
     /tmp/ccnlBL9w.s:1319   .text:0000000000000648 .L0 
     /tmp/ccnlBL9w.s:1322   .text:0000000000000650 .L0 
     /tmp/ccnlBL9w.s:1323   .text:0000000000000650 .L0 
     /tmp/ccnlBL9w.s:1325   .text:0000000000000654 .L0 
     /tmp/ccnlBL9w.s:1327   .text:0000000000000654 .L0 
     /tmp/ccnlBL9w.s:1328   .text:0000000000000654 .L0 
src/kernel/riscv.cpp:435    .text:0000000000000654 .L0 
     /tmp/ccnlBL9w.s:1335   .text:0000000000000658 .L0 
     /tmp/ccnlBL9w.s:1337   .text:0000000000000658 .L0 
     /tmp/ccnlBL9w.s:1339   .text:000000000000065c .L0 
     /tmp/ccnlBL9w.s:1343   .text:0000000000000660 .L0 
src/kernel/riscv.cpp:447    .text:0000000000000660 .L0 
     /tmp/ccnlBL9w.s:1349   .text:0000000000000664 .L0 
     /tmp/ccnlBL9w.s:1351   .text:0000000000000664 .L0 
     /tmp/ccnlBL9w.s:1354   .text:000000000000066c .L0 
     /tmp/ccnlBL9w.s:1355   .text:0000000000000670 .L0 
     /tmp/ccnlBL9w.s:1356   .text:0000000000000670 .L0 
     /tmp/ccnlBL9w.s:1358   .text:0000000000000674 .L0 
     /tmp/ccnlBL9w.s:1359   .text:0000000000000674 .L0 
     /tmp/ccnlBL9w.s:1361   .text:0000000000000678 .L0 
     /tmp/ccnlBL9w.s:1365   .text:000000000000067c .L0 
     /tmp/ccnlBL9w.s:1367   .text:000000000000067c .L0 
     /tmp/ccnlBL9w.s:1368   .text:000000000000067c .L0 
     /tmp/ccnlBL9w.s:1371   .text:0000000000000684 .L0 
     /tmp/ccnlBL9w.s:1373   .text:000000000000068c .L0 
     /tmp/ccnlBL9w.s:1379   .text:000000000000068c _ZN5RiscV23executeTimeSleepSyscallEv
     /tmp/ccnlBL9w.s:1382   .text:000000000000068c .L0 
     /tmp/ccnlBL9w.s:1383   .text:000000000000068c .L0 
     /tmp/ccnlBL9w.s:1384   .text:0000000000000690 .L0 
     /tmp/ccnlBL9w.s:1388   .text:000000000000069c .L0 
     /tmp/ccnlBL9w.s:1389   .text:000000000000069c .L0 
     /tmp/ccnlBL9w.s:1390   .text:000000000000069c .L0 
     /tmp/ccnlBL9w.s:1392   .text:00000000000006a0 .L0 
GAS LISTING /tmp/ccnlBL9w.s 			page 119


     /tmp/ccnlBL9w.s:1394   .text:00000000000006a0 .L0 
     /tmp/ccnlBL9w.s:1395   .text:00000000000006a0 .L0 
src/kernel/riscv.cpp:457    .text:00000000000006a0 .L0 
     /tmp/ccnlBL9w.s:1401   .text:00000000000006a4 .L0 
     /tmp/ccnlBL9w.s:1403   .text:00000000000006a4 .L0 
     /tmp/ccnlBL9w.s:1407   .text:00000000000006b0 .L0 
     /tmp/ccnlBL9w.s:1408   .text:00000000000006b0 .L0 
     /tmp/ccnlBL9w.s:1411   .text:00000000000006bc .L0 
     /tmp/ccnlBL9w.s:1412   .text:00000000000006bc .L0 
     /tmp/ccnlBL9w.s:1414   .text:00000000000006c0 .L0 
     /tmp/ccnlBL9w.s:1416   .text:00000000000006c4 .L0 
     /tmp/ccnlBL9w.s:1417   .text:00000000000006c4 .L0 
     /tmp/ccnlBL9w.s:1421   .text:00000000000006d0 .L0 
     /tmp/ccnlBL9w.s:1422   .text:00000000000006d0 .L0 
     /tmp/ccnlBL9w.s:1425   .text:00000000000006d8 .L0 
     /tmp/ccnlBL9w.s:1426   .text:00000000000006d8 .L0 
     /tmp/ccnlBL9w.s:1429   .text:00000000000006e0 .L0 
     /tmp/ccnlBL9w.s:1430   .text:00000000000006e0 .L0 
     /tmp/ccnlBL9w.s:1431   .text:00000000000006e0 .L0 
     /tmp/ccnlBL9w.s:1437   .text:00000000000006e8 .L0 
     /tmp/ccnlBL9w.s:1439   .text:00000000000006e8 .L0 
     /tmp/ccnlBL9w.s:1442   .text:00000000000006f0 .L0 
     /tmp/ccnlBL9w.s:1443   .text:00000000000006f4 .L0 
     /tmp/ccnlBL9w.s:1445   .text:00000000000006f8 .L0 
     /tmp/ccnlBL9w.s:1446   .text:00000000000006f8 .L0 
     /tmp/ccnlBL9w.s:1448   .text:00000000000006fc .L0 
     /tmp/ccnlBL9w.s:1451   .text:0000000000000700 .L0 
     /tmp/ccnlBL9w.s:1453   .text:0000000000000704 .L0 
     /tmp/ccnlBL9w.s:1459   .text:0000000000000704 _ZN5RiscV18executeGetcSyscallEv
     /tmp/ccnlBL9w.s:1462   .text:0000000000000704 .L0 
     /tmp/ccnlBL9w.s:1463   .text:0000000000000704 .L0 
     /tmp/ccnlBL9w.s:1464   .text:0000000000000708 .L0 
     /tmp/ccnlBL9w.s:1468   .text:0000000000000714 .L0 
     /tmp/ccnlBL9w.s:1469   .text:0000000000000714 .L0 
     /tmp/ccnlBL9w.s:1470   .text:0000000000000714 .L0 
     /tmp/ccnlBL9w.s:1472   .text:0000000000000718 .L0 
     /tmp/ccnlBL9w.s:1474   .text:0000000000000718 .L0 
     /tmp/ccnlBL9w.s:1475   .text:0000000000000718 .L0 
     /tmp/ccnlBL9w.s:1477   .text:0000000000000720 .L0 
     /tmp/ccnlBL9w.s:1479   .text:0000000000000724 .L0 
     /tmp/ccnlBL9w.s:1480   .text:0000000000000724 .L0 
     /tmp/ccnlBL9w.s:1486   .text:0000000000000738 .L0 
     /tmp/ccnlBL9w.s:1487   .text:0000000000000738 .L0 
     /tmp/ccnlBL9w.s:1492   .text:0000000000000744 .L0 
     /tmp/ccnlBL9w.s:1495   .text:000000000000074c .L0 
     /tmp/ccnlBL9w.s:1500   .text:0000000000000754 .L0 
src/kernel/riscv.cpp:498    .text:0000000000000754 .L0 
     /tmp/ccnlBL9w.s:1506   .text:0000000000000758 .L0 
     /tmp/ccnlBL9w.s:1508   .text:0000000000000758 .L0 
     /tmp/ccnlBL9w.s:1511   .text:0000000000000760 .L0 
     /tmp/ccnlBL9w.s:1512   .text:0000000000000764 .L0 
     /tmp/ccnlBL9w.s:1513   .text:0000000000000764 .L0 
     /tmp/ccnlBL9w.s:1515   .text:0000000000000768 .L0 
     /tmp/ccnlBL9w.s:1516   .text:0000000000000768 .L0 
     /tmp/ccnlBL9w.s:1518   .text:000000000000076c .L0 
     /tmp/ccnlBL9w.s:1520   .text:0000000000000770 .L0 
     /tmp/ccnlBL9w.s:1524   .text:0000000000000774 .L0 
GAS LISTING /tmp/ccnlBL9w.s 			page 120


     /tmp/ccnlBL9w.s:1526   .text:0000000000000774 .L0 
     /tmp/ccnlBL9w.s:1527   .text:0000000000000774 .L0 
     /tmp/ccnlBL9w.s:1532   .text:0000000000000780 .L0 
     /tmp/ccnlBL9w.s:1533   .text:0000000000000780 .L0 
     /tmp/ccnlBL9w.s:1540   .text:0000000000000790 .L0 
     /tmp/ccnlBL9w.s:1541   .text:0000000000000790 .L0 
     /tmp/ccnlBL9w.s:1544   .text:000000000000079c .L0 
     /tmp/ccnlBL9w.s:1550   .text:000000000000079c _ZN5RiscV22executePutcUtilSyscallEv
     /tmp/ccnlBL9w.s:1553   .text:000000000000079c .L0 
     /tmp/ccnlBL9w.s:1554   .text:000000000000079c .L0 
     /tmp/ccnlBL9w.s:1555   .text:00000000000007a0 .L0 
     /tmp/ccnlBL9w.s:1558   .text:00000000000007a8 .L0 
     /tmp/ccnlBL9w.s:1559   .text:00000000000007a8 .L0 
     /tmp/ccnlBL9w.s:1561   .text:00000000000007ac .L0 
     /tmp/ccnlBL9w.s:1563   .text:00000000000007ac .L0 
     /tmp/ccnlBL9w.s:1564   .text:00000000000007ac .L0 
     /tmp/ccnlBL9w.s:1567   .text:00000000000007b4 .L0 
src/kernel/riscv.cpp:553    .text:00000000000007b4 .L0 
     /tmp/ccnlBL9w.s:1573   .text:00000000000007b8 .L0 
     /tmp/ccnlBL9w.s:1575   .text:00000000000007b8 .L0 
     /tmp/ccnlBL9w.s:1578   .text:00000000000007c0 .L0 
     /tmp/ccnlBL9w.s:1579   .text:00000000000007c4 .L0 
     /tmp/ccnlBL9w.s:1581   .text:00000000000007c8 .L0 
     /tmp/ccnlBL9w.s:1582   .text:00000000000007c8 .L0 
     /tmp/ccnlBL9w.s:1584   .text:00000000000007cc .L0 
     /tmp/ccnlBL9w.s:1586   .text:00000000000007d0 .L0 
     /tmp/ccnlBL9w.s:1592   .text:00000000000007d0 _ZN5RiscV24executeThreadFreeSyscallEv
     /tmp/ccnlBL9w.s:1595   .text:00000000000007d0 .L0 
     /tmp/ccnlBL9w.s:1596   .text:00000000000007d0 .L0 
     /tmp/ccnlBL9w.s:1597   .text:00000000000007d4 .L0 
     /tmp/ccnlBL9w.s:1601   .text:00000000000007e0 .L0 
     /tmp/ccnlBL9w.s:1602   .text:00000000000007e0 .L0 
     /tmp/ccnlBL9w.s:1603   .text:00000000000007e0 .L0 
     /tmp/ccnlBL9w.s:1605   .text:00000000000007e4 .L0 
     /tmp/ccnlBL9w.s:1607   .text:00000000000007e4 .L0 
     /tmp/ccnlBL9w.s:1608   .text:00000000000007e4 .L0 
src/kernel/riscv.cpp:601    .text:00000000000007e4 .L0 
     /tmp/ccnlBL9w.s:1615   .text:00000000000007e8 .L0 
     /tmp/ccnlBL9w.s:1617   .text:00000000000007e8 .L0 
     /tmp/ccnlBL9w.s:1621   .text:00000000000007ec .L0 
     /tmp/ccnlBL9w.s:1622   .text:00000000000007ec .L0 
     /tmp/ccnlBL9w.s:1628   .text:00000000000007f4 .L0 
     /tmp/ccnlBL9w.s:1630   .text:00000000000007f4 .L0 
     /tmp/ccnlBL9w.s:1633   .text:00000000000007fc .L0 
     /tmp/ccnlBL9w.s:1634   .text:0000000000000800 .L0 
     /tmp/ccnlBL9w.s:1635   .text:0000000000000800 .L0 
     /tmp/ccnlBL9w.s:1637   .text:0000000000000804 .L0 
     /tmp/ccnlBL9w.s:1638   .text:0000000000000804 .L0 
     /tmp/ccnlBL9w.s:1640   .text:0000000000000808 .L0 
     /tmp/ccnlBL9w.s:1643   .text:000000000000080c .L0 
     /tmp/ccnlBL9w.s:1647   .text:0000000000000810 .L0 
     /tmp/ccnlBL9w.s:1649   .text:0000000000000810 .L0 
     /tmp/ccnlBL9w.s:1650   .text:0000000000000810 .L0 
     /tmp/ccnlBL9w.s:1654   .text:000000000000081c .L0 
     /tmp/ccnlBL9w.s:1655   .text:000000000000081c .L0 
     /tmp/ccnlBL9w.s:1662   .text:0000000000000838 .L0 
     /tmp/ccnlBL9w.s:1668   .text:0000000000000838 _ZN5RiscV27executeSemaphoreFreeSyscallEv
GAS LISTING /tmp/ccnlBL9w.s 			page 121


     /tmp/ccnlBL9w.s:1671   .text:0000000000000838 .L0 
     /tmp/ccnlBL9w.s:1672   .text:0000000000000838 .L0 
     /tmp/ccnlBL9w.s:1673   .text:000000000000083c .L0 
     /tmp/ccnlBL9w.s:1677   .text:0000000000000848 .L0 
     /tmp/ccnlBL9w.s:1678   .text:0000000000000848 .L0 
     /tmp/ccnlBL9w.s:1679   .text:0000000000000848 .L0 
     /tmp/ccnlBL9w.s:1681   .text:000000000000084c .L0 
     /tmp/ccnlBL9w.s:1683   .text:000000000000084c .L0 
     /tmp/ccnlBL9w.s:1684   .text:000000000000084c .L0 
src/kernel/riscv.cpp:623    .text:000000000000084c .L0 
     /tmp/ccnlBL9w.s:1691   .text:0000000000000850 .L0 
     /tmp/ccnlBL9w.s:1693   .text:0000000000000850 .L0 
     /tmp/ccnlBL9w.s:1697   .text:0000000000000854 .L0 
     /tmp/ccnlBL9w.s:1698   .text:0000000000000854 .L0 
     /tmp/ccnlBL9w.s:1704   .text:000000000000085c .L0 
     /tmp/ccnlBL9w.s:1706   .text:000000000000085c .L0 
     /tmp/ccnlBL9w.s:1709   .text:0000000000000864 .L0 
     /tmp/ccnlBL9w.s:1710   .text:0000000000000868 .L0 
     /tmp/ccnlBL9w.s:1711   .text:0000000000000868 .L0 
     /tmp/ccnlBL9w.s:1713   .text:000000000000086c .L0 
     /tmp/ccnlBL9w.s:1714   .text:000000000000086c .L0 
     /tmp/ccnlBL9w.s:1716   .text:0000000000000870 .L0 
     /tmp/ccnlBL9w.s:1719   .text:0000000000000874 .L0 
     /tmp/ccnlBL9w.s:1723   .text:0000000000000878 .L0 
     /tmp/ccnlBL9w.s:1725   .text:0000000000000878 .L0 
     /tmp/ccnlBL9w.s:1726   .text:0000000000000878 .L0 
     /tmp/ccnlBL9w.s:1733   .text:0000000000000894 .L0 
     /tmp/ccnlBL9w.s:1739   .text:0000000000000894 _ZN5RiscV5getPCEv
     /tmp/ccnlBL9w.s:1742   .text:0000000000000894 .L0 
     /tmp/ccnlBL9w.s:1743   .text:0000000000000894 .L0 
     /tmp/ccnlBL9w.s:1744   .text:0000000000000898 .L0 
     /tmp/ccnlBL9w.s:1746   .text:000000000000089c .L0 
     /tmp/ccnlBL9w.s:1748   .text:00000000000008a0 .L0 
     /tmp/ccnlBL9w.s:1750   .text:00000000000008a0 .L0 
     /tmp/ccnlBL9w.s:1751   .text:00000000000008a0 .L0 
src/kernel/riscv.cpp:709    .text:00000000000008a0 .L0 
     /tmp/ccnlBL9w.s:1758   .text:00000000000008a4 .L0 
     /tmp/ccnlBL9w.s:1760   .text:00000000000008a4 .L0 
     /tmp/ccnlBL9w.s:1763   .text:00000000000008a8 .L0 
     /tmp/ccnlBL9w.s:1766   .text:00000000000008b4 .L0 
     /tmp/ccnlBL9w.s:1767   .text:00000000000008b8 .L0 
     /tmp/ccnlBL9w.s:1768   .text:00000000000008b8 .L0 
     /tmp/ccnlBL9w.s:1770   .text:00000000000008bc .L0 
     /tmp/ccnlBL9w.s:1772   .text:00000000000008c0 .L0 
     /tmp/ccnlBL9w.s:1778   .text:00000000000008c0 _ZN5RiscV16threadCreateUtilEPP3TCBPFvPvES3_
     /tmp/ccnlBL9w.s:1781   .text:00000000000008c0 .L0 
     /tmp/ccnlBL9w.s:1783   .text:00000000000008c0 .L0 
     /tmp/ccnlBL9w.s:1784   .text:00000000000008c4 .L0 
     /tmp/ccnlBL9w.s:1790   .text:00000000000008d8 .L0 
     /tmp/ccnlBL9w.s:1791   .text:00000000000008d8 .L0 
     /tmp/ccnlBL9w.s:1792   .text:00000000000008d8 .L0 
     /tmp/ccnlBL9w.s:1793   .text:00000000000008d8 .L0 
     /tmp/ccnlBL9w.s:1794   .text:00000000000008d8 .L0 
     /tmp/ccnlBL9w.s:1796   .text:00000000000008dc .L0 
     /tmp/ccnlBL9w.s:1802   .text:00000000000008e8 .L0 
     /tmp/ccnlBL9w.s:1803   .text:00000000000008e8 .L0 
     /tmp/ccnlBL9w.s:1804   .text:00000000000008e8 .L0 
GAS LISTING /tmp/ccnlBL9w.s 			page 122


     /tmp/ccnlBL9w.s:1805   .text:00000000000008e8 .L0 
     /tmp/ccnlBL9w.s:1806   .text:00000000000008e8 .L0 
     /tmp/ccnlBL9w.s:1808   .text:00000000000008ec .L0 
     /tmp/ccnlBL9w.s:1809   .text:00000000000008ec .L0 
     /tmp/ccnlBL9w.s:1814   .text:00000000000008f8 .L0 
     /tmp/ccnlBL9w.s:1816   .text:00000000000008fc .L0 
     /tmp/ccnlBL9w.s:1817   .text:00000000000008fc .L0 
     /tmp/ccnlBL9w.s:1819   .text:0000000000000900 .L0 
     /tmp/ccnlBL9w.s:1823   .text:0000000000000904 .L0 
     /tmp/ccnlBL9w.s:1827   .text:0000000000000908 .L0 
src/kernel/riscv.cpp:728    .text:0000000000000908 .L0 
     /tmp/ccnlBL9w.s:1833   .text:000000000000090c .L0 
src/kernel/riscv.cpp:729    .text:000000000000090c .L0 
     /tmp/ccnlBL9w.s:1838   .text:0000000000000910 .L0 
src/kernel/riscv.cpp:730    .text:0000000000000910 .L0 
     /tmp/ccnlBL9w.s:1843   .text:0000000000000914 .L0 
src/kernel/riscv.cpp:731    .text:0000000000000914 .L0 
     /tmp/ccnlBL9w.s:1848   .text:0000000000000918 .L0 
src/kernel/riscv.cpp:732    .text:0000000000000918 .L0 
     /tmp/ccnlBL9w.s:1853   .text:000000000000091c .L0 
src/kernel/riscv.cpp:734    .text:000000000000091c .L0 
     /tmp/ccnlBL9w.s:1858   .text:0000000000000920 .L0 
     /tmp/ccnlBL9w.s:1862   .text:0000000000000920 .L0 
     /tmp/ccnlBL9w.s:1863   .text:0000000000000920 .L0 
     /tmp/ccnlBL9w.s:1864   .text:0000000000000924 .L0 
     /tmp/ccnlBL9w.s:1866   .text:0000000000000928 .L0 
     /tmp/ccnlBL9w.s:1867   .text:0000000000000928 .L0 
     /tmp/ccnlBL9w.s:1869   .text:000000000000092c .L0 
     /tmp/ccnlBL9w.s:1872   .text:0000000000000930 .L0 
     /tmp/ccnlBL9w.s:1875   .text:0000000000000934 .L0 
     /tmp/ccnlBL9w.s:1878   .text:0000000000000938 .L0 
     /tmp/ccnlBL9w.s:1880   .text:000000000000093c .L0 
     /tmp/ccnlBL9w.s:1886   .text:000000000000093c _ZN5RiscV14threadExitUtilEv
     /tmp/ccnlBL9w.s:1889   .text:000000000000093c .L0 
     /tmp/ccnlBL9w.s:1890   .text:000000000000093c .L0 
     /tmp/ccnlBL9w.s:1891   .text:0000000000000940 .L0 
     /tmp/ccnlBL9w.s:1893   .text:0000000000000944 .L0 
     /tmp/ccnlBL9w.s:1895   .text:0000000000000948 .L0 
     /tmp/ccnlBL9w.s:1897   .text:0000000000000948 .L0 
src/kernel/riscv.cpp:743    .text:0000000000000948 .L0 
     /tmp/ccnlBL9w.s:1903   .text:000000000000094c .L0 
src/kernel/riscv.cpp:745    .text:000000000000094c .L0 
     /tmp/ccnlBL9w.s:1908   .text:0000000000000950 .L0 
     /tmp/ccnlBL9w.s:1910   .text:0000000000000950 .L0 
     /tmp/ccnlBL9w.s:1912   .text:0000000000000950 .L0 
     /tmp/ccnlBL9w.s:1913   .text:0000000000000954 .L0 
     /tmp/ccnlBL9w.s:1914   .text:0000000000000954 .L0 
     /tmp/ccnlBL9w.s:1916   .text:0000000000000958 .L0 
     /tmp/ccnlBL9w.s:1918   .text:000000000000095c .L0 
     /tmp/ccnlBL9w.s:1924   .text:000000000000095c _ZN5RiscV18threadDispatchUtilEv
     /tmp/ccnlBL9w.s:1927   .text:000000000000095c .L0 
     /tmp/ccnlBL9w.s:1928   .text:000000000000095c .L0 
     /tmp/ccnlBL9w.s:1929   .text:0000000000000960 .L0 
     /tmp/ccnlBL9w.s:1931   .text:0000000000000964 .L0 
     /tmp/ccnlBL9w.s:1933   .text:0000000000000968 .L0 
     /tmp/ccnlBL9w.s:1935   .text:0000000000000968 .L0 
src/kernel/riscv.cpp:753    .text:0000000000000968 .L0 
GAS LISTING /tmp/ccnlBL9w.s 			page 123


     /tmp/ccnlBL9w.s:1941   .text:000000000000096c .L0 
src/kernel/riscv.cpp:755    .text:000000000000096c .L0 
     /tmp/ccnlBL9w.s:1947   .text:0000000000000970 .L0 
     /tmp/ccnlBL9w.s:1948   .text:0000000000000974 .L0 
     /tmp/ccnlBL9w.s:1949   .text:0000000000000974 .L0 
     /tmp/ccnlBL9w.s:1951   .text:0000000000000978 .L0 
     /tmp/ccnlBL9w.s:1953   .text:000000000000097c .L0 
     /tmp/ccnlBL9w.s:1959   .text:000000000000097c _ZN5RiscV11putcWrapperEPv
     /tmp/ccnlBL9w.s:1962   .text:000000000000097c .L0 
     /tmp/ccnlBL9w.s:1964   .text:000000000000097c .L0 
     /tmp/ccnlBL9w.s:1965   .text:0000000000000980 .L0 
     /tmp/ccnlBL9w.s:1968   .text:0000000000000988 .L0 
     /tmp/ccnlBL9w.s:1969   .text:0000000000000988 .L0 
     /tmp/ccnlBL9w.s:1971   .text:000000000000098c .L0 
     /tmp/ccnlBL9w.s:1978   .text:0000000000000990 .L0 
     /tmp/ccnlBL9w.s:1979   .text:0000000000000990 .L0 
     /tmp/ccnlBL9w.s:1986   .text:0000000000000998 .L0 
     /tmp/ccnlBL9w.s:1987   .text:0000000000000998 .L0 
     /tmp/ccnlBL9w.s:1988   .text:0000000000000998 .L0 
     /tmp/ccnlBL9w.s:1992   .text:00000000000009a4 .L0 
src/kernel/riscv.cpp:526    .text:00000000000009a4 .L0 
     /tmp/ccnlBL9w.s:1998   .text:00000000000009a8 .L0 
src/kernel/riscv.cpp:527    .text:00000000000009a8 .L0 
     /tmp/ccnlBL9w.s:2003   .text:00000000000009ac .L0 
src/kernel/riscv.cpp:528    .text:00000000000009ac .L0 
     /tmp/ccnlBL9w.s:2011   .text:00000000000009b0 .L0 
     /tmp/ccnlBL9w.s:2012   .text:00000000000009b0 .L0 
     /tmp/ccnlBL9w.s:2015   .text:00000000000009b4 .L0 
     /tmp/ccnlBL9w.s:2018   .text:00000000000009b8 .L0 
     /tmp/ccnlBL9w.s:2019   .text:00000000000009b8 .L0 
     /tmp/ccnlBL9w.s:2022   .text:00000000000009c0 .L0 
     /tmp/ccnlBL9w.s:2024   .text:00000000000009c4 .L0 
     /tmp/ccnlBL9w.s:2025   .text:00000000000009c4 .L0 
     /tmp/ccnlBL9w.s:2029   .text:00000000000009d0 .L0 
src/kernel/riscv.cpp:536    .text:00000000000009d0 .L0 
     /tmp/ccnlBL9w.s:2035   .text:00000000000009d4 .L0 
     /tmp/ccnlBL9w.s:2037   .text:00000000000009d4 .L0 
src/kernel/riscv.cpp:537    .text:00000000000009d8 .L0 
     /tmp/ccnlBL9w.s:2045   .text:00000000000009dc .L0 
src/kernel/riscv.cpp:538    .text:00000000000009dc .L0 
     /tmp/ccnlBL9w.s:2050   .text:00000000000009e0 .L0 
     /tmp/ccnlBL9w.s:2052   .text:00000000000009e0 .L0 
     /tmp/ccnlBL9w.s:2055   .text:00000000000009ec .L0 
     /tmp/ccnlBL9w.s:2057   .text:00000000000009f0 .L0 
     /tmp/ccnlBL9w.s:2058   .text:00000000000009f0 .L0 
     /tmp/ccnlBL9w.s:2065   .text:0000000000000a04 .L0 
     /tmp/ccnlBL9w.s:2071   .text:0000000000000a04 _ZN5RiscV6getPMTEv
     /tmp/ccnlBL9w.s:2074   .text:0000000000000a04 .L0 
     /tmp/ccnlBL9w.s:2075   .text:0000000000000a04 .L0 
     /tmp/ccnlBL9w.s:2076   .text:0000000000000a08 .L0 
     /tmp/ccnlBL9w.s:2079   .text:0000000000000a10 .L0 
     /tmp/ccnlBL9w.s:2080   .text:0000000000000a10 .L0 
     /tmp/ccnlBL9w.s:2082   .text:0000000000000a14 .L0 
     /tmp/ccnlBL9w.s:2084   .text:0000000000000a14 .L0 
     /tmp/ccnlBL9w.s:2085   .text:0000000000000a14 .L0 
     /tmp/ccnlBL9w.s:2089   .text:0000000000000a20 .L0 
     /tmp/ccnlBL9w.s:2091   .text:0000000000000a20 .L0 
GAS LISTING /tmp/ccnlBL9w.s 			page 124


     /tmp/ccnlBL9w.s:2092   .text:0000000000000a20 .L0 
     /tmp/ccnlBL9w.s:2096   .text:0000000000000a24 .L0 
     /tmp/ccnlBL9w.s:2099   .text:0000000000000a2c .L0 
     /tmp/ccnlBL9w.s:2100   .text:0000000000000a2c .L0 
     /tmp/ccnlBL9w.s:2103   .text:0000000000000a34 .L0 
     /tmp/ccnlBL9w.s:2105   .text:0000000000000a38 .L0 
     /tmp/ccnlBL9w.s:2112   .text:0000000000000a40 .L0 
     /tmp/ccnlBL9w.s:2113   .text:0000000000000a44 .L0 
     /tmp/ccnlBL9w.s:2115   .text:0000000000000a48 .L0 
     /tmp/ccnlBL9w.s:2116   .text:0000000000000a48 .L0 
     /tmp/ccnlBL9w.s:2118   .text:0000000000000a4c .L0 
     /tmp/ccnlBL9w.s:2120   .text:0000000000000a50 .L0 
     /tmp/ccnlBL9w.s:2126   .text:0000000000000a50 _ZN5RiscV15handlePageFaultEPvmm
     /tmp/ccnlBL9w.s:2129   .text:0000000000000a50 .L0 
     /tmp/ccnlBL9w.s:2131   .text:0000000000000a50 .L0 
     /tmp/ccnlBL9w.s:2132   .text:0000000000000a54 .L0 
     /tmp/ccnlBL9w.s:2140   .text:0000000000000a70 .L0 
     /tmp/ccnlBL9w.s:2141   .text:0000000000000a70 .L0 
     /tmp/ccnlBL9w.s:2142   .text:0000000000000a70 .L0 
     /tmp/ccnlBL9w.s:2143   .text:0000000000000a70 .L0 
     /tmp/ccnlBL9w.s:2144   .text:0000000000000a70 .L0 
     /tmp/ccnlBL9w.s:2145   .text:0000000000000a70 .L0 
     /tmp/ccnlBL9w.s:2146   .text:0000000000000a70 .L0 
     /tmp/ccnlBL9w.s:2148   .text:0000000000000a74 .L0 
     /tmp/ccnlBL9w.s:2154   .text:0000000000000a78 .L0 
     /tmp/ccnlBL9w.s:2155   .text:0000000000000a78 .L0 
     /tmp/ccnlBL9w.s:2156   .text:0000000000000a78 .L0 
     /tmp/ccnlBL9w.s:2158   .text:0000000000000a7c .L0 
     /tmp/ccnlBL9w.s:2165   .text:0000000000000a80 .L0 
     /tmp/ccnlBL9w.s:2166   .text:0000000000000a80 .L0 
     /tmp/ccnlBL9w.s:2167   .text:0000000000000a80 .L0 
     /tmp/ccnlBL9w.s:2169   .text:0000000000000a84 .L0 
     /tmp/ccnlBL9w.s:2176   .text:0000000000000a88 .L0 
     /tmp/ccnlBL9w.s:2177   .text:0000000000000a88 .L0 
     /tmp/ccnlBL9w.s:2178   .text:0000000000000a88 .L0 
     /tmp/ccnlBL9w.s:2180   .text:0000000000000a8c .L0 
     /tmp/ccnlBL9w.s:2185   .text:0000000000000a90 .L0 
     /tmp/ccnlBL9w.s:2186   .text:0000000000000a90 .L0 
     /tmp/ccnlBL9w.s:2190   .text:0000000000000a98 .L0 
     /tmp/ccnlBL9w.s:2193   .text:0000000000000a9c .L0 
     /tmp/ccnlBL9w.s:2195   .text:0000000000000a9c .L0 
     /tmp/ccnlBL9w.s:2197   .text:0000000000000aa0 .L0 
     /tmp/ccnlBL9w.s:2198   .text:0000000000000aa0 .L0 
     /tmp/ccnlBL9w.s:2201   .text:0000000000000aa4 .L0 
     /tmp/ccnlBL9w.s:2206   .text:0000000000000aa8 .L0 
     /tmp/ccnlBL9w.s:2207   .text:0000000000000aa8 .L0 
     /tmp/ccnlBL9w.s:2211   .text:0000000000000ab0 .L0 
     /tmp/ccnlBL9w.s:2214   .text:0000000000000ab4 .L0 
     /tmp/ccnlBL9w.s:2216   .text:0000000000000ab4 .L0 
     /tmp/ccnlBL9w.s:2218   .text:0000000000000ab8 .L0 
     /tmp/ccnlBL9w.s:2219   .text:0000000000000ab8 .L0 
     /tmp/ccnlBL9w.s:2222   .text:0000000000000abc .L0 
     /tmp/ccnlBL9w.s:2227   .text:0000000000000ac0 .L0 
     /tmp/ccnlBL9w.s:2228   .text:0000000000000ac0 .L0 
     /tmp/ccnlBL9w.s:2229   .text:0000000000000ac0 .L0 
     /tmp/ccnlBL9w.s:2232   .text:0000000000000ac4 .L0 
     /tmp/ccnlBL9w.s:2237   .text:0000000000000acc .L0 
GAS LISTING /tmp/ccnlBL9w.s 			page 125


     /tmp/ccnlBL9w.s:2240   .text:0000000000000ad0 .L0 
     /tmp/ccnlBL9w.s:2242   .text:0000000000000ad4 .L0 
     /tmp/ccnlBL9w.s:2243   .text:0000000000000ad8 .L0 
     /tmp/ccnlBL9w.s:2244   .text:0000000000000ad8 .L0 
     /tmp/ccnlBL9w.s:2246   .text:0000000000000adc .L0 
     /tmp/ccnlBL9w.s:2247   .text:0000000000000adc .L0 
     /tmp/ccnlBL9w.s:2249   .text:0000000000000ae0 .L0 
     /tmp/ccnlBL9w.s:2251   .text:0000000000000ae4 .L0 
     /tmp/ccnlBL9w.s:2253   .text:0000000000000ae8 .L0 
     /tmp/ccnlBL9w.s:2255   .text:0000000000000aec .L0 
     /tmp/ccnlBL9w.s:2257   .text:0000000000000af0 .L0 
     /tmp/ccnlBL9w.s:2259   .text:0000000000000af4 .L0 
     /tmp/ccnlBL9w.s:2263   .text:0000000000000af8 .L0 
     /tmp/ccnlBL9w.s:2267   .text:0000000000000af8 .L0 
     /tmp/ccnlBL9w.s:2268   .text:0000000000000af8 .L0 
     /tmp/ccnlBL9w.s:2271   .text:0000000000000b00 .L0 
     /tmp/ccnlBL9w.s:2272   .text:0000000000000b00 .L0 
     /tmp/ccnlBL9w.s:2275   .text:0000000000000b04 .L0 
     /tmp/ccnlBL9w.s:2276   .text:0000000000000b04 .L0 
     /tmp/ccnlBL9w.s:2279   .text:0000000000000b08 .L0 
     /tmp/ccnlBL9w.s:2281   .text:0000000000000b0c .L0 
     /tmp/ccnlBL9w.s:2290   .text:0000000000000b14 .L0 
     /tmp/ccnlBL9w.s:2291   .text:0000000000000b14 .L0 
     /tmp/ccnlBL9w.s:2294   .text:0000000000000b1c .L0 
     /tmp/ccnlBL9w.s:2295   .text:0000000000000b1c .L0 
     /tmp/ccnlBL9w.s:2298   .text:0000000000000b20 .L0 
     /tmp/ccnlBL9w.s:2299   .text:0000000000000b20 .L0 
     /tmp/ccnlBL9w.s:2302   .text:0000000000000b24 .L0 
     /tmp/ccnlBL9w.s:2304   .text:0000000000000b28 .L0 
     /tmp/ccnlBL9w.s:2308   .text:0000000000000b30 .L0 
     /tmp/ccnlBL9w.s:2314   .text:0000000000000b30 _ZN5RiscV18executeForkSyscallEv
     /tmp/ccnlBL9w.s:2317   .text:0000000000000b30 .L0 
     /tmp/ccnlBL9w.s:2320   .text:0000000000000b30 .L0 
     /tmp/ccnlBL9w.s:2321   .text:0000000000000b34 .L0 
     /tmp/ccnlBL9w.s:2326   .text:0000000000000b44 .L0 
     /tmp/ccnlBL9w.s:2327   .text:0000000000000b44 .L0 
     /tmp/ccnlBL9w.s:2328   .text:0000000000000b44 .L0 
     /tmp/ccnlBL9w.s:2329   .text:0000000000000b44 .L0 
     /tmp/ccnlBL9w.s:2331   .text:0000000000000b48 .L0 
     /tmp/ccnlBL9w.s:2333   .text:0000000000000b48 .L0 
     /tmp/ccnlBL9w.s:2334   .text:0000000000000b48 .L0 
     /tmp/ccnlBL9w.s:2341   .text:0000000000000b58 .L0 
     /tmp/ccnlBL9w.s:2342   .text:0000000000000b58 .L0 
     /tmp/ccnlBL9w.s:2349   .text:0000000000000b70 .L0 
     /tmp/ccnlBL9w.s:2350   .text:0000000000000b70 .L0 
     /tmp/ccnlBL9w.s:2358   .text:0000000000000b90 .L0 
     /tmp/ccnlBL9w.s:2359   .text:0000000000000b90 .L0 
     /tmp/ccnlBL9w.s:2366   .text:0000000000000ba4 .L0 
     /tmp/ccnlBL9w.s:2376   .text:0000000000000bbc .L0 
     /tmp/ccnlBL9w.s:2378   .text:0000000000000bbc .L0 
     /tmp/ccnlBL9w.s:2381   .text:0000000000000bc0 .L0 
     /tmp/ccnlBL9w.s:2382   .text:0000000000000bc0 .L0 
     /tmp/ccnlBL9w.s:2386   .text:0000000000000bd0 .L0 
     /tmp/ccnlBL9w.s:2387   .text:0000000000000bd0 .L0 
     /tmp/ccnlBL9w.s:2390   .text:0000000000000bdc .L0 
     /tmp/ccnlBL9w.s:2392   .text:0000000000000be0 .L0 
     /tmp/ccnlBL9w.s:2395   .text:0000000000000bec .L0 
GAS LISTING /tmp/ccnlBL9w.s 			page 126


     /tmp/ccnlBL9w.s:2397   .text:0000000000000bf0 .L0 
     /tmp/ccnlBL9w.s:2399   .text:0000000000000bf4 .L0 
     /tmp/ccnlBL9w.s:2401   .text:0000000000000bf8 .L0 
     /tmp/ccnlBL9w.s:2402   .text:0000000000000bf8 .L0 
     /tmp/ccnlBL9w.s:2405   .text:0000000000000c00 .L0 
     /tmp/ccnlBL9w.s:2407   .text:0000000000000c04 .L0 
     /tmp/ccnlBL9w.s:2409   .text:0000000000000c08 .L0 
     /tmp/ccnlBL9w.s:2412   .text:0000000000000c0c .L0 
     /tmp/ccnlBL9w.s:2413   .text:0000000000000c0c .L0 
     /tmp/ccnlBL9w.s:2415   .text:0000000000000c10 .L0 
     /tmp/ccnlBL9w.s:2416   .text:0000000000000c10 .L0 
src/kernel/riscv.cpp:669    .text:0000000000000c10 .L0 
     /tmp/ccnlBL9w.s:2422   .text:0000000000000c14 .L0 
src/kernel/riscv.cpp:671    .text:0000000000000c14 .L0 
     /tmp/ccnlBL9w.s:2427   .text:0000000000000c18 .L0 
src/kernel/riscv.cpp:673    .text:0000000000000c18 .L0 
     /tmp/ccnlBL9w.s:2432   .text:0000000000000c1c .L0 
src/kernel/riscv.cpp:675    .text:0000000000000c1c .L0 
     /tmp/ccnlBL9w.s:2437   .text:0000000000000c20 .L0 
src/kernel/riscv.cpp:677    .text:0000000000000c20 .L0 
     /tmp/ccnlBL9w.s:2442   .text:0000000000000c24 .L0 
src/kernel/riscv.cpp:680    .text:0000000000000c24 .L0 
     /tmp/ccnlBL9w.s:2447   .text:0000000000000c28 .L0 
src/kernel/riscv.cpp:682    .text:0000000000000c28 .L0 
     /tmp/ccnlBL9w.s:2452   .text:0000000000000c2c .L0 
src/kernel/riscv.cpp:684    .text:0000000000000c2c .L0 
     /tmp/ccnlBL9w.s:2457   .text:0000000000000c30 .L0 
src/kernel/riscv.cpp:686    .text:0000000000000c30 .L0 
     /tmp/ccnlBL9w.s:2462   .text:0000000000000c34 .L0 
     /tmp/ccnlBL9w.s:2464   .text:0000000000000c34 .L0 
     /tmp/ccnlBL9w.s:2467   .text:0000000000000c3c .L0 
     /tmp/ccnlBL9w.s:2469   .text:0000000000000c40 .L0 
     /tmp/ccnlBL9w.s:2470   .text:0000000000000c40 .L0 
     /tmp/ccnlBL9w.s:2472   .text:0000000000000c44 .L0 
     /tmp/ccnlBL9w.s:2474   .text:0000000000000c48 .L0 
     /tmp/ccnlBL9w.s:2475   .text:0000000000000c48 .L0 
     /tmp/ccnlBL9w.s:2484   .text:0000000000000c54 .L0 
     /tmp/ccnlBL9w.s:2485   .text:0000000000000c54 .L0 
src/kernel/riscv.cpp:700    .text:0000000000000c54 .L0 
     /tmp/ccnlBL9w.s:2491   .text:0000000000000c58 .L0 
     /tmp/ccnlBL9w.s:2493   .text:0000000000000c58 .L0 
     /tmp/ccnlBL9w.s:2496   .text:0000000000000c60 .L0 
     /tmp/ccnlBL9w.s:2497   .text:0000000000000c64 .L0 
     /tmp/ccnlBL9w.s:2498   .text:0000000000000c64 .L0 
     /tmp/ccnlBL9w.s:2500   .text:0000000000000c68 .L0 
     /tmp/ccnlBL9w.s:2501   .text:0000000000000c68 .L0 
     /tmp/ccnlBL9w.s:2503   .text:0000000000000c6c .L0 
     /tmp/ccnlBL9w.s:2506   .text:0000000000000c70 .L0 
     /tmp/ccnlBL9w.s:2508   .text:0000000000000c74 .L0 
     /tmp/ccnlBL9w.s:2512   .text:0000000000000c78 .L0 
     /tmp/ccnlBL9w.s:2515   .text:0000000000000c78 .L0 
     /tmp/ccnlBL9w.s:2524   .text:0000000000000c84 .L0 
     /tmp/ccnlBL9w.s:2532   .text:0000000000000c9c .L0 
     /tmp/ccnlBL9w.s:2584   .text:0000000000000c9c _ZN5RiscV20handleSupervisorTrapEv
     /tmp/ccnlBL9w.s:2587   .text:0000000000000c9c .L0 
     /tmp/ccnlBL9w.s:2588   .text:0000000000000c9c .L0 
     /tmp/ccnlBL9w.s:2589   .text:0000000000000ca0 .L0 
GAS LISTING /tmp/ccnlBL9w.s 			page 127


     /tmp/ccnlBL9w.s:2593   .text:0000000000000cac .L0 
     /tmp/ccnlBL9w.s:2594   .text:0000000000000cac .L0 
     /tmp/ccnlBL9w.s:2595   .text:0000000000000cac .L0 
     /tmp/ccnlBL9w.s:2597   .text:0000000000000cb0 .L0 
     /tmp/ccnlBL9w.s:2599   .text:0000000000000cb0 .L0 
     /tmp/ccnlBL9w.s:2600   .text:0000000000000cb0 .L0 
src/kernel/riscv.cpp:52     .text:0000000000000cb0 .L0 
     /tmp/ccnlBL9w.s:2610   .text:0000000000000cb4 .L0 
     /tmp/ccnlBL9w.s:2611   .text:0000000000000cb4 .L0 
     /tmp/ccnlBL9w.s:2612   .text:0000000000000cb4 .L0 
src/kernel/../../h/kernel/riscv.hpp:170    .text:0000000000000cb4 .L0 
     /tmp/ccnlBL9w.s:2620   .text:0000000000000cbc .L0 
     /tmp/ccnlBL9w.s:2621   .text:0000000000000cbc .L0 
     /tmp/ccnlBL9w.s:2625   .text:0000000000000cc0 .L0 
     /tmp/ccnlBL9w.s:2627   .text:0000000000000cc4 .L0 
     /tmp/ccnlBL9w.s:2628   .text:0000000000000cc4 .L0 
src/kernel/riscv.cpp:55     .text:0000000000000cd0 .L0 
     /tmp/ccnlBL9w.s:2639   .text:0000000000000cd8 .L0 
     /tmp/ccnlBL9w.s:2640   .text:0000000000000cd8 .L0 
     /tmp/ccnlBL9w.s:2642   .text:0000000000000cdc .L0 
     /tmp/ccnlBL9w.s:2645   .text:0000000000000ce4 .L0 
     /tmp/ccnlBL9w.s:2647   .text:0000000000000ce8 .L0 
     /tmp/ccnlBL9w.s:2653   .text:0000000000000cf0 .L0 
     /tmp/ccnlBL9w.s:2654   .text:0000000000000cf0 .L0 
     /tmp/ccnlBL9w.s:2656   .text:0000000000000cf4 .L0 
     /tmp/ccnlBL9w.s:2666   .text:0000000000000d04 .L0 
     /tmp/ccnlBL9w.s:2667   .text:0000000000000d04 .L0 
     /tmp/ccnlBL9w.s:2669   .text:0000000000000d08 .L0 
     /tmp/ccnlBL9w.s:2681   .text:0000000000000d18 .L0 
     /tmp/ccnlBL9w.s:2682   .text:0000000000000d18 .L0 
     /tmp/ccnlBL9w.s:2684   .text:0000000000000d1c .L0 
     /tmp/ccnlBL9w.s:2688   .text:0000000000000d24 .L0 
     /tmp/ccnlBL9w.s:2689   .text:0000000000000d24 .L0 
     /tmp/ccnlBL9w.s:2693   .text:0000000000000d34 .L0 
     /tmp/ccnlBL9w.s:2694   .text:0000000000000d34 .L0 
     /tmp/ccnlBL9w.s:2700   .text:0000000000000d44 .L0 
     /tmp/ccnlBL9w.s:2701   .text:0000000000000d44 .L0 
     /tmp/ccnlBL9w.s:2702   .text:0000000000000d44 .L0 
src/kernel/../../h/kernel/riscv.hpp:170    .text:0000000000000d44 .L0 
     /tmp/ccnlBL9w.s:2710   .text:0000000000000d4c .L0 
     /tmp/ccnlBL9w.s:2711   .text:0000000000000d4c .L0 
     /tmp/ccnlBL9w.s:2716   .text:0000000000000d50 .L0 
     /tmp/ccnlBL9w.s:2717   .text:0000000000000d50 .L0 
     /tmp/ccnlBL9w.s:2724   .text:0000000000000d64 .L0 
     /tmp/ccnlBL9w.s:2725   .text:0000000000000d64 .L0 
     /tmp/ccnlBL9w.s:2731   .text:0000000000000d74 .L0 
     /tmp/ccnlBL9w.s:2732   .text:0000000000000d74 .L0 
     /tmp/ccnlBL9w.s:2733   .text:0000000000000d74 .L0 
src/kernel/../../h/kernel/riscv.hpp:180    .text:0000000000000d74 .L0 
     /tmp/ccnlBL9w.s:2742   .text:0000000000000d78 .L0 
     /tmp/ccnlBL9w.s:2743   .text:0000000000000d78 .L0 
     /tmp/ccnlBL9w.s:2744   .text:0000000000000d78 .L0 
     /tmp/ccnlBL9w.s:2750   .text:0000000000000d8c .L0 
     /tmp/ccnlBL9w.s:2751   .text:0000000000000d8c .L0 
     /tmp/ccnlBL9w.s:2755   .text:0000000000000d9c .L0 
     /tmp/ccnlBL9w.s:2756   .text:0000000000000d9c .L0 
     /tmp/ccnlBL9w.s:2763   .text:0000000000000dbc .L0 
GAS LISTING /tmp/ccnlBL9w.s 			page 128


     /tmp/ccnlBL9w.s:2764   .text:0000000000000dbc .L0 
     /tmp/ccnlBL9w.s:2768   .text:0000000000000dc8 .L0 
     /tmp/ccnlBL9w.s:2769   .text:0000000000000dc8 .L0 
     /tmp/ccnlBL9w.s:2772   .text:0000000000000dd0 .L0 
     /tmp/ccnlBL9w.s:2773   .text:0000000000000dd0 .L0 
     /tmp/ccnlBL9w.s:2777   .text:0000000000000de0 .L0 
     /tmp/ccnlBL9w.s:2778   .text:0000000000000de0 .L0 
     /tmp/ccnlBL9w.s:2790   .text:0000000000000dec .L0 
     /tmp/ccnlBL9w.s:2791   .text:0000000000000dec .L0 
     /tmp/ccnlBL9w.s:2792   .text:0000000000000dec .L0 
src/kernel/../../h/kernel/riscv.hpp:200    .text:0000000000000dec .L0 
     /tmp/ccnlBL9w.s:2802   .text:0000000000000df0 .L0 
     /tmp/ccnlBL9w.s:2803   .text:0000000000000df0 .L0 
     /tmp/ccnlBL9w.s:2807   .text:0000000000000df4 .L0 
     /tmp/ccnlBL9w.s:2808   .text:0000000000000df4 .L0 
     /tmp/ccnlBL9w.s:2809   .text:0000000000000df4 .L0 
src/kernel/../../h/kernel/riscv.hpp:180    .text:0000000000000df4 .L0 
     /tmp/ccnlBL9w.s:2819   .text:0000000000000df8 .L0 
     /tmp/ccnlBL9w.s:2820   .text:0000000000000df8 .L0 
     /tmp/ccnlBL9w.s:2822   .text:0000000000000dfc .L0 
     /tmp/ccnlBL9w.s:2824   .text:0000000000000e00 .L0 
     /tmp/ccnlBL9w.s:2825   .text:0000000000000e00 .L0 
     /tmp/ccnlBL9w.s:2828   .text:0000000000000e0c .L0 
     /tmp/ccnlBL9w.s:2831   .text:0000000000000e14 .L0 
     /tmp/ccnlBL9w.s:2832   .text:0000000000000e14 .L0 
     /tmp/ccnlBL9w.s:2835   .text:0000000000000e1c .L0 
     /tmp/ccnlBL9w.s:2836   .text:0000000000000e1c .L0 
src/kernel/riscv.cpp:68     .text:0000000000000e1c .L0 
     /tmp/ccnlBL9w.s:2844   .text:0000000000000e20 .L0 
     /tmp/ccnlBL9w.s:2958   .text:0000000000000e44 .L0 
     /tmp/ccnlBL9w.s:2959   .text:0000000000000e44 .L0 
     /tmp/ccnlBL9w.s:2960   .text:0000000000000e44 .L0 
     /tmp/ccnlBL9w.s:2964   .text:0000000000000e4c .L0 
     /tmp/ccnlBL9w.s:2965   .text:0000000000000e4c .L0 
     /tmp/ccnlBL9w.s:2966   .text:0000000000000e4c .L0 
     /tmp/ccnlBL9w.s:2973   .text:0000000000000e5c .L0 
src/kernel/../../h/kernel/riscv.hpp:195    .text:0000000000000e5c .L0 
     /tmp/ccnlBL9w.s:2983   .text:0000000000000e60 .L0 
     /tmp/ccnlBL9w.s:2984   .text:0000000000000e60 .L0 
     /tmp/ccnlBL9w.s:2989   .text:0000000000000e64 .L0 
src/kernel/../../h/kernel/riscv.hpp:185    .text:0000000000000e64 .L0 
     /tmp/ccnlBL9w.s:3002   .text:0000000000000e68 .L0 
     /tmp/ccnlBL9w.s:3003   .text:0000000000000e68 .L0 
     /tmp/ccnlBL9w.s:3006   .text:0000000000000e70 .L0 
     /tmp/ccnlBL9w.s:3007   .text:0000000000000e74 .L0 
     /tmp/ccnlBL9w.s:3008   .text:0000000000000e74 .L0 
     /tmp/ccnlBL9w.s:3010   .text:0000000000000e78 .L0 
     /tmp/ccnlBL9w.s:3011   .text:0000000000000e78 .L0 
     /tmp/ccnlBL9w.s:3013   .text:0000000000000e7c .L0 
     /tmp/ccnlBL9w.s:3016   .text:0000000000000e80 .L0 
     /tmp/ccnlBL9w.s:3020   .text:0000000000000e84 .L0 
     /tmp/ccnlBL9w.s:3024   .text:0000000000000e84 .L0 
     /tmp/ccnlBL9w.s:3025   .text:0000000000000e84 .L0 
     /tmp/ccnlBL9w.s:3026   .text:0000000000000e84 .L0 
     /tmp/ccnlBL9w.s:3029   .text:0000000000000e8c .L0 
     /tmp/ccnlBL9w.s:3032   .text:0000000000000e90 .L0 
     /tmp/ccnlBL9w.s:3033   .text:0000000000000e90 .L0 
GAS LISTING /tmp/ccnlBL9w.s 			page 129


     /tmp/ccnlBL9w.s:3034   .text:0000000000000e90 .L0 
     /tmp/ccnlBL9w.s:3037   .text:0000000000000e98 .L0 
     /tmp/ccnlBL9w.s:3040   .text:0000000000000e9c .L0 
     /tmp/ccnlBL9w.s:3041   .text:0000000000000e9c .L0 
     /tmp/ccnlBL9w.s:3042   .text:0000000000000e9c .L0 
     /tmp/ccnlBL9w.s:3045   .text:0000000000000ea4 .L0 
     /tmp/ccnlBL9w.s:3048   .text:0000000000000ea8 .L0 
     /tmp/ccnlBL9w.s:3049   .text:0000000000000ea8 .L0 
     /tmp/ccnlBL9w.s:3050   .text:0000000000000ea8 .L0 
     /tmp/ccnlBL9w.s:3053   .text:0000000000000eb0 .L0 
     /tmp/ccnlBL9w.s:3056   .text:0000000000000eb4 .L0 
     /tmp/ccnlBL9w.s:3057   .text:0000000000000eb4 .L0 
     /tmp/ccnlBL9w.s:3058   .text:0000000000000eb4 .L0 
     /tmp/ccnlBL9w.s:3061   .text:0000000000000ebc .L0 
     /tmp/ccnlBL9w.s:3064   .text:0000000000000ec0 .L0 
     /tmp/ccnlBL9w.s:3065   .text:0000000000000ec0 .L0 
     /tmp/ccnlBL9w.s:3066   .text:0000000000000ec0 .L0 
     /tmp/ccnlBL9w.s:3069   .text:0000000000000ec8 .L0 
     /tmp/ccnlBL9w.s:3072   .text:0000000000000ecc .L0 
     /tmp/ccnlBL9w.s:3073   .text:0000000000000ecc .L0 
     /tmp/ccnlBL9w.s:3074   .text:0000000000000ecc .L0 
     /tmp/ccnlBL9w.s:3077   .text:0000000000000ed4 .L0 
     /tmp/ccnlBL9w.s:3080   .text:0000000000000ed8 .L0 
     /tmp/ccnlBL9w.s:3081   .text:0000000000000ed8 .L0 
     /tmp/ccnlBL9w.s:3082   .text:0000000000000ed8 .L0 
     /tmp/ccnlBL9w.s:3085   .text:0000000000000ee0 .L0 
     /tmp/ccnlBL9w.s:3088   .text:0000000000000ee4 .L0 
     /tmp/ccnlBL9w.s:3089   .text:0000000000000ee4 .L0 
     /tmp/ccnlBL9w.s:3090   .text:0000000000000ee4 .L0 
     /tmp/ccnlBL9w.s:3093   .text:0000000000000eec .L0 
     /tmp/ccnlBL9w.s:3096   .text:0000000000000ef0 .L0 
     /tmp/ccnlBL9w.s:3097   .text:0000000000000ef0 .L0 
     /tmp/ccnlBL9w.s:3098   .text:0000000000000ef0 .L0 
     /tmp/ccnlBL9w.s:3101   .text:0000000000000ef8 .L0 
     /tmp/ccnlBL9w.s:3104   .text:0000000000000efc .L0 
     /tmp/ccnlBL9w.s:3105   .text:0000000000000efc .L0 
     /tmp/ccnlBL9w.s:3106   .text:0000000000000efc .L0 
     /tmp/ccnlBL9w.s:3109   .text:0000000000000f04 .L0 
     /tmp/ccnlBL9w.s:3112   .text:0000000000000f08 .L0 
     /tmp/ccnlBL9w.s:3113   .text:0000000000000f08 .L0 
     /tmp/ccnlBL9w.s:3114   .text:0000000000000f08 .L0 
     /tmp/ccnlBL9w.s:3117   .text:0000000000000f10 .L0 
     /tmp/ccnlBL9w.s:3120   .text:0000000000000f14 .L0 
     /tmp/ccnlBL9w.s:3121   .text:0000000000000f14 .L0 
     /tmp/ccnlBL9w.s:3122   .text:0000000000000f14 .L0 
     /tmp/ccnlBL9w.s:3125   .text:0000000000000f1c .L0 
     /tmp/ccnlBL9w.s:3128   .text:0000000000000f20 .L0 
     /tmp/ccnlBL9w.s:3129   .text:0000000000000f20 .L0 
     /tmp/ccnlBL9w.s:3130   .text:0000000000000f20 .L0 
     /tmp/ccnlBL9w.s:3133   .text:0000000000000f28 .L0 
     /tmp/ccnlBL9w.s:3136   .text:0000000000000f2c .L0 
     /tmp/ccnlBL9w.s:3137   .text:0000000000000f2c .L0 
     /tmp/ccnlBL9w.s:3138   .text:0000000000000f2c .L0 
     /tmp/ccnlBL9w.s:3141   .text:0000000000000f34 .L0 
     /tmp/ccnlBL9w.s:3144   .text:0000000000000f38 .L0 
     /tmp/ccnlBL9w.s:3145   .text:0000000000000f38 .L0 
     /tmp/ccnlBL9w.s:3146   .text:0000000000000f38 .L0 
GAS LISTING /tmp/ccnlBL9w.s 			page 130


     /tmp/ccnlBL9w.s:3149   .text:0000000000000f40 .L0 
     /tmp/ccnlBL9w.s:3152   .text:0000000000000f44 .L0 
     /tmp/ccnlBL9w.s:3153   .text:0000000000000f44 .L0 
src/kernel/riscv.cpp:91     .text:0000000000000f44 .L0 
     /tmp/ccnlBL9w.s:3162   .text:0000000000000f54 .L0 
     /tmp/ccnlBL9w.s:3163   .text:0000000000000f54 .L0 
     /tmp/ccnlBL9w.s:3166   .text:0000000000000f5c .L0 
     /tmp/ccnlBL9w.s:3167   .text:0000000000000f5c .L0 
     /tmp/ccnlBL9w.s:3170   .text:0000000000000f64 .L0 
     /tmp/ccnlBL9w.s:3178   .text:0000000000000f68 .L0 
     /tmp/ccnlBL9w.s:3179   .text:0000000000000f68 .L0 
     /tmp/ccnlBL9w.s:3180   .text:0000000000000f68 .L0 
src/kernel/../../h/kernel/riscv.hpp:200    .text:0000000000000f68 .L0 
     /tmp/ccnlBL9w.s:3190   .text:0000000000000f6c .L0 
     /tmp/ccnlBL9w.s:3191   .text:0000000000000f6c .L0 
     /tmp/ccnlBL9w.s:3195   .text:0000000000000f70 .L0 
     /tmp/ccnlBL9w.s:3196   .text:0000000000000f70 .L0 
     /tmp/ccnlBL9w.s:3197   .text:0000000000000f70 .L0 
src/kernel/../../h/kernel/riscv.hpp:180    .text:0000000000000f70 .L0 
     /tmp/ccnlBL9w.s:3207   .text:0000000000000f74 .L0 
     /tmp/ccnlBL9w.s:3208   .text:0000000000000f74 .L0 
     /tmp/ccnlBL9w.s:3213   .text:0000000000000f78 .L0 
     /tmp/ccnlBL9w.s:3214   .text:0000000000000f78 .L0 
     /tmp/ccnlBL9w.s:3215   .text:0000000000000f78 .L0 
     /tmp/ccnlBL9w.s:3225   .text:0000000000000f80 .L0 
     /tmp/ccnlBL9w.s:3226   .text:0000000000000f80 .L0 
     /tmp/ccnlBL9w.s:3231   .text:0000000000000f94 .L0 
     /tmp/ccnlBL9w.s:3232   .text:0000000000000f94 .L0 
     /tmp/ccnlBL9w.s:3235   .text:0000000000000f9c .L0 
     /tmp/ccnlBL9w.s:3236   .text:0000000000000f9c .L0 
     /tmp/ccnlBL9w.s:3242   .text:0000000000000fb0 .L0 
     /tmp/ccnlBL9w.s:3243   .text:0000000000000fb0 .L0 
     /tmp/ccnlBL9w.s:3247   .text:0000000000000fc0 .L0 
     /tmp/ccnlBL9w.s:3251   .text:0000000000000fc4 .L0 
     /tmp/ccnlBL9w.s:3252   .text:0000000000000fc4 .L0 
     /tmp/ccnlBL9w.s:3257   .text:0000000000000fc8 .L0 
src/kernel/../../h/kernel/riscv.hpp:195    .text:0000000000000fc8 .L0 
     /tmp/ccnlBL9w.s:3267   .text:0000000000000fcc .L0 
     /tmp/ccnlBL9w.s:3268   .text:0000000000000fcc .L0 
     /tmp/ccnlBL9w.s:3273   .text:0000000000000fd0 .L0 
src/kernel/../../h/kernel/riscv.hpp:185    .text:0000000000000fd0 .L0 
     /tmp/ccnlBL9w.s:3280   .text:0000000000000fd4 .L0 
     /tmp/ccnlBL9w.s:3288   .text:0000000000000fd8 .L0 
     /tmp/ccnlBL9w.s:3289   .text:0000000000000fd8 .L0 
     /tmp/ccnlBL9w.s:3293   .text:0000000000000fe4 .L0 
     /tmp/ccnlBL9w.s:3294   .text:0000000000000fe4 .L0 
     /tmp/ccnlBL9w.s:3295   .text:0000000000000fe4 .L0 
     /tmp/ccnlBL9w.s:3298   .text:0000000000000fec .L0 
     /tmp/ccnlBL9w.s:3299   .text:0000000000000fec .L0 
     /tmp/ccnlBL9w.s:3311   .text:0000000000000ff8 .L0 
     /tmp/ccnlBL9w.s:3312   .text:0000000000000ff8 .L0 
     /tmp/ccnlBL9w.s:3313   .text:0000000000000ff8 .L0 
src/kernel/../../h/kernel/riscv.hpp:200    .text:0000000000000ff8 .L0 
     /tmp/ccnlBL9w.s:3323   .text:0000000000000ffc .L0 
     /tmp/ccnlBL9w.s:3324   .text:0000000000000ffc .L0 
     /tmp/ccnlBL9w.s:3328   .text:0000000000001000 .L0 
     /tmp/ccnlBL9w.s:3329   .text:0000000000001000 .L0 
GAS LISTING /tmp/ccnlBL9w.s 			page 131


     /tmp/ccnlBL9w.s:3330   .text:0000000000001000 .L0 
src/kernel/../../h/kernel/riscv.hpp:180    .text:0000000000001000 .L0 
     /tmp/ccnlBL9w.s:3340   .text:0000000000001004 .L0 
     /tmp/ccnlBL9w.s:3341   .text:0000000000001004 .L0 
     /tmp/ccnlBL9w.s:3343   .text:0000000000001008 .L0 
     /tmp/ccnlBL9w.s:3344   .text:0000000000001008 .L0 
     /tmp/ccnlBL9w.s:3348   .text:0000000000001014 .L0 
src/kernel/riscv.cpp:146    .text:0000000000001014 .L0 
     /tmp/ccnlBL9w.s:3354   .text:0000000000001018 .L0 
src/kernel/riscv.cpp:147    .text:0000000000001018 .L0 
     /tmp/ccnlBL9w.s:3359   .text:000000000000101c .L0 
src/kernel/riscv.cpp:148    .text:000000000000101c .L0 
     /tmp/ccnlBL9w.s:3367   .text:0000000000001020 .L0 
     /tmp/ccnlBL9w.s:3368   .text:0000000000001020 .L0 
     /tmp/ccnlBL9w.s:3371   .text:0000000000001024 .L0 
     /tmp/ccnlBL9w.s:3374   .text:0000000000001028 .L0 
     /tmp/ccnlBL9w.s:3375   .text:0000000000001028 .L0 
     /tmp/ccnlBL9w.s:3376   .text:0000000000001028 .L0 
     /tmp/ccnlBL9w.s:3377   .text:0000000000001028 .L0 
     /tmp/ccnlBL9w.s:3381   .text:0000000000001034 .L0 
src/kernel/riscv.cpp:157    .text:0000000000001034 .L0 
     /tmp/ccnlBL9w.s:3387   .text:0000000000001038 .L0 
src/kernel/riscv.cpp:158    .text:0000000000001038 .L0 
     /tmp/ccnlBL9w.s:3392   .text:000000000000103c .L0 
src/kernel/riscv.cpp:159    .text:000000000000103c .L0 
     /tmp/ccnlBL9w.s:3400   .text:0000000000001044 .L0 
     /tmp/ccnlBL9w.s:3401   .text:0000000000001044 .L0 
     /tmp/ccnlBL9w.s:3405   .text:0000000000001050 .L0 
     /tmp/ccnlBL9w.s:3411   .text:0000000000001054 .L0 
     /tmp/ccnlBL9w.s:3412   .text:0000000000001054 .L0 
     /tmp/ccnlBL9w.s:3417   .text:0000000000001064 .L0 
     /tmp/ccnlBL9w.s:3418   .text:0000000000001064 .L0 
     /tmp/ccnlBL9w.s:3423   .text:0000000000001068 .L0 
src/kernel/../../h/kernel/riscv.hpp:195    .text:0000000000001068 .L0 
     /tmp/ccnlBL9w.s:3433   .text:000000000000106c .L0 
     /tmp/ccnlBL9w.s:3434   .text:000000000000106c .L0 
     /tmp/ccnlBL9w.s:3439   .text:0000000000001070 .L0 
src/kernel/../../h/kernel/riscv.hpp:185    .text:0000000000001070 .L0 
     /tmp/ccnlBL9w.s:3446   .text:0000000000001074 .L0 
     /tmp/ccnlBL9w.s:3454   .text:0000000000001078 .L0 
     /tmp/ccnlBL9w.s:3455   .text:0000000000001078 .L0 
     /tmp/ccnlBL9w.s:3459   .text:0000000000001088 .L0 
     /tmp/ccnlBL9w.s:3460   .text:0000000000001088 .L0 
     /tmp/ccnlBL9w.s:3471   .text:0000000000001094 .L0 
     /tmp/ccnlBL9w.s:3472   .text:0000000000001094 .L0 
     /tmp/ccnlBL9w.s:3476   .text:00000000000010a0 .L0 
     /tmp/ccnlBL9w.s:3477   .text:00000000000010a0 .L0 
     /tmp/ccnlBL9w.s:3480   .text:00000000000010a8 .L0 
     /tmp/ccnlBL9w.s:3481   .text:00000000000010a8 .L0 
     /tmp/ccnlBL9w.s:3487   .text:00000000000010b8 .L0 
     /tmp/ccnlBL9w.s:3488   .text:00000000000010b8 .L0 
     /tmp/ccnlBL9w.s:3489   .text:00000000000010b8 .L0 
src/kernel/../../h/kernel/riscv.hpp:180    .text:00000000000010b8 .L0 
     /tmp/ccnlBL9w.s:3498   .text:00000000000010bc .L0 
     /tmp/ccnlBL9w.s:3499   .text:00000000000010bc .L0 
     /tmp/ccnlBL9w.s:3500   .text:00000000000010bc .L0 
     /tmp/ccnlBL9w.s:3506   .text:00000000000010d0 .L0 
GAS LISTING /tmp/ccnlBL9w.s 			page 132


     /tmp/ccnlBL9w.s:3507   .text:00000000000010d0 .L0 
     /tmp/ccnlBL9w.s:3511   .text:00000000000010e0 .L0 
     /tmp/ccnlBL9w.s:3512   .text:00000000000010e0 .L0 
     /tmp/ccnlBL9w.s:3516   .text:00000000000010f0 .L0 
     /tmp/ccnlBL9w.s:3517   .text:00000000000010f0 .L0 
     /tmp/ccnlBL9w.s:3525   .text:00000000000010fc .L0 
     /tmp/ccnlBL9w.s:3531   .text:00000000000010fc _ZN5RiscV12buildSectionEPvmmm
     /tmp/ccnlBL9w.s:3534   .text:00000000000010fc .L0 
     /tmp/ccnlBL9w.s:3536   .text:00000000000010fc .L0 
     /tmp/ccnlBL9w.s:3537   .text:0000000000001100 .L0 
     /tmp/ccnlBL9w.s:3544   .text:0000000000001118 .L0 
     /tmp/ccnlBL9w.s:3545   .text:0000000000001118 .L0 
     /tmp/ccnlBL9w.s:3546   .text:0000000000001118 .L0 
     /tmp/ccnlBL9w.s:3547   .text:0000000000001118 .L0 
     /tmp/ccnlBL9w.s:3548   .text:0000000000001118 .L0 
     /tmp/ccnlBL9w.s:3549   .text:0000000000001118 .L0 
     /tmp/ccnlBL9w.s:3551   .text:000000000000111c .L0 
     /tmp/ccnlBL9w.s:3560   .text:000000000000112c .L0 
     /tmp/ccnlBL9w.s:3561   .text:000000000000112c .L0 
     /tmp/ccnlBL9w.s:3563   .text:0000000000001130 .L0 
     /tmp/ccnlBL9w.s:3564   .text:0000000000001130 .L0 
     /tmp/ccnlBL9w.s:3570   .text:0000000000001144 .L0 
     /tmp/ccnlBL9w.s:3571   .text:0000000000001144 .L0 
     /tmp/ccnlBL9w.s:3575   .text:000000000000114c .L0 
     /tmp/ccnlBL9w.s:3579   .text:0000000000001150 .L0 
     /tmp/ccnlBL9w.s:3580   .text:0000000000001154 .L0 
     /tmp/ccnlBL9w.s:3582   .text:0000000000001158 .L0 
     /tmp/ccnlBL9w.s:3583   .text:0000000000001158 .L0 
     /tmp/ccnlBL9w.s:3585   .text:000000000000115c .L0 
     /tmp/ccnlBL9w.s:3588   .text:0000000000001160 .L0 
     /tmp/ccnlBL9w.s:3591   .text:0000000000001164 .L0 
     /tmp/ccnlBL9w.s:3594   .text:0000000000001168 .L0 
     /tmp/ccnlBL9w.s:3597   .text:000000000000116c .L0 
     /tmp/ccnlBL9w.s:3599   .text:0000000000001170 .L0 
     /tmp/ccnlBL9w.s:3605   .text:0000000000001170 _ZN5RiscV19mapConsoleRegistersEPv
     /tmp/ccnlBL9w.s:3608   .text:0000000000001170 .L0 
     /tmp/ccnlBL9w.s:3610   .text:0000000000001170 .L0 
     /tmp/ccnlBL9w.s:3611   .text:0000000000001174 .L0 
     /tmp/ccnlBL9w.s:3615   .text:0000000000001180 .L0 
     /tmp/ccnlBL9w.s:3616   .text:0000000000001180 .L0 
     /tmp/ccnlBL9w.s:3617   .text:0000000000001180 .L0 
     /tmp/ccnlBL9w.s:3619   .text:0000000000001184 .L0 
     /tmp/ccnlBL9w.s:3622   .text:0000000000001188 .L0 
     /tmp/ccnlBL9w.s:3623   .text:0000000000001188 .L0 
     /tmp/ccnlBL9w.s:3629   .text:00000000000011a0 .L0 
     /tmp/ccnlBL9w.s:3630   .text:00000000000011a0 .L0 
     /tmp/ccnlBL9w.s:3637   .text:00000000000011bc .L0 
     /tmp/ccnlBL9w.s:3638   .text:00000000000011bc .L0 
     /tmp/ccnlBL9w.s:3645   .text:00000000000011d8 .L0 
     /tmp/ccnlBL9w.s:3646   .text:00000000000011d8 .L0 
     /tmp/ccnlBL9w.s:3653   .text:00000000000011f0 .L0 
     /tmp/ccnlBL9w.s:3654   .text:00000000000011f4 .L0 
     /tmp/ccnlBL9w.s:3656   .text:00000000000011f8 .L0 
     /tmp/ccnlBL9w.s:3657   .text:00000000000011f8 .L0 
     /tmp/ccnlBL9w.s:3659   .text:00000000000011fc .L0 
     /tmp/ccnlBL9w.s:3662   .text:0000000000001200 .L0 
     /tmp/ccnlBL9w.s:3664   .text:0000000000001204 .L0 
GAS LISTING /tmp/ccnlBL9w.s 			page 133


     /tmp/ccnlBL9w.s:3670   .text:0000000000001204 _ZN5RiscV14buildKernelPMTEv
     /tmp/ccnlBL9w.s:3673   .text:0000000000001204 .L0 
     /tmp/ccnlBL9w.s:3674   .text:0000000000001204 .L0 
     /tmp/ccnlBL9w.s:3675   .text:0000000000001208 .L0 
     /tmp/ccnlBL9w.s:3682   .text:0000000000001220 .L0 
     /tmp/ccnlBL9w.s:3683   .text:0000000000001220 .L0 
     /tmp/ccnlBL9w.s:3684   .text:0000000000001220 .L0 
     /tmp/ccnlBL9w.s:3685   .text:0000000000001220 .L0 
     /tmp/ccnlBL9w.s:3686   .text:0000000000001220 .L0 
     /tmp/ccnlBL9w.s:3687   .text:0000000000001220 .L0 
     /tmp/ccnlBL9w.s:3689   .text:0000000000001224 .L0 
     /tmp/ccnlBL9w.s:3691   .text:0000000000001224 .L0 
     /tmp/ccnlBL9w.s:3692   .text:0000000000001224 .L0 
     /tmp/ccnlBL9w.s:3695   .text:000000000000122c .L0 
     /tmp/ccnlBL9w.s:3698   .text:0000000000001238 .L0 
     /tmp/ccnlBL9w.s:3699   .text:0000000000001238 .L0 
     /tmp/ccnlBL9w.s:3703   .text:0000000000001248 .L0 
     /tmp/ccnlBL9w.s:3706   .text:0000000000001254 .L0 
     /tmp/ccnlBL9w.s:3709   .text:0000000000001258 .L0 
     /tmp/ccnlBL9w.s:3710   .text:0000000000001258 .L0 
     /tmp/ccnlBL9w.s:3718   .text:0000000000001278 .L0 
     /tmp/ccnlBL9w.s:3719   .text:0000000000001278 .L0 
     /tmp/ccnlBL9w.s:3727   .text:0000000000001298 .L0 
     /tmp/ccnlBL9w.s:3728   .text:0000000000001298 .L0 
     /tmp/ccnlBL9w.s:3736   .text:00000000000012b8 .L0 
     /tmp/ccnlBL9w.s:3737   .text:00000000000012b8 .L0 
     /tmp/ccnlBL9w.s:3745   .text:00000000000012d8 .L0 
     /tmp/ccnlBL9w.s:3746   .text:00000000000012d8 .L0 
     /tmp/ccnlBL9w.s:3753   .text:00000000000012f0 .L0 
     /tmp/ccnlBL9w.s:3754   .text:00000000000012f0 .L0 
     /tmp/ccnlBL9w.s:3762   .text:0000000000001310 .L0 
     /tmp/ccnlBL9w.s:3763   .text:0000000000001310 .L0 
     /tmp/ccnlBL9w.s:3769   .text:000000000000131c .L0 
     /tmp/ccnlBL9w.s:3770   .text:000000000000131c .L0 
     /tmp/ccnlBL9w.s:3771   .text:000000000000131c .L0 
     /tmp/ccnlBL9w.s:3781   .text:0000000000001324 .L0 
     /tmp/ccnlBL9w.s:3782   .text:0000000000001328 .L0 
     /tmp/ccnlBL9w.s:3784   .text:000000000000132c .L0 
     /tmp/ccnlBL9w.s:3785   .text:000000000000132c .L0 
     /tmp/ccnlBL9w.s:3787   .text:0000000000001330 .L0 
     /tmp/ccnlBL9w.s:3789   .text:0000000000001334 .L0 
     /tmp/ccnlBL9w.s:3792   .text:0000000000001338 .L0 
     /tmp/ccnlBL9w.s:3794   .text:000000000000133c .L0 
     /tmp/ccnlBL9w.s:3796   .text:0000000000001340 .L0 
     /tmp/ccnlBL9w.s:3798   .text:0000000000001344 .L0 
     /tmp/ccnlBL9w.s:3804   .text:0000000000001344 _ZN5RiscV12buildUserPMTEv
     /tmp/ccnlBL9w.s:3807   .text:0000000000001344 .L0 
     /tmp/ccnlBL9w.s:3808   .text:0000000000001344 .L0 
     /tmp/ccnlBL9w.s:3809   .text:0000000000001348 .L0 
     /tmp/ccnlBL9w.s:3816   .text:0000000000001360 .L0 
     /tmp/ccnlBL9w.s:3817   .text:0000000000001360 .L0 
     /tmp/ccnlBL9w.s:3818   .text:0000000000001360 .L0 
     /tmp/ccnlBL9w.s:3819   .text:0000000000001360 .L0 
     /tmp/ccnlBL9w.s:3820   .text:0000000000001360 .L0 
     /tmp/ccnlBL9w.s:3821   .text:0000000000001360 .L0 
     /tmp/ccnlBL9w.s:3823   .text:0000000000001364 .L0 
     /tmp/ccnlBL9w.s:3825   .text:0000000000001364 .L0 
GAS LISTING /tmp/ccnlBL9w.s 			page 134


     /tmp/ccnlBL9w.s:3826   .text:0000000000001364 .L0 
     /tmp/ccnlBL9w.s:3829   .text:000000000000136c .L0 
     /tmp/ccnlBL9w.s:3832   .text:0000000000001378 .L0 
     /tmp/ccnlBL9w.s:3833   .text:0000000000001378 .L0 
     /tmp/ccnlBL9w.s:3837   .text:0000000000001388 .L0 
     /tmp/ccnlBL9w.s:3840   .text:0000000000001394 .L0 
     /tmp/ccnlBL9w.s:3843   .text:0000000000001398 .L0 
     /tmp/ccnlBL9w.s:3844   .text:0000000000001398 .L0 
     /tmp/ccnlBL9w.s:3852   .text:00000000000013b8 .L0 
     /tmp/ccnlBL9w.s:3853   .text:00000000000013b8 .L0 
     /tmp/ccnlBL9w.s:3861   .text:00000000000013d8 .L0 
     /tmp/ccnlBL9w.s:3862   .text:00000000000013d8 .L0 
     /tmp/ccnlBL9w.s:3870   .text:00000000000013f8 .L0 
     /tmp/ccnlBL9w.s:3871   .text:00000000000013f8 .L0 
     /tmp/ccnlBL9w.s:3879   .text:0000000000001418 .L0 
     /tmp/ccnlBL9w.s:3880   .text:0000000000001418 .L0 
     /tmp/ccnlBL9w.s:3887   .text:0000000000001430 .L0 
     /tmp/ccnlBL9w.s:3888   .text:0000000000001430 .L0 
     /tmp/ccnlBL9w.s:3896   .text:0000000000001450 .L0 
     /tmp/ccnlBL9w.s:3897   .text:0000000000001450 .L0 
     /tmp/ccnlBL9w.s:3903   .text:000000000000145c .L0 
     /tmp/ccnlBL9w.s:3904   .text:000000000000145c .L0 
     /tmp/ccnlBL9w.s:3905   .text:000000000000145c .L0 
     /tmp/ccnlBL9w.s:3915   .text:0000000000001464 .L0 
     /tmp/ccnlBL9w.s:3916   .text:0000000000001468 .L0 
     /tmp/ccnlBL9w.s:3918   .text:000000000000146c .L0 
     /tmp/ccnlBL9w.s:3919   .text:000000000000146c .L0 
     /tmp/ccnlBL9w.s:3921   .text:0000000000001470 .L0 
     /tmp/ccnlBL9w.s:3923   .text:0000000000001474 .L0 
     /tmp/ccnlBL9w.s:3926   .text:0000000000001478 .L0 
     /tmp/ccnlBL9w.s:3928   .text:000000000000147c .L0 
     /tmp/ccnlBL9w.s:3930   .text:0000000000001480 .L0 
     /tmp/ccnlBL9w.s:3932   .text:0000000000001484 .L0 
     /tmp/ccnlBL9w.s:3938   .text:0000000000001484 _ZN5RiscV10initializeEv
     /tmp/ccnlBL9w.s:3941   .text:0000000000001484 .L0 
     /tmp/ccnlBL9w.s:3942   .text:0000000000001484 .L0 
     /tmp/ccnlBL9w.s:3943   .text:0000000000001488 .L0 
     /tmp/ccnlBL9w.s:3946   .text:0000000000001490 .L0 
     /tmp/ccnlBL9w.s:3947   .text:0000000000001490 .L0 
     /tmp/ccnlBL9w.s:3949   .text:0000000000001494 .L0 
     /tmp/ccnlBL9w.s:3951   .text:0000000000001494 .L0 
     /tmp/ccnlBL9w.s:3952   .text:0000000000001494 .L0 
     /tmp/ccnlBL9w.s:3957   .text:000000000000149c .L0 
src/kernel/../../h/kernel/riscv.hpp:205    .text:000000000000149c .L0 
     /tmp/ccnlBL9w.s:3967   .text:00000000000014a0 .L0 
     /tmp/ccnlBL9w.s:3968   .text:00000000000014a0 .L0 
     /tmp/ccnlBL9w.s:3973   .text:00000000000014b4 .L0 
     /tmp/ccnlBL9w.s:3978   .text:00000000000014c4 .L0 
     /tmp/ccnlBL9w.s:3979   .text:00000000000014c4 .L0 
     /tmp/ccnlBL9w.s:3982   .text:00000000000014cc .L0 
     /tmp/ccnlBL9w.s:3983   .text:00000000000014cc .L0 
     /tmp/ccnlBL9w.s:3986   .text:00000000000014d4 .L0 
     /tmp/ccnlBL9w.s:3987   .text:00000000000014d4 .L0 
     /tmp/ccnlBL9w.s:3990   .text:00000000000014dc .L0 
     /tmp/ccnlBL9w.s:3991   .text:00000000000014dc .L0 
     /tmp/ccnlBL9w.s:3994   .text:00000000000014e4 .L0 
     /tmp/ccnlBL9w.s:3995   .text:00000000000014e4 .L0 
GAS LISTING /tmp/ccnlBL9w.s 			page 135


     /tmp/ccnlBL9w.s:3998   .text:00000000000014ec .L0 
     /tmp/ccnlBL9w.s:3999   .text:00000000000014ec .L0 
     /tmp/ccnlBL9w.s:4002   .text:00000000000014f4 .L0 
     /tmp/ccnlBL9w.s:4003   .text:00000000000014f4 .L0 
     /tmp/ccnlBL9w.s:4006   .text:00000000000014fc .L0 
     /tmp/ccnlBL9w.s:4007   .text:00000000000014fc .L0 
     /tmp/ccnlBL9w.s:4011   .text:000000000000150c .L0 
     /tmp/ccnlBL9w.s:4012   .text:000000000000150c .L0 
     /tmp/ccnlBL9w.s:4017   .text:0000000000001510 .L0 
     /tmp/ccnlBL9w.s:4018   .text:0000000000001510 .L0 
     /tmp/ccnlBL9w.s:4021   .text:0000000000001514 .L0 
     /tmp/ccnlBL9w.s:4026   .text:0000000000001520 .L0 
src/kernel/../../h/kernel/riscv.hpp:265    .text:0000000000001520 .L0 
     /tmp/ccnlBL9w.s:4036   .text:0000000000001524 .L0 
     /tmp/ccnlBL9w.s:4040   .text:0000000000001524 .L0 
     /tmp/ccnlBL9w.s:4041   .text:0000000000001524 .L0 
     /tmp/ccnlBL9w.s:4042   .text:0000000000001524 .L0 
     /tmp/ccnlBL9w.s:4056   .text:000000000000152c .L0 
     /tmp/ccnlBL9w.s:4057   .text:000000000000152c .L0 
     /tmp/ccnlBL9w.s:4058   .text:000000000000152c .L0 
     /tmp/ccnlBL9w.s:4072   .text:0000000000001534 .L0 
     /tmp/ccnlBL9w.s:4073   .text:0000000000001534 .L0 
src/kernel/../../h/kernel/riscv.hpp:209    .text:0000000000001534 .L0 
     /tmp/ccnlBL9w.s:4084   .text:0000000000001538 .L0 
     /tmp/ccnlBL9w.s:4085   .text:000000000000153c .L0 
     /tmp/ccnlBL9w.s:4087   .text:0000000000001540 .L0 
     /tmp/ccnlBL9w.s:4088   .text:0000000000001540 .L0 
     /tmp/ccnlBL9w.s:4090   .text:0000000000001544 .L0 
     /tmp/ccnlBL9w.s:4092   .text:0000000000001548 .L0 
     /tmp/ccnlBL9w.s:4122   .bss:0000000000000020 _ZN5RiscV11initializedE
     /tmp/ccnlBL9w.s:4118   .bss:0000000000000018 _ZN5RiscV4uPMTE
     /tmp/ccnlBL9w.s:4114   .bss:0000000000000010 _ZN5RiscV4kPMTE
     /tmp/ccnlBL9w.s:4105   .bss:0000000000000000 _ZN5RiscV16userMainFinishedE
     /tmp/ccnlBL9w.s:4110   .bss:0000000000000008 _ZN5RiscV10globalTimeE
     /tmp/ccnlBL9w.s:4102   .bss:0000000000000000 .LANCHOR0
     /tmp/ccnlBL9w.s:4137   .text:0000000000001548 .L0 
     /tmp/ccnlBL9w.s:22     .text:000000000000000c .L0 
     /tmp/ccnlBL9w.s:48     .text:0000000000000034 .L0 
     /tmp/ccnlBL9w.s:100    .text:0000000000000068 .L0 
     /tmp/ccnlBL9w.s:140    .text:00000000000000a4 .L0 
     /tmp/ccnlBL9w.s:145    .text:00000000000000b0 .L0 
     /tmp/ccnlBL9w.s:191    .text:00000000000000f0 .L0 
     /tmp/ccnlBL9w.s:261    .text:000000000000013c .L0 
     /tmp/ccnlBL9w.s:264    .text:0000000000000144 .L0 
     /tmp/ccnlBL9w.s:268    .text:0000000000000150 .L0 
     /tmp/ccnlBL9w.s:321    .text:000000000000016c .L0 
     /tmp/ccnlBL9w.s:328    .text:0000000000000180 .L0 
     /tmp/ccnlBL9w.s:335    .text:0000000000000190 .L0 
     /tmp/ccnlBL9w.s:342    .text:00000000000001a4 .L0 
     /tmp/ccnlBL9w.s:344    .text:00000000000001b0 .L0 
     /tmp/ccnlBL9w.s:389    .text:00000000000001ec .L0 
     /tmp/ccnlBL9w.s:486    .text:000000000000025c .L0 
     /tmp/ccnlBL9w.s:971    .text:00000000000004a0 .L0 
     /tmp/ccnlBL9w.s:1265   .text:00000000000005fc .L0 
     /tmp/ccnlBL9w.s:1403   .text:00000000000006a4 .L0 
     /tmp/ccnlBL9w.s:1408   .text:00000000000006b0 .L0 
     /tmp/ccnlBL9w.s:1475   .text:0000000000000718 .L0 
GAS LISTING /tmp/ccnlBL9w.s 			page 136


     /tmp/ccnlBL9w.s:1480   .text:0000000000000724 .L0 
     /tmp/ccnlBL9w.s:1763   .text:00000000000008a8 .L0 
     /tmp/ccnlBL9w.s:1988   .text:0000000000000998 .L0 
     /tmp/ccnlBL9w.s:2025   .text:00000000000009c4 .L0 
     /tmp/ccnlBL9w.s:2052   .text:00000000000009e0 .L0 
     /tmp/ccnlBL9w.s:2059   .text:00000000000009f4 .L0 
     /tmp/ccnlBL9w.s:2344   .text:0000000000000b60 .L0 
     /tmp/ccnlBL9w.s:2350   .text:0000000000000b70 .L0 
     /tmp/ccnlBL9w.s:2382   .text:0000000000000bc0 .L0 
     /tmp/ccnlBL9w.s:2387   .text:0000000000000bd0 .L0 
     /tmp/ccnlBL9w.s:2392   .text:0000000000000be0 .L0 
     /tmp/ccnlBL9w.s:2628   .text:0000000000000cc4 .L0 
     /tmp/ccnlBL9w.s:2569   .rodata.str1.8:0000000000000038 .LC3
     /tmp/ccnlBL9w.s:2689   .text:0000000000000d24 .L0 
     /tmp/ccnlBL9w.s:2572   .rodata.str1.8:0000000000000048 .LC4
     /tmp/ccnlBL9w.s:2694   .text:0000000000000d34 .L0 
     /tmp/ccnlBL9w.s:2560   .rodata.str1.8:0000000000000000 .LC0
     /tmp/ccnlBL9w.s:2725   .text:0000000000000d64 .L0 
     /tmp/ccnlBL9w.s:2563   .rodata.str1.8:0000000000000008 .LC1
     /tmp/ccnlBL9w.s:2751   .text:0000000000000d8c .L0 
     /tmp/ccnlBL9w.s:2757   .text:0000000000000da0 .L0 
     /tmp/ccnlBL9w.s:2575   .rodata.str1.8:0000000000000058 .LC5
     /tmp/ccnlBL9w.s:2759   .text:0000000000000dac .L0 
     /tmp/ccnlBL9w.s:2764   .text:0000000000000dbc .L0 
     /tmp/ccnlBL9w.s:2578   .rodata.str1.8:0000000000000060 .LC6
     /tmp/ccnlBL9w.s:2773   .text:0000000000000dd0 .L0 
     /tmp/ccnlBL9w.s:2825   .text:0000000000000e00 .L0 
     /tmp/ccnlBL9w.s:2856   .rodata:0000000000000000 .L142
     /tmp/ccnlBL9w.s:2848   .text:0000000000000e2c .L0 
     /tmp/ccnlBL9w.s:2966   .text:0000000000000e4c .L0 
     /tmp/ccnlBL9w.s:3159   .text:0000000000000f48 .L0 
     /tmp/ccnlBL9w.s:3226   .text:0000000000000f80 .L0 
     /tmp/ccnlBL9w.s:3236   .text:0000000000000f9c .L0 
     /tmp/ccnlBL9w.s:3243   .text:0000000000000fb0 .L0 
     /tmp/ccnlBL9w.s:3289   .text:0000000000000fd8 .L0 
     /tmp/ccnlBL9w.s:3344   .text:0000000000001008 .L0 
     /tmp/ccnlBL9w.s:3377   .text:0000000000001028 .L0 
     /tmp/ccnlBL9w.s:3401   .text:0000000000001044 .L0 
     /tmp/ccnlBL9w.s:3456   .text:000000000000107c .L0 
     /tmp/ccnlBL9w.s:3472   .text:0000000000001094 .L0 
     /tmp/ccnlBL9w.s:3481   .text:00000000000010a8 .L0 
     /tmp/ccnlBL9w.s:3507   .text:00000000000010d0 .L0 
     /tmp/ccnlBL9w.s:2566   .rodata.str1.8:0000000000000010 .LC2
     /tmp/ccnlBL9w.s:3512   .text:00000000000010e0 .L0 
     /tmp/ccnlBL9w.s:3624   .text:000000000000118c .L0 
     /tmp/ccnlBL9w.s:3631   .text:00000000000011a4 .L0 
     /tmp/ccnlBL9w.s:3639   .text:00000000000011c0 .L0 
     /tmp/ccnlBL9w.s:3695   .text:000000000000122c .L0 
     /tmp/ccnlBL9w.s:3699   .text:0000000000001238 .L0 
     /tmp/ccnlBL9w.s:3703   .text:0000000000001248 .L0 
     /tmp/ccnlBL9w.s:3710   .text:0000000000001258 .L0 
     /tmp/ccnlBL9w.s:3719   .text:0000000000001278 .L0 
     /tmp/ccnlBL9w.s:3728   .text:0000000000001298 .L0 
     /tmp/ccnlBL9w.s:3737   .text:00000000000012b8 .L0 
     /tmp/ccnlBL9w.s:3755   .text:00000000000012f4 .L0 
     /tmp/ccnlBL9w.s:3829   .text:000000000000136c .L0 
     /tmp/ccnlBL9w.s:3833   .text:0000000000001378 .L0 
GAS LISTING /tmp/ccnlBL9w.s 			page 137


     /tmp/ccnlBL9w.s:3837   .text:0000000000001388 .L0 
     /tmp/ccnlBL9w.s:3844   .text:0000000000001398 .L0 
     /tmp/ccnlBL9w.s:3853   .text:00000000000013b8 .L0 
     /tmp/ccnlBL9w.s:3862   .text:00000000000013d8 .L0 
     /tmp/ccnlBL9w.s:3871   .text:00000000000013f8 .L0 
     /tmp/ccnlBL9w.s:3889   .text:0000000000001434 .L0 
     /tmp/ccnlBL9w.s:3952   .text:0000000000001494 .L0 
     /tmp/ccnlBL9w.s:3968   .text:00000000000014a0 .L0 
     /tmp/ccnlBL9w.s:4007   .text:00000000000014fc .L0 
     /tmp/ccnlBL9w.s:70     .text:0000000000000050 .L5
     /tmp/ccnlBL9w.s:54     .text:0000000000000040 .L3
     /tmp/ccnlBL9w.s:149    .text:00000000000000c4 .L9
     /tmp/ccnlBL9w.s:222    .text:000000000000011c .L15
     /tmp/ccnlBL9w.s:211    .text:0000000000000110 .L11
     /tmp/ccnlBL9w.s:332    .text:0000000000000190 .L17
     /tmp/ccnlBL9w.s:313    .text:000000000000016c .L18
     /tmp/ccnlBL9w.s:353    .text:00000000000001cc .L16
     /tmp/ccnlBL9w.s:339    .text:00000000000001a4 .L20
     /tmp/ccnlBL9w.s:514    .text:000000000000028c .L30
     /tmp/ccnlBL9w.s:491    .text:0000000000000270 .L27
     /tmp/ccnlBL9w.s:605    .text:00000000000002fc .L32
     /tmp/ccnlBL9w.s:666    .text:000000000000034c .L36
     /tmp/ccnlBL9w.s:621    .text:0000000000000314 .L34
     /tmp/ccnlBL9w.s:627    .text:000000000000031c .L33
     /tmp/ccnlBL9w.s:783    .text:00000000000003d0 .L41
     /tmp/ccnlBL9w.s:837    .text:0000000000000414 .L44
     /tmp/ccnlBL9w.s:798    .text:00000000000003e4 .L42
     /tmp/ccnlBL9w.s:931    .text:0000000000000470 .L52
     /tmp/ccnlBL9w.s:908    .text:0000000000000454 .L49
     /tmp/ccnlBL9w.s:1014   .text:00000000000004e0 .L55
     /tmp/ccnlBL9w.s:990    .text:00000000000004c4 .L54
     /tmp/ccnlBL9w.s:1077   .text:000000000000052c .L58
     /tmp/ccnlBL9w.s:1119   .text:0000000000000560 .L61
     /tmp/ccnlBL9w.s:1086   .text:0000000000000538 .L59
     /tmp/ccnlBL9w.s:1218   .text:00000000000005c4 .L69
     /tmp/ccnlBL9w.s:1191   .text:00000000000005a4 .L66
     /tmp/ccnlBL9w.s:1296   .text:0000000000000630 .L75
     /tmp/ccnlBL9w.s:1304   .text:000000000000063c .L73
     /tmp/ccnlBL9w.s:1262   .text:00000000000005fc .L71
     /tmp/ccnlBL9w.s:1272   .text:0000000000000614 .L72
     /tmp/ccnlBL9w.s:1364   .text:000000000000067c .L80
     /tmp/ccnlBL9w.s:1341   .text:0000000000000660 .L77
     /tmp/ccnlBL9w.s:1484   .text:0000000000000738 .L84
     /tmp/ccnlBL9w.s:1523   .text:0000000000000774 .L88
     /tmp/ccnlBL9w.s:1538   .text:0000000000000790 .L89
     /tmp/ccnlBL9w.s:1498   .text:0000000000000754 .L86
     /tmp/ccnlBL9w.s:1646   .text:0000000000000810 .L95
     /tmp/ccnlBL9w.s:1618   .text:00000000000007ec .L93
     /tmp/ccnlBL9w.s:1722   .text:0000000000000878 .L99
     /tmp/ccnlBL9w.s:1694   .text:0000000000000854 .L97
     /tmp/ccnlBL9w.s:1821   .text:0000000000000904 .L105
     /tmp/ccnlBL9w.s:1825   .text:0000000000000908 .L103
     /tmp/ccnlBL9w.s:1861   .text:0000000000000920 .L102
     /tmp/ccnlBL9w.s:1981   .text:0000000000000998 .L112
     /tmp/ccnlBL9w.s:1974   .text:0000000000000990 .L113
     /tmp/ccnlBL9w.s:2109   .text:0000000000000a40 .L116
     /tmp/ccnlBL9w.s:2094   .text:0000000000000a24 .L118
GAS LISTING /tmp/ccnlBL9w.s 			page 138


     /tmp/ccnlBL9w.s:2262   .text:0000000000000af8 .L126
     /tmp/ccnlBL9w.s:2285   .text:0000000000000b14 .L127
     /tmp/ccnlBL9w.s:2203   .text:0000000000000aa8 .L122
     /tmp/ccnlBL9w.s:2224   .text:0000000000000ac0 .L124
     /tmp/ccnlBL9w.s:2374   .text:0000000000000bbc .L129
     /tmp/ccnlBL9w.s:2511   .text:0000000000000c78 .L132
     /tmp/ccnlBL9w.s:2481   .text:0000000000000c54 .L130
     /tmp/ccnlBL9w.s:2781   .text:0000000000000dec .L137
     /tmp/ccnlBL9w.s:3171   .text:0000000000000f68 .L167
     /tmp/ccnlBL9w.s:3303   .text:0000000000000ff8 .L168
     /tmp/ccnlBL9w.s:3464   .text:0000000000001094 .L169
     /tmp/ccnlBL9w.s:2996   .text:0000000000000e68 .L160
     /tmp/ccnlBL9w.s:2963   .text:0000000000000e4c .L140
     /tmp/ccnlBL9w.s:3282   .text:0000000000000fd8 .L170
     /tmp/ccnlBL9w.s:3248   .text:0000000000000fc4 .L161
     /tmp/ccnlBL9w.s:3407   .text:0000000000001054 .L163
     /tmp/ccnlBL9w.s:3448   .text:0000000000001078 .L171
     /tmp/ccnlBL9w.s:3576   .text:0000000000001150 .L172
     /tmp/ccnlBL9w.s:3558   .text:000000000000112c .L174
     /tmp/ccnlBL9w.s:590    .text:00000000000002d4 .LEHB0
     /tmp/ccnlBL9w.s:537    .text:000000000000029c .LFB52
     /tmp/ccnlBL9w.s:593    .text:00000000000002dc .LEHE0
     /tmp/ccnlBL9w.s:601    .text:00000000000002f4 .LEHB1
     /tmp/ccnlBL9w.s:604    .text:00000000000002fc .LEHE1
     /tmp/ccnlBL9w.s:672    .text:0000000000000354 .L37
     /tmp/ccnlBL9w.s:617    .text:000000000000030c .LEHB2
     /tmp/ccnlBL9w.s:620    .text:0000000000000314 .LEHE2
     /tmp/ccnlBL9w.s:680    .text:0000000000000368 .LEHB3
     /tmp/ccnlBL9w.s:683    .text:0000000000000370 .LEHE3
     /tmp/ccnlBL9w.s:768    .text:00000000000003a8 .LEHB4
     /tmp/ccnlBL9w.s:715    .text:0000000000000370 .LFB53
     /tmp/ccnlBL9w.s:771    .text:00000000000003b0 .LEHE4
     /tmp/ccnlBL9w.s:779    .text:00000000000003c8 .LEHB5
     /tmp/ccnlBL9w.s:782    .text:00000000000003d0 .LEHE5
     /tmp/ccnlBL9w.s:843    .text:000000000000041c .L45
     /tmp/ccnlBL9w.s:851    .text:0000000000000430 .LEHB6
     /tmp/ccnlBL9w.s:854    .text:0000000000000438 .LEHE6
     /tmp/ccnlBL9w.s:1065   .text:0000000000000510 .LEHB7
     /tmp/ccnlBL9w.s:1028   .text:00000000000004e8 .LFB57
     /tmp/ccnlBL9w.s:1068   .text:0000000000000518 .LEHE7
     /tmp/ccnlBL9w.s:1073   .text:0000000000000524 .LEHB8
     /tmp/ccnlBL9w.s:1076   .text:000000000000052c .LEHE8
     /tmp/ccnlBL9w.s:1125   .text:0000000000000568 .L62
     /tmp/ccnlBL9w.s:1133   .text:000000000000057c .LEHB9
     /tmp/ccnlBL9w.s:1136   .text:0000000000000584 .LEHE9
     /tmp/ccnlBL9w.s:2335   .text:0000000000000b4c .LEHB10
     /tmp/ccnlBL9w.s:2315   .text:0000000000000b30 .LFB71
     /tmp/ccnlBL9w.s:2362   .text:0000000000000b9c .LEHE10
     /tmp/ccnlBL9w.s:2370   .text:0000000000000bb4 .LEHB11
     /tmp/ccnlBL9w.s:2373   .text:0000000000000bbc .LEHE11
     /tmp/ccnlBL9w.s:2519   .text:0000000000000c80 .L133
     /tmp/ccnlBL9w.s:2476   .text:0000000000000c4c .LEHB12
     /tmp/ccnlBL9w.s:2479   .text:0000000000000c54 .LEHE12
     /tmp/ccnlBL9w.s:2528   .text:0000000000000c94 .LEHB13
     /tmp/ccnlBL9w.s:2531   .text:0000000000000c9c .LEHE13
     /tmp/ccnlBL9w.s:2956   .text:0000000000000e44 .L159
     /tmp/ccnlBL9w.s:3019   .text:0000000000000e84 .L158
GAS LISTING /tmp/ccnlBL9w.s 			page 139


     /tmp/ccnlBL9w.s:3030   .text:0000000000000e90 .L157
     /tmp/ccnlBL9w.s:3038   .text:0000000000000e9c .L156
     /tmp/ccnlBL9w.s:3046   .text:0000000000000ea8 .L155
     /tmp/ccnlBL9w.s:3054   .text:0000000000000eb4 .L154
     /tmp/ccnlBL9w.s:3062   .text:0000000000000ec0 .L153
     /tmp/ccnlBL9w.s:3070   .text:0000000000000ecc .L152
     /tmp/ccnlBL9w.s:3078   .text:0000000000000ed8 .L151
     /tmp/ccnlBL9w.s:3086   .text:0000000000000ee4 .L150
     /tmp/ccnlBL9w.s:3094   .text:0000000000000ef0 .L149
     /tmp/ccnlBL9w.s:3102   .text:0000000000000efc .L148
     /tmp/ccnlBL9w.s:3110   .text:0000000000000f08 .L147
     /tmp/ccnlBL9w.s:3118   .text:0000000000000f14 .L146
     /tmp/ccnlBL9w.s:3126   .text:0000000000000f20 .L145
     /tmp/ccnlBL9w.s:3134   .text:0000000000000f2c .L144
     /tmp/ccnlBL9w.s:3142   .text:0000000000000f38 .L143
     /tmp/ccnlBL9w.s:3150   .text:0000000000000f44 .L141
     /tmp/ccnlBL9w.s:9226   .debug_abbrev:0000000000000000 .Ldebug_abbrev0
     /tmp/ccnlBL9w.s:12784  .debug_str:0000000000001720 .LASF380
     /tmp/ccnlBL9w.s:12482  .debug_str:0000000000000d47 .LASF381
     /tmp/ccnlBL9w.s:12704  .debug_str:0000000000001429 .LASF382
     /tmp/ccnlBL9w.s:5      .text:0000000000000000 .Ltext0
     /tmp/ccnlBL9w.s:4125   .text:0000000000001548 .Letext0
     /tmp/ccnlBL9w.s:12068  .debug_line:0000000000000000 .Ldebug_line0
     /tmp/ccnlBL9w.s:12126  .debug_str:00000000000001f4 .LASF0
     /tmp/ccnlBL9w.s:12780  .debug_str:0000000000001705 .LASF1
     /tmp/ccnlBL9w.s:12712  .debug_str:0000000000001491 .LASF2
     /tmp/ccnlBL9w.s:12652  .debug_str:0000000000001296 .LASF4
     /tmp/ccnlBL9w.s:12670  .debug_str:0000000000001328 .LASF3
     /tmp/ccnlBL9w.s:12284  .debug_str:0000000000000692 .LASF5
     /tmp/ccnlBL9w.s:12354  .debug_str:00000000000008e5 .LASF6
     /tmp/ccnlBL9w.s:12566  .debug_str:0000000000000ff8 .LASF7
     /tmp/ccnlBL9w.s:12168  .debug_str:0000000000000320 .LASF8
     /tmp/ccnlBL9w.s:12764  .debug_str:000000000000164f .LASF9
     /tmp/ccnlBL9w.s:12288  .debug_str:00000000000006a4 .LASF10
     /tmp/ccnlBL9w.s:12208  .debug_str:000000000000043a .LASF11
     /tmp/ccnlBL9w.s:12388  .debug_str:00000000000009fa .LASF12
     /tmp/ccnlBL9w.s:12300  .debug_str:0000000000000705 .LASF13
     /tmp/ccnlBL9w.s:12628  .debug_str:00000000000011fd .LASF14
     /tmp/ccnlBL9w.s:12306  .debug_str:0000000000000726 .LASF15
     /tmp/ccnlBL9w.s:12252  .debug_str:00000000000005ba .LASF16
     /tmp/ccnlBL9w.s:12178  .debug_str:000000000000035c .LASF153
     /tmp/ccnlBL9w.s:12360  .debug_str:000000000000092e .LASF20
     /tmp/ccnlBL9w.s:12760  .debug_str:0000000000001630 .LASF17
     /tmp/ccnlBL9w.s:12118  .debug_str:0000000000000183 .LASF18
     /tmp/ccnlBL9w.s:12322  .debug_str:00000000000007bc .LASF19
     /tmp/ccnlBL9w.s:12316  .debug_str:0000000000000780 .LASF21
     /tmp/ccnlBL9w.s:12272  .debug_str:000000000000064a .LASF22
     /tmp/ccnlBL9w.s:12582  .debug_str:0000000000001086 .LASF23
     /tmp/ccnlBL9w.s:12634  .debug_str:0000000000001225 .LASF24
     /tmp/ccnlBL9w.s:12116  .debug_str:0000000000000178 .LASF25
     /tmp/ccnlBL9w.s:12186  .debug_str:000000000000038e .LASF26
     /tmp/ccnlBL9w.s:12706  .debug_str:000000000000145a .LASF27
     /tmp/ccnlBL9w.s:12258  .debug_str:00000000000005fb .LASF28
     /tmp/ccnlBL9w.s:12678  .debug_str:0000000000001358 .LASF29
     /tmp/ccnlBL9w.s:12556  .debug_str:0000000000000fc3 .LASF30
     /tmp/ccnlBL9w.s:12480  .debug_str:0000000000000d23 .LASF32
     /tmp/ccnlBL9w.s:12344  .debug_str:0000000000000889 .LASF31
GAS LISTING /tmp/ccnlBL9w.s 			page 140


     /tmp/ccnlBL9w.s:12768  .debug_str:0000000000001662 .LASF33
     /tmp/ccnlBL9w.s:12166  .debug_str:0000000000000305 .LASF34
     /tmp/ccnlBL9w.s:12374  .debug_str:0000000000000985 .LASF35
     /tmp/ccnlBL9w.s:12230  .debug_str:00000000000004cc .LASF36
     /tmp/ccnlBL9w.s:12710  .debug_str:000000000000146b .LASF37
     /tmp/ccnlBL9w.s:12498  .debug_str:0000000000000dd2 .LASF38
     /tmp/ccnlBL9w.s:12534  .debug_str:0000000000000f1c .LASF39
     /tmp/ccnlBL9w.s:12120  .debug_str:0000000000000190 .LASF40
     /tmp/ccnlBL9w.s:12320  .debug_str:0000000000000790 .LASF41
     /tmp/ccnlBL9w.s:12336  .debug_str:000000000000084c .LASF42
     /tmp/ccnlBL9w.s:12728  .debug_str:00000000000014f9 .LASF43
     /tmp/ccnlBL9w.s:12518  .debug_str:0000000000000e51 .LASF44
     /tmp/ccnlBL9w.s:12250  .debug_str:0000000000000597 .LASF45
     /tmp/ccnlBL9w.s:12234  .debug_str:00000000000004ec .LASF46
     /tmp/ccnlBL9w.s:12736  .debug_str:000000000000155a .LASF47
     /tmp/ccnlBL9w.s:12810  .debug_str:0000000000001892 .LASF48
     /tmp/ccnlBL9w.s:12524  .debug_str:0000000000000ea5 .LASF49
     /tmp/ccnlBL9w.s:12152  .debug_str:0000000000000297 .LASF50
     /tmp/ccnlBL9w.s:12522  .debug_str:0000000000000e80 .LASF51
     /tmp/ccnlBL9w.s:12734  .debug_str:0000000000001542 .LASF52
     /tmp/ccnlBL9w.s:12326  .debug_str:00000000000007ef .LASF53
     /tmp/ccnlBL9w.s:12184  .debug_str:000000000000037b .LASF54
     /tmp/ccnlBL9w.s:12408  .debug_str:0000000000000a98 .LASF55
     /tmp/ccnlBL9w.s:12358  .debug_str:000000000000091b .LASF56
     /tmp/ccnlBL9w.s:12436  .debug_str:0000000000000baa .LASF57
     /tmp/ccnlBL9w.s:12090  .debug_str:0000000000000090 .LASF58
     /tmp/ccnlBL9w.s:12772  .debug_str:00000000000016a3 .LASF59
     /tmp/ccnlBL9w.s:12808  .debug_str:0000000000001879 .LASF60
     /tmp/ccnlBL9w.s:12294  .debug_str:00000000000006c9 .LASF61
     /tmp/ccnlBL9w.s:12312  .debug_str:0000000000000757 .LASF62
     /tmp/ccnlBL9w.s:12492  .debug_str:0000000000000d8e .LASF63
     /tmp/ccnlBL9w.s:12070  .debug_str:0000000000000000 .LASF64
     /tmp/ccnlBL9w.s:12660  .debug_str:00000000000012d7 .LASF65
     /tmp/ccnlBL9w.s:12750  .debug_str:00000000000015fb .LASF66
     /tmp/ccnlBL9w.s:12642  .debug_str:0000000000001241 .LASF68
     /tmp/ccnlBL9w.s:12588  .debug_str:00000000000010bc .LASF67
     /tmp/ccnlBL9w.s:12474  .debug_str:0000000000000ce8 .LASF69
     /tmp/ccnlBL9w.s:12108  .debug_str:0000000000000133 .LASF70
     /tmp/ccnlBL9w.s:12580  .debug_str:000000000000106a .LASF71
     /tmp/ccnlBL9w.s:12700  .debug_str:000000000000140d .LASF72
     /tmp/ccnlBL9w.s:12092  .debug_str:00000000000000a7 .LASF73
     /tmp/ccnlBL9w.s:12812  .debug_str:00000000000018a8 .LASF76
     /tmp/ccnlBL9w.s:12602  .debug_str:0000000000001145 .LASF78
     /tmp/ccnlBL9w.s:12608  .debug_str:000000000000117a .LASF74
     /tmp/ccnlBL9w.s:12732  .debug_str:000000000000152d .LASF75
     /tmp/ccnlBL9w.s:12226  .debug_str:00000000000004b5 .LASF77
     /tmp/ccnlBL9w.s:12650  .debug_str:0000000000001283 .LASF79
     /tmp/ccnlBL9w.s:12278  .debug_str:0000000000000662 .LASF80
     /tmp/ccnlBL9w.s:12442  .debug_str:0000000000000bd8 .LASF81
     /tmp/ccnlBL9w.s:12782  .debug_str:0000000000001718 .LASF82
     /tmp/ccnlBL9w.s:12280  .debug_str:0000000000000669 .LASF83
     /tmp/ccnlBL9w.s:12618  .debug_str:00000000000011bb .LASF84
     /tmp/ccnlBL9w.s:12624  .debug_str:00000000000011da .LASF85
     /tmp/ccnlBL9w.s:12296  .debug_str:00000000000006ef .LASF86
     /tmp/ccnlBL9w.s:12472  .debug_str:0000000000000cd2 .LASF87
     /tmp/ccnlBL9w.s:12264  .debug_str:000000000000062d .LASF88
     /tmp/ccnlBL9w.s:12536  .debug_str:0000000000000f46 .LASF89
GAS LISTING /tmp/ccnlBL9w.s 			page 141


     /tmp/ccnlBL9w.s:12456  .debug_str:0000000000000c38 .LASF90
     /tmp/ccnlBL9w.s:12830  .debug_str:000000000000191d .LASF91
     /tmp/ccnlBL9w.s:12156  .debug_str:00000000000002b8 .LASF92
     /tmp/ccnlBL9w.s:12656  .debug_str:00000000000012b5 .LASF93
     /tmp/ccnlBL9w.s:12724  .debug_str:00000000000014df .LASF94
     /tmp/ccnlBL9w.s:12248  .debug_str:0000000000000584 .LASF95
     /tmp/ccnlBL9w.s:12270  .debug_str:0000000000000643 .LASF96
     /tmp/ccnlBL9w.s:12308  .debug_str:000000000000073c .LASF97
     /tmp/ccnlBL9w.s:12714  .debug_str:000000000000149f .LASF98
     /tmp/ccnlBL9w.s:12164  .debug_str:00000000000002f2 .LASF99
     /tmp/ccnlBL9w.s:12350  .debug_str:00000000000008c2 .LASF100
     /tmp/ccnlBL9w.s:12826  .debug_str:00000000000018f1 .LASF101
     /tmp/ccnlBL9w.s:12314  .debug_str:0000000000000773 .LASF102
     /tmp/ccnlBL9w.s:12468  .debug_str:0000000000000c98 .LASF104
     /tmp/ccnlBL9w.s:12104  .debug_str:000000000000011b .LASF103
     /tmp/ccnlBL9w.s:12202  .debug_str:000000000000040f .LASF105
     /tmp/ccnlBL9w.s:12198  .debug_str:00000000000003fb .LASF106
     /tmp/ccnlBL9w.s:12698  .debug_str:00000000000013f3 .LASF107
     /tmp/ccnlBL9w.s:12718  .debug_str:00000000000014b3 .LASF108
     /tmp/ccnlBL9w.s:12842  .debug_str:000000000000198c .LASF109
     /tmp/ccnlBL9w.s:12406  .debug_str:0000000000000a86 .LASF110
     /tmp/ccnlBL9w.s:12396  .debug_str:0000000000000a2e .LASF111
     /tmp/ccnlBL9w.s:12428  .debug_str:0000000000000b67 .LASF112
     /tmp/ccnlBL9w.s:12346  .debug_str:000000000000089f .LASF113
     /tmp/ccnlBL9w.s:12770  .debug_str:0000000000001685 .LASF114
     /tmp/ccnlBL9w.s:12192  .debug_str:00000000000003b2 .LASF115
     /tmp/ccnlBL9w.s:12568  .debug_str:000000000000100b .LASF116
     /tmp/ccnlBL9w.s:12546  .debug_str:0000000000000f86 .LASF117
     /tmp/ccnlBL9w.s:12298  .debug_str:00000000000006f9 .LASF118
     /tmp/ccnlBL9w.s:12520  .debug_str:0000000000000e67 .LASF119
     /tmp/ccnlBL9w.s:12540  .debug_str:0000000000000f65 .LASF120
     /tmp/ccnlBL9w.s:12454  .debug_str:0000000000000c26 .LASF121
     /tmp/ccnlBL9w.s:12596  .debug_str:000000000000110b .LASF122
     /tmp/ccnlBL9w.s:12352  .debug_str:00000000000008c9 .LASF123
     /tmp/ccnlBL9w.s:12134  .debug_str:0000000000000212 .LASF124
     /tmp/ccnlBL9w.s:12418  .debug_str:0000000000000af4 .LASF125
     /tmp/ccnlBL9w.s:12846  .debug_str:00000000000019bc .LASF126
     /tmp/ccnlBL9w.s:12742  .debug_str:00000000000015a7 .LASF127
     /tmp/ccnlBL9w.s:12832  .debug_str:0000000000001935 .LASF128
     /tmp/ccnlBL9w.s:12692  .debug_str:00000000000013b9 .LASF129
     /tmp/ccnlBL9w.s:12828  .debug_str:0000000000001904 .LASF130
     /tmp/ccnlBL9w.s:12532  .debug_str:0000000000000ef6 .LASF131
     /tmp/ccnlBL9w.s:12086  .debug_str:0000000000000060 .LASF132
     /tmp/ccnlBL9w.s:12324  .debug_str:00000000000007c8 .LASF133
     /tmp/ccnlBL9w.s:12246  .debug_str:000000000000056e .LASF134
     /tmp/ccnlBL9w.s:12774  .debug_str:00000000000016c7 .LASF135
     /tmp/ccnlBL9w.s:12150  .debug_str:0000000000000280 .LASF136
     /tmp/ccnlBL9w.s:12788  .debug_str:00000000000017f7 .LASF137
     /tmp/ccnlBL9w.s:12140  .debug_str:000000000000023d .LASF138
     /tmp/ccnlBL9w.s:12738  .debug_str:000000000000157e .LASF139
     /tmp/ccnlBL9w.s:12286  .debug_str:0000000000000699 .LASF140
     /tmp/ccnlBL9w.s:12654  .debug_str:000000000000129d .LASF141
     /tmp/ccnlBL9w.s:12740  .debug_str:000000000000159e .LASF142
     /tmp/ccnlBL9w.s:12570  .debug_str:0000000000001016 .LASF143
     /tmp/ccnlBL9w.s:12392  .debug_str:0000000000000a13 .LASF144
     /tmp/ccnlBL9w.s:12806  .debug_str:0000000000001866 .LASF145
     /tmp/ccnlBL9w.s:12340  .debug_str:0000000000000876 .LASF146
GAS LISTING /tmp/ccnlBL9w.s 			page 142


     /tmp/ccnlBL9w.s:12424  .debug_str:0000000000000b43 .LASF147
     /tmp/ccnlBL9w.s:12452  .debug_str:0000000000000c17 .LASF148
     /tmp/ccnlBL9w.s:12586  .debug_str:00000000000010a0 .LASF149
     /tmp/ccnlBL9w.s:12632  .debug_str:0000000000001218 .LASF150
     /tmp/ccnlBL9w.s:12412  .debug_str:0000000000000acb .LASF151
     /tmp/ccnlBL9w.s:12394  .debug_str:0000000000000a1a .LASF254
     /tmp/ccnlBL9w.s:12112  .debug_str:0000000000000149 .LASF256
     /tmp/ccnlBL9w.s:12438  .debug_str:0000000000000bca .LASF152
     /tmp/ccnlBL9w.s:12554  .debug_str:0000000000000fbb .LASF213
     /tmp/ccnlBL9w.s:12132  .debug_str:000000000000020b .LASF154
     /tmp/ccnlBL9w.s:12310  .debug_str:000000000000074f .LASF155
     /tmp/ccnlBL9w.s:12434  .debug_str:0000000000000ba4 .LASF156
     /tmp/ccnlBL9w.s:12420  .debug_str:0000000000000b16 .LASF157
     /tmp/ccnlBL9w.s:12640  .debug_str:0000000000001239 .LASF158
     /tmp/ccnlBL9w.s:12560  .debug_str:0000000000000fe4 .LASF159
     /tmp/ccnlBL9w.s:12172  .debug_str:000000000000034d .LASF160
     /tmp/ccnlBL9w.s:12690  .debug_str:00000000000013ae .LASF161
     /tmp/ccnlBL9w.s:12074  .debug_str:0000000000000018 .LASF162
     /tmp/ccnlBL9w.s:12216  .debug_str:000000000000047b .LASF163
     /tmp/ccnlBL9w.s:12766  .debug_str:000000000000165d .LASF164
     /tmp/ccnlBL9w.s:12792  .debug_str:0000000000001828 .LASF165
     /tmp/ccnlBL9w.s:12486  .debug_str:0000000000000d64 .LASF166
     /tmp/ccnlBL9w.s:12722  .debug_str:00000000000014d7 .LASF167
     /tmp/ccnlBL9w.s:12162  .debug_str:00000000000002df .LASF168
     /tmp/ccnlBL9w.s:12514  .debug_str:0000000000000e3a .LASF169
     /tmp/ccnlBL9w.s:12330  .debug_str:0000000000000826 .LASF170
     /tmp/ccnlBL9w.s:12508  .debug_str:0000000000000e20 .LASF171
     /tmp/ccnlBL9w.s:12148  .debug_str:0000000000000273 .LASF172
     /tmp/ccnlBL9w.s:12318  .debug_str:000000000000078b .LASF173
     /tmp/ccnlBL9w.s:12676  .debug_str:0000000000001349 .LASF174
     /tmp/ccnlBL9w.s:12400  .debug_str:0000000000000a5d .LASF175
     /tmp/ccnlBL9w.s:12494  .debug_str:0000000000000db7 .LASF176
     /tmp/ccnlBL9w.s:12696  .debug_str:00000000000013dd .LASF177
     /tmp/ccnlBL9w.s:12144  .debug_str:0000000000000269 .LASF178
     /tmp/ccnlBL9w.s:12548  .debug_str:0000000000000f9e .LASF179
     /tmp/ccnlBL9w.s:12220  .debug_str:0000000000000498 .LASF180
     /tmp/ccnlBL9w.s:12228  .debug_str:00000000000004bc .LASF181
     /tmp/ccnlBL9w.s:12292  .debug_str:00000000000006bf .LASF182
     /tmp/ccnlBL9w.s:12160  .debug_str:00000000000002d5 .LASF183
     /tmp/ccnlBL9w.s:12756  .debug_str:000000000000161c .LASF184
     /tmp/ccnlBL9w.s:12244  .debug_str:0000000000000546 .LASF185
     /tmp/ccnlBL9w.s:12098  .debug_str:00000000000000fb .LASF186
     /tmp/ccnlBL9w.s:12612  .debug_str:0000000000001189 .LASF187
     /tmp/ccnlBL9w.s:12496  .debug_str:0000000000000dca .LASF188
     /tmp/ccnlBL9w.s:12382  .debug_str:00000000000009c8 .LASF189
     /tmp/ccnlBL9w.s:12174  .debug_str:0000000000000352 .LASF190
     /tmp/ccnlBL9w.s:12694  .debug_str:00000000000013d8 .LASF191
     /tmp/ccnlBL9w.s:12512  .debug_str:0000000000000e35 .LASF192
     /tmp/ccnlBL9w.s:12648  .debug_str:000000000000127d .LASF193
     /tmp/ccnlBL9w.s:12100  .debug_str:0000000000000107 .LASF194
     /tmp/ccnlBL9w.s:12276  .debug_str:000000000000065d .LASF195
     /tmp/ccnlBL9w.s:12484  .debug_str:0000000000000d5c .LASF196
     /tmp/ccnlBL9w.s:12130  .debug_str:0000000000000206 .LASF197
     /tmp/ccnlBL9w.s:12122  .debug_str:00000000000001af .LASF198
     /tmp/ccnlBL9w.s:12432  .debug_str:0000000000000b9b .LASF199
     /tmp/ccnlBL9w.s:12702  .debug_str:0000000000001420 .LASF200
     /tmp/ccnlBL9w.s:12504  .debug_str:0000000000000e10 .LASF201
GAS LISTING /tmp/ccnlBL9w.s 			page 143


     /tmp/ccnlBL9w.s:12804  .debug_str:000000000000185e .LASF202
     /tmp/ccnlBL9w.s:12818  .debug_str:00000000000018c3 .LASF203
     /tmp/ccnlBL9w.s:12720  .debug_str:00000000000014c6 .LASF204
     /tmp/ccnlBL9w.s:12796  .debug_str:0000000000001837 .LASF205
     /tmp/ccnlBL9w.s:12348  .debug_str:00000000000008bd .LASF206
     /tmp/ccnlBL9w.s:12686  .debug_str:0000000000001390 .LASF207
     /tmp/ccnlBL9w.s:12822  .debug_str:00000000000018dc .LASF208
     /tmp/ccnlBL9w.s:12222  .debug_str:000000000000049d .LASF209
     /tmp/ccnlBL9w.s:12078  .debug_str:0000000000000034 .LASF210
     /tmp/ccnlBL9w.s:12820  .debug_str:00000000000018ce .LASF211
     /tmp/ccnlBL9w.s:12384  .debug_str:00000000000009cf .LASF212
     /tmp/ccnlBL9w.s:12254  .debug_str:00000000000005d0 .LASF214
     /tmp/ccnlBL9w.s:12212  .debug_str:000000000000046c .LASF215
     /tmp/ccnlBL9w.s:12176  .debug_str:0000000000000357 .LASF216
     /tmp/ccnlBL9w.s:12802  .debug_str:0000000000001852 .LASF217
     /tmp/ccnlBL9w.s:12708  .debug_str:000000000000145f .LASF218
     /tmp/ccnlBL9w.s:12114  .debug_str:000000000000016b .LASF219
     /tmp/ccnlBL9w.s:12790  .debug_str:000000000000181b .LASF220
     /tmp/ccnlBL9w.s:12302  .debug_str:0000000000000715 .LASF221
     /tmp/ccnlBL9w.s:12746  .debug_str:00000000000015d6 .LASF222
     /tmp/ccnlBL9w.s:12376  .debug_str:00000000000009ad .LASF223
     /tmp/ccnlBL9w.s:12594  .debug_str:00000000000010ed .LASF224
     /tmp/ccnlBL9w.s:12836  .debug_str:0000000000001953 .LASF225
     /tmp/ccnlBL9w.s:12124  .debug_str:00000000000001b9 .LASF226
     /tmp/ccnlBL9w.s:12430  .debug_str:0000000000000b78 .LASF227
     /tmp/ccnlBL9w.s:12800  .debug_str:0000000000001847 .LASF228
     /tmp/ccnlBL9w.s:12210  .debug_str:0000000000000449 .LASF229
     /tmp/ccnlBL9w.s:12786  .debug_str:00000000000017f0 .LASF230
     /tmp/ccnlBL9w.s:12356  .debug_str:00000000000008f8 .LASF231
     /tmp/ccnlBL9w.s:12680  .debug_str:0000000000001369 .LASF232
     /tmp/ccnlBL9w.s:12758  .debug_str:000000000000162a .LASF383
     /tmp/ccnlBL9w.s:12402  .debug_str:0000000000000a66 .LASF233
     /tmp/ccnlBL9w.s:12552  .debug_str:0000000000000fb5 .LASF237
     /tmp/ccnlBL9w.s:12158  .debug_str:00000000000002c3 .LASF239
     /tmp/ccnlBL9w.s:12726  .debug_str:00000000000014e6 .LASF234
     /tmp/ccnlBL9w.s:12368  .debug_str:0000000000000961 .LASF235
     /tmp/ccnlBL9w.s:12088  .debug_str:000000000000007a .LASF236
     /tmp/ccnlBL9w.s:12136  .debug_str:0000000000000227 .LASF238
     /tmp/ccnlBL9w.s:12488  .debug_str:0000000000000d70 .LASF240
     /tmp/ccnlBL9w.s:12282  .debug_str:000000000000067d .LASF241
     /tmp/ccnlBL9w.s:12242  .debug_str:0000000000000535 .LASF242
     /tmp/ccnlBL9w.s:12584  .debug_str:000000000000108f .LASF243
     /tmp/ccnlBL9w.s:12798  .debug_str:0000000000001840 .LASF384
     /tmp/ccnlBL9w.s:12146  .debug_str:000000000000026e .LASF244
     /tmp/ccnlBL9w.s:12266  .debug_str:0000000000000637 .LASF245
     /tmp/ccnlBL9w.s:12616  .debug_str:00000000000011b6 .LASF246
     /tmp/ccnlBL9w.s:12180  .debug_str:0000000000000362 .LASF247
     /tmp/ccnlBL9w.s:12268  .debug_str:000000000000063c .LASF248
     /tmp/ccnlBL9w.s:12410  .debug_str:0000000000000ab8 .LASF249
     /tmp/ccnlBL9w.s:12218  .debug_str:0000000000000492 .LASF250
     /tmp/ccnlBL9w.s:12578  .debug_str:000000000000104c .LASF251
     /tmp/ccnlBL9w.s:12232  .debug_str:00000000000004e5 .LASF252
     /tmp/ccnlBL9w.s:12614  .debug_str:00000000000011a1 .LASF253
     /tmp/ccnlBL9w.s:12390  .debug_str:0000000000000a0a .LASF255
     /tmp/ccnlBL9w.s:12544  .debug_str:0000000000000f71 .LASF257
     /tmp/ccnlBL9w.s:12834  .debug_str:0000000000001947 .LASF258
     /tmp/ccnlBL9w.s:12238  .debug_str:000000000000051d .LASF259
GAS LISTING /tmp/ccnlBL9w.s 			page 144


     /tmp/ccnlBL9w.s:12666  .debug_str:0000000000001311 .LASF260
     /tmp/ccnlBL9w.s:12516  .debug_str:0000000000000e47 .LASF261
     /tmp/ccnlBL9w.s:12440  .debug_str:0000000000000bcf .LASF262
     /tmp/ccnlBL9w.s:12084  .debug_str:0000000000000055 .LASF263
     /tmp/ccnlBL9w.s:12240  .debug_str:0000000000000529 .LASF264
     /tmp/ccnlBL9w.s:12716  .debug_str:00000000000014a6 .LASF265
     /tmp/ccnlBL9w.s:12102  .debug_str:0000000000000111 .LASF266
     /tmp/ccnlBL9w.s:12664  .debug_str:0000000000001307 .LASF267
     /tmp/ccnlBL9w.s:12668  .debug_str:000000000000131d .LASF268
     /tmp/ccnlBL9w.s:12106  .debug_str:0000000000000128 .LASF269
     /tmp/ccnlBL9w.s:12754  .debug_str:0000000000001613 .LASF270
     /tmp/ccnlBL9w.s:12646  .debug_str:0000000000001261 .LASF271
     /tmp/ccnlBL9w.s:12574  .debug_str:0000000000001037 .LASF272
     /tmp/ccnlBL9w.s:12094  .debug_str:00000000000000c7 .LASF273
     /tmp/ccnlBL9w.s:12460  .debug_str:0000000000000c4c .LASF274
     /tmp/ccnlBL9w.s:12170  .debug_str:0000000000000330 .LASF275
     /tmp/ccnlBL9w.s:12138  .debug_str:0000000000000233 .LASF276
     /tmp/ccnlBL9w.s:12840  .debug_str:000000000000196f .LASF277
     /tmp/ccnlBL9w.s:12462  .debug_str:0000000000000c56 .LASF278
     /tmp/ccnlBL9w.s:12662  .debug_str:00000000000012f7 .LASF279
     /tmp/ccnlBL9w.s:12422  .debug_str:0000000000000b1f .LASF280
     /tmp/ccnlBL9w.s:12154  .debug_str:00000000000002af .LASF281
     /tmp/ccnlBL9w.s:12600  .debug_str:0000000000001127 .LASF282
     /tmp/ccnlBL9w.s:12572  .debug_str:000000000000102b .LASF283
     /tmp/ccnlBL9w.s:12528  .debug_str:0000000000000ecf .LASF284
     /tmp/ccnlBL9w.s:12404  .debug_str:0000000000000a80 .LASF285
     /tmp/ccnlBL9w.s:12470  .debug_str:0000000000000cb2 .LASF286
     /tmp/ccnlBL9w.s:12458  .debug_str:0000000000000c43 .LASF287
     /tmp/ccnlBL9w.s:12290  .debug_str:00000000000006b3 .LASF288
     /tmp/ccnlBL9w.s:12204  .debug_str:0000000000000429 .LASF289
     /tmp/ccnlBL9w.s:12366  .debug_str:0000000000000955 .LASF290
     /tmp/ccnlBL9w.s:12450  .debug_str:0000000000000c12 .LASF291
     /tmp/ccnlBL9w.s:12082  .debug_str:0000000000000049 .LASF292
     /tmp/ccnlBL9w.s:12490  .debug_str:0000000000000d89 .LASF293
     /tmp/ccnlBL9w.s:12844  .debug_str:00000000000019ad .LASF294
     /tmp/ccnlBL9w.s:12110  .debug_str:0000000000000142 .LASF295
     /tmp/ccnlBL9w.s:12744  .debug_str:00000000000015c5 .LASF296
     /tmp/ccnlBL9w.s:12610  .debug_str:0000000000001183 .LASF297
     /tmp/ccnlBL9w.s:12444  .debug_str:0000000000000beb .LASF298
     /tmp/ccnlBL9w.s:12182  .debug_str:0000000000000373 .LASF299
     /tmp/ccnlBL9w.s:12328  .debug_str:0000000000000814 .LASF300
     /tmp/ccnlBL9w.s:12630  .debug_str:0000000000001209 .LASF301
     /tmp/ccnlBL9w.s:12386  .debug_str:00000000000009df .LASF302
     /tmp/ccnlBL9w.s:12500  .debug_str:0000000000000def .LASF303
     /tmp/ccnlBL9w.s:12778  .debug_str:00000000000016f5 .LASF304
     /tmp/ccnlBL9w.s:12398  .debug_str:0000000000000a4d .LASF305
     /tmp/ccnlBL9w.s:12576  .debug_str:0000000000001040 .LASF306
     /tmp/ccnlBL9w.s:12598  .debug_str:000000000000111a .LASF307
     /tmp/ccnlBL9w.s:12372  .debug_str:0000000000000978 .LASF308
     /tmp/ccnlBL9w.s:12644  .debug_str:000000000000125b .LASF309
     /tmp/ccnlBL9w.s:12636  .debug_str:000000000000122e .LASF310
     /tmp/ccnlBL9w.s:12502  .debug_str:0000000000000e05 .LASF311
     /tmp/ccnlBL9w.s:12080  .debug_str:0000000000000040 .LASF312
     /tmp/ccnlBL9w.s:12364  .debug_str:000000000000094d .LASF313
     /tmp/ccnlBL9w.s:12674  .debug_str:000000000000133f .LASF314
     /tmp/ccnlBL9w.s:12752  .debug_str:0000000000001607 .LASF315
     /tmp/ccnlBL9w.s:12622  .debug_str:00000000000011d1 .LASF316
GAS LISTING /tmp/ccnlBL9w.s 			page 145


     /tmp/ccnlBL9w.s:12416  .debug_str:0000000000000aef .LASF317
     /tmp/ccnlBL9w.s:12448  .debug_str:0000000000000c0b .LASF318
     /tmp/ccnlBL9w.s:12606  .debug_str:0000000000001168 .LASF320
     /tmp/ccnlBL9w.s:12592  .debug_str:00000000000010e5 .LASF319
     /tmp/ccnlBL9w.s:12762  .debug_str:000000000000163c .LASF321
     /tmp/ccnlBL9w.s:12626  .debug_str:00000000000011ee .LASF322
     /tmp/ccnlBL9w.s:12362  .debug_str:000000000000093d .LASF323
     /tmp/ccnlBL9w.s:12558  .debug_str:0000000000000fda .LASF324
     /tmp/ccnlBL9w.s:12838  .debug_str:0000000000001962 .LASF325
     /tmp/ccnlBL9w.s:12550  .debug_str:0000000000000fae .LASF326
     /tmp/ccnlBL9w.s:12214  .debug_str:0000000000000471 .LASF327
     /tmp/ccnlBL9w.s:12794  .debug_str:000000000000182d .LASF328
     /tmp/ccnlBL9w.s:12684  .debug_str:0000000000001386 .LASF329
     /tmp/ccnlBL9w.s:12370  .debug_str:000000000000096b .LASF330
     /tmp/ccnlBL9w.s:12590  .debug_str:00000000000010cd .LASF385
     /tmp/ccnlBL9w.s:12332  .debug_str:0000000000000832 .LASF386
     /tmp/ccnlBL9w.s:12748  .debug_str:00000000000015f5 .LASF331
     /tmp/ccnlBL9w.s:12236  .debug_str:0000000000000503 .LASF332
     /tmp/ccnlBL9w.s:12334  .debug_str:0000000000000846 .LASF333
     /tmp/ccnlBL9w.s:12688  .debug_str:0000000000001398 .LASF334
     /tmp/ccnlBL9w.s:12142  .debug_str:000000000000024d .LASF335
     /tmp/ccnlBL9w.s:12620  .debug_str:00000000000011c3 .LASF336
     /tmp/ccnlBL9w.s:12256  .debug_str:00000000000005dc .LASF337
     /tmp/ccnlBL9w.s:12730  .debug_str:0000000000001520 .LASF338
     /tmp/ccnlBL9w.s:12262  .debug_str:000000000000060f .LASF339
     /tmp/ccnlBL9w.s:12682  .debug_str:000000000000136f .LASF340
     /tmp/ccnlBL9w.s:12466  .debug_str:0000000000000c7b .LASF343
     /tmp/ccnlBL9w.s:12076  .debug_str:0000000000000024 .LASF341
     /tmp/ccnlBL9w.s:12446  .debug_str:0000000000000bfb .LASF342
     /tmp/ccnlBL9w.s:12194  .debug_str:00000000000003dd .LASF344
     /tmp/ccnlBL9w.s:3606   .text:0000000000001170 .LFB81
     /tmp/ccnlBL9w.s:3665   .text:0000000000001204 .LFE81
     /tmp/ccnlBL9w.s:10661  .debug_loc:0000000000000000 .LLST99
     /tmp/ccnlBL9w.s:3627   .text:00000000000011a0 .LVL287
     /tmp/ccnlBL9w.s:3635   .text:00000000000011bc .LVL288
     /tmp/ccnlBL9w.s:3643   .text:00000000000011d8 .LVL289
     /tmp/ccnlBL9w.s:3651   .text:00000000000011f0 .LVL290
     /tmp/ccnlBL9w.s:2127   .text:0000000000000a50 .LFB80
     /tmp/ccnlBL9w.s:2309   .text:0000000000000b30 .LFE80
     /tmp/ccnlBL9w.s:10679  .debug_loc:000000000000004c .LLST58
     /tmp/ccnlBL9w.s:12530  .debug_str:0000000000000ef1 .LASF345
     /tmp/ccnlBL9w.s:10704  .debug_loc:00000000000000ae .LLST59
     /tmp/ccnlBL9w.s:12476  .debug_str:0000000000000d14 .LASF346
     /tmp/ccnlBL9w.s:10729  .debug_loc:0000000000000110 .LLST60
     /tmp/ccnlBL9w.s:12658  .debug_str:00000000000012cd .LASF347
     /tmp/ccnlBL9w.s:10755  .debug_loc:0000000000000182 .LLST61
     /tmp/ccnlBL9w.s:12274  .debug_str:0000000000000653 .LASF348
     /tmp/ccnlBL9w.s:10808  .debug_loc:0000000000000213 .LLST62
     /tmp/ccnlBL9w.s:12414  .debug_str:0000000000000ae5 .LASF349
     /tmp/ccnlBL9w.s:10843  .debug_loc:0000000000000281 .LLST63
     /tmp/ccnlBL9w.s:12538  .debug_str:0000000000000f5c .LASF350
     /tmp/ccnlBL9w.s:10866  .debug_loc:00000000000002d3 .LLST64
     /tmp/ccnlBL9w.s:12128  .debug_str:0000000000000201 .LASF351
     /tmp/ccnlBL9w.s:10877  .debug_loc:0000000000000309 .LLST65
     /tmp/ccnlBL9w.s:12562  .debug_str:0000000000000fe9 .LASF352
     /tmp/ccnlBL9w.s:10898  .debug_loc:0000000000000367 .LLST66
     /tmp/ccnlBL9w.s:12510  .debug_str:0000000000000e30 .LASF353
GAS LISTING /tmp/ccnlBL9w.s 			page 146


     /tmp/ccnlBL9w.s:10914  .debug_loc:00000000000003b1 .LLST67
     /tmp/ccnlBL9w.s:12426  .debug_str:0000000000000b61 .LASF354
     /tmp/ccnlBL9w.s:10935  .debug_loc:000000000000040f .LLST68
     /tmp/ccnlBL9w.s:2265   .text:0000000000000af8 .LBB137
     /tmp/ccnlBL9w.s:2282   .text:0000000000000b10 .LBE137
     /tmp/ccnlBL9w.s:10951  .debug_loc:000000000000044a .LLST72
     /tmp/ccnlBL9w.s:2269   .text:0000000000000b00 .LVL177
     /tmp/ccnlBL9w.s:2288   .text:0000000000000b14 .LBB139
     /tmp/ccnlBL9w.s:2305   .text:0000000000000b2c .LBE139
     /tmp/ccnlBL9w.s:10966  .debug_loc:0000000000000484 .LLST73
     /tmp/ccnlBL9w.s:2292   .text:0000000000000b1c .LVL181
     /tmp/ccnlBL9w.s:2152   .text:0000000000000a78 .LBB130
     /tmp/ccnlBL9w.s:2161   .text:0000000000000a80 .LBE130
     /tmp/ccnlBL9w.s:10981  .debug_loc:00000000000004be .LLST69
     /tmp/ccnlBL9w.s:2163   .text:0000000000000a80 .LBB132
     /tmp/ccnlBL9w.s:2172   .text:0000000000000a88 .LBE132
     /tmp/ccnlBL9w.s:10988  .debug_loc:00000000000004e1 .LLST70
     /tmp/ccnlBL9w.s:2174   .text:0000000000000a88 .LBB134
     /tmp/ccnlBL9w.s:2183   .text:0000000000000a90 .LBE134
     /tmp/ccnlBL9w.s:10995  .debug_loc:0000000000000504 .LLST71
     /tmp/ccnlBL9w.s:2072   .text:0000000000000a04 .LFB79
     /tmp/ccnlBL9w.s:2121   .text:0000000000000a50 .LFE79
     /tmp/ccnlBL9w.s:2090   .text:0000000000000a20 .LBB129
     /tmp/ccnlBL9w.s:2110   .text:0000000000000a40 .LBE129
     /tmp/ccnlBL9w.s:11002  .debug_loc:0000000000000527 .LLST57
     /tmp/ccnlBL9w.s:2087   .text:0000000000000a20 .LVL155
     /tmp/ccnlBL9w.s:3805   .text:0000000000001344 .LFB78
     /tmp/ccnlBL9w.s:3933   .text:0000000000001484 .LFE78
     /tmp/ccnlBL9w.s:12672  .debug_str:000000000000133a .LASF355
     /tmp/ccnlBL9w.s:11018  .debug_loc:0000000000000571 .LLST102
     /tmp/ccnlBL9w.s:3901   .text:000000000000145c .LBB209
     /tmp/ccnlBL9w.s:3913   .text:0000000000001464 .LBE209
     /tmp/ccnlBL9w.s:11025  .debug_loc:0000000000000594 .LLST103
     /tmp/ccnlBL9w.s:3827   .text:000000000000136c .LVL303
     /tmp/ccnlBL9w.s:3850   .text:00000000000013b8 .LVL305
     /tmp/ccnlBL9w.s:3859   .text:00000000000013d8 .LVL306
     /tmp/ccnlBL9w.s:3868   .text:00000000000013f8 .LVL307
     /tmp/ccnlBL9w.s:3877   .text:0000000000001418 .LVL308
     /tmp/ccnlBL9w.s:3885   .text:0000000000001430 .LVL309
     /tmp/ccnlBL9w.s:3894   .text:0000000000001450 .LVL310
     /tmp/ccnlBL9w.s:3899   .text:000000000000145c .LVL311
     /tmp/ccnlBL9w.s:3671   .text:0000000000001204 .LFB77
     /tmp/ccnlBL9w.s:3799   .text:0000000000001344 .LFE77
     /tmp/ccnlBL9w.s:11035  .debug_loc:00000000000005ba .LLST100
     /tmp/ccnlBL9w.s:3767   .text:000000000000131c .LBB207
     /tmp/ccnlBL9w.s:3779   .text:0000000000001324 .LBE207
     /tmp/ccnlBL9w.s:11042  .debug_loc:00000000000005dd .LLST101
     /tmp/ccnlBL9w.s:3693   .text:000000000000122c .LVL292
     /tmp/ccnlBL9w.s:3716   .text:0000000000001278 .LVL294
     /tmp/ccnlBL9w.s:3725   .text:0000000000001298 .LVL295
     /tmp/ccnlBL9w.s:3734   .text:00000000000012b8 .LVL296
     /tmp/ccnlBL9w.s:3743   .text:00000000000012d8 .LVL297
     /tmp/ccnlBL9w.s:3751   .text:00000000000012f0 .LVL298
     /tmp/ccnlBL9w.s:3760   .text:0000000000001310 .LVL299
     /tmp/ccnlBL9w.s:3765   .text:000000000000131c .LVL300
     /tmp/ccnlBL9w.s:3532   .text:00000000000010fc .LFB76
     /tmp/ccnlBL9w.s:3600   .text:0000000000001170 .LFE76
GAS LISTING /tmp/ccnlBL9w.s 			page 147


     /tmp/ccnlBL9w.s:11052  .debug_loc:0000000000000603 .LLST94
     /tmp/ccnlBL9w.s:12638  .debug_str:0000000000001233 .LASF356
     /tmp/ccnlBL9w.s:11070  .debug_loc:000000000000064f .LLST95
     /tmp/ccnlBL9w.s:11084  .debug_loc:0000000000000688 .LLST96
     /tmp/ccnlBL9w.s:11102  .debug_loc:00000000000006d4 .LLST97
     /tmp/ccnlBL9w.s:3559   .text:000000000000112c .LBB206
     /tmp/ccnlBL9w.s:3577   .text:0000000000001150 .LBE206
     /tmp/ccnlBL9w.s:11120  .debug_loc:0000000000000720 .LLST98
     /tmp/ccnlBL9w.s:3568   .text:0000000000001144 .LVL280
     /tmp/ccnlBL9w.s:1925   .text:000000000000095c .LFB75
     /tmp/ccnlBL9w.s:1954   .text:000000000000097c .LFE75
     /tmp/ccnlBL9w.s:1887   .text:000000000000093c .LFB74
     /tmp/ccnlBL9w.s:1919   .text:000000000000095c .LFE74
     /tmp/ccnlBL9w.s:1779   .text:00000000000008c0 .LFB73
     /tmp/ccnlBL9w.s:1881   .text:000000000000093c .LFE73
     /tmp/ccnlBL9w.s:12378  .debug_str:00000000000009b3 .LASF357
     /tmp/ccnlBL9w.s:11127  .debug_loc:0000000000000743 .LLST47
     /tmp/ccnlBL9w.s:12604  .debug_str:000000000000115a .LASF358
     /tmp/ccnlBL9w.s:11153  .debug_loc:00000000000007b5 .LLST48
     /tmp/ccnlBL9w.s:11171  .debug_loc:0000000000000801 .LLST49
     /tmp/ccnlBL9w.s:12260  .debug_str:0000000000000607 .LASF359
     /tmp/ccnlBL9w.s:11197  .debug_loc:0000000000000873 .LLST50
     /tmp/ccnlBL9w.s:12304  .debug_str:000000000000071d .LASF360
     /tmp/ccnlBL9w.s:11223  .debug_loc:00000000000008e5 .LLST51
     /tmp/ccnlBL9w.s:12206  .debug_str:0000000000000435 .LASF361
     /tmp/ccnlBL9w.s:11241  .debug_loc:0000000000000931 .LLST52
     /tmp/ccnlBL9w.s:12824  .debug_str:00000000000018ea .LASF362
     /tmp/ccnlBL9w.s:11267  .debug_loc:00000000000009a3 .LLST53
     /tmp/ccnlBL9w.s:1812   .text:00000000000008f8 .LVL138
     /tmp/ccnlBL9w.s:1740   .text:0000000000000894 .LFB72
     /tmp/ccnlBL9w.s:1773   .text:00000000000008c0 .LFE72
     /tmp/ccnlBL9w.s:11288  .debug_loc:0000000000000a01 .LLST46
     /tmp/ccnlBL9w.s:2533   .text:0000000000000c9c .LFE71
     /tmp/ccnlBL9w.s:11301  .debug_loc:0000000000000a39 .LLST74
     /tmp/ccnlBL9w.s:12200  .debug_str:0000000000000408 .LASF363
     /tmp/ccnlBL9w.s:11320  .debug_loc:0000000000000a95 .LLST75
     /tmp/ccnlBL9w.s:11331  .debug_loc:0000000000000acb .LLST76
     /tmp/ccnlBL9w.s:2379   .text:0000000000000bc0 .LBB143
     /tmp/ccnlBL9w.s:2482   .text:0000000000000c54 .LBE143
     /tmp/ccnlBL9w.s:12190  .debug_str:00000000000003a2 .LASF364
     /tmp/ccnlBL9w.s:11348  .debug_loc:0000000000000b16 .LLST77
     /tmp/ccnlBL9w.s:2478   .text:0000000000000c54 .LVL192
     /tmp/ccnlBL9w.s:2337   .text:0000000000000b54 .LVL184
     /tmp/ccnlBL9w.s:2347   .text:0000000000000b70 .LVL187
     /tmp/ccnlBL9w.s:2356   .text:0000000000000b90 .LVL188
     /tmp/ccnlBL9w.s:2361   .text:0000000000000b9c .LVL189
     /tmp/ccnlBL9w.s:2372   .text:0000000000000bbc .LVL190
     /tmp/ccnlBL9w.s:2494   .text:0000000000000c60 .LVL193
     /tmp/ccnlBL9w.s:2526   .text:0000000000000c90 .LVL199
     /tmp/ccnlBL9w.s:2530   .text:0000000000000c9c .LVL200
     /tmp/ccnlBL9w.s:1669   .text:0000000000000838 .LFB70
     /tmp/ccnlBL9w.s:1734   .text:0000000000000894 .LFE70
     /tmp/ccnlBL9w.s:12542  .debug_str:0000000000000f6b .LASF365
     /tmp/ccnlBL9w.s:11355  .debug_loc:0000000000000b39 .LLST43
     /tmp/ccnlBL9w.s:11366  .debug_loc:0000000000000b6f .LLST44
     /tmp/ccnlBL9w.s:1707   .text:0000000000000864 .LVL128
     /tmp/ccnlBL9w.s:1728   .text:0000000000000884 .LVL131
GAS LISTING /tmp/ccnlBL9w.s 			page 148


     /tmp/ccnlBL9w.s:1731   .text:0000000000000890 .LVL132
     /tmp/ccnlBL9w.s:1593   .text:00000000000007d0 .LFB69
     /tmp/ccnlBL9w.s:1663   .text:0000000000000838 .LFE69
     /tmp/ccnlBL9w.s:11375  .debug_loc:0000000000000b94 .LLST40
     /tmp/ccnlBL9w.s:11386  .debug_loc:0000000000000bca .LLST41
     /tmp/ccnlBL9w.s:1631   .text:00000000000007fc .LVL120
     /tmp/ccnlBL9w.s:1652   .text:000000000000081c .LVL123
     /tmp/ccnlBL9w.s:1657   .text:0000000000000828 .LVL124
     /tmp/ccnlBL9w.s:1660   .text:0000000000000834 .LVL125
     /tmp/ccnlBL9w.s:370    .text:00000000000001dc .LFB68
     /tmp/ccnlBL9w.s:416    .text:0000000000000214 .LFE68
     /tmp/ccnlBL9w.s:247    .text:0000000000000128 .LFB67
     /tmp/ccnlBL9w.s:364    .text:00000000000001dc .LFE67
     /tmp/ccnlBL9w.s:271    .text:000000000000015c .LBB109
     /tmp/ccnlBL9w.s:12032  .debug_ranges:0000000000000000 .Ldebug_ranges0
     /tmp/ccnlBL9w.s:280    .text:000000000000015c .LBB111
     /tmp/ccnlBL9w.s:294    .text:0000000000000164 .LBE111
     /tmp/ccnlBL9w.s:281    .text:000000000000015c .LBB112
     /tmp/ccnlBL9w.s:293    .text:0000000000000164 .LBE112
     /tmp/ccnlBL9w.s:11395  .debug_loc:0000000000000bef .LLST3
     /tmp/ccnlBL9w.s:301    .text:0000000000000164 .LBB114
     /tmp/ccnlBL9w.s:316    .text:000000000000016c .LBE114
     /tmp/ccnlBL9w.s:302    .text:0000000000000164 .LBB115
     /tmp/ccnlBL9w.s:315    .text:000000000000016c .LBE115
     /tmp/ccnlBL9w.s:11403  .debug_loc:0000000000000c13 .LLST4
     /tmp/ccnlBL9w.s:338    .text:00000000000001a4 .LVL10
     /tmp/ccnlBL9w.s:350    .text:00000000000001c8 .LVL11
     /tmp/ccnlBL9w.s:180    .text:00000000000000e4 .LFB66
     /tmp/ccnlBL9w.s:241    .text:0000000000000128 .LFE66
     /tmp/ccnlBL9w.s:199    .text:0000000000000108 .LBB105
     /tmp/ccnlBL9w.s:213    .text:0000000000000110 .LBE105
     /tmp/ccnlBL9w.s:11412  .debug_loc:0000000000000c39 .LLST2
     /tmp/ccnlBL9w.s:226    .text:000000000000011c .LBB107
     /tmp/ccnlBL9w.s:239    .text:0000000000000128 .LBE107
     /tmp/ccnlBL9w.s:1551   .text:000000000000079c .LFB65
     /tmp/ccnlBL9w.s:1587   .text:00000000000007d0 .LFE65
     /tmp/ccnlBL9w.s:11421  .debug_loc:0000000000000c5f .LLST39
     /tmp/ccnlBL9w.s:1565   .text:00000000000007b4 .LVL116
     /tmp/ccnlBL9w.s:1576   .text:00000000000007c0 .LVL117
     /tmp/ccnlBL9w.s:1960   .text:000000000000097c .LFB64
     /tmp/ccnlBL9w.s:2066   .text:0000000000000a04 .LFE64
     /tmp/ccnlBL9w.s:11428  .debug_loc:0000000000000c82 .LLST54
     /tmp/ccnlBL9w.s:11442  .debug_loc:0000000000000cbb .LLST55
     /tmp/ccnlBL9w.s:2016   .text:00000000000009b8 .LBB126
     /tmp/ccnlBL9w.s:2062   .text:0000000000000a04 .LBE126
     /tmp/ccnlBL9w.s:12506  .debug_str:0000000000000e1b .LASF366
     /tmp/ccnlBL9w.s:11449  .debug_loc:0000000000000cde .LLST56
     /tmp/ccnlBL9w.s:2020   .text:00000000000009c0 .LVL152
     /tmp/ccnlBL9w.s:1980   .text:0000000000000998 .LVL148
     /tmp/ccnlBL9w.s:127    .text:0000000000000094 .LFB63
     /tmp/ccnlBL9w.s:174    .text:00000000000000e4 .LFE63
     /tmp/ccnlBL9w.s:11456  .debug_loc:0000000000000d01 .LLST1
     /tmp/ccnlBL9w.s:163    .text:00000000000000d4 .LVL3
     /tmp/ccnlBL9w.s:1460   .text:0000000000000704 .LFB62
     /tmp/ccnlBL9w.s:1545   .text:000000000000079c .LFE62
     /tmp/ccnlBL9w.s:11463  .debug_loc:0000000000000d24 .LLST38
     /tmp/ccnlBL9w.s:1488   .text:0000000000000740 .LVL106
GAS LISTING /tmp/ccnlBL9w.s 			page 149


     /tmp/ccnlBL9w.s:1509   .text:0000000000000760 .LVL109
     /tmp/ccnlBL9w.s:1530   .text:0000000000000780 .LVL112
     /tmp/ccnlBL9w.s:1535   .text:000000000000078c .LVL113
     /tmp/ccnlBL9w.s:1542   .text:0000000000000798 .LVL115
     /tmp/ccnlBL9w.s:1380   .text:000000000000068c .LFB61
     /tmp/ccnlBL9w.s:1454   .text:0000000000000704 .LFE61
     /tmp/ccnlBL9w.s:12196  .debug_str:00000000000003f5 .LASF367
     /tmp/ccnlBL9w.s:11478  .debug_loc:0000000000000d6d .LLST37
     /tmp/ccnlBL9w.s:1419   .text:00000000000006d0 .LVL102
     /tmp/ccnlBL9w.s:1427   .text:00000000000006e0 .LVL103
     /tmp/ccnlBL9w.s:1440   .text:00000000000006f0 .LVL104
     /tmp/ccnlBL9w.s:1315   .text:0000000000000644 .LFB60
     /tmp/ccnlBL9w.s:1374   .text:000000000000068c .LFE60
     /tmp/ccnlBL9w.s:11485  .debug_loc:0000000000000d90 .LLST35
     /tmp/ccnlBL9w.s:11496  .debug_loc:0000000000000dc6 .LLST36
     /tmp/ccnlBL9w.s:1352   .text:000000000000066c .LVL98
     /tmp/ccnlBL9w.s:1369   .text:0000000000000684 .LVL100
     /tmp/ccnlBL9w.s:1238   .text:00000000000005e4 .LFB59
     /tmp/ccnlBL9w.s:1309   .text:0000000000000644 .LFE59
     /tmp/ccnlBL9w.s:11513  .debug_loc:0000000000000e11 .LLST33
     /tmp/ccnlBL9w.s:11524  .debug_loc:0000000000000e47 .LLST34
     /tmp/ccnlBL9w.s:1284   .text:0000000000000620 .LVL92
     /tmp/ccnlBL9w.s:1301   .text:0000000000000638 .LVL94
     /tmp/ccnlBL9w.s:1163   .text:0000000000000584 .LFB58
     /tmp/ccnlBL9w.s:1232   .text:00000000000005e4 .LFE58
     /tmp/ccnlBL9w.s:11541  .debug_loc:0000000000000e92 .LLST30
     /tmp/ccnlBL9w.s:11552  .debug_loc:0000000000000ec8 .LLST32
     /tmp/ccnlBL9w.s:1203   .text:00000000000005b0 .LVL84
     /tmp/ccnlBL9w.s:1224   .text:00000000000005d0 .LVL87
     /tmp/ccnlBL9w.s:1227   .text:00000000000005dc .LVL88
     /tmp/ccnlBL9w.s:1138   .text:0000000000000584 .LFE57
     /tmp/ccnlBL9w.s:11569  .debug_loc:0000000000000f13 .LLST26
     /tmp/ccnlBL9w.s:12464  .debug_str:0000000000000c75 .LASF368
     /tmp/ccnlBL9w.s:11580  .debug_loc:0000000000000f49 .LLST27
     /tmp/ccnlBL9w.s:11591  .debug_loc:0000000000000f7f .LLST28
     /tmp/ccnlBL9w.s:11602  .debug_loc:0000000000000fb5 .LLST29
     /tmp/ccnlBL9w.s:1067   .text:0000000000000518 .LVL70
     /tmp/ccnlBL9w.s:1075   .text:000000000000052c .LVL71
     /tmp/ccnlBL9w.s:1098   .text:0000000000000544 .LVL73
     /tmp/ccnlBL9w.s:1131   .text:0000000000000578 .LVL80
     /tmp/ccnlBL9w.s:1135   .text:0000000000000584 .LVL81
     /tmp/ccnlBL9w.s:87     .text:0000000000000058 .LFB56
     /tmp/ccnlBL9w.s:121    .text:0000000000000094 .LFE56
     /tmp/ccnlBL9w.s:11619  .debug_loc:0000000000001000 .LLST0
     /tmp/ccnlBL9w.s:110    .text:0000000000000084 .LVL1
     /tmp/ccnlBL9w.s:955    .text:0000000000000490 .LFB55
     /tmp/ccnlBL9w.s:1022   .text:00000000000004e8 .LFE55
     /tmp/ccnlBL9w.s:11626  .debug_loc:0000000000001023 .LLST24
     /tmp/ccnlBL9w.s:975    .text:00000000000004b0 .LBB122
     /tmp/ccnlBL9w.s:986    .text:00000000000004c0 .LBE122
     /tmp/ccnlBL9w.s:11643  .debug_loc:000000000000106e .LLST25
     /tmp/ccnlBL9w.s:985    .text:00000000000004c0 .LVL64
     /tmp/ccnlBL9w.s:1002   .text:00000000000004d0 .LVL66
     /tmp/ccnlBL9w.s:881    .text:0000000000000438 .LFB54
     /tmp/ccnlBL9w.s:949    .text:0000000000000490 .LFE54
     /tmp/ccnlBL9w.s:11650  .debug_loc:0000000000001091 .LLST21
     /tmp/ccnlBL9w.s:11661  .debug_loc:00000000000010c7 .LLST23
GAS LISTING /tmp/ccnlBL9w.s 			page 150


     /tmp/ccnlBL9w.s:919    .text:0000000000000460 .LVL58
     /tmp/ccnlBL9w.s:940    .text:0000000000000480 .LVL60
     /tmp/ccnlBL9w.s:944    .text:0000000000000488 .LVL61
     /tmp/ccnlBL9w.s:856    .text:0000000000000438 .LFE53
     /tmp/ccnlBL9w.s:11678  .debug_loc:0000000000001112 .LLST15
     /tmp/ccnlBL9w.s:12342  .debug_str:0000000000000883 .LASF369
     /tmp/ccnlBL9w.s:11689  .debug_loc:0000000000001148 .LLST16
     /tmp/ccnlBL9w.s:11700  .debug_loc:000000000000117e .LLST17
     /tmp/ccnlBL9w.s:11711  .debug_loc:00000000000011b4 .LLST18
     /tmp/ccnlBL9w.s:11722  .debug_loc:00000000000011ea .LLST19
     /tmp/ccnlBL9w.s:11733  .debug_loc:0000000000001220 .LLST20
     /tmp/ccnlBL9w.s:770    .text:00000000000003b0 .LVL42
     /tmp/ccnlBL9w.s:781    .text:00000000000003d0 .LVL43
     /tmp/ccnlBL9w.s:810    .text:00000000000003f0 .LVL45
     /tmp/ccnlBL9w.s:849    .text:000000000000042c .LVL54
     /tmp/ccnlBL9w.s:853    .text:0000000000000438 .LVL55
     /tmp/ccnlBL9w.s:685    .text:0000000000000370 .LFE52
     /tmp/ccnlBL9w.s:11750  .debug_loc:000000000000126b .LLST9
     /tmp/ccnlBL9w.s:11761  .debug_loc:00000000000012a1 .LLST10
     /tmp/ccnlBL9w.s:11772  .debug_loc:00000000000012d7 .LLST11
     /tmp/ccnlBL9w.s:11783  .debug_loc:000000000000130d .LLST12
     /tmp/ccnlBL9w.s:11794  .debug_loc:0000000000001343 .LLST13
     /tmp/ccnlBL9w.s:11805  .debug_loc:0000000000001379 .LLST14
     /tmp/ccnlBL9w.s:592    .text:00000000000002dc .LVL23
     /tmp/ccnlBL9w.s:603    .text:00000000000002fc .LVL24
     /tmp/ccnlBL9w.s:619    .text:0000000000000314 .LVL25
     /tmp/ccnlBL9w.s:639    .text:0000000000000328 .LVL27
     /tmp/ccnlBL9w.s:678    .text:0000000000000364 .LVL36
     /tmp/ccnlBL9w.s:682    .text:0000000000000370 .LVL37
     /tmp/ccnlBL9w.s:473    .text:000000000000024c .LFB51
     /tmp/ccnlBL9w.s:531    .text:000000000000029c .LFE51
     /tmp/ccnlBL9w.s:11822  .debug_loc:00000000000013c4 .LLST7
     /tmp/ccnlBL9w.s:11829  .debug_loc:00000000000013e7 .LLST8
     /tmp/ccnlBL9w.s:503    .text:000000000000027c .LVL16
     /tmp/ccnlBL9w.s:527    .text:0000000000000298 .LVL18
     /tmp/ccnlBL9w.s:422    .text:0000000000000214 .LFB50
     /tmp/ccnlBL9w.s:467    .text:000000000000024c .LFE50
     /tmp/ccnlBL9w.s:11840  .debug_loc:000000000000141d .LLST5
     /tmp/ccnlBL9w.s:11847  .debug_loc:0000000000001440 .LLST6
     /tmp/ccnlBL9w.s:445    .text:0000000000000230 .LVL13
     /tmp/ccnlBL9w.s:456    .text:000000000000023c .LVL14
     /tmp/ccnlBL9w.s:2585   .text:0000000000000c9c .LFB49
     /tmp/ccnlBL9w.s:3526   .text:00000000000010fc .LFE49
     /tmp/ccnlBL9w.s:12814  .debug_str:00000000000018b1 .LASF370
     /tmp/ccnlBL9w.s:11854  .debug_loc:0000000000001463 .LLST78
     /tmp/ccnlBL9w.s:12526  .debug_str:0000000000000ec8 .LASF371
     /tmp/ccnlBL9w.s:12224  .debug_str:00000000000004ab .LASF372
     /tmp/ccnlBL9w.s:11865  .debug_loc:0000000000001499 .LLST91
     /tmp/ccnlBL9w.s:2788   .text:0000000000000dec .LBB192
     /tmp/ccnlBL9w.s:2801   .text:0000000000000df0 .LBE192
     /tmp/ccnlBL9w.s:2805   .text:0000000000000df4 .LBB194
     /tmp/ccnlBL9w.s:2818   .text:0000000000000df8 .LBE194
     /tmp/ccnlBL9w.s:2970   .text:0000000000000e5c .LBB196
     /tmp/ccnlBL9w.s:2981   .text:0000000000000e60 .LBE196
     /tmp/ccnlBL9w.s:11872  .debug_loc:00000000000014bc .LLST92
     /tmp/ccnlBL9w.s:2986   .text:0000000000000e64 .LBB198
     /tmp/ccnlBL9w.s:2998   .text:0000000000000e68 .LBE198
GAS LISTING /tmp/ccnlBL9w.s 			page 151


     /tmp/ccnlBL9w.s:11879  .debug_loc:00000000000014df .LLST93
     /tmp/ccnlBL9w.s:2961   .text:0000000000000e4c .LVL218
     /tmp/ccnlBL9w.s:3027   .text:0000000000000e8c .LVL226
     /tmp/ccnlBL9w.s:3035   .text:0000000000000e98 .LVL227
     /tmp/ccnlBL9w.s:3043   .text:0000000000000ea4 .LVL228
     /tmp/ccnlBL9w.s:3051   .text:0000000000000eb0 .LVL229
     /tmp/ccnlBL9w.s:3059   .text:0000000000000ebc .LVL230
     /tmp/ccnlBL9w.s:3067   .text:0000000000000ec8 .LVL231
     /tmp/ccnlBL9w.s:3075   .text:0000000000000ed4 .LVL232
     /tmp/ccnlBL9w.s:3083   .text:0000000000000ee0 .LVL233
     /tmp/ccnlBL9w.s:3091   .text:0000000000000eec .LVL234
     /tmp/ccnlBL9w.s:3099   .text:0000000000000ef8 .LVL235
     /tmp/ccnlBL9w.s:3107   .text:0000000000000f04 .LVL236
     /tmp/ccnlBL9w.s:3115   .text:0000000000000f10 .LVL237
     /tmp/ccnlBL9w.s:3123   .text:0000000000000f1c .LVL238
     /tmp/ccnlBL9w.s:3131   .text:0000000000000f28 .LVL239
     /tmp/ccnlBL9w.s:3139   .text:0000000000000f34 .LVL240
     /tmp/ccnlBL9w.s:3147   .text:0000000000000f40 .LVL241
     /tmp/ccnlBL9w.s:3164   .text:0000000000000f5c .LVL242
     /tmp/ccnlBL9w.s:3168   .text:0000000000000f64 .LVL243
     /tmp/ccnlBL9w.s:3174   .text:0000000000000f68 .LBB174
     /tmp/ccnlBL9w.s:3305   .text:0000000000000ff8 .LBE174
     /tmp/ccnlBL9w.s:3286   .text:0000000000000fd8 .LBB182
     /tmp/ccnlBL9w.s:3301   .text:0000000000000ff4 .LBE182
     /tmp/ccnlBL9w.s:11886  .debug_loc:0000000000001502 .LLST88
     /tmp/ccnlBL9w.s:3300   .text:0000000000000ff4 .LVL254
     /tmp/ccnlBL9w.s:3176   .text:0000000000000f68 .LBB175
     /tmp/ccnlBL9w.s:3189   .text:0000000000000f6c .LBE175
     /tmp/ccnlBL9w.s:3193   .text:0000000000000f70 .LBB177
     /tmp/ccnlBL9w.s:3206   .text:0000000000000f74 .LBE177
     /tmp/ccnlBL9w.s:3211   .text:0000000000000f78 .LBB179
     /tmp/ccnlBL9w.s:3223   .text:0000000000000f80 .LBE179
     /tmp/ccnlBL9w.s:11893  .debug_loc:0000000000001525 .LLST87
     /tmp/ccnlBL9w.s:3254   .text:0000000000000fc8 .LBB183
     /tmp/ccnlBL9w.s:3265   .text:0000000000000fcc .LBE183
     /tmp/ccnlBL9w.s:11901  .debug_loc:0000000000001549 .LLST89
     /tmp/ccnlBL9w.s:3270   .text:0000000000000fd0 .LBB185
     /tmp/ccnlBL9w.s:3284   .text:0000000000000fd8 .LBE185
     /tmp/ccnlBL9w.s:11908  .debug_loc:000000000000156c .LLST90
     /tmp/ccnlBL9w.s:3233   .text:0000000000000f9c .LVL248
     /tmp/ccnlBL9w.s:3307   .text:0000000000000ff8 .LBB159
     /tmp/ccnlBL9w.s:3467   .text:0000000000001094 .LBE159
     /tmp/ccnlBL9w.s:11915  .debug_loc:000000000000158f .LLST82
     /tmp/ccnlBL9w.s:11922  .debug_loc:00000000000015b2 .LLST83
     /tmp/ccnlBL9w.s:11929  .debug_loc:00000000000015d5 .LLST84
     /tmp/ccnlBL9w.s:3461   .text:0000000000001090 .LVL270
     /tmp/ccnlBL9w.s:3309   .text:0000000000000ff8 .LBB160
     /tmp/ccnlBL9w.s:3322   .text:0000000000000ffc .LBE160
     /tmp/ccnlBL9w.s:3326   .text:0000000000001000 .LBB162
     /tmp/ccnlBL9w.s:3339   .text:0000000000001004 .LBE162
     /tmp/ccnlBL9w.s:3420   .text:0000000000001068 .LBB167
     /tmp/ccnlBL9w.s:3431   .text:000000000000106c .LBE167
     /tmp/ccnlBL9w.s:11940  .debug_loc:000000000000160b .LLST85
     /tmp/ccnlBL9w.s:3436   .text:0000000000001070 .LBB169
     /tmp/ccnlBL9w.s:3450   .text:0000000000001078 .LBE169
     /tmp/ccnlBL9w.s:11947  .debug_loc:000000000000162e .LLST86
     /tmp/ccnlBL9w.s:3413   .text:000000000000105c .LVL264
GAS LISTING /tmp/ccnlBL9w.s 			page 152


     /tmp/ccnlBL9w.s:3415   .text:0000000000001064 .LVL265
     /tmp/ccnlBL9w.s:3469   .text:0000000000001094 .LBB156
     /tmp/ccnlBL9w.s:3519   .text:00000000000010f8 .LBE156
     /tmp/ccnlBL9w.s:11954  .debug_loc:0000000000001651 .LLST81
     /tmp/ccnlBL9w.s:3485   .text:00000000000010b8 .LBB157
     /tmp/ccnlBL9w.s:3497   .text:00000000000010bc .LBE157
     /tmp/ccnlBL9w.s:3483   .text:00000000000010b8 .LVL273
     /tmp/ccnlBL9w.s:3504   .text:00000000000010d0 .LVL274
     /tmp/ccnlBL9w.s:3509   .text:00000000000010e0 .LVL275
     /tmp/ccnlBL9w.s:3514   .text:00000000000010f0 .LVL276
     /tmp/ccnlBL9w.s:3518   .text:00000000000010f8 .LVL277
     /tmp/ccnlBL9w.s:2686   .text:0000000000000d24 .LBB151
     /tmp/ccnlBL9w.s:2782   .text:0000000000000dec .LBE151
     /tmp/ccnlBL9w.s:11961  .debug_loc:0000000000001674 .LLST79
     /tmp/ccnlBL9w.s:11968  .debug_loc:0000000000001697 .LLST80
     /tmp/ccnlBL9w.s:2698   .text:0000000000000d44 .LBB152
     /tmp/ccnlBL9w.s:2714   .text:0000000000000d50 .LBE152
     /tmp/ccnlBL9w.s:2729   .text:0000000000000d74 .LBB154
     /tmp/ccnlBL9w.s:2741   .text:0000000000000d78 .LBE154
     /tmp/ccnlBL9w.s:2691   .text:0000000000000d34 .LVL202
     /tmp/ccnlBL9w.s:2696   .text:0000000000000d44 .LVL203
     /tmp/ccnlBL9w.s:2722   .text:0000000000000d64 .LVL206
     /tmp/ccnlBL9w.s:2727   .text:0000000000000d74 .LVL207
     /tmp/ccnlBL9w.s:2748   .text:0000000000000d8c .LVL208
     /tmp/ccnlBL9w.s:2753   .text:0000000000000d9c .LVL209
     /tmp/ccnlBL9w.s:2761   .text:0000000000000dbc .LVL210
     /tmp/ccnlBL9w.s:2775   .text:0000000000000de0 .LVL212
     /tmp/ccnlBL9w.s:2779   .text:0000000000000de8 .LVL213
     /tmp/ccnlBL9w.s:2608   .text:0000000000000cb4 .LBB145
     /tmp/ccnlBL9w.s:2623   .text:0000000000000cc0 .LBE145
     /tmp/ccnlBL9w.s:3004   .text:0000000000000e70 .LVL223
     /tmp/ccnlBL9w.s:10     .text:0000000000000000 .LFB48
     /tmp/ccnlBL9w.s:81     .text:0000000000000058 .LFE48
     /tmp/ccnlBL9w.s:3939   .text:0000000000001484 .LFB47
     /tmp/ccnlBL9w.s:4093   .text:0000000000001548 .LFE47
     /tmp/ccnlBL9w.s:3954   .text:000000000000149c .LBB211
     /tmp/ccnlBL9w.s:3965   .text:00000000000014a0 .LBE211
     /tmp/ccnlBL9w.s:4014   .text:0000000000001510 .LBB213
     /tmp/ccnlBL9w.s:4034   .text:0000000000001524 .LBE213
     /tmp/ccnlBL9w.s:11975  .debug_loc:00000000000016ba .LLST104
     /tmp/ccnlBL9w.s:11987  .debug_loc:00000000000016f8 .LLST105
     /tmp/ccnlBL9w.s:4037   .text:0000000000001524 .LBB215
     /tmp/ccnlBL9w.s:4038   .text:0000000000001524 .LBB216
     /tmp/ccnlBL9w.s:4050   .text:000000000000152c .LBE216
     /tmp/ccnlBL9w.s:11994  .debug_loc:000000000000171b .LLST106
     /tmp/ccnlBL9w.s:4054   .text:000000000000152c .LBB218
     /tmp/ccnlBL9w.s:4066   .text:0000000000001534 .LBE218
     /tmp/ccnlBL9w.s:12002  .debug_loc:000000000000173f .LLST107
     /tmp/ccnlBL9w.s:4070   .text:0000000000001534 .LBB220
     /tmp/ccnlBL9w.s:4081   .text:0000000000001538 .LBE220
     /tmp/ccnlBL9w.s:12011  .debug_loc:0000000000001765 .LLST108
     /tmp/ccnlBL9w.s:3976   .text:00000000000014c4 .LVL316
     /tmp/ccnlBL9w.s:3980   .text:00000000000014cc .LVL317
     /tmp/ccnlBL9w.s:3984   .text:00000000000014d4 .LVL318
     /tmp/ccnlBL9w.s:3988   .text:00000000000014dc .LVL319
     /tmp/ccnlBL9w.s:3992   .text:00000000000014e4 .LVL320
     /tmp/ccnlBL9w.s:3996   .text:00000000000014ec .LVL321
GAS LISTING /tmp/ccnlBL9w.s 			page 153


     /tmp/ccnlBL9w.s:4000   .text:00000000000014f4 .LVL322
     /tmp/ccnlBL9w.s:4004   .text:00000000000014fc .LVL323
     /tmp/ccnlBL9w.s:12072  .debug_str:0000000000000013 .LASF373
     /tmp/ccnlBL9w.s:12564  .debug_str:0000000000000ff2 .LASF374
     /tmp/ccnlBL9w.s:12188  .debug_str:0000000000000393 .LASF387
     /tmp/ccnlBL9w.s:12096  .debug_str:00000000000000e3 .LASF388
     /tmp/ccnlBL9w.s:12816  .debug_str:00000000000018b7 .LASF375
     /tmp/ccnlBL9w.s:12776  .debug_str:00000000000016ea .LASF376
     /tmp/ccnlBL9w.s:12380  .debug_str:00000000000009ba .LASF377
     /tmp/ccnlBL9w.s:12338  .debug_str:0000000000000866 .LASF378
     /tmp/ccnlBL9w.s:12478  .debug_str:0000000000000d19 .LASF379
     /tmp/ccnlBL9w.s:3609   .text:0000000000001170 .LVL286
     /tmp/ccnlBL9w.s:3660   .text:00000000000011fc .LVL291
     /tmp/ccnlBL9w.s:2130   .text:0000000000000a50 .LVL159
     /tmp/ccnlBL9w.s:2199   .text:0000000000000aa4 .LVL166
     /tmp/ccnlBL9w.s:2261   .text:0000000000000af8 .LVL176
     /tmp/ccnlBL9w.s:2202   .text:0000000000000aa8 .LVL167
     /tmp/ccnlBL9w.s:2238   .text:0000000000000ad0 .LVL175
     /tmp/ccnlBL9w.s:2159   .text:0000000000000a80 .LVL161
     /tmp/ccnlBL9w.s:2187   .text:0000000000000a94 .LVL164
     /tmp/ccnlBL9w.s:2170   .text:0000000000000a88 .LVL162
     /tmp/ccnlBL9w.s:2208   .text:0000000000000aac .LVL168
     /tmp/ccnlBL9w.s:2284   .text:0000000000000b14 .LVL180
     /tmp/ccnlBL9w.s:2181   .text:0000000000000a90 .LVL163
     /tmp/ccnlBL9w.s:2233   .text:0000000000000ac8 .LVL173
     /tmp/ccnlBL9w.s:2191   .text:0000000000000a9c .LVL165
     /tmp/ccnlBL9w.s:2212   .text:0000000000000ab4 .LVL169
     /tmp/ccnlBL9w.s:2220   .text:0000000000000abc .LVL170
     /tmp/ccnlBL9w.s:2223   .text:0000000000000ac0 .LVL171
     /tmp/ccnlBL9w.s:2235   .text:0000000000000acc .LVL174
     /tmp/ccnlBL9w.s:2230   .text:0000000000000ac4 .LVL172
     /tmp/ccnlBL9w.s:2273   .text:0000000000000b04 .LVL178
     /tmp/ccnlBL9w.s:2277   .text:0000000000000b08 .LVL179
     /tmp/ccnlBL9w.s:2296   .text:0000000000000b20 .LVL182
     /tmp/ccnlBL9w.s:2300   .text:0000000000000b24 .LVL183
     /tmp/ccnlBL9w.s:2151   .text:0000000000000a78 .LVL160
     /tmp/ccnlBL9w.s:2093   .text:0000000000000a24 .LVL156
     /tmp/ccnlBL9w.s:2106   .text:0000000000000a3c .LVL157
     /tmp/ccnlBL9w.s:2108   .text:0000000000000a40 .LVL158
     /tmp/ccnlBL9w.s:3841   .text:0000000000001398 .LVL304
     /tmp/ccnlBL9w.s:3924   .text:0000000000001474 .LVL313
     /tmp/ccnlBL9w.s:3910   .text:0000000000001464 .LVL312
     /tmp/ccnlBL9w.s:3707   .text:0000000000001258 .LVL293
     /tmp/ccnlBL9w.s:3790   .text:0000000000001334 .LVL302
     /tmp/ccnlBL9w.s:3776   .text:0000000000001324 .LVL301
     /tmp/ccnlBL9w.s:3535   .text:00000000000010fc .LVL278
     /tmp/ccnlBL9w.s:3557   .text:000000000000112c .LVL279
     /tmp/ccnlBL9w.s:3595   .text:0000000000001168 .LVL285
     /tmp/ccnlBL9w.s:3589   .text:0000000000001160 .LVL283
     /tmp/ccnlBL9w.s:3592   .text:0000000000001164 .LVL284
     /tmp/ccnlBL9w.s:3586   .text:000000000000115c .LVL282
     /tmp/ccnlBL9w.s:1782   .text:00000000000008c0 .LVL135
     /tmp/ccnlBL9w.s:1810   .text:00000000000008f0 .LVL137
     /tmp/ccnlBL9w.s:1820   .text:0000000000000904 .LVL139
     /tmp/ccnlBL9w.s:1824   .text:0000000000000908 .LVL140
     /tmp/ccnlBL9w.s:1873   .text:0000000000000930 .LVL143
     /tmp/ccnlBL9w.s:1870   .text:000000000000092c .LVL142
GAS LISTING /tmp/ccnlBL9w.s 			page 154


     /tmp/ccnlBL9w.s:1876   .text:0000000000000934 .LVL144
     /tmp/ccnlBL9w.s:1801   .text:00000000000008e8 .LVL136
     /tmp/ccnlBL9w.s:1756   .text:00000000000008a4 .LVL133
     /tmp/ccnlBL9w.s:1761   .text:00000000000008a8 .LVL134
     /tmp/ccnlBL9w.s:2339   .text:0000000000000b58 .LVL185
     /tmp/ccnlBL9w.s:2345   .text:0000000000000b68 .LVL186
     /tmp/ccnlBL9w.s:2410   .text:0000000000000c0c .LVL191
     /tmp/ccnlBL9w.s:2510   .text:0000000000000c78 .LVL195
     /tmp/ccnlBL9w.s:2521   .text:0000000000000c84 .LVL198
     /tmp/ccnlBL9w.s:2516   .text:0000000000000c7c .LVL196
     /tmp/ccnlBL9w.s:2504   .text:0000000000000c6c .LVL194
     /tmp/ccnlBL9w.s:2518   .text:0000000000000c80 .LVL197
     /tmp/ccnlBL9w.s:1689   .text:0000000000000850 .LVL126
     /tmp/ccnlBL9w.s:1717   .text:0000000000000870 .LVL129
     /tmp/ccnlBL9w.s:1721   .text:0000000000000878 .LVL130
     /tmp/ccnlBL9w.s:1695   .text:0000000000000854 .LVL127
     /tmp/ccnlBL9w.s:1613   .text:00000000000007e8 .LVL118
     /tmp/ccnlBL9w.s:1641   .text:0000000000000808 .LVL121
     /tmp/ccnlBL9w.s:1645   .text:0000000000000810 .LVL122
     /tmp/ccnlBL9w.s:1619   .text:00000000000007ec .LVL119
     /tmp/ccnlBL9w.s:277    .text:000000000000015c .LVL7
     /tmp/ccnlBL9w.s:290    .text:0000000000000164 .LVL8
     /tmp/ccnlBL9w.s:311    .text:000000000000016c .LVL9
     /tmp/ccnlBL9w.s:198    .text:0000000000000108 .LVL4
     /tmp/ccnlBL9w.s:209    .text:0000000000000110 .LVL5
     /tmp/ccnlBL9w.s:1963   .text:000000000000097c .LVL146
     /tmp/ccnlBL9w.s:1973   .text:0000000000000990 .LVL147
     /tmp/ccnlBL9w.s:1990   .text:00000000000009a4 .LVL149
     /tmp/ccnlBL9w.s:2013   .text:00000000000009b4 .LVL151
     /tmp/ccnlBL9w.s:2027   .text:00000000000009d0 .LVL153
     /tmp/ccnlBL9w.s:2038   .text:00000000000009d8 .LVL154
     /tmp/ccnlBL9w.s:157    .text:00000000000000c8 .LVL2
     /tmp/ccnlBL9w.s:1490   .text:0000000000000744 .LVL107
     /tmp/ccnlBL9w.s:1497   .text:0000000000000754 .LVL108
     /tmp/ccnlBL9w.s:1522   .text:0000000000000774 .LVL110
     /tmp/ccnlBL9w.s:1528   .text:0000000000000778 .LVL111
     /tmp/ccnlBL9w.s:1537   .text:0000000000000790 .LVL114
     /tmp/ccnlBL9w.s:1405   .text:00000000000006b0 .LVL101
     /tmp/ccnlBL9w.s:1449   .text:00000000000006fc .LVL105
     /tmp/ccnlBL9w.s:1333   .text:0000000000000658 .LVL96
     /tmp/ccnlBL9w.s:1340   .text:0000000000000660 .LVL97
     /tmp/ccnlBL9w.s:1363   .text:000000000000067c .LVL99
     /tmp/ccnlBL9w.s:1256   .text:00000000000005f8 .LVL89
     /tmp/ccnlBL9w.s:1261   .text:00000000000005fc .LVL90
     /tmp/ccnlBL9w.s:1295   .text:0000000000000630 .LVL93
     /tmp/ccnlBL9w.s:1273   .text:0000000000000614 .LVL91
     /tmp/ccnlBL9w.s:1303   .text:000000000000063c .LVL95
     /tmp/ccnlBL9w.s:1183   .text:000000000000059c .LVL82
     /tmp/ccnlBL9w.s:1213   .text:00000000000005bc .LVL85
     /tmp/ccnlBL9w.s:1217   .text:00000000000005c4 .LVL86
     /tmp/ccnlBL9w.s:1192   .text:00000000000005a4 .LVL83
     /tmp/ccnlBL9w.s:1054   .text:0000000000000508 .LVL68
     /tmp/ccnlBL9w.s:1111   .text:0000000000000554 .LVL75
     /tmp/ccnlBL9w.s:1118   .text:0000000000000560 .LVL77
     /tmp/ccnlBL9w.s:1127   .text:000000000000056c .LVL79
     /tmp/ccnlBL9w.s:1060   .text:000000000000050c .LVL69
     /tmp/ccnlBL9w.s:1114   .text:0000000000000558 .LVL76
GAS LISTING /tmp/ccnlBL9w.s 			page 155


     /tmp/ccnlBL9w.s:1108   .text:0000000000000550 .LVL74
     /tmp/ccnlBL9w.s:1124   .text:0000000000000568 .LVL78
     /tmp/ccnlBL9w.s:1087   .text:0000000000000538 .LVL72
     /tmp/ccnlBL9w.s:102    .text:0000000000000074 .LVL0
     /tmp/ccnlBL9w.s:967    .text:00000000000004a0 .LVL62
     /tmp/ccnlBL9w.s:991    .text:00000000000004c4 .LVL65
     /tmp/ccnlBL9w.s:1013   .text:00000000000004e0 .LVL67
     /tmp/ccnlBL9w.s:977    .text:00000000000004b0 .LVL63
     /tmp/ccnlBL9w.s:899    .text:000000000000044c .LVL56
     /tmp/ccnlBL9w.s:907    .text:0000000000000454 .LVL57
     /tmp/ccnlBL9w.s:930    .text:0000000000000470 .LVL59
     /tmp/ccnlBL9w.s:757    .text:00000000000003a0 .LVL40
     /tmp/ccnlBL9w.s:826    .text:0000000000000404 .LVL48
     /tmp/ccnlBL9w.s:836    .text:0000000000000414 .LVL51
     /tmp/ccnlBL9w.s:763    .text:00000000000003a4 .LVL41
     /tmp/ccnlBL9w.s:823    .text:0000000000000400 .LVL47
     /tmp/ccnlBL9w.s:845    .text:0000000000000420 .LVL53
     /tmp/ccnlBL9w.s:751    .text:000000000000039c .LVL39
     /tmp/ccnlBL9w.s:829    .text:0000000000000408 .LVL49
     /tmp/ccnlBL9w.s:745    .text:0000000000000398 .LVL38
     /tmp/ccnlBL9w.s:832    .text:000000000000040c .LVL50
     /tmp/ccnlBL9w.s:820    .text:00000000000003fc .LVL46
     /tmp/ccnlBL9w.s:842    .text:000000000000041c .LVL52
     /tmp/ccnlBL9w.s:799    .text:00000000000003e4 .LVL44
     /tmp/ccnlBL9w.s:579    .text:00000000000002cc .LVL21
     /tmp/ccnlBL9w.s:655    .text:000000000000033c .LVL30
     /tmp/ccnlBL9w.s:665    .text:000000000000034c .LVL33
     /tmp/ccnlBL9w.s:585    .text:00000000000002d0 .LVL22
     /tmp/ccnlBL9w.s:658    .text:0000000000000340 .LVL31
     /tmp/ccnlBL9w.s:573    .text:00000000000002c8 .LVL20
     /tmp/ccnlBL9w.s:652    .text:0000000000000338 .LVL29
     /tmp/ccnlBL9w.s:674    .text:0000000000000358 .LVL35
     /tmp/ccnlBL9w.s:567    .text:00000000000002c4 .LVL19
     /tmp/ccnlBL9w.s:661    .text:0000000000000344 .LVL32
     /tmp/ccnlBL9w.s:649    .text:0000000000000334 .LVL28
     /tmp/ccnlBL9w.s:671    .text:0000000000000354 .LVL34
     /tmp/ccnlBL9w.s:628    .text:000000000000031c .LVL26
     /tmp/ccnlBL9w.s:522    .text:0000000000000290 .LVL17
     /tmp/ccnlBL9w.s:492    .text:0000000000000270 .LVL15
     /tmp/ccnlBL9w.s:440    .text:0000000000000228 .LVL12
     /tmp/ccnlBL9w.s:2605   .text:0000000000000cb4 .LVL201
     /tmp/ccnlBL9w.s:3014   .text:0000000000000e7c .LVL224
     /tmp/ccnlBL9w.s:3018   .text:0000000000000e84 .LVL225
     /tmp/ccnlBL9w.s:2841   .text:0000000000000e20 .LVL216
     /tmp/ccnlBL9w.s:2847   .text:0000000000000e2c .LVL217
     /tmp/ccnlBL9w.s:2969   .text:0000000000000e5c .LVL219
     /tmp/ccnlBL9w.s:2978   .text:0000000000000e60 .LVL220
     /tmp/ccnlBL9w.s:2985   .text:0000000000000e64 .LVL221
     /tmp/ccnlBL9w.s:2994   .text:0000000000000e68 .LVL222
     /tmp/ccnlBL9w.s:3292   .text:0000000000000fe4 .LVL253
     /tmp/ccnlBL9w.s:3210   .text:0000000000000f78 .LVL246
     /tmp/ccnlBL9w.s:3220   .text:0000000000000f80 .LVL247
     /tmp/ccnlBL9w.s:3253   .text:0000000000000fc8 .LVL249
     /tmp/ccnlBL9w.s:3262   .text:0000000000000fcc .LVL250
     /tmp/ccnlBL9w.s:3269   .text:0000000000000fd0 .LVL251
     /tmp/ccnlBL9w.s:3281   .text:0000000000000fd8 .LVL252
     /tmp/ccnlBL9w.s:3346   .text:0000000000001014 .LVL257
GAS LISTING /tmp/ccnlBL9w.s 			page 156


     /tmp/ccnlBL9w.s:3369   .text:0000000000001024 .LVL259
     /tmp/ccnlBL9w.s:3379   .text:0000000000001034 .LVL260
     /tmp/ccnlBL9w.s:3402   .text:000000000000104c .LVL262
     /tmp/ccnlBL9w.s:3398   .text:0000000000001044 .LVL261
     /tmp/ccnlBL9w.s:3406   .text:0000000000001054 .LVL263
     /tmp/ccnlBL9w.s:3447   .text:0000000000001078 .LVL269
     /tmp/ccnlBL9w.s:3419   .text:0000000000001068 .LVL266
     /tmp/ccnlBL9w.s:3428   .text:000000000000106c .LVL267
     /tmp/ccnlBL9w.s:3435   .text:0000000000001070 .LVL268
     /tmp/ccnlBL9w.s:3474   .text:00000000000010a0 .LVL272
     /tmp/ccnlBL9w.s:2712   .text:0000000000000d50 .LVL204
     /tmp/ccnlBL9w.s:2720   .text:0000000000000d5c .LVL205
     /tmp/ccnlBL9w.s:2766   .text:0000000000000dc8 .LVL211
     /tmp/ccnlBL9w.s:4013   .text:0000000000001510 .LVL324
     /tmp/ccnlBL9w.s:4019   .text:0000000000001514 .LVL325
     /tmp/ccnlBL9w.s:4031   .text:0000000000001524 .LVL327
     /tmp/ccnlBL9w.s:4024   .text:0000000000001520 .LVL326
     /tmp/ccnlBL9w.s:4047   .text:000000000000152c .LVL328
     /tmp/ccnlBL9w.s:4063   .text:0000000000001534 .LVL329
     /tmp/ccnlBL9w.s:4078   .text:0000000000001538 .LVL330
     /tmp/ccnlBL9w.s:4138   .debug_info:0000000000000000 .Ldebug_info0
     /tmp/ccnlBL9w.s:275    .text:000000000000015c .LBE109
     /tmp/ccnlBL9w.s:278    .text:000000000000015c .LBB119
     /tmp/ccnlBL9w.s:297    .text:0000000000000164 .LBE119
     /tmp/ccnlBL9w.s:299    .text:0000000000000164 .LBB120
     /tmp/ccnlBL9w.s:318    .text:000000000000016c .LBE120
     /tmp/ccnlBL9w.s:1975   .text:0000000000000990 .LBB124
     /tmp/ccnlBL9w.s:1983   .text:0000000000000998 .LBE124
     /tmp/ccnlBL9w.s:1985   .text:0000000000000998 .LBB128
     /tmp/ccnlBL9w.s:2064   .text:0000000000000a04 .LBE128
     /tmp/ccnlBL9w.s:3372   .text:0000000000001028 .LBB165
     /tmp/ccnlBL9w.s:3408   .text:0000000000001054 .LBE165
     /tmp/ccnlBL9w.s:3452   .text:0000000000001078 .LBB166
     /tmp/ccnlBL9w.s:3465   .text:0000000000001094 .LBE166
     /tmp/ccnlBL9w.s:2786   .text:0000000000000dec .LBB191
     /tmp/ccnlBL9w.s:2999   .text:0000000000000e68 .LBE191
     /tmp/ccnlBL9w.s:3022   .text:0000000000000e84 .LBB200
     /tmp/ccnlBL9w.s:3172   .text:0000000000000f68 .LBE200
     /tmp/ccnlBL9w.s:4051   .text:000000000000152c .LBE215
     /tmp/ccnlBL9w.s:4053   .text:000000000000152c .LBB222
     /tmp/ccnlBL9w.s:4067   .text:0000000000001534 .LBE222
     /tmp/ccnlBL9w.s:4069   .text:0000000000001534 .LBB223
     /tmp/ccnlBL9w.s:4082   .text:0000000000001538 .LBE223
     /tmp/ccnlBL9w.s:688    .gcc_except_table:0000000000000000 .LLSDA52
     /tmp/ccnlBL9w.s:858    .gcc_except_table:0000000000000038 .LLSDA53
     /tmp/ccnlBL9w.s:1140   .gcc_except_table:0000000000000063 .LLSDA57
     /tmp/ccnlBL9w.s:2535   .gcc_except_table:000000000000008e .LLSDA71

UNDEFINED SYMBOLS
_ZN3TCB7runningE
_Z11bodyWrapperPFvPvES_
_ZN3TCB8dispatchEv
_ZN11ConsoleUtil11pendingPutcE
_ZN11ConsoleUtil9putOutputEc
_ZN11ConsoleUtil11pendingGetcE
_ZN9Scheduler9readyHeadE
_ZN3TCB10putcThreadE
GAS LISTING /tmp/ccnlBL9w.s 			page 157


_ZN9Scheduler3putEP3TCB
_ZN11ConsoleUtil10outputHeadE
_ZN11ConsoleUtil10outputTailE
_ZN15MemoryAllocator7kmallocEm
_ZN15MemoryAllocator11initializedE
_ZN15MemoryAllocator5kfreeEPv
_ZN3TCBnwEm
_ZN3TCBC1EPFvPvES0_Pmm
_ZN3TCBdlEPv
_Unwind_Resume
__gxx_personality_v0
_ZN3SCBnwEm
_ZN3SCBC1Em
_ZN3SCBdlEPv
_ZN3SCBD1Ev
_ZN3SCB4waitEv
_ZN3SCB6signalEv
_ZN9Scheduler5sleepEP3TCB
_ZN11ConsoleUtil8getInputEv
_ZN11ConsoleUtil9getOutputEv
_Z5kfreePKv
_ZN3TCBD1Ev
_ZN3TCB9currentPCE
CONSOLE_STATUS
_ZN11ConsoleUtil15putcUtilSyscallEv
CONSOLE_RX_DATA
_ZN5Buddy5allocEm
_ZN15MemoryAllocator6memcpyEPvS0_m
_ZN3TCB9currentSPE
_ZN11ConsoleUtil11printStringEPKc
_ZN11ConsoleUtil8printIntEiii
_ZN11ConsoleUtil5printEPKciS1_i
_ZN9Scheduler5awakeEv
_ZN3TCB16timeSliceCounterE
CONSOLE_TX_DATA
plic_claim
plic_complete
_ZN11ConsoleUtil8putInputEc
_ZN5Buddy16BLOCKS_AVAILABLEE
_ZN5Buddy16BUDDY_START_ADDRE
kernelTextEnd
userTextStart
userDataStart
userDataEnd
HEAP_END_ADDR
_ZN5RiscV14supervisorTrapEv
HEAP_START_ADDR
_Z9kmem_initPvi
_ZN15MemoryAllocator10initializeEv
_ZN9Scheduler10initializeEv
_ZN3TCB10initializeEv
_ZN3SCB10initializeEv
_ZN11ConsoleUtil10initializeEv
