GAS LISTING /tmp/cc8OAIEG.s 			page 1


   1              		.file	"riscv.cpp"
   2              		.option pic
   3              		.option norelax
   4              		.text
   5              	.Ltext0:
   6              		.align	2
   7              		.globl	_ZN5RiscV6getPMTEv
   9              	_ZN5RiscV6getPMTEv:
  10              	.LFB42:
  11              		.file 1 "src/kernel/riscv.cpp"
   1:src/kernel/riscv.cpp **** //
   2:src/kernel/riscv.cpp **** // Created by os on 4/28/22.
   3:src/kernel/riscv.cpp **** //
   4:src/kernel/riscv.cpp **** 
   5:src/kernel/riscv.cpp **** #include "../../h/riscv.hpp"
   6:src/kernel/riscv.cpp **** #include "../../h/memoryAllocator.hpp"
   7:src/kernel/riscv.cpp **** #include "../../h/tcb.hpp"
   8:src/kernel/riscv.cpp **** #include "../../h/scheduler.hpp"
   9:src/kernel/riscv.cpp **** #include "../../h/printing.hpp"
  10:src/kernel/riscv.cpp **** #include "../../h/scb.hpp"
  11:src/kernel/riscv.cpp **** #include "../../h/tcbWrapperUtil.hpp"
  12:src/kernel/riscv.cpp **** 
  13:src/kernel/riscv.cpp **** uint64 RiscV::globalTime = 0;
  14:src/kernel/riscv.cpp **** bool RiscV::userMainFinished = false;
  15:src/kernel/riscv.cpp **** void* RiscV::kPMT = nullptr;
  16:src/kernel/riscv.cpp **** void* RiscV::uPMT = nullptr;
  17:src/kernel/riscv.cpp **** extern char *kernelTextStart;
  18:src/kernel/riscv.cpp **** extern char *kernelDataStart;
  19:src/kernel/riscv.cpp **** extern char *userTextStart;
  20:src/kernel/riscv.cpp **** extern char *etext;
  21:src/kernel/riscv.cpp **** 
  22:src/kernel/riscv.cpp **** void* RiscV::getPMT(){
  12              		.loc 1 22 22
  13              		.cfi_startproc
  14 0000 130101FF 		addi	sp,sp,-16
  15              		.cfi_def_cfa_offset 16
  16 0004 23341100 		sd	ra,8(sp)
  17 0008 23308100 		sd	s0,0(sp)
  18              		.cfi_offset 1, -8
  19              		.cfi_offset 8, -16
  20 000c 13040101 		addi	s0,sp,16
  21              		.cfi_def_cfa 8, 0
  23:src/kernel/riscv.cpp ****     void* ret = Buddy::alloc(1);
  22              		.loc 1 23 5
  23              		.loc 1 23 29 is_stmt 0
  24 0010 13051000 		li	a0,1
  25 0014 97000000 		call	_ZN5Buddy5allocEm@plt
  25      E7800000 
  26              	.LVL0:
  24:src/kernel/riscv.cpp ****     uint64* arr = (uint64*)ret;
  27              		.loc 1 24 5 is_stmt 1
  25:src/kernel/riscv.cpp ****     for(int i=0;i<512;i++)
  28              		.loc 1 25 5
  29              	.LBB98:
  30              		.loc 1 25 13 is_stmt 0
  31 001c 93070000 		li	a5,0
  32              	.LVL1:
GAS LISTING /tmp/cc8OAIEG.s 			page 2


  33              	.L3:
  34              		.loc 1 25 18 is_stmt 1 discriminator 3
  35 0020 1307F01F 		li	a4,511
  36 0024 634CF700 		bgt	a5,a4,.L1
  26:src/kernel/riscv.cpp ****         arr[i] = 0;
  37              		.loc 1 26 9 discriminator 2
  38              		.loc 1 26 14 is_stmt 0 discriminator 2
  39 0028 13973700 		slli	a4,a5,3
  40 002c 3307E500 		add	a4,a0,a4
  41              		.loc 1 26 16 discriminator 2
  42 0030 23300700 		sd	zero,0(a4)
  25:src/kernel/riscv.cpp ****     for(int i=0;i<512;i++)
  43              		.loc 1 25 5 is_stmt 1 discriminator 2
  44 0034 9B871700 		addiw	a5,a5,1
  45              	.LVL2:
  46 0038 6FF09FFE 		j	.L3
  47              	.LVL3:
  48              	.L1:
  49              	.LBE98:
  27:src/kernel/riscv.cpp ****     return ret;
  28:src/kernel/riscv.cpp **** }
  50              		.loc 1 28 1 is_stmt 0
  51 003c 83308100 		ld	ra,8(sp)
  52              		.cfi_restore 1
  53 0040 03340100 		ld	s0,0(sp)
  54              		.cfi_restore 8
  55              		.cfi_def_cfa 2, 16
  56 0044 13010101 		addi	sp,sp,16
  57              		.cfi_def_cfa_offset 0
  58 0048 67800000 		jr	ra
  59              		.cfi_endproc
  60              	.LFE42:
  62              		.align	2
  63              		.globl	_ZN5RiscV15handlePageFaultEPvmm
  65              	_ZN5RiscV15handlePageFaultEPvmm:
  66              	.LFB43:
  29:src/kernel/riscv.cpp **** 
  30:src/kernel/riscv.cpp **** void RiscV::handlePageFault(void* PMT, uint64 addr, uint64 mask){
  67              		.loc 1 30 65 is_stmt 1
  68              		.cfi_startproc
  69              	.LVL4:
  70 004c 130101FC 		addi	sp,sp,-64
  71              		.cfi_def_cfa_offset 64
  72 0050 233C1102 		sd	ra,56(sp)
  73 0054 23388102 		sd	s0,48(sp)
  74 0058 23349102 		sd	s1,40(sp)
  75 005c 23302103 		sd	s2,32(sp)
  76 0060 233C3101 		sd	s3,24(sp)
  77 0064 23384101 		sd	s4,16(sp)
  78 0068 23345101 		sd	s5,8(sp)
  79              		.cfi_offset 1, -8
  80              		.cfi_offset 8, -16
  81              		.cfi_offset 9, -24
  82              		.cfi_offset 18, -32
  83              		.cfi_offset 19, -40
  84              		.cfi_offset 20, -48
  85              		.cfi_offset 21, -56
GAS LISTING /tmp/cc8OAIEG.s 			page 3


  86 006c 13040104 		addi	s0,sp,64
  87              		.cfi_def_cfa 8, 0
  88 0070 93090600 		mv	s3,a2
  31:src/kernel/riscv.cpp ****     uint64 pmt2Entry = (addr >> 30) & (0x1ff);;
  89              		.loc 1 31 5
  90              		.loc 1 31 30 is_stmt 0
  91 0074 93D7E501 		srli	a5,a1,30
  92              		.loc 1 31 12
  93 0078 93F7F71F 		andi	a5,a5,511
  94              	.LVL5:
  95              		.loc 1 31 47 is_stmt 1
  32:src/kernel/riscv.cpp ****     uint64 pmt1Entry = (addr >> 21) & (0x1ff);
  96              		.loc 1 32 5
  97              		.loc 1 32 30 is_stmt 0
  98 007c 13D95501 		srli	s2,a1,21
  99              		.loc 1 32 12
 100 0080 1379F91F 		andi	s2,s2,511
 101              	.LVL6:
  33:src/kernel/riscv.cpp ****     uint64 pmt0Entry = (addr >> 12) & (0x1ff);
 102              		.loc 1 33 5 is_stmt 1
 103              		.loc 1 33 30 is_stmt 0
 104 0084 93D4C500 		srli	s1,a1,12
 105              		.loc 1 33 12
 106 0088 13FAF41F 		andi	s4,s1,511
 107              	.LVL7:
  34:src/kernel/riscv.cpp ****     uint64 pmt2Desc = ((uint64*)PMT)[pmt2Entry];
 108              		.loc 1 34 5 is_stmt 1
 109              		.loc 1 34 47 is_stmt 0
 110 008c 93973700 		slli	a5,a5,3
 111              	.LVL8:
 112 0090 B30AF500 		add	s5,a0,a5
 113              		.loc 1 34 12
 114 0094 83B70A00 		ld	a5,0(s5)
 115              	.LVL9:
  35:src/kernel/riscv.cpp ****     void* pmt1 = nullptr;
 116              		.loc 1 35 5 is_stmt 1
  36:src/kernel/riscv.cpp ****     if(pmt2Desc == 0){
 117              		.loc 1 36 5
 118 0098 63820706 		beqz	a5,.L12
  37:src/kernel/riscv.cpp ****         pmt1 = RiscV::getPMT();
  38:src/kernel/riscv.cpp ****         ((uint64*)PMT)[pmt2Entry] = (((uint64)pmt1 >> 12) << 10) | (uint64)1;
  39:src/kernel/riscv.cpp ****     }
  40:src/kernel/riscv.cpp ****     else
  41:src/kernel/riscv.cpp ****         pmt1 = (void*)((pmt2Desc >> 10) << 12);
 119              		.loc 1 41 9
 120              		.loc 1 41 34 is_stmt 0
 121 009c 13D5A700 		srli	a0,a5,10
 122              	.LVL10:
 123              		.loc 1 41 41
 124 00a0 1315C500 		slli	a0,a0,12
 125              	.LVL11:
 126              	.L7:
  42:src/kernel/riscv.cpp ****     uint64 pmt1Desc = ((uint64*)pmt1)[pmt1Entry];
 127              		.loc 1 42 5 is_stmt 1
 128              		.loc 1 42 48 is_stmt 0
 129 00a4 13193900 		slli	s2,s2,3
 130              	.LVL12:
GAS LISTING /tmp/cc8OAIEG.s 			page 4


 131 00a8 33092501 		add	s2,a0,s2
 132              		.loc 1 42 12
 133 00ac 03350900 		ld	a0,0(s2)
 134              	.LVL13:
  43:src/kernel/riscv.cpp ****     void* pmt0 = nullptr;
 135              		.loc 1 43 5 is_stmt 1
  44:src/kernel/riscv.cpp ****     if(pmt1Desc == 0){
 136              		.loc 1 44 5
 137 00b0 63040506 		beqz	a0,.L13
  45:src/kernel/riscv.cpp ****         pmt0 = RiscV::getPMT();
  46:src/kernel/riscv.cpp ****         ((uint64*)pmt1)[pmt1Entry] = (((uint64)pmt0 >> 12) << 10) | (uint64)1;
  47:src/kernel/riscv.cpp ****     }
  48:src/kernel/riscv.cpp ****     else
  49:src/kernel/riscv.cpp ****         pmt0 = (void*)((pmt1Desc >> 10) << 12);
 138              		.loc 1 49 9
 139              		.loc 1 49 34 is_stmt 0
 140 00b4 1355A500 		srli	a0,a0,10
 141              	.LVL14:
 142              		.loc 1 49 41
 143 00b8 1315C500 		slli	a0,a0,12
 144              	.LVL15:
 145              	.L9:
  50:src/kernel/riscv.cpp ****     uint64 pmt0Desc = ((uint64*)pmt0)[pmt0Entry];
 146              		.loc 1 50 5 is_stmt 1
 147              		.loc 1 50 48 is_stmt 0
 148 00bc 131A3A00 		slli	s4,s4,3
 149              	.LVL16:
 150 00c0 33054501 		add	a0,a0,s4
 151              	.LVL17:
 152              		.loc 1 50 12
 153 00c4 83370500 		ld	a5,0(a0)
 154              	.LVL18:
  51:src/kernel/riscv.cpp ****     if(pmt0Desc == 0)
 155              		.loc 1 51 5 is_stmt 1
 156 00c8 63980700 		bnez	a5,.L5
  52:src/kernel/riscv.cpp ****         ((uint64*)pmt0)[pmt0Entry] = ((addr >> 12) << 10) | mask;
 157              		.loc 1 52 9
 158              		.loc 1 52 52 is_stmt 0
 159 00cc 9394A400 		slli	s1,s1,10
 160              	.LVL19:
 161              		.loc 1 52 59
 162 00d0 B3E93401 		or	s3,s1,s3
 163              	.LVL20:
 164              		.loc 1 52 36
 165 00d4 23303501 		sd	s3,0(a0)
 166              	.L5:
  53:src/kernel/riscv.cpp **** }
 167              		.loc 1 53 1
 168 00d8 83308103 		ld	ra,56(sp)
 169              		.cfi_remember_state
 170              		.cfi_restore 1
 171 00dc 03340103 		ld	s0,48(sp)
 172              		.cfi_restore 8
 173              		.cfi_def_cfa 2, 64
 174 00e0 83348102 		ld	s1,40(sp)
 175              		.cfi_restore 9
 176 00e4 03390102 		ld	s2,32(sp)
GAS LISTING /tmp/cc8OAIEG.s 			page 5


 177              		.cfi_restore 18
 178 00e8 83398101 		ld	s3,24(sp)
 179              		.cfi_restore 19
 180 00ec 033A0101 		ld	s4,16(sp)
 181              		.cfi_restore 20
 182 00f0 833A8100 		ld	s5,8(sp)
 183              		.cfi_restore 21
 184 00f4 13010104 		addi	sp,sp,64
 185              		.cfi_def_cfa_offset 0
 186 00f8 67800000 		jr	ra
 187              	.LVL21:
 188              	.L12:
 189              		.cfi_restore_state
  37:src/kernel/riscv.cpp ****         ((uint64*)PMT)[pmt2Entry] = (((uint64)pmt1 >> 12) << 10) | (uint64)1;
 190              		.loc 1 37 9 is_stmt 1
  37:src/kernel/riscv.cpp ****         ((uint64*)PMT)[pmt2Entry] = (((uint64)pmt1 >> 12) << 10) | (uint64)1;
 191              		.loc 1 37 29 is_stmt 0
 192 00fc 97000000 		call	_ZN5RiscV6getPMTEv
 192      E7800000 
 193              	.LVL22:
  38:src/kernel/riscv.cpp ****     }
 194              		.loc 1 38 9 is_stmt 1
  38:src/kernel/riscv.cpp ****     }
 195              		.loc 1 38 52 is_stmt 0
 196 0104 9357C500 		srli	a5,a0,12
  38:src/kernel/riscv.cpp ****     }
 197              		.loc 1 38 59
 198 0108 9397A700 		slli	a5,a5,10
  38:src/kernel/riscv.cpp ****     }
 199              		.loc 1 38 66
 200 010c 93E71700 		ori	a5,a5,1
  38:src/kernel/riscv.cpp ****     }
 201              		.loc 1 38 35
 202 0110 23B0FA00 		sd	a5,0(s5)
 203 0114 6FF01FF9 		j	.L7
 204              	.LVL23:
 205              	.L13:
  45:src/kernel/riscv.cpp ****         ((uint64*)pmt1)[pmt1Entry] = (((uint64)pmt0 >> 12) << 10) | (uint64)1;
 206              		.loc 1 45 9 is_stmt 1
  45:src/kernel/riscv.cpp ****         ((uint64*)pmt1)[pmt1Entry] = (((uint64)pmt0 >> 12) << 10) | (uint64)1;
 207              		.loc 1 45 29 is_stmt 0
 208 0118 97000000 		call	_ZN5RiscV6getPMTEv
 208      E7800000 
 209              	.LVL24:
  46:src/kernel/riscv.cpp ****     }
 210              		.loc 1 46 9 is_stmt 1
  46:src/kernel/riscv.cpp ****     }
 211              		.loc 1 46 53 is_stmt 0
 212 0120 9357C500 		srli	a5,a0,12
  46:src/kernel/riscv.cpp ****     }
 213              		.loc 1 46 60
 214 0124 9397A700 		slli	a5,a5,10
  46:src/kernel/riscv.cpp ****     }
 215              		.loc 1 46 67
 216 0128 93E71700 		ori	a5,a5,1
  46:src/kernel/riscv.cpp ****     }
 217              		.loc 1 46 36
GAS LISTING /tmp/cc8OAIEG.s 			page 6


 218 012c 2330F900 		sd	a5,0(s2)
 219 0130 6FF0DFF8 		j	.L9
 220              		.cfi_endproc
 221              	.LFE43:
 223              		.section	.rodata.str1.8,"aMS",@progbits,1
 224              		.align	3
 225              	.LC0:
 226 0000 0A00     		.string	"\n"
 227 0002 00000000 		.align	3
 227      0000
 228              	.LC1:
 229 0008 6B546578 		.string	"kTextStart"
 229      74537461 
 229      727400
 230 0013 00000000 		.align	3
 230      00
 231              	.LC2:
 232 0018 6B446174 		.string	"kDataStart"
 232      61537461 
 232      727400
 233              		.text
 234              		.align	2
 235              		.globl	_ZN5RiscV10initializeEv
 237              	_ZN5RiscV10initializeEv:
 238              	.LFB44:
  54:src/kernel/riscv.cpp **** //initailize each of the key components and switch to user mode for user code execution
  55:src/kernel/riscv.cpp **** void RiscV::initialize(){
 239              		.loc 1 55 25 is_stmt 1
 240              		.cfi_startproc
 241 0134 130101FC 		addi	sp,sp,-64
 242              		.cfi_def_cfa_offset 64
 243 0138 233C1102 		sd	ra,56(sp)
 244 013c 23388102 		sd	s0,48(sp)
 245 0140 23349102 		sd	s1,40(sp)
 246 0144 23302103 		sd	s2,32(sp)
 247 0148 233C3101 		sd	s3,24(sp)
 248 014c 23384101 		sd	s4,16(sp)
 249 0150 23345101 		sd	s5,8(sp)
 250              		.cfi_offset 1, -8
 251              		.cfi_offset 8, -16
 252              		.cfi_offset 9, -24
 253              		.cfi_offset 18, -32
 254              		.cfi_offset 19, -40
 255              		.cfi_offset 20, -48
 256              		.cfi_offset 21, -56
 257 0154 13040104 		addi	s0,sp,64
 258              		.cfi_def_cfa 8, 0
  56:src/kernel/riscv.cpp ****     RiscV::w_stvec((uint64) &RiscV::supervisorTrap);
 259              		.loc 1 56 5
 260              		.loc 1 56 19 is_stmt 0
 261 0158 97070000 		la	a5,_ZN5RiscV14supervisorTrapEv
 261      83B70700 
 262              	.LVL25:
 263              	.LBB99:
 264              	.LBB100:
 265              		.file 2 "src/kernel/../../h/riscv.hpp"
   1:src/kernel/../../h/riscv.hpp **** //
GAS LISTING /tmp/cc8OAIEG.s 			page 7


   2:src/kernel/../../h/riscv.hpp **** // Created by os on 4/28/22.
   3:src/kernel/../../h/riscv.hpp **** //
   4:src/kernel/../../h/riscv.hpp **** 
   5:src/kernel/../../h/riscv.hpp **** #ifndef OS1_KERNEL_RISCV_HPP
   6:src/kernel/../../h/riscv.hpp **** #define OS1_KERNEL_RISCV_HPP
   7:src/kernel/../../h/riscv.hpp **** #include "../lib/hw.h"
   8:src/kernel/../../h/riscv.hpp **** 
   9:src/kernel/../../h/riscv.hpp **** 
  10:src/kernel/../../h/riscv.hpp **** class RiscV{
  11:src/kernel/../../h/riscv.hpp **** 
  12:src/kernel/../../h/riscv.hpp ****     static uint64 globalTime;
  13:src/kernel/../../h/riscv.hpp **** 
  14:src/kernel/../../h/riscv.hpp ****     static void* kPMT;
  15:src/kernel/../../h/riscv.hpp ****     static void* uPMT;
  16:src/kernel/../../h/riscv.hpp **** 
  17:src/kernel/../../h/riscv.hpp ****     static bool userMainFinished;
  18:src/kernel/../../h/riscv.hpp **** 
  19:src/kernel/../../h/riscv.hpp ****     enum BitMaskSstatus{
  20:src/kernel/../../h/riscv.hpp ****         SSTATUS_SIE = (1<<1),
  21:src/kernel/../../h/riscv.hpp ****         SSTATUS_SPIE = (1<<5),
  22:src/kernel/../../h/riscv.hpp ****         SSTATUS_SPP = (1<<8),
  23:src/kernel/../../h/riscv.hpp ****     };
  24:src/kernel/../../h/riscv.hpp **** 
  25:src/kernel/../../h/riscv.hpp ****     enum BitMaskSip{
  26:src/kernel/../../h/riscv.hpp ****         SIP_SSIE = (1<<1),
  27:src/kernel/../../h/riscv.hpp ****         SIP_STIE = (1<<5),
  28:src/kernel/../../h/riscv.hpp ****         SIP_SEIE = (1<<9),
  29:src/kernel/../../h/riscv.hpp ****     };
  30:src/kernel/../../h/riscv.hpp **** 
  31:src/kernel/../../h/riscv.hpp ****     static void executeMemAllocSyscall();   //wrapper function for moving parameters and calling Me
  32:src/kernel/../../h/riscv.hpp **** 
  33:src/kernel/../../h/riscv.hpp ****     static void executeMemFreeSyscall();    //wrapper function for moving parameters and calling Me
  34:src/kernel/../../h/riscv.hpp **** 
  35:src/kernel/../../h/riscv.hpp ****     static void executeThreadCreateSyscall();
  36:src/kernel/../../h/riscv.hpp **** 
  37:src/kernel/../../h/riscv.hpp ****     static void executeThreadExitSyscall();
  38:src/kernel/../../h/riscv.hpp **** 
  39:src/kernel/../../h/riscv.hpp ****     static void executeThreadDispatchSyscall();
  40:src/kernel/../../h/riscv.hpp **** 
  41:src/kernel/../../h/riscv.hpp ****     static void executeThreadAttachBodySyscall();
  42:src/kernel/../../h/riscv.hpp **** 
  43:src/kernel/../../h/riscv.hpp ****     static void executeThreadStartSyscall();
  44:src/kernel/../../h/riscv.hpp **** 
  45:src/kernel/../../h/riscv.hpp ****     static void executeSemOpenSyscall();
  46:src/kernel/../../h/riscv.hpp **** 
  47:src/kernel/../../h/riscv.hpp ****     static void executeSemCloseSyscall();
  48:src/kernel/../../h/riscv.hpp **** 
  49:src/kernel/../../h/riscv.hpp ****     static void executeSemWaitSyscall();
  50:src/kernel/../../h/riscv.hpp **** 
  51:src/kernel/../../h/riscv.hpp ****     static void executeSemSignalSyscall();
  52:src/kernel/../../h/riscv.hpp **** 
  53:src/kernel/../../h/riscv.hpp ****     static void executeTimeSleepSyscall();
  54:src/kernel/../../h/riscv.hpp **** 
  55:src/kernel/../../h/riscv.hpp ****     static void executeGetcSyscall();
  56:src/kernel/../../h/riscv.hpp **** 
  57:src/kernel/../../h/riscv.hpp ****     static void executePutcSyscall();
  58:src/kernel/../../h/riscv.hpp **** 
GAS LISTING /tmp/cc8OAIEG.s 			page 8


  59:src/kernel/../../h/riscv.hpp ****     static void executePutcUtilSyscall();
  60:src/kernel/../../h/riscv.hpp **** 
  61:src/kernel/../../h/riscv.hpp ****     static void executeThreadFreeSyscall();
  62:src/kernel/../../h/riscv.hpp **** 
  63:src/kernel/../../h/riscv.hpp ****     static void executeSemaphoreFreeSyscall();
  64:src/kernel/../../h/riscv.hpp **** 
  65:src/kernel/../../h/riscv.hpp ****     static void executeForkSyscall();
  66:src/kernel/../../h/riscv.hpp **** 
  67:src/kernel/../../h/riscv.hpp ****     static void putcWrapper(void *arg);
  68:src/kernel/../../h/riscv.hpp **** 
  69:src/kernel/../../h/riscv.hpp ****     static uint64 r_scause();
  70:src/kernel/../../h/riscv.hpp **** 
  71:src/kernel/../../h/riscv.hpp ****     static void w_scause(uint64 scause);
  72:src/kernel/../../h/riscv.hpp **** 
  73:src/kernel/../../h/riscv.hpp ****     static uint64 r_sepc();
  74:src/kernel/../../h/riscv.hpp **** 
  75:src/kernel/../../h/riscv.hpp ****     static void w_sepc(uint64 sepc);
  76:src/kernel/../../h/riscv.hpp **** 
  77:src/kernel/../../h/riscv.hpp ****     static uint64 r_stvec();
  78:src/kernel/../../h/riscv.hpp **** 
  79:src/kernel/../../h/riscv.hpp ****     static void w_stvec(uint64 stvec);
  80:src/kernel/../../h/riscv.hpp **** 
  81:src/kernel/../../h/riscv.hpp ****     static uint64 r_sstatus();
  82:src/kernel/../../h/riscv.hpp **** 
  83:src/kernel/../../h/riscv.hpp ****     static void w_sstatus(uint64 sstatus);
  84:src/kernel/../../h/riscv.hpp **** 
  85:src/kernel/../../h/riscv.hpp ****     static void ms_sstatus(uint64 mask);
  86:src/kernel/../../h/riscv.hpp **** 
  87:src/kernel/../../h/riscv.hpp ****     static void mc_sstatus(uint64 mask);
  88:src/kernel/../../h/riscv.hpp **** 
  89:src/kernel/../../h/riscv.hpp ****     static void ms_sip(uint64 mask);
  90:src/kernel/../../h/riscv.hpp **** 
  91:src/kernel/../../h/riscv.hpp ****     static void mc_sip(uint64 mask);
  92:src/kernel/../../h/riscv.hpp **** 
  93:src/kernel/../../h/riscv.hpp ****     static void ms_sie(uint64 mask);
  94:src/kernel/../../h/riscv.hpp **** 
  95:src/kernel/../../h/riscv.hpp ****     static void mc_sie(uint64 mask);
  96:src/kernel/../../h/riscv.hpp **** 
  97:src/kernel/../../h/riscv.hpp ****     static void saveA0toSscratch();
  98:src/kernel/../../h/riscv.hpp **** 
  99:src/kernel/../../h/riscv.hpp ****     static void jumpToDesignatedPrivilegeMode();
 100:src/kernel/../../h/riscv.hpp **** 
 101:src/kernel/../../h/riscv.hpp ****     static void popSppSpie();
 102:src/kernel/../../h/riscv.hpp **** 
 103:src/kernel/../../h/riscv.hpp ****     static void popSppSpie2();
 104:src/kernel/../../h/riscv.hpp **** 
 105:src/kernel/../../h/riscv.hpp ****     static void getPC();
 106:src/kernel/../../h/riscv.hpp **** 
 107:src/kernel/../../h/riscv.hpp ****     static void supervisorTrap();      //supervisorTrap defined in /src/supervisorTrap.S
 108:src/kernel/../../h/riscv.hpp **** 
 109:src/kernel/../../h/riscv.hpp ****     static void handleSupervisorTrap();
 110:src/kernel/../../h/riscv.hpp **** 
 111:src/kernel/../../h/riscv.hpp ****     static void enableInterrupts();
 112:src/kernel/../../h/riscv.hpp **** 
 113:src/kernel/../../h/riscv.hpp ****     static void disableInterrupts();
 114:src/kernel/../../h/riscv.hpp **** 
 115:src/kernel/../../h/riscv.hpp ****     static void enableHardwareInterrupts();
GAS LISTING /tmp/cc8OAIEG.s 			page 9


 116:src/kernel/../../h/riscv.hpp **** 
 117:src/kernel/../../h/riscv.hpp ****     static void disableHardwareInterrupts();
 118:src/kernel/../../h/riscv.hpp **** 
 119:src/kernel/../../h/riscv.hpp ****     static void enableTimerInterrupts();
 120:src/kernel/../../h/riscv.hpp **** 
 121:src/kernel/../../h/riscv.hpp ****     static void disableTimerInterrupts();
 122:src/kernel/../../h/riscv.hpp **** 
 123:src/kernel/../../h/riscv.hpp ****     static void handlePageFault(void* PMT,uint64 addr, uint64 mask);
 124:src/kernel/../../h/riscv.hpp **** 
 125:src/kernel/../../h/riscv.hpp ****     static void initialize();
 126:src/kernel/../../h/riscv.hpp **** 
 127:src/kernel/../../h/riscv.hpp ****     static void finalize();
 128:src/kernel/../../h/riscv.hpp **** 
 129:src/kernel/../../h/riscv.hpp ****     static void* getPMT();
 130:src/kernel/../../h/riscv.hpp **** 
 131:src/kernel/../../h/riscv.hpp ****     friend class TCB;
 132:src/kernel/../../h/riscv.hpp **** 
 133:src/kernel/../../h/riscv.hpp ****     friend class System;
 134:src/kernel/../../h/riscv.hpp **** 
 135:src/kernel/../../h/riscv.hpp ****     friend class Scheduler;
 136:src/kernel/../../h/riscv.hpp **** 
 137:src/kernel/../../h/riscv.hpp ****     friend class ConsoleUtil;
 138:src/kernel/../../h/riscv.hpp **** };
 139:src/kernel/../../h/riscv.hpp **** 
 140:src/kernel/../../h/riscv.hpp **** inline uint64 RiscV::r_scause(){
 141:src/kernel/../../h/riscv.hpp ****     uint64 volatile scause;
 142:src/kernel/../../h/riscv.hpp ****     asm("csrr %[scause], scause" : [scause] "=r" (scause));
 143:src/kernel/../../h/riscv.hpp ****     return scause;
 144:src/kernel/../../h/riscv.hpp **** }
 145:src/kernel/../../h/riscv.hpp **** 
 146:src/kernel/../../h/riscv.hpp **** inline void RiscV::w_scause(uint64 scause){
 147:src/kernel/../../h/riscv.hpp ****     asm("csrw scause, %[scause]" : : [scause] "r" (scause));
 148:src/kernel/../../h/riscv.hpp **** }
 149:src/kernel/../../h/riscv.hpp **** 
 150:src/kernel/../../h/riscv.hpp **** inline uint64 RiscV::r_sepc(){
 151:src/kernel/../../h/riscv.hpp ****     uint64 sepc;
 152:src/kernel/../../h/riscv.hpp ****     asm("csrr %[sepc], sepc" : [sepc] "=r" (sepc));
 153:src/kernel/../../h/riscv.hpp ****     return sepc;
 154:src/kernel/../../h/riscv.hpp **** }
 155:src/kernel/../../h/riscv.hpp **** 
 156:src/kernel/../../h/riscv.hpp **** inline void RiscV::w_sepc(uint64 sepc){
 157:src/kernel/../../h/riscv.hpp ****     asm("csrw sepc, %[sepc]" : : [sepc] "r" (sepc));
 158:src/kernel/../../h/riscv.hpp **** }
 159:src/kernel/../../h/riscv.hpp **** 
 160:src/kernel/../../h/riscv.hpp **** inline uint64 RiscV::r_stvec(){
 161:src/kernel/../../h/riscv.hpp ****     uint64 stvec;
 162:src/kernel/../../h/riscv.hpp ****     asm("csrr %[stvec], stvec" : [stvec] "=r" (stvec));
 163:src/kernel/../../h/riscv.hpp ****     return stvec;
 164:src/kernel/../../h/riscv.hpp **** }
 165:src/kernel/../../h/riscv.hpp **** 
 166:src/kernel/../../h/riscv.hpp **** inline void RiscV::w_sstatus(uint64 sstatus){
 167:src/kernel/../../h/riscv.hpp ****     asm("csrw sstatus, %[sstatus]" : : [sstatus] "r" (sstatus));
 168:src/kernel/../../h/riscv.hpp **** }
 169:src/kernel/../../h/riscv.hpp **** 
 170:src/kernel/../../h/riscv.hpp **** inline uint64 RiscV::r_sstatus(){
 171:src/kernel/../../h/riscv.hpp ****     uint64 sstatus;
 172:src/kernel/../../h/riscv.hpp ****     asm("csrr %[sstatus], sstatus" : [sstatus] "=r" (sstatus));
GAS LISTING /tmp/cc8OAIEG.s 			page 10


 173:src/kernel/../../h/riscv.hpp ****     return sstatus;
 174:src/kernel/../../h/riscv.hpp **** }
 175:src/kernel/../../h/riscv.hpp **** 
 176:src/kernel/../../h/riscv.hpp **** inline void RiscV::w_stvec(uint64 stvec){
 177:src/kernel/../../h/riscv.hpp ****     asm("csrw stvec, %[stvec]" : : [stvec] "r" (stvec));
 266              		.loc 2 177 5 is_stmt 1
 267              		.loc 2 177 56 is_stmt 0
 268              	#APP
 269              	# 177 "src/kernel/../../h/riscv.hpp" 1
 178              	}
 270              		csrw stvec, a5
 271              	# 0 "" 2
 272              	.LVL26:
 273              	#NO_APP
 274              	.LBE100:
 275              	.LBE99:
  57:src/kernel/riscv.cpp ****     kmem_init(BUDDY_START_ADDR_CONST, 4096);
 276              		.loc 1 57 5 is_stmt 1
 277              		.loc 1 57 15 is_stmt 0
 278 0164 97070000 		la	a5,HEAP_START_ADDR
 278      83B70700 
 279 016c 03B50700 		ld	a0,0(a5)
 280 0170 1355C500 		srli	a0,a0,12
 281 0174 13052500 		addi	a0,a0,2
 282              		.loc 1 57 14
 283 0178 B7150000 		li	a1,4096
 284 017c 1315C500 		slli	a0,a0,12
 285 0180 97000000 		call	_Z9kmem_initPvi@plt
 285      E7800000 
 286              	.LVL27:
  58:src/kernel/riscv.cpp ****     MemoryAllocator::initialize();
 287              		.loc 1 58 5 is_stmt 1
 288              		.loc 1 58 32 is_stmt 0
 289 0188 97000000 		call	_ZN15MemoryAllocator10initializeEv@plt
 289      E7800000 
 290              	.LVL28:
  59:src/kernel/riscv.cpp ****     Scheduler::initialize();
 291              		.loc 1 59 5 is_stmt 1
 292              		.loc 1 59 26 is_stmt 0
 293 0190 97000000 		call	_ZN9Scheduler10initializeEv@plt
 293      E7800000 
 294              	.LVL29:
  60:src/kernel/riscv.cpp ****     TCB::initialize();
 295              		.loc 1 60 5 is_stmt 1
 296              		.loc 1 60 20 is_stmt 0
 297 0198 97000000 		call	_ZN3TCB10initializeEv@plt
 297      E7800000 
 298              	.LVL30:
  61:src/kernel/riscv.cpp ****     SCB::initialize();
 299              		.loc 1 61 5 is_stmt 1
 300              		.loc 1 61 20 is_stmt 0
 301 01a0 97000000 		call	_ZN3SCB10initializeEv@plt
 301      E7800000 
 302              	.LVL31:
  62:src/kernel/riscv.cpp ****     ConsoleUtil::initialize();
 303              		.loc 1 62 5 is_stmt 1
 304              		.loc 1 62 28 is_stmt 0
GAS LISTING /tmp/cc8OAIEG.s 			page 11


 305 01a8 97000000 		call	_ZN11ConsoleUtil10initializeEv@plt
 305      E7800000 
 306              	.LVL32:
  63:src/kernel/riscv.cpp ****     RiscV::kPMT = RiscV::getPMT();
 307              		.loc 1 63 5 is_stmt 1
 308              		.loc 1 63 32 is_stmt 0
 309 01b0 97000000 		call	_ZN5RiscV6getPMTEv
 309      E7800000 
 310              	.LVL33:
 311              		.loc 1 63 17
 312 01b8 97070000 		sd	a0,.LANCHOR0,a5
 312      23B0A700 
  64:src/kernel/riscv.cpp ****     uint64 uTextStart = (uint64)(&userTextStart);
 313              		.loc 1 64 5 is_stmt 1
 314              		.loc 1 64 12 is_stmt 0
 315 01c0 17090000 		la	s2,userTextStart
 315      03390900 
 316              	.LVL34:
  65:src/kernel/riscv.cpp ****     uint64 eText = (uint64)(&etext);
 317              		.loc 1 65 5 is_stmt 1
 318              		.loc 1 65 12 is_stmt 0
 319 01c8 97040000 		la	s1,etext
 319      83B40400 
 320              	.LVL35:
  66:src/kernel/riscv.cpp ****     uint64 kTextStart = (uint64)(&kernelTextStart);
 321              		.loc 1 66 5 is_stmt 1
 322              		.loc 1 66 12 is_stmt 0
 323 01d0 970A0000 		la	s5,kernelTextStart
 323      83BA0A00 
 324              	.LVL36:
  67:src/kernel/riscv.cpp ****     uint64 kDataStart = (uint64)(&kernelDataStart);
 325              		.loc 1 67 5 is_stmt 1
 326              		.loc 1 67 12 is_stmt 0
 327 01d8 170A0000 		la	s4,kernelDataStart
 327      033A0A00 
 328              	.LVL37:
  68:src/kernel/riscv.cpp **** 
  69:src/kernel/riscv.cpp ****     for(uint64 i=0x80000000;i< uTextStart;i+=4096) {
 329              		.loc 1 69 5 is_stmt 1
 330              	.LBB101:
 331              		.loc 1 69 16 is_stmt 0
 332 01e0 93091000 		li	s3,1
 333 01e4 9399F901 		slli	s3,s3,31
 334              	.LVL38:
 335              	.L16:
 336              		.loc 1 69 30 is_stmt 1 discriminator 3
 337 01e8 63F42903 		bgeu	s3,s2,.L15
  70:src/kernel/riscv.cpp ****         handlePageFault(kPMT,i, 0xb);
 338              		.loc 1 70 9 discriminator 2
 339              		.loc 1 70 24 is_stmt 0 discriminator 2
 340 01ec 1306B000 		li	a2,11
 341 01f0 93850900 		mv	a1,s3
 342 01f4 17050000 		ld	a0,.LANCHOR0
 342      03350500 
 343 01fc 97000000 		call	_ZN5RiscV15handlePageFaultEPvmm
 343      E7800000 
 344              	.LVL39:
GAS LISTING /tmp/cc8OAIEG.s 			page 12


  69:src/kernel/riscv.cpp ****         handlePageFault(kPMT,i, 0xb);
 345              		.loc 1 69 5 is_stmt 1 discriminator 2
  69:src/kernel/riscv.cpp ****         handlePageFault(kPMT,i, 0xb);
 346              		.loc 1 69 44 is_stmt 0 discriminator 2
 347 0204 B7170000 		li	a5,4096
 348 0208 B389F900 		add	s3,s3,a5
 349              	.LVL40:
  69:src/kernel/riscv.cpp ****         handlePageFault(kPMT,i, 0xb);
 350              		.loc 1 69 5 discriminator 2
 351 020c 6FF0DFFD 		j	.L16
 352              	.L15:
 353              	.LVL41:
 354              	.LBE101:
 355              	.LBB102:
  71:src/kernel/riscv.cpp ****     }
  72:src/kernel/riscv.cpp **** 
  73:src/kernel/riscv.cpp ****     for(uint64 i=uTextStart;i<eText;i+=4096) {
 356              		.loc 1 73 30 is_stmt 1 discriminator 3
 357 0210 63749902 		bgeu	s2,s1,.L17
  74:src/kernel/riscv.cpp ****         handlePageFault(kPMT,i, 0x1b);
 358              		.loc 1 74 9 discriminator 2
 359              		.loc 1 74 24 is_stmt 0 discriminator 2
 360 0214 1306B001 		li	a2,27
 361 0218 93050900 		mv	a1,s2
 362 021c 17050000 		ld	a0,.LANCHOR0
 362      03350500 
 363 0224 97000000 		call	_ZN5RiscV15handlePageFaultEPvmm
 363      E7800000 
 364              	.LVL42:
  73:src/kernel/riscv.cpp ****         handlePageFault(kPMT,i, 0x1b);
 365              		.loc 1 73 5 is_stmt 1 discriminator 2
  73:src/kernel/riscv.cpp ****         handlePageFault(kPMT,i, 0x1b);
 366              		.loc 1 73 38 is_stmt 0 discriminator 2
 367 022c B7170000 		li	a5,4096
 368 0230 3309F900 		add	s2,s2,a5
 369              	.LVL43:
  73:src/kernel/riscv.cpp ****         handlePageFault(kPMT,i, 0x1b);
 370              		.loc 1 73 5 discriminator 2
 371 0234 6FF0DFFD 		j	.L15
 372              	.L17:
 373              	.LVL44:
 374              	.LBE102:
 375              	.LBB103:
  75:src/kernel/riscv.cpp ****     }
  76:src/kernel/riscv.cpp **** 
  77:src/kernel/riscv.cpp ****     for(uint64 i = (uint64)(&etext); i<kTextStart;i+=4096){
 376              		.loc 1 77 39 is_stmt 1 discriminator 3
 377 0238 63F45403 		bgeu	s1,s5,.L23
  78:src/kernel/riscv.cpp ****         handlePageFault(kPMT,i, 0x17);
 378              		.loc 1 78 9 discriminator 2
 379              		.loc 1 78 24 is_stmt 0 discriminator 2
 380 023c 13067001 		li	a2,23
 381 0240 93850400 		mv	a1,s1
 382 0244 17050000 		ld	a0,.LANCHOR0
 382      03350500 
 383 024c 97000000 		call	_ZN5RiscV15handlePageFaultEPvmm
 383      E7800000 
GAS LISTING /tmp/cc8OAIEG.s 			page 13


 384              	.LVL45:
  77:src/kernel/riscv.cpp ****         handlePageFault(kPMT,i, 0x17);
 385              		.loc 1 77 5 is_stmt 1 discriminator 2
  77:src/kernel/riscv.cpp ****         handlePageFault(kPMT,i, 0x17);
 386              		.loc 1 77 52 is_stmt 0 discriminator 2
 387 0254 B7170000 		li	a5,4096
 388 0258 B384F400 		add	s1,s1,a5
 389              	.LVL46:
  77:src/kernel/riscv.cpp ****         handlePageFault(kPMT,i, 0x17);
 390              		.loc 1 77 5 discriminator 2
 391 025c 6FF0DFFD 		j	.L17
 392              	.L23:
 393              	.LBE103:
 394              	.LBB104:
  79:src/kernel/riscv.cpp ****     }
  80:src/kernel/riscv.cpp **** 
  81:src/kernel/riscv.cpp ****     for(uint64 i=(uint64)(&kernelTextStart);i<kDataStart;i+=4096) {
 395              		.loc 1 81 16
 396 0260 93840A00 		mv	s1,s5
 397              	.LVL47:
 398              	.L18:
 399              		.loc 1 81 46 is_stmt 1 discriminator 3
 400 0264 63F44403 		bgeu	s1,s4,.L24
  82:src/kernel/riscv.cpp ****         handlePageFault(kPMT,i, 0xb);
 401              		.loc 1 82 9 discriminator 2
 402              		.loc 1 82 24 is_stmt 0 discriminator 2
 403 0268 1306B000 		li	a2,11
 404 026c 93850400 		mv	a1,s1
 405 0270 17050000 		ld	a0,.LANCHOR0
 405      03350500 
 406 0278 97000000 		call	_ZN5RiscV15handlePageFaultEPvmm
 406      E7800000 
 407              	.LVL48:
  81:src/kernel/riscv.cpp ****         handlePageFault(kPMT,i, 0xb);
 408              		.loc 1 81 5 is_stmt 1 discriminator 2
  81:src/kernel/riscv.cpp ****         handlePageFault(kPMT,i, 0xb);
 409              		.loc 1 81 59 is_stmt 0 discriminator 2
 410 0280 B7170000 		li	a5,4096
 411 0284 B384F400 		add	s1,s1,a5
 412              	.LVL49:
  81:src/kernel/riscv.cpp ****         handlePageFault(kPMT,i, 0xb);
 413              		.loc 1 81 5 discriminator 2
 414 0288 6FF0DFFD 		j	.L18
 415              	.L24:
 416              	.LBE104:
 417              	.LBB105:
  83:src/kernel/riscv.cpp ****     }
  84:src/kernel/riscv.cpp **** 
  85:src/kernel/riscv.cpp ****     for(uint64 i=(uint64)&kernelDataStart;i<(uint64)HEAP_START_ADDR;i+=4096) {
 418              		.loc 1 85 16
 419 028c 93040A00 		mv	s1,s4
 420              	.LVL50:
 421              	.L19:
 422              		.loc 1 85 44 is_stmt 1 discriminator 3
 423 0290 97070000 		la	a5,HEAP_START_ADDR
 423      83B70700 
 424 0298 03B90700 		ld	s2,0(a5)
GAS LISTING /tmp/cc8OAIEG.s 			page 14


 425 029c 63F42403 		bleu	s2,s1,.L20
  86:src/kernel/riscv.cpp ****         handlePageFault(kPMT,i, 0x7);
 426              		.loc 1 86 9 discriminator 2
 427              		.loc 1 86 24 is_stmt 0 discriminator 2
 428 02a0 13067000 		li	a2,7
 429 02a4 93850400 		mv	a1,s1
 430 02a8 17050000 		ld	a0,.LANCHOR0
 430      03350500 
 431 02b0 97000000 		call	_ZN5RiscV15handlePageFaultEPvmm
 431      E7800000 
 432              	.LVL51:
  85:src/kernel/riscv.cpp ****         handlePageFault(kPMT,i, 0x7);
 433              		.loc 1 85 5 is_stmt 1 discriminator 2
  85:src/kernel/riscv.cpp ****         handlePageFault(kPMT,i, 0x7);
 434              		.loc 1 85 70 is_stmt 0 discriminator 2
 435 02b8 B7170000 		li	a5,4096
 436 02bc B384F400 		add	s1,s1,a5
 437              	.LVL52:
  85:src/kernel/riscv.cpp ****         handlePageFault(kPMT,i, 0x7);
 438              		.loc 1 85 5 discriminator 2
 439 02c0 6FF01FFD 		j	.L19
 440              	.LVL53:
 441              	.L20:
 442              	.LBE105:
 443              	.LBB106:
  87:src/kernel/riscv.cpp ****     }
  88:src/kernel/riscv.cpp **** 
  89:src/kernel/riscv.cpp ****     for(uint64 i=(uint64)HEAP_START_ADDR;i<(uint64)Buddy::BUDDY_START_ADDR + (Buddy::BLOCKS_AVAILAB
 444              		.loc 1 89 43 is_stmt 1 discriminator 3
 445              		.loc 1 89 102 is_stmt 0 discriminator 3
 446 02c4 97070000 		la	a5,_ZN5Buddy16BLOCKS_AVAILABLEE
 446      83B70700 
 447 02cc 83B40700 		ld	s1,0(a5)
 448 02d0 9397C400 		slli	a5,s1,12
 449              		.loc 1 89 76 discriminator 3
 450 02d4 17070000 		la	a4,_ZN5Buddy16BUDDY_START_ADDRE
 450      03370700 
 451 02dc 83340700 		ld	s1,0(a4)
 452 02e0 B384F400 		add	s1,s1,a5
 453              		.loc 1 89 43 discriminator 3
 454 02e4 63749904 		bleu	s1,s2,.L21
  90:src/kernel/riscv.cpp ****         handlePageFault(kPMT,i, 0x7);
 455              		.loc 1 90 9 is_stmt 1 discriminator 2
 456              		.loc 1 90 24 is_stmt 0 discriminator 2
 457 02e8 13067000 		li	a2,7
 458 02ec 93050900 		mv	a1,s2
 459 02f0 17050000 		ld	a0,.LANCHOR0
 459      03350500 
 460 02f8 97000000 		call	_ZN5RiscV15handlePageFaultEPvmm
 460      E7800000 
 461              	.LVL54:
  89:src/kernel/riscv.cpp ****         handlePageFault(kPMT,i, 0x7);
 462              		.loc 1 89 5 is_stmt 1 discriminator 2
  89:src/kernel/riscv.cpp ****         handlePageFault(kPMT,i, 0x7);
 463              		.loc 1 89 109 is_stmt 0 discriminator 2
 464 0300 B7170000 		li	a5,4096
 465 0304 3309F900 		add	s2,s2,a5
GAS LISTING /tmp/cc8OAIEG.s 			page 15


 466              	.LVL55:
  89:src/kernel/riscv.cpp ****         handlePageFault(kPMT,i, 0x7);
 467              		.loc 1 89 5 discriminator 2
 468 0308 6FF0DFFB 		j	.L20
 469              	.LVL56:
 470              	.L26:
 471              	.LBE106:
 472              	.LBB107:
  91:src/kernel/riscv.cpp ****     }
  92:src/kernel/riscv.cpp **** 
  93:src/kernel/riscv.cpp ****     for(uint64 i = (uint64)Buddy::BUDDY_START_ADDR + (Buddy::BLOCKS_AVAILABLE<<12);i<(uint64)HEAP_E
  94:src/kernel/riscv.cpp ****         handlePageFault(kPMT,i, 0x17);
 473              		.loc 1 94 9 is_stmt 1 discriminator 2
 474              		.loc 1 94 24 is_stmt 0 discriminator 2
 475 030c 13067001 		li	a2,23
 476 0310 93850400 		mv	a1,s1
 477 0314 17050000 		ld	a0,.LANCHOR0
 477      03350500 
 478 031c 97000000 		call	_ZN5RiscV15handlePageFaultEPvmm
 478      E7800000 
 479              	.LVL57:
  93:src/kernel/riscv.cpp ****         handlePageFault(kPMT,i, 0x17);
 480              		.loc 1 93 5 is_stmt 1 discriminator 2
  93:src/kernel/riscv.cpp ****         handlePageFault(kPMT,i, 0x17);
 481              		.loc 1 93 109 is_stmt 0 discriminator 2
 482 0324 B7170000 		li	a5,4096
 483 0328 B384F400 		add	s1,s1,a5
 484              	.LVL58:
 485              	.L21:
  93:src/kernel/riscv.cpp ****         handlePageFault(kPMT,i, 0x17);
 486              		.loc 1 93 85 is_stmt 1 discriminator 3
 487 032c 97070000 		la	a5,HEAP_END_ADDR
 487      83B70700 
 488 0334 83B70700 		ld	a5,0(a5)
 489 0338 E3EAF4FC 		bgtu	a5,s1,.L26
 490              	.LBE107:
  95:src/kernel/riscv.cpp ****     }
  96:src/kernel/riscv.cpp **** 
  97:src/kernel/riscv.cpp **** 
  98:src/kernel/riscv.cpp ****     RiscV::ms_sstatus(1<<18);
 491              		.loc 1 98 5
 492              	.LVL59:
 493              	.LBB108:
 494              	.LBB109:
 179:src/kernel/../../h/riscv.hpp **** 
 180:src/kernel/../../h/riscv.hpp **** inline void  RiscV::ms_sstatus(uint64 mask) {
 181:src/kernel/../../h/riscv.hpp ****     asm("csrs sstatus, %[mask]" : : [mask] "r" (mask));
 495              		.loc 2 181 5
 496              		.loc 2 181 55 is_stmt 0
 497 033c B7070400 		li	a5,262144
 498              	#APP
 499              	# 181 "src/kernel/../../h/riscv.hpp" 1
 182              	}
 500              		csrs sstatus, a5
 501              	# 0 "" 2
 502              	.LVL60:
 503              	#NO_APP
GAS LISTING /tmp/cc8OAIEG.s 			page 16


 504              	.LBE109:
 505              	.LBE108:
  99:src/kernel/riscv.cpp ****     handlePageFault(kPMT, (uint64)CONSOLE_RX_DATA,0xf);
 506              		.loc 1 99 5 is_stmt 1
 507              		.loc 1 99 20 is_stmt 0
 508 0344 97040000 		lla	s1,.LANCHOR0
 508      93840400 
 509              	.LVL61:
 510 034c 1306F000 		li	a2,15
 511 0350 97070000 		la	a5,CONSOLE_RX_DATA
 511      83B70700 
 512 0358 83B50700 		ld	a1,0(a5)
 513 035c 03B50400 		ld	a0,0(s1)
 514 0360 97000000 		call	_ZN5RiscV15handlePageFaultEPvmm
 514      E7800000 
 515              	.LVL62:
 100:src/kernel/riscv.cpp ****     handlePageFault(kPMT, (uint64)CONSOLE_TX_DATA,0xf);
 516              		.loc 1 100 5 is_stmt 1
 517              		.loc 1 100 20 is_stmt 0
 518 0368 1306F000 		li	a2,15
 519 036c 97070000 		la	a5,CONSOLE_TX_DATA
 519      83B70700 
 520 0374 83B50700 		ld	a1,0(a5)
 521 0378 03B50400 		ld	a0,0(s1)
 522 037c 97000000 		call	_ZN5RiscV15handlePageFaultEPvmm
 522      E7800000 
 523              	.LVL63:
 101:src/kernel/riscv.cpp ****     handlePageFault(kPMT, (uint64)CONSOLE_STATUS,0xf);
 524              		.loc 1 101 5 is_stmt 1
 525              		.loc 1 101 20 is_stmt 0
 526 0384 1306F000 		li	a2,15
 527 0388 97070000 		la	a5,CONSOLE_STATUS
 527      83B70700 
 528 0390 83B50700 		ld	a1,0(a5)
 529 0394 03B50400 		ld	a0,0(s1)
 530 0398 97000000 		call	_ZN5RiscV15handlePageFaultEPvmm
 530      E7800000 
 531              	.LVL64:
 102:src/kernel/riscv.cpp ****     handlePageFault(kPMT, (uint64)0xc201004,0xf);
 532              		.loc 1 102 5 is_stmt 1
 533              		.loc 1 102 20 is_stmt 0
 534 03a0 1306F000 		li	a2,15
 535 03a4 B715200C 		li	a1,203427840
 536 03a8 93854500 		addi	a1,a1,4
 537 03ac 03B50400 		ld	a0,0(s1)
 538 03b0 97000000 		call	_ZN5RiscV15handlePageFaultEPvmm
 538      E7800000 
 539              	.LVL65:
 103:src/kernel/riscv.cpp **** 
 104:src/kernel/riscv.cpp ****     ConsoleUtil::print("kTextStart", kTextStart, "\n");
 540              		.loc 1 104 5 is_stmt 1
 541              		.loc 1 104 23 is_stmt 0
 542 03b8 93060001 		li	a3,16
 543 03bc 17060000 		lla	a2,.LC0
 543      13060600 
 544 03c4 9B850A00 		sext.w	a1,s5
 545 03c8 17050000 		lla	a0,.LC1
GAS LISTING /tmp/cc8OAIEG.s 			page 17


 545      13050500 
 546 03d0 97000000 		call	_ZN11ConsoleUtil5printEPKciS1_i@plt
 546      E7800000 
 547              	.LVL66:
 105:src/kernel/riscv.cpp ****     ConsoleUtil::print("kDataStart", kDataStart, "\n");
 548              		.loc 1 105 5 is_stmt 1
 549              		.loc 1 105 23 is_stmt 0
 550 03d8 93060001 		li	a3,16
 551 03dc 17060000 		lla	a2,.LC0
 551      13060600 
 552 03e4 9B050A00 		sext.w	a1,s4
 553 03e8 17050000 		lla	a0,.LC2
 553      13050500 
 554 03f0 97000000 		call	_ZN11ConsoleUtil5printEPKciS1_i@plt
 554      E7800000 
 555              	.LVL67:
 106:src/kernel/riscv.cpp ****     ConsoleUtil::print("kTextStart", (uint64)HEAP_START_ADDR, "\n");
 556              		.loc 1 106 5 is_stmt 1
 557              		.loc 1 106 23 is_stmt 0
 558 03f8 93060001 		li	a3,16
 559 03fc 17060000 		lla	a2,.LC0
 559      13060600 
 560 0404 97070000 		la	a5,HEAP_START_ADDR
 560      83B70700 
 561 040c 83A50700 		lw	a1,0(a5)
 562 0410 17050000 		lla	a0,.LC1
 562      13050500 
 563 0418 97000000 		call	_ZN11ConsoleUtil5printEPKciS1_i@plt
 563      E7800000 
 564              	.LVL68:
 107:src/kernel/riscv.cpp **** 
 108:src/kernel/riscv.cpp ****     uint64 satp = ((uint64)1<<63) | ((uint64)(RiscV::kPMT)>>12);
 565              		.loc 1 108 5 is_stmt 1
 566              		.loc 1 108 59 is_stmt 0
 567 0420 83B70400 		ld	a5,0(s1)
 568 0424 93D7C700 		srli	a5,a5,12
 569              		.loc 1 108 12
 570 0428 1307F0FF 		li	a4,-1
 571 042c 1317F703 		slli	a4,a4,63
 572 0430 B3E7E700 		or	a5,a5,a4
 573              	.LVL69:
 109:src/kernel/riscv.cpp ****     asm("csrw satp, %[satp]" : : [satp] "r" (satp));
 574              		.loc 1 109 5 is_stmt 1
 575              		.loc 1 109 52 is_stmt 0
 576              	#APP
 577              	# 109 "src/kernel/riscv.cpp" 1
 110              	
 111:src/kernel/riscv.cpp ****     RiscV::enableInterrupts();
 578              		csrw satp, a5
 579              	# 0 "" 2
 580              		.loc 1 111 5 is_stmt 1
 183:src/kernel/../../h/riscv.hpp **** 
 184:src/kernel/../../h/riscv.hpp **** inline void  RiscV::mc_sstatus(uint64 mask) {
 185:src/kernel/../../h/riscv.hpp ****     asm("csrc sstatus, %[mask]" : : [mask] "r" (mask));
 186:src/kernel/../../h/riscv.hpp **** }
 187:src/kernel/../../h/riscv.hpp **** 
 188:src/kernel/../../h/riscv.hpp **** inline void  RiscV::ms_sip(uint64 mask) {
GAS LISTING /tmp/cc8OAIEG.s 			page 18


 189:src/kernel/../../h/riscv.hpp ****     asm("csrs sip, %[mask]" : : [mask] "r" (mask));
 190:src/kernel/../../h/riscv.hpp **** }
 191:src/kernel/../../h/riscv.hpp **** 
 192:src/kernel/../../h/riscv.hpp **** inline void  RiscV::mc_sip(uint64 mask) {
 193:src/kernel/../../h/riscv.hpp ****     asm("csrc sip, %[mask]" : : [mask] "r" (mask));
 194:src/kernel/../../h/riscv.hpp **** }
 195:src/kernel/../../h/riscv.hpp **** 
 196:src/kernel/../../h/riscv.hpp **** inline void  RiscV::ms_sie(uint64 mask) {
 197:src/kernel/../../h/riscv.hpp ****     asm("csrs sie, %[mask]" : : [mask] "r" (mask));
 198:src/kernel/../../h/riscv.hpp **** }
 199:src/kernel/../../h/riscv.hpp **** 
 200:src/kernel/../../h/riscv.hpp **** inline void  RiscV::mc_sie(uint64 mask){
 201:src/kernel/../../h/riscv.hpp ****     asm("csrc sie, %[mask]" : : [mask] "r" (mask));
 202:src/kernel/../../h/riscv.hpp **** }
 203:src/kernel/../../h/riscv.hpp **** 
 204:src/kernel/../../h/riscv.hpp **** inline void RiscV::enableInterrupts() {
 205:src/kernel/../../h/riscv.hpp ****     RiscV::ms_sie(SIP_SSIE);
 581              		.loc 2 205 5
 582              	.LVL70:
 583              	#NO_APP
 584              	.LBB110:
 585              	.LBB111:
 586              	.LBB112:
 197:src/kernel/../../h/riscv.hpp **** }
 587              		.loc 2 197 5
 197:src/kernel/../../h/riscv.hpp **** }
 588              		.loc 2 197 51 is_stmt 0
 589 0438 93072000 		li	a5,2
 590              	.LVL71:
 591              	#APP
 592              	# 197 "src/kernel/../../h/riscv.hpp" 1
 593              		csrs sie, a5
 594              	# 0 "" 2
 595              	.LVL72:
 596              	#NO_APP
 597              	.LBE112:
 598              	.LBE111:
 599              	.LBE110:
 206:src/kernel/../../h/riscv.hpp ****     RiscV::ms_sie(SIP_SEIE);
 600              		.loc 2 206 5 is_stmt 1
 601              	.LBB117:
 602              	.LBB113:
 603              	.LBB114:
 197:src/kernel/../../h/riscv.hpp **** }
 604              		.loc 2 197 5
 197:src/kernel/../../h/riscv.hpp **** }
 605              		.loc 2 197 51 is_stmt 0
 606 0440 13070020 		li	a4,512
 607              	.LVL73:
 608              	#APP
 609              	# 197 "src/kernel/../../h/riscv.hpp" 1
 610              		csrs sie, a4
 611              	# 0 "" 2
 612              	.LVL74:
 613              	#NO_APP
 614              	.LBE114:
 615              	.LBE113:
GAS LISTING /tmp/cc8OAIEG.s 			page 19


 616              	.LBE117:
 207:src/kernel/../../h/riscv.hpp ****     RiscV::ms_sstatus(SSTATUS_SIE);
 617              		.loc 2 207 5 is_stmt 1
 618              	.LBB118:
 619              	.LBB115:
 620              	.LBB116:
 181:src/kernel/../../h/riscv.hpp **** }
 621              		.loc 2 181 5
 181:src/kernel/../../h/riscv.hpp **** }
 622              		.loc 2 181 55 is_stmt 0
 623              	#APP
 624              	# 181 "src/kernel/../../h/riscv.hpp" 1
 625              		csrs sstatus, a5
 626              	# 0 "" 2
 627              	.LVL75:
 628              	#NO_APP
 629              	.LBE116:
 630              	.LBE115:
 631              	.LBE118:
 112:src/kernel/riscv.cpp **** //    RiscV::enableHardwareInterrupts();
 113:src/kernel/riscv.cpp **** }
 632              		.loc 1 113 1
 633 044c 83308103 		ld	ra,56(sp)
 634              		.cfi_restore 1
 635 0450 03340103 		ld	s0,48(sp)
 636              		.cfi_restore 8
 637              		.cfi_def_cfa 2, 64
 638 0454 83348102 		ld	s1,40(sp)
 639              		.cfi_restore 9
 640 0458 03390102 		ld	s2,32(sp)
 641              		.cfi_restore 18
 642              	.LVL76:
 643 045c 83398101 		ld	s3,24(sp)
 644              		.cfi_restore 19
 645              	.LVL77:
 646 0460 033A0101 		ld	s4,16(sp)
 647              		.cfi_restore 20
 648 0464 833A8100 		ld	s5,8(sp)
 649              		.cfi_restore 21
 650 0468 13010104 		addi	sp,sp,64
 651              		.cfi_def_cfa_offset 0
 652 046c 67800000 		jr	ra
 653              		.cfi_endproc
 654              	.LFE44:
 656              		.align	2
 657              		.globl	_ZN5RiscV10popSppSpieEv
 659              	_ZN5RiscV10popSppSpieEv:
 660              	.LFB45:
 114:src/kernel/riscv.cpp **** 
 115:src/kernel/riscv.cpp **** //get previous privilege and previous interrupt status
 116:src/kernel/riscv.cpp **** void RiscV::popSppSpie() {
 661              		.loc 1 116 26 is_stmt 1
 662              		.cfi_startproc
 663 0470 130101FF 		addi	sp,sp,-16
 664              		.cfi_def_cfa_offset 16
 665 0474 23348100 		sd	s0,8(sp)
 666              		.cfi_offset 8, -8
GAS LISTING /tmp/cc8OAIEG.s 			page 20


 667 0478 13040101 		addi	s0,sp,16
 668              		.cfi_def_cfa 8, 0
 117:src/kernel/riscv.cpp ****     asm("csrw sepc, ra");
 669              		.loc 1 117 5
 670              		.loc 1 117 25 is_stmt 0
 671              	#APP
 672              	# 117 "src/kernel/riscv.cpp" 1
 118              	    asm("sret");
 673              		csrw sepc, ra
 674              	# 0 "" 2
 675              		.loc 1 118 5 is_stmt 1
 676              		.loc 1 118 16 is_stmt 0
 677              	# 118 "src/kernel/riscv.cpp" 1
 119              	}
 678              		sret
 679              	# 0 "" 2
 680              		.loc 1 119 1
 681              	#NO_APP
 682 0484 03348100 		ld	s0,8(sp)
 683              		.cfi_restore 8
 684              		.cfi_def_cfa 2, 16
 685 0488 13010101 		addi	sp,sp,16
 686              		.cfi_def_cfa_offset 0
 687 048c 67800000 		jr	ra
 688              		.cfi_endproc
 689              	.LFE45:
 691              		.align	2
 692              		.globl	_ZN5RiscV11popSppSpie2Ev
 694              	_ZN5RiscV11popSppSpie2Ev:
 695              	.LFB46:
 120:src/kernel/riscv.cpp **** 
 121:src/kernel/riscv.cpp **** void RiscV::popSppSpie2() {
 696              		.loc 1 121 27 is_stmt 1
 697              		.cfi_startproc
 698 0490 130101FF 		addi	sp,sp,-16
 699              		.cfi_def_cfa_offset 16
 700 0494 23348100 		sd	s0,8(sp)
 701              		.cfi_offset 8, -8
 702 0498 13040101 		addi	s0,sp,16
 703              		.cfi_def_cfa 8, 0
 122:src/kernel/riscv.cpp ****     uint64 ra = 0;
 704              		.loc 1 122 5
 705              	.LVL78:
 123:src/kernel/riscv.cpp ****     if(TCB::running->mode == TCB::Mode::SUPERVISOR)
 706              		.loc 1 123 5
 707              		.loc 1 123 22 is_stmt 0
 708 049c 97070000 		la	a5,_ZN3TCB7runningE
 708      83B70700 
 709 04a4 83B70700 		ld	a5,0(a5)
 710 04a8 03A74701 		lw	a4,20(a5)
 711              		.loc 1 123 5
 712 04ac 93071000 		li	a5,1
 713 04b0 6300F702 		beq	a4,a5,.L33
 124:src/kernel/riscv.cpp ****         asm("csrw sepc, ra");
 125:src/kernel/riscv.cpp ****     else
 126:src/kernel/riscv.cpp ****     {
 127:src/kernel/riscv.cpp ****         ra = (uint64)TCBWrapper::tcbWrap;
GAS LISTING /tmp/cc8OAIEG.s 			page 21


 714              		.loc 1 127 9 is_stmt 1
 715              		.loc 1 127 12 is_stmt 0
 716 04b4 97070000 		la	a5,_ZN10TCBWrapper7tcbWrapEP3TCB
 716      83B70700 
 717              	.LVL79:
 128:src/kernel/riscv.cpp ****         asm("csrw sepc, %[ra]" : : [ra] "r" (ra));
 718              		.loc 1 128 9 is_stmt 1
 719              		.loc 1 128 50 is_stmt 0
 720              	#APP
 721              	# 128 "src/kernel/riscv.cpp" 1
 129              	    }
 722              		csrw sepc, a5
 723              	# 0 "" 2
 724              	.LVL80:
 725              	#NO_APP
 726              	.L31:
 130:src/kernel/riscv.cpp ****     asm("sret");
 727              		.loc 1 130 5 is_stmt 1
 728              		.loc 1 130 16 is_stmt 0
 729              	#APP
 730              	# 130 "src/kernel/riscv.cpp" 1
 131              	}
 731              		sret
 732              	# 0 "" 2
 733              		.loc 1 131 1
 734              	#NO_APP
 735 04c4 03348100 		ld	s0,8(sp)
 736              		.cfi_remember_state
 737              		.cfi_restore 8
 738              		.cfi_def_cfa 2, 16
 739 04c8 13010101 		addi	sp,sp,16
 740              		.cfi_def_cfa_offset 0
 741 04cc 67800000 		jr	ra
 742              	.LVL81:
 743              	.L33:
 744              		.cfi_restore_state
 124:src/kernel/riscv.cpp ****         asm("csrw sepc, ra");
 745              		.loc 1 124 9 is_stmt 1
 124:src/kernel/riscv.cpp ****         asm("csrw sepc, ra");
 746              		.loc 1 124 29 is_stmt 0
 747              	#APP
 748              	# 124 "src/kernel/riscv.cpp" 1
 749              		csrw sepc, ra
 750              	# 0 "" 2
 751              	#NO_APP
 752 04d4 6FF0DFFE 		j	.L31
 753              		.cfi_endproc
 754              	.LFE46:
 756              		.align	2
 757              		.globl	_ZN5RiscV28executeThreadDispatchSyscallEv
 759              	_ZN5RiscV28executeThreadDispatchSyscallEv:
 760              	.LFB54:
 132:src/kernel/riscv.cpp **** 
 133:src/kernel/riscv.cpp **** //handler function for traps
 134:src/kernel/riscv.cpp **** void RiscV::handleSupervisorTrap() {
 135:src/kernel/riscv.cpp **** 
 136:src/kernel/riscv.cpp ****     //read scause
GAS LISTING /tmp/cc8OAIEG.s 			page 22


 137:src/kernel/riscv.cpp ****     uint64 volatile scause = RiscV::r_scause();
 138:src/kernel/riscv.cpp **** 
 139:src/kernel/riscv.cpp ****     asm("csrr %[sscratch], sscratch" : [sscratch] "=r" (TCB::running->a0Location));
 140:src/kernel/riscv.cpp **** 
 141:src/kernel/riscv.cpp ****     //interrupt from ecall (both user and supervisor mode)
 142:src/kernel/riscv.cpp ****     if(scause == 0x09 || scause == 0x08) {
 143:src/kernel/riscv.cpp **** 
 144:src/kernel/riscv.cpp ****         //save sstatus and sepc
 145:src/kernel/riscv.cpp ****         //sepc should be increased by 4, since this is an ecall trap
 146:src/kernel/riscv.cpp ****         uint64 volatile sstatus = RiscV::r_sstatus();
 147:src/kernel/riscv.cpp ****         uint64 volatile sepc = RiscV::r_sepc()+4;
 148:src/kernel/riscv.cpp ****         TCB::running->sepc = sepc;
 149:src/kernel/riscv.cpp ****         TCB::running->sstatus = sstatus;
 150:src/kernel/riscv.cpp **** 
 151:src/kernel/riscv.cpp ****         //get the syscall ID from a0
 152:src/kernel/riscv.cpp ****         uint64 syscallID;
 153:src/kernel/riscv.cpp ****         asm("mv %[syscallID], a0" : [syscallID] "=r" (syscallID));
 154:src/kernel/riscv.cpp **** 
 155:src/kernel/riscv.cpp ****         switch(syscallID){
 156:src/kernel/riscv.cpp ****             case 0x01 : executeMemAllocSyscall();break;
 157:src/kernel/riscv.cpp ****             case 0x02 : executeMemFreeSyscall();break;
 158:src/kernel/riscv.cpp ****             case 0x11 : executeThreadCreateSyscall();break;
 159:src/kernel/riscv.cpp ****             case 0x12 : executeThreadExitSyscall();break;
 160:src/kernel/riscv.cpp ****             case 0x13 : executeThreadDispatchSyscall();break;
 161:src/kernel/riscv.cpp ****             case 0x14 : executeThreadAttachBodySyscall();break;
 162:src/kernel/riscv.cpp ****             case 0x15 : executeThreadStartSyscall();break;
 163:src/kernel/riscv.cpp ****             case 0x21 : executeSemOpenSyscall();break;
 164:src/kernel/riscv.cpp ****             case 0x22 : executeSemCloseSyscall();break;
 165:src/kernel/riscv.cpp ****             case 0x23 : executeSemWaitSyscall();break;
 166:src/kernel/riscv.cpp ****             case 0x24 : executeSemSignalSyscall();break;
 167:src/kernel/riscv.cpp ****             case 0x31 : executeTimeSleepSyscall();break;
 168:src/kernel/riscv.cpp ****             case 0x41 : executeGetcSyscall();break;
 169:src/kernel/riscv.cpp ****             case 0x42 : executePutcSyscall();break;
 170:src/kernel/riscv.cpp ****             case 0x43 : executePutcUtilSyscall();break;
 171:src/kernel/riscv.cpp ****             case 0x51 : executeThreadFreeSyscall();break;
 172:src/kernel/riscv.cpp ****             case 0x52 : executeSemaphoreFreeSyscall();break;
 173:src/kernel/riscv.cpp ****             //in this case we need to save SP and PC at this point so that newly created thread
 174:src/kernel/riscv.cpp ****             //can return to this point and exit trap routine regularly
 175:src/kernel/riscv.cpp ****             //note that getPC() returns PC incremented by 8 to skip executeForkSyscall
 176:src/kernel/riscv.cpp ****             case 0x61 : asm("mv %[sp], sp" : [sp] "=r"(TCB::currentSP));
 177:src/kernel/riscv.cpp ****                         RiscV::getPC();
 178:src/kernel/riscv.cpp ****                         executeForkSyscall();
 179:src/kernel/riscv.cpp ****                         break;
 180:src/kernel/riscv.cpp ****         }
 181:src/kernel/riscv.cpp **** 
 182:src/kernel/riscv.cpp ****         //write previously save sstatus and incremented sepc
 183:src/kernel/riscv.cpp ****         RiscV::w_sstatus(TCB::running->sstatus);
 184:src/kernel/riscv.cpp ****         RiscV::w_sepc(TCB::running->sepc);
 185:src/kernel/riscv.cpp ****     }
 186:src/kernel/riscv.cpp **** 
 187:src/kernel/riscv.cpp ****     //timer interrupt (in this system's implementation, timer tick is manifested as software interr
 188:src/kernel/riscv.cpp ****     else if(scause == (0x01UL<<63 | 0x1)){
 189:src/kernel/riscv.cpp **** 
 190:src/kernel/riscv.cpp ****         //save sstatus and sepc
 191:src/kernel/riscv.cpp ****         //this time sepc remains the same
 192:src/kernel/riscv.cpp ****         uint64 volatile sstatus = RiscV::r_sstatus();
 193:src/kernel/riscv.cpp ****         uint64 volatile sepc = RiscV::r_sepc();
GAS LISTING /tmp/cc8OAIEG.s 			page 23


 194:src/kernel/riscv.cpp **** 
 195:src/kernel/riscv.cpp ****         //clear the SIP bit for software interrupt
 196:src/kernel/riscv.cpp ****         mc_sip(SIP_SSIE);
 197:src/kernel/riscv.cpp **** 
 198:src/kernel/riscv.cpp **** 
 199:src/kernel/riscv.cpp ****         //increase global time and try to awake threads that are asleep
 200:src/kernel/riscv.cpp ****         globalTime += 1;
 201:src/kernel/riscv.cpp ****         Scheduler::awake();
 202:src/kernel/riscv.cpp **** 
 203:src/kernel/riscv.cpp ****         //check whether time slice has run out for running thread
 204:src/kernel/riscv.cpp ****         //if so, dispatch
 205:src/kernel/riscv.cpp ****         TCB::timeSliceCounter++;
 206:src/kernel/riscv.cpp ****         if(TCB::timeSliceCounter >= TCB::running->timeSlice) {
 207:src/kernel/riscv.cpp **** 
 208:src/kernel/riscv.cpp ****             TCB::timeSliceCounter = 0;
 209:src/kernel/riscv.cpp **** 
 210:src/kernel/riscv.cpp ****             TCB* old = TCB::running;
 211:src/kernel/riscv.cpp **** 
 212:src/kernel/riscv.cpp ****             old->status = TCB::Status::READY;
 213:src/kernel/riscv.cpp **** 
 214:src/kernel/riscv.cpp ****             TCB::dispatch();
 215:src/kernel/riscv.cpp ****         }
 216:src/kernel/riscv.cpp **** 
 217:src/kernel/riscv.cpp ****         //write previously save sstatus and sepc
 218:src/kernel/riscv.cpp ****         RiscV::w_sstatus(sstatus);
 219:src/kernel/riscv.cpp ****         RiscV::w_sepc(sepc);
 220:src/kernel/riscv.cpp ****     }
 221:src/kernel/riscv.cpp **** 
 222:src/kernel/riscv.cpp ****     //hardware interrupt, from console (note that here we only check for keyboard interrupts, handl
 223:src/kernel/riscv.cpp ****     else if(scause == (0x01UL<<63 | 0x9)){
 224:src/kernel/riscv.cpp ****         //save sstatus and sepc
 225:src/kernel/riscv.cpp ****         //this time sepc remains the same
 226:src/kernel/riscv.cpp ****         uint64 volatile sstatus = RiscV::r_sstatus();
 227:src/kernel/riscv.cpp ****         uint64 volatile sepc = RiscV::r_sepc();
 228:src/kernel/riscv.cpp **** 
 229:src/kernel/riscv.cpp ****         //get the console status register location, and console status reg value
 230:src/kernel/riscv.cpp ****         uint64 status = CONSOLE_STATUS;
 231:src/kernel/riscv.cpp ****         asm("mv a0, %[status]" : : [status] "r" (status));
 232:src/kernel/riscv.cpp ****         asm("lb a1, 0(a0)");
 233:src/kernel/riscv.cpp ****         asm("mv %[status], a1" : [status] "=r" (status));
 234:src/kernel/riscv.cpp **** 
 235:src/kernel/riscv.cpp ****         //if keyboard is ready to send data
 236:src/kernel/riscv.cpp ****         if(status & 1UL)
 237:src/kernel/riscv.cpp ****         {
 238:src/kernel/riscv.cpp ****             //fetch the character from CONSOLE_TX_DATA register
 239:src/kernel/riscv.cpp ****             uint64 data;
 240:src/kernel/riscv.cpp ****             char c;
 241:src/kernel/riscv.cpp ****             data = CONSOLE_TX_DATA;
 242:src/kernel/riscv.cpp ****             asm("mv a0, %[data]" : : [data] "r" (data));
 243:src/kernel/riscv.cpp ****             asm("lb a1, 0(a0)");
 244:src/kernel/riscv.cpp ****             asm("mv %[c], a1" : [c] "=r" (c));
 245:src/kernel/riscv.cpp **** 
 246:src/kernel/riscv.cpp ****             //if there was a getc request put the character into the input buffer, othrewise ignore
 247:src/kernel/riscv.cpp ****             if(ConsoleUtil::pendingGetc!=0) {
 248:src/kernel/riscv.cpp ****                 ConsoleUtil::pendingGetc--;
 249:src/kernel/riscv.cpp ****                 ConsoleUtil::putInput(c);
 250:src/kernel/riscv.cpp ****             }
GAS LISTING /tmp/cc8OAIEG.s 			page 24


 251:src/kernel/riscv.cpp ****         }
 252:src/kernel/riscv.cpp ****         plic_complete(plic_claim());
 253:src/kernel/riscv.cpp **** 
 254:src/kernel/riscv.cpp ****         RiscV::w_sstatus(sstatus);
 255:src/kernel/riscv.cpp ****         RiscV::w_sepc(sepc);
 256:src/kernel/riscv.cpp ****     }
 257:src/kernel/riscv.cpp **** 
 258:src/kernel/riscv.cpp ****     //illegal instruction, exit running thread
 259:src/kernel/riscv.cpp ****     else if(scause == 0x02){
 260:src/kernel/riscv.cpp ****         TCB* old = TCB::running;
 261:src/kernel/riscv.cpp ****         old->status = TCB::Status::FINISHED;
 262:src/kernel/riscv.cpp ****         ConsoleUtil::printString("sepc: ");
 263:src/kernel/riscv.cpp ****         uint64 sepc = RiscV::r_sepc();
 264:src/kernel/riscv.cpp ****         ConsoleUtil::printInt(sepc,16);
 265:src/kernel/riscv.cpp ****         ConsoleUtil::printString("\n");
 266:src/kernel/riscv.cpp ****         ConsoleUtil::printString("Illegal instruction\nExiting thread...\n");
 267:src/kernel/riscv.cpp ****         TCB::dispatch();
 268:src/kernel/riscv.cpp ****     }
 269:src/kernel/riscv.cpp **** 
 270:src/kernel/riscv.cpp ****     //some other kind of error, for more information check out RiscV handbook
 271:src/kernel/riscv.cpp ****     else{
 272:src/kernel/riscv.cpp ****         ConsoleUtil::printString("Error: \n");
 273:src/kernel/riscv.cpp ****         ConsoleUtil::printString("scause: ");
 274:src/kernel/riscv.cpp ****         uint64  scause = RiscV::r_scause();
 275:src/kernel/riscv.cpp ****         ConsoleUtil::printInt(scause);
 276:src/kernel/riscv.cpp ****         ConsoleUtil::printString("sepc: ");
 277:src/kernel/riscv.cpp ****         uint64 sepc = RiscV::r_sepc();
 278:src/kernel/riscv.cpp ****         ConsoleUtil::printInt(sepc,16);
 279:src/kernel/riscv.cpp ****         ConsoleUtil::printString("\n");
 280:src/kernel/riscv.cpp ****         TCB* old = TCB::running;
 281:src/kernel/riscv.cpp ****         old->status = TCB::Status::FINISHED;
 282:src/kernel/riscv.cpp ****         ConsoleUtil::printString("Exiting thread...\n");
 283:src/kernel/riscv.cpp ****         TCB::dispatch();
 284:src/kernel/riscv.cpp ****     }
 285:src/kernel/riscv.cpp **** 
 286:src/kernel/riscv.cpp ****     RiscV::jumpToDesignatedPrivilegeMode();
 287:src/kernel/riscv.cpp **** }
 288:src/kernel/riscv.cpp **** 
 289:src/kernel/riscv.cpp **** void RiscV::executeMemAllocSyscall(){
 290:src/kernel/riscv.cpp **** 
 291:src/kernel/riscv.cpp ****     //fetch the arguments from a0-a7 registers
 292:src/kernel/riscv.cpp ****     uint64 size;
 293:src/kernel/riscv.cpp ****     asm("mv %[size], a1" : [size] "=r" (size));
 294:src/kernel/riscv.cpp **** 
 295:src/kernel/riscv.cpp ****     //call internal allocator and return the address in a0
 296:src/kernel/riscv.cpp ****     uint64 addr =(uint64)MemoryAllocator::kmalloc(size);
 297:src/kernel/riscv.cpp **** 
 298:src/kernel/riscv.cpp ****     asm("mv a0, %[addr]" : : [addr] "r" (addr));
 299:src/kernel/riscv.cpp **** 
 300:src/kernel/riscv.cpp ****     RiscV::saveA0toSscratch();
 301:src/kernel/riscv.cpp **** }
 302:src/kernel/riscv.cpp **** 
 303:src/kernel/riscv.cpp **** void RiscV::executeMemFreeSyscall() {
 304:src/kernel/riscv.cpp **** 
 305:src/kernel/riscv.cpp ****     //fetch the arguments from a0-a7 registers
 306:src/kernel/riscv.cpp ****     uint64 iaddr, status;
 307:src/kernel/riscv.cpp **** 
GAS LISTING /tmp/cc8OAIEG.s 			page 25


 308:src/kernel/riscv.cpp **** 
 309:src/kernel/riscv.cpp ****     if(MemoryAllocator::initialized) {
 310:src/kernel/riscv.cpp ****         //call internal allocator and free memory which iaddr points to
 311:src/kernel/riscv.cpp ****         asm("mv %[iaddr], a1" : [iaddr] "=r"(iaddr));
 312:src/kernel/riscv.cpp ****         status = MemoryAllocator::kfree((void *) iaddr);;
 313:src/kernel/riscv.cpp ****     }
 314:src/kernel/riscv.cpp ****     else
 315:src/kernel/riscv.cpp ****         status = -1;
 316:src/kernel/riscv.cpp **** 
 317:src/kernel/riscv.cpp ****     //return status
 318:src/kernel/riscv.cpp ****     asm("mv a0, %[status]" : : [status] "r" (status));
 319:src/kernel/riscv.cpp **** 
 320:src/kernel/riscv.cpp ****     RiscV::saveA0toSscratch();
 321:src/kernel/riscv.cpp **** }
 322:src/kernel/riscv.cpp **** 
 323:src/kernel/riscv.cpp **** void RiscV::executeThreadCreateSyscall(){
 324:src/kernel/riscv.cpp **** 
 325:src/kernel/riscv.cpp ****     //fetch the arguments from a0-a7 registers
 326:src/kernel/riscv.cpp ****     uint64 iroutine, iargs, ihandle, istack;
 327:src/kernel/riscv.cpp **** 
 328:src/kernel/riscv.cpp ****     asm("mv %[istack], a7" : [istack] "=r"(istack));
 329:src/kernel/riscv.cpp ****     asm("mv %[ihandle], a1" : [ihandle] "=r"(ihandle));
 330:src/kernel/riscv.cpp ****     asm("mv %[iroutine], a2" : [iroutine] "=r"(iroutine));
 331:src/kernel/riscv.cpp ****     asm("mv %[iargs], a3" : [iargs] "=r"(iargs));
 332:src/kernel/riscv.cpp **** 
 333:src/kernel/riscv.cpp ****     //call constructor for Thread Control Block and if not null, write thread address into ihandle
 334:src/kernel/riscv.cpp ****     TCB *tcb = new TCB((TCB::Body)iroutine, (void*)iargs, (uint64*)istack, DEFAULT_TIME_SLICE);
 335:src/kernel/riscv.cpp **** 
 336:src/kernel/riscv.cpp ****     uint64 status = 0;
 337:src/kernel/riscv.cpp **** 
 338:src/kernel/riscv.cpp ****     if(tcb == nullptr){
 339:src/kernel/riscv.cpp ****         status = -1;
 340:src/kernel/riscv.cpp ****     }
 341:src/kernel/riscv.cpp ****     else{
 342:src/kernel/riscv.cpp ****         if(tcb->body)
 343:src/kernel/riscv.cpp ****             Scheduler::put(tcb);
 344:src/kernel/riscv.cpp ****         *((TCB**)ihandle) = tcb;
 345:src/kernel/riscv.cpp ****     }
 346:src/kernel/riscv.cpp **** 
 347:src/kernel/riscv.cpp ****     //return status
 348:src/kernel/riscv.cpp ****     asm("mv a0, %[status]" : : [status] "r" (status));
 349:src/kernel/riscv.cpp **** 
 350:src/kernel/riscv.cpp ****     RiscV::saveA0toSscratch();
 351:src/kernel/riscv.cpp **** }
 352:src/kernel/riscv.cpp **** 
 353:src/kernel/riscv.cpp **** void RiscV::executeThreadAttachBodySyscall(){
 354:src/kernel/riscv.cpp **** 
 355:src/kernel/riscv.cpp ****     //fetch the arguments from a0-a7 registers
 356:src/kernel/riscv.cpp ****     uint64 iroutine, iargs, ihandle, istack;
 357:src/kernel/riscv.cpp **** 
 358:src/kernel/riscv.cpp **** 
 359:src/kernel/riscv.cpp ****     asm("mv %[istack], a7" : [istack] "=r"(istack));
 360:src/kernel/riscv.cpp ****     asm("mv %[ihandle], a1" : [ihandle] "=r"(ihandle));
 361:src/kernel/riscv.cpp ****     asm("mv %[iroutine], a2" : [iroutine] "=r"(iroutine));
 362:src/kernel/riscv.cpp ****     asm("mv %[iargs], a3" : [iargs] "=r"(iargs));
 363:src/kernel/riscv.cpp **** 
 364:src/kernel/riscv.cpp ****     TCB *tcb = new TCB((TCB::Body)iroutine, (void*)iargs, (uint64*)istack, DEFAULT_TIME_SLICE);
GAS LISTING /tmp/cc8OAIEG.s 			page 26


 365:src/kernel/riscv.cpp **** 
 366:src/kernel/riscv.cpp ****     uint64 status = 0;
 367:src/kernel/riscv.cpp **** 
 368:src/kernel/riscv.cpp ****     if(tcb == nullptr){
 369:src/kernel/riscv.cpp ****         status = -1;
 370:src/kernel/riscv.cpp ****     }
 371:src/kernel/riscv.cpp ****     else{
 372:src/kernel/riscv.cpp ****         tcb->body = (TCB::Body)iroutine;
 373:src/kernel/riscv.cpp ****         tcb->args = (void*)iargs;
 374:src/kernel/riscv.cpp ****         *((TCB**)ihandle) = tcb;
 375:src/kernel/riscv.cpp ****     }
 376:src/kernel/riscv.cpp **** 
 377:src/kernel/riscv.cpp ****     asm("mv a0, %[status]" : : [status] "r" (status));
 378:src/kernel/riscv.cpp **** 
 379:src/kernel/riscv.cpp ****     RiscV::saveA0toSscratch();
 380:src/kernel/riscv.cpp **** }
 381:src/kernel/riscv.cpp **** 
 382:src/kernel/riscv.cpp **** void RiscV::executeThreadStartSyscall(){
 383:src/kernel/riscv.cpp **** 
 384:src/kernel/riscv.cpp ****     //fetch the arguments from a0-a7 registers
 385:src/kernel/riscv.cpp ****     uint64 ihandle;
 386:src/kernel/riscv.cpp **** 
 387:src/kernel/riscv.cpp ****     asm("mv %[ihandle], a1" : [ihandle] "=r"(ihandle));
 388:src/kernel/riscv.cpp **** 
 389:src/kernel/riscv.cpp ****     //get the handle and put tcb in scheduler if not null
 390:src/kernel/riscv.cpp ****     TCB* tcb =(TCB*)ihandle;
 391:src/kernel/riscv.cpp **** 
 392:src/kernel/riscv.cpp ****     uint64 status = 0;
 393:src/kernel/riscv.cpp **** 
 394:src/kernel/riscv.cpp ****     if(tcb == nullptr){
 395:src/kernel/riscv.cpp ****         status = -1;
 396:src/kernel/riscv.cpp ****     }
 397:src/kernel/riscv.cpp ****     else{
 398:src/kernel/riscv.cpp ****         tcb->status = TCB::Status::READY;
 399:src/kernel/riscv.cpp ****         Scheduler::put(tcb);
 400:src/kernel/riscv.cpp ****         TCB::dispatch();
 401:src/kernel/riscv.cpp ****     }
 402:src/kernel/riscv.cpp **** 
 403:src/kernel/riscv.cpp ****     //return status
 404:src/kernel/riscv.cpp ****     asm("mv a0, %[status]" : : [status] "r" (status));
 405:src/kernel/riscv.cpp **** 
 406:src/kernel/riscv.cpp ****     RiscV::saveA0toSscratch();
 407:src/kernel/riscv.cpp **** }
 408:src/kernel/riscv.cpp **** 
 409:src/kernel/riscv.cpp **** void RiscV::executeThreadExitSyscall() {
 410:src/kernel/riscv.cpp **** 
 411:src/kernel/riscv.cpp ****     //fetch the arguments from a0-a7 registers
 412:src/kernel/riscv.cpp ****     uint64 status = 0;
 413:src/kernel/riscv.cpp **** 
 414:src/kernel/riscv.cpp ****     //if thread not null, set status to finished and dispatch
 415:src/kernel/riscv.cpp ****     if(TCB::running == nullptr){
 416:src/kernel/riscv.cpp ****         status = -1;
 417:src/kernel/riscv.cpp ****     }
 418:src/kernel/riscv.cpp ****     else{
 419:src/kernel/riscv.cpp ****         TCB* old = TCB::running;
 420:src/kernel/riscv.cpp ****         old->status = TCB::Status::FINISHED;
 421:src/kernel/riscv.cpp ****         TCB::dispatch();
GAS LISTING /tmp/cc8OAIEG.s 			page 27


 422:src/kernel/riscv.cpp ****     }
 423:src/kernel/riscv.cpp **** 
 424:src/kernel/riscv.cpp ****     asm("mv a0, %[status]" : : [status] "r" (status));
 425:src/kernel/riscv.cpp **** 
 426:src/kernel/riscv.cpp ****     RiscV::saveA0toSscratch();
 427:src/kernel/riscv.cpp **** }
 428:src/kernel/riscv.cpp **** 
 429:src/kernel/riscv.cpp **** void RiscV::executeThreadDispatchSyscall(){
 761              		.loc 1 429 43 is_stmt 1
 762              		.cfi_startproc
 763 04d8 130101FF 		addi	sp,sp,-16
 764              		.cfi_def_cfa_offset 16
 765 04dc 23341100 		sd	ra,8(sp)
 766 04e0 23308100 		sd	s0,0(sp)
 767              		.cfi_offset 1, -8
 768              		.cfi_offset 8, -16
 769 04e4 13040101 		addi	s0,sp,16
 770              		.cfi_def_cfa 8, 0
 430:src/kernel/riscv.cpp **** 
 431:src/kernel/riscv.cpp ****     //dispatch current running thread
 432:src/kernel/riscv.cpp ****     TCB* old = TCB::running;
 771              		.loc 1 432 5
 772              		.loc 1 432 10 is_stmt 0
 773 04e8 97070000 		la	a5,_ZN3TCB7runningE
 773      83B70700 
 774 04f0 83B70700 		ld	a5,0(a5)
 775              	.LVL82:
 433:src/kernel/riscv.cpp ****     old->status = TCB::Status::READY;
 776              		.loc 1 433 5 is_stmt 1
 777              		.loc 1 433 17 is_stmt 0
 778 04f4 13071000 		li	a4,1
 779 04f8 23A8E700 		sw	a4,16(a5)
 434:src/kernel/riscv.cpp ****     TCB::dispatch();
 780              		.loc 1 434 5 is_stmt 1
 781              		.loc 1 434 18 is_stmt 0
 782 04fc 97000000 		call	_ZN3TCB8dispatchEv@plt
 782      E7800000 
 783              	.LVL83:
 435:src/kernel/riscv.cpp **** }
 784              		.loc 1 435 1
 785 0504 83308100 		ld	ra,8(sp)
 786              		.cfi_restore 1
 787 0508 03340100 		ld	s0,0(sp)
 788              		.cfi_restore 8
 789              		.cfi_def_cfa 2, 16
 790 050c 13010101 		addi	sp,sp,16
 791              		.cfi_def_cfa_offset 0
 792 0510 67800000 		jr	ra
 793              		.cfi_endproc
 794              	.LFE54:
 796              		.align	2
 797              		.globl	_ZN5RiscV18executePutcSyscallEv
 799              	_ZN5RiscV18executePutcSyscallEv:
 800              	.LFB61:
 436:src/kernel/riscv.cpp **** 
 437:src/kernel/riscv.cpp **** void RiscV::executeSemOpenSyscall() {
 438:src/kernel/riscv.cpp **** 
GAS LISTING /tmp/cc8OAIEG.s 			page 28


 439:src/kernel/riscv.cpp ****     //fetch the arguments from a0-a7 registers
 440:src/kernel/riscv.cpp ****     uint64 ihandle, iinit;
 441:src/kernel/riscv.cpp **** 
 442:src/kernel/riscv.cpp ****     asm("mv %[ihandle], a1" : [ihandle] "=r"(ihandle));
 443:src/kernel/riscv.cpp ****     asm("mv %[iinit], a2" : [iinit] "=r"(iinit));
 444:src/kernel/riscv.cpp **** 
 445:src/kernel/riscv.cpp ****     //create new Semaphore Control Block and write it into ihandle if not null
 446:src/kernel/riscv.cpp ****     SCB *scb = new SCB(iinit);
 447:src/kernel/riscv.cpp **** 
 448:src/kernel/riscv.cpp ****     uint64 status = 0;
 449:src/kernel/riscv.cpp **** 
 450:src/kernel/riscv.cpp ****     if(scb == nullptr){
 451:src/kernel/riscv.cpp ****         status = -1;
 452:src/kernel/riscv.cpp ****     }
 453:src/kernel/riscv.cpp ****     else{
 454:src/kernel/riscv.cpp ****         *((SCB**)ihandle) = scb;
 455:src/kernel/riscv.cpp ****     }
 456:src/kernel/riscv.cpp **** 
 457:src/kernel/riscv.cpp ****     //return status
 458:src/kernel/riscv.cpp ****     asm("mv a0, %[status]" : : [status] "r" (status));
 459:src/kernel/riscv.cpp **** 
 460:src/kernel/riscv.cpp ****     RiscV::saveA0toSscratch();
 461:src/kernel/riscv.cpp **** 
 462:src/kernel/riscv.cpp **** }
 463:src/kernel/riscv.cpp **** 
 464:src/kernel/riscv.cpp **** void RiscV::executeSemCloseSyscall() {
 465:src/kernel/riscv.cpp **** 
 466:src/kernel/riscv.cpp ****     //fetch the arguments from a0-a7 registers
 467:src/kernel/riscv.cpp ****     uint64 ihandle;
 468:src/kernel/riscv.cpp **** 
 469:src/kernel/riscv.cpp ****     asm("mv %[ihandle], a1" : [ihandle] "=r"(ihandle));
 470:src/kernel/riscv.cpp **** 
 471:src/kernel/riscv.cpp ****     //delete scb if not null
 472:src/kernel/riscv.cpp ****     SCB *scb = (SCB*)ihandle;
 473:src/kernel/riscv.cpp ****     uint64 status = 0;
 474:src/kernel/riscv.cpp **** 
 475:src/kernel/riscv.cpp ****     if(scb == nullptr){
 476:src/kernel/riscv.cpp ****         status = -1;
 477:src/kernel/riscv.cpp ****     }
 478:src/kernel/riscv.cpp ****     else
 479:src/kernel/riscv.cpp ****         delete (SCB*)ihandle;
 480:src/kernel/riscv.cpp **** 
 481:src/kernel/riscv.cpp ****     //return status
 482:src/kernel/riscv.cpp ****     asm("mv a0, %[status]" : : [status] "r" (status));
 483:src/kernel/riscv.cpp **** 
 484:src/kernel/riscv.cpp ****     RiscV::saveA0toSscratch();
 485:src/kernel/riscv.cpp **** }
 486:src/kernel/riscv.cpp **** 
 487:src/kernel/riscv.cpp **** void RiscV::executeSemWaitSyscall() {
 488:src/kernel/riscv.cpp **** 
 489:src/kernel/riscv.cpp ****     //fetch the arguments from a0-a7 registers
 490:src/kernel/riscv.cpp ****     uint64 ihandle;
 491:src/kernel/riscv.cpp **** 
 492:src/kernel/riscv.cpp ****     asm("mv %[ihandle], a1" : [ihandle] "=r"(ihandle));
 493:src/kernel/riscv.cpp **** 
 494:src/kernel/riscv.cpp ****     uint64 status = 0;
 495:src/kernel/riscv.cpp ****     //call wait method on ihandle scb
GAS LISTING /tmp/cc8OAIEG.s 			page 29


 496:src/kernel/riscv.cpp **** 
 497:src/kernel/riscv.cpp ****     if(((SCB*)ihandle) != nullptr)
 498:src/kernel/riscv.cpp ****         ((SCB*)ihandle)->wait();
 499:src/kernel/riscv.cpp ****     else
 500:src/kernel/riscv.cpp ****         status = -1;
 501:src/kernel/riscv.cpp **** 
 502:src/kernel/riscv.cpp ****     if(TCB::running->semError != nullptr)
 503:src/kernel/riscv.cpp ****         status = -1;
 504:src/kernel/riscv.cpp ****     else
 505:src/kernel/riscv.cpp ****         status = 0;
 506:src/kernel/riscv.cpp **** 
 507:src/kernel/riscv.cpp ****     //return status
 508:src/kernel/riscv.cpp ****     asm("mv a0, %[status]" : : [status] "r" (status));
 509:src/kernel/riscv.cpp **** 
 510:src/kernel/riscv.cpp ****     RiscV::saveA0toSscratch();
 511:src/kernel/riscv.cpp **** 
 512:src/kernel/riscv.cpp **** }
 513:src/kernel/riscv.cpp **** 
 514:src/kernel/riscv.cpp **** void RiscV::executeSemSignalSyscall() {
 515:src/kernel/riscv.cpp **** 
 516:src/kernel/riscv.cpp ****     //fetch the arguments from a0-a7 registers
 517:src/kernel/riscv.cpp ****     uint64 ihandle;
 518:src/kernel/riscv.cpp **** 
 519:src/kernel/riscv.cpp ****     asm("mv %[ihandle], a1" : [ihandle] "=r"(ihandle));
 520:src/kernel/riscv.cpp **** 
 521:src/kernel/riscv.cpp ****     //call signal method on ihandle scb
 522:src/kernel/riscv.cpp **** 
 523:src/kernel/riscv.cpp ****     uint64 status = 0;
 524:src/kernel/riscv.cpp **** 
 525:src/kernel/riscv.cpp ****     if(((SCB*)ihandle) != nullptr)
 526:src/kernel/riscv.cpp ****         ((SCB*)ihandle)->signal();
 527:src/kernel/riscv.cpp ****     else
 528:src/kernel/riscv.cpp ****         status = -1;
 529:src/kernel/riscv.cpp **** 
 530:src/kernel/riscv.cpp ****     //return status
 531:src/kernel/riscv.cpp ****     asm("mv a0, %[status]" : : [status] "r" (status));
 532:src/kernel/riscv.cpp **** 
 533:src/kernel/riscv.cpp ****     RiscV::saveA0toSscratch();
 534:src/kernel/riscv.cpp **** }
 535:src/kernel/riscv.cpp **** 
 536:src/kernel/riscv.cpp **** void RiscV::executeTimeSleepSyscall() {
 537:src/kernel/riscv.cpp **** 
 538:src/kernel/riscv.cpp ****     //fetch the arguments from a0-a7 registers
 539:src/kernel/riscv.cpp ****     uint64 itime;
 540:src/kernel/riscv.cpp **** 
 541:src/kernel/riscv.cpp ****     asm("mv %[itime], a1" : [itime] "=r"(itime));
 542:src/kernel/riscv.cpp **** 
 543:src/kernel/riscv.cpp ****     //calculate wake time for running thread and put it to sleep
 544:src/kernel/riscv.cpp ****     //fetch new running with dispatch
 545:src/kernel/riscv.cpp ****     TCB* tcb = TCB::running;
 546:src/kernel/riscv.cpp ****     tcb->sleepTime = globalTime;
 547:src/kernel/riscv.cpp ****     tcb->wakeTime = globalTime + itime;
 548:src/kernel/riscv.cpp **** 
 549:src/kernel/riscv.cpp ****     Scheduler::sleep(tcb);
 550:src/kernel/riscv.cpp **** 
 551:src/kernel/riscv.cpp ****     tcb->status = TCB::Status::BLOCKED;
 552:src/kernel/riscv.cpp **** 
GAS LISTING /tmp/cc8OAIEG.s 			page 30


 553:src/kernel/riscv.cpp ****     TCB::dispatch();
 554:src/kernel/riscv.cpp **** 
 555:src/kernel/riscv.cpp ****     uint64 status = 0;
 556:src/kernel/riscv.cpp **** 
 557:src/kernel/riscv.cpp ****     //return status
 558:src/kernel/riscv.cpp ****     asm("mv a0, %[status]" : : [status] "r" (status));
 559:src/kernel/riscv.cpp **** 
 560:src/kernel/riscv.cpp ****     RiscV::saveA0toSscratch();
 561:src/kernel/riscv.cpp **** }
 562:src/kernel/riscv.cpp **** 
 563:src/kernel/riscv.cpp **** void RiscV::executeGetcSyscall() {
 564:src/kernel/riscv.cpp **** 
 565:src/kernel/riscv.cpp ****     //register a pending getc call
 566:src/kernel/riscv.cpp ****     if(!userMainFinished)
 567:src/kernel/riscv.cpp ****         ConsoleUtil::pendingGetc++;
 568:src/kernel/riscv.cpp **** 
 569:src/kernel/riscv.cpp ****     //get character from input buffer
 570:src/kernel/riscv.cpp ****     char c = ConsoleUtil::getInput();
 571:src/kernel/riscv.cpp **** 
 572:src/kernel/riscv.cpp ****     //if char == \n echo it as LF and CR
 573:src/kernel/riscv.cpp ****     if(c==13) {
 574:src/kernel/riscv.cpp ****         ConsoleUtil::putOutput(13);
 575:src/kernel/riscv.cpp ****         ConsoleUtil::putOutput(10);
 576:src/kernel/riscv.cpp ****     }
 577:src/kernel/riscv.cpp ****     //if not ESC character, echo it to console
 578:src/kernel/riscv.cpp ****     else if(c!=0x01b)
 579:src/kernel/riscv.cpp ****         ConsoleUtil::putOutput(c);
 580:src/kernel/riscv.cpp **** 
 581:src/kernel/riscv.cpp ****     //return character
 582:src/kernel/riscv.cpp ****     asm("mv a0, %[c]" : : [c] "r" (c));
 583:src/kernel/riscv.cpp **** 
 584:src/kernel/riscv.cpp ****     RiscV::saveA0toSscratch();
 585:src/kernel/riscv.cpp **** }
 586:src/kernel/riscv.cpp **** 
 587:src/kernel/riscv.cpp **** void RiscV::executePutcSyscall() {
 801              		.loc 1 587 34 is_stmt 1
 802              		.cfi_startproc
 803 0514 130101FF 		addi	sp,sp,-16
 804              		.cfi_def_cfa_offset 16
 805 0518 23341100 		sd	ra,8(sp)
 806 051c 23308100 		sd	s0,0(sp)
 807              		.cfi_offset 1, -8
 808              		.cfi_offset 8, -16
 809 0520 13040101 		addi	s0,sp,16
 810              		.cfi_def_cfa 8, 0
 588:src/kernel/riscv.cpp **** 
 589:src/kernel/riscv.cpp ****     //register a pending putc call
 590:src/kernel/riscv.cpp ****     if(!userMainFinished)
 811              		.loc 1 590 5
 812              		.loc 1 590 8 is_stmt 0
 813 0524 97070000 		lbu	a5,.LANCHOR0+8
 813      83C70700 
 814              		.loc 1 590 5
 815 052c 639C0700 		bnez	a5,.L37
 591:src/kernel/riscv.cpp ****         ConsoleUtil::pendingPutc++;
 816              		.loc 1 591 9 is_stmt 1
 817              		.loc 1 591 33 is_stmt 0
GAS LISTING /tmp/cc8OAIEG.s 			page 31


 818 0530 17070000 		la	a4,_ZN11ConsoleUtil11pendingPutcE
 818      03370700 
 819 0538 83370700 		ld	a5,0(a4)
 820 053c 93871700 		addi	a5,a5,1
 821 0540 2330F700 		sd	a5,0(a4)
 822              	.L37:
 592:src/kernel/riscv.cpp **** 
 593:src/kernel/riscv.cpp ****     char c;
 823              		.loc 1 593 5 is_stmt 1
 594:src/kernel/riscv.cpp **** 
 595:src/kernel/riscv.cpp ****     asm("mv %[c], a1" : [c] "=r"(c));
 824              		.loc 1 595 5
 825              		.loc 1 595 37 is_stmt 0
 826              	#APP
 827              	# 595 "src/kernel/riscv.cpp" 1
 596              	
 828              		mv a0, a1
 829              	# 0 "" 2
 830              	.LVL84:
 597:src/kernel/riscv.cpp ****     //put character in output buffer
 598:src/kernel/riscv.cpp ****     ConsoleUtil::putOutput(c);
 831              		.loc 1 598 5 is_stmt 1
 832              		.loc 1 598 27 is_stmt 0
 833              	#NO_APP
 834 0548 1375F50F 		andi	a0,a0,0xff
 835 054c 97000000 		call	_ZN11ConsoleUtil9putOutputEc@plt
 835      E7800000 
 836              	.LVL85:
 599:src/kernel/riscv.cpp **** }
 837              		.loc 1 599 1
 838 0554 83308100 		ld	ra,8(sp)
 839              		.cfi_restore 1
 840 0558 03340100 		ld	s0,0(sp)
 841              		.cfi_restore 8
 842              		.cfi_def_cfa 2, 16
 843 055c 13010101 		addi	sp,sp,16
 844              		.cfi_def_cfa_offset 0
 845 0560 67800000 		jr	ra
 846              		.cfi_endproc
 847              	.LFE61:
 849              		.align	2
 850              		.globl	_ZN5RiscV11putcWrapperEPv
 852              	_ZN5RiscV11putcWrapperEPv:
 853              	.LFB62:
 600:src/kernel/riscv.cpp **** 
 601:src/kernel/riscv.cpp **** //wrapper function for putcThread
 602:src/kernel/riscv.cpp **** //spins in a while loop and checks whether console is ready to take output
 603:src/kernel/riscv.cpp **** //if ready read data from output buffer
 604:src/kernel/riscv.cpp **** void RiscV::putcWrapper(void* arg)
 605:src/kernel/riscv.cpp **** {
 854              		.loc 1 605 1 is_stmt 1
 855              		.cfi_startproc
 856              	.LVL86:
 857 0564 130101FE 		addi	sp,sp,-32
 858              		.cfi_def_cfa_offset 32
 859 0568 233C1100 		sd	ra,24(sp)
 860 056c 23388100 		sd	s0,16(sp)
GAS LISTING /tmp/cc8OAIEG.s 			page 32


 861              		.cfi_offset 1, -8
 862              		.cfi_offset 8, -16
 863 0570 13040102 		addi	s0,sp,32
 864              		.cfi_def_cfa 8, 0
 865 0574 6F00C000 		j	.L40
 866              	.LVL87:
 867              	.L41:
 868              	.LBB119:
 869              	.LBB120:
 606:src/kernel/riscv.cpp ****     //RiscV::popSppSpie();
 607:src/kernel/riscv.cpp ****     while(true)
 608:src/kernel/riscv.cpp ****     {
 609:src/kernel/riscv.cpp ****         //read console status from status register
 610:src/kernel/riscv.cpp ****         uint64 status = CONSOLE_STATUS;
 611:src/kernel/riscv.cpp ****         asm("mv a0, %[status]" : : [status] "r" (status));
 612:src/kernel/riscv.cpp ****         asm("lb a1, 0(a0)");
 613:src/kernel/riscv.cpp ****         asm("mv %[status], a1" : [status] "=r" (status));
 614:src/kernel/riscv.cpp **** 
 615:src/kernel/riscv.cpp ****         //if console ready..
 616:src/kernel/riscv.cpp ****         if(status & 1UL<<5){
 617:src/kernel/riscv.cpp **** 
 618:src/kernel/riscv.cpp ****             //get character from output buffer with possible block if nothing in buffer
 619:src/kernel/riscv.cpp ****                 char volatile c = ConsoleUtil::putcUtilSyscall();
 620:src/kernel/riscv.cpp ****                 uint64 data = CONSOLE_RX_DATA;
 621:src/kernel/riscv.cpp ****                 asm("mv a0, %[data]" : : [data] "r"(data));
 622:src/kernel/riscv.cpp ****                 asm("mv a1, %[c]" : : [c] "r"(c));
 623:src/kernel/riscv.cpp ****                 asm("sb a1,0(a0)");
 624:src/kernel/riscv.cpp **** 
 625:src/kernel/riscv.cpp ****             //decrement number of pending putc requests
 626:src/kernel/riscv.cpp ****             if(ConsoleUtil::pendingPutc>0)
 627:src/kernel/riscv.cpp ****                 ConsoleUtil::pendingPutc--;
 628:src/kernel/riscv.cpp ****         }
 629:src/kernel/riscv.cpp ****         else
 630:src/kernel/riscv.cpp ****             thread_dispatch();
 870              		.loc 1 630 13
 871              		.loc 1 630 28 is_stmt 0
 872 0578 97000000 		call	_Z15thread_dispatchv@plt
 872      E7800000 
 873              	.LVL88:
 874              	.L40:
 875              	.LBE120:
 876              	.LBE119:
 607:src/kernel/riscv.cpp ****     {
 877              		.loc 1 607 5 is_stmt 1
 878              	.LBB123:
 610:src/kernel/riscv.cpp ****         asm("mv a0, %[status]" : : [status] "r" (status));
 879              		.loc 1 610 9
 610:src/kernel/riscv.cpp ****         asm("mv a0, %[status]" : : [status] "r" (status));
 880              		.loc 1 610 16 is_stmt 0
 881 0580 97070000 		la	a5,CONSOLE_STATUS
 881      83B70700 
 882 0588 83B70700 		ld	a5,0(a5)
 883              	.LVL89:
 611:src/kernel/riscv.cpp ****         asm("lb a1, 0(a0)");
 884              		.loc 1 611 9 is_stmt 1
 611:src/kernel/riscv.cpp ****         asm("lb a1, 0(a0)");
 885              		.loc 1 611 58 is_stmt 0
GAS LISTING /tmp/cc8OAIEG.s 			page 33


 886              	#APP
 887              	# 611 "src/kernel/riscv.cpp" 1
 612:src/kernel/riscv.cpp ****         asm("mv %[status], a1" : [status] "=r" (status));
 888              		mv a0, a5
 889              	# 0 "" 2
 890              		.loc 1 612 9 is_stmt 1
 612:src/kernel/riscv.cpp ****         asm("mv %[status], a1" : [status] "=r" (status));
 891              		.loc 1 612 28 is_stmt 0
 892              	# 612 "src/kernel/riscv.cpp" 1
 613:src/kernel/riscv.cpp **** 
 893              		lb a1, 0(a0)
 894              	# 0 "" 2
 895              		.loc 1 613 9 is_stmt 1
 613:src/kernel/riscv.cpp **** 
 896              		.loc 1 613 57 is_stmt 0
 897              	# 613 "src/kernel/riscv.cpp" 1
 898              		mv a5, a1
 899              	# 0 "" 2
 900              	.LVL90:
 616:src/kernel/riscv.cpp **** 
 901              		.loc 1 616 9 is_stmt 1
 902              	#NO_APP
 903              	.LBB122:
 616:src/kernel/riscv.cpp **** 
 904              		.loc 1 616 19 is_stmt 0
 905 0598 93F70702 		andi	a5,a5,32
 906              	.LVL91:
 616:src/kernel/riscv.cpp **** 
 907              		.loc 1 616 9
 908 059c E38E07FC 		beqz	a5,.L41
 909              	.LBB121:
 619:src/kernel/riscv.cpp ****                 uint64 data = CONSOLE_RX_DATA;
 910              		.loc 1 619 17 is_stmt 1
 619:src/kernel/riscv.cpp ****                 uint64 data = CONSOLE_RX_DATA;
 911              		.loc 1 619 63 is_stmt 0
 912 05a0 97000000 		call	_ZN11ConsoleUtil15putcUtilSyscallEv@plt
 912      E7800000 
 913              	.LVL92:
 619:src/kernel/riscv.cpp ****                 uint64 data = CONSOLE_RX_DATA;
 914              		.loc 1 619 64
 915 05a8 A307A4FE 		sb	a0,-17(s0)
 620:src/kernel/riscv.cpp ****                 asm("mv a0, %[data]" : : [data] "r"(data));
 916              		.loc 1 620 17 is_stmt 1
 620:src/kernel/riscv.cpp ****                 asm("mv a0, %[data]" : : [data] "r"(data));
 917              		.loc 1 620 24 is_stmt 0
 918 05ac 97070000 		la	a5,CONSOLE_RX_DATA
 918      83B70700 
 919 05b4 83B70700 		ld	a5,0(a5)
 920              	.LVL93:
 621:src/kernel/riscv.cpp ****                 asm("mv a1, %[c]" : : [c] "r"(c));
 921              		.loc 1 621 17 is_stmt 1
 621:src/kernel/riscv.cpp ****                 asm("mv a1, %[c]" : : [c] "r"(c));
 922              		.loc 1 621 59 is_stmt 0
 923              	#APP
 924              	# 621 "src/kernel/riscv.cpp" 1
 622:src/kernel/riscv.cpp ****                 asm("sb a1,0(a0)");
 925              		mv a0, a5
GAS LISTING /tmp/cc8OAIEG.s 			page 34


 926              	# 0 "" 2
 927              		.loc 1 622 17 is_stmt 1
 622:src/kernel/riscv.cpp ****                 asm("sb a1,0(a0)");
 928              		.loc 1 622 47 is_stmt 0
 929              	#NO_APP
 930 05bc 8347F4FE 		lbu	a5,-17(s0)
 931              	.LVL94:
 622:src/kernel/riscv.cpp ****                 asm("sb a1,0(a0)");
 932              		.loc 1 622 50
 933              	#APP
 934              	# 622 "src/kernel/riscv.cpp" 1
 623:src/kernel/riscv.cpp **** 
 935              		mv a1, a5
 936              	# 0 "" 2
 937              		.loc 1 623 17 is_stmt 1
 623:src/kernel/riscv.cpp **** 
 938              		.loc 1 623 35 is_stmt 0
 939              	# 623 "src/kernel/riscv.cpp" 1
 626:src/kernel/riscv.cpp ****                 ConsoleUtil::pendingPutc--;
 940              		sb a1,0(a0)
 941              	# 0 "" 2
 942              		.loc 1 626 13 is_stmt 1
 626:src/kernel/riscv.cpp ****                 ConsoleUtil::pendingPutc--;
 943              		.loc 1 626 40 is_stmt 0
 944              	#NO_APP
 945 05c8 97070000 		la	a5,_ZN11ConsoleUtil11pendingPutcE
 945      83B70700 
 946 05d0 83B70700 		ld	a5,0(a5)
 626:src/kernel/riscv.cpp ****                 ConsoleUtil::pendingPutc--;
 947              		.loc 1 626 13
 948 05d4 E38607FA 		beqz	a5,.L40
 627:src/kernel/riscv.cpp ****         }
 949              		.loc 1 627 17 is_stmt 1
 627:src/kernel/riscv.cpp ****         }
 950              		.loc 1 627 41 is_stmt 0
 951 05d8 9387F7FF 		addi	a5,a5,-1
 952 05dc 17070000 		la	a4,_ZN11ConsoleUtil11pendingPutcE
 952      03370700 
 953 05e4 2330F700 		sd	a5,0(a4)
 954 05e8 6FF09FF9 		j	.L40
 955              	.LBE121:
 956              	.LBE122:
 957              	.LBE123:
 958              		.cfi_endproc
 959              	.LFE62:
 961              		.align	2
 962              		.globl	_ZN5RiscV29jumpToDesignatedPrivilegeModeEv
 964              	_ZN5RiscV29jumpToDesignatedPrivilegeModeEv:
 965              	.LFB64:
 631:src/kernel/riscv.cpp ****     }
 632:src/kernel/riscv.cpp **** }
 633:src/kernel/riscv.cpp **** 
 634:src/kernel/riscv.cpp **** //utility syscall to get character from output buffer
 635:src/kernel/riscv.cpp **** //syscall is needed because we don't want to fiddle with kernel structures from anywhere but the tr
 636:src/kernel/riscv.cpp **** void RiscV::executePutcUtilSyscall() {
 637:src/kernel/riscv.cpp ****     char c = ConsoleUtil::getOutput();
 638:src/kernel/riscv.cpp ****     asm("mv a0, %[c]" : : [c] "r" ((uint64)(c)) );
GAS LISTING /tmp/cc8OAIEG.s 			page 35


 639:src/kernel/riscv.cpp **** 
 640:src/kernel/riscv.cpp ****     RiscV::saveA0toSscratch();
 641:src/kernel/riscv.cpp **** }
 642:src/kernel/riscv.cpp **** 
 643:src/kernel/riscv.cpp **** //return to privilege that was given at creation
 644:src/kernel/riscv.cpp **** void RiscV::jumpToDesignatedPrivilegeMode() {
 966              		.loc 1 644 45 is_stmt 1
 967              		.cfi_startproc
 968 05ec 130101FF 		addi	sp,sp,-16
 969              		.cfi_def_cfa_offset 16
 970 05f0 23348100 		sd	s0,8(sp)
 971              		.cfi_offset 8, -8
 972 05f4 13040101 		addi	s0,sp,16
 973              		.cfi_def_cfa 8, 0
 645:src/kernel/riscv.cpp ****     if(TCB::running->mode == TCB::Mode::SUPERVISOR) {
 974              		.loc 1 645 5
 975              		.loc 1 645 22 is_stmt 0
 976 05f8 97070000 		la	a5,_ZN3TCB7runningE
 976      83B70700 
 977 0600 83B70700 		ld	a5,0(a5)
 978 0604 03A74701 		lw	a4,20(a5)
 979              		.loc 1 645 5
 980 0608 93071000 		li	a5,1
 981 060c 630CF700 		beq	a4,a5,.L48
 646:src/kernel/riscv.cpp ****         RiscV::ms_sstatus(RiscV::SSTATUS_SPP);
 647:src/kernel/riscv.cpp ****     }
 648:src/kernel/riscv.cpp ****     else {
 649:src/kernel/riscv.cpp ****         RiscV::mc_sstatus(RiscV::SSTATUS_SPP);
 982              		.loc 1 649 9 is_stmt 1
 983              	.LVL95:
 984              	.LBB124:
 985              	.LBB125:
 185:src/kernel/../../h/riscv.hpp **** }
 986              		.loc 2 185 5
 185:src/kernel/../../h/riscv.hpp **** }
 987              		.loc 2 185 55 is_stmt 0
 988 0610 93070010 		li	a5,256
 989              	#APP
 990              	# 185 "src/kernel/../../h/riscv.hpp" 1
 991              		csrc sstatus, a5
 992              	# 0 "" 2
 993              	.LVL96:
 994              	#NO_APP
 995              	.L44:
 996              	.LBE125:
 997              	.LBE124:
 650:src/kernel/riscv.cpp ****     }
 651:src/kernel/riscv.cpp **** }
 998              		.loc 1 651 1
 999 0618 03348100 		ld	s0,8(sp)
 1000              		.cfi_remember_state
 1001              		.cfi_restore 8
 1002              		.cfi_def_cfa 2, 16
 1003 061c 13010101 		addi	sp,sp,16
 1004              		.cfi_def_cfa_offset 0
 1005 0620 67800000 		jr	ra
 1006              	.L48:
GAS LISTING /tmp/cc8OAIEG.s 			page 36


 1007              		.cfi_restore_state
 646:src/kernel/riscv.cpp ****     }
 1008              		.loc 1 646 9 is_stmt 1
 1009              	.LVL97:
 1010              	.LBB126:
 1011              	.LBB127:
 181:src/kernel/../../h/riscv.hpp **** }
 1012              		.loc 2 181 5
 181:src/kernel/../../h/riscv.hpp **** }
 1013              		.loc 2 181 55 is_stmt 0
 1014 0624 93070010 		li	a5,256
 1015              	#APP
 1016              	# 181 "src/kernel/../../h/riscv.hpp" 1
 182:src/kernel/../../h/riscv.hpp **** 
 1017              		csrs sstatus, a5
 1018              	# 0 "" 2
 1019              		.loc 2 182 1
 1020              	#NO_APP
 1021 062c 6FF0DFFE 		j	.L44
 1022              	.LBE127:
 1023              	.LBE126:
 1024              		.cfi_endproc
 1025              	.LFE64:
 1027              		.align	2
 1028              		.globl	_ZN5RiscV8finalizeEv
 1030              	_ZN5RiscV8finalizeEv:
 1031              	.LFB65:
 652:src/kernel/riscv.cpp **** 
 653:src/kernel/riscv.cpp **** 
 654:src/kernel/riscv.cpp **** //clear out the scheduler and let console finish remaining outputs if there are any
 655:src/kernel/riscv.cpp **** void RiscV::finalize() {
 1032              		.loc 1 655 24 is_stmt 1
 1033              		.cfi_startproc
 1034 0630 130101FF 		addi	sp,sp,-16
 1035              		.cfi_def_cfa_offset 16
 1036 0634 23341100 		sd	ra,8(sp)
 1037 0638 23308100 		sd	s0,0(sp)
 1038              		.cfi_offset 1, -8
 1039              		.cfi_offset 8, -16
 1040 063c 13040101 		addi	s0,sp,16
 1041              		.cfi_def_cfa 8, 0
 656:src/kernel/riscv.cpp ****     userMainFinished = true;
 1042              		.loc 1 656 5
 1043              		.loc 1 656 22 is_stmt 0
 1044 0640 93071000 		li	a5,1
 1045 0644 17070000 		sb	a5,.LANCHOR0+8,a4
 1045      2300F700 
 657:src/kernel/riscv.cpp **** 
 658:src/kernel/riscv.cpp ****     ConsoleUtil::pendingPutc = 0;
 1046              		.loc 1 658 5 is_stmt 1
 1047              		.loc 1 658 30 is_stmt 0
 1048 064c 97070000 		la	a5,_ZN11ConsoleUtil11pendingPutcE
 1048      83B70700 
 1049 0654 23B00700 		sd	zero,0(a5)
 659:src/kernel/riscv.cpp ****     ConsoleUtil::pendingGetc = 0;
 1050              		.loc 1 659 5 is_stmt 1
 1051              		.loc 1 659 30 is_stmt 0
GAS LISTING /tmp/cc8OAIEG.s 			page 37


 1052 0658 97070000 		la	a5,_ZN11ConsoleUtil11pendingGetcE
 1052      83B70700 
 1053 0660 23B00700 		sd	zero,0(a5)
 660:src/kernel/riscv.cpp **** 
 661:src/kernel/riscv.cpp ****     RiscV::disableInterrupts();
 1054              		.loc 1 661 5 is_stmt 1
 1055              	.LBB128:
 1056              	.LBB129:
 208:src/kernel/../../h/riscv.hpp **** }
 209:src/kernel/../../h/riscv.hpp **** 
 210:src/kernel/../../h/riscv.hpp **** inline void RiscV::disableInterrupts() {
 211:src/kernel/../../h/riscv.hpp ****     disableTimerInterrupts();
 1057              		.loc 2 211 5
 1058              	.LBE129:
 1059              	.LBE128:
 212:src/kernel/../../h/riscv.hpp ****     disableHardwareInterrupts();
 213:src/kernel/../../h/riscv.hpp **** }
 214:src/kernel/../../h/riscv.hpp **** 
 215:src/kernel/../../h/riscv.hpp **** inline void RiscV::enableHardwareInterrupts() {
 216:src/kernel/../../h/riscv.hpp ****     RiscV::mc_sie(SIP_SSIE);
 217:src/kernel/../../h/riscv.hpp ****     RiscV::ms_sstatus(SSTATUS_SIE);
 218:src/kernel/../../h/riscv.hpp ****     RiscV::ms_sie(SIP_SEIE);
 219:src/kernel/../../h/riscv.hpp **** }
 220:src/kernel/../../h/riscv.hpp **** 
 221:src/kernel/../../h/riscv.hpp **** inline void RiscV::disableHardwareInterrupts(){
 222:src/kernel/../../h/riscv.hpp ****     RiscV::mc_sie(SIP_SEIE);
 223:src/kernel/../../h/riscv.hpp **** }
 224:src/kernel/../../h/riscv.hpp **** 
 225:src/kernel/../../h/riscv.hpp **** inline void RiscV::enableTimerInterrupts() {
 226:src/kernel/../../h/riscv.hpp ****     RiscV::mc_sie(SIP_SEIE);
 227:src/kernel/../../h/riscv.hpp ****     RiscV::ms_sstatus(SSTATUS_SIE);
 228:src/kernel/../../h/riscv.hpp ****     RiscV::ms_sie(SIP_SSIE);
 229:src/kernel/../../h/riscv.hpp **** }
 230:src/kernel/../../h/riscv.hpp **** 
 231:src/kernel/../../h/riscv.hpp **** inline void RiscV::disableTimerInterrupts(){
 232:src/kernel/../../h/riscv.hpp ****     RiscV::mc_sie(SIP_SSIE);
 1060              		.loc 2 232 5
 1061              	.LVL98:
 1062              	.LBB138:
 1063              	.LBB136:
 1064              	.LBB130:
 1065              	.LBB131:
 1066              	.LBB132:
 201:src/kernel/../../h/riscv.hpp **** }
 1067              		.loc 2 201 5
 201:src/kernel/../../h/riscv.hpp **** }
 1068              		.loc 2 201 51 is_stmt 0
 1069 0664 93072000 		li	a5,2
 1070              	#APP
 1071              	# 201 "src/kernel/../../h/riscv.hpp" 1
 1072              		csrc sie, a5
 1073              	# 0 "" 2
 1074              	.LVL99:
 1075              	#NO_APP
 1076              	.LBE132:
 1077              	.LBE131:
 1078              	.LBE130:
GAS LISTING /tmp/cc8OAIEG.s 			page 38


 212:src/kernel/../../h/riscv.hpp ****     disableHardwareInterrupts();
 1079              		.loc 2 212 5 is_stmt 1
 1080              	.LBE136:
 1081              	.LBE138:
 222:src/kernel/../../h/riscv.hpp **** }
 1082              		.loc 2 222 5
 1083              	.LBB139:
 1084              	.LBB137:
 1085              	.LBB133:
 1086              	.LBB134:
 1087              	.LBB135:
 201:src/kernel/../../h/riscv.hpp **** }
 1088              		.loc 2 201 5
 201:src/kernel/../../h/riscv.hpp **** }
 1089              		.loc 2 201 51 is_stmt 0
 1090 066c 93070020 		li	a5,512
 1091              	#APP
 1092              	# 201 "src/kernel/../../h/riscv.hpp" 1
 1093              		csrc sie, a5
 1094              	# 0 "" 2
 1095              	.LVL100:
 1096              	#NO_APP
 1097              	.L51:
 1098              	.LBE135:
 1099              	.LBE134:
 1100              	.LBE133:
 1101              	.LBE137:
 1102              	.LBE139:
 662:src/kernel/riscv.cpp **** 
 663:src/kernel/riscv.cpp ****     while(Scheduler::readyHead != nullptr)
 1103              		.loc 1 663 5 is_stmt 1
 1104              		.loc 1 663 32
 1105 0674 97070000 		la	a5,_ZN9Scheduler9readyHeadE
 1105      83B70700 
 1106 067c 83B70700 		ld	a5,0(a5)
 1107 0680 638C0700 		beqz	a5,.L50
 664:src/kernel/riscv.cpp ****         Scheduler::readyHead = Scheduler::readyHead->next;
 1108              		.loc 1 664 9
 1109              		.loc 1 664 54 is_stmt 0
 1110 0684 03B78704 		ld	a4,72(a5)
 1111              		.loc 1 664 30
 1112 0688 97070000 		la	a5,_ZN9Scheduler9readyHeadE
 1112      83B70700 
 1113 0690 23B0E700 		sd	a4,0(a5)
 663:src/kernel/riscv.cpp ****         Scheduler::readyHead = Scheduler::readyHead->next;
 1114              		.loc 1 663 5
 1115 0694 6FF01FFE 		j	.L51
 1116              	.L50:
 665:src/kernel/riscv.cpp **** 
 666:src/kernel/riscv.cpp ****     Scheduler::put(TCB::putcThread);
 1117              		.loc 1 666 5 is_stmt 1
 1118              		.loc 1 666 19 is_stmt 0
 1119 0698 97070000 		la	a5,_ZN3TCB10putcThreadE
 1119      83B70700 
 1120 06a0 03B50700 		ld	a0,0(a5)
 1121 06a4 97000000 		call	_ZN9Scheduler3putEP3TCB@plt
 1121      E7800000 
GAS LISTING /tmp/cc8OAIEG.s 			page 39


 1122              	.LVL101:
 1123              	.L53:
 667:src/kernel/riscv.cpp **** 
 668:src/kernel/riscv.cpp ****     while(ConsoleUtil::outputHead != ConsoleUtil::outputTail)
 1124              		.loc 1 668 5 is_stmt 1
 1125              		.loc 1 668 35
 1126 06ac 97070000 		la	a5,_ZN11ConsoleUtil10outputHeadE
 1126      83B70700 
 1127 06b4 03B70700 		ld	a4,0(a5)
 1128 06b8 97070000 		la	a5,_ZN11ConsoleUtil10outputTailE
 1128      83B70700 
 1129 06c0 83B70700 		ld	a5,0(a5)
 1130 06c4 6308F700 		beq	a4,a5,.L49
 669:src/kernel/riscv.cpp ****         thread_dispatch();
 1131              		.loc 1 669 9
 1132              		.loc 1 669 24 is_stmt 0
 1133 06c8 97000000 		call	_Z15thread_dispatchv@plt
 1133      E7800000 
 1134              	.LVL102:
 668:src/kernel/riscv.cpp ****         thread_dispatch();
 1135              		.loc 1 668 5
 1136 06d0 6FF0DFFD 		j	.L53
 1137              	.L49:
 670:src/kernel/riscv.cpp **** }
 1138              		.loc 1 670 1
 1139 06d4 83308100 		ld	ra,8(sp)
 1140              		.cfi_restore 1
 1141 06d8 03340100 		ld	s0,0(sp)
 1142              		.cfi_restore 8
 1143              		.cfi_def_cfa 2, 16
 1144 06dc 13010101 		addi	sp,sp,16
 1145              		.cfi_def_cfa_offset 0
 1146 06e0 67800000 		jr	ra
 1147              		.cfi_endproc
 1148              	.LFE65:
 1150              		.align	2
 1151              		.globl	_ZN5RiscV16saveA0toSscratchEv
 1153              	_ZN5RiscV16saveA0toSscratchEv:
 1154              	.LFB66:
 671:src/kernel/riscv.cpp **** 
 672:src/kernel/riscv.cpp **** //write value in a0 to a memory location where a0 is store on stack for currently running thread
 673:src/kernel/riscv.cpp **** void RiscV::saveA0toSscratch()
 674:src/kernel/riscv.cpp **** {
 1155              		.loc 1 674 1 is_stmt 1
 1156              		.cfi_startproc
 1157 06e4 130101FF 		addi	sp,sp,-16
 1158              		.cfi_def_cfa_offset 16
 1159 06e8 23348100 		sd	s0,8(sp)
 1160              		.cfi_offset 8, -8
 1161 06ec 13040101 		addi	s0,sp,16
 1162              		.cfi_def_cfa 8, 0
 675:src/kernel/riscv.cpp ****     uint64 a1;
 1163              		.loc 1 675 5
 676:src/kernel/riscv.cpp ****     asm("mv %[a1], a1": [a1] "=r"(a1));
 1164              		.loc 1 676 5
 1165              		.loc 1 676 39 is_stmt 0
 1166              	#APP
GAS LISTING /tmp/cc8OAIEG.s 			page 40


 1167              	# 676 "src/kernel/riscv.cpp" 1
 677              	    asm("mv a1, %[a0]" : :  [a0] "r"(TCB::running->a0Location));
 1168              		mv a5, a1
 1169              	# 0 "" 2
 1170              		.loc 1 677 5 is_stmt 1
 1171              		.loc 1 677 52 is_stmt 0
 1172              	#NO_APP
 1173 06f4 17070000 		la	a4,_ZN3TCB7runningE
 1173      03370700 
 1174 06fc 03370700 		ld	a4,0(a4)
 1175 0700 03378706 		ld	a4,104(a4)
 1176              		.loc 1 677 64
 1177              	#APP
 1178              	# 677 "src/kernel/riscv.cpp" 1
 678              	    asm("sd a0, 80(a1)");
 1179              		mv a1, a4
 1180              	# 0 "" 2
 1181              		.loc 1 678 5 is_stmt 1
 1182              		.loc 1 678 25 is_stmt 0
 1183              	# 678 "src/kernel/riscv.cpp" 1
 679              	    asm("mv a1,%[a1]"::  [a1]"r"(a1));
 1184              		sd a0, 80(a1)
 1185              	# 0 "" 2
 1186              		.loc 1 679 5 is_stmt 1
 1187              		.loc 1 679 38 is_stmt 0
 1188              	# 679 "src/kernel/riscv.cpp" 1
 680              	}
 1189              		mv a1,a5
 1190              	# 0 "" 2
 1191              		.loc 1 680 1
 1192              	#NO_APP
 1193 0710 03348100 		ld	s0,8(sp)
 1194              		.cfi_restore 8
 1195              		.cfi_def_cfa 2, 16
 1196 0714 13010101 		addi	sp,sp,16
 1197              		.cfi_def_cfa_offset 0
 1198 0718 67800000 		jr	ra
 1199              		.cfi_endproc
 1200              	.LFE66:
 1202              		.align	2
 1203              		.globl	_ZN5RiscV22executeMemAllocSyscallEv
 1205              	_ZN5RiscV22executeMemAllocSyscallEv:
 1206              	.LFB48:
 289:src/kernel/riscv.cpp **** 
 1207              		.loc 1 289 37 is_stmt 1
 1208              		.cfi_startproc
 1209 071c 130101FF 		addi	sp,sp,-16
 1210              		.cfi_def_cfa_offset 16
 1211 0720 23341100 		sd	ra,8(sp)
 1212 0724 23308100 		sd	s0,0(sp)
 1213              		.cfi_offset 1, -8
 1214              		.cfi_offset 8, -16
 1215 0728 13040101 		addi	s0,sp,16
 1216              		.cfi_def_cfa 8, 0
 292:src/kernel/riscv.cpp ****     asm("mv %[size], a1" : [size] "=r" (size));
 1217              		.loc 1 292 5
 293:src/kernel/riscv.cpp **** 
GAS LISTING /tmp/cc8OAIEG.s 			page 41


 1218              		.loc 1 293 5
 293:src/kernel/riscv.cpp **** 
 1219              		.loc 1 293 47 is_stmt 0
 1220              	#APP
 1221              	# 293 "src/kernel/riscv.cpp" 1
 1222              		mv a0, a1
 1223              	# 0 "" 2
 1224              	.LVL103:
 296:src/kernel/riscv.cpp **** 
 1225              		.loc 1 296 5 is_stmt 1
 296:src/kernel/riscv.cpp **** 
 1226              		.loc 1 296 50 is_stmt 0
 1227              	#NO_APP
 1228 0730 97000000 		call	_ZN15MemoryAllocator7kmallocEm@plt
 1228      E7800000 
 1229              	.LVL104:
 298:src/kernel/riscv.cpp **** 
 1230              		.loc 1 298 5 is_stmt 1
 298:src/kernel/riscv.cpp **** 
 1231              		.loc 1 298 48 is_stmt 0
 1232              	#APP
 1233              	# 298 "src/kernel/riscv.cpp" 1
 300:src/kernel/riscv.cpp **** }
 1234              		mv a0, a0
 1235              	# 0 "" 2
 1236              		.loc 1 300 5 is_stmt 1
 300:src/kernel/riscv.cpp **** }
 1237              		.loc 1 300 28 is_stmt 0
 1238              	#NO_APP
 1239 073c 97000000 		call	_ZN5RiscV16saveA0toSscratchEv
 1239      E7800000 
 1240              	.LVL105:
 301:src/kernel/riscv.cpp **** 
 1241              		.loc 1 301 1
 1242 0744 83308100 		ld	ra,8(sp)
 1243              		.cfi_restore 1
 1244 0748 03340100 		ld	s0,0(sp)
 1245              		.cfi_restore 8
 1246              		.cfi_def_cfa 2, 16
 1247 074c 13010101 		addi	sp,sp,16
 1248              		.cfi_def_cfa_offset 0
 1249 0750 67800000 		jr	ra
 1250              		.cfi_endproc
 1251              	.LFE48:
 1253              		.align	2
 1254              		.globl	_ZN5RiscV21executeMemFreeSyscallEv
 1256              	_ZN5RiscV21executeMemFreeSyscallEv:
 1257              	.LFB49:
 303:src/kernel/riscv.cpp **** 
 1258              		.loc 1 303 37 is_stmt 1
 1259              		.cfi_startproc
 1260 0754 130101FF 		addi	sp,sp,-16
 1261              		.cfi_def_cfa_offset 16
 1262 0758 23341100 		sd	ra,8(sp)
 1263 075c 23308100 		sd	s0,0(sp)
 1264              		.cfi_offset 1, -8
 1265              		.cfi_offset 8, -16
GAS LISTING /tmp/cc8OAIEG.s 			page 42


 1266 0760 13040101 		addi	s0,sp,16
 1267              		.cfi_def_cfa 8, 0
 306:src/kernel/riscv.cpp **** 
 1268              		.loc 1 306 5
 309:src/kernel/riscv.cpp ****         //call internal allocator and free memory which iaddr points to
 1269              		.loc 1 309 5
 1270 0764 97070000 		la	a5,_ZN15MemoryAllocator11initializedE
 1270      83B70700 
 1271 076c 83C70700 		lbu	a5,0(a5)
 1272 0770 63920702 		bnez	a5,.L63
 315:src/kernel/riscv.cpp **** 
 1273              		.loc 1 315 16 is_stmt 0
 1274 0774 1305F0FF 		li	a0,-1
 1275              	.L60:
 1276              	.LVL106:
 318:src/kernel/riscv.cpp **** 
 1277              		.loc 1 318 5 is_stmt 1
 318:src/kernel/riscv.cpp **** 
 1278              		.loc 1 318 54 is_stmt 0
 1279              	#APP
 1280              	# 318 "src/kernel/riscv.cpp" 1
 320:src/kernel/riscv.cpp **** }
 1281              		mv a0, a0
 1282              	# 0 "" 2
 1283              		.loc 1 320 5 is_stmt 1
 320:src/kernel/riscv.cpp **** }
 1284              		.loc 1 320 28 is_stmt 0
 1285              	#NO_APP
 1286 077c 97000000 		call	_ZN5RiscV16saveA0toSscratchEv
 1286      E7800000 
 1287              	.LVL107:
 321:src/kernel/riscv.cpp **** 
 1288              		.loc 1 321 1
 1289 0784 83308100 		ld	ra,8(sp)
 1290              		.cfi_remember_state
 1291              		.cfi_restore 1
 1292 0788 03340100 		ld	s0,0(sp)
 1293              		.cfi_restore 8
 1294              		.cfi_def_cfa 2, 16
 1295 078c 13010101 		addi	sp,sp,16
 1296              		.cfi_def_cfa_offset 0
 1297 0790 67800000 		jr	ra
 1298              	.L63:
 1299              		.cfi_restore_state
 311:src/kernel/riscv.cpp ****         status = MemoryAllocator::kfree((void *) iaddr);;
 1300              		.loc 1 311 9 is_stmt 1
 311:src/kernel/riscv.cpp ****         status = MemoryAllocator::kfree((void *) iaddr);;
 1301              		.loc 1 311 53 is_stmt 0
 1302              	#APP
 1303              	# 311 "src/kernel/riscv.cpp" 1
 1304              		mv a0, a1
 1305              	# 0 "" 2
 1306              	.LVL108:
 312:src/kernel/riscv.cpp ****     }
 1307              		.loc 1 312 9 is_stmt 1
 312:src/kernel/riscv.cpp ****     }
 1308              		.loc 1 312 40 is_stmt 0
GAS LISTING /tmp/cc8OAIEG.s 			page 43


 1309              	#NO_APP
 1310 0798 97000000 		call	_ZN15MemoryAllocator5kfreeEPv@plt
 1310      E7800000 
 1311              	.LVL109:
 312:src/kernel/riscv.cpp ****     }
 1312              		.loc 1 312 57 is_stmt 1
 1313 07a0 6FF09FFD 		j	.L60
 1314              		.cfi_endproc
 1315              	.LFE49:
 1317              		.align	2
 1318              		.globl	_ZN5RiscV26executeThreadCreateSyscallEv
 1320              	_ZN5RiscV26executeThreadCreateSyscallEv:
 1321              	.LFB50:
 323:src/kernel/riscv.cpp **** 
 1322              		.loc 1 323 41
 1323              		.cfi_startproc
 1324              		.cfi_personality 0x9b,DW.ref.__gxx_personality_v0
 1325              		.cfi_lsda 0x1b,.LLSDA50
 1326 07a4 130101FC 		addi	sp,sp,-64
 1327              		.cfi_def_cfa_offset 64
 1328 07a8 233C1102 		sd	ra,56(sp)
 1329 07ac 23388102 		sd	s0,48(sp)
 1330 07b0 23349102 		sd	s1,40(sp)
 1331 07b4 23302103 		sd	s2,32(sp)
 1332 07b8 233C3101 		sd	s3,24(sp)
 1333 07bc 23384101 		sd	s4,16(sp)
 1334 07c0 23345101 		sd	s5,8(sp)
 1335              		.cfi_offset 1, -8
 1336              		.cfi_offset 8, -16
 1337              		.cfi_offset 9, -24
 1338              		.cfi_offset 18, -32
 1339              		.cfi_offset 19, -40
 1340              		.cfi_offset 20, -48
 1341              		.cfi_offset 21, -56
 1342 07c4 13040104 		addi	s0,sp,64
 1343              		.cfi_def_cfa 8, 0
 326:src/kernel/riscv.cpp **** 
 1344              		.loc 1 326 5
 328:src/kernel/riscv.cpp ****     asm("mv %[ihandle], a1" : [ihandle] "=r"(ihandle));
 1345              		.loc 1 328 5
 328:src/kernel/riscv.cpp ****     asm("mv %[ihandle], a1" : [ihandle] "=r"(ihandle));
 1346              		.loc 1 328 52 is_stmt 0
 1347              	#APP
 1348              	# 328 "src/kernel/riscv.cpp" 1
 1349              		mv s5, a7
 1350              	# 0 "" 2
 1351              	.LVL110:
 329:src/kernel/riscv.cpp ****     asm("mv %[iroutine], a2" : [iroutine] "=r"(iroutine));
 1352              		.loc 1 329 5 is_stmt 1
 329:src/kernel/riscv.cpp ****     asm("mv %[iroutine], a2" : [iroutine] "=r"(iroutine));
 1353              		.loc 1 329 55 is_stmt 0
 1354              	# 329 "src/kernel/riscv.cpp" 1
 1355              		mv s2, a1
 1356              	# 0 "" 2
 1357              	.LVL111:
 330:src/kernel/riscv.cpp ****     asm("mv %[iargs], a3" : [iargs] "=r"(iargs));
 1358              		.loc 1 330 5 is_stmt 1
GAS LISTING /tmp/cc8OAIEG.s 			page 44


 330:src/kernel/riscv.cpp ****     asm("mv %[iargs], a3" : [iargs] "=r"(iargs));
 1359              		.loc 1 330 58 is_stmt 0
 1360              	# 330 "src/kernel/riscv.cpp" 1
 1361              		mv s3, a2
 1362              	# 0 "" 2
 1363              	.LVL112:
 331:src/kernel/riscv.cpp **** 
 1364              		.loc 1 331 5 is_stmt 1
 331:src/kernel/riscv.cpp **** 
 1365              		.loc 1 331 49 is_stmt 0
 1366              	# 331 "src/kernel/riscv.cpp" 1
 1367              		mv s4, a3
 1368              	# 0 "" 2
 1369              	.LVL113:
 334:src/kernel/riscv.cpp **** 
 1370              		.loc 1 334 5 is_stmt 1
 334:src/kernel/riscv.cpp **** 
 1371              		.loc 1 334 94 is_stmt 0
 1372              	#NO_APP
 1373 07d8 13050007 		li	a0,112
 1374              	.LEHB0:
 1375 07dc 97000000 		call	_ZN3TCBnwEm@plt
 1375      E7800000 
 1376              	.LVL114:
 1377              	.LEHE0:
 1378 07e4 93040500 		mv	s1,a0
 1379 07e8 630E0500 		beqz	a0,.L65
 334:src/kernel/riscv.cpp **** 
 1380              		.loc 1 334 94 discriminator 1
 1381 07ec 13072000 		li	a4,2
 1382 07f0 93860A00 		mv	a3,s5
 1383 07f4 13060A00 		mv	a2,s4
 1384 07f8 93850900 		mv	a1,s3
 1385              	.LEHB1:
 1386 07fc 97000000 		call	_ZN3TCBC1EPFvPvES0_Pmm@plt
 1386      E7800000 
 1387              	.LVL115:
 1388              	.LEHE1:
 1389              	.L65:
 336:src/kernel/riscv.cpp **** 
 1390              		.loc 1 336 5 is_stmt 1 discriminator 6
 338:src/kernel/riscv.cpp ****         status = -1;
 1391              		.loc 1 338 5 discriminator 6
 1392 0804 63880404 		beqz	s1,.L69
 342:src/kernel/riscv.cpp ****             Scheduler::put(tcb);
 1393              		.loc 1 342 9
 342:src/kernel/riscv.cpp ****             Scheduler::put(tcb);
 1394              		.loc 1 342 17 is_stmt 0
 1395 0808 83B78401 		ld	a5,24(s1)
 342:src/kernel/riscv.cpp ****             Scheduler::put(tcb);
 1396              		.loc 1 342 9
 1397 080c 63880700 		beqz	a5,.L67
 343:src/kernel/riscv.cpp ****         *((TCB**)ihandle) = tcb;
 1398              		.loc 1 343 13 is_stmt 1
 343:src/kernel/riscv.cpp ****         *((TCB**)ihandle) = tcb;
 1399              		.loc 1 343 27 is_stmt 0
 1400 0810 13850400 		mv	a0,s1
GAS LISTING /tmp/cc8OAIEG.s 			page 45


 1401              	.LEHB2:
 1402 0814 97000000 		call	_ZN9Scheduler3putEP3TCB@plt
 1402      E7800000 
 1403              	.LVL116:
 1404              	.LEHE2:
 1405              	.L67:
 344:src/kernel/riscv.cpp ****     }
 1406              		.loc 1 344 9 is_stmt 1
 344:src/kernel/riscv.cpp ****     }
 1407              		.loc 1 344 27 is_stmt 0
 1408 081c 23309900 		sd	s1,0(s2)
 336:src/kernel/riscv.cpp **** 
 1409              		.loc 1 336 12
 1410 0820 93070000 		li	a5,0
 1411              	.L66:
 1412              	.LVL117:
 348:src/kernel/riscv.cpp **** 
 1413              		.loc 1 348 5 is_stmt 1
 348:src/kernel/riscv.cpp **** 
 1414              		.loc 1 348 54 is_stmt 0
 1415              	#APP
 1416              	# 348 "src/kernel/riscv.cpp" 1
 350:src/kernel/riscv.cpp **** }
 1417              		mv a0, a5
 1418              	# 0 "" 2
 1419              		.loc 1 350 5 is_stmt 1
 350:src/kernel/riscv.cpp **** }
 1420              		.loc 1 350 28 is_stmt 0
 1421              	#NO_APP
 1422 0828 97000000 		call	_ZN5RiscV16saveA0toSscratchEv
 1422      E7800000 
 1423              	.LVL118:
 351:src/kernel/riscv.cpp **** 
 1424              		.loc 1 351 1
 1425 0830 83308103 		ld	ra,56(sp)
 1426              		.cfi_remember_state
 1427              		.cfi_restore 1
 1428 0834 03340103 		ld	s0,48(sp)
 1429              		.cfi_restore 8
 1430              		.cfi_def_cfa 2, 64
 1431 0838 83348102 		ld	s1,40(sp)
 1432              		.cfi_restore 9
 1433              	.LVL119:
 1434 083c 03390102 		ld	s2,32(sp)
 1435              		.cfi_restore 18
 1436              	.LVL120:
 1437 0840 83398101 		ld	s3,24(sp)
 1438              		.cfi_restore 19
 1439              	.LVL121:
 1440 0844 033A0101 		ld	s4,16(sp)
 1441              		.cfi_restore 20
 1442              	.LVL122:
 1443 0848 833A8100 		ld	s5,8(sp)
 1444              		.cfi_restore 21
 1445              	.LVL123:
 1446 084c 13010104 		addi	sp,sp,64
 1447              		.cfi_def_cfa_offset 0
GAS LISTING /tmp/cc8OAIEG.s 			page 46


 1448 0850 67800000 		jr	ra
 1449              	.LVL124:
 1450              	.L69:
 1451              		.cfi_restore_state
 339:src/kernel/riscv.cpp ****     }
 1452              		.loc 1 339 16
 1453 0854 9307F0FF 		li	a5,-1
 1454 0858 6FF0DFFC 		j	.L66
 1455              	.LVL125:
 1456              	.L70:
 1457 085c 13090500 		mv	s2,a0
 1458              	.LVL126:
 334:src/kernel/riscv.cpp **** 
 1459              		.loc 1 334 94
 1460 0860 13850400 		mv	a0,s1
 1461 0864 97000000 		call	_ZN3TCBdlEPv@plt
 1461      E7800000 
 1462              	.LVL127:
 1463 086c 13050900 		mv	a0,s2
 1464              	.LEHB3:
 1465 0870 97000000 		call	_Unwind_Resume@plt
 1465      E7800000 
 1466              	.LVL128:
 1467              	.LEHE3:
 1468              		.cfi_endproc
 1469              	.LFE50:
 1470              		.globl	__gxx_personality_v0
 1471              		.section	.gcc_except_table,"a",@progbits
 1472              	.LLSDA50:
 1473 0000 FF       		.byte	0xff
 1474 0001 FF       		.byte	0xff
 1475 0002 03       		.byte	0x3
 1476 0003 34       		.byte	0x34
 1477 0004 00000000 		.4byte	.LEHB0-.LFB50
 1478 0008 00000000 		.4byte	.LEHE0-.LEHB0
 1479 000c 00000000 		.4byte	0
 1480 0010 00       		.byte	0
 1481 0011 00000000 		.4byte	.LEHB1-.LFB50
 1482 0015 00000000 		.4byte	.LEHE1-.LEHB1
 1483 0019 00000000 		.4byte	.L70-.LFB50
 1484 001d 00       		.byte	0
 1485 001e 00000000 		.4byte	.LEHB2-.LFB50
 1486 0022 00000000 		.4byte	.LEHE2-.LEHB2
 1487 0026 00000000 		.4byte	0
 1488 002a 00       		.byte	0
 1489 002b 00000000 		.4byte	.LEHB3-.LFB50
 1490 002f 00000000 		.4byte	.LEHE3-.LEHB3
 1491 0033 00000000 		.4byte	0
 1492 0037 00       		.byte	0
 1493              		.text
 1495              		.align	2
 1496              		.globl	_ZN5RiscV30executeThreadAttachBodySyscallEv
 1498              	_ZN5RiscV30executeThreadAttachBodySyscallEv:
 1499              	.LFB51:
 353:src/kernel/riscv.cpp **** 
 1500              		.loc 1 353 45 is_stmt 1
 1501              		.cfi_startproc
GAS LISTING /tmp/cc8OAIEG.s 			page 47


 1502              		.cfi_personality 0x9b,DW.ref.__gxx_personality_v0
 1503              		.cfi_lsda 0x1b,.LLSDA51
 1504 0878 130101FC 		addi	sp,sp,-64
 1505              		.cfi_def_cfa_offset 64
 1506 087c 233C1102 		sd	ra,56(sp)
 1507 0880 23388102 		sd	s0,48(sp)
 1508 0884 23349102 		sd	s1,40(sp)
 1509 0888 23302103 		sd	s2,32(sp)
 1510 088c 233C3101 		sd	s3,24(sp)
 1511 0890 23384101 		sd	s4,16(sp)
 1512 0894 23345101 		sd	s5,8(sp)
 1513              		.cfi_offset 1, -8
 1514              		.cfi_offset 8, -16
 1515              		.cfi_offset 9, -24
 1516              		.cfi_offset 18, -32
 1517              		.cfi_offset 19, -40
 1518              		.cfi_offset 20, -48
 1519              		.cfi_offset 21, -56
 1520 0898 13040104 		addi	s0,sp,64
 1521              		.cfi_def_cfa 8, 0
 356:src/kernel/riscv.cpp **** 
 1522              		.loc 1 356 5
 359:src/kernel/riscv.cpp ****     asm("mv %[ihandle], a1" : [ihandle] "=r"(ihandle));
 1523              		.loc 1 359 5
 359:src/kernel/riscv.cpp ****     asm("mv %[ihandle], a1" : [ihandle] "=r"(ihandle));
 1524              		.loc 1 359 52 is_stmt 0
 1525              	#APP
 1526              	# 359 "src/kernel/riscv.cpp" 1
 1527              		mv s5, a7
 1528              	# 0 "" 2
 1529              	.LVL129:
 360:src/kernel/riscv.cpp ****     asm("mv %[iroutine], a2" : [iroutine] "=r"(iroutine));
 1530              		.loc 1 360 5 is_stmt 1
 360:src/kernel/riscv.cpp ****     asm("mv %[iroutine], a2" : [iroutine] "=r"(iroutine));
 1531              		.loc 1 360 55 is_stmt 0
 1532              	# 360 "src/kernel/riscv.cpp" 1
 1533              		mv s4, a1
 1534              	# 0 "" 2
 1535              	.LVL130:
 361:src/kernel/riscv.cpp ****     asm("mv %[iargs], a3" : [iargs] "=r"(iargs));
 1536              		.loc 1 361 5 is_stmt 1
 361:src/kernel/riscv.cpp ****     asm("mv %[iargs], a3" : [iargs] "=r"(iargs));
 1537              		.loc 1 361 58 is_stmt 0
 1538              	# 361 "src/kernel/riscv.cpp" 1
 1539              		mv s3, a2
 1540              	# 0 "" 2
 1541              	.LVL131:
 362:src/kernel/riscv.cpp **** 
 1542              		.loc 1 362 5 is_stmt 1
 362:src/kernel/riscv.cpp **** 
 1543              		.loc 1 362 49 is_stmt 0
 1544              	# 362 "src/kernel/riscv.cpp" 1
 1545              		mv s2, a3
 1546              	# 0 "" 2
 1547              	.LVL132:
 364:src/kernel/riscv.cpp **** 
 1548              		.loc 1 364 5 is_stmt 1
GAS LISTING /tmp/cc8OAIEG.s 			page 48


 364:src/kernel/riscv.cpp **** 
 1549              		.loc 1 364 94 is_stmt 0
 1550              	#NO_APP
 1551 08ac 13050007 		li	a0,112
 1552              	.LEHB4:
 1553 08b0 97000000 		call	_ZN3TCBnwEm@plt
 1553      E7800000 
 1554              	.LVL133:
 1555              	.LEHE4:
 1556 08b8 93040500 		mv	s1,a0
 1557 08bc 630E0500 		beqz	a0,.L74
 364:src/kernel/riscv.cpp **** 
 1558              		.loc 1 364 94 discriminator 1
 1559 08c0 13072000 		li	a4,2
 1560 08c4 93860A00 		mv	a3,s5
 1561 08c8 13060900 		mv	a2,s2
 1562 08cc 93850900 		mv	a1,s3
 1563              	.LEHB5:
 1564 08d0 97000000 		call	_ZN3TCBC1EPFvPvES0_Pmm@plt
 1564      E7800000 
 1565              	.LVL134:
 1566              	.LEHE5:
 1567              	.L74:
 366:src/kernel/riscv.cpp **** 
 1568              		.loc 1 366 5 is_stmt 1 discriminator 6
 368:src/kernel/riscv.cpp ****         status = -1;
 1569              		.loc 1 368 5 discriminator 6
 1570 08d8 63820404 		beqz	s1,.L77
 372:src/kernel/riscv.cpp ****         tcb->args = (void*)iargs;
 1571              		.loc 1 372 9
 372:src/kernel/riscv.cpp ****         tcb->args = (void*)iargs;
 1572              		.loc 1 372 19 is_stmt 0
 1573 08dc 23BC3401 		sd	s3,24(s1)
 373:src/kernel/riscv.cpp ****         *((TCB**)ihandle) = tcb;
 1574              		.loc 1 373 9 is_stmt 1
 373:src/kernel/riscv.cpp ****         *((TCB**)ihandle) = tcb;
 1575              		.loc 1 373 19 is_stmt 0
 1576 08e0 23B02403 		sd	s2,32(s1)
 374:src/kernel/riscv.cpp ****     }
 1577              		.loc 1 374 9 is_stmt 1
 374:src/kernel/riscv.cpp ****     }
 1578              		.loc 1 374 27 is_stmt 0
 1579 08e4 23309A00 		sd	s1,0(s4)
 366:src/kernel/riscv.cpp **** 
 1580              		.loc 1 366 12
 1581 08e8 93070000 		li	a5,0
 1582              	.L75:
 1583              	.LVL135:
 377:src/kernel/riscv.cpp **** 
 1584              		.loc 1 377 5 is_stmt 1
 377:src/kernel/riscv.cpp **** 
 1585              		.loc 1 377 54 is_stmt 0
 1586              	#APP
 1587              	# 377 "src/kernel/riscv.cpp" 1
 379:src/kernel/riscv.cpp **** }
 1588              		mv a0, a5
 1589              	# 0 "" 2
GAS LISTING /tmp/cc8OAIEG.s 			page 49


 1590              		.loc 1 379 5 is_stmt 1
 379:src/kernel/riscv.cpp **** }
 1591              		.loc 1 379 28 is_stmt 0
 1592              	#NO_APP
 1593 08f0 97000000 		call	_ZN5RiscV16saveA0toSscratchEv
 1593      E7800000 
 1594              	.LVL136:
 380:src/kernel/riscv.cpp **** 
 1595              		.loc 1 380 1
 1596 08f8 83308103 		ld	ra,56(sp)
 1597              		.cfi_remember_state
 1598              		.cfi_restore 1
 1599 08fc 03340103 		ld	s0,48(sp)
 1600              		.cfi_restore 8
 1601              		.cfi_def_cfa 2, 64
 1602 0900 83348102 		ld	s1,40(sp)
 1603              		.cfi_restore 9
 1604              	.LVL137:
 1605 0904 03390102 		ld	s2,32(sp)
 1606              		.cfi_restore 18
 1607              	.LVL138:
 1608 0908 83398101 		ld	s3,24(sp)
 1609              		.cfi_restore 19
 1610              	.LVL139:
 1611 090c 033A0101 		ld	s4,16(sp)
 1612              		.cfi_restore 20
 1613              	.LVL140:
 1614 0910 833A8100 		ld	s5,8(sp)
 1615              		.cfi_restore 21
 1616              	.LVL141:
 1617 0914 13010104 		addi	sp,sp,64
 1618              		.cfi_def_cfa_offset 0
 1619 0918 67800000 		jr	ra
 1620              	.LVL142:
 1621              	.L77:
 1622              		.cfi_restore_state
 369:src/kernel/riscv.cpp ****     }
 1623              		.loc 1 369 16
 1624 091c 9307F0FF 		li	a5,-1
 1625 0920 6FF0DFFC 		j	.L75
 1626              	.LVL143:
 1627              	.L78:
 1628 0924 13090500 		mv	s2,a0
 1629              	.LVL144:
 364:src/kernel/riscv.cpp **** 
 1630              		.loc 1 364 94
 1631 0928 13850400 		mv	a0,s1
 1632 092c 97000000 		call	_ZN3TCBdlEPv@plt
 1632      E7800000 
 1633              	.LVL145:
 1634 0934 13050900 		mv	a0,s2
 1635              	.LEHB6:
 1636 0938 97000000 		call	_Unwind_Resume@plt
 1636      E7800000 
 1637              	.LVL146:
 1638              	.LEHE6:
 1639              		.cfi_endproc
GAS LISTING /tmp/cc8OAIEG.s 			page 50


 1640              	.LFE51:
 1641              		.section	.gcc_except_table
 1642              	.LLSDA51:
 1643 0038 FF       		.byte	0xff
 1644 0039 FF       		.byte	0xff
 1645 003a 03       		.byte	0x3
 1646 003b 27       		.byte	0x27
 1647 003c 00000000 		.4byte	.LEHB4-.LFB51
 1648 0040 00000000 		.4byte	.LEHE4-.LEHB4
 1649 0044 00000000 		.4byte	0
 1650 0048 00       		.byte	0
 1651 0049 00000000 		.4byte	.LEHB5-.LFB51
 1652 004d 00000000 		.4byte	.LEHE5-.LEHB5
 1653 0051 00000000 		.4byte	.L78-.LFB51
 1654 0055 00       		.byte	0
 1655 0056 00000000 		.4byte	.LEHB6-.LFB51
 1656 005a 00000000 		.4byte	.LEHE6-.LEHB6
 1657 005e 00000000 		.4byte	0
 1658 0062 00       		.byte	0
 1659              		.text
 1661              		.align	2
 1662              		.globl	_ZN5RiscV25executeThreadStartSyscallEv
 1664              	_ZN5RiscV25executeThreadStartSyscallEv:
 1665              	.LFB52:
 382:src/kernel/riscv.cpp **** 
 1666              		.loc 1 382 40 is_stmt 1
 1667              		.cfi_startproc
 1668 0940 130101FF 		addi	sp,sp,-16
 1669              		.cfi_def_cfa_offset 16
 1670 0944 23341100 		sd	ra,8(sp)
 1671 0948 23308100 		sd	s0,0(sp)
 1672              		.cfi_offset 1, -8
 1673              		.cfi_offset 8, -16
 1674 094c 13040101 		addi	s0,sp,16
 1675              		.cfi_def_cfa 8, 0
 385:src/kernel/riscv.cpp **** 
 1676              		.loc 1 385 5
 387:src/kernel/riscv.cpp **** 
 1677              		.loc 1 387 5
 387:src/kernel/riscv.cpp **** 
 1678              		.loc 1 387 55 is_stmt 0
 1679              	#APP
 1680              	# 387 "src/kernel/riscv.cpp" 1
 1681              		mv a0, a1
 1682              	# 0 "" 2
 1683              	.LVL147:
 390:src/kernel/riscv.cpp **** 
 1684              		.loc 1 390 5 is_stmt 1
 392:src/kernel/riscv.cpp **** 
 1685              		.loc 1 392 5
 394:src/kernel/riscv.cpp ****         status = -1;
 1686              		.loc 1 394 5
 1687              	#NO_APP
 1688 0954 63120502 		bnez	a0,.L85
 395:src/kernel/riscv.cpp ****     }
 1689              		.loc 1 395 16 is_stmt 0
 1690 0958 9307F0FF 		li	a5,-1
GAS LISTING /tmp/cc8OAIEG.s 			page 51


 1691              	.LVL148:
 1692              	.L82:
 404:src/kernel/riscv.cpp **** 
 1693              		.loc 1 404 5 is_stmt 1
 404:src/kernel/riscv.cpp **** 
 1694              		.loc 1 404 54 is_stmt 0
 1695              	#APP
 1696              	# 404 "src/kernel/riscv.cpp" 1
 406:src/kernel/riscv.cpp **** }
 1697              		mv a0, a5
 1698              	# 0 "" 2
 1699              		.loc 1 406 5 is_stmt 1
 406:src/kernel/riscv.cpp **** }
 1700              		.loc 1 406 28 is_stmt 0
 1701              	#NO_APP
 1702 0960 97000000 		call	_ZN5RiscV16saveA0toSscratchEv
 1702      E7800000 
 1703              	.LVL149:
 407:src/kernel/riscv.cpp **** 
 1704              		.loc 1 407 1
 1705 0968 83308100 		ld	ra,8(sp)
 1706              		.cfi_remember_state
 1707              		.cfi_restore 1
 1708 096c 03340100 		ld	s0,0(sp)
 1709              		.cfi_restore 8
 1710              		.cfi_def_cfa 2, 16
 1711 0970 13010101 		addi	sp,sp,16
 1712              		.cfi_def_cfa_offset 0
 1713 0974 67800000 		jr	ra
 1714              	.LVL150:
 1715              	.L85:
 1716              		.cfi_restore_state
 398:src/kernel/riscv.cpp ****         Scheduler::put(tcb);
 1717              		.loc 1 398 9 is_stmt 1
 398:src/kernel/riscv.cpp ****         Scheduler::put(tcb);
 1718              		.loc 1 398 21 is_stmt 0
 1719 0978 93071000 		li	a5,1
 1720 097c 2328F500 		sw	a5,16(a0)
 399:src/kernel/riscv.cpp ****         TCB::dispatch();
 1721              		.loc 1 399 9 is_stmt 1
 399:src/kernel/riscv.cpp ****         TCB::dispatch();
 1722              		.loc 1 399 23 is_stmt 0
 1723 0980 97000000 		call	_ZN9Scheduler3putEP3TCB@plt
 1723      E7800000 
 1724              	.LVL151:
 400:src/kernel/riscv.cpp ****     }
 1725              		.loc 1 400 9 is_stmt 1
 400:src/kernel/riscv.cpp ****     }
 1726              		.loc 1 400 22 is_stmt 0
 1727 0988 97000000 		call	_ZN3TCB8dispatchEv@plt
 1727      E7800000 
 1728              	.LVL152:
 392:src/kernel/riscv.cpp **** 
 1729              		.loc 1 392 12
 1730 0990 93070000 		li	a5,0
 1731 0994 6FF09FFC 		j	.L82
 1732              		.cfi_endproc
GAS LISTING /tmp/cc8OAIEG.s 			page 52


 1733              	.LFE52:
 1735              		.align	2
 1736              		.globl	_ZN5RiscV24executeThreadExitSyscallEv
 1738              	_ZN5RiscV24executeThreadExitSyscallEv:
 1739              	.LFB53:
 409:src/kernel/riscv.cpp **** 
 1740              		.loc 1 409 40 is_stmt 1
 1741              		.cfi_startproc
 1742 0998 130101FF 		addi	sp,sp,-16
 1743              		.cfi_def_cfa_offset 16
 1744 099c 23341100 		sd	ra,8(sp)
 1745 09a0 23308100 		sd	s0,0(sp)
 1746              		.cfi_offset 1, -8
 1747              		.cfi_offset 8, -16
 1748 09a4 13040101 		addi	s0,sp,16
 1749              		.cfi_def_cfa 8, 0
 412:src/kernel/riscv.cpp **** 
 1750              		.loc 1 412 5
 1751              	.LVL153:
 415:src/kernel/riscv.cpp ****         status = -1;
 1752              		.loc 1 415 5
 1753              	.LBB140:
 415:src/kernel/riscv.cpp ****         status = -1;
 1754              		.loc 1 415 21 is_stmt 0
 1755 09a8 97070000 		la	a5,_ZN3TCB7runningE
 1755      83B70700 
 1756 09b0 83B70700 		ld	a5,0(a5)
 415:src/kernel/riscv.cpp ****         status = -1;
 1757              		.loc 1 415 5
 1758 09b4 638A0702 		beqz	a5,.L88
 1759              	.LBB141:
 419:src/kernel/riscv.cpp ****         old->status = TCB::Status::FINISHED;
 1760              		.loc 1 419 9 is_stmt 1
 1761              	.LVL154:
 420:src/kernel/riscv.cpp ****         TCB::dispatch();
 1762              		.loc 1 420 9
 420:src/kernel/riscv.cpp ****         TCB::dispatch();
 1763              		.loc 1 420 21 is_stmt 0
 1764 09b8 13072000 		li	a4,2
 1765 09bc 23A8E700 		sw	a4,16(a5)
 421:src/kernel/riscv.cpp ****     }
 1766              		.loc 1 421 9 is_stmt 1
 421:src/kernel/riscv.cpp ****     }
 1767              		.loc 1 421 22 is_stmt 0
 1768 09c0 97000000 		call	_ZN3TCB8dispatchEv@plt
 1768      E7800000 
 1769              	.LVL155:
 1770              	.LBE141:
 1771              	.LBE140:
 412:src/kernel/riscv.cpp **** 
 1772              		.loc 1 412 12
 1773 09c8 93070000 		li	a5,0
 1774              	.L87:
 1775              	.LVL156:
 424:src/kernel/riscv.cpp **** 
 1776              		.loc 1 424 5 is_stmt 1
 424:src/kernel/riscv.cpp **** 
GAS LISTING /tmp/cc8OAIEG.s 			page 53


 1777              		.loc 1 424 54 is_stmt 0
 1778              	#APP
 1779              	# 424 "src/kernel/riscv.cpp" 1
 426:src/kernel/riscv.cpp **** }
 1780              		mv a0, a5
 1781              	# 0 "" 2
 1782              		.loc 1 426 5 is_stmt 1
 426:src/kernel/riscv.cpp **** }
 1783              		.loc 1 426 28 is_stmt 0
 1784              	#NO_APP
 1785 09d0 97000000 		call	_ZN5RiscV16saveA0toSscratchEv
 1785      E7800000 
 1786              	.LVL157:
 427:src/kernel/riscv.cpp **** 
 1787              		.loc 1 427 1
 1788 09d8 83308100 		ld	ra,8(sp)
 1789              		.cfi_remember_state
 1790              		.cfi_restore 1
 1791 09dc 03340100 		ld	s0,0(sp)
 1792              		.cfi_restore 8
 1793              		.cfi_def_cfa 2, 16
 1794 09e0 13010101 		addi	sp,sp,16
 1795              		.cfi_def_cfa_offset 0
 1796 09e4 67800000 		jr	ra
 1797              	.LVL158:
 1798              	.L88:
 1799              		.cfi_restore_state
 1800              	.LBB142:
 416:src/kernel/riscv.cpp ****     }
 1801              		.loc 1 416 16
 1802 09e8 9307F0FF 		li	a5,-1
 1803 09ec 6FF01FFE 		j	.L87
 1804              	.LBE142:
 1805              		.cfi_endproc
 1806              	.LFE53:
 1808              		.align	2
 1809              		.globl	_ZN5RiscV21executeSemOpenSyscallEv
 1811              	_ZN5RiscV21executeSemOpenSyscallEv:
 1812              	.LFB55:
 437:src/kernel/riscv.cpp **** 
 1813              		.loc 1 437 37 is_stmt 1
 1814              		.cfi_startproc
 1815              		.cfi_personality 0x9b,DW.ref.__gxx_personality_v0
 1816              		.cfi_lsda 0x1b,.LLSDA55
 1817 09f0 130101FD 		addi	sp,sp,-48
 1818              		.cfi_def_cfa_offset 48
 1819 09f4 23341102 		sd	ra,40(sp)
 1820 09f8 23308102 		sd	s0,32(sp)
 1821 09fc 233C9100 		sd	s1,24(sp)
 1822 0a00 23382101 		sd	s2,16(sp)
 1823 0a04 23343101 		sd	s3,8(sp)
 1824              		.cfi_offset 1, -8
 1825              		.cfi_offset 8, -16
 1826              		.cfi_offset 9, -24
 1827              		.cfi_offset 18, -32
 1828              		.cfi_offset 19, -40
 1829 0a08 13040103 		addi	s0,sp,48
GAS LISTING /tmp/cc8OAIEG.s 			page 54


 1830              		.cfi_def_cfa 8, 0
 440:src/kernel/riscv.cpp **** 
 1831              		.loc 1 440 5
 442:src/kernel/riscv.cpp ****     asm("mv %[iinit], a2" : [iinit] "=r"(iinit));
 1832              		.loc 1 442 5
 442:src/kernel/riscv.cpp ****     asm("mv %[iinit], a2" : [iinit] "=r"(iinit));
 1833              		.loc 1 442 55 is_stmt 0
 1834              	#APP
 1835              	# 442 "src/kernel/riscv.cpp" 1
 1836              		mv s2, a1
 1837              	# 0 "" 2
 1838              	.LVL159:
 443:src/kernel/riscv.cpp **** 
 1839              		.loc 1 443 5 is_stmt 1
 443:src/kernel/riscv.cpp **** 
 1840              		.loc 1 443 49 is_stmt 0
 1841              	# 443 "src/kernel/riscv.cpp" 1
 1842              		mv s3, a2
 1843              	# 0 "" 2
 1844              	.LVL160:
 446:src/kernel/riscv.cpp **** 
 1845              		.loc 1 446 5 is_stmt 1
 446:src/kernel/riscv.cpp **** 
 1846              		.loc 1 446 29 is_stmt 0
 1847              	#NO_APP
 1848 0a14 13058001 		li	a0,24
 1849              	.LEHB7:
 1850 0a18 97000000 		call	_ZN3SCBnwEm@plt
 1850      E7800000 
 1851              	.LVL161:
 1852              	.LEHE7:
 1853 0a20 93040500 		mv	s1,a0
 1854 0a24 63080500 		beqz	a0,.L91
 446:src/kernel/riscv.cpp **** 
 1855              		.loc 1 446 29 discriminator 1
 1856 0a28 93850900 		mv	a1,s3
 1857              	.LEHB8:
 1858 0a2c 97000000 		call	_ZN3SCBC1Em@plt
 1858      E7800000 
 1859              	.LVL162:
 1860              	.LEHE8:
 1861              	.L91:
 448:src/kernel/riscv.cpp **** 
 1862              		.loc 1 448 5 is_stmt 1 discriminator 6
 450:src/kernel/riscv.cpp ****         status = -1;
 1863              		.loc 1 450 5 discriminator 6
 1864 0a34 638A0402 		beqz	s1,.L94
 454:src/kernel/riscv.cpp ****     }
 1865              		.loc 1 454 9
 454:src/kernel/riscv.cpp ****     }
 1866              		.loc 1 454 27 is_stmt 0
 1867 0a38 23309900 		sd	s1,0(s2)
 448:src/kernel/riscv.cpp **** 
 1868              		.loc 1 448 12
 1869 0a3c 93070000 		li	a5,0
 1870              	.L92:
 1871              	.LVL163:
GAS LISTING /tmp/cc8OAIEG.s 			page 55


 458:src/kernel/riscv.cpp **** 
 1872              		.loc 1 458 5 is_stmt 1
 458:src/kernel/riscv.cpp **** 
 1873              		.loc 1 458 54 is_stmt 0
 1874              	#APP
 1875              	# 458 "src/kernel/riscv.cpp" 1
 460:src/kernel/riscv.cpp **** 
 1876              		mv a0, a5
 1877              	# 0 "" 2
 1878              		.loc 1 460 5 is_stmt 1
 460:src/kernel/riscv.cpp **** 
 1879              		.loc 1 460 28 is_stmt 0
 1880              	#NO_APP
 1881 0a44 97000000 		call	_ZN5RiscV16saveA0toSscratchEv
 1881      E7800000 
 1882              	.LVL164:
 462:src/kernel/riscv.cpp **** 
 1883              		.loc 1 462 1
 1884 0a4c 83308102 		ld	ra,40(sp)
 1885              		.cfi_remember_state
 1886              		.cfi_restore 1
 1887 0a50 03340102 		ld	s0,32(sp)
 1888              		.cfi_restore 8
 1889              		.cfi_def_cfa 2, 48
 1890 0a54 83348101 		ld	s1,24(sp)
 1891              		.cfi_restore 9
 1892              	.LVL165:
 1893 0a58 03390101 		ld	s2,16(sp)
 1894              		.cfi_restore 18
 1895              	.LVL166:
 1896 0a5c 83398100 		ld	s3,8(sp)
 1897              		.cfi_restore 19
 1898              	.LVL167:
 1899 0a60 13010103 		addi	sp,sp,48
 1900              		.cfi_def_cfa_offset 0
 1901 0a64 67800000 		jr	ra
 1902              	.LVL168:
 1903              	.L94:
 1904              		.cfi_restore_state
 451:src/kernel/riscv.cpp ****     }
 1905              		.loc 1 451 16
 1906 0a68 9307F0FF 		li	a5,-1
 1907 0a6c 6FF05FFD 		j	.L92
 1908              	.LVL169:
 1909              	.L95:
 1910 0a70 13090500 		mv	s2,a0
 1911              	.LVL170:
 446:src/kernel/riscv.cpp **** 
 1912              		.loc 1 446 29
 1913 0a74 13850400 		mv	a0,s1
 1914 0a78 97000000 		call	_ZN3SCBdlEPv@plt
 1914      E7800000 
 1915              	.LVL171:
 1916 0a80 13050900 		mv	a0,s2
 1917              	.LEHB9:
 1918 0a84 97000000 		call	_Unwind_Resume@plt
 1918      E7800000 
GAS LISTING /tmp/cc8OAIEG.s 			page 56


 1919              	.LVL172:
 1920              	.LEHE9:
 1921              		.cfi_endproc
 1922              	.LFE55:
 1923              		.section	.gcc_except_table
 1924              	.LLSDA55:
 1925 0063 FF       		.byte	0xff
 1926 0064 FF       		.byte	0xff
 1927 0065 03       		.byte	0x3
 1928 0066 27       		.byte	0x27
 1929 0067 00000000 		.4byte	.LEHB7-.LFB55
 1930 006b 00000000 		.4byte	.LEHE7-.LEHB7
 1931 006f 00000000 		.4byte	0
 1932 0073 00       		.byte	0
 1933 0074 00000000 		.4byte	.LEHB8-.LFB55
 1934 0078 00000000 		.4byte	.LEHE8-.LEHB8
 1935 007c 00000000 		.4byte	.L95-.LFB55
 1936 0080 00       		.byte	0
 1937 0081 00000000 		.4byte	.LEHB9-.LFB55
 1938 0085 00000000 		.4byte	.LEHE9-.LEHB9
 1939 0089 00000000 		.4byte	0
 1940 008d 00       		.byte	0
 1941              		.text
 1943              		.align	2
 1944              		.globl	_ZN5RiscV22executeSemCloseSyscallEv
 1946              	_ZN5RiscV22executeSemCloseSyscallEv:
 1947              	.LFB56:
 464:src/kernel/riscv.cpp **** 
 1948              		.loc 1 464 38 is_stmt 1
 1949              		.cfi_startproc
 1950 0a8c 130101FE 		addi	sp,sp,-32
 1951              		.cfi_def_cfa_offset 32
 1952 0a90 233C1100 		sd	ra,24(sp)
 1953 0a94 23388100 		sd	s0,16(sp)
 1954 0a98 23349100 		sd	s1,8(sp)
 1955              		.cfi_offset 1, -8
 1956              		.cfi_offset 8, -16
 1957              		.cfi_offset 9, -24
 1958 0a9c 13040102 		addi	s0,sp,32
 1959              		.cfi_def_cfa 8, 0
 467:src/kernel/riscv.cpp **** 
 1960              		.loc 1 467 5
 469:src/kernel/riscv.cpp **** 
 1961              		.loc 1 469 5
 469:src/kernel/riscv.cpp **** 
 1962              		.loc 1 469 55 is_stmt 0
 1963              	#APP
 1964              	# 469 "src/kernel/riscv.cpp" 1
 1965              		mv s1, a1
 1966              	# 0 "" 2
 1967              	.LVL173:
 472:src/kernel/riscv.cpp ****     uint64 status = 0;
 1968              		.loc 1 472 5 is_stmt 1
 473:src/kernel/riscv.cpp **** 
 1969              		.loc 1 473 5
 475:src/kernel/riscv.cpp ****         status = -1;
 1970              		.loc 1 475 5
GAS LISTING /tmp/cc8OAIEG.s 			page 57


 1971              	#NO_APP
 1972 0aa4 63940402 		bnez	s1,.L102
 476:src/kernel/riscv.cpp ****     }
 1973              		.loc 1 476 16 is_stmt 0
 1974 0aa8 9307F0FF 		li	a5,-1
 1975              	.L99:
 1976              	.LVL174:
 482:src/kernel/riscv.cpp **** 
 1977              		.loc 1 482 5 is_stmt 1
 482:src/kernel/riscv.cpp **** 
 1978              		.loc 1 482 54 is_stmt 0
 1979              	#APP
 1980              	# 482 "src/kernel/riscv.cpp" 1
 484:src/kernel/riscv.cpp **** }
 1981              		mv a0, a5
 1982              	# 0 "" 2
 1983              		.loc 1 484 5 is_stmt 1
 484:src/kernel/riscv.cpp **** }
 1984              		.loc 1 484 28 is_stmt 0
 1985              	#NO_APP
 1986 0ab0 97000000 		call	_ZN5RiscV16saveA0toSscratchEv
 1986      E7800000 
 1987              	.LVL175:
 485:src/kernel/riscv.cpp **** 
 1988              		.loc 1 485 1
 1989 0ab8 83308101 		ld	ra,24(sp)
 1990              		.cfi_remember_state
 1991              		.cfi_restore 1
 1992 0abc 03340101 		ld	s0,16(sp)
 1993              		.cfi_restore 8
 1994              		.cfi_def_cfa 2, 32
 1995 0ac0 83348100 		ld	s1,8(sp)
 1996              		.cfi_restore 9
 1997              	.LVL176:
 1998 0ac4 13010102 		addi	sp,sp,32
 1999              		.cfi_def_cfa_offset 0
 2000 0ac8 67800000 		jr	ra
 2001              	.LVL177:
 2002              	.L102:
 2003              		.cfi_restore_state
 479:src/kernel/riscv.cpp **** 
 2004              		.loc 1 479 9 is_stmt 1 discriminator 1
 479:src/kernel/riscv.cpp **** 
 2005              		.loc 1 479 22 is_stmt 0 discriminator 1
 2006 0acc 13850400 		mv	a0,s1
 2007 0ad0 97000000 		call	_ZN3SCBD1Ev@plt
 2007      E7800000 
 2008              	.LVL178:
 2009 0ad8 13850400 		mv	a0,s1
 2010 0adc 97000000 		call	_ZN3SCBdlEPv@plt
 2010      E7800000 
 2011              	.LVL179:
 473:src/kernel/riscv.cpp **** 
 2012              		.loc 1 473 12 discriminator 1
 2013 0ae4 93070000 		li	a5,0
 2014 0ae8 6FF05FFC 		j	.L99
 2015              		.cfi_endproc
GAS LISTING /tmp/cc8OAIEG.s 			page 58


 2016              	.LFE56:
 2018              		.align	2
 2019              		.globl	_ZN5RiscV21executeSemWaitSyscallEv
 2021              	_ZN5RiscV21executeSemWaitSyscallEv:
 2022              	.LFB57:
 487:src/kernel/riscv.cpp **** 
 2023              		.loc 1 487 37 is_stmt 1
 2024              		.cfi_startproc
 2025 0aec 130101FF 		addi	sp,sp,-16
 2026              		.cfi_def_cfa_offset 16
 2027 0af0 23341100 		sd	ra,8(sp)
 2028 0af4 23308100 		sd	s0,0(sp)
 2029              		.cfi_offset 1, -8
 2030              		.cfi_offset 8, -16
 2031 0af8 13040101 		addi	s0,sp,16
 2032              		.cfi_def_cfa 8, 0
 490:src/kernel/riscv.cpp **** 
 2033              		.loc 1 490 5
 492:src/kernel/riscv.cpp **** 
 2034              		.loc 1 492 5
 492:src/kernel/riscv.cpp **** 
 2035              		.loc 1 492 55 is_stmt 0
 2036              	#APP
 2037              	# 492 "src/kernel/riscv.cpp" 1
 2038              		mv a0, a1
 2039              	# 0 "" 2
 2040              	.LVL180:
 494:src/kernel/riscv.cpp ****     //call wait method on ihandle scb
 2041              		.loc 1 494 5 is_stmt 1
 497:src/kernel/riscv.cpp ****         ((SCB*)ihandle)->wait();
 2042              		.loc 1 497 5
 2043              	#NO_APP
 2044 0b00 631C0502 		bnez	a0,.L108
 2045              	.LVL181:
 2046              	.L104:
 502:src/kernel/riscv.cpp ****         status = -1;
 2047              		.loc 1 502 5
 502:src/kernel/riscv.cpp ****         status = -1;
 2048              		.loc 1 502 22 is_stmt 0
 2049 0b04 97070000 		la	a5,_ZN3TCB7runningE
 2049      83B70700 
 2050 0b0c 83B70700 		ld	a5,0(a5)
 2051 0b10 83B70706 		ld	a5,96(a5)
 502:src/kernel/riscv.cpp ****         status = -1;
 2052              		.loc 1 502 5
 2053 0b14 63880702 		beqz	a5,.L106
 503:src/kernel/riscv.cpp ****     else
 2054              		.loc 1 503 16
 2055 0b18 9307F0FF 		li	a5,-1
 2056              	.L105:
 2057              	.LVL182:
 508:src/kernel/riscv.cpp **** 
 2058              		.loc 1 508 5 is_stmt 1
 508:src/kernel/riscv.cpp **** 
 2059              		.loc 1 508 54 is_stmt 0
 2060              	#APP
 2061              	# 508 "src/kernel/riscv.cpp" 1
GAS LISTING /tmp/cc8OAIEG.s 			page 59


 510:src/kernel/riscv.cpp **** 
 2062              		mv a0, a5
 2063              	# 0 "" 2
 2064              		.loc 1 510 5 is_stmt 1
 510:src/kernel/riscv.cpp **** 
 2065              		.loc 1 510 28 is_stmt 0
 2066              	#NO_APP
 2067 0b20 97000000 		call	_ZN5RiscV16saveA0toSscratchEv
 2067      E7800000 
 2068              	.LVL183:
 512:src/kernel/riscv.cpp **** 
 2069              		.loc 1 512 1
 2070 0b28 83308100 		ld	ra,8(sp)
 2071              		.cfi_remember_state
 2072              		.cfi_restore 1
 2073 0b2c 03340100 		ld	s0,0(sp)
 2074              		.cfi_restore 8
 2075              		.cfi_def_cfa 2, 16
 2076 0b30 13010101 		addi	sp,sp,16
 2077              		.cfi_def_cfa_offset 0
 2078 0b34 67800000 		jr	ra
 2079              	.LVL184:
 2080              	.L108:
 2081              		.cfi_restore_state
 498:src/kernel/riscv.cpp ****     else
 2082              		.loc 1 498 9 is_stmt 1
 498:src/kernel/riscv.cpp ****     else
 2083              		.loc 1 498 30 is_stmt 0
 2084 0b38 97000000 		call	_ZN3SCB4waitEv@plt
 2084      E7800000 
 2085              	.LVL185:
 2086 0b40 6FF05FFC 		j	.L104
 2087              	.LVL186:
 2088              	.L106:
 505:src/kernel/riscv.cpp **** 
 2089              		.loc 1 505 16
 2090 0b44 93070000 		li	a5,0
 2091 0b48 6FF05FFD 		j	.L105
 2092              		.cfi_endproc
 2093              	.LFE57:
 2095              		.align	2
 2096              		.globl	_ZN5RiscV23executeSemSignalSyscallEv
 2098              	_ZN5RiscV23executeSemSignalSyscallEv:
 2099              	.LFB58:
 514:src/kernel/riscv.cpp **** 
 2100              		.loc 1 514 39 is_stmt 1
 2101              		.cfi_startproc
 2102 0b4c 130101FF 		addi	sp,sp,-16
 2103              		.cfi_def_cfa_offset 16
 2104 0b50 23341100 		sd	ra,8(sp)
 2105 0b54 23308100 		sd	s0,0(sp)
 2106              		.cfi_offset 1, -8
 2107              		.cfi_offset 8, -16
 2108 0b58 13040101 		addi	s0,sp,16
 2109              		.cfi_def_cfa 8, 0
 517:src/kernel/riscv.cpp **** 
 2110              		.loc 1 517 5
GAS LISTING /tmp/cc8OAIEG.s 			page 60


 519:src/kernel/riscv.cpp **** 
 2111              		.loc 1 519 5
 519:src/kernel/riscv.cpp **** 
 2112              		.loc 1 519 55 is_stmt 0
 2113              	#APP
 2114              	# 519 "src/kernel/riscv.cpp" 1
 2115              		mv a0, a1
 2116              	# 0 "" 2
 2117              	.LVL187:
 523:src/kernel/riscv.cpp **** 
 2118              		.loc 1 523 5 is_stmt 1
 525:src/kernel/riscv.cpp ****         ((SCB*)ihandle)->signal();
 2119              		.loc 1 525 5
 2120              	#NO_APP
 2121 0b60 63120502 		bnez	a0,.L113
 528:src/kernel/riscv.cpp **** 
 2122              		.loc 1 528 16 is_stmt 0
 2123 0b64 9307F0FF 		li	a5,-1
 2124              	.LVL188:
 2125              	.L110:
 531:src/kernel/riscv.cpp **** 
 2126              		.loc 1 531 5 is_stmt 1
 531:src/kernel/riscv.cpp **** 
 2127              		.loc 1 531 54 is_stmt 0
 2128              	#APP
 2129              	# 531 "src/kernel/riscv.cpp" 1
 533:src/kernel/riscv.cpp **** }
 2130              		mv a0, a5
 2131              	# 0 "" 2
 2132              		.loc 1 533 5 is_stmt 1
 533:src/kernel/riscv.cpp **** }
 2133              		.loc 1 533 28 is_stmt 0
 2134              	#NO_APP
 2135 0b6c 97000000 		call	_ZN5RiscV16saveA0toSscratchEv
 2135      E7800000 
 2136              	.LVL189:
 534:src/kernel/riscv.cpp **** 
 2137              		.loc 1 534 1
 2138 0b74 83308100 		ld	ra,8(sp)
 2139              		.cfi_remember_state
 2140              		.cfi_restore 1
 2141 0b78 03340100 		ld	s0,0(sp)
 2142              		.cfi_restore 8
 2143              		.cfi_def_cfa 2, 16
 2144 0b7c 13010101 		addi	sp,sp,16
 2145              		.cfi_def_cfa_offset 0
 2146 0b80 67800000 		jr	ra
 2147              	.LVL190:
 2148              	.L113:
 2149              		.cfi_restore_state
 526:src/kernel/riscv.cpp ****     else
 2150              		.loc 1 526 9 is_stmt 1
 526:src/kernel/riscv.cpp ****     else
 2151              		.loc 1 526 32 is_stmt 0
 2152 0b84 97000000 		call	_ZN3SCB6signalEv@plt
 2152      E7800000 
 2153              	.LVL191:
GAS LISTING /tmp/cc8OAIEG.s 			page 61


 523:src/kernel/riscv.cpp **** 
 2154              		.loc 1 523 12
 2155 0b8c 93070000 		li	a5,0
 2156 0b90 6FF09FFD 		j	.L110
 2157              		.cfi_endproc
 2158              	.LFE58:
 2160              		.align	2
 2161              		.globl	_ZN5RiscV23executeTimeSleepSyscallEv
 2163              	_ZN5RiscV23executeTimeSleepSyscallEv:
 2164              	.LFB59:
 536:src/kernel/riscv.cpp **** 
 2165              		.loc 1 536 39 is_stmt 1
 2166              		.cfi_startproc
 2167 0b94 130101FE 		addi	sp,sp,-32
 2168              		.cfi_def_cfa_offset 32
 2169 0b98 233C1100 		sd	ra,24(sp)
 2170 0b9c 23388100 		sd	s0,16(sp)
 2171 0ba0 23349100 		sd	s1,8(sp)
 2172              		.cfi_offset 1, -8
 2173              		.cfi_offset 8, -16
 2174              		.cfi_offset 9, -24
 2175 0ba4 13040102 		addi	s0,sp,32
 2176              		.cfi_def_cfa 8, 0
 539:src/kernel/riscv.cpp **** 
 2177              		.loc 1 539 5
 541:src/kernel/riscv.cpp **** 
 2178              		.loc 1 541 5
 541:src/kernel/riscv.cpp **** 
 2179              		.loc 1 541 49 is_stmt 0
 2180              	#APP
 2181              	# 541 "src/kernel/riscv.cpp" 1
 545:src/kernel/riscv.cpp ****     tcb->sleepTime = globalTime;
 2182              		mv a4, a1
 2183              	# 0 "" 2
 2184              		.loc 1 545 5 is_stmt 1
 545:src/kernel/riscv.cpp ****     tcb->sleepTime = globalTime;
 2185              		.loc 1 545 10 is_stmt 0
 2186              	#NO_APP
 2187 0bac 97070000 		la	a5,_ZN3TCB7runningE
 2187      83B70700 
 2188 0bb4 83B40700 		ld	s1,0(a5)
 2189              	.LVL192:
 546:src/kernel/riscv.cpp ****     tcb->wakeTime = globalTime + itime;
 2190              		.loc 1 546 5 is_stmt 1
 546:src/kernel/riscv.cpp ****     tcb->wakeTime = globalTime + itime;
 2191              		.loc 1 546 20 is_stmt 0
 2192 0bb8 97070000 		ld	a5,.LANCHOR0+16
 2192      83B70700 
 2193 0bc0 23B8F404 		sd	a5,80(s1)
 547:src/kernel/riscv.cpp **** 
 2194              		.loc 1 547 5 is_stmt 1
 547:src/kernel/riscv.cpp **** 
 2195              		.loc 1 547 32 is_stmt 0
 2196 0bc4 B387E700 		add	a5,a5,a4
 547:src/kernel/riscv.cpp **** 
 2197              		.loc 1 547 19
 2198 0bc8 23BCF404 		sd	a5,88(s1)
GAS LISTING /tmp/cc8OAIEG.s 			page 62


 549:src/kernel/riscv.cpp **** 
 2199              		.loc 1 549 5 is_stmt 1
 549:src/kernel/riscv.cpp **** 
 2200              		.loc 1 549 21 is_stmt 0
 2201 0bcc 13850400 		mv	a0,s1
 2202 0bd0 97000000 		call	_ZN9Scheduler5sleepEP3TCB@plt
 2202      E7800000 
 2203              	.LVL193:
 551:src/kernel/riscv.cpp **** 
 2204              		.loc 1 551 5 is_stmt 1
 551:src/kernel/riscv.cpp **** 
 2205              		.loc 1 551 17 is_stmt 0
 2206 0bd8 93073000 		li	a5,3
 2207 0bdc 23A8F400 		sw	a5,16(s1)
 553:src/kernel/riscv.cpp **** 
 2208              		.loc 1 553 5 is_stmt 1
 553:src/kernel/riscv.cpp **** 
 2209              		.loc 1 553 18 is_stmt 0
 2210 0be0 97000000 		call	_ZN3TCB8dispatchEv@plt
 2210      E7800000 
 2211              	.LVL194:
 555:src/kernel/riscv.cpp **** 
 2212              		.loc 1 555 5 is_stmt 1
 558:src/kernel/riscv.cpp **** 
 2213              		.loc 1 558 5
 558:src/kernel/riscv.cpp **** 
 2214              		.loc 1 558 54 is_stmt 0
 2215 0be8 93070000 		li	a5,0
 2216              	#APP
 2217              	# 558 "src/kernel/riscv.cpp" 1
 560:src/kernel/riscv.cpp **** }
 2218              		mv a0, a5
 2219              	# 0 "" 2
 2220              		.loc 1 560 5 is_stmt 1
 560:src/kernel/riscv.cpp **** }
 2221              		.loc 1 560 28 is_stmt 0
 2222              	#NO_APP
 2223 0bf0 97000000 		call	_ZN5RiscV16saveA0toSscratchEv
 2223      E7800000 
 2224              	.LVL195:
 561:src/kernel/riscv.cpp **** 
 2225              		.loc 1 561 1
 2226 0bf8 83308101 		ld	ra,24(sp)
 2227              		.cfi_restore 1
 2228 0bfc 03340101 		ld	s0,16(sp)
 2229              		.cfi_restore 8
 2230              		.cfi_def_cfa 2, 32
 2231 0c00 83348100 		ld	s1,8(sp)
 2232              		.cfi_restore 9
 2233              	.LVL196:
 2234 0c04 13010102 		addi	sp,sp,32
 2235              		.cfi_def_cfa_offset 0
 2236 0c08 67800000 		jr	ra
 2237              		.cfi_endproc
 2238              	.LFE59:
 2240              		.align	2
 2241              		.globl	_ZN5RiscV18executeGetcSyscallEv
GAS LISTING /tmp/cc8OAIEG.s 			page 63


 2243              	_ZN5RiscV18executeGetcSyscallEv:
 2244              	.LFB60:
 563:src/kernel/riscv.cpp **** 
 2245              		.loc 1 563 34 is_stmt 1
 2246              		.cfi_startproc
 2247 0c0c 130101FE 		addi	sp,sp,-32
 2248              		.cfi_def_cfa_offset 32
 2249 0c10 233C1100 		sd	ra,24(sp)
 2250 0c14 23388100 		sd	s0,16(sp)
 2251 0c18 23349100 		sd	s1,8(sp)
 2252              		.cfi_offset 1, -8
 2253              		.cfi_offset 8, -16
 2254              		.cfi_offset 9, -24
 2255 0c1c 13040102 		addi	s0,sp,32
 2256              		.cfi_def_cfa 8, 0
 566:src/kernel/riscv.cpp ****         ConsoleUtil::pendingGetc++;
 2257              		.loc 1 566 5
 566:src/kernel/riscv.cpp ****         ConsoleUtil::pendingGetc++;
 2258              		.loc 1 566 8 is_stmt 0
 2259 0c20 97070000 		lbu	a5,.LANCHOR0+8
 2259      83C70700 
 566:src/kernel/riscv.cpp ****         ConsoleUtil::pendingGetc++;
 2260              		.loc 1 566 5
 2261 0c28 639C0700 		bnez	a5,.L117
 567:src/kernel/riscv.cpp **** 
 2262              		.loc 1 567 9 is_stmt 1
 567:src/kernel/riscv.cpp **** 
 2263              		.loc 1 567 33 is_stmt 0
 2264 0c2c 17070000 		la	a4,_ZN11ConsoleUtil11pendingGetcE
 2264      03370700 
 2265 0c34 83370700 		ld	a5,0(a4)
 2266 0c38 93871700 		addi	a5,a5,1
 2267 0c3c 2330F700 		sd	a5,0(a4)
 2268              	.L117:
 570:src/kernel/riscv.cpp **** 
 2269              		.loc 1 570 5 is_stmt 1
 570:src/kernel/riscv.cpp **** 
 2270              		.loc 1 570 35 is_stmt 0
 2271 0c40 97000000 		call	_ZN11ConsoleUtil8getInputEv@plt
 2271      E7800000 
 2272              	.LVL197:
 2273 0c48 93040500 		mv	s1,a0
 2274              	.LVL198:
 573:src/kernel/riscv.cpp ****         ConsoleUtil::putOutput(13);
 2275              		.loc 1 573 5 is_stmt 1
 2276 0c4c 9307D000 		li	a5,13
 2277 0c50 6306F502 		beq	a0,a5,.L121
 578:src/kernel/riscv.cpp ****         ConsoleUtil::putOutput(c);
 2278              		.loc 1 578 10
 2279 0c54 9307B001 		li	a5,27
 2280 0c58 6310F504 		bne	a0,a5,.L122
 2281              	.LVL199:
 2282              	.L119:
 582:src/kernel/riscv.cpp **** 
 2283              		.loc 1 582 5
 582:src/kernel/riscv.cpp **** 
 2284              		.loc 1 582 39 is_stmt 0
GAS LISTING /tmp/cc8OAIEG.s 			page 64


 2285              	#APP
 2286              	# 582 "src/kernel/riscv.cpp" 1
 584:src/kernel/riscv.cpp **** }
 2287              		mv a0, s1
 2288              	# 0 "" 2
 2289              		.loc 1 584 5 is_stmt 1
 584:src/kernel/riscv.cpp **** }
 2290              		.loc 1 584 28 is_stmt 0
 2291              	#NO_APP
 2292 0c60 97000000 		call	_ZN5RiscV16saveA0toSscratchEv
 2292      E7800000 
 2293              	.LVL200:
 585:src/kernel/riscv.cpp **** 
 2294              		.loc 1 585 1
 2295 0c68 83308101 		ld	ra,24(sp)
 2296              		.cfi_remember_state
 2297              		.cfi_restore 1
 2298 0c6c 03340101 		ld	s0,16(sp)
 2299              		.cfi_restore 8
 2300              		.cfi_def_cfa 2, 32
 2301 0c70 83348100 		ld	s1,8(sp)
 2302              		.cfi_restore 9
 2303 0c74 13010102 		addi	sp,sp,32
 2304              		.cfi_def_cfa_offset 0
 2305 0c78 67800000 		jr	ra
 2306              	.LVL201:
 2307              	.L121:
 2308              		.cfi_restore_state
 574:src/kernel/riscv.cpp ****         ConsoleUtil::putOutput(10);
 2309              		.loc 1 574 9 is_stmt 1
 574:src/kernel/riscv.cpp ****         ConsoleUtil::putOutput(10);
 2310              		.loc 1 574 31 is_stmt 0
 2311 0c7c 1305D000 		li	a0,13
 2312              	.LVL202:
 2313 0c80 97000000 		call	_ZN11ConsoleUtil9putOutputEc@plt
 2313      E7800000 
 2314              	.LVL203:
 575:src/kernel/riscv.cpp ****     }
 2315              		.loc 1 575 9 is_stmt 1
 575:src/kernel/riscv.cpp ****     }
 2316              		.loc 1 575 31 is_stmt 0
 2317 0c88 1305A000 		li	a0,10
 2318 0c8c 97000000 		call	_ZN11ConsoleUtil9putOutputEc@plt
 2318      E7800000 
 2319              	.LVL204:
 2320 0c94 6FF09FFC 		j	.L119
 2321              	.LVL205:
 2322              	.L122:
 579:src/kernel/riscv.cpp **** 
 2323              		.loc 1 579 9 is_stmt 1
 579:src/kernel/riscv.cpp **** 
 2324              		.loc 1 579 31 is_stmt 0
 2325 0c98 97000000 		call	_ZN11ConsoleUtil9putOutputEc@plt
 2325      E7800000 
 2326              	.LVL206:
 2327 0ca0 6FF0DFFB 		j	.L119
 2328              		.cfi_endproc
GAS LISTING /tmp/cc8OAIEG.s 			page 65


 2329              	.LFE60:
 2331              		.align	2
 2332              		.globl	_ZN5RiscV22executePutcUtilSyscallEv
 2334              	_ZN5RiscV22executePutcUtilSyscallEv:
 2335              	.LFB63:
 636:src/kernel/riscv.cpp ****     char c = ConsoleUtil::getOutput();
 2336              		.loc 1 636 38 is_stmt 1
 2337              		.cfi_startproc
 2338 0ca4 130101FF 		addi	sp,sp,-16
 2339              		.cfi_def_cfa_offset 16
 2340 0ca8 23341100 		sd	ra,8(sp)
 2341 0cac 23308100 		sd	s0,0(sp)
 2342              		.cfi_offset 1, -8
 2343              		.cfi_offset 8, -16
 2344 0cb0 13040101 		addi	s0,sp,16
 2345              		.cfi_def_cfa 8, 0
 637:src/kernel/riscv.cpp ****     asm("mv a0, %[c]" : : [c] "r" ((uint64)(c)) );
 2346              		.loc 1 637 5
 637:src/kernel/riscv.cpp ****     asm("mv a0, %[c]" : : [c] "r" ((uint64)(c)) );
 2347              		.loc 1 637 36 is_stmt 0
 2348 0cb4 97000000 		call	_ZN11ConsoleUtil9getOutputEv@plt
 2348      E7800000 
 2349              	.LVL207:
 638:src/kernel/riscv.cpp **** 
 2350              		.loc 1 638 5 is_stmt 1
 638:src/kernel/riscv.cpp **** 
 2351              		.loc 1 638 50 is_stmt 0
 2352              	#APP
 2353              	# 638 "src/kernel/riscv.cpp" 1
 640:src/kernel/riscv.cpp **** }
 2354              		mv a0, a0
 2355              	# 0 "" 2
 2356              		.loc 1 640 5 is_stmt 1
 640:src/kernel/riscv.cpp **** }
 2357              		.loc 1 640 28 is_stmt 0
 2358              	#NO_APP
 2359 0cc0 97000000 		call	_ZN5RiscV16saveA0toSscratchEv
 2359      E7800000 
 2360              	.LVL208:
 641:src/kernel/riscv.cpp **** 
 2361              		.loc 1 641 1
 2362 0cc8 83308100 		ld	ra,8(sp)
 2363              		.cfi_restore 1
 2364 0ccc 03340100 		ld	s0,0(sp)
 2365              		.cfi_restore 8
 2366              		.cfi_def_cfa 2, 16
 2367 0cd0 13010101 		addi	sp,sp,16
 2368              		.cfi_def_cfa_offset 0
 2369 0cd4 67800000 		jr	ra
 2370              		.cfi_endproc
 2371              	.LFE63:
 2373              		.align	2
 2374              		.globl	_ZN5RiscV24executeThreadFreeSyscallEv
 2376              	_ZN5RiscV24executeThreadFreeSyscallEv:
 2377              	.LFB67:
 681:src/kernel/riscv.cpp **** 
 682:src/kernel/riscv.cpp **** //syscall to free the space that is allocated for thread
GAS LISTING /tmp/cc8OAIEG.s 			page 66


 683:src/kernel/riscv.cpp **** void RiscV::executeThreadFreeSyscall() {
 2378              		.loc 1 683 40 is_stmt 1
 2379              		.cfi_startproc
 2380 0cd8 130101FE 		addi	sp,sp,-32
 2381              		.cfi_def_cfa_offset 32
 2382 0cdc 233C1100 		sd	ra,24(sp)
 2383 0ce0 23388100 		sd	s0,16(sp)
 2384 0ce4 23349100 		sd	s1,8(sp)
 2385              		.cfi_offset 1, -8
 2386              		.cfi_offset 8, -16
 2387              		.cfi_offset 9, -24
 2388 0ce8 13040102 		addi	s0,sp,32
 2389              		.cfi_def_cfa 8, 0
 684:src/kernel/riscv.cpp ****     uint64 iaddr, status;
 2390              		.loc 1 684 5
 685:src/kernel/riscv.cpp **** 
 686:src/kernel/riscv.cpp ****     asm("mv %[iaddr], a1" : [iaddr] "=r"(iaddr));
 2391              		.loc 1 686 5
 2392              		.loc 1 686 49 is_stmt 0
 2393              	#APP
 2394              	# 686 "src/kernel/riscv.cpp" 1
 687              	
 2395              		mv s1, a1
 2396              	# 0 "" 2
 2397              	.LVL209:
 688:src/kernel/riscv.cpp ****     TCB *thr = (TCB*)iaddr;
 2398              		.loc 1 688 5 is_stmt 1
 689:src/kernel/riscv.cpp **** 
 690:src/kernel/riscv.cpp ****     if(thr == nullptr)
 2399              		.loc 1 690 5
 2400              	#NO_APP
 2401 0cf0 63940402 		bnez	s1,.L128
 2402              	.L126:
 2403              	.LVL210:
 691:src/kernel/riscv.cpp ****         status = -1;
 692:src/kernel/riscv.cpp ****     else {
 693:src/kernel/riscv.cpp ****         kfree(thr->stack);
 694:src/kernel/riscv.cpp ****         delete thr;
 695:src/kernel/riscv.cpp ****     }
 696:src/kernel/riscv.cpp **** 
 697:src/kernel/riscv.cpp ****     //return status
 698:src/kernel/riscv.cpp ****     asm("mv a0, %[status]" : : [status] "r" (status));
 2404              		.loc 1 698 5
 2405              		.loc 1 698 54 is_stmt 0
 2406 0cf4 9307F0FF 		li	a5,-1
 2407              	#APP
 2408              	# 698 "src/kernel/riscv.cpp" 1
 699              	
 700:src/kernel/riscv.cpp ****     RiscV::saveA0toSscratch();
 2409              		mv a0, a5
 2410              	# 0 "" 2
 2411              		.loc 1 700 5 is_stmt 1
 2412              		.loc 1 700 28 is_stmt 0
 2413              	#NO_APP
 2414 0cfc 97000000 		call	_ZN5RiscV16saveA0toSscratchEv
 2414      E7800000 
 2415              	.LVL211:
GAS LISTING /tmp/cc8OAIEG.s 			page 67


 701:src/kernel/riscv.cpp **** }
 2416              		.loc 1 701 1
 2417 0d04 83308101 		ld	ra,24(sp)
 2418              		.cfi_remember_state
 2419              		.cfi_restore 1
 2420 0d08 03340101 		ld	s0,16(sp)
 2421              		.cfi_restore 8
 2422              		.cfi_def_cfa 2, 32
 2423 0d0c 83348100 		ld	s1,8(sp)
 2424              		.cfi_restore 9
 2425              	.LVL212:
 2426 0d10 13010102 		addi	sp,sp,32
 2427              		.cfi_def_cfa_offset 0
 2428 0d14 67800000 		jr	ra
 2429              	.LVL213:
 2430              	.L128:
 2431              		.cfi_restore_state
 693:src/kernel/riscv.cpp ****         delete thr;
 2432              		.loc 1 693 9 is_stmt 1
 693:src/kernel/riscv.cpp ****         delete thr;
 2433              		.loc 1 693 14 is_stmt 0
 2434 0d18 03B58402 		ld	a0,40(s1)
 2435 0d1c 97000000 		call	_Z5kfreePKv@plt
 2435      E7800000 
 2436              	.LVL214:
 694:src/kernel/riscv.cpp ****     }
 2437              		.loc 1 694 9 is_stmt 1
 694:src/kernel/riscv.cpp ****     }
 2438              		.loc 1 694 16 is_stmt 0
 2439 0d24 13850400 		mv	a0,s1
 2440 0d28 97000000 		call	_ZN3TCBD1Ev@plt
 2440      E7800000 
 2441              	.LVL215:
 2442 0d30 13850400 		mv	a0,s1
 2443 0d34 97000000 		call	_ZN3TCBdlEPv@plt
 2443      E7800000 
 2444              	.LVL216:
 2445 0d3c 6FF09FFB 		j	.L126
 2446              		.cfi_endproc
 2447              	.LFE67:
 2449              		.align	2
 2450              		.globl	_ZN5RiscV27executeSemaphoreFreeSyscallEv
 2452              	_ZN5RiscV27executeSemaphoreFreeSyscallEv:
 2453              	.LFB68:
 702:src/kernel/riscv.cpp **** 
 703:src/kernel/riscv.cpp **** //syscall to free the space that is allocated for semaphore
 704:src/kernel/riscv.cpp **** void RiscV::executeSemaphoreFreeSyscall() {
 2454              		.loc 1 704 43 is_stmt 1
 2455              		.cfi_startproc
 2456 0d40 130101FE 		addi	sp,sp,-32
 2457              		.cfi_def_cfa_offset 32
 2458 0d44 233C1100 		sd	ra,24(sp)
 2459 0d48 23388100 		sd	s0,16(sp)
 2460 0d4c 23349100 		sd	s1,8(sp)
 2461              		.cfi_offset 1, -8
 2462              		.cfi_offset 8, -16
 2463              		.cfi_offset 9, -24
GAS LISTING /tmp/cc8OAIEG.s 			page 68


 2464 0d50 13040102 		addi	s0,sp,32
 2465              		.cfi_def_cfa 8, 0
 705:src/kernel/riscv.cpp ****     uint64 iaddr, status;
 2466              		.loc 1 705 5
 706:src/kernel/riscv.cpp **** 
 707:src/kernel/riscv.cpp ****     //call internal allocator and free memory which iaddr points to
 708:src/kernel/riscv.cpp ****     asm("mv %[iaddr], a1" : [iaddr] "=r"(iaddr));
 2467              		.loc 1 708 5
 2468              		.loc 1 708 49 is_stmt 0
 2469              	#APP
 2470              	# 708 "src/kernel/riscv.cpp" 1
 709              	
 2471              		mv s1, a1
 2472              	# 0 "" 2
 2473              	.LVL217:
 710:src/kernel/riscv.cpp ****     SCB *scb = (SCB*)iaddr;
 2474              		.loc 1 710 5 is_stmt 1
 711:src/kernel/riscv.cpp **** 
 712:src/kernel/riscv.cpp ****     if(scb == nullptr){
 2475              		.loc 1 712 5
 2476              	#NO_APP
 2477 0d58 63940402 		bnez	s1,.L132
 2478              	.L130:
 2479              	.LVL218:
 713:src/kernel/riscv.cpp ****         status = -1;
 714:src/kernel/riscv.cpp ****     }
 715:src/kernel/riscv.cpp ****     else
 716:src/kernel/riscv.cpp ****         delete scb;
 717:src/kernel/riscv.cpp **** 
 718:src/kernel/riscv.cpp ****     //return status
 719:src/kernel/riscv.cpp ****     asm("mv a0, %[status]" : : [status] "r" (status));
 2480              		.loc 1 719 5
 2481              		.loc 1 719 54 is_stmt 0
 2482 0d5c 9307F0FF 		li	a5,-1
 2483              	#APP
 2484              	# 719 "src/kernel/riscv.cpp" 1
 720              	
 721:src/kernel/riscv.cpp ****     RiscV::saveA0toSscratch();
 2485              		mv a0, a5
 2486              	# 0 "" 2
 2487              		.loc 1 721 5 is_stmt 1
 2488              		.loc 1 721 28 is_stmt 0
 2489              	#NO_APP
 2490 0d64 97000000 		call	_ZN5RiscV16saveA0toSscratchEv
 2490      E7800000 
 2491              	.LVL219:
 722:src/kernel/riscv.cpp **** }
 2492              		.loc 1 722 1
 2493 0d6c 83308101 		ld	ra,24(sp)
 2494              		.cfi_remember_state
 2495              		.cfi_restore 1
 2496 0d70 03340101 		ld	s0,16(sp)
 2497              		.cfi_restore 8
 2498              		.cfi_def_cfa 2, 32
 2499 0d74 83348100 		ld	s1,8(sp)
 2500              		.cfi_restore 9
 2501              	.LVL220:
GAS LISTING /tmp/cc8OAIEG.s 			page 69


 2502 0d78 13010102 		addi	sp,sp,32
 2503              		.cfi_def_cfa_offset 0
 2504 0d7c 67800000 		jr	ra
 2505              	.LVL221:
 2506              	.L132:
 2507              		.cfi_restore_state
 716:src/kernel/riscv.cpp **** 
 2508              		.loc 1 716 9 is_stmt 1 discriminator 1
 716:src/kernel/riscv.cpp **** 
 2509              		.loc 1 716 16 is_stmt 0 discriminator 1
 2510 0d80 13850400 		mv	a0,s1
 2511 0d84 97000000 		call	_ZN3SCBD1Ev@plt
 2511      E7800000 
 2512              	.LVL222:
 2513 0d8c 13850400 		mv	a0,s1
 2514 0d90 97000000 		call	_ZN3SCBdlEPv@plt
 2514      E7800000 
 2515              	.LVL223:
 2516 0d98 6FF05FFC 		j	.L130
 2517              		.cfi_endproc
 2518              	.LFE68:
 2520              		.align	2
 2521              		.globl	_ZN5RiscV18executeForkSyscallEv
 2523              	_ZN5RiscV18executeForkSyscallEv:
 2524              	.LFB69:
 723:src/kernel/riscv.cpp **** 
 724:src/kernel/riscv.cpp **** //fork syscall
 725:src/kernel/riscv.cpp **** void RiscV::executeForkSyscall() {
 2525              		.loc 1 725 34 is_stmt 1
 2526              		.cfi_startproc
 2527              		.cfi_personality 0x9b,DW.ref.__gxx_personality_v0
 2528              		.cfi_lsda 0x1b,.LLSDA69
 2529 0d9c 130101FE 		addi	sp,sp,-32
 2530              		.cfi_def_cfa_offset 32
 2531 0da0 233C1100 		sd	ra,24(sp)
 2532 0da4 23388100 		sd	s0,16(sp)
 2533 0da8 23349100 		sd	s1,8(sp)
 2534 0dac 23302101 		sd	s2,0(sp)
 2535              		.cfi_offset 1, -8
 2536              		.cfi_offset 8, -16
 2537              		.cfi_offset 9, -24
 2538              		.cfi_offset 18, -32
 2539 0db0 13040102 		addi	s0,sp,32
 2540              		.cfi_def_cfa 8, 0
 726:src/kernel/riscv.cpp **** 
 727:src/kernel/riscv.cpp ****     //create new stack and copy stack from currently running stack into the new one
 728:src/kernel/riscv.cpp ****     uint64 *stack = (uint64*)kmalloc(DEFAULT_STACK_SIZE);
 2541              		.loc 1 728 5
 2542              		.loc 1 728 37 is_stmt 0
 2543 0db4 37150000 		li	a0,4096
 2544              	.LEHB10:
 2545 0db8 97000000 		call	_Z7kmallocm@plt
 2545      E7800000 
 2546              	.LVL224:
 2547 0dc0 13090500 		mv	s2,a0
 2548              	.LVL225:
 729:src/kernel/riscv.cpp **** 
GAS LISTING /tmp/cc8OAIEG.s 			page 70


 730:src/kernel/riscv.cpp ****     MemoryAllocator::memcpy((void*)TCB::running->stack,(void*)stack,DEFAULT_STACK_SIZE);
 2549              		.loc 1 730 5 is_stmt 1
 2550              		.loc 1 730 28 is_stmt 0
 2551 0dc4 97070000 		la	a5,_ZN3TCB7runningE
 2551      83B70700 
 2552 0dcc 83B70700 		ld	a5,0(a5)
 2553 0dd0 37160000 		li	a2,4096
 2554 0dd4 93050500 		mv	a1,a0
 2555 0dd8 03B58702 		ld	a0,40(a5)
 2556              	.LVL226:
 2557 0ddc 97000000 		call	_ZN15MemoryAllocator6memcpyEPvS0_m@plt
 2557      E7800000 
 2558              	.LVL227:
 731:src/kernel/riscv.cpp **** 
 732:src/kernel/riscv.cpp ****     //create new TCB for new thread
 733:src/kernel/riscv.cpp ****     TCB *forked = new TCB(nullptr, nullptr, stack, DEFAULT_TIME_SLICE);
 2559              		.loc 1 733 5 is_stmt 1
 2560              		.loc 1 733 70 is_stmt 0
 2561 0de4 13050007 		li	a0,112
 2562 0de8 97000000 		call	_ZN3TCBnwEm@plt
 2562      E7800000 
 2563              	.LVL228:
 2564              	.LEHE10:
 2565 0df0 93040500 		mv	s1,a0
 2566 0df4 630E0500 		beqz	a0,.L134
 2567              		.loc 1 733 70 discriminator 1
 2568 0df8 13072000 		li	a4,2
 2569 0dfc 93060900 		mv	a3,s2
 2570 0e00 13060000 		li	a2,0
 2571 0e04 93050000 		li	a1,0
 2572              	.LEHB11:
 2573 0e08 97000000 		call	_ZN3TCBC1EPFvPvES0_Pmm@plt
 2573      E7800000 
 2574              	.LVL229:
 2575              	.LEHE11:
 2576              	.L134:
 734:src/kernel/riscv.cpp **** 
 735:src/kernel/riscv.cpp ****     uint64 status = 0;
 2577              		.loc 1 735 5 is_stmt 1 discriminator 6
 736:src/kernel/riscv.cpp **** 
 737:src/kernel/riscv.cpp ****     if(forked) {
 2578              		.loc 1 737 5 discriminator 6
 2579              	.LBB143:
 2580 0e10 638E040A 		beqz	s1,.L137
 2581              	.LBB144:
 738:src/kernel/riscv.cpp **** 
 739:src/kernel/riscv.cpp ****         //set return address where forked thread should return
 740:src/kernel/riscv.cpp ****         forked->context.ra = TCB::currentPC;
 2582              		.loc 1 740 9
 2583              		.loc 1 740 28 is_stmt 0
 2584 0e14 97070000 		la	a5,_ZN3TCB9currentPCE
 2584      83B70700 
 2585 0e1c 83B70700 		ld	a5,0(a5)
 2586 0e20 23B4F400 		sd	a5,8(s1)
 741:src/kernel/riscv.cpp **** 
 742:src/kernel/riscv.cpp ****         //set SP value where forked thread's stack starts
 743:src/kernel/riscv.cpp ****         forked->context.sp = (uint64)((char*)stack + TCB::currentSP - (char*)TCB::running->stack);
GAS LISTING /tmp/cc8OAIEG.s 			page 71


 2587              		.loc 1 743 9 is_stmt 1
 2588              		.loc 1 743 59 is_stmt 0
 2589 0e24 97070000 		la	a5,_ZN3TCB9currentSPE
 2589      83B70700 
 2590 0e2c 83B70700 		ld	a5,0(a5)
 2591              		.loc 1 743 52
 2592 0e30 B307F900 		add	a5,s2,a5
 2593              		.loc 1 743 71
 2594 0e34 17070000 		la	a4,_ZN3TCB7runningE
 2594      03370700 
 2595 0e3c 83360700 		ld	a3,0(a4)
 2596              		.loc 1 743 92
 2597 0e40 83B68602 		ld	a3,40(a3)
 2598              		.loc 1 743 69
 2599 0e44 B387D740 		sub	a5,a5,a3
 2600              		.loc 1 743 28
 2601 0e48 23B0F400 		sd	a5,0(s1)
 744:src/kernel/riscv.cpp **** 
 745:src/kernel/riscv.cpp ****         //get memory location of where registers are stored from previous context switch
 746:src/kernel/riscv.cpp ****         uint64 registerStartSP = (uint64)((char*)TCB::running->a0Location - (char*)TCB::running->st
 2602              		.loc 1 746 9 is_stmt 1
 2603              		.loc 1 746 64 is_stmt 0
 2604 0e4c 83370700 		ld	a5,0(a4)
 2605 0e50 03B58706 		ld	a0,104(a5)
 2606              		.loc 1 746 98
 2607 0e54 83B78702 		ld	a5,40(a5)
 2608              		.loc 1 746 75
 2609 0e58 3305F540 		sub	a0,a0,a5
 2610              		.loc 1 746 104
 2611 0e5c 3309A900 		add	s2,s2,a0
 2612              	.LVL230:
 747:src/kernel/riscv.cpp **** 
 748:src/kernel/riscv.cpp ****         forked->a0Location = registerStartSP;
 2613              		.loc 1 748 9 is_stmt 1
 2614              		.loc 1 748 28 is_stmt 0
 2615 0e60 23B42407 		sd	s2,104(s1)
 749:src/kernel/riscv.cpp **** 
 750:src/kernel/riscv.cpp ****         uint64 a1,a0;
 2616              		.loc 1 750 9 is_stmt 1
 751:src/kernel/riscv.cpp **** 
 752:src/kernel/riscv.cpp ****         //write address of stored registers in SP of forked thread so that it can return regularly
 753:src/kernel/riscv.cpp ****         asm("mv %[a1], a1": [a1] "=r"(a1));
 2617              		.loc 1 753 9
 2618              		.loc 1 753 43 is_stmt 0
 2619              	#APP
 2620              	# 753 "src/kernel/riscv.cpp" 1
 754              	
 755:src/kernel/riscv.cpp ****         asm("mv %[a0], a0": [a0] "=r"(a0));
 2621              		mv a3, a1
 2622              	# 0 "" 2
 2623              		.loc 1 755 9 is_stmt 1
 2624              		.loc 1 755 43 is_stmt 0
 2625              	# 755 "src/kernel/riscv.cpp" 1
 756              	
 757:src/kernel/riscv.cpp ****         asm("mv a0,%[a0]"::  [a0]"r"(registerStartSP));
 2626              		mv a5, a0
 2627              	# 0 "" 2
GAS LISTING /tmp/cc8OAIEG.s 			page 72


 2628              		.loc 1 757 9 is_stmt 1
 2629              		.loc 1 757 55 is_stmt 0
 2630              	# 757 "src/kernel/riscv.cpp" 1
 758              	
 759:src/kernel/riscv.cpp ****         asm("mv a1, %[a0]" : :  [a0] "r"(registerStartSP));
 2631              		mv a0,s2
 2632              	# 0 "" 2
 2633              		.loc 1 759 9 is_stmt 1
 2634              		.loc 1 759 59 is_stmt 0
 2635              	# 759 "src/kernel/riscv.cpp" 1
 760              	
 761:src/kernel/riscv.cpp ****         asm("sd a0, 16(a1)");
 2636              		mv a1, s2
 2637              	# 0 "" 2
 2638              		.loc 1 761 9 is_stmt 1
 2639              		.loc 1 761 29 is_stmt 0
 2640              	# 761 "src/kernel/riscv.cpp" 1
 762              	
 763:src/kernel/riscv.cpp ****         //write 0 in a0 register of forked thread because fork should return 0 in context of child,
 764:src/kernel/riscv.cpp ****         asm("li a0, 0");
 2641              		sd a0, 16(a1)
 2642              	# 0 "" 2
 2643              		.loc 1 764 9 is_stmt 1
 2644              		.loc 1 764 24 is_stmt 0
 2645              	# 764 "src/kernel/riscv.cpp" 1
 765              	
 766:src/kernel/riscv.cpp ****         asm("sd a0, 80(a1)");
 2646              		li a0, 0
 2647              	# 0 "" 2
 2648              		.loc 1 766 9 is_stmt 1
 2649              		.loc 1 766 29 is_stmt 0
 2650              	# 766 "src/kernel/riscv.cpp" 1
 767              	
 768:src/kernel/riscv.cpp ****         asm("mv a1,%[a1]"::  [a1]"r"(a1));
 2651              		sd a0, 80(a1)
 2652              	# 0 "" 2
 2653              		.loc 1 768 9 is_stmt 1
 2654              		.loc 1 768 42 is_stmt 0
 2655              	# 768 "src/kernel/riscv.cpp" 1
 769              	
 770:src/kernel/riscv.cpp ****         asm("mv a0,%[a0]"::  [a0]"r"(a0));
 2656              		mv a1,a3
 2657              	# 0 "" 2
 2658              		.loc 1 770 9 is_stmt 1
 2659              		.loc 1 770 42 is_stmt 0
 2660              	# 770 "src/kernel/riscv.cpp" 1
 771              	
 772:src/kernel/riscv.cpp ****         forked->sepc = TCB::running->sepc;
 2661              		mv a0,a5
 2662              	# 0 "" 2
 2663              		.loc 1 772 9 is_stmt 1
 2664              		.loc 1 772 38 is_stmt 0
 2665              	#NO_APP
 2666 0e88 83370700 		ld	a5,0(a4)
 2667 0e8c 03B78703 		ld	a4,56(a5)
 2668              		.loc 1 772 22
 2669 0e90 23BCE402 		sd	a4,56(s1)
GAS LISTING /tmp/cc8OAIEG.s 			page 73


 773:src/kernel/riscv.cpp **** 
 774:src/kernel/riscv.cpp ****         forked->sstatus = TCB::running->sstatus;
 2670              		.loc 1 774 9 is_stmt 1
 2671              		.loc 1 774 41 is_stmt 0
 2672 0e94 83B70704 		ld	a5,64(a5)
 2673              		.loc 1 774 25
 2674 0e98 23B0F404 		sd	a5,64(s1)
 775:src/kernel/riscv.cpp **** 
 776:src/kernel/riscv.cpp ****         //put forked in scheduler
 777:src/kernel/riscv.cpp ****         Scheduler::put(forked);
 2675              		.loc 1 777 9 is_stmt 1
 2676              		.loc 1 777 23 is_stmt 0
 2677 0e9c 13850400 		mv	a0,s1
 2678              	.LEHB12:
 2679 0ea0 97000000 		call	_ZN9Scheduler3putEP3TCB@plt
 2679      E7800000 
 2680              	.LVL231:
 2681              	.LEHE12:
 778:src/kernel/riscv.cpp **** 
 779:src/kernel/riscv.cpp ****         //return address of forked as thread ID
 780:src/kernel/riscv.cpp ****         status = (uint64)forked;
 2682              		.loc 1 780 9 is_stmt 1
 2683              	.L135:
 2684              	.LBE144:
 2685              	.LBE143:
 781:src/kernel/riscv.cpp ****     }else
 782:src/kernel/riscv.cpp ****         status = -1;
 783:src/kernel/riscv.cpp **** 
 784:src/kernel/riscv.cpp ****     asm("mv a0, %[status]" : : [status] "r" (status));
 2686              		.loc 1 784 5
 2687              		.loc 1 784 54 is_stmt 0
 2688              	#APP
 2689              	# 784 "src/kernel/riscv.cpp" 1
 785              	
 786:src/kernel/riscv.cpp ****     RiscV::saveA0toSscratch();
 2690              		mv a0, s1
 2691              	# 0 "" 2
 2692              		.loc 1 786 5 is_stmt 1
 2693              		.loc 1 786 28 is_stmt 0
 2694              	#NO_APP
 2695 0eac 97000000 		call	_ZN5RiscV16saveA0toSscratchEv
 2695      E7800000 
 2696              	.LVL232:
 787:src/kernel/riscv.cpp **** 
 788:src/kernel/riscv.cpp **** }
 2697              		.loc 1 788 1
 2698 0eb4 83308101 		ld	ra,24(sp)
 2699              		.cfi_remember_state
 2700              		.cfi_restore 1
 2701 0eb8 03340101 		ld	s0,16(sp)
 2702              		.cfi_restore 8
 2703              		.cfi_def_cfa 2, 32
 2704 0ebc 83348100 		ld	s1,8(sp)
 2705              		.cfi_restore 9
 2706              	.LVL233:
 2707 0ec0 03390100 		ld	s2,0(sp)
 2708              		.cfi_restore 18
GAS LISTING /tmp/cc8OAIEG.s 			page 74


 2709 0ec4 13010102 		addi	sp,sp,32
 2710              		.cfi_def_cfa_offset 0
 2711 0ec8 67800000 		jr	ra
 2712              	.LVL234:
 2713              	.L137:
 2714              		.cfi_restore_state
 2715              	.LBB145:
 782:src/kernel/riscv.cpp **** 
 2716              		.loc 1 782 16
 2717 0ecc 9304F0FF 		li	s1,-1
 2718              	.LVL235:
 2719 0ed0 6FF09FFD 		j	.L135
 2720              	.LVL236:
 2721              	.L138:
 2722 0ed4 13090500 		mv	s2,a0
 2723              	.LVL237:
 2724              	.LBE145:
 733:src/kernel/riscv.cpp **** 
 2725              		.loc 1 733 70
 2726 0ed8 13850400 		mv	a0,s1
 2727 0edc 97000000 		call	_ZN3TCBdlEPv@plt
 2727      E7800000 
 2728              	.LVL238:
 2729 0ee4 13050900 		mv	a0,s2
 2730              	.LEHB13:
 2731 0ee8 97000000 		call	_Unwind_Resume@plt
 2731      E7800000 
 2732              	.LVL239:
 2733              	.LEHE13:
 2734              		.cfi_endproc
 2735              	.LFE69:
 2736              		.section	.gcc_except_table
 2737              	.LLSDA69:
 2738 008e FF       		.byte	0xff
 2739 008f FF       		.byte	0xff
 2740 0090 03       		.byte	0x3
 2741 0091 34       		.byte	0x34
 2742 0092 00000000 		.4byte	.LEHB10-.LFB69
 2743 0096 00000000 		.4byte	.LEHE10-.LEHB10
 2744 009a 00000000 		.4byte	0
 2745 009e 00       		.byte	0
 2746 009f 00000000 		.4byte	.LEHB11-.LFB69
 2747 00a3 00000000 		.4byte	.LEHE11-.LEHB11
 2748 00a7 00000000 		.4byte	.L138-.LFB69
 2749 00ab 00       		.byte	0
 2750 00ac 00000000 		.4byte	.LEHB12-.LFB69
 2751 00b0 00000000 		.4byte	.LEHE12-.LEHB12
 2752 00b4 00000000 		.4byte	0
 2753 00b8 00       		.byte	0
 2754 00b9 00000000 		.4byte	.LEHB13-.LFB69
 2755 00bd 00000000 		.4byte	.LEHE13-.LEHB13
 2756 00c1 00000000 		.4byte	0
 2757 00c5 00       		.byte	0
 2758              		.text
 2760              		.align	2
 2761              		.globl	_ZN5RiscV5getPCEv
 2763              	_ZN5RiscV5getPCEv:
GAS LISTING /tmp/cc8OAIEG.s 			page 75


 2764              	.LFB70:
 789:src/kernel/riscv.cpp **** 
 790:src/kernel/riscv.cpp **** void RiscV::getPC(){
 2765              		.loc 1 790 20 is_stmt 1
 2766              		.cfi_startproc
 2767 0ef0 130101FF 		addi	sp,sp,-16
 2768              		.cfi_def_cfa_offset 16
 2769 0ef4 23348100 		sd	s0,8(sp)
 2770              		.cfi_offset 8, -8
 2771 0ef8 13040101 		addi	s0,sp,16
 2772              		.cfi_def_cfa 8, 0
 791:src/kernel/riscv.cpp ****     uint64 ra;
 2773              		.loc 1 791 5
 792:src/kernel/riscv.cpp **** 
 793:src/kernel/riscv.cpp ****     asm("mv %[ra], ra" : [ra] "=r"(ra));
 2774              		.loc 1 793 5
 2775              		.loc 1 793 40 is_stmt 0
 2776              	#APP
 2777              	# 793 "src/kernel/riscv.cpp" 1
 794              	
 2778              		mv a5, ra
 2779              	# 0 "" 2
 2780              	.LVL240:
 795:src/kernel/riscv.cpp ****     TCB::currentPC = ra + 8;
 2781              		.loc 1 795 5 is_stmt 1
 2782              		.loc 1 795 25 is_stmt 0
 2783              	#NO_APP
 2784 0f00 93878700 		addi	a5,a5,8
 2785              	.LVL241:
 2786              		.loc 1 795 20
 2787 0f04 17070000 		la	a4,_ZN3TCB9currentPCE
 2787      03370700 
 2788 0f0c 2330F700 		sd	a5,0(a4)
 796:src/kernel/riscv.cpp **** }
 2789              		.loc 1 796 1
 2790 0f10 03348100 		ld	s0,8(sp)
 2791              		.cfi_restore 8
 2792              		.cfi_def_cfa 2, 16
 2793 0f14 13010101 		addi	sp,sp,16
 2794              		.cfi_def_cfa_offset 0
 2795 0f18 67800000 		jr	ra
 2796              		.cfi_endproc
 2797              	.LFE70:
 2799              		.section	.rodata.str1.8
 2800 0023 00000000 		.align	3
 2800      00
 2801              	.LC3:
 2802 0028 73657063 		.string	"sepc: "
 2802      3A2000
 2803 002f 00       		.align	3
 2804              	.LC4:
 2805 0030 496C6C65 		.string	"Illegal instruction\nExiting thread...\n"
 2805      67616C20 
 2805      696E7374 
 2805      72756374 
 2805      696F6E0A 
 2806 0057 00       		.align	3
GAS LISTING /tmp/cc8OAIEG.s 			page 76


 2807              	.LC5:
 2808 0058 4572726F 		.string	"Error: \n"
 2808      723A200A 
 2808      00
 2809 0061 00000000 		.align	3
 2809      000000
 2810              	.LC6:
 2811 0068 73636175 		.string	"scause: "
 2811      73653A20 
 2811      00
 2812 0071 00000000 		.align	3
 2812      000000
 2813              	.LC7:
 2814 0078 45786974 		.string	"Exiting thread...\n"
 2814      696E6720 
 2814      74687265 
 2814      61642E2E 
 2814      2E0A00
 2815              		.text
 2816              		.align	2
 2817              		.globl	_ZN5RiscV20handleSupervisorTrapEv
 2819              	_ZN5RiscV20handleSupervisorTrapEv:
 2820              	.LFB47:
 134:src/kernel/riscv.cpp **** 
 2821              		.loc 1 134 36 is_stmt 1
 2822              		.cfi_startproc
 2823 0f1c 130101FA 		addi	sp,sp,-96
 2824              		.cfi_def_cfa_offset 96
 2825 0f20 233C1104 		sd	ra,88(sp)
 2826 0f24 23388104 		sd	s0,80(sp)
 2827              		.cfi_offset 1, -8
 2828              		.cfi_offset 8, -16
 2829 0f28 13040106 		addi	s0,sp,96
 2830              		.cfi_def_cfa 8, 0
 137:src/kernel/riscv.cpp **** 
 2831              		.loc 1 137 5
 2832              	.LBB146:
 2833              	.LBB147:
 141:src/kernel/../../h/riscv.hpp ****     asm("csrr %[scause], scause" : [scause] "=r" (scause));
 2834              		.loc 2 141 5
 142:src/kernel/../../h/riscv.hpp ****     return scause;
 2835              		.loc 2 142 5
 142:src/kernel/../../h/riscv.hpp ****     return scause;
 2836              		.loc 2 142 59 is_stmt 0
 2837              	#APP
 2838              	# 142 "src/kernel/../../h/riscv.hpp" 1
 2839              		csrr a5, scause
 2840              	# 0 "" 2
 2841              	#NO_APP
 2842 0f30 233CF4FC 		sd	a5,-40(s0)
 143:src/kernel/../../h/riscv.hpp **** }
 2843              		.loc 2 143 5 is_stmt 1
 143:src/kernel/../../h/riscv.hpp **** }
 2844              		.loc 2 143 12 is_stmt 0
 2845 0f34 833784FD 		ld	a5,-40(s0)
 2846              	.LBE147:
 2847              	.LBE146:
GAS LISTING /tmp/cc8OAIEG.s 			page 77


 137:src/kernel/riscv.cpp **** 
 2848              		.loc 1 137 46
 2849 0f38 2334F4FE 		sd	a5,-24(s0)
 139:src/kernel/riscv.cpp **** 
 2850              		.loc 1 139 5 is_stmt 1
 139:src/kernel/riscv.cpp **** 
 2851              		.loc 1 139 71 is_stmt 0
 2852 0f3c 97070000 		la	a5,_ZN3TCB7runningE
 2852      83B70700 
 2853 0f44 83B70700 		ld	a5,0(a5)
 139:src/kernel/riscv.cpp **** 
 2854              		.loc 1 139 83
 2855              	#APP
 2856              	# 139 "src/kernel/riscv.cpp" 1
 2857              		csrr a4, sscratch
 2858              	# 0 "" 2
 2859              	#NO_APP
 2860 0f4c 23B4E706 		sd	a4,104(a5)
 142:src/kernel/riscv.cpp **** 
 2861              		.loc 1 142 5 is_stmt 1
 2862              	.LBB148:
 142:src/kernel/riscv.cpp **** 
 2863              		.loc 1 142 15 is_stmt 0
 2864 0f50 033784FE 		ld	a4,-24(s0)
 142:src/kernel/riscv.cpp **** 
 2865              		.loc 1 142 23
 2866 0f54 93079000 		li	a5,9
 2867 0f58 6306F70E 		beq	a4,a5,.L144
 142:src/kernel/riscv.cpp **** 
 2868              		.loc 1 142 33 discriminator 2
 2869 0f5c 033784FE 		ld	a4,-24(s0)
 142:src/kernel/riscv.cpp **** 
 2870              		.loc 1 142 23 discriminator 2
 2871 0f60 93078000 		li	a5,8
 2872 0f64 6300F70E 		beq	a4,a5,.L144
 2873              	.LBE148:
 188:src/kernel/riscv.cpp **** 
 2874              		.loc 1 188 10 is_stmt 1
 2875              	.LBB203:
 2876              	.LBB149:
 188:src/kernel/riscv.cpp **** 
 2877              		.loc 1 188 20 is_stmt 0
 2878 0f68 033784FE 		ld	a4,-24(s0)
 188:src/kernel/riscv.cpp **** 
 2879              		.loc 1 188 10
 2880 0f6c 9307F0FF 		li	a5,-1
 2881 0f70 9397F703 		slli	a5,a5,63
 2882 0f74 93871700 		addi	a5,a5,1
 2883 0f78 6302F724 		beq	a4,a5,.L174
 2884              	.LBE149:
 2885              	.LBE203:
 223:src/kernel/riscv.cpp ****         //save sstatus and sepc
 2886              		.loc 1 223 10 is_stmt 1
 2887              	.LBB204:
 2888              	.LBB190:
 2889              	.LBB150:
 223:src/kernel/riscv.cpp ****         //save sstatus and sepc
GAS LISTING /tmp/cc8OAIEG.s 			page 78


 2890              		.loc 1 223 20 is_stmt 0
 2891 0f7c 033784FE 		ld	a4,-24(s0)
 223:src/kernel/riscv.cpp ****         //save sstatus and sepc
 2892              		.loc 1 223 10
 2893 0f80 9307F0FF 		li	a5,-1
 2894 0f84 9397F703 		slli	a5,a5,63
 2895 0f88 93879700 		addi	a5,a5,9
 2896 0f8c 6300F72C 		beq	a4,a5,.L175
 2897              	.LBE150:
 2898              	.LBE190:
 2899              	.LBE204:
 259:src/kernel/riscv.cpp ****         TCB* old = TCB::running;
 2900              		.loc 1 259 10 is_stmt 1
 2901              	.LBB205:
 2902              	.LBB191:
 2903              	.LBB174:
 2904              	.LBB151:
 259:src/kernel/riscv.cpp ****         TCB* old = TCB::running;
 2905              		.loc 1 259 20 is_stmt 0
 2906 0f90 033784FE 		ld	a4,-24(s0)
 259:src/kernel/riscv.cpp ****         TCB* old = TCB::running;
 2907              		.loc 1 259 10
 2908 0f94 93072000 		li	a5,2
 2909 0f98 6308F734 		beq	a4,a5,.L176
 2910              	.LBB152:
 272:src/kernel/riscv.cpp ****         ConsoleUtil::printString("scause: ");
 2911              		.loc 1 272 9 is_stmt 1
 272:src/kernel/riscv.cpp ****         ConsoleUtil::printString("scause: ");
 2912              		.loc 1 272 33 is_stmt 0
 2913 0f9c 17050000 		lla	a0,.LC5
 2913      13050500 
 2914 0fa4 97000000 		call	_ZN11ConsoleUtil11printStringEPKc@plt
 2914      E7800000 
 2915              	.LVL242:
 273:src/kernel/riscv.cpp ****         uint64  scause = RiscV::r_scause();
 2916              		.loc 1 273 9 is_stmt 1
 273:src/kernel/riscv.cpp ****         uint64  scause = RiscV::r_scause();
 2917              		.loc 1 273 33 is_stmt 0
 2918 0fac 17050000 		lla	a0,.LC6
 2918      13050500 
 2919 0fb4 97000000 		call	_ZN11ConsoleUtil11printStringEPKc@plt
 2919      E7800000 
 2920              	.LVL243:
 274:src/kernel/riscv.cpp ****         ConsoleUtil::printInt(scause);
 2921              		.loc 1 274 9 is_stmt 1
 2922              	.LBB153:
 2923              	.LBB154:
 141:src/kernel/../../h/riscv.hpp ****     asm("csrr %[scause], scause" : [scause] "=r" (scause));
 2924              		.loc 2 141 5
 142:src/kernel/../../h/riscv.hpp ****     return scause;
 2925              		.loc 2 142 5
 142:src/kernel/../../h/riscv.hpp ****     return scause;
 2926              		.loc 2 142 59 is_stmt 0
 2927              	#APP
 2928              	# 142 "src/kernel/../../h/riscv.hpp" 1
 2929              		csrr a5, scause
 2930              	# 0 "" 2
GAS LISTING /tmp/cc8OAIEG.s 			page 79


 2931              	#NO_APP
 2932 0fc0 2330F4FE 		sd	a5,-32(s0)
 143:src/kernel/../../h/riscv.hpp **** }
 2933              		.loc 2 143 5 is_stmt 1
 143:src/kernel/../../h/riscv.hpp **** }
 2934              		.loc 2 143 12 is_stmt 0
 2935 0fc4 033504FE 		ld	a0,-32(s0)
 2936              	.LVL244:
 2937              	.LBE154:
 2938              	.LBE153:
 275:src/kernel/riscv.cpp ****         ConsoleUtil::printString("sepc: ");
 2939              		.loc 1 275 9 is_stmt 1
 275:src/kernel/riscv.cpp ****         ConsoleUtil::printString("sepc: ");
 2940              		.loc 1 275 30 is_stmt 0
 2941 0fc8 13060000 		li	a2,0
 2942 0fcc 9305A000 		li	a1,10
 2943 0fd0 1B050500 		sext.w	a0,a0
 2944              	.LVL245:
 2945 0fd4 97000000 		call	_ZN11ConsoleUtil8printIntEiii@plt
 2945      E7800000 
 2946              	.LVL246:
 276:src/kernel/riscv.cpp ****         uint64 sepc = RiscV::r_sepc();
 2947              		.loc 1 276 9 is_stmt 1
 276:src/kernel/riscv.cpp ****         uint64 sepc = RiscV::r_sepc();
 2948              		.loc 1 276 33 is_stmt 0
 2949 0fdc 17050000 		lla	a0,.LC3
 2949      13050500 
 2950 0fe4 97000000 		call	_ZN11ConsoleUtil11printStringEPKc@plt
 2950      E7800000 
 2951              	.LVL247:
 277:src/kernel/riscv.cpp ****         ConsoleUtil::printInt(sepc,16);
 2952              		.loc 1 277 9 is_stmt 1
 2953              	.LBB155:
 2954              	.LBB156:
 151:src/kernel/../../h/riscv.hpp ****     asm("csrr %[sepc], sepc" : [sepc] "=r" (sepc));
 2955              		.loc 2 151 5
 152:src/kernel/../../h/riscv.hpp ****     return sepc;
 2956              		.loc 2 152 5
 152:src/kernel/../../h/riscv.hpp ****     return sepc;
 2957              		.loc 2 152 51 is_stmt 0
 2958              	#APP
 2959              	# 152 "src/kernel/../../h/riscv.hpp" 1
 153:src/kernel/../../h/riscv.hpp **** }
 2960              		csrr a0, sepc
 2961              	# 0 "" 2
 2962              		.loc 2 153 5 is_stmt 1
 2963              	#NO_APP
 2964              	.LBE156:
 2965              	.LBE155:
 278:src/kernel/riscv.cpp ****         ConsoleUtil::printString("\n");
 2966              		.loc 1 278 9
 278:src/kernel/riscv.cpp ****         ConsoleUtil::printString("\n");
 2967              		.loc 1 278 30 is_stmt 0
 2968 0ff0 13060000 		li	a2,0
 2969 0ff4 93050001 		li	a1,16
 2970 0ff8 1B050500 		sext.w	a0,a0
 2971 0ffc 97000000 		call	_ZN11ConsoleUtil8printIntEiii@plt
GAS LISTING /tmp/cc8OAIEG.s 			page 80


 2971      E7800000 
 2972              	.LVL248:
 279:src/kernel/riscv.cpp ****         TCB* old = TCB::running;
 2973              		.loc 1 279 9 is_stmt 1
 279:src/kernel/riscv.cpp ****         TCB* old = TCB::running;
 2974              		.loc 1 279 33 is_stmt 0
 2975 1004 17050000 		lla	a0,.LC0
 2975      13050500 
 2976 100c 97000000 		call	_ZN11ConsoleUtil11printStringEPKc@plt
 2976      E7800000 
 2977              	.LVL249:
 280:src/kernel/riscv.cpp ****         old->status = TCB::Status::FINISHED;
 2978              		.loc 1 280 9 is_stmt 1
 280:src/kernel/riscv.cpp ****         old->status = TCB::Status::FINISHED;
 2979              		.loc 1 280 14 is_stmt 0
 2980 1014 97070000 		la	a5,_ZN3TCB7runningE
 2980      83B70700 
 2981 101c 83B70700 		ld	a5,0(a5)
 2982              	.LVL250:
 281:src/kernel/riscv.cpp ****         ConsoleUtil::printString("Exiting thread...\n");
 2983              		.loc 1 281 9 is_stmt 1
 281:src/kernel/riscv.cpp ****         ConsoleUtil::printString("Exiting thread...\n");
 2984              		.loc 1 281 21 is_stmt 0
 2985 1020 13072000 		li	a4,2
 2986 1024 23A8E700 		sw	a4,16(a5)
 282:src/kernel/riscv.cpp ****         TCB::dispatch();
 2987              		.loc 1 282 9 is_stmt 1
 282:src/kernel/riscv.cpp ****         TCB::dispatch();
 2988              		.loc 1 282 33 is_stmt 0
 2989 1028 17050000 		lla	a0,.LC7
 2989      13050500 
 2990 1030 97000000 		call	_ZN11ConsoleUtil11printStringEPKc@plt
 2990      E7800000 
 2991              	.LVL251:
 283:src/kernel/riscv.cpp ****     }
 2992              		.loc 1 283 9 is_stmt 1
 283:src/kernel/riscv.cpp ****     }
 2993              		.loc 1 283 22 is_stmt 0
 2994 1038 97000000 		call	_ZN3TCB8dispatchEv@plt
 2994      E7800000 
 2995              	.LVL252:
 2996 1040 6F000008 		j	.L167
 2997              	.L144:
 2998              	.LBE152:
 2999              	.LBE151:
 3000              	.LBE174:
 3001              	.LBE191:
 3002              	.LBB192:
 146:src/kernel/riscv.cpp ****         uint64 volatile sepc = RiscV::r_sepc()+4;
 3003              		.loc 1 146 9 is_stmt 1
 3004              	.LBB193:
 3005              	.LBB194:
 171:src/kernel/../../h/riscv.hpp ****     asm("csrr %[sstatus], sstatus" : [sstatus] "=r" (sstatus));
 3006              		.loc 2 171 5
 172:src/kernel/../../h/riscv.hpp ****     return sstatus;
 3007              		.loc 2 172 5
 172:src/kernel/../../h/riscv.hpp ****     return sstatus;
GAS LISTING /tmp/cc8OAIEG.s 			page 81


 3008              		.loc 2 172 63 is_stmt 0
 3009              	#APP
 3010              	# 172 "src/kernel/../../h/riscv.hpp" 1
 3011              		csrr a5, sstatus
 3012              	# 0 "" 2
 3013              	.LVL253:
 173:src/kernel/../../h/riscv.hpp **** }
 3014              		.loc 2 173 5 is_stmt 1
 3015              	#NO_APP
 3016              	.LBE194:
 3017              	.LBE193:
 146:src/kernel/riscv.cpp ****         uint64 volatile sepc = RiscV::r_sepc()+4;
 3018              		.loc 1 146 52 is_stmt 0
 3019 1048 2334F4FA 		sd	a5,-88(s0)
 147:src/kernel/riscv.cpp ****         TCB::running->sepc = sepc;
 3020              		.loc 1 147 9 is_stmt 1
 3021              	.LBB195:
 3022              	.LBB196:
 151:src/kernel/../../h/riscv.hpp ****     asm("csrr %[sepc], sepc" : [sepc] "=r" (sepc));
 3023              		.loc 2 151 5
 152:src/kernel/../../h/riscv.hpp ****     return sepc;
 3024              		.loc 2 152 5
 152:src/kernel/../../h/riscv.hpp ****     return sepc;
 3025              		.loc 2 152 51 is_stmt 0
 3026              	#APP
 3027              	# 152 "src/kernel/../../h/riscv.hpp" 1
 3028              		csrr a5, sepc
 3029              	# 0 "" 2
 3030              	.LVL254:
 153:src/kernel/../../h/riscv.hpp **** }
 3031              		.loc 2 153 5 is_stmt 1
 3032              	#NO_APP
 3033              	.LBE196:
 3034              	.LBE195:
 147:src/kernel/riscv.cpp ****         TCB::running->sepc = sepc;
 3035              		.loc 1 147 47 is_stmt 0
 3036 1050 93874700 		addi	a5,a5,4
 147:src/kernel/riscv.cpp ****         TCB::running->sepc = sepc;
 3037              		.loc 1 147 48
 3038 1054 2338F4FA 		sd	a5,-80(s0)
 148:src/kernel/riscv.cpp ****         TCB::running->sstatus = sstatus;
 3039              		.loc 1 148 9 is_stmt 1
 148:src/kernel/riscv.cpp ****         TCB::running->sstatus = sstatus;
 3040              		.loc 1 148 23 is_stmt 0
 3041 1058 97070000 		la	a5,_ZN3TCB7runningE
 3041      83B70700 
 3042 1060 83B70700 		ld	a5,0(a5)
 148:src/kernel/riscv.cpp ****         TCB::running->sstatus = sstatus;
 3043              		.loc 1 148 28
 3044 1064 033704FB 		ld	a4,-80(s0)
 3045 1068 23BCE702 		sd	a4,56(a5)
 149:src/kernel/riscv.cpp **** 
 3046              		.loc 1 149 9 is_stmt 1
 149:src/kernel/riscv.cpp **** 
 3047              		.loc 1 149 31 is_stmt 0
 3048 106c 033784FA 		ld	a4,-88(s0)
 3049 1070 23B0E704 		sd	a4,64(a5)
GAS LISTING /tmp/cc8OAIEG.s 			page 82


 152:src/kernel/riscv.cpp ****         asm("mv %[syscallID], a0" : [syscallID] "=r" (syscallID));
 3050              		.loc 1 152 9 is_stmt 1
 153:src/kernel/riscv.cpp **** 
 3051              		.loc 1 153 9
 153:src/kernel/riscv.cpp **** 
 3052              		.loc 1 153 66 is_stmt 0
 3053              	#APP
 3054              	# 153 "src/kernel/riscv.cpp" 1
 3055              		mv a5, a0
 3056              	# 0 "" 2
 3057              	.LVL255:
 155:src/kernel/riscv.cpp ****             case 0x01 : executeMemAllocSyscall();break;
 3058              		.loc 1 155 9 is_stmt 1
 3059              	#NO_APP
 3060 1078 13071006 		li	a4,97
 3061 107c 6364F702 		bgtu	a5,a4,.L147
 3062 1080 93972700 		slli	a5,a5,2
 3063              	.LVL256:
 3064 1084 17070000 		lla	a4,.L149
 3064      13070700 
 3065 108c B387E700 		add	a5,a5,a4
 3066 1090 83A70700 		lw	a5,0(a5)
 3067 1094 B387E700 		add	a5,a5,a4
 3068 1098 67800700 		jr	a5
 3069              		.section	.rodata
 3070              		.align	2
 3071              		.align	2
 3072              	.L149:
 3073 0000 00000000 		.word	.L147-.L149
 3074 0004 00000000 		.word	.L166-.L149
 3075 0008 00000000 		.word	.L165-.L149
 3076 000c 00000000 		.word	.L147-.L149
 3077 0010 00000000 		.word	.L147-.L149
 3078 0014 00000000 		.word	.L147-.L149
 3079 0018 00000000 		.word	.L147-.L149
 3080 001c 00000000 		.word	.L147-.L149
 3081 0020 00000000 		.word	.L147-.L149
 3082 0024 00000000 		.word	.L147-.L149
 3083 0028 00000000 		.word	.L147-.L149
 3084 002c 00000000 		.word	.L147-.L149
 3085 0030 00000000 		.word	.L147-.L149
 3086 0034 00000000 		.word	.L147-.L149
 3087 0038 00000000 		.word	.L147-.L149
 3088 003c 00000000 		.word	.L147-.L149
 3089 0040 00000000 		.word	.L147-.L149
 3090 0044 00000000 		.word	.L164-.L149
 3091 0048 00000000 		.word	.L163-.L149
 3092 004c 00000000 		.word	.L162-.L149
 3093 0050 00000000 		.word	.L161-.L149
 3094 0054 00000000 		.word	.L160-.L149
 3095 0058 00000000 		.word	.L147-.L149
 3096 005c 00000000 		.word	.L147-.L149
 3097 0060 00000000 		.word	.L147-.L149
 3098 0064 00000000 		.word	.L147-.L149
 3099 0068 00000000 		.word	.L147-.L149
 3100 006c 00000000 		.word	.L147-.L149
 3101 0070 00000000 		.word	.L147-.L149
GAS LISTING /tmp/cc8OAIEG.s 			page 83


 3102 0074 00000000 		.word	.L147-.L149
 3103 0078 00000000 		.word	.L147-.L149
 3104 007c 00000000 		.word	.L147-.L149
 3105 0080 00000000 		.word	.L147-.L149
 3106 0084 00000000 		.word	.L159-.L149
 3107 0088 00000000 		.word	.L158-.L149
 3108 008c 00000000 		.word	.L157-.L149
 3109 0090 00000000 		.word	.L156-.L149
 3110 0094 00000000 		.word	.L147-.L149
 3111 0098 00000000 		.word	.L147-.L149
 3112 009c 00000000 		.word	.L147-.L149
 3113 00a0 00000000 		.word	.L147-.L149
 3114 00a4 00000000 		.word	.L147-.L149
 3115 00a8 00000000 		.word	.L147-.L149
 3116 00ac 00000000 		.word	.L147-.L149
 3117 00b0 00000000 		.word	.L147-.L149
 3118 00b4 00000000 		.word	.L147-.L149
 3119 00b8 00000000 		.word	.L147-.L149
 3120 00bc 00000000 		.word	.L147-.L149
 3121 00c0 00000000 		.word	.L147-.L149
 3122 00c4 00000000 		.word	.L155-.L149
 3123 00c8 00000000 		.word	.L147-.L149
 3124 00cc 00000000 		.word	.L147-.L149
 3125 00d0 00000000 		.word	.L147-.L149
 3126 00d4 00000000 		.word	.L147-.L149
 3127 00d8 00000000 		.word	.L147-.L149
 3128 00dc 00000000 		.word	.L147-.L149
 3129 00e0 00000000 		.word	.L147-.L149
 3130 00e4 00000000 		.word	.L147-.L149
 3131 00e8 00000000 		.word	.L147-.L149
 3132 00ec 00000000 		.word	.L147-.L149
 3133 00f0 00000000 		.word	.L147-.L149
 3134 00f4 00000000 		.word	.L147-.L149
 3135 00f8 00000000 		.word	.L147-.L149
 3136 00fc 00000000 		.word	.L147-.L149
 3137 0100 00000000 		.word	.L147-.L149
 3138 0104 00000000 		.word	.L154-.L149
 3139 0108 00000000 		.word	.L153-.L149
 3140 010c 00000000 		.word	.L152-.L149
 3141 0110 00000000 		.word	.L147-.L149
 3142 0114 00000000 		.word	.L147-.L149
 3143 0118 00000000 		.word	.L147-.L149
 3144 011c 00000000 		.word	.L147-.L149
 3145 0120 00000000 		.word	.L147-.L149
 3146 0124 00000000 		.word	.L147-.L149
 3147 0128 00000000 		.word	.L147-.L149
 3148 012c 00000000 		.word	.L147-.L149
 3149 0130 00000000 		.word	.L147-.L149
 3150 0134 00000000 		.word	.L147-.L149
 3151 0138 00000000 		.word	.L147-.L149
 3152 013c 00000000 		.word	.L147-.L149
 3153 0140 00000000 		.word	.L147-.L149
 3154 0144 00000000 		.word	.L151-.L149
 3155 0148 00000000 		.word	.L150-.L149
 3156 014c 00000000 		.word	.L147-.L149
 3157 0150 00000000 		.word	.L147-.L149
 3158 0154 00000000 		.word	.L147-.L149
GAS LISTING /tmp/cc8OAIEG.s 			page 84


 3159 0158 00000000 		.word	.L147-.L149
 3160 015c 00000000 		.word	.L147-.L149
 3161 0160 00000000 		.word	.L147-.L149
 3162 0164 00000000 		.word	.L147-.L149
 3163 0168 00000000 		.word	.L147-.L149
 3164 016c 00000000 		.word	.L147-.L149
 3165 0170 00000000 		.word	.L147-.L149
 3166 0174 00000000 		.word	.L147-.L149
 3167 0178 00000000 		.word	.L147-.L149
 3168 017c 00000000 		.word	.L147-.L149
 3169 0180 00000000 		.word	.L147-.L149
 3170 0184 00000000 		.word	.L148-.L149
 3171              		.text
 3172              	.L166:
 156:src/kernel/riscv.cpp ****             case 0x02 : executeMemFreeSyscall();break;
 3173              		.loc 1 156 13
 156:src/kernel/riscv.cpp ****             case 0x02 : executeMemFreeSyscall();break;
 3174              		.loc 1 156 25
 156:src/kernel/riscv.cpp ****             case 0x02 : executeMemFreeSyscall();break;
 3175              		.loc 1 156 47 is_stmt 0
 3176 109c 97000000 		call	_ZN5RiscV22executeMemAllocSyscallEv
 3176      E7800000 
 3177              	.LVL257:
 156:src/kernel/riscv.cpp ****             case 0x02 : executeMemFreeSyscall();break;
 3178              		.loc 1 156 50 is_stmt 1
 3179              	.L147:
 183:src/kernel/riscv.cpp ****         RiscV::w_sepc(TCB::running->sepc);
 3180              		.loc 1 183 9
 183:src/kernel/riscv.cpp ****         RiscV::w_sepc(TCB::running->sepc);
 3181              		.loc 1 183 25 is_stmt 0
 3182 10a4 97070000 		la	a5,_ZN3TCB7runningE
 3182      83B70700 
 3183 10ac 83B70700 		ld	a5,0(a5)
 3184 10b0 03B70704 		ld	a4,64(a5)
 3185              	.LVL258:
 3186              	.LBB197:
 3187              	.LBB198:
 167:src/kernel/../../h/riscv.hpp **** }
 3188              		.loc 2 167 5 is_stmt 1
 167:src/kernel/../../h/riscv.hpp **** }
 3189              		.loc 2 167 64 is_stmt 0
 3190              	#APP
 3191              	# 167 "src/kernel/../../h/riscv.hpp" 1
 3192              		csrw sstatus, a4
 3193              	# 0 "" 2
 3194              	.LVL259:
 3195              	#NO_APP
 3196              	.LBE198:
 3197              	.LBE197:
 184:src/kernel/riscv.cpp ****     }
 3198              		.loc 1 184 9 is_stmt 1
 184:src/kernel/riscv.cpp ****     }
 3199              		.loc 1 184 22 is_stmt 0
 3200 10b8 83B78703 		ld	a5,56(a5)
 3201              	.LVL260:
 3202              	.LBB199:
 3203              	.LBB200:
GAS LISTING /tmp/cc8OAIEG.s 			page 85


 157:src/kernel/../../h/riscv.hpp **** }
 3204              		.loc 2 157 5 is_stmt 1
 157:src/kernel/../../h/riscv.hpp **** }
 3205              		.loc 2 157 52 is_stmt 0
 3206              	#APP
 3207              	# 157 "src/kernel/../../h/riscv.hpp" 1
 3208              		csrw sepc, a5
 3209              	# 0 "" 2
 3210              	.LVL261:
 3211              	#NO_APP
 3212              	.L167:
 3213              	.LBE200:
 3214              	.LBE199:
 3215              	.LBE192:
 3216              	.LBE205:
 286:src/kernel/riscv.cpp **** }
 3217              		.loc 1 286 5 is_stmt 1
 286:src/kernel/riscv.cpp **** }
 3218              		.loc 1 286 41 is_stmt 0
 3219 10c0 97000000 		call	_ZN5RiscV29jumpToDesignatedPrivilegeModeEv
 3219      E7800000 
 3220              	.LVL262:
 287:src/kernel/riscv.cpp **** 
 3221              		.loc 1 287 1
 3222 10c8 83308105 		ld	ra,88(sp)
 3223              		.cfi_remember_state
 3224              		.cfi_restore 1
 3225 10cc 03340105 		ld	s0,80(sp)
 3226              		.cfi_restore 8
 3227              		.cfi_def_cfa 2, 96
 3228 10d0 13010106 		addi	sp,sp,96
 3229              		.cfi_def_cfa_offset 0
 3230 10d4 67800000 		jr	ra
 3231              	.L165:
 3232              		.cfi_restore_state
 3233              	.LBB206:
 3234              	.LBB201:
 157:src/kernel/riscv.cpp ****             case 0x11 : executeThreadCreateSyscall();break;
 3235              		.loc 1 157 13 is_stmt 1
 157:src/kernel/riscv.cpp ****             case 0x11 : executeThreadCreateSyscall();break;
 3236              		.loc 1 157 25
 157:src/kernel/riscv.cpp ****             case 0x11 : executeThreadCreateSyscall();break;
 3237              		.loc 1 157 46 is_stmt 0
 3238 10d8 97000000 		call	_ZN5RiscV21executeMemFreeSyscallEv
 3238      E7800000 
 3239              	.LVL263:
 157:src/kernel/riscv.cpp ****             case 0x11 : executeThreadCreateSyscall();break;
 3240              		.loc 1 157 49 is_stmt 1
 3241 10e0 6FF05FFC 		j	.L147
 3242              	.L164:
 158:src/kernel/riscv.cpp ****             case 0x12 : executeThreadExitSyscall();break;
 3243              		.loc 1 158 13
 158:src/kernel/riscv.cpp ****             case 0x12 : executeThreadExitSyscall();break;
 3244              		.loc 1 158 25
 158:src/kernel/riscv.cpp ****             case 0x12 : executeThreadExitSyscall();break;
 3245              		.loc 1 158 51 is_stmt 0
 3246 10e4 97000000 		call	_ZN5RiscV26executeThreadCreateSyscallEv
GAS LISTING /tmp/cc8OAIEG.s 			page 86


 3246      E7800000 
 3247              	.LVL264:
 158:src/kernel/riscv.cpp ****             case 0x12 : executeThreadExitSyscall();break;
 3248              		.loc 1 158 54 is_stmt 1
 3249 10ec 6FF09FFB 		j	.L147
 3250              	.L163:
 159:src/kernel/riscv.cpp ****             case 0x13 : executeThreadDispatchSyscall();break;
 3251              		.loc 1 159 13
 159:src/kernel/riscv.cpp ****             case 0x13 : executeThreadDispatchSyscall();break;
 3252              		.loc 1 159 25
 159:src/kernel/riscv.cpp ****             case 0x13 : executeThreadDispatchSyscall();break;
 3253              		.loc 1 159 49 is_stmt 0
 3254 10f0 97000000 		call	_ZN5RiscV24executeThreadExitSyscallEv
 3254      E7800000 
 3255              	.LVL265:
 159:src/kernel/riscv.cpp ****             case 0x13 : executeThreadDispatchSyscall();break;
 3256              		.loc 1 159 52 is_stmt 1
 3257 10f8 6FF0DFFA 		j	.L147
 3258              	.L162:
 160:src/kernel/riscv.cpp ****             case 0x14 : executeThreadAttachBodySyscall();break;
 3259              		.loc 1 160 13
 160:src/kernel/riscv.cpp ****             case 0x14 : executeThreadAttachBodySyscall();break;
 3260              		.loc 1 160 25
 160:src/kernel/riscv.cpp ****             case 0x14 : executeThreadAttachBodySyscall();break;
 3261              		.loc 1 160 53 is_stmt 0
 3262 10fc 97000000 		call	_ZN5RiscV28executeThreadDispatchSyscallEv
 3262      E7800000 
 3263              	.LVL266:
 160:src/kernel/riscv.cpp ****             case 0x14 : executeThreadAttachBodySyscall();break;
 3264              		.loc 1 160 56 is_stmt 1
 3265 1104 6FF01FFA 		j	.L147
 3266              	.L161:
 161:src/kernel/riscv.cpp ****             case 0x15 : executeThreadStartSyscall();break;
 3267              		.loc 1 161 13
 161:src/kernel/riscv.cpp ****             case 0x15 : executeThreadStartSyscall();break;
 3268              		.loc 1 161 25
 161:src/kernel/riscv.cpp ****             case 0x15 : executeThreadStartSyscall();break;
 3269              		.loc 1 161 55 is_stmt 0
 3270 1108 97000000 		call	_ZN5RiscV30executeThreadAttachBodySyscallEv
 3270      E7800000 
 3271              	.LVL267:
 161:src/kernel/riscv.cpp ****             case 0x15 : executeThreadStartSyscall();break;
 3272              		.loc 1 161 58 is_stmt 1
 3273 1110 6FF05FF9 		j	.L147
 3274              	.L160:
 162:src/kernel/riscv.cpp ****             case 0x21 : executeSemOpenSyscall();break;
 3275              		.loc 1 162 13
 162:src/kernel/riscv.cpp ****             case 0x21 : executeSemOpenSyscall();break;
 3276              		.loc 1 162 25
 162:src/kernel/riscv.cpp ****             case 0x21 : executeSemOpenSyscall();break;
 3277              		.loc 1 162 50 is_stmt 0
 3278 1114 97000000 		call	_ZN5RiscV25executeThreadStartSyscallEv
 3278      E7800000 
 3279              	.LVL268:
 162:src/kernel/riscv.cpp ****             case 0x21 : executeSemOpenSyscall();break;
 3280              		.loc 1 162 53 is_stmt 1
 3281 111c 6FF09FF8 		j	.L147
GAS LISTING /tmp/cc8OAIEG.s 			page 87


 3282              	.L159:
 163:src/kernel/riscv.cpp ****             case 0x22 : executeSemCloseSyscall();break;
 3283              		.loc 1 163 13
 163:src/kernel/riscv.cpp ****             case 0x22 : executeSemCloseSyscall();break;
 3284              		.loc 1 163 25
 163:src/kernel/riscv.cpp ****             case 0x22 : executeSemCloseSyscall();break;
 3285              		.loc 1 163 46 is_stmt 0
 3286 1120 97000000 		call	_ZN5RiscV21executeSemOpenSyscallEv
 3286      E7800000 
 3287              	.LVL269:
 163:src/kernel/riscv.cpp ****             case 0x22 : executeSemCloseSyscall();break;
 3288              		.loc 1 163 49 is_stmt 1
 3289 1128 6FF0DFF7 		j	.L147
 3290              	.L158:
 164:src/kernel/riscv.cpp ****             case 0x23 : executeSemWaitSyscall();break;
 3291              		.loc 1 164 13
 164:src/kernel/riscv.cpp ****             case 0x23 : executeSemWaitSyscall();break;
 3292              		.loc 1 164 25
 164:src/kernel/riscv.cpp ****             case 0x23 : executeSemWaitSyscall();break;
 3293              		.loc 1 164 47 is_stmt 0
 3294 112c 97000000 		call	_ZN5RiscV22executeSemCloseSyscallEv
 3294      E7800000 
 3295              	.LVL270:
 164:src/kernel/riscv.cpp ****             case 0x23 : executeSemWaitSyscall();break;
 3296              		.loc 1 164 50 is_stmt 1
 3297 1134 6FF01FF7 		j	.L147
 3298              	.L157:
 165:src/kernel/riscv.cpp ****             case 0x24 : executeSemSignalSyscall();break;
 3299              		.loc 1 165 13
 165:src/kernel/riscv.cpp ****             case 0x24 : executeSemSignalSyscall();break;
 3300              		.loc 1 165 25
 165:src/kernel/riscv.cpp ****             case 0x24 : executeSemSignalSyscall();break;
 3301              		.loc 1 165 46 is_stmt 0
 3302 1138 97000000 		call	_ZN5RiscV21executeSemWaitSyscallEv
 3302      E7800000 
 3303              	.LVL271:
 165:src/kernel/riscv.cpp ****             case 0x24 : executeSemSignalSyscall();break;
 3304              		.loc 1 165 49 is_stmt 1
 3305 1140 6FF05FF6 		j	.L147
 3306              	.L156:
 166:src/kernel/riscv.cpp ****             case 0x31 : executeTimeSleepSyscall();break;
 3307              		.loc 1 166 13
 166:src/kernel/riscv.cpp ****             case 0x31 : executeTimeSleepSyscall();break;
 3308              		.loc 1 166 25
 166:src/kernel/riscv.cpp ****             case 0x31 : executeTimeSleepSyscall();break;
 3309              		.loc 1 166 48 is_stmt 0
 3310 1144 97000000 		call	_ZN5RiscV23executeSemSignalSyscallEv
 3310      E7800000 
 3311              	.LVL272:
 166:src/kernel/riscv.cpp ****             case 0x31 : executeTimeSleepSyscall();break;
 3312              		.loc 1 166 51 is_stmt 1
 3313 114c 6FF09FF5 		j	.L147
 3314              	.L155:
 167:src/kernel/riscv.cpp ****             case 0x41 : executeGetcSyscall();break;
 3315              		.loc 1 167 13
 167:src/kernel/riscv.cpp ****             case 0x41 : executeGetcSyscall();break;
 3316              		.loc 1 167 25
GAS LISTING /tmp/cc8OAIEG.s 			page 88


 167:src/kernel/riscv.cpp ****             case 0x41 : executeGetcSyscall();break;
 3317              		.loc 1 167 48 is_stmt 0
 3318 1150 97000000 		call	_ZN5RiscV23executeTimeSleepSyscallEv
 3318      E7800000 
 3319              	.LVL273:
 167:src/kernel/riscv.cpp ****             case 0x41 : executeGetcSyscall();break;
 3320              		.loc 1 167 51 is_stmt 1
 3321 1158 6FF0DFF4 		j	.L147
 3322              	.L154:
 168:src/kernel/riscv.cpp ****             case 0x42 : executePutcSyscall();break;
 3323              		.loc 1 168 13
 168:src/kernel/riscv.cpp ****             case 0x42 : executePutcSyscall();break;
 3324              		.loc 1 168 25
 168:src/kernel/riscv.cpp ****             case 0x42 : executePutcSyscall();break;
 3325              		.loc 1 168 43 is_stmt 0
 3326 115c 97000000 		call	_ZN5RiscV18executeGetcSyscallEv
 3326      E7800000 
 3327              	.LVL274:
 168:src/kernel/riscv.cpp ****             case 0x42 : executePutcSyscall();break;
 3328              		.loc 1 168 46 is_stmt 1
 3329 1164 6FF01FF4 		j	.L147
 3330              	.L153:
 169:src/kernel/riscv.cpp ****             case 0x43 : executePutcUtilSyscall();break;
 3331              		.loc 1 169 13
 169:src/kernel/riscv.cpp ****             case 0x43 : executePutcUtilSyscall();break;
 3332              		.loc 1 169 25
 169:src/kernel/riscv.cpp ****             case 0x43 : executePutcUtilSyscall();break;
 3333              		.loc 1 169 43 is_stmt 0
 3334 1168 97000000 		call	_ZN5RiscV18executePutcSyscallEv
 3334      E7800000 
 3335              	.LVL275:
 169:src/kernel/riscv.cpp ****             case 0x43 : executePutcUtilSyscall();break;
 3336              		.loc 1 169 46 is_stmt 1
 3337 1170 6FF05FF3 		j	.L147
 3338              	.L152:
 170:src/kernel/riscv.cpp ****             case 0x51 : executeThreadFreeSyscall();break;
 3339              		.loc 1 170 13
 170:src/kernel/riscv.cpp ****             case 0x51 : executeThreadFreeSyscall();break;
 3340              		.loc 1 170 25
 170:src/kernel/riscv.cpp ****             case 0x51 : executeThreadFreeSyscall();break;
 3341              		.loc 1 170 47 is_stmt 0
 3342 1174 97000000 		call	_ZN5RiscV22executePutcUtilSyscallEv
 3342      E7800000 
 3343              	.LVL276:
 170:src/kernel/riscv.cpp ****             case 0x51 : executeThreadFreeSyscall();break;
 3344              		.loc 1 170 50 is_stmt 1
 3345 117c 6FF09FF2 		j	.L147
 3346              	.L151:
 171:src/kernel/riscv.cpp ****             case 0x52 : executeSemaphoreFreeSyscall();break;
 3347              		.loc 1 171 13
 171:src/kernel/riscv.cpp ****             case 0x52 : executeSemaphoreFreeSyscall();break;
 3348              		.loc 1 171 25
 171:src/kernel/riscv.cpp ****             case 0x52 : executeSemaphoreFreeSyscall();break;
 3349              		.loc 1 171 49 is_stmt 0
 3350 1180 97000000 		call	_ZN5RiscV24executeThreadFreeSyscallEv
 3350      E7800000 
 3351              	.LVL277:
GAS LISTING /tmp/cc8OAIEG.s 			page 89


 171:src/kernel/riscv.cpp ****             case 0x52 : executeSemaphoreFreeSyscall();break;
 3352              		.loc 1 171 52 is_stmt 1
 3353 1188 6FF0DFF1 		j	.L147
 3354              	.L150:
 172:src/kernel/riscv.cpp ****             //in this case we need to save SP and PC at this point so that newly created thread
 3355              		.loc 1 172 13
 172:src/kernel/riscv.cpp ****             //in this case we need to save SP and PC at this point so that newly created thread
 3356              		.loc 1 172 25
 172:src/kernel/riscv.cpp ****             //in this case we need to save SP and PC at this point so that newly created thread
 3357              		.loc 1 172 52 is_stmt 0
 3358 118c 97000000 		call	_ZN5RiscV27executeSemaphoreFreeSyscallEv
 3358      E7800000 
 3359              	.LVL278:
 172:src/kernel/riscv.cpp ****             //in this case we need to save SP and PC at this point so that newly created thread
 3360              		.loc 1 172 55 is_stmt 1
 3361 1194 6FF01FF1 		j	.L147
 3362              	.L148:
 176:src/kernel/riscv.cpp ****                         RiscV::getPC();
 3363              		.loc 1 176 13
 176:src/kernel/riscv.cpp ****                         RiscV::getPC();
 3364              		.loc 1 176 25
 176:src/kernel/riscv.cpp ****                         RiscV::getPC();
 3365              		.loc 1 176 72 is_stmt 0
 3366              	#APP
 3367              	# 176 "src/kernel/riscv.cpp" 1
 3368              		mv a5, sp
 3369              	# 0 "" 2
 3370              	#NO_APP
 3371 119c 17070000 		la	a4,_ZN3TCB9currentSPE
 3371      03370700 
 3372 11a4 2330F700 		sd	a5,0(a4)
 177:src/kernel/riscv.cpp ****                         executeForkSyscall();
 3373              		.loc 1 177 25 is_stmt 1
 177:src/kernel/riscv.cpp ****                         executeForkSyscall();
 3374              		.loc 1 177 37 is_stmt 0
 3375 11a8 97000000 		call	_ZN5RiscV5getPCEv
 3375      E7800000 
 3376              	.LVL279:
 178:src/kernel/riscv.cpp ****                         break;
 3377              		.loc 1 178 25 is_stmt 1
 178:src/kernel/riscv.cpp ****                         break;
 3378              		.loc 1 178 43 is_stmt 0
 3379 11b0 97000000 		call	_ZN5RiscV18executeForkSyscallEv
 3379      E7800000 
 3380              	.LVL280:
 179:src/kernel/riscv.cpp ****         }
 3381              		.loc 1 179 25 is_stmt 1
 3382 11b8 6FF0DFEE 		j	.L147
 3383              	.L174:
 3384              	.LBE201:
 3385              	.LBB202:
 3386              	.LBB175:
 192:src/kernel/riscv.cpp ****         uint64 volatile sepc = RiscV::r_sepc();
 3387              		.loc 1 192 9
 3388              	.LBB176:
 3389              	.LBB177:
 171:src/kernel/../../h/riscv.hpp ****     asm("csrr %[sstatus], sstatus" : [sstatus] "=r" (sstatus));
GAS LISTING /tmp/cc8OAIEG.s 			page 90


 3390              		.loc 2 171 5
 172:src/kernel/../../h/riscv.hpp ****     return sstatus;
 3391              		.loc 2 172 5
 172:src/kernel/../../h/riscv.hpp ****     return sstatus;
 3392              		.loc 2 172 63 is_stmt 0
 3393              	#APP
 3394              	# 172 "src/kernel/../../h/riscv.hpp" 1
 3395              		csrr a5, sstatus
 3396              	# 0 "" 2
 3397              	.LVL281:
 173:src/kernel/../../h/riscv.hpp **** }
 3398              		.loc 2 173 5 is_stmt 1
 3399              	#NO_APP
 3400              	.LBE177:
 3401              	.LBE176:
 192:src/kernel/riscv.cpp ****         uint64 volatile sepc = RiscV::r_sepc();
 3402              		.loc 1 192 52 is_stmt 0
 3403 11c0 233CF4FA 		sd	a5,-72(s0)
 193:src/kernel/riscv.cpp **** 
 3404              		.loc 1 193 9 is_stmt 1
 3405              	.LBB178:
 3406              	.LBB179:
 151:src/kernel/../../h/riscv.hpp ****     asm("csrr %[sepc], sepc" : [sepc] "=r" (sepc));
 3407              		.loc 2 151 5
 152:src/kernel/../../h/riscv.hpp ****     return sepc;
 3408              		.loc 2 152 5
 152:src/kernel/../../h/riscv.hpp ****     return sepc;
 3409              		.loc 2 152 51 is_stmt 0
 3410              	#APP
 3411              	# 152 "src/kernel/../../h/riscv.hpp" 1
 3412              		csrr a5, sepc
 3413              	# 0 "" 2
 3414              	.LVL282:
 153:src/kernel/../../h/riscv.hpp **** }
 3415              		.loc 2 153 5 is_stmt 1
 3416              	#NO_APP
 3417              	.LBE179:
 3418              	.LBE178:
 193:src/kernel/riscv.cpp **** 
 3419              		.loc 1 193 46 is_stmt 0
 3420 11c8 2330F4FC 		sd	a5,-64(s0)
 196:src/kernel/riscv.cpp **** 
 3421              		.loc 1 196 9 is_stmt 1
 3422              	.LVL283:
 3423              	.LBB180:
 3424              	.LBB181:
 193:src/kernel/../../h/riscv.hpp **** }
 3425              		.loc 2 193 5
 193:src/kernel/../../h/riscv.hpp **** }
 3426              		.loc 2 193 51 is_stmt 0
 3427 11cc 93072000 		li	a5,2
 3428              	#APP
 3429              	# 193 "src/kernel/../../h/riscv.hpp" 1
 3430              		csrc sip, a5
 3431              	# 0 "" 2
 3432              	.LVL284:
 3433              	#NO_APP
GAS LISTING /tmp/cc8OAIEG.s 			page 91


 3434              	.LBE181:
 3435              	.LBE180:
 200:src/kernel/riscv.cpp ****         Scheduler::awake();
 3436              		.loc 1 200 9 is_stmt 1
 200:src/kernel/riscv.cpp ****         Scheduler::awake();
 3437              		.loc 1 200 20 is_stmt 0
 3438 11d4 17070000 		lla	a4,.LANCHOR0
 3438      13070700 
 3439 11dc 83370701 		ld	a5,16(a4)
 3440 11e0 93871700 		addi	a5,a5,1
 3441 11e4 2338F700 		sd	a5,16(a4)
 201:src/kernel/riscv.cpp **** 
 3442              		.loc 1 201 9 is_stmt 1
 201:src/kernel/riscv.cpp **** 
 3443              		.loc 1 201 25 is_stmt 0
 3444 11e8 97000000 		call	_ZN9Scheduler5awakeEv@plt
 3444      E7800000 
 3445              	.LVL285:
 205:src/kernel/riscv.cpp ****         if(TCB::timeSliceCounter >= TCB::running->timeSlice) {
 3446              		.loc 1 205 9 is_stmt 1
 205:src/kernel/riscv.cpp ****         if(TCB::timeSliceCounter >= TCB::running->timeSlice) {
 3447              		.loc 1 205 30 is_stmt 0
 3448 11f0 17070000 		la	a4,_ZN3TCB16timeSliceCounterE
 3448      03370700 
 3449 11f8 83370700 		ld	a5,0(a4)
 3450 11fc 93871700 		addi	a5,a5,1
 3451 1200 2330F700 		sd	a5,0(a4)
 206:src/kernel/riscv.cpp **** 
 3452              		.loc 1 206 9 is_stmt 1
 3453              	.LBB182:
 206:src/kernel/riscv.cpp **** 
 3454              		.loc 1 206 51 is_stmt 0
 3455 1204 17070000 		la	a4,_ZN3TCB7runningE
 3455      03370700 
 3456 120c 03370700 		ld	a4,0(a4)
 3457 1210 83360703 		ld	a3,48(a4)
 206:src/kernel/riscv.cpp **** 
 3458              		.loc 1 206 9
 3459 1214 63FCD700 		bgeu	a5,a3,.L177
 3460              	.L168:
 3461              	.LBE182:
 218:src/kernel/riscv.cpp ****         RiscV::w_sepc(sepc);
 3462              		.loc 1 218 9 is_stmt 1
 218:src/kernel/riscv.cpp ****         RiscV::w_sepc(sepc);
 3463              		.loc 1 218 25 is_stmt 0
 3464 1218 833784FB 		ld	a5,-72(s0)
 3465              	.LVL286:
 3466              	.LBB184:
 3467              	.LBB185:
 167:src/kernel/../../h/riscv.hpp **** }
 3468              		.loc 2 167 5 is_stmt 1
 167:src/kernel/../../h/riscv.hpp **** }
 3469              		.loc 2 167 64 is_stmt 0
 3470              	#APP
 3471              	# 167 "src/kernel/../../h/riscv.hpp" 1
 3472              		csrw sstatus, a5
 3473              	# 0 "" 2
GAS LISTING /tmp/cc8OAIEG.s 			page 92


 3474              	.LVL287:
 3475              	#NO_APP
 3476              	.LBE185:
 3477              	.LBE184:
 219:src/kernel/riscv.cpp ****     }
 3478              		.loc 1 219 9 is_stmt 1
 219:src/kernel/riscv.cpp ****     }
 3479              		.loc 1 219 22 is_stmt 0
 3480 1220 833704FC 		ld	a5,-64(s0)
 3481              	.LVL288:
 3482              	.LBB186:
 3483              	.LBB187:
 157:src/kernel/../../h/riscv.hpp **** }
 3484              		.loc 2 157 5 is_stmt 1
 157:src/kernel/../../h/riscv.hpp **** }
 3485              		.loc 2 157 52 is_stmt 0
 3486              	#APP
 3487              	# 157 "src/kernel/../../h/riscv.hpp" 1
 158:src/kernel/../../h/riscv.hpp **** 
 3488              		csrw sepc, a5
 3489              	# 0 "" 2
 3490              		.loc 2 158 1
 3491              	#NO_APP
 3492 1228 6FF09FE9 		j	.L167
 3493              	.LVL289:
 3494              	.L177:
 3495              	.LBE187:
 3496              	.LBE186:
 3497              	.LBB188:
 3498              	.LBB183:
 208:src/kernel/riscv.cpp **** 
 3499              		.loc 1 208 13 is_stmt 1
 208:src/kernel/riscv.cpp **** 
 3500              		.loc 1 208 35 is_stmt 0
 3501 122c 97070000 		la	a5,_ZN3TCB16timeSliceCounterE
 3501      83B70700 
 3502 1234 23B00700 		sd	zero,0(a5)
 210:src/kernel/riscv.cpp **** 
 3503              		.loc 1 210 13 is_stmt 1
 3504              	.LVL290:
 212:src/kernel/riscv.cpp **** 
 3505              		.loc 1 212 13
 212:src/kernel/riscv.cpp **** 
 3506              		.loc 1 212 25 is_stmt 0
 3507 1238 93071000 		li	a5,1
 3508 123c 2328F700 		sw	a5,16(a4)
 214:src/kernel/riscv.cpp ****         }
 3509              		.loc 1 214 13 is_stmt 1
 214:src/kernel/riscv.cpp ****         }
 3510              		.loc 1 214 26 is_stmt 0
 3511 1240 97000000 		call	_ZN3TCB8dispatchEv@plt
 3511      E7800000 
 3512              	.LVL291:
 3513              	.LBE183:
 3514 1248 6FF01FFD 		j	.L168
 3515              	.L175:
 3516              	.LBE188:
GAS LISTING /tmp/cc8OAIEG.s 			page 93


 3517              	.LBE175:
 3518              	.LBB189:
 3519              	.LBB160:
 226:src/kernel/riscv.cpp ****         uint64 volatile sepc = RiscV::r_sepc();
 3520              		.loc 1 226 9 is_stmt 1
 3521              	.LBB161:
 3522              	.LBB162:
 171:src/kernel/../../h/riscv.hpp ****     asm("csrr %[sstatus], sstatus" : [sstatus] "=r" (sstatus));
 3523              		.loc 2 171 5
 172:src/kernel/../../h/riscv.hpp ****     return sstatus;
 3524              		.loc 2 172 5
 172:src/kernel/../../h/riscv.hpp ****     return sstatus;
 3525              		.loc 2 172 63 is_stmt 0
 3526              	#APP
 3527              	# 172 "src/kernel/../../h/riscv.hpp" 1
 3528              		csrr a5, sstatus
 3529              	# 0 "" 2
 3530              	.LVL292:
 173:src/kernel/../../h/riscv.hpp **** }
 3531              		.loc 2 173 5 is_stmt 1
 3532              	#NO_APP
 3533              	.LBE162:
 3534              	.LBE161:
 226:src/kernel/riscv.cpp ****         uint64 volatile sepc = RiscV::r_sepc();
 3535              		.loc 1 226 52 is_stmt 0
 3536 1250 2334F4FC 		sd	a5,-56(s0)
 227:src/kernel/riscv.cpp **** 
 3537              		.loc 1 227 9 is_stmt 1
 3538              	.LBB163:
 3539              	.LBB164:
 151:src/kernel/../../h/riscv.hpp ****     asm("csrr %[sepc], sepc" : [sepc] "=r" (sepc));
 3540              		.loc 2 151 5
 152:src/kernel/../../h/riscv.hpp ****     return sepc;
 3541              		.loc 2 152 5
 152:src/kernel/../../h/riscv.hpp ****     return sepc;
 3542              		.loc 2 152 51 is_stmt 0
 3543              	#APP
 3544              	# 152 "src/kernel/../../h/riscv.hpp" 1
 3545              		csrr a5, sepc
 3546              	# 0 "" 2
 3547              	.LVL293:
 153:src/kernel/../../h/riscv.hpp **** }
 3548              		.loc 2 153 5 is_stmt 1
 3549              	#NO_APP
 3550              	.LBE164:
 3551              	.LBE163:
 227:src/kernel/riscv.cpp **** 
 3552              		.loc 1 227 46 is_stmt 0
 3553 1258 2338F4FC 		sd	a5,-48(s0)
 230:src/kernel/riscv.cpp ****         asm("mv a0, %[status]" : : [status] "r" (status));
 3554              		.loc 1 230 9 is_stmt 1
 230:src/kernel/riscv.cpp ****         asm("mv a0, %[status]" : : [status] "r" (status));
 3555              		.loc 1 230 16 is_stmt 0
 3556 125c 97070000 		la	a5,CONSOLE_STATUS
 3556      83B70700 
 3557 1264 83B70700 		ld	a5,0(a5)
 3558              	.LVL294:
GAS LISTING /tmp/cc8OAIEG.s 			page 94


 231:src/kernel/riscv.cpp ****         asm("lb a1, 0(a0)");
 3559              		.loc 1 231 9 is_stmt 1
 231:src/kernel/riscv.cpp ****         asm("lb a1, 0(a0)");
 3560              		.loc 1 231 58 is_stmt 0
 3561              	#APP
 3562              	# 231 "src/kernel/riscv.cpp" 1
 232:src/kernel/riscv.cpp ****         asm("mv %[status], a1" : [status] "=r" (status));
 3563              		mv a0, a5
 3564              	# 0 "" 2
 3565              		.loc 1 232 9 is_stmt 1
 232:src/kernel/riscv.cpp ****         asm("mv %[status], a1" : [status] "=r" (status));
 3566              		.loc 1 232 28 is_stmt 0
 3567              	# 232 "src/kernel/riscv.cpp" 1
 233:src/kernel/riscv.cpp **** 
 3568              		lb a1, 0(a0)
 3569              	# 0 "" 2
 3570              		.loc 1 233 9 is_stmt 1
 233:src/kernel/riscv.cpp **** 
 3571              		.loc 1 233 57 is_stmt 0
 3572              	# 233 "src/kernel/riscv.cpp" 1
 3573              		mv a5, a1
 3574              	# 0 "" 2
 3575              	.LVL295:
 236:src/kernel/riscv.cpp ****         {
 3576              		.loc 1 236 9 is_stmt 1
 3577              	#NO_APP
 3578              	.LBB165:
 236:src/kernel/riscv.cpp ****         {
 3579              		.loc 1 236 19 is_stmt 0
 3580 1274 93F71700 		andi	a5,a5,1
 3581              	.LVL296:
 236:src/kernel/riscv.cpp ****         {
 3582              		.loc 1 236 9
 3583 1278 63880702 		beqz	a5,.L170
 3584              	.LBB166:
 239:src/kernel/riscv.cpp ****             char c;
 3585              		.loc 1 239 13 is_stmt 1
 240:src/kernel/riscv.cpp ****             data = CONSOLE_TX_DATA;
 3586              		.loc 1 240 13
 241:src/kernel/riscv.cpp ****             asm("mv a0, %[data]" : : [data] "r" (data));
 3587              		.loc 1 241 13
 241:src/kernel/riscv.cpp ****             asm("mv a0, %[data]" : : [data] "r" (data));
 3588              		.loc 1 241 18 is_stmt 0
 3589 127c 97070000 		la	a5,CONSOLE_TX_DATA
 3589      83B70700 
 3590 1284 83B70700 		ld	a5,0(a5)
 3591              	.LVL297:
 242:src/kernel/riscv.cpp ****             asm("lb a1, 0(a0)");
 3592              		.loc 1 242 13 is_stmt 1
 242:src/kernel/riscv.cpp ****             asm("lb a1, 0(a0)");
 3593              		.loc 1 242 56 is_stmt 0
 3594              	#APP
 3595              	# 242 "src/kernel/riscv.cpp" 1
 243:src/kernel/riscv.cpp ****             asm("mv %[c], a1" : [c] "=r" (c));
 3596              		mv a0, a5
 3597              	# 0 "" 2
 3598              		.loc 1 243 13 is_stmt 1
GAS LISTING /tmp/cc8OAIEG.s 			page 95


 243:src/kernel/riscv.cpp ****             asm("mv %[c], a1" : [c] "=r" (c));
 3599              		.loc 1 243 32 is_stmt 0
 3600              	# 243 "src/kernel/riscv.cpp" 1
 244:src/kernel/riscv.cpp **** 
 3601              		lb a1, 0(a0)
 3602              	# 0 "" 2
 3603              		.loc 1 244 13 is_stmt 1
 244:src/kernel/riscv.cpp **** 
 3604              		.loc 1 244 46 is_stmt 0
 3605              	# 244 "src/kernel/riscv.cpp" 1
 3606              		mv a0, a1
 3607              	# 0 "" 2
 3608              	#NO_APP
 3609 1294 1375F50F 		andi	a0,a0,0xff
 3610              	.LVL298:
 247:src/kernel/riscv.cpp ****                 ConsoleUtil::pendingGetc--;
 3611              		.loc 1 247 13 is_stmt 1
 247:src/kernel/riscv.cpp ****                 ConsoleUtil::pendingGetc--;
 3612              		.loc 1 247 40 is_stmt 0
 3613 1298 97070000 		la	a5,_ZN11ConsoleUtil11pendingGetcE
 3613      83B70700 
 3614              	.LVL299:
 3615 12a0 83B70700 		ld	a5,0(a5)
 247:src/kernel/riscv.cpp ****                 ConsoleUtil::pendingGetc--;
 3616              		.loc 1 247 13
 3617 12a4 63940702 		bnez	a5,.L178
 3618              	.LVL300:
 3619              	.L170:
 3620              	.LBE166:
 3621              	.LBE165:
 252:src/kernel/riscv.cpp **** 
 3622              		.loc 1 252 9 is_stmt 1
 252:src/kernel/riscv.cpp **** 
 3623              		.loc 1 252 22 is_stmt 0
 3624 12a8 97000000 		call	plic_claim@plt
 3624      E7800000 
 3625              	.LVL301:
 3626 12b0 97000000 		call	plic_complete@plt
 3626      E7800000 
 3627              	.LVL302:
 254:src/kernel/riscv.cpp ****         RiscV::w_sepc(sepc);
 3628              		.loc 1 254 9 is_stmt 1
 254:src/kernel/riscv.cpp ****         RiscV::w_sepc(sepc);
 3629              		.loc 1 254 25 is_stmt 0
 3630 12b8 833784FC 		ld	a5,-56(s0)
 3631              	.LVL303:
 3632              	.LBB168:
 3633              	.LBB169:
 167:src/kernel/../../h/riscv.hpp **** }
 3634              		.loc 2 167 5 is_stmt 1
 167:src/kernel/../../h/riscv.hpp **** }
 3635              		.loc 2 167 64 is_stmt 0
 3636              	#APP
 3637              	# 167 "src/kernel/../../h/riscv.hpp" 1
 3638              		csrw sstatus, a5
 3639              	# 0 "" 2
 3640              	.LVL304:
GAS LISTING /tmp/cc8OAIEG.s 			page 96


 3641              	#NO_APP
 3642              	.LBE169:
 3643              	.LBE168:
 255:src/kernel/riscv.cpp ****     }
 3644              		.loc 1 255 9 is_stmt 1
 255:src/kernel/riscv.cpp ****     }
 3645              		.loc 1 255 22 is_stmt 0
 3646 12c0 833704FD 		ld	a5,-48(s0)
 3647              	.LVL305:
 3648              	.LBB170:
 3649              	.LBB171:
 157:src/kernel/../../h/riscv.hpp **** }
 3650              		.loc 2 157 5 is_stmt 1
 157:src/kernel/../../h/riscv.hpp **** }
 3651              		.loc 2 157 52 is_stmt 0
 3652              	#APP
 3653              	# 157 "src/kernel/../../h/riscv.hpp" 1
 158:src/kernel/../../h/riscv.hpp **** 
 3654              		csrw sepc, a5
 3655              	# 0 "" 2
 3656              		.loc 2 158 1
 3657              	#NO_APP
 3658 12c8 6FF09FDF 		j	.L167
 3659              	.LVL306:
 3660              	.L178:
 3661              	.LBE171:
 3662              	.LBE170:
 3663              	.LBB172:
 3664              	.LBB167:
 248:src/kernel/riscv.cpp ****                 ConsoleUtil::putInput(c);
 3665              		.loc 1 248 17 is_stmt 1
 248:src/kernel/riscv.cpp ****                 ConsoleUtil::putInput(c);
 3666              		.loc 1 248 41 is_stmt 0
 3667 12cc 9387F7FF 		addi	a5,a5,-1
 3668 12d0 17070000 		la	a4,_ZN11ConsoleUtil11pendingGetcE
 3668      03370700 
 3669 12d8 2330F700 		sd	a5,0(a4)
 249:src/kernel/riscv.cpp ****             }
 3670              		.loc 1 249 17 is_stmt 1
 249:src/kernel/riscv.cpp ****             }
 3671              		.loc 1 249 38 is_stmt 0
 3672 12dc 97000000 		call	_ZN11ConsoleUtil8putInputEc@plt
 3672      E7800000 
 3673              	.LVL307:
 3674 12e4 6FF05FFC 		j	.L170
 3675              	.LVL308:
 3676              	.L176:
 3677              	.LBE167:
 3678              	.LBE172:
 3679              	.LBE160:
 3680              	.LBB173:
 3681              	.LBB157:
 260:src/kernel/riscv.cpp ****         old->status = TCB::Status::FINISHED;
 3682              		.loc 1 260 9 is_stmt 1
 260:src/kernel/riscv.cpp ****         old->status = TCB::Status::FINISHED;
 3683              		.loc 1 260 14 is_stmt 0
 3684 12e8 97070000 		la	a5,_ZN3TCB7runningE
GAS LISTING /tmp/cc8OAIEG.s 			page 97


 3684      83B70700 
 3685 12f0 83B70700 		ld	a5,0(a5)
 3686              	.LVL309:
 261:src/kernel/riscv.cpp ****         ConsoleUtil::printString("sepc: ");
 3687              		.loc 1 261 9 is_stmt 1
 261:src/kernel/riscv.cpp ****         ConsoleUtil::printString("sepc: ");
 3688              		.loc 1 261 21 is_stmt 0
 3689 12f4 13072000 		li	a4,2
 3690 12f8 23A8E700 		sw	a4,16(a5)
 262:src/kernel/riscv.cpp ****         uint64 sepc = RiscV::r_sepc();
 3691              		.loc 1 262 9 is_stmt 1
 262:src/kernel/riscv.cpp ****         uint64 sepc = RiscV::r_sepc();
 3692              		.loc 1 262 33 is_stmt 0
 3693 12fc 17050000 		lla	a0,.LC3
 3693      13050500 
 3694 1304 97000000 		call	_ZN11ConsoleUtil11printStringEPKc@plt
 3694      E7800000 
 3695              	.LVL310:
 263:src/kernel/riscv.cpp ****         ConsoleUtil::printInt(sepc,16);
 3696              		.loc 1 263 9 is_stmt 1
 3697              	.LBB158:
 3698              	.LBB159:
 151:src/kernel/../../h/riscv.hpp ****     asm("csrr %[sepc], sepc" : [sepc] "=r" (sepc));
 3699              		.loc 2 151 5
 152:src/kernel/../../h/riscv.hpp ****     return sepc;
 3700              		.loc 2 152 5
 152:src/kernel/../../h/riscv.hpp ****     return sepc;
 3701              		.loc 2 152 51 is_stmt 0
 3702              	#APP
 3703              	# 152 "src/kernel/../../h/riscv.hpp" 1
 153:src/kernel/../../h/riscv.hpp **** }
 3704              		csrr a0, sepc
 3705              	# 0 "" 2
 3706              		.loc 2 153 5 is_stmt 1
 3707              	#NO_APP
 3708              	.LBE159:
 3709              	.LBE158:
 264:src/kernel/riscv.cpp ****         ConsoleUtil::printString("\n");
 3710              		.loc 1 264 9
 264:src/kernel/riscv.cpp ****         ConsoleUtil::printString("\n");
 3711              		.loc 1 264 30 is_stmt 0
 3712 1310 13060000 		li	a2,0
 3713 1314 93050001 		li	a1,16
 3714 1318 1B050500 		sext.w	a0,a0
 3715 131c 97000000 		call	_ZN11ConsoleUtil8printIntEiii@plt
 3715      E7800000 
 3716              	.LVL311:
 265:src/kernel/riscv.cpp ****         ConsoleUtil::printString("Illegal instruction\nExiting thread...\n");
 3717              		.loc 1 265 9 is_stmt 1
 265:src/kernel/riscv.cpp ****         ConsoleUtil::printString("Illegal instruction\nExiting thread...\n");
 3718              		.loc 1 265 33 is_stmt 0
 3719 1324 17050000 		lla	a0,.LC0
 3719      13050500 
 3720 132c 97000000 		call	_ZN11ConsoleUtil11printStringEPKc@plt
 3720      E7800000 
 3721              	.LVL312:
 266:src/kernel/riscv.cpp ****         TCB::dispatch();
GAS LISTING /tmp/cc8OAIEG.s 			page 98


 3722              		.loc 1 266 9 is_stmt 1
 266:src/kernel/riscv.cpp ****         TCB::dispatch();
 3723              		.loc 1 266 33 is_stmt 0
 3724 1334 17050000 		lla	a0,.LC4
 3724      13050500 
 3725 133c 97000000 		call	_ZN11ConsoleUtil11printStringEPKc@plt
 3725      E7800000 
 3726              	.LVL313:
 267:src/kernel/riscv.cpp ****     }
 3727              		.loc 1 267 9 is_stmt 1
 267:src/kernel/riscv.cpp ****     }
 3728              		.loc 1 267 22 is_stmt 0
 3729 1344 97000000 		call	_ZN3TCB8dispatchEv@plt
 3729      E7800000 
 3730              	.LVL314:
 3731              	.LBE157:
 3732 134c 6FF05FD7 		j	.L167
 3733              	.LBE173:
 3734              	.LBE189:
 3735              	.LBE202:
 3736              	.LBE206:
 3737              		.cfi_endproc
 3738              	.LFE47:
 3740              		.globl	_ZN5RiscV4uPMTE
 3741              		.globl	_ZN5RiscV4kPMTE
 3742              		.globl	_ZN5RiscV16userMainFinishedE
 3743              		.globl	_ZN5RiscV10globalTimeE
 3744              		.bss
 3745              		.align	3
 3746              		.set	.LANCHOR0,. + 0
 3749              	_ZN5RiscV4kPMTE:
 3750 0000 00000000 		.zero	8
 3750      00000000 
 3753              	_ZN5RiscV16userMainFinishedE:
 3754 0008 00       		.zero	1
 3755 0009 00000000 		.zero	7
 3755      000000
 3758              	_ZN5RiscV10globalTimeE:
 3759 0010 00000000 		.zero	8
 3759      00000000 
 3762              	_ZN5RiscV4uPMTE:
 3763 0018 00000000 		.zero	8
 3763      00000000 
 3764              		.text
 3765              	.Letext0:
 3766              		.file 3 "src/kernel/../../h/../lib/hw.h"
 3767              		.file 4 "src/kernel/../../h/../h/utility.hpp"
 3768              		.file 5 "src/kernel/../../h/memoryAllocator.hpp"
 3769              		.file 6 "src/kernel/../../h/../h/../h/../h/buddyAllocator.hpp"
 3770              		.file 7 "src/kernel/../../h/../h/../h/../h/consoleUtil.hpp"
 3771              		.file 8 "src/kernel/../../h/scb.hpp"
 3772              		.file 9 "src/kernel/../../h/../h/../h/../h/../h/slab_t.hpp"
 3773              		.file 10 "src/kernel/../../h/../h/../h/../h/cache_t.hpp"
 3774              		.file 11 "src/kernel/../../h/tcb.hpp"
 3775              		.file 12 "src/kernel/../../h/scheduler.hpp"
 3776              		.file 13 "src/kernel/../../h/../h/slab.hpp"
 3777              		.file 14 "src/kernel/../../h/syscall_c.h"
GAS LISTING /tmp/cc8OAIEG.s 			page 99


 11575              		.align	3
 11578              	DW.ref.__gxx_personality_v0:
 11579 0000 00000000 		.dword	__gxx_personality_v0
 11579      00000000 
 11580              		.ident	"GCC: (Ubuntu 9.4.0-1ubuntu1~20.04) 9.4.0"
 11581              		.section	.note.GNU-stack,"",@progbits
GAS LISTING /tmp/cc8OAIEG.s 			page 100


DEFINED SYMBOLS
                            *ABS*:0000000000000000 riscv.cpp
     /tmp/cc8OAIEG.s:9      .text:0000000000000000 _ZN5RiscV6getPMTEv
     /tmp/cc8OAIEG.s:13     .text:0000000000000000 .L0 
     /tmp/cc8OAIEG.s:14     .text:0000000000000000 .L0 
     /tmp/cc8OAIEG.s:15     .text:0000000000000004 .L0 
     /tmp/cc8OAIEG.s:18     .text:000000000000000c .L0 
     /tmp/cc8OAIEG.s:19     .text:000000000000000c .L0 
     /tmp/cc8OAIEG.s:21     .text:0000000000000010 .L0 
     /tmp/cc8OAIEG.s:23     .text:0000000000000010 .L0 
     /tmp/cc8OAIEG.s:24     .text:0000000000000010 .L0 
     /tmp/cc8OAIEG.s:28     .text:000000000000001c .L0 
     /tmp/cc8OAIEG.s:30     .text:000000000000001c .L0 
     /tmp/cc8OAIEG.s:31     .text:000000000000001c .L0 
     /tmp/cc8OAIEG.s:35     .text:0000000000000020 .L0 
     /tmp/cc8OAIEG.s:38     .text:0000000000000028 .L0 
     /tmp/cc8OAIEG.s:39     .text:0000000000000028 .L0 
     /tmp/cc8OAIEG.s:42     .text:0000000000000030 .L0 
     /tmp/cc8OAIEG.s:44     .text:0000000000000034 .L0 
     /tmp/cc8OAIEG.s:51     .text:000000000000003c .L0 
     /tmp/cc8OAIEG.s:52     .text:0000000000000040 .L0 
     /tmp/cc8OAIEG.s:54     .text:0000000000000044 .L0 
     /tmp/cc8OAIEG.s:55     .text:0000000000000044 .L0 
     /tmp/cc8OAIEG.s:57     .text:0000000000000048 .L0 
     /tmp/cc8OAIEG.s:59     .text:000000000000004c .L0 
     /tmp/cc8OAIEG.s:65     .text:000000000000004c _ZN5RiscV15handlePageFaultEPvmm
     /tmp/cc8OAIEG.s:68     .text:000000000000004c .L0 
     /tmp/cc8OAIEG.s:70     .text:000000000000004c .L0 
     /tmp/cc8OAIEG.s:71     .text:0000000000000050 .L0 
     /tmp/cc8OAIEG.s:79     .text:000000000000006c .L0 
     /tmp/cc8OAIEG.s:80     .text:000000000000006c .L0 
     /tmp/cc8OAIEG.s:81     .text:000000000000006c .L0 
     /tmp/cc8OAIEG.s:82     .text:000000000000006c .L0 
     /tmp/cc8OAIEG.s:83     .text:000000000000006c .L0 
     /tmp/cc8OAIEG.s:84     .text:000000000000006c .L0 
     /tmp/cc8OAIEG.s:85     .text:000000000000006c .L0 
     /tmp/cc8OAIEG.s:87     .text:0000000000000070 .L0 
     /tmp/cc8OAIEG.s:90     .text:0000000000000074 .L0 
     /tmp/cc8OAIEG.s:91     .text:0000000000000074 .L0 
     /tmp/cc8OAIEG.s:93     .text:0000000000000078 .L0 
     /tmp/cc8OAIEG.s:96     .text:000000000000007c .L0 
     /tmp/cc8OAIEG.s:97     .text:000000000000007c .L0 
     /tmp/cc8OAIEG.s:98     .text:000000000000007c .L0 
     /tmp/cc8OAIEG.s:100    .text:0000000000000080 .L0 
     /tmp/cc8OAIEG.s:103    .text:0000000000000084 .L0 
     /tmp/cc8OAIEG.s:104    .text:0000000000000084 .L0 
     /tmp/cc8OAIEG.s:106    .text:0000000000000088 .L0 
     /tmp/cc8OAIEG.s:109    .text:000000000000008c .L0 
     /tmp/cc8OAIEG.s:110    .text:000000000000008c .L0 
     /tmp/cc8OAIEG.s:114    .text:0000000000000094 .L0 
     /tmp/cc8OAIEG.s:117    .text:0000000000000098 .L0 
     /tmp/cc8OAIEG.s:118    .text:0000000000000098 .L0 
     /tmp/cc8OAIEG.s:120    .text:000000000000009c .L0 
     /tmp/cc8OAIEG.s:121    .text:000000000000009c .L0 
     /tmp/cc8OAIEG.s:124    .text:00000000000000a0 .L0 
     /tmp/cc8OAIEG.s:128    .text:00000000000000a4 .L0 
     /tmp/cc8OAIEG.s:129    .text:00000000000000a4 .L0 
GAS LISTING /tmp/cc8OAIEG.s 			page 101


     /tmp/cc8OAIEG.s:133    .text:00000000000000ac .L0 
     /tmp/cc8OAIEG.s:136    .text:00000000000000b0 .L0 
     /tmp/cc8OAIEG.s:137    .text:00000000000000b0 .L0 
     /tmp/cc8OAIEG.s:139    .text:00000000000000b4 .L0 
     /tmp/cc8OAIEG.s:140    .text:00000000000000b4 .L0 
     /tmp/cc8OAIEG.s:143    .text:00000000000000b8 .L0 
     /tmp/cc8OAIEG.s:147    .text:00000000000000bc .L0 
     /tmp/cc8OAIEG.s:148    .text:00000000000000bc .L0 
     /tmp/cc8OAIEG.s:153    .text:00000000000000c4 .L0 
     /tmp/cc8OAIEG.s:156    .text:00000000000000c8 .L0 
     /tmp/cc8OAIEG.s:158    .text:00000000000000cc .L0 
     /tmp/cc8OAIEG.s:159    .text:00000000000000cc .L0 
     /tmp/cc8OAIEG.s:162    .text:00000000000000d0 .L0 
     /tmp/cc8OAIEG.s:165    .text:00000000000000d4 .L0 
     /tmp/cc8OAIEG.s:168    .text:00000000000000d8 .L0 
     /tmp/cc8OAIEG.s:169    .text:00000000000000dc .L0 
     /tmp/cc8OAIEG.s:170    .text:00000000000000dc .L0 
     /tmp/cc8OAIEG.s:172    .text:00000000000000e0 .L0 
     /tmp/cc8OAIEG.s:173    .text:00000000000000e0 .L0 
     /tmp/cc8OAIEG.s:175    .text:00000000000000e4 .L0 
     /tmp/cc8OAIEG.s:177    .text:00000000000000e8 .L0 
     /tmp/cc8OAIEG.s:179    .text:00000000000000ec .L0 
     /tmp/cc8OAIEG.s:181    .text:00000000000000f0 .L0 
     /tmp/cc8OAIEG.s:183    .text:00000000000000f4 .L0 
     /tmp/cc8OAIEG.s:185    .text:00000000000000f8 .L0 
     /tmp/cc8OAIEG.s:189    .text:00000000000000fc .L0 
     /tmp/cc8OAIEG.s:191    .text:00000000000000fc .L0 
     /tmp/cc8OAIEG.s:192    .text:00000000000000fc .L0 
     /tmp/cc8OAIEG.s:195    .text:0000000000000104 .L0 
     /tmp/cc8OAIEG.s:196    .text:0000000000000104 .L0 
     /tmp/cc8OAIEG.s:198    .text:0000000000000108 .L0 
     /tmp/cc8OAIEG.s:200    .text:000000000000010c .L0 
     /tmp/cc8OAIEG.s:202    .text:0000000000000110 .L0 
     /tmp/cc8OAIEG.s:207    .text:0000000000000118 .L0 
     /tmp/cc8OAIEG.s:208    .text:0000000000000118 .L0 
     /tmp/cc8OAIEG.s:211    .text:0000000000000120 .L0 
     /tmp/cc8OAIEG.s:212    .text:0000000000000120 .L0 
     /tmp/cc8OAIEG.s:214    .text:0000000000000124 .L0 
     /tmp/cc8OAIEG.s:216    .text:0000000000000128 .L0 
     /tmp/cc8OAIEG.s:218    .text:000000000000012c .L0 
     /tmp/cc8OAIEG.s:220    .text:0000000000000134 .L0 
     /tmp/cc8OAIEG.s:237    .text:0000000000000134 _ZN5RiscV10initializeEv
     /tmp/cc8OAIEG.s:240    .text:0000000000000134 .L0 
     /tmp/cc8OAIEG.s:241    .text:0000000000000134 .L0 
     /tmp/cc8OAIEG.s:242    .text:0000000000000138 .L0 
     /tmp/cc8OAIEG.s:250    .text:0000000000000154 .L0 
     /tmp/cc8OAIEG.s:251    .text:0000000000000154 .L0 
     /tmp/cc8OAIEG.s:252    .text:0000000000000154 .L0 
     /tmp/cc8OAIEG.s:253    .text:0000000000000154 .L0 
     /tmp/cc8OAIEG.s:254    .text:0000000000000154 .L0 
     /tmp/cc8OAIEG.s:255    .text:0000000000000154 .L0 
     /tmp/cc8OAIEG.s:256    .text:0000000000000154 .L0 
     /tmp/cc8OAIEG.s:258    .text:0000000000000158 .L0 
     /tmp/cc8OAIEG.s:260    .text:0000000000000158 .L0 
     /tmp/cc8OAIEG.s:261    .text:0000000000000158 .L0 
     /tmp/cc8OAIEG.s:267    .text:0000000000000160 .L0 
src/kernel/../../h/riscv.hpp:177    .text:0000000000000160 .L0 
GAS LISTING /tmp/cc8OAIEG.s 			page 102


     /tmp/cc8OAIEG.s:277    .text:0000000000000164 .L0 
     /tmp/cc8OAIEG.s:278    .text:0000000000000164 .L0 
     /tmp/cc8OAIEG.s:283    .text:0000000000000178 .L0 
     /tmp/cc8OAIEG.s:288    .text:0000000000000188 .L0 
     /tmp/cc8OAIEG.s:289    .text:0000000000000188 .L0 
     /tmp/cc8OAIEG.s:292    .text:0000000000000190 .L0 
     /tmp/cc8OAIEG.s:293    .text:0000000000000190 .L0 
     /tmp/cc8OAIEG.s:296    .text:0000000000000198 .L0 
     /tmp/cc8OAIEG.s:297    .text:0000000000000198 .L0 
     /tmp/cc8OAIEG.s:300    .text:00000000000001a0 .L0 
     /tmp/cc8OAIEG.s:301    .text:00000000000001a0 .L0 
     /tmp/cc8OAIEG.s:304    .text:00000000000001a8 .L0 
     /tmp/cc8OAIEG.s:305    .text:00000000000001a8 .L0 
     /tmp/cc8OAIEG.s:308    .text:00000000000001b0 .L0 
     /tmp/cc8OAIEG.s:309    .text:00000000000001b0 .L0 
     /tmp/cc8OAIEG.s:312    .text:00000000000001b8 .L0 
     /tmp/cc8OAIEG.s:314    .text:00000000000001c0 .L0 
     /tmp/cc8OAIEG.s:315    .text:00000000000001c0 .L0 
     /tmp/cc8OAIEG.s:318    .text:00000000000001c8 .L0 
     /tmp/cc8OAIEG.s:319    .text:00000000000001c8 .L0 
     /tmp/cc8OAIEG.s:322    .text:00000000000001d0 .L0 
     /tmp/cc8OAIEG.s:323    .text:00000000000001d0 .L0 
     /tmp/cc8OAIEG.s:326    .text:00000000000001d8 .L0 
     /tmp/cc8OAIEG.s:327    .text:00000000000001d8 .L0 
     /tmp/cc8OAIEG.s:331    .text:00000000000001e0 .L0 
     /tmp/cc8OAIEG.s:332    .text:00000000000001e0 .L0 
     /tmp/cc8OAIEG.s:337    .text:00000000000001e8 .L0 
     /tmp/cc8OAIEG.s:339    .text:00000000000001ec .L0 
     /tmp/cc8OAIEG.s:340    .text:00000000000001ec .L0 
     /tmp/cc8OAIEG.s:346    .text:0000000000000204 .L0 
     /tmp/cc8OAIEG.s:347    .text:0000000000000204 .L0 
     /tmp/cc8OAIEG.s:351    .text:000000000000020c .L0 
     /tmp/cc8OAIEG.s:357    .text:0000000000000210 .L0 
     /tmp/cc8OAIEG.s:359    .text:0000000000000214 .L0 
     /tmp/cc8OAIEG.s:360    .text:0000000000000214 .L0 
     /tmp/cc8OAIEG.s:366    .text:000000000000022c .L0 
     /tmp/cc8OAIEG.s:367    .text:000000000000022c .L0 
     /tmp/cc8OAIEG.s:371    .text:0000000000000234 .L0 
     /tmp/cc8OAIEG.s:377    .text:0000000000000238 .L0 
     /tmp/cc8OAIEG.s:379    .text:000000000000023c .L0 
     /tmp/cc8OAIEG.s:380    .text:000000000000023c .L0 
     /tmp/cc8OAIEG.s:386    .text:0000000000000254 .L0 
     /tmp/cc8OAIEG.s:387    .text:0000000000000254 .L0 
     /tmp/cc8OAIEG.s:391    .text:000000000000025c .L0 
     /tmp/cc8OAIEG.s:396    .text:0000000000000260 .L0 
     /tmp/cc8OAIEG.s:400    .text:0000000000000264 .L0 
     /tmp/cc8OAIEG.s:402    .text:0000000000000268 .L0 
     /tmp/cc8OAIEG.s:403    .text:0000000000000268 .L0 
     /tmp/cc8OAIEG.s:409    .text:0000000000000280 .L0 
     /tmp/cc8OAIEG.s:410    .text:0000000000000280 .L0 
     /tmp/cc8OAIEG.s:414    .text:0000000000000288 .L0 
     /tmp/cc8OAIEG.s:419    .text:000000000000028c .L0 
     /tmp/cc8OAIEG.s:423    .text:0000000000000290 .L0 
     /tmp/cc8OAIEG.s:427    .text:00000000000002a0 .L0 
     /tmp/cc8OAIEG.s:428    .text:00000000000002a0 .L0 
     /tmp/cc8OAIEG.s:434    .text:00000000000002b8 .L0 
     /tmp/cc8OAIEG.s:435    .text:00000000000002b8 .L0 
GAS LISTING /tmp/cc8OAIEG.s 			page 103


     /tmp/cc8OAIEG.s:439    .text:00000000000002c0 .L0 
     /tmp/cc8OAIEG.s:445    .text:00000000000002c4 .L0 
     /tmp/cc8OAIEG.s:446    .text:00000000000002c4 .L0 
     /tmp/cc8OAIEG.s:450    .text:00000000000002d4 .L0 
     /tmp/cc8OAIEG.s:454    .text:00000000000002e4 .L0 
     /tmp/cc8OAIEG.s:456    .text:00000000000002e8 .L0 
     /tmp/cc8OAIEG.s:457    .text:00000000000002e8 .L0 
     /tmp/cc8OAIEG.s:463    .text:0000000000000300 .L0 
     /tmp/cc8OAIEG.s:464    .text:0000000000000300 .L0 
     /tmp/cc8OAIEG.s:468    .text:0000000000000308 .L0 
     /tmp/cc8OAIEG.s:474    .text:000000000000030c .L0 
     /tmp/cc8OAIEG.s:475    .text:000000000000030c .L0 
     /tmp/cc8OAIEG.s:481    .text:0000000000000324 .L0 
     /tmp/cc8OAIEG.s:482    .text:0000000000000324 .L0 
     /tmp/cc8OAIEG.s:487    .text:000000000000032c .L0 
     /tmp/cc8OAIEG.s:495    .text:000000000000033c .L0 
     /tmp/cc8OAIEG.s:496    .text:000000000000033c .L0 
     /tmp/cc8OAIEG.s:497    .text:000000000000033c .L0 
     /tmp/cc8OAIEG.s:507    .text:0000000000000344 .L0 
     /tmp/cc8OAIEG.s:508    .text:0000000000000344 .L0 
     /tmp/cc8OAIEG.s:517    .text:0000000000000368 .L0 
     /tmp/cc8OAIEG.s:518    .text:0000000000000368 .L0 
     /tmp/cc8OAIEG.s:525    .text:0000000000000384 .L0 
     /tmp/cc8OAIEG.s:526    .text:0000000000000384 .L0 
     /tmp/cc8OAIEG.s:533    .text:00000000000003a0 .L0 
     /tmp/cc8OAIEG.s:534    .text:00000000000003a0 .L0 
     /tmp/cc8OAIEG.s:541    .text:00000000000003b8 .L0 
     /tmp/cc8OAIEG.s:542    .text:00000000000003b8 .L0 
     /tmp/cc8OAIEG.s:549    .text:00000000000003d8 .L0 
     /tmp/cc8OAIEG.s:550    .text:00000000000003d8 .L0 
     /tmp/cc8OAIEG.s:557    .text:00000000000003f8 .L0 
     /tmp/cc8OAIEG.s:558    .text:00000000000003f8 .L0 
     /tmp/cc8OAIEG.s:566    .text:0000000000000420 .L0 
     /tmp/cc8OAIEG.s:567    .text:0000000000000420 .L0 
     /tmp/cc8OAIEG.s:570    .text:0000000000000428 .L0 
     /tmp/cc8OAIEG.s:575    .text:0000000000000434 .L0 
src/kernel/riscv.cpp:109    .text:0000000000000434 .L0 
     /tmp/cc8OAIEG.s:581    .text:0000000000000438 .L0 
     /tmp/cc8OAIEG.s:587    .text:0000000000000438 .L0 
     /tmp/cc8OAIEG.s:588    .text:0000000000000438 .L0 
     /tmp/cc8OAIEG.s:589    .text:0000000000000438 .L0 
     /tmp/cc8OAIEG.s:604    .text:0000000000000440 .L0 
     /tmp/cc8OAIEG.s:605    .text:0000000000000440 .L0 
     /tmp/cc8OAIEG.s:606    .text:0000000000000440 .L0 
     /tmp/cc8OAIEG.s:621    .text:0000000000000448 .L0 
     /tmp/cc8OAIEG.s:622    .text:0000000000000448 .L0 
src/kernel/../../h/riscv.hpp:181    .text:0000000000000448 .L0 
     /tmp/cc8OAIEG.s:633    .text:000000000000044c .L0 
     /tmp/cc8OAIEG.s:634    .text:0000000000000450 .L0 
     /tmp/cc8OAIEG.s:636    .text:0000000000000454 .L0 
     /tmp/cc8OAIEG.s:637    .text:0000000000000454 .L0 
     /tmp/cc8OAIEG.s:639    .text:0000000000000458 .L0 
     /tmp/cc8OAIEG.s:641    .text:000000000000045c .L0 
     /tmp/cc8OAIEG.s:644    .text:0000000000000460 .L0 
     /tmp/cc8OAIEG.s:647    .text:0000000000000464 .L0 
     /tmp/cc8OAIEG.s:649    .text:0000000000000468 .L0 
     /tmp/cc8OAIEG.s:651    .text:000000000000046c .L0 
GAS LISTING /tmp/cc8OAIEG.s 			page 104


     /tmp/cc8OAIEG.s:653    .text:0000000000000470 .L0 
     /tmp/cc8OAIEG.s:659    .text:0000000000000470 _ZN5RiscV10popSppSpieEv
     /tmp/cc8OAIEG.s:662    .text:0000000000000470 .L0 
     /tmp/cc8OAIEG.s:663    .text:0000000000000470 .L0 
     /tmp/cc8OAIEG.s:664    .text:0000000000000474 .L0 
     /tmp/cc8OAIEG.s:666    .text:0000000000000478 .L0 
     /tmp/cc8OAIEG.s:668    .text:000000000000047c .L0 
     /tmp/cc8OAIEG.s:670    .text:000000000000047c .L0 
src/kernel/riscv.cpp:117    .text:000000000000047c .L0 
     /tmp/cc8OAIEG.s:676    .text:0000000000000480 .L0 
src/kernel/riscv.cpp:118    .text:0000000000000480 .L0 
     /tmp/cc8OAIEG.s:682    .text:0000000000000484 .L0 
     /tmp/cc8OAIEG.s:683    .text:0000000000000488 .L0 
     /tmp/cc8OAIEG.s:684    .text:0000000000000488 .L0 
     /tmp/cc8OAIEG.s:686    .text:000000000000048c .L0 
     /tmp/cc8OAIEG.s:688    .text:0000000000000490 .L0 
     /tmp/cc8OAIEG.s:694    .text:0000000000000490 _ZN5RiscV11popSppSpie2Ev
     /tmp/cc8OAIEG.s:697    .text:0000000000000490 .L0 
     /tmp/cc8OAIEG.s:698    .text:0000000000000490 .L0 
     /tmp/cc8OAIEG.s:699    .text:0000000000000494 .L0 
     /tmp/cc8OAIEG.s:701    .text:0000000000000498 .L0 
     /tmp/cc8OAIEG.s:703    .text:000000000000049c .L0 
     /tmp/cc8OAIEG.s:706    .text:000000000000049c .L0 
     /tmp/cc8OAIEG.s:707    .text:000000000000049c .L0 
     /tmp/cc8OAIEG.s:708    .text:000000000000049c .L0 
     /tmp/cc8OAIEG.s:712    .text:00000000000004ac .L0 
     /tmp/cc8OAIEG.s:715    .text:00000000000004b4 .L0 
     /tmp/cc8OAIEG.s:716    .text:00000000000004b4 .L0 
     /tmp/cc8OAIEG.s:719    .text:00000000000004bc .L0 
src/kernel/riscv.cpp:128    .text:00000000000004bc .L0 
     /tmp/cc8OAIEG.s:728    .text:00000000000004c0 .L0 
src/kernel/riscv.cpp:130    .text:00000000000004c0 .L0 
     /tmp/cc8OAIEG.s:735    .text:00000000000004c4 .L0 
     /tmp/cc8OAIEG.s:736    .text:00000000000004c8 .L0 
     /tmp/cc8OAIEG.s:737    .text:00000000000004c8 .L0 
     /tmp/cc8OAIEG.s:738    .text:00000000000004c8 .L0 
     /tmp/cc8OAIEG.s:740    .text:00000000000004cc .L0 
     /tmp/cc8OAIEG.s:744    .text:00000000000004d0 .L0 
     /tmp/cc8OAIEG.s:746    .text:00000000000004d0 .L0 
src/kernel/riscv.cpp:124    .text:00000000000004d0 .L0 
     /tmp/cc8OAIEG.s:753    .text:00000000000004d8 .L0 
     /tmp/cc8OAIEG.s:759    .text:00000000000004d8 _ZN5RiscV28executeThreadDispatchSyscallEv
     /tmp/cc8OAIEG.s:762    .text:00000000000004d8 .L0 
     /tmp/cc8OAIEG.s:763    .text:00000000000004d8 .L0 
     /tmp/cc8OAIEG.s:764    .text:00000000000004dc .L0 
     /tmp/cc8OAIEG.s:767    .text:00000000000004e4 .L0 
     /tmp/cc8OAIEG.s:768    .text:00000000000004e4 .L0 
     /tmp/cc8OAIEG.s:770    .text:00000000000004e8 .L0 
     /tmp/cc8OAIEG.s:772    .text:00000000000004e8 .L0 
     /tmp/cc8OAIEG.s:773    .text:00000000000004e8 .L0 
     /tmp/cc8OAIEG.s:777    .text:00000000000004f4 .L0 
     /tmp/cc8OAIEG.s:778    .text:00000000000004f4 .L0 
     /tmp/cc8OAIEG.s:781    .text:00000000000004fc .L0 
     /tmp/cc8OAIEG.s:782    .text:00000000000004fc .L0 
     /tmp/cc8OAIEG.s:785    .text:0000000000000504 .L0 
     /tmp/cc8OAIEG.s:786    .text:0000000000000508 .L0 
     /tmp/cc8OAIEG.s:788    .text:000000000000050c .L0 
GAS LISTING /tmp/cc8OAIEG.s 			page 105


     /tmp/cc8OAIEG.s:789    .text:000000000000050c .L0 
     /tmp/cc8OAIEG.s:791    .text:0000000000000510 .L0 
     /tmp/cc8OAIEG.s:793    .text:0000000000000514 .L0 
     /tmp/cc8OAIEG.s:799    .text:0000000000000514 _ZN5RiscV18executePutcSyscallEv
     /tmp/cc8OAIEG.s:802    .text:0000000000000514 .L0 
     /tmp/cc8OAIEG.s:803    .text:0000000000000514 .L0 
     /tmp/cc8OAIEG.s:804    .text:0000000000000518 .L0 
     /tmp/cc8OAIEG.s:807    .text:0000000000000520 .L0 
     /tmp/cc8OAIEG.s:808    .text:0000000000000520 .L0 
     /tmp/cc8OAIEG.s:810    .text:0000000000000524 .L0 
     /tmp/cc8OAIEG.s:812    .text:0000000000000524 .L0 
     /tmp/cc8OAIEG.s:813    .text:0000000000000524 .L0 
     /tmp/cc8OAIEG.s:815    .text:000000000000052c .L0 
     /tmp/cc8OAIEG.s:817    .text:0000000000000530 .L0 
     /tmp/cc8OAIEG.s:818    .text:0000000000000530 .L0 
     /tmp/cc8OAIEG.s:824    .text:0000000000000544 .L0 
     /tmp/cc8OAIEG.s:825    .text:0000000000000544 .L0 
src/kernel/riscv.cpp:595    .text:0000000000000544 .L0 
     /tmp/cc8OAIEG.s:832    .text:0000000000000548 .L0 
     /tmp/cc8OAIEG.s:834    .text:0000000000000548 .L0 
     /tmp/cc8OAIEG.s:838    .text:0000000000000554 .L0 
     /tmp/cc8OAIEG.s:839    .text:0000000000000558 .L0 
     /tmp/cc8OAIEG.s:841    .text:000000000000055c .L0 
     /tmp/cc8OAIEG.s:842    .text:000000000000055c .L0 
     /tmp/cc8OAIEG.s:844    .text:0000000000000560 .L0 
     /tmp/cc8OAIEG.s:846    .text:0000000000000564 .L0 
     /tmp/cc8OAIEG.s:852    .text:0000000000000564 _ZN5RiscV11putcWrapperEPv
     /tmp/cc8OAIEG.s:855    .text:0000000000000564 .L0 
     /tmp/cc8OAIEG.s:857    .text:0000000000000564 .L0 
     /tmp/cc8OAIEG.s:858    .text:0000000000000568 .L0 
     /tmp/cc8OAIEG.s:861    .text:0000000000000570 .L0 
     /tmp/cc8OAIEG.s:862    .text:0000000000000570 .L0 
     /tmp/cc8OAIEG.s:864    .text:0000000000000574 .L0 
     /tmp/cc8OAIEG.s:871    .text:0000000000000578 .L0 
     /tmp/cc8OAIEG.s:872    .text:0000000000000578 .L0 
     /tmp/cc8OAIEG.s:879    .text:0000000000000580 .L0 
     /tmp/cc8OAIEG.s:880    .text:0000000000000580 .L0 
     /tmp/cc8OAIEG.s:881    .text:0000000000000580 .L0 
     /tmp/cc8OAIEG.s:885    .text:000000000000058c .L0 
src/kernel/riscv.cpp:611    .text:000000000000058c .L0 
     /tmp/cc8OAIEG.s:891    .text:0000000000000590 .L0 
src/kernel/riscv.cpp:612    .text:0000000000000590 .L0 
     /tmp/cc8OAIEG.s:896    .text:0000000000000594 .L0 
src/kernel/riscv.cpp:613    .text:0000000000000594 .L0 
     /tmp/cc8OAIEG.s:904    .text:0000000000000598 .L0 
     /tmp/cc8OAIEG.s:905    .text:0000000000000598 .L0 
     /tmp/cc8OAIEG.s:908    .text:000000000000059c .L0 
     /tmp/cc8OAIEG.s:911    .text:00000000000005a0 .L0 
     /tmp/cc8OAIEG.s:912    .text:00000000000005a0 .L0 
     /tmp/cc8OAIEG.s:915    .text:00000000000005a8 .L0 
     /tmp/cc8OAIEG.s:917    .text:00000000000005ac .L0 
     /tmp/cc8OAIEG.s:918    .text:00000000000005ac .L0 
     /tmp/cc8OAIEG.s:922    .text:00000000000005b8 .L0 
src/kernel/riscv.cpp:621    .text:00000000000005b8 .L0 
     /tmp/cc8OAIEG.s:928    .text:00000000000005bc .L0 
     /tmp/cc8OAIEG.s:930    .text:00000000000005bc .L0 
src/kernel/riscv.cpp:622    .text:00000000000005c0 .L0 
GAS LISTING /tmp/cc8OAIEG.s 			page 106


     /tmp/cc8OAIEG.s:938    .text:00000000000005c4 .L0 
src/kernel/riscv.cpp:623    .text:00000000000005c4 .L0 
     /tmp/cc8OAIEG.s:943    .text:00000000000005c8 .L0 
     /tmp/cc8OAIEG.s:945    .text:00000000000005c8 .L0 
     /tmp/cc8OAIEG.s:948    .text:00000000000005d4 .L0 
     /tmp/cc8OAIEG.s:950    .text:00000000000005d8 .L0 
     /tmp/cc8OAIEG.s:951    .text:00000000000005d8 .L0 
     /tmp/cc8OAIEG.s:958    .text:00000000000005ec .L0 
     /tmp/cc8OAIEG.s:964    .text:00000000000005ec _ZN5RiscV29jumpToDesignatedPrivilegeModeEv
     /tmp/cc8OAIEG.s:967    .text:00000000000005ec .L0 
     /tmp/cc8OAIEG.s:968    .text:00000000000005ec .L0 
     /tmp/cc8OAIEG.s:969    .text:00000000000005f0 .L0 
     /tmp/cc8OAIEG.s:971    .text:00000000000005f4 .L0 
     /tmp/cc8OAIEG.s:973    .text:00000000000005f8 .L0 
     /tmp/cc8OAIEG.s:975    .text:00000000000005f8 .L0 
     /tmp/cc8OAIEG.s:976    .text:00000000000005f8 .L0 
     /tmp/cc8OAIEG.s:980    .text:0000000000000608 .L0 
     /tmp/cc8OAIEG.s:986    .text:0000000000000610 .L0 
     /tmp/cc8OAIEG.s:987    .text:0000000000000610 .L0 
     /tmp/cc8OAIEG.s:988    .text:0000000000000610 .L0 
     /tmp/cc8OAIEG.s:999    .text:0000000000000618 .L0 
     /tmp/cc8OAIEG.s:1000   .text:000000000000061c .L0 
     /tmp/cc8OAIEG.s:1001   .text:000000000000061c .L0 
     /tmp/cc8OAIEG.s:1002   .text:000000000000061c .L0 
     /tmp/cc8OAIEG.s:1004   .text:0000000000000620 .L0 
     /tmp/cc8OAIEG.s:1007   .text:0000000000000624 .L0 
     /tmp/cc8OAIEG.s:1012   .text:0000000000000624 .L0 
     /tmp/cc8OAIEG.s:1013   .text:0000000000000624 .L0 
     /tmp/cc8OAIEG.s:1014   .text:0000000000000624 .L0 
     /tmp/cc8OAIEG.s:1021   .text:000000000000062c .L0 
     /tmp/cc8OAIEG.s:1024   .text:0000000000000630 .L0 
     /tmp/cc8OAIEG.s:1030   .text:0000000000000630 _ZN5RiscV8finalizeEv
     /tmp/cc8OAIEG.s:1033   .text:0000000000000630 .L0 
     /tmp/cc8OAIEG.s:1034   .text:0000000000000630 .L0 
     /tmp/cc8OAIEG.s:1035   .text:0000000000000634 .L0 
     /tmp/cc8OAIEG.s:1038   .text:000000000000063c .L0 
     /tmp/cc8OAIEG.s:1039   .text:000000000000063c .L0 
     /tmp/cc8OAIEG.s:1041   .text:0000000000000640 .L0 
     /tmp/cc8OAIEG.s:1043   .text:0000000000000640 .L0 
     /tmp/cc8OAIEG.s:1044   .text:0000000000000640 .L0 
     /tmp/cc8OAIEG.s:1047   .text:000000000000064c .L0 
     /tmp/cc8OAIEG.s:1048   .text:000000000000064c .L0 
     /tmp/cc8OAIEG.s:1051   .text:0000000000000658 .L0 
     /tmp/cc8OAIEG.s:1052   .text:0000000000000658 .L0 
     /tmp/cc8OAIEG.s:1057   .text:0000000000000664 .L0 
     /tmp/cc8OAIEG.s:1060   .text:0000000000000664 .L0 
     /tmp/cc8OAIEG.s:1067   .text:0000000000000664 .L0 
     /tmp/cc8OAIEG.s:1068   .text:0000000000000664 .L0 
     /tmp/cc8OAIEG.s:1069   .text:0000000000000664 .L0 
     /tmp/cc8OAIEG.s:1082   .text:000000000000066c .L0 
     /tmp/cc8OAIEG.s:1088   .text:000000000000066c .L0 
     /tmp/cc8OAIEG.s:1089   .text:000000000000066c .L0 
     /tmp/cc8OAIEG.s:1090   .text:000000000000066c .L0 
     /tmp/cc8OAIEG.s:1104   .text:0000000000000674 .L0 
     /tmp/cc8OAIEG.s:1105   .text:0000000000000674 .L0 
     /tmp/cc8OAIEG.s:1109   .text:0000000000000684 .L0 
     /tmp/cc8OAIEG.s:1110   .text:0000000000000684 .L0 
GAS LISTING /tmp/cc8OAIEG.s 			page 107


     /tmp/cc8OAIEG.s:1112   .text:0000000000000688 .L0 
     /tmp/cc8OAIEG.s:1115   .text:0000000000000694 .L0 
     /tmp/cc8OAIEG.s:1118   .text:0000000000000698 .L0 
     /tmp/cc8OAIEG.s:1119   .text:0000000000000698 .L0 
     /tmp/cc8OAIEG.s:1125   .text:00000000000006ac .L0 
     /tmp/cc8OAIEG.s:1126   .text:00000000000006ac .L0 
     /tmp/cc8OAIEG.s:1132   .text:00000000000006c8 .L0 
     /tmp/cc8OAIEG.s:1133   .text:00000000000006c8 .L0 
     /tmp/cc8OAIEG.s:1136   .text:00000000000006d0 .L0 
     /tmp/cc8OAIEG.s:1139   .text:00000000000006d4 .L0 
     /tmp/cc8OAIEG.s:1140   .text:00000000000006d8 .L0 
     /tmp/cc8OAIEG.s:1142   .text:00000000000006dc .L0 
     /tmp/cc8OAIEG.s:1143   .text:00000000000006dc .L0 
     /tmp/cc8OAIEG.s:1145   .text:00000000000006e0 .L0 
     /tmp/cc8OAIEG.s:1147   .text:00000000000006e4 .L0 
     /tmp/cc8OAIEG.s:1153   .text:00000000000006e4 _ZN5RiscV16saveA0toSscratchEv
     /tmp/cc8OAIEG.s:1156   .text:00000000000006e4 .L0 
     /tmp/cc8OAIEG.s:1157   .text:00000000000006e4 .L0 
     /tmp/cc8OAIEG.s:1158   .text:00000000000006e8 .L0 
     /tmp/cc8OAIEG.s:1160   .text:00000000000006ec .L0 
     /tmp/cc8OAIEG.s:1162   .text:00000000000006f0 .L0 
     /tmp/cc8OAIEG.s:1164   .text:00000000000006f0 .L0 
     /tmp/cc8OAIEG.s:1165   .text:00000000000006f0 .L0 
src/kernel/riscv.cpp:676    .text:00000000000006f0 .L0 
     /tmp/cc8OAIEG.s:1171   .text:00000000000006f4 .L0 
     /tmp/cc8OAIEG.s:1173   .text:00000000000006f4 .L0 
src/kernel/riscv.cpp:677    .text:0000000000000704 .L0 
     /tmp/cc8OAIEG.s:1182   .text:0000000000000708 .L0 
src/kernel/riscv.cpp:678    .text:0000000000000708 .L0 
     /tmp/cc8OAIEG.s:1187   .text:000000000000070c .L0 
src/kernel/riscv.cpp:679    .text:000000000000070c .L0 
     /tmp/cc8OAIEG.s:1193   .text:0000000000000710 .L0 
     /tmp/cc8OAIEG.s:1194   .text:0000000000000714 .L0 
     /tmp/cc8OAIEG.s:1195   .text:0000000000000714 .L0 
     /tmp/cc8OAIEG.s:1197   .text:0000000000000718 .L0 
     /tmp/cc8OAIEG.s:1199   .text:000000000000071c .L0 
     /tmp/cc8OAIEG.s:1205   .text:000000000000071c _ZN5RiscV22executeMemAllocSyscallEv
     /tmp/cc8OAIEG.s:1208   .text:000000000000071c .L0 
     /tmp/cc8OAIEG.s:1209   .text:000000000000071c .L0 
     /tmp/cc8OAIEG.s:1210   .text:0000000000000720 .L0 
     /tmp/cc8OAIEG.s:1213   .text:0000000000000728 .L0 
     /tmp/cc8OAIEG.s:1214   .text:0000000000000728 .L0 
     /tmp/cc8OAIEG.s:1216   .text:000000000000072c .L0 
     /tmp/cc8OAIEG.s:1218   .text:000000000000072c .L0 
     /tmp/cc8OAIEG.s:1219   .text:000000000000072c .L0 
src/kernel/riscv.cpp:293    .text:000000000000072c .L0 
     /tmp/cc8OAIEG.s:1226   .text:0000000000000730 .L0 
     /tmp/cc8OAIEG.s:1228   .text:0000000000000730 .L0 
     /tmp/cc8OAIEG.s:1231   .text:0000000000000738 .L0 
src/kernel/riscv.cpp:298    .text:0000000000000738 .L0 
     /tmp/cc8OAIEG.s:1237   .text:000000000000073c .L0 
     /tmp/cc8OAIEG.s:1239   .text:000000000000073c .L0 
     /tmp/cc8OAIEG.s:1242   .text:0000000000000744 .L0 
     /tmp/cc8OAIEG.s:1243   .text:0000000000000748 .L0 
     /tmp/cc8OAIEG.s:1245   .text:000000000000074c .L0 
     /tmp/cc8OAIEG.s:1246   .text:000000000000074c .L0 
     /tmp/cc8OAIEG.s:1248   .text:0000000000000750 .L0 
GAS LISTING /tmp/cc8OAIEG.s 			page 108


     /tmp/cc8OAIEG.s:1250   .text:0000000000000754 .L0 
     /tmp/cc8OAIEG.s:1256   .text:0000000000000754 _ZN5RiscV21executeMemFreeSyscallEv
     /tmp/cc8OAIEG.s:1259   .text:0000000000000754 .L0 
     /tmp/cc8OAIEG.s:1260   .text:0000000000000754 .L0 
     /tmp/cc8OAIEG.s:1261   .text:0000000000000758 .L0 
     /tmp/cc8OAIEG.s:1264   .text:0000000000000760 .L0 
     /tmp/cc8OAIEG.s:1265   .text:0000000000000760 .L0 
     /tmp/cc8OAIEG.s:1267   .text:0000000000000764 .L0 
     /tmp/cc8OAIEG.s:1269   .text:0000000000000764 .L0 
     /tmp/cc8OAIEG.s:1270   .text:0000000000000764 .L0 
     /tmp/cc8OAIEG.s:1274   .text:0000000000000774 .L0 
     /tmp/cc8OAIEG.s:1278   .text:0000000000000778 .L0 
src/kernel/riscv.cpp:318    .text:0000000000000778 .L0 
     /tmp/cc8OAIEG.s:1284   .text:000000000000077c .L0 
     /tmp/cc8OAIEG.s:1286   .text:000000000000077c .L0 
     /tmp/cc8OAIEG.s:1289   .text:0000000000000784 .L0 
     /tmp/cc8OAIEG.s:1290   .text:0000000000000788 .L0 
     /tmp/cc8OAIEG.s:1291   .text:0000000000000788 .L0 
     /tmp/cc8OAIEG.s:1293   .text:000000000000078c .L0 
     /tmp/cc8OAIEG.s:1294   .text:000000000000078c .L0 
     /tmp/cc8OAIEG.s:1296   .text:0000000000000790 .L0 
     /tmp/cc8OAIEG.s:1299   .text:0000000000000794 .L0 
     /tmp/cc8OAIEG.s:1301   .text:0000000000000794 .L0 
src/kernel/riscv.cpp:311    .text:0000000000000794 .L0 
     /tmp/cc8OAIEG.s:1308   .text:0000000000000798 .L0 
     /tmp/cc8OAIEG.s:1310   .text:0000000000000798 .L0 
     /tmp/cc8OAIEG.s:1313   .text:00000000000007a0 .L0 
     /tmp/cc8OAIEG.s:1314   .text:00000000000007a4 .L0 
     /tmp/cc8OAIEG.s:1320   .text:00000000000007a4 _ZN5RiscV26executeThreadCreateSyscallEv
     /tmp/cc8OAIEG.s:1323   .text:00000000000007a4 .L0 
     /tmp/cc8OAIEG.s:11578  .data.rel.local.DW.ref.__gxx_personality_v0:0000000000000000 DW.ref.__gxx_personality_v0
     /tmp/cc8OAIEG.s:1326   .text:00000000000007a4 .L0 
     /tmp/cc8OAIEG.s:1327   .text:00000000000007a8 .L0 
     /tmp/cc8OAIEG.s:1335   .text:00000000000007c4 .L0 
     /tmp/cc8OAIEG.s:1336   .text:00000000000007c4 .L0 
     /tmp/cc8OAIEG.s:1337   .text:00000000000007c4 .L0 
     /tmp/cc8OAIEG.s:1338   .text:00000000000007c4 .L0 
     /tmp/cc8OAIEG.s:1339   .text:00000000000007c4 .L0 
     /tmp/cc8OAIEG.s:1340   .text:00000000000007c4 .L0 
     /tmp/cc8OAIEG.s:1341   .text:00000000000007c4 .L0 
     /tmp/cc8OAIEG.s:1343   .text:00000000000007c8 .L0 
     /tmp/cc8OAIEG.s:1345   .text:00000000000007c8 .L0 
     /tmp/cc8OAIEG.s:1346   .text:00000000000007c8 .L0 
src/kernel/riscv.cpp:328    .text:00000000000007c8 .L0 
     /tmp/cc8OAIEG.s:1353   .text:00000000000007cc .L0 
src/kernel/riscv.cpp:329    .text:00000000000007cc .L0 
     /tmp/cc8OAIEG.s:1359   .text:00000000000007d0 .L0 
src/kernel/riscv.cpp:330    .text:00000000000007d0 .L0 
     /tmp/cc8OAIEG.s:1365   .text:00000000000007d4 .L0 
src/kernel/riscv.cpp:331    .text:00000000000007d4 .L0 
     /tmp/cc8OAIEG.s:1371   .text:00000000000007d8 .L0 
     /tmp/cc8OAIEG.s:1373   .text:00000000000007d8 .L0 
     /tmp/cc8OAIEG.s:1381   .text:00000000000007ec .L0 
     /tmp/cc8OAIEG.s:1391   .text:0000000000000804 .L0 
     /tmp/cc8OAIEG.s:1392   .text:0000000000000804 .L0 
     /tmp/cc8OAIEG.s:1394   .text:0000000000000808 .L0 
     /tmp/cc8OAIEG.s:1395   .text:0000000000000808 .L0 
GAS LISTING /tmp/cc8OAIEG.s 			page 109


     /tmp/cc8OAIEG.s:1397   .text:000000000000080c .L0 
     /tmp/cc8OAIEG.s:1399   .text:0000000000000810 .L0 
     /tmp/cc8OAIEG.s:1400   .text:0000000000000810 .L0 
     /tmp/cc8OAIEG.s:1407   .text:000000000000081c .L0 
     /tmp/cc8OAIEG.s:1408   .text:000000000000081c .L0 
     /tmp/cc8OAIEG.s:1410   .text:0000000000000820 .L0 
     /tmp/cc8OAIEG.s:1414   .text:0000000000000824 .L0 
src/kernel/riscv.cpp:348    .text:0000000000000824 .L0 
     /tmp/cc8OAIEG.s:1420   .text:0000000000000828 .L0 
     /tmp/cc8OAIEG.s:1422   .text:0000000000000828 .L0 
     /tmp/cc8OAIEG.s:1425   .text:0000000000000830 .L0 
     /tmp/cc8OAIEG.s:1426   .text:0000000000000834 .L0 
     /tmp/cc8OAIEG.s:1427   .text:0000000000000834 .L0 
     /tmp/cc8OAIEG.s:1429   .text:0000000000000838 .L0 
     /tmp/cc8OAIEG.s:1430   .text:0000000000000838 .L0 
     /tmp/cc8OAIEG.s:1432   .text:000000000000083c .L0 
     /tmp/cc8OAIEG.s:1435   .text:0000000000000840 .L0 
     /tmp/cc8OAIEG.s:1438   .text:0000000000000844 .L0 
     /tmp/cc8OAIEG.s:1441   .text:0000000000000848 .L0 
     /tmp/cc8OAIEG.s:1444   .text:000000000000084c .L0 
     /tmp/cc8OAIEG.s:1447   .text:0000000000000850 .L0 
     /tmp/cc8OAIEG.s:1451   .text:0000000000000854 .L0 
     /tmp/cc8OAIEG.s:1453   .text:0000000000000854 .L0 
     /tmp/cc8OAIEG.s:1460   .text:0000000000000860 .L0 
     /tmp/cc8OAIEG.s:1468   .text:0000000000000878 .L0 
     /tmp/cc8OAIEG.s:1498   .text:0000000000000878 _ZN5RiscV30executeThreadAttachBodySyscallEv
     /tmp/cc8OAIEG.s:1501   .text:0000000000000878 .L0 
     /tmp/cc8OAIEG.s:1504   .text:0000000000000878 .L0 
     /tmp/cc8OAIEG.s:1505   .text:000000000000087c .L0 
     /tmp/cc8OAIEG.s:1513   .text:0000000000000898 .L0 
     /tmp/cc8OAIEG.s:1514   .text:0000000000000898 .L0 
     /tmp/cc8OAIEG.s:1515   .text:0000000000000898 .L0 
     /tmp/cc8OAIEG.s:1516   .text:0000000000000898 .L0 
     /tmp/cc8OAIEG.s:1517   .text:0000000000000898 .L0 
     /tmp/cc8OAIEG.s:1518   .text:0000000000000898 .L0 
     /tmp/cc8OAIEG.s:1519   .text:0000000000000898 .L0 
     /tmp/cc8OAIEG.s:1521   .text:000000000000089c .L0 
     /tmp/cc8OAIEG.s:1523   .text:000000000000089c .L0 
     /tmp/cc8OAIEG.s:1524   .text:000000000000089c .L0 
src/kernel/riscv.cpp:359    .text:000000000000089c .L0 
     /tmp/cc8OAIEG.s:1531   .text:00000000000008a0 .L0 
src/kernel/riscv.cpp:360    .text:00000000000008a0 .L0 
     /tmp/cc8OAIEG.s:1537   .text:00000000000008a4 .L0 
src/kernel/riscv.cpp:361    .text:00000000000008a4 .L0 
     /tmp/cc8OAIEG.s:1543   .text:00000000000008a8 .L0 
src/kernel/riscv.cpp:362    .text:00000000000008a8 .L0 
     /tmp/cc8OAIEG.s:1549   .text:00000000000008ac .L0 
     /tmp/cc8OAIEG.s:1551   .text:00000000000008ac .L0 
     /tmp/cc8OAIEG.s:1559   .text:00000000000008c0 .L0 
     /tmp/cc8OAIEG.s:1569   .text:00000000000008d8 .L0 
     /tmp/cc8OAIEG.s:1570   .text:00000000000008d8 .L0 
     /tmp/cc8OAIEG.s:1572   .text:00000000000008dc .L0 
     /tmp/cc8OAIEG.s:1573   .text:00000000000008dc .L0 
     /tmp/cc8OAIEG.s:1575   .text:00000000000008e0 .L0 
     /tmp/cc8OAIEG.s:1576   .text:00000000000008e0 .L0 
     /tmp/cc8OAIEG.s:1578   .text:00000000000008e4 .L0 
     /tmp/cc8OAIEG.s:1579   .text:00000000000008e4 .L0 
GAS LISTING /tmp/cc8OAIEG.s 			page 110


     /tmp/cc8OAIEG.s:1581   .text:00000000000008e8 .L0 
     /tmp/cc8OAIEG.s:1585   .text:00000000000008ec .L0 
src/kernel/riscv.cpp:377    .text:00000000000008ec .L0 
     /tmp/cc8OAIEG.s:1591   .text:00000000000008f0 .L0 
     /tmp/cc8OAIEG.s:1593   .text:00000000000008f0 .L0 
     /tmp/cc8OAIEG.s:1596   .text:00000000000008f8 .L0 
     /tmp/cc8OAIEG.s:1597   .text:00000000000008fc .L0 
     /tmp/cc8OAIEG.s:1598   .text:00000000000008fc .L0 
     /tmp/cc8OAIEG.s:1600   .text:0000000000000900 .L0 
     /tmp/cc8OAIEG.s:1601   .text:0000000000000900 .L0 
     /tmp/cc8OAIEG.s:1603   .text:0000000000000904 .L0 
     /tmp/cc8OAIEG.s:1606   .text:0000000000000908 .L0 
     /tmp/cc8OAIEG.s:1609   .text:000000000000090c .L0 
     /tmp/cc8OAIEG.s:1612   .text:0000000000000910 .L0 
     /tmp/cc8OAIEG.s:1615   .text:0000000000000914 .L0 
     /tmp/cc8OAIEG.s:1618   .text:0000000000000918 .L0 
     /tmp/cc8OAIEG.s:1622   .text:000000000000091c .L0 
     /tmp/cc8OAIEG.s:1624   .text:000000000000091c .L0 
     /tmp/cc8OAIEG.s:1631   .text:0000000000000928 .L0 
     /tmp/cc8OAIEG.s:1639   .text:0000000000000940 .L0 
     /tmp/cc8OAIEG.s:1664   .text:0000000000000940 _ZN5RiscV25executeThreadStartSyscallEv
     /tmp/cc8OAIEG.s:1667   .text:0000000000000940 .L0 
     /tmp/cc8OAIEG.s:1668   .text:0000000000000940 .L0 
     /tmp/cc8OAIEG.s:1669   .text:0000000000000944 .L0 
     /tmp/cc8OAIEG.s:1672   .text:000000000000094c .L0 
     /tmp/cc8OAIEG.s:1673   .text:000000000000094c .L0 
     /tmp/cc8OAIEG.s:1675   .text:0000000000000950 .L0 
     /tmp/cc8OAIEG.s:1677   .text:0000000000000950 .L0 
     /tmp/cc8OAIEG.s:1678   .text:0000000000000950 .L0 
src/kernel/riscv.cpp:387    .text:0000000000000950 .L0 
     /tmp/cc8OAIEG.s:1685   .text:0000000000000954 .L0 
     /tmp/cc8OAIEG.s:1686   .text:0000000000000954 .L0 
     /tmp/cc8OAIEG.s:1688   .text:0000000000000954 .L0 
     /tmp/cc8OAIEG.s:1690   .text:0000000000000958 .L0 
     /tmp/cc8OAIEG.s:1694   .text:000000000000095c .L0 
src/kernel/riscv.cpp:404    .text:000000000000095c .L0 
     /tmp/cc8OAIEG.s:1700   .text:0000000000000960 .L0 
     /tmp/cc8OAIEG.s:1702   .text:0000000000000960 .L0 
     /tmp/cc8OAIEG.s:1705   .text:0000000000000968 .L0 
     /tmp/cc8OAIEG.s:1706   .text:000000000000096c .L0 
     /tmp/cc8OAIEG.s:1707   .text:000000000000096c .L0 
     /tmp/cc8OAIEG.s:1709   .text:0000000000000970 .L0 
     /tmp/cc8OAIEG.s:1710   .text:0000000000000970 .L0 
     /tmp/cc8OAIEG.s:1712   .text:0000000000000974 .L0 
     /tmp/cc8OAIEG.s:1716   .text:0000000000000978 .L0 
     /tmp/cc8OAIEG.s:1718   .text:0000000000000978 .L0 
     /tmp/cc8OAIEG.s:1719   .text:0000000000000978 .L0 
     /tmp/cc8OAIEG.s:1722   .text:0000000000000980 .L0 
     /tmp/cc8OAIEG.s:1723   .text:0000000000000980 .L0 
     /tmp/cc8OAIEG.s:1726   .text:0000000000000988 .L0 
     /tmp/cc8OAIEG.s:1727   .text:0000000000000988 .L0 
     /tmp/cc8OAIEG.s:1730   .text:0000000000000990 .L0 
     /tmp/cc8OAIEG.s:1732   .text:0000000000000998 .L0 
     /tmp/cc8OAIEG.s:1738   .text:0000000000000998 _ZN5RiscV24executeThreadExitSyscallEv
     /tmp/cc8OAIEG.s:1741   .text:0000000000000998 .L0 
     /tmp/cc8OAIEG.s:1742   .text:0000000000000998 .L0 
     /tmp/cc8OAIEG.s:1743   .text:000000000000099c .L0 
GAS LISTING /tmp/cc8OAIEG.s 			page 111


     /tmp/cc8OAIEG.s:1746   .text:00000000000009a4 .L0 
     /tmp/cc8OAIEG.s:1747   .text:00000000000009a4 .L0 
     /tmp/cc8OAIEG.s:1749   .text:00000000000009a8 .L0 
     /tmp/cc8OAIEG.s:1752   .text:00000000000009a8 .L0 
     /tmp/cc8OAIEG.s:1754   .text:00000000000009a8 .L0 
     /tmp/cc8OAIEG.s:1755   .text:00000000000009a8 .L0 
     /tmp/cc8OAIEG.s:1758   .text:00000000000009b4 .L0 
     /tmp/cc8OAIEG.s:1762   .text:00000000000009b8 .L0 
     /tmp/cc8OAIEG.s:1763   .text:00000000000009b8 .L0 
     /tmp/cc8OAIEG.s:1764   .text:00000000000009b8 .L0 
     /tmp/cc8OAIEG.s:1767   .text:00000000000009c0 .L0 
     /tmp/cc8OAIEG.s:1768   .text:00000000000009c0 .L0 
     /tmp/cc8OAIEG.s:1773   .text:00000000000009c8 .L0 
     /tmp/cc8OAIEG.s:1777   .text:00000000000009cc .L0 
src/kernel/riscv.cpp:424    .text:00000000000009cc .L0 
     /tmp/cc8OAIEG.s:1783   .text:00000000000009d0 .L0 
     /tmp/cc8OAIEG.s:1785   .text:00000000000009d0 .L0 
     /tmp/cc8OAIEG.s:1788   .text:00000000000009d8 .L0 
     /tmp/cc8OAIEG.s:1789   .text:00000000000009dc .L0 
     /tmp/cc8OAIEG.s:1790   .text:00000000000009dc .L0 
     /tmp/cc8OAIEG.s:1792   .text:00000000000009e0 .L0 
     /tmp/cc8OAIEG.s:1793   .text:00000000000009e0 .L0 
     /tmp/cc8OAIEG.s:1795   .text:00000000000009e4 .L0 
     /tmp/cc8OAIEG.s:1799   .text:00000000000009e8 .L0 
     /tmp/cc8OAIEG.s:1802   .text:00000000000009e8 .L0 
     /tmp/cc8OAIEG.s:1805   .text:00000000000009f0 .L0 
     /tmp/cc8OAIEG.s:1811   .text:00000000000009f0 _ZN5RiscV21executeSemOpenSyscallEv
     /tmp/cc8OAIEG.s:1814   .text:00000000000009f0 .L0 
     /tmp/cc8OAIEG.s:1817   .text:00000000000009f0 .L0 
     /tmp/cc8OAIEG.s:1818   .text:00000000000009f4 .L0 
     /tmp/cc8OAIEG.s:1824   .text:0000000000000a08 .L0 
     /tmp/cc8OAIEG.s:1825   .text:0000000000000a08 .L0 
     /tmp/cc8OAIEG.s:1826   .text:0000000000000a08 .L0 
     /tmp/cc8OAIEG.s:1827   .text:0000000000000a08 .L0 
     /tmp/cc8OAIEG.s:1828   .text:0000000000000a08 .L0 
     /tmp/cc8OAIEG.s:1830   .text:0000000000000a0c .L0 
     /tmp/cc8OAIEG.s:1832   .text:0000000000000a0c .L0 
     /tmp/cc8OAIEG.s:1833   .text:0000000000000a0c .L0 
src/kernel/riscv.cpp:442    .text:0000000000000a0c .L0 
     /tmp/cc8OAIEG.s:1840   .text:0000000000000a10 .L0 
src/kernel/riscv.cpp:443    .text:0000000000000a10 .L0 
     /tmp/cc8OAIEG.s:1846   .text:0000000000000a14 .L0 
     /tmp/cc8OAIEG.s:1848   .text:0000000000000a14 .L0 
     /tmp/cc8OAIEG.s:1856   .text:0000000000000a28 .L0 
     /tmp/cc8OAIEG.s:1863   .text:0000000000000a34 .L0 
     /tmp/cc8OAIEG.s:1864   .text:0000000000000a34 .L0 
     /tmp/cc8OAIEG.s:1866   .text:0000000000000a38 .L0 
     /tmp/cc8OAIEG.s:1867   .text:0000000000000a38 .L0 
     /tmp/cc8OAIEG.s:1869   .text:0000000000000a3c .L0 
     /tmp/cc8OAIEG.s:1873   .text:0000000000000a40 .L0 
src/kernel/riscv.cpp:458    .text:0000000000000a40 .L0 
     /tmp/cc8OAIEG.s:1879   .text:0000000000000a44 .L0 
     /tmp/cc8OAIEG.s:1881   .text:0000000000000a44 .L0 
     /tmp/cc8OAIEG.s:1884   .text:0000000000000a4c .L0 
     /tmp/cc8OAIEG.s:1885   .text:0000000000000a50 .L0 
     /tmp/cc8OAIEG.s:1886   .text:0000000000000a50 .L0 
     /tmp/cc8OAIEG.s:1888   .text:0000000000000a54 .L0 
GAS LISTING /tmp/cc8OAIEG.s 			page 112


     /tmp/cc8OAIEG.s:1889   .text:0000000000000a54 .L0 
     /tmp/cc8OAIEG.s:1891   .text:0000000000000a58 .L0 
     /tmp/cc8OAIEG.s:1894   .text:0000000000000a5c .L0 
     /tmp/cc8OAIEG.s:1897   .text:0000000000000a60 .L0 
     /tmp/cc8OAIEG.s:1900   .text:0000000000000a64 .L0 
     /tmp/cc8OAIEG.s:1904   .text:0000000000000a68 .L0 
     /tmp/cc8OAIEG.s:1906   .text:0000000000000a68 .L0 
     /tmp/cc8OAIEG.s:1913   .text:0000000000000a74 .L0 
     /tmp/cc8OAIEG.s:1921   .text:0000000000000a8c .L0 
     /tmp/cc8OAIEG.s:1946   .text:0000000000000a8c _ZN5RiscV22executeSemCloseSyscallEv
     /tmp/cc8OAIEG.s:1949   .text:0000000000000a8c .L0 
     /tmp/cc8OAIEG.s:1950   .text:0000000000000a8c .L0 
     /tmp/cc8OAIEG.s:1951   .text:0000000000000a90 .L0 
     /tmp/cc8OAIEG.s:1955   .text:0000000000000a9c .L0 
     /tmp/cc8OAIEG.s:1956   .text:0000000000000a9c .L0 
     /tmp/cc8OAIEG.s:1957   .text:0000000000000a9c .L0 
     /tmp/cc8OAIEG.s:1959   .text:0000000000000aa0 .L0 
     /tmp/cc8OAIEG.s:1961   .text:0000000000000aa0 .L0 
     /tmp/cc8OAIEG.s:1962   .text:0000000000000aa0 .L0 
src/kernel/riscv.cpp:469    .text:0000000000000aa0 .L0 
     /tmp/cc8OAIEG.s:1969   .text:0000000000000aa4 .L0 
     /tmp/cc8OAIEG.s:1970   .text:0000000000000aa4 .L0 
     /tmp/cc8OAIEG.s:1972   .text:0000000000000aa4 .L0 
     /tmp/cc8OAIEG.s:1974   .text:0000000000000aa8 .L0 
     /tmp/cc8OAIEG.s:1978   .text:0000000000000aac .L0 
src/kernel/riscv.cpp:482    .text:0000000000000aac .L0 
     /tmp/cc8OAIEG.s:1984   .text:0000000000000ab0 .L0 
     /tmp/cc8OAIEG.s:1986   .text:0000000000000ab0 .L0 
     /tmp/cc8OAIEG.s:1989   .text:0000000000000ab8 .L0 
     /tmp/cc8OAIEG.s:1990   .text:0000000000000abc .L0 
     /tmp/cc8OAIEG.s:1991   .text:0000000000000abc .L0 
     /tmp/cc8OAIEG.s:1993   .text:0000000000000ac0 .L0 
     /tmp/cc8OAIEG.s:1994   .text:0000000000000ac0 .L0 
     /tmp/cc8OAIEG.s:1996   .text:0000000000000ac4 .L0 
     /tmp/cc8OAIEG.s:1999   .text:0000000000000ac8 .L0 
     /tmp/cc8OAIEG.s:2003   .text:0000000000000acc .L0 
     /tmp/cc8OAIEG.s:2005   .text:0000000000000acc .L0 
     /tmp/cc8OAIEG.s:2006   .text:0000000000000acc .L0 
     /tmp/cc8OAIEG.s:2013   .text:0000000000000ae4 .L0 
     /tmp/cc8OAIEG.s:2015   .text:0000000000000aec .L0 
     /tmp/cc8OAIEG.s:2021   .text:0000000000000aec _ZN5RiscV21executeSemWaitSyscallEv
     /tmp/cc8OAIEG.s:2024   .text:0000000000000aec .L0 
     /tmp/cc8OAIEG.s:2025   .text:0000000000000aec .L0 
     /tmp/cc8OAIEG.s:2026   .text:0000000000000af0 .L0 
     /tmp/cc8OAIEG.s:2029   .text:0000000000000af8 .L0 
     /tmp/cc8OAIEG.s:2030   .text:0000000000000af8 .L0 
     /tmp/cc8OAIEG.s:2032   .text:0000000000000afc .L0 
     /tmp/cc8OAIEG.s:2034   .text:0000000000000afc .L0 
     /tmp/cc8OAIEG.s:2035   .text:0000000000000afc .L0 
src/kernel/riscv.cpp:492    .text:0000000000000afc .L0 
     /tmp/cc8OAIEG.s:2042   .text:0000000000000b00 .L0 
     /tmp/cc8OAIEG.s:2044   .text:0000000000000b00 .L0 
     /tmp/cc8OAIEG.s:2048   .text:0000000000000b04 .L0 
     /tmp/cc8OAIEG.s:2049   .text:0000000000000b04 .L0 
     /tmp/cc8OAIEG.s:2053   .text:0000000000000b14 .L0 
     /tmp/cc8OAIEG.s:2055   .text:0000000000000b18 .L0 
     /tmp/cc8OAIEG.s:2059   .text:0000000000000b1c .L0 
GAS LISTING /tmp/cc8OAIEG.s 			page 113


src/kernel/riscv.cpp:508    .text:0000000000000b1c .L0 
     /tmp/cc8OAIEG.s:2065   .text:0000000000000b20 .L0 
     /tmp/cc8OAIEG.s:2067   .text:0000000000000b20 .L0 
     /tmp/cc8OAIEG.s:2070   .text:0000000000000b28 .L0 
     /tmp/cc8OAIEG.s:2071   .text:0000000000000b2c .L0 
     /tmp/cc8OAIEG.s:2072   .text:0000000000000b2c .L0 
     /tmp/cc8OAIEG.s:2074   .text:0000000000000b30 .L0 
     /tmp/cc8OAIEG.s:2075   .text:0000000000000b30 .L0 
     /tmp/cc8OAIEG.s:2077   .text:0000000000000b34 .L0 
     /tmp/cc8OAIEG.s:2081   .text:0000000000000b38 .L0 
     /tmp/cc8OAIEG.s:2083   .text:0000000000000b38 .L0 
     /tmp/cc8OAIEG.s:2084   .text:0000000000000b38 .L0 
     /tmp/cc8OAIEG.s:2090   .text:0000000000000b44 .L0 
     /tmp/cc8OAIEG.s:2092   .text:0000000000000b4c .L0 
     /tmp/cc8OAIEG.s:2098   .text:0000000000000b4c _ZN5RiscV23executeSemSignalSyscallEv
     /tmp/cc8OAIEG.s:2101   .text:0000000000000b4c .L0 
     /tmp/cc8OAIEG.s:2102   .text:0000000000000b4c .L0 
     /tmp/cc8OAIEG.s:2103   .text:0000000000000b50 .L0 
     /tmp/cc8OAIEG.s:2106   .text:0000000000000b58 .L0 
     /tmp/cc8OAIEG.s:2107   .text:0000000000000b58 .L0 
     /tmp/cc8OAIEG.s:2109   .text:0000000000000b5c .L0 
     /tmp/cc8OAIEG.s:2111   .text:0000000000000b5c .L0 
     /tmp/cc8OAIEG.s:2112   .text:0000000000000b5c .L0 
src/kernel/riscv.cpp:519    .text:0000000000000b5c .L0 
     /tmp/cc8OAIEG.s:2119   .text:0000000000000b60 .L0 
     /tmp/cc8OAIEG.s:2121   .text:0000000000000b60 .L0 
     /tmp/cc8OAIEG.s:2123   .text:0000000000000b64 .L0 
     /tmp/cc8OAIEG.s:2127   .text:0000000000000b68 .L0 
src/kernel/riscv.cpp:531    .text:0000000000000b68 .L0 
     /tmp/cc8OAIEG.s:2133   .text:0000000000000b6c .L0 
     /tmp/cc8OAIEG.s:2135   .text:0000000000000b6c .L0 
     /tmp/cc8OAIEG.s:2138   .text:0000000000000b74 .L0 
     /tmp/cc8OAIEG.s:2139   .text:0000000000000b78 .L0 
     /tmp/cc8OAIEG.s:2140   .text:0000000000000b78 .L0 
     /tmp/cc8OAIEG.s:2142   .text:0000000000000b7c .L0 
     /tmp/cc8OAIEG.s:2143   .text:0000000000000b7c .L0 
     /tmp/cc8OAIEG.s:2145   .text:0000000000000b80 .L0 
     /tmp/cc8OAIEG.s:2149   .text:0000000000000b84 .L0 
     /tmp/cc8OAIEG.s:2151   .text:0000000000000b84 .L0 
     /tmp/cc8OAIEG.s:2152   .text:0000000000000b84 .L0 
     /tmp/cc8OAIEG.s:2155   .text:0000000000000b8c .L0 
     /tmp/cc8OAIEG.s:2157   .text:0000000000000b94 .L0 
     /tmp/cc8OAIEG.s:2163   .text:0000000000000b94 _ZN5RiscV23executeTimeSleepSyscallEv
     /tmp/cc8OAIEG.s:2166   .text:0000000000000b94 .L0 
     /tmp/cc8OAIEG.s:2167   .text:0000000000000b94 .L0 
     /tmp/cc8OAIEG.s:2168   .text:0000000000000b98 .L0 
     /tmp/cc8OAIEG.s:2172   .text:0000000000000ba4 .L0 
     /tmp/cc8OAIEG.s:2173   .text:0000000000000ba4 .L0 
     /tmp/cc8OAIEG.s:2174   .text:0000000000000ba4 .L0 
     /tmp/cc8OAIEG.s:2176   .text:0000000000000ba8 .L0 
     /tmp/cc8OAIEG.s:2178   .text:0000000000000ba8 .L0 
     /tmp/cc8OAIEG.s:2179   .text:0000000000000ba8 .L0 
src/kernel/riscv.cpp:541    .text:0000000000000ba8 .L0 
     /tmp/cc8OAIEG.s:2185   .text:0000000000000bac .L0 
     /tmp/cc8OAIEG.s:2187   .text:0000000000000bac .L0 
     /tmp/cc8OAIEG.s:2191   .text:0000000000000bb8 .L0 
     /tmp/cc8OAIEG.s:2192   .text:0000000000000bb8 .L0 
GAS LISTING /tmp/cc8OAIEG.s 			page 114


     /tmp/cc8OAIEG.s:2195   .text:0000000000000bc4 .L0 
     /tmp/cc8OAIEG.s:2196   .text:0000000000000bc4 .L0 
     /tmp/cc8OAIEG.s:2198   .text:0000000000000bc8 .L0 
     /tmp/cc8OAIEG.s:2200   .text:0000000000000bcc .L0 
     /tmp/cc8OAIEG.s:2201   .text:0000000000000bcc .L0 
     /tmp/cc8OAIEG.s:2205   .text:0000000000000bd8 .L0 
     /tmp/cc8OAIEG.s:2206   .text:0000000000000bd8 .L0 
     /tmp/cc8OAIEG.s:2209   .text:0000000000000be0 .L0 
     /tmp/cc8OAIEG.s:2210   .text:0000000000000be0 .L0 
     /tmp/cc8OAIEG.s:2213   .text:0000000000000be8 .L0 
     /tmp/cc8OAIEG.s:2214   .text:0000000000000be8 .L0 
     /tmp/cc8OAIEG.s:2215   .text:0000000000000be8 .L0 
     /tmp/cc8OAIEG.s:2221   .text:0000000000000bf0 .L0 
     /tmp/cc8OAIEG.s:2223   .text:0000000000000bf0 .L0 
     /tmp/cc8OAIEG.s:2226   .text:0000000000000bf8 .L0 
     /tmp/cc8OAIEG.s:2227   .text:0000000000000bfc .L0 
     /tmp/cc8OAIEG.s:2229   .text:0000000000000c00 .L0 
     /tmp/cc8OAIEG.s:2230   .text:0000000000000c00 .L0 
     /tmp/cc8OAIEG.s:2232   .text:0000000000000c04 .L0 
     /tmp/cc8OAIEG.s:2235   .text:0000000000000c08 .L0 
     /tmp/cc8OAIEG.s:2237   .text:0000000000000c0c .L0 
     /tmp/cc8OAIEG.s:2243   .text:0000000000000c0c _ZN5RiscV18executeGetcSyscallEv
     /tmp/cc8OAIEG.s:2246   .text:0000000000000c0c .L0 
     /tmp/cc8OAIEG.s:2247   .text:0000000000000c0c .L0 
     /tmp/cc8OAIEG.s:2248   .text:0000000000000c10 .L0 
     /tmp/cc8OAIEG.s:2252   .text:0000000000000c1c .L0 
     /tmp/cc8OAIEG.s:2253   .text:0000000000000c1c .L0 
     /tmp/cc8OAIEG.s:2254   .text:0000000000000c1c .L0 
     /tmp/cc8OAIEG.s:2256   .text:0000000000000c20 .L0 
     /tmp/cc8OAIEG.s:2258   .text:0000000000000c20 .L0 
     /tmp/cc8OAIEG.s:2259   .text:0000000000000c20 .L0 
     /tmp/cc8OAIEG.s:2261   .text:0000000000000c28 .L0 
     /tmp/cc8OAIEG.s:2263   .text:0000000000000c2c .L0 
     /tmp/cc8OAIEG.s:2264   .text:0000000000000c2c .L0 
     /tmp/cc8OAIEG.s:2270   .text:0000000000000c40 .L0 
     /tmp/cc8OAIEG.s:2271   .text:0000000000000c40 .L0 
     /tmp/cc8OAIEG.s:2276   .text:0000000000000c4c .L0 
     /tmp/cc8OAIEG.s:2279   .text:0000000000000c54 .L0 
     /tmp/cc8OAIEG.s:2284   .text:0000000000000c5c .L0 
src/kernel/riscv.cpp:582    .text:0000000000000c5c .L0 
     /tmp/cc8OAIEG.s:2290   .text:0000000000000c60 .L0 
     /tmp/cc8OAIEG.s:2292   .text:0000000000000c60 .L0 
     /tmp/cc8OAIEG.s:2295   .text:0000000000000c68 .L0 
     /tmp/cc8OAIEG.s:2296   .text:0000000000000c6c .L0 
     /tmp/cc8OAIEG.s:2297   .text:0000000000000c6c .L0 
     /tmp/cc8OAIEG.s:2299   .text:0000000000000c70 .L0 
     /tmp/cc8OAIEG.s:2300   .text:0000000000000c70 .L0 
     /tmp/cc8OAIEG.s:2302   .text:0000000000000c74 .L0 
     /tmp/cc8OAIEG.s:2304   .text:0000000000000c78 .L0 
     /tmp/cc8OAIEG.s:2308   .text:0000000000000c7c .L0 
     /tmp/cc8OAIEG.s:2310   .text:0000000000000c7c .L0 
     /tmp/cc8OAIEG.s:2311   .text:0000000000000c7c .L0 
     /tmp/cc8OAIEG.s:2316   .text:0000000000000c88 .L0 
     /tmp/cc8OAIEG.s:2317   .text:0000000000000c88 .L0 
     /tmp/cc8OAIEG.s:2324   .text:0000000000000c98 .L0 
     /tmp/cc8OAIEG.s:2325   .text:0000000000000c98 .L0 
     /tmp/cc8OAIEG.s:2328   .text:0000000000000ca4 .L0 
GAS LISTING /tmp/cc8OAIEG.s 			page 115


     /tmp/cc8OAIEG.s:2334   .text:0000000000000ca4 _ZN5RiscV22executePutcUtilSyscallEv
     /tmp/cc8OAIEG.s:2337   .text:0000000000000ca4 .L0 
     /tmp/cc8OAIEG.s:2338   .text:0000000000000ca4 .L0 
     /tmp/cc8OAIEG.s:2339   .text:0000000000000ca8 .L0 
     /tmp/cc8OAIEG.s:2342   .text:0000000000000cb0 .L0 
     /tmp/cc8OAIEG.s:2343   .text:0000000000000cb0 .L0 
     /tmp/cc8OAIEG.s:2345   .text:0000000000000cb4 .L0 
     /tmp/cc8OAIEG.s:2347   .text:0000000000000cb4 .L0 
     /tmp/cc8OAIEG.s:2348   .text:0000000000000cb4 .L0 
     /tmp/cc8OAIEG.s:2351   .text:0000000000000cbc .L0 
src/kernel/riscv.cpp:638    .text:0000000000000cbc .L0 
     /tmp/cc8OAIEG.s:2357   .text:0000000000000cc0 .L0 
     /tmp/cc8OAIEG.s:2359   .text:0000000000000cc0 .L0 
     /tmp/cc8OAIEG.s:2362   .text:0000000000000cc8 .L0 
     /tmp/cc8OAIEG.s:2363   .text:0000000000000ccc .L0 
     /tmp/cc8OAIEG.s:2365   .text:0000000000000cd0 .L0 
     /tmp/cc8OAIEG.s:2366   .text:0000000000000cd0 .L0 
     /tmp/cc8OAIEG.s:2368   .text:0000000000000cd4 .L0 
     /tmp/cc8OAIEG.s:2370   .text:0000000000000cd8 .L0 
     /tmp/cc8OAIEG.s:2376   .text:0000000000000cd8 _ZN5RiscV24executeThreadFreeSyscallEv
     /tmp/cc8OAIEG.s:2379   .text:0000000000000cd8 .L0 
     /tmp/cc8OAIEG.s:2380   .text:0000000000000cd8 .L0 
     /tmp/cc8OAIEG.s:2381   .text:0000000000000cdc .L0 
     /tmp/cc8OAIEG.s:2385   .text:0000000000000ce8 .L0 
     /tmp/cc8OAIEG.s:2386   .text:0000000000000ce8 .L0 
     /tmp/cc8OAIEG.s:2387   .text:0000000000000ce8 .L0 
     /tmp/cc8OAIEG.s:2389   .text:0000000000000cec .L0 
     /tmp/cc8OAIEG.s:2391   .text:0000000000000cec .L0 
     /tmp/cc8OAIEG.s:2392   .text:0000000000000cec .L0 
src/kernel/riscv.cpp:686    .text:0000000000000cec .L0 
     /tmp/cc8OAIEG.s:2399   .text:0000000000000cf0 .L0 
     /tmp/cc8OAIEG.s:2401   .text:0000000000000cf0 .L0 
     /tmp/cc8OAIEG.s:2405   .text:0000000000000cf4 .L0 
     /tmp/cc8OAIEG.s:2406   .text:0000000000000cf4 .L0 
     /tmp/cc8OAIEG.s:2412   .text:0000000000000cfc .L0 
     /tmp/cc8OAIEG.s:2414   .text:0000000000000cfc .L0 
     /tmp/cc8OAIEG.s:2417   .text:0000000000000d04 .L0 
     /tmp/cc8OAIEG.s:2418   .text:0000000000000d08 .L0 
     /tmp/cc8OAIEG.s:2419   .text:0000000000000d08 .L0 
     /tmp/cc8OAIEG.s:2421   .text:0000000000000d0c .L0 
     /tmp/cc8OAIEG.s:2422   .text:0000000000000d0c .L0 
     /tmp/cc8OAIEG.s:2424   .text:0000000000000d10 .L0 
     /tmp/cc8OAIEG.s:2427   .text:0000000000000d14 .L0 
     /tmp/cc8OAIEG.s:2431   .text:0000000000000d18 .L0 
     /tmp/cc8OAIEG.s:2433   .text:0000000000000d18 .L0 
     /tmp/cc8OAIEG.s:2434   .text:0000000000000d18 .L0 
     /tmp/cc8OAIEG.s:2438   .text:0000000000000d24 .L0 
     /tmp/cc8OAIEG.s:2439   .text:0000000000000d24 .L0 
     /tmp/cc8OAIEG.s:2446   .text:0000000000000d40 .L0 
     /tmp/cc8OAIEG.s:2452   .text:0000000000000d40 _ZN5RiscV27executeSemaphoreFreeSyscallEv
     /tmp/cc8OAIEG.s:2455   .text:0000000000000d40 .L0 
     /tmp/cc8OAIEG.s:2456   .text:0000000000000d40 .L0 
     /tmp/cc8OAIEG.s:2457   .text:0000000000000d44 .L0 
     /tmp/cc8OAIEG.s:2461   .text:0000000000000d50 .L0 
     /tmp/cc8OAIEG.s:2462   .text:0000000000000d50 .L0 
     /tmp/cc8OAIEG.s:2463   .text:0000000000000d50 .L0 
     /tmp/cc8OAIEG.s:2465   .text:0000000000000d54 .L0 
GAS LISTING /tmp/cc8OAIEG.s 			page 116


     /tmp/cc8OAIEG.s:2467   .text:0000000000000d54 .L0 
     /tmp/cc8OAIEG.s:2468   .text:0000000000000d54 .L0 
src/kernel/riscv.cpp:708    .text:0000000000000d54 .L0 
     /tmp/cc8OAIEG.s:2475   .text:0000000000000d58 .L0 
     /tmp/cc8OAIEG.s:2477   .text:0000000000000d58 .L0 
     /tmp/cc8OAIEG.s:2481   .text:0000000000000d5c .L0 
     /tmp/cc8OAIEG.s:2482   .text:0000000000000d5c .L0 
     /tmp/cc8OAIEG.s:2488   .text:0000000000000d64 .L0 
     /tmp/cc8OAIEG.s:2490   .text:0000000000000d64 .L0 
     /tmp/cc8OAIEG.s:2493   .text:0000000000000d6c .L0 
     /tmp/cc8OAIEG.s:2494   .text:0000000000000d70 .L0 
     /tmp/cc8OAIEG.s:2495   .text:0000000000000d70 .L0 
     /tmp/cc8OAIEG.s:2497   .text:0000000000000d74 .L0 
     /tmp/cc8OAIEG.s:2498   .text:0000000000000d74 .L0 
     /tmp/cc8OAIEG.s:2500   .text:0000000000000d78 .L0 
     /tmp/cc8OAIEG.s:2503   .text:0000000000000d7c .L0 
     /tmp/cc8OAIEG.s:2507   .text:0000000000000d80 .L0 
     /tmp/cc8OAIEG.s:2509   .text:0000000000000d80 .L0 
     /tmp/cc8OAIEG.s:2510   .text:0000000000000d80 .L0 
     /tmp/cc8OAIEG.s:2517   .text:0000000000000d9c .L0 
     /tmp/cc8OAIEG.s:2523   .text:0000000000000d9c _ZN5RiscV18executeForkSyscallEv
     /tmp/cc8OAIEG.s:2526   .text:0000000000000d9c .L0 
     /tmp/cc8OAIEG.s:2529   .text:0000000000000d9c .L0 
     /tmp/cc8OAIEG.s:2530   .text:0000000000000da0 .L0 
     /tmp/cc8OAIEG.s:2535   .text:0000000000000db0 .L0 
     /tmp/cc8OAIEG.s:2536   .text:0000000000000db0 .L0 
     /tmp/cc8OAIEG.s:2537   .text:0000000000000db0 .L0 
     /tmp/cc8OAIEG.s:2538   .text:0000000000000db0 .L0 
     /tmp/cc8OAIEG.s:2540   .text:0000000000000db4 .L0 
     /tmp/cc8OAIEG.s:2542   .text:0000000000000db4 .L0 
     /tmp/cc8OAIEG.s:2543   .text:0000000000000db4 .L0 
     /tmp/cc8OAIEG.s:2550   .text:0000000000000dc4 .L0 
     /tmp/cc8OAIEG.s:2551   .text:0000000000000dc4 .L0 
     /tmp/cc8OAIEG.s:2560   .text:0000000000000de4 .L0 
     /tmp/cc8OAIEG.s:2561   .text:0000000000000de4 .L0 
     /tmp/cc8OAIEG.s:2568   .text:0000000000000df8 .L0 
     /tmp/cc8OAIEG.s:2578   .text:0000000000000e10 .L0 
     /tmp/cc8OAIEG.s:2580   .text:0000000000000e10 .L0 
     /tmp/cc8OAIEG.s:2583   .text:0000000000000e14 .L0 
     /tmp/cc8OAIEG.s:2584   .text:0000000000000e14 .L0 
     /tmp/cc8OAIEG.s:2588   .text:0000000000000e24 .L0 
     /tmp/cc8OAIEG.s:2589   .text:0000000000000e24 .L0 
     /tmp/cc8OAIEG.s:2592   .text:0000000000000e30 .L0 
     /tmp/cc8OAIEG.s:2594   .text:0000000000000e34 .L0 
     /tmp/cc8OAIEG.s:2597   .text:0000000000000e40 .L0 
     /tmp/cc8OAIEG.s:2599   .text:0000000000000e44 .L0 
     /tmp/cc8OAIEG.s:2601   .text:0000000000000e48 .L0 
     /tmp/cc8OAIEG.s:2603   .text:0000000000000e4c .L0 
     /tmp/cc8OAIEG.s:2604   .text:0000000000000e4c .L0 
     /tmp/cc8OAIEG.s:2607   .text:0000000000000e54 .L0 
     /tmp/cc8OAIEG.s:2609   .text:0000000000000e58 .L0 
     /tmp/cc8OAIEG.s:2611   .text:0000000000000e5c .L0 
     /tmp/cc8OAIEG.s:2614   .text:0000000000000e60 .L0 
     /tmp/cc8OAIEG.s:2615   .text:0000000000000e60 .L0 
     /tmp/cc8OAIEG.s:2617   .text:0000000000000e64 .L0 
     /tmp/cc8OAIEG.s:2618   .text:0000000000000e64 .L0 
src/kernel/riscv.cpp:753    .text:0000000000000e64 .L0 
GAS LISTING /tmp/cc8OAIEG.s 			page 117


     /tmp/cc8OAIEG.s:2624   .text:0000000000000e68 .L0 
src/kernel/riscv.cpp:755    .text:0000000000000e68 .L0 
     /tmp/cc8OAIEG.s:2629   .text:0000000000000e6c .L0 
src/kernel/riscv.cpp:757    .text:0000000000000e6c .L0 
     /tmp/cc8OAIEG.s:2634   .text:0000000000000e70 .L0 
src/kernel/riscv.cpp:759    .text:0000000000000e70 .L0 
     /tmp/cc8OAIEG.s:2639   .text:0000000000000e74 .L0 
src/kernel/riscv.cpp:761    .text:0000000000000e74 .L0 
     /tmp/cc8OAIEG.s:2644   .text:0000000000000e78 .L0 
src/kernel/riscv.cpp:764    .text:0000000000000e78 .L0 
     /tmp/cc8OAIEG.s:2649   .text:0000000000000e7c .L0 
src/kernel/riscv.cpp:766    .text:0000000000000e7c .L0 
     /tmp/cc8OAIEG.s:2654   .text:0000000000000e80 .L0 
src/kernel/riscv.cpp:768    .text:0000000000000e80 .L0 
     /tmp/cc8OAIEG.s:2659   .text:0000000000000e84 .L0 
src/kernel/riscv.cpp:770    .text:0000000000000e84 .L0 
     /tmp/cc8OAIEG.s:2664   .text:0000000000000e88 .L0 
     /tmp/cc8OAIEG.s:2666   .text:0000000000000e88 .L0 
     /tmp/cc8OAIEG.s:2669   .text:0000000000000e90 .L0 
     /tmp/cc8OAIEG.s:2671   .text:0000000000000e94 .L0 
     /tmp/cc8OAIEG.s:2672   .text:0000000000000e94 .L0 
     /tmp/cc8OAIEG.s:2674   .text:0000000000000e98 .L0 
     /tmp/cc8OAIEG.s:2676   .text:0000000000000e9c .L0 
     /tmp/cc8OAIEG.s:2677   .text:0000000000000e9c .L0 
     /tmp/cc8OAIEG.s:2686   .text:0000000000000ea8 .L0 
     /tmp/cc8OAIEG.s:2687   .text:0000000000000ea8 .L0 
src/kernel/riscv.cpp:784    .text:0000000000000ea8 .L0 
     /tmp/cc8OAIEG.s:2693   .text:0000000000000eac .L0 
     /tmp/cc8OAIEG.s:2695   .text:0000000000000eac .L0 
     /tmp/cc8OAIEG.s:2698   .text:0000000000000eb4 .L0 
     /tmp/cc8OAIEG.s:2699   .text:0000000000000eb8 .L0 
     /tmp/cc8OAIEG.s:2700   .text:0000000000000eb8 .L0 
     /tmp/cc8OAIEG.s:2702   .text:0000000000000ebc .L0 
     /tmp/cc8OAIEG.s:2703   .text:0000000000000ebc .L0 
     /tmp/cc8OAIEG.s:2705   .text:0000000000000ec0 .L0 
     /tmp/cc8OAIEG.s:2708   .text:0000000000000ec4 .L0 
     /tmp/cc8OAIEG.s:2710   .text:0000000000000ec8 .L0 
     /tmp/cc8OAIEG.s:2714   .text:0000000000000ecc .L0 
     /tmp/cc8OAIEG.s:2717   .text:0000000000000ecc .L0 
     /tmp/cc8OAIEG.s:2726   .text:0000000000000ed8 .L0 
     /tmp/cc8OAIEG.s:2734   .text:0000000000000ef0 .L0 
     /tmp/cc8OAIEG.s:2763   .text:0000000000000ef0 _ZN5RiscV5getPCEv
     /tmp/cc8OAIEG.s:2766   .text:0000000000000ef0 .L0 
     /tmp/cc8OAIEG.s:2767   .text:0000000000000ef0 .L0 
     /tmp/cc8OAIEG.s:2768   .text:0000000000000ef4 .L0 
     /tmp/cc8OAIEG.s:2770   .text:0000000000000ef8 .L0 
     /tmp/cc8OAIEG.s:2772   .text:0000000000000efc .L0 
     /tmp/cc8OAIEG.s:2774   .text:0000000000000efc .L0 
     /tmp/cc8OAIEG.s:2775   .text:0000000000000efc .L0 
src/kernel/riscv.cpp:793    .text:0000000000000efc .L0 
     /tmp/cc8OAIEG.s:2782   .text:0000000000000f00 .L0 
     /tmp/cc8OAIEG.s:2784   .text:0000000000000f00 .L0 
     /tmp/cc8OAIEG.s:2787   .text:0000000000000f04 .L0 
     /tmp/cc8OAIEG.s:2790   .text:0000000000000f10 .L0 
     /tmp/cc8OAIEG.s:2791   .text:0000000000000f14 .L0 
     /tmp/cc8OAIEG.s:2792   .text:0000000000000f14 .L0 
     /tmp/cc8OAIEG.s:2794   .text:0000000000000f18 .L0 
GAS LISTING /tmp/cc8OAIEG.s 			page 118


     /tmp/cc8OAIEG.s:2796   .text:0000000000000f1c .L0 
     /tmp/cc8OAIEG.s:2819   .text:0000000000000f1c _ZN5RiscV20handleSupervisorTrapEv
     /tmp/cc8OAIEG.s:2822   .text:0000000000000f1c .L0 
     /tmp/cc8OAIEG.s:2823   .text:0000000000000f1c .L0 
     /tmp/cc8OAIEG.s:2824   .text:0000000000000f20 .L0 
     /tmp/cc8OAIEG.s:2827   .text:0000000000000f28 .L0 
     /tmp/cc8OAIEG.s:2828   .text:0000000000000f28 .L0 
     /tmp/cc8OAIEG.s:2830   .text:0000000000000f2c .L0 
     /tmp/cc8OAIEG.s:2834   .text:0000000000000f2c .L0 
     /tmp/cc8OAIEG.s:2835   .text:0000000000000f2c .L0 
     /tmp/cc8OAIEG.s:2836   .text:0000000000000f2c .L0 
src/kernel/../../h/riscv.hpp:142    .text:0000000000000f2c .L0 
     /tmp/cc8OAIEG.s:2844   .text:0000000000000f34 .L0 
     /tmp/cc8OAIEG.s:2845   .text:0000000000000f34 .L0 
     /tmp/cc8OAIEG.s:2849   .text:0000000000000f38 .L0 
     /tmp/cc8OAIEG.s:2851   .text:0000000000000f3c .L0 
     /tmp/cc8OAIEG.s:2852   .text:0000000000000f3c .L0 
src/kernel/riscv.cpp:139    .text:0000000000000f48 .L0 
     /tmp/cc8OAIEG.s:2863   .text:0000000000000f50 .L0 
     /tmp/cc8OAIEG.s:2864   .text:0000000000000f50 .L0 
     /tmp/cc8OAIEG.s:2866   .text:0000000000000f54 .L0 
     /tmp/cc8OAIEG.s:2869   .text:0000000000000f5c .L0 
     /tmp/cc8OAIEG.s:2871   .text:0000000000000f60 .L0 
     /tmp/cc8OAIEG.s:2877   .text:0000000000000f68 .L0 
     /tmp/cc8OAIEG.s:2878   .text:0000000000000f68 .L0 
     /tmp/cc8OAIEG.s:2880   .text:0000000000000f6c .L0 
     /tmp/cc8OAIEG.s:2890   .text:0000000000000f7c .L0 
     /tmp/cc8OAIEG.s:2891   .text:0000000000000f7c .L0 
     /tmp/cc8OAIEG.s:2893   .text:0000000000000f80 .L0 
     /tmp/cc8OAIEG.s:2905   .text:0000000000000f90 .L0 
     /tmp/cc8OAIEG.s:2906   .text:0000000000000f90 .L0 
     /tmp/cc8OAIEG.s:2908   .text:0000000000000f94 .L0 
     /tmp/cc8OAIEG.s:2912   .text:0000000000000f9c .L0 
     /tmp/cc8OAIEG.s:2913   .text:0000000000000f9c .L0 
     /tmp/cc8OAIEG.s:2917   .text:0000000000000fac .L0 
     /tmp/cc8OAIEG.s:2918   .text:0000000000000fac .L0 
     /tmp/cc8OAIEG.s:2924   .text:0000000000000fbc .L0 
     /tmp/cc8OAIEG.s:2925   .text:0000000000000fbc .L0 
     /tmp/cc8OAIEG.s:2926   .text:0000000000000fbc .L0 
src/kernel/../../h/riscv.hpp:142    .text:0000000000000fbc .L0 
     /tmp/cc8OAIEG.s:2934   .text:0000000000000fc4 .L0 
     /tmp/cc8OAIEG.s:2935   .text:0000000000000fc4 .L0 
     /tmp/cc8OAIEG.s:2940   .text:0000000000000fc8 .L0 
     /tmp/cc8OAIEG.s:2941   .text:0000000000000fc8 .L0 
     /tmp/cc8OAIEG.s:2948   .text:0000000000000fdc .L0 
     /tmp/cc8OAIEG.s:2949   .text:0000000000000fdc .L0 
     /tmp/cc8OAIEG.s:2955   .text:0000000000000fec .L0 
     /tmp/cc8OAIEG.s:2956   .text:0000000000000fec .L0 
     /tmp/cc8OAIEG.s:2957   .text:0000000000000fec .L0 
src/kernel/../../h/riscv.hpp:152    .text:0000000000000fec .L0 
     /tmp/cc8OAIEG.s:2966   .text:0000000000000ff0 .L0 
     /tmp/cc8OAIEG.s:2967   .text:0000000000000ff0 .L0 
     /tmp/cc8OAIEG.s:2968   .text:0000000000000ff0 .L0 
     /tmp/cc8OAIEG.s:2974   .text:0000000000001004 .L0 
     /tmp/cc8OAIEG.s:2975   .text:0000000000001004 .L0 
     /tmp/cc8OAIEG.s:2979   .text:0000000000001014 .L0 
     /tmp/cc8OAIEG.s:2980   .text:0000000000001014 .L0 
GAS LISTING /tmp/cc8OAIEG.s 			page 119


     /tmp/cc8OAIEG.s:2984   .text:0000000000001020 .L0 
     /tmp/cc8OAIEG.s:2985   .text:0000000000001020 .L0 
     /tmp/cc8OAIEG.s:2988   .text:0000000000001028 .L0 
     /tmp/cc8OAIEG.s:2989   .text:0000000000001028 .L0 
     /tmp/cc8OAIEG.s:2993   .text:0000000000001038 .L0 
     /tmp/cc8OAIEG.s:2994   .text:0000000000001038 .L0 
     /tmp/cc8OAIEG.s:3006   .text:0000000000001044 .L0 
     /tmp/cc8OAIEG.s:3007   .text:0000000000001044 .L0 
     /tmp/cc8OAIEG.s:3008   .text:0000000000001044 .L0 
src/kernel/../../h/riscv.hpp:172    .text:0000000000001044 .L0 
     /tmp/cc8OAIEG.s:3018   .text:0000000000001048 .L0 
     /tmp/cc8OAIEG.s:3019   .text:0000000000001048 .L0 
     /tmp/cc8OAIEG.s:3023   .text:000000000000104c .L0 
     /tmp/cc8OAIEG.s:3024   .text:000000000000104c .L0 
     /tmp/cc8OAIEG.s:3025   .text:000000000000104c .L0 
src/kernel/../../h/riscv.hpp:152    .text:000000000000104c .L0 
     /tmp/cc8OAIEG.s:3035   .text:0000000000001050 .L0 
     /tmp/cc8OAIEG.s:3036   .text:0000000000001050 .L0 
     /tmp/cc8OAIEG.s:3038   .text:0000000000001054 .L0 
     /tmp/cc8OAIEG.s:3040   .text:0000000000001058 .L0 
     /tmp/cc8OAIEG.s:3041   .text:0000000000001058 .L0 
     /tmp/cc8OAIEG.s:3044   .text:0000000000001064 .L0 
     /tmp/cc8OAIEG.s:3047   .text:000000000000106c .L0 
     /tmp/cc8OAIEG.s:3048   .text:000000000000106c .L0 
     /tmp/cc8OAIEG.s:3051   .text:0000000000001074 .L0 
     /tmp/cc8OAIEG.s:3052   .text:0000000000001074 .L0 
src/kernel/riscv.cpp:153    .text:0000000000001074 .L0 
     /tmp/cc8OAIEG.s:3060   .text:0000000000001078 .L0 
     /tmp/cc8OAIEG.s:3174   .text:000000000000109c .L0 
     /tmp/cc8OAIEG.s:3175   .text:000000000000109c .L0 
     /tmp/cc8OAIEG.s:3176   .text:000000000000109c .L0 
     /tmp/cc8OAIEG.s:3180   .text:00000000000010a4 .L0 
     /tmp/cc8OAIEG.s:3181   .text:00000000000010a4 .L0 
     /tmp/cc8OAIEG.s:3182   .text:00000000000010a4 .L0 
     /tmp/cc8OAIEG.s:3189   .text:00000000000010b4 .L0 
src/kernel/../../h/riscv.hpp:167    .text:00000000000010b4 .L0 
     /tmp/cc8OAIEG.s:3199   .text:00000000000010b8 .L0 
     /tmp/cc8OAIEG.s:3200   .text:00000000000010b8 .L0 
     /tmp/cc8OAIEG.s:3205   .text:00000000000010bc .L0 
src/kernel/../../h/riscv.hpp:157    .text:00000000000010bc .L0 
     /tmp/cc8OAIEG.s:3218   .text:00000000000010c0 .L0 
     /tmp/cc8OAIEG.s:3219   .text:00000000000010c0 .L0 
     /tmp/cc8OAIEG.s:3222   .text:00000000000010c8 .L0 
     /tmp/cc8OAIEG.s:3223   .text:00000000000010cc .L0 
     /tmp/cc8OAIEG.s:3224   .text:00000000000010cc .L0 
     /tmp/cc8OAIEG.s:3226   .text:00000000000010d0 .L0 
     /tmp/cc8OAIEG.s:3227   .text:00000000000010d0 .L0 
     /tmp/cc8OAIEG.s:3229   .text:00000000000010d4 .L0 
     /tmp/cc8OAIEG.s:3232   .text:00000000000010d8 .L0 
     /tmp/cc8OAIEG.s:3236   .text:00000000000010d8 .L0 
     /tmp/cc8OAIEG.s:3237   .text:00000000000010d8 .L0 
     /tmp/cc8OAIEG.s:3238   .text:00000000000010d8 .L0 
     /tmp/cc8OAIEG.s:3241   .text:00000000000010e0 .L0 
     /tmp/cc8OAIEG.s:3244   .text:00000000000010e4 .L0 
     /tmp/cc8OAIEG.s:3245   .text:00000000000010e4 .L0 
     /tmp/cc8OAIEG.s:3246   .text:00000000000010e4 .L0 
     /tmp/cc8OAIEG.s:3249   .text:00000000000010ec .L0 
GAS LISTING /tmp/cc8OAIEG.s 			page 120


     /tmp/cc8OAIEG.s:3252   .text:00000000000010f0 .L0 
     /tmp/cc8OAIEG.s:3253   .text:00000000000010f0 .L0 
     /tmp/cc8OAIEG.s:3254   .text:00000000000010f0 .L0 
     /tmp/cc8OAIEG.s:3257   .text:00000000000010f8 .L0 
     /tmp/cc8OAIEG.s:3260   .text:00000000000010fc .L0 
     /tmp/cc8OAIEG.s:3261   .text:00000000000010fc .L0 
     /tmp/cc8OAIEG.s:3262   .text:00000000000010fc .L0 
     /tmp/cc8OAIEG.s:3265   .text:0000000000001104 .L0 
     /tmp/cc8OAIEG.s:3268   .text:0000000000001108 .L0 
     /tmp/cc8OAIEG.s:3269   .text:0000000000001108 .L0 
     /tmp/cc8OAIEG.s:3270   .text:0000000000001108 .L0 
     /tmp/cc8OAIEG.s:3273   .text:0000000000001110 .L0 
     /tmp/cc8OAIEG.s:3276   .text:0000000000001114 .L0 
     /tmp/cc8OAIEG.s:3277   .text:0000000000001114 .L0 
     /tmp/cc8OAIEG.s:3278   .text:0000000000001114 .L0 
     /tmp/cc8OAIEG.s:3281   .text:000000000000111c .L0 
     /tmp/cc8OAIEG.s:3284   .text:0000000000001120 .L0 
     /tmp/cc8OAIEG.s:3285   .text:0000000000001120 .L0 
     /tmp/cc8OAIEG.s:3286   .text:0000000000001120 .L0 
     /tmp/cc8OAIEG.s:3289   .text:0000000000001128 .L0 
     /tmp/cc8OAIEG.s:3292   .text:000000000000112c .L0 
     /tmp/cc8OAIEG.s:3293   .text:000000000000112c .L0 
     /tmp/cc8OAIEG.s:3294   .text:000000000000112c .L0 
     /tmp/cc8OAIEG.s:3297   .text:0000000000001134 .L0 
     /tmp/cc8OAIEG.s:3300   .text:0000000000001138 .L0 
     /tmp/cc8OAIEG.s:3301   .text:0000000000001138 .L0 
     /tmp/cc8OAIEG.s:3302   .text:0000000000001138 .L0 
     /tmp/cc8OAIEG.s:3305   .text:0000000000001140 .L0 
     /tmp/cc8OAIEG.s:3308   .text:0000000000001144 .L0 
     /tmp/cc8OAIEG.s:3309   .text:0000000000001144 .L0 
     /tmp/cc8OAIEG.s:3310   .text:0000000000001144 .L0 
     /tmp/cc8OAIEG.s:3313   .text:000000000000114c .L0 
     /tmp/cc8OAIEG.s:3316   .text:0000000000001150 .L0 
     /tmp/cc8OAIEG.s:3317   .text:0000000000001150 .L0 
     /tmp/cc8OAIEG.s:3318   .text:0000000000001150 .L0 
     /tmp/cc8OAIEG.s:3321   .text:0000000000001158 .L0 
     /tmp/cc8OAIEG.s:3324   .text:000000000000115c .L0 
     /tmp/cc8OAIEG.s:3325   .text:000000000000115c .L0 
     /tmp/cc8OAIEG.s:3326   .text:000000000000115c .L0 
     /tmp/cc8OAIEG.s:3329   .text:0000000000001164 .L0 
     /tmp/cc8OAIEG.s:3332   .text:0000000000001168 .L0 
     /tmp/cc8OAIEG.s:3333   .text:0000000000001168 .L0 
     /tmp/cc8OAIEG.s:3334   .text:0000000000001168 .L0 
     /tmp/cc8OAIEG.s:3337   .text:0000000000001170 .L0 
     /tmp/cc8OAIEG.s:3340   .text:0000000000001174 .L0 
     /tmp/cc8OAIEG.s:3341   .text:0000000000001174 .L0 
     /tmp/cc8OAIEG.s:3342   .text:0000000000001174 .L0 
     /tmp/cc8OAIEG.s:3345   .text:000000000000117c .L0 
     /tmp/cc8OAIEG.s:3348   .text:0000000000001180 .L0 
     /tmp/cc8OAIEG.s:3349   .text:0000000000001180 .L0 
     /tmp/cc8OAIEG.s:3350   .text:0000000000001180 .L0 
     /tmp/cc8OAIEG.s:3353   .text:0000000000001188 .L0 
     /tmp/cc8OAIEG.s:3356   .text:000000000000118c .L0 
     /tmp/cc8OAIEG.s:3357   .text:000000000000118c .L0 
     /tmp/cc8OAIEG.s:3358   .text:000000000000118c .L0 
     /tmp/cc8OAIEG.s:3361   .text:0000000000001194 .L0 
     /tmp/cc8OAIEG.s:3364   .text:0000000000001198 .L0 
GAS LISTING /tmp/cc8OAIEG.s 			page 121


     /tmp/cc8OAIEG.s:3365   .text:0000000000001198 .L0 
src/kernel/riscv.cpp:176    .text:0000000000001198 .L0 
     /tmp/cc8OAIEG.s:3374   .text:00000000000011a8 .L0 
     /tmp/cc8OAIEG.s:3375   .text:00000000000011a8 .L0 
     /tmp/cc8OAIEG.s:3378   .text:00000000000011b0 .L0 
     /tmp/cc8OAIEG.s:3379   .text:00000000000011b0 .L0 
     /tmp/cc8OAIEG.s:3382   .text:00000000000011b8 .L0 
     /tmp/cc8OAIEG.s:3390   .text:00000000000011bc .L0 
     /tmp/cc8OAIEG.s:3391   .text:00000000000011bc .L0 
     /tmp/cc8OAIEG.s:3392   .text:00000000000011bc .L0 
src/kernel/../../h/riscv.hpp:172    .text:00000000000011bc .L0 
     /tmp/cc8OAIEG.s:3402   .text:00000000000011c0 .L0 
     /tmp/cc8OAIEG.s:3403   .text:00000000000011c0 .L0 
     /tmp/cc8OAIEG.s:3407   .text:00000000000011c4 .L0 
     /tmp/cc8OAIEG.s:3408   .text:00000000000011c4 .L0 
     /tmp/cc8OAIEG.s:3409   .text:00000000000011c4 .L0 
src/kernel/../../h/riscv.hpp:152    .text:00000000000011c4 .L0 
     /tmp/cc8OAIEG.s:3419   .text:00000000000011c8 .L0 
     /tmp/cc8OAIEG.s:3420   .text:00000000000011c8 .L0 
     /tmp/cc8OAIEG.s:3425   .text:00000000000011cc .L0 
     /tmp/cc8OAIEG.s:3426   .text:00000000000011cc .L0 
     /tmp/cc8OAIEG.s:3427   .text:00000000000011cc .L0 
     /tmp/cc8OAIEG.s:3437   .text:00000000000011d4 .L0 
     /tmp/cc8OAIEG.s:3438   .text:00000000000011d4 .L0 
     /tmp/cc8OAIEG.s:3443   .text:00000000000011e8 .L0 
     /tmp/cc8OAIEG.s:3444   .text:00000000000011e8 .L0 
     /tmp/cc8OAIEG.s:3447   .text:00000000000011f0 .L0 
     /tmp/cc8OAIEG.s:3448   .text:00000000000011f0 .L0 
     /tmp/cc8OAIEG.s:3454   .text:0000000000001204 .L0 
     /tmp/cc8OAIEG.s:3455   .text:0000000000001204 .L0 
     /tmp/cc8OAIEG.s:3459   .text:0000000000001214 .L0 
     /tmp/cc8OAIEG.s:3463   .text:0000000000001218 .L0 
     /tmp/cc8OAIEG.s:3464   .text:0000000000001218 .L0 
     /tmp/cc8OAIEG.s:3469   .text:000000000000121c .L0 
src/kernel/../../h/riscv.hpp:167    .text:000000000000121c .L0 
     /tmp/cc8OAIEG.s:3479   .text:0000000000001220 .L0 
     /tmp/cc8OAIEG.s:3480   .text:0000000000001220 .L0 
     /tmp/cc8OAIEG.s:3485   .text:0000000000001224 .L0 
src/kernel/../../h/riscv.hpp:157    .text:0000000000001224 .L0 
     /tmp/cc8OAIEG.s:3492   .text:0000000000001228 .L0 
     /tmp/cc8OAIEG.s:3500   .text:000000000000122c .L0 
     /tmp/cc8OAIEG.s:3501   .text:000000000000122c .L0 
     /tmp/cc8OAIEG.s:3505   .text:0000000000001238 .L0 
     /tmp/cc8OAIEG.s:3506   .text:0000000000001238 .L0 
     /tmp/cc8OAIEG.s:3507   .text:0000000000001238 .L0 
     /tmp/cc8OAIEG.s:3510   .text:0000000000001240 .L0 
     /tmp/cc8OAIEG.s:3511   .text:0000000000001240 .L0 
     /tmp/cc8OAIEG.s:3523   .text:000000000000124c .L0 
     /tmp/cc8OAIEG.s:3524   .text:000000000000124c .L0 
     /tmp/cc8OAIEG.s:3525   .text:000000000000124c .L0 
src/kernel/../../h/riscv.hpp:172    .text:000000000000124c .L0 
     /tmp/cc8OAIEG.s:3535   .text:0000000000001250 .L0 
     /tmp/cc8OAIEG.s:3536   .text:0000000000001250 .L0 
     /tmp/cc8OAIEG.s:3540   .text:0000000000001254 .L0 
     /tmp/cc8OAIEG.s:3541   .text:0000000000001254 .L0 
     /tmp/cc8OAIEG.s:3542   .text:0000000000001254 .L0 
src/kernel/../../h/riscv.hpp:152    .text:0000000000001254 .L0 
GAS LISTING /tmp/cc8OAIEG.s 			page 122


     /tmp/cc8OAIEG.s:3552   .text:0000000000001258 .L0 
     /tmp/cc8OAIEG.s:3553   .text:0000000000001258 .L0 
     /tmp/cc8OAIEG.s:3555   .text:000000000000125c .L0 
     /tmp/cc8OAIEG.s:3556   .text:000000000000125c .L0 
     /tmp/cc8OAIEG.s:3560   .text:0000000000001268 .L0 
src/kernel/riscv.cpp:231    .text:0000000000001268 .L0 
     /tmp/cc8OAIEG.s:3566   .text:000000000000126c .L0 
src/kernel/riscv.cpp:232    .text:000000000000126c .L0 
     /tmp/cc8OAIEG.s:3571   .text:0000000000001270 .L0 
src/kernel/riscv.cpp:233    .text:0000000000001270 .L0 
     /tmp/cc8OAIEG.s:3579   .text:0000000000001274 .L0 
     /tmp/cc8OAIEG.s:3580   .text:0000000000001274 .L0 
     /tmp/cc8OAIEG.s:3583   .text:0000000000001278 .L0 
     /tmp/cc8OAIEG.s:3586   .text:000000000000127c .L0 
     /tmp/cc8OAIEG.s:3587   .text:000000000000127c .L0 
     /tmp/cc8OAIEG.s:3588   .text:000000000000127c .L0 
     /tmp/cc8OAIEG.s:3589   .text:000000000000127c .L0 
     /tmp/cc8OAIEG.s:3593   .text:0000000000001288 .L0 
src/kernel/riscv.cpp:242    .text:0000000000001288 .L0 
     /tmp/cc8OAIEG.s:3599   .text:000000000000128c .L0 
src/kernel/riscv.cpp:243    .text:000000000000128c .L0 
     /tmp/cc8OAIEG.s:3604   .text:0000000000001290 .L0 
src/kernel/riscv.cpp:244    .text:0000000000001290 .L0 
     /tmp/cc8OAIEG.s:3612   .text:0000000000001298 .L0 
     /tmp/cc8OAIEG.s:3613   .text:0000000000001298 .L0 
     /tmp/cc8OAIEG.s:3617   .text:00000000000012a4 .L0 
     /tmp/cc8OAIEG.s:3623   .text:00000000000012a8 .L0 
     /tmp/cc8OAIEG.s:3624   .text:00000000000012a8 .L0 
     /tmp/cc8OAIEG.s:3629   .text:00000000000012b8 .L0 
     /tmp/cc8OAIEG.s:3630   .text:00000000000012b8 .L0 
     /tmp/cc8OAIEG.s:3635   .text:00000000000012bc .L0 
src/kernel/../../h/riscv.hpp:167    .text:00000000000012bc .L0 
     /tmp/cc8OAIEG.s:3645   .text:00000000000012c0 .L0 
     /tmp/cc8OAIEG.s:3646   .text:00000000000012c0 .L0 
     /tmp/cc8OAIEG.s:3651   .text:00000000000012c4 .L0 
src/kernel/../../h/riscv.hpp:157    .text:00000000000012c4 .L0 
     /tmp/cc8OAIEG.s:3658   .text:00000000000012c8 .L0 
     /tmp/cc8OAIEG.s:3666   .text:00000000000012cc .L0 
     /tmp/cc8OAIEG.s:3667   .text:00000000000012cc .L0 
     /tmp/cc8OAIEG.s:3671   .text:00000000000012dc .L0 
     /tmp/cc8OAIEG.s:3672   .text:00000000000012dc .L0 
     /tmp/cc8OAIEG.s:3683   .text:00000000000012e8 .L0 
     /tmp/cc8OAIEG.s:3684   .text:00000000000012e8 .L0 
     /tmp/cc8OAIEG.s:3688   .text:00000000000012f4 .L0 
     /tmp/cc8OAIEG.s:3689   .text:00000000000012f4 .L0 
     /tmp/cc8OAIEG.s:3692   .text:00000000000012fc .L0 
     /tmp/cc8OAIEG.s:3693   .text:00000000000012fc .L0 
     /tmp/cc8OAIEG.s:3699   .text:000000000000130c .L0 
     /tmp/cc8OAIEG.s:3700   .text:000000000000130c .L0 
     /tmp/cc8OAIEG.s:3701   .text:000000000000130c .L0 
src/kernel/../../h/riscv.hpp:152    .text:000000000000130c .L0 
     /tmp/cc8OAIEG.s:3710   .text:0000000000001310 .L0 
     /tmp/cc8OAIEG.s:3711   .text:0000000000001310 .L0 
     /tmp/cc8OAIEG.s:3712   .text:0000000000001310 .L0 
     /tmp/cc8OAIEG.s:3718   .text:0000000000001324 .L0 
     /tmp/cc8OAIEG.s:3719   .text:0000000000001324 .L0 
     /tmp/cc8OAIEG.s:3723   .text:0000000000001334 .L0 
GAS LISTING /tmp/cc8OAIEG.s 			page 123


     /tmp/cc8OAIEG.s:3724   .text:0000000000001334 .L0 
     /tmp/cc8OAIEG.s:3728   .text:0000000000001344 .L0 
     /tmp/cc8OAIEG.s:3729   .text:0000000000001344 .L0 
     /tmp/cc8OAIEG.s:3737   .text:0000000000001350 .L0 
     /tmp/cc8OAIEG.s:3762   .bss:0000000000000018 _ZN5RiscV4uPMTE
     /tmp/cc8OAIEG.s:3749   .bss:0000000000000000 _ZN5RiscV4kPMTE
     /tmp/cc8OAIEG.s:3753   .bss:0000000000000008 _ZN5RiscV16userMainFinishedE
     /tmp/cc8OAIEG.s:3758   .bss:0000000000000010 _ZN5RiscV10globalTimeE
     /tmp/cc8OAIEG.s:3746   .bss:0000000000000000 .LANCHOR0
     /tmp/cc8OAIEG.s:3778   .text:0000000000001350 .L0 
     /tmp/cc8OAIEG.s:261    .text:0000000000000158 .L0 
     /tmp/cc8OAIEG.s:278    .text:0000000000000164 .L0 
     /tmp/cc8OAIEG.s:312    .text:00000000000001b8 .L0 
     /tmp/cc8OAIEG.s:315    .text:00000000000001c0 .L0 
     /tmp/cc8OAIEG.s:319    .text:00000000000001c8 .L0 
     /tmp/cc8OAIEG.s:323    .text:00000000000001d0 .L0 
     /tmp/cc8OAIEG.s:327    .text:00000000000001d8 .L0 
     /tmp/cc8OAIEG.s:342    .text:00000000000001f4 .L0 
     /tmp/cc8OAIEG.s:362    .text:000000000000021c .L0 
     /tmp/cc8OAIEG.s:382    .text:0000000000000244 .L0 
     /tmp/cc8OAIEG.s:405    .text:0000000000000270 .L0 
     /tmp/cc8OAIEG.s:423    .text:0000000000000290 .L0 
     /tmp/cc8OAIEG.s:430    .text:00000000000002a8 .L0 
     /tmp/cc8OAIEG.s:446    .text:00000000000002c4 .L0 
     /tmp/cc8OAIEG.s:450    .text:00000000000002d4 .L0 
     /tmp/cc8OAIEG.s:459    .text:00000000000002f0 .L0 
     /tmp/cc8OAIEG.s:477    .text:0000000000000314 .L0 
     /tmp/cc8OAIEG.s:487    .text:000000000000032c .L0 
     /tmp/cc8OAIEG.s:508    .text:0000000000000344 .L0 
     /tmp/cc8OAIEG.s:511    .text:0000000000000350 .L0 
     /tmp/cc8OAIEG.s:519    .text:000000000000036c .L0 
     /tmp/cc8OAIEG.s:527    .text:0000000000000388 .L0 
     /tmp/cc8OAIEG.s:225    .rodata.str1.8:0000000000000000 .LC0
     /tmp/cc8OAIEG.s:543    .text:00000000000003bc .L0 
     /tmp/cc8OAIEG.s:228    .rodata.str1.8:0000000000000008 .LC1
     /tmp/cc8OAIEG.s:545    .text:00000000000003c8 .L0 
     /tmp/cc8OAIEG.s:551    .text:00000000000003dc .L0 
     /tmp/cc8OAIEG.s:231    .rodata.str1.8:0000000000000018 .LC2
     /tmp/cc8OAIEG.s:553    .text:00000000000003e8 .L0 
     /tmp/cc8OAIEG.s:559    .text:00000000000003fc .L0 
     /tmp/cc8OAIEG.s:560    .text:0000000000000404 .L0 
     /tmp/cc8OAIEG.s:562    .text:0000000000000410 .L0 
     /tmp/cc8OAIEG.s:708    .text:000000000000049c .L0 
     /tmp/cc8OAIEG.s:716    .text:00000000000004b4 .L0 
     /tmp/cc8OAIEG.s:773    .text:00000000000004e8 .L0 
     /tmp/cc8OAIEG.s:813    .text:0000000000000524 .L0 
     /tmp/cc8OAIEG.s:818    .text:0000000000000530 .L0 
     /tmp/cc8OAIEG.s:881    .text:0000000000000580 .L0 
     /tmp/cc8OAIEG.s:918    .text:00000000000005ac .L0 
     /tmp/cc8OAIEG.s:945    .text:00000000000005c8 .L0 
     /tmp/cc8OAIEG.s:952    .text:00000000000005dc .L0 
     /tmp/cc8OAIEG.s:976    .text:00000000000005f8 .L0 
     /tmp/cc8OAIEG.s:1045   .text:0000000000000644 .L0 
     /tmp/cc8OAIEG.s:1048   .text:000000000000064c .L0 
     /tmp/cc8OAIEG.s:1052   .text:0000000000000658 .L0 
     /tmp/cc8OAIEG.s:1105   .text:0000000000000674 .L0 
     /tmp/cc8OAIEG.s:1112   .text:0000000000000688 .L0 
GAS LISTING /tmp/cc8OAIEG.s 			page 124


     /tmp/cc8OAIEG.s:1119   .text:0000000000000698 .L0 
     /tmp/cc8OAIEG.s:1126   .text:00000000000006ac .L0 
     /tmp/cc8OAIEG.s:1128   .text:00000000000006b8 .L0 
     /tmp/cc8OAIEG.s:1173   .text:00000000000006f4 .L0 
     /tmp/cc8OAIEG.s:1270   .text:0000000000000764 .L0 
     /tmp/cc8OAIEG.s:1755   .text:00000000000009a8 .L0 
     /tmp/cc8OAIEG.s:2049   .text:0000000000000b04 .L0 
     /tmp/cc8OAIEG.s:2187   .text:0000000000000bac .L0 
     /tmp/cc8OAIEG.s:2192   .text:0000000000000bb8 .L0 
     /tmp/cc8OAIEG.s:2259   .text:0000000000000c20 .L0 
     /tmp/cc8OAIEG.s:2264   .text:0000000000000c2c .L0 
     /tmp/cc8OAIEG.s:2551   .text:0000000000000dc4 .L0 
     /tmp/cc8OAIEG.s:2584   .text:0000000000000e14 .L0 
     /tmp/cc8OAIEG.s:2589   .text:0000000000000e24 .L0 
     /tmp/cc8OAIEG.s:2594   .text:0000000000000e34 .L0 
     /tmp/cc8OAIEG.s:2787   .text:0000000000000f04 .L0 
     /tmp/cc8OAIEG.s:2852   .text:0000000000000f3c .L0 
     /tmp/cc8OAIEG.s:2807   .rodata.str1.8:0000000000000058 .LC5
     /tmp/cc8OAIEG.s:2913   .text:0000000000000f9c .L0 
     /tmp/cc8OAIEG.s:2810   .rodata.str1.8:0000000000000068 .LC6
     /tmp/cc8OAIEG.s:2918   .text:0000000000000fac .L0 
     /tmp/cc8OAIEG.s:2801   .rodata.str1.8:0000000000000028 .LC3
     /tmp/cc8OAIEG.s:2949   .text:0000000000000fdc .L0 
     /tmp/cc8OAIEG.s:2975   .text:0000000000001004 .L0 
     /tmp/cc8OAIEG.s:2980   .text:0000000000001014 .L0 
     /tmp/cc8OAIEG.s:2813   .rodata.str1.8:0000000000000078 .LC7
     /tmp/cc8OAIEG.s:2989   .text:0000000000001028 .L0 
     /tmp/cc8OAIEG.s:3041   .text:0000000000001058 .L0 
     /tmp/cc8OAIEG.s:3072   .rodata:0000000000000000 .L149
     /tmp/cc8OAIEG.s:3064   .text:0000000000001084 .L0 
     /tmp/cc8OAIEG.s:3182   .text:00000000000010a4 .L0 
     /tmp/cc8OAIEG.s:3371   .text:000000000000119c .L0 
     /tmp/cc8OAIEG.s:3438   .text:00000000000011d4 .L0 
     /tmp/cc8OAIEG.s:3448   .text:00000000000011f0 .L0 
     /tmp/cc8OAIEG.s:3455   .text:0000000000001204 .L0 
     /tmp/cc8OAIEG.s:3501   .text:000000000000122c .L0 
     /tmp/cc8OAIEG.s:3556   .text:000000000000125c .L0 
     /tmp/cc8OAIEG.s:3589   .text:000000000000127c .L0 
     /tmp/cc8OAIEG.s:3613   .text:0000000000001298 .L0 
     /tmp/cc8OAIEG.s:3668   .text:00000000000012d0 .L0 
     /tmp/cc8OAIEG.s:3684   .text:00000000000012e8 .L0 
     /tmp/cc8OAIEG.s:3693   .text:00000000000012fc .L0 
     /tmp/cc8OAIEG.s:3719   .text:0000000000001324 .L0 
     /tmp/cc8OAIEG.s:2804   .rodata.str1.8:0000000000000030 .LC4
     /tmp/cc8OAIEG.s:3724   .text:0000000000001334 .L0 
     /tmp/cc8OAIEG.s:48     .text:000000000000003c .L1
     /tmp/cc8OAIEG.s:33     .text:0000000000000020 .L3
     /tmp/cc8OAIEG.s:188    .text:00000000000000fc .L12
     /tmp/cc8OAIEG.s:205    .text:0000000000000118 .L13
     /tmp/cc8OAIEG.s:166    .text:00000000000000d8 .L5
     /tmp/cc8OAIEG.s:126    .text:00000000000000a4 .L7
     /tmp/cc8OAIEG.s:145    .text:00000000000000bc .L9
     /tmp/cc8OAIEG.s:352    .text:0000000000000210 .L15
     /tmp/cc8OAIEG.s:335    .text:00000000000001e8 .L16
     /tmp/cc8OAIEG.s:372    .text:0000000000000238 .L17
     /tmp/cc8OAIEG.s:392    .text:0000000000000260 .L23
     /tmp/cc8OAIEG.s:415    .text:000000000000028c .L24
GAS LISTING /tmp/cc8OAIEG.s 			page 125


     /tmp/cc8OAIEG.s:398    .text:0000000000000264 .L18
     /tmp/cc8OAIEG.s:441    .text:00000000000002c4 .L20
     /tmp/cc8OAIEG.s:421    .text:0000000000000290 .L19
     /tmp/cc8OAIEG.s:485    .text:000000000000032c .L21
     /tmp/cc8OAIEG.s:470    .text:000000000000030c .L26
     /tmp/cc8OAIEG.s:743    .text:00000000000004d0 .L33
     /tmp/cc8OAIEG.s:726    .text:00000000000004c0 .L31
     /tmp/cc8OAIEG.s:822    .text:0000000000000544 .L37
     /tmp/cc8OAIEG.s:874    .text:0000000000000580 .L40
     /tmp/cc8OAIEG.s:867    .text:0000000000000578 .L41
     /tmp/cc8OAIEG.s:1006   .text:0000000000000624 .L48
     /tmp/cc8OAIEG.s:995    .text:0000000000000618 .L44
     /tmp/cc8OAIEG.s:1116   .text:0000000000000698 .L50
     /tmp/cc8OAIEG.s:1097   .text:0000000000000674 .L51
     /tmp/cc8OAIEG.s:1137   .text:00000000000006d4 .L49
     /tmp/cc8OAIEG.s:1123   .text:00000000000006ac .L53
     /tmp/cc8OAIEG.s:1298   .text:0000000000000794 .L63
     /tmp/cc8OAIEG.s:1275   .text:0000000000000778 .L60
     /tmp/cc8OAIEG.s:1389   .text:0000000000000804 .L65
     /tmp/cc8OAIEG.s:1450   .text:0000000000000854 .L69
     /tmp/cc8OAIEG.s:1405   .text:000000000000081c .L67
     /tmp/cc8OAIEG.s:1411   .text:0000000000000824 .L66
     /tmp/cc8OAIEG.s:1567   .text:00000000000008d8 .L74
     /tmp/cc8OAIEG.s:1621   .text:000000000000091c .L77
     /tmp/cc8OAIEG.s:1582   .text:00000000000008ec .L75
     /tmp/cc8OAIEG.s:1715   .text:0000000000000978 .L85
     /tmp/cc8OAIEG.s:1692   .text:000000000000095c .L82
     /tmp/cc8OAIEG.s:1798   .text:00000000000009e8 .L88
     /tmp/cc8OAIEG.s:1774   .text:00000000000009cc .L87
     /tmp/cc8OAIEG.s:1861   .text:0000000000000a34 .L91
     /tmp/cc8OAIEG.s:1903   .text:0000000000000a68 .L94
     /tmp/cc8OAIEG.s:1870   .text:0000000000000a40 .L92
     /tmp/cc8OAIEG.s:2002   .text:0000000000000acc .L102
     /tmp/cc8OAIEG.s:1975   .text:0000000000000aac .L99
     /tmp/cc8OAIEG.s:2080   .text:0000000000000b38 .L108
     /tmp/cc8OAIEG.s:2088   .text:0000000000000b44 .L106
     /tmp/cc8OAIEG.s:2046   .text:0000000000000b04 .L104
     /tmp/cc8OAIEG.s:2056   .text:0000000000000b1c .L105
     /tmp/cc8OAIEG.s:2148   .text:0000000000000b84 .L113
     /tmp/cc8OAIEG.s:2125   .text:0000000000000b68 .L110
     /tmp/cc8OAIEG.s:2268   .text:0000000000000c40 .L117
     /tmp/cc8OAIEG.s:2307   .text:0000000000000c7c .L121
     /tmp/cc8OAIEG.s:2322   .text:0000000000000c98 .L122
     /tmp/cc8OAIEG.s:2282   .text:0000000000000c5c .L119
     /tmp/cc8OAIEG.s:2430   .text:0000000000000d18 .L128
     /tmp/cc8OAIEG.s:2402   .text:0000000000000cf4 .L126
     /tmp/cc8OAIEG.s:2506   .text:0000000000000d80 .L132
     /tmp/cc8OAIEG.s:2478   .text:0000000000000d5c .L130
     /tmp/cc8OAIEG.s:2576   .text:0000000000000e10 .L134
     /tmp/cc8OAIEG.s:2713   .text:0000000000000ecc .L137
     /tmp/cc8OAIEG.s:2683   .text:0000000000000ea8 .L135
     /tmp/cc8OAIEG.s:2997   .text:0000000000001044 .L144
     /tmp/cc8OAIEG.s:3383   .text:00000000000011bc .L174
     /tmp/cc8OAIEG.s:3515   .text:000000000000124c .L175
     /tmp/cc8OAIEG.s:3676   .text:00000000000012e8 .L176
     /tmp/cc8OAIEG.s:3212   .text:00000000000010c0 .L167
     /tmp/cc8OAIEG.s:3179   .text:00000000000010a4 .L147
GAS LISTING /tmp/cc8OAIEG.s 			page 126


     /tmp/cc8OAIEG.s:3494   .text:000000000000122c .L177
     /tmp/cc8OAIEG.s:3460   .text:0000000000001218 .L168
     /tmp/cc8OAIEG.s:3619   .text:00000000000012a8 .L170
     /tmp/cc8OAIEG.s:3660   .text:00000000000012cc .L178
     /tmp/cc8OAIEG.s:1374   .text:00000000000007dc .LEHB0
     /tmp/cc8OAIEG.s:1321   .text:00000000000007a4 .LFB50
     /tmp/cc8OAIEG.s:1377   .text:00000000000007e4 .LEHE0
     /tmp/cc8OAIEG.s:1385   .text:00000000000007fc .LEHB1
     /tmp/cc8OAIEG.s:1388   .text:0000000000000804 .LEHE1
     /tmp/cc8OAIEG.s:1456   .text:000000000000085c .L70
     /tmp/cc8OAIEG.s:1401   .text:0000000000000814 .LEHB2
     /tmp/cc8OAIEG.s:1404   .text:000000000000081c .LEHE2
     /tmp/cc8OAIEG.s:1464   .text:0000000000000870 .LEHB3
     /tmp/cc8OAIEG.s:1467   .text:0000000000000878 .LEHE3
     /tmp/cc8OAIEG.s:1552   .text:00000000000008b0 .LEHB4
     /tmp/cc8OAIEG.s:1499   .text:0000000000000878 .LFB51
     /tmp/cc8OAIEG.s:1555   .text:00000000000008b8 .LEHE4
     /tmp/cc8OAIEG.s:1563   .text:00000000000008d0 .LEHB5
     /tmp/cc8OAIEG.s:1566   .text:00000000000008d8 .LEHE5
     /tmp/cc8OAIEG.s:1627   .text:0000000000000924 .L78
     /tmp/cc8OAIEG.s:1635   .text:0000000000000938 .LEHB6
     /tmp/cc8OAIEG.s:1638   .text:0000000000000940 .LEHE6
     /tmp/cc8OAIEG.s:1849   .text:0000000000000a18 .LEHB7
     /tmp/cc8OAIEG.s:1812   .text:00000000000009f0 .LFB55
     /tmp/cc8OAIEG.s:1852   .text:0000000000000a20 .LEHE7
     /tmp/cc8OAIEG.s:1857   .text:0000000000000a2c .LEHB8
     /tmp/cc8OAIEG.s:1860   .text:0000000000000a34 .LEHE8
     /tmp/cc8OAIEG.s:1909   .text:0000000000000a70 .L95
     /tmp/cc8OAIEG.s:1917   .text:0000000000000a84 .LEHB9
     /tmp/cc8OAIEG.s:1920   .text:0000000000000a8c .LEHE9
     /tmp/cc8OAIEG.s:2544   .text:0000000000000db8 .LEHB10
     /tmp/cc8OAIEG.s:2524   .text:0000000000000d9c .LFB69
     /tmp/cc8OAIEG.s:2564   .text:0000000000000df0 .LEHE10
     /tmp/cc8OAIEG.s:2572   .text:0000000000000e08 .LEHB11
     /tmp/cc8OAIEG.s:2575   .text:0000000000000e10 .LEHE11
     /tmp/cc8OAIEG.s:2721   .text:0000000000000ed4 .L138
     /tmp/cc8OAIEG.s:2678   .text:0000000000000ea0 .LEHB12
     /tmp/cc8OAIEG.s:2681   .text:0000000000000ea8 .LEHE12
     /tmp/cc8OAIEG.s:2730   .text:0000000000000ee8 .LEHB13
     /tmp/cc8OAIEG.s:2733   .text:0000000000000ef0 .LEHE13
     /tmp/cc8OAIEG.s:3172   .text:000000000000109c .L166
     /tmp/cc8OAIEG.s:3231   .text:00000000000010d8 .L165
     /tmp/cc8OAIEG.s:3242   .text:00000000000010e4 .L164
     /tmp/cc8OAIEG.s:3250   .text:00000000000010f0 .L163
     /tmp/cc8OAIEG.s:3258   .text:00000000000010fc .L162
     /tmp/cc8OAIEG.s:3266   .text:0000000000001108 .L161
     /tmp/cc8OAIEG.s:3274   .text:0000000000001114 .L160
     /tmp/cc8OAIEG.s:3282   .text:0000000000001120 .L159
     /tmp/cc8OAIEG.s:3290   .text:000000000000112c .L158
     /tmp/cc8OAIEG.s:3298   .text:0000000000001138 .L157
     /tmp/cc8OAIEG.s:3306   .text:0000000000001144 .L156
     /tmp/cc8OAIEG.s:3314   .text:0000000000001150 .L155
     /tmp/cc8OAIEG.s:3322   .text:000000000000115c .L154
     /tmp/cc8OAIEG.s:3330   .text:0000000000001168 .L153
     /tmp/cc8OAIEG.s:3338   .text:0000000000001174 .L152
     /tmp/cc8OAIEG.s:3346   .text:0000000000001180 .L151
     /tmp/cc8OAIEG.s:3354   .text:000000000000118c .L150
GAS LISTING /tmp/cc8OAIEG.s 			page 127


     /tmp/cc8OAIEG.s:3362   .text:0000000000001198 .L148
     /tmp/cc8OAIEG.s:8337   .debug_abbrev:0000000000000000 .Ldebug_abbrev0
     /tmp/cc8OAIEG.s:11514  .debug_str:0000000000001532 .LASF355
     /tmp/cc8OAIEG.s:11222  .debug_str:0000000000000bcc .LASF356
     /tmp/cc8OAIEG.s:11430  .debug_str:0000000000001214 .LASF357
     /tmp/cc8OAIEG.s:5      .text:0000000000000000 .Ltext0
     /tmp/cc8OAIEG.s:3765   .text:0000000000001350 .Letext0
     /tmp/cc8OAIEG.s:10842  .debug_line:0000000000000000 .Ldebug_line0
     /tmp/cc8OAIEG.s:10890  .debug_str:000000000000018a .LASF0
     /tmp/cc8OAIEG.s:11510  .debug_str:0000000000001517 .LASF1
     /tmp/cc8OAIEG.s:11438  .debug_str:000000000000127c .LASF2
     /tmp/cc8OAIEG.s:11382  .debug_str:00000000000010a6 .LASF4
     /tmp/cc8OAIEG.s:11400  .debug_str:0000000000001137 .LASF3
     /tmp/cc8OAIEG.s:11042  .debug_str:00000000000005e4 .LASF5
     /tmp/cc8OAIEG.s:11110  .debug_str:0000000000000826 .LASF6
     /tmp/cc8OAIEG.s:11308  .debug_str:0000000000000e85 .LASF7
     /tmp/cc8OAIEG.s:10932  .debug_str:00000000000002aa .LASF8
     /tmp/cc8OAIEG.s:11494  .debug_str:000000000000144a .LASF9
     /tmp/cc8OAIEG.s:11046  .debug_str:00000000000005f6 .LASF10
     /tmp/cc8OAIEG.s:10968  .debug_str:0000000000000380 .LASF11
     /tmp/cc8OAIEG.s:11142  .debug_str:0000000000000935 .LASF12
     /tmp/cc8OAIEG.s:11058  .debug_str:0000000000000657 .LASF13
     /tmp/cc8OAIEG.s:11362  .debug_str:0000000000001020 .LASF14
     /tmp/cc8OAIEG.s:11062  .debug_str:0000000000000673 .LASF15
     /tmp/cc8OAIEG.s:11008  .debug_str:00000000000004dd .LASF16
     /tmp/cc8OAIEG.s:10944  .debug_str:00000000000002f2 .LASF132
     /tmp/cc8OAIEG.s:11116  .debug_str:000000000000086f .LASF20
     /tmp/cc8OAIEG.s:11488  .debug_str:000000000000141b .LASF17
     /tmp/cc8OAIEG.s:10882  .debug_str:0000000000000119 .LASF18
     /tmp/cc8OAIEG.s:11080  .debug_str:000000000000070a .LASF19
     /tmp/cc8OAIEG.s:11074  .debug_str:00000000000006ce .LASF21
     /tmp/cc8OAIEG.s:11030  .debug_str:000000000000059c .LASF22
     /tmp/cc8OAIEG.s:11320  .debug_str:0000000000000eeb .LASF23
     /tmp/cc8OAIEG.s:11366  .debug_str:000000000000103b .LASF24
     /tmp/cc8OAIEG.s:10880  .debug_str:000000000000010e .LASF25
     /tmp/cc8OAIEG.s:10954  .debug_str:0000000000000334 .LASF26
     /tmp/cc8OAIEG.s:11432  .debug_str:0000000000001245 .LASF27
     /tmp/cc8OAIEG.s:11406  .debug_str:0000000000001162 .LASF28
     /tmp/cc8OAIEG.s:11298  .debug_str:0000000000000e50 .LASF29
     /tmp/cc8OAIEG.s:11220  .debug_str:0000000000000ba8 .LASF31
     /tmp/cc8OAIEG.s:11100  .debug_str:00000000000007ca .LASF30
     /tmp/cc8OAIEG.s:11496  .debug_str:0000000000001458 .LASF32
     /tmp/cc8OAIEG.s:10930  .debug_str:000000000000028f .LASF33
     /tmp/cc8OAIEG.s:11128  .debug_str:00000000000008be .LASF34
     /tmp/cc8OAIEG.s:10986  .debug_str:00000000000003ff .LASF35
     /tmp/cc8OAIEG.s:11436  .debug_str:0000000000001256 .LASF36
     /tmp/cc8OAIEG.s:11240  .debug_str:0000000000000c62 .LASF37
     /tmp/cc8OAIEG.s:11276  .debug_str:0000000000000dac .LASF38
     /tmp/cc8OAIEG.s:10884  .debug_str:0000000000000126 .LASF39
     /tmp/cc8OAIEG.s:11078  .debug_str:00000000000006de .LASF40
     /tmp/cc8OAIEG.s:11094  .debug_str:000000000000079a .LASF41
     /tmp/cc8OAIEG.s:11454  .debug_str:00000000000012d9 .LASF42
     /tmp/cc8OAIEG.s:11260  .debug_str:0000000000000ce1 .LASF43
     /tmp/cc8OAIEG.s:11006  .debug_str:00000000000004ba .LASF44
     /tmp/cc8OAIEG.s:10990  .debug_str:000000000000041f .LASF45
     /tmp/cc8OAIEG.s:11464  .debug_str:0000000000001345 .LASF46
     /tmp/cc8OAIEG.s:11540  .debug_str:00000000000016a4 .LASF47
GAS LISTING /tmp/cc8OAIEG.s 			page 128


     /tmp/cc8OAIEG.s:11266  .debug_str:0000000000000d35 .LASF48
     /tmp/cc8OAIEG.s:10916  .debug_str:0000000000000221 .LASF49
     /tmp/cc8OAIEG.s:11264  .debug_str:0000000000000d10 .LASF50
     /tmp/cc8OAIEG.s:11462  .debug_str:000000000000132d .LASF51
     /tmp/cc8OAIEG.s:11084  .debug_str:000000000000073d .LASF52
     /tmp/cc8OAIEG.s:10952  .debug_str:0000000000000321 .LASF53
     /tmp/cc8OAIEG.s:11158  .debug_str:00000000000009b1 .LASF54
     /tmp/cc8OAIEG.s:11114  .debug_str:000000000000085c .LASF55
     /tmp/cc8OAIEG.s:11182  .debug_str:0000000000000a8a .LASF56
     /tmp/cc8OAIEG.s:10860  .debug_str:000000000000006e .LASF57
     /tmp/cc8OAIEG.s:11500  .debug_str:0000000000001499 .LASF58
     /tmp/cc8OAIEG.s:11538  .debug_str:000000000000168b .LASF59
     /tmp/cc8OAIEG.s:11052  .debug_str:000000000000061b .LASF60
     /tmp/cc8OAIEG.s:11070  .debug_str:00000000000006ad .LASF61
     /tmp/cc8OAIEG.s:11234  .debug_str:0000000000000c1e .LASF62
     /tmp/cc8OAIEG.s:10844  .debug_str:0000000000000000 .LASF63
     /tmp/cc8OAIEG.s:11390  .debug_str:00000000000010e7 .LASF64
     /tmp/cc8OAIEG.s:11478  .debug_str:00000000000013e6 .LASF65
     /tmp/cc8OAIEG.s:11372  .debug_str:0000000000001051 .LASF67
     /tmp/cc8OAIEG.s:11542  .debug_str:00000000000016ba .LASF69
     /tmp/cc8OAIEG.s:11338  .debug_str:0000000000000f76 .LASF71
     /tmp/cc8OAIEG.s:11342  .debug_str:0000000000000f9d .LASF66
     /tmp/cc8OAIEG.s:11460  .debug_str:0000000000001318 .LASF68
     /tmp/cc8OAIEG.s:10982  .debug_str:00000000000003e8 .LASF70
     /tmp/cc8OAIEG.s:11380  .debug_str:0000000000001093 .LASF72
     /tmp/cc8OAIEG.s:11036  .debug_str:00000000000005b4 .LASF73
     /tmp/cc8OAIEG.s:11188  .debug_str:0000000000000ab8 .LASF74
     /tmp/cc8OAIEG.s:11512  .debug_str:000000000000152a .LASF75
     /tmp/cc8OAIEG.s:11038  .debug_str:00000000000005bb .LASF76
     /tmp/cc8OAIEG.s:11352  .debug_str:0000000000000fde .LASF77
     /tmp/cc8OAIEG.s:11358  .debug_str:0000000000000ffd .LASF78
     /tmp/cc8OAIEG.s:11054  .debug_str:0000000000000641 .LASF79
     /tmp/cc8OAIEG.s:11214  .debug_str:0000000000000b83 .LASF80
     /tmp/cc8OAIEG.s:11022  .debug_str:000000000000057f .LASF81
     /tmp/cc8OAIEG.s:11278  .debug_str:0000000000000dd6 .LASF82
     /tmp/cc8OAIEG.s:11324  .debug_str:0000000000000f05 .LASF83
     /tmp/cc8OAIEG.s:11558  .debug_str:0000000000001731 .LASF84
     /tmp/cc8OAIEG.s:10920  .debug_str:0000000000000242 .LASF85
     /tmp/cc8OAIEG.s:11386  .debug_str:00000000000010c5 .LASF86
     /tmp/cc8OAIEG.s:11450  .debug_str:00000000000012bf .LASF87
     /tmp/cc8OAIEG.s:11004  .debug_str:00000000000004a7 .LASF88
     /tmp/cc8OAIEG.s:11028  .debug_str:0000000000000595 .LASF89
     /tmp/cc8OAIEG.s:11064  .debug_str:0000000000000689 .LASF90
     /tmp/cc8OAIEG.s:11440  .debug_str:000000000000128a .LASF91
     /tmp/cc8OAIEG.s:10928  .debug_str:000000000000027c .LASF92
     /tmp/cc8OAIEG.s:11106  .debug_str:0000000000000803 .LASF93
     /tmp/cc8OAIEG.s:11554  .debug_str:0000000000001705 .LASF94
     /tmp/cc8OAIEG.s:11176  .debug_str:0000000000000a6a .LASF95
     /tmp/cc8OAIEG.s:11102  .debug_str:00000000000007e0 .LASF96
     /tmp/cc8OAIEG.s:11498  .debug_str:000000000000147b .LASF97
     /tmp/cc8OAIEG.s:11016  .debug_str:000000000000052e .LASF98
     /tmp/cc8OAIEG.s:11310  .debug_str:0000000000000e98 .LASF99
     /tmp/cc8OAIEG.s:11288  .debug_str:0000000000000e16 .LASF100
     /tmp/cc8OAIEG.s:11056  .debug_str:000000000000064b .LASF101
     /tmp/cc8OAIEG.s:11262  .debug_str:0000000000000cf7 .LASF102
     /tmp/cc8OAIEG.s:11282  .debug_str:0000000000000df5 .LASF103
     /tmp/cc8OAIEG.s:11198  .debug_str:0000000000000af7 .LASF104
GAS LISTING /tmp/cc8OAIEG.s 			page 129


     /tmp/cc8OAIEG.s:11330  .debug_str:0000000000000f36 .LASF105
     /tmp/cc8OAIEG.s:11108  .debug_str:000000000000080a .LASF106
     /tmp/cc8OAIEG.s:10898  .debug_str:00000000000001a8 .LASF107
     /tmp/cc8OAIEG.s:11168  .debug_str:0000000000000a01 .LASF108
     /tmp/cc8OAIEG.s:11570  .debug_str:00000000000017a2 .LASF109
     /tmp/cc8OAIEG.s:11470  .debug_str:0000000000001392 .LASF110
     /tmp/cc8OAIEG.s:11560  .debug_str:0000000000001749 .LASF111
     /tmp/cc8OAIEG.s:11420  .debug_str:00000000000011c3 .LASF112
     /tmp/cc8OAIEG.s:11556  .debug_str:0000000000001718 .LASF113
     /tmp/cc8OAIEG.s:11274  .debug_str:0000000000000d86 .LASF114
     /tmp/cc8OAIEG.s:10858  .debug_str:0000000000000054 .LASF115
     /tmp/cc8OAIEG.s:11082  .debug_str:0000000000000716 .LASF116
     /tmp/cc8OAIEG.s:11000  .debug_str:000000000000048b .LASF117
     /tmp/cc8OAIEG.s:11502  .debug_str:00000000000014bd .LASF118
     /tmp/cc8OAIEG.s:10914  .debug_str:000000000000020a .LASF119
     /tmp/cc8OAIEG.s:11518  .debug_str:0000000000001609 .LASF120
     /tmp/cc8OAIEG.s:10904  .debug_str:00000000000001d3 .LASF121
     /tmp/cc8OAIEG.s:11466  .debug_str:0000000000001369 .LASF122
     /tmp/cc8OAIEG.s:11044  .debug_str:00000000000005eb .LASF123
     /tmp/cc8OAIEG.s:11384  .debug_str:00000000000010ad .LASF124
     /tmp/cc8OAIEG.s:11468  .debug_str:0000000000001389 .LASF125
     /tmp/cc8OAIEG.s:11312  .debug_str:0000000000000ea3 .LASF126
     /tmp/cc8OAIEG.s:11146  .debug_str:000000000000094e .LASF127
     /tmp/cc8OAIEG.s:11536  .debug_str:0000000000001678 .LASF128
     /tmp/cc8OAIEG.s:11184  .debug_str:0000000000000aaa .LASF129
     /tmp/cc8OAIEG.s:11104  .debug_str:00000000000007fe .LASF130
     /tmp/cc8OAIEG.s:11414  .debug_str:000000000000119a .LASF131
     /tmp/cc8OAIEG.s:11138  .debug_str:000000000000090a .LASF133
     /tmp/cc8OAIEG.s:11012  .debug_str:0000000000000503 .LASF249
     /tmp/cc8OAIEG.s:11200  .debug_str:0000000000000b09 .LASF134
     /tmp/cc8OAIEG.s:10940  .debug_str:00000000000002e1 .LASF135
     /tmp/cc8OAIEG.s:10894  .debug_str:000000000000019c .LASF136
     /tmp/cc8OAIEG.s:11532  .debug_str:0000000000001664 .LASF137
     /tmp/cc8OAIEG.s:11434  .debug_str:000000000000124a .LASF138
     /tmp/cc8OAIEG.s:10878  .debug_str:0000000000000101 .LASF139
     /tmp/cc8OAIEG.s:11520  .debug_str:000000000000162d .LASF140
     /tmp/cc8OAIEG.s:11060  .debug_str:0000000000000667 .LASF141
     /tmp/cc8OAIEG.s:11444  .debug_str:000000000000129e .LASF142
     /tmp/cc8OAIEG.s:11474  .debug_str:00000000000013c1 .LASF144
     /tmp/cc8OAIEG.s:11130  .debug_str:00000000000008e6 .LASF143
     /tmp/cc8OAIEG.s:11328  .debug_str:0000000000000f18 .LASF145
     /tmp/cc8OAIEG.s:11564  .debug_str:0000000000001767 .LASF146
     /tmp/cc8OAIEG.s:10888  .debug_str:000000000000014f .LASF147
     /tmp/cc8OAIEG.s:11156  .debug_str:000000000000098e .LASF148
     /tmp/cc8OAIEG.s:11530  .debug_str:0000000000001659 .LASF149
     /tmp/cc8OAIEG.s:10970  .debug_str:000000000000038f .LASF150
     /tmp/cc8OAIEG.s:11516  .debug_str:0000000000001602 .LASF151
     /tmp/cc8OAIEG.s:11112  .debug_str:0000000000000839 .LASF152
     /tmp/cc8OAIEG.s:11408  .debug_str:0000000000001173 .LASF153
     /tmp/cc8OAIEG.s:11486  .debug_str:0000000000001415 .LASF358
     /tmp/cc8OAIEG.s:11152  .debug_str:000000000000096e .LASF154
     /tmp/cc8OAIEG.s:11294  .debug_str:0000000000000e42 .LASF159
     /tmp/cc8OAIEG.s:10922  .debug_str:000000000000024d .LASF161
     /tmp/cc8OAIEG.s:11076  .debug_str:00000000000006d9 .LASF155
     /tmp/cc8OAIEG.s:11452  .debug_str:00000000000012c6 .LASF156
     /tmp/cc8OAIEG.s:11122  .debug_str:000000000000089a .LASF157
     /tmp/cc8OAIEG.s:10872  .debug_str:00000000000000d9 .LASF158
GAS LISTING /tmp/cc8OAIEG.s 			page 130


     /tmp/cc8OAIEG.s:10900  .debug_str:00000000000001bd .LASF160
     /tmp/cc8OAIEG.s:11228  .debug_str:0000000000000bf5 .LASF162
     /tmp/cc8OAIEG.s:11040  .debug_str:00000000000005cf .LASF163
     /tmp/cc8OAIEG.s:11162  .debug_str:00000000000009e4 .LASF164
     /tmp/cc8OAIEG.s:11322  .debug_str:0000000000000ef4 .LASF165
     /tmp/cc8OAIEG.s:11528  .debug_str:0000000000001652 .LASF359
     /tmp/cc8OAIEG.s:10910  .debug_str:00000000000001f8 .LASF166
     /tmp/cc8OAIEG.s:11024  .debug_str:0000000000000589 .LASF167
     /tmp/cc8OAIEG.s:11350  .debug_str:0000000000000fd9 .LASF168
     /tmp/cc8OAIEG.s:10948  .debug_str:0000000000000308 .LASF169
     /tmp/cc8OAIEG.s:11026  .debug_str:000000000000058e .LASF170
     /tmp/cc8OAIEG.s:11160  .debug_str:00000000000009d1 .LASF171
     /tmp/cc8OAIEG.s:10976  .debug_str:00000000000003d3 .LASF172
     /tmp/cc8OAIEG.s:11318  .debug_str:0000000000000ecd .LASF173
     /tmp/cc8OAIEG.s:10988  .debug_str:0000000000000418 .LASF174
     /tmp/cc8OAIEG.s:11348  .debug_str:0000000000000fc4 .LASF175
     /tmp/cc8OAIEG.s:11144  .debug_str:0000000000000945 .LASF227
     /tmp/cc8OAIEG.s:11286  .debug_str:0000000000000e01 .LASF229
     /tmp/cc8OAIEG.s:11562  .debug_str:000000000000175b .LASF176
     /tmp/cc8OAIEG.s:10994  .debug_str:000000000000044b .LASF177
     /tmp/cc8OAIEG.s:11398  .debug_str:000000000000112b .LASF178
     /tmp/cc8OAIEG.s:11258  .debug_str:0000000000000cd7 .LASF179
     /tmp/cc8OAIEG.s:11186  .debug_str:0000000000000aaf .LASF180
     /tmp/cc8OAIEG.s:10856  .debug_str:0000000000000049 .LASF181
     /tmp/cc8OAIEG.s:10996  .debug_str:0000000000000457 .LASF182
     /tmp/cc8OAIEG.s:11442  .debug_str:0000000000001291 .LASF183
     /tmp/cc8OAIEG.s:10870  .debug_str:00000000000000cf .LASF184
     /tmp/cc8OAIEG.s:11394  .debug_str:0000000000001117 .LASF185
     /tmp/cc8OAIEG.s:10962  .debug_str:000000000000035e .LASF186
     /tmp/cc8OAIEG.s:10874  .debug_str:00000000000000ef .LASF187
     /tmp/cc8OAIEG.s:11482  .debug_str:00000000000013fe .LASF188
     /tmp/cc8OAIEG.s:11376  .debug_str:0000000000001071 .LASF189
     /tmp/cc8OAIEG.s:11316  .debug_str:0000000000000ec4 .LASF190
     /tmp/cc8OAIEG.s:10862  .debug_str:0000000000000085 .LASF191
     /tmp/cc8OAIEG.s:11204  .debug_str:0000000000000b17 .LASF192
     /tmp/cc8OAIEG.s:10934  .debug_str:00000000000002ba .LASF193
     /tmp/cc8OAIEG.s:10902  .debug_str:00000000000001c9 .LASF194
     /tmp/cc8OAIEG.s:11566  .debug_str:0000000000001776 .LASF195
     /tmp/cc8OAIEG.s:11206  .debug_str:0000000000000b21 .LASF196
     /tmp/cc8OAIEG.s:11392  .debug_str:0000000000001107 .LASF197
     /tmp/cc8OAIEG.s:11172  .debug_str:0000000000000a2c .LASF198
     /tmp/cc8OAIEG.s:10918  .debug_str:0000000000000239 .LASF199
     /tmp/cc8OAIEG.s:11334  .debug_str:0000000000000f52 .LASF200
     /tmp/cc8OAIEG.s:11314  .debug_str:0000000000000eb8 .LASF201
     /tmp/cc8OAIEG.s:11270  .debug_str:0000000000000d5f .LASF202
     /tmp/cc8OAIEG.s:11154  .debug_str:0000000000000988 .LASF203
     /tmp/cc8OAIEG.s:11212  .debug_str:0000000000000b63 .LASF204
     /tmp/cc8OAIEG.s:11202  .debug_str:0000000000000b0e .LASF205
     /tmp/cc8OAIEG.s:11048  .debug_str:0000000000000605 .LASF206
     /tmp/cc8OAIEG.s:10964  .debug_str:0000000000000369 .LASF207
     /tmp/cc8OAIEG.s:11120  .debug_str:000000000000088e .LASF259
     /tmp/cc8OAIEG.s:11196  .debug_str:0000000000000af2 .LASF208
     /tmp/cc8OAIEG.s:10854  .debug_str:000000000000003d .LASF209
     /tmp/cc8OAIEG.s:11232  .debug_str:0000000000000c19 .LASF210
     /tmp/cc8OAIEG.s:11568  .debug_str:0000000000001793 .LASF211
     /tmp/cc8OAIEG.s:10876  .debug_str:00000000000000fa .LASF212
     /tmp/cc8OAIEG.s:11472  .debug_str:00000000000013b0 .LASF213
GAS LISTING /tmp/cc8OAIEG.s 			page 131


     /tmp/cc8OAIEG.s:11344  .debug_str:0000000000000fa6 .LASF214
     /tmp/cc8OAIEG.s:11190  .debug_str:0000000000000acb .LASF215
     /tmp/cc8OAIEG.s:10950  .debug_str:0000000000000319 .LASF216
     /tmp/cc8OAIEG.s:11086  .debug_str:0000000000000762 .LASF217
     /tmp/cc8OAIEG.s:11364  .debug_str:000000000000102c .LASF218
     /tmp/cc8OAIEG.s:11140  .debug_str:000000000000091a .LASF219
     /tmp/cc8OAIEG.s:11242  .debug_str:0000000000000c7f .LASF220
     /tmp/cc8OAIEG.s:10908  .debug_str:00000000000001f3 .LASF221
     /tmp/cc8OAIEG.s:11508  .debug_str:0000000000001507 .LASF222
     /tmp/cc8OAIEG.s:10978  .debug_str:00000000000003d9 .LASF223
     /tmp/cc8OAIEG.s:11148  .debug_str:0000000000000955 .LASF224
     /tmp/cc8OAIEG.s:11256  .debug_str:0000000000000cca .LASF225
     /tmp/cc8OAIEG.s:11424  .debug_str:00000000000011e7 .LASF226
     /tmp/cc8OAIEG.s:11250  .debug_str:0000000000000cb0 .LASF228
     /tmp/cc8OAIEG.s:11332  .debug_str:0000000000000f45 .LASF230
     /tmp/cc8OAIEG.s:11126  .debug_str:00000000000008b1 .LASF231
     /tmp/cc8OAIEG.s:11374  .debug_str:000000000000106b .LASF232
     /tmp/cc8OAIEG.s:11368  .debug_str:0000000000001044 .LASF233
     /tmp/cc8OAIEG.s:11244  .debug_str:0000000000000c95 .LASF234
     /tmp/cc8OAIEG.s:10852  .debug_str:0000000000000034 .LASF235
     /tmp/cc8OAIEG.s:11402  .debug_str:0000000000001149 .LASF236
     /tmp/cc8OAIEG.s:11480  .debug_str:00000000000013f2 .LASF237
     /tmp/cc8OAIEG.s:11356  .debug_str:0000000000000ff4 .LASF238
     /tmp/cc8OAIEG.s:11166  .debug_str:00000000000009fc .LASF239
     /tmp/cc8OAIEG.s:11194  .debug_str:0000000000000aeb .LASF240
     /tmp/cc8OAIEG.s:11340  .debug_str:0000000000000f8b .LASF242
     /tmp/cc8OAIEG.s:11326  .debug_str:0000000000000f10 .LASF241
     /tmp/cc8OAIEG.s:11492  .debug_str:0000000000001437 .LASF243
     /tmp/cc8OAIEG.s:11360  .debug_str:0000000000001011 .LASF244
     /tmp/cc8OAIEG.s:11118  .debug_str:000000000000087e .LASF245
     /tmp/cc8OAIEG.s:11300  .debug_str:0000000000000e67 .LASF246
     /tmp/cc8OAIEG.s:11290  .debug_str:0000000000000e2e .LASF247
     /tmp/cc8OAIEG.s:11292  .debug_str:0000000000000e3b .LASF248
     /tmp/cc8OAIEG.s:11296  .debug_str:0000000000000e48 .LASF250
     /tmp/cc8OAIEG.s:10896  .debug_str:00000000000001a1 .LASF251
     /tmp/cc8OAIEG.s:11068  .debug_str:00000000000006a5 .LASF252
     /tmp/cc8OAIEG.s:11180  .debug_str:0000000000000a84 .LASF253
     /tmp/cc8OAIEG.s:11170  .debug_str:0000000000000a23 .LASF254
     /tmp/cc8OAIEG.s:11370  .debug_str:0000000000001049 .LASF255
     /tmp/cc8OAIEG.s:11302  .debug_str:0000000000000e71 .LASF256
     /tmp/cc8OAIEG.s:10936  .debug_str:00000000000002d7 .LASF257
     /tmp/cc8OAIEG.s:11418  .debug_str:00000000000011b8 .LASF258
     /tmp/cc8OAIEG.s:10848  .debug_str:0000000000000018 .LASF260
     /tmp/cc8OAIEG.s:10974  .debug_str:00000000000003bc .LASF261
     /tmp/cc8OAIEG.s:11072  .debug_str:00000000000006c9 .LASF262
     /tmp/cc8OAIEG.s:11522  .debug_str:000000000000163a .LASF263
     /tmp/cc8OAIEG.s:11226  .debug_str:0000000000000be9 .LASF264
     /tmp/cc8OAIEG.s:11448  .debug_str:00000000000012b7 .LASF265
     /tmp/cc8OAIEG.s:10926  .debug_str:0000000000000269 .LASF266
     /tmp/cc8OAIEG.s:11088  .debug_str:0000000000000774 .LASF267
     /tmp/cc8OAIEG.s:10912  .debug_str:00000000000001fd .LASF268
     /tmp/cc8OAIEG.s:11404  .debug_str:0000000000001153 .LASF269
     /tmp/cc8OAIEG.s:11150  .debug_str:0000000000000965 .LASF270
     /tmp/cc8OAIEG.s:11236  .debug_str:0000000000000c47 .LASF271
     /tmp/cc8OAIEG.s:11552  .debug_str:00000000000016ef .LASF272
     /tmp/cc8OAIEG.s:10906  .debug_str:00000000000001e3 .LASF273
     /tmp/cc8OAIEG.s:10984  .debug_str:00000000000003ef .LASF274
GAS LISTING /tmp/cc8OAIEG.s 			page 132


     /tmp/cc8OAIEG.s:11050  .debug_str:0000000000000611 .LASF275
     /tmp/cc8OAIEG.s:10924  .debug_str:000000000000025f .LASF276
     /tmp/cc8OAIEG.s:11484  .debug_str:0000000000001407 .LASF277
     /tmp/cc8OAIEG.s:10998  .debug_str:0000000000000463 .LASF278
     /tmp/cc8OAIEG.s:10866  .debug_str:00000000000000b9 .LASF279
     /tmp/cc8OAIEG.s:11346  .debug_str:0000000000000fac .LASF280
     /tmp/cc8OAIEG.s:11238  .debug_str:0000000000000c5a .LASF281
     /tmp/cc8OAIEG.s:11136  .debug_str:0000000000000903 .LASF282
     /tmp/cc8OAIEG.s:10938  .debug_str:00000000000002dc .LASF283
     /tmp/cc8OAIEG.s:11422  .debug_str:00000000000011e2 .LASF284
     /tmp/cc8OAIEG.s:11254  .debug_str:0000000000000cc5 .LASF285
     /tmp/cc8OAIEG.s:11378  .debug_str:000000000000108d .LASF286
     /tmp/cc8OAIEG.s:10868  .debug_str:00000000000000c5 .LASF287
     /tmp/cc8OAIEG.s:11034  .debug_str:00000000000005af .LASF288
     /tmp/cc8OAIEG.s:11224  .debug_str:0000000000000be1 .LASF289
     /tmp/cc8OAIEG.s:10886  .debug_str:0000000000000145 .LASF290
     /tmp/cc8OAIEG.s:11178  .debug_str:0000000000000a7b .LASF291
     /tmp/cc8OAIEG.s:11428  .debug_str:000000000000120b .LASF292
     /tmp/cc8OAIEG.s:11246  .debug_str:0000000000000ca0 .LASF293
     /tmp/cc8OAIEG.s:11534  .debug_str:0000000000001670 .LASF294
     /tmp/cc8OAIEG.s:11546  .debug_str:00000000000016cf .LASF295
     /tmp/cc8OAIEG.s:11446  .debug_str:00000000000012a6 .LASF296
     /tmp/cc8OAIEG.s:11526  .debug_str:0000000000001649 .LASF297
     /tmp/cc8OAIEG.s:10972  .debug_str:00000000000003b2 .LASF298
     /tmp/cc8OAIEG.s:11524  .debug_str:000000000000163f .LASF299
     /tmp/cc8OAIEG.s:11412  .debug_str:0000000000001190 .LASF300
     /tmp/cc8OAIEG.s:11124  .debug_str:00000000000008a4 .LASF301
     /tmp/cc8OAIEG.s:11426  .debug_str:00000000000011f3 .LASF360
     /tmp/cc8OAIEG.s:11090  .debug_str:0000000000000780 .LASF361
     /tmp/cc8OAIEG.s:11476  .debug_str:00000000000013e0 .LASF302
     /tmp/cc8OAIEG.s:11174  .debug_str:0000000000000a50 .LASF303
     /tmp/cc8OAIEG.s:11092  .debug_str:0000000000000794 .LASF304
     /tmp/cc8OAIEG.s:11416  .debug_str:00000000000011a2 .LASF305
     /tmp/cc8OAIEG.s:11506  .debug_str:00000000000014eb .LASF306
     /tmp/cc8OAIEG.s:11354  .debug_str:0000000000000fe6 .LASF307
     /tmp/cc8OAIEG.s:11014  .debug_str:000000000000050f .LASF308
     /tmp/cc8OAIEG.s:11456  .debug_str:0000000000001300 .LASF309
     /tmp/cc8OAIEG.s:11020  .debug_str:0000000000000561 .LASF310
     /tmp/cc8OAIEG.s:11410  .debug_str:0000000000001179 .LASF311
     /tmp/cc8OAIEG.s:11210  .debug_str:0000000000000b46 .LASF312
     /tmp/cc8OAIEG.s:10850  .debug_str:0000000000000024 .LASF313
     /tmp/cc8OAIEG.s:11192  .debug_str:0000000000000adb .LASF314
     /tmp/cc8OAIEG.s:11490  .debug_str:0000000000001427 .LASF315
     /tmp/cc8OAIEG.s:10946  .debug_str:00000000000002f8 .LASF316
     /tmp/cc8OAIEG.s:11548  .debug_str:00000000000016da .LASF317
     /tmp/cc8OAIEG.s:11336  .debug_str:0000000000000f70 .LASF318
     /tmp/cc8OAIEG.s:2764   .text:0000000000000ef0 .LFB70
     /tmp/cc8OAIEG.s:2797   .text:0000000000000f1c .LFE70
     /tmp/cc8OAIEG.s:9694   .debug_loc:0000000000000000 .LLST78
     /tmp/cc8OAIEG.s:2735   .text:0000000000000ef0 .LFE69
     /tmp/cc8OAIEG.s:9707   .debug_loc:0000000000000038 .LLST74
     /tmp/cc8OAIEG.s:11164  .debug_str:00000000000009f5 .LASF319
     /tmp/cc8OAIEG.s:9726   .debug_loc:0000000000000094 .LLST75
     /tmp/cc8OAIEG.s:9737   .debug_loc:00000000000000ca .LLST76
     /tmp/cc8OAIEG.s:2581   .text:0000000000000e14 .LBB144
     /tmp/cc8OAIEG.s:2684   .text:0000000000000ea8 .LBE144
     /tmp/cc8OAIEG.s:10958  .debug_str:0000000000000348 .LASF320
GAS LISTING /tmp/cc8OAIEG.s 			page 133


     /tmp/cc8OAIEG.s:9754   .debug_loc:0000000000000115 .LLST77
     /tmp/cc8OAIEG.s:2680   .text:0000000000000ea8 .LVL231
     /tmp/cc8OAIEG.s:2546   .text:0000000000000dc0 .LVL224
     /tmp/cc8OAIEG.s:2558   .text:0000000000000de4 .LVL227
     /tmp/cc8OAIEG.s:2563   .text:0000000000000df0 .LVL228
     /tmp/cc8OAIEG.s:2574   .text:0000000000000e10 .LVL229
     /tmp/cc8OAIEG.s:2696   .text:0000000000000eb4 .LVL232
     /tmp/cc8OAIEG.s:2728   .text:0000000000000ee4 .LVL238
     /tmp/cc8OAIEG.s:2732   .text:0000000000000ef0 .LVL239
     /tmp/cc8OAIEG.s:2453   .text:0000000000000d40 .LFB68
     /tmp/cc8OAIEG.s:2518   .text:0000000000000d9c .LFE68
     /tmp/cc8OAIEG.s:11284  .debug_str:0000000000000dfb .LASF321
     /tmp/cc8OAIEG.s:9761   .debug_loc:0000000000000138 .LLST71
     /tmp/cc8OAIEG.s:9772   .debug_loc:000000000000016e .LLST72
     /tmp/cc8OAIEG.s:2491   .text:0000000000000d6c .LVL219
     /tmp/cc8OAIEG.s:2512   .text:0000000000000d8c .LVL222
     /tmp/cc8OAIEG.s:2515   .text:0000000000000d98 .LVL223
     /tmp/cc8OAIEG.s:2377   .text:0000000000000cd8 .LFB67
     /tmp/cc8OAIEG.s:2447   .text:0000000000000d40 .LFE67
     /tmp/cc8OAIEG.s:9781   .debug_loc:0000000000000193 .LLST68
     /tmp/cc8OAIEG.s:9792   .debug_loc:00000000000001c9 .LLST69
     /tmp/cc8OAIEG.s:2415   .text:0000000000000d04 .LVL211
     /tmp/cc8OAIEG.s:2436   .text:0000000000000d24 .LVL214
     /tmp/cc8OAIEG.s:2441   .text:0000000000000d30 .LVL215
     /tmp/cc8OAIEG.s:2444   .text:0000000000000d3c .LVL216
     /tmp/cc8OAIEG.s:1154   .text:00000000000006e4 .LFB66
     /tmp/cc8OAIEG.s:1200   .text:000000000000071c .LFE66
     /tmp/cc8OAIEG.s:1031   .text:0000000000000630 .LFB65
     /tmp/cc8OAIEG.s:1148   .text:00000000000006e4 .LFE65
     /tmp/cc8OAIEG.s:1055   .text:0000000000000664 .LBB128
     /tmp/cc8OAIEG.s:10806  .debug_ranges:0000000000000000 .Ldebug_ranges0
     /tmp/cc8OAIEG.s:1064   .text:0000000000000664 .LBB130
     /tmp/cc8OAIEG.s:1078   .text:000000000000066c .LBE130
     /tmp/cc8OAIEG.s:1065   .text:0000000000000664 .LBB131
     /tmp/cc8OAIEG.s:1077   .text:000000000000066c .LBE131
     /tmp/cc8OAIEG.s:9801   .debug_loc:00000000000001ee .LLST31
     /tmp/cc8OAIEG.s:1085   .text:000000000000066c .LBB133
     /tmp/cc8OAIEG.s:1100   .text:0000000000000674 .LBE133
     /tmp/cc8OAIEG.s:1086   .text:000000000000066c .LBB134
     /tmp/cc8OAIEG.s:1099   .text:0000000000000674 .LBE134
     /tmp/cc8OAIEG.s:9809   .debug_loc:0000000000000212 .LLST32
     /tmp/cc8OAIEG.s:1122   .text:00000000000006ac .LVL101
     /tmp/cc8OAIEG.s:1134   .text:00000000000006d0 .LVL102
     /tmp/cc8OAIEG.s:965    .text:00000000000005ec .LFB64
     /tmp/cc8OAIEG.s:1025   .text:0000000000000630 .LFE64
     /tmp/cc8OAIEG.s:984    .text:0000000000000610 .LBB124
     /tmp/cc8OAIEG.s:997    .text:0000000000000618 .LBE124
     /tmp/cc8OAIEG.s:9818   .debug_loc:0000000000000238 .LLST30
     /tmp/cc8OAIEG.s:1010   .text:0000000000000624 .LBB126
     /tmp/cc8OAIEG.s:1023   .text:0000000000000630 .LBE126
     /tmp/cc8OAIEG.s:2335   .text:0000000000000ca4 .LFB63
     /tmp/cc8OAIEG.s:2371   .text:0000000000000cd8 .LFE63
     /tmp/cc8OAIEG.s:9827   .debug_loc:000000000000025e .LLST67
     /tmp/cc8OAIEG.s:2349   .text:0000000000000cbc .LVL207
     /tmp/cc8OAIEG.s:2360   .text:0000000000000cc8 .LVL208
     /tmp/cc8OAIEG.s:853    .text:0000000000000564 .LFB62
     /tmp/cc8OAIEG.s:959    .text:00000000000005ec .LFE62
GAS LISTING /tmp/cc8OAIEG.s 			page 134


     /tmp/cc8OAIEG.s:9834   .debug_loc:0000000000000281 .LLST27
     /tmp/cc8OAIEG.s:9848   .debug_loc:00000000000002ba .LLST28
     /tmp/cc8OAIEG.s:909    .text:00000000000005a0 .LBB121
     /tmp/cc8OAIEG.s:955    .text:00000000000005ec .LBE121
     /tmp/cc8OAIEG.s:11248  .debug_str:0000000000000cab .LASF322
     /tmp/cc8OAIEG.s:9855   .debug_loc:00000000000002dd .LLST29
     /tmp/cc8OAIEG.s:913    .text:00000000000005a8 .LVL92
     /tmp/cc8OAIEG.s:873    .text:0000000000000580 .LVL88
     /tmp/cc8OAIEG.s:800    .text:0000000000000514 .LFB61
     /tmp/cc8OAIEG.s:847    .text:0000000000000564 .LFE61
     /tmp/cc8OAIEG.s:9862   .debug_loc:0000000000000300 .LLST26
     /tmp/cc8OAIEG.s:836    .text:0000000000000554 .LVL85
     /tmp/cc8OAIEG.s:2244   .text:0000000000000c0c .LFB60
     /tmp/cc8OAIEG.s:2329   .text:0000000000000ca4 .LFE60
     /tmp/cc8OAIEG.s:9869   .debug_loc:0000000000000323 .LLST66
     /tmp/cc8OAIEG.s:2272   .text:0000000000000c48 .LVL197
     /tmp/cc8OAIEG.s:2293   .text:0000000000000c68 .LVL200
     /tmp/cc8OAIEG.s:2314   .text:0000000000000c88 .LVL203
     /tmp/cc8OAIEG.s:2319   .text:0000000000000c94 .LVL204
     /tmp/cc8OAIEG.s:2326   .text:0000000000000ca0 .LVL206
     /tmp/cc8OAIEG.s:2164   .text:0000000000000b94 .LFB59
     /tmp/cc8OAIEG.s:2238   .text:0000000000000c0c .LFE59
     /tmp/cc8OAIEG.s:10960  .debug_str:0000000000000358 .LASF323
     /tmp/cc8OAIEG.s:9884   .debug_loc:000000000000036c .LLST65
     /tmp/cc8OAIEG.s:2203   .text:0000000000000bd8 .LVL193
     /tmp/cc8OAIEG.s:2211   .text:0000000000000be8 .LVL194
     /tmp/cc8OAIEG.s:2224   .text:0000000000000bf8 .LVL195
     /tmp/cc8OAIEG.s:2099   .text:0000000000000b4c .LFB58
     /tmp/cc8OAIEG.s:2158   .text:0000000000000b94 .LFE58
     /tmp/cc8OAIEG.s:11018  .debug_str:0000000000000559 .LASF324
     /tmp/cc8OAIEG.s:9891   .debug_loc:000000000000038f .LLST63
     /tmp/cc8OAIEG.s:9902   .debug_loc:00000000000003c5 .LLST64
     /tmp/cc8OAIEG.s:2136   .text:0000000000000b74 .LVL189
     /tmp/cc8OAIEG.s:2153   .text:0000000000000b8c .LVL191
     /tmp/cc8OAIEG.s:2022   .text:0000000000000aec .LFB57
     /tmp/cc8OAIEG.s:2093   .text:0000000000000b4c .LFE57
     /tmp/cc8OAIEG.s:9919   .debug_loc:0000000000000410 .LLST61
     /tmp/cc8OAIEG.s:9930   .debug_loc:0000000000000446 .LLST62
     /tmp/cc8OAIEG.s:2068   .text:0000000000000b28 .LVL183
     /tmp/cc8OAIEG.s:2085   .text:0000000000000b40 .LVL185
     /tmp/cc8OAIEG.s:1947   .text:0000000000000a8c .LFB56
     /tmp/cc8OAIEG.s:2016   .text:0000000000000aec .LFE56
     /tmp/cc8OAIEG.s:9947   .debug_loc:0000000000000491 .LLST58
     /tmp/cc8OAIEG.s:9958   .debug_loc:00000000000004c7 .LLST60
     /tmp/cc8OAIEG.s:1987   .text:0000000000000ab8 .LVL175
     /tmp/cc8OAIEG.s:2008   .text:0000000000000ad8 .LVL178
     /tmp/cc8OAIEG.s:2011   .text:0000000000000ae4 .LVL179
     /tmp/cc8OAIEG.s:1922   .text:0000000000000a8c .LFE55
     /tmp/cc8OAIEG.s:9975   .debug_loc:0000000000000512 .LLST54
     /tmp/cc8OAIEG.s:11208  .debug_str:0000000000000b40 .LASF325
     /tmp/cc8OAIEG.s:9986   .debug_loc:0000000000000548 .LLST55
     /tmp/cc8OAIEG.s:9997   .debug_loc:000000000000057e .LLST56
     /tmp/cc8OAIEG.s:10008  .debug_loc:00000000000005b4 .LLST57
     /tmp/cc8OAIEG.s:1851   .text:0000000000000a20 .LVL161
     /tmp/cc8OAIEG.s:1859   .text:0000000000000a34 .LVL162
     /tmp/cc8OAIEG.s:1882   .text:0000000000000a4c .LVL164
     /tmp/cc8OAIEG.s:1915   .text:0000000000000a80 .LVL171
GAS LISTING /tmp/cc8OAIEG.s 			page 135


     /tmp/cc8OAIEG.s:1919   .text:0000000000000a8c .LVL172
     /tmp/cc8OAIEG.s:760    .text:00000000000004d8 .LFB54
     /tmp/cc8OAIEG.s:794    .text:0000000000000514 .LFE54
     /tmp/cc8OAIEG.s:10025  .debug_loc:00000000000005ff .LLST25
     /tmp/cc8OAIEG.s:783    .text:0000000000000504 .LVL83
     /tmp/cc8OAIEG.s:1739   .text:0000000000000998 .LFB53
     /tmp/cc8OAIEG.s:1806   .text:00000000000009f0 .LFE53
     /tmp/cc8OAIEG.s:10032  .debug_loc:0000000000000622 .LLST52
     /tmp/cc8OAIEG.s:1759   .text:00000000000009b8 .LBB141
     /tmp/cc8OAIEG.s:1770   .text:00000000000009c8 .LBE141
     /tmp/cc8OAIEG.s:10049  .debug_loc:000000000000066d .LLST53
     /tmp/cc8OAIEG.s:1769   .text:00000000000009c8 .LVL155
     /tmp/cc8OAIEG.s:1786   .text:00000000000009d8 .LVL157
     /tmp/cc8OAIEG.s:1665   .text:0000000000000940 .LFB52
     /tmp/cc8OAIEG.s:1733   .text:0000000000000998 .LFE52
     /tmp/cc8OAIEG.s:10056  .debug_loc:0000000000000690 .LLST49
     /tmp/cc8OAIEG.s:10067  .debug_loc:00000000000006c6 .LLST51
     /tmp/cc8OAIEG.s:1703   .text:0000000000000968 .LVL149
     /tmp/cc8OAIEG.s:1724   .text:0000000000000988 .LVL151
     /tmp/cc8OAIEG.s:1728   .text:0000000000000990 .LVL152
     /tmp/cc8OAIEG.s:1640   .text:0000000000000940 .LFE51
     /tmp/cc8OAIEG.s:11132  .debug_str:00000000000008ec .LASF326
     /tmp/cc8OAIEG.s:10084  .debug_loc:0000000000000711 .LLST43
     /tmp/cc8OAIEG.s:11098  .debug_str:00000000000007c4 .LASF327
     /tmp/cc8OAIEG.s:10095  .debug_loc:0000000000000747 .LLST44
     /tmp/cc8OAIEG.s:10106  .debug_loc:000000000000077d .LLST45
     /tmp/cc8OAIEG.s:11550  .debug_str:00000000000016e8 .LASF328
     /tmp/cc8OAIEG.s:10117  .debug_loc:00000000000007b3 .LLST46
     /tmp/cc8OAIEG.s:10128  .debug_loc:00000000000007e9 .LLST47
     /tmp/cc8OAIEG.s:10139  .debug_loc:000000000000081f .LLST48
     /tmp/cc8OAIEG.s:1554   .text:00000000000008b8 .LVL133
     /tmp/cc8OAIEG.s:1565   .text:00000000000008d8 .LVL134
     /tmp/cc8OAIEG.s:1594   .text:00000000000008f8 .LVL136
     /tmp/cc8OAIEG.s:1633   .text:0000000000000934 .LVL145
     /tmp/cc8OAIEG.s:1637   .text:0000000000000940 .LVL146
     /tmp/cc8OAIEG.s:1469   .text:0000000000000878 .LFE50
     /tmp/cc8OAIEG.s:10156  .debug_loc:000000000000086a .LLST37
     /tmp/cc8OAIEG.s:10167  .debug_loc:00000000000008a0 .LLST38
     /tmp/cc8OAIEG.s:10178  .debug_loc:00000000000008d6 .LLST39
     /tmp/cc8OAIEG.s:10189  .debug_loc:000000000000090c .LLST40
     /tmp/cc8OAIEG.s:10200  .debug_loc:0000000000000942 .LLST41
     /tmp/cc8OAIEG.s:10211  .debug_loc:0000000000000978 .LLST42
     /tmp/cc8OAIEG.s:1376   .text:00000000000007e4 .LVL114
     /tmp/cc8OAIEG.s:1387   .text:0000000000000804 .LVL115
     /tmp/cc8OAIEG.s:1403   .text:000000000000081c .LVL116
     /tmp/cc8OAIEG.s:1423   .text:0000000000000830 .LVL118
     /tmp/cc8OAIEG.s:1462   .text:000000000000086c .LVL127
     /tmp/cc8OAIEG.s:1466   .text:0000000000000878 .LVL128
     /tmp/cc8OAIEG.s:1257   .text:0000000000000754 .LFB49
     /tmp/cc8OAIEG.s:1315   .text:00000000000007a4 .LFE49
     /tmp/cc8OAIEG.s:10228  .debug_loc:00000000000009c3 .LLST35
     /tmp/cc8OAIEG.s:10235  .debug_loc:00000000000009e6 .LLST36
     /tmp/cc8OAIEG.s:1287   .text:0000000000000784 .LVL107
     /tmp/cc8OAIEG.s:1311   .text:00000000000007a0 .LVL109
     /tmp/cc8OAIEG.s:1206   .text:000000000000071c .LFB48
     /tmp/cc8OAIEG.s:1251   .text:0000000000000754 .LFE48
     /tmp/cc8OAIEG.s:10246  .debug_loc:0000000000000a1c .LLST33
GAS LISTING /tmp/cc8OAIEG.s 			page 136


     /tmp/cc8OAIEG.s:11272  .debug_str:0000000000000d81 .LASF329
     /tmp/cc8OAIEG.s:10253  .debug_loc:0000000000000a3f .LLST34
     /tmp/cc8OAIEG.s:1229   .text:0000000000000738 .LVL104
     /tmp/cc8OAIEG.s:1240   .text:0000000000000744 .LVL105
     /tmp/cc8OAIEG.s:2820   .text:0000000000000f1c .LFB47
     /tmp/cc8OAIEG.s:3738   .text:0000000000001350 .LFE47
     /tmp/cc8OAIEG.s:11268  .debug_str:0000000000000d58 .LASF330
     /tmp/cc8OAIEG.s:10980  .debug_str:00000000000003de .LASF331
     /tmp/cc8OAIEG.s:10260  .debug_loc:0000000000000a62 .LLST91
     /tmp/cc8OAIEG.s:3004   .text:0000000000001044 .LBB193
     /tmp/cc8OAIEG.s:3017   .text:0000000000001048 .LBE193
     /tmp/cc8OAIEG.s:3021   .text:000000000000104c .LBB195
     /tmp/cc8OAIEG.s:3034   .text:0000000000001050 .LBE195
     /tmp/cc8OAIEG.s:3186   .text:00000000000010b4 .LBB197
     /tmp/cc8OAIEG.s:3197   .text:00000000000010b8 .LBE197
     /tmp/cc8OAIEG.s:10267  .debug_loc:0000000000000a85 .LLST92
     /tmp/cc8OAIEG.s:3202   .text:00000000000010bc .LBB199
     /tmp/cc8OAIEG.s:3214   .text:00000000000010c0 .LBE199
     /tmp/cc8OAIEG.s:10274  .debug_loc:0000000000000aa8 .LLST93
     /tmp/cc8OAIEG.s:3177   .text:00000000000010a4 .LVL257
     /tmp/cc8OAIEG.s:3239   .text:00000000000010e0 .LVL263
     /tmp/cc8OAIEG.s:3247   .text:00000000000010ec .LVL264
     /tmp/cc8OAIEG.s:3255   .text:00000000000010f8 .LVL265
     /tmp/cc8OAIEG.s:3263   .text:0000000000001104 .LVL266
     /tmp/cc8OAIEG.s:3271   .text:0000000000001110 .LVL267
     /tmp/cc8OAIEG.s:3279   .text:000000000000111c .LVL268
     /tmp/cc8OAIEG.s:3287   .text:0000000000001128 .LVL269
     /tmp/cc8OAIEG.s:3295   .text:0000000000001134 .LVL270
     /tmp/cc8OAIEG.s:3303   .text:0000000000001140 .LVL271
     /tmp/cc8OAIEG.s:3311   .text:000000000000114c .LVL272
     /tmp/cc8OAIEG.s:3319   .text:0000000000001158 .LVL273
     /tmp/cc8OAIEG.s:3327   .text:0000000000001164 .LVL274
     /tmp/cc8OAIEG.s:3335   .text:0000000000001170 .LVL275
     /tmp/cc8OAIEG.s:3343   .text:000000000000117c .LVL276
     /tmp/cc8OAIEG.s:3351   .text:0000000000001188 .LVL277
     /tmp/cc8OAIEG.s:3359   .text:0000000000001194 .LVL278
     /tmp/cc8OAIEG.s:3376   .text:00000000000011b0 .LVL279
     /tmp/cc8OAIEG.s:3380   .text:00000000000011b8 .LVL280
     /tmp/cc8OAIEG.s:3386   .text:00000000000011bc .LBB175
     /tmp/cc8OAIEG.s:3517   .text:000000000000124c .LBE175
     /tmp/cc8OAIEG.s:3498   .text:000000000000122c .LBB183
     /tmp/cc8OAIEG.s:3513   .text:0000000000001248 .LBE183
     /tmp/cc8OAIEG.s:10281  .debug_loc:0000000000000acb .LLST88
     /tmp/cc8OAIEG.s:3512   .text:0000000000001248 .LVL291
     /tmp/cc8OAIEG.s:3388   .text:00000000000011bc .LBB176
     /tmp/cc8OAIEG.s:3401   .text:00000000000011c0 .LBE176
     /tmp/cc8OAIEG.s:3405   .text:00000000000011c4 .LBB178
     /tmp/cc8OAIEG.s:3418   .text:00000000000011c8 .LBE178
     /tmp/cc8OAIEG.s:3423   .text:00000000000011cc .LBB180
     /tmp/cc8OAIEG.s:3435   .text:00000000000011d4 .LBE180
     /tmp/cc8OAIEG.s:10288  .debug_loc:0000000000000aee .LLST87
     /tmp/cc8OAIEG.s:3466   .text:000000000000121c .LBB184
     /tmp/cc8OAIEG.s:3477   .text:0000000000001220 .LBE184
     /tmp/cc8OAIEG.s:10296  .debug_loc:0000000000000b12 .LLST89
     /tmp/cc8OAIEG.s:3482   .text:0000000000001224 .LBB186
     /tmp/cc8OAIEG.s:3496   .text:000000000000122c .LBE186
     /tmp/cc8OAIEG.s:10303  .debug_loc:0000000000000b35 .LLST90
GAS LISTING /tmp/cc8OAIEG.s 			page 137


     /tmp/cc8OAIEG.s:3445   .text:00000000000011f0 .LVL285
     /tmp/cc8OAIEG.s:3519   .text:000000000000124c .LBB160
     /tmp/cc8OAIEG.s:3679   .text:00000000000012e8 .LBE160
     /tmp/cc8OAIEG.s:10310  .debug_loc:0000000000000b58 .LLST82
     /tmp/cc8OAIEG.s:10317  .debug_loc:0000000000000b7b .LLST83
     /tmp/cc8OAIEG.s:10324  .debug_loc:0000000000000b9e .LLST84
     /tmp/cc8OAIEG.s:3673   .text:00000000000012e4 .LVL307
     /tmp/cc8OAIEG.s:3521   .text:000000000000124c .LBB161
     /tmp/cc8OAIEG.s:3534   .text:0000000000001250 .LBE161
     /tmp/cc8OAIEG.s:3538   .text:0000000000001254 .LBB163
     /tmp/cc8OAIEG.s:3551   .text:0000000000001258 .LBE163
     /tmp/cc8OAIEG.s:3632   .text:00000000000012bc .LBB168
     /tmp/cc8OAIEG.s:3643   .text:00000000000012c0 .LBE168
     /tmp/cc8OAIEG.s:10335  .debug_loc:0000000000000bd4 .LLST85
     /tmp/cc8OAIEG.s:3648   .text:00000000000012c4 .LBB170
     /tmp/cc8OAIEG.s:3662   .text:00000000000012cc .LBE170
     /tmp/cc8OAIEG.s:10342  .debug_loc:0000000000000bf7 .LLST86
     /tmp/cc8OAIEG.s:3625   .text:00000000000012b0 .LVL301
     /tmp/cc8OAIEG.s:3627   .text:00000000000012b8 .LVL302
     /tmp/cc8OAIEG.s:3681   .text:00000000000012e8 .LBB157
     /tmp/cc8OAIEG.s:3731   .text:000000000000134c .LBE157
     /tmp/cc8OAIEG.s:10349  .debug_loc:0000000000000c1a .LLST81
     /tmp/cc8OAIEG.s:3697   .text:000000000000130c .LBB158
     /tmp/cc8OAIEG.s:3709   .text:0000000000001310 .LBE158
     /tmp/cc8OAIEG.s:3695   .text:000000000000130c .LVL310
     /tmp/cc8OAIEG.s:3716   .text:0000000000001324 .LVL311
     /tmp/cc8OAIEG.s:3721   .text:0000000000001334 .LVL312
     /tmp/cc8OAIEG.s:3726   .text:0000000000001344 .LVL313
     /tmp/cc8OAIEG.s:3730   .text:000000000000134c .LVL314
     /tmp/cc8OAIEG.s:2910   .text:0000000000000f9c .LBB152
     /tmp/cc8OAIEG.s:2998   .text:0000000000001044 .LBE152
     /tmp/cc8OAIEG.s:10356  .debug_loc:0000000000000c3d .LLST79
     /tmp/cc8OAIEG.s:10363  .debug_loc:0000000000000c60 .LLST80
     /tmp/cc8OAIEG.s:2922   .text:0000000000000fbc .LBB153
     /tmp/cc8OAIEG.s:2938   .text:0000000000000fc8 .LBE153
     /tmp/cc8OAIEG.s:2953   .text:0000000000000fec .LBB155
     /tmp/cc8OAIEG.s:2965   .text:0000000000000ff0 .LBE155
     /tmp/cc8OAIEG.s:2915   .text:0000000000000fac .LVL242
     /tmp/cc8OAIEG.s:2920   .text:0000000000000fbc .LVL243
     /tmp/cc8OAIEG.s:2946   .text:0000000000000fdc .LVL246
     /tmp/cc8OAIEG.s:2951   .text:0000000000000fec .LVL247
     /tmp/cc8OAIEG.s:2972   .text:0000000000001004 .LVL248
     /tmp/cc8OAIEG.s:2977   .text:0000000000001014 .LVL249
     /tmp/cc8OAIEG.s:2991   .text:0000000000001038 .LVL251
     /tmp/cc8OAIEG.s:2995   .text:0000000000001040 .LVL252
     /tmp/cc8OAIEG.s:2832   .text:0000000000000f2c .LBB146
     /tmp/cc8OAIEG.s:2847   .text:0000000000000f38 .LBE146
     /tmp/cc8OAIEG.s:3220   .text:00000000000010c8 .LVL262
     /tmp/cc8OAIEG.s:695    .text:0000000000000490 .LFB46
     /tmp/cc8OAIEG.s:754    .text:00000000000004d8 .LFE46
     /tmp/cc8OAIEG.s:10370  .debug_loc:0000000000000c83 .LLST24
     /tmp/cc8OAIEG.s:660    .text:0000000000000470 .LFB45
     /tmp/cc8OAIEG.s:689    .text:0000000000000490 .LFE45
     /tmp/cc8OAIEG.s:238    .text:0000000000000134 .LFB44
     /tmp/cc8OAIEG.s:654    .text:0000000000000470 .LFE44
     /tmp/cc8OAIEG.s:10966  .debug_str:0000000000000375 .LASF332
     /tmp/cc8OAIEG.s:11002  .debug_str:00000000000004a1 .LASF333
GAS LISTING /tmp/cc8OAIEG.s 			page 138


     /tmp/cc8OAIEG.s:11230  .debug_str:0000000000000c0e .LASF334
     /tmp/cc8OAIEG.s:11458  .debug_str:000000000000130d .LASF335
     /tmp/cc8OAIEG.s:10846  .debug_str:0000000000000013 .LASF336
     /tmp/cc8OAIEG.s:10383  .debug_loc:0000000000000cbb .LLST12
     /tmp/cc8OAIEG.s:330    .text:00000000000001e0 .LBB101
     /tmp/cc8OAIEG.s:354    .text:0000000000000210 .LBE101
     /tmp/cc8OAIEG.s:10414  .debug_loc:0000000000000d2b .LLST13
     /tmp/cc8OAIEG.s:344    .text:0000000000000204 .LVL39
     /tmp/cc8OAIEG.s:355    .text:0000000000000210 .LBB102
     /tmp/cc8OAIEG.s:374    .text:0000000000000238 .LBE102
     /tmp/cc8OAIEG.s:10428  .debug_loc:0000000000000d64 .LLST14
     /tmp/cc8OAIEG.s:364    .text:000000000000022c .LVL42
     /tmp/cc8OAIEG.s:375    .text:0000000000000238 .LBB103
     /tmp/cc8OAIEG.s:393    .text:0000000000000260 .LBE103
     /tmp/cc8OAIEG.s:10435  .debug_loc:0000000000000d87 .LLST15
     /tmp/cc8OAIEG.s:384    .text:0000000000000254 .LVL45
     /tmp/cc8OAIEG.s:394    .text:0000000000000260 .LBB104
     /tmp/cc8OAIEG.s:416    .text:000000000000028c .LBE104
     /tmp/cc8OAIEG.s:10442  .debug_loc:0000000000000daa .LLST16
     /tmp/cc8OAIEG.s:407    .text:0000000000000280 .LVL48
     /tmp/cc8OAIEG.s:417    .text:000000000000028c .LBB105
     /tmp/cc8OAIEG.s:442    .text:00000000000002c4 .LBE105
     /tmp/cc8OAIEG.s:10449  .debug_loc:0000000000000dcd .LLST17
     /tmp/cc8OAIEG.s:432    .text:00000000000002b8 .LVL51
     /tmp/cc8OAIEG.s:443    .text:00000000000002c4 .LBB106
     /tmp/cc8OAIEG.s:471    .text:000000000000030c .LBE106
     /tmp/cc8OAIEG.s:10456  .debug_loc:0000000000000df0 .LLST18
     /tmp/cc8OAIEG.s:461    .text:0000000000000300 .LVL54
     /tmp/cc8OAIEG.s:472    .text:000000000000030c .LBB107
     /tmp/cc8OAIEG.s:490    .text:000000000000033c .LBE107
     /tmp/cc8OAIEG.s:10463  .debug_loc:0000000000000e13 .LLST19
     /tmp/cc8OAIEG.s:479    .text:0000000000000324 .LVL57
     /tmp/cc8OAIEG.s:263    .text:0000000000000160 .LBB99
     /tmp/cc8OAIEG.s:275    .text:0000000000000164 .LBE99
     /tmp/cc8OAIEG.s:493    .text:000000000000033c .LBB108
     /tmp/cc8OAIEG.s:505    .text:0000000000000344 .LBE108
     /tmp/cc8OAIEG.s:10470  .debug_loc:0000000000000e36 .LLST20
     /tmp/cc8OAIEG.s:584    .text:0000000000000438 .LBB110
     /tmp/cc8OAIEG.s:585    .text:0000000000000438 .LBB111
     /tmp/cc8OAIEG.s:598    .text:0000000000000440 .LBE111
     /tmp/cc8OAIEG.s:10480  .debug_loc:0000000000000e5c .LLST21
     /tmp/cc8OAIEG.s:602    .text:0000000000000440 .LBB113
     /tmp/cc8OAIEG.s:615    .text:0000000000000448 .LBE113
     /tmp/cc8OAIEG.s:10488  .debug_loc:0000000000000e80 .LLST22
     /tmp/cc8OAIEG.s:619    .text:0000000000000448 .LBB115
     /tmp/cc8OAIEG.s:630    .text:000000000000044c .LBE115
     /tmp/cc8OAIEG.s:10497  .debug_loc:0000000000000ea6 .LLST23
     /tmp/cc8OAIEG.s:286    .text:0000000000000188 .LVL27
     /tmp/cc8OAIEG.s:290    .text:0000000000000190 .LVL28
     /tmp/cc8OAIEG.s:294    .text:0000000000000198 .LVL29
     /tmp/cc8OAIEG.s:298    .text:00000000000001a0 .LVL30
     /tmp/cc8OAIEG.s:302    .text:00000000000001a8 .LVL31
     /tmp/cc8OAIEG.s:306    .text:00000000000001b0 .LVL32
     /tmp/cc8OAIEG.s:310    .text:00000000000001b8 .LVL33
     /tmp/cc8OAIEG.s:515    .text:0000000000000368 .LVL62
     /tmp/cc8OAIEG.s:523    .text:0000000000000384 .LVL63
     /tmp/cc8OAIEG.s:531    .text:00000000000003a0 .LVL64
GAS LISTING /tmp/cc8OAIEG.s 			page 139


     /tmp/cc8OAIEG.s:539    .text:00000000000003b8 .LVL65
     /tmp/cc8OAIEG.s:547    .text:00000000000003d8 .LVL66
     /tmp/cc8OAIEG.s:555    .text:00000000000003f8 .LVL67
     /tmp/cc8OAIEG.s:564    .text:0000000000000420 .LVL68
     /tmp/cc8OAIEG.s:66     .text:000000000000004c .LFB43
     /tmp/cc8OAIEG.s:221    .text:0000000000000134 .LFE43
     /tmp/cc8OAIEG.s:10505  .debug_loc:0000000000000eca .LLST1
     /tmp/cc8OAIEG.s:10530  .debug_loc:0000000000000f2c .LLST2
     /tmp/cc8OAIEG.s:11216  .debug_str:0000000000000b99 .LASF337
     /tmp/cc8OAIEG.s:10555  .debug_loc:0000000000000f8e .LLST3
     /tmp/cc8OAIEG.s:11388  .debug_str:00000000000010dd .LASF338
     /tmp/cc8OAIEG.s:10581  .debug_loc:0000000000001000 .LLST4
     /tmp/cc8OAIEG.s:11032  .debug_str:00000000000005a5 .LASF339
     /tmp/cc8OAIEG.s:10634  .debug_loc:0000000000001091 .LLST5
     /tmp/cc8OAIEG.s:11396  .debug_str:0000000000001121 .LASF340
     /tmp/cc8OAIEG.s:10669  .debug_loc:00000000000010ff .LLST6
     /tmp/cc8OAIEG.s:11280  .debug_str:0000000000000dec .LASF341
     /tmp/cc8OAIEG.s:10701  .debug_loc:000000000000116a .LLST7
     /tmp/cc8OAIEG.s:10892  .debug_str:0000000000000197 .LASF342
     /tmp/cc8OAIEG.s:10712  .debug_loc:00000000000011a0 .LLST8
     /tmp/cc8OAIEG.s:11304  .debug_str:0000000000000e76 .LASF343
     /tmp/cc8OAIEG.s:10733  .debug_loc:00000000000011fe .LLST9
     /tmp/cc8OAIEG.s:11252  .debug_str:0000000000000cc0 .LASF344
     /tmp/cc8OAIEG.s:10749  .debug_loc:0000000000001248 .LLST10
     /tmp/cc8OAIEG.s:11066  .debug_str:000000000000069c .LASF345
     /tmp/cc8OAIEG.s:10770  .debug_loc:00000000000012a6 .LLST11
     /tmp/cc8OAIEG.s:193    .text:0000000000000104 .LVL22
     /tmp/cc8OAIEG.s:209    .text:0000000000000120 .LVL24
     /tmp/cc8OAIEG.s:10     .text:0000000000000000 .LFB42
     /tmp/cc8OAIEG.s:60     .text:000000000000004c .LFE42
     /tmp/cc8OAIEG.s:29     .text:000000000000001c .LBB98
     /tmp/cc8OAIEG.s:49     .text:000000000000003c .LBE98
     /tmp/cc8OAIEG.s:10777  .debug_loc:00000000000012c9 .LLST0
     /tmp/cc8OAIEG.s:26     .text:000000000000001c .LVL0
     /tmp/cc8OAIEG.s:11306  .debug_str:0000000000000e7f .LASF346
     /tmp/cc8OAIEG.s:10942  .debug_str:00000000000002e6 .LASF347
     /tmp/cc8OAIEG.s:10956  .debug_str:0000000000000339 .LASF362
     /tmp/cc8OAIEG.s:10864  .debug_str:00000000000000a1 .LASF363
     /tmp/cc8OAIEG.s:11544  .debug_str:00000000000016c3 .LASF348
     /tmp/cc8OAIEG.s:10992  .debug_str:0000000000000436 .LASF349
     /tmp/cc8OAIEG.s:11010  .debug_str:00000000000004f3 .LASF350
     /tmp/cc8OAIEG.s:11504  .debug_str:00000000000014e0 .LASF351
     /tmp/cc8OAIEG.s:11134  .debug_str:00000000000008f5 .LASF352
     /tmp/cc8OAIEG.s:11096  .debug_str:00000000000007b4 .LASF353
     /tmp/cc8OAIEG.s:11218  .debug_str:0000000000000b9e .LASF354
     /tmp/cc8OAIEG.s:2780   .text:0000000000000f00 .LVL240
     /tmp/cc8OAIEG.s:2785   .text:0000000000000f04 .LVL241
     /tmp/cc8OAIEG.s:2548   .text:0000000000000dc4 .LVL225
     /tmp/cc8OAIEG.s:2556   .text:0000000000000ddc .LVL226
     /tmp/cc8OAIEG.s:2612   .text:0000000000000e60 .LVL230
     /tmp/cc8OAIEG.s:2712   .text:0000000000000ecc .LVL234
     /tmp/cc8OAIEG.s:2723   .text:0000000000000ed8 .LVL237
     /tmp/cc8OAIEG.s:2718   .text:0000000000000ed0 .LVL235
     /tmp/cc8OAIEG.s:2706   .text:0000000000000ec0 .LVL233
     /tmp/cc8OAIEG.s:2720   .text:0000000000000ed4 .LVL236
     /tmp/cc8OAIEG.s:2473   .text:0000000000000d58 .LVL217
     /tmp/cc8OAIEG.s:2501   .text:0000000000000d78 .LVL220
GAS LISTING /tmp/cc8OAIEG.s 			page 140


     /tmp/cc8OAIEG.s:2505   .text:0000000000000d80 .LVL221
     /tmp/cc8OAIEG.s:2479   .text:0000000000000d5c .LVL218
     /tmp/cc8OAIEG.s:2397   .text:0000000000000cf0 .LVL209
     /tmp/cc8OAIEG.s:2425   .text:0000000000000d10 .LVL212
     /tmp/cc8OAIEG.s:2429   .text:0000000000000d18 .LVL213
     /tmp/cc8OAIEG.s:2403   .text:0000000000000cf4 .LVL210
     /tmp/cc8OAIEG.s:1061   .text:0000000000000664 .LVL98
     /tmp/cc8OAIEG.s:1074   .text:000000000000066c .LVL99
     /tmp/cc8OAIEG.s:1095   .text:0000000000000674 .LVL100
     /tmp/cc8OAIEG.s:983    .text:0000000000000610 .LVL95
     /tmp/cc8OAIEG.s:993    .text:0000000000000618 .LVL96
     /tmp/cc8OAIEG.s:856    .text:0000000000000564 .LVL86
     /tmp/cc8OAIEG.s:866    .text:0000000000000578 .LVL87
     /tmp/cc8OAIEG.s:883    .text:000000000000058c .LVL89
     /tmp/cc8OAIEG.s:906    .text:000000000000059c .LVL91
     /tmp/cc8OAIEG.s:920    .text:00000000000005b8 .LVL93
     /tmp/cc8OAIEG.s:931    .text:00000000000005c0 .LVL94
     /tmp/cc8OAIEG.s:830    .text:0000000000000548 .LVL84
     /tmp/cc8OAIEG.s:2274   .text:0000000000000c4c .LVL198
     /tmp/cc8OAIEG.s:2281   .text:0000000000000c5c .LVL199
     /tmp/cc8OAIEG.s:2306   .text:0000000000000c7c .LVL201
     /tmp/cc8OAIEG.s:2312   .text:0000000000000c80 .LVL202
     /tmp/cc8OAIEG.s:2321   .text:0000000000000c98 .LVL205
     /tmp/cc8OAIEG.s:2189   .text:0000000000000bb8 .LVL192
     /tmp/cc8OAIEG.s:2233   .text:0000000000000c04 .LVL196
     /tmp/cc8OAIEG.s:2117   .text:0000000000000b60 .LVL187
     /tmp/cc8OAIEG.s:2124   .text:0000000000000b68 .LVL188
     /tmp/cc8OAIEG.s:2147   .text:0000000000000b84 .LVL190
     /tmp/cc8OAIEG.s:2040   .text:0000000000000b00 .LVL180
     /tmp/cc8OAIEG.s:2045   .text:0000000000000b04 .LVL181
     /tmp/cc8OAIEG.s:2079   .text:0000000000000b38 .LVL184
     /tmp/cc8OAIEG.s:2057   .text:0000000000000b1c .LVL182
     /tmp/cc8OAIEG.s:2087   .text:0000000000000b44 .LVL186
     /tmp/cc8OAIEG.s:1967   .text:0000000000000aa4 .LVL173
     /tmp/cc8OAIEG.s:1997   .text:0000000000000ac4 .LVL176
     /tmp/cc8OAIEG.s:2001   .text:0000000000000acc .LVL177
     /tmp/cc8OAIEG.s:1976   .text:0000000000000aac .LVL174
     /tmp/cc8OAIEG.s:1838   .text:0000000000000a10 .LVL159
     /tmp/cc8OAIEG.s:1895   .text:0000000000000a5c .LVL166
     /tmp/cc8OAIEG.s:1902   .text:0000000000000a68 .LVL168
     /tmp/cc8OAIEG.s:1911   .text:0000000000000a74 .LVL170
     /tmp/cc8OAIEG.s:1844   .text:0000000000000a14 .LVL160
     /tmp/cc8OAIEG.s:1898   .text:0000000000000a60 .LVL167
     /tmp/cc8OAIEG.s:1892   .text:0000000000000a58 .LVL165
     /tmp/cc8OAIEG.s:1908   .text:0000000000000a70 .LVL169
     /tmp/cc8OAIEG.s:1871   .text:0000000000000a40 .LVL163
     /tmp/cc8OAIEG.s:775    .text:00000000000004f4 .LVL82
     /tmp/cc8OAIEG.s:1751   .text:00000000000009a8 .LVL153
     /tmp/cc8OAIEG.s:1775   .text:00000000000009cc .LVL156
     /tmp/cc8OAIEG.s:1797   .text:00000000000009e8 .LVL158
     /tmp/cc8OAIEG.s:1761   .text:00000000000009b8 .LVL154
     /tmp/cc8OAIEG.s:1683   .text:0000000000000954 .LVL147
     /tmp/cc8OAIEG.s:1691   .text:000000000000095c .LVL148
     /tmp/cc8OAIEG.s:1714   .text:0000000000000978 .LVL150
     /tmp/cc8OAIEG.s:1541   .text:00000000000008a8 .LVL131
     /tmp/cc8OAIEG.s:1610   .text:000000000000090c .LVL139
     /tmp/cc8OAIEG.s:1620   .text:000000000000091c .LVL142
GAS LISTING /tmp/cc8OAIEG.s 			page 141


     /tmp/cc8OAIEG.s:1547   .text:00000000000008ac .LVL132
     /tmp/cc8OAIEG.s:1607   .text:0000000000000908 .LVL138
     /tmp/cc8OAIEG.s:1629   .text:0000000000000928 .LVL144
     /tmp/cc8OAIEG.s:1535   .text:00000000000008a4 .LVL130
     /tmp/cc8OAIEG.s:1613   .text:0000000000000910 .LVL140
     /tmp/cc8OAIEG.s:1529   .text:00000000000008a0 .LVL129
     /tmp/cc8OAIEG.s:1616   .text:0000000000000914 .LVL141
     /tmp/cc8OAIEG.s:1604   .text:0000000000000904 .LVL137
     /tmp/cc8OAIEG.s:1626   .text:0000000000000924 .LVL143
     /tmp/cc8OAIEG.s:1583   .text:00000000000008ec .LVL135
     /tmp/cc8OAIEG.s:1363   .text:00000000000007d4 .LVL112
     /tmp/cc8OAIEG.s:1439   .text:0000000000000844 .LVL121
     /tmp/cc8OAIEG.s:1449   .text:0000000000000854 .LVL124
     /tmp/cc8OAIEG.s:1369   .text:00000000000007d8 .LVL113
     /tmp/cc8OAIEG.s:1442   .text:0000000000000848 .LVL122
     /tmp/cc8OAIEG.s:1357   .text:00000000000007d0 .LVL111
     /tmp/cc8OAIEG.s:1436   .text:0000000000000840 .LVL120
     /tmp/cc8OAIEG.s:1458   .text:0000000000000860 .LVL126
     /tmp/cc8OAIEG.s:1351   .text:00000000000007cc .LVL110
     /tmp/cc8OAIEG.s:1445   .text:000000000000084c .LVL123
     /tmp/cc8OAIEG.s:1433   .text:000000000000083c .LVL119
     /tmp/cc8OAIEG.s:1455   .text:000000000000085c .LVL125
     /tmp/cc8OAIEG.s:1412   .text:0000000000000824 .LVL117
     /tmp/cc8OAIEG.s:1306   .text:0000000000000798 .LVL108
     /tmp/cc8OAIEG.s:1276   .text:0000000000000778 .LVL106
     /tmp/cc8OAIEG.s:1224   .text:0000000000000730 .LVL103
     /tmp/cc8OAIEG.s:3057   .text:0000000000001078 .LVL255
     /tmp/cc8OAIEG.s:3063   .text:0000000000001084 .LVL256
     /tmp/cc8OAIEG.s:3185   .text:00000000000010b4 .LVL258
     /tmp/cc8OAIEG.s:3194   .text:00000000000010b8 .LVL259
     /tmp/cc8OAIEG.s:3201   .text:00000000000010bc .LVL260
     /tmp/cc8OAIEG.s:3210   .text:00000000000010c0 .LVL261
     /tmp/cc8OAIEG.s:3504   .text:0000000000001238 .LVL290
     /tmp/cc8OAIEG.s:3422   .text:00000000000011cc .LVL283
     /tmp/cc8OAIEG.s:3432   .text:00000000000011d4 .LVL284
     /tmp/cc8OAIEG.s:3465   .text:000000000000121c .LVL286
     /tmp/cc8OAIEG.s:3474   .text:0000000000001220 .LVL287
     /tmp/cc8OAIEG.s:3481   .text:0000000000001224 .LVL288
     /tmp/cc8OAIEG.s:3493   .text:000000000000122c .LVL289
     /tmp/cc8OAIEG.s:3558   .text:0000000000001268 .LVL294
     /tmp/cc8OAIEG.s:3581   .text:0000000000001278 .LVL296
     /tmp/cc8OAIEG.s:3591   .text:0000000000001288 .LVL297
     /tmp/cc8OAIEG.s:3614   .text:00000000000012a0 .LVL299
     /tmp/cc8OAIEG.s:3610   .text:0000000000001298 .LVL298
     /tmp/cc8OAIEG.s:3618   .text:00000000000012a8 .LVL300
     /tmp/cc8OAIEG.s:3659   .text:00000000000012cc .LVL306
     /tmp/cc8OAIEG.s:3631   .text:00000000000012bc .LVL303
     /tmp/cc8OAIEG.s:3640   .text:00000000000012c0 .LVL304
     /tmp/cc8OAIEG.s:3647   .text:00000000000012c4 .LVL305
     /tmp/cc8OAIEG.s:3686   .text:00000000000012f4 .LVL309
     /tmp/cc8OAIEG.s:2936   .text:0000000000000fc8 .LVL244
     /tmp/cc8OAIEG.s:2944   .text:0000000000000fd4 .LVL245
     /tmp/cc8OAIEG.s:2982   .text:0000000000001020 .LVL250
     /tmp/cc8OAIEG.s:705    .text:000000000000049c .LVL78
     /tmp/cc8OAIEG.s:717    .text:00000000000004bc .LVL79
     /tmp/cc8OAIEG.s:742    .text:00000000000004d0 .LVL81
     /tmp/cc8OAIEG.s:573    .text:0000000000000434 .LVL69
GAS LISTING /tmp/cc8OAIEG.s 			page 142


     /tmp/cc8OAIEG.s:590    .text:000000000000043c .LVL71
     /tmp/cc8OAIEG.s:607    .text:0000000000000444 .LVL73
     /tmp/cc8OAIEG.s:328    .text:00000000000001e0 .LVL37
     /tmp/cc8OAIEG.s:334    .text:00000000000001e8 .LVL38
     /tmp/cc8OAIEG.s:645    .text:0000000000000460 .LVL77
     /tmp/cc8OAIEG.s:353    .text:0000000000000210 .LVL41
     /tmp/cc8OAIEG.s:420    .text:0000000000000290 .LVL50
     /tmp/cc8OAIEG.s:373    .text:0000000000000238 .LVL44
     /tmp/cc8OAIEG.s:397    .text:0000000000000264 .LVL47
     /tmp/cc8OAIEG.s:440    .text:00000000000002c4 .LVL53
     /tmp/cc8OAIEG.s:642    .text:000000000000045c .LVL76
     /tmp/cc8OAIEG.s:469    .text:000000000000030c .LVL56
     /tmp/cc8OAIEG.s:509    .text:000000000000034c .LVL61
     /tmp/cc8OAIEG.s:492    .text:000000000000033c .LVL59
     /tmp/cc8OAIEG.s:502    .text:0000000000000344 .LVL60
     /tmp/cc8OAIEG.s:582    .text:0000000000000438 .LVL70
     /tmp/cc8OAIEG.s:595    .text:0000000000000440 .LVL72
     /tmp/cc8OAIEG.s:612    .text:0000000000000448 .LVL74
     /tmp/cc8OAIEG.s:627    .text:000000000000044c .LVL75
     /tmp/cc8OAIEG.s:69     .text:000000000000004c .LVL4
     /tmp/cc8OAIEG.s:122    .text:00000000000000a0 .LVL10
     /tmp/cc8OAIEG.s:187    .text:00000000000000fc .LVL21
     /tmp/cc8OAIEG.s:125    .text:00000000000000a4 .LVL11
     /tmp/cc8OAIEG.s:163    .text:00000000000000d4 .LVL20
     /tmp/cc8OAIEG.s:94     .text:000000000000007c .LVL5
     /tmp/cc8OAIEG.s:111    .text:0000000000000090 .LVL8
     /tmp/cc8OAIEG.s:101    .text:0000000000000084 .LVL6
     /tmp/cc8OAIEG.s:130    .text:00000000000000a8 .LVL12
     /tmp/cc8OAIEG.s:204    .text:0000000000000118 .LVL23
     /tmp/cc8OAIEG.s:107    .text:000000000000008c .LVL7
     /tmp/cc8OAIEG.s:149    .text:00000000000000c0 .LVL16
     /tmp/cc8OAIEG.s:160    .text:00000000000000d0 .LVL19
     /tmp/cc8OAIEG.s:115    .text:0000000000000098 .LVL9
     /tmp/cc8OAIEG.s:134    .text:00000000000000b0 .LVL13
     /tmp/cc8OAIEG.s:141    .text:00000000000000b8 .LVL14
     /tmp/cc8OAIEG.s:144    .text:00000000000000bc .LVL15
     /tmp/cc8OAIEG.s:151    .text:00000000000000c4 .LVL17
     /tmp/cc8OAIEG.s:154    .text:00000000000000c8 .LVL18
     /tmp/cc8OAIEG.s:32     .text:0000000000000020 .LVL1
     /tmp/cc8OAIEG.s:45     .text:0000000000000038 .LVL2
     /tmp/cc8OAIEG.s:47     .text:000000000000003c .LVL3
     /tmp/cc8OAIEG.s:3779   .debug_info:0000000000000000 .Ldebug_info0
     /tmp/cc8OAIEG.s:599    .text:0000000000000440 .LBE110
     /tmp/cc8OAIEG.s:601    .text:0000000000000440 .LBB117
     /tmp/cc8OAIEG.s:616    .text:0000000000000448 .LBE117
     /tmp/cc8OAIEG.s:618    .text:0000000000000448 .LBB118
     /tmp/cc8OAIEG.s:631    .text:000000000000044c .LBE118
     /tmp/cc8OAIEG.s:868    .text:0000000000000578 .LBB119
     /tmp/cc8OAIEG.s:876    .text:0000000000000580 .LBE119
     /tmp/cc8OAIEG.s:878    .text:0000000000000580 .LBB123
     /tmp/cc8OAIEG.s:957    .text:00000000000005ec .LBE123
     /tmp/cc8OAIEG.s:1059   .text:0000000000000664 .LBE128
     /tmp/cc8OAIEG.s:1062   .text:0000000000000664 .LBB138
     /tmp/cc8OAIEG.s:1081   .text:000000000000066c .LBE138
     /tmp/cc8OAIEG.s:1083   .text:000000000000066c .LBB139
     /tmp/cc8OAIEG.s:1102   .text:0000000000000674 .LBE139
     /tmp/cc8OAIEG.s:3584   .text:000000000000127c .LBB166
GAS LISTING /tmp/cc8OAIEG.s 			page 143


     /tmp/cc8OAIEG.s:3620   .text:00000000000012a8 .LBE166
     /tmp/cc8OAIEG.s:3664   .text:00000000000012cc .LBB167
     /tmp/cc8OAIEG.s:3677   .text:00000000000012e8 .LBE167
     /tmp/cc8OAIEG.s:3002   .text:0000000000001044 .LBB192
     /tmp/cc8OAIEG.s:3215   .text:00000000000010c0 .LBE192
     /tmp/cc8OAIEG.s:3234   .text:00000000000010d8 .LBB201
     /tmp/cc8OAIEG.s:3384   .text:00000000000011bc .LBE201
     /tmp/cc8OAIEG.s:1472   .gcc_except_table:0000000000000000 .LLSDA50
     /tmp/cc8OAIEG.s:1642   .gcc_except_table:0000000000000038 .LLSDA51
     /tmp/cc8OAIEG.s:1924   .gcc_except_table:0000000000000063 .LLSDA55
     /tmp/cc8OAIEG.s:2737   .gcc_except_table:000000000000008e .LLSDA69

UNDEFINED SYMBOLS
_ZN5Buddy5allocEm
_ZN5RiscV14supervisorTrapEv
HEAP_START_ADDR
_Z9kmem_initPvi
_ZN15MemoryAllocator10initializeEv
_ZN9Scheduler10initializeEv
_ZN3TCB10initializeEv
_ZN3SCB10initializeEv
_ZN11ConsoleUtil10initializeEv
userTextStart
etext
kernelTextStart
kernelDataStart
_ZN5Buddy16BLOCKS_AVAILABLEE
_ZN5Buddy16BUDDY_START_ADDRE
HEAP_END_ADDR
CONSOLE_RX_DATA
CONSOLE_TX_DATA
CONSOLE_STATUS
_ZN11ConsoleUtil5printEPKciS1_i
_ZN3TCB7runningE
_ZN10TCBWrapper7tcbWrapEP3TCB
_ZN3TCB8dispatchEv
_ZN11ConsoleUtil11pendingPutcE
_ZN11ConsoleUtil9putOutputEc
_Z15thread_dispatchv
_ZN11ConsoleUtil15putcUtilSyscallEv
_ZN11ConsoleUtil11pendingGetcE
_ZN9Scheduler9readyHeadE
_ZN3TCB10putcThreadE
_ZN9Scheduler3putEP3TCB
_ZN11ConsoleUtil10outputHeadE
_ZN11ConsoleUtil10outputTailE
_ZN15MemoryAllocator7kmallocEm
_ZN15MemoryAllocator11initializedE
_ZN15MemoryAllocator5kfreeEPv
_ZN3TCBnwEm
_ZN3TCBC1EPFvPvES0_Pmm
_ZN3TCBdlEPv
_Unwind_Resume
__gxx_personality_v0
_ZN3SCBnwEm
_ZN3SCBC1Em
_ZN3SCBdlEPv
GAS LISTING /tmp/cc8OAIEG.s 			page 144


_ZN3SCBD1Ev
_ZN3SCB4waitEv
_ZN3SCB6signalEv
_ZN9Scheduler5sleepEP3TCB
_ZN11ConsoleUtil8getInputEv
_ZN11ConsoleUtil9getOutputEv
_Z5kfreePKv
_ZN3TCBD1Ev
_Z7kmallocm
_ZN15MemoryAllocator6memcpyEPvS0_m
_ZN3TCB9currentPCE
_ZN3TCB9currentSPE
_ZN11ConsoleUtil11printStringEPKc
_ZN11ConsoleUtil8printIntEiii
_ZN9Scheduler5awakeEv
_ZN3TCB16timeSliceCounterE
plic_claim
plic_complete
_ZN11ConsoleUtil8putInputEc
