GAS LISTING /tmp/ccxUk6vw.s 			page 1


   1              		.file	"riscv.cpp"
   2              		.option pic
   3              		.option norelax
   4              		.text
   5              	.Ltext0:
   6              		.align	2
   7              		.globl	_ZN5RiscV10popSppSpieEv
   9              	_ZN5RiscV10popSppSpieEv:
  10              	.LFB48:
  11              		.file 1 "src/kernel/riscv.cpp"
   1:src/kernel/riscv.cpp **** //
   2:src/kernel/riscv.cpp **** // Created by os on 4/28/22.
   3:src/kernel/riscv.cpp **** //
   4:src/kernel/riscv.cpp **** 
   5:src/kernel/riscv.cpp **** #include "../../h/kernel/riscv.hpp"
   6:src/kernel/riscv.cpp **** #include "../../h/kernel/memory_allocator.hpp"
   7:src/kernel/riscv.cpp **** #include "../../h/kernel/tcb.hpp"
   8:src/kernel/riscv.cpp **** #include "../../h/kernel/scheduler.hpp"
   9:src/kernel/riscv.cpp **** #include "../../h/user/printing.hpp"
  10:src/kernel/riscv.cpp **** #include "../../h/kernel/scb.hpp"
  11:src/kernel/riscv.cpp **** #include "../../h/user/user_wrappers.hpp"
  12:src/kernel/riscv.cpp **** 
  13:src/kernel/riscv.cpp **** uint64 RiscV::globalTime = 0;
  14:src/kernel/riscv.cpp **** bool RiscV::userMainFinished = false;
  15:src/kernel/riscv.cpp **** void* RiscV::kPMT = nullptr;
  16:src/kernel/riscv.cpp **** void* RiscV::uPMT = nullptr;
  17:src/kernel/riscv.cpp **** bool RiscV::initialized = false;
  18:src/kernel/riscv.cpp **** 
  19:src/kernel/riscv.cpp **** //initailize each of the key components and switch to user mode for user code execution
  20:src/kernel/riscv.cpp **** void RiscV::initialize(){
  21:src/kernel/riscv.cpp ****     RiscV::w_stvec((uint64) &RiscV::supervisorTrap);
  22:src/kernel/riscv.cpp ****     kmem_init(BUDDY_START_ADDR_CONST, 4096);
  23:src/kernel/riscv.cpp ****     MemoryAllocator::initialize();
  24:src/kernel/riscv.cpp ****     Scheduler::initialize();
  25:src/kernel/riscv.cpp ****     TCB::initialize();
  26:src/kernel/riscv.cpp ****     SCB::initialize();
  27:src/kernel/riscv.cpp ****     ConsoleUtil::initialize();
  28:src/kernel/riscv.cpp ****     RiscV::buildKernelPMT();
  29:src/kernel/riscv.cpp ****     RiscV::buildUserPMT();
  30:src/kernel/riscv.cpp ****     RiscV::initialized = true;
  31:src/kernel/riscv.cpp ****     RiscV::startVirtualMemory(RiscV::kPMT);
  32:src/kernel/riscv.cpp ****     RiscV::enableInterrupts();
  33:src/kernel/riscv.cpp **** }
  34:src/kernel/riscv.cpp **** 
  35:src/kernel/riscv.cpp **** //get previous privilege and previous interrupt status
  36:src/kernel/riscv.cpp **** void RiscV::popSppSpie() {
  12              		.loc 1 36 26
  13              		.cfi_startproc
  14 0000 130101FF 		addi	sp,sp,-16
  15              		.cfi_def_cfa_offset 16
  16 0004 23348100 		sd	s0,8(sp)
  17              		.cfi_offset 8, -8
  18 0008 13040101 		addi	s0,sp,16
  19              		.cfi_def_cfa 8, 0
  37:src/kernel/riscv.cpp ****     if(TCB::running->mode == TCB::Mode::SUPERVISOR)
  20              		.loc 1 37 5
  21              		.loc 1 37 22 is_stmt 0
GAS LISTING /tmp/ccxUk6vw.s 			page 2


  22 000c 97070000 		la	a5,_ZN3TCB7runningE
  22      83B70700 
  23 0014 83B70700 		ld	a5,0(a5)
  24 0018 83A64701 		lw	a3,20(a5)
  25              		.loc 1 37 5
  26 001c 13071000 		li	a4,1
  27 0020 6388E602 		beq	a3,a4,.L5
  38:src/kernel/riscv.cpp ****         asm("csrw sepc, ra");
  39:src/kernel/riscv.cpp ****     else{
  40:src/kernel/riscv.cpp ****         asm("mv a0, %[iarg]" : : [iarg] "r" (TCB::running->body));
  28              		.loc 1 40 9 is_stmt 1
  29              		.loc 1 40 60 is_stmt 0
  30 0024 03B78701 		ld	a4,24(a5)
  31              		.loc 1 40 66
  32              	#APP
  33              	# 40 "src/kernel/riscv.cpp" 1
  41              	        asm("mv a1, %[iarg]" : : [iarg] "r" (TCB::running->args));
  34              		mv a0, a4
  35              	# 0 "" 2
  36              		.loc 1 41 9 is_stmt 1
  37              		.loc 1 41 60 is_stmt 0
  38              	#NO_APP
  39 002c 83B70702 		ld	a5,32(a5)
  40              		.loc 1 41 66
  41              	#APP
  42              	# 41 "src/kernel/riscv.cpp" 1
  42              	        asm("csrw sepc, %[ra]" : : [ra] "r" ((uint64)bodyWrapper));
  43              		mv a1, a5
  44              	# 0 "" 2
  45              		.loc 1 42 9 is_stmt 1
  46              		.loc 1 42 67 is_stmt 0
  47              	#NO_APP
  48 0034 97070000 		la	a5,_Z11bodyWrapperPFvPvES_
  48      83B70700 
  49              	#APP
  50              	# 42 "src/kernel/riscv.cpp" 1
  43              	    }
  51              		csrw sepc, a5
  52              	# 0 "" 2
  53              	#NO_APP
  54              	.L3:
  44:src/kernel/riscv.cpp ****     asm("sret");
  55              		.loc 1 44 5 is_stmt 1
  56              		.loc 1 44 16 is_stmt 0
  57              	#APP
  58              	# 44 "src/kernel/riscv.cpp" 1
  45              	}
  59              		sret
  60              	# 0 "" 2
  61              		.loc 1 45 1
  62              	#NO_APP
  63 0044 03348100 		ld	s0,8(sp)
  64              		.cfi_remember_state
  65              		.cfi_restore 8
  66              		.cfi_def_cfa 2, 16
  67 0048 13010101 		addi	sp,sp,16
  68              		.cfi_def_cfa_offset 0
GAS LISTING /tmp/ccxUk6vw.s 			page 3


  69 004c 67800000 		jr	ra
  70              	.L5:
  71              		.cfi_restore_state
  38:src/kernel/riscv.cpp ****         asm("csrw sepc, ra");
  72              		.loc 1 38 9 is_stmt 1
  38:src/kernel/riscv.cpp ****         asm("csrw sepc, ra");
  73              		.loc 1 38 29 is_stmt 0
  74              	#APP
  75              	# 38 "src/kernel/riscv.cpp" 1
  76              		csrw sepc, ra
  77              	# 0 "" 2
  78              	#NO_APP
  79 0054 6FF0DFFE 		j	.L3
  80              		.cfi_endproc
  81              	.LFE48:
  83              		.align	2
  84              		.globl	_ZN5RiscV28executeThreadDispatchSyscallEv
  86              	_ZN5RiscV28executeThreadDispatchSyscallEv:
  87              	.LFB56:
  46:src/kernel/riscv.cpp **** 
  47:src/kernel/riscv.cpp **** //handler function for traps
  48:src/kernel/riscv.cpp **** void RiscV::handleSupervisorTrap() {
  49:src/kernel/riscv.cpp **** 
  50:src/kernel/riscv.cpp ****     //read scause
  51:src/kernel/riscv.cpp ****     uint64 stval;
  52:src/kernel/riscv.cpp ****     asm("csrr %[stval], stval" : [stval] "=r" (stval));
  53:src/kernel/riscv.cpp ****     uint64 volatile scause = RiscV::r_scause();
  54:src/kernel/riscv.cpp **** 
  55:src/kernel/riscv.cpp ****     asm("csrr %[sscratch], sscratch" : [sscratch] "=r" (TCB::running->a0Location));
  56:src/kernel/riscv.cpp **** 
  57:src/kernel/riscv.cpp ****     if(scause == 0x09 || scause == 0x08) {
  58:src/kernel/riscv.cpp **** 
  59:src/kernel/riscv.cpp ****         //save sstatus and sepc
  60:src/kernel/riscv.cpp ****         //sepc should be increased by 4, since this is an ecall trap
  61:src/kernel/riscv.cpp ****         uint64 volatile sstatus = RiscV::r_sstatus();
  62:src/kernel/riscv.cpp ****         uint64 volatile sepc = RiscV::r_sepc()+4;
  63:src/kernel/riscv.cpp ****         TCB::running->sepc = sepc;
  64:src/kernel/riscv.cpp ****         TCB::running->sstatus = sstatus;
  65:src/kernel/riscv.cpp **** 
  66:src/kernel/riscv.cpp ****         //get the syscall ID from a0
  67:src/kernel/riscv.cpp ****         uint64 syscallID;
  68:src/kernel/riscv.cpp ****         asm("mv %[syscallID], a0" : [syscallID] "=r" (syscallID));
  69:src/kernel/riscv.cpp **** 
  70:src/kernel/riscv.cpp ****         switch(syscallID){
  71:src/kernel/riscv.cpp ****             case 0x01 : executeMemAllocSyscall();break;
  72:src/kernel/riscv.cpp ****             case 0x02 : executeMemFreeSyscall();break;
  73:src/kernel/riscv.cpp ****             case 0x11 : executeThreadCreateSyscall();break;
  74:src/kernel/riscv.cpp ****             case 0x12 : executeThreadExitSyscall();break;
  75:src/kernel/riscv.cpp ****             case 0x13 : executeThreadDispatchSyscall();break;
  76:src/kernel/riscv.cpp ****             case 0x14 : executeThreadAttachBodySyscall();break;
  77:src/kernel/riscv.cpp ****             case 0x15 : executeThreadStartSyscall();break;
  78:src/kernel/riscv.cpp ****             case 0x21 : executeSemOpenSyscall();break;
  79:src/kernel/riscv.cpp ****             case 0x22 : executeSemCloseSyscall();break;
  80:src/kernel/riscv.cpp ****             case 0x23 : executeSemWaitSyscall();break;
  81:src/kernel/riscv.cpp ****             case 0x24 : executeSemSignalSyscall();break;
  82:src/kernel/riscv.cpp ****             case 0x31 : executeTimeSleepSyscall();break;
  83:src/kernel/riscv.cpp ****             case 0x41 : executeGetcSyscall();break;
GAS LISTING /tmp/ccxUk6vw.s 			page 4


  84:src/kernel/riscv.cpp ****             case 0x42 : executePutcSyscall();break;
  85:src/kernel/riscv.cpp ****             case 0x43 : executePutcUtilSyscall();break;
  86:src/kernel/riscv.cpp ****             case 0x51 : executeThreadFreeSyscall();break;
  87:src/kernel/riscv.cpp ****             case 0x52 : executeSemaphoreFreeSyscall();break;
  88:src/kernel/riscv.cpp ****             //in this case we need to save SP and PC at this point so that newly created thread
  89:src/kernel/riscv.cpp ****             //can return to this point and exit trap routine regularly
  90:src/kernel/riscv.cpp ****             //note that getPC() returns PC incremented by 8 to skip executeForkSyscall
  91:src/kernel/riscv.cpp ****             case 0x61 : asm("mv %[sp], sp" : [sp] "=r"(TCB::currentSP));
  92:src/kernel/riscv.cpp ****                         RiscV::getPC();
  93:src/kernel/riscv.cpp ****                         executeForkSyscall();
  94:src/kernel/riscv.cpp ****                         break;
  95:src/kernel/riscv.cpp ****         }
  96:src/kernel/riscv.cpp **** 
  97:src/kernel/riscv.cpp ****         //write previously save sstatus and incremented sepc
  98:src/kernel/riscv.cpp ****         RiscV::w_sstatus(TCB::running->sstatus);
  99:src/kernel/riscv.cpp ****         RiscV::w_sepc(TCB::running->sepc);
 100:src/kernel/riscv.cpp ****     }
 101:src/kernel/riscv.cpp **** 
 102:src/kernel/riscv.cpp ****     //timer interrupt (in this system's implementation, timer tick is manifested as software interr
 103:src/kernel/riscv.cpp ****     else if(scause == (0x01UL<<63 | 0x1)){
 104:src/kernel/riscv.cpp **** 
 105:src/kernel/riscv.cpp ****         //save sstatus and sepc
 106:src/kernel/riscv.cpp ****         //this time sepc remains the same
 107:src/kernel/riscv.cpp ****         uint64 volatile sstatus = RiscV::r_sstatus();
 108:src/kernel/riscv.cpp ****         uint64 volatile sepc = RiscV::r_sepc();
 109:src/kernel/riscv.cpp **** 
 110:src/kernel/riscv.cpp ****         //clear the SIP bit for software interrupt
 111:src/kernel/riscv.cpp ****         mc_sip(SIP_SSIE);
 112:src/kernel/riscv.cpp **** 
 113:src/kernel/riscv.cpp **** 
 114:src/kernel/riscv.cpp ****         //increase global time and try to awake threads that are asleep
 115:src/kernel/riscv.cpp ****         globalTime += 1;
 116:src/kernel/riscv.cpp ****         Scheduler::awake();
 117:src/kernel/riscv.cpp **** 
 118:src/kernel/riscv.cpp ****         //check whether time slice has run out for running thread
 119:src/kernel/riscv.cpp ****         //if so, dispatch
 120:src/kernel/riscv.cpp ****         TCB::timeSliceCounter++;
 121:src/kernel/riscv.cpp ****         if(TCB::timeSliceCounter >= TCB::running->timeSlice) {
 122:src/kernel/riscv.cpp **** 
 123:src/kernel/riscv.cpp ****             TCB::timeSliceCounter = 0;
 124:src/kernel/riscv.cpp **** 
 125:src/kernel/riscv.cpp ****             TCB* old = TCB::running;
 126:src/kernel/riscv.cpp **** 
 127:src/kernel/riscv.cpp ****             old->status = TCB::Status::READY;
 128:src/kernel/riscv.cpp **** 
 129:src/kernel/riscv.cpp ****             TCB::dispatch();
 130:src/kernel/riscv.cpp ****         }
 131:src/kernel/riscv.cpp **** 
 132:src/kernel/riscv.cpp ****         //write previously save sstatus and sepc
 133:src/kernel/riscv.cpp ****         RiscV::w_sstatus(sstatus);
 134:src/kernel/riscv.cpp ****         RiscV::w_sepc(sepc);
 135:src/kernel/riscv.cpp ****     }
 136:src/kernel/riscv.cpp **** 
 137:src/kernel/riscv.cpp ****     //hardware interrupt, from console (note that here we only check for keyboard interrupts, handl
 138:src/kernel/riscv.cpp ****     else if(scause == (0x01UL<<63 | 0x9)){
 139:src/kernel/riscv.cpp ****         //save sstatus and sepc
 140:src/kernel/riscv.cpp ****         //this time sepc remains the same
GAS LISTING /tmp/ccxUk6vw.s 			page 5


 141:src/kernel/riscv.cpp ****         uint64 volatile sstatus = RiscV::r_sstatus();
 142:src/kernel/riscv.cpp ****         uint64 volatile sepc = RiscV::r_sepc();
 143:src/kernel/riscv.cpp **** 
 144:src/kernel/riscv.cpp ****         //get the console status register location, and console status reg value
 145:src/kernel/riscv.cpp ****         uint64 status = CONSOLE_STATUS;
 146:src/kernel/riscv.cpp ****         asm("mv a0, %[status]" : : [status] "r" (status));
 147:src/kernel/riscv.cpp ****         asm("lb a1, 0(a0)");
 148:src/kernel/riscv.cpp ****         asm("mv %[status], a1" : [status] "=r" (status));
 149:src/kernel/riscv.cpp **** 
 150:src/kernel/riscv.cpp ****         //if keyboard is ready to send data
 151:src/kernel/riscv.cpp ****         if(status & 1UL)
 152:src/kernel/riscv.cpp ****         {
 153:src/kernel/riscv.cpp ****             //fetch the character from CONSOLE_TX_DATA register
 154:src/kernel/riscv.cpp ****             uint64 data;
 155:src/kernel/riscv.cpp ****             char c;
 156:src/kernel/riscv.cpp ****             data = CONSOLE_TX_DATA;
 157:src/kernel/riscv.cpp ****             asm("mv a0, %[data]" : : [data] "r" (data));
 158:src/kernel/riscv.cpp ****             asm("lb a1, 0(a0)");
 159:src/kernel/riscv.cpp ****             asm("mv %[c], a1" : [c] "=r" (c));
 160:src/kernel/riscv.cpp **** 
 161:src/kernel/riscv.cpp ****             //if there was a getc request put the character into the input buffer, othrewise ignore
 162:src/kernel/riscv.cpp ****             if(ConsoleUtil::pendingGetc!=0) {
 163:src/kernel/riscv.cpp ****                 ConsoleUtil::pendingGetc--;
 164:src/kernel/riscv.cpp ****                 ConsoleUtil::putInput(c);
 165:src/kernel/riscv.cpp ****             }
 166:src/kernel/riscv.cpp ****         }
 167:src/kernel/riscv.cpp ****         plic_complete(plic_claim());
 168:src/kernel/riscv.cpp **** 
 169:src/kernel/riscv.cpp ****         RiscV::w_sstatus(sstatus);
 170:src/kernel/riscv.cpp ****         RiscV::w_sepc(sepc);
 171:src/kernel/riscv.cpp ****     }
 172:src/kernel/riscv.cpp **** 
 173:src/kernel/riscv.cpp ****     //illegal instruction, exit running thread
 174:src/kernel/riscv.cpp ****     else if(scause == 0x02){
 175:src/kernel/riscv.cpp ****         TCB* old = TCB::running;
 176:src/kernel/riscv.cpp ****         old->status = TCB::Status::FINISHED;
 177:src/kernel/riscv.cpp ****         ConsoleUtil::printString("sepc: ");
 178:src/kernel/riscv.cpp ****         uint64 sepc = RiscV::r_sepc();
 179:src/kernel/riscv.cpp ****         ConsoleUtil::printInt(sepc,16);
 180:src/kernel/riscv.cpp ****         ConsoleUtil::printString("\n");
 181:src/kernel/riscv.cpp ****         ConsoleUtil::printString("Illegal instruction\nExiting thread...\n");
 182:src/kernel/riscv.cpp ****         TCB::dispatch();
 183:src/kernel/riscv.cpp ****     }
 184:src/kernel/riscv.cpp **** 
 185:src/kernel/riscv.cpp ****     //some other kind of error, for more information check out RiscV handbook
 186:src/kernel/riscv.cpp ****     else{
 187:src/kernel/riscv.cpp ****         ConsoleUtil::printString("Error: \n");
 188:src/kernel/riscv.cpp ****         ConsoleUtil::printString("scause: ");
 189:src/kernel/riscv.cpp ****         uint64  scause = RiscV::r_scause();
 190:src/kernel/riscv.cpp ****         ConsoleUtil::printInt(scause);
 191:src/kernel/riscv.cpp ****         ConsoleUtil::printString("sepc: ");
 192:src/kernel/riscv.cpp ****         uint64 sepc = RiscV::r_sepc();
 193:src/kernel/riscv.cpp ****         ConsoleUtil::printInt(sepc,16);
 194:src/kernel/riscv.cpp ****         ConsoleUtil::printString("\n");
 195:src/kernel/riscv.cpp ****         ConsoleUtil::print("stvec: ",stval,"\n");
 196:src/kernel/riscv.cpp ****         TCB* old = TCB::running;
 197:src/kernel/riscv.cpp ****         old->status = TCB::Status::FINISHED;
GAS LISTING /tmp/ccxUk6vw.s 			page 6


 198:src/kernel/riscv.cpp ****         ConsoleUtil::printString("Exiting thread...\n");
 199:src/kernel/riscv.cpp ****         TCB::dispatch();
 200:src/kernel/riscv.cpp ****     }
 201:src/kernel/riscv.cpp **** 
 202:src/kernel/riscv.cpp ****     RiscV::jumpToDesignatedPrivilegeMode();
 203:src/kernel/riscv.cpp **** }
 204:src/kernel/riscv.cpp **** 
 205:src/kernel/riscv.cpp **** void RiscV::executeMemAllocSyscall(){
 206:src/kernel/riscv.cpp **** 
 207:src/kernel/riscv.cpp ****     //fetch the arguments from a0-a7 registers
 208:src/kernel/riscv.cpp ****     uint64 size;
 209:src/kernel/riscv.cpp ****     asm("mv %[size], a1" : [size] "=r" (size));
 210:src/kernel/riscv.cpp **** 
 211:src/kernel/riscv.cpp ****     //call internal allocator and return the address in a0
 212:src/kernel/riscv.cpp ****     uint64 addr =(uint64)MemoryAllocator::kmalloc(size);
 213:src/kernel/riscv.cpp **** 
 214:src/kernel/riscv.cpp ****     asm("mv a0, %[addr]" : : [addr] "r" (addr));
 215:src/kernel/riscv.cpp **** 
 216:src/kernel/riscv.cpp ****     RiscV::saveA0toSscratch();
 217:src/kernel/riscv.cpp **** }
 218:src/kernel/riscv.cpp **** 
 219:src/kernel/riscv.cpp **** void RiscV::executeMemFreeSyscall() {
 220:src/kernel/riscv.cpp **** 
 221:src/kernel/riscv.cpp ****     //fetch the arguments from a0-a7 registers
 222:src/kernel/riscv.cpp ****     uint64 iaddr, status;
 223:src/kernel/riscv.cpp **** 
 224:src/kernel/riscv.cpp **** 
 225:src/kernel/riscv.cpp ****     if(MemoryAllocator::initialized) {
 226:src/kernel/riscv.cpp ****         //call internal allocator and free memory which iaddr points to
 227:src/kernel/riscv.cpp ****         asm("mv %[iaddr], a1" : [iaddr] "=r"(iaddr));
 228:src/kernel/riscv.cpp ****         status = MemoryAllocator::kfree((void *) iaddr);;
 229:src/kernel/riscv.cpp ****     }
 230:src/kernel/riscv.cpp ****     else
 231:src/kernel/riscv.cpp ****         status = -1;
 232:src/kernel/riscv.cpp **** 
 233:src/kernel/riscv.cpp ****     //return status
 234:src/kernel/riscv.cpp ****     asm("mv a0, %[status]" : : [status] "r" (status));
 235:src/kernel/riscv.cpp **** 
 236:src/kernel/riscv.cpp ****     RiscV::saveA0toSscratch();
 237:src/kernel/riscv.cpp **** }
 238:src/kernel/riscv.cpp **** 
 239:src/kernel/riscv.cpp **** void RiscV::executeThreadCreateSyscall(){
 240:src/kernel/riscv.cpp **** 
 241:src/kernel/riscv.cpp ****     //fetch the arguments from a0-a7 registers
 242:src/kernel/riscv.cpp ****     uint64 iroutine, iargs, ihandle, istack;
 243:src/kernel/riscv.cpp **** 
 244:src/kernel/riscv.cpp ****     asm("mv %[istack], a7" : [istack] "=r"(istack));
 245:src/kernel/riscv.cpp ****     asm("mv %[ihandle], a1" : [ihandle] "=r"(ihandle));
 246:src/kernel/riscv.cpp ****     asm("mv %[iroutine], a2" : [iroutine] "=r"(iroutine));
 247:src/kernel/riscv.cpp ****     asm("mv %[iargs], a3" : [iargs] "=r"(iargs));
 248:src/kernel/riscv.cpp **** 
 249:src/kernel/riscv.cpp ****     //call constructor for Thread Control Block and if not null, write thread address into ihandle
 250:src/kernel/riscv.cpp ****     TCB *tcb = new TCB((TCB::Body)iroutine, (void*)iargs, (uint64*)istack, DEFAULT_TIME_SLICE);
 251:src/kernel/riscv.cpp **** 
 252:src/kernel/riscv.cpp ****     uint64 status = 0;
 253:src/kernel/riscv.cpp **** 
 254:src/kernel/riscv.cpp ****     if(tcb == nullptr){
GAS LISTING /tmp/ccxUk6vw.s 			page 7


 255:src/kernel/riscv.cpp ****         status = -1;
 256:src/kernel/riscv.cpp ****     }
 257:src/kernel/riscv.cpp ****     else{
 258:src/kernel/riscv.cpp ****         if(tcb->body)
 259:src/kernel/riscv.cpp ****             Scheduler::put(tcb);
 260:src/kernel/riscv.cpp ****         *((TCB**)ihandle) = tcb;
 261:src/kernel/riscv.cpp ****     }
 262:src/kernel/riscv.cpp **** 
 263:src/kernel/riscv.cpp ****     //return status
 264:src/kernel/riscv.cpp ****     asm("mv a0, %[status]" : : [status] "r" (status));
 265:src/kernel/riscv.cpp **** 
 266:src/kernel/riscv.cpp ****     RiscV::saveA0toSscratch();
 267:src/kernel/riscv.cpp **** }
 268:src/kernel/riscv.cpp **** 
 269:src/kernel/riscv.cpp **** void RiscV::executeThreadAttachBodySyscall(){
 270:src/kernel/riscv.cpp **** 
 271:src/kernel/riscv.cpp ****     //fetch the arguments from a0-a7 registers
 272:src/kernel/riscv.cpp ****     uint64 iroutine, iargs, ihandle, istack;
 273:src/kernel/riscv.cpp **** 
 274:src/kernel/riscv.cpp **** 
 275:src/kernel/riscv.cpp ****     asm("mv %[istack], a7" : [istack] "=r"(istack));
 276:src/kernel/riscv.cpp ****     asm("mv %[ihandle], a1" : [ihandle] "=r"(ihandle));
 277:src/kernel/riscv.cpp ****     asm("mv %[iroutine], a2" : [iroutine] "=r"(iroutine));
 278:src/kernel/riscv.cpp ****     asm("mv %[iargs], a3" : [iargs] "=r"(iargs));
 279:src/kernel/riscv.cpp **** 
 280:src/kernel/riscv.cpp ****     TCB *tcb = new TCB((TCB::Body)iroutine, (void*)iargs, (uint64*)istack, DEFAULT_TIME_SLICE);
 281:src/kernel/riscv.cpp **** 
 282:src/kernel/riscv.cpp ****     uint64 status = 0;
 283:src/kernel/riscv.cpp **** 
 284:src/kernel/riscv.cpp ****     if(tcb == nullptr){
 285:src/kernel/riscv.cpp ****         status = -1;
 286:src/kernel/riscv.cpp ****     }
 287:src/kernel/riscv.cpp ****     else{
 288:src/kernel/riscv.cpp ****         tcb->body = (TCB::Body)iroutine;
 289:src/kernel/riscv.cpp ****         tcb->args = (void*)iargs;
 290:src/kernel/riscv.cpp ****         *((TCB**)ihandle) = tcb;
 291:src/kernel/riscv.cpp ****     }
 292:src/kernel/riscv.cpp **** 
 293:src/kernel/riscv.cpp ****     asm("mv a0, %[status]" : : [status] "r" (status));
 294:src/kernel/riscv.cpp **** 
 295:src/kernel/riscv.cpp ****     RiscV::saveA0toSscratch();
 296:src/kernel/riscv.cpp **** }
 297:src/kernel/riscv.cpp **** 
 298:src/kernel/riscv.cpp **** void RiscV::executeThreadStartSyscall(){
 299:src/kernel/riscv.cpp **** 
 300:src/kernel/riscv.cpp ****     //fetch the arguments from a0-a7 registers
 301:src/kernel/riscv.cpp ****     uint64 ihandle;
 302:src/kernel/riscv.cpp **** 
 303:src/kernel/riscv.cpp ****     asm("mv %[ihandle], a1" : [ihandle] "=r"(ihandle));
 304:src/kernel/riscv.cpp **** 
 305:src/kernel/riscv.cpp ****     //get the handle and put tcb in scheduler if not null
 306:src/kernel/riscv.cpp ****     TCB* tcb =(TCB*)ihandle;
 307:src/kernel/riscv.cpp **** 
 308:src/kernel/riscv.cpp ****     uint64 status = 0;
 309:src/kernel/riscv.cpp **** 
 310:src/kernel/riscv.cpp ****     if(tcb == nullptr){
 311:src/kernel/riscv.cpp ****         status = -1;
GAS LISTING /tmp/ccxUk6vw.s 			page 8


 312:src/kernel/riscv.cpp ****     }
 313:src/kernel/riscv.cpp ****     else{
 314:src/kernel/riscv.cpp ****         tcb->status = TCB::Status::READY;
 315:src/kernel/riscv.cpp ****         Scheduler::put(tcb);
 316:src/kernel/riscv.cpp ****         TCB::dispatch();
 317:src/kernel/riscv.cpp ****     }
 318:src/kernel/riscv.cpp **** 
 319:src/kernel/riscv.cpp ****     //return status
 320:src/kernel/riscv.cpp ****     asm("mv a0, %[status]" : : [status] "r" (status));
 321:src/kernel/riscv.cpp **** 
 322:src/kernel/riscv.cpp ****     RiscV::saveA0toSscratch();
 323:src/kernel/riscv.cpp **** }
 324:src/kernel/riscv.cpp **** 
 325:src/kernel/riscv.cpp **** void RiscV::executeThreadExitSyscall() {
 326:src/kernel/riscv.cpp **** 
 327:src/kernel/riscv.cpp ****     //fetch the arguments from a0-a7 registers
 328:src/kernel/riscv.cpp ****     uint64 status = 0;
 329:src/kernel/riscv.cpp **** 
 330:src/kernel/riscv.cpp ****     //if thread not null, set status to finished and dispatch
 331:src/kernel/riscv.cpp ****     if(TCB::running == nullptr){
 332:src/kernel/riscv.cpp ****         status = -1;
 333:src/kernel/riscv.cpp ****     }
 334:src/kernel/riscv.cpp ****     else{
 335:src/kernel/riscv.cpp ****         TCB* old = TCB::running;
 336:src/kernel/riscv.cpp ****         old->status = TCB::Status::FINISHED;
 337:src/kernel/riscv.cpp ****         TCB::dispatch();
 338:src/kernel/riscv.cpp ****     }
 339:src/kernel/riscv.cpp **** 
 340:src/kernel/riscv.cpp ****     asm("mv a0, %[status]" : : [status] "r" (status));
 341:src/kernel/riscv.cpp **** 
 342:src/kernel/riscv.cpp ****     RiscV::saveA0toSscratch();
 343:src/kernel/riscv.cpp **** }
 344:src/kernel/riscv.cpp **** 
 345:src/kernel/riscv.cpp **** void RiscV::executeThreadDispatchSyscall(){
  88              		.loc 1 345 43 is_stmt 1
  89              		.cfi_startproc
  90 0058 130101FF 		addi	sp,sp,-16
  91              		.cfi_def_cfa_offset 16
  92 005c 23341100 		sd	ra,8(sp)
  93 0060 23308100 		sd	s0,0(sp)
  94              		.cfi_offset 1, -8
  95              		.cfi_offset 8, -16
  96 0064 13040101 		addi	s0,sp,16
  97              		.cfi_def_cfa 8, 0
 346:src/kernel/riscv.cpp **** 
 347:src/kernel/riscv.cpp ****     //dispatch current running thread
 348:src/kernel/riscv.cpp ****     TCB* old = TCB::running;
  98              		.loc 1 348 5
  99              		.loc 1 348 10 is_stmt 0
 100 0068 97070000 		la	a5,_ZN3TCB7runningE
 100      83B70700 
 101 0070 83B70700 		ld	a5,0(a5)
 102              	.LVL0:
 349:src/kernel/riscv.cpp ****     old->status = TCB::Status::READY;
 103              		.loc 1 349 5 is_stmt 1
 104              		.loc 1 349 17 is_stmt 0
 105 0074 13071000 		li	a4,1
GAS LISTING /tmp/ccxUk6vw.s 			page 9


 106 0078 23A8E700 		sw	a4,16(a5)
 350:src/kernel/riscv.cpp ****     TCB::dispatch();
 107              		.loc 1 350 5 is_stmt 1
 108              		.loc 1 350 18 is_stmt 0
 109 007c 97000000 		call	_ZN3TCB8dispatchEv@plt
 109      E7800000 
 110              	.LVL1:
 351:src/kernel/riscv.cpp **** }
 111              		.loc 1 351 1
 112 0084 83308100 		ld	ra,8(sp)
 113              		.cfi_restore 1
 114 0088 03340100 		ld	s0,0(sp)
 115              		.cfi_restore 8
 116              		.cfi_def_cfa 2, 16
 117 008c 13010101 		addi	sp,sp,16
 118              		.cfi_def_cfa_offset 0
 119 0090 67800000 		jr	ra
 120              		.cfi_endproc
 121              	.LFE56:
 123              		.align	2
 124              		.globl	_ZN5RiscV18executePutcSyscallEv
 126              	_ZN5RiscV18executePutcSyscallEv:
 127              	.LFB63:
 352:src/kernel/riscv.cpp **** 
 353:src/kernel/riscv.cpp **** void RiscV::executeSemOpenSyscall() {
 354:src/kernel/riscv.cpp **** 
 355:src/kernel/riscv.cpp ****     //fetch the arguments from a0-a7 registers
 356:src/kernel/riscv.cpp ****     uint64 ihandle, iinit;
 357:src/kernel/riscv.cpp **** 
 358:src/kernel/riscv.cpp ****     asm("mv %[ihandle], a1" : [ihandle] "=r"(ihandle));
 359:src/kernel/riscv.cpp ****     asm("mv %[iinit], a2" : [iinit] "=r"(iinit));
 360:src/kernel/riscv.cpp **** 
 361:src/kernel/riscv.cpp ****     //create new Semaphore Control Block and write it into ihandle if not null
 362:src/kernel/riscv.cpp ****     SCB *scb = new SCB(iinit);
 363:src/kernel/riscv.cpp **** 
 364:src/kernel/riscv.cpp ****     uint64 status = 0;
 365:src/kernel/riscv.cpp **** 
 366:src/kernel/riscv.cpp ****     if(scb == nullptr){
 367:src/kernel/riscv.cpp ****         status = -1;
 368:src/kernel/riscv.cpp ****     }
 369:src/kernel/riscv.cpp ****     else{
 370:src/kernel/riscv.cpp ****         *((SCB**)ihandle) = scb;
 371:src/kernel/riscv.cpp ****     }
 372:src/kernel/riscv.cpp **** 
 373:src/kernel/riscv.cpp ****     //return status
 374:src/kernel/riscv.cpp ****     asm("mv a0, %[status]" : : [status] "r" (status));
 375:src/kernel/riscv.cpp **** 
 376:src/kernel/riscv.cpp ****     RiscV::saveA0toSscratch();
 377:src/kernel/riscv.cpp **** 
 378:src/kernel/riscv.cpp **** }
 379:src/kernel/riscv.cpp **** 
 380:src/kernel/riscv.cpp **** void RiscV::executeSemCloseSyscall() {
 381:src/kernel/riscv.cpp **** 
 382:src/kernel/riscv.cpp ****     //fetch the arguments from a0-a7 registers
 383:src/kernel/riscv.cpp ****     uint64 ihandle;
 384:src/kernel/riscv.cpp **** 
 385:src/kernel/riscv.cpp ****     asm("mv %[ihandle], a1" : [ihandle] "=r"(ihandle));
GAS LISTING /tmp/ccxUk6vw.s 			page 10


 386:src/kernel/riscv.cpp **** 
 387:src/kernel/riscv.cpp ****     //delete scb if not null
 388:src/kernel/riscv.cpp ****     SCB *scb = (SCB*)ihandle;
 389:src/kernel/riscv.cpp ****     uint64 status = 0;
 390:src/kernel/riscv.cpp **** 
 391:src/kernel/riscv.cpp ****     if(scb == nullptr){
 392:src/kernel/riscv.cpp ****         status = -1;
 393:src/kernel/riscv.cpp ****     }
 394:src/kernel/riscv.cpp ****     else
 395:src/kernel/riscv.cpp ****         delete (SCB*)ihandle;
 396:src/kernel/riscv.cpp **** 
 397:src/kernel/riscv.cpp ****     //return status
 398:src/kernel/riscv.cpp ****     asm("mv a0, %[status]" : : [status] "r" (status));
 399:src/kernel/riscv.cpp **** 
 400:src/kernel/riscv.cpp ****     RiscV::saveA0toSscratch();
 401:src/kernel/riscv.cpp **** }
 402:src/kernel/riscv.cpp **** 
 403:src/kernel/riscv.cpp **** void RiscV::executeSemWaitSyscall() {
 404:src/kernel/riscv.cpp **** 
 405:src/kernel/riscv.cpp ****     //fetch the arguments from a0-a7 registers
 406:src/kernel/riscv.cpp ****     uint64 ihandle;
 407:src/kernel/riscv.cpp **** 
 408:src/kernel/riscv.cpp ****     asm("mv %[ihandle], a1" : [ihandle] "=r"(ihandle));
 409:src/kernel/riscv.cpp **** 
 410:src/kernel/riscv.cpp ****     uint64 status = 0;
 411:src/kernel/riscv.cpp ****     //call wait method on ihandle scb
 412:src/kernel/riscv.cpp **** 
 413:src/kernel/riscv.cpp ****     if(((SCB*)ihandle) != nullptr)
 414:src/kernel/riscv.cpp ****         ((SCB*)ihandle)->wait();
 415:src/kernel/riscv.cpp ****     else
 416:src/kernel/riscv.cpp ****         status = -1;
 417:src/kernel/riscv.cpp **** 
 418:src/kernel/riscv.cpp ****     if(TCB::running->semError != nullptr)
 419:src/kernel/riscv.cpp ****         status = -1;
 420:src/kernel/riscv.cpp ****     else
 421:src/kernel/riscv.cpp ****         status = 0;
 422:src/kernel/riscv.cpp **** 
 423:src/kernel/riscv.cpp ****     //return status
 424:src/kernel/riscv.cpp ****     asm("mv a0, %[status]" : : [status] "r" (status));
 425:src/kernel/riscv.cpp **** 
 426:src/kernel/riscv.cpp ****     RiscV::saveA0toSscratch();
 427:src/kernel/riscv.cpp **** 
 428:src/kernel/riscv.cpp **** }
 429:src/kernel/riscv.cpp **** 
 430:src/kernel/riscv.cpp **** void RiscV::executeSemSignalSyscall() {
 431:src/kernel/riscv.cpp **** 
 432:src/kernel/riscv.cpp ****     //fetch the arguments from a0-a7 registers
 433:src/kernel/riscv.cpp ****     uint64 ihandle;
 434:src/kernel/riscv.cpp **** 
 435:src/kernel/riscv.cpp ****     asm("mv %[ihandle], a1" : [ihandle] "=r"(ihandle));
 436:src/kernel/riscv.cpp **** 
 437:src/kernel/riscv.cpp ****     //call signal method on ihandle scb
 438:src/kernel/riscv.cpp **** 
 439:src/kernel/riscv.cpp ****     uint64 status = 0;
 440:src/kernel/riscv.cpp **** 
 441:src/kernel/riscv.cpp ****     if(((SCB*)ihandle) != nullptr)
 442:src/kernel/riscv.cpp ****         ((SCB*)ihandle)->signal();
GAS LISTING /tmp/ccxUk6vw.s 			page 11


 443:src/kernel/riscv.cpp ****     else
 444:src/kernel/riscv.cpp ****         status = -1;
 445:src/kernel/riscv.cpp **** 
 446:src/kernel/riscv.cpp ****     //return status
 447:src/kernel/riscv.cpp ****     asm("mv a0, %[status]" : : [status] "r" (status));
 448:src/kernel/riscv.cpp **** 
 449:src/kernel/riscv.cpp ****     RiscV::saveA0toSscratch();
 450:src/kernel/riscv.cpp **** }
 451:src/kernel/riscv.cpp **** 
 452:src/kernel/riscv.cpp **** void RiscV::executeTimeSleepSyscall() {
 453:src/kernel/riscv.cpp **** 
 454:src/kernel/riscv.cpp ****     //fetch the arguments from a0-a7 registers
 455:src/kernel/riscv.cpp ****     uint64 itime;
 456:src/kernel/riscv.cpp **** 
 457:src/kernel/riscv.cpp ****     asm("mv %[itime], a1" : [itime] "=r"(itime));
 458:src/kernel/riscv.cpp **** 
 459:src/kernel/riscv.cpp ****     //calculate wake time for running thread and put it to sleep
 460:src/kernel/riscv.cpp ****     //fetch new running with dispatch
 461:src/kernel/riscv.cpp ****     TCB* tcb = TCB::running;
 462:src/kernel/riscv.cpp ****     tcb->sleepTime = globalTime;
 463:src/kernel/riscv.cpp ****     tcb->wakeTime = globalTime + itime;
 464:src/kernel/riscv.cpp **** 
 465:src/kernel/riscv.cpp ****     Scheduler::sleep(tcb);
 466:src/kernel/riscv.cpp **** 
 467:src/kernel/riscv.cpp ****     tcb->status = TCB::Status::BLOCKED;
 468:src/kernel/riscv.cpp **** 
 469:src/kernel/riscv.cpp ****     TCB::dispatch();
 470:src/kernel/riscv.cpp **** 
 471:src/kernel/riscv.cpp ****     uint64 status = 0;
 472:src/kernel/riscv.cpp **** 
 473:src/kernel/riscv.cpp ****     //return status
 474:src/kernel/riscv.cpp ****     asm("mv a0, %[status]" : : [status] "r" (status));
 475:src/kernel/riscv.cpp **** 
 476:src/kernel/riscv.cpp ****     RiscV::saveA0toSscratch();
 477:src/kernel/riscv.cpp **** }
 478:src/kernel/riscv.cpp **** 
 479:src/kernel/riscv.cpp **** void RiscV::executeGetcSyscall() {
 480:src/kernel/riscv.cpp **** 
 481:src/kernel/riscv.cpp ****     //register a pending getc call
 482:src/kernel/riscv.cpp ****     if(!userMainFinished)
 483:src/kernel/riscv.cpp ****         ConsoleUtil::pendingGetc++;
 484:src/kernel/riscv.cpp **** 
 485:src/kernel/riscv.cpp ****     //get character from input buffer
 486:src/kernel/riscv.cpp ****     char c = ConsoleUtil::getInput();
 487:src/kernel/riscv.cpp **** 
 488:src/kernel/riscv.cpp ****     //if char == \n echo it as LF and CR
 489:src/kernel/riscv.cpp ****     if(c==13) {
 490:src/kernel/riscv.cpp ****         ConsoleUtil::putOutput(13);
 491:src/kernel/riscv.cpp ****         ConsoleUtil::putOutput(10);
 492:src/kernel/riscv.cpp ****     }
 493:src/kernel/riscv.cpp ****     //if not ESC character, echo it to console
 494:src/kernel/riscv.cpp ****     else if(c!=0x01b)
 495:src/kernel/riscv.cpp ****         ConsoleUtil::putOutput(c);
 496:src/kernel/riscv.cpp **** 
 497:src/kernel/riscv.cpp ****     //return character
 498:src/kernel/riscv.cpp ****     asm("mv a0, %[c]" : : [c] "r" (c));
 499:src/kernel/riscv.cpp **** 
GAS LISTING /tmp/ccxUk6vw.s 			page 12


 500:src/kernel/riscv.cpp ****     RiscV::saveA0toSscratch();
 501:src/kernel/riscv.cpp **** }
 502:src/kernel/riscv.cpp **** 
 503:src/kernel/riscv.cpp **** void RiscV::executePutcSyscall() {
 128              		.loc 1 503 34 is_stmt 1
 129              		.cfi_startproc
 130 0094 130101FF 		addi	sp,sp,-16
 131              		.cfi_def_cfa_offset 16
 132 0098 23341100 		sd	ra,8(sp)
 133 009c 23308100 		sd	s0,0(sp)
 134              		.cfi_offset 1, -8
 135              		.cfi_offset 8, -16
 136 00a0 13040101 		addi	s0,sp,16
 137              		.cfi_def_cfa 8, 0
 504:src/kernel/riscv.cpp **** 
 505:src/kernel/riscv.cpp ****     //register a pending putc call
 506:src/kernel/riscv.cpp ****     if(!userMainFinished)
 138              		.loc 1 506 5
 139              		.loc 1 506 8 is_stmt 0
 140 00a4 97070000 		lbu	a5,.LANCHOR0
 140      83C70700 
 141              		.loc 1 506 5
 142 00ac 639C0700 		bnez	a5,.L9
 507:src/kernel/riscv.cpp ****         ConsoleUtil::pendingPutc++;
 143              		.loc 1 507 9 is_stmt 1
 144              		.loc 1 507 33 is_stmt 0
 145 00b0 17070000 		la	a4,_ZN11ConsoleUtil11pendingPutcE
 145      03370700 
 146 00b8 83370700 		ld	a5,0(a4)
 147 00bc 93871700 		addi	a5,a5,1
 148 00c0 2330F700 		sd	a5,0(a4)
 149              	.L9:
 508:src/kernel/riscv.cpp **** 
 509:src/kernel/riscv.cpp ****     char c;
 150              		.loc 1 509 5 is_stmt 1
 510:src/kernel/riscv.cpp **** 
 511:src/kernel/riscv.cpp ****     asm("mv %[c], a1" : [c] "=r"(c));
 151              		.loc 1 511 5
 152              		.loc 1 511 37 is_stmt 0
 153              	#APP
 154              	# 511 "src/kernel/riscv.cpp" 1
 512              	
 155              		mv a0, a1
 156              	# 0 "" 2
 157              	.LVL2:
 513:src/kernel/riscv.cpp ****     //put character in output buffer
 514:src/kernel/riscv.cpp ****     ConsoleUtil::putOutput(c);
 158              		.loc 1 514 5 is_stmt 1
 159              		.loc 1 514 27 is_stmt 0
 160              	#NO_APP
 161 00c8 1375F50F 		andi	a0,a0,0xff
 162 00cc 97000000 		call	_ZN11ConsoleUtil9putOutputEc@plt
 162      E7800000 
 163              	.LVL3:
 515:src/kernel/riscv.cpp **** }
 164              		.loc 1 515 1
 165 00d4 83308100 		ld	ra,8(sp)
GAS LISTING /tmp/ccxUk6vw.s 			page 13


 166              		.cfi_restore 1
 167 00d8 03340100 		ld	s0,0(sp)
 168              		.cfi_restore 8
 169              		.cfi_def_cfa 2, 16
 170 00dc 13010101 		addi	sp,sp,16
 171              		.cfi_def_cfa_offset 0
 172 00e0 67800000 		jr	ra
 173              		.cfi_endproc
 174              	.LFE63:
 176              		.align	2
 177              		.globl	_ZN5RiscV29jumpToDesignatedPrivilegeModeEv
 179              	_ZN5RiscV29jumpToDesignatedPrivilegeModeEv:
 180              	.LFB66:
 516:src/kernel/riscv.cpp **** 
 517:src/kernel/riscv.cpp **** //wrapper function for putcThread
 518:src/kernel/riscv.cpp **** //spins in a while loop and checks whether console is ready to take output
 519:src/kernel/riscv.cpp **** //if ready read data from output buffer
 520:src/kernel/riscv.cpp **** void RiscV::putcWrapper(void* arg)
 521:src/kernel/riscv.cpp **** {
 522:src/kernel/riscv.cpp ****     while(true)
 523:src/kernel/riscv.cpp ****     {
 524:src/kernel/riscv.cpp ****         //read console status from status register
 525:src/kernel/riscv.cpp ****         uint64 status = CONSOLE_STATUS;
 526:src/kernel/riscv.cpp ****         asm("mv a0, %[status]" : : [status] "r" (status));
 527:src/kernel/riscv.cpp ****         asm("lb a1, 0(a0)");
 528:src/kernel/riscv.cpp ****         asm("mv %[status], a1" : [status] "=r" (status));
 529:src/kernel/riscv.cpp **** 
 530:src/kernel/riscv.cpp ****         //if console ready..
 531:src/kernel/riscv.cpp ****         if(status & 1UL<<5){
 532:src/kernel/riscv.cpp **** 
 533:src/kernel/riscv.cpp ****             //get character from output buffer with possible block if nothing in buffer
 534:src/kernel/riscv.cpp ****                 char volatile c = ConsoleUtil::putcUtilSyscall();
 535:src/kernel/riscv.cpp ****                 uint64 data = CONSOLE_RX_DATA;
 536:src/kernel/riscv.cpp ****                 asm("mv a0, %[data]" : : [data] "r"(data));
 537:src/kernel/riscv.cpp ****                 asm("mv a1, %[c]" : : [c] "r"(c));
 538:src/kernel/riscv.cpp ****                 asm("sb a1,0(a0)");
 539:src/kernel/riscv.cpp **** 
 540:src/kernel/riscv.cpp ****             //decrement number of pending putc requests
 541:src/kernel/riscv.cpp ****             if(ConsoleUtil::pendingPutc>0)
 542:src/kernel/riscv.cpp ****                 ConsoleUtil::pendingPutc--;
 543:src/kernel/riscv.cpp ****         }
 544:src/kernel/riscv.cpp ****         else
 545:src/kernel/riscv.cpp ****             RiscV::threadDispatchUtil();
 546:src/kernel/riscv.cpp ****     }
 547:src/kernel/riscv.cpp **** }
 548:src/kernel/riscv.cpp **** 
 549:src/kernel/riscv.cpp **** //utility syscall to get character from output buffer
 550:src/kernel/riscv.cpp **** //syscall is needed because we don't want to fiddle with kernel structures from anywhere but the tr
 551:src/kernel/riscv.cpp **** void RiscV::executePutcUtilSyscall() {
 552:src/kernel/riscv.cpp ****     char c = ConsoleUtil::getOutput();
 553:src/kernel/riscv.cpp ****     asm("mv a0, %[c]" : : [c] "r" ((uint64)(c)) );
 554:src/kernel/riscv.cpp **** 
 555:src/kernel/riscv.cpp ****     RiscV::saveA0toSscratch();
 556:src/kernel/riscv.cpp **** }
 557:src/kernel/riscv.cpp **** 
 558:src/kernel/riscv.cpp **** //return to privilege that was given at creation
 559:src/kernel/riscv.cpp **** void RiscV::jumpToDesignatedPrivilegeMode() {
GAS LISTING /tmp/ccxUk6vw.s 			page 14


 181              		.loc 1 559 45 is_stmt 1
 182              		.cfi_startproc
 183 00e4 130101FF 		addi	sp,sp,-16
 184              		.cfi_def_cfa_offset 16
 185 00e8 23348100 		sd	s0,8(sp)
 186              		.cfi_offset 8, -8
 187 00ec 13040101 		addi	s0,sp,16
 188              		.cfi_def_cfa 8, 0
 560:src/kernel/riscv.cpp ****     if(TCB::running->mode == TCB::Mode::SUPERVISOR) {
 189              		.loc 1 560 5
 190              		.loc 1 560 22 is_stmt 0
 191 00f0 97070000 		la	a5,_ZN3TCB7runningE
 191      83B70700 
 192 00f8 83B70700 		ld	a5,0(a5)
 193 00fc 03A74701 		lw	a4,20(a5)
 194              		.loc 1 560 5
 195 0100 93071000 		li	a5,1
 196 0104 630CF700 		beq	a4,a5,.L15
 561:src/kernel/riscv.cpp ****         RiscV::ms_sstatus(RiscV::SSTATUS_SPP);
 562:src/kernel/riscv.cpp **** //        RiscV::startVirtualMemory(RiscV::kPMT);
 563:src/kernel/riscv.cpp ****     }
 564:src/kernel/riscv.cpp ****     else {
 565:src/kernel/riscv.cpp ****         RiscV::mc_sstatus(RiscV::SSTATUS_SPP);
 197              		.loc 1 565 9 is_stmt 1
 198              	.LVL4:
 199              	.LBB105:
 200              	.LBB106:
 201              		.file 2 "src/kernel/../../h/kernel/riscv.hpp"
   1:src/kernel/../../h/kernel/riscv.hpp **** //
   2:src/kernel/../../h/kernel/riscv.hpp **** // Created by os on 4/28/22.
   3:src/kernel/../../h/kernel/riscv.hpp **** //
   4:src/kernel/../../h/kernel/riscv.hpp **** 
   5:src/kernel/../../h/kernel/riscv.hpp **** #ifndef OS1_KERNEL_RISCV_HPP
   6:src/kernel/../../h/kernel/riscv.hpp **** #define OS1_KERNEL_RISCV_HPP
   7:src/kernel/../../h/kernel/riscv.hpp **** #include "../../lib/hw.h"
   8:src/kernel/../../h/kernel/riscv.hpp **** class TCB;
   9:src/kernel/../../h/kernel/riscv.hpp **** class SlabAllocator;
  10:src/kernel/../../h/kernel/riscv.hpp **** 
  11:src/kernel/../../h/kernel/riscv.hpp **** class RiscV{
  12:src/kernel/../../h/kernel/riscv.hpp **** 
  13:src/kernel/../../h/kernel/riscv.hpp ****     static uint64 globalTime;
  14:src/kernel/../../h/kernel/riscv.hpp **** 
  15:src/kernel/../../h/kernel/riscv.hpp ****     static void* kPMT;
  16:src/kernel/../../h/kernel/riscv.hpp ****     static void* uPMT;
  17:src/kernel/../../h/kernel/riscv.hpp **** 
  18:src/kernel/../../h/kernel/riscv.hpp ****     static bool initialized;
  19:src/kernel/../../h/kernel/riscv.hpp **** 
  20:src/kernel/../../h/kernel/riscv.hpp ****     static bool userMainFinished;
  21:src/kernel/../../h/kernel/riscv.hpp **** 
  22:src/kernel/../../h/kernel/riscv.hpp ****     enum BitMaskSstatus{
  23:src/kernel/../../h/kernel/riscv.hpp ****         SSTATUS_SIE = (1<<1),
  24:src/kernel/../../h/kernel/riscv.hpp ****         SSTATUS_SPIE = (1<<5),
  25:src/kernel/../../h/kernel/riscv.hpp ****         SSTATUS_SPP = (1<<8),
  26:src/kernel/../../h/kernel/riscv.hpp ****     };
  27:src/kernel/../../h/kernel/riscv.hpp **** 
  28:src/kernel/../../h/kernel/riscv.hpp ****     enum BitMaskSip{
  29:src/kernel/../../h/kernel/riscv.hpp ****         SIP_SSIE = (1<<1),
GAS LISTING /tmp/ccxUk6vw.s 			page 15


  30:src/kernel/../../h/kernel/riscv.hpp ****         SIP_STIE = (1<<5),
  31:src/kernel/../../h/kernel/riscv.hpp ****         SIP_SEIE = (1<<9),
  32:src/kernel/../../h/kernel/riscv.hpp ****     };
  33:src/kernel/../../h/kernel/riscv.hpp **** 
  34:src/kernel/../../h/kernel/riscv.hpp ****     static void executeMemAllocSyscall();   //wrapper function for moving parameters and calling Me
  35:src/kernel/../../h/kernel/riscv.hpp **** 
  36:src/kernel/../../h/kernel/riscv.hpp ****     static void executeMemFreeSyscall();    //wrapper function for moving parameters and calling Me
  37:src/kernel/../../h/kernel/riscv.hpp **** 
  38:src/kernel/../../h/kernel/riscv.hpp ****     static void executeThreadCreateSyscall();
  39:src/kernel/../../h/kernel/riscv.hpp **** 
  40:src/kernel/../../h/kernel/riscv.hpp ****     static void executeThreadExitSyscall();
  41:src/kernel/../../h/kernel/riscv.hpp **** 
  42:src/kernel/../../h/kernel/riscv.hpp ****     static void executeThreadDispatchSyscall();
  43:src/kernel/../../h/kernel/riscv.hpp **** 
  44:src/kernel/../../h/kernel/riscv.hpp ****     static void executeThreadAttachBodySyscall();
  45:src/kernel/../../h/kernel/riscv.hpp **** 
  46:src/kernel/../../h/kernel/riscv.hpp ****     static void executeThreadStartSyscall();
  47:src/kernel/../../h/kernel/riscv.hpp **** 
  48:src/kernel/../../h/kernel/riscv.hpp ****     static void executeSemOpenSyscall();
  49:src/kernel/../../h/kernel/riscv.hpp **** 
  50:src/kernel/../../h/kernel/riscv.hpp ****     static void executeSemCloseSyscall();
  51:src/kernel/../../h/kernel/riscv.hpp **** 
  52:src/kernel/../../h/kernel/riscv.hpp ****     static void executeSemWaitSyscall();
  53:src/kernel/../../h/kernel/riscv.hpp **** 
  54:src/kernel/../../h/kernel/riscv.hpp ****     static void executeSemSignalSyscall();
  55:src/kernel/../../h/kernel/riscv.hpp **** 
  56:src/kernel/../../h/kernel/riscv.hpp ****     static void executeTimeSleepSyscall();
  57:src/kernel/../../h/kernel/riscv.hpp **** 
  58:src/kernel/../../h/kernel/riscv.hpp ****     static void executeGetcSyscall();
  59:src/kernel/../../h/kernel/riscv.hpp **** 
  60:src/kernel/../../h/kernel/riscv.hpp ****     static void executePutcSyscall();
  61:src/kernel/../../h/kernel/riscv.hpp **** 
  62:src/kernel/../../h/kernel/riscv.hpp ****     static void executePutcUtilSyscall();
  63:src/kernel/../../h/kernel/riscv.hpp **** 
  64:src/kernel/../../h/kernel/riscv.hpp ****     static void executeThreadFreeSyscall();
  65:src/kernel/../../h/kernel/riscv.hpp **** 
  66:src/kernel/../../h/kernel/riscv.hpp ****     static void executeSemaphoreFreeSyscall();
  67:src/kernel/../../h/kernel/riscv.hpp **** 
  68:src/kernel/../../h/kernel/riscv.hpp ****     static void executeForkSyscall();
  69:src/kernel/../../h/kernel/riscv.hpp **** 
  70:src/kernel/../../h/kernel/riscv.hpp ****     static void putcWrapper(void *arg);
  71:src/kernel/../../h/kernel/riscv.hpp **** 
  72:src/kernel/../../h/kernel/riscv.hpp ****     static void threadCreateUtil(TCB** handle, void(*start_routine)(void*), void *arg);
  73:src/kernel/../../h/kernel/riscv.hpp **** 
  74:src/kernel/../../h/kernel/riscv.hpp ****     static void threadExitUtil();
  75:src/kernel/../../h/kernel/riscv.hpp **** 
  76:src/kernel/../../h/kernel/riscv.hpp ****     static void threadDispatchUtil();
  77:src/kernel/../../h/kernel/riscv.hpp **** 
  78:src/kernel/../../h/kernel/riscv.hpp ****     static uint64 r_scause();
  79:src/kernel/../../h/kernel/riscv.hpp **** 
  80:src/kernel/../../h/kernel/riscv.hpp ****     static void w_scause(uint64 scause);
  81:src/kernel/../../h/kernel/riscv.hpp **** 
  82:src/kernel/../../h/kernel/riscv.hpp ****     static uint64 r_sepc();
  83:src/kernel/../../h/kernel/riscv.hpp **** 
  84:src/kernel/../../h/kernel/riscv.hpp ****     static void w_sepc(uint64 sepc);
  85:src/kernel/../../h/kernel/riscv.hpp **** 
  86:src/kernel/../../h/kernel/riscv.hpp ****     static uint64 r_stvec();
GAS LISTING /tmp/ccxUk6vw.s 			page 16


  87:src/kernel/../../h/kernel/riscv.hpp **** 
  88:src/kernel/../../h/kernel/riscv.hpp ****     static void w_stvec(uint64 stvec);
  89:src/kernel/../../h/kernel/riscv.hpp **** 
  90:src/kernel/../../h/kernel/riscv.hpp ****     static uint64 r_sstatus();
  91:src/kernel/../../h/kernel/riscv.hpp **** 
  92:src/kernel/../../h/kernel/riscv.hpp ****     static void w_sstatus(uint64 sstatus);
  93:src/kernel/../../h/kernel/riscv.hpp **** 
  94:src/kernel/../../h/kernel/riscv.hpp ****     static void ms_sstatus(uint64 mask);
  95:src/kernel/../../h/kernel/riscv.hpp **** 
  96:src/kernel/../../h/kernel/riscv.hpp ****     static void mc_sstatus(uint64 mask);
  97:src/kernel/../../h/kernel/riscv.hpp **** 
  98:src/kernel/../../h/kernel/riscv.hpp ****     static void ms_sip(uint64 mask);
  99:src/kernel/../../h/kernel/riscv.hpp **** 
 100:src/kernel/../../h/kernel/riscv.hpp ****     static void mc_sip(uint64 mask);
 101:src/kernel/../../h/kernel/riscv.hpp **** 
 102:src/kernel/../../h/kernel/riscv.hpp ****     static void ms_sie(uint64 mask);
 103:src/kernel/../../h/kernel/riscv.hpp **** 
 104:src/kernel/../../h/kernel/riscv.hpp ****     static void mc_sie(uint64 mask);
 105:src/kernel/../../h/kernel/riscv.hpp **** 
 106:src/kernel/../../h/kernel/riscv.hpp ****     static uint64 getPMT2Entry(uint64 addr);
 107:src/kernel/../../h/kernel/riscv.hpp **** 
 108:src/kernel/../../h/kernel/riscv.hpp ****     static uint64 getPMT1Entry(uint64 addr);
 109:src/kernel/../../h/kernel/riscv.hpp **** 
 110:src/kernel/../../h/kernel/riscv.hpp ****     static uint64 getPMT0Entry(uint64 addr);
 111:src/kernel/../../h/kernel/riscv.hpp **** 
 112:src/kernel/../../h/kernel/riscv.hpp ****     static void startVirtualMemory(void *PMT);
 113:src/kernel/../../h/kernel/riscv.hpp ****     static void shutVirtualMemory();
 114:src/kernel/../../h/kernel/riscv.hpp **** 
 115:src/kernel/../../h/kernel/riscv.hpp ****     static void saveA0toSscratch();
 116:src/kernel/../../h/kernel/riscv.hpp **** 
 117:src/kernel/../../h/kernel/riscv.hpp ****     static void jumpToDesignatedPrivilegeMode();
 118:src/kernel/../../h/kernel/riscv.hpp **** 
 119:src/kernel/../../h/kernel/riscv.hpp ****     static void popSppSpie();
 120:src/kernel/../../h/kernel/riscv.hpp **** 
 121:src/kernel/../../h/kernel/riscv.hpp ****     static void popSppSpie2();
 122:src/kernel/../../h/kernel/riscv.hpp **** 
 123:src/kernel/../../h/kernel/riscv.hpp ****     static void getPC();
 124:src/kernel/../../h/kernel/riscv.hpp **** 
 125:src/kernel/../../h/kernel/riscv.hpp ****     static void supervisorTrap();      //supervisorTrap defined in /src/supervisorTrap.S
 126:src/kernel/../../h/kernel/riscv.hpp **** 
 127:src/kernel/../../h/kernel/riscv.hpp ****     static void handleSupervisorTrap();
 128:src/kernel/../../h/kernel/riscv.hpp **** 
 129:src/kernel/../../h/kernel/riscv.hpp ****     static void enableInterrupts();
 130:src/kernel/../../h/kernel/riscv.hpp **** 
 131:src/kernel/../../h/kernel/riscv.hpp ****     static void disableInterrupts();
 132:src/kernel/../../h/kernel/riscv.hpp **** 
 133:src/kernel/../../h/kernel/riscv.hpp ****     static void enableHardwareInterrupts();
 134:src/kernel/../../h/kernel/riscv.hpp **** 
 135:src/kernel/../../h/kernel/riscv.hpp ****     static void disableHardwareInterrupts();
 136:src/kernel/../../h/kernel/riscv.hpp **** 
 137:src/kernel/../../h/kernel/riscv.hpp ****     static void enableTimerInterrupts();
 138:src/kernel/../../h/kernel/riscv.hpp **** 
 139:src/kernel/../../h/kernel/riscv.hpp ****     static void disableTimerInterrupts();
 140:src/kernel/../../h/kernel/riscv.hpp **** 
 141:src/kernel/../../h/kernel/riscv.hpp ****     static void handlePageFault(void* PMT,uint64 addr, uint64 mask);
 142:src/kernel/../../h/kernel/riscv.hpp **** 
 143:src/kernel/../../h/kernel/riscv.hpp ****     static void initialize();
GAS LISTING /tmp/ccxUk6vw.s 			page 17


 144:src/kernel/../../h/kernel/riscv.hpp **** 
 145:src/kernel/../../h/kernel/riscv.hpp ****     static void finalize();
 146:src/kernel/../../h/kernel/riscv.hpp **** 
 147:src/kernel/../../h/kernel/riscv.hpp ****     static void* getPMT();
 148:src/kernel/../../h/kernel/riscv.hpp **** 
 149:src/kernel/../../h/kernel/riscv.hpp ****     static void buildSection(void* PMT, uint64 start, uint64 end, uint64 mask);
 150:src/kernel/../../h/kernel/riscv.hpp **** 
 151:src/kernel/../../h/kernel/riscv.hpp ****     static void buildKernelPMT();
 152:src/kernel/../../h/kernel/riscv.hpp **** 
 153:src/kernel/../../h/kernel/riscv.hpp ****     static void buildUserPMT();
 154:src/kernel/../../h/kernel/riscv.hpp **** 
 155:src/kernel/../../h/kernel/riscv.hpp ****     static void mapConsoleRegisters(void *PMT);
 156:src/kernel/../../h/kernel/riscv.hpp **** 
 157:src/kernel/../../h/kernel/riscv.hpp ****     friend class TCB;
 158:src/kernel/../../h/kernel/riscv.hpp **** 
 159:src/kernel/../../h/kernel/riscv.hpp ****     friend class System;
 160:src/kernel/../../h/kernel/riscv.hpp **** 
 161:src/kernel/../../h/kernel/riscv.hpp ****     friend class Scheduler;
 162:src/kernel/../../h/kernel/riscv.hpp **** 
 163:src/kernel/../../h/kernel/riscv.hpp ****     friend class ConsoleUtil;
 164:src/kernel/../../h/kernel/riscv.hpp **** 
 165:src/kernel/../../h/kernel/riscv.hpp ****     friend class SlabAllocator;
 166:src/kernel/../../h/kernel/riscv.hpp **** };
 167:src/kernel/../../h/kernel/riscv.hpp **** 
 168:src/kernel/../../h/kernel/riscv.hpp **** inline uint64 RiscV::r_scause(){
 169:src/kernel/../../h/kernel/riscv.hpp ****     uint64 volatile scause;
 170:src/kernel/../../h/kernel/riscv.hpp ****     asm("csrr %[scause], scause" : [scause] "=r" (scause));
 171:src/kernel/../../h/kernel/riscv.hpp ****     return scause;
 172:src/kernel/../../h/kernel/riscv.hpp **** }
 173:src/kernel/../../h/kernel/riscv.hpp **** 
 174:src/kernel/../../h/kernel/riscv.hpp **** inline void RiscV::w_scause(uint64 scause){
 175:src/kernel/../../h/kernel/riscv.hpp ****     asm("csrw scause, %[scause]" : : [scause] "r" (scause));
 176:src/kernel/../../h/kernel/riscv.hpp **** }
 177:src/kernel/../../h/kernel/riscv.hpp **** 
 178:src/kernel/../../h/kernel/riscv.hpp **** inline uint64 RiscV::r_sepc(){
 179:src/kernel/../../h/kernel/riscv.hpp ****     uint64 sepc;
 180:src/kernel/../../h/kernel/riscv.hpp ****     asm("csrr %[sepc], sepc" : [sepc] "=r" (sepc));
 181:src/kernel/../../h/kernel/riscv.hpp ****     return sepc;
 182:src/kernel/../../h/kernel/riscv.hpp **** }
 183:src/kernel/../../h/kernel/riscv.hpp **** 
 184:src/kernel/../../h/kernel/riscv.hpp **** inline void RiscV::w_sepc(uint64 sepc){
 185:src/kernel/../../h/kernel/riscv.hpp ****     asm("csrw sepc, %[sepc]" : : [sepc] "r" (sepc));
 186:src/kernel/../../h/kernel/riscv.hpp **** }
 187:src/kernel/../../h/kernel/riscv.hpp **** 
 188:src/kernel/../../h/kernel/riscv.hpp **** inline uint64 RiscV::r_stvec(){
 189:src/kernel/../../h/kernel/riscv.hpp ****     uint64 stvec;
 190:src/kernel/../../h/kernel/riscv.hpp ****     asm("csrr %[stvec], stvec" : [stvec] "=r" (stvec));
 191:src/kernel/../../h/kernel/riscv.hpp ****     return stvec;
 192:src/kernel/../../h/kernel/riscv.hpp **** }
 193:src/kernel/../../h/kernel/riscv.hpp **** 
 194:src/kernel/../../h/kernel/riscv.hpp **** inline void RiscV::w_sstatus(uint64 sstatus){
 195:src/kernel/../../h/kernel/riscv.hpp ****     asm("csrw sstatus, %[sstatus]" : : [sstatus] "r" (sstatus));
 196:src/kernel/../../h/kernel/riscv.hpp **** }
 197:src/kernel/../../h/kernel/riscv.hpp **** 
 198:src/kernel/../../h/kernel/riscv.hpp **** inline uint64 RiscV::r_sstatus(){
 199:src/kernel/../../h/kernel/riscv.hpp ****     uint64 sstatus;
 200:src/kernel/../../h/kernel/riscv.hpp ****     asm("csrr %[sstatus], sstatus" : [sstatus] "=r" (sstatus));
GAS LISTING /tmp/ccxUk6vw.s 			page 18


 201:src/kernel/../../h/kernel/riscv.hpp ****     return sstatus;
 202:src/kernel/../../h/kernel/riscv.hpp **** }
 203:src/kernel/../../h/kernel/riscv.hpp **** 
 204:src/kernel/../../h/kernel/riscv.hpp **** inline void RiscV::w_stvec(uint64 stvec){
 205:src/kernel/../../h/kernel/riscv.hpp ****     asm("csrw stvec, %[stvec]" : : [stvec] "r" (stvec));
 206:src/kernel/../../h/kernel/riscv.hpp **** }
 207:src/kernel/../../h/kernel/riscv.hpp **** 
 208:src/kernel/../../h/kernel/riscv.hpp **** inline void  RiscV::ms_sstatus(uint64 mask) {
 209:src/kernel/../../h/kernel/riscv.hpp ****     asm("csrs sstatus, %[mask]" : : [mask] "r" (mask));
 210:src/kernel/../../h/kernel/riscv.hpp **** }
 211:src/kernel/../../h/kernel/riscv.hpp **** 
 212:src/kernel/../../h/kernel/riscv.hpp **** inline void  RiscV::mc_sstatus(uint64 mask) {
 213:src/kernel/../../h/kernel/riscv.hpp ****     asm("csrc sstatus, %[mask]" : : [mask] "r" (mask));
 202              		.loc 2 213 5
 203              		.loc 2 213 55 is_stmt 0
 204 0108 93070010 		li	a5,256
 205              	#APP
 206              	# 213 "src/kernel/../../h/kernel/riscv.hpp" 1
 214              	}
 207              		csrc sstatus, a5
 208              	# 0 "" 2
 209              	.LVL5:
 210              	#NO_APP
 211              	.L11:
 212              	.LBE106:
 213              	.LBE105:
 566:src/kernel/riscv.cpp **** //        RiscV::startVirtualMemory(RiscV::uPMT);
 567:src/kernel/riscv.cpp ****     }
 568:src/kernel/riscv.cpp **** }
 214              		.loc 1 568 1
 215 0110 03348100 		ld	s0,8(sp)
 216              		.cfi_remember_state
 217              		.cfi_restore 8
 218              		.cfi_def_cfa 2, 16
 219 0114 13010101 		addi	sp,sp,16
 220              		.cfi_def_cfa_offset 0
 221 0118 67800000 		jr	ra
 222              	.L15:
 223              		.cfi_restore_state
 561:src/kernel/riscv.cpp **** //        RiscV::startVirtualMemory(RiscV::kPMT);
 224              		.loc 1 561 9 is_stmt 1
 225              	.LVL6:
 226              	.LBB107:
 227              	.LBB108:
 209:src/kernel/../../h/kernel/riscv.hpp **** }
 228              		.loc 2 209 5
 209:src/kernel/../../h/kernel/riscv.hpp **** }
 229              		.loc 2 209 55 is_stmt 0
 230 011c 93070010 		li	a5,256
 231              	#APP
 232              	# 209 "src/kernel/../../h/kernel/riscv.hpp" 1
 210:src/kernel/../../h/kernel/riscv.hpp **** 
 233              		csrs sstatus, a5
 234              	# 0 "" 2
 235              		.loc 2 210 1
 236              	#NO_APP
 237 0124 6FF0DFFE 		j	.L11
GAS LISTING /tmp/ccxUk6vw.s 			page 19


 238              	.LBE108:
 239              	.LBE107:
 240              		.cfi_endproc
 241              	.LFE66:
 243              		.align	2
 244              		.globl	_ZN5RiscV8finalizeEv
 246              	_ZN5RiscV8finalizeEv:
 247              	.LFB67:
 569:src/kernel/riscv.cpp **** 
 570:src/kernel/riscv.cpp **** 
 571:src/kernel/riscv.cpp **** //clear out the scheduler and let console finish remaining outputs if there are any
 572:src/kernel/riscv.cpp **** void RiscV::finalize() {
 248              		.loc 1 572 24 is_stmt 1
 249              		.cfi_startproc
 250 0128 130101FF 		addi	sp,sp,-16
 251              		.cfi_def_cfa_offset 16
 252 012c 23341100 		sd	ra,8(sp)
 253 0130 23308100 		sd	s0,0(sp)
 254              		.cfi_offset 1, -8
 255              		.cfi_offset 8, -16
 256 0134 13040101 		addi	s0,sp,16
 257              		.cfi_def_cfa 8, 0
 573:src/kernel/riscv.cpp ****     userMainFinished = true;
 258              		.loc 1 573 5
 259              		.loc 1 573 22 is_stmt 0
 260 0138 93071000 		li	a5,1
 261 013c 17070000 		sb	a5,.LANCHOR0,a4
 261      2300F700 
 574:src/kernel/riscv.cpp **** 
 575:src/kernel/riscv.cpp ****     ConsoleUtil::pendingPutc = 0;
 262              		.loc 1 575 5 is_stmt 1
 263              		.loc 1 575 30 is_stmt 0
 264 0144 97070000 		la	a5,_ZN11ConsoleUtil11pendingPutcE
 264      83B70700 
 265 014c 23B00700 		sd	zero,0(a5)
 576:src/kernel/riscv.cpp ****     ConsoleUtil::pendingGetc = 0;
 266              		.loc 1 576 5 is_stmt 1
 267              		.loc 1 576 30 is_stmt 0
 268 0150 97070000 		la	a5,_ZN11ConsoleUtil11pendingGetcE
 268      83B70700 
 269 0158 23B00700 		sd	zero,0(a5)
 577:src/kernel/riscv.cpp **** 
 578:src/kernel/riscv.cpp ****     RiscV::disableInterrupts();
 270              		.loc 1 578 5 is_stmt 1
 271              	.LBB109:
 272              	.LBB110:
 215:src/kernel/../../h/kernel/riscv.hpp **** 
 216:src/kernel/../../h/kernel/riscv.hpp **** inline void  RiscV::ms_sip(uint64 mask) {
 217:src/kernel/../../h/kernel/riscv.hpp ****     asm("csrs sip, %[mask]" : : [mask] "r" (mask));
 218:src/kernel/../../h/kernel/riscv.hpp **** }
 219:src/kernel/../../h/kernel/riscv.hpp **** 
 220:src/kernel/../../h/kernel/riscv.hpp **** inline void  RiscV::mc_sip(uint64 mask) {
 221:src/kernel/../../h/kernel/riscv.hpp ****     asm("csrc sip, %[mask]" : : [mask] "r" (mask));
 222:src/kernel/../../h/kernel/riscv.hpp **** }
 223:src/kernel/../../h/kernel/riscv.hpp **** 
 224:src/kernel/../../h/kernel/riscv.hpp **** inline void  RiscV::ms_sie(uint64 mask) {
 225:src/kernel/../../h/kernel/riscv.hpp ****     asm("csrs sie, %[mask]" : : [mask] "r" (mask));
GAS LISTING /tmp/ccxUk6vw.s 			page 20


 226:src/kernel/../../h/kernel/riscv.hpp **** }
 227:src/kernel/../../h/kernel/riscv.hpp **** 
 228:src/kernel/../../h/kernel/riscv.hpp **** inline void  RiscV::mc_sie(uint64 mask){
 229:src/kernel/../../h/kernel/riscv.hpp ****     asm("csrc sie, %[mask]" : : [mask] "r" (mask));
 230:src/kernel/../../h/kernel/riscv.hpp **** }
 231:src/kernel/../../h/kernel/riscv.hpp **** 
 232:src/kernel/../../h/kernel/riscv.hpp **** inline void RiscV::enableInterrupts() {
 233:src/kernel/../../h/kernel/riscv.hpp ****     RiscV::ms_sie(SIP_SSIE);
 234:src/kernel/../../h/kernel/riscv.hpp ****     RiscV::ms_sie(SIP_SEIE);
 235:src/kernel/../../h/kernel/riscv.hpp ****     RiscV::ms_sstatus(SSTATUS_SIE);
 236:src/kernel/../../h/kernel/riscv.hpp **** }
 237:src/kernel/../../h/kernel/riscv.hpp **** 
 238:src/kernel/../../h/kernel/riscv.hpp **** inline void RiscV::disableInterrupts() {
 239:src/kernel/../../h/kernel/riscv.hpp ****     disableTimerInterrupts();
 273              		.loc 2 239 5
 274              	.LBE110:
 275              	.LBE109:
 240:src/kernel/../../h/kernel/riscv.hpp ****     disableHardwareInterrupts();
 241:src/kernel/../../h/kernel/riscv.hpp **** }
 242:src/kernel/../../h/kernel/riscv.hpp **** 
 243:src/kernel/../../h/kernel/riscv.hpp **** inline void RiscV::enableHardwareInterrupts() {
 244:src/kernel/../../h/kernel/riscv.hpp ****     RiscV::mc_sie(SIP_SSIE);
 245:src/kernel/../../h/kernel/riscv.hpp ****     RiscV::ms_sstatus(SSTATUS_SIE);
 246:src/kernel/../../h/kernel/riscv.hpp ****     RiscV::ms_sie(SIP_SEIE);
 247:src/kernel/../../h/kernel/riscv.hpp **** }
 248:src/kernel/../../h/kernel/riscv.hpp **** 
 249:src/kernel/../../h/kernel/riscv.hpp **** inline void RiscV::disableHardwareInterrupts(){
 250:src/kernel/../../h/kernel/riscv.hpp ****     RiscV::mc_sie(SIP_SEIE);
 251:src/kernel/../../h/kernel/riscv.hpp **** }
 252:src/kernel/../../h/kernel/riscv.hpp **** 
 253:src/kernel/../../h/kernel/riscv.hpp **** inline void RiscV::enableTimerInterrupts() {
 254:src/kernel/../../h/kernel/riscv.hpp ****     RiscV::mc_sie(SIP_SEIE);
 255:src/kernel/../../h/kernel/riscv.hpp ****     RiscV::ms_sstatus(SSTATUS_SIE);
 256:src/kernel/../../h/kernel/riscv.hpp ****     RiscV::ms_sie(SIP_SSIE);
 257:src/kernel/../../h/kernel/riscv.hpp **** }
 258:src/kernel/../../h/kernel/riscv.hpp **** 
 259:src/kernel/../../h/kernel/riscv.hpp **** inline void RiscV::disableTimerInterrupts(){
 260:src/kernel/../../h/kernel/riscv.hpp ****     RiscV::mc_sie(SIP_SSIE);
 276              		.loc 2 260 5
 277              	.LVL7:
 278              	.LBB119:
 279              	.LBB117:
 280              	.LBB111:
 281              	.LBB112:
 282              	.LBB113:
 229:src/kernel/../../h/kernel/riscv.hpp **** }
 283              		.loc 2 229 5
 229:src/kernel/../../h/kernel/riscv.hpp **** }
 284              		.loc 2 229 51 is_stmt 0
 285 015c 93072000 		li	a5,2
 286              	#APP
 287              	# 229 "src/kernel/../../h/kernel/riscv.hpp" 1
 288              		csrc sie, a5
 289              	# 0 "" 2
 290              	.LVL8:
 291              	#NO_APP
 292              	.LBE113:
GAS LISTING /tmp/ccxUk6vw.s 			page 21


 293              	.LBE112:
 294              	.LBE111:
 240:src/kernel/../../h/kernel/riscv.hpp ****     disableHardwareInterrupts();
 295              		.loc 2 240 5 is_stmt 1
 296              	.LBE117:
 297              	.LBE119:
 250:src/kernel/../../h/kernel/riscv.hpp **** }
 298              		.loc 2 250 5
 299              	.LBB120:
 300              	.LBB118:
 301              	.LBB114:
 302              	.LBB115:
 303              	.LBB116:
 229:src/kernel/../../h/kernel/riscv.hpp **** }
 304              		.loc 2 229 5
 229:src/kernel/../../h/kernel/riscv.hpp **** }
 305              		.loc 2 229 51 is_stmt 0
 306 0164 93070020 		li	a5,512
 307              	#APP
 308              	# 229 "src/kernel/../../h/kernel/riscv.hpp" 1
 309              		csrc sie, a5
 310              	# 0 "" 2
 311              	.LVL9:
 312              	#NO_APP
 313              	.L18:
 314              	.LBE116:
 315              	.LBE115:
 316              	.LBE114:
 317              	.LBE118:
 318              	.LBE120:
 579:src/kernel/riscv.cpp **** 
 580:src/kernel/riscv.cpp ****     while(Scheduler::readyHead != nullptr)
 319              		.loc 1 580 5 is_stmt 1
 320              		.loc 1 580 32
 321 016c 97070000 		la	a5,_ZN9Scheduler9readyHeadE
 321      83B70700 
 322 0174 83B70700 		ld	a5,0(a5)
 323 0178 638C0700 		beqz	a5,.L17
 581:src/kernel/riscv.cpp ****         Scheduler::readyHead = Scheduler::readyHead->next;
 324              		.loc 1 581 9
 325              		.loc 1 581 54 is_stmt 0
 326 017c 03B78704 		ld	a4,72(a5)
 327              		.loc 1 581 30
 328 0180 97070000 		la	a5,_ZN9Scheduler9readyHeadE
 328      83B70700 
 329 0188 23B0E700 		sd	a4,0(a5)
 580:src/kernel/riscv.cpp ****         Scheduler::readyHead = Scheduler::readyHead->next;
 330              		.loc 1 580 5
 331 018c 6FF01FFE 		j	.L18
 332              	.L17:
 582:src/kernel/riscv.cpp **** 
 583:src/kernel/riscv.cpp ****     Scheduler::put(TCB::putcThread);
 333              		.loc 1 583 5 is_stmt 1
 334              		.loc 1 583 19 is_stmt 0
 335 0190 97070000 		la	a5,_ZN3TCB10putcThreadE
 335      83B70700 
 336 0198 03B50700 		ld	a0,0(a5)
GAS LISTING /tmp/ccxUk6vw.s 			page 22


 337 019c 97000000 		call	_ZN9Scheduler3putEP3TCB@plt
 337      E7800000 
 338              	.LVL10:
 339              	.L20:
 584:src/kernel/riscv.cpp **** 
 585:src/kernel/riscv.cpp ****     while(ConsoleUtil::outputHead != ConsoleUtil::outputTail)
 340              		.loc 1 585 5 is_stmt 1
 341              		.loc 1 585 35
 342 01a4 97070000 		la	a5,_ZN11ConsoleUtil10outputHeadE
 342      83B70700 
 343 01ac 03B70700 		ld	a4,0(a5)
 344 01b0 97070000 		la	a5,_ZN11ConsoleUtil10outputTailE
 344      83B70700 
 345 01b8 83B70700 		ld	a5,0(a5)
 346 01bc 6308F700 		beq	a4,a5,.L16
 586:src/kernel/riscv.cpp ****         TCB::dispatch();
 347              		.loc 1 586 9
 348              		.loc 1 586 22 is_stmt 0
 349 01c0 97000000 		call	_ZN3TCB8dispatchEv@plt
 349      E7800000 
 350              	.LVL11:
 585:src/kernel/riscv.cpp ****         TCB::dispatch();
 351              		.loc 1 585 5
 352 01c8 6FF0DFFD 		j	.L20
 353              	.L16:
 587:src/kernel/riscv.cpp **** }
 354              		.loc 1 587 1
 355 01cc 83308100 		ld	ra,8(sp)
 356              		.cfi_restore 1
 357 01d0 03340100 		ld	s0,0(sp)
 358              		.cfi_restore 8
 359              		.cfi_def_cfa 2, 16
 360 01d4 13010101 		addi	sp,sp,16
 361              		.cfi_def_cfa_offset 0
 362 01d8 67800000 		jr	ra
 363              		.cfi_endproc
 364              	.LFE67:
 366              		.align	2
 367              		.globl	_ZN5RiscV16saveA0toSscratchEv
 369              	_ZN5RiscV16saveA0toSscratchEv:
 370              	.LFB68:
 588:src/kernel/riscv.cpp **** 
 589:src/kernel/riscv.cpp **** //write value in a0 to a memory location where a0 is store on stack for currently running thread
 590:src/kernel/riscv.cpp **** void RiscV::saveA0toSscratch()
 591:src/kernel/riscv.cpp **** {
 371              		.loc 1 591 1 is_stmt 1
 372              		.cfi_startproc
 373 01dc 130101FF 		addi	sp,sp,-16
 374              		.cfi_def_cfa_offset 16
 375 01e0 23348100 		sd	s0,8(sp)
 376              		.cfi_offset 8, -8
 377 01e4 13040101 		addi	s0,sp,16
 378              		.cfi_def_cfa 8, 0
 592:src/kernel/riscv.cpp ****     uint64 a1;
 379              		.loc 1 592 5
 593:src/kernel/riscv.cpp ****     asm("mv %[a1], a1": [a1] "=r"(a1));
 380              		.loc 1 593 5
GAS LISTING /tmp/ccxUk6vw.s 			page 23


 381              		.loc 1 593 39 is_stmt 0
 382              	#APP
 383              	# 593 "src/kernel/riscv.cpp" 1
 594              	    asm("mv a1, %[a0]" : :  [a0] "r"(TCB::running->a0Location));
 384              		mv a5, a1
 385              	# 0 "" 2
 386              		.loc 1 594 5 is_stmt 1
 387              		.loc 1 594 52 is_stmt 0
 388              	#NO_APP
 389 01ec 17070000 		la	a4,_ZN3TCB7runningE
 389      03370700 
 390 01f4 03370700 		ld	a4,0(a4)
 391 01f8 03378706 		ld	a4,104(a4)
 392              		.loc 1 594 64
 393              	#APP
 394              	# 594 "src/kernel/riscv.cpp" 1
 595              	    asm("sd a0, 80(a1)");
 395              		mv a1, a4
 396              	# 0 "" 2
 397              		.loc 1 595 5 is_stmt 1
 398              		.loc 1 595 25 is_stmt 0
 399              	# 595 "src/kernel/riscv.cpp" 1
 596              	    asm("mv a1,%[a1]"::  [a1]"r"(a1));
 400              		sd a0, 80(a1)
 401              	# 0 "" 2
 402              		.loc 1 596 5 is_stmt 1
 403              		.loc 1 596 38 is_stmt 0
 404              	# 596 "src/kernel/riscv.cpp" 1
 597              	}
 405              		mv a1,a5
 406              	# 0 "" 2
 407              		.loc 1 597 1
 408              	#NO_APP
 409 0208 03348100 		ld	s0,8(sp)
 410              		.cfi_restore 8
 411              		.cfi_def_cfa 2, 16
 412 020c 13010101 		addi	sp,sp,16
 413              		.cfi_def_cfa_offset 0
 414 0210 67800000 		jr	ra
 415              		.cfi_endproc
 416              	.LFE68:
 418              		.align	2
 419              		.globl	_ZN5RiscV22executeMemAllocSyscallEv
 421              	_ZN5RiscV22executeMemAllocSyscallEv:
 422              	.LFB50:
 205:src/kernel/riscv.cpp **** 
 423              		.loc 1 205 37 is_stmt 1
 424              		.cfi_startproc
 425 0214 130101FF 		addi	sp,sp,-16
 426              		.cfi_def_cfa_offset 16
 427 0218 23341100 		sd	ra,8(sp)
 428 021c 23308100 		sd	s0,0(sp)
 429              		.cfi_offset 1, -8
 430              		.cfi_offset 8, -16
 431 0220 13040101 		addi	s0,sp,16
 432              		.cfi_def_cfa 8, 0
 208:src/kernel/riscv.cpp ****     asm("mv %[size], a1" : [size] "=r" (size));
GAS LISTING /tmp/ccxUk6vw.s 			page 24


 433              		.loc 1 208 5
 209:src/kernel/riscv.cpp **** 
 434              		.loc 1 209 5
 209:src/kernel/riscv.cpp **** 
 435              		.loc 1 209 47 is_stmt 0
 436              	#APP
 437              	# 209 "src/kernel/riscv.cpp" 1
 438              		mv a0, a1
 439              	# 0 "" 2
 440              	.LVL12:
 212:src/kernel/riscv.cpp **** 
 441              		.loc 1 212 5 is_stmt 1
 212:src/kernel/riscv.cpp **** 
 442              		.loc 1 212 50 is_stmt 0
 443              	#NO_APP
 444 0228 97000000 		call	_ZN15MemoryAllocator7kmallocEm@plt
 444      E7800000 
 445              	.LVL13:
 214:src/kernel/riscv.cpp **** 
 446              		.loc 1 214 5 is_stmt 1
 214:src/kernel/riscv.cpp **** 
 447              		.loc 1 214 48 is_stmt 0
 448              	#APP
 449              	# 214 "src/kernel/riscv.cpp" 1
 216:src/kernel/riscv.cpp **** }
 450              		mv a0, a0
 451              	# 0 "" 2
 452              		.loc 1 216 5 is_stmt 1
 216:src/kernel/riscv.cpp **** }
 453              		.loc 1 216 28 is_stmt 0
 454              	#NO_APP
 455 0234 97000000 		call	_ZN5RiscV16saveA0toSscratchEv
 455      E7800000 
 456              	.LVL14:
 217:src/kernel/riscv.cpp **** 
 457              		.loc 1 217 1
 458 023c 83308100 		ld	ra,8(sp)
 459              		.cfi_restore 1
 460 0240 03340100 		ld	s0,0(sp)
 461              		.cfi_restore 8
 462              		.cfi_def_cfa 2, 16
 463 0244 13010101 		addi	sp,sp,16
 464              		.cfi_def_cfa_offset 0
 465 0248 67800000 		jr	ra
 466              		.cfi_endproc
 467              	.LFE50:
 469              		.align	2
 470              		.globl	_ZN5RiscV21executeMemFreeSyscallEv
 472              	_ZN5RiscV21executeMemFreeSyscallEv:
 473              	.LFB51:
 219:src/kernel/riscv.cpp **** 
 474              		.loc 1 219 37 is_stmt 1
 475              		.cfi_startproc
 476 024c 130101FF 		addi	sp,sp,-16
 477              		.cfi_def_cfa_offset 16
 478 0250 23341100 		sd	ra,8(sp)
 479 0254 23308100 		sd	s0,0(sp)
GAS LISTING /tmp/ccxUk6vw.s 			page 25


 480              		.cfi_offset 1, -8
 481              		.cfi_offset 8, -16
 482 0258 13040101 		addi	s0,sp,16
 483              		.cfi_def_cfa 8, 0
 222:src/kernel/riscv.cpp **** 
 484              		.loc 1 222 5
 225:src/kernel/riscv.cpp ****         //call internal allocator and free memory which iaddr points to
 485              		.loc 1 225 5
 486 025c 97070000 		la	a5,_ZN15MemoryAllocator11initializedE
 486      83B70700 
 487 0264 83C70700 		lbu	a5,0(a5)
 488 0268 63920702 		bnez	a5,.L30
 231:src/kernel/riscv.cpp **** 
 489              		.loc 1 231 16 is_stmt 0
 490 026c 1305F0FF 		li	a0,-1
 491              	.L27:
 492              	.LVL15:
 234:src/kernel/riscv.cpp **** 
 493              		.loc 1 234 5 is_stmt 1
 234:src/kernel/riscv.cpp **** 
 494              		.loc 1 234 54 is_stmt 0
 495              	#APP
 496              	# 234 "src/kernel/riscv.cpp" 1
 236:src/kernel/riscv.cpp **** }
 497              		mv a0, a0
 498              	# 0 "" 2
 499              		.loc 1 236 5 is_stmt 1
 236:src/kernel/riscv.cpp **** }
 500              		.loc 1 236 28 is_stmt 0
 501              	#NO_APP
 502 0274 97000000 		call	_ZN5RiscV16saveA0toSscratchEv
 502      E7800000 
 503              	.LVL16:
 237:src/kernel/riscv.cpp **** 
 504              		.loc 1 237 1
 505 027c 83308100 		ld	ra,8(sp)
 506              		.cfi_remember_state
 507              		.cfi_restore 1
 508 0280 03340100 		ld	s0,0(sp)
 509              		.cfi_restore 8
 510              		.cfi_def_cfa 2, 16
 511 0284 13010101 		addi	sp,sp,16
 512              		.cfi_def_cfa_offset 0
 513 0288 67800000 		jr	ra
 514              	.L30:
 515              		.cfi_restore_state
 227:src/kernel/riscv.cpp ****         status = MemoryAllocator::kfree((void *) iaddr);;
 516              		.loc 1 227 9 is_stmt 1
 227:src/kernel/riscv.cpp ****         status = MemoryAllocator::kfree((void *) iaddr);;
 517              		.loc 1 227 53 is_stmt 0
 518              	#APP
 519              	# 227 "src/kernel/riscv.cpp" 1
 520              		mv a0, a1
 521              	# 0 "" 2
 522              	.LVL17:
 228:src/kernel/riscv.cpp ****     }
 523              		.loc 1 228 9 is_stmt 1
GAS LISTING /tmp/ccxUk6vw.s 			page 26


 228:src/kernel/riscv.cpp ****     }
 524              		.loc 1 228 40 is_stmt 0
 525              	#NO_APP
 526 0290 97000000 		call	_ZN15MemoryAllocator5kfreeEPv@plt
 526      E7800000 
 527              	.LVL18:
 228:src/kernel/riscv.cpp ****     }
 528              		.loc 1 228 57 is_stmt 1
 529 0298 6FF09FFD 		j	.L27
 530              		.cfi_endproc
 531              	.LFE51:
 533              		.align	2
 534              		.globl	_ZN5RiscV26executeThreadCreateSyscallEv
 536              	_ZN5RiscV26executeThreadCreateSyscallEv:
 537              	.LFB52:
 239:src/kernel/riscv.cpp **** 
 538              		.loc 1 239 41
 539              		.cfi_startproc
 540              		.cfi_personality 0x9b,DW.ref.__gxx_personality_v0
 541              		.cfi_lsda 0x1b,.LLSDA52
 542 029c 130101FC 		addi	sp,sp,-64
 543              		.cfi_def_cfa_offset 64
 544 02a0 233C1102 		sd	ra,56(sp)
 545 02a4 23388102 		sd	s0,48(sp)
 546 02a8 23349102 		sd	s1,40(sp)
 547 02ac 23302103 		sd	s2,32(sp)
 548 02b0 233C3101 		sd	s3,24(sp)
 549 02b4 23384101 		sd	s4,16(sp)
 550 02b8 23345101 		sd	s5,8(sp)
 551              		.cfi_offset 1, -8
 552              		.cfi_offset 8, -16
 553              		.cfi_offset 9, -24
 554              		.cfi_offset 18, -32
 555              		.cfi_offset 19, -40
 556              		.cfi_offset 20, -48
 557              		.cfi_offset 21, -56
 558 02bc 13040104 		addi	s0,sp,64
 559              		.cfi_def_cfa 8, 0
 242:src/kernel/riscv.cpp **** 
 560              		.loc 1 242 5
 244:src/kernel/riscv.cpp ****     asm("mv %[ihandle], a1" : [ihandle] "=r"(ihandle));
 561              		.loc 1 244 5
 244:src/kernel/riscv.cpp ****     asm("mv %[ihandle], a1" : [ihandle] "=r"(ihandle));
 562              		.loc 1 244 52 is_stmt 0
 563              	#APP
 564              	# 244 "src/kernel/riscv.cpp" 1
 565              		mv s5, a7
 566              	# 0 "" 2
 567              	.LVL19:
 245:src/kernel/riscv.cpp ****     asm("mv %[iroutine], a2" : [iroutine] "=r"(iroutine));
 568              		.loc 1 245 5 is_stmt 1
 245:src/kernel/riscv.cpp ****     asm("mv %[iroutine], a2" : [iroutine] "=r"(iroutine));
 569              		.loc 1 245 55 is_stmt 0
 570              	# 245 "src/kernel/riscv.cpp" 1
 571              		mv s2, a1
 572              	# 0 "" 2
 573              	.LVL20:
GAS LISTING /tmp/ccxUk6vw.s 			page 27


 246:src/kernel/riscv.cpp ****     asm("mv %[iargs], a3" : [iargs] "=r"(iargs));
 574              		.loc 1 246 5 is_stmt 1
 246:src/kernel/riscv.cpp ****     asm("mv %[iargs], a3" : [iargs] "=r"(iargs));
 575              		.loc 1 246 58 is_stmt 0
 576              	# 246 "src/kernel/riscv.cpp" 1
 577              		mv s3, a2
 578              	# 0 "" 2
 579              	.LVL21:
 247:src/kernel/riscv.cpp **** 
 580              		.loc 1 247 5 is_stmt 1
 247:src/kernel/riscv.cpp **** 
 581              		.loc 1 247 49 is_stmt 0
 582              	# 247 "src/kernel/riscv.cpp" 1
 583              		mv s4, a3
 584              	# 0 "" 2
 585              	.LVL22:
 250:src/kernel/riscv.cpp **** 
 586              		.loc 1 250 5 is_stmt 1
 250:src/kernel/riscv.cpp **** 
 587              		.loc 1 250 94 is_stmt 0
 588              	#NO_APP
 589 02d0 13050007 		li	a0,112
 590              	.LEHB0:
 591 02d4 97000000 		call	_ZN3TCBnwEm@plt
 591      E7800000 
 592              	.LVL23:
 593              	.LEHE0:
 594 02dc 93040500 		mv	s1,a0
 595 02e0 630E0500 		beqz	a0,.L32
 250:src/kernel/riscv.cpp **** 
 596              		.loc 1 250 94 discriminator 1
 597 02e4 13072000 		li	a4,2
 598 02e8 93860A00 		mv	a3,s5
 599 02ec 13060A00 		mv	a2,s4
 600 02f0 93850900 		mv	a1,s3
 601              	.LEHB1:
 602 02f4 97000000 		call	_ZN3TCBC1EPFvPvES0_Pmm@plt
 602      E7800000 
 603              	.LVL24:
 604              	.LEHE1:
 605              	.L32:
 252:src/kernel/riscv.cpp **** 
 606              		.loc 1 252 5 is_stmt 1 discriminator 6
 254:src/kernel/riscv.cpp ****         status = -1;
 607              		.loc 1 254 5 discriminator 6
 608 02fc 63880404 		beqz	s1,.L36
 258:src/kernel/riscv.cpp ****             Scheduler::put(tcb);
 609              		.loc 1 258 9
 258:src/kernel/riscv.cpp ****             Scheduler::put(tcb);
 610              		.loc 1 258 17 is_stmt 0
 611 0300 83B78401 		ld	a5,24(s1)
 258:src/kernel/riscv.cpp ****             Scheduler::put(tcb);
 612              		.loc 1 258 9
 613 0304 63880700 		beqz	a5,.L34
 259:src/kernel/riscv.cpp ****         *((TCB**)ihandle) = tcb;
 614              		.loc 1 259 13 is_stmt 1
 259:src/kernel/riscv.cpp ****         *((TCB**)ihandle) = tcb;
GAS LISTING /tmp/ccxUk6vw.s 			page 28


 615              		.loc 1 259 27 is_stmt 0
 616 0308 13850400 		mv	a0,s1
 617              	.LEHB2:
 618 030c 97000000 		call	_ZN9Scheduler3putEP3TCB@plt
 618      E7800000 
 619              	.LVL25:
 620              	.LEHE2:
 621              	.L34:
 260:src/kernel/riscv.cpp ****     }
 622              		.loc 1 260 9 is_stmt 1
 260:src/kernel/riscv.cpp ****     }
 623              		.loc 1 260 27 is_stmt 0
 624 0314 23309900 		sd	s1,0(s2)
 252:src/kernel/riscv.cpp **** 
 625              		.loc 1 252 12
 626 0318 93070000 		li	a5,0
 627              	.L33:
 628              	.LVL26:
 264:src/kernel/riscv.cpp **** 
 629              		.loc 1 264 5 is_stmt 1
 264:src/kernel/riscv.cpp **** 
 630              		.loc 1 264 54 is_stmt 0
 631              	#APP
 632              	# 264 "src/kernel/riscv.cpp" 1
 266:src/kernel/riscv.cpp **** }
 633              		mv a0, a5
 634              	# 0 "" 2
 635              		.loc 1 266 5 is_stmt 1
 266:src/kernel/riscv.cpp **** }
 636              		.loc 1 266 28 is_stmt 0
 637              	#NO_APP
 638 0320 97000000 		call	_ZN5RiscV16saveA0toSscratchEv
 638      E7800000 
 639              	.LVL27:
 267:src/kernel/riscv.cpp **** 
 640              		.loc 1 267 1
 641 0328 83308103 		ld	ra,56(sp)
 642              		.cfi_remember_state
 643              		.cfi_restore 1
 644 032c 03340103 		ld	s0,48(sp)
 645              		.cfi_restore 8
 646              		.cfi_def_cfa 2, 64
 647 0330 83348102 		ld	s1,40(sp)
 648              		.cfi_restore 9
 649              	.LVL28:
 650 0334 03390102 		ld	s2,32(sp)
 651              		.cfi_restore 18
 652              	.LVL29:
 653 0338 83398101 		ld	s3,24(sp)
 654              		.cfi_restore 19
 655              	.LVL30:
 656 033c 033A0101 		ld	s4,16(sp)
 657              		.cfi_restore 20
 658              	.LVL31:
 659 0340 833A8100 		ld	s5,8(sp)
 660              		.cfi_restore 21
 661              	.LVL32:
GAS LISTING /tmp/ccxUk6vw.s 			page 29


 662 0344 13010104 		addi	sp,sp,64
 663              		.cfi_def_cfa_offset 0
 664 0348 67800000 		jr	ra
 665              	.LVL33:
 666              	.L36:
 667              		.cfi_restore_state
 255:src/kernel/riscv.cpp ****     }
 668              		.loc 1 255 16
 669 034c 9307F0FF 		li	a5,-1
 670 0350 6FF0DFFC 		j	.L33
 671              	.LVL34:
 672              	.L37:
 673 0354 13090500 		mv	s2,a0
 674              	.LVL35:
 250:src/kernel/riscv.cpp **** 
 675              		.loc 1 250 94
 676 0358 13850400 		mv	a0,s1
 677 035c 97000000 		call	_ZN3TCBdlEPv@plt
 677      E7800000 
 678              	.LVL36:
 679 0364 13050900 		mv	a0,s2
 680              	.LEHB3:
 681 0368 97000000 		call	_Unwind_Resume@plt
 681      E7800000 
 682              	.LVL37:
 683              	.LEHE3:
 684              		.cfi_endproc
 685              	.LFE52:
 686              		.globl	__gxx_personality_v0
 687              		.section	.gcc_except_table,"a",@progbits
 688              	.LLSDA52:
 689 0000 FF       		.byte	0xff
 690 0001 FF       		.byte	0xff
 691 0002 03       		.byte	0x3
 692 0003 34       		.byte	0x34
 693 0004 00000000 		.4byte	.LEHB0-.LFB52
 694 0008 00000000 		.4byte	.LEHE0-.LEHB0
 695 000c 00000000 		.4byte	0
 696 0010 00       		.byte	0
 697 0011 00000000 		.4byte	.LEHB1-.LFB52
 698 0015 00000000 		.4byte	.LEHE1-.LEHB1
 699 0019 00000000 		.4byte	.L37-.LFB52
 700 001d 00       		.byte	0
 701 001e 00000000 		.4byte	.LEHB2-.LFB52
 702 0022 00000000 		.4byte	.LEHE2-.LEHB2
 703 0026 00000000 		.4byte	0
 704 002a 00       		.byte	0
 705 002b 00000000 		.4byte	.LEHB3-.LFB52
 706 002f 00000000 		.4byte	.LEHE3-.LEHB3
 707 0033 00000000 		.4byte	0
 708 0037 00       		.byte	0
 709              		.text
 711              		.align	2
 712              		.globl	_ZN5RiscV30executeThreadAttachBodySyscallEv
 714              	_ZN5RiscV30executeThreadAttachBodySyscallEv:
 715              	.LFB53:
 269:src/kernel/riscv.cpp **** 
GAS LISTING /tmp/ccxUk6vw.s 			page 30


 716              		.loc 1 269 45 is_stmt 1
 717              		.cfi_startproc
 718              		.cfi_personality 0x9b,DW.ref.__gxx_personality_v0
 719              		.cfi_lsda 0x1b,.LLSDA53
 720 0370 130101FC 		addi	sp,sp,-64
 721              		.cfi_def_cfa_offset 64
 722 0374 233C1102 		sd	ra,56(sp)
 723 0378 23388102 		sd	s0,48(sp)
 724 037c 23349102 		sd	s1,40(sp)
 725 0380 23302103 		sd	s2,32(sp)
 726 0384 233C3101 		sd	s3,24(sp)
 727 0388 23384101 		sd	s4,16(sp)
 728 038c 23345101 		sd	s5,8(sp)
 729              		.cfi_offset 1, -8
 730              		.cfi_offset 8, -16
 731              		.cfi_offset 9, -24
 732              		.cfi_offset 18, -32
 733              		.cfi_offset 19, -40
 734              		.cfi_offset 20, -48
 735              		.cfi_offset 21, -56
 736 0390 13040104 		addi	s0,sp,64
 737              		.cfi_def_cfa 8, 0
 272:src/kernel/riscv.cpp **** 
 738              		.loc 1 272 5
 275:src/kernel/riscv.cpp ****     asm("mv %[ihandle], a1" : [ihandle] "=r"(ihandle));
 739              		.loc 1 275 5
 275:src/kernel/riscv.cpp ****     asm("mv %[ihandle], a1" : [ihandle] "=r"(ihandle));
 740              		.loc 1 275 52 is_stmt 0
 741              	#APP
 742              	# 275 "src/kernel/riscv.cpp" 1
 743              		mv s5, a7
 744              	# 0 "" 2
 745              	.LVL38:
 276:src/kernel/riscv.cpp ****     asm("mv %[iroutine], a2" : [iroutine] "=r"(iroutine));
 746              		.loc 1 276 5 is_stmt 1
 276:src/kernel/riscv.cpp ****     asm("mv %[iroutine], a2" : [iroutine] "=r"(iroutine));
 747              		.loc 1 276 55 is_stmt 0
 748              	# 276 "src/kernel/riscv.cpp" 1
 749              		mv s4, a1
 750              	# 0 "" 2
 751              	.LVL39:
 277:src/kernel/riscv.cpp ****     asm("mv %[iargs], a3" : [iargs] "=r"(iargs));
 752              		.loc 1 277 5 is_stmt 1
 277:src/kernel/riscv.cpp ****     asm("mv %[iargs], a3" : [iargs] "=r"(iargs));
 753              		.loc 1 277 58 is_stmt 0
 754              	# 277 "src/kernel/riscv.cpp" 1
 755              		mv s3, a2
 756              	# 0 "" 2
 757              	.LVL40:
 278:src/kernel/riscv.cpp **** 
 758              		.loc 1 278 5 is_stmt 1
 278:src/kernel/riscv.cpp **** 
 759              		.loc 1 278 49 is_stmt 0
 760              	# 278 "src/kernel/riscv.cpp" 1
 761              		mv s2, a3
 762              	# 0 "" 2
 763              	.LVL41:
GAS LISTING /tmp/ccxUk6vw.s 			page 31


 280:src/kernel/riscv.cpp **** 
 764              		.loc 1 280 5 is_stmt 1
 280:src/kernel/riscv.cpp **** 
 765              		.loc 1 280 94 is_stmt 0
 766              	#NO_APP
 767 03a4 13050007 		li	a0,112
 768              	.LEHB4:
 769 03a8 97000000 		call	_ZN3TCBnwEm@plt
 769      E7800000 
 770              	.LVL42:
 771              	.LEHE4:
 772 03b0 93040500 		mv	s1,a0
 773 03b4 630E0500 		beqz	a0,.L41
 280:src/kernel/riscv.cpp **** 
 774              		.loc 1 280 94 discriminator 1
 775 03b8 13072000 		li	a4,2
 776 03bc 93860A00 		mv	a3,s5
 777 03c0 13060900 		mv	a2,s2
 778 03c4 93850900 		mv	a1,s3
 779              	.LEHB5:
 780 03c8 97000000 		call	_ZN3TCBC1EPFvPvES0_Pmm@plt
 780      E7800000 
 781              	.LVL43:
 782              	.LEHE5:
 783              	.L41:
 282:src/kernel/riscv.cpp **** 
 784              		.loc 1 282 5 is_stmt 1 discriminator 6
 284:src/kernel/riscv.cpp ****         status = -1;
 785              		.loc 1 284 5 discriminator 6
 786 03d0 63820404 		beqz	s1,.L44
 288:src/kernel/riscv.cpp ****         tcb->args = (void*)iargs;
 787              		.loc 1 288 9
 288:src/kernel/riscv.cpp ****         tcb->args = (void*)iargs;
 788              		.loc 1 288 19 is_stmt 0
 789 03d4 23BC3401 		sd	s3,24(s1)
 289:src/kernel/riscv.cpp ****         *((TCB**)ihandle) = tcb;
 790              		.loc 1 289 9 is_stmt 1
 289:src/kernel/riscv.cpp ****         *((TCB**)ihandle) = tcb;
 791              		.loc 1 289 19 is_stmt 0
 792 03d8 23B02403 		sd	s2,32(s1)
 290:src/kernel/riscv.cpp ****     }
 793              		.loc 1 290 9 is_stmt 1
 290:src/kernel/riscv.cpp ****     }
 794              		.loc 1 290 27 is_stmt 0
 795 03dc 23309A00 		sd	s1,0(s4)
 282:src/kernel/riscv.cpp **** 
 796              		.loc 1 282 12
 797 03e0 93070000 		li	a5,0
 798              	.L42:
 799              	.LVL44:
 293:src/kernel/riscv.cpp **** 
 800              		.loc 1 293 5 is_stmt 1
 293:src/kernel/riscv.cpp **** 
 801              		.loc 1 293 54 is_stmt 0
 802              	#APP
 803              	# 293 "src/kernel/riscv.cpp" 1
 295:src/kernel/riscv.cpp **** }
GAS LISTING /tmp/ccxUk6vw.s 			page 32


 804              		mv a0, a5
 805              	# 0 "" 2
 806              		.loc 1 295 5 is_stmt 1
 295:src/kernel/riscv.cpp **** }
 807              		.loc 1 295 28 is_stmt 0
 808              	#NO_APP
 809 03e8 97000000 		call	_ZN5RiscV16saveA0toSscratchEv
 809      E7800000 
 810              	.LVL45:
 296:src/kernel/riscv.cpp **** 
 811              		.loc 1 296 1
 812 03f0 83308103 		ld	ra,56(sp)
 813              		.cfi_remember_state
 814              		.cfi_restore 1
 815 03f4 03340103 		ld	s0,48(sp)
 816              		.cfi_restore 8
 817              		.cfi_def_cfa 2, 64
 818 03f8 83348102 		ld	s1,40(sp)
 819              		.cfi_restore 9
 820              	.LVL46:
 821 03fc 03390102 		ld	s2,32(sp)
 822              		.cfi_restore 18
 823              	.LVL47:
 824 0400 83398101 		ld	s3,24(sp)
 825              		.cfi_restore 19
 826              	.LVL48:
 827 0404 033A0101 		ld	s4,16(sp)
 828              		.cfi_restore 20
 829              	.LVL49:
 830 0408 833A8100 		ld	s5,8(sp)
 831              		.cfi_restore 21
 832              	.LVL50:
 833 040c 13010104 		addi	sp,sp,64
 834              		.cfi_def_cfa_offset 0
 835 0410 67800000 		jr	ra
 836              	.LVL51:
 837              	.L44:
 838              		.cfi_restore_state
 285:src/kernel/riscv.cpp ****     }
 839              		.loc 1 285 16
 840 0414 9307F0FF 		li	a5,-1
 841 0418 6FF0DFFC 		j	.L42
 842              	.LVL52:
 843              	.L45:
 844 041c 13090500 		mv	s2,a0
 845              	.LVL53:
 280:src/kernel/riscv.cpp **** 
 846              		.loc 1 280 94
 847 0420 13850400 		mv	a0,s1
 848 0424 97000000 		call	_ZN3TCBdlEPv@plt
 848      E7800000 
 849              	.LVL54:
 850 042c 13050900 		mv	a0,s2
 851              	.LEHB6:
 852 0430 97000000 		call	_Unwind_Resume@plt
 852      E7800000 
 853              	.LVL55:
GAS LISTING /tmp/ccxUk6vw.s 			page 33


 854              	.LEHE6:
 855              		.cfi_endproc
 856              	.LFE53:
 857              		.section	.gcc_except_table
 858              	.LLSDA53:
 859 0038 FF       		.byte	0xff
 860 0039 FF       		.byte	0xff
 861 003a 03       		.byte	0x3
 862 003b 27       		.byte	0x27
 863 003c 00000000 		.4byte	.LEHB4-.LFB53
 864 0040 00000000 		.4byte	.LEHE4-.LEHB4
 865 0044 00000000 		.4byte	0
 866 0048 00       		.byte	0
 867 0049 00000000 		.4byte	.LEHB5-.LFB53
 868 004d 00000000 		.4byte	.LEHE5-.LEHB5
 869 0051 00000000 		.4byte	.L45-.LFB53
 870 0055 00       		.byte	0
 871 0056 00000000 		.4byte	.LEHB6-.LFB53
 872 005a 00000000 		.4byte	.LEHE6-.LEHB6
 873 005e 00000000 		.4byte	0
 874 0062 00       		.byte	0
 875              		.text
 877              		.align	2
 878              		.globl	_ZN5RiscV25executeThreadStartSyscallEv
 880              	_ZN5RiscV25executeThreadStartSyscallEv:
 881              	.LFB54:
 298:src/kernel/riscv.cpp **** 
 882              		.loc 1 298 40 is_stmt 1
 883              		.cfi_startproc
 884 0438 130101FF 		addi	sp,sp,-16
 885              		.cfi_def_cfa_offset 16
 886 043c 23341100 		sd	ra,8(sp)
 887 0440 23308100 		sd	s0,0(sp)
 888              		.cfi_offset 1, -8
 889              		.cfi_offset 8, -16
 890 0444 13040101 		addi	s0,sp,16
 891              		.cfi_def_cfa 8, 0
 301:src/kernel/riscv.cpp **** 
 892              		.loc 1 301 5
 303:src/kernel/riscv.cpp **** 
 893              		.loc 1 303 5
 303:src/kernel/riscv.cpp **** 
 894              		.loc 1 303 55 is_stmt 0
 895              	#APP
 896              	# 303 "src/kernel/riscv.cpp" 1
 897              		mv a0, a1
 898              	# 0 "" 2
 899              	.LVL56:
 306:src/kernel/riscv.cpp **** 
 900              		.loc 1 306 5 is_stmt 1
 308:src/kernel/riscv.cpp **** 
 901              		.loc 1 308 5
 310:src/kernel/riscv.cpp ****         status = -1;
 902              		.loc 1 310 5
 903              	#NO_APP
 904 044c 63120502 		bnez	a0,.L52
 311:src/kernel/riscv.cpp ****     }
GAS LISTING /tmp/ccxUk6vw.s 			page 34


 905              		.loc 1 311 16 is_stmt 0
 906 0450 9307F0FF 		li	a5,-1
 907              	.LVL57:
 908              	.L49:
 320:src/kernel/riscv.cpp **** 
 909              		.loc 1 320 5 is_stmt 1
 320:src/kernel/riscv.cpp **** 
 910              		.loc 1 320 54 is_stmt 0
 911              	#APP
 912              	# 320 "src/kernel/riscv.cpp" 1
 322:src/kernel/riscv.cpp **** }
 913              		mv a0, a5
 914              	# 0 "" 2
 915              		.loc 1 322 5 is_stmt 1
 322:src/kernel/riscv.cpp **** }
 916              		.loc 1 322 28 is_stmt 0
 917              	#NO_APP
 918 0458 97000000 		call	_ZN5RiscV16saveA0toSscratchEv
 918      E7800000 
 919              	.LVL58:
 323:src/kernel/riscv.cpp **** 
 920              		.loc 1 323 1
 921 0460 83308100 		ld	ra,8(sp)
 922              		.cfi_remember_state
 923              		.cfi_restore 1
 924 0464 03340100 		ld	s0,0(sp)
 925              		.cfi_restore 8
 926              		.cfi_def_cfa 2, 16
 927 0468 13010101 		addi	sp,sp,16
 928              		.cfi_def_cfa_offset 0
 929 046c 67800000 		jr	ra
 930              	.LVL59:
 931              	.L52:
 932              		.cfi_restore_state
 314:src/kernel/riscv.cpp ****         Scheduler::put(tcb);
 933              		.loc 1 314 9 is_stmt 1
 314:src/kernel/riscv.cpp ****         Scheduler::put(tcb);
 934              		.loc 1 314 21 is_stmt 0
 935 0470 93071000 		li	a5,1
 936 0474 2328F500 		sw	a5,16(a0)
 315:src/kernel/riscv.cpp ****         TCB::dispatch();
 937              		.loc 1 315 9 is_stmt 1
 315:src/kernel/riscv.cpp ****         TCB::dispatch();
 938              		.loc 1 315 23 is_stmt 0
 939 0478 97000000 		call	_ZN9Scheduler3putEP3TCB@plt
 939      E7800000 
 940              	.LVL60:
 316:src/kernel/riscv.cpp ****     }
 941              		.loc 1 316 9 is_stmt 1
 316:src/kernel/riscv.cpp ****     }
 942              		.loc 1 316 22 is_stmt 0
 943 0480 97000000 		call	_ZN3TCB8dispatchEv@plt
 943      E7800000 
 944              	.LVL61:
 308:src/kernel/riscv.cpp **** 
 945              		.loc 1 308 12
 946 0488 93070000 		li	a5,0
GAS LISTING /tmp/ccxUk6vw.s 			page 35


 947 048c 6FF09FFC 		j	.L49
 948              		.cfi_endproc
 949              	.LFE54:
 951              		.align	2
 952              		.globl	_ZN5RiscV24executeThreadExitSyscallEv
 954              	_ZN5RiscV24executeThreadExitSyscallEv:
 955              	.LFB55:
 325:src/kernel/riscv.cpp **** 
 956              		.loc 1 325 40 is_stmt 1
 957              		.cfi_startproc
 958 0490 130101FF 		addi	sp,sp,-16
 959              		.cfi_def_cfa_offset 16
 960 0494 23341100 		sd	ra,8(sp)
 961 0498 23308100 		sd	s0,0(sp)
 962              		.cfi_offset 1, -8
 963              		.cfi_offset 8, -16
 964 049c 13040101 		addi	s0,sp,16
 965              		.cfi_def_cfa 8, 0
 328:src/kernel/riscv.cpp **** 
 966              		.loc 1 328 5
 967              	.LVL62:
 331:src/kernel/riscv.cpp ****         status = -1;
 968              		.loc 1 331 5
 969              	.LBB121:
 331:src/kernel/riscv.cpp ****         status = -1;
 970              		.loc 1 331 21 is_stmt 0
 971 04a0 97070000 		la	a5,_ZN3TCB7runningE
 971      83B70700 
 972 04a8 83B70700 		ld	a5,0(a5)
 331:src/kernel/riscv.cpp ****         status = -1;
 973              		.loc 1 331 5
 974 04ac 638A0702 		beqz	a5,.L55
 975              	.LBB122:
 335:src/kernel/riscv.cpp ****         old->status = TCB::Status::FINISHED;
 976              		.loc 1 335 9 is_stmt 1
 977              	.LVL63:
 336:src/kernel/riscv.cpp ****         TCB::dispatch();
 978              		.loc 1 336 9
 336:src/kernel/riscv.cpp ****         TCB::dispatch();
 979              		.loc 1 336 21 is_stmt 0
 980 04b0 13072000 		li	a4,2
 981 04b4 23A8E700 		sw	a4,16(a5)
 337:src/kernel/riscv.cpp ****     }
 982              		.loc 1 337 9 is_stmt 1
 337:src/kernel/riscv.cpp ****     }
 983              		.loc 1 337 22 is_stmt 0
 984 04b8 97000000 		call	_ZN3TCB8dispatchEv@plt
 984      E7800000 
 985              	.LVL64:
 986              	.LBE122:
 987              	.LBE121:
 328:src/kernel/riscv.cpp **** 
 988              		.loc 1 328 12
 989 04c0 93070000 		li	a5,0
 990              	.L54:
 991              	.LVL65:
 340:src/kernel/riscv.cpp **** 
GAS LISTING /tmp/ccxUk6vw.s 			page 36


 992              		.loc 1 340 5 is_stmt 1
 340:src/kernel/riscv.cpp **** 
 993              		.loc 1 340 54 is_stmt 0
 994              	#APP
 995              	# 340 "src/kernel/riscv.cpp" 1
 342:src/kernel/riscv.cpp **** }
 996              		mv a0, a5
 997              	# 0 "" 2
 998              		.loc 1 342 5 is_stmt 1
 342:src/kernel/riscv.cpp **** }
 999              		.loc 1 342 28 is_stmt 0
 1000              	#NO_APP
 1001 04c8 97000000 		call	_ZN5RiscV16saveA0toSscratchEv
 1001      E7800000 
 1002              	.LVL66:
 343:src/kernel/riscv.cpp **** 
 1003              		.loc 1 343 1
 1004 04d0 83308100 		ld	ra,8(sp)
 1005              		.cfi_remember_state
 1006              		.cfi_restore 1
 1007 04d4 03340100 		ld	s0,0(sp)
 1008              		.cfi_restore 8
 1009              		.cfi_def_cfa 2, 16
 1010 04d8 13010101 		addi	sp,sp,16
 1011              		.cfi_def_cfa_offset 0
 1012 04dc 67800000 		jr	ra
 1013              	.LVL67:
 1014              	.L55:
 1015              		.cfi_restore_state
 1016              	.LBB123:
 332:src/kernel/riscv.cpp ****     }
 1017              		.loc 1 332 16
 1018 04e0 9307F0FF 		li	a5,-1
 1019 04e4 6FF01FFE 		j	.L54
 1020              	.LBE123:
 1021              		.cfi_endproc
 1022              	.LFE55:
 1024              		.align	2
 1025              		.globl	_ZN5RiscV21executeSemOpenSyscallEv
 1027              	_ZN5RiscV21executeSemOpenSyscallEv:
 1028              	.LFB57:
 353:src/kernel/riscv.cpp **** 
 1029              		.loc 1 353 37 is_stmt 1
 1030              		.cfi_startproc
 1031              		.cfi_personality 0x9b,DW.ref.__gxx_personality_v0
 1032              		.cfi_lsda 0x1b,.LLSDA57
 1033 04e8 130101FD 		addi	sp,sp,-48
 1034              		.cfi_def_cfa_offset 48
 1035 04ec 23341102 		sd	ra,40(sp)
 1036 04f0 23308102 		sd	s0,32(sp)
 1037 04f4 233C9100 		sd	s1,24(sp)
 1038 04f8 23382101 		sd	s2,16(sp)
 1039 04fc 23343101 		sd	s3,8(sp)
 1040              		.cfi_offset 1, -8
 1041              		.cfi_offset 8, -16
 1042              		.cfi_offset 9, -24
 1043              		.cfi_offset 18, -32
GAS LISTING /tmp/ccxUk6vw.s 			page 37


 1044              		.cfi_offset 19, -40
 1045 0500 13040103 		addi	s0,sp,48
 1046              		.cfi_def_cfa 8, 0
 356:src/kernel/riscv.cpp **** 
 1047              		.loc 1 356 5
 358:src/kernel/riscv.cpp ****     asm("mv %[iinit], a2" : [iinit] "=r"(iinit));
 1048              		.loc 1 358 5
 358:src/kernel/riscv.cpp ****     asm("mv %[iinit], a2" : [iinit] "=r"(iinit));
 1049              		.loc 1 358 55 is_stmt 0
 1050              	#APP
 1051              	# 358 "src/kernel/riscv.cpp" 1
 1052              		mv s2, a1
 1053              	# 0 "" 2
 1054              	.LVL68:
 359:src/kernel/riscv.cpp **** 
 1055              		.loc 1 359 5 is_stmt 1
 359:src/kernel/riscv.cpp **** 
 1056              		.loc 1 359 49 is_stmt 0
 1057              	# 359 "src/kernel/riscv.cpp" 1
 1058              		mv s3, a2
 1059              	# 0 "" 2
 1060              	.LVL69:
 362:src/kernel/riscv.cpp **** 
 1061              		.loc 1 362 5 is_stmt 1
 362:src/kernel/riscv.cpp **** 
 1062              		.loc 1 362 29 is_stmt 0
 1063              	#NO_APP
 1064 050c 13058001 		li	a0,24
 1065              	.LEHB7:
 1066 0510 97000000 		call	_ZN3SCBnwEm@plt
 1066      E7800000 
 1067              	.LVL70:
 1068              	.LEHE7:
 1069 0518 93040500 		mv	s1,a0
 1070 051c 63080500 		beqz	a0,.L58
 362:src/kernel/riscv.cpp **** 
 1071              		.loc 1 362 29 discriminator 1
 1072 0520 93850900 		mv	a1,s3
 1073              	.LEHB8:
 1074 0524 97000000 		call	_ZN3SCBC1Em@plt
 1074      E7800000 
 1075              	.LVL71:
 1076              	.LEHE8:
 1077              	.L58:
 364:src/kernel/riscv.cpp **** 
 1078              		.loc 1 364 5 is_stmt 1 discriminator 6
 366:src/kernel/riscv.cpp ****         status = -1;
 1079              		.loc 1 366 5 discriminator 6
 1080 052c 638A0402 		beqz	s1,.L61
 370:src/kernel/riscv.cpp ****     }
 1081              		.loc 1 370 9
 370:src/kernel/riscv.cpp ****     }
 1082              		.loc 1 370 27 is_stmt 0
 1083 0530 23309900 		sd	s1,0(s2)
 364:src/kernel/riscv.cpp **** 
 1084              		.loc 1 364 12
 1085 0534 93070000 		li	a5,0
GAS LISTING /tmp/ccxUk6vw.s 			page 38


 1086              	.L59:
 1087              	.LVL72:
 374:src/kernel/riscv.cpp **** 
 1088              		.loc 1 374 5 is_stmt 1
 374:src/kernel/riscv.cpp **** 
 1089              		.loc 1 374 54 is_stmt 0
 1090              	#APP
 1091              	# 374 "src/kernel/riscv.cpp" 1
 376:src/kernel/riscv.cpp **** 
 1092              		mv a0, a5
 1093              	# 0 "" 2
 1094              		.loc 1 376 5 is_stmt 1
 376:src/kernel/riscv.cpp **** 
 1095              		.loc 1 376 28 is_stmt 0
 1096              	#NO_APP
 1097 053c 97000000 		call	_ZN5RiscV16saveA0toSscratchEv
 1097      E7800000 
 1098              	.LVL73:
 378:src/kernel/riscv.cpp **** 
 1099              		.loc 1 378 1
 1100 0544 83308102 		ld	ra,40(sp)
 1101              		.cfi_remember_state
 1102              		.cfi_restore 1
 1103 0548 03340102 		ld	s0,32(sp)
 1104              		.cfi_restore 8
 1105              		.cfi_def_cfa 2, 48
 1106 054c 83348101 		ld	s1,24(sp)
 1107              		.cfi_restore 9
 1108              	.LVL74:
 1109 0550 03390101 		ld	s2,16(sp)
 1110              		.cfi_restore 18
 1111              	.LVL75:
 1112 0554 83398100 		ld	s3,8(sp)
 1113              		.cfi_restore 19
 1114              	.LVL76:
 1115 0558 13010103 		addi	sp,sp,48
 1116              		.cfi_def_cfa_offset 0
 1117 055c 67800000 		jr	ra
 1118              	.LVL77:
 1119              	.L61:
 1120              		.cfi_restore_state
 367:src/kernel/riscv.cpp ****     }
 1121              		.loc 1 367 16
 1122 0560 9307F0FF 		li	a5,-1
 1123 0564 6FF05FFD 		j	.L59
 1124              	.LVL78:
 1125              	.L62:
 1126 0568 13090500 		mv	s2,a0
 1127              	.LVL79:
 362:src/kernel/riscv.cpp **** 
 1128              		.loc 1 362 29
 1129 056c 13850400 		mv	a0,s1
 1130 0570 97000000 		call	_ZN3SCBdlEPv@plt
 1130      E7800000 
 1131              	.LVL80:
 1132 0578 13050900 		mv	a0,s2
 1133              	.LEHB9:
GAS LISTING /tmp/ccxUk6vw.s 			page 39


 1134 057c 97000000 		call	_Unwind_Resume@plt
 1134      E7800000 
 1135              	.LVL81:
 1136              	.LEHE9:
 1137              		.cfi_endproc
 1138              	.LFE57:
 1139              		.section	.gcc_except_table
 1140              	.LLSDA57:
 1141 0063 FF       		.byte	0xff
 1142 0064 FF       		.byte	0xff
 1143 0065 03       		.byte	0x3
 1144 0066 27       		.byte	0x27
 1145 0067 00000000 		.4byte	.LEHB7-.LFB57
 1146 006b 00000000 		.4byte	.LEHE7-.LEHB7
 1147 006f 00000000 		.4byte	0
 1148 0073 00       		.byte	0
 1149 0074 00000000 		.4byte	.LEHB8-.LFB57
 1150 0078 00000000 		.4byte	.LEHE8-.LEHB8
 1151 007c 00000000 		.4byte	.L62-.LFB57
 1152 0080 00       		.byte	0
 1153 0081 00000000 		.4byte	.LEHB9-.LFB57
 1154 0085 00000000 		.4byte	.LEHE9-.LEHB9
 1155 0089 00000000 		.4byte	0
 1156 008d 00       		.byte	0
 1157              		.text
 1159              		.align	2
 1160              		.globl	_ZN5RiscV22executeSemCloseSyscallEv
 1162              	_ZN5RiscV22executeSemCloseSyscallEv:
 1163              	.LFB58:
 380:src/kernel/riscv.cpp **** 
 1164              		.loc 1 380 38 is_stmt 1
 1165              		.cfi_startproc
 1166 0584 130101FE 		addi	sp,sp,-32
 1167              		.cfi_def_cfa_offset 32
 1168 0588 233C1100 		sd	ra,24(sp)
 1169 058c 23388100 		sd	s0,16(sp)
 1170 0590 23349100 		sd	s1,8(sp)
 1171              		.cfi_offset 1, -8
 1172              		.cfi_offset 8, -16
 1173              		.cfi_offset 9, -24
 1174 0594 13040102 		addi	s0,sp,32
 1175              		.cfi_def_cfa 8, 0
 383:src/kernel/riscv.cpp **** 
 1176              		.loc 1 383 5
 385:src/kernel/riscv.cpp **** 
 1177              		.loc 1 385 5
 385:src/kernel/riscv.cpp **** 
 1178              		.loc 1 385 55 is_stmt 0
 1179              	#APP
 1180              	# 385 "src/kernel/riscv.cpp" 1
 1181              		mv s1, a1
 1182              	# 0 "" 2
 1183              	.LVL82:
 388:src/kernel/riscv.cpp ****     uint64 status = 0;
 1184              		.loc 1 388 5 is_stmt 1
 389:src/kernel/riscv.cpp **** 
 1185              		.loc 1 389 5
GAS LISTING /tmp/ccxUk6vw.s 			page 40


 391:src/kernel/riscv.cpp ****         status = -1;
 1186              		.loc 1 391 5
 1187              	#NO_APP
 1188 059c 63940402 		bnez	s1,.L69
 392:src/kernel/riscv.cpp ****     }
 1189              		.loc 1 392 16 is_stmt 0
 1190 05a0 9307F0FF 		li	a5,-1
 1191              	.L66:
 1192              	.LVL83:
 398:src/kernel/riscv.cpp **** 
 1193              		.loc 1 398 5 is_stmt 1
 398:src/kernel/riscv.cpp **** 
 1194              		.loc 1 398 54 is_stmt 0
 1195              	#APP
 1196              	# 398 "src/kernel/riscv.cpp" 1
 400:src/kernel/riscv.cpp **** }
 1197              		mv a0, a5
 1198              	# 0 "" 2
 1199              		.loc 1 400 5 is_stmt 1
 400:src/kernel/riscv.cpp **** }
 1200              		.loc 1 400 28 is_stmt 0
 1201              	#NO_APP
 1202 05a8 97000000 		call	_ZN5RiscV16saveA0toSscratchEv
 1202      E7800000 
 1203              	.LVL84:
 401:src/kernel/riscv.cpp **** 
 1204              		.loc 1 401 1
 1205 05b0 83308101 		ld	ra,24(sp)
 1206              		.cfi_remember_state
 1207              		.cfi_restore 1
 1208 05b4 03340101 		ld	s0,16(sp)
 1209              		.cfi_restore 8
 1210              		.cfi_def_cfa 2, 32
 1211 05b8 83348100 		ld	s1,8(sp)
 1212              		.cfi_restore 9
 1213              	.LVL85:
 1214 05bc 13010102 		addi	sp,sp,32
 1215              		.cfi_def_cfa_offset 0
 1216 05c0 67800000 		jr	ra
 1217              	.LVL86:
 1218              	.L69:
 1219              		.cfi_restore_state
 395:src/kernel/riscv.cpp **** 
 1220              		.loc 1 395 9 is_stmt 1 discriminator 1
 395:src/kernel/riscv.cpp **** 
 1221              		.loc 1 395 22 is_stmt 0 discriminator 1
 1222 05c4 13850400 		mv	a0,s1
 1223 05c8 97000000 		call	_ZN3SCBD1Ev@plt
 1223      E7800000 
 1224              	.LVL87:
 1225 05d0 13850400 		mv	a0,s1
 1226 05d4 97000000 		call	_ZN3SCBdlEPv@plt
 1226      E7800000 
 1227              	.LVL88:
 389:src/kernel/riscv.cpp **** 
 1228              		.loc 1 389 12 discriminator 1
 1229 05dc 93070000 		li	a5,0
GAS LISTING /tmp/ccxUk6vw.s 			page 41


 1230 05e0 6FF05FFC 		j	.L66
 1231              		.cfi_endproc
 1232              	.LFE58:
 1234              		.align	2
 1235              		.globl	_ZN5RiscV21executeSemWaitSyscallEv
 1237              	_ZN5RiscV21executeSemWaitSyscallEv:
 1238              	.LFB59:
 403:src/kernel/riscv.cpp **** 
 1239              		.loc 1 403 37 is_stmt 1
 1240              		.cfi_startproc
 1241 05e4 130101FF 		addi	sp,sp,-16
 1242              		.cfi_def_cfa_offset 16
 1243 05e8 23341100 		sd	ra,8(sp)
 1244 05ec 23308100 		sd	s0,0(sp)
 1245              		.cfi_offset 1, -8
 1246              		.cfi_offset 8, -16
 1247 05f0 13040101 		addi	s0,sp,16
 1248              		.cfi_def_cfa 8, 0
 406:src/kernel/riscv.cpp **** 
 1249              		.loc 1 406 5
 408:src/kernel/riscv.cpp **** 
 1250              		.loc 1 408 5
 408:src/kernel/riscv.cpp **** 
 1251              		.loc 1 408 55 is_stmt 0
 1252              	#APP
 1253              	# 408 "src/kernel/riscv.cpp" 1
 1254              		mv a0, a1
 1255              	# 0 "" 2
 1256              	.LVL89:
 410:src/kernel/riscv.cpp ****     //call wait method on ihandle scb
 1257              		.loc 1 410 5 is_stmt 1
 413:src/kernel/riscv.cpp ****         ((SCB*)ihandle)->wait();
 1258              		.loc 1 413 5
 1259              	#NO_APP
 1260 05f8 631C0502 		bnez	a0,.L75
 1261              	.LVL90:
 1262              	.L71:
 418:src/kernel/riscv.cpp ****         status = -1;
 1263              		.loc 1 418 5
 418:src/kernel/riscv.cpp ****         status = -1;
 1264              		.loc 1 418 22 is_stmt 0
 1265 05fc 97070000 		la	a5,_ZN3TCB7runningE
 1265      83B70700 
 1266 0604 83B70700 		ld	a5,0(a5)
 1267 0608 83B70706 		ld	a5,96(a5)
 418:src/kernel/riscv.cpp ****         status = -1;
 1268              		.loc 1 418 5
 1269 060c 63880702 		beqz	a5,.L73
 419:src/kernel/riscv.cpp ****     else
 1270              		.loc 1 419 16
 1271 0610 9307F0FF 		li	a5,-1
 1272              	.L72:
 1273              	.LVL91:
 424:src/kernel/riscv.cpp **** 
 1274              		.loc 1 424 5 is_stmt 1
 424:src/kernel/riscv.cpp **** 
 1275              		.loc 1 424 54 is_stmt 0
GAS LISTING /tmp/ccxUk6vw.s 			page 42


 1276              	#APP
 1277              	# 424 "src/kernel/riscv.cpp" 1
 426:src/kernel/riscv.cpp **** 
 1278              		mv a0, a5
 1279              	# 0 "" 2
 1280              		.loc 1 426 5 is_stmt 1
 426:src/kernel/riscv.cpp **** 
 1281              		.loc 1 426 28 is_stmt 0
 1282              	#NO_APP
 1283 0618 97000000 		call	_ZN5RiscV16saveA0toSscratchEv
 1283      E7800000 
 1284              	.LVL92:
 428:src/kernel/riscv.cpp **** 
 1285              		.loc 1 428 1
 1286 0620 83308100 		ld	ra,8(sp)
 1287              		.cfi_remember_state
 1288              		.cfi_restore 1
 1289 0624 03340100 		ld	s0,0(sp)
 1290              		.cfi_restore 8
 1291              		.cfi_def_cfa 2, 16
 1292 0628 13010101 		addi	sp,sp,16
 1293              		.cfi_def_cfa_offset 0
 1294 062c 67800000 		jr	ra
 1295              	.LVL93:
 1296              	.L75:
 1297              		.cfi_restore_state
 414:src/kernel/riscv.cpp ****     else
 1298              		.loc 1 414 9 is_stmt 1
 414:src/kernel/riscv.cpp ****     else
 1299              		.loc 1 414 30 is_stmt 0
 1300 0630 97000000 		call	_ZN3SCB4waitEv@plt
 1300      E7800000 
 1301              	.LVL94:
 1302 0638 6FF05FFC 		j	.L71
 1303              	.LVL95:
 1304              	.L73:
 421:src/kernel/riscv.cpp **** 
 1305              		.loc 1 421 16
 1306 063c 93070000 		li	a5,0
 1307 0640 6FF05FFD 		j	.L72
 1308              		.cfi_endproc
 1309              	.LFE59:
 1311              		.align	2
 1312              		.globl	_ZN5RiscV23executeSemSignalSyscallEv
 1314              	_ZN5RiscV23executeSemSignalSyscallEv:
 1315              	.LFB60:
 430:src/kernel/riscv.cpp **** 
 1316              		.loc 1 430 39 is_stmt 1
 1317              		.cfi_startproc
 1318 0644 130101FF 		addi	sp,sp,-16
 1319              		.cfi_def_cfa_offset 16
 1320 0648 23341100 		sd	ra,8(sp)
 1321 064c 23308100 		sd	s0,0(sp)
 1322              		.cfi_offset 1, -8
 1323              		.cfi_offset 8, -16
 1324 0650 13040101 		addi	s0,sp,16
 1325              		.cfi_def_cfa 8, 0
GAS LISTING /tmp/ccxUk6vw.s 			page 43


 433:src/kernel/riscv.cpp **** 
 1326              		.loc 1 433 5
 435:src/kernel/riscv.cpp **** 
 1327              		.loc 1 435 5
 435:src/kernel/riscv.cpp **** 
 1328              		.loc 1 435 55 is_stmt 0
 1329              	#APP
 1330              	# 435 "src/kernel/riscv.cpp" 1
 1331              		mv a0, a1
 1332              	# 0 "" 2
 1333              	.LVL96:
 439:src/kernel/riscv.cpp **** 
 1334              		.loc 1 439 5 is_stmt 1
 441:src/kernel/riscv.cpp ****         ((SCB*)ihandle)->signal();
 1335              		.loc 1 441 5
 1336              	#NO_APP
 1337 0658 63120502 		bnez	a0,.L80
 444:src/kernel/riscv.cpp **** 
 1338              		.loc 1 444 16 is_stmt 0
 1339 065c 9307F0FF 		li	a5,-1
 1340              	.LVL97:
 1341              	.L77:
 447:src/kernel/riscv.cpp **** 
 1342              		.loc 1 447 5 is_stmt 1
 447:src/kernel/riscv.cpp **** 
 1343              		.loc 1 447 54 is_stmt 0
 1344              	#APP
 1345              	# 447 "src/kernel/riscv.cpp" 1
 449:src/kernel/riscv.cpp **** }
 1346              		mv a0, a5
 1347              	# 0 "" 2
 1348              		.loc 1 449 5 is_stmt 1
 449:src/kernel/riscv.cpp **** }
 1349              		.loc 1 449 28 is_stmt 0
 1350              	#NO_APP
 1351 0664 97000000 		call	_ZN5RiscV16saveA0toSscratchEv
 1351      E7800000 
 1352              	.LVL98:
 450:src/kernel/riscv.cpp **** 
 1353              		.loc 1 450 1
 1354 066c 83308100 		ld	ra,8(sp)
 1355              		.cfi_remember_state
 1356              		.cfi_restore 1
 1357 0670 03340100 		ld	s0,0(sp)
 1358              		.cfi_restore 8
 1359              		.cfi_def_cfa 2, 16
 1360 0674 13010101 		addi	sp,sp,16
 1361              		.cfi_def_cfa_offset 0
 1362 0678 67800000 		jr	ra
 1363              	.LVL99:
 1364              	.L80:
 1365              		.cfi_restore_state
 442:src/kernel/riscv.cpp ****     else
 1366              		.loc 1 442 9 is_stmt 1
 442:src/kernel/riscv.cpp ****     else
 1367              		.loc 1 442 32 is_stmt 0
 1368 067c 97000000 		call	_ZN3SCB6signalEv@plt
GAS LISTING /tmp/ccxUk6vw.s 			page 44


 1368      E7800000 
 1369              	.LVL100:
 439:src/kernel/riscv.cpp **** 
 1370              		.loc 1 439 12
 1371 0684 93070000 		li	a5,0
 1372 0688 6FF09FFD 		j	.L77
 1373              		.cfi_endproc
 1374              	.LFE60:
 1376              		.align	2
 1377              		.globl	_ZN5RiscV23executeTimeSleepSyscallEv
 1379              	_ZN5RiscV23executeTimeSleepSyscallEv:
 1380              	.LFB61:
 452:src/kernel/riscv.cpp **** 
 1381              		.loc 1 452 39 is_stmt 1
 1382              		.cfi_startproc
 1383 068c 130101FE 		addi	sp,sp,-32
 1384              		.cfi_def_cfa_offset 32
 1385 0690 233C1100 		sd	ra,24(sp)
 1386 0694 23388100 		sd	s0,16(sp)
 1387 0698 23349100 		sd	s1,8(sp)
 1388              		.cfi_offset 1, -8
 1389              		.cfi_offset 8, -16
 1390              		.cfi_offset 9, -24
 1391 069c 13040102 		addi	s0,sp,32
 1392              		.cfi_def_cfa 8, 0
 455:src/kernel/riscv.cpp **** 
 1393              		.loc 1 455 5
 457:src/kernel/riscv.cpp **** 
 1394              		.loc 1 457 5
 457:src/kernel/riscv.cpp **** 
 1395              		.loc 1 457 49 is_stmt 0
 1396              	#APP
 1397              	# 457 "src/kernel/riscv.cpp" 1
 461:src/kernel/riscv.cpp ****     tcb->sleepTime = globalTime;
 1398              		mv a4, a1
 1399              	# 0 "" 2
 1400              		.loc 1 461 5 is_stmt 1
 461:src/kernel/riscv.cpp ****     tcb->sleepTime = globalTime;
 1401              		.loc 1 461 10 is_stmt 0
 1402              	#NO_APP
 1403 06a4 97070000 		la	a5,_ZN3TCB7runningE
 1403      83B70700 
 1404 06ac 83B40700 		ld	s1,0(a5)
 1405              	.LVL101:
 462:src/kernel/riscv.cpp ****     tcb->wakeTime = globalTime + itime;
 1406              		.loc 1 462 5 is_stmt 1
 462:src/kernel/riscv.cpp ****     tcb->wakeTime = globalTime + itime;
 1407              		.loc 1 462 20 is_stmt 0
 1408 06b0 97070000 		ld	a5,.LANCHOR0+8
 1408      83B70700 
 1409 06b8 23B8F404 		sd	a5,80(s1)
 463:src/kernel/riscv.cpp **** 
 1410              		.loc 1 463 5 is_stmt 1
 463:src/kernel/riscv.cpp **** 
 1411              		.loc 1 463 32 is_stmt 0
 1412 06bc B387E700 		add	a5,a5,a4
 463:src/kernel/riscv.cpp **** 
GAS LISTING /tmp/ccxUk6vw.s 			page 45


 1413              		.loc 1 463 19
 1414 06c0 23BCF404 		sd	a5,88(s1)
 465:src/kernel/riscv.cpp **** 
 1415              		.loc 1 465 5 is_stmt 1
 465:src/kernel/riscv.cpp **** 
 1416              		.loc 1 465 21 is_stmt 0
 1417 06c4 13850400 		mv	a0,s1
 1418 06c8 97000000 		call	_ZN9Scheduler5sleepEP3TCB@plt
 1418      E7800000 
 1419              	.LVL102:
 467:src/kernel/riscv.cpp **** 
 1420              		.loc 1 467 5 is_stmt 1
 467:src/kernel/riscv.cpp **** 
 1421              		.loc 1 467 17 is_stmt 0
 1422 06d0 93073000 		li	a5,3
 1423 06d4 23A8F400 		sw	a5,16(s1)
 469:src/kernel/riscv.cpp **** 
 1424              		.loc 1 469 5 is_stmt 1
 469:src/kernel/riscv.cpp **** 
 1425              		.loc 1 469 18 is_stmt 0
 1426 06d8 97000000 		call	_ZN3TCB8dispatchEv@plt
 1426      E7800000 
 1427              	.LVL103:
 471:src/kernel/riscv.cpp **** 
 1428              		.loc 1 471 5 is_stmt 1
 474:src/kernel/riscv.cpp **** 
 1429              		.loc 1 474 5
 474:src/kernel/riscv.cpp **** 
 1430              		.loc 1 474 54 is_stmt 0
 1431 06e0 93070000 		li	a5,0
 1432              	#APP
 1433              	# 474 "src/kernel/riscv.cpp" 1
 476:src/kernel/riscv.cpp **** }
 1434              		mv a0, a5
 1435              	# 0 "" 2
 1436              		.loc 1 476 5 is_stmt 1
 476:src/kernel/riscv.cpp **** }
 1437              		.loc 1 476 28 is_stmt 0
 1438              	#NO_APP
 1439 06e8 97000000 		call	_ZN5RiscV16saveA0toSscratchEv
 1439      E7800000 
 1440              	.LVL104:
 477:src/kernel/riscv.cpp **** 
 1441              		.loc 1 477 1
 1442 06f0 83308101 		ld	ra,24(sp)
 1443              		.cfi_restore 1
 1444 06f4 03340101 		ld	s0,16(sp)
 1445              		.cfi_restore 8
 1446              		.cfi_def_cfa 2, 32
 1447 06f8 83348100 		ld	s1,8(sp)
 1448              		.cfi_restore 9
 1449              	.LVL105:
 1450 06fc 13010102 		addi	sp,sp,32
 1451              		.cfi_def_cfa_offset 0
 1452 0700 67800000 		jr	ra
 1453              		.cfi_endproc
 1454              	.LFE61:
GAS LISTING /tmp/ccxUk6vw.s 			page 46


 1456              		.align	2
 1457              		.globl	_ZN5RiscV18executeGetcSyscallEv
 1459              	_ZN5RiscV18executeGetcSyscallEv:
 1460              	.LFB62:
 479:src/kernel/riscv.cpp **** 
 1461              		.loc 1 479 34 is_stmt 1
 1462              		.cfi_startproc
 1463 0704 130101FE 		addi	sp,sp,-32
 1464              		.cfi_def_cfa_offset 32
 1465 0708 233C1100 		sd	ra,24(sp)
 1466 070c 23388100 		sd	s0,16(sp)
 1467 0710 23349100 		sd	s1,8(sp)
 1468              		.cfi_offset 1, -8
 1469              		.cfi_offset 8, -16
 1470              		.cfi_offset 9, -24
 1471 0714 13040102 		addi	s0,sp,32
 1472              		.cfi_def_cfa 8, 0
 482:src/kernel/riscv.cpp ****         ConsoleUtil::pendingGetc++;
 1473              		.loc 1 482 5
 482:src/kernel/riscv.cpp ****         ConsoleUtil::pendingGetc++;
 1474              		.loc 1 482 8 is_stmt 0
 1475 0718 97070000 		lbu	a5,.LANCHOR0
 1475      83C70700 
 482:src/kernel/riscv.cpp ****         ConsoleUtil::pendingGetc++;
 1476              		.loc 1 482 5
 1477 0720 639C0700 		bnez	a5,.L84
 483:src/kernel/riscv.cpp **** 
 1478              		.loc 1 483 9 is_stmt 1
 483:src/kernel/riscv.cpp **** 
 1479              		.loc 1 483 33 is_stmt 0
 1480 0724 17070000 		la	a4,_ZN11ConsoleUtil11pendingGetcE
 1480      03370700 
 1481 072c 83370700 		ld	a5,0(a4)
 1482 0730 93871700 		addi	a5,a5,1
 1483 0734 2330F700 		sd	a5,0(a4)
 1484              	.L84:
 486:src/kernel/riscv.cpp **** 
 1485              		.loc 1 486 5 is_stmt 1
 486:src/kernel/riscv.cpp **** 
 1486              		.loc 1 486 35 is_stmt 0
 1487 0738 97000000 		call	_ZN11ConsoleUtil8getInputEv@plt
 1487      E7800000 
 1488              	.LVL106:
 1489 0740 93040500 		mv	s1,a0
 1490              	.LVL107:
 489:src/kernel/riscv.cpp ****         ConsoleUtil::putOutput(13);
 1491              		.loc 1 489 5 is_stmt 1
 1492 0744 9307D000 		li	a5,13
 1493 0748 6306F502 		beq	a0,a5,.L88
 494:src/kernel/riscv.cpp ****         ConsoleUtil::putOutput(c);
 1494              		.loc 1 494 10
 1495 074c 9307B001 		li	a5,27
 1496 0750 6310F504 		bne	a0,a5,.L89
 1497              	.LVL108:
 1498              	.L86:
 498:src/kernel/riscv.cpp **** 
 1499              		.loc 1 498 5
GAS LISTING /tmp/ccxUk6vw.s 			page 47


 498:src/kernel/riscv.cpp **** 
 1500              		.loc 1 498 39 is_stmt 0
 1501              	#APP
 1502              	# 498 "src/kernel/riscv.cpp" 1
 500:src/kernel/riscv.cpp **** }
 1503              		mv a0, s1
 1504              	# 0 "" 2
 1505              		.loc 1 500 5 is_stmt 1
 500:src/kernel/riscv.cpp **** }
 1506              		.loc 1 500 28 is_stmt 0
 1507              	#NO_APP
 1508 0758 97000000 		call	_ZN5RiscV16saveA0toSscratchEv
 1508      E7800000 
 1509              	.LVL109:
 501:src/kernel/riscv.cpp **** 
 1510              		.loc 1 501 1
 1511 0760 83308101 		ld	ra,24(sp)
 1512              		.cfi_remember_state
 1513              		.cfi_restore 1
 1514 0764 03340101 		ld	s0,16(sp)
 1515              		.cfi_restore 8
 1516              		.cfi_def_cfa 2, 32
 1517 0768 83348100 		ld	s1,8(sp)
 1518              		.cfi_restore 9
 1519 076c 13010102 		addi	sp,sp,32
 1520              		.cfi_def_cfa_offset 0
 1521 0770 67800000 		jr	ra
 1522              	.LVL110:
 1523              	.L88:
 1524              		.cfi_restore_state
 490:src/kernel/riscv.cpp ****         ConsoleUtil::putOutput(10);
 1525              		.loc 1 490 9 is_stmt 1
 490:src/kernel/riscv.cpp ****         ConsoleUtil::putOutput(10);
 1526              		.loc 1 490 31 is_stmt 0
 1527 0774 1305D000 		li	a0,13
 1528              	.LVL111:
 1529 0778 97000000 		call	_ZN11ConsoleUtil9putOutputEc@plt
 1529      E7800000 
 1530              	.LVL112:
 491:src/kernel/riscv.cpp ****     }
 1531              		.loc 1 491 9 is_stmt 1
 491:src/kernel/riscv.cpp ****     }
 1532              		.loc 1 491 31 is_stmt 0
 1533 0780 1305A000 		li	a0,10
 1534 0784 97000000 		call	_ZN11ConsoleUtil9putOutputEc@plt
 1534      E7800000 
 1535              	.LVL113:
 1536 078c 6FF09FFC 		j	.L86
 1537              	.LVL114:
 1538              	.L89:
 495:src/kernel/riscv.cpp **** 
 1539              		.loc 1 495 9 is_stmt 1
 495:src/kernel/riscv.cpp **** 
 1540              		.loc 1 495 31 is_stmt 0
 1541 0790 97000000 		call	_ZN11ConsoleUtil9putOutputEc@plt
 1541      E7800000 
 1542              	.LVL115:
GAS LISTING /tmp/ccxUk6vw.s 			page 48


 1543 0798 6FF0DFFB 		j	.L86
 1544              		.cfi_endproc
 1545              	.LFE62:
 1547              		.align	2
 1548              		.globl	_ZN5RiscV22executePutcUtilSyscallEv
 1550              	_ZN5RiscV22executePutcUtilSyscallEv:
 1551              	.LFB65:
 551:src/kernel/riscv.cpp ****     char c = ConsoleUtil::getOutput();
 1552              		.loc 1 551 38 is_stmt 1
 1553              		.cfi_startproc
 1554 079c 130101FF 		addi	sp,sp,-16
 1555              		.cfi_def_cfa_offset 16
 1556 07a0 23341100 		sd	ra,8(sp)
 1557 07a4 23308100 		sd	s0,0(sp)
 1558              		.cfi_offset 1, -8
 1559              		.cfi_offset 8, -16
 1560 07a8 13040101 		addi	s0,sp,16
 1561              		.cfi_def_cfa 8, 0
 552:src/kernel/riscv.cpp ****     asm("mv a0, %[c]" : : [c] "r" ((uint64)(c)) );
 1562              		.loc 1 552 5
 552:src/kernel/riscv.cpp ****     asm("mv a0, %[c]" : : [c] "r" ((uint64)(c)) );
 1563              		.loc 1 552 36 is_stmt 0
 1564 07ac 97000000 		call	_ZN11ConsoleUtil9getOutputEv@plt
 1564      E7800000 
 1565              	.LVL116:
 553:src/kernel/riscv.cpp **** 
 1566              		.loc 1 553 5 is_stmt 1
 553:src/kernel/riscv.cpp **** 
 1567              		.loc 1 553 50 is_stmt 0
 1568              	#APP
 1569              	# 553 "src/kernel/riscv.cpp" 1
 555:src/kernel/riscv.cpp **** }
 1570              		mv a0, a0
 1571              	# 0 "" 2
 1572              		.loc 1 555 5 is_stmt 1
 555:src/kernel/riscv.cpp **** }
 1573              		.loc 1 555 28 is_stmt 0
 1574              	#NO_APP
 1575 07b8 97000000 		call	_ZN5RiscV16saveA0toSscratchEv
 1575      E7800000 
 1576              	.LVL117:
 556:src/kernel/riscv.cpp **** 
 1577              		.loc 1 556 1
 1578 07c0 83308100 		ld	ra,8(sp)
 1579              		.cfi_restore 1
 1580 07c4 03340100 		ld	s0,0(sp)
 1581              		.cfi_restore 8
 1582              		.cfi_def_cfa 2, 16
 1583 07c8 13010101 		addi	sp,sp,16
 1584              		.cfi_def_cfa_offset 0
 1585 07cc 67800000 		jr	ra
 1586              		.cfi_endproc
 1587              	.LFE65:
 1589              		.align	2
 1590              		.globl	_ZN5RiscV24executeThreadFreeSyscallEv
 1592              	_ZN5RiscV24executeThreadFreeSyscallEv:
 1593              	.LFB69:
GAS LISTING /tmp/ccxUk6vw.s 			page 49


 598:src/kernel/riscv.cpp **** 
 599:src/kernel/riscv.cpp **** //syscall to free the space that is allocated for thread
 600:src/kernel/riscv.cpp **** void RiscV::executeThreadFreeSyscall() {
 1594              		.loc 1 600 40 is_stmt 1
 1595              		.cfi_startproc
 1596 07d0 130101FE 		addi	sp,sp,-32
 1597              		.cfi_def_cfa_offset 32
 1598 07d4 233C1100 		sd	ra,24(sp)
 1599 07d8 23388100 		sd	s0,16(sp)
 1600 07dc 23349100 		sd	s1,8(sp)
 1601              		.cfi_offset 1, -8
 1602              		.cfi_offset 8, -16
 1603              		.cfi_offset 9, -24
 1604 07e0 13040102 		addi	s0,sp,32
 1605              		.cfi_def_cfa 8, 0
 601:src/kernel/riscv.cpp ****     uint64 iaddr, status;
 1606              		.loc 1 601 5
 602:src/kernel/riscv.cpp **** 
 603:src/kernel/riscv.cpp ****     asm("mv %[iaddr], a1" : [iaddr] "=r"(iaddr));
 1607              		.loc 1 603 5
 1608              		.loc 1 603 49 is_stmt 0
 1609              	#APP
 1610              	# 603 "src/kernel/riscv.cpp" 1
 604              	
 1611              		mv s1, a1
 1612              	# 0 "" 2
 1613              	.LVL118:
 605:src/kernel/riscv.cpp ****     TCB *thr = (TCB*)iaddr;
 1614              		.loc 1 605 5 is_stmt 1
 606:src/kernel/riscv.cpp **** 
 607:src/kernel/riscv.cpp ****     if(thr == nullptr)
 1615              		.loc 1 607 5
 1616              	#NO_APP
 1617 07e8 63940402 		bnez	s1,.L95
 1618              	.L93:
 1619              	.LVL119:
 608:src/kernel/riscv.cpp ****         status = -1;
 609:src/kernel/riscv.cpp ****     else {
 610:src/kernel/riscv.cpp ****         kfree(thr->stack);
 611:src/kernel/riscv.cpp ****         delete thr;
 612:src/kernel/riscv.cpp ****     }
 613:src/kernel/riscv.cpp **** 
 614:src/kernel/riscv.cpp ****     //return status
 615:src/kernel/riscv.cpp ****     asm("mv a0, %[status]" : : [status] "r" (status));
 1620              		.loc 1 615 5
 1621              		.loc 1 615 54 is_stmt 0
 1622 07ec 9307F0FF 		li	a5,-1
 1623              	#APP
 1624              	# 615 "src/kernel/riscv.cpp" 1
 616              	
 617:src/kernel/riscv.cpp ****     RiscV::saveA0toSscratch();
 1625              		mv a0, a5
 1626              	# 0 "" 2
 1627              		.loc 1 617 5 is_stmt 1
 1628              		.loc 1 617 28 is_stmt 0
 1629              	#NO_APP
 1630 07f4 97000000 		call	_ZN5RiscV16saveA0toSscratchEv
GAS LISTING /tmp/ccxUk6vw.s 			page 50


 1630      E7800000 
 1631              	.LVL120:
 618:src/kernel/riscv.cpp **** }
 1632              		.loc 1 618 1
 1633 07fc 83308101 		ld	ra,24(sp)
 1634              		.cfi_remember_state
 1635              		.cfi_restore 1
 1636 0800 03340101 		ld	s0,16(sp)
 1637              		.cfi_restore 8
 1638              		.cfi_def_cfa 2, 32
 1639 0804 83348100 		ld	s1,8(sp)
 1640              		.cfi_restore 9
 1641              	.LVL121:
 1642 0808 13010102 		addi	sp,sp,32
 1643              		.cfi_def_cfa_offset 0
 1644 080c 67800000 		jr	ra
 1645              	.LVL122:
 1646              	.L95:
 1647              		.cfi_restore_state
 610:src/kernel/riscv.cpp ****         delete thr;
 1648              		.loc 1 610 9 is_stmt 1
 610:src/kernel/riscv.cpp ****         delete thr;
 1649              		.loc 1 610 14 is_stmt 0
 1650 0810 03B58402 		ld	a0,40(s1)
 1651 0814 97000000 		call	_Z5kfreePKv@plt
 1651      E7800000 
 1652              	.LVL123:
 611:src/kernel/riscv.cpp ****     }
 1653              		.loc 1 611 9 is_stmt 1
 611:src/kernel/riscv.cpp ****     }
 1654              		.loc 1 611 16 is_stmt 0
 1655 081c 13850400 		mv	a0,s1
 1656 0820 97000000 		call	_ZN3TCBD1Ev@plt
 1656      E7800000 
 1657              	.LVL124:
 1658 0828 13850400 		mv	a0,s1
 1659 082c 97000000 		call	_ZN3TCBdlEPv@plt
 1659      E7800000 
 1660              	.LVL125:
 1661 0834 6FF09FFB 		j	.L93
 1662              		.cfi_endproc
 1663              	.LFE69:
 1665              		.align	2
 1666              		.globl	_ZN5RiscV27executeSemaphoreFreeSyscallEv
 1668              	_ZN5RiscV27executeSemaphoreFreeSyscallEv:
 1669              	.LFB70:
 619:src/kernel/riscv.cpp **** 
 620:src/kernel/riscv.cpp **** //syscall to free the space that is allocated for semaphore
 621:src/kernel/riscv.cpp **** void RiscV::executeSemaphoreFreeSyscall() {
 1670              		.loc 1 621 43 is_stmt 1
 1671              		.cfi_startproc
 1672 0838 130101FE 		addi	sp,sp,-32
 1673              		.cfi_def_cfa_offset 32
 1674 083c 233C1100 		sd	ra,24(sp)
 1675 0840 23388100 		sd	s0,16(sp)
 1676 0844 23349100 		sd	s1,8(sp)
 1677              		.cfi_offset 1, -8
GAS LISTING /tmp/ccxUk6vw.s 			page 51


 1678              		.cfi_offset 8, -16
 1679              		.cfi_offset 9, -24
 1680 0848 13040102 		addi	s0,sp,32
 1681              		.cfi_def_cfa 8, 0
 622:src/kernel/riscv.cpp ****     uint64 iaddr, status;
 1682              		.loc 1 622 5
 623:src/kernel/riscv.cpp **** 
 624:src/kernel/riscv.cpp ****     //call internal allocator and free memory which iaddr points to
 625:src/kernel/riscv.cpp ****     asm("mv %[iaddr], a1" : [iaddr] "=r"(iaddr));
 1683              		.loc 1 625 5
 1684              		.loc 1 625 49 is_stmt 0
 1685              	#APP
 1686              	# 625 "src/kernel/riscv.cpp" 1
 626              	
 1687              		mv s1, a1
 1688              	# 0 "" 2
 1689              	.LVL126:
 627:src/kernel/riscv.cpp ****     SCB *scb = (SCB*)iaddr;
 1690              		.loc 1 627 5 is_stmt 1
 628:src/kernel/riscv.cpp **** 
 629:src/kernel/riscv.cpp ****     if(scb == nullptr){
 1691              		.loc 1 629 5
 1692              	#NO_APP
 1693 0850 63940402 		bnez	s1,.L99
 1694              	.L97:
 1695              	.LVL127:
 630:src/kernel/riscv.cpp ****         status = -1;
 631:src/kernel/riscv.cpp ****     }
 632:src/kernel/riscv.cpp ****     else
 633:src/kernel/riscv.cpp ****         delete scb;
 634:src/kernel/riscv.cpp **** 
 635:src/kernel/riscv.cpp ****     //return status
 636:src/kernel/riscv.cpp ****     asm("mv a0, %[status]" : : [status] "r" (status));
 1696              		.loc 1 636 5
 1697              		.loc 1 636 54 is_stmt 0
 1698 0854 9307F0FF 		li	a5,-1
 1699              	#APP
 1700              	# 636 "src/kernel/riscv.cpp" 1
 637              	
 638:src/kernel/riscv.cpp ****     RiscV::saveA0toSscratch();
 1701              		mv a0, a5
 1702              	# 0 "" 2
 1703              		.loc 1 638 5 is_stmt 1
 1704              		.loc 1 638 28 is_stmt 0
 1705              	#NO_APP
 1706 085c 97000000 		call	_ZN5RiscV16saveA0toSscratchEv
 1706      E7800000 
 1707              	.LVL128:
 639:src/kernel/riscv.cpp **** }
 1708              		.loc 1 639 1
 1709 0864 83308101 		ld	ra,24(sp)
 1710              		.cfi_remember_state
 1711              		.cfi_restore 1
 1712 0868 03340101 		ld	s0,16(sp)
 1713              		.cfi_restore 8
 1714              		.cfi_def_cfa 2, 32
 1715 086c 83348100 		ld	s1,8(sp)
GAS LISTING /tmp/ccxUk6vw.s 			page 52


 1716              		.cfi_restore 9
 1717              	.LVL129:
 1718 0870 13010102 		addi	sp,sp,32
 1719              		.cfi_def_cfa_offset 0
 1720 0874 67800000 		jr	ra
 1721              	.LVL130:
 1722              	.L99:
 1723              		.cfi_restore_state
 633:src/kernel/riscv.cpp **** 
 1724              		.loc 1 633 9 is_stmt 1 discriminator 1
 633:src/kernel/riscv.cpp **** 
 1725              		.loc 1 633 16 is_stmt 0 discriminator 1
 1726 0878 13850400 		mv	a0,s1
 1727 087c 97000000 		call	_ZN3SCBD1Ev@plt
 1727      E7800000 
 1728              	.LVL131:
 1729 0884 13850400 		mv	a0,s1
 1730 0888 97000000 		call	_ZN3SCBdlEPv@plt
 1730      E7800000 
 1731              	.LVL132:
 1732 0890 6FF05FFC 		j	.L97
 1733              		.cfi_endproc
 1734              	.LFE70:
 1736              		.align	2
 1737              		.globl	_ZN5RiscV18executeForkSyscallEv
 1739              	_ZN5RiscV18executeForkSyscallEv:
 1740              	.LFB71:
 640:src/kernel/riscv.cpp **** 
 641:src/kernel/riscv.cpp **** //fork syscall
 642:src/kernel/riscv.cpp **** void RiscV::executeForkSyscall() {
 1741              		.loc 1 642 34 is_stmt 1
 1742              		.cfi_startproc
 1743              		.cfi_personality 0x9b,DW.ref.__gxx_personality_v0
 1744              		.cfi_lsda 0x1b,.LLSDA71
 1745 0894 130101FE 		addi	sp,sp,-32
 1746              		.cfi_def_cfa_offset 32
 1747 0898 233C1100 		sd	ra,24(sp)
 1748 089c 23388100 		sd	s0,16(sp)
 1749 08a0 23349100 		sd	s1,8(sp)
 1750 08a4 23302101 		sd	s2,0(sp)
 1751              		.cfi_offset 1, -8
 1752              		.cfi_offset 8, -16
 1753              		.cfi_offset 9, -24
 1754              		.cfi_offset 18, -32
 1755 08a8 13040102 		addi	s0,sp,32
 1756              		.cfi_def_cfa 8, 0
 643:src/kernel/riscv.cpp **** 
 644:src/kernel/riscv.cpp ****     //create new stack and copy stack from currently running stack into the new one
 645:src/kernel/riscv.cpp ****     uint64 *stack = (uint64*)MemoryAllocator::kmalloc((DEFAULT_STACK_SIZE+MEM_BLOCK_SIZE-1)/MEM_BLO
 1757              		.loc 1 645 5
 1758              		.loc 1 645 54 is_stmt 0
 1759 08ac 13050004 		li	a0,64
 1760              	.LEHB10:
 1761 08b0 97000000 		call	_ZN15MemoryAllocator7kmallocEm@plt
 1761      E7800000 
 1762              	.LVL133:
 1763 08b8 13090500 		mv	s2,a0
GAS LISTING /tmp/ccxUk6vw.s 			page 53


 1764              	.LVL134:
 646:src/kernel/riscv.cpp **** 
 647:src/kernel/riscv.cpp ****     MemoryAllocator::memcpy((void*)TCB::running->stack,(void*)stack,DEFAULT_STACK_SIZE);
 1765              		.loc 1 647 5 is_stmt 1
 1766              		.loc 1 647 28 is_stmt 0
 1767 08bc 97070000 		la	a5,_ZN3TCB7runningE
 1767      83B70700 
 1768 08c4 83B70700 		ld	a5,0(a5)
 1769 08c8 37160000 		li	a2,4096
 1770 08cc 93050500 		mv	a1,a0
 1771 08d0 03B58702 		ld	a0,40(a5)
 1772              	.LVL135:
 1773 08d4 97000000 		call	_ZN15MemoryAllocator6memcpyEPvS0_m@plt
 1773      E7800000 
 1774              	.LVL136:
 648:src/kernel/riscv.cpp **** 
 649:src/kernel/riscv.cpp ****     //create new TCB for new thread
 650:src/kernel/riscv.cpp ****     TCB *forked = new TCB(nullptr, nullptr, stack, DEFAULT_TIME_SLICE);
 1775              		.loc 1 650 5 is_stmt 1
 1776              		.loc 1 650 70 is_stmt 0
 1777 08dc 13050007 		li	a0,112
 1778 08e0 97000000 		call	_ZN3TCBnwEm@plt
 1778      E7800000 
 1779              	.LVL137:
 1780              	.LEHE10:
 1781 08e8 93040500 		mv	s1,a0
 1782 08ec 630E0500 		beqz	a0,.L101
 1783              		.loc 1 650 70 discriminator 1
 1784 08f0 13072000 		li	a4,2
 1785 08f4 93060900 		mv	a3,s2
 1786 08f8 13060000 		li	a2,0
 1787 08fc 93050000 		li	a1,0
 1788              	.LEHB11:
 1789 0900 97000000 		call	_ZN3TCBC1EPFvPvES0_Pmm@plt
 1789      E7800000 
 1790              	.LVL138:
 1791              	.LEHE11:
 1792              	.L101:
 651:src/kernel/riscv.cpp **** 
 652:src/kernel/riscv.cpp ****     uint64 status = 0;
 1793              		.loc 1 652 5 is_stmt 1 discriminator 6
 653:src/kernel/riscv.cpp **** 
 654:src/kernel/riscv.cpp ****     if(forked) {
 1794              		.loc 1 654 5 discriminator 6
 1795              	.LBB124:
 1796 0908 638E040A 		beqz	s1,.L104
 1797              	.LBB125:
 655:src/kernel/riscv.cpp **** 
 656:src/kernel/riscv.cpp ****         //set return address where forked thread should return
 657:src/kernel/riscv.cpp ****         forked->context.ra = TCB::currentPC;
 1798              		.loc 1 657 9
 1799              		.loc 1 657 28 is_stmt 0
 1800 090c 97070000 		la	a5,_ZN3TCB9currentPCE
 1800      83B70700 
 1801 0914 83B70700 		ld	a5,0(a5)
 1802 0918 23B4F400 		sd	a5,8(s1)
 658:src/kernel/riscv.cpp **** 
GAS LISTING /tmp/ccxUk6vw.s 			page 54


 659:src/kernel/riscv.cpp ****         //set SP value where forked thread's stack starts
 660:src/kernel/riscv.cpp ****         forked->context.sp = (uint64)((char*)stack + TCB::currentSP - (char*)TCB::running->stack);
 1803              		.loc 1 660 9 is_stmt 1
 1804              		.loc 1 660 59 is_stmt 0
 1805 091c 97070000 		la	a5,_ZN3TCB9currentSPE
 1805      83B70700 
 1806 0924 83B70700 		ld	a5,0(a5)
 1807              		.loc 1 660 52
 1808 0928 B307F900 		add	a5,s2,a5
 1809              		.loc 1 660 71
 1810 092c 17070000 		la	a4,_ZN3TCB7runningE
 1810      03370700 
 1811 0934 83360700 		ld	a3,0(a4)
 1812              		.loc 1 660 92
 1813 0938 83B68602 		ld	a3,40(a3)
 1814              		.loc 1 660 69
 1815 093c B387D740 		sub	a5,a5,a3
 1816              		.loc 1 660 28
 1817 0940 23B0F400 		sd	a5,0(s1)
 661:src/kernel/riscv.cpp **** 
 662:src/kernel/riscv.cpp ****         //get memory location of where registers are stored from previous context switch
 663:src/kernel/riscv.cpp ****         uint64 registerStartSP = (uint64)((char*)TCB::running->a0Location - (char*)TCB::running->st
 1818              		.loc 1 663 9 is_stmt 1
 1819              		.loc 1 663 64 is_stmt 0
 1820 0944 83370700 		ld	a5,0(a4)
 1821 0948 03B58706 		ld	a0,104(a5)
 1822              		.loc 1 663 98
 1823 094c 83B78702 		ld	a5,40(a5)
 1824              		.loc 1 663 75
 1825 0950 3305F540 		sub	a0,a0,a5
 1826              		.loc 1 663 104
 1827 0954 3309A900 		add	s2,s2,a0
 1828              	.LVL139:
 664:src/kernel/riscv.cpp **** 
 665:src/kernel/riscv.cpp ****         forked->a0Location = registerStartSP;
 1829              		.loc 1 665 9 is_stmt 1
 1830              		.loc 1 665 28 is_stmt 0
 1831 0958 23B42407 		sd	s2,104(s1)
 666:src/kernel/riscv.cpp **** 
 667:src/kernel/riscv.cpp ****         uint64 a1,a0;
 1832              		.loc 1 667 9 is_stmt 1
 668:src/kernel/riscv.cpp **** 
 669:src/kernel/riscv.cpp ****         //write address of stored registers in SP of forked thread so that it can return regularly
 670:src/kernel/riscv.cpp ****         asm("mv %[a1], a1": [a1] "=r"(a1));
 1833              		.loc 1 670 9
 1834              		.loc 1 670 43 is_stmt 0
 1835              	#APP
 1836              	# 670 "src/kernel/riscv.cpp" 1
 671              	
 672:src/kernel/riscv.cpp ****         asm("mv %[a0], a0": [a0] "=r"(a0));
 1837              		mv a3, a1
 1838              	# 0 "" 2
 1839              		.loc 1 672 9 is_stmt 1
 1840              		.loc 1 672 43 is_stmt 0
 1841              	# 672 "src/kernel/riscv.cpp" 1
 673              	
 674:src/kernel/riscv.cpp ****         asm("mv a0,%[a0]"::  [a0]"r"(registerStartSP));
GAS LISTING /tmp/ccxUk6vw.s 			page 55


 1842              		mv a5, a0
 1843              	# 0 "" 2
 1844              		.loc 1 674 9 is_stmt 1
 1845              		.loc 1 674 55 is_stmt 0
 1846              	# 674 "src/kernel/riscv.cpp" 1
 675              	
 676:src/kernel/riscv.cpp ****         asm("mv a1, %[a0]" : :  [a0] "r"(registerStartSP));
 1847              		mv a0,s2
 1848              	# 0 "" 2
 1849              		.loc 1 676 9 is_stmt 1
 1850              		.loc 1 676 59 is_stmt 0
 1851              	# 676 "src/kernel/riscv.cpp" 1
 677              	
 678:src/kernel/riscv.cpp ****         asm("sd a0, 16(a1)");
 1852              		mv a1, s2
 1853              	# 0 "" 2
 1854              		.loc 1 678 9 is_stmt 1
 1855              		.loc 1 678 29 is_stmt 0
 1856              	# 678 "src/kernel/riscv.cpp" 1
 679              	
 680:src/kernel/riscv.cpp ****         //write 0 in a0 register of forked thread because fork should return 0 in context of child,
 681:src/kernel/riscv.cpp ****         asm("li a0, 0");
 1857              		sd a0, 16(a1)
 1858              	# 0 "" 2
 1859              		.loc 1 681 9 is_stmt 1
 1860              		.loc 1 681 24 is_stmt 0
 1861              	# 681 "src/kernel/riscv.cpp" 1
 682              	
 683:src/kernel/riscv.cpp ****         asm("sd a0, 80(a1)");
 1862              		li a0, 0
 1863              	# 0 "" 2
 1864              		.loc 1 683 9 is_stmt 1
 1865              		.loc 1 683 29 is_stmt 0
 1866              	# 683 "src/kernel/riscv.cpp" 1
 684              	
 685:src/kernel/riscv.cpp ****         asm("mv a1,%[a1]"::  [a1]"r"(a1));
 1867              		sd a0, 80(a1)
 1868              	# 0 "" 2
 1869              		.loc 1 685 9 is_stmt 1
 1870              		.loc 1 685 42 is_stmt 0
 1871              	# 685 "src/kernel/riscv.cpp" 1
 686              	
 687:src/kernel/riscv.cpp ****         asm("mv a0,%[a0]"::  [a0]"r"(a0));
 1872              		mv a1,a3
 1873              	# 0 "" 2
 1874              		.loc 1 687 9 is_stmt 1
 1875              		.loc 1 687 42 is_stmt 0
 1876              	# 687 "src/kernel/riscv.cpp" 1
 688              	
 689:src/kernel/riscv.cpp ****         forked->sepc = TCB::running->sepc;
 1877              		mv a0,a5
 1878              	# 0 "" 2
 1879              		.loc 1 689 9 is_stmt 1
 1880              		.loc 1 689 38 is_stmt 0
 1881              	#NO_APP
 1882 0980 83370700 		ld	a5,0(a4)
 1883 0984 03B78703 		ld	a4,56(a5)
GAS LISTING /tmp/ccxUk6vw.s 			page 56


 1884              		.loc 1 689 22
 1885 0988 23BCE402 		sd	a4,56(s1)
 690:src/kernel/riscv.cpp **** 
 691:src/kernel/riscv.cpp ****         forked->sstatus = TCB::running->sstatus;
 1886              		.loc 1 691 9 is_stmt 1
 1887              		.loc 1 691 41 is_stmt 0
 1888 098c 83B70704 		ld	a5,64(a5)
 1889              		.loc 1 691 25
 1890 0990 23B0F404 		sd	a5,64(s1)
 692:src/kernel/riscv.cpp **** 
 693:src/kernel/riscv.cpp ****         //put forked in scheduler
 694:src/kernel/riscv.cpp ****         Scheduler::put(forked);
 1891              		.loc 1 694 9 is_stmt 1
 1892              		.loc 1 694 23 is_stmt 0
 1893 0994 13850400 		mv	a0,s1
 1894              	.LEHB12:
 1895 0998 97000000 		call	_ZN9Scheduler3putEP3TCB@plt
 1895      E7800000 
 1896              	.LVL140:
 1897              	.LEHE12:
 695:src/kernel/riscv.cpp **** 
 696:src/kernel/riscv.cpp ****         //return address of forked as thread ID
 697:src/kernel/riscv.cpp ****         status = (uint64)forked;
 1898              		.loc 1 697 9 is_stmt 1
 1899              	.L102:
 1900              	.LBE125:
 1901              	.LBE124:
 698:src/kernel/riscv.cpp ****     }else
 699:src/kernel/riscv.cpp ****         status = -1;
 700:src/kernel/riscv.cpp **** 
 701:src/kernel/riscv.cpp ****     asm("mv a0, %[status]" : : [status] "r" (status));
 1902              		.loc 1 701 5
 1903              		.loc 1 701 54 is_stmt 0
 1904              	#APP
 1905              	# 701 "src/kernel/riscv.cpp" 1
 702              	
 703:src/kernel/riscv.cpp ****     RiscV::saveA0toSscratch();
 1906              		mv a0, s1
 1907              	# 0 "" 2
 1908              		.loc 1 703 5 is_stmt 1
 1909              		.loc 1 703 28 is_stmt 0
 1910              	#NO_APP
 1911 09a4 97000000 		call	_ZN5RiscV16saveA0toSscratchEv
 1911      E7800000 
 1912              	.LVL141:
 704:src/kernel/riscv.cpp **** 
 705:src/kernel/riscv.cpp **** }
 1913              		.loc 1 705 1
 1914 09ac 83308101 		ld	ra,24(sp)
 1915              		.cfi_remember_state
 1916              		.cfi_restore 1
 1917 09b0 03340101 		ld	s0,16(sp)
 1918              		.cfi_restore 8
 1919              		.cfi_def_cfa 2, 32
 1920 09b4 83348100 		ld	s1,8(sp)
 1921              		.cfi_restore 9
 1922              	.LVL142:
GAS LISTING /tmp/ccxUk6vw.s 			page 57


 1923 09b8 03390100 		ld	s2,0(sp)
 1924              		.cfi_restore 18
 1925 09bc 13010102 		addi	sp,sp,32
 1926              		.cfi_def_cfa_offset 0
 1927 09c0 67800000 		jr	ra
 1928              	.LVL143:
 1929              	.L104:
 1930              		.cfi_restore_state
 1931              	.LBB126:
 699:src/kernel/riscv.cpp **** 
 1932              		.loc 1 699 16
 1933 09c4 9304F0FF 		li	s1,-1
 1934              	.LVL144:
 1935 09c8 6FF09FFD 		j	.L102
 1936              	.LVL145:
 1937              	.L105:
 1938 09cc 13090500 		mv	s2,a0
 1939              	.LVL146:
 1940              	.LBE126:
 650:src/kernel/riscv.cpp **** 
 1941              		.loc 1 650 70
 1942 09d0 13850400 		mv	a0,s1
 1943 09d4 97000000 		call	_ZN3TCBdlEPv@plt
 1943      E7800000 
 1944              	.LVL147:
 1945 09dc 13050900 		mv	a0,s2
 1946              	.LEHB13:
 1947 09e0 97000000 		call	_Unwind_Resume@plt
 1947      E7800000 
 1948              	.LVL148:
 1949              	.LEHE13:
 1950              		.cfi_endproc
 1951              	.LFE71:
 1952              		.section	.gcc_except_table
 1953              	.LLSDA71:
 1954 008e FF       		.byte	0xff
 1955 008f FF       		.byte	0xff
 1956 0090 03       		.byte	0x3
 1957 0091 34       		.byte	0x34
 1958 0092 00000000 		.4byte	.LEHB10-.LFB71
 1959 0096 00000000 		.4byte	.LEHE10-.LEHB10
 1960 009a 00000000 		.4byte	0
 1961 009e 00       		.byte	0
 1962 009f 00000000 		.4byte	.LEHB11-.LFB71
 1963 00a3 00000000 		.4byte	.LEHE11-.LEHB11
 1964 00a7 00000000 		.4byte	.L105-.LFB71
 1965 00ab 00       		.byte	0
 1966 00ac 00000000 		.4byte	.LEHB12-.LFB71
 1967 00b0 00000000 		.4byte	.LEHE12-.LEHB12
 1968 00b4 00000000 		.4byte	0
 1969 00b8 00       		.byte	0
 1970 00b9 00000000 		.4byte	.LEHB13-.LFB71
 1971 00bd 00000000 		.4byte	.LEHE13-.LEHB13
 1972 00c1 00000000 		.4byte	0
 1973 00c5 00       		.byte	0
 1974              		.text
 1976              		.align	2
GAS LISTING /tmp/ccxUk6vw.s 			page 58


 1977              		.globl	_ZN5RiscV5getPCEv
 1979              	_ZN5RiscV5getPCEv:
 1980              	.LFB72:
 706:src/kernel/riscv.cpp **** 
 707:src/kernel/riscv.cpp **** void RiscV::getPC(){
 1981              		.loc 1 707 20 is_stmt 1
 1982              		.cfi_startproc
 1983 09e8 130101FF 		addi	sp,sp,-16
 1984              		.cfi_def_cfa_offset 16
 1985 09ec 23348100 		sd	s0,8(sp)
 1986              		.cfi_offset 8, -8
 1987 09f0 13040101 		addi	s0,sp,16
 1988              		.cfi_def_cfa 8, 0
 708:src/kernel/riscv.cpp ****     uint64 ra;
 1989              		.loc 1 708 5
 709:src/kernel/riscv.cpp **** 
 710:src/kernel/riscv.cpp ****     asm("mv %[ra], ra" : [ra] "=r"(ra));
 1990              		.loc 1 710 5
 1991              		.loc 1 710 40 is_stmt 0
 1992              	#APP
 1993              	# 710 "src/kernel/riscv.cpp" 1
 711              	
 1994              		mv a5, ra
 1995              	# 0 "" 2
 1996              	.LVL149:
 712:src/kernel/riscv.cpp ****     TCB::currentPC = ra + 8;
 1997              		.loc 1 712 5 is_stmt 1
 1998              		.loc 1 712 25 is_stmt 0
 1999              	#NO_APP
 2000 09f8 93878700 		addi	a5,a5,8
 2001              	.LVL150:
 2002              		.loc 1 712 20
 2003 09fc 17070000 		la	a4,_ZN3TCB9currentPCE
 2003      03370700 
 2004 0a04 2330F700 		sd	a5,0(a4)
 713:src/kernel/riscv.cpp **** }
 2005              		.loc 1 713 1
 2006 0a08 03348100 		ld	s0,8(sp)
 2007              		.cfi_restore 8
 2008              		.cfi_def_cfa 2, 16
 2009 0a0c 13010101 		addi	sp,sp,16
 2010              		.cfi_def_cfa_offset 0
 2011 0a10 67800000 		jr	ra
 2012              		.cfi_endproc
 2013              	.LFE72:
 2015              		.section	.rodata.str1.8,"aMS",@progbits,1
 2016              		.align	3
 2017              	.LC0:
 2018 0000 73657063 		.string	"sepc: "
 2018      3A2000
 2019 0007 00       		.align	3
 2020              	.LC1:
 2021 0008 0A00     		.string	"\n"
 2022 000a 00000000 		.align	3
 2022      0000
 2023              	.LC2:
 2024 0010 496C6C65 		.string	"Illegal instruction\nExiting thread...\n"
GAS LISTING /tmp/ccxUk6vw.s 			page 59


 2024      67616C20 
 2024      696E7374 
 2024      72756374 
 2024      696F6E0A 
 2025 0037 00       		.align	3
 2026              	.LC3:
 2027 0038 4572726F 		.string	"Error: \n"
 2027      723A200A 
 2027      00
 2028 0041 00000000 		.align	3
 2028      000000
 2029              	.LC4:
 2030 0048 73636175 		.string	"scause: "
 2030      73653A20 
 2030      00
 2031 0051 00000000 		.align	3
 2031      000000
 2032              	.LC5:
 2033 0058 73747665 		.string	"stvec: "
 2033      633A2000 
 2034              		.align	3
 2035              	.LC6:
 2036 0060 45786974 		.string	"Exiting thread...\n"
 2036      696E6720 
 2036      74687265 
 2036      61642E2E 
 2036      2E0A00
 2037              		.text
 2038              		.align	2
 2039              		.globl	_ZN5RiscV20handleSupervisorTrapEv
 2041              	_ZN5RiscV20handleSupervisorTrapEv:
 2042              	.LFB49:
  48:src/kernel/riscv.cpp **** 
 2043              		.loc 1 48 36 is_stmt 1
 2044              		.cfi_startproc
 2045 0a14 130101F9 		addi	sp,sp,-112
 2046              		.cfi_def_cfa_offset 112
 2047 0a18 23341106 		sd	ra,104(sp)
 2048 0a1c 23308106 		sd	s0,96(sp)
 2049 0a20 233C9104 		sd	s1,88(sp)
 2050              		.cfi_offset 1, -8
 2051              		.cfi_offset 8, -16
 2052              		.cfi_offset 9, -24
 2053 0a24 13040107 		addi	s0,sp,112
 2054              		.cfi_def_cfa 8, 0
  51:src/kernel/riscv.cpp ****     asm("csrr %[stval], stval" : [stval] "=r" (stval));
 2055              		.loc 1 51 5
  52:src/kernel/riscv.cpp ****     uint64 volatile scause = RiscV::r_scause();
 2056              		.loc 1 52 5
  52:src/kernel/riscv.cpp ****     uint64 volatile scause = RiscV::r_scause();
 2057              		.loc 1 52 55 is_stmt 0
 2058              	#APP
 2059              	# 52 "src/kernel/riscv.cpp" 1
 2060              		csrr s1, stval
 2061              	# 0 "" 2
 2062              	.LVL151:
  53:src/kernel/riscv.cpp **** 
GAS LISTING /tmp/ccxUk6vw.s 			page 60


 2063              		.loc 1 53 5 is_stmt 1
 2064              	#NO_APP
 2065              	.LBB127:
 2066              	.LBB128:
 169:src/kernel/../../h/kernel/riscv.hpp ****     asm("csrr %[scause], scause" : [scause] "=r" (scause));
 2067              		.loc 2 169 5
 170:src/kernel/../../h/kernel/riscv.hpp ****     return scause;
 2068              		.loc 2 170 5
 170:src/kernel/../../h/kernel/riscv.hpp ****     return scause;
 2069              		.loc 2 170 59 is_stmt 0
 2070              	#APP
 2071              	# 170 "src/kernel/../../h/kernel/riscv.hpp" 1
 2072              		csrr a5, scause
 2073              	# 0 "" 2
 2074              	#NO_APP
 2075 0a30 2334F4FC 		sd	a5,-56(s0)
 171:src/kernel/../../h/kernel/riscv.hpp **** }
 2076              		.loc 2 171 5 is_stmt 1
 171:src/kernel/../../h/kernel/riscv.hpp **** }
 2077              		.loc 2 171 12 is_stmt 0
 2078 0a34 833784FC 		ld	a5,-56(s0)
 2079              	.LBE128:
 2080              	.LBE127:
  53:src/kernel/riscv.cpp **** 
 2081              		.loc 1 53 46
 2082 0a38 233CF4FC 		sd	a5,-40(s0)
  55:src/kernel/riscv.cpp **** 
 2083              		.loc 1 55 5 is_stmt 1
  55:src/kernel/riscv.cpp **** 
 2084              		.loc 1 55 71 is_stmt 0
 2085 0a3c 97070000 		la	a5,_ZN3TCB7runningE
 2085      83B70700 
 2086 0a44 83B70700 		ld	a5,0(a5)
  55:src/kernel/riscv.cpp **** 
 2087              		.loc 1 55 83
 2088              	#APP
 2089              	# 55 "src/kernel/riscv.cpp" 1
 2090              		csrr a4, sscratch
 2091              	# 0 "" 2
 2092              	#NO_APP
 2093 0a4c 23B4E706 		sd	a4,104(a5)
  57:src/kernel/riscv.cpp **** 
 2094              		.loc 1 57 5 is_stmt 1
 2095              	.LBB129:
  57:src/kernel/riscv.cpp **** 
 2096              		.loc 1 57 15 is_stmt 0
 2097 0a50 033784FD 		ld	a4,-40(s0)
  57:src/kernel/riscv.cpp **** 
 2098              		.loc 1 57 23
 2099 0a54 93079000 		li	a5,9
 2100 0a58 6306F710 		beq	a4,a5,.L111
  57:src/kernel/riscv.cpp **** 
 2101              		.loc 1 57 33 discriminator 2
 2102 0a5c 033784FD 		ld	a4,-40(s0)
  57:src/kernel/riscv.cpp **** 
 2103              		.loc 1 57 23 discriminator 2
 2104 0a60 93078000 		li	a5,8
GAS LISTING /tmp/ccxUk6vw.s 			page 61


 2105 0a64 6300F710 		beq	a4,a5,.L111
 2106              	.LBE129:
 103:src/kernel/riscv.cpp **** 
 2107              		.loc 1 103 10 is_stmt 1
 2108              	.LBB184:
 2109              	.LBB130:
 103:src/kernel/riscv.cpp **** 
 2110              		.loc 1 103 20 is_stmt 0
 2111 0a68 033784FD 		ld	a4,-40(s0)
 103:src/kernel/riscv.cpp **** 
 2112              		.loc 1 103 10
 2113 0a6c 9307F0FF 		li	a5,-1
 2114 0a70 9397F703 		slli	a5,a5,63
 2115 0a74 93871700 		addi	a5,a5,1
 2116 0a78 6304F726 		beq	a4,a5,.L141
 2117              	.LBE130:
 2118              	.LBE184:
 138:src/kernel/riscv.cpp ****         //save sstatus and sepc
 2119              		.loc 1 138 10 is_stmt 1
 2120              	.LBB185:
 2121              	.LBB171:
 2122              	.LBB131:
 138:src/kernel/riscv.cpp ****         //save sstatus and sepc
 2123              		.loc 1 138 20 is_stmt 0
 2124 0a7c 033784FD 		ld	a4,-40(s0)
 138:src/kernel/riscv.cpp ****         //save sstatus and sepc
 2125              		.loc 1 138 10
 2126 0a80 9307F0FF 		li	a5,-1
 2127 0a84 9397F703 		slli	a5,a5,63
 2128 0a88 93879700 		addi	a5,a5,9
 2129 0a8c 6302F72E 		beq	a4,a5,.L142
 2130              	.LBE131:
 2131              	.LBE171:
 2132              	.LBE185:
 174:src/kernel/riscv.cpp ****         TCB* old = TCB::running;
 2133              		.loc 1 174 10 is_stmt 1
 2134              	.LBB186:
 2135              	.LBB172:
 2136              	.LBB155:
 2137              	.LBB132:
 174:src/kernel/riscv.cpp ****         TCB* old = TCB::running;
 2138              		.loc 1 174 20 is_stmt 0
 2139 0a90 033784FD 		ld	a4,-40(s0)
 174:src/kernel/riscv.cpp ****         TCB* old = TCB::running;
 2140              		.loc 1 174 10
 2141 0a94 93072000 		li	a5,2
 2142 0a98 630AF736 		beq	a4,a5,.L143
 2143              	.LBB133:
 187:src/kernel/riscv.cpp ****         ConsoleUtil::printString("scause: ");
 2144              		.loc 1 187 9 is_stmt 1
 187:src/kernel/riscv.cpp ****         ConsoleUtil::printString("scause: ");
 2145              		.loc 1 187 33 is_stmt 0
 2146 0a9c 17050000 		lla	a0,.LC3
 2146      13050500 
 2147 0aa4 97000000 		call	_ZN11ConsoleUtil11printStringEPKc@plt
 2147      E7800000 
 2148              	.LVL152:
GAS LISTING /tmp/ccxUk6vw.s 			page 62


 188:src/kernel/riscv.cpp ****         uint64  scause = RiscV::r_scause();
 2149              		.loc 1 188 9 is_stmt 1
 188:src/kernel/riscv.cpp ****         uint64  scause = RiscV::r_scause();
 2150              		.loc 1 188 33 is_stmt 0
 2151 0aac 17050000 		lla	a0,.LC4
 2151      13050500 
 2152 0ab4 97000000 		call	_ZN11ConsoleUtil11printStringEPKc@plt
 2152      E7800000 
 2153              	.LVL153:
 189:src/kernel/riscv.cpp ****         ConsoleUtil::printInt(scause);
 2154              		.loc 1 189 9 is_stmt 1
 2155              	.LBB134:
 2156              	.LBB135:
 169:src/kernel/../../h/kernel/riscv.hpp ****     asm("csrr %[scause], scause" : [scause] "=r" (scause));
 2157              		.loc 2 169 5
 170:src/kernel/../../h/kernel/riscv.hpp ****     return scause;
 2158              		.loc 2 170 5
 170:src/kernel/../../h/kernel/riscv.hpp ****     return scause;
 2159              		.loc 2 170 59 is_stmt 0
 2160              	#APP
 2161              	# 170 "src/kernel/../../h/kernel/riscv.hpp" 1
 2162              		csrr a5, scause
 2163              	# 0 "" 2
 2164              	#NO_APP
 2165 0ac0 2338F4FC 		sd	a5,-48(s0)
 171:src/kernel/../../h/kernel/riscv.hpp **** }
 2166              		.loc 2 171 5 is_stmt 1
 171:src/kernel/../../h/kernel/riscv.hpp **** }
 2167              		.loc 2 171 12 is_stmt 0
 2168 0ac4 033504FD 		ld	a0,-48(s0)
 2169              	.LVL154:
 2170              	.LBE135:
 2171              	.LBE134:
 190:src/kernel/riscv.cpp ****         ConsoleUtil::printString("sepc: ");
 2172              		.loc 1 190 9 is_stmt 1
 190:src/kernel/riscv.cpp ****         ConsoleUtil::printString("sepc: ");
 2173              		.loc 1 190 30 is_stmt 0
 2174 0ac8 13060000 		li	a2,0
 2175 0acc 9305A000 		li	a1,10
 2176 0ad0 1B050500 		sext.w	a0,a0
 2177              	.LVL155:
 2178 0ad4 97000000 		call	_ZN11ConsoleUtil8printIntEiii@plt
 2178      E7800000 
 2179              	.LVL156:
 191:src/kernel/riscv.cpp ****         uint64 sepc = RiscV::r_sepc();
 2180              		.loc 1 191 9 is_stmt 1
 191:src/kernel/riscv.cpp ****         uint64 sepc = RiscV::r_sepc();
 2181              		.loc 1 191 33 is_stmt 0
 2182 0adc 17050000 		lla	a0,.LC0
 2182      13050500 
 2183 0ae4 97000000 		call	_ZN11ConsoleUtil11printStringEPKc@plt
 2183      E7800000 
 2184              	.LVL157:
 192:src/kernel/riscv.cpp ****         ConsoleUtil::printInt(sepc,16);
 2185              		.loc 1 192 9 is_stmt 1
 2186              	.LBB136:
 2187              	.LBB137:
GAS LISTING /tmp/ccxUk6vw.s 			page 63


 179:src/kernel/../../h/kernel/riscv.hpp ****     asm("csrr %[sepc], sepc" : [sepc] "=r" (sepc));
 2188              		.loc 2 179 5
 180:src/kernel/../../h/kernel/riscv.hpp ****     return sepc;
 2189              		.loc 2 180 5
 180:src/kernel/../../h/kernel/riscv.hpp ****     return sepc;
 2190              		.loc 2 180 51 is_stmt 0
 2191              	#APP
 2192              	# 180 "src/kernel/../../h/kernel/riscv.hpp" 1
 181:src/kernel/../../h/kernel/riscv.hpp **** }
 2193              		csrr a0, sepc
 2194              	# 0 "" 2
 2195              		.loc 2 181 5 is_stmt 1
 2196              	#NO_APP
 2197              	.LBE137:
 2198              	.LBE136:
 193:src/kernel/riscv.cpp ****         ConsoleUtil::printString("\n");
 2199              		.loc 1 193 9
 193:src/kernel/riscv.cpp ****         ConsoleUtil::printString("\n");
 2200              		.loc 1 193 30 is_stmt 0
 2201 0af0 13060000 		li	a2,0
 2202 0af4 93050001 		li	a1,16
 2203 0af8 1B050500 		sext.w	a0,a0
 2204 0afc 97000000 		call	_ZN11ConsoleUtil8printIntEiii@plt
 2204      E7800000 
 2205              	.LVL158:
 194:src/kernel/riscv.cpp ****         ConsoleUtil::print("stvec: ",stval,"\n");
 2206              		.loc 1 194 9 is_stmt 1
 194:src/kernel/riscv.cpp ****         ConsoleUtil::print("stvec: ",stval,"\n");
 2207              		.loc 1 194 33 is_stmt 0
 2208 0b04 17050000 		lla	a0,.LC1
 2208      13050500 
 2209 0b0c 97000000 		call	_ZN11ConsoleUtil11printStringEPKc@plt
 2209      E7800000 
 2210              	.LVL159:
 195:src/kernel/riscv.cpp ****         TCB* old = TCB::running;
 2211              		.loc 1 195 9 is_stmt 1
 195:src/kernel/riscv.cpp ****         TCB* old = TCB::running;
 2212              		.loc 1 195 27 is_stmt 0
 2213 0b14 93060001 		li	a3,16
 2214 0b18 17060000 		lla	a2,.LC1
 2214      13060600 
 2215 0b20 9B850400 		sext.w	a1,s1
 2216 0b24 17050000 		lla	a0,.LC5
 2216      13050500 
 2217 0b2c 97000000 		call	_ZN11ConsoleUtil5printEPKciS1_i@plt
 2217      E7800000 
 2218              	.LVL160:
 196:src/kernel/riscv.cpp ****         old->status = TCB::Status::FINISHED;
 2219              		.loc 1 196 9 is_stmt 1
 196:src/kernel/riscv.cpp ****         old->status = TCB::Status::FINISHED;
 2220              		.loc 1 196 14 is_stmt 0
 2221 0b34 97070000 		la	a5,_ZN3TCB7runningE
 2221      83B70700 
 2222 0b3c 83B70700 		ld	a5,0(a5)
 2223              	.LVL161:
 197:src/kernel/riscv.cpp ****         ConsoleUtil::printString("Exiting thread...\n");
 2224              		.loc 1 197 9 is_stmt 1
GAS LISTING /tmp/ccxUk6vw.s 			page 64


 197:src/kernel/riscv.cpp ****         ConsoleUtil::printString("Exiting thread...\n");
 2225              		.loc 1 197 21 is_stmt 0
 2226 0b40 13072000 		li	a4,2
 2227 0b44 23A8E700 		sw	a4,16(a5)
 198:src/kernel/riscv.cpp ****         TCB::dispatch();
 2228              		.loc 1 198 9 is_stmt 1
 198:src/kernel/riscv.cpp ****         TCB::dispatch();
 2229              		.loc 1 198 33 is_stmt 0
 2230 0b48 17050000 		lla	a0,.LC6
 2230      13050500 
 2231 0b50 97000000 		call	_ZN11ConsoleUtil11printStringEPKc@plt
 2231      E7800000 
 2232              	.LVL162:
 199:src/kernel/riscv.cpp ****     }
 2233              		.loc 1 199 9 is_stmt 1
 199:src/kernel/riscv.cpp ****     }
 2234              		.loc 1 199 22 is_stmt 0
 2235 0b58 97000000 		call	_ZN3TCB8dispatchEv@plt
 2235      E7800000 
 2236              	.LVL163:
 2237 0b60 6F000008 		j	.L134
 2238              	.L111:
 2239              	.LBE133:
 2240              	.LBE132:
 2241              	.LBE155:
 2242              	.LBE172:
 2243              	.LBB173:
  61:src/kernel/riscv.cpp ****         uint64 volatile sepc = RiscV::r_sepc()+4;
 2244              		.loc 1 61 9 is_stmt 1
 2245              	.LBB174:
 2246              	.LBB175:
 199:src/kernel/../../h/kernel/riscv.hpp ****     asm("csrr %[sstatus], sstatus" : [sstatus] "=r" (sstatus));
 2247              		.loc 2 199 5
 200:src/kernel/../../h/kernel/riscv.hpp ****     return sstatus;
 2248              		.loc 2 200 5
 200:src/kernel/../../h/kernel/riscv.hpp ****     return sstatus;
 2249              		.loc 2 200 63 is_stmt 0
 2250              	#APP
 2251              	# 200 "src/kernel/../../h/kernel/riscv.hpp" 1
 2252              		csrr a5, sstatus
 2253              	# 0 "" 2
 2254              	.LVL164:
 201:src/kernel/../../h/kernel/riscv.hpp **** }
 2255              		.loc 2 201 5 is_stmt 1
 2256              	#NO_APP
 2257              	.LBE175:
 2258              	.LBE174:
  61:src/kernel/riscv.cpp ****         uint64 volatile sepc = RiscV::r_sepc()+4;
 2259              		.loc 1 61 52 is_stmt 0
 2260 0b68 233CF4F8 		sd	a5,-104(s0)
  62:src/kernel/riscv.cpp ****         TCB::running->sepc = sepc;
 2261              		.loc 1 62 9 is_stmt 1
 2262              	.LBB176:
 2263              	.LBB177:
 179:src/kernel/../../h/kernel/riscv.hpp ****     asm("csrr %[sepc], sepc" : [sepc] "=r" (sepc));
 2264              		.loc 2 179 5
 180:src/kernel/../../h/kernel/riscv.hpp ****     return sepc;
GAS LISTING /tmp/ccxUk6vw.s 			page 65


 2265              		.loc 2 180 5
 180:src/kernel/../../h/kernel/riscv.hpp ****     return sepc;
 2266              		.loc 2 180 51 is_stmt 0
 2267              	#APP
 2268              	# 180 "src/kernel/../../h/kernel/riscv.hpp" 1
 2269              		csrr a5, sepc
 2270              	# 0 "" 2
 2271              	.LVL165:
 181:src/kernel/../../h/kernel/riscv.hpp **** }
 2272              		.loc 2 181 5 is_stmt 1
 2273              	#NO_APP
 2274              	.LBE177:
 2275              	.LBE176:
  62:src/kernel/riscv.cpp ****         TCB::running->sepc = sepc;
 2276              		.loc 1 62 47 is_stmt 0
 2277 0b70 93874700 		addi	a5,a5,4
  62:src/kernel/riscv.cpp ****         TCB::running->sepc = sepc;
 2278              		.loc 1 62 48
 2279 0b74 2330F4FA 		sd	a5,-96(s0)
  63:src/kernel/riscv.cpp ****         TCB::running->sstatus = sstatus;
 2280              		.loc 1 63 9 is_stmt 1
  63:src/kernel/riscv.cpp ****         TCB::running->sstatus = sstatus;
 2281              		.loc 1 63 23 is_stmt 0
 2282 0b78 97070000 		la	a5,_ZN3TCB7runningE
 2282      83B70700 
 2283 0b80 83B70700 		ld	a5,0(a5)
  63:src/kernel/riscv.cpp ****         TCB::running->sstatus = sstatus;
 2284              		.loc 1 63 28
 2285 0b84 033704FA 		ld	a4,-96(s0)
 2286 0b88 23BCE702 		sd	a4,56(a5)
  64:src/kernel/riscv.cpp **** 
 2287              		.loc 1 64 9 is_stmt 1
  64:src/kernel/riscv.cpp **** 
 2288              		.loc 1 64 31 is_stmt 0
 2289 0b8c 033784F9 		ld	a4,-104(s0)
 2290 0b90 23B0E704 		sd	a4,64(a5)
  67:src/kernel/riscv.cpp ****         asm("mv %[syscallID], a0" : [syscallID] "=r" (syscallID));
 2291              		.loc 1 67 9 is_stmt 1
  68:src/kernel/riscv.cpp **** 
 2292              		.loc 1 68 9
  68:src/kernel/riscv.cpp **** 
 2293              		.loc 1 68 66 is_stmt 0
 2294              	#APP
 2295              	# 68 "src/kernel/riscv.cpp" 1
 2296              		mv a5, a0
 2297              	# 0 "" 2
 2298              	.LVL166:
  70:src/kernel/riscv.cpp ****             case 0x01 : executeMemAllocSyscall();break;
 2299              		.loc 1 70 9 is_stmt 1
 2300              	#NO_APP
 2301 0b98 13071006 		li	a4,97
 2302 0b9c 6364F702 		bgtu	a5,a4,.L114
 2303 0ba0 93972700 		slli	a5,a5,2
 2304              	.LVL167:
 2305 0ba4 17070000 		lla	a4,.L116
 2305      13070700 
 2306 0bac B387E700 		add	a5,a5,a4
GAS LISTING /tmp/ccxUk6vw.s 			page 66


 2307 0bb0 83A70700 		lw	a5,0(a5)
 2308 0bb4 B387E700 		add	a5,a5,a4
 2309 0bb8 67800700 		jr	a5
 2310              		.section	.rodata
 2311              		.align	2
 2312              		.align	2
 2313              	.L116:
 2314 0000 00000000 		.word	.L114-.L116
 2315 0004 00000000 		.word	.L133-.L116
 2316 0008 00000000 		.word	.L132-.L116
 2317 000c 00000000 		.word	.L114-.L116
 2318 0010 00000000 		.word	.L114-.L116
 2319 0014 00000000 		.word	.L114-.L116
 2320 0018 00000000 		.word	.L114-.L116
 2321 001c 00000000 		.word	.L114-.L116
 2322 0020 00000000 		.word	.L114-.L116
 2323 0024 00000000 		.word	.L114-.L116
 2324 0028 00000000 		.word	.L114-.L116
 2325 002c 00000000 		.word	.L114-.L116
 2326 0030 00000000 		.word	.L114-.L116
 2327 0034 00000000 		.word	.L114-.L116
 2328 0038 00000000 		.word	.L114-.L116
 2329 003c 00000000 		.word	.L114-.L116
 2330 0040 00000000 		.word	.L114-.L116
 2331 0044 00000000 		.word	.L131-.L116
 2332 0048 00000000 		.word	.L130-.L116
 2333 004c 00000000 		.word	.L129-.L116
 2334 0050 00000000 		.word	.L128-.L116
 2335 0054 00000000 		.word	.L127-.L116
 2336 0058 00000000 		.word	.L114-.L116
 2337 005c 00000000 		.word	.L114-.L116
 2338 0060 00000000 		.word	.L114-.L116
 2339 0064 00000000 		.word	.L114-.L116
 2340 0068 00000000 		.word	.L114-.L116
 2341 006c 00000000 		.word	.L114-.L116
 2342 0070 00000000 		.word	.L114-.L116
 2343 0074 00000000 		.word	.L114-.L116
 2344 0078 00000000 		.word	.L114-.L116
 2345 007c 00000000 		.word	.L114-.L116
 2346 0080 00000000 		.word	.L114-.L116
 2347 0084 00000000 		.word	.L126-.L116
 2348 0088 00000000 		.word	.L125-.L116
 2349 008c 00000000 		.word	.L124-.L116
 2350 0090 00000000 		.word	.L123-.L116
 2351 0094 00000000 		.word	.L114-.L116
 2352 0098 00000000 		.word	.L114-.L116
 2353 009c 00000000 		.word	.L114-.L116
 2354 00a0 00000000 		.word	.L114-.L116
 2355 00a4 00000000 		.word	.L114-.L116
 2356 00a8 00000000 		.word	.L114-.L116
 2357 00ac 00000000 		.word	.L114-.L116
 2358 00b0 00000000 		.word	.L114-.L116
 2359 00b4 00000000 		.word	.L114-.L116
 2360 00b8 00000000 		.word	.L114-.L116
 2361 00bc 00000000 		.word	.L114-.L116
 2362 00c0 00000000 		.word	.L114-.L116
 2363 00c4 00000000 		.word	.L122-.L116
GAS LISTING /tmp/ccxUk6vw.s 			page 67


 2364 00c8 00000000 		.word	.L114-.L116
 2365 00cc 00000000 		.word	.L114-.L116
 2366 00d0 00000000 		.word	.L114-.L116
 2367 00d4 00000000 		.word	.L114-.L116
 2368 00d8 00000000 		.word	.L114-.L116
 2369 00dc 00000000 		.word	.L114-.L116
 2370 00e0 00000000 		.word	.L114-.L116
 2371 00e4 00000000 		.word	.L114-.L116
 2372 00e8 00000000 		.word	.L114-.L116
 2373 00ec 00000000 		.word	.L114-.L116
 2374 00f0 00000000 		.word	.L114-.L116
 2375 00f4 00000000 		.word	.L114-.L116
 2376 00f8 00000000 		.word	.L114-.L116
 2377 00fc 00000000 		.word	.L114-.L116
 2378 0100 00000000 		.word	.L114-.L116
 2379 0104 00000000 		.word	.L121-.L116
 2380 0108 00000000 		.word	.L120-.L116
 2381 010c 00000000 		.word	.L119-.L116
 2382 0110 00000000 		.word	.L114-.L116
 2383 0114 00000000 		.word	.L114-.L116
 2384 0118 00000000 		.word	.L114-.L116
 2385 011c 00000000 		.word	.L114-.L116
 2386 0120 00000000 		.word	.L114-.L116
 2387 0124 00000000 		.word	.L114-.L116
 2388 0128 00000000 		.word	.L114-.L116
 2389 012c 00000000 		.word	.L114-.L116
 2390 0130 00000000 		.word	.L114-.L116
 2391 0134 00000000 		.word	.L114-.L116
 2392 0138 00000000 		.word	.L114-.L116
 2393 013c 00000000 		.word	.L114-.L116
 2394 0140 00000000 		.word	.L114-.L116
 2395 0144 00000000 		.word	.L118-.L116
 2396 0148 00000000 		.word	.L117-.L116
 2397 014c 00000000 		.word	.L114-.L116
 2398 0150 00000000 		.word	.L114-.L116
 2399 0154 00000000 		.word	.L114-.L116
 2400 0158 00000000 		.word	.L114-.L116
 2401 015c 00000000 		.word	.L114-.L116
 2402 0160 00000000 		.word	.L114-.L116
 2403 0164 00000000 		.word	.L114-.L116
 2404 0168 00000000 		.word	.L114-.L116
 2405 016c 00000000 		.word	.L114-.L116
 2406 0170 00000000 		.word	.L114-.L116
 2407 0174 00000000 		.word	.L114-.L116
 2408 0178 00000000 		.word	.L114-.L116
 2409 017c 00000000 		.word	.L114-.L116
 2410 0180 00000000 		.word	.L114-.L116
 2411 0184 00000000 		.word	.L115-.L116
 2412              		.text
 2413              	.L133:
  71:src/kernel/riscv.cpp ****             case 0x02 : executeMemFreeSyscall();break;
 2414              		.loc 1 71 13
  71:src/kernel/riscv.cpp ****             case 0x02 : executeMemFreeSyscall();break;
 2415              		.loc 1 71 25
  71:src/kernel/riscv.cpp ****             case 0x02 : executeMemFreeSyscall();break;
 2416              		.loc 1 71 47 is_stmt 0
 2417 0bbc 97000000 		call	_ZN5RiscV22executeMemAllocSyscallEv
GAS LISTING /tmp/ccxUk6vw.s 			page 68


 2417      E7800000 
 2418              	.LVL168:
  71:src/kernel/riscv.cpp ****             case 0x02 : executeMemFreeSyscall();break;
 2419              		.loc 1 71 50 is_stmt 1
 2420              	.L114:
  98:src/kernel/riscv.cpp ****         RiscV::w_sepc(TCB::running->sepc);
 2421              		.loc 1 98 9
  98:src/kernel/riscv.cpp ****         RiscV::w_sepc(TCB::running->sepc);
 2422              		.loc 1 98 25 is_stmt 0
 2423 0bc4 97070000 		la	a5,_ZN3TCB7runningE
 2423      83B70700 
 2424 0bcc 83B70700 		ld	a5,0(a5)
 2425 0bd0 03B70704 		ld	a4,64(a5)
 2426              	.LVL169:
 2427              	.LBB178:
 2428              	.LBB179:
 195:src/kernel/../../h/kernel/riscv.hpp **** }
 2429              		.loc 2 195 5 is_stmt 1
 195:src/kernel/../../h/kernel/riscv.hpp **** }
 2430              		.loc 2 195 64 is_stmt 0
 2431              	#APP
 2432              	# 195 "src/kernel/../../h/kernel/riscv.hpp" 1
 2433              		csrw sstatus, a4
 2434              	# 0 "" 2
 2435              	.LVL170:
 2436              	#NO_APP
 2437              	.LBE179:
 2438              	.LBE178:
  99:src/kernel/riscv.cpp ****     }
 2439              		.loc 1 99 9 is_stmt 1
  99:src/kernel/riscv.cpp ****     }
 2440              		.loc 1 99 22 is_stmt 0
 2441 0bd8 83B78703 		ld	a5,56(a5)
 2442              	.LVL171:
 2443              	.LBB180:
 2444              	.LBB181:
 185:src/kernel/../../h/kernel/riscv.hpp **** }
 2445              		.loc 2 185 5 is_stmt 1
 185:src/kernel/../../h/kernel/riscv.hpp **** }
 2446              		.loc 2 185 52 is_stmt 0
 2447              	#APP
 2448              	# 185 "src/kernel/../../h/kernel/riscv.hpp" 1
 2449              		csrw sepc, a5
 2450              	# 0 "" 2
 2451              	.LVL172:
 2452              	#NO_APP
 2453              	.L134:
 2454              	.LBE181:
 2455              	.LBE180:
 2456              	.LBE173:
 2457              	.LBE186:
 202:src/kernel/riscv.cpp **** }
 2458              		.loc 1 202 5 is_stmt 1
 202:src/kernel/riscv.cpp **** }
 2459              		.loc 1 202 41 is_stmt 0
 2460 0be0 97000000 		call	_ZN5RiscV29jumpToDesignatedPrivilegeModeEv
 2460      E7800000 
GAS LISTING /tmp/ccxUk6vw.s 			page 69


 2461              	.LVL173:
 203:src/kernel/riscv.cpp **** 
 2462              		.loc 1 203 1
 2463 0be8 83308106 		ld	ra,104(sp)
 2464              		.cfi_remember_state
 2465              		.cfi_restore 1
 2466 0bec 03340106 		ld	s0,96(sp)
 2467              		.cfi_restore 8
 2468              		.cfi_def_cfa 2, 112
 2469 0bf0 83348105 		ld	s1,88(sp)
 2470              		.cfi_restore 9
 2471              	.LVL174:
 2472 0bf4 13010107 		addi	sp,sp,112
 2473              		.cfi_def_cfa_offset 0
 2474 0bf8 67800000 		jr	ra
 2475              	.LVL175:
 2476              	.L132:
 2477              		.cfi_restore_state
 2478              	.LBB187:
 2479              	.LBB182:
  72:src/kernel/riscv.cpp ****             case 0x11 : executeThreadCreateSyscall();break;
 2480              		.loc 1 72 13 is_stmt 1
  72:src/kernel/riscv.cpp ****             case 0x11 : executeThreadCreateSyscall();break;
 2481              		.loc 1 72 25
  72:src/kernel/riscv.cpp ****             case 0x11 : executeThreadCreateSyscall();break;
 2482              		.loc 1 72 46 is_stmt 0
 2483 0bfc 97000000 		call	_ZN5RiscV21executeMemFreeSyscallEv
 2483      E7800000 
 2484              	.LVL176:
  72:src/kernel/riscv.cpp ****             case 0x11 : executeThreadCreateSyscall();break;
 2485              		.loc 1 72 49 is_stmt 1
 2486 0c04 6FF01FFC 		j	.L114
 2487              	.L131:
  73:src/kernel/riscv.cpp ****             case 0x12 : executeThreadExitSyscall();break;
 2488              		.loc 1 73 13
  73:src/kernel/riscv.cpp ****             case 0x12 : executeThreadExitSyscall();break;
 2489              		.loc 1 73 25
  73:src/kernel/riscv.cpp ****             case 0x12 : executeThreadExitSyscall();break;
 2490              		.loc 1 73 51 is_stmt 0
 2491 0c08 97000000 		call	_ZN5RiscV26executeThreadCreateSyscallEv
 2491      E7800000 
 2492              	.LVL177:
  73:src/kernel/riscv.cpp ****             case 0x12 : executeThreadExitSyscall();break;
 2493              		.loc 1 73 54 is_stmt 1
 2494 0c10 6FF05FFB 		j	.L114
 2495              	.L130:
  74:src/kernel/riscv.cpp ****             case 0x13 : executeThreadDispatchSyscall();break;
 2496              		.loc 1 74 13
  74:src/kernel/riscv.cpp ****             case 0x13 : executeThreadDispatchSyscall();break;
 2497              		.loc 1 74 25
  74:src/kernel/riscv.cpp ****             case 0x13 : executeThreadDispatchSyscall();break;
 2498              		.loc 1 74 49 is_stmt 0
 2499 0c14 97000000 		call	_ZN5RiscV24executeThreadExitSyscallEv
 2499      E7800000 
 2500              	.LVL178:
  74:src/kernel/riscv.cpp ****             case 0x13 : executeThreadDispatchSyscall();break;
 2501              		.loc 1 74 52 is_stmt 1
GAS LISTING /tmp/ccxUk6vw.s 			page 70


 2502 0c1c 6FF09FFA 		j	.L114
 2503              	.L129:
  75:src/kernel/riscv.cpp ****             case 0x14 : executeThreadAttachBodySyscall();break;
 2504              		.loc 1 75 13
  75:src/kernel/riscv.cpp ****             case 0x14 : executeThreadAttachBodySyscall();break;
 2505              		.loc 1 75 25
  75:src/kernel/riscv.cpp ****             case 0x14 : executeThreadAttachBodySyscall();break;
 2506              		.loc 1 75 53 is_stmt 0
 2507 0c20 97000000 		call	_ZN5RiscV28executeThreadDispatchSyscallEv
 2507      E7800000 
 2508              	.LVL179:
  75:src/kernel/riscv.cpp ****             case 0x14 : executeThreadAttachBodySyscall();break;
 2509              		.loc 1 75 56 is_stmt 1
 2510 0c28 6FF0DFF9 		j	.L114
 2511              	.L128:
  76:src/kernel/riscv.cpp ****             case 0x15 : executeThreadStartSyscall();break;
 2512              		.loc 1 76 13
  76:src/kernel/riscv.cpp ****             case 0x15 : executeThreadStartSyscall();break;
 2513              		.loc 1 76 25
  76:src/kernel/riscv.cpp ****             case 0x15 : executeThreadStartSyscall();break;
 2514              		.loc 1 76 55 is_stmt 0
 2515 0c2c 97000000 		call	_ZN5RiscV30executeThreadAttachBodySyscallEv
 2515      E7800000 
 2516              	.LVL180:
  76:src/kernel/riscv.cpp ****             case 0x15 : executeThreadStartSyscall();break;
 2517              		.loc 1 76 58 is_stmt 1
 2518 0c34 6FF01FF9 		j	.L114
 2519              	.L127:
  77:src/kernel/riscv.cpp ****             case 0x21 : executeSemOpenSyscall();break;
 2520              		.loc 1 77 13
  77:src/kernel/riscv.cpp ****             case 0x21 : executeSemOpenSyscall();break;
 2521              		.loc 1 77 25
  77:src/kernel/riscv.cpp ****             case 0x21 : executeSemOpenSyscall();break;
 2522              		.loc 1 77 50 is_stmt 0
 2523 0c38 97000000 		call	_ZN5RiscV25executeThreadStartSyscallEv
 2523      E7800000 
 2524              	.LVL181:
  77:src/kernel/riscv.cpp ****             case 0x21 : executeSemOpenSyscall();break;
 2525              		.loc 1 77 53 is_stmt 1
 2526 0c40 6FF05FF8 		j	.L114
 2527              	.L126:
  78:src/kernel/riscv.cpp ****             case 0x22 : executeSemCloseSyscall();break;
 2528              		.loc 1 78 13
  78:src/kernel/riscv.cpp ****             case 0x22 : executeSemCloseSyscall();break;
 2529              		.loc 1 78 25
  78:src/kernel/riscv.cpp ****             case 0x22 : executeSemCloseSyscall();break;
 2530              		.loc 1 78 46 is_stmt 0
 2531 0c44 97000000 		call	_ZN5RiscV21executeSemOpenSyscallEv
 2531      E7800000 
 2532              	.LVL182:
  78:src/kernel/riscv.cpp ****             case 0x22 : executeSemCloseSyscall();break;
 2533              		.loc 1 78 49 is_stmt 1
 2534 0c4c 6FF09FF7 		j	.L114
 2535              	.L125:
  79:src/kernel/riscv.cpp ****             case 0x23 : executeSemWaitSyscall();break;
 2536              		.loc 1 79 13
  79:src/kernel/riscv.cpp ****             case 0x23 : executeSemWaitSyscall();break;
GAS LISTING /tmp/ccxUk6vw.s 			page 71


 2537              		.loc 1 79 25
  79:src/kernel/riscv.cpp ****             case 0x23 : executeSemWaitSyscall();break;
 2538              		.loc 1 79 47 is_stmt 0
 2539 0c50 97000000 		call	_ZN5RiscV22executeSemCloseSyscallEv
 2539      E7800000 
 2540              	.LVL183:
  79:src/kernel/riscv.cpp ****             case 0x23 : executeSemWaitSyscall();break;
 2541              		.loc 1 79 50 is_stmt 1
 2542 0c58 6FF0DFF6 		j	.L114
 2543              	.L124:
  80:src/kernel/riscv.cpp ****             case 0x24 : executeSemSignalSyscall();break;
 2544              		.loc 1 80 13
  80:src/kernel/riscv.cpp ****             case 0x24 : executeSemSignalSyscall();break;
 2545              		.loc 1 80 25
  80:src/kernel/riscv.cpp ****             case 0x24 : executeSemSignalSyscall();break;
 2546              		.loc 1 80 46 is_stmt 0
 2547 0c5c 97000000 		call	_ZN5RiscV21executeSemWaitSyscallEv
 2547      E7800000 
 2548              	.LVL184:
  80:src/kernel/riscv.cpp ****             case 0x24 : executeSemSignalSyscall();break;
 2549              		.loc 1 80 49 is_stmt 1
 2550 0c64 6FF01FF6 		j	.L114
 2551              	.L123:
  81:src/kernel/riscv.cpp ****             case 0x31 : executeTimeSleepSyscall();break;
 2552              		.loc 1 81 13
  81:src/kernel/riscv.cpp ****             case 0x31 : executeTimeSleepSyscall();break;
 2553              		.loc 1 81 25
  81:src/kernel/riscv.cpp ****             case 0x31 : executeTimeSleepSyscall();break;
 2554              		.loc 1 81 48 is_stmt 0
 2555 0c68 97000000 		call	_ZN5RiscV23executeSemSignalSyscallEv
 2555      E7800000 
 2556              	.LVL185:
  81:src/kernel/riscv.cpp ****             case 0x31 : executeTimeSleepSyscall();break;
 2557              		.loc 1 81 51 is_stmt 1
 2558 0c70 6FF05FF5 		j	.L114
 2559              	.L122:
  82:src/kernel/riscv.cpp ****             case 0x41 : executeGetcSyscall();break;
 2560              		.loc 1 82 13
  82:src/kernel/riscv.cpp ****             case 0x41 : executeGetcSyscall();break;
 2561              		.loc 1 82 25
  82:src/kernel/riscv.cpp ****             case 0x41 : executeGetcSyscall();break;
 2562              		.loc 1 82 48 is_stmt 0
 2563 0c74 97000000 		call	_ZN5RiscV23executeTimeSleepSyscallEv
 2563      E7800000 
 2564              	.LVL186:
  82:src/kernel/riscv.cpp ****             case 0x41 : executeGetcSyscall();break;
 2565              		.loc 1 82 51 is_stmt 1
 2566 0c7c 6FF09FF4 		j	.L114
 2567              	.L121:
  83:src/kernel/riscv.cpp ****             case 0x42 : executePutcSyscall();break;
 2568              		.loc 1 83 13
  83:src/kernel/riscv.cpp ****             case 0x42 : executePutcSyscall();break;
 2569              		.loc 1 83 25
  83:src/kernel/riscv.cpp ****             case 0x42 : executePutcSyscall();break;
 2570              		.loc 1 83 43 is_stmt 0
 2571 0c80 97000000 		call	_ZN5RiscV18executeGetcSyscallEv
 2571      E7800000 
GAS LISTING /tmp/ccxUk6vw.s 			page 72


 2572              	.LVL187:
  83:src/kernel/riscv.cpp ****             case 0x42 : executePutcSyscall();break;
 2573              		.loc 1 83 46 is_stmt 1
 2574 0c88 6FF0DFF3 		j	.L114
 2575              	.L120:
  84:src/kernel/riscv.cpp ****             case 0x43 : executePutcUtilSyscall();break;
 2576              		.loc 1 84 13
  84:src/kernel/riscv.cpp ****             case 0x43 : executePutcUtilSyscall();break;
 2577              		.loc 1 84 25
  84:src/kernel/riscv.cpp ****             case 0x43 : executePutcUtilSyscall();break;
 2578              		.loc 1 84 43 is_stmt 0
 2579 0c8c 97000000 		call	_ZN5RiscV18executePutcSyscallEv
 2579      E7800000 
 2580              	.LVL188:
  84:src/kernel/riscv.cpp ****             case 0x43 : executePutcUtilSyscall();break;
 2581              		.loc 1 84 46 is_stmt 1
 2582 0c94 6FF01FF3 		j	.L114
 2583              	.L119:
  85:src/kernel/riscv.cpp ****             case 0x51 : executeThreadFreeSyscall();break;
 2584              		.loc 1 85 13
  85:src/kernel/riscv.cpp ****             case 0x51 : executeThreadFreeSyscall();break;
 2585              		.loc 1 85 25
  85:src/kernel/riscv.cpp ****             case 0x51 : executeThreadFreeSyscall();break;
 2586              		.loc 1 85 47 is_stmt 0
 2587 0c98 97000000 		call	_ZN5RiscV22executePutcUtilSyscallEv
 2587      E7800000 
 2588              	.LVL189:
  85:src/kernel/riscv.cpp ****             case 0x51 : executeThreadFreeSyscall();break;
 2589              		.loc 1 85 50 is_stmt 1
 2590 0ca0 6FF05FF2 		j	.L114
 2591              	.L118:
  86:src/kernel/riscv.cpp ****             case 0x52 : executeSemaphoreFreeSyscall();break;
 2592              		.loc 1 86 13
  86:src/kernel/riscv.cpp ****             case 0x52 : executeSemaphoreFreeSyscall();break;
 2593              		.loc 1 86 25
  86:src/kernel/riscv.cpp ****             case 0x52 : executeSemaphoreFreeSyscall();break;
 2594              		.loc 1 86 49 is_stmt 0
 2595 0ca4 97000000 		call	_ZN5RiscV24executeThreadFreeSyscallEv
 2595      E7800000 
 2596              	.LVL190:
  86:src/kernel/riscv.cpp ****             case 0x52 : executeSemaphoreFreeSyscall();break;
 2597              		.loc 1 86 52 is_stmt 1
 2598 0cac 6FF09FF1 		j	.L114
 2599              	.L117:
  87:src/kernel/riscv.cpp ****             //in this case we need to save SP and PC at this point so that newly created thread
 2600              		.loc 1 87 13
  87:src/kernel/riscv.cpp ****             //in this case we need to save SP and PC at this point so that newly created thread
 2601              		.loc 1 87 25
  87:src/kernel/riscv.cpp ****             //in this case we need to save SP and PC at this point so that newly created thread
 2602              		.loc 1 87 52 is_stmt 0
 2603 0cb0 97000000 		call	_ZN5RiscV27executeSemaphoreFreeSyscallEv
 2603      E7800000 
 2604              	.LVL191:
  87:src/kernel/riscv.cpp ****             //in this case we need to save SP and PC at this point so that newly created thread
 2605              		.loc 1 87 55 is_stmt 1
 2606 0cb8 6FF0DFF0 		j	.L114
 2607              	.L115:
GAS LISTING /tmp/ccxUk6vw.s 			page 73


  91:src/kernel/riscv.cpp ****                         RiscV::getPC();
 2608              		.loc 1 91 13
  91:src/kernel/riscv.cpp ****                         RiscV::getPC();
 2609              		.loc 1 91 25
  91:src/kernel/riscv.cpp ****                         RiscV::getPC();
 2610              		.loc 1 91 72 is_stmt 0
 2611              	#APP
 2612              	# 91 "src/kernel/riscv.cpp" 1
 2613              		mv a5, sp
 2614              	# 0 "" 2
 2615              	#NO_APP
 2616 0cc0 17070000 		la	a4,_ZN3TCB9currentSPE
 2616      03370700 
 2617 0cc8 2330F700 		sd	a5,0(a4)
  92:src/kernel/riscv.cpp ****                         executeForkSyscall();
 2618              		.loc 1 92 25 is_stmt 1
  92:src/kernel/riscv.cpp ****                         executeForkSyscall();
 2619              		.loc 1 92 37 is_stmt 0
 2620 0ccc 97000000 		call	_ZN5RiscV5getPCEv
 2620      E7800000 
 2621              	.LVL192:
  93:src/kernel/riscv.cpp ****                         break;
 2622              		.loc 1 93 25 is_stmt 1
  93:src/kernel/riscv.cpp ****                         break;
 2623              		.loc 1 93 43 is_stmt 0
 2624 0cd4 97000000 		call	_ZN5RiscV18executeForkSyscallEv
 2624      E7800000 
 2625              	.LVL193:
  94:src/kernel/riscv.cpp ****         }
 2626              		.loc 1 94 25 is_stmt 1
 2627 0cdc 6FF09FEE 		j	.L114
 2628              	.L141:
 2629              	.LBE182:
 2630              	.LBB183:
 2631              	.LBB156:
 107:src/kernel/riscv.cpp ****         uint64 volatile sepc = RiscV::r_sepc();
 2632              		.loc 1 107 9
 2633              	.LBB157:
 2634              	.LBB158:
 199:src/kernel/../../h/kernel/riscv.hpp ****     asm("csrr %[sstatus], sstatus" : [sstatus] "=r" (sstatus));
 2635              		.loc 2 199 5
 200:src/kernel/../../h/kernel/riscv.hpp ****     return sstatus;
 2636              		.loc 2 200 5
 200:src/kernel/../../h/kernel/riscv.hpp ****     return sstatus;
 2637              		.loc 2 200 63 is_stmt 0
 2638              	#APP
 2639              	# 200 "src/kernel/../../h/kernel/riscv.hpp" 1
 2640              		csrr a5, sstatus
 2641              	# 0 "" 2
 2642              	.LVL194:
 201:src/kernel/../../h/kernel/riscv.hpp **** }
 2643              		.loc 2 201 5 is_stmt 1
 2644              	#NO_APP
 2645              	.LBE158:
 2646              	.LBE157:
 107:src/kernel/riscv.cpp ****         uint64 volatile sepc = RiscV::r_sepc();
 2647              		.loc 1 107 52 is_stmt 0
GAS LISTING /tmp/ccxUk6vw.s 			page 74


 2648 0ce4 2334F4FA 		sd	a5,-88(s0)
 108:src/kernel/riscv.cpp **** 
 2649              		.loc 1 108 9 is_stmt 1
 2650              	.LBB159:
 2651              	.LBB160:
 179:src/kernel/../../h/kernel/riscv.hpp ****     asm("csrr %[sepc], sepc" : [sepc] "=r" (sepc));
 2652              		.loc 2 179 5
 180:src/kernel/../../h/kernel/riscv.hpp ****     return sepc;
 2653              		.loc 2 180 5
 180:src/kernel/../../h/kernel/riscv.hpp ****     return sepc;
 2654              		.loc 2 180 51 is_stmt 0
 2655              	#APP
 2656              	# 180 "src/kernel/../../h/kernel/riscv.hpp" 1
 2657              		csrr a5, sepc
 2658              	# 0 "" 2
 2659              	.LVL195:
 181:src/kernel/../../h/kernel/riscv.hpp **** }
 2660              		.loc 2 181 5 is_stmt 1
 2661              	#NO_APP
 2662              	.LBE160:
 2663              	.LBE159:
 108:src/kernel/riscv.cpp **** 
 2664              		.loc 1 108 46 is_stmt 0
 2665 0cec 2338F4FA 		sd	a5,-80(s0)
 111:src/kernel/riscv.cpp **** 
 2666              		.loc 1 111 9 is_stmt 1
 2667              	.LVL196:
 2668              	.LBB161:
 2669              	.LBB162:
 221:src/kernel/../../h/kernel/riscv.hpp **** }
 2670              		.loc 2 221 5
 221:src/kernel/../../h/kernel/riscv.hpp **** }
 2671              		.loc 2 221 51 is_stmt 0
 2672 0cf0 93072000 		li	a5,2
 2673              	#APP
 2674              	# 221 "src/kernel/../../h/kernel/riscv.hpp" 1
 2675              		csrc sip, a5
 2676              	# 0 "" 2
 2677              	.LVL197:
 2678              	#NO_APP
 2679              	.LBE162:
 2680              	.LBE161:
 115:src/kernel/riscv.cpp ****         Scheduler::awake();
 2681              		.loc 1 115 9 is_stmt 1
 115:src/kernel/riscv.cpp ****         Scheduler::awake();
 2682              		.loc 1 115 20 is_stmt 0
 2683 0cf8 17070000 		lla	a4,.LANCHOR0
 2683      13070700 
 2684 0d00 83378700 		ld	a5,8(a4)
 2685 0d04 93871700 		addi	a5,a5,1
 2686 0d08 2334F700 		sd	a5,8(a4)
 116:src/kernel/riscv.cpp **** 
 2687              		.loc 1 116 9 is_stmt 1
 116:src/kernel/riscv.cpp **** 
 2688              		.loc 1 116 25 is_stmt 0
 2689 0d0c 97000000 		call	_ZN9Scheduler5awakeEv@plt
 2689      E7800000 
GAS LISTING /tmp/ccxUk6vw.s 			page 75


 2690              	.LVL198:
 120:src/kernel/riscv.cpp ****         if(TCB::timeSliceCounter >= TCB::running->timeSlice) {
 2691              		.loc 1 120 9 is_stmt 1
 120:src/kernel/riscv.cpp ****         if(TCB::timeSliceCounter >= TCB::running->timeSlice) {
 2692              		.loc 1 120 30 is_stmt 0
 2693 0d14 17070000 		la	a4,_ZN3TCB16timeSliceCounterE
 2693      03370700 
 2694 0d1c 83370700 		ld	a5,0(a4)
 2695 0d20 93871700 		addi	a5,a5,1
 2696 0d24 2330F700 		sd	a5,0(a4)
 121:src/kernel/riscv.cpp **** 
 2697              		.loc 1 121 9 is_stmt 1
 2698              	.LBB163:
 121:src/kernel/riscv.cpp **** 
 2699              		.loc 1 121 51 is_stmt 0
 2700 0d28 17070000 		la	a4,_ZN3TCB7runningE
 2700      03370700 
 2701 0d30 03370700 		ld	a4,0(a4)
 2702 0d34 83360703 		ld	a3,48(a4)
 121:src/kernel/riscv.cpp **** 
 2703              		.loc 1 121 9
 2704 0d38 63FCD700 		bgeu	a5,a3,.L144
 2705              	.L135:
 2706              	.LBE163:
 133:src/kernel/riscv.cpp ****         RiscV::w_sepc(sepc);
 2707              		.loc 1 133 9 is_stmt 1
 133:src/kernel/riscv.cpp ****         RiscV::w_sepc(sepc);
 2708              		.loc 1 133 25 is_stmt 0
 2709 0d3c 833784FA 		ld	a5,-88(s0)
 2710              	.LVL199:
 2711              	.LBB165:
 2712              	.LBB166:
 195:src/kernel/../../h/kernel/riscv.hpp **** }
 2713              		.loc 2 195 5 is_stmt 1
 195:src/kernel/../../h/kernel/riscv.hpp **** }
 2714              		.loc 2 195 64 is_stmt 0
 2715              	#APP
 2716              	# 195 "src/kernel/../../h/kernel/riscv.hpp" 1
 2717              		csrw sstatus, a5
 2718              	# 0 "" 2
 2719              	.LVL200:
 2720              	#NO_APP
 2721              	.LBE166:
 2722              	.LBE165:
 134:src/kernel/riscv.cpp ****     }
 2723              		.loc 1 134 9 is_stmt 1
 134:src/kernel/riscv.cpp ****     }
 2724              		.loc 1 134 22 is_stmt 0
 2725 0d44 833704FB 		ld	a5,-80(s0)
 2726              	.LVL201:
 2727              	.LBB167:
 2728              	.LBB168:
 185:src/kernel/../../h/kernel/riscv.hpp **** }
 2729              		.loc 2 185 5 is_stmt 1
 185:src/kernel/../../h/kernel/riscv.hpp **** }
 2730              		.loc 2 185 52 is_stmt 0
 2731              	#APP
GAS LISTING /tmp/ccxUk6vw.s 			page 76


 2732              	# 185 "src/kernel/../../h/kernel/riscv.hpp" 1
 186:src/kernel/../../h/kernel/riscv.hpp **** 
 2733              		csrw sepc, a5
 2734              	# 0 "" 2
 2735              		.loc 2 186 1
 2736              	#NO_APP
 2737 0d4c 6FF05FE9 		j	.L134
 2738              	.LVL202:
 2739              	.L144:
 2740              	.LBE168:
 2741              	.LBE167:
 2742              	.LBB169:
 2743              	.LBB164:
 123:src/kernel/riscv.cpp **** 
 2744              		.loc 1 123 13 is_stmt 1
 123:src/kernel/riscv.cpp **** 
 2745              		.loc 1 123 35 is_stmt 0
 2746 0d50 97070000 		la	a5,_ZN3TCB16timeSliceCounterE
 2746      83B70700 
 2747 0d58 23B00700 		sd	zero,0(a5)
 125:src/kernel/riscv.cpp **** 
 2748              		.loc 1 125 13 is_stmt 1
 2749              	.LVL203:
 127:src/kernel/riscv.cpp **** 
 2750              		.loc 1 127 13
 127:src/kernel/riscv.cpp **** 
 2751              		.loc 1 127 25 is_stmt 0
 2752 0d5c 93071000 		li	a5,1
 2753 0d60 2328F700 		sw	a5,16(a4)
 129:src/kernel/riscv.cpp ****         }
 2754              		.loc 1 129 13 is_stmt 1
 129:src/kernel/riscv.cpp ****         }
 2755              		.loc 1 129 26 is_stmt 0
 2756 0d64 97000000 		call	_ZN3TCB8dispatchEv@plt
 2756      E7800000 
 2757              	.LVL204:
 2758              	.LBE164:
 2759 0d6c 6FF01FFD 		j	.L135
 2760              	.L142:
 2761              	.LBE169:
 2762              	.LBE156:
 2763              	.LBB170:
 2764              	.LBB141:
 141:src/kernel/riscv.cpp ****         uint64 volatile sepc = RiscV::r_sepc();
 2765              		.loc 1 141 9 is_stmt 1
 2766              	.LBB142:
 2767              	.LBB143:
 199:src/kernel/../../h/kernel/riscv.hpp ****     asm("csrr %[sstatus], sstatus" : [sstatus] "=r" (sstatus));
 2768              		.loc 2 199 5
 200:src/kernel/../../h/kernel/riscv.hpp ****     return sstatus;
 2769              		.loc 2 200 5
 200:src/kernel/../../h/kernel/riscv.hpp ****     return sstatus;
 2770              		.loc 2 200 63 is_stmt 0
 2771              	#APP
 2772              	# 200 "src/kernel/../../h/kernel/riscv.hpp" 1
 2773              		csrr a5, sstatus
 2774              	# 0 "" 2
GAS LISTING /tmp/ccxUk6vw.s 			page 77


 2775              	.LVL205:
 201:src/kernel/../../h/kernel/riscv.hpp **** }
 2776              		.loc 2 201 5 is_stmt 1
 2777              	#NO_APP
 2778              	.LBE143:
 2779              	.LBE142:
 141:src/kernel/riscv.cpp ****         uint64 volatile sepc = RiscV::r_sepc();
 2780              		.loc 1 141 52 is_stmt 0
 2781 0d74 233CF4FA 		sd	a5,-72(s0)
 142:src/kernel/riscv.cpp **** 
 2782              		.loc 1 142 9 is_stmt 1
 2783              	.LBB144:
 2784              	.LBB145:
 179:src/kernel/../../h/kernel/riscv.hpp ****     asm("csrr %[sepc], sepc" : [sepc] "=r" (sepc));
 2785              		.loc 2 179 5
 180:src/kernel/../../h/kernel/riscv.hpp ****     return sepc;
 2786              		.loc 2 180 5
 180:src/kernel/../../h/kernel/riscv.hpp ****     return sepc;
 2787              		.loc 2 180 51 is_stmt 0
 2788              	#APP
 2789              	# 180 "src/kernel/../../h/kernel/riscv.hpp" 1
 2790              		csrr a5, sepc
 2791              	# 0 "" 2
 2792              	.LVL206:
 181:src/kernel/../../h/kernel/riscv.hpp **** }
 2793              		.loc 2 181 5 is_stmt 1
 2794              	#NO_APP
 2795              	.LBE145:
 2796              	.LBE144:
 142:src/kernel/riscv.cpp **** 
 2797              		.loc 1 142 46 is_stmt 0
 2798 0d7c 2330F4FC 		sd	a5,-64(s0)
 145:src/kernel/riscv.cpp ****         asm("mv a0, %[status]" : : [status] "r" (status));
 2799              		.loc 1 145 9 is_stmt 1
 145:src/kernel/riscv.cpp ****         asm("mv a0, %[status]" : : [status] "r" (status));
 2800              		.loc 1 145 16 is_stmt 0
 2801 0d80 97070000 		la	a5,CONSOLE_STATUS
 2801      83B70700 
 2802 0d88 83B70700 		ld	a5,0(a5)
 2803              	.LVL207:
 146:src/kernel/riscv.cpp ****         asm("lb a1, 0(a0)");
 2804              		.loc 1 146 9 is_stmt 1
 146:src/kernel/riscv.cpp ****         asm("lb a1, 0(a0)");
 2805              		.loc 1 146 58 is_stmt 0
 2806              	#APP
 2807              	# 146 "src/kernel/riscv.cpp" 1
 147:src/kernel/riscv.cpp ****         asm("mv %[status], a1" : [status] "=r" (status));
 2808              		mv a0, a5
 2809              	# 0 "" 2
 2810              		.loc 1 147 9 is_stmt 1
 147:src/kernel/riscv.cpp ****         asm("mv %[status], a1" : [status] "=r" (status));
 2811              		.loc 1 147 28 is_stmt 0
 2812              	# 147 "src/kernel/riscv.cpp" 1
 148:src/kernel/riscv.cpp **** 
 2813              		lb a1, 0(a0)
 2814              	# 0 "" 2
 2815              		.loc 1 148 9 is_stmt 1
GAS LISTING /tmp/ccxUk6vw.s 			page 78


 148:src/kernel/riscv.cpp **** 
 2816              		.loc 1 148 57 is_stmt 0
 2817              	# 148 "src/kernel/riscv.cpp" 1
 2818              		mv a5, a1
 2819              	# 0 "" 2
 2820              	.LVL208:
 151:src/kernel/riscv.cpp ****         {
 2821              		.loc 1 151 9 is_stmt 1
 2822              	#NO_APP
 2823              	.LBB146:
 151:src/kernel/riscv.cpp ****         {
 2824              		.loc 1 151 19 is_stmt 0
 2825 0d98 93F71700 		andi	a5,a5,1
 2826              	.LVL209:
 151:src/kernel/riscv.cpp ****         {
 2827              		.loc 1 151 9
 2828 0d9c 63880702 		beqz	a5,.L137
 2829              	.LBB147:
 154:src/kernel/riscv.cpp ****             char c;
 2830              		.loc 1 154 13 is_stmt 1
 155:src/kernel/riscv.cpp ****             data = CONSOLE_TX_DATA;
 2831              		.loc 1 155 13
 156:src/kernel/riscv.cpp ****             asm("mv a0, %[data]" : : [data] "r" (data));
 2832              		.loc 1 156 13
 156:src/kernel/riscv.cpp ****             asm("mv a0, %[data]" : : [data] "r" (data));
 2833              		.loc 1 156 18 is_stmt 0
 2834 0da0 97070000 		la	a5,CONSOLE_TX_DATA
 2834      83B70700 
 2835 0da8 83B70700 		ld	a5,0(a5)
 2836              	.LVL210:
 157:src/kernel/riscv.cpp ****             asm("lb a1, 0(a0)");
 2837              		.loc 1 157 13 is_stmt 1
 157:src/kernel/riscv.cpp ****             asm("lb a1, 0(a0)");
 2838              		.loc 1 157 56 is_stmt 0
 2839              	#APP
 2840              	# 157 "src/kernel/riscv.cpp" 1
 158:src/kernel/riscv.cpp ****             asm("mv %[c], a1" : [c] "=r" (c));
 2841              		mv a0, a5
 2842              	# 0 "" 2
 2843              		.loc 1 158 13 is_stmt 1
 158:src/kernel/riscv.cpp ****             asm("mv %[c], a1" : [c] "=r" (c));
 2844              		.loc 1 158 32 is_stmt 0
 2845              	# 158 "src/kernel/riscv.cpp" 1
 159:src/kernel/riscv.cpp **** 
 2846              		lb a1, 0(a0)
 2847              	# 0 "" 2
 2848              		.loc 1 159 13 is_stmt 1
 159:src/kernel/riscv.cpp **** 
 2849              		.loc 1 159 46 is_stmt 0
 2850              	# 159 "src/kernel/riscv.cpp" 1
 2851              		mv a0, a1
 2852              	# 0 "" 2
 2853              	#NO_APP
 2854 0db8 1375F50F 		andi	a0,a0,0xff
 2855              	.LVL211:
 162:src/kernel/riscv.cpp ****                 ConsoleUtil::pendingGetc--;
 2856              		.loc 1 162 13 is_stmt 1
GAS LISTING /tmp/ccxUk6vw.s 			page 79


 162:src/kernel/riscv.cpp ****                 ConsoleUtil::pendingGetc--;
 2857              		.loc 1 162 40 is_stmt 0
 2858 0dbc 97070000 		la	a5,_ZN11ConsoleUtil11pendingGetcE
 2858      83B70700 
 2859              	.LVL212:
 2860 0dc4 83B70700 		ld	a5,0(a5)
 162:src/kernel/riscv.cpp ****                 ConsoleUtil::pendingGetc--;
 2861              		.loc 1 162 13
 2862 0dc8 63940702 		bnez	a5,.L145
 2863              	.LVL213:
 2864              	.L137:
 2865              	.LBE147:
 2866              	.LBE146:
 167:src/kernel/riscv.cpp **** 
 2867              		.loc 1 167 9 is_stmt 1
 167:src/kernel/riscv.cpp **** 
 2868              		.loc 1 167 22 is_stmt 0
 2869 0dcc 97000000 		call	plic_claim@plt
 2869      E7800000 
 2870              	.LVL214:
 2871 0dd4 97000000 		call	plic_complete@plt
 2871      E7800000 
 2872              	.LVL215:
 169:src/kernel/riscv.cpp ****         RiscV::w_sepc(sepc);
 2873              		.loc 1 169 9 is_stmt 1
 169:src/kernel/riscv.cpp ****         RiscV::w_sepc(sepc);
 2874              		.loc 1 169 25 is_stmt 0
 2875 0ddc 833784FB 		ld	a5,-72(s0)
 2876              	.LVL216:
 2877              	.LBB149:
 2878              	.LBB150:
 195:src/kernel/../../h/kernel/riscv.hpp **** }
 2879              		.loc 2 195 5 is_stmt 1
 195:src/kernel/../../h/kernel/riscv.hpp **** }
 2880              		.loc 2 195 64 is_stmt 0
 2881              	#APP
 2882              	# 195 "src/kernel/../../h/kernel/riscv.hpp" 1
 2883              		csrw sstatus, a5
 2884              	# 0 "" 2
 2885              	.LVL217:
 2886              	#NO_APP
 2887              	.LBE150:
 2888              	.LBE149:
 170:src/kernel/riscv.cpp ****     }
 2889              		.loc 1 170 9 is_stmt 1
 170:src/kernel/riscv.cpp ****     }
 2890              		.loc 1 170 22 is_stmt 0
 2891 0de4 833704FC 		ld	a5,-64(s0)
 2892              	.LVL218:
 2893              	.LBB151:
 2894              	.LBB152:
 185:src/kernel/../../h/kernel/riscv.hpp **** }
 2895              		.loc 2 185 5 is_stmt 1
 185:src/kernel/../../h/kernel/riscv.hpp **** }
 2896              		.loc 2 185 52 is_stmt 0
 2897              	#APP
 2898              	# 185 "src/kernel/../../h/kernel/riscv.hpp" 1
GAS LISTING /tmp/ccxUk6vw.s 			page 80


 186:src/kernel/../../h/kernel/riscv.hpp **** 
 2899              		csrw sepc, a5
 2900              	# 0 "" 2
 2901              		.loc 2 186 1
 2902              	#NO_APP
 2903 0dec 6FF05FDF 		j	.L134
 2904              	.LVL219:
 2905              	.L145:
 2906              	.LBE152:
 2907              	.LBE151:
 2908              	.LBB153:
 2909              	.LBB148:
 163:src/kernel/riscv.cpp ****                 ConsoleUtil::putInput(c);
 2910              		.loc 1 163 17 is_stmt 1
 163:src/kernel/riscv.cpp ****                 ConsoleUtil::putInput(c);
 2911              		.loc 1 163 41 is_stmt 0
 2912 0df0 9387F7FF 		addi	a5,a5,-1
 2913 0df4 17070000 		la	a4,_ZN11ConsoleUtil11pendingGetcE
 2913      03370700 
 2914 0dfc 2330F700 		sd	a5,0(a4)
 164:src/kernel/riscv.cpp ****             }
 2915              		.loc 1 164 17 is_stmt 1
 164:src/kernel/riscv.cpp ****             }
 2916              		.loc 1 164 38 is_stmt 0
 2917 0e00 97000000 		call	_ZN11ConsoleUtil8putInputEc@plt
 2917      E7800000 
 2918              	.LVL220:
 2919 0e08 6FF05FFC 		j	.L137
 2920              	.LVL221:
 2921              	.L143:
 2922              	.LBE148:
 2923              	.LBE153:
 2924              	.LBE141:
 2925              	.LBB154:
 2926              	.LBB138:
 175:src/kernel/riscv.cpp ****         old->status = TCB::Status::FINISHED;
 2927              		.loc 1 175 9 is_stmt 1
 175:src/kernel/riscv.cpp ****         old->status = TCB::Status::FINISHED;
 2928              		.loc 1 175 14 is_stmt 0
 2929 0e0c 97070000 		la	a5,_ZN3TCB7runningE
 2929      83B70700 
 2930 0e14 83B70700 		ld	a5,0(a5)
 2931              	.LVL222:
 176:src/kernel/riscv.cpp ****         ConsoleUtil::printString("sepc: ");
 2932              		.loc 1 176 9 is_stmt 1
 176:src/kernel/riscv.cpp ****         ConsoleUtil::printString("sepc: ");
 2933              		.loc 1 176 21 is_stmt 0
 2934 0e18 13072000 		li	a4,2
 2935 0e1c 23A8E700 		sw	a4,16(a5)
 177:src/kernel/riscv.cpp ****         uint64 sepc = RiscV::r_sepc();
 2936              		.loc 1 177 9 is_stmt 1
 177:src/kernel/riscv.cpp ****         uint64 sepc = RiscV::r_sepc();
 2937              		.loc 1 177 33 is_stmt 0
 2938 0e20 17050000 		lla	a0,.LC0
 2938      13050500 
 2939 0e28 97000000 		call	_ZN11ConsoleUtil11printStringEPKc@plt
 2939      E7800000 
GAS LISTING /tmp/ccxUk6vw.s 			page 81


 2940              	.LVL223:
 178:src/kernel/riscv.cpp ****         ConsoleUtil::printInt(sepc,16);
 2941              		.loc 1 178 9 is_stmt 1
 2942              	.LBB139:
 2943              	.LBB140:
 179:src/kernel/../../h/kernel/riscv.hpp ****     asm("csrr %[sepc], sepc" : [sepc] "=r" (sepc));
 2944              		.loc 2 179 5
 180:src/kernel/../../h/kernel/riscv.hpp ****     return sepc;
 2945              		.loc 2 180 5
 180:src/kernel/../../h/kernel/riscv.hpp ****     return sepc;
 2946              		.loc 2 180 51 is_stmt 0
 2947              	#APP
 2948              	# 180 "src/kernel/../../h/kernel/riscv.hpp" 1
 181:src/kernel/../../h/kernel/riscv.hpp **** }
 2949              		csrr a0, sepc
 2950              	# 0 "" 2
 2951              		.loc 2 181 5 is_stmt 1
 2952              	#NO_APP
 2953              	.LBE140:
 2954              	.LBE139:
 179:src/kernel/riscv.cpp ****         ConsoleUtil::printString("\n");
 2955              		.loc 1 179 9
 179:src/kernel/riscv.cpp ****         ConsoleUtil::printString("\n");
 2956              		.loc 1 179 30 is_stmt 0
 2957 0e34 13060000 		li	a2,0
 2958 0e38 93050001 		li	a1,16
 2959 0e3c 1B050500 		sext.w	a0,a0
 2960 0e40 97000000 		call	_ZN11ConsoleUtil8printIntEiii@plt
 2960      E7800000 
 2961              	.LVL224:
 180:src/kernel/riscv.cpp ****         ConsoleUtil::printString("Illegal instruction\nExiting thread...\n");
 2962              		.loc 1 180 9 is_stmt 1
 180:src/kernel/riscv.cpp ****         ConsoleUtil::printString("Illegal instruction\nExiting thread...\n");
 2963              		.loc 1 180 33 is_stmt 0
 2964 0e48 17050000 		lla	a0,.LC1
 2964      13050500 
 2965 0e50 97000000 		call	_ZN11ConsoleUtil11printStringEPKc@plt
 2965      E7800000 
 2966              	.LVL225:
 181:src/kernel/riscv.cpp ****         TCB::dispatch();
 2967              		.loc 1 181 9 is_stmt 1
 181:src/kernel/riscv.cpp ****         TCB::dispatch();
 2968              		.loc 1 181 33 is_stmt 0
 2969 0e58 17050000 		lla	a0,.LC2
 2969      13050500 
 2970 0e60 97000000 		call	_ZN11ConsoleUtil11printStringEPKc@plt
 2970      E7800000 
 2971              	.LVL226:
 182:src/kernel/riscv.cpp ****     }
 2972              		.loc 1 182 9 is_stmt 1
 182:src/kernel/riscv.cpp ****     }
 2973              		.loc 1 182 22 is_stmt 0
 2974 0e68 97000000 		call	_ZN3TCB8dispatchEv@plt
 2974      E7800000 
 2975              	.LVL227:
 2976              	.LBE138:
 2977 0e70 6FF01FD7 		j	.L134
GAS LISTING /tmp/ccxUk6vw.s 			page 82


 2978              	.LBE154:
 2979              	.LBE170:
 2980              	.LBE183:
 2981              	.LBE187:
 2982              		.cfi_endproc
 2983              	.LFE49:
 2985              		.align	2
 2986              		.globl	_ZN5RiscV16threadCreateUtilEPP3TCBPFvPvES3_
 2988              	_ZN5RiscV16threadCreateUtilEPP3TCBPFvPvES3_:
 2989              	.LFB73:
 714:src/kernel/riscv.cpp **** 
 715:src/kernel/riscv.cpp **** void RiscV::threadCreateUtil(TCB **handle, void (*start_routine)(void *), void *arg) {
 2990              		.loc 1 715 86 is_stmt 1
 2991              		.cfi_startproc
 2992              	.LVL228:
 2993 0e74 130101FD 		addi	sp,sp,-48
 2994              		.cfi_def_cfa_offset 48
 2995 0e78 23341102 		sd	ra,40(sp)
 2996 0e7c 23308102 		sd	s0,32(sp)
 2997 0e80 233C9100 		sd	s1,24(sp)
 2998 0e84 23382101 		sd	s2,16(sp)
 2999 0e88 23343101 		sd	s3,8(sp)
 3000              		.cfi_offset 1, -8
 3001              		.cfi_offset 8, -16
 3002              		.cfi_offset 9, -24
 3003              		.cfi_offset 18, -32
 3004              		.cfi_offset 19, -40
 3005 0e8c 13040103 		addi	s0,sp,48
 3006              		.cfi_def_cfa 8, 0
 3007 0e90 13090500 		mv	s2,a0
 3008 0e94 93840500 		mv	s1,a1
 3009 0e98 93090600 		mv	s3,a2
 716:src/kernel/riscv.cpp ****     uint64 ihandle = (uint64)handle;
 3010              		.loc 1 716 5
 3011              	.LVL229:
 717:src/kernel/riscv.cpp ****     uint64 iroutine = (uint64)start_routine;
 3012              		.loc 1 717 5
 718:src/kernel/riscv.cpp ****     uint64 iarg = (uint64)arg;
 3013              		.loc 1 718 5
 719:src/kernel/riscv.cpp ****     uint64 istack = 0;
 3014              		.loc 1 719 5
 720:src/kernel/riscv.cpp **** 
 721:src/kernel/riscv.cpp ****     if(start_routine) {
 3015              		.loc 1 721 5
 3016 0e9c 638E0500 		beqz	a1,.L149
 722:src/kernel/riscv.cpp ****         istack = (uint64) MemoryAllocator::kmalloc((DEFAULT_STACK_SIZE+MEM_BLOCK_SIZE-1)/MEM_BLOCK_
 3017              		.loc 1 722 9
 3018              		.loc 1 722 51 is_stmt 0
 3019 0ea0 13050004 		li	a0,64
 3020              	.LVL230:
 3021 0ea4 97000000 		call	_ZN15MemoryAllocator7kmallocEm@plt
 3021      E7800000 
 3022              	.LVL231:
 723:src/kernel/riscv.cpp ****         if(istack == 0) {
 3023              		.loc 1 723 9 is_stmt 1
 3024 0eac 63180500 		bnez	a0,.L147
 724:src/kernel/riscv.cpp ****             *handle = nullptr;
GAS LISTING /tmp/ccxUk6vw.s 			page 83


 3025              		.loc 1 724 13
 3026              		.loc 1 724 21 is_stmt 0
 3027 0eb0 23300900 		sd	zero,0(s2)
 725:src/kernel/riscv.cpp ****             return;
 3028              		.loc 1 725 13 is_stmt 1
 3029 0eb4 6F000002 		j	.L146
 3030              	.LVL232:
 3031              	.L149:
 719:src/kernel/riscv.cpp **** 
 3032              		.loc 1 719 12 is_stmt 0
 3033 0eb8 13050000 		li	a0,0
 3034              	.LVL233:
 3035              	.L147:
 726:src/kernel/riscv.cpp ****         }
 727:src/kernel/riscv.cpp ****     }
 728:src/kernel/riscv.cpp **** 
 729:src/kernel/riscv.cpp ****     asm("mv a7, %[istack]" : : [istack] "r" (istack));
 3036              		.loc 1 729 5 is_stmt 1
 3037              		.loc 1 729 54 is_stmt 0
 3038              	#APP
 3039              	# 729 "src/kernel/riscv.cpp" 1
 730              	    asm("mv a3, %[iarg]" : : [iarg] "r" (iarg));
 3040              		mv a7, a0
 3041              	# 0 "" 2
 3042              		.loc 1 730 5 is_stmt 1
 3043              		.loc 1 730 48 is_stmt 0
 3044              	# 730 "src/kernel/riscv.cpp" 1
 731              	    asm("mv a2, %[iroutine]" : : [iroutine] "r" (iroutine));
 3045              		mv a3, s3
 3046              	# 0 "" 2
 3047              		.loc 1 731 5 is_stmt 1
 3048              		.loc 1 731 60 is_stmt 0
 3049              	# 731 "src/kernel/riscv.cpp" 1
 732              	    asm("mv a1, %[ihandle]" : : [ihandle] "r" (ihandle));
 3050              		mv a2, s1
 3051              	# 0 "" 2
 3052              		.loc 1 732 5 is_stmt 1
 3053              		.loc 1 732 57 is_stmt 0
 3054              	# 732 "src/kernel/riscv.cpp" 1
 733              	    asm("li a0, 0x11");
 3055              		mv a1, s2
 3056              	# 0 "" 2
 3057              		.loc 1 733 5 is_stmt 1
 3058              		.loc 1 733 23 is_stmt 0
 3059              	# 733 "src/kernel/riscv.cpp" 1
 734              	
 735:src/kernel/riscv.cpp ****     asm("ecall");
 3060              		li a0, 0x11
 3061              	# 0 "" 2
 3062              		.loc 1 735 5 is_stmt 1
 3063              		.loc 1 735 17 is_stmt 0
 3064              	# 735 "src/kernel/riscv.cpp" 1
 736              	
 737:src/kernel/riscv.cpp ****     uint64 status;
 3065              		ecall
 3066              	# 0 "" 2
 3067              		.loc 1 737 5 is_stmt 1
GAS LISTING /tmp/ccxUk6vw.s 			page 84


 738:src/kernel/riscv.cpp **** 
 739:src/kernel/riscv.cpp ****     asm("mv %[status], a0" : [status] "=r" (status));
 3068              		.loc 1 739 5
 3069              	.LVL234:
 3070              	#NO_APP
 3071              	.L146:
 740:src/kernel/riscv.cpp **** 
 741:src/kernel/riscv.cpp **** }
 3072              		.loc 1 741 1 is_stmt 0
 3073 0ed4 83308102 		ld	ra,40(sp)
 3074              		.cfi_restore 1
 3075 0ed8 03340102 		ld	s0,32(sp)
 3076              		.cfi_restore 8
 3077              		.cfi_def_cfa 2, 48
 3078 0edc 83348101 		ld	s1,24(sp)
 3079              		.cfi_restore 9
 3080              	.LVL235:
 3081 0ee0 03390101 		ld	s2,16(sp)
 3082              		.cfi_restore 18
 3083              	.LVL236:
 3084 0ee4 83398100 		ld	s3,8(sp)
 3085              		.cfi_restore 19
 3086              	.LVL237:
 3087 0ee8 13010103 		addi	sp,sp,48
 3088              		.cfi_def_cfa_offset 0
 3089 0eec 67800000 		jr	ra
 3090              		.cfi_endproc
 3091              	.LFE73:
 3093              		.align	2
 3094              		.globl	_ZN5RiscV14threadExitUtilEv
 3096              	_ZN5RiscV14threadExitUtilEv:
 3097              	.LFB74:
 742:src/kernel/riscv.cpp **** 
 743:src/kernel/riscv.cpp **** void RiscV::threadExitUtil() {
 3098              		.loc 1 743 30 is_stmt 1
 3099              		.cfi_startproc
 3100 0ef0 130101FF 		addi	sp,sp,-16
 3101              		.cfi_def_cfa_offset 16
 3102 0ef4 23348100 		sd	s0,8(sp)
 3103              		.cfi_offset 8, -8
 3104 0ef8 13040101 		addi	s0,sp,16
 3105              		.cfi_def_cfa 8, 0
 744:src/kernel/riscv.cpp ****     asm("li a0, 0x12");
 3106              		.loc 1 744 5
 3107              		.loc 1 744 23 is_stmt 0
 3108              	#APP
 3109              	# 744 "src/kernel/riscv.cpp" 1
 745              	
 746:src/kernel/riscv.cpp ****     asm("ecall");
 3110              		li a0, 0x12
 3111              	# 0 "" 2
 3112              		.loc 1 746 5 is_stmt 1
 3113              		.loc 1 746 17 is_stmt 0
 3114              	# 746 "src/kernel/riscv.cpp" 1
 747              	
 748:src/kernel/riscv.cpp ****     uint64 status;
 3115              		ecall
GAS LISTING /tmp/ccxUk6vw.s 			page 85


 3116              	# 0 "" 2
 3117              		.loc 1 748 5 is_stmt 1
 749:src/kernel/riscv.cpp **** 
 750:src/kernel/riscv.cpp ****     asm("mv %[status], a0" : [status] "=r" (status));
 3118              		.loc 1 750 5
 3119              	.LVL238:
 751:src/kernel/riscv.cpp **** }
 3120              		.loc 1 751 1 is_stmt 0
 3121              	#NO_APP
 3122 0f04 03348100 		ld	s0,8(sp)
 3123              		.cfi_restore 8
 3124              		.cfi_def_cfa 2, 16
 3125 0f08 13010101 		addi	sp,sp,16
 3126              		.cfi_def_cfa_offset 0
 3127 0f0c 67800000 		jr	ra
 3128              		.cfi_endproc
 3129              	.LFE74:
 3131              		.align	2
 3132              		.globl	_ZN5RiscV18threadDispatchUtilEv
 3134              	_ZN5RiscV18threadDispatchUtilEv:
 3135              	.LFB75:
 752:src/kernel/riscv.cpp **** 
 753:src/kernel/riscv.cpp **** void RiscV::threadDispatchUtil() {
 3136              		.loc 1 753 34 is_stmt 1
 3137              		.cfi_startproc
 3138 0f10 130101FF 		addi	sp,sp,-16
 3139              		.cfi_def_cfa_offset 16
 3140 0f14 23348100 		sd	s0,8(sp)
 3141              		.cfi_offset 8, -8
 3142 0f18 13040101 		addi	s0,sp,16
 3143              		.cfi_def_cfa 8, 0
 754:src/kernel/riscv.cpp ****     asm("li a0, 0x13");
 3144              		.loc 1 754 5
 3145              		.loc 1 754 23 is_stmt 0
 3146              	#APP
 3147              	# 754 "src/kernel/riscv.cpp" 1
 755              	
 756:src/kernel/riscv.cpp ****     asm("ecall");
 3148              		li a0, 0x13
 3149              	# 0 "" 2
 3150              		.loc 1 756 5 is_stmt 1
 3151              		.loc 1 756 17 is_stmt 0
 3152              	# 756 "src/kernel/riscv.cpp" 1
 757              	}
 3153              		ecall
 3154              	# 0 "" 2
 3155              		.loc 1 757 1
 3156              	#NO_APP
 3157 0f24 03348100 		ld	s0,8(sp)
 3158              		.cfi_restore 8
 3159              		.cfi_def_cfa 2, 16
 3160 0f28 13010101 		addi	sp,sp,16
 3161              		.cfi_def_cfa_offset 0
 3162 0f2c 67800000 		jr	ra
 3163              		.cfi_endproc
 3164              	.LFE75:
 3166              		.align	2
GAS LISTING /tmp/ccxUk6vw.s 			page 86


 3167              		.globl	_ZN5RiscV11putcWrapperEPv
 3169              	_ZN5RiscV11putcWrapperEPv:
 3170              	.LFB64:
 521:src/kernel/riscv.cpp ****     while(true)
 3171              		.loc 1 521 1 is_stmt 1
 3172              		.cfi_startproc
 3173              	.LVL239:
 3174 0f30 130101FE 		addi	sp,sp,-32
 3175              		.cfi_def_cfa_offset 32
 3176 0f34 233C1100 		sd	ra,24(sp)
 3177 0f38 23388100 		sd	s0,16(sp)
 3178              		.cfi_offset 1, -8
 3179              		.cfi_offset 8, -16
 3180 0f3c 13040102 		addi	s0,sp,32
 3181              		.cfi_def_cfa 8, 0
 3182 0f40 6F00C000 		j	.L156
 3183              	.LVL240:
 3184              	.L157:
 3185              	.LBB188:
 3186              	.LBB189:
 545:src/kernel/riscv.cpp ****     }
 3187              		.loc 1 545 13
 545:src/kernel/riscv.cpp ****     }
 3188              		.loc 1 545 38 is_stmt 0
 3189 0f44 97000000 		call	_ZN5RiscV18threadDispatchUtilEv
 3189      E7800000 
 3190              	.LVL241:
 3191              	.L156:
 3192              	.LBE189:
 3193              	.LBE188:
 522:src/kernel/riscv.cpp ****     {
 3194              		.loc 1 522 5 is_stmt 1
 3195              	.LBB192:
 525:src/kernel/riscv.cpp ****         asm("mv a0, %[status]" : : [status] "r" (status));
 3196              		.loc 1 525 9
 525:src/kernel/riscv.cpp ****         asm("mv a0, %[status]" : : [status] "r" (status));
 3197              		.loc 1 525 16 is_stmt 0
 3198 0f4c 97070000 		la	a5,CONSOLE_STATUS
 3198      83B70700 
 3199 0f54 83B70700 		ld	a5,0(a5)
 3200              	.LVL242:
 526:src/kernel/riscv.cpp ****         asm("lb a1, 0(a0)");
 3201              		.loc 1 526 9 is_stmt 1
 526:src/kernel/riscv.cpp ****         asm("lb a1, 0(a0)");
 3202              		.loc 1 526 58 is_stmt 0
 3203              	#APP
 3204              	# 526 "src/kernel/riscv.cpp" 1
 527:src/kernel/riscv.cpp ****         asm("mv %[status], a1" : [status] "=r" (status));
 3205              		mv a0, a5
 3206              	# 0 "" 2
 3207              		.loc 1 527 9 is_stmt 1
 527:src/kernel/riscv.cpp ****         asm("mv %[status], a1" : [status] "=r" (status));
 3208              		.loc 1 527 28 is_stmt 0
 3209              	# 527 "src/kernel/riscv.cpp" 1
 528:src/kernel/riscv.cpp **** 
 3210              		lb a1, 0(a0)
 3211              	# 0 "" 2
GAS LISTING /tmp/ccxUk6vw.s 			page 87


 3212              		.loc 1 528 9 is_stmt 1
 528:src/kernel/riscv.cpp **** 
 3213              		.loc 1 528 57 is_stmt 0
 3214              	# 528 "src/kernel/riscv.cpp" 1
 3215              		mv a5, a1
 3216              	# 0 "" 2
 3217              	.LVL243:
 531:src/kernel/riscv.cpp **** 
 3218              		.loc 1 531 9 is_stmt 1
 3219              	#NO_APP
 3220              	.LBB191:
 531:src/kernel/riscv.cpp **** 
 3221              		.loc 1 531 19 is_stmt 0
 3222 0f64 93F70702 		andi	a5,a5,32
 3223              	.LVL244:
 531:src/kernel/riscv.cpp **** 
 3224              		.loc 1 531 9
 3225 0f68 E38E07FC 		beqz	a5,.L157
 3226              	.LBB190:
 534:src/kernel/riscv.cpp ****                 uint64 data = CONSOLE_RX_DATA;
 3227              		.loc 1 534 17 is_stmt 1
 534:src/kernel/riscv.cpp ****                 uint64 data = CONSOLE_RX_DATA;
 3228              		.loc 1 534 63 is_stmt 0
 3229 0f6c 97000000 		call	_ZN11ConsoleUtil15putcUtilSyscallEv@plt
 3229      E7800000 
 3230              	.LVL245:
 534:src/kernel/riscv.cpp ****                 uint64 data = CONSOLE_RX_DATA;
 3231              		.loc 1 534 64
 3232 0f74 A307A4FE 		sb	a0,-17(s0)
 535:src/kernel/riscv.cpp ****                 asm("mv a0, %[data]" : : [data] "r"(data));
 3233              		.loc 1 535 17 is_stmt 1
 535:src/kernel/riscv.cpp ****                 asm("mv a0, %[data]" : : [data] "r"(data));
 3234              		.loc 1 535 24 is_stmt 0
 3235 0f78 97070000 		la	a5,CONSOLE_RX_DATA
 3235      83B70700 
 3236 0f80 83B70700 		ld	a5,0(a5)
 3237              	.LVL246:
 536:src/kernel/riscv.cpp ****                 asm("mv a1, %[c]" : : [c] "r"(c));
 3238              		.loc 1 536 17 is_stmt 1
 536:src/kernel/riscv.cpp ****                 asm("mv a1, %[c]" : : [c] "r"(c));
 3239              		.loc 1 536 59 is_stmt 0
 3240              	#APP
 3241              	# 536 "src/kernel/riscv.cpp" 1
 537:src/kernel/riscv.cpp ****                 asm("sb a1,0(a0)");
 3242              		mv a0, a5
 3243              	# 0 "" 2
 3244              		.loc 1 537 17 is_stmt 1
 537:src/kernel/riscv.cpp ****                 asm("sb a1,0(a0)");
 3245              		.loc 1 537 47 is_stmt 0
 3246              	#NO_APP
 3247 0f88 8347F4FE 		lbu	a5,-17(s0)
 3248              	.LVL247:
 537:src/kernel/riscv.cpp ****                 asm("sb a1,0(a0)");
 3249              		.loc 1 537 50
 3250              	#APP
 3251              	# 537 "src/kernel/riscv.cpp" 1
 538:src/kernel/riscv.cpp **** 
GAS LISTING /tmp/ccxUk6vw.s 			page 88


 3252              		mv a1, a5
 3253              	# 0 "" 2
 3254              		.loc 1 538 17 is_stmt 1
 538:src/kernel/riscv.cpp **** 
 3255              		.loc 1 538 35 is_stmt 0
 3256              	# 538 "src/kernel/riscv.cpp" 1
 541:src/kernel/riscv.cpp ****                 ConsoleUtil::pendingPutc--;
 3257              		sb a1,0(a0)
 3258              	# 0 "" 2
 3259              		.loc 1 541 13 is_stmt 1
 541:src/kernel/riscv.cpp ****                 ConsoleUtil::pendingPutc--;
 3260              		.loc 1 541 40 is_stmt 0
 3261              	#NO_APP
 3262 0f94 97070000 		la	a5,_ZN11ConsoleUtil11pendingPutcE
 3262      83B70700 
 3263 0f9c 83B70700 		ld	a5,0(a5)
 541:src/kernel/riscv.cpp ****                 ConsoleUtil::pendingPutc--;
 3264              		.loc 1 541 13
 3265 0fa0 E38607FA 		beqz	a5,.L156
 542:src/kernel/riscv.cpp ****         }
 3266              		.loc 1 542 17 is_stmt 1
 542:src/kernel/riscv.cpp ****         }
 3267              		.loc 1 542 41 is_stmt 0
 3268 0fa4 9387F7FF 		addi	a5,a5,-1
 3269 0fa8 17070000 		la	a4,_ZN11ConsoleUtil11pendingPutcE
 3269      03370700 
 3270 0fb0 2330F700 		sd	a5,0(a4)
 3271 0fb4 6FF09FF9 		j	.L156
 3272              	.LBE190:
 3273              	.LBE191:
 3274              	.LBE192:
 3275              		.cfi_endproc
 3276              	.LFE64:
 3278              		.align	2
 3279              		.globl	_ZN5RiscV6getPMTEv
 3281              	_ZN5RiscV6getPMTEv:
 3282              	.LFB79:
 758:src/kernel/riscv.cpp **** 
 759:src/kernel/riscv.cpp **** void RiscV::buildSection(void *PMT, uint64 start, uint64 end, uint64 mask) {
 760:src/kernel/riscv.cpp ****     for(uint64 i=start;i< end;i+=0x1000) {
 761:src/kernel/riscv.cpp ****         handlePageFault(PMT,i, mask);
 762:src/kernel/riscv.cpp ****     }
 763:src/kernel/riscv.cpp **** }
 764:src/kernel/riscv.cpp **** 
 765:src/kernel/riscv.cpp **** void RiscV::buildKernelPMT() {
 766:src/kernel/riscv.cpp ****     RiscV::kPMT = RiscV::getPMT();
 767:src/kernel/riscv.cpp ****     uint64 bEnd = ((uint64)Buddy::BUDDY_START_ADDR + (Buddy::BLOCKS_AVAILABLE<<12));
 768:src/kernel/riscv.cpp **** 
 769:src/kernel/riscv.cpp **** 
 770:src/kernel/riscv.cpp ****     RiscV::buildSection(kPMT, OS_ENTRY, KERNEL_TEXT_END, 0xb);
 771:src/kernel/riscv.cpp ****     RiscV::buildSection(kPMT, KERNEL_TEXT_END, USER_TEXT_START, 0x7);
 772:src/kernel/riscv.cpp ****     RiscV::buildSection(kPMT, USER_TEXT_START, USER_DATA_START, 0x1b);
 773:src/kernel/riscv.cpp ****     RiscV::buildSection(kPMT, USER_DATA_START, USER_DATA_END, 0x17);
 774:src/kernel/riscv.cpp ****     RiscV::buildSection(kPMT, USER_DATA_END, bEnd, 0x7);
 775:src/kernel/riscv.cpp ****     RiscV::buildSection(kPMT, bEnd, HEAP_END, 0x17);
 776:src/kernel/riscv.cpp **** 
 777:src/kernel/riscv.cpp ****     RiscV::mapConsoleRegisters(kPMT);
GAS LISTING /tmp/ccxUk6vw.s 			page 89


 778:src/kernel/riscv.cpp ****     RiscV::ms_sstatus(1<<18);
 779:src/kernel/riscv.cpp **** }
 780:src/kernel/riscv.cpp **** 
 781:src/kernel/riscv.cpp **** void RiscV::buildUserPMT() {
 782:src/kernel/riscv.cpp ****     RiscV::uPMT = RiscV::getPMT();
 783:src/kernel/riscv.cpp ****     uint64 bEnd = ((uint64)Buddy::BUDDY_START_ADDR + (Buddy::BLOCKS_AVAILABLE<<12));
 784:src/kernel/riscv.cpp **** 
 785:src/kernel/riscv.cpp **** 
 786:src/kernel/riscv.cpp ****     RiscV::buildSection(uPMT, OS_ENTRY, KERNEL_TEXT_END, 0xb);
 787:src/kernel/riscv.cpp ****     RiscV::buildSection(uPMT, KERNEL_TEXT_END, USER_TEXT_START, 0x7);
 788:src/kernel/riscv.cpp ****     RiscV::buildSection(uPMT, USER_TEXT_START, USER_DATA_START, 0x1b);
 789:src/kernel/riscv.cpp ****     RiscV::buildSection(uPMT, USER_DATA_START, USER_DATA_END, 0x17);
 790:src/kernel/riscv.cpp ****     RiscV::buildSection(uPMT, USER_DATA_END, bEnd, 0x7);
 791:src/kernel/riscv.cpp ****     RiscV::buildSection(uPMT, bEnd, HEAP_END, 0x17);
 792:src/kernel/riscv.cpp **** 
 793:src/kernel/riscv.cpp ****     RiscV::mapConsoleRegisters(uPMT);
 794:src/kernel/riscv.cpp ****     RiscV::ms_sstatus(1<<18);
 795:src/kernel/riscv.cpp **** }
 796:src/kernel/riscv.cpp **** 
 797:src/kernel/riscv.cpp **** void* RiscV::getPMT(){
 3283              		.loc 1 797 22 is_stmt 1
 3284              		.cfi_startproc
 3285 0fb8 130101FF 		addi	sp,sp,-16
 3286              		.cfi_def_cfa_offset 16
 3287 0fbc 23341100 		sd	ra,8(sp)
 3288 0fc0 23308100 		sd	s0,0(sp)
 3289              		.cfi_offset 1, -8
 3290              		.cfi_offset 8, -16
 3291 0fc4 13040101 		addi	s0,sp,16
 3292              		.cfi_def_cfa 8, 0
 798:src/kernel/riscv.cpp ****     void* ret = Buddy::alloc(1);
 3293              		.loc 1 798 5
 3294              		.loc 1 798 29 is_stmt 0
 3295 0fc8 13051000 		li	a0,1
 3296 0fcc 97000000 		call	_ZN5Buddy5allocEm@plt
 3296      E7800000 
 3297              	.LVL248:
 799:src/kernel/riscv.cpp ****     uint64* arr = (uint64*)ret;
 3298              		.loc 1 799 5 is_stmt 1
 800:src/kernel/riscv.cpp ****     for(int i=0;i<512;i++)
 3299              		.loc 1 800 5
 3300              	.LBB193:
 3301              		.loc 1 800 13 is_stmt 0
 3302 0fd4 93070000 		li	a5,0
 3303              	.LVL249:
 3304              	.L162:
 3305              		.loc 1 800 18 is_stmt 1 discriminator 3
 3306 0fd8 1307F01F 		li	a4,511
 3307 0fdc 634CF700 		bgt	a5,a4,.L160
 801:src/kernel/riscv.cpp ****         arr[i] = 0;
 3308              		.loc 1 801 9 discriminator 2
 3309              		.loc 1 801 14 is_stmt 0 discriminator 2
 3310 0fe0 13973700 		slli	a4,a5,3
 3311 0fe4 3307E500 		add	a4,a0,a4
 3312              		.loc 1 801 16 discriminator 2
 3313 0fe8 23300700 		sd	zero,0(a4)
 800:src/kernel/riscv.cpp ****     for(int i=0;i<512;i++)
GAS LISTING /tmp/ccxUk6vw.s 			page 90


 3314              		.loc 1 800 5 is_stmt 1 discriminator 2
 3315 0fec 9B871700 		addiw	a5,a5,1
 3316              	.LVL250:
 3317 0ff0 6FF09FFE 		j	.L162
 3318              	.LVL251:
 3319              	.L160:
 3320              	.LBE193:
 802:src/kernel/riscv.cpp ****     return ret;
 803:src/kernel/riscv.cpp **** }
 3321              		.loc 1 803 1 is_stmt 0
 3322 0ff4 83308100 		ld	ra,8(sp)
 3323              		.cfi_restore 1
 3324 0ff8 03340100 		ld	s0,0(sp)
 3325              		.cfi_restore 8
 3326              		.cfi_def_cfa 2, 16
 3327 0ffc 13010101 		addi	sp,sp,16
 3328              		.cfi_def_cfa_offset 0
 3329 1000 67800000 		jr	ra
 3330              		.cfi_endproc
 3331              	.LFE79:
 3333              		.align	2
 3334              		.globl	_ZN5RiscV15handlePageFaultEPvmm
 3336              	_ZN5RiscV15handlePageFaultEPvmm:
 3337              	.LFB80:
 804:src/kernel/riscv.cpp **** 
 805:src/kernel/riscv.cpp **** void RiscV::handlePageFault(void* PMT, uint64 addr, uint64 mask){
 3338              		.loc 1 805 65 is_stmt 1
 3339              		.cfi_startproc
 3340              	.LVL252:
 3341 1004 130101FC 		addi	sp,sp,-64
 3342              		.cfi_def_cfa_offset 64
 3343 1008 233C1102 		sd	ra,56(sp)
 3344 100c 23388102 		sd	s0,48(sp)
 3345 1010 23349102 		sd	s1,40(sp)
 3346 1014 23302103 		sd	s2,32(sp)
 3347 1018 233C3101 		sd	s3,24(sp)
 3348 101c 23384101 		sd	s4,16(sp)
 3349 1020 23345101 		sd	s5,8(sp)
 3350              		.cfi_offset 1, -8
 3351              		.cfi_offset 8, -16
 3352              		.cfi_offset 9, -24
 3353              		.cfi_offset 18, -32
 3354              		.cfi_offset 19, -40
 3355              		.cfi_offset 20, -48
 3356              		.cfi_offset 21, -56
 3357 1024 13040104 		addi	s0,sp,64
 3358              		.cfi_def_cfa 8, 0
 3359 1028 93090600 		mv	s3,a2
 806:src/kernel/riscv.cpp ****     uint64 pmt2Entry = RiscV::getPMT2Entry(addr);
 3360              		.loc 1 806 5
 3361              	.LVL253:
 3362              	.LBB194:
 3363              	.LBB195:
 261:src/kernel/../../h/kernel/riscv.hpp **** }
 262:src/kernel/../../h/kernel/riscv.hpp **** 
 263:src/kernel/../../h/kernel/riscv.hpp **** inline void RiscV::startVirtualMemory(void* PMT) {
 264:src/kernel/../../h/kernel/riscv.hpp ****     uint64 satp = ((uint64)1<<63) | ((uint64)(PMT)>>12);
GAS LISTING /tmp/ccxUk6vw.s 			page 91


 265:src/kernel/../../h/kernel/riscv.hpp ****     asm("csrw satp, %[satp]" : : [satp] "r" (satp));
 266:src/kernel/../../h/kernel/riscv.hpp **** }
 267:src/kernel/../../h/kernel/riscv.hpp **** 
 268:src/kernel/../../h/kernel/riscv.hpp **** inline void RiscV::shutVirtualMemory() {
 269:src/kernel/../../h/kernel/riscv.hpp ****     uint64 satp = 0;
 270:src/kernel/../../h/kernel/riscv.hpp ****     asm("csrw satp, %[satp]" : : [satp] "r" (satp));
 271:src/kernel/../../h/kernel/riscv.hpp **** }
 272:src/kernel/../../h/kernel/riscv.hpp **** 
 273:src/kernel/../../h/kernel/riscv.hpp **** inline uint64 RiscV::getPMT2Entry(uint64 addr) {
 274:src/kernel/../../h/kernel/riscv.hpp ****     return (addr >> 30) & (0x1ff);
 3364              		.loc 2 274 5
 3365              		.loc 2 274 18 is_stmt 0
 3366 102c 93D7E501 		srli	a5,a1,30
 3367              		.loc 2 274 33
 3368 1030 93F7F71F 		andi	a5,a5,511
 3369              	.LVL254:
 3370              	.LBE195:
 3371              	.LBE194:
 807:src/kernel/riscv.cpp ****     uint64 pmt1Entry = RiscV::getPMT1Entry(addr);
 3372              		.loc 1 807 5 is_stmt 1
 3373              	.LBB196:
 3374              	.LBB197:
 275:src/kernel/../../h/kernel/riscv.hpp **** }
 276:src/kernel/../../h/kernel/riscv.hpp **** 
 277:src/kernel/../../h/kernel/riscv.hpp **** inline uint64 RiscV::getPMT1Entry(uint64 addr) {
 278:src/kernel/../../h/kernel/riscv.hpp ****     return (addr >> 21) & (0x1ff);
 3375              		.loc 2 278 5
 3376              		.loc 2 278 18 is_stmt 0
 3377 1034 13D95501 		srli	s2,a1,21
 3378              		.loc 2 278 33
 3379 1038 1379F91F 		andi	s2,s2,511
 3380              	.LVL255:
 3381              	.LBE197:
 3382              	.LBE196:
 808:src/kernel/riscv.cpp ****     uint64 pmt0Entry = RiscV::getPMT0Entry(addr);
 3383              		.loc 1 808 5 is_stmt 1
 3384              	.LBB198:
 3385              	.LBB199:
 279:src/kernel/../../h/kernel/riscv.hpp **** }
 280:src/kernel/../../h/kernel/riscv.hpp **** 
 281:src/kernel/../../h/kernel/riscv.hpp **** inline uint64 RiscV::getPMT0Entry(uint64 addr) {
 282:src/kernel/../../h/kernel/riscv.hpp ****     return (addr >> 12) & (0x1ff);
 3386              		.loc 2 282 5
 3387              		.loc 2 282 18 is_stmt 0
 3388 103c 93D4C500 		srli	s1,a1,12
 3389              		.loc 2 282 33
 3390 1040 13FAF41F 		andi	s4,s1,511
 3391              	.LVL256:
 3392              	.LBE199:
 3393              	.LBE198:
 809:src/kernel/riscv.cpp ****     uint64 pmt2Desc = ((uint64*)PMT)[pmt2Entry];
 3394              		.loc 1 809 5 is_stmt 1
 3395              		.loc 1 809 47 is_stmt 0
 3396 1044 93973700 		slli	a5,a5,3
 3397              	.LVL257:
 3398 1048 B30AF500 		add	s5,a0,a5
 3399              		.loc 1 809 12
GAS LISTING /tmp/ccxUk6vw.s 			page 92


 3400 104c 83B70A00 		ld	a5,0(s5)
 3401              	.LVL258:
 810:src/kernel/riscv.cpp ****     void* pmt1 = nullptr;
 3402              		.loc 1 810 5 is_stmt 1
 811:src/kernel/riscv.cpp ****     if(pmt2Desc == 0){
 3403              		.loc 1 811 5
 3404              	.LBB200:
 3405 1050 638E0704 		beqz	a5,.L170
 812:src/kernel/riscv.cpp ****         pmt1 = RiscV::getPMT();
 813:src/kernel/riscv.cpp ****         uint64 frame = (uint64)pmt1 >> 12;
 814:src/kernel/riscv.cpp ****         ((uint64*)PMT)[pmt2Entry] = (frame << 10) | (uint64)1;
 815:src/kernel/riscv.cpp ****     }
 816:src/kernel/riscv.cpp ****     else
 817:src/kernel/riscv.cpp ****         pmt1 = (void*)((pmt2Desc >> 10) << 12);
 3406              		.loc 1 817 9
 3407              		.loc 1 817 34 is_stmt 0
 3408 1054 13D5A700 		srli	a0,a5,10
 3409              	.LVL259:
 3410              		.loc 1 817 41
 3411 1058 1315C500 		slli	a0,a0,12
 3412              	.LVL260:
 3413              	.L166:
 3414              	.LBE200:
 818:src/kernel/riscv.cpp ****     uint64 pmt1Desc = ((uint64*)pmt1)[pmt1Entry];
 3415              		.loc 1 818 5 is_stmt 1
 3416              		.loc 1 818 48 is_stmt 0
 3417 105c 13193900 		slli	s2,s2,3
 3418              	.LVL261:
 3419 1060 33092501 		add	s2,a0,s2
 3420              		.loc 1 818 12
 3421 1064 03350900 		ld	a0,0(s2)
 3422              	.LVL262:
 819:src/kernel/riscv.cpp ****     void* pmt0 = nullptr;
 3423              		.loc 1 819 5 is_stmt 1
 820:src/kernel/riscv.cpp ****     if(pmt1Desc == 0){
 3424              		.loc 1 820 5
 3425              	.LBB202:
 3426 1068 63000506 		beqz	a0,.L171
 821:src/kernel/riscv.cpp ****         pmt0 = RiscV::getPMT();
 822:src/kernel/riscv.cpp ****         uint64 frame = (uint64)pmt0 >> 12;
 823:src/kernel/riscv.cpp ****         ((uint64*)pmt1)[pmt1Entry] = (frame << 10) | (uint64)1;
 824:src/kernel/riscv.cpp ****     }
 825:src/kernel/riscv.cpp ****     else
 826:src/kernel/riscv.cpp ****         pmt0 = (void*)((pmt1Desc >> 10) << 12);
 3427              		.loc 1 826 9
 3428              		.loc 1 826 34 is_stmt 0
 3429 106c 1355A500 		srli	a0,a0,10
 3430              	.LVL263:
 3431              		.loc 1 826 41
 3432 1070 1315C500 		slli	a0,a0,12
 3433              	.LVL264:
 3434              	.L168:
 3435              	.LBE202:
 827:src/kernel/riscv.cpp ****     uint64 frame = addr >> 12;
 3436              		.loc 1 827 5 is_stmt 1
 828:src/kernel/riscv.cpp ****     ((uint64 *) pmt0)[pmt0Entry] = (frame << 10) | mask;
 3437              		.loc 1 828 5
GAS LISTING /tmp/ccxUk6vw.s 			page 93


 3438              		.loc 1 828 43 is_stmt 0
 3439 1074 9394A400 		slli	s1,s1,10
 3440              	.LVL265:
 3441              		.loc 1 828 32
 3442 1078 131A3A00 		slli	s4,s4,3
 3443              	.LVL266:
 3444 107c 33054501 		add	a0,a0,s4
 3445              	.LVL267:
 3446              		.loc 1 828 50
 3447 1080 B3E93401 		or	s3,s1,s3
 3448              	.LVL268:
 3449              		.loc 1 828 34
 3450 1084 23303501 		sd	s3,0(a0)
 829:src/kernel/riscv.cpp **** }
 3451              		.loc 1 829 1
 3452 1088 83308103 		ld	ra,56(sp)
 3453              		.cfi_remember_state
 3454              		.cfi_restore 1
 3455 108c 03340103 		ld	s0,48(sp)
 3456              		.cfi_restore 8
 3457              		.cfi_def_cfa 2, 64
 3458 1090 83348102 		ld	s1,40(sp)
 3459              		.cfi_restore 9
 3460 1094 03390102 		ld	s2,32(sp)
 3461              		.cfi_restore 18
 3462 1098 83398101 		ld	s3,24(sp)
 3463              		.cfi_restore 19
 3464 109c 033A0101 		ld	s4,16(sp)
 3465              		.cfi_restore 20
 3466 10a0 833A8100 		ld	s5,8(sp)
 3467              		.cfi_restore 21
 3468 10a4 13010104 		addi	sp,sp,64
 3469              		.cfi_def_cfa_offset 0
 3470 10a8 67800000 		jr	ra
 3471              	.LVL269:
 3472              	.L170:
 3473              		.cfi_restore_state
 3474              	.LBB204:
 3475              	.LBB201:
 812:src/kernel/riscv.cpp ****         uint64 frame = (uint64)pmt1 >> 12;
 3476              		.loc 1 812 9 is_stmt 1
 812:src/kernel/riscv.cpp ****         uint64 frame = (uint64)pmt1 >> 12;
 3477              		.loc 1 812 29 is_stmt 0
 3478 10ac 97000000 		call	_ZN5RiscV6getPMTEv
 3478      E7800000 
 3479              	.LVL270:
 813:src/kernel/riscv.cpp ****         ((uint64*)PMT)[pmt2Entry] = (frame << 10) | (uint64)1;
 3480              		.loc 1 813 9 is_stmt 1
 813:src/kernel/riscv.cpp ****         ((uint64*)PMT)[pmt2Entry] = (frame << 10) | (uint64)1;
 3481              		.loc 1 813 16 is_stmt 0
 3482 10b4 9357C500 		srli	a5,a0,12
 3483              	.LVL271:
 814:src/kernel/riscv.cpp ****     }
 3484              		.loc 1 814 9 is_stmt 1
 814:src/kernel/riscv.cpp ****     }
 3485              		.loc 1 814 44 is_stmt 0
 3486 10b8 9397A700 		slli	a5,a5,10
GAS LISTING /tmp/ccxUk6vw.s 			page 94


 3487              	.LVL272:
 814:src/kernel/riscv.cpp ****     }
 3488              		.loc 1 814 51
 3489 10bc 93E71700 		ori	a5,a5,1
 814:src/kernel/riscv.cpp ****     }
 3490              		.loc 1 814 35
 3491 10c0 23B0FA00 		sd	a5,0(s5)
 3492              	.LBE201:
 3493 10c4 6FF09FF9 		j	.L166
 3494              	.LVL273:
 3495              	.L171:
 3496              	.LBE204:
 3497              	.LBB205:
 3498              	.LBB203:
 821:src/kernel/riscv.cpp ****         uint64 frame = (uint64)pmt0 >> 12;
 3499              		.loc 1 821 9 is_stmt 1
 821:src/kernel/riscv.cpp ****         uint64 frame = (uint64)pmt0 >> 12;
 3500              		.loc 1 821 29 is_stmt 0
 3501 10c8 97000000 		call	_ZN5RiscV6getPMTEv
 3501      E7800000 
 3502              	.LVL274:
 822:src/kernel/riscv.cpp ****         ((uint64*)pmt1)[pmt1Entry] = (frame << 10) | (uint64)1;
 3503              		.loc 1 822 9 is_stmt 1
 822:src/kernel/riscv.cpp ****         ((uint64*)pmt1)[pmt1Entry] = (frame << 10) | (uint64)1;
 3504              		.loc 1 822 16 is_stmt 0
 3505 10d0 9357C500 		srli	a5,a0,12
 3506              	.LVL275:
 823:src/kernel/riscv.cpp ****     }
 3507              		.loc 1 823 9 is_stmt 1
 823:src/kernel/riscv.cpp ****     }
 3508              		.loc 1 823 45 is_stmt 0
 3509 10d4 9397A700 		slli	a5,a5,10
 3510              	.LVL276:
 823:src/kernel/riscv.cpp ****     }
 3511              		.loc 1 823 52
 3512 10d8 93E71700 		ori	a5,a5,1
 823:src/kernel/riscv.cpp ****     }
 3513              		.loc 1 823 36
 3514 10dc 2330F900 		sd	a5,0(s2)
 3515              	.LBE203:
 3516 10e0 6FF05FF9 		j	.L168
 3517              	.LBE205:
 3518              		.cfi_endproc
 3519              	.LFE80:
 3521              		.align	2
 3522              		.globl	_ZN5RiscV12buildSectionEPvmmm
 3524              	_ZN5RiscV12buildSectionEPvmmm:
 3525              	.LFB76:
 759:src/kernel/riscv.cpp ****     for(uint64 i=start;i< end;i+=0x1000) {
 3526              		.loc 1 759 76 is_stmt 1
 3527              		.cfi_startproc
 3528              	.LVL277:
 3529 10e4 130101FD 		addi	sp,sp,-48
 3530              		.cfi_def_cfa_offset 48
 3531 10e8 23341102 		sd	ra,40(sp)
 3532 10ec 23308102 		sd	s0,32(sp)
 3533 10f0 233C9100 		sd	s1,24(sp)
GAS LISTING /tmp/ccxUk6vw.s 			page 95


 3534 10f4 23382101 		sd	s2,16(sp)
 3535 10f8 23343101 		sd	s3,8(sp)
 3536 10fc 23304101 		sd	s4,0(sp)
 3537              		.cfi_offset 1, -8
 3538              		.cfi_offset 8, -16
 3539              		.cfi_offset 9, -24
 3540              		.cfi_offset 18, -32
 3541              		.cfi_offset 19, -40
 3542              		.cfi_offset 20, -48
 3543 1100 13040103 		addi	s0,sp,48
 3544              		.cfi_def_cfa 8, 0
 3545 1104 130A0500 		mv	s4,a0
 3546 1108 93840500 		mv	s1,a1
 3547 110c 13090600 		mv	s2,a2
 3548 1110 93890600 		mv	s3,a3
 760:src/kernel/riscv.cpp ****         handlePageFault(PMT,i, mask);
 3549              		.loc 1 760 5
 3550              	.LVL278:
 3551              	.L174:
 3552              	.LBB206:
 760:src/kernel/riscv.cpp ****         handlePageFault(PMT,i, mask);
 3553              		.loc 1 760 25 discriminator 3
 3554 1114 63F22403 		bgeu	s1,s2,.L172
 761:src/kernel/riscv.cpp ****     }
 3555              		.loc 1 761 9 discriminator 2
 761:src/kernel/riscv.cpp ****     }
 3556              		.loc 1 761 24 is_stmt 0 discriminator 2
 3557 1118 13860900 		mv	a2,s3
 3558 111c 93850400 		mv	a1,s1
 3559 1120 13050A00 		mv	a0,s4
 3560 1124 97000000 		call	_ZN5RiscV15handlePageFaultEPvmm
 3560      E7800000 
 3561              	.LVL279:
 760:src/kernel/riscv.cpp ****         handlePageFault(PMT,i, mask);
 3562              		.loc 1 760 5 is_stmt 1 discriminator 2
 760:src/kernel/riscv.cpp ****         handlePageFault(PMT,i, mask);
 3563              		.loc 1 760 32 is_stmt 0 discriminator 2
 3564 112c B7170000 		li	a5,4096
 3565 1130 B384F400 		add	s1,s1,a5
 3566              	.LVL280:
 760:src/kernel/riscv.cpp ****         handlePageFault(PMT,i, mask);
 3567              		.loc 1 760 5 discriminator 2
 3568 1134 6FF01FFE 		j	.L174
 3569              	.L172:
 3570              	.LBE206:
 763:src/kernel/riscv.cpp **** 
 3571              		.loc 1 763 1
 3572 1138 83308102 		ld	ra,40(sp)
 3573              		.cfi_restore 1
 3574 113c 03340102 		ld	s0,32(sp)
 3575              		.cfi_restore 8
 3576              		.cfi_def_cfa 2, 48
 3577 1140 83348101 		ld	s1,24(sp)
 3578              		.cfi_restore 9
 3579              	.LVL281:
 3580 1144 03390101 		ld	s2,16(sp)
 3581              		.cfi_restore 18
GAS LISTING /tmp/ccxUk6vw.s 			page 96


 3582              	.LVL282:
 3583 1148 83398100 		ld	s3,8(sp)
 3584              		.cfi_restore 19
 3585              	.LVL283:
 3586 114c 033A0100 		ld	s4,0(sp)
 3587              		.cfi_restore 20
 3588              	.LVL284:
 3589 1150 13010103 		addi	sp,sp,48
 3590              		.cfi_def_cfa_offset 0
 3591 1154 67800000 		jr	ra
 3592              		.cfi_endproc
 3593              	.LFE76:
 3595              		.align	2
 3596              		.globl	_ZN5RiscV19mapConsoleRegistersEPv
 3598              	_ZN5RiscV19mapConsoleRegistersEPv:
 3599              	.LFB81:
 830:src/kernel/riscv.cpp **** 
 831:src/kernel/riscv.cpp **** void RiscV::mapConsoleRegisters(void *PMT) {
 3600              		.loc 1 831 44 is_stmt 1
 3601              		.cfi_startproc
 3602              	.LVL285:
 3603 1158 130101FE 		addi	sp,sp,-32
 3604              		.cfi_def_cfa_offset 32
 3605 115c 233C1100 		sd	ra,24(sp)
 3606 1160 23388100 		sd	s0,16(sp)
 3607 1164 23349100 		sd	s1,8(sp)
 3608              		.cfi_offset 1, -8
 3609              		.cfi_offset 8, -16
 3610              		.cfi_offset 9, -24
 3611 1168 13040102 		addi	s0,sp,32
 3612              		.cfi_def_cfa 8, 0
 3613 116c 93040500 		mv	s1,a0
 832:src/kernel/riscv.cpp ****     handlePageFault(PMT, (uint64)CONSOLE_STATUS,0x1f);
 3614              		.loc 1 832 5
 3615              		.loc 1 832 20 is_stmt 0
 3616 1170 1306F001 		li	a2,31
 3617 1174 97070000 		la	a5,CONSOLE_STATUS
 3617      83B70700 
 3618 117c 83B50700 		ld	a1,0(a5)
 3619 1180 97000000 		call	_ZN5RiscV15handlePageFaultEPvmm
 3619      E7800000 
 3620              	.LVL286:
 833:src/kernel/riscv.cpp ****     handlePageFault(PMT, (uint64)CONSOLE_TX_DATA,0x1f);
 3621              		.loc 1 833 5 is_stmt 1
 3622              		.loc 1 833 20 is_stmt 0
 3623 1188 1306F001 		li	a2,31
 3624 118c 97070000 		la	a5,CONSOLE_TX_DATA
 3624      83B70700 
 3625 1194 83B50700 		ld	a1,0(a5)
 3626 1198 13850400 		mv	a0,s1
 3627 119c 97000000 		call	_ZN5RiscV15handlePageFaultEPvmm
 3627      E7800000 
 3628              	.LVL287:
 834:src/kernel/riscv.cpp ****     handlePageFault(PMT, (uint64)CONSOLE_RX_DATA,0x1f);
 3629              		.loc 1 834 5 is_stmt 1
 3630              		.loc 1 834 20 is_stmt 0
 3631 11a4 1306F001 		li	a2,31
GAS LISTING /tmp/ccxUk6vw.s 			page 97


 3632 11a8 97070000 		la	a5,CONSOLE_RX_DATA
 3632      83B70700 
 3633 11b0 83B50700 		ld	a1,0(a5)
 3634 11b4 13850400 		mv	a0,s1
 3635 11b8 97000000 		call	_ZN5RiscV15handlePageFaultEPvmm
 3635      E7800000 
 3636              	.LVL288:
 835:src/kernel/riscv.cpp ****     handlePageFault(PMT, (uint64)PLIC_CLAIM_PF,0x1f);
 3637              		.loc 1 835 5 is_stmt 1
 3638              		.loc 1 835 20 is_stmt 0
 3639 11c0 1306F001 		li	a2,31
 3640 11c4 B715200C 		li	a1,203427840
 3641 11c8 93854500 		addi	a1,a1,4
 3642 11cc 13850400 		mv	a0,s1
 3643 11d0 97000000 		call	_ZN5RiscV15handlePageFaultEPvmm
 3643      E7800000 
 3644              	.LVL289:
 836:src/kernel/riscv.cpp **** }...
 3645              		.loc 1 836 1
 3646 11d8 83308101 		ld	ra,24(sp)
 3647              		.cfi_restore 1
 3648 11dc 03340101 		ld	s0,16(sp)
 3649              		.cfi_restore 8
 3650              		.cfi_def_cfa 2, 32
 3651 11e0 83348100 		ld	s1,8(sp)
 3652              		.cfi_restore 9
 3653              	.LVL290:
 3654 11e4 13010102 		addi	sp,sp,32
 3655              		.cfi_def_cfa_offset 0
 3656 11e8 67800000 		jr	ra
 3657              		.cfi_endproc
 3658              	.LFE81:
 3660              		.align	2
 3661              		.globl	_ZN5RiscV14buildKernelPMTEv
 3663              	_ZN5RiscV14buildKernelPMTEv:
 3664              	.LFB77:
 765:src/kernel/riscv.cpp **** void RiscV::buildKernelPMT() {
 3665              		.loc 1 765 30 is_stmt 1
 3666              		.cfi_startproc
 3667 11ec 130101FD 		addi	sp,sp,-48
 3668              		.cfi_def_cfa_offset 48
 3669 11f0 23341102 		sd	ra,40(sp)
 3670 11f4 23308102 		sd	s0,32(sp)
 3671 11f8 233C9100 		sd	s1,24(sp)
 3672 11fc 23382101 		sd	s2,16(sp)
 3673 1200 23343101 		sd	s3,8(sp)
 3674 1204 23304101 		sd	s4,0(sp)
 3675              		.cfi_offset 1, -8
 3676              		.cfi_offset 8, -16
 3677              		.cfi_offset 9, -24
 3678              		.cfi_offset 18, -32
 3679              		.cfi_offset 19, -40
 3680              		.cfi_offset 20, -48
 3681 1208 13040103 		addi	s0,sp,48
 3682              		.cfi_def_cfa 8, 0
 766:src/kernel/riscv.cpp ****     RiscV::kPMT = RiscV::getPMT();
 3683              		.loc 1 766 5
GAS LISTING /tmp/ccxUk6vw.s 			page 98


 766:src/kernel/riscv.cpp ****     RiscV::kPMT = RiscV::getPMT();
 3684              		.loc 1 766 32 is_stmt 0
 3685 120c 97000000 		call	_ZN5RiscV6getPMTEv
 3685      E7800000 
 3686              	.LVL291:
 766:src/kernel/riscv.cpp ****     RiscV::kPMT = RiscV::getPMT();
 3687              		.loc 1 766 17
 3688 1214 97040000 		lla	s1,.LANCHOR0
 3688      93840400 
 3689 121c 23B8A400 		sd	a0,16(s1)
 767:src/kernel/riscv.cpp ****     uint64 bEnd = ((uint64)Buddy::BUDDY_START_ADDR + (Buddy::BLOCKS_AVAILABLE<<12));
 3690              		.loc 1 767 5 is_stmt 1
 767:src/kernel/riscv.cpp ****     uint64 bEnd = ((uint64)Buddy::BUDDY_START_ADDR + (Buddy::BLOCKS_AVAILABLE<<12));
 3691              		.loc 1 767 78 is_stmt 0
 3692 1220 97070000 		la	a5,_ZN5Buddy16BLOCKS_AVAILABLEE
 3692      83B70700 
 3693 1228 03B90700 		ld	s2,0(a5)
 3694 122c 1319C900 		slli	s2,s2,12
 767:src/kernel/riscv.cpp ****     uint64 bEnd = ((uint64)Buddy::BUDDY_START_ADDR + (Buddy::BLOCKS_AVAILABLE<<12));
 3695              		.loc 1 767 52
 3696 1230 97070000 		la	a5,_ZN5Buddy16BUDDY_START_ADDRE
 3696      83B70700 
 3697 1238 83B70700 		ld	a5,0(a5)
 767:src/kernel/riscv.cpp ****     uint64 bEnd = ((uint64)Buddy::BUDDY_START_ADDR + (Buddy::BLOCKS_AVAILABLE<<12));
 3698              		.loc 1 767 12
 3699 123c 3309F900 		add	s2,s2,a5
 3700              	.LVL292:
 770:src/kernel/riscv.cpp ****     RiscV::buildSection(kPMT, OS_ENTRY, KERNEL_TEXT_END, 0xb);
 3701              		.loc 1 770 5 is_stmt 1
 770:src/kernel/riscv.cpp ****     RiscV::buildSection(kPMT, OS_ENTRY, KERNEL_TEXT_END, 0xb);
 3702              		.loc 1 770 24 is_stmt 0
 3703 1240 170A0000 		la	s4,kernelTextEnd
 3703      033A0A00 
 3704 1248 9306B000 		li	a3,11
 3705 124c 13060A00 		mv	a2,s4
 3706 1250 93051000 		li	a1,1
 3707 1254 9395F501 		slli	a1,a1,31
 3708 1258 97000000 		call	_ZN5RiscV12buildSectionEPvmmm
 3708      E7800000 
 3709              	.LVL293:
 771:src/kernel/riscv.cpp ****     RiscV::buildSection(kPMT, KERNEL_TEXT_END, USER_TEXT_START, 0x7);
 3710              		.loc 1 771 5 is_stmt 1
 771:src/kernel/riscv.cpp ****     RiscV::buildSection(kPMT, KERNEL_TEXT_END, USER_TEXT_START, 0x7);
 3711              		.loc 1 771 24 is_stmt 0
 3712 1260 97090000 		la	s3,userTextStart
 3712      83B90900 
 3713 1268 93067000 		li	a3,7
 3714 126c 13860900 		mv	a2,s3
 3715 1270 93050A00 		mv	a1,s4
 3716 1274 03B50401 		ld	a0,16(s1)
 3717 1278 97000000 		call	_ZN5RiscV12buildSectionEPvmmm
 3717      E7800000 
 3718              	.LVL294:
 772:src/kernel/riscv.cpp ****     RiscV::buildSection(kPMT, USER_TEXT_START, USER_DATA_START, 0x1b);
 3719              		.loc 1 772 5 is_stmt 1
 772:src/kernel/riscv.cpp ****     RiscV::buildSection(kPMT, USER_TEXT_START, USER_DATA_START, 0x1b);
 3720              		.loc 1 772 24 is_stmt 0
GAS LISTING /tmp/ccxUk6vw.s 			page 99


 3721 1280 170A0000 		la	s4,userDataStart
 3721      033A0A00 
 3722 1288 9306B001 		li	a3,27
 3723 128c 13060A00 		mv	a2,s4
 3724 1290 93850900 		mv	a1,s3
 3725 1294 03B50401 		ld	a0,16(s1)
 3726 1298 97000000 		call	_ZN5RiscV12buildSectionEPvmmm
 3726      E7800000 
 3727              	.LVL295:
 773:src/kernel/riscv.cpp ****     RiscV::buildSection(kPMT, USER_DATA_START, USER_DATA_END, 0x17);
 3728              		.loc 1 773 5 is_stmt 1
 773:src/kernel/riscv.cpp ****     RiscV::buildSection(kPMT, USER_DATA_START, USER_DATA_END, 0x17);
 3729              		.loc 1 773 24 is_stmt 0
 3730 12a0 97090000 		la	s3,userDataEnd
 3730      83B90900 
 3731 12a8 93067001 		li	a3,23
 3732 12ac 13860900 		mv	a2,s3
 3733 12b0 93050A00 		mv	a1,s4
 3734 12b4 03B50401 		ld	a0,16(s1)
 3735 12b8 97000000 		call	_ZN5RiscV12buildSectionEPvmmm
 3735      E7800000 
 3736              	.LVL296:
 774:src/kernel/riscv.cpp ****     RiscV::buildSection(kPMT, USER_DATA_END, bEnd, 0x7);
 3737              		.loc 1 774 5 is_stmt 1
 774:src/kernel/riscv.cpp ****     RiscV::buildSection(kPMT, USER_DATA_END, bEnd, 0x7);
 3738              		.loc 1 774 24 is_stmt 0
 3739 12c0 93067000 		li	a3,7
 3740 12c4 13060900 		mv	a2,s2
 3741 12c8 93850900 		mv	a1,s3
 3742 12cc 03B50401 		ld	a0,16(s1)
 3743 12d0 97000000 		call	_ZN5RiscV12buildSectionEPvmmm
 3743      E7800000 
 3744              	.LVL297:
 775:src/kernel/riscv.cpp ****     RiscV::buildSection(kPMT, bEnd, HEAP_END, 0x17);
 3745              		.loc 1 775 5 is_stmt 1
 775:src/kernel/riscv.cpp ****     RiscV::buildSection(kPMT, bEnd, HEAP_END, 0x17);
 3746              		.loc 1 775 24 is_stmt 0
 3747 12d8 93067001 		li	a3,23
 3748 12dc 97070000 		la	a5,HEAP_END_ADDR
 3748      83B70700 
 3749 12e4 03B60700 		ld	a2,0(a5)
 3750 12e8 93050900 		mv	a1,s2
 3751 12ec 03B50401 		ld	a0,16(s1)
 3752 12f0 97000000 		call	_ZN5RiscV12buildSectionEPvmmm
 3752      E7800000 
 3753              	.LVL298:
 777:src/kernel/riscv.cpp ****     RiscV::mapConsoleRegisters(kPMT);
 3754              		.loc 1 777 5 is_stmt 1
 777:src/kernel/riscv.cpp ****     RiscV::mapConsoleRegisters(kPMT);
 3755              		.loc 1 777 31 is_stmt 0
 3756 12f8 03B50401 		ld	a0,16(s1)
 3757 12fc 97000000 		call	_ZN5RiscV19mapConsoleRegistersEPv
 3757      E7800000 
 3758              	.LVL299:
 778:src/kernel/riscv.cpp ****     RiscV::ms_sstatus(1<<18);
 3759              		.loc 1 778 5 is_stmt 1
 3760              	.LBB207:
GAS LISTING /tmp/ccxUk6vw.s 			page 100


 3761              	.LBB208:
 209:src/kernel/../../h/kernel/riscv.hpp **** }
 3762              		.loc 2 209 5
 209:src/kernel/../../h/kernel/riscv.hpp **** }
 3763              		.loc 2 209 55 is_stmt 0
 3764 1304 B7070400 		li	a5,262144
 3765              	#APP
 3766              	# 209 "src/kernel/../../h/kernel/riscv.hpp" 1
 3767              		csrs sstatus, a5
 3768              	# 0 "" 2
 3769              	.LVL300:
 3770              	#NO_APP
 3771              	.LBE208:
 3772              	.LBE207:
 779:src/kernel/riscv.cpp **** }
 3773              		.loc 1 779 1
 3774 130c 83308102 		ld	ra,40(sp)
 3775              		.cfi_restore 1
 3776 1310 03340102 		ld	s0,32(sp)
 3777              		.cfi_restore 8
 3778              		.cfi_def_cfa 2, 48
 3779 1314 83348101 		ld	s1,24(sp)
 3780              		.cfi_restore 9
 3781 1318 03390101 		ld	s2,16(sp)
 3782              		.cfi_restore 18
 3783              	.LVL301:
 3784 131c 83398100 		ld	s3,8(sp)
 3785              		.cfi_restore 19
 3786 1320 033A0100 		ld	s4,0(sp)
 3787              		.cfi_restore 20
 3788 1324 13010103 		addi	sp,sp,48
 3789              		.cfi_def_cfa_offset 0
 3790 1328 67800000 		jr	ra
 3791              		.cfi_endproc
 3792              	.LFE77:
 3794              		.align	2
 3795              		.globl	_ZN5RiscV12buildUserPMTEv
 3797              	_ZN5RiscV12buildUserPMTEv:
 3798              	.LFB78:
 781:src/kernel/riscv.cpp **** void RiscV::buildUserPMT() {
 3799              		.loc 1 781 28 is_stmt 1
 3800              		.cfi_startproc
 3801 132c 130101FD 		addi	sp,sp,-48
 3802              		.cfi_def_cfa_offset 48
 3803 1330 23341102 		sd	ra,40(sp)
 3804 1334 23308102 		sd	s0,32(sp)
 3805 1338 233C9100 		sd	s1,24(sp)
 3806 133c 23382101 		sd	s2,16(sp)
 3807 1340 23343101 		sd	s3,8(sp)
 3808 1344 23304101 		sd	s4,0(sp)
 3809              		.cfi_offset 1, -8
 3810              		.cfi_offset 8, -16
 3811              		.cfi_offset 9, -24
 3812              		.cfi_offset 18, -32
 3813              		.cfi_offset 19, -40
 3814              		.cfi_offset 20, -48
 3815 1348 13040103 		addi	s0,sp,48
GAS LISTING /tmp/ccxUk6vw.s 			page 101


 3816              		.cfi_def_cfa 8, 0
 782:src/kernel/riscv.cpp ****     RiscV::uPMT = RiscV::getPMT();
 3817              		.loc 1 782 5
 782:src/kernel/riscv.cpp ****     RiscV::uPMT = RiscV::getPMT();
 3818              		.loc 1 782 32 is_stmt 0
 3819 134c 97000000 		call	_ZN5RiscV6getPMTEv
 3819      E7800000 
 3820              	.LVL302:
 782:src/kernel/riscv.cpp ****     RiscV::uPMT = RiscV::getPMT();
 3821              		.loc 1 782 17
 3822 1354 97040000 		lla	s1,.LANCHOR0
 3822      93840400 
 3823 135c 23BCA400 		sd	a0,24(s1)
 783:src/kernel/riscv.cpp ****     uint64 bEnd = ((uint64)Buddy::BUDDY_START_ADDR + (Buddy::BLOCKS_AVAILABLE<<12));
 3824              		.loc 1 783 5 is_stmt 1
 783:src/kernel/riscv.cpp ****     uint64 bEnd = ((uint64)Buddy::BUDDY_START_ADDR + (Buddy::BLOCKS_AVAILABLE<<12));
 3825              		.loc 1 783 78 is_stmt 0
 3826 1360 97070000 		la	a5,_ZN5Buddy16BLOCKS_AVAILABLEE
 3826      83B70700 
 3827 1368 03B90700 		ld	s2,0(a5)
 3828 136c 1319C900 		slli	s2,s2,12
 783:src/kernel/riscv.cpp ****     uint64 bEnd = ((uint64)Buddy::BUDDY_START_ADDR + (Buddy::BLOCKS_AVAILABLE<<12));
 3829              		.loc 1 783 52
 3830 1370 97070000 		la	a5,_ZN5Buddy16BUDDY_START_ADDRE
 3830      83B70700 
 3831 1378 83B70700 		ld	a5,0(a5)
 783:src/kernel/riscv.cpp ****     uint64 bEnd = ((uint64)Buddy::BUDDY_START_ADDR + (Buddy::BLOCKS_AVAILABLE<<12));
 3832              		.loc 1 783 12
 3833 137c 3309F900 		add	s2,s2,a5
 3834              	.LVL303:
 786:src/kernel/riscv.cpp ****     RiscV::buildSection(uPMT, OS_ENTRY, KERNEL_TEXT_END, 0xb);
 3835              		.loc 1 786 5 is_stmt 1
 786:src/kernel/riscv.cpp ****     RiscV::buildSection(uPMT, OS_ENTRY, KERNEL_TEXT_END, 0xb);
 3836              		.loc 1 786 24 is_stmt 0
 3837 1380 170A0000 		la	s4,kernelTextEnd
 3837      033A0A00 
 3838 1388 9306B000 		li	a3,11
 3839 138c 13060A00 		mv	a2,s4
 3840 1390 93051000 		li	a1,1
 3841 1394 9395F501 		slli	a1,a1,31
 3842 1398 97000000 		call	_ZN5RiscV12buildSectionEPvmmm
 3842      E7800000 
 3843              	.LVL304:
 787:src/kernel/riscv.cpp ****     RiscV::buildSection(uPMT, KERNEL_TEXT_END, USER_TEXT_START, 0x7);
 3844              		.loc 1 787 5 is_stmt 1
 787:src/kernel/riscv.cpp ****     RiscV::buildSection(uPMT, KERNEL_TEXT_END, USER_TEXT_START, 0x7);
 3845              		.loc 1 787 24 is_stmt 0
 3846 13a0 97090000 		la	s3,userTextStart
 3846      83B90900 
 3847 13a8 93067000 		li	a3,7
 3848 13ac 13860900 		mv	a2,s3
 3849 13b0 93050A00 		mv	a1,s4
 3850 13b4 03B58401 		ld	a0,24(s1)
 3851 13b8 97000000 		call	_ZN5RiscV12buildSectionEPvmmm
 3851      E7800000 
 3852              	.LVL305:
 788:src/kernel/riscv.cpp ****     RiscV::buildSection(uPMT, USER_TEXT_START, USER_DATA_START, 0x1b);
GAS LISTING /tmp/ccxUk6vw.s 			page 102


 3853              		.loc 1 788 5 is_stmt 1
 788:src/kernel/riscv.cpp ****     RiscV::buildSection(uPMT, USER_TEXT_START, USER_DATA_START, 0x1b);
 3854              		.loc 1 788 24 is_stmt 0
 3855 13c0 170A0000 		la	s4,userDataStart
 3855      033A0A00 
 3856 13c8 9306B001 		li	a3,27
 3857 13cc 13060A00 		mv	a2,s4
 3858 13d0 93850900 		mv	a1,s3
 3859 13d4 03B58401 		ld	a0,24(s1)
 3860 13d8 97000000 		call	_ZN5RiscV12buildSectionEPvmmm
 3860      E7800000 
 3861              	.LVL306:
 789:src/kernel/riscv.cpp ****     RiscV::buildSection(uPMT, USER_DATA_START, USER_DATA_END, 0x17);
 3862              		.loc 1 789 5 is_stmt 1
 789:src/kernel/riscv.cpp ****     RiscV::buildSection(uPMT, USER_DATA_START, USER_DATA_END, 0x17);
 3863              		.loc 1 789 24 is_stmt 0
 3864 13e0 97090000 		la	s3,userDataEnd
 3864      83B90900 
 3865 13e8 93067001 		li	a3,23
 3866 13ec 13860900 		mv	a2,s3
 3867 13f0 93050A00 		mv	a1,s4
 3868 13f4 03B58401 		ld	a0,24(s1)
 3869 13f8 97000000 		call	_ZN5RiscV12buildSectionEPvmmm
 3869      E7800000 
 3870              	.LVL307:
 790:src/kernel/riscv.cpp ****     RiscV::buildSection(uPMT, USER_DATA_END, bEnd, 0x7);
 3871              		.loc 1 790 5 is_stmt 1
 790:src/kernel/riscv.cpp ****     RiscV::buildSection(uPMT, USER_DATA_END, bEnd, 0x7);
 3872              		.loc 1 790 24 is_stmt 0
 3873 1400 93067000 		li	a3,7
 3874 1404 13060900 		mv	a2,s2
 3875 1408 93850900 		mv	a1,s3
 3876 140c 03B58401 		ld	a0,24(s1)
 3877 1410 97000000 		call	_ZN5RiscV12buildSectionEPvmmm
 3877      E7800000 
 3878              	.LVL308:
 791:src/kernel/riscv.cpp ****     RiscV::buildSection(uPMT, bEnd, HEAP_END, 0x17);
 3879              		.loc 1 791 5 is_stmt 1
 791:src/kernel/riscv.cpp ****     RiscV::buildSection(uPMT, bEnd, HEAP_END, 0x17);
 3880              		.loc 1 791 24 is_stmt 0
 3881 1418 93067001 		li	a3,23
 3882 141c 97070000 		la	a5,HEAP_END_ADDR
 3882      83B70700 
 3883 1424 03B60700 		ld	a2,0(a5)
 3884 1428 93050900 		mv	a1,s2
 3885 142c 03B58401 		ld	a0,24(s1)
 3886 1430 97000000 		call	_ZN5RiscV12buildSectionEPvmmm
 3886      E7800000 
 3887              	.LVL309:
 793:src/kernel/riscv.cpp ****     RiscV::mapConsoleRegisters(uPMT);
 3888              		.loc 1 793 5 is_stmt 1
 793:src/kernel/riscv.cpp ****     RiscV::mapConsoleRegisters(uPMT);
 3889              		.loc 1 793 31 is_stmt 0
 3890 1438 03B58401 		ld	a0,24(s1)
 3891 143c 97000000 		call	_ZN5RiscV19mapConsoleRegistersEPv
 3891      E7800000 
 3892              	.LVL310:
GAS LISTING /tmp/ccxUk6vw.s 			page 103


 794:src/kernel/riscv.cpp ****     RiscV::ms_sstatus(1<<18);
 3893              		.loc 1 794 5 is_stmt 1
 3894              	.LBB209:
 3895              	.LBB210:
 209:src/kernel/../../h/kernel/riscv.hpp **** }
 3896              		.loc 2 209 5
 209:src/kernel/../../h/kernel/riscv.hpp **** }
 3897              		.loc 2 209 55 is_stmt 0
 3898 1444 B7070400 		li	a5,262144
 3899              	#APP
 3900              	# 209 "src/kernel/../../h/kernel/riscv.hpp" 1
 3901              		csrs sstatus, a5
 3902              	# 0 "" 2
 3903              	.LVL311:
 3904              	#NO_APP
 3905              	.LBE210:
 3906              	.LBE209:
 795:src/kernel/riscv.cpp **** }
 3907              		.loc 1 795 1
 3908 144c 83308102 		ld	ra,40(sp)
 3909              		.cfi_restore 1
 3910 1450 03340102 		ld	s0,32(sp)
 3911              		.cfi_restore 8
 3912              		.cfi_def_cfa 2, 48
 3913 1454 83348101 		ld	s1,24(sp)
 3914              		.cfi_restore 9
 3915 1458 03390101 		ld	s2,16(sp)
 3916              		.cfi_restore 18
 3917              	.LVL312:
 3918 145c 83398100 		ld	s3,8(sp)
 3919              		.cfi_restore 19
 3920 1460 033A0100 		ld	s4,0(sp)
 3921              		.cfi_restore 20
 3922 1464 13010103 		addi	sp,sp,48
 3923              		.cfi_def_cfa_offset 0
 3924 1468 67800000 		jr	ra
 3925              		.cfi_endproc
 3926              	.LFE78:
 3928              		.align	2
 3929              		.globl	_ZN5RiscV10initializeEv
 3931              	_ZN5RiscV10initializeEv:
 3932              	.LFB47:
  20:src/kernel/riscv.cpp **** void RiscV::initialize(){
 3933              		.loc 1 20 25 is_stmt 1
 3934              		.cfi_startproc
 3935 146c 130101FF 		addi	sp,sp,-16
 3936              		.cfi_def_cfa_offset 16
 3937 1470 23341100 		sd	ra,8(sp)
 3938 1474 23308100 		sd	s0,0(sp)
 3939              		.cfi_offset 1, -8
 3940              		.cfi_offset 8, -16
 3941 1478 13040101 		addi	s0,sp,16
 3942              		.cfi_def_cfa 8, 0
  21:src/kernel/riscv.cpp ****     RiscV::w_stvec((uint64) &RiscV::supervisorTrap);
 3943              		.loc 1 21 5
  21:src/kernel/riscv.cpp ****     RiscV::w_stvec((uint64) &RiscV::supervisorTrap);
 3944              		.loc 1 21 19 is_stmt 0
GAS LISTING /tmp/ccxUk6vw.s 			page 104


 3945 147c 97070000 		la	a5,_ZN5RiscV14supervisorTrapEv
 3945      83B70700 
 3946              	.LVL313:
 3947              	.LBB211:
 3948              	.LBB212:
 205:src/kernel/../../h/kernel/riscv.hpp **** }
 3949              		.loc 2 205 5 is_stmt 1
 205:src/kernel/../../h/kernel/riscv.hpp **** }
 3950              		.loc 2 205 56 is_stmt 0
 3951              	#APP
 3952              	# 205 "src/kernel/../../h/kernel/riscv.hpp" 1
 3953              		csrw stvec, a5
 3954              	# 0 "" 2
 3955              	.LVL314:
 3956              	#NO_APP
 3957              	.LBE212:
 3958              	.LBE211:
  22:src/kernel/riscv.cpp ****     kmem_init(BUDDY_START_ADDR_CONST, 4096);
 3959              		.loc 1 22 5 is_stmt 1
  22:src/kernel/riscv.cpp ****     kmem_init(BUDDY_START_ADDR_CONST, 4096);
 3960              		.loc 1 22 15 is_stmt 0
 3961 1488 97070000 		la	a5,HEAP_START_ADDR
 3961      83B70700 
 3962 1490 03B50700 		ld	a0,0(a5)
 3963 1494 1355C500 		srli	a0,a0,12
 3964 1498 13052500 		addi	a0,a0,2
  22:src/kernel/riscv.cpp ****     kmem_init(BUDDY_START_ADDR_CONST, 4096);
 3965              		.loc 1 22 14
 3966 149c B7150000 		li	a1,4096
 3967 14a0 1315C500 		slli	a0,a0,12
 3968 14a4 97000000 		call	_Z9kmem_initPvi@plt
 3968      E7800000 
 3969              	.LVL315:
  23:src/kernel/riscv.cpp ****     MemoryAllocator::initialize();
 3970              		.loc 1 23 5 is_stmt 1
  23:src/kernel/riscv.cpp ****     MemoryAllocator::initialize();
 3971              		.loc 1 23 32 is_stmt 0
 3972 14ac 97000000 		call	_ZN15MemoryAllocator10initializeEv@plt
 3972      E7800000 
 3973              	.LVL316:
  24:src/kernel/riscv.cpp ****     Scheduler::initialize();
 3974              		.loc 1 24 5 is_stmt 1
  24:src/kernel/riscv.cpp ****     Scheduler::initialize();
 3975              		.loc 1 24 26 is_stmt 0
 3976 14b4 97000000 		call	_ZN9Scheduler10initializeEv@plt
 3976      E7800000 
 3977              	.LVL317:
  25:src/kernel/riscv.cpp ****     TCB::initialize();
 3978              		.loc 1 25 5 is_stmt 1
  25:src/kernel/riscv.cpp ****     TCB::initialize();
 3979              		.loc 1 25 20 is_stmt 0
 3980 14bc 97000000 		call	_ZN3TCB10initializeEv@plt
 3980      E7800000 
 3981              	.LVL318:
  26:src/kernel/riscv.cpp ****     SCB::initialize();
 3982              		.loc 1 26 5 is_stmt 1
  26:src/kernel/riscv.cpp ****     SCB::initialize();
GAS LISTING /tmp/ccxUk6vw.s 			page 105


 3983              		.loc 1 26 20 is_stmt 0
 3984 14c4 97000000 		call	_ZN3SCB10initializeEv@plt
 3984      E7800000 
 3985              	.LVL319:
  27:src/kernel/riscv.cpp ****     ConsoleUtil::initialize();
 3986              		.loc 1 27 5 is_stmt 1
  27:src/kernel/riscv.cpp ****     ConsoleUtil::initialize();
 3987              		.loc 1 27 28 is_stmt 0
 3988 14cc 97000000 		call	_ZN11ConsoleUtil10initializeEv@plt
 3988      E7800000 
 3989              	.LVL320:
  28:src/kernel/riscv.cpp ****     RiscV::buildKernelPMT();
 3990              		.loc 1 28 5 is_stmt 1
  28:src/kernel/riscv.cpp ****     RiscV::buildKernelPMT();
 3991              		.loc 1 28 26 is_stmt 0
 3992 14d4 97000000 		call	_ZN5RiscV14buildKernelPMTEv
 3992      E7800000 
 3993              	.LVL321:
  29:src/kernel/riscv.cpp ****     RiscV::buildUserPMT();
 3994              		.loc 1 29 5 is_stmt 1
  29:src/kernel/riscv.cpp ****     RiscV::buildUserPMT();
 3995              		.loc 1 29 24 is_stmt 0
 3996 14dc 97000000 		call	_ZN5RiscV12buildUserPMTEv
 3996      E7800000 
 3997              	.LVL322:
  30:src/kernel/riscv.cpp ****     RiscV::initialized = true;
 3998              		.loc 1 30 5 is_stmt 1
  30:src/kernel/riscv.cpp ****     RiscV::initialized = true;
 3999              		.loc 1 30 24 is_stmt 0
 4000 14e4 97070000 		lla	a5,.LANCHOR0
 4000      93870700 
 4001 14ec 13071000 		li	a4,1
 4002 14f0 2380E702 		sb	a4,32(a5)
  31:src/kernel/riscv.cpp ****     RiscV::startVirtualMemory(RiscV::kPMT);
 4003              		.loc 1 31 5 is_stmt 1
  31:src/kernel/riscv.cpp ****     RiscV::startVirtualMemory(RiscV::kPMT);
 4004              		.loc 1 31 30 is_stmt 0
 4005 14f4 83B70701 		ld	a5,16(a5)
 4006              	.LVL323:
 4007              	.LBB213:
 4008              	.LBB214:
 264:src/kernel/../../h/kernel/riscv.hpp ****     asm("csrw satp, %[satp]" : : [satp] "r" (satp));
 4009              		.loc 2 264 5 is_stmt 1
 264:src/kernel/../../h/kernel/riscv.hpp ****     asm("csrw satp, %[satp]" : : [satp] "r" (satp));
 4010              		.loc 2 264 51 is_stmt 0
 4011 14f8 93D7C700 		srli	a5,a5,12
 4012              	.LVL324:
 264:src/kernel/../../h/kernel/riscv.hpp ****     asm("csrw satp, %[satp]" : : [satp] "r" (satp));
 4013              		.loc 2 264 12
 4014 14fc 1307F0FF 		li	a4,-1
 4015 1500 1317F703 		slli	a4,a4,63
 4016 1504 B3E7E700 		or	a5,a5,a4
 4017              	.LVL325:
 265:src/kernel/../../h/kernel/riscv.hpp **** }
 4018              		.loc 2 265 5 is_stmt 1
 265:src/kernel/../../h/kernel/riscv.hpp **** }
 4019              		.loc 2 265 52 is_stmt 0
GAS LISTING /tmp/ccxUk6vw.s 			page 106


 4020              	#APP
 4021              	# 265 "src/kernel/../../h/kernel/riscv.hpp" 1
 4022              		csrw satp, a5
 4023              	# 0 "" 2
 4024              	.LVL326:
 4025              	#NO_APP
 4026              	.LBE214:
 4027              	.LBE213:
  32:src/kernel/riscv.cpp ****     RiscV::enableInterrupts();
 4028              		.loc 1 32 5 is_stmt 1
 233:src/kernel/../../h/kernel/riscv.hpp ****     RiscV::ms_sie(SIP_SEIE);
 4029              		.loc 2 233 5
 4030              	.LBB215:
 4031              	.LBB216:
 4032              	.LBB217:
 225:src/kernel/../../h/kernel/riscv.hpp **** }
 4033              		.loc 2 225 5
 225:src/kernel/../../h/kernel/riscv.hpp **** }
 4034              		.loc 2 225 51 is_stmt 0
 4035 150c 93072000 		li	a5,2
 4036              	#APP
 4037              	# 225 "src/kernel/../../h/kernel/riscv.hpp" 1
 4038              		csrs sie, a5
 4039              	# 0 "" 2
 4040              	.LVL327:
 4041              	#NO_APP
 4042              	.LBE217:
 4043              	.LBE216:
 4044              	.LBE215:
 234:src/kernel/../../h/kernel/riscv.hpp ****     RiscV::ms_sstatus(SSTATUS_SIE);
 4045              		.loc 2 234 5 is_stmt 1
 4046              	.LBB222:
 4047              	.LBB218:
 4048              	.LBB219:
 225:src/kernel/../../h/kernel/riscv.hpp **** }
 4049              		.loc 2 225 5
 225:src/kernel/../../h/kernel/riscv.hpp **** }
 4050              		.loc 2 225 51 is_stmt 0
 4051 1514 13070020 		li	a4,512
 4052              	#APP
 4053              	# 225 "src/kernel/../../h/kernel/riscv.hpp" 1
 4054              		csrs sie, a4
 4055              	# 0 "" 2
 4056              	.LVL328:
 4057              	#NO_APP
 4058              	.LBE219:
 4059              	.LBE218:
 4060              	.LBE222:
 235:src/kernel/../../h/kernel/riscv.hpp **** }
 4061              		.loc 2 235 5 is_stmt 1
 4062              	.LBB223:
 4063              	.LBB220:
 4064              	.LBB221:
 209:src/kernel/../../h/kernel/riscv.hpp **** }
 4065              		.loc 2 209 5
 209:src/kernel/../../h/kernel/riscv.hpp **** }
 4066              		.loc 2 209 55 is_stmt 0
GAS LISTING /tmp/ccxUk6vw.s 			page 107


 4067              	#APP
 4068              	# 209 "src/kernel/../../h/kernel/riscv.hpp" 1
 4069              		csrs sstatus, a5
 4070              	# 0 "" 2
 4071              	.LVL329:
 4072              	#NO_APP
 4073              	.LBE221:
 4074              	.LBE220:
 4075              	.LBE223:
  33:src/kernel/riscv.cpp **** }
 4076              		.loc 1 33 1
 4077 1520 83308100 		ld	ra,8(sp)
 4078              		.cfi_restore 1
 4079 1524 03340100 		ld	s0,0(sp)
 4080              		.cfi_restore 8
 4081              		.cfi_def_cfa 2, 16
 4082 1528 13010101 		addi	sp,sp,16
 4083              		.cfi_def_cfa_offset 0
 4084 152c 67800000 		jr	ra
 4085              		.cfi_endproc
 4086              	.LFE47:
 4088              		.globl	_ZN5RiscV11initializedE
 4089              		.globl	_ZN5RiscV4uPMTE
 4090              		.globl	_ZN5RiscV4kPMTE
 4091              		.globl	_ZN5RiscV16userMainFinishedE
 4092              		.globl	_ZN5RiscV10globalTimeE
 4093              		.bss
 4094              		.align	3
 4095              		.set	.LANCHOR0,. + 0
 4098              	_ZN5RiscV16userMainFinishedE:
 4099 0000 00       		.zero	1
 4100 0001 00000000 		.zero	7
 4100      000000
 4103              	_ZN5RiscV10globalTimeE:
 4104 0008 00000000 		.zero	8
 4104      00000000 
 4107              	_ZN5RiscV4kPMTE:
 4108 0010 00000000 		.zero	8
 4108      00000000 
 4111              	_ZN5RiscV4uPMTE:
 4112 0018 00000000 		.zero	8
 4112      00000000 
 4115              	_ZN5RiscV11initializedE:
 4116 0020 00       		.zero	1
 4117              		.text
 4118              	.Letext0:
 4119              		.file 3 "src/kernel/../../h/kernel/../../lib/hw.h"
 4120              		.file 4 "src/kernel/../../h/kernel/tcb.hpp"
 4121              		.file 5 "src/kernel/../../h/kernel/utility.hpp"
 4122              		.file 6 "src/kernel/../../h/kernel/memory_allocator.hpp"
 4123              		.file 7 "src/kernel/../../h/kernel/buddy_allocator.hpp"
 4124              		.file 8 "src/kernel/../../h/kernel/console_util.hpp"
 4125              		.file 9 "src/kernel/../../h/kernel/scb.hpp"
 4126              		.file 10 "src/kernel/../../h/kernel/slab_t.hpp"
 4127              		.file 11 "src/kernel/../../h/kernel/cache_t.hpp"
 4128              		.file 12 "src/kernel/../../h/kernel/scheduler.hpp"
 4129              		.file 13 "src/kernel/../../h/kernel/slab.hpp"
GAS LISTING /tmp/ccxUk6vw.s 			page 108


 12828              		.align	3
 12831              	DW.ref.__gxx_personality_v0:
 12832 0000 00000000 		.dword	__gxx_personality_v0
 12832      00000000 
 12833              		.ident	"GCC: (Ubuntu 9.4.0-1ubuntu1~20.04) 9.4.0"
 12834              		.section	.note.GNU-stack,"",@progbits
GAS LISTING /tmp/ccxUk6vw.s 			page 109


DEFINED SYMBOLS
                            *ABS*:0000000000000000 riscv.cpp
     /tmp/ccxUk6vw.s:9      .text:0000000000000000 _ZN5RiscV10popSppSpieEv
     /tmp/ccxUk6vw.s:13     .text:0000000000000000 .L0 
     /tmp/ccxUk6vw.s:14     .text:0000000000000000 .L0 
     /tmp/ccxUk6vw.s:15     .text:0000000000000004 .L0 
     /tmp/ccxUk6vw.s:17     .text:0000000000000008 .L0 
     /tmp/ccxUk6vw.s:19     .text:000000000000000c .L0 
     /tmp/ccxUk6vw.s:21     .text:000000000000000c .L0 
     /tmp/ccxUk6vw.s:22     .text:000000000000000c .L0 
     /tmp/ccxUk6vw.s:26     .text:000000000000001c .L0 
     /tmp/ccxUk6vw.s:29     .text:0000000000000024 .L0 
     /tmp/ccxUk6vw.s:30     .text:0000000000000024 .L0 
src/kernel/riscv.cpp:40     .text:0000000000000028 .L0 
     /tmp/ccxUk6vw.s:37     .text:000000000000002c .L0 
     /tmp/ccxUk6vw.s:39     .text:000000000000002c .L0 
src/kernel/riscv.cpp:41     .text:0000000000000030 .L0 
     /tmp/ccxUk6vw.s:46     .text:0000000000000034 .L0 
     /tmp/ccxUk6vw.s:48     .text:0000000000000034 .L0 
     /tmp/ccxUk6vw.s:56     .text:0000000000000040 .L0 
src/kernel/riscv.cpp:44     .text:0000000000000040 .L0 
     /tmp/ccxUk6vw.s:63     .text:0000000000000044 .L0 
     /tmp/ccxUk6vw.s:64     .text:0000000000000048 .L0 
     /tmp/ccxUk6vw.s:65     .text:0000000000000048 .L0 
     /tmp/ccxUk6vw.s:66     .text:0000000000000048 .L0 
     /tmp/ccxUk6vw.s:68     .text:000000000000004c .L0 
     /tmp/ccxUk6vw.s:71     .text:0000000000000050 .L0 
     /tmp/ccxUk6vw.s:73     .text:0000000000000050 .L0 
src/kernel/riscv.cpp:38     .text:0000000000000050 .L0 
     /tmp/ccxUk6vw.s:80     .text:0000000000000058 .L0 
     /tmp/ccxUk6vw.s:86     .text:0000000000000058 _ZN5RiscV28executeThreadDispatchSyscallEv
     /tmp/ccxUk6vw.s:89     .text:0000000000000058 .L0 
     /tmp/ccxUk6vw.s:90     .text:0000000000000058 .L0 
     /tmp/ccxUk6vw.s:91     .text:000000000000005c .L0 
     /tmp/ccxUk6vw.s:94     .text:0000000000000064 .L0 
     /tmp/ccxUk6vw.s:95     .text:0000000000000064 .L0 
     /tmp/ccxUk6vw.s:97     .text:0000000000000068 .L0 
     /tmp/ccxUk6vw.s:99     .text:0000000000000068 .L0 
     /tmp/ccxUk6vw.s:100    .text:0000000000000068 .L0 
     /tmp/ccxUk6vw.s:104    .text:0000000000000074 .L0 
     /tmp/ccxUk6vw.s:105    .text:0000000000000074 .L0 
     /tmp/ccxUk6vw.s:108    .text:000000000000007c .L0 
     /tmp/ccxUk6vw.s:109    .text:000000000000007c .L0 
     /tmp/ccxUk6vw.s:112    .text:0000000000000084 .L0 
     /tmp/ccxUk6vw.s:113    .text:0000000000000088 .L0 
     /tmp/ccxUk6vw.s:115    .text:000000000000008c .L0 
     /tmp/ccxUk6vw.s:116    .text:000000000000008c .L0 
     /tmp/ccxUk6vw.s:118    .text:0000000000000090 .L0 
     /tmp/ccxUk6vw.s:120    .text:0000000000000094 .L0 
     /tmp/ccxUk6vw.s:126    .text:0000000000000094 _ZN5RiscV18executePutcSyscallEv
     /tmp/ccxUk6vw.s:129    .text:0000000000000094 .L0 
     /tmp/ccxUk6vw.s:130    .text:0000000000000094 .L0 
     /tmp/ccxUk6vw.s:131    .text:0000000000000098 .L0 
     /tmp/ccxUk6vw.s:134    .text:00000000000000a0 .L0 
     /tmp/ccxUk6vw.s:135    .text:00000000000000a0 .L0 
     /tmp/ccxUk6vw.s:137    .text:00000000000000a4 .L0 
     /tmp/ccxUk6vw.s:139    .text:00000000000000a4 .L0 
GAS LISTING /tmp/ccxUk6vw.s 			page 110


     /tmp/ccxUk6vw.s:140    .text:00000000000000a4 .L0 
     /tmp/ccxUk6vw.s:142    .text:00000000000000ac .L0 
     /tmp/ccxUk6vw.s:144    .text:00000000000000b0 .L0 
     /tmp/ccxUk6vw.s:145    .text:00000000000000b0 .L0 
     /tmp/ccxUk6vw.s:151    .text:00000000000000c4 .L0 
     /tmp/ccxUk6vw.s:152    .text:00000000000000c4 .L0 
src/kernel/riscv.cpp:511    .text:00000000000000c4 .L0 
     /tmp/ccxUk6vw.s:159    .text:00000000000000c8 .L0 
     /tmp/ccxUk6vw.s:161    .text:00000000000000c8 .L0 
     /tmp/ccxUk6vw.s:165    .text:00000000000000d4 .L0 
     /tmp/ccxUk6vw.s:166    .text:00000000000000d8 .L0 
     /tmp/ccxUk6vw.s:168    .text:00000000000000dc .L0 
     /tmp/ccxUk6vw.s:169    .text:00000000000000dc .L0 
     /tmp/ccxUk6vw.s:171    .text:00000000000000e0 .L0 
     /tmp/ccxUk6vw.s:173    .text:00000000000000e4 .L0 
     /tmp/ccxUk6vw.s:179    .text:00000000000000e4 _ZN5RiscV29jumpToDesignatedPrivilegeModeEv
     /tmp/ccxUk6vw.s:182    .text:00000000000000e4 .L0 
     /tmp/ccxUk6vw.s:183    .text:00000000000000e4 .L0 
     /tmp/ccxUk6vw.s:184    .text:00000000000000e8 .L0 
     /tmp/ccxUk6vw.s:186    .text:00000000000000ec .L0 
     /tmp/ccxUk6vw.s:188    .text:00000000000000f0 .L0 
     /tmp/ccxUk6vw.s:190    .text:00000000000000f0 .L0 
     /tmp/ccxUk6vw.s:191    .text:00000000000000f0 .L0 
     /tmp/ccxUk6vw.s:195    .text:0000000000000100 .L0 
     /tmp/ccxUk6vw.s:202    .text:0000000000000108 .L0 
     /tmp/ccxUk6vw.s:203    .text:0000000000000108 .L0 
     /tmp/ccxUk6vw.s:204    .text:0000000000000108 .L0 
     /tmp/ccxUk6vw.s:215    .text:0000000000000110 .L0 
     /tmp/ccxUk6vw.s:216    .text:0000000000000114 .L0 
     /tmp/ccxUk6vw.s:217    .text:0000000000000114 .L0 
     /tmp/ccxUk6vw.s:218    .text:0000000000000114 .L0 
     /tmp/ccxUk6vw.s:220    .text:0000000000000118 .L0 
     /tmp/ccxUk6vw.s:223    .text:000000000000011c .L0 
     /tmp/ccxUk6vw.s:228    .text:000000000000011c .L0 
     /tmp/ccxUk6vw.s:229    .text:000000000000011c .L0 
     /tmp/ccxUk6vw.s:230    .text:000000000000011c .L0 
     /tmp/ccxUk6vw.s:237    .text:0000000000000124 .L0 
     /tmp/ccxUk6vw.s:240    .text:0000000000000128 .L0 
     /tmp/ccxUk6vw.s:246    .text:0000000000000128 _ZN5RiscV8finalizeEv
     /tmp/ccxUk6vw.s:249    .text:0000000000000128 .L0 
     /tmp/ccxUk6vw.s:250    .text:0000000000000128 .L0 
     /tmp/ccxUk6vw.s:251    .text:000000000000012c .L0 
     /tmp/ccxUk6vw.s:254    .text:0000000000000134 .L0 
     /tmp/ccxUk6vw.s:255    .text:0000000000000134 .L0 
     /tmp/ccxUk6vw.s:257    .text:0000000000000138 .L0 
     /tmp/ccxUk6vw.s:259    .text:0000000000000138 .L0 
     /tmp/ccxUk6vw.s:260    .text:0000000000000138 .L0 
     /tmp/ccxUk6vw.s:263    .text:0000000000000144 .L0 
     /tmp/ccxUk6vw.s:264    .text:0000000000000144 .L0 
     /tmp/ccxUk6vw.s:267    .text:0000000000000150 .L0 
     /tmp/ccxUk6vw.s:268    .text:0000000000000150 .L0 
     /tmp/ccxUk6vw.s:273    .text:000000000000015c .L0 
     /tmp/ccxUk6vw.s:276    .text:000000000000015c .L0 
     /tmp/ccxUk6vw.s:283    .text:000000000000015c .L0 
     /tmp/ccxUk6vw.s:284    .text:000000000000015c .L0 
     /tmp/ccxUk6vw.s:285    .text:000000000000015c .L0 
     /tmp/ccxUk6vw.s:298    .text:0000000000000164 .L0 
GAS LISTING /tmp/ccxUk6vw.s 			page 111


     /tmp/ccxUk6vw.s:304    .text:0000000000000164 .L0 
     /tmp/ccxUk6vw.s:305    .text:0000000000000164 .L0 
     /tmp/ccxUk6vw.s:306    .text:0000000000000164 .L0 
     /tmp/ccxUk6vw.s:320    .text:000000000000016c .L0 
     /tmp/ccxUk6vw.s:321    .text:000000000000016c .L0 
     /tmp/ccxUk6vw.s:325    .text:000000000000017c .L0 
     /tmp/ccxUk6vw.s:326    .text:000000000000017c .L0 
     /tmp/ccxUk6vw.s:328    .text:0000000000000180 .L0 
     /tmp/ccxUk6vw.s:331    .text:000000000000018c .L0 
     /tmp/ccxUk6vw.s:334    .text:0000000000000190 .L0 
     /tmp/ccxUk6vw.s:335    .text:0000000000000190 .L0 
     /tmp/ccxUk6vw.s:341    .text:00000000000001a4 .L0 
     /tmp/ccxUk6vw.s:342    .text:00000000000001a4 .L0 
     /tmp/ccxUk6vw.s:348    .text:00000000000001c0 .L0 
     /tmp/ccxUk6vw.s:349    .text:00000000000001c0 .L0 
     /tmp/ccxUk6vw.s:352    .text:00000000000001c8 .L0 
     /tmp/ccxUk6vw.s:355    .text:00000000000001cc .L0 
     /tmp/ccxUk6vw.s:356    .text:00000000000001d0 .L0 
     /tmp/ccxUk6vw.s:358    .text:00000000000001d4 .L0 
     /tmp/ccxUk6vw.s:359    .text:00000000000001d4 .L0 
     /tmp/ccxUk6vw.s:361    .text:00000000000001d8 .L0 
     /tmp/ccxUk6vw.s:363    .text:00000000000001dc .L0 
     /tmp/ccxUk6vw.s:369    .text:00000000000001dc _ZN5RiscV16saveA0toSscratchEv
     /tmp/ccxUk6vw.s:372    .text:00000000000001dc .L0 
     /tmp/ccxUk6vw.s:373    .text:00000000000001dc .L0 
     /tmp/ccxUk6vw.s:374    .text:00000000000001e0 .L0 
     /tmp/ccxUk6vw.s:376    .text:00000000000001e4 .L0 
     /tmp/ccxUk6vw.s:378    .text:00000000000001e8 .L0 
     /tmp/ccxUk6vw.s:380    .text:00000000000001e8 .L0 
     /tmp/ccxUk6vw.s:381    .text:00000000000001e8 .L0 
src/kernel/riscv.cpp:593    .text:00000000000001e8 .L0 
     /tmp/ccxUk6vw.s:387    .text:00000000000001ec .L0 
     /tmp/ccxUk6vw.s:389    .text:00000000000001ec .L0 
src/kernel/riscv.cpp:594    .text:00000000000001fc .L0 
     /tmp/ccxUk6vw.s:398    .text:0000000000000200 .L0 
src/kernel/riscv.cpp:595    .text:0000000000000200 .L0 
     /tmp/ccxUk6vw.s:403    .text:0000000000000204 .L0 
src/kernel/riscv.cpp:596    .text:0000000000000204 .L0 
     /tmp/ccxUk6vw.s:409    .text:0000000000000208 .L0 
     /tmp/ccxUk6vw.s:410    .text:000000000000020c .L0 
     /tmp/ccxUk6vw.s:411    .text:000000000000020c .L0 
     /tmp/ccxUk6vw.s:413    .text:0000000000000210 .L0 
     /tmp/ccxUk6vw.s:415    .text:0000000000000214 .L0 
     /tmp/ccxUk6vw.s:421    .text:0000000000000214 _ZN5RiscV22executeMemAllocSyscallEv
     /tmp/ccxUk6vw.s:424    .text:0000000000000214 .L0 
     /tmp/ccxUk6vw.s:425    .text:0000000000000214 .L0 
     /tmp/ccxUk6vw.s:426    .text:0000000000000218 .L0 
     /tmp/ccxUk6vw.s:429    .text:0000000000000220 .L0 
     /tmp/ccxUk6vw.s:430    .text:0000000000000220 .L0 
     /tmp/ccxUk6vw.s:432    .text:0000000000000224 .L0 
     /tmp/ccxUk6vw.s:434    .text:0000000000000224 .L0 
     /tmp/ccxUk6vw.s:435    .text:0000000000000224 .L0 
src/kernel/riscv.cpp:209    .text:0000000000000224 .L0 
     /tmp/ccxUk6vw.s:442    .text:0000000000000228 .L0 
     /tmp/ccxUk6vw.s:444    .text:0000000000000228 .L0 
     /tmp/ccxUk6vw.s:447    .text:0000000000000230 .L0 
src/kernel/riscv.cpp:214    .text:0000000000000230 .L0 
GAS LISTING /tmp/ccxUk6vw.s 			page 112


     /tmp/ccxUk6vw.s:453    .text:0000000000000234 .L0 
     /tmp/ccxUk6vw.s:455    .text:0000000000000234 .L0 
     /tmp/ccxUk6vw.s:458    .text:000000000000023c .L0 
     /tmp/ccxUk6vw.s:459    .text:0000000000000240 .L0 
     /tmp/ccxUk6vw.s:461    .text:0000000000000244 .L0 
     /tmp/ccxUk6vw.s:462    .text:0000000000000244 .L0 
     /tmp/ccxUk6vw.s:464    .text:0000000000000248 .L0 
     /tmp/ccxUk6vw.s:466    .text:000000000000024c .L0 
     /tmp/ccxUk6vw.s:472    .text:000000000000024c _ZN5RiscV21executeMemFreeSyscallEv
     /tmp/ccxUk6vw.s:475    .text:000000000000024c .L0 
     /tmp/ccxUk6vw.s:476    .text:000000000000024c .L0 
     /tmp/ccxUk6vw.s:477    .text:0000000000000250 .L0 
     /tmp/ccxUk6vw.s:480    .text:0000000000000258 .L0 
     /tmp/ccxUk6vw.s:481    .text:0000000000000258 .L0 
     /tmp/ccxUk6vw.s:483    .text:000000000000025c .L0 
     /tmp/ccxUk6vw.s:485    .text:000000000000025c .L0 
     /tmp/ccxUk6vw.s:486    .text:000000000000025c .L0 
     /tmp/ccxUk6vw.s:490    .text:000000000000026c .L0 
     /tmp/ccxUk6vw.s:494    .text:0000000000000270 .L0 
src/kernel/riscv.cpp:234    .text:0000000000000270 .L0 
     /tmp/ccxUk6vw.s:500    .text:0000000000000274 .L0 
     /tmp/ccxUk6vw.s:502    .text:0000000000000274 .L0 
     /tmp/ccxUk6vw.s:505    .text:000000000000027c .L0 
     /tmp/ccxUk6vw.s:506    .text:0000000000000280 .L0 
     /tmp/ccxUk6vw.s:507    .text:0000000000000280 .L0 
     /tmp/ccxUk6vw.s:509    .text:0000000000000284 .L0 
     /tmp/ccxUk6vw.s:510    .text:0000000000000284 .L0 
     /tmp/ccxUk6vw.s:512    .text:0000000000000288 .L0 
     /tmp/ccxUk6vw.s:515    .text:000000000000028c .L0 
     /tmp/ccxUk6vw.s:517    .text:000000000000028c .L0 
src/kernel/riscv.cpp:227    .text:000000000000028c .L0 
     /tmp/ccxUk6vw.s:524    .text:0000000000000290 .L0 
     /tmp/ccxUk6vw.s:526    .text:0000000000000290 .L0 
     /tmp/ccxUk6vw.s:529    .text:0000000000000298 .L0 
     /tmp/ccxUk6vw.s:530    .text:000000000000029c .L0 
     /tmp/ccxUk6vw.s:536    .text:000000000000029c _ZN5RiscV26executeThreadCreateSyscallEv
     /tmp/ccxUk6vw.s:539    .text:000000000000029c .L0 
     /tmp/ccxUk6vw.s:12831  .data.rel.local.DW.ref.__gxx_personality_v0:0000000000000000 DW.ref.__gxx_personality_v0
     /tmp/ccxUk6vw.s:542    .text:000000000000029c .L0 
     /tmp/ccxUk6vw.s:543    .text:00000000000002a0 .L0 
     /tmp/ccxUk6vw.s:551    .text:00000000000002bc .L0 
     /tmp/ccxUk6vw.s:552    .text:00000000000002bc .L0 
     /tmp/ccxUk6vw.s:553    .text:00000000000002bc .L0 
     /tmp/ccxUk6vw.s:554    .text:00000000000002bc .L0 
     /tmp/ccxUk6vw.s:555    .text:00000000000002bc .L0 
     /tmp/ccxUk6vw.s:556    .text:00000000000002bc .L0 
     /tmp/ccxUk6vw.s:557    .text:00000000000002bc .L0 
     /tmp/ccxUk6vw.s:559    .text:00000000000002c0 .L0 
     /tmp/ccxUk6vw.s:561    .text:00000000000002c0 .L0 
     /tmp/ccxUk6vw.s:562    .text:00000000000002c0 .L0 
src/kernel/riscv.cpp:244    .text:00000000000002c0 .L0 
     /tmp/ccxUk6vw.s:569    .text:00000000000002c4 .L0 
src/kernel/riscv.cpp:245    .text:00000000000002c4 .L0 
     /tmp/ccxUk6vw.s:575    .text:00000000000002c8 .L0 
src/kernel/riscv.cpp:246    .text:00000000000002c8 .L0 
     /tmp/ccxUk6vw.s:581    .text:00000000000002cc .L0 
src/kernel/riscv.cpp:247    .text:00000000000002cc .L0 
GAS LISTING /tmp/ccxUk6vw.s 			page 113


     /tmp/ccxUk6vw.s:587    .text:00000000000002d0 .L0 
     /tmp/ccxUk6vw.s:589    .text:00000000000002d0 .L0 
     /tmp/ccxUk6vw.s:597    .text:00000000000002e4 .L0 
     /tmp/ccxUk6vw.s:607    .text:00000000000002fc .L0 
     /tmp/ccxUk6vw.s:608    .text:00000000000002fc .L0 
     /tmp/ccxUk6vw.s:610    .text:0000000000000300 .L0 
     /tmp/ccxUk6vw.s:611    .text:0000000000000300 .L0 
     /tmp/ccxUk6vw.s:613    .text:0000000000000304 .L0 
     /tmp/ccxUk6vw.s:615    .text:0000000000000308 .L0 
     /tmp/ccxUk6vw.s:616    .text:0000000000000308 .L0 
     /tmp/ccxUk6vw.s:623    .text:0000000000000314 .L0 
     /tmp/ccxUk6vw.s:624    .text:0000000000000314 .L0 
     /tmp/ccxUk6vw.s:626    .text:0000000000000318 .L0 
     /tmp/ccxUk6vw.s:630    .text:000000000000031c .L0 
src/kernel/riscv.cpp:264    .text:000000000000031c .L0 
     /tmp/ccxUk6vw.s:636    .text:0000000000000320 .L0 
     /tmp/ccxUk6vw.s:638    .text:0000000000000320 .L0 
     /tmp/ccxUk6vw.s:641    .text:0000000000000328 .L0 
     /tmp/ccxUk6vw.s:642    .text:000000000000032c .L0 
     /tmp/ccxUk6vw.s:643    .text:000000000000032c .L0 
     /tmp/ccxUk6vw.s:645    .text:0000000000000330 .L0 
     /tmp/ccxUk6vw.s:646    .text:0000000000000330 .L0 
     /tmp/ccxUk6vw.s:648    .text:0000000000000334 .L0 
     /tmp/ccxUk6vw.s:651    .text:0000000000000338 .L0 
     /tmp/ccxUk6vw.s:654    .text:000000000000033c .L0 
     /tmp/ccxUk6vw.s:657    .text:0000000000000340 .L0 
     /tmp/ccxUk6vw.s:660    .text:0000000000000344 .L0 
     /tmp/ccxUk6vw.s:663    .text:0000000000000348 .L0 
     /tmp/ccxUk6vw.s:667    .text:000000000000034c .L0 
     /tmp/ccxUk6vw.s:669    .text:000000000000034c .L0 
     /tmp/ccxUk6vw.s:676    .text:0000000000000358 .L0 
     /tmp/ccxUk6vw.s:684    .text:0000000000000370 .L0 
     /tmp/ccxUk6vw.s:714    .text:0000000000000370 _ZN5RiscV30executeThreadAttachBodySyscallEv
     /tmp/ccxUk6vw.s:717    .text:0000000000000370 .L0 
     /tmp/ccxUk6vw.s:720    .text:0000000000000370 .L0 
     /tmp/ccxUk6vw.s:721    .text:0000000000000374 .L0 
     /tmp/ccxUk6vw.s:729    .text:0000000000000390 .L0 
     /tmp/ccxUk6vw.s:730    .text:0000000000000390 .L0 
     /tmp/ccxUk6vw.s:731    .text:0000000000000390 .L0 
     /tmp/ccxUk6vw.s:732    .text:0000000000000390 .L0 
     /tmp/ccxUk6vw.s:733    .text:0000000000000390 .L0 
     /tmp/ccxUk6vw.s:734    .text:0000000000000390 .L0 
     /tmp/ccxUk6vw.s:735    .text:0000000000000390 .L0 
     /tmp/ccxUk6vw.s:737    .text:0000000000000394 .L0 
     /tmp/ccxUk6vw.s:739    .text:0000000000000394 .L0 
     /tmp/ccxUk6vw.s:740    .text:0000000000000394 .L0 
src/kernel/riscv.cpp:275    .text:0000000000000394 .L0 
     /tmp/ccxUk6vw.s:747    .text:0000000000000398 .L0 
src/kernel/riscv.cpp:276    .text:0000000000000398 .L0 
     /tmp/ccxUk6vw.s:753    .text:000000000000039c .L0 
src/kernel/riscv.cpp:277    .text:000000000000039c .L0 
     /tmp/ccxUk6vw.s:759    .text:00000000000003a0 .L0 
src/kernel/riscv.cpp:278    .text:00000000000003a0 .L0 
     /tmp/ccxUk6vw.s:765    .text:00000000000003a4 .L0 
     /tmp/ccxUk6vw.s:767    .text:00000000000003a4 .L0 
     /tmp/ccxUk6vw.s:775    .text:00000000000003b8 .L0 
     /tmp/ccxUk6vw.s:785    .text:00000000000003d0 .L0 
GAS LISTING /tmp/ccxUk6vw.s 			page 114


     /tmp/ccxUk6vw.s:786    .text:00000000000003d0 .L0 
     /tmp/ccxUk6vw.s:788    .text:00000000000003d4 .L0 
     /tmp/ccxUk6vw.s:789    .text:00000000000003d4 .L0 
     /tmp/ccxUk6vw.s:791    .text:00000000000003d8 .L0 
     /tmp/ccxUk6vw.s:792    .text:00000000000003d8 .L0 
     /tmp/ccxUk6vw.s:794    .text:00000000000003dc .L0 
     /tmp/ccxUk6vw.s:795    .text:00000000000003dc .L0 
     /tmp/ccxUk6vw.s:797    .text:00000000000003e0 .L0 
     /tmp/ccxUk6vw.s:801    .text:00000000000003e4 .L0 
src/kernel/riscv.cpp:293    .text:00000000000003e4 .L0 
     /tmp/ccxUk6vw.s:807    .text:00000000000003e8 .L0 
     /tmp/ccxUk6vw.s:809    .text:00000000000003e8 .L0 
     /tmp/ccxUk6vw.s:812    .text:00000000000003f0 .L0 
     /tmp/ccxUk6vw.s:813    .text:00000000000003f4 .L0 
     /tmp/ccxUk6vw.s:814    .text:00000000000003f4 .L0 
     /tmp/ccxUk6vw.s:816    .text:00000000000003f8 .L0 
     /tmp/ccxUk6vw.s:817    .text:00000000000003f8 .L0 
     /tmp/ccxUk6vw.s:819    .text:00000000000003fc .L0 
     /tmp/ccxUk6vw.s:822    .text:0000000000000400 .L0 
     /tmp/ccxUk6vw.s:825    .text:0000000000000404 .L0 
     /tmp/ccxUk6vw.s:828    .text:0000000000000408 .L0 
     /tmp/ccxUk6vw.s:831    .text:000000000000040c .L0 
     /tmp/ccxUk6vw.s:834    .text:0000000000000410 .L0 
     /tmp/ccxUk6vw.s:838    .text:0000000000000414 .L0 
     /tmp/ccxUk6vw.s:840    .text:0000000000000414 .L0 
     /tmp/ccxUk6vw.s:847    .text:0000000000000420 .L0 
     /tmp/ccxUk6vw.s:855    .text:0000000000000438 .L0 
     /tmp/ccxUk6vw.s:880    .text:0000000000000438 _ZN5RiscV25executeThreadStartSyscallEv
     /tmp/ccxUk6vw.s:883    .text:0000000000000438 .L0 
     /tmp/ccxUk6vw.s:884    .text:0000000000000438 .L0 
     /tmp/ccxUk6vw.s:885    .text:000000000000043c .L0 
     /tmp/ccxUk6vw.s:888    .text:0000000000000444 .L0 
     /tmp/ccxUk6vw.s:889    .text:0000000000000444 .L0 
     /tmp/ccxUk6vw.s:891    .text:0000000000000448 .L0 
     /tmp/ccxUk6vw.s:893    .text:0000000000000448 .L0 
     /tmp/ccxUk6vw.s:894    .text:0000000000000448 .L0 
src/kernel/riscv.cpp:303    .text:0000000000000448 .L0 
     /tmp/ccxUk6vw.s:901    .text:000000000000044c .L0 
     /tmp/ccxUk6vw.s:902    .text:000000000000044c .L0 
     /tmp/ccxUk6vw.s:904    .text:000000000000044c .L0 
     /tmp/ccxUk6vw.s:906    .text:0000000000000450 .L0 
     /tmp/ccxUk6vw.s:910    .text:0000000000000454 .L0 
src/kernel/riscv.cpp:320    .text:0000000000000454 .L0 
     /tmp/ccxUk6vw.s:916    .text:0000000000000458 .L0 
     /tmp/ccxUk6vw.s:918    .text:0000000000000458 .L0 
     /tmp/ccxUk6vw.s:921    .text:0000000000000460 .L0 
     /tmp/ccxUk6vw.s:922    .text:0000000000000464 .L0 
     /tmp/ccxUk6vw.s:923    .text:0000000000000464 .L0 
     /tmp/ccxUk6vw.s:925    .text:0000000000000468 .L0 
     /tmp/ccxUk6vw.s:926    .text:0000000000000468 .L0 
     /tmp/ccxUk6vw.s:928    .text:000000000000046c .L0 
     /tmp/ccxUk6vw.s:932    .text:0000000000000470 .L0 
     /tmp/ccxUk6vw.s:934    .text:0000000000000470 .L0 
     /tmp/ccxUk6vw.s:935    .text:0000000000000470 .L0 
     /tmp/ccxUk6vw.s:938    .text:0000000000000478 .L0 
     /tmp/ccxUk6vw.s:939    .text:0000000000000478 .L0 
     /tmp/ccxUk6vw.s:942    .text:0000000000000480 .L0 
GAS LISTING /tmp/ccxUk6vw.s 			page 115


     /tmp/ccxUk6vw.s:943    .text:0000000000000480 .L0 
     /tmp/ccxUk6vw.s:946    .text:0000000000000488 .L0 
     /tmp/ccxUk6vw.s:948    .text:0000000000000490 .L0 
     /tmp/ccxUk6vw.s:954    .text:0000000000000490 _ZN5RiscV24executeThreadExitSyscallEv
     /tmp/ccxUk6vw.s:957    .text:0000000000000490 .L0 
     /tmp/ccxUk6vw.s:958    .text:0000000000000490 .L0 
     /tmp/ccxUk6vw.s:959    .text:0000000000000494 .L0 
     /tmp/ccxUk6vw.s:962    .text:000000000000049c .L0 
     /tmp/ccxUk6vw.s:963    .text:000000000000049c .L0 
     /tmp/ccxUk6vw.s:965    .text:00000000000004a0 .L0 
     /tmp/ccxUk6vw.s:968    .text:00000000000004a0 .L0 
     /tmp/ccxUk6vw.s:970    .text:00000000000004a0 .L0 
     /tmp/ccxUk6vw.s:971    .text:00000000000004a0 .L0 
     /tmp/ccxUk6vw.s:974    .text:00000000000004ac .L0 
     /tmp/ccxUk6vw.s:978    .text:00000000000004b0 .L0 
     /tmp/ccxUk6vw.s:979    .text:00000000000004b0 .L0 
     /tmp/ccxUk6vw.s:980    .text:00000000000004b0 .L0 
     /tmp/ccxUk6vw.s:983    .text:00000000000004b8 .L0 
     /tmp/ccxUk6vw.s:984    .text:00000000000004b8 .L0 
     /tmp/ccxUk6vw.s:989    .text:00000000000004c0 .L0 
     /tmp/ccxUk6vw.s:993    .text:00000000000004c4 .L0 
src/kernel/riscv.cpp:340    .text:00000000000004c4 .L0 
     /tmp/ccxUk6vw.s:999    .text:00000000000004c8 .L0 
     /tmp/ccxUk6vw.s:1001   .text:00000000000004c8 .L0 
     /tmp/ccxUk6vw.s:1004   .text:00000000000004d0 .L0 
     /tmp/ccxUk6vw.s:1005   .text:00000000000004d4 .L0 
     /tmp/ccxUk6vw.s:1006   .text:00000000000004d4 .L0 
     /tmp/ccxUk6vw.s:1008   .text:00000000000004d8 .L0 
     /tmp/ccxUk6vw.s:1009   .text:00000000000004d8 .L0 
     /tmp/ccxUk6vw.s:1011   .text:00000000000004dc .L0 
     /tmp/ccxUk6vw.s:1015   .text:00000000000004e0 .L0 
     /tmp/ccxUk6vw.s:1018   .text:00000000000004e0 .L0 
     /tmp/ccxUk6vw.s:1021   .text:00000000000004e8 .L0 
     /tmp/ccxUk6vw.s:1027   .text:00000000000004e8 _ZN5RiscV21executeSemOpenSyscallEv
     /tmp/ccxUk6vw.s:1030   .text:00000000000004e8 .L0 
     /tmp/ccxUk6vw.s:1033   .text:00000000000004e8 .L0 
     /tmp/ccxUk6vw.s:1034   .text:00000000000004ec .L0 
     /tmp/ccxUk6vw.s:1040   .text:0000000000000500 .L0 
     /tmp/ccxUk6vw.s:1041   .text:0000000000000500 .L0 
     /tmp/ccxUk6vw.s:1042   .text:0000000000000500 .L0 
     /tmp/ccxUk6vw.s:1043   .text:0000000000000500 .L0 
     /tmp/ccxUk6vw.s:1044   .text:0000000000000500 .L0 
     /tmp/ccxUk6vw.s:1046   .text:0000000000000504 .L0 
     /tmp/ccxUk6vw.s:1048   .text:0000000000000504 .L0 
     /tmp/ccxUk6vw.s:1049   .text:0000000000000504 .L0 
src/kernel/riscv.cpp:358    .text:0000000000000504 .L0 
     /tmp/ccxUk6vw.s:1056   .text:0000000000000508 .L0 
src/kernel/riscv.cpp:359    .text:0000000000000508 .L0 
     /tmp/ccxUk6vw.s:1062   .text:000000000000050c .L0 
     /tmp/ccxUk6vw.s:1064   .text:000000000000050c .L0 
     /tmp/ccxUk6vw.s:1072   .text:0000000000000520 .L0 
     /tmp/ccxUk6vw.s:1079   .text:000000000000052c .L0 
     /tmp/ccxUk6vw.s:1080   .text:000000000000052c .L0 
     /tmp/ccxUk6vw.s:1082   .text:0000000000000530 .L0 
     /tmp/ccxUk6vw.s:1083   .text:0000000000000530 .L0 
     /tmp/ccxUk6vw.s:1085   .text:0000000000000534 .L0 
     /tmp/ccxUk6vw.s:1089   .text:0000000000000538 .L0 
GAS LISTING /tmp/ccxUk6vw.s 			page 116


src/kernel/riscv.cpp:374    .text:0000000000000538 .L0 
     /tmp/ccxUk6vw.s:1095   .text:000000000000053c .L0 
     /tmp/ccxUk6vw.s:1097   .text:000000000000053c .L0 
     /tmp/ccxUk6vw.s:1100   .text:0000000000000544 .L0 
     /tmp/ccxUk6vw.s:1101   .text:0000000000000548 .L0 
     /tmp/ccxUk6vw.s:1102   .text:0000000000000548 .L0 
     /tmp/ccxUk6vw.s:1104   .text:000000000000054c .L0 
     /tmp/ccxUk6vw.s:1105   .text:000000000000054c .L0 
     /tmp/ccxUk6vw.s:1107   .text:0000000000000550 .L0 
     /tmp/ccxUk6vw.s:1110   .text:0000000000000554 .L0 
     /tmp/ccxUk6vw.s:1113   .text:0000000000000558 .L0 
     /tmp/ccxUk6vw.s:1116   .text:000000000000055c .L0 
     /tmp/ccxUk6vw.s:1120   .text:0000000000000560 .L0 
     /tmp/ccxUk6vw.s:1122   .text:0000000000000560 .L0 
     /tmp/ccxUk6vw.s:1129   .text:000000000000056c .L0 
     /tmp/ccxUk6vw.s:1137   .text:0000000000000584 .L0 
     /tmp/ccxUk6vw.s:1162   .text:0000000000000584 _ZN5RiscV22executeSemCloseSyscallEv
     /tmp/ccxUk6vw.s:1165   .text:0000000000000584 .L0 
     /tmp/ccxUk6vw.s:1166   .text:0000000000000584 .L0 
     /tmp/ccxUk6vw.s:1167   .text:0000000000000588 .L0 
     /tmp/ccxUk6vw.s:1171   .text:0000000000000594 .L0 
     /tmp/ccxUk6vw.s:1172   .text:0000000000000594 .L0 
     /tmp/ccxUk6vw.s:1173   .text:0000000000000594 .L0 
     /tmp/ccxUk6vw.s:1175   .text:0000000000000598 .L0 
     /tmp/ccxUk6vw.s:1177   .text:0000000000000598 .L0 
     /tmp/ccxUk6vw.s:1178   .text:0000000000000598 .L0 
src/kernel/riscv.cpp:385    .text:0000000000000598 .L0 
     /tmp/ccxUk6vw.s:1185   .text:000000000000059c .L0 
     /tmp/ccxUk6vw.s:1186   .text:000000000000059c .L0 
     /tmp/ccxUk6vw.s:1188   .text:000000000000059c .L0 
     /tmp/ccxUk6vw.s:1190   .text:00000000000005a0 .L0 
     /tmp/ccxUk6vw.s:1194   .text:00000000000005a4 .L0 
src/kernel/riscv.cpp:398    .text:00000000000005a4 .L0 
     /tmp/ccxUk6vw.s:1200   .text:00000000000005a8 .L0 
     /tmp/ccxUk6vw.s:1202   .text:00000000000005a8 .L0 
     /tmp/ccxUk6vw.s:1205   .text:00000000000005b0 .L0 
     /tmp/ccxUk6vw.s:1206   .text:00000000000005b4 .L0 
     /tmp/ccxUk6vw.s:1207   .text:00000000000005b4 .L0 
     /tmp/ccxUk6vw.s:1209   .text:00000000000005b8 .L0 
     /tmp/ccxUk6vw.s:1210   .text:00000000000005b8 .L0 
     /tmp/ccxUk6vw.s:1212   .text:00000000000005bc .L0 
     /tmp/ccxUk6vw.s:1215   .text:00000000000005c0 .L0 
     /tmp/ccxUk6vw.s:1219   .text:00000000000005c4 .L0 
     /tmp/ccxUk6vw.s:1221   .text:00000000000005c4 .L0 
     /tmp/ccxUk6vw.s:1222   .text:00000000000005c4 .L0 
     /tmp/ccxUk6vw.s:1229   .text:00000000000005dc .L0 
     /tmp/ccxUk6vw.s:1231   .text:00000000000005e4 .L0 
     /tmp/ccxUk6vw.s:1237   .text:00000000000005e4 _ZN5RiscV21executeSemWaitSyscallEv
     /tmp/ccxUk6vw.s:1240   .text:00000000000005e4 .L0 
     /tmp/ccxUk6vw.s:1241   .text:00000000000005e4 .L0 
     /tmp/ccxUk6vw.s:1242   .text:00000000000005e8 .L0 
     /tmp/ccxUk6vw.s:1245   .text:00000000000005f0 .L0 
     /tmp/ccxUk6vw.s:1246   .text:00000000000005f0 .L0 
     /tmp/ccxUk6vw.s:1248   .text:00000000000005f4 .L0 
     /tmp/ccxUk6vw.s:1250   .text:00000000000005f4 .L0 
     /tmp/ccxUk6vw.s:1251   .text:00000000000005f4 .L0 
src/kernel/riscv.cpp:408    .text:00000000000005f4 .L0 
GAS LISTING /tmp/ccxUk6vw.s 			page 117


     /tmp/ccxUk6vw.s:1258   .text:00000000000005f8 .L0 
     /tmp/ccxUk6vw.s:1260   .text:00000000000005f8 .L0 
     /tmp/ccxUk6vw.s:1264   .text:00000000000005fc .L0 
     /tmp/ccxUk6vw.s:1265   .text:00000000000005fc .L0 
     /tmp/ccxUk6vw.s:1269   .text:000000000000060c .L0 
     /tmp/ccxUk6vw.s:1271   .text:0000000000000610 .L0 
     /tmp/ccxUk6vw.s:1275   .text:0000000000000614 .L0 
src/kernel/riscv.cpp:424    .text:0000000000000614 .L0 
     /tmp/ccxUk6vw.s:1281   .text:0000000000000618 .L0 
     /tmp/ccxUk6vw.s:1283   .text:0000000000000618 .L0 
     /tmp/ccxUk6vw.s:1286   .text:0000000000000620 .L0 
     /tmp/ccxUk6vw.s:1287   .text:0000000000000624 .L0 
     /tmp/ccxUk6vw.s:1288   .text:0000000000000624 .L0 
     /tmp/ccxUk6vw.s:1290   .text:0000000000000628 .L0 
     /tmp/ccxUk6vw.s:1291   .text:0000000000000628 .L0 
     /tmp/ccxUk6vw.s:1293   .text:000000000000062c .L0 
     /tmp/ccxUk6vw.s:1297   .text:0000000000000630 .L0 
     /tmp/ccxUk6vw.s:1299   .text:0000000000000630 .L0 
     /tmp/ccxUk6vw.s:1300   .text:0000000000000630 .L0 
     /tmp/ccxUk6vw.s:1306   .text:000000000000063c .L0 
     /tmp/ccxUk6vw.s:1308   .text:0000000000000644 .L0 
     /tmp/ccxUk6vw.s:1314   .text:0000000000000644 _ZN5RiscV23executeSemSignalSyscallEv
     /tmp/ccxUk6vw.s:1317   .text:0000000000000644 .L0 
     /tmp/ccxUk6vw.s:1318   .text:0000000000000644 .L0 
     /tmp/ccxUk6vw.s:1319   .text:0000000000000648 .L0 
     /tmp/ccxUk6vw.s:1322   .text:0000000000000650 .L0 
     /tmp/ccxUk6vw.s:1323   .text:0000000000000650 .L0 
     /tmp/ccxUk6vw.s:1325   .text:0000000000000654 .L0 
     /tmp/ccxUk6vw.s:1327   .text:0000000000000654 .L0 
     /tmp/ccxUk6vw.s:1328   .text:0000000000000654 .L0 
src/kernel/riscv.cpp:435    .text:0000000000000654 .L0 
     /tmp/ccxUk6vw.s:1335   .text:0000000000000658 .L0 
     /tmp/ccxUk6vw.s:1337   .text:0000000000000658 .L0 
     /tmp/ccxUk6vw.s:1339   .text:000000000000065c .L0 
     /tmp/ccxUk6vw.s:1343   .text:0000000000000660 .L0 
src/kernel/riscv.cpp:447    .text:0000000000000660 .L0 
     /tmp/ccxUk6vw.s:1349   .text:0000000000000664 .L0 
     /tmp/ccxUk6vw.s:1351   .text:0000000000000664 .L0 
     /tmp/ccxUk6vw.s:1354   .text:000000000000066c .L0 
     /tmp/ccxUk6vw.s:1355   .text:0000000000000670 .L0 
     /tmp/ccxUk6vw.s:1356   .text:0000000000000670 .L0 
     /tmp/ccxUk6vw.s:1358   .text:0000000000000674 .L0 
     /tmp/ccxUk6vw.s:1359   .text:0000000000000674 .L0 
     /tmp/ccxUk6vw.s:1361   .text:0000000000000678 .L0 
     /tmp/ccxUk6vw.s:1365   .text:000000000000067c .L0 
     /tmp/ccxUk6vw.s:1367   .text:000000000000067c .L0 
     /tmp/ccxUk6vw.s:1368   .text:000000000000067c .L0 
     /tmp/ccxUk6vw.s:1371   .text:0000000000000684 .L0 
     /tmp/ccxUk6vw.s:1373   .text:000000000000068c .L0 
     /tmp/ccxUk6vw.s:1379   .text:000000000000068c _ZN5RiscV23executeTimeSleepSyscallEv
     /tmp/ccxUk6vw.s:1382   .text:000000000000068c .L0 
     /tmp/ccxUk6vw.s:1383   .text:000000000000068c .L0 
     /tmp/ccxUk6vw.s:1384   .text:0000000000000690 .L0 
     /tmp/ccxUk6vw.s:1388   .text:000000000000069c .L0 
     /tmp/ccxUk6vw.s:1389   .text:000000000000069c .L0 
     /tmp/ccxUk6vw.s:1390   .text:000000000000069c .L0 
     /tmp/ccxUk6vw.s:1392   .text:00000000000006a0 .L0 
GAS LISTING /tmp/ccxUk6vw.s 			page 118


     /tmp/ccxUk6vw.s:1394   .text:00000000000006a0 .L0 
     /tmp/ccxUk6vw.s:1395   .text:00000000000006a0 .L0 
src/kernel/riscv.cpp:457    .text:00000000000006a0 .L0 
     /tmp/ccxUk6vw.s:1401   .text:00000000000006a4 .L0 
     /tmp/ccxUk6vw.s:1403   .text:00000000000006a4 .L0 
     /tmp/ccxUk6vw.s:1407   .text:00000000000006b0 .L0 
     /tmp/ccxUk6vw.s:1408   .text:00000000000006b0 .L0 
     /tmp/ccxUk6vw.s:1411   .text:00000000000006bc .L0 
     /tmp/ccxUk6vw.s:1412   .text:00000000000006bc .L0 
     /tmp/ccxUk6vw.s:1414   .text:00000000000006c0 .L0 
     /tmp/ccxUk6vw.s:1416   .text:00000000000006c4 .L0 
     /tmp/ccxUk6vw.s:1417   .text:00000000000006c4 .L0 
     /tmp/ccxUk6vw.s:1421   .text:00000000000006d0 .L0 
     /tmp/ccxUk6vw.s:1422   .text:00000000000006d0 .L0 
     /tmp/ccxUk6vw.s:1425   .text:00000000000006d8 .L0 
     /tmp/ccxUk6vw.s:1426   .text:00000000000006d8 .L0 
     /tmp/ccxUk6vw.s:1429   .text:00000000000006e0 .L0 
     /tmp/ccxUk6vw.s:1430   .text:00000000000006e0 .L0 
     /tmp/ccxUk6vw.s:1431   .text:00000000000006e0 .L0 
     /tmp/ccxUk6vw.s:1437   .text:00000000000006e8 .L0 
     /tmp/ccxUk6vw.s:1439   .text:00000000000006e8 .L0 
     /tmp/ccxUk6vw.s:1442   .text:00000000000006f0 .L0 
     /tmp/ccxUk6vw.s:1443   .text:00000000000006f4 .L0 
     /tmp/ccxUk6vw.s:1445   .text:00000000000006f8 .L0 
     /tmp/ccxUk6vw.s:1446   .text:00000000000006f8 .L0 
     /tmp/ccxUk6vw.s:1448   .text:00000000000006fc .L0 
     /tmp/ccxUk6vw.s:1451   .text:0000000000000700 .L0 
     /tmp/ccxUk6vw.s:1453   .text:0000000000000704 .L0 
     /tmp/ccxUk6vw.s:1459   .text:0000000000000704 _ZN5RiscV18executeGetcSyscallEv
     /tmp/ccxUk6vw.s:1462   .text:0000000000000704 .L0 
     /tmp/ccxUk6vw.s:1463   .text:0000000000000704 .L0 
     /tmp/ccxUk6vw.s:1464   .text:0000000000000708 .L0 
     /tmp/ccxUk6vw.s:1468   .text:0000000000000714 .L0 
     /tmp/ccxUk6vw.s:1469   .text:0000000000000714 .L0 
     /tmp/ccxUk6vw.s:1470   .text:0000000000000714 .L0 
     /tmp/ccxUk6vw.s:1472   .text:0000000000000718 .L0 
     /tmp/ccxUk6vw.s:1474   .text:0000000000000718 .L0 
     /tmp/ccxUk6vw.s:1475   .text:0000000000000718 .L0 
     /tmp/ccxUk6vw.s:1477   .text:0000000000000720 .L0 
     /tmp/ccxUk6vw.s:1479   .text:0000000000000724 .L0 
     /tmp/ccxUk6vw.s:1480   .text:0000000000000724 .L0 
     /tmp/ccxUk6vw.s:1486   .text:0000000000000738 .L0 
     /tmp/ccxUk6vw.s:1487   .text:0000000000000738 .L0 
     /tmp/ccxUk6vw.s:1492   .text:0000000000000744 .L0 
     /tmp/ccxUk6vw.s:1495   .text:000000000000074c .L0 
     /tmp/ccxUk6vw.s:1500   .text:0000000000000754 .L0 
src/kernel/riscv.cpp:498    .text:0000000000000754 .L0 
     /tmp/ccxUk6vw.s:1506   .text:0000000000000758 .L0 
     /tmp/ccxUk6vw.s:1508   .text:0000000000000758 .L0 
     /tmp/ccxUk6vw.s:1511   .text:0000000000000760 .L0 
     /tmp/ccxUk6vw.s:1512   .text:0000000000000764 .L0 
     /tmp/ccxUk6vw.s:1513   .text:0000000000000764 .L0 
     /tmp/ccxUk6vw.s:1515   .text:0000000000000768 .L0 
     /tmp/ccxUk6vw.s:1516   .text:0000000000000768 .L0 
     /tmp/ccxUk6vw.s:1518   .text:000000000000076c .L0 
     /tmp/ccxUk6vw.s:1520   .text:0000000000000770 .L0 
     /tmp/ccxUk6vw.s:1524   .text:0000000000000774 .L0 
GAS LISTING /tmp/ccxUk6vw.s 			page 119


     /tmp/ccxUk6vw.s:1526   .text:0000000000000774 .L0 
     /tmp/ccxUk6vw.s:1527   .text:0000000000000774 .L0 
     /tmp/ccxUk6vw.s:1532   .text:0000000000000780 .L0 
     /tmp/ccxUk6vw.s:1533   .text:0000000000000780 .L0 
     /tmp/ccxUk6vw.s:1540   .text:0000000000000790 .L0 
     /tmp/ccxUk6vw.s:1541   .text:0000000000000790 .L0 
     /tmp/ccxUk6vw.s:1544   .text:000000000000079c .L0 
     /tmp/ccxUk6vw.s:1550   .text:000000000000079c _ZN5RiscV22executePutcUtilSyscallEv
     /tmp/ccxUk6vw.s:1553   .text:000000000000079c .L0 
     /tmp/ccxUk6vw.s:1554   .text:000000000000079c .L0 
     /tmp/ccxUk6vw.s:1555   .text:00000000000007a0 .L0 
     /tmp/ccxUk6vw.s:1558   .text:00000000000007a8 .L0 
     /tmp/ccxUk6vw.s:1559   .text:00000000000007a8 .L0 
     /tmp/ccxUk6vw.s:1561   .text:00000000000007ac .L0 
     /tmp/ccxUk6vw.s:1563   .text:00000000000007ac .L0 
     /tmp/ccxUk6vw.s:1564   .text:00000000000007ac .L0 
     /tmp/ccxUk6vw.s:1567   .text:00000000000007b4 .L0 
src/kernel/riscv.cpp:553    .text:00000000000007b4 .L0 
     /tmp/ccxUk6vw.s:1573   .text:00000000000007b8 .L0 
     /tmp/ccxUk6vw.s:1575   .text:00000000000007b8 .L0 
     /tmp/ccxUk6vw.s:1578   .text:00000000000007c0 .L0 
     /tmp/ccxUk6vw.s:1579   .text:00000000000007c4 .L0 
     /tmp/ccxUk6vw.s:1581   .text:00000000000007c8 .L0 
     /tmp/ccxUk6vw.s:1582   .text:00000000000007c8 .L0 
     /tmp/ccxUk6vw.s:1584   .text:00000000000007cc .L0 
     /tmp/ccxUk6vw.s:1586   .text:00000000000007d0 .L0 
     /tmp/ccxUk6vw.s:1592   .text:00000000000007d0 _ZN5RiscV24executeThreadFreeSyscallEv
     /tmp/ccxUk6vw.s:1595   .text:00000000000007d0 .L0 
     /tmp/ccxUk6vw.s:1596   .text:00000000000007d0 .L0 
     /tmp/ccxUk6vw.s:1597   .text:00000000000007d4 .L0 
     /tmp/ccxUk6vw.s:1601   .text:00000000000007e0 .L0 
     /tmp/ccxUk6vw.s:1602   .text:00000000000007e0 .L0 
     /tmp/ccxUk6vw.s:1603   .text:00000000000007e0 .L0 
     /tmp/ccxUk6vw.s:1605   .text:00000000000007e4 .L0 
     /tmp/ccxUk6vw.s:1607   .text:00000000000007e4 .L0 
     /tmp/ccxUk6vw.s:1608   .text:00000000000007e4 .L0 
src/kernel/riscv.cpp:603    .text:00000000000007e4 .L0 
     /tmp/ccxUk6vw.s:1615   .text:00000000000007e8 .L0 
     /tmp/ccxUk6vw.s:1617   .text:00000000000007e8 .L0 
     /tmp/ccxUk6vw.s:1621   .text:00000000000007ec .L0 
     /tmp/ccxUk6vw.s:1622   .text:00000000000007ec .L0 
     /tmp/ccxUk6vw.s:1628   .text:00000000000007f4 .L0 
     /tmp/ccxUk6vw.s:1630   .text:00000000000007f4 .L0 
     /tmp/ccxUk6vw.s:1633   .text:00000000000007fc .L0 
     /tmp/ccxUk6vw.s:1634   .text:0000000000000800 .L0 
     /tmp/ccxUk6vw.s:1635   .text:0000000000000800 .L0 
     /tmp/ccxUk6vw.s:1637   .text:0000000000000804 .L0 
     /tmp/ccxUk6vw.s:1638   .text:0000000000000804 .L0 
     /tmp/ccxUk6vw.s:1640   .text:0000000000000808 .L0 
     /tmp/ccxUk6vw.s:1643   .text:000000000000080c .L0 
     /tmp/ccxUk6vw.s:1647   .text:0000000000000810 .L0 
     /tmp/ccxUk6vw.s:1649   .text:0000000000000810 .L0 
     /tmp/ccxUk6vw.s:1650   .text:0000000000000810 .L0 
     /tmp/ccxUk6vw.s:1654   .text:000000000000081c .L0 
     /tmp/ccxUk6vw.s:1655   .text:000000000000081c .L0 
     /tmp/ccxUk6vw.s:1662   .text:0000000000000838 .L0 
     /tmp/ccxUk6vw.s:1668   .text:0000000000000838 _ZN5RiscV27executeSemaphoreFreeSyscallEv
GAS LISTING /tmp/ccxUk6vw.s 			page 120


     /tmp/ccxUk6vw.s:1671   .text:0000000000000838 .L0 
     /tmp/ccxUk6vw.s:1672   .text:0000000000000838 .L0 
     /tmp/ccxUk6vw.s:1673   .text:000000000000083c .L0 
     /tmp/ccxUk6vw.s:1677   .text:0000000000000848 .L0 
     /tmp/ccxUk6vw.s:1678   .text:0000000000000848 .L0 
     /tmp/ccxUk6vw.s:1679   .text:0000000000000848 .L0 
     /tmp/ccxUk6vw.s:1681   .text:000000000000084c .L0 
     /tmp/ccxUk6vw.s:1683   .text:000000000000084c .L0 
     /tmp/ccxUk6vw.s:1684   .text:000000000000084c .L0 
src/kernel/riscv.cpp:625    .text:000000000000084c .L0 
     /tmp/ccxUk6vw.s:1691   .text:0000000000000850 .L0 
     /tmp/ccxUk6vw.s:1693   .text:0000000000000850 .L0 
     /tmp/ccxUk6vw.s:1697   .text:0000000000000854 .L0 
     /tmp/ccxUk6vw.s:1698   .text:0000000000000854 .L0 
     /tmp/ccxUk6vw.s:1704   .text:000000000000085c .L0 
     /tmp/ccxUk6vw.s:1706   .text:000000000000085c .L0 
     /tmp/ccxUk6vw.s:1709   .text:0000000000000864 .L0 
     /tmp/ccxUk6vw.s:1710   .text:0000000000000868 .L0 
     /tmp/ccxUk6vw.s:1711   .text:0000000000000868 .L0 
     /tmp/ccxUk6vw.s:1713   .text:000000000000086c .L0 
     /tmp/ccxUk6vw.s:1714   .text:000000000000086c .L0 
     /tmp/ccxUk6vw.s:1716   .text:0000000000000870 .L0 
     /tmp/ccxUk6vw.s:1719   .text:0000000000000874 .L0 
     /tmp/ccxUk6vw.s:1723   .text:0000000000000878 .L0 
     /tmp/ccxUk6vw.s:1725   .text:0000000000000878 .L0 
     /tmp/ccxUk6vw.s:1726   .text:0000000000000878 .L0 
     /tmp/ccxUk6vw.s:1733   .text:0000000000000894 .L0 
     /tmp/ccxUk6vw.s:1739   .text:0000000000000894 _ZN5RiscV18executeForkSyscallEv
     /tmp/ccxUk6vw.s:1742   .text:0000000000000894 .L0 
     /tmp/ccxUk6vw.s:1745   .text:0000000000000894 .L0 
     /tmp/ccxUk6vw.s:1746   .text:0000000000000898 .L0 
     /tmp/ccxUk6vw.s:1751   .text:00000000000008a8 .L0 
     /tmp/ccxUk6vw.s:1752   .text:00000000000008a8 .L0 
     /tmp/ccxUk6vw.s:1753   .text:00000000000008a8 .L0 
     /tmp/ccxUk6vw.s:1754   .text:00000000000008a8 .L0 
     /tmp/ccxUk6vw.s:1756   .text:00000000000008ac .L0 
     /tmp/ccxUk6vw.s:1758   .text:00000000000008ac .L0 
     /tmp/ccxUk6vw.s:1759   .text:00000000000008ac .L0 
     /tmp/ccxUk6vw.s:1766   .text:00000000000008bc .L0 
     /tmp/ccxUk6vw.s:1767   .text:00000000000008bc .L0 
     /tmp/ccxUk6vw.s:1776   .text:00000000000008dc .L0 
     /tmp/ccxUk6vw.s:1777   .text:00000000000008dc .L0 
     /tmp/ccxUk6vw.s:1784   .text:00000000000008f0 .L0 
     /tmp/ccxUk6vw.s:1794   .text:0000000000000908 .L0 
     /tmp/ccxUk6vw.s:1796   .text:0000000000000908 .L0 
     /tmp/ccxUk6vw.s:1799   .text:000000000000090c .L0 
     /tmp/ccxUk6vw.s:1800   .text:000000000000090c .L0 
     /tmp/ccxUk6vw.s:1804   .text:000000000000091c .L0 
     /tmp/ccxUk6vw.s:1805   .text:000000000000091c .L0 
     /tmp/ccxUk6vw.s:1808   .text:0000000000000928 .L0 
     /tmp/ccxUk6vw.s:1810   .text:000000000000092c .L0 
     /tmp/ccxUk6vw.s:1813   .text:0000000000000938 .L0 
     /tmp/ccxUk6vw.s:1815   .text:000000000000093c .L0 
     /tmp/ccxUk6vw.s:1817   .text:0000000000000940 .L0 
     /tmp/ccxUk6vw.s:1819   .text:0000000000000944 .L0 
     /tmp/ccxUk6vw.s:1820   .text:0000000000000944 .L0 
     /tmp/ccxUk6vw.s:1823   .text:000000000000094c .L0 
GAS LISTING /tmp/ccxUk6vw.s 			page 121


     /tmp/ccxUk6vw.s:1825   .text:0000000000000950 .L0 
     /tmp/ccxUk6vw.s:1827   .text:0000000000000954 .L0 
     /tmp/ccxUk6vw.s:1830   .text:0000000000000958 .L0 
     /tmp/ccxUk6vw.s:1831   .text:0000000000000958 .L0 
     /tmp/ccxUk6vw.s:1833   .text:000000000000095c .L0 
     /tmp/ccxUk6vw.s:1834   .text:000000000000095c .L0 
src/kernel/riscv.cpp:670    .text:000000000000095c .L0 
     /tmp/ccxUk6vw.s:1840   .text:0000000000000960 .L0 
src/kernel/riscv.cpp:672    .text:0000000000000960 .L0 
     /tmp/ccxUk6vw.s:1845   .text:0000000000000964 .L0 
src/kernel/riscv.cpp:674    .text:0000000000000964 .L0 
     /tmp/ccxUk6vw.s:1850   .text:0000000000000968 .L0 
src/kernel/riscv.cpp:676    .text:0000000000000968 .L0 
     /tmp/ccxUk6vw.s:1855   .text:000000000000096c .L0 
src/kernel/riscv.cpp:678    .text:000000000000096c .L0 
     /tmp/ccxUk6vw.s:1860   .text:0000000000000970 .L0 
src/kernel/riscv.cpp:681    .text:0000000000000970 .L0 
     /tmp/ccxUk6vw.s:1865   .text:0000000000000974 .L0 
src/kernel/riscv.cpp:683    .text:0000000000000974 .L0 
     /tmp/ccxUk6vw.s:1870   .text:0000000000000978 .L0 
src/kernel/riscv.cpp:685    .text:0000000000000978 .L0 
     /tmp/ccxUk6vw.s:1875   .text:000000000000097c .L0 
src/kernel/riscv.cpp:687    .text:000000000000097c .L0 
     /tmp/ccxUk6vw.s:1880   .text:0000000000000980 .L0 
     /tmp/ccxUk6vw.s:1882   .text:0000000000000980 .L0 
     /tmp/ccxUk6vw.s:1885   .text:0000000000000988 .L0 
     /tmp/ccxUk6vw.s:1887   .text:000000000000098c .L0 
     /tmp/ccxUk6vw.s:1888   .text:000000000000098c .L0 
     /tmp/ccxUk6vw.s:1890   .text:0000000000000990 .L0 
     /tmp/ccxUk6vw.s:1892   .text:0000000000000994 .L0 
     /tmp/ccxUk6vw.s:1893   .text:0000000000000994 .L0 
     /tmp/ccxUk6vw.s:1902   .text:00000000000009a0 .L0 
     /tmp/ccxUk6vw.s:1903   .text:00000000000009a0 .L0 
src/kernel/riscv.cpp:701    .text:00000000000009a0 .L0 
     /tmp/ccxUk6vw.s:1909   .text:00000000000009a4 .L0 
     /tmp/ccxUk6vw.s:1911   .text:00000000000009a4 .L0 
     /tmp/ccxUk6vw.s:1914   .text:00000000000009ac .L0 
     /tmp/ccxUk6vw.s:1915   .text:00000000000009b0 .L0 
     /tmp/ccxUk6vw.s:1916   .text:00000000000009b0 .L0 
     /tmp/ccxUk6vw.s:1918   .text:00000000000009b4 .L0 
     /tmp/ccxUk6vw.s:1919   .text:00000000000009b4 .L0 
     /tmp/ccxUk6vw.s:1921   .text:00000000000009b8 .L0 
     /tmp/ccxUk6vw.s:1924   .text:00000000000009bc .L0 
     /tmp/ccxUk6vw.s:1926   .text:00000000000009c0 .L0 
     /tmp/ccxUk6vw.s:1930   .text:00000000000009c4 .L0 
     /tmp/ccxUk6vw.s:1933   .text:00000000000009c4 .L0 
     /tmp/ccxUk6vw.s:1942   .text:00000000000009d0 .L0 
     /tmp/ccxUk6vw.s:1950   .text:00000000000009e8 .L0 
     /tmp/ccxUk6vw.s:1979   .text:00000000000009e8 _ZN5RiscV5getPCEv
     /tmp/ccxUk6vw.s:1982   .text:00000000000009e8 .L0 
     /tmp/ccxUk6vw.s:1983   .text:00000000000009e8 .L0 
     /tmp/ccxUk6vw.s:1984   .text:00000000000009ec .L0 
     /tmp/ccxUk6vw.s:1986   .text:00000000000009f0 .L0 
     /tmp/ccxUk6vw.s:1988   .text:00000000000009f4 .L0 
     /tmp/ccxUk6vw.s:1990   .text:00000000000009f4 .L0 
     /tmp/ccxUk6vw.s:1991   .text:00000000000009f4 .L0 
src/kernel/riscv.cpp:710    .text:00000000000009f4 .L0 
GAS LISTING /tmp/ccxUk6vw.s 			page 122


     /tmp/ccxUk6vw.s:1998   .text:00000000000009f8 .L0 
     /tmp/ccxUk6vw.s:2000   .text:00000000000009f8 .L0 
     /tmp/ccxUk6vw.s:2003   .text:00000000000009fc .L0 
     /tmp/ccxUk6vw.s:2006   .text:0000000000000a08 .L0 
     /tmp/ccxUk6vw.s:2007   .text:0000000000000a0c .L0 
     /tmp/ccxUk6vw.s:2008   .text:0000000000000a0c .L0 
     /tmp/ccxUk6vw.s:2010   .text:0000000000000a10 .L0 
     /tmp/ccxUk6vw.s:2012   .text:0000000000000a14 .L0 
     /tmp/ccxUk6vw.s:2041   .text:0000000000000a14 _ZN5RiscV20handleSupervisorTrapEv
     /tmp/ccxUk6vw.s:2044   .text:0000000000000a14 .L0 
     /tmp/ccxUk6vw.s:2045   .text:0000000000000a14 .L0 
     /tmp/ccxUk6vw.s:2046   .text:0000000000000a18 .L0 
     /tmp/ccxUk6vw.s:2050   .text:0000000000000a24 .L0 
     /tmp/ccxUk6vw.s:2051   .text:0000000000000a24 .L0 
     /tmp/ccxUk6vw.s:2052   .text:0000000000000a24 .L0 
     /tmp/ccxUk6vw.s:2054   .text:0000000000000a28 .L0 
     /tmp/ccxUk6vw.s:2056   .text:0000000000000a28 .L0 
     /tmp/ccxUk6vw.s:2057   .text:0000000000000a28 .L0 
src/kernel/riscv.cpp:52     .text:0000000000000a28 .L0 
     /tmp/ccxUk6vw.s:2067   .text:0000000000000a2c .L0 
     /tmp/ccxUk6vw.s:2068   .text:0000000000000a2c .L0 
     /tmp/ccxUk6vw.s:2069   .text:0000000000000a2c .L0 
src/kernel/../../h/kernel/riscv.hpp:170    .text:0000000000000a2c .L0 
     /tmp/ccxUk6vw.s:2077   .text:0000000000000a34 .L0 
     /tmp/ccxUk6vw.s:2078   .text:0000000000000a34 .L0 
     /tmp/ccxUk6vw.s:2082   .text:0000000000000a38 .L0 
     /tmp/ccxUk6vw.s:2084   .text:0000000000000a3c .L0 
     /tmp/ccxUk6vw.s:2085   .text:0000000000000a3c .L0 
src/kernel/riscv.cpp:55     .text:0000000000000a48 .L0 
     /tmp/ccxUk6vw.s:2096   .text:0000000000000a50 .L0 
     /tmp/ccxUk6vw.s:2097   .text:0000000000000a50 .L0 
     /tmp/ccxUk6vw.s:2099   .text:0000000000000a54 .L0 
     /tmp/ccxUk6vw.s:2102   .text:0000000000000a5c .L0 
     /tmp/ccxUk6vw.s:2104   .text:0000000000000a60 .L0 
     /tmp/ccxUk6vw.s:2110   .text:0000000000000a68 .L0 
     /tmp/ccxUk6vw.s:2111   .text:0000000000000a68 .L0 
     /tmp/ccxUk6vw.s:2113   .text:0000000000000a6c .L0 
     /tmp/ccxUk6vw.s:2123   .text:0000000000000a7c .L0 
     /tmp/ccxUk6vw.s:2124   .text:0000000000000a7c .L0 
     /tmp/ccxUk6vw.s:2126   .text:0000000000000a80 .L0 
     /tmp/ccxUk6vw.s:2138   .text:0000000000000a90 .L0 
     /tmp/ccxUk6vw.s:2139   .text:0000000000000a90 .L0 
     /tmp/ccxUk6vw.s:2141   .text:0000000000000a94 .L0 
     /tmp/ccxUk6vw.s:2145   .text:0000000000000a9c .L0 
     /tmp/ccxUk6vw.s:2146   .text:0000000000000a9c .L0 
     /tmp/ccxUk6vw.s:2150   .text:0000000000000aac .L0 
     /tmp/ccxUk6vw.s:2151   .text:0000000000000aac .L0 
     /tmp/ccxUk6vw.s:2157   .text:0000000000000abc .L0 
     /tmp/ccxUk6vw.s:2158   .text:0000000000000abc .L0 
     /tmp/ccxUk6vw.s:2159   .text:0000000000000abc .L0 
src/kernel/../../h/kernel/riscv.hpp:170    .text:0000000000000abc .L0 
     /tmp/ccxUk6vw.s:2167   .text:0000000000000ac4 .L0 
     /tmp/ccxUk6vw.s:2168   .text:0000000000000ac4 .L0 
     /tmp/ccxUk6vw.s:2173   .text:0000000000000ac8 .L0 
     /tmp/ccxUk6vw.s:2174   .text:0000000000000ac8 .L0 
     /tmp/ccxUk6vw.s:2181   .text:0000000000000adc .L0 
     /tmp/ccxUk6vw.s:2182   .text:0000000000000adc .L0 
GAS LISTING /tmp/ccxUk6vw.s 			page 123


     /tmp/ccxUk6vw.s:2188   .text:0000000000000aec .L0 
     /tmp/ccxUk6vw.s:2189   .text:0000000000000aec .L0 
     /tmp/ccxUk6vw.s:2190   .text:0000000000000aec .L0 
src/kernel/../../h/kernel/riscv.hpp:180    .text:0000000000000aec .L0 
     /tmp/ccxUk6vw.s:2199   .text:0000000000000af0 .L0 
     /tmp/ccxUk6vw.s:2200   .text:0000000000000af0 .L0 
     /tmp/ccxUk6vw.s:2201   .text:0000000000000af0 .L0 
     /tmp/ccxUk6vw.s:2207   .text:0000000000000b04 .L0 
     /tmp/ccxUk6vw.s:2208   .text:0000000000000b04 .L0 
     /tmp/ccxUk6vw.s:2212   .text:0000000000000b14 .L0 
     /tmp/ccxUk6vw.s:2213   .text:0000000000000b14 .L0 
     /tmp/ccxUk6vw.s:2220   .text:0000000000000b34 .L0 
     /tmp/ccxUk6vw.s:2221   .text:0000000000000b34 .L0 
     /tmp/ccxUk6vw.s:2225   .text:0000000000000b40 .L0 
     /tmp/ccxUk6vw.s:2226   .text:0000000000000b40 .L0 
     /tmp/ccxUk6vw.s:2229   .text:0000000000000b48 .L0 
     /tmp/ccxUk6vw.s:2230   .text:0000000000000b48 .L0 
     /tmp/ccxUk6vw.s:2234   .text:0000000000000b58 .L0 
     /tmp/ccxUk6vw.s:2235   .text:0000000000000b58 .L0 
     /tmp/ccxUk6vw.s:2247   .text:0000000000000b64 .L0 
     /tmp/ccxUk6vw.s:2248   .text:0000000000000b64 .L0 
     /tmp/ccxUk6vw.s:2249   .text:0000000000000b64 .L0 
src/kernel/../../h/kernel/riscv.hpp:200    .text:0000000000000b64 .L0 
     /tmp/ccxUk6vw.s:2259   .text:0000000000000b68 .L0 
     /tmp/ccxUk6vw.s:2260   .text:0000000000000b68 .L0 
     /tmp/ccxUk6vw.s:2264   .text:0000000000000b6c .L0 
     /tmp/ccxUk6vw.s:2265   .text:0000000000000b6c .L0 
     /tmp/ccxUk6vw.s:2266   .text:0000000000000b6c .L0 
src/kernel/../../h/kernel/riscv.hpp:180    .text:0000000000000b6c .L0 
     /tmp/ccxUk6vw.s:2276   .text:0000000000000b70 .L0 
     /tmp/ccxUk6vw.s:2277   .text:0000000000000b70 .L0 
     /tmp/ccxUk6vw.s:2279   .text:0000000000000b74 .L0 
     /tmp/ccxUk6vw.s:2281   .text:0000000000000b78 .L0 
     /tmp/ccxUk6vw.s:2282   .text:0000000000000b78 .L0 
     /tmp/ccxUk6vw.s:2285   .text:0000000000000b84 .L0 
     /tmp/ccxUk6vw.s:2288   .text:0000000000000b8c .L0 
     /tmp/ccxUk6vw.s:2289   .text:0000000000000b8c .L0 
     /tmp/ccxUk6vw.s:2292   .text:0000000000000b94 .L0 
     /tmp/ccxUk6vw.s:2293   .text:0000000000000b94 .L0 
src/kernel/riscv.cpp:68     .text:0000000000000b94 .L0 
     /tmp/ccxUk6vw.s:2301   .text:0000000000000b98 .L0 
     /tmp/ccxUk6vw.s:2415   .text:0000000000000bbc .L0 
     /tmp/ccxUk6vw.s:2416   .text:0000000000000bbc .L0 
     /tmp/ccxUk6vw.s:2417   .text:0000000000000bbc .L0 
     /tmp/ccxUk6vw.s:2421   .text:0000000000000bc4 .L0 
     /tmp/ccxUk6vw.s:2422   .text:0000000000000bc4 .L0 
     /tmp/ccxUk6vw.s:2423   .text:0000000000000bc4 .L0 
     /tmp/ccxUk6vw.s:2430   .text:0000000000000bd4 .L0 
src/kernel/../../h/kernel/riscv.hpp:195    .text:0000000000000bd4 .L0 
     /tmp/ccxUk6vw.s:2440   .text:0000000000000bd8 .L0 
     /tmp/ccxUk6vw.s:2441   .text:0000000000000bd8 .L0 
     /tmp/ccxUk6vw.s:2446   .text:0000000000000bdc .L0 
src/kernel/../../h/kernel/riscv.hpp:185    .text:0000000000000bdc .L0 
     /tmp/ccxUk6vw.s:2459   .text:0000000000000be0 .L0 
     /tmp/ccxUk6vw.s:2460   .text:0000000000000be0 .L0 
     /tmp/ccxUk6vw.s:2463   .text:0000000000000be8 .L0 
     /tmp/ccxUk6vw.s:2464   .text:0000000000000bec .L0 
GAS LISTING /tmp/ccxUk6vw.s 			page 124


     /tmp/ccxUk6vw.s:2465   .text:0000000000000bec .L0 
     /tmp/ccxUk6vw.s:2467   .text:0000000000000bf0 .L0 
     /tmp/ccxUk6vw.s:2468   .text:0000000000000bf0 .L0 
     /tmp/ccxUk6vw.s:2470   .text:0000000000000bf4 .L0 
     /tmp/ccxUk6vw.s:2473   .text:0000000000000bf8 .L0 
     /tmp/ccxUk6vw.s:2477   .text:0000000000000bfc .L0 
     /tmp/ccxUk6vw.s:2481   .text:0000000000000bfc .L0 
     /tmp/ccxUk6vw.s:2482   .text:0000000000000bfc .L0 
     /tmp/ccxUk6vw.s:2483   .text:0000000000000bfc .L0 
     /tmp/ccxUk6vw.s:2486   .text:0000000000000c04 .L0 
     /tmp/ccxUk6vw.s:2489   .text:0000000000000c08 .L0 
     /tmp/ccxUk6vw.s:2490   .text:0000000000000c08 .L0 
     /tmp/ccxUk6vw.s:2491   .text:0000000000000c08 .L0 
     /tmp/ccxUk6vw.s:2494   .text:0000000000000c10 .L0 
     /tmp/ccxUk6vw.s:2497   .text:0000000000000c14 .L0 
     /tmp/ccxUk6vw.s:2498   .text:0000000000000c14 .L0 
     /tmp/ccxUk6vw.s:2499   .text:0000000000000c14 .L0 
     /tmp/ccxUk6vw.s:2502   .text:0000000000000c1c .L0 
     /tmp/ccxUk6vw.s:2505   .text:0000000000000c20 .L0 
     /tmp/ccxUk6vw.s:2506   .text:0000000000000c20 .L0 
     /tmp/ccxUk6vw.s:2507   .text:0000000000000c20 .L0 
     /tmp/ccxUk6vw.s:2510   .text:0000000000000c28 .L0 
     /tmp/ccxUk6vw.s:2513   .text:0000000000000c2c .L0 
     /tmp/ccxUk6vw.s:2514   .text:0000000000000c2c .L0 
     /tmp/ccxUk6vw.s:2515   .text:0000000000000c2c .L0 
     /tmp/ccxUk6vw.s:2518   .text:0000000000000c34 .L0 
     /tmp/ccxUk6vw.s:2521   .text:0000000000000c38 .L0 
     /tmp/ccxUk6vw.s:2522   .text:0000000000000c38 .L0 
     /tmp/ccxUk6vw.s:2523   .text:0000000000000c38 .L0 
     /tmp/ccxUk6vw.s:2526   .text:0000000000000c40 .L0 
     /tmp/ccxUk6vw.s:2529   .text:0000000000000c44 .L0 
     /tmp/ccxUk6vw.s:2530   .text:0000000000000c44 .L0 
     /tmp/ccxUk6vw.s:2531   .text:0000000000000c44 .L0 
     /tmp/ccxUk6vw.s:2534   .text:0000000000000c4c .L0 
     /tmp/ccxUk6vw.s:2537   .text:0000000000000c50 .L0 
     /tmp/ccxUk6vw.s:2538   .text:0000000000000c50 .L0 
     /tmp/ccxUk6vw.s:2539   .text:0000000000000c50 .L0 
     /tmp/ccxUk6vw.s:2542   .text:0000000000000c58 .L0 
     /tmp/ccxUk6vw.s:2545   .text:0000000000000c5c .L0 
     /tmp/ccxUk6vw.s:2546   .text:0000000000000c5c .L0 
     /tmp/ccxUk6vw.s:2547   .text:0000000000000c5c .L0 
     /tmp/ccxUk6vw.s:2550   .text:0000000000000c64 .L0 
     /tmp/ccxUk6vw.s:2553   .text:0000000000000c68 .L0 
     /tmp/ccxUk6vw.s:2554   .text:0000000000000c68 .L0 
     /tmp/ccxUk6vw.s:2555   .text:0000000000000c68 .L0 
     /tmp/ccxUk6vw.s:2558   .text:0000000000000c70 .L0 
     /tmp/ccxUk6vw.s:2561   .text:0000000000000c74 .L0 
     /tmp/ccxUk6vw.s:2562   .text:0000000000000c74 .L0 
     /tmp/ccxUk6vw.s:2563   .text:0000000000000c74 .L0 
     /tmp/ccxUk6vw.s:2566   .text:0000000000000c7c .L0 
     /tmp/ccxUk6vw.s:2569   .text:0000000000000c80 .L0 
     /tmp/ccxUk6vw.s:2570   .text:0000000000000c80 .L0 
     /tmp/ccxUk6vw.s:2571   .text:0000000000000c80 .L0 
     /tmp/ccxUk6vw.s:2574   .text:0000000000000c88 .L0 
     /tmp/ccxUk6vw.s:2577   .text:0000000000000c8c .L0 
     /tmp/ccxUk6vw.s:2578   .text:0000000000000c8c .L0 
     /tmp/ccxUk6vw.s:2579   .text:0000000000000c8c .L0 
GAS LISTING /tmp/ccxUk6vw.s 			page 125


     /tmp/ccxUk6vw.s:2582   .text:0000000000000c94 .L0 
     /tmp/ccxUk6vw.s:2585   .text:0000000000000c98 .L0 
     /tmp/ccxUk6vw.s:2586   .text:0000000000000c98 .L0 
     /tmp/ccxUk6vw.s:2587   .text:0000000000000c98 .L0 
     /tmp/ccxUk6vw.s:2590   .text:0000000000000ca0 .L0 
     /tmp/ccxUk6vw.s:2593   .text:0000000000000ca4 .L0 
     /tmp/ccxUk6vw.s:2594   .text:0000000000000ca4 .L0 
     /tmp/ccxUk6vw.s:2595   .text:0000000000000ca4 .L0 
     /tmp/ccxUk6vw.s:2598   .text:0000000000000cac .L0 
     /tmp/ccxUk6vw.s:2601   .text:0000000000000cb0 .L0 
     /tmp/ccxUk6vw.s:2602   .text:0000000000000cb0 .L0 
     /tmp/ccxUk6vw.s:2603   .text:0000000000000cb0 .L0 
     /tmp/ccxUk6vw.s:2606   .text:0000000000000cb8 .L0 
     /tmp/ccxUk6vw.s:2609   .text:0000000000000cbc .L0 
     /tmp/ccxUk6vw.s:2610   .text:0000000000000cbc .L0 
src/kernel/riscv.cpp:91     .text:0000000000000cbc .L0 
     /tmp/ccxUk6vw.s:2619   .text:0000000000000ccc .L0 
     /tmp/ccxUk6vw.s:2620   .text:0000000000000ccc .L0 
     /tmp/ccxUk6vw.s:2623   .text:0000000000000cd4 .L0 
     /tmp/ccxUk6vw.s:2624   .text:0000000000000cd4 .L0 
     /tmp/ccxUk6vw.s:2627   .text:0000000000000cdc .L0 
     /tmp/ccxUk6vw.s:2635   .text:0000000000000ce0 .L0 
     /tmp/ccxUk6vw.s:2636   .text:0000000000000ce0 .L0 
     /tmp/ccxUk6vw.s:2637   .text:0000000000000ce0 .L0 
src/kernel/../../h/kernel/riscv.hpp:200    .text:0000000000000ce0 .L0 
     /tmp/ccxUk6vw.s:2647   .text:0000000000000ce4 .L0 
     /tmp/ccxUk6vw.s:2648   .text:0000000000000ce4 .L0 
     /tmp/ccxUk6vw.s:2652   .text:0000000000000ce8 .L0 
     /tmp/ccxUk6vw.s:2653   .text:0000000000000ce8 .L0 
     /tmp/ccxUk6vw.s:2654   .text:0000000000000ce8 .L0 
src/kernel/../../h/kernel/riscv.hpp:180    .text:0000000000000ce8 .L0 
     /tmp/ccxUk6vw.s:2664   .text:0000000000000cec .L0 
     /tmp/ccxUk6vw.s:2665   .text:0000000000000cec .L0 
     /tmp/ccxUk6vw.s:2670   .text:0000000000000cf0 .L0 
     /tmp/ccxUk6vw.s:2671   .text:0000000000000cf0 .L0 
     /tmp/ccxUk6vw.s:2672   .text:0000000000000cf0 .L0 
     /tmp/ccxUk6vw.s:2682   .text:0000000000000cf8 .L0 
     /tmp/ccxUk6vw.s:2683   .text:0000000000000cf8 .L0 
     /tmp/ccxUk6vw.s:2688   .text:0000000000000d0c .L0 
     /tmp/ccxUk6vw.s:2689   .text:0000000000000d0c .L0 
     /tmp/ccxUk6vw.s:2692   .text:0000000000000d14 .L0 
     /tmp/ccxUk6vw.s:2693   .text:0000000000000d14 .L0 
     /tmp/ccxUk6vw.s:2699   .text:0000000000000d28 .L0 
     /tmp/ccxUk6vw.s:2700   .text:0000000000000d28 .L0 
     /tmp/ccxUk6vw.s:2704   .text:0000000000000d38 .L0 
     /tmp/ccxUk6vw.s:2708   .text:0000000000000d3c .L0 
     /tmp/ccxUk6vw.s:2709   .text:0000000000000d3c .L0 
     /tmp/ccxUk6vw.s:2714   .text:0000000000000d40 .L0 
src/kernel/../../h/kernel/riscv.hpp:195    .text:0000000000000d40 .L0 
     /tmp/ccxUk6vw.s:2724   .text:0000000000000d44 .L0 
     /tmp/ccxUk6vw.s:2725   .text:0000000000000d44 .L0 
     /tmp/ccxUk6vw.s:2730   .text:0000000000000d48 .L0 
src/kernel/../../h/kernel/riscv.hpp:185    .text:0000000000000d48 .L0 
     /tmp/ccxUk6vw.s:2737   .text:0000000000000d4c .L0 
     /tmp/ccxUk6vw.s:2745   .text:0000000000000d50 .L0 
     /tmp/ccxUk6vw.s:2746   .text:0000000000000d50 .L0 
     /tmp/ccxUk6vw.s:2750   .text:0000000000000d5c .L0 
GAS LISTING /tmp/ccxUk6vw.s 			page 126


     /tmp/ccxUk6vw.s:2751   .text:0000000000000d5c .L0 
     /tmp/ccxUk6vw.s:2752   .text:0000000000000d5c .L0 
     /tmp/ccxUk6vw.s:2755   .text:0000000000000d64 .L0 
     /tmp/ccxUk6vw.s:2756   .text:0000000000000d64 .L0 
     /tmp/ccxUk6vw.s:2768   .text:0000000000000d70 .L0 
     /tmp/ccxUk6vw.s:2769   .text:0000000000000d70 .L0 
     /tmp/ccxUk6vw.s:2770   .text:0000000000000d70 .L0 
src/kernel/../../h/kernel/riscv.hpp:200    .text:0000000000000d70 .L0 
     /tmp/ccxUk6vw.s:2780   .text:0000000000000d74 .L0 
     /tmp/ccxUk6vw.s:2781   .text:0000000000000d74 .L0 
     /tmp/ccxUk6vw.s:2785   .text:0000000000000d78 .L0 
     /tmp/ccxUk6vw.s:2786   .text:0000000000000d78 .L0 
     /tmp/ccxUk6vw.s:2787   .text:0000000000000d78 .L0 
src/kernel/../../h/kernel/riscv.hpp:180    .text:0000000000000d78 .L0 
     /tmp/ccxUk6vw.s:2797   .text:0000000000000d7c .L0 
     /tmp/ccxUk6vw.s:2798   .text:0000000000000d7c .L0 
     /tmp/ccxUk6vw.s:2800   .text:0000000000000d80 .L0 
     /tmp/ccxUk6vw.s:2801   .text:0000000000000d80 .L0 
     /tmp/ccxUk6vw.s:2805   .text:0000000000000d8c .L0 
src/kernel/riscv.cpp:146    .text:0000000000000d8c .L0 
     /tmp/ccxUk6vw.s:2811   .text:0000000000000d90 .L0 
src/kernel/riscv.cpp:147    .text:0000000000000d90 .L0 
     /tmp/ccxUk6vw.s:2816   .text:0000000000000d94 .L0 
src/kernel/riscv.cpp:148    .text:0000000000000d94 .L0 
     /tmp/ccxUk6vw.s:2824   .text:0000000000000d98 .L0 
     /tmp/ccxUk6vw.s:2825   .text:0000000000000d98 .L0 
     /tmp/ccxUk6vw.s:2828   .text:0000000000000d9c .L0 
     /tmp/ccxUk6vw.s:2831   .text:0000000000000da0 .L0 
     /tmp/ccxUk6vw.s:2832   .text:0000000000000da0 .L0 
     /tmp/ccxUk6vw.s:2833   .text:0000000000000da0 .L0 
     /tmp/ccxUk6vw.s:2834   .text:0000000000000da0 .L0 
     /tmp/ccxUk6vw.s:2838   .text:0000000000000dac .L0 
src/kernel/riscv.cpp:157    .text:0000000000000dac .L0 
     /tmp/ccxUk6vw.s:2844   .text:0000000000000db0 .L0 
src/kernel/riscv.cpp:158    .text:0000000000000db0 .L0 
     /tmp/ccxUk6vw.s:2849   .text:0000000000000db4 .L0 
src/kernel/riscv.cpp:159    .text:0000000000000db4 .L0 
     /tmp/ccxUk6vw.s:2857   .text:0000000000000dbc .L0 
     /tmp/ccxUk6vw.s:2858   .text:0000000000000dbc .L0 
     /tmp/ccxUk6vw.s:2862   .text:0000000000000dc8 .L0 
     /tmp/ccxUk6vw.s:2868   .text:0000000000000dcc .L0 
     /tmp/ccxUk6vw.s:2869   .text:0000000000000dcc .L0 
     /tmp/ccxUk6vw.s:2874   .text:0000000000000ddc .L0 
     /tmp/ccxUk6vw.s:2875   .text:0000000000000ddc .L0 
     /tmp/ccxUk6vw.s:2880   .text:0000000000000de0 .L0 
src/kernel/../../h/kernel/riscv.hpp:195    .text:0000000000000de0 .L0 
     /tmp/ccxUk6vw.s:2890   .text:0000000000000de4 .L0 
     /tmp/ccxUk6vw.s:2891   .text:0000000000000de4 .L0 
     /tmp/ccxUk6vw.s:2896   .text:0000000000000de8 .L0 
src/kernel/../../h/kernel/riscv.hpp:185    .text:0000000000000de8 .L0 
     /tmp/ccxUk6vw.s:2903   .text:0000000000000dec .L0 
     /tmp/ccxUk6vw.s:2911   .text:0000000000000df0 .L0 
     /tmp/ccxUk6vw.s:2912   .text:0000000000000df0 .L0 
     /tmp/ccxUk6vw.s:2916   .text:0000000000000e00 .L0 
     /tmp/ccxUk6vw.s:2917   .text:0000000000000e00 .L0 
     /tmp/ccxUk6vw.s:2928   .text:0000000000000e0c .L0 
     /tmp/ccxUk6vw.s:2929   .text:0000000000000e0c .L0 
GAS LISTING /tmp/ccxUk6vw.s 			page 127


     /tmp/ccxUk6vw.s:2933   .text:0000000000000e18 .L0 
     /tmp/ccxUk6vw.s:2934   .text:0000000000000e18 .L0 
     /tmp/ccxUk6vw.s:2937   .text:0000000000000e20 .L0 
     /tmp/ccxUk6vw.s:2938   .text:0000000000000e20 .L0 
     /tmp/ccxUk6vw.s:2944   .text:0000000000000e30 .L0 
     /tmp/ccxUk6vw.s:2945   .text:0000000000000e30 .L0 
     /tmp/ccxUk6vw.s:2946   .text:0000000000000e30 .L0 
src/kernel/../../h/kernel/riscv.hpp:180    .text:0000000000000e30 .L0 
     /tmp/ccxUk6vw.s:2955   .text:0000000000000e34 .L0 
     /tmp/ccxUk6vw.s:2956   .text:0000000000000e34 .L0 
     /tmp/ccxUk6vw.s:2957   .text:0000000000000e34 .L0 
     /tmp/ccxUk6vw.s:2963   .text:0000000000000e48 .L0 
     /tmp/ccxUk6vw.s:2964   .text:0000000000000e48 .L0 
     /tmp/ccxUk6vw.s:2968   .text:0000000000000e58 .L0 
     /tmp/ccxUk6vw.s:2969   .text:0000000000000e58 .L0 
     /tmp/ccxUk6vw.s:2973   .text:0000000000000e68 .L0 
     /tmp/ccxUk6vw.s:2974   .text:0000000000000e68 .L0 
     /tmp/ccxUk6vw.s:2982   .text:0000000000000e74 .L0 
     /tmp/ccxUk6vw.s:2988   .text:0000000000000e74 _ZN5RiscV16threadCreateUtilEPP3TCBPFvPvES3_
     /tmp/ccxUk6vw.s:2991   .text:0000000000000e74 .L0 
     /tmp/ccxUk6vw.s:2993   .text:0000000000000e74 .L0 
     /tmp/ccxUk6vw.s:2994   .text:0000000000000e78 .L0 
     /tmp/ccxUk6vw.s:3000   .text:0000000000000e8c .L0 
     /tmp/ccxUk6vw.s:3001   .text:0000000000000e8c .L0 
     /tmp/ccxUk6vw.s:3002   .text:0000000000000e8c .L0 
     /tmp/ccxUk6vw.s:3003   .text:0000000000000e8c .L0 
     /tmp/ccxUk6vw.s:3004   .text:0000000000000e8c .L0 
     /tmp/ccxUk6vw.s:3006   .text:0000000000000e90 .L0 
     /tmp/ccxUk6vw.s:3012   .text:0000000000000e9c .L0 
     /tmp/ccxUk6vw.s:3013   .text:0000000000000e9c .L0 
     /tmp/ccxUk6vw.s:3014   .text:0000000000000e9c .L0 
     /tmp/ccxUk6vw.s:3015   .text:0000000000000e9c .L0 
     /tmp/ccxUk6vw.s:3016   .text:0000000000000e9c .L0 
     /tmp/ccxUk6vw.s:3018   .text:0000000000000ea0 .L0 
     /tmp/ccxUk6vw.s:3019   .text:0000000000000ea0 .L0 
     /tmp/ccxUk6vw.s:3024   .text:0000000000000eac .L0 
     /tmp/ccxUk6vw.s:3026   .text:0000000000000eb0 .L0 
     /tmp/ccxUk6vw.s:3027   .text:0000000000000eb0 .L0 
     /tmp/ccxUk6vw.s:3029   .text:0000000000000eb4 .L0 
     /tmp/ccxUk6vw.s:3033   .text:0000000000000eb8 .L0 
     /tmp/ccxUk6vw.s:3037   .text:0000000000000ebc .L0 
src/kernel/riscv.cpp:729    .text:0000000000000ebc .L0 
     /tmp/ccxUk6vw.s:3043   .text:0000000000000ec0 .L0 
src/kernel/riscv.cpp:730    .text:0000000000000ec0 .L0 
     /tmp/ccxUk6vw.s:3048   .text:0000000000000ec4 .L0 
src/kernel/riscv.cpp:731    .text:0000000000000ec4 .L0 
     /tmp/ccxUk6vw.s:3053   .text:0000000000000ec8 .L0 
src/kernel/riscv.cpp:732    .text:0000000000000ec8 .L0 
     /tmp/ccxUk6vw.s:3058   .text:0000000000000ecc .L0 
src/kernel/riscv.cpp:733    .text:0000000000000ecc .L0 
     /tmp/ccxUk6vw.s:3063   .text:0000000000000ed0 .L0 
src/kernel/riscv.cpp:735    .text:0000000000000ed0 .L0 
     /tmp/ccxUk6vw.s:3068   .text:0000000000000ed4 .L0 
     /tmp/ccxUk6vw.s:3072   .text:0000000000000ed4 .L0 
     /tmp/ccxUk6vw.s:3073   .text:0000000000000ed4 .L0 
     /tmp/ccxUk6vw.s:3074   .text:0000000000000ed8 .L0 
     /tmp/ccxUk6vw.s:3076   .text:0000000000000edc .L0 
GAS LISTING /tmp/ccxUk6vw.s 			page 128


     /tmp/ccxUk6vw.s:3077   .text:0000000000000edc .L0 
     /tmp/ccxUk6vw.s:3079   .text:0000000000000ee0 .L0 
     /tmp/ccxUk6vw.s:3082   .text:0000000000000ee4 .L0 
     /tmp/ccxUk6vw.s:3085   .text:0000000000000ee8 .L0 
     /tmp/ccxUk6vw.s:3088   .text:0000000000000eec .L0 
     /tmp/ccxUk6vw.s:3090   .text:0000000000000ef0 .L0 
     /tmp/ccxUk6vw.s:3096   .text:0000000000000ef0 _ZN5RiscV14threadExitUtilEv
     /tmp/ccxUk6vw.s:3099   .text:0000000000000ef0 .L0 
     /tmp/ccxUk6vw.s:3100   .text:0000000000000ef0 .L0 
     /tmp/ccxUk6vw.s:3101   .text:0000000000000ef4 .L0 
     /tmp/ccxUk6vw.s:3103   .text:0000000000000ef8 .L0 
     /tmp/ccxUk6vw.s:3105   .text:0000000000000efc .L0 
     /tmp/ccxUk6vw.s:3107   .text:0000000000000efc .L0 
src/kernel/riscv.cpp:744    .text:0000000000000efc .L0 
     /tmp/ccxUk6vw.s:3113   .text:0000000000000f00 .L0 
src/kernel/riscv.cpp:746    .text:0000000000000f00 .L0 
     /tmp/ccxUk6vw.s:3118   .text:0000000000000f04 .L0 
     /tmp/ccxUk6vw.s:3120   .text:0000000000000f04 .L0 
     /tmp/ccxUk6vw.s:3122   .text:0000000000000f04 .L0 
     /tmp/ccxUk6vw.s:3123   .text:0000000000000f08 .L0 
     /tmp/ccxUk6vw.s:3124   .text:0000000000000f08 .L0 
     /tmp/ccxUk6vw.s:3126   .text:0000000000000f0c .L0 
     /tmp/ccxUk6vw.s:3128   .text:0000000000000f10 .L0 
     /tmp/ccxUk6vw.s:3134   .text:0000000000000f10 _ZN5RiscV18threadDispatchUtilEv
     /tmp/ccxUk6vw.s:3137   .text:0000000000000f10 .L0 
     /tmp/ccxUk6vw.s:3138   .text:0000000000000f10 .L0 
     /tmp/ccxUk6vw.s:3139   .text:0000000000000f14 .L0 
     /tmp/ccxUk6vw.s:3141   .text:0000000000000f18 .L0 
     /tmp/ccxUk6vw.s:3143   .text:0000000000000f1c .L0 
     /tmp/ccxUk6vw.s:3145   .text:0000000000000f1c .L0 
src/kernel/riscv.cpp:754    .text:0000000000000f1c .L0 
     /tmp/ccxUk6vw.s:3151   .text:0000000000000f20 .L0 
src/kernel/riscv.cpp:756    .text:0000000000000f20 .L0 
     /tmp/ccxUk6vw.s:3157   .text:0000000000000f24 .L0 
     /tmp/ccxUk6vw.s:3158   .text:0000000000000f28 .L0 
     /tmp/ccxUk6vw.s:3159   .text:0000000000000f28 .L0 
     /tmp/ccxUk6vw.s:3161   .text:0000000000000f2c .L0 
     /tmp/ccxUk6vw.s:3163   .text:0000000000000f30 .L0 
     /tmp/ccxUk6vw.s:3169   .text:0000000000000f30 _ZN5RiscV11putcWrapperEPv
     /tmp/ccxUk6vw.s:3172   .text:0000000000000f30 .L0 
     /tmp/ccxUk6vw.s:3174   .text:0000000000000f30 .L0 
     /tmp/ccxUk6vw.s:3175   .text:0000000000000f34 .L0 
     /tmp/ccxUk6vw.s:3178   .text:0000000000000f3c .L0 
     /tmp/ccxUk6vw.s:3179   .text:0000000000000f3c .L0 
     /tmp/ccxUk6vw.s:3181   .text:0000000000000f40 .L0 
     /tmp/ccxUk6vw.s:3188   .text:0000000000000f44 .L0 
     /tmp/ccxUk6vw.s:3189   .text:0000000000000f44 .L0 
     /tmp/ccxUk6vw.s:3196   .text:0000000000000f4c .L0 
     /tmp/ccxUk6vw.s:3197   .text:0000000000000f4c .L0 
     /tmp/ccxUk6vw.s:3198   .text:0000000000000f4c .L0 
     /tmp/ccxUk6vw.s:3202   .text:0000000000000f58 .L0 
src/kernel/riscv.cpp:526    .text:0000000000000f58 .L0 
     /tmp/ccxUk6vw.s:3208   .text:0000000000000f5c .L0 
src/kernel/riscv.cpp:527    .text:0000000000000f5c .L0 
     /tmp/ccxUk6vw.s:3213   .text:0000000000000f60 .L0 
src/kernel/riscv.cpp:528    .text:0000000000000f60 .L0 
     /tmp/ccxUk6vw.s:3221   .text:0000000000000f64 .L0 
GAS LISTING /tmp/ccxUk6vw.s 			page 129


     /tmp/ccxUk6vw.s:3222   .text:0000000000000f64 .L0 
     /tmp/ccxUk6vw.s:3225   .text:0000000000000f68 .L0 
     /tmp/ccxUk6vw.s:3228   .text:0000000000000f6c .L0 
     /tmp/ccxUk6vw.s:3229   .text:0000000000000f6c .L0 
     /tmp/ccxUk6vw.s:3232   .text:0000000000000f74 .L0 
     /tmp/ccxUk6vw.s:3234   .text:0000000000000f78 .L0 
     /tmp/ccxUk6vw.s:3235   .text:0000000000000f78 .L0 
     /tmp/ccxUk6vw.s:3239   .text:0000000000000f84 .L0 
src/kernel/riscv.cpp:536    .text:0000000000000f84 .L0 
     /tmp/ccxUk6vw.s:3245   .text:0000000000000f88 .L0 
     /tmp/ccxUk6vw.s:3247   .text:0000000000000f88 .L0 
src/kernel/riscv.cpp:537    .text:0000000000000f8c .L0 
     /tmp/ccxUk6vw.s:3255   .text:0000000000000f90 .L0 
src/kernel/riscv.cpp:538    .text:0000000000000f90 .L0 
     /tmp/ccxUk6vw.s:3260   .text:0000000000000f94 .L0 
     /tmp/ccxUk6vw.s:3262   .text:0000000000000f94 .L0 
     /tmp/ccxUk6vw.s:3265   .text:0000000000000fa0 .L0 
     /tmp/ccxUk6vw.s:3267   .text:0000000000000fa4 .L0 
     /tmp/ccxUk6vw.s:3268   .text:0000000000000fa4 .L0 
     /tmp/ccxUk6vw.s:3275   .text:0000000000000fb8 .L0 
     /tmp/ccxUk6vw.s:3281   .text:0000000000000fb8 _ZN5RiscV6getPMTEv
     /tmp/ccxUk6vw.s:3284   .text:0000000000000fb8 .L0 
     /tmp/ccxUk6vw.s:3285   .text:0000000000000fb8 .L0 
     /tmp/ccxUk6vw.s:3286   .text:0000000000000fbc .L0 
     /tmp/ccxUk6vw.s:3289   .text:0000000000000fc4 .L0 
     /tmp/ccxUk6vw.s:3290   .text:0000000000000fc4 .L0 
     /tmp/ccxUk6vw.s:3292   .text:0000000000000fc8 .L0 
     /tmp/ccxUk6vw.s:3294   .text:0000000000000fc8 .L0 
     /tmp/ccxUk6vw.s:3295   .text:0000000000000fc8 .L0 
     /tmp/ccxUk6vw.s:3299   .text:0000000000000fd4 .L0 
     /tmp/ccxUk6vw.s:3301   .text:0000000000000fd4 .L0 
     /tmp/ccxUk6vw.s:3302   .text:0000000000000fd4 .L0 
     /tmp/ccxUk6vw.s:3306   .text:0000000000000fd8 .L0 
     /tmp/ccxUk6vw.s:3309   .text:0000000000000fe0 .L0 
     /tmp/ccxUk6vw.s:3310   .text:0000000000000fe0 .L0 
     /tmp/ccxUk6vw.s:3313   .text:0000000000000fe8 .L0 
     /tmp/ccxUk6vw.s:3315   .text:0000000000000fec .L0 
     /tmp/ccxUk6vw.s:3322   .text:0000000000000ff4 .L0 
     /tmp/ccxUk6vw.s:3323   .text:0000000000000ff8 .L0 
     /tmp/ccxUk6vw.s:3325   .text:0000000000000ffc .L0 
     /tmp/ccxUk6vw.s:3326   .text:0000000000000ffc .L0 
     /tmp/ccxUk6vw.s:3328   .text:0000000000001000 .L0 
     /tmp/ccxUk6vw.s:3330   .text:0000000000001004 .L0 
     /tmp/ccxUk6vw.s:3336   .text:0000000000001004 _ZN5RiscV15handlePageFaultEPvmm
     /tmp/ccxUk6vw.s:3339   .text:0000000000001004 .L0 
     /tmp/ccxUk6vw.s:3341   .text:0000000000001004 .L0 
     /tmp/ccxUk6vw.s:3342   .text:0000000000001008 .L0 
     /tmp/ccxUk6vw.s:3350   .text:0000000000001024 .L0 
     /tmp/ccxUk6vw.s:3351   .text:0000000000001024 .L0 
     /tmp/ccxUk6vw.s:3352   .text:0000000000001024 .L0 
     /tmp/ccxUk6vw.s:3353   .text:0000000000001024 .L0 
     /tmp/ccxUk6vw.s:3354   .text:0000000000001024 .L0 
     /tmp/ccxUk6vw.s:3355   .text:0000000000001024 .L0 
     /tmp/ccxUk6vw.s:3356   .text:0000000000001024 .L0 
     /tmp/ccxUk6vw.s:3358   .text:0000000000001028 .L0 
     /tmp/ccxUk6vw.s:3364   .text:000000000000102c .L0 
     /tmp/ccxUk6vw.s:3365   .text:000000000000102c .L0 
GAS LISTING /tmp/ccxUk6vw.s 			page 130


     /tmp/ccxUk6vw.s:3366   .text:000000000000102c .L0 
     /tmp/ccxUk6vw.s:3368   .text:0000000000001030 .L0 
     /tmp/ccxUk6vw.s:3375   .text:0000000000001034 .L0 
     /tmp/ccxUk6vw.s:3376   .text:0000000000001034 .L0 
     /tmp/ccxUk6vw.s:3377   .text:0000000000001034 .L0 
     /tmp/ccxUk6vw.s:3379   .text:0000000000001038 .L0 
     /tmp/ccxUk6vw.s:3386   .text:000000000000103c .L0 
     /tmp/ccxUk6vw.s:3387   .text:000000000000103c .L0 
     /tmp/ccxUk6vw.s:3388   .text:000000000000103c .L0 
     /tmp/ccxUk6vw.s:3390   .text:0000000000001040 .L0 
     /tmp/ccxUk6vw.s:3395   .text:0000000000001044 .L0 
     /tmp/ccxUk6vw.s:3396   .text:0000000000001044 .L0 
     /tmp/ccxUk6vw.s:3400   .text:000000000000104c .L0 
     /tmp/ccxUk6vw.s:3403   .text:0000000000001050 .L0 
     /tmp/ccxUk6vw.s:3405   .text:0000000000001050 .L0 
     /tmp/ccxUk6vw.s:3407   .text:0000000000001054 .L0 
     /tmp/ccxUk6vw.s:3408   .text:0000000000001054 .L0 
     /tmp/ccxUk6vw.s:3411   .text:0000000000001058 .L0 
     /tmp/ccxUk6vw.s:3416   .text:000000000000105c .L0 
     /tmp/ccxUk6vw.s:3417   .text:000000000000105c .L0 
     /tmp/ccxUk6vw.s:3421   .text:0000000000001064 .L0 
     /tmp/ccxUk6vw.s:3424   .text:0000000000001068 .L0 
     /tmp/ccxUk6vw.s:3426   .text:0000000000001068 .L0 
     /tmp/ccxUk6vw.s:3428   .text:000000000000106c .L0 
     /tmp/ccxUk6vw.s:3429   .text:000000000000106c .L0 
     /tmp/ccxUk6vw.s:3432   .text:0000000000001070 .L0 
     /tmp/ccxUk6vw.s:3437   .text:0000000000001074 .L0 
     /tmp/ccxUk6vw.s:3438   .text:0000000000001074 .L0 
     /tmp/ccxUk6vw.s:3439   .text:0000000000001074 .L0 
     /tmp/ccxUk6vw.s:3442   .text:0000000000001078 .L0 
     /tmp/ccxUk6vw.s:3447   .text:0000000000001080 .L0 
     /tmp/ccxUk6vw.s:3450   .text:0000000000001084 .L0 
     /tmp/ccxUk6vw.s:3452   .text:0000000000001088 .L0 
     /tmp/ccxUk6vw.s:3453   .text:000000000000108c .L0 
     /tmp/ccxUk6vw.s:3454   .text:000000000000108c .L0 
     /tmp/ccxUk6vw.s:3456   .text:0000000000001090 .L0 
     /tmp/ccxUk6vw.s:3457   .text:0000000000001090 .L0 
     /tmp/ccxUk6vw.s:3459   .text:0000000000001094 .L0 
     /tmp/ccxUk6vw.s:3461   .text:0000000000001098 .L0 
     /tmp/ccxUk6vw.s:3463   .text:000000000000109c .L0 
     /tmp/ccxUk6vw.s:3465   .text:00000000000010a0 .L0 
     /tmp/ccxUk6vw.s:3467   .text:00000000000010a4 .L0 
     /tmp/ccxUk6vw.s:3469   .text:00000000000010a8 .L0 
     /tmp/ccxUk6vw.s:3473   .text:00000000000010ac .L0 
     /tmp/ccxUk6vw.s:3477   .text:00000000000010ac .L0 
     /tmp/ccxUk6vw.s:3478   .text:00000000000010ac .L0 
     /tmp/ccxUk6vw.s:3481   .text:00000000000010b4 .L0 
     /tmp/ccxUk6vw.s:3482   .text:00000000000010b4 .L0 
     /tmp/ccxUk6vw.s:3485   .text:00000000000010b8 .L0 
     /tmp/ccxUk6vw.s:3486   .text:00000000000010b8 .L0 
     /tmp/ccxUk6vw.s:3489   .text:00000000000010bc .L0 
     /tmp/ccxUk6vw.s:3491   .text:00000000000010c0 .L0 
     /tmp/ccxUk6vw.s:3500   .text:00000000000010c8 .L0 
     /tmp/ccxUk6vw.s:3501   .text:00000000000010c8 .L0 
     /tmp/ccxUk6vw.s:3504   .text:00000000000010d0 .L0 
     /tmp/ccxUk6vw.s:3505   .text:00000000000010d0 .L0 
     /tmp/ccxUk6vw.s:3508   .text:00000000000010d4 .L0 
GAS LISTING /tmp/ccxUk6vw.s 			page 131


     /tmp/ccxUk6vw.s:3509   .text:00000000000010d4 .L0 
     /tmp/ccxUk6vw.s:3512   .text:00000000000010d8 .L0 
     /tmp/ccxUk6vw.s:3514   .text:00000000000010dc .L0 
     /tmp/ccxUk6vw.s:3518   .text:00000000000010e4 .L0 
     /tmp/ccxUk6vw.s:3524   .text:00000000000010e4 _ZN5RiscV12buildSectionEPvmmm
     /tmp/ccxUk6vw.s:3527   .text:00000000000010e4 .L0 
     /tmp/ccxUk6vw.s:3529   .text:00000000000010e4 .L0 
     /tmp/ccxUk6vw.s:3530   .text:00000000000010e8 .L0 
     /tmp/ccxUk6vw.s:3537   .text:0000000000001100 .L0 
     /tmp/ccxUk6vw.s:3538   .text:0000000000001100 .L0 
     /tmp/ccxUk6vw.s:3539   .text:0000000000001100 .L0 
     /tmp/ccxUk6vw.s:3540   .text:0000000000001100 .L0 
     /tmp/ccxUk6vw.s:3541   .text:0000000000001100 .L0 
     /tmp/ccxUk6vw.s:3542   .text:0000000000001100 .L0 
     /tmp/ccxUk6vw.s:3544   .text:0000000000001104 .L0 
     /tmp/ccxUk6vw.s:3553   .text:0000000000001114 .L0 
     /tmp/ccxUk6vw.s:3554   .text:0000000000001114 .L0 
     /tmp/ccxUk6vw.s:3556   .text:0000000000001118 .L0 
     /tmp/ccxUk6vw.s:3557   .text:0000000000001118 .L0 
     /tmp/ccxUk6vw.s:3563   .text:000000000000112c .L0 
     /tmp/ccxUk6vw.s:3564   .text:000000000000112c .L0 
     /tmp/ccxUk6vw.s:3568   .text:0000000000001134 .L0 
     /tmp/ccxUk6vw.s:3572   .text:0000000000001138 .L0 
     /tmp/ccxUk6vw.s:3573   .text:000000000000113c .L0 
     /tmp/ccxUk6vw.s:3575   .text:0000000000001140 .L0 
     /tmp/ccxUk6vw.s:3576   .text:0000000000001140 .L0 
     /tmp/ccxUk6vw.s:3578   .text:0000000000001144 .L0 
     /tmp/ccxUk6vw.s:3581   .text:0000000000001148 .L0 
     /tmp/ccxUk6vw.s:3584   .text:000000000000114c .L0 
     /tmp/ccxUk6vw.s:3587   .text:0000000000001150 .L0 
     /tmp/ccxUk6vw.s:3590   .text:0000000000001154 .L0 
     /tmp/ccxUk6vw.s:3592   .text:0000000000001158 .L0 
     /tmp/ccxUk6vw.s:3598   .text:0000000000001158 _ZN5RiscV19mapConsoleRegistersEPv
     /tmp/ccxUk6vw.s:3601   .text:0000000000001158 .L0 
     /tmp/ccxUk6vw.s:3603   .text:0000000000001158 .L0 
     /tmp/ccxUk6vw.s:3604   .text:000000000000115c .L0 
     /tmp/ccxUk6vw.s:3608   .text:0000000000001168 .L0 
     /tmp/ccxUk6vw.s:3609   .text:0000000000001168 .L0 
     /tmp/ccxUk6vw.s:3610   .text:0000000000001168 .L0 
     /tmp/ccxUk6vw.s:3612   .text:000000000000116c .L0 
     /tmp/ccxUk6vw.s:3615   .text:0000000000001170 .L0 
     /tmp/ccxUk6vw.s:3616   .text:0000000000001170 .L0 
     /tmp/ccxUk6vw.s:3622   .text:0000000000001188 .L0 
     /tmp/ccxUk6vw.s:3623   .text:0000000000001188 .L0 
     /tmp/ccxUk6vw.s:3630   .text:00000000000011a4 .L0 
     /tmp/ccxUk6vw.s:3631   .text:00000000000011a4 .L0 
     /tmp/ccxUk6vw.s:3638   .text:00000000000011c0 .L0 
     /tmp/ccxUk6vw.s:3639   .text:00000000000011c0 .L0 
     /tmp/ccxUk6vw.s:3646   .text:00000000000011d8 .L0 
     /tmp/ccxUk6vw.s:3647   .text:00000000000011dc .L0 
     /tmp/ccxUk6vw.s:3649   .text:00000000000011e0 .L0 
     /tmp/ccxUk6vw.s:3650   .text:00000000000011e0 .L0 
     /tmp/ccxUk6vw.s:3652   .text:00000000000011e4 .L0 
     /tmp/ccxUk6vw.s:3655   .text:00000000000011e8 .L0 
     /tmp/ccxUk6vw.s:3657   .text:00000000000011ec .L0 
     /tmp/ccxUk6vw.s:3663   .text:00000000000011ec _ZN5RiscV14buildKernelPMTEv
     /tmp/ccxUk6vw.s:3666   .text:00000000000011ec .L0 
GAS LISTING /tmp/ccxUk6vw.s 			page 132


     /tmp/ccxUk6vw.s:3667   .text:00000000000011ec .L0 
     /tmp/ccxUk6vw.s:3668   .text:00000000000011f0 .L0 
     /tmp/ccxUk6vw.s:3675   .text:0000000000001208 .L0 
     /tmp/ccxUk6vw.s:3676   .text:0000000000001208 .L0 
     /tmp/ccxUk6vw.s:3677   .text:0000000000001208 .L0 
     /tmp/ccxUk6vw.s:3678   .text:0000000000001208 .L0 
     /tmp/ccxUk6vw.s:3679   .text:0000000000001208 .L0 
     /tmp/ccxUk6vw.s:3680   .text:0000000000001208 .L0 
     /tmp/ccxUk6vw.s:3682   .text:000000000000120c .L0 
     /tmp/ccxUk6vw.s:3684   .text:000000000000120c .L0 
     /tmp/ccxUk6vw.s:3685   .text:000000000000120c .L0 
     /tmp/ccxUk6vw.s:3688   .text:0000000000001214 .L0 
     /tmp/ccxUk6vw.s:3691   .text:0000000000001220 .L0 
     /tmp/ccxUk6vw.s:3692   .text:0000000000001220 .L0 
     /tmp/ccxUk6vw.s:3696   .text:0000000000001230 .L0 
     /tmp/ccxUk6vw.s:3699   .text:000000000000123c .L0 
     /tmp/ccxUk6vw.s:3702   .text:0000000000001240 .L0 
     /tmp/ccxUk6vw.s:3703   .text:0000000000001240 .L0 
     /tmp/ccxUk6vw.s:3711   .text:0000000000001260 .L0 
     /tmp/ccxUk6vw.s:3712   .text:0000000000001260 .L0 
     /tmp/ccxUk6vw.s:3720   .text:0000000000001280 .L0 
     /tmp/ccxUk6vw.s:3721   .text:0000000000001280 .L0 
     /tmp/ccxUk6vw.s:3729   .text:00000000000012a0 .L0 
     /tmp/ccxUk6vw.s:3730   .text:00000000000012a0 .L0 
     /tmp/ccxUk6vw.s:3738   .text:00000000000012c0 .L0 
     /tmp/ccxUk6vw.s:3739   .text:00000000000012c0 .L0 
     /tmp/ccxUk6vw.s:3746   .text:00000000000012d8 .L0 
     /tmp/ccxUk6vw.s:3747   .text:00000000000012d8 .L0 
     /tmp/ccxUk6vw.s:3755   .text:00000000000012f8 .L0 
     /tmp/ccxUk6vw.s:3756   .text:00000000000012f8 .L0 
     /tmp/ccxUk6vw.s:3762   .text:0000000000001304 .L0 
     /tmp/ccxUk6vw.s:3763   .text:0000000000001304 .L0 
     /tmp/ccxUk6vw.s:3764   .text:0000000000001304 .L0 
     /tmp/ccxUk6vw.s:3774   .text:000000000000130c .L0 
     /tmp/ccxUk6vw.s:3775   .text:0000000000001310 .L0 
     /tmp/ccxUk6vw.s:3777   .text:0000000000001314 .L0 
     /tmp/ccxUk6vw.s:3778   .text:0000000000001314 .L0 
     /tmp/ccxUk6vw.s:3780   .text:0000000000001318 .L0 
     /tmp/ccxUk6vw.s:3782   .text:000000000000131c .L0 
     /tmp/ccxUk6vw.s:3785   .text:0000000000001320 .L0 
     /tmp/ccxUk6vw.s:3787   .text:0000000000001324 .L0 
     /tmp/ccxUk6vw.s:3789   .text:0000000000001328 .L0 
     /tmp/ccxUk6vw.s:3791   .text:000000000000132c .L0 
     /tmp/ccxUk6vw.s:3797   .text:000000000000132c _ZN5RiscV12buildUserPMTEv
     /tmp/ccxUk6vw.s:3800   .text:000000000000132c .L0 
     /tmp/ccxUk6vw.s:3801   .text:000000000000132c .L0 
     /tmp/ccxUk6vw.s:3802   .text:0000000000001330 .L0 
     /tmp/ccxUk6vw.s:3809   .text:0000000000001348 .L0 
     /tmp/ccxUk6vw.s:3810   .text:0000000000001348 .L0 
     /tmp/ccxUk6vw.s:3811   .text:0000000000001348 .L0 
     /tmp/ccxUk6vw.s:3812   .text:0000000000001348 .L0 
     /tmp/ccxUk6vw.s:3813   .text:0000000000001348 .L0 
     /tmp/ccxUk6vw.s:3814   .text:0000000000001348 .L0 
     /tmp/ccxUk6vw.s:3816   .text:000000000000134c .L0 
     /tmp/ccxUk6vw.s:3818   .text:000000000000134c .L0 
     /tmp/ccxUk6vw.s:3819   .text:000000000000134c .L0 
     /tmp/ccxUk6vw.s:3822   .text:0000000000001354 .L0 
GAS LISTING /tmp/ccxUk6vw.s 			page 133


     /tmp/ccxUk6vw.s:3825   .text:0000000000001360 .L0 
     /tmp/ccxUk6vw.s:3826   .text:0000000000001360 .L0 
     /tmp/ccxUk6vw.s:3830   .text:0000000000001370 .L0 
     /tmp/ccxUk6vw.s:3833   .text:000000000000137c .L0 
     /tmp/ccxUk6vw.s:3836   .text:0000000000001380 .L0 
     /tmp/ccxUk6vw.s:3837   .text:0000000000001380 .L0 
     /tmp/ccxUk6vw.s:3845   .text:00000000000013a0 .L0 
     /tmp/ccxUk6vw.s:3846   .text:00000000000013a0 .L0 
     /tmp/ccxUk6vw.s:3854   .text:00000000000013c0 .L0 
     /tmp/ccxUk6vw.s:3855   .text:00000000000013c0 .L0 
     /tmp/ccxUk6vw.s:3863   .text:00000000000013e0 .L0 
     /tmp/ccxUk6vw.s:3864   .text:00000000000013e0 .L0 
     /tmp/ccxUk6vw.s:3872   .text:0000000000001400 .L0 
     /tmp/ccxUk6vw.s:3873   .text:0000000000001400 .L0 
     /tmp/ccxUk6vw.s:3880   .text:0000000000001418 .L0 
     /tmp/ccxUk6vw.s:3881   .text:0000000000001418 .L0 
     /tmp/ccxUk6vw.s:3889   .text:0000000000001438 .L0 
     /tmp/ccxUk6vw.s:3890   .text:0000000000001438 .L0 
     /tmp/ccxUk6vw.s:3896   .text:0000000000001444 .L0 
     /tmp/ccxUk6vw.s:3897   .text:0000000000001444 .L0 
     /tmp/ccxUk6vw.s:3898   .text:0000000000001444 .L0 
     /tmp/ccxUk6vw.s:3908   .text:000000000000144c .L0 
     /tmp/ccxUk6vw.s:3909   .text:0000000000001450 .L0 
     /tmp/ccxUk6vw.s:3911   .text:0000000000001454 .L0 
     /tmp/ccxUk6vw.s:3912   .text:0000000000001454 .L0 
     /tmp/ccxUk6vw.s:3914   .text:0000000000001458 .L0 
     /tmp/ccxUk6vw.s:3916   .text:000000000000145c .L0 
     /tmp/ccxUk6vw.s:3919   .text:0000000000001460 .L0 
     /tmp/ccxUk6vw.s:3921   .text:0000000000001464 .L0 
     /tmp/ccxUk6vw.s:3923   .text:0000000000001468 .L0 
     /tmp/ccxUk6vw.s:3925   .text:000000000000146c .L0 
     /tmp/ccxUk6vw.s:3931   .text:000000000000146c _ZN5RiscV10initializeEv
     /tmp/ccxUk6vw.s:3934   .text:000000000000146c .L0 
     /tmp/ccxUk6vw.s:3935   .text:000000000000146c .L0 
     /tmp/ccxUk6vw.s:3936   .text:0000000000001470 .L0 
     /tmp/ccxUk6vw.s:3939   .text:0000000000001478 .L0 
     /tmp/ccxUk6vw.s:3940   .text:0000000000001478 .L0 
     /tmp/ccxUk6vw.s:3942   .text:000000000000147c .L0 
     /tmp/ccxUk6vw.s:3944   .text:000000000000147c .L0 
     /tmp/ccxUk6vw.s:3945   .text:000000000000147c .L0 
     /tmp/ccxUk6vw.s:3950   .text:0000000000001484 .L0 
src/kernel/../../h/kernel/riscv.hpp:205    .text:0000000000001484 .L0 
     /tmp/ccxUk6vw.s:3960   .text:0000000000001488 .L0 
     /tmp/ccxUk6vw.s:3961   .text:0000000000001488 .L0 
     /tmp/ccxUk6vw.s:3966   .text:000000000000149c .L0 
     /tmp/ccxUk6vw.s:3971   .text:00000000000014ac .L0 
     /tmp/ccxUk6vw.s:3972   .text:00000000000014ac .L0 
     /tmp/ccxUk6vw.s:3975   .text:00000000000014b4 .L0 
     /tmp/ccxUk6vw.s:3976   .text:00000000000014b4 .L0 
     /tmp/ccxUk6vw.s:3979   .text:00000000000014bc .L0 
     /tmp/ccxUk6vw.s:3980   .text:00000000000014bc .L0 
     /tmp/ccxUk6vw.s:3983   .text:00000000000014c4 .L0 
     /tmp/ccxUk6vw.s:3984   .text:00000000000014c4 .L0 
     /tmp/ccxUk6vw.s:3987   .text:00000000000014cc .L0 
     /tmp/ccxUk6vw.s:3988   .text:00000000000014cc .L0 
     /tmp/ccxUk6vw.s:3991   .text:00000000000014d4 .L0 
     /tmp/ccxUk6vw.s:3992   .text:00000000000014d4 .L0 
GAS LISTING /tmp/ccxUk6vw.s 			page 134


     /tmp/ccxUk6vw.s:3995   .text:00000000000014dc .L0 
     /tmp/ccxUk6vw.s:3996   .text:00000000000014dc .L0 
     /tmp/ccxUk6vw.s:3999   .text:00000000000014e4 .L0 
     /tmp/ccxUk6vw.s:4000   .text:00000000000014e4 .L0 
     /tmp/ccxUk6vw.s:4004   .text:00000000000014f4 .L0 
     /tmp/ccxUk6vw.s:4005   .text:00000000000014f4 .L0 
     /tmp/ccxUk6vw.s:4010   .text:00000000000014f8 .L0 
     /tmp/ccxUk6vw.s:4011   .text:00000000000014f8 .L0 
     /tmp/ccxUk6vw.s:4014   .text:00000000000014fc .L0 
     /tmp/ccxUk6vw.s:4019   .text:0000000000001508 .L0 
src/kernel/../../h/kernel/riscv.hpp:265    .text:0000000000001508 .L0 
     /tmp/ccxUk6vw.s:4029   .text:000000000000150c .L0 
     /tmp/ccxUk6vw.s:4033   .text:000000000000150c .L0 
     /tmp/ccxUk6vw.s:4034   .text:000000000000150c .L0 
     /tmp/ccxUk6vw.s:4035   .text:000000000000150c .L0 
     /tmp/ccxUk6vw.s:4049   .text:0000000000001514 .L0 
     /tmp/ccxUk6vw.s:4050   .text:0000000000001514 .L0 
     /tmp/ccxUk6vw.s:4051   .text:0000000000001514 .L0 
     /tmp/ccxUk6vw.s:4065   .text:000000000000151c .L0 
     /tmp/ccxUk6vw.s:4066   .text:000000000000151c .L0 
src/kernel/../../h/kernel/riscv.hpp:209    .text:000000000000151c .L0 
     /tmp/ccxUk6vw.s:4077   .text:0000000000001520 .L0 
     /tmp/ccxUk6vw.s:4078   .text:0000000000001524 .L0 
     /tmp/ccxUk6vw.s:4080   .text:0000000000001528 .L0 
     /tmp/ccxUk6vw.s:4081   .text:0000000000001528 .L0 
     /tmp/ccxUk6vw.s:4083   .text:000000000000152c .L0 
     /tmp/ccxUk6vw.s:4085   .text:0000000000001530 .L0 
     /tmp/ccxUk6vw.s:4115   .bss:0000000000000020 _ZN5RiscV11initializedE
     /tmp/ccxUk6vw.s:4111   .bss:0000000000000018 _ZN5RiscV4uPMTE
     /tmp/ccxUk6vw.s:4107   .bss:0000000000000010 _ZN5RiscV4kPMTE
     /tmp/ccxUk6vw.s:4098   .bss:0000000000000000 _ZN5RiscV16userMainFinishedE
     /tmp/ccxUk6vw.s:4103   .bss:0000000000000008 _ZN5RiscV10globalTimeE
     /tmp/ccxUk6vw.s:4095   .bss:0000000000000000 .LANCHOR0
     /tmp/ccxUk6vw.s:4130   .text:0000000000001530 .L0 
     /tmp/ccxUk6vw.s:22     .text:000000000000000c .L0 
     /tmp/ccxUk6vw.s:48     .text:0000000000000034 .L0 
     /tmp/ccxUk6vw.s:100    .text:0000000000000068 .L0 
     /tmp/ccxUk6vw.s:140    .text:00000000000000a4 .L0 
     /tmp/ccxUk6vw.s:145    .text:00000000000000b0 .L0 
     /tmp/ccxUk6vw.s:191    .text:00000000000000f0 .L0 
     /tmp/ccxUk6vw.s:261    .text:000000000000013c .L0 
     /tmp/ccxUk6vw.s:264    .text:0000000000000144 .L0 
     /tmp/ccxUk6vw.s:268    .text:0000000000000150 .L0 
     /tmp/ccxUk6vw.s:321    .text:000000000000016c .L0 
     /tmp/ccxUk6vw.s:328    .text:0000000000000180 .L0 
     /tmp/ccxUk6vw.s:335    .text:0000000000000190 .L0 
     /tmp/ccxUk6vw.s:342    .text:00000000000001a4 .L0 
     /tmp/ccxUk6vw.s:344    .text:00000000000001b0 .L0 
     /tmp/ccxUk6vw.s:389    .text:00000000000001ec .L0 
     /tmp/ccxUk6vw.s:486    .text:000000000000025c .L0 
     /tmp/ccxUk6vw.s:971    .text:00000000000004a0 .L0 
     /tmp/ccxUk6vw.s:1265   .text:00000000000005fc .L0 
     /tmp/ccxUk6vw.s:1403   .text:00000000000006a4 .L0 
     /tmp/ccxUk6vw.s:1408   .text:00000000000006b0 .L0 
     /tmp/ccxUk6vw.s:1475   .text:0000000000000718 .L0 
     /tmp/ccxUk6vw.s:1480   .text:0000000000000724 .L0 
     /tmp/ccxUk6vw.s:1767   .text:00000000000008bc .L0 
GAS LISTING /tmp/ccxUk6vw.s 			page 135


     /tmp/ccxUk6vw.s:1800   .text:000000000000090c .L0 
     /tmp/ccxUk6vw.s:1805   .text:000000000000091c .L0 
     /tmp/ccxUk6vw.s:1810   .text:000000000000092c .L0 
     /tmp/ccxUk6vw.s:2003   .text:00000000000009fc .L0 
     /tmp/ccxUk6vw.s:2085   .text:0000000000000a3c .L0 
     /tmp/ccxUk6vw.s:2026   .rodata.str1.8:0000000000000038 .LC3
     /tmp/ccxUk6vw.s:2146   .text:0000000000000a9c .L0 
     /tmp/ccxUk6vw.s:2029   .rodata.str1.8:0000000000000048 .LC4
     /tmp/ccxUk6vw.s:2151   .text:0000000000000aac .L0 
     /tmp/ccxUk6vw.s:2017   .rodata.str1.8:0000000000000000 .LC0
     /tmp/ccxUk6vw.s:2182   .text:0000000000000adc .L0 
     /tmp/ccxUk6vw.s:2020   .rodata.str1.8:0000000000000008 .LC1
     /tmp/ccxUk6vw.s:2208   .text:0000000000000b04 .L0 
     /tmp/ccxUk6vw.s:2214   .text:0000000000000b18 .L0 
     /tmp/ccxUk6vw.s:2032   .rodata.str1.8:0000000000000058 .LC5
     /tmp/ccxUk6vw.s:2216   .text:0000000000000b24 .L0 
     /tmp/ccxUk6vw.s:2221   .text:0000000000000b34 .L0 
     /tmp/ccxUk6vw.s:2035   .rodata.str1.8:0000000000000060 .LC6
     /tmp/ccxUk6vw.s:2230   .text:0000000000000b48 .L0 
     /tmp/ccxUk6vw.s:2282   .text:0000000000000b78 .L0 
     /tmp/ccxUk6vw.s:2313   .rodata:0000000000000000 .L116
     /tmp/ccxUk6vw.s:2305   .text:0000000000000ba4 .L0 
     /tmp/ccxUk6vw.s:2423   .text:0000000000000bc4 .L0 
     /tmp/ccxUk6vw.s:2616   .text:0000000000000cc0 .L0 
     /tmp/ccxUk6vw.s:2683   .text:0000000000000cf8 .L0 
     /tmp/ccxUk6vw.s:2693   .text:0000000000000d14 .L0 
     /tmp/ccxUk6vw.s:2700   .text:0000000000000d28 .L0 
     /tmp/ccxUk6vw.s:2746   .text:0000000000000d50 .L0 
     /tmp/ccxUk6vw.s:2801   .text:0000000000000d80 .L0 
     /tmp/ccxUk6vw.s:2834   .text:0000000000000da0 .L0 
     /tmp/ccxUk6vw.s:2858   .text:0000000000000dbc .L0 
     /tmp/ccxUk6vw.s:2913   .text:0000000000000df4 .L0 
     /tmp/ccxUk6vw.s:2929   .text:0000000000000e0c .L0 
     /tmp/ccxUk6vw.s:2938   .text:0000000000000e20 .L0 
     /tmp/ccxUk6vw.s:2964   .text:0000000000000e48 .L0 
     /tmp/ccxUk6vw.s:2023   .rodata.str1.8:0000000000000010 .LC2
     /tmp/ccxUk6vw.s:2969   .text:0000000000000e58 .L0 
     /tmp/ccxUk6vw.s:3198   .text:0000000000000f4c .L0 
     /tmp/ccxUk6vw.s:3235   .text:0000000000000f78 .L0 
     /tmp/ccxUk6vw.s:3262   .text:0000000000000f94 .L0 
     /tmp/ccxUk6vw.s:3269   .text:0000000000000fa8 .L0 
     /tmp/ccxUk6vw.s:3617   .text:0000000000001174 .L0 
     /tmp/ccxUk6vw.s:3624   .text:000000000000118c .L0 
     /tmp/ccxUk6vw.s:3632   .text:00000000000011a8 .L0 
     /tmp/ccxUk6vw.s:3688   .text:0000000000001214 .L0 
     /tmp/ccxUk6vw.s:3692   .text:0000000000001220 .L0 
     /tmp/ccxUk6vw.s:3696   .text:0000000000001230 .L0 
     /tmp/ccxUk6vw.s:3703   .text:0000000000001240 .L0 
     /tmp/ccxUk6vw.s:3712   .text:0000000000001260 .L0 
     /tmp/ccxUk6vw.s:3721   .text:0000000000001280 .L0 
     /tmp/ccxUk6vw.s:3730   .text:00000000000012a0 .L0 
     /tmp/ccxUk6vw.s:3748   .text:00000000000012dc .L0 
     /tmp/ccxUk6vw.s:3822   .text:0000000000001354 .L0 
     /tmp/ccxUk6vw.s:3826   .text:0000000000001360 .L0 
     /tmp/ccxUk6vw.s:3830   .text:0000000000001370 .L0 
     /tmp/ccxUk6vw.s:3837   .text:0000000000001380 .L0 
     /tmp/ccxUk6vw.s:3846   .text:00000000000013a0 .L0 
GAS LISTING /tmp/ccxUk6vw.s 			page 136


     /tmp/ccxUk6vw.s:3855   .text:00000000000013c0 .L0 
     /tmp/ccxUk6vw.s:3864   .text:00000000000013e0 .L0 
     /tmp/ccxUk6vw.s:3882   .text:000000000000141c .L0 
     /tmp/ccxUk6vw.s:3945   .text:000000000000147c .L0 
     /tmp/ccxUk6vw.s:3961   .text:0000000000001488 .L0 
     /tmp/ccxUk6vw.s:4000   .text:00000000000014e4 .L0 
     /tmp/ccxUk6vw.s:70     .text:0000000000000050 .L5
     /tmp/ccxUk6vw.s:54     .text:0000000000000040 .L3
     /tmp/ccxUk6vw.s:149    .text:00000000000000c4 .L9
     /tmp/ccxUk6vw.s:222    .text:000000000000011c .L15
     /tmp/ccxUk6vw.s:211    .text:0000000000000110 .L11
     /tmp/ccxUk6vw.s:332    .text:0000000000000190 .L17
     /tmp/ccxUk6vw.s:313    .text:000000000000016c .L18
     /tmp/ccxUk6vw.s:353    .text:00000000000001cc .L16
     /tmp/ccxUk6vw.s:339    .text:00000000000001a4 .L20
     /tmp/ccxUk6vw.s:514    .text:000000000000028c .L30
     /tmp/ccxUk6vw.s:491    .text:0000000000000270 .L27
     /tmp/ccxUk6vw.s:605    .text:00000000000002fc .L32
     /tmp/ccxUk6vw.s:666    .text:000000000000034c .L36
     /tmp/ccxUk6vw.s:621    .text:0000000000000314 .L34
     /tmp/ccxUk6vw.s:627    .text:000000000000031c .L33
     /tmp/ccxUk6vw.s:783    .text:00000000000003d0 .L41
     /tmp/ccxUk6vw.s:837    .text:0000000000000414 .L44
     /tmp/ccxUk6vw.s:798    .text:00000000000003e4 .L42
     /tmp/ccxUk6vw.s:931    .text:0000000000000470 .L52
     /tmp/ccxUk6vw.s:908    .text:0000000000000454 .L49
     /tmp/ccxUk6vw.s:1014   .text:00000000000004e0 .L55
     /tmp/ccxUk6vw.s:990    .text:00000000000004c4 .L54
     /tmp/ccxUk6vw.s:1077   .text:000000000000052c .L58
     /tmp/ccxUk6vw.s:1119   .text:0000000000000560 .L61
     /tmp/ccxUk6vw.s:1086   .text:0000000000000538 .L59
     /tmp/ccxUk6vw.s:1218   .text:00000000000005c4 .L69
     /tmp/ccxUk6vw.s:1191   .text:00000000000005a4 .L66
     /tmp/ccxUk6vw.s:1296   .text:0000000000000630 .L75
     /tmp/ccxUk6vw.s:1304   .text:000000000000063c .L73
     /tmp/ccxUk6vw.s:1262   .text:00000000000005fc .L71
     /tmp/ccxUk6vw.s:1272   .text:0000000000000614 .L72
     /tmp/ccxUk6vw.s:1364   .text:000000000000067c .L80
     /tmp/ccxUk6vw.s:1341   .text:0000000000000660 .L77
     /tmp/ccxUk6vw.s:1484   .text:0000000000000738 .L84
     /tmp/ccxUk6vw.s:1523   .text:0000000000000774 .L88
     /tmp/ccxUk6vw.s:1538   .text:0000000000000790 .L89
     /tmp/ccxUk6vw.s:1498   .text:0000000000000754 .L86
     /tmp/ccxUk6vw.s:1646   .text:0000000000000810 .L95
     /tmp/ccxUk6vw.s:1618   .text:00000000000007ec .L93
     /tmp/ccxUk6vw.s:1722   .text:0000000000000878 .L99
     /tmp/ccxUk6vw.s:1694   .text:0000000000000854 .L97
     /tmp/ccxUk6vw.s:1792   .text:0000000000000908 .L101
     /tmp/ccxUk6vw.s:1929   .text:00000000000009c4 .L104
     /tmp/ccxUk6vw.s:1899   .text:00000000000009a0 .L102
     /tmp/ccxUk6vw.s:2238   .text:0000000000000b64 .L111
     /tmp/ccxUk6vw.s:2628   .text:0000000000000ce0 .L141
     /tmp/ccxUk6vw.s:2760   .text:0000000000000d70 .L142
     /tmp/ccxUk6vw.s:2921   .text:0000000000000e0c .L143
     /tmp/ccxUk6vw.s:2453   .text:0000000000000be0 .L134
     /tmp/ccxUk6vw.s:2420   .text:0000000000000bc4 .L114
     /tmp/ccxUk6vw.s:2739   .text:0000000000000d50 .L144
GAS LISTING /tmp/ccxUk6vw.s 			page 137


     /tmp/ccxUk6vw.s:2705   .text:0000000000000d3c .L135
     /tmp/ccxUk6vw.s:2864   .text:0000000000000dcc .L137
     /tmp/ccxUk6vw.s:2905   .text:0000000000000df0 .L145
     /tmp/ccxUk6vw.s:3031   .text:0000000000000eb8 .L149
     /tmp/ccxUk6vw.s:3035   .text:0000000000000ebc .L147
     /tmp/ccxUk6vw.s:3071   .text:0000000000000ed4 .L146
     /tmp/ccxUk6vw.s:3191   .text:0000000000000f4c .L156
     /tmp/ccxUk6vw.s:3184   .text:0000000000000f44 .L157
     /tmp/ccxUk6vw.s:3319   .text:0000000000000ff4 .L160
     /tmp/ccxUk6vw.s:3304   .text:0000000000000fd8 .L162
     /tmp/ccxUk6vw.s:3472   .text:00000000000010ac .L170
     /tmp/ccxUk6vw.s:3495   .text:00000000000010c8 .L171
     /tmp/ccxUk6vw.s:3413   .text:000000000000105c .L166
     /tmp/ccxUk6vw.s:3434   .text:0000000000001074 .L168
     /tmp/ccxUk6vw.s:3569   .text:0000000000001138 .L172
     /tmp/ccxUk6vw.s:3551   .text:0000000000001114 .L174
     /tmp/ccxUk6vw.s:590    .text:00000000000002d4 .LEHB0
     /tmp/ccxUk6vw.s:537    .text:000000000000029c .LFB52
     /tmp/ccxUk6vw.s:593    .text:00000000000002dc .LEHE0
     /tmp/ccxUk6vw.s:601    .text:00000000000002f4 .LEHB1
     /tmp/ccxUk6vw.s:604    .text:00000000000002fc .LEHE1
     /tmp/ccxUk6vw.s:672    .text:0000000000000354 .L37
     /tmp/ccxUk6vw.s:617    .text:000000000000030c .LEHB2
     /tmp/ccxUk6vw.s:620    .text:0000000000000314 .LEHE2
     /tmp/ccxUk6vw.s:680    .text:0000000000000368 .LEHB3
     /tmp/ccxUk6vw.s:683    .text:0000000000000370 .LEHE3
     /tmp/ccxUk6vw.s:768    .text:00000000000003a8 .LEHB4
     /tmp/ccxUk6vw.s:715    .text:0000000000000370 .LFB53
     /tmp/ccxUk6vw.s:771    .text:00000000000003b0 .LEHE4
     /tmp/ccxUk6vw.s:779    .text:00000000000003c8 .LEHB5
     /tmp/ccxUk6vw.s:782    .text:00000000000003d0 .LEHE5
     /tmp/ccxUk6vw.s:843    .text:000000000000041c .L45
     /tmp/ccxUk6vw.s:851    .text:0000000000000430 .LEHB6
     /tmp/ccxUk6vw.s:854    .text:0000000000000438 .LEHE6
     /tmp/ccxUk6vw.s:1065   .text:0000000000000510 .LEHB7
     /tmp/ccxUk6vw.s:1028   .text:00000000000004e8 .LFB57
     /tmp/ccxUk6vw.s:1068   .text:0000000000000518 .LEHE7
     /tmp/ccxUk6vw.s:1073   .text:0000000000000524 .LEHB8
     /tmp/ccxUk6vw.s:1076   .text:000000000000052c .LEHE8
     /tmp/ccxUk6vw.s:1125   .text:0000000000000568 .L62
     /tmp/ccxUk6vw.s:1133   .text:000000000000057c .LEHB9
     /tmp/ccxUk6vw.s:1136   .text:0000000000000584 .LEHE9
     /tmp/ccxUk6vw.s:1760   .text:00000000000008b0 .LEHB10
     /tmp/ccxUk6vw.s:1740   .text:0000000000000894 .LFB71
     /tmp/ccxUk6vw.s:1780   .text:00000000000008e8 .LEHE10
     /tmp/ccxUk6vw.s:1788   .text:0000000000000900 .LEHB11
     /tmp/ccxUk6vw.s:1791   .text:0000000000000908 .LEHE11
     /tmp/ccxUk6vw.s:1937   .text:00000000000009cc .L105
     /tmp/ccxUk6vw.s:1894   .text:0000000000000998 .LEHB12
     /tmp/ccxUk6vw.s:1897   .text:00000000000009a0 .LEHE12
     /tmp/ccxUk6vw.s:1946   .text:00000000000009e0 .LEHB13
     /tmp/ccxUk6vw.s:1949   .text:00000000000009e8 .LEHE13
     /tmp/ccxUk6vw.s:2413   .text:0000000000000bbc .L133
     /tmp/ccxUk6vw.s:2476   .text:0000000000000bfc .L132
     /tmp/ccxUk6vw.s:2487   .text:0000000000000c08 .L131
     /tmp/ccxUk6vw.s:2495   .text:0000000000000c14 .L130
     /tmp/ccxUk6vw.s:2503   .text:0000000000000c20 .L129
GAS LISTING /tmp/ccxUk6vw.s 			page 138


     /tmp/ccxUk6vw.s:2511   .text:0000000000000c2c .L128
     /tmp/ccxUk6vw.s:2519   .text:0000000000000c38 .L127
     /tmp/ccxUk6vw.s:2527   .text:0000000000000c44 .L126
     /tmp/ccxUk6vw.s:2535   .text:0000000000000c50 .L125
     /tmp/ccxUk6vw.s:2543   .text:0000000000000c5c .L124
     /tmp/ccxUk6vw.s:2551   .text:0000000000000c68 .L123
     /tmp/ccxUk6vw.s:2559   .text:0000000000000c74 .L122
     /tmp/ccxUk6vw.s:2567   .text:0000000000000c80 .L121
     /tmp/ccxUk6vw.s:2575   .text:0000000000000c8c .L120
     /tmp/ccxUk6vw.s:2583   .text:0000000000000c98 .L119
     /tmp/ccxUk6vw.s:2591   .text:0000000000000ca4 .L118
     /tmp/ccxUk6vw.s:2599   .text:0000000000000cb0 .L117
     /tmp/ccxUk6vw.s:2607   .text:0000000000000cbc .L115
     /tmp/ccxUk6vw.s:9203   .debug_abbrev:0000000000000000 .Ldebug_abbrev0
     /tmp/ccxUk6vw.s:12761  .debug_str:0000000000001720 .LASF380
     /tmp/ccxUk6vw.s:12459  .debug_str:0000000000000d47 .LASF381
     /tmp/ccxUk6vw.s:12681  .debug_str:0000000000001429 .LASF382
     /tmp/ccxUk6vw.s:5      .text:0000000000000000 .Ltext0
     /tmp/ccxUk6vw.s:4118   .text:0000000000001530 .Letext0
     /tmp/ccxUk6vw.s:12045  .debug_line:0000000000000000 .Ldebug_line0
     /tmp/ccxUk6vw.s:12103  .debug_str:00000000000001f4 .LASF0
     /tmp/ccxUk6vw.s:12757  .debug_str:0000000000001705 .LASF1
     /tmp/ccxUk6vw.s:12689  .debug_str:0000000000001491 .LASF2
     /tmp/ccxUk6vw.s:12629  .debug_str:0000000000001296 .LASF4
     /tmp/ccxUk6vw.s:12647  .debug_str:0000000000001328 .LASF3
     /tmp/ccxUk6vw.s:12261  .debug_str:0000000000000692 .LASF5
     /tmp/ccxUk6vw.s:12331  .debug_str:00000000000008e5 .LASF6
     /tmp/ccxUk6vw.s:12543  .debug_str:0000000000000ff8 .LASF7
     /tmp/ccxUk6vw.s:12145  .debug_str:0000000000000320 .LASF8
     /tmp/ccxUk6vw.s:12741  .debug_str:000000000000164f .LASF9
     /tmp/ccxUk6vw.s:12265  .debug_str:00000000000006a4 .LASF10
     /tmp/ccxUk6vw.s:12185  .debug_str:000000000000043a .LASF11
     /tmp/ccxUk6vw.s:12365  .debug_str:00000000000009fa .LASF12
     /tmp/ccxUk6vw.s:12277  .debug_str:0000000000000705 .LASF13
     /tmp/ccxUk6vw.s:12605  .debug_str:00000000000011fd .LASF14
     /tmp/ccxUk6vw.s:12283  .debug_str:0000000000000726 .LASF15
     /tmp/ccxUk6vw.s:12229  .debug_str:00000000000005ba .LASF16
     /tmp/ccxUk6vw.s:12155  .debug_str:000000000000035c .LASF153
     /tmp/ccxUk6vw.s:12337  .debug_str:000000000000092e .LASF20
     /tmp/ccxUk6vw.s:12737  .debug_str:0000000000001630 .LASF17
     /tmp/ccxUk6vw.s:12095  .debug_str:0000000000000183 .LASF18
     /tmp/ccxUk6vw.s:12299  .debug_str:00000000000007bc .LASF19
     /tmp/ccxUk6vw.s:12293  .debug_str:0000000000000780 .LASF21
     /tmp/ccxUk6vw.s:12249  .debug_str:000000000000064a .LASF22
     /tmp/ccxUk6vw.s:12559  .debug_str:0000000000001086 .LASF23
     /tmp/ccxUk6vw.s:12611  .debug_str:0000000000001225 .LASF24
     /tmp/ccxUk6vw.s:12093  .debug_str:0000000000000178 .LASF25
     /tmp/ccxUk6vw.s:12163  .debug_str:000000000000038e .LASF26
     /tmp/ccxUk6vw.s:12683  .debug_str:000000000000145a .LASF27
     /tmp/ccxUk6vw.s:12235  .debug_str:00000000000005fb .LASF28
     /tmp/ccxUk6vw.s:12655  .debug_str:0000000000001358 .LASF29
     /tmp/ccxUk6vw.s:12533  .debug_str:0000000000000fc3 .LASF30
     /tmp/ccxUk6vw.s:12457  .debug_str:0000000000000d23 .LASF32
     /tmp/ccxUk6vw.s:12321  .debug_str:0000000000000889 .LASF31
     /tmp/ccxUk6vw.s:12745  .debug_str:0000000000001662 .LASF33
     /tmp/ccxUk6vw.s:12143  .debug_str:0000000000000305 .LASF34
     /tmp/ccxUk6vw.s:12351  .debug_str:0000000000000985 .LASF35
GAS LISTING /tmp/ccxUk6vw.s 			page 139


     /tmp/ccxUk6vw.s:12207  .debug_str:00000000000004cc .LASF36
     /tmp/ccxUk6vw.s:12687  .debug_str:000000000000146b .LASF37
     /tmp/ccxUk6vw.s:12475  .debug_str:0000000000000dd2 .LASF38
     /tmp/ccxUk6vw.s:12511  .debug_str:0000000000000f1c .LASF39
     /tmp/ccxUk6vw.s:12097  .debug_str:0000000000000190 .LASF40
     /tmp/ccxUk6vw.s:12297  .debug_str:0000000000000790 .LASF41
     /tmp/ccxUk6vw.s:12313  .debug_str:000000000000084c .LASF42
     /tmp/ccxUk6vw.s:12705  .debug_str:00000000000014f9 .LASF43
     /tmp/ccxUk6vw.s:12495  .debug_str:0000000000000e51 .LASF44
     /tmp/ccxUk6vw.s:12227  .debug_str:0000000000000597 .LASF45
     /tmp/ccxUk6vw.s:12211  .debug_str:00000000000004ec .LASF46
     /tmp/ccxUk6vw.s:12713  .debug_str:000000000000155a .LASF47
     /tmp/ccxUk6vw.s:12787  .debug_str:0000000000001892 .LASF48
     /tmp/ccxUk6vw.s:12501  .debug_str:0000000000000ea5 .LASF49
     /tmp/ccxUk6vw.s:12129  .debug_str:0000000000000297 .LASF50
     /tmp/ccxUk6vw.s:12499  .debug_str:0000000000000e80 .LASF51
     /tmp/ccxUk6vw.s:12711  .debug_str:0000000000001542 .LASF52
     /tmp/ccxUk6vw.s:12303  .debug_str:00000000000007ef .LASF53
     /tmp/ccxUk6vw.s:12161  .debug_str:000000000000037b .LASF54
     /tmp/ccxUk6vw.s:12385  .debug_str:0000000000000a98 .LASF55
     /tmp/ccxUk6vw.s:12335  .debug_str:000000000000091b .LASF56
     /tmp/ccxUk6vw.s:12413  .debug_str:0000000000000baa .LASF57
     /tmp/ccxUk6vw.s:12067  .debug_str:0000000000000090 .LASF58
     /tmp/ccxUk6vw.s:12749  .debug_str:00000000000016a3 .LASF59
     /tmp/ccxUk6vw.s:12785  .debug_str:0000000000001879 .LASF60
     /tmp/ccxUk6vw.s:12271  .debug_str:00000000000006c9 .LASF61
     /tmp/ccxUk6vw.s:12289  .debug_str:0000000000000757 .LASF62
     /tmp/ccxUk6vw.s:12469  .debug_str:0000000000000d8e .LASF63
     /tmp/ccxUk6vw.s:12047  .debug_str:0000000000000000 .LASF64
     /tmp/ccxUk6vw.s:12637  .debug_str:00000000000012d7 .LASF65
     /tmp/ccxUk6vw.s:12727  .debug_str:00000000000015fb .LASF66
     /tmp/ccxUk6vw.s:12619  .debug_str:0000000000001241 .LASF68
     /tmp/ccxUk6vw.s:12565  .debug_str:00000000000010bc .LASF67
     /tmp/ccxUk6vw.s:12451  .debug_str:0000000000000ce8 .LASF69
     /tmp/ccxUk6vw.s:12085  .debug_str:0000000000000133 .LASF70
     /tmp/ccxUk6vw.s:12557  .debug_str:000000000000106a .LASF71
     /tmp/ccxUk6vw.s:12677  .debug_str:000000000000140d .LASF72
     /tmp/ccxUk6vw.s:12069  .debug_str:00000000000000a7 .LASF73
     /tmp/ccxUk6vw.s:12789  .debug_str:00000000000018a8 .LASF76
     /tmp/ccxUk6vw.s:12579  .debug_str:0000000000001145 .LASF78
     /tmp/ccxUk6vw.s:12585  .debug_str:000000000000117a .LASF74
     /tmp/ccxUk6vw.s:12709  .debug_str:000000000000152d .LASF75
     /tmp/ccxUk6vw.s:12203  .debug_str:00000000000004b5 .LASF77
     /tmp/ccxUk6vw.s:12627  .debug_str:0000000000001283 .LASF79
     /tmp/ccxUk6vw.s:12255  .debug_str:0000000000000662 .LASF80
     /tmp/ccxUk6vw.s:12419  .debug_str:0000000000000bd8 .LASF81
     /tmp/ccxUk6vw.s:12759  .debug_str:0000000000001718 .LASF82
     /tmp/ccxUk6vw.s:12257  .debug_str:0000000000000669 .LASF83
     /tmp/ccxUk6vw.s:12595  .debug_str:00000000000011bb .LASF84
     /tmp/ccxUk6vw.s:12601  .debug_str:00000000000011da .LASF85
     /tmp/ccxUk6vw.s:12273  .debug_str:00000000000006ef .LASF86
     /tmp/ccxUk6vw.s:12449  .debug_str:0000000000000cd2 .LASF87
     /tmp/ccxUk6vw.s:12241  .debug_str:000000000000062d .LASF88
     /tmp/ccxUk6vw.s:12513  .debug_str:0000000000000f46 .LASF89
     /tmp/ccxUk6vw.s:12433  .debug_str:0000000000000c38 .LASF90
     /tmp/ccxUk6vw.s:12807  .debug_str:000000000000191d .LASF91
     /tmp/ccxUk6vw.s:12133  .debug_str:00000000000002b8 .LASF92
GAS LISTING /tmp/ccxUk6vw.s 			page 140


     /tmp/ccxUk6vw.s:12633  .debug_str:00000000000012b5 .LASF93
     /tmp/ccxUk6vw.s:12701  .debug_str:00000000000014df .LASF94
     /tmp/ccxUk6vw.s:12225  .debug_str:0000000000000584 .LASF95
     /tmp/ccxUk6vw.s:12247  .debug_str:0000000000000643 .LASF96
     /tmp/ccxUk6vw.s:12285  .debug_str:000000000000073c .LASF97
     /tmp/ccxUk6vw.s:12691  .debug_str:000000000000149f .LASF98
     /tmp/ccxUk6vw.s:12141  .debug_str:00000000000002f2 .LASF99
     /tmp/ccxUk6vw.s:12327  .debug_str:00000000000008c2 .LASF100
     /tmp/ccxUk6vw.s:12803  .debug_str:00000000000018f1 .LASF101
     /tmp/ccxUk6vw.s:12291  .debug_str:0000000000000773 .LASF102
     /tmp/ccxUk6vw.s:12445  .debug_str:0000000000000c98 .LASF104
     /tmp/ccxUk6vw.s:12081  .debug_str:000000000000011b .LASF103
     /tmp/ccxUk6vw.s:12179  .debug_str:000000000000040f .LASF105
     /tmp/ccxUk6vw.s:12175  .debug_str:00000000000003fb .LASF106
     /tmp/ccxUk6vw.s:12675  .debug_str:00000000000013f3 .LASF107
     /tmp/ccxUk6vw.s:12695  .debug_str:00000000000014b3 .LASF108
     /tmp/ccxUk6vw.s:12819  .debug_str:000000000000198c .LASF109
     /tmp/ccxUk6vw.s:12383  .debug_str:0000000000000a86 .LASF110
     /tmp/ccxUk6vw.s:12373  .debug_str:0000000000000a2e .LASF111
     /tmp/ccxUk6vw.s:12405  .debug_str:0000000000000b67 .LASF112
     /tmp/ccxUk6vw.s:12323  .debug_str:000000000000089f .LASF113
     /tmp/ccxUk6vw.s:12747  .debug_str:0000000000001685 .LASF114
     /tmp/ccxUk6vw.s:12169  .debug_str:00000000000003b2 .LASF115
     /tmp/ccxUk6vw.s:12545  .debug_str:000000000000100b .LASF116
     /tmp/ccxUk6vw.s:12523  .debug_str:0000000000000f86 .LASF117
     /tmp/ccxUk6vw.s:12275  .debug_str:00000000000006f9 .LASF118
     /tmp/ccxUk6vw.s:12497  .debug_str:0000000000000e67 .LASF119
     /tmp/ccxUk6vw.s:12517  .debug_str:0000000000000f65 .LASF120
     /tmp/ccxUk6vw.s:12431  .debug_str:0000000000000c26 .LASF121
     /tmp/ccxUk6vw.s:12573  .debug_str:000000000000110b .LASF122
     /tmp/ccxUk6vw.s:12329  .debug_str:00000000000008c9 .LASF123
     /tmp/ccxUk6vw.s:12111  .debug_str:0000000000000212 .LASF124
     /tmp/ccxUk6vw.s:12395  .debug_str:0000000000000af4 .LASF125
     /tmp/ccxUk6vw.s:12823  .debug_str:00000000000019bc .LASF126
     /tmp/ccxUk6vw.s:12719  .debug_str:00000000000015a7 .LASF127
     /tmp/ccxUk6vw.s:12809  .debug_str:0000000000001935 .LASF128
     /tmp/ccxUk6vw.s:12669  .debug_str:00000000000013b9 .LASF129
     /tmp/ccxUk6vw.s:12805  .debug_str:0000000000001904 .LASF130
     /tmp/ccxUk6vw.s:12509  .debug_str:0000000000000ef6 .LASF131
     /tmp/ccxUk6vw.s:12063  .debug_str:0000000000000060 .LASF132
     /tmp/ccxUk6vw.s:12301  .debug_str:00000000000007c8 .LASF133
     /tmp/ccxUk6vw.s:12223  .debug_str:000000000000056e .LASF134
     /tmp/ccxUk6vw.s:12751  .debug_str:00000000000016c7 .LASF135
     /tmp/ccxUk6vw.s:12127  .debug_str:0000000000000280 .LASF136
     /tmp/ccxUk6vw.s:12765  .debug_str:00000000000017f7 .LASF137
     /tmp/ccxUk6vw.s:12117  .debug_str:000000000000023d .LASF138
     /tmp/ccxUk6vw.s:12715  .debug_str:000000000000157e .LASF139
     /tmp/ccxUk6vw.s:12263  .debug_str:0000000000000699 .LASF140
     /tmp/ccxUk6vw.s:12631  .debug_str:000000000000129d .LASF141
     /tmp/ccxUk6vw.s:12717  .debug_str:000000000000159e .LASF142
     /tmp/ccxUk6vw.s:12547  .debug_str:0000000000001016 .LASF143
     /tmp/ccxUk6vw.s:12369  .debug_str:0000000000000a13 .LASF144
     /tmp/ccxUk6vw.s:12783  .debug_str:0000000000001866 .LASF145
     /tmp/ccxUk6vw.s:12317  .debug_str:0000000000000876 .LASF146
     /tmp/ccxUk6vw.s:12401  .debug_str:0000000000000b43 .LASF147
     /tmp/ccxUk6vw.s:12429  .debug_str:0000000000000c17 .LASF148
     /tmp/ccxUk6vw.s:12563  .debug_str:00000000000010a0 .LASF149
GAS LISTING /tmp/ccxUk6vw.s 			page 141


     /tmp/ccxUk6vw.s:12609  .debug_str:0000000000001218 .LASF150
     /tmp/ccxUk6vw.s:12389  .debug_str:0000000000000acb .LASF151
     /tmp/ccxUk6vw.s:12371  .debug_str:0000000000000a1a .LASF254
     /tmp/ccxUk6vw.s:12089  .debug_str:0000000000000149 .LASF256
     /tmp/ccxUk6vw.s:12415  .debug_str:0000000000000bca .LASF152
     /tmp/ccxUk6vw.s:12531  .debug_str:0000000000000fbb .LASF213
     /tmp/ccxUk6vw.s:12109  .debug_str:000000000000020b .LASF154
     /tmp/ccxUk6vw.s:12287  .debug_str:000000000000074f .LASF155
     /tmp/ccxUk6vw.s:12411  .debug_str:0000000000000ba4 .LASF156
     /tmp/ccxUk6vw.s:12397  .debug_str:0000000000000b16 .LASF157
     /tmp/ccxUk6vw.s:12617  .debug_str:0000000000001239 .LASF158
     /tmp/ccxUk6vw.s:12537  .debug_str:0000000000000fe4 .LASF159
     /tmp/ccxUk6vw.s:12149  .debug_str:000000000000034d .LASF160
     /tmp/ccxUk6vw.s:12667  .debug_str:00000000000013ae .LASF161
     /tmp/ccxUk6vw.s:12051  .debug_str:0000000000000018 .LASF162
     /tmp/ccxUk6vw.s:12193  .debug_str:000000000000047b .LASF163
     /tmp/ccxUk6vw.s:12743  .debug_str:000000000000165d .LASF164
     /tmp/ccxUk6vw.s:12769  .debug_str:0000000000001828 .LASF165
     /tmp/ccxUk6vw.s:12463  .debug_str:0000000000000d64 .LASF166
     /tmp/ccxUk6vw.s:12699  .debug_str:00000000000014d7 .LASF167
     /tmp/ccxUk6vw.s:12139  .debug_str:00000000000002df .LASF168
     /tmp/ccxUk6vw.s:12491  .debug_str:0000000000000e3a .LASF169
     /tmp/ccxUk6vw.s:12307  .debug_str:0000000000000826 .LASF170
     /tmp/ccxUk6vw.s:12485  .debug_str:0000000000000e20 .LASF171
     /tmp/ccxUk6vw.s:12125  .debug_str:0000000000000273 .LASF172
     /tmp/ccxUk6vw.s:12295  .debug_str:000000000000078b .LASF173
     /tmp/ccxUk6vw.s:12653  .debug_str:0000000000001349 .LASF174
     /tmp/ccxUk6vw.s:12377  .debug_str:0000000000000a5d .LASF175
     /tmp/ccxUk6vw.s:12471  .debug_str:0000000000000db7 .LASF176
     /tmp/ccxUk6vw.s:12673  .debug_str:00000000000013dd .LASF177
     /tmp/ccxUk6vw.s:12121  .debug_str:0000000000000269 .LASF178
     /tmp/ccxUk6vw.s:12525  .debug_str:0000000000000f9e .LASF179
     /tmp/ccxUk6vw.s:12197  .debug_str:0000000000000498 .LASF180
     /tmp/ccxUk6vw.s:12205  .debug_str:00000000000004bc .LASF181
     /tmp/ccxUk6vw.s:12269  .debug_str:00000000000006bf .LASF182
     /tmp/ccxUk6vw.s:12137  .debug_str:00000000000002d5 .LASF183
     /tmp/ccxUk6vw.s:12733  .debug_str:000000000000161c .LASF184
     /tmp/ccxUk6vw.s:12221  .debug_str:0000000000000546 .LASF185
     /tmp/ccxUk6vw.s:12075  .debug_str:00000000000000fb .LASF186
     /tmp/ccxUk6vw.s:12589  .debug_str:0000000000001189 .LASF187
     /tmp/ccxUk6vw.s:12473  .debug_str:0000000000000dca .LASF188
     /tmp/ccxUk6vw.s:12359  .debug_str:00000000000009c8 .LASF189
     /tmp/ccxUk6vw.s:12151  .debug_str:0000000000000352 .LASF190
     /tmp/ccxUk6vw.s:12671  .debug_str:00000000000013d8 .LASF191
     /tmp/ccxUk6vw.s:12489  .debug_str:0000000000000e35 .LASF192
     /tmp/ccxUk6vw.s:12625  .debug_str:000000000000127d .LASF193
     /tmp/ccxUk6vw.s:12077  .debug_str:0000000000000107 .LASF194
     /tmp/ccxUk6vw.s:12253  .debug_str:000000000000065d .LASF195
     /tmp/ccxUk6vw.s:12461  .debug_str:0000000000000d5c .LASF196
     /tmp/ccxUk6vw.s:12107  .debug_str:0000000000000206 .LASF197
     /tmp/ccxUk6vw.s:12099  .debug_str:00000000000001af .LASF198
     /tmp/ccxUk6vw.s:12409  .debug_str:0000000000000b9b .LASF199
     /tmp/ccxUk6vw.s:12679  .debug_str:0000000000001420 .LASF200
     /tmp/ccxUk6vw.s:12481  .debug_str:0000000000000e10 .LASF201
     /tmp/ccxUk6vw.s:12781  .debug_str:000000000000185e .LASF202
     /tmp/ccxUk6vw.s:12795  .debug_str:00000000000018c3 .LASF203
     /tmp/ccxUk6vw.s:12697  .debug_str:00000000000014c6 .LASF204
GAS LISTING /tmp/ccxUk6vw.s 			page 142


     /tmp/ccxUk6vw.s:12773  .debug_str:0000000000001837 .LASF205
     /tmp/ccxUk6vw.s:12325  .debug_str:00000000000008bd .LASF206
     /tmp/ccxUk6vw.s:12663  .debug_str:0000000000001390 .LASF207
     /tmp/ccxUk6vw.s:12799  .debug_str:00000000000018dc .LASF208
     /tmp/ccxUk6vw.s:12199  .debug_str:000000000000049d .LASF209
     /tmp/ccxUk6vw.s:12055  .debug_str:0000000000000034 .LASF210
     /tmp/ccxUk6vw.s:12797  .debug_str:00000000000018ce .LASF211
     /tmp/ccxUk6vw.s:12361  .debug_str:00000000000009cf .LASF212
     /tmp/ccxUk6vw.s:12231  .debug_str:00000000000005d0 .LASF214
     /tmp/ccxUk6vw.s:12189  .debug_str:000000000000046c .LASF215
     /tmp/ccxUk6vw.s:12153  .debug_str:0000000000000357 .LASF216
     /tmp/ccxUk6vw.s:12779  .debug_str:0000000000001852 .LASF217
     /tmp/ccxUk6vw.s:12685  .debug_str:000000000000145f .LASF218
     /tmp/ccxUk6vw.s:12091  .debug_str:000000000000016b .LASF219
     /tmp/ccxUk6vw.s:12767  .debug_str:000000000000181b .LASF220
     /tmp/ccxUk6vw.s:12279  .debug_str:0000000000000715 .LASF221
     /tmp/ccxUk6vw.s:12723  .debug_str:00000000000015d6 .LASF222
     /tmp/ccxUk6vw.s:12353  .debug_str:00000000000009ad .LASF223
     /tmp/ccxUk6vw.s:12571  .debug_str:00000000000010ed .LASF224
     /tmp/ccxUk6vw.s:12813  .debug_str:0000000000001953 .LASF225
     /tmp/ccxUk6vw.s:12101  .debug_str:00000000000001b9 .LASF226
     /tmp/ccxUk6vw.s:12407  .debug_str:0000000000000b78 .LASF227
     /tmp/ccxUk6vw.s:12777  .debug_str:0000000000001847 .LASF228
     /tmp/ccxUk6vw.s:12187  .debug_str:0000000000000449 .LASF229
     /tmp/ccxUk6vw.s:12763  .debug_str:00000000000017f0 .LASF230
     /tmp/ccxUk6vw.s:12333  .debug_str:00000000000008f8 .LASF231
     /tmp/ccxUk6vw.s:12657  .debug_str:0000000000001369 .LASF232
     /tmp/ccxUk6vw.s:12735  .debug_str:000000000000162a .LASF383
     /tmp/ccxUk6vw.s:12379  .debug_str:0000000000000a66 .LASF233
     /tmp/ccxUk6vw.s:12529  .debug_str:0000000000000fb5 .LASF237
     /tmp/ccxUk6vw.s:12135  .debug_str:00000000000002c3 .LASF239
     /tmp/ccxUk6vw.s:12703  .debug_str:00000000000014e6 .LASF234
     /tmp/ccxUk6vw.s:12345  .debug_str:0000000000000961 .LASF235
     /tmp/ccxUk6vw.s:12065  .debug_str:000000000000007a .LASF236
     /tmp/ccxUk6vw.s:12113  .debug_str:0000000000000227 .LASF238
     /tmp/ccxUk6vw.s:12465  .debug_str:0000000000000d70 .LASF240
     /tmp/ccxUk6vw.s:12259  .debug_str:000000000000067d .LASF241
     /tmp/ccxUk6vw.s:12219  .debug_str:0000000000000535 .LASF242
     /tmp/ccxUk6vw.s:12561  .debug_str:000000000000108f .LASF243
     /tmp/ccxUk6vw.s:12775  .debug_str:0000000000001840 .LASF384
     /tmp/ccxUk6vw.s:12123  .debug_str:000000000000026e .LASF244
     /tmp/ccxUk6vw.s:12243  .debug_str:0000000000000637 .LASF245
     /tmp/ccxUk6vw.s:12593  .debug_str:00000000000011b6 .LASF246
     /tmp/ccxUk6vw.s:12157  .debug_str:0000000000000362 .LASF247
     /tmp/ccxUk6vw.s:12245  .debug_str:000000000000063c .LASF248
     /tmp/ccxUk6vw.s:12387  .debug_str:0000000000000ab8 .LASF249
     /tmp/ccxUk6vw.s:12195  .debug_str:0000000000000492 .LASF250
     /tmp/ccxUk6vw.s:12555  .debug_str:000000000000104c .LASF251
     /tmp/ccxUk6vw.s:12209  .debug_str:00000000000004e5 .LASF252
     /tmp/ccxUk6vw.s:12591  .debug_str:00000000000011a1 .LASF253
     /tmp/ccxUk6vw.s:12367  .debug_str:0000000000000a0a .LASF255
     /tmp/ccxUk6vw.s:12521  .debug_str:0000000000000f71 .LASF257
     /tmp/ccxUk6vw.s:12811  .debug_str:0000000000001947 .LASF258
     /tmp/ccxUk6vw.s:12215  .debug_str:000000000000051d .LASF259
     /tmp/ccxUk6vw.s:12643  .debug_str:0000000000001311 .LASF260
     /tmp/ccxUk6vw.s:12493  .debug_str:0000000000000e47 .LASF261
     /tmp/ccxUk6vw.s:12417  .debug_str:0000000000000bcf .LASF262
GAS LISTING /tmp/ccxUk6vw.s 			page 143


     /tmp/ccxUk6vw.s:12061  .debug_str:0000000000000055 .LASF263
     /tmp/ccxUk6vw.s:12217  .debug_str:0000000000000529 .LASF264
     /tmp/ccxUk6vw.s:12693  .debug_str:00000000000014a6 .LASF265
     /tmp/ccxUk6vw.s:12079  .debug_str:0000000000000111 .LASF266
     /tmp/ccxUk6vw.s:12641  .debug_str:0000000000001307 .LASF267
     /tmp/ccxUk6vw.s:12645  .debug_str:000000000000131d .LASF268
     /tmp/ccxUk6vw.s:12083  .debug_str:0000000000000128 .LASF269
     /tmp/ccxUk6vw.s:12731  .debug_str:0000000000001613 .LASF270
     /tmp/ccxUk6vw.s:12623  .debug_str:0000000000001261 .LASF271
     /tmp/ccxUk6vw.s:12551  .debug_str:0000000000001037 .LASF272
     /tmp/ccxUk6vw.s:12071  .debug_str:00000000000000c7 .LASF273
     /tmp/ccxUk6vw.s:12437  .debug_str:0000000000000c4c .LASF274
     /tmp/ccxUk6vw.s:12147  .debug_str:0000000000000330 .LASF275
     /tmp/ccxUk6vw.s:12115  .debug_str:0000000000000233 .LASF276
     /tmp/ccxUk6vw.s:12817  .debug_str:000000000000196f .LASF277
     /tmp/ccxUk6vw.s:12439  .debug_str:0000000000000c56 .LASF278
     /tmp/ccxUk6vw.s:12639  .debug_str:00000000000012f7 .LASF279
     /tmp/ccxUk6vw.s:12399  .debug_str:0000000000000b1f .LASF280
     /tmp/ccxUk6vw.s:12131  .debug_str:00000000000002af .LASF281
     /tmp/ccxUk6vw.s:12577  .debug_str:0000000000001127 .LASF282
     /tmp/ccxUk6vw.s:12549  .debug_str:000000000000102b .LASF283
     /tmp/ccxUk6vw.s:12505  .debug_str:0000000000000ecf .LASF284
     /tmp/ccxUk6vw.s:12381  .debug_str:0000000000000a80 .LASF285
     /tmp/ccxUk6vw.s:12447  .debug_str:0000000000000cb2 .LASF286
     /tmp/ccxUk6vw.s:12435  .debug_str:0000000000000c43 .LASF287
     /tmp/ccxUk6vw.s:12267  .debug_str:00000000000006b3 .LASF288
     /tmp/ccxUk6vw.s:12181  .debug_str:0000000000000429 .LASF289
     /tmp/ccxUk6vw.s:12343  .debug_str:0000000000000955 .LASF290
     /tmp/ccxUk6vw.s:12427  .debug_str:0000000000000c12 .LASF291
     /tmp/ccxUk6vw.s:12059  .debug_str:0000000000000049 .LASF292
     /tmp/ccxUk6vw.s:12467  .debug_str:0000000000000d89 .LASF293
     /tmp/ccxUk6vw.s:12821  .debug_str:00000000000019ad .LASF294
     /tmp/ccxUk6vw.s:12087  .debug_str:0000000000000142 .LASF295
     /tmp/ccxUk6vw.s:12721  .debug_str:00000000000015c5 .LASF296
     /tmp/ccxUk6vw.s:12587  .debug_str:0000000000001183 .LASF297
     /tmp/ccxUk6vw.s:12421  .debug_str:0000000000000beb .LASF298
     /tmp/ccxUk6vw.s:12159  .debug_str:0000000000000373 .LASF299
     /tmp/ccxUk6vw.s:12305  .debug_str:0000000000000814 .LASF300
     /tmp/ccxUk6vw.s:12607  .debug_str:0000000000001209 .LASF301
     /tmp/ccxUk6vw.s:12363  .debug_str:00000000000009df .LASF302
     /tmp/ccxUk6vw.s:12477  .debug_str:0000000000000def .LASF303
     /tmp/ccxUk6vw.s:12755  .debug_str:00000000000016f5 .LASF304
     /tmp/ccxUk6vw.s:12375  .debug_str:0000000000000a4d .LASF305
     /tmp/ccxUk6vw.s:12553  .debug_str:0000000000001040 .LASF306
     /tmp/ccxUk6vw.s:12575  .debug_str:000000000000111a .LASF307
     /tmp/ccxUk6vw.s:12349  .debug_str:0000000000000978 .LASF308
     /tmp/ccxUk6vw.s:12621  .debug_str:000000000000125b .LASF309
     /tmp/ccxUk6vw.s:12613  .debug_str:000000000000122e .LASF310
     /tmp/ccxUk6vw.s:12479  .debug_str:0000000000000e05 .LASF311
     /tmp/ccxUk6vw.s:12057  .debug_str:0000000000000040 .LASF312
     /tmp/ccxUk6vw.s:12341  .debug_str:000000000000094d .LASF313
     /tmp/ccxUk6vw.s:12651  .debug_str:000000000000133f .LASF314
     /tmp/ccxUk6vw.s:12729  .debug_str:0000000000001607 .LASF315
     /tmp/ccxUk6vw.s:12599  .debug_str:00000000000011d1 .LASF316
     /tmp/ccxUk6vw.s:12393  .debug_str:0000000000000aef .LASF317
     /tmp/ccxUk6vw.s:12425  .debug_str:0000000000000c0b .LASF318
     /tmp/ccxUk6vw.s:12583  .debug_str:0000000000001168 .LASF320
GAS LISTING /tmp/ccxUk6vw.s 			page 144


     /tmp/ccxUk6vw.s:12569  .debug_str:00000000000010e5 .LASF319
     /tmp/ccxUk6vw.s:12739  .debug_str:000000000000163c .LASF321
     /tmp/ccxUk6vw.s:12603  .debug_str:00000000000011ee .LASF322
     /tmp/ccxUk6vw.s:12339  .debug_str:000000000000093d .LASF323
     /tmp/ccxUk6vw.s:12535  .debug_str:0000000000000fda .LASF324
     /tmp/ccxUk6vw.s:12815  .debug_str:0000000000001962 .LASF325
     /tmp/ccxUk6vw.s:12527  .debug_str:0000000000000fae .LASF326
     /tmp/ccxUk6vw.s:12191  .debug_str:0000000000000471 .LASF327
     /tmp/ccxUk6vw.s:12771  .debug_str:000000000000182d .LASF328
     /tmp/ccxUk6vw.s:12661  .debug_str:0000000000001386 .LASF329
     /tmp/ccxUk6vw.s:12347  .debug_str:000000000000096b .LASF330
     /tmp/ccxUk6vw.s:12567  .debug_str:00000000000010cd .LASF385
     /tmp/ccxUk6vw.s:12309  .debug_str:0000000000000832 .LASF386
     /tmp/ccxUk6vw.s:12725  .debug_str:00000000000015f5 .LASF331
     /tmp/ccxUk6vw.s:12213  .debug_str:0000000000000503 .LASF332
     /tmp/ccxUk6vw.s:12311  .debug_str:0000000000000846 .LASF333
     /tmp/ccxUk6vw.s:12665  .debug_str:0000000000001398 .LASF334
     /tmp/ccxUk6vw.s:12119  .debug_str:000000000000024d .LASF335
     /tmp/ccxUk6vw.s:12597  .debug_str:00000000000011c3 .LASF336
     /tmp/ccxUk6vw.s:12233  .debug_str:00000000000005dc .LASF337
     /tmp/ccxUk6vw.s:12707  .debug_str:0000000000001520 .LASF338
     /tmp/ccxUk6vw.s:12239  .debug_str:000000000000060f .LASF339
     /tmp/ccxUk6vw.s:12659  .debug_str:000000000000136f .LASF340
     /tmp/ccxUk6vw.s:12443  .debug_str:0000000000000c7b .LASF343
     /tmp/ccxUk6vw.s:12053  .debug_str:0000000000000024 .LASF341
     /tmp/ccxUk6vw.s:12423  .debug_str:0000000000000bfb .LASF342
     /tmp/ccxUk6vw.s:12171  .debug_str:00000000000003dd .LASF344
     /tmp/ccxUk6vw.s:3599   .text:0000000000001158 .LFB81
     /tmp/ccxUk6vw.s:3658   .text:00000000000011ec .LFE81
     /tmp/ccxUk6vw.s:10638  .debug_loc:0000000000000000 .LLST99
     /tmp/ccxUk6vw.s:3620   .text:0000000000001188 .LVL286
     /tmp/ccxUk6vw.s:3628   .text:00000000000011a4 .LVL287
     /tmp/ccxUk6vw.s:3636   .text:00000000000011c0 .LVL288
     /tmp/ccxUk6vw.s:3644   .text:00000000000011d8 .LVL289
     /tmp/ccxUk6vw.s:3337   .text:0000000000001004 .LFB80
     /tmp/ccxUk6vw.s:3519   .text:00000000000010e4 .LFE80
     /tmp/ccxUk6vw.s:10656  .debug_loc:000000000000004c .LLST78
     /tmp/ccxUk6vw.s:12507  .debug_str:0000000000000ef1 .LASF345
     /tmp/ccxUk6vw.s:10681  .debug_loc:00000000000000ae .LLST79
     /tmp/ccxUk6vw.s:12453  .debug_str:0000000000000d14 .LASF346
     /tmp/ccxUk6vw.s:10706  .debug_loc:0000000000000110 .LLST80
     /tmp/ccxUk6vw.s:12635  .debug_str:00000000000012cd .LASF347
     /tmp/ccxUk6vw.s:10732  .debug_loc:0000000000000182 .LLST81
     /tmp/ccxUk6vw.s:12251  .debug_str:0000000000000653 .LASF348
     /tmp/ccxUk6vw.s:10785  .debug_loc:0000000000000213 .LLST82
     /tmp/ccxUk6vw.s:12391  .debug_str:0000000000000ae5 .LASF349
     /tmp/ccxUk6vw.s:10820  .debug_loc:0000000000000281 .LLST83
     /tmp/ccxUk6vw.s:12515  .debug_str:0000000000000f5c .LASF350
     /tmp/ccxUk6vw.s:10843  .debug_loc:00000000000002d3 .LLST84
     /tmp/ccxUk6vw.s:12105  .debug_str:0000000000000201 .LASF351
     /tmp/ccxUk6vw.s:10854  .debug_loc:0000000000000309 .LLST85
     /tmp/ccxUk6vw.s:12539  .debug_str:0000000000000fe9 .LASF352
     /tmp/ccxUk6vw.s:10875  .debug_loc:0000000000000367 .LLST86
     /tmp/ccxUk6vw.s:12487  .debug_str:0000000000000e30 .LASF353
     /tmp/ccxUk6vw.s:10891  .debug_loc:00000000000003b1 .LLST87
     /tmp/ccxUk6vw.s:12403  .debug_str:0000000000000b61 .LASF354
     /tmp/ccxUk6vw.s:10912  .debug_loc:000000000000040f .LLST88
GAS LISTING /tmp/ccxUk6vw.s 			page 145


     /tmp/ccxUk6vw.s:3475   .text:00000000000010ac .LBB201
     /tmp/ccxUk6vw.s:3492   .text:00000000000010c4 .LBE201
     /tmp/ccxUk6vw.s:10928  .debug_loc:000000000000044a .LLST92
     /tmp/ccxUk6vw.s:3479   .text:00000000000010b4 .LVL270
     /tmp/ccxUk6vw.s:3498   .text:00000000000010c8 .LBB203
     /tmp/ccxUk6vw.s:3515   .text:00000000000010e0 .LBE203
     /tmp/ccxUk6vw.s:10943  .debug_loc:0000000000000484 .LLST93
     /tmp/ccxUk6vw.s:3502   .text:00000000000010d0 .LVL274
     /tmp/ccxUk6vw.s:3362   .text:000000000000102c .LBB194
     /tmp/ccxUk6vw.s:3371   .text:0000000000001034 .LBE194
     /tmp/ccxUk6vw.s:10958  .debug_loc:00000000000004be .LLST89
     /tmp/ccxUk6vw.s:3373   .text:0000000000001034 .LBB196
     /tmp/ccxUk6vw.s:3382   .text:000000000000103c .LBE196
     /tmp/ccxUk6vw.s:10965  .debug_loc:00000000000004e1 .LLST90
     /tmp/ccxUk6vw.s:3384   .text:000000000000103c .LBB198
     /tmp/ccxUk6vw.s:3393   .text:0000000000001044 .LBE198
     /tmp/ccxUk6vw.s:10972  .debug_loc:0000000000000504 .LLST91
     /tmp/ccxUk6vw.s:3282   .text:0000000000000fb8 .LFB79
     /tmp/ccxUk6vw.s:3331   .text:0000000000001004 .LFE79
     /tmp/ccxUk6vw.s:3300   .text:0000000000000fd4 .LBB193
     /tmp/ccxUk6vw.s:3320   .text:0000000000000ff4 .LBE193
     /tmp/ccxUk6vw.s:10979  .debug_loc:0000000000000527 .LLST77
     /tmp/ccxUk6vw.s:3297   .text:0000000000000fd4 .LVL248
     /tmp/ccxUk6vw.s:3798   .text:000000000000132c .LFB78
     /tmp/ccxUk6vw.s:3926   .text:000000000000146c .LFE78
     /tmp/ccxUk6vw.s:12649  .debug_str:000000000000133a .LASF355
     /tmp/ccxUk6vw.s:10995  .debug_loc:0000000000000571 .LLST102
     /tmp/ccxUk6vw.s:3894   .text:0000000000001444 .LBB209
     /tmp/ccxUk6vw.s:3906   .text:000000000000144c .LBE209
     /tmp/ccxUk6vw.s:11002  .debug_loc:0000000000000594 .LLST103
     /tmp/ccxUk6vw.s:3820   .text:0000000000001354 .LVL302
     /tmp/ccxUk6vw.s:3843   .text:00000000000013a0 .LVL304
     /tmp/ccxUk6vw.s:3852   .text:00000000000013c0 .LVL305
     /tmp/ccxUk6vw.s:3861   .text:00000000000013e0 .LVL306
     /tmp/ccxUk6vw.s:3870   .text:0000000000001400 .LVL307
     /tmp/ccxUk6vw.s:3878   .text:0000000000001418 .LVL308
     /tmp/ccxUk6vw.s:3887   .text:0000000000001438 .LVL309
     /tmp/ccxUk6vw.s:3892   .text:0000000000001444 .LVL310
     /tmp/ccxUk6vw.s:3664   .text:00000000000011ec .LFB77
     /tmp/ccxUk6vw.s:3792   .text:000000000000132c .LFE77
     /tmp/ccxUk6vw.s:11012  .debug_loc:00000000000005ba .LLST100
     /tmp/ccxUk6vw.s:3760   .text:0000000000001304 .LBB207
     /tmp/ccxUk6vw.s:3772   .text:000000000000130c .LBE207
     /tmp/ccxUk6vw.s:11019  .debug_loc:00000000000005dd .LLST101
     /tmp/ccxUk6vw.s:3686   .text:0000000000001214 .LVL291
     /tmp/ccxUk6vw.s:3709   .text:0000000000001260 .LVL293
     /tmp/ccxUk6vw.s:3718   .text:0000000000001280 .LVL294
     /tmp/ccxUk6vw.s:3727   .text:00000000000012a0 .LVL295
     /tmp/ccxUk6vw.s:3736   .text:00000000000012c0 .LVL296
     /tmp/ccxUk6vw.s:3744   .text:00000000000012d8 .LVL297
     /tmp/ccxUk6vw.s:3753   .text:00000000000012f8 .LVL298
     /tmp/ccxUk6vw.s:3758   .text:0000000000001304 .LVL299
     /tmp/ccxUk6vw.s:3525   .text:00000000000010e4 .LFB76
     /tmp/ccxUk6vw.s:3593   .text:0000000000001158 .LFE76
     /tmp/ccxUk6vw.s:11029  .debug_loc:0000000000000603 .LLST94
     /tmp/ccxUk6vw.s:12615  .debug_str:0000000000001233 .LASF356
     /tmp/ccxUk6vw.s:11047  .debug_loc:000000000000064f .LLST95
GAS LISTING /tmp/ccxUk6vw.s 			page 146


     /tmp/ccxUk6vw.s:11061  .debug_loc:0000000000000688 .LLST96
     /tmp/ccxUk6vw.s:11079  .debug_loc:00000000000006d4 .LLST97
     /tmp/ccxUk6vw.s:3552   .text:0000000000001114 .LBB206
     /tmp/ccxUk6vw.s:3570   .text:0000000000001138 .LBE206
     /tmp/ccxUk6vw.s:11097  .debug_loc:0000000000000720 .LLST98
     /tmp/ccxUk6vw.s:3561   .text:000000000000112c .LVL279
     /tmp/ccxUk6vw.s:3135   .text:0000000000000f10 .LFB75
     /tmp/ccxUk6vw.s:3164   .text:0000000000000f30 .LFE75
     /tmp/ccxUk6vw.s:3097   .text:0000000000000ef0 .LFB74
     /tmp/ccxUk6vw.s:3129   .text:0000000000000f10 .LFE74
     /tmp/ccxUk6vw.s:2989   .text:0000000000000e74 .LFB73
     /tmp/ccxUk6vw.s:3091   .text:0000000000000ef0 .LFE73
     /tmp/ccxUk6vw.s:12355  .debug_str:00000000000009b3 .LASF357
     /tmp/ccxUk6vw.s:11104  .debug_loc:0000000000000743 .LLST67
     /tmp/ccxUk6vw.s:12581  .debug_str:000000000000115a .LASF358
     /tmp/ccxUk6vw.s:11130  .debug_loc:00000000000007b5 .LLST68
     /tmp/ccxUk6vw.s:11148  .debug_loc:0000000000000801 .LLST69
     /tmp/ccxUk6vw.s:12237  .debug_str:0000000000000607 .LASF359
     /tmp/ccxUk6vw.s:11174  .debug_loc:0000000000000873 .LLST70
     /tmp/ccxUk6vw.s:12281  .debug_str:000000000000071d .LASF360
     /tmp/ccxUk6vw.s:11200  .debug_loc:00000000000008e5 .LLST71
     /tmp/ccxUk6vw.s:12183  .debug_str:0000000000000435 .LASF361
     /tmp/ccxUk6vw.s:11218  .debug_loc:0000000000000931 .LLST72
     /tmp/ccxUk6vw.s:12801  .debug_str:00000000000018ea .LASF362
     /tmp/ccxUk6vw.s:11244  .debug_loc:00000000000009a3 .LLST73
     /tmp/ccxUk6vw.s:3022   .text:0000000000000eac .LVL231
     /tmp/ccxUk6vw.s:1980   .text:00000000000009e8 .LFB72
     /tmp/ccxUk6vw.s:2013   .text:0000000000000a14 .LFE72
     /tmp/ccxUk6vw.s:11265  .debug_loc:0000000000000a01 .LLST50
     /tmp/ccxUk6vw.s:1951   .text:00000000000009e8 .LFE71
     /tmp/ccxUk6vw.s:11278  .debug_loc:0000000000000a39 .LLST46
     /tmp/ccxUk6vw.s:12177  .debug_str:0000000000000408 .LASF363
     /tmp/ccxUk6vw.s:11297  .debug_loc:0000000000000a95 .LLST47
     /tmp/ccxUk6vw.s:11308  .debug_loc:0000000000000acb .LLST48
     /tmp/ccxUk6vw.s:1797   .text:000000000000090c .LBB125
     /tmp/ccxUk6vw.s:1900   .text:00000000000009a0 .LBE125
     /tmp/ccxUk6vw.s:12167  .debug_str:00000000000003a2 .LASF364
     /tmp/ccxUk6vw.s:11325  .debug_loc:0000000000000b16 .LLST49
     /tmp/ccxUk6vw.s:1896   .text:00000000000009a0 .LVL140
     /tmp/ccxUk6vw.s:1762   .text:00000000000008b8 .LVL133
     /tmp/ccxUk6vw.s:1774   .text:00000000000008dc .LVL136
     /tmp/ccxUk6vw.s:1779   .text:00000000000008e8 .LVL137
     /tmp/ccxUk6vw.s:1790   .text:0000000000000908 .LVL138
     /tmp/ccxUk6vw.s:1912   .text:00000000000009ac .LVL141
     /tmp/ccxUk6vw.s:1944   .text:00000000000009dc .LVL147
     /tmp/ccxUk6vw.s:1948   .text:00000000000009e8 .LVL148
     /tmp/ccxUk6vw.s:1669   .text:0000000000000838 .LFB70
     /tmp/ccxUk6vw.s:1734   .text:0000000000000894 .LFE70
     /tmp/ccxUk6vw.s:12519  .debug_str:0000000000000f6b .LASF365
     /tmp/ccxUk6vw.s:11332  .debug_loc:0000000000000b39 .LLST43
     /tmp/ccxUk6vw.s:11343  .debug_loc:0000000000000b6f .LLST44
     /tmp/ccxUk6vw.s:1707   .text:0000000000000864 .LVL128
     /tmp/ccxUk6vw.s:1728   .text:0000000000000884 .LVL131
     /tmp/ccxUk6vw.s:1731   .text:0000000000000890 .LVL132
     /tmp/ccxUk6vw.s:1593   .text:00000000000007d0 .LFB69
     /tmp/ccxUk6vw.s:1663   .text:0000000000000838 .LFE69
     /tmp/ccxUk6vw.s:11352  .debug_loc:0000000000000b94 .LLST40
GAS LISTING /tmp/ccxUk6vw.s 			page 147


     /tmp/ccxUk6vw.s:11363  .debug_loc:0000000000000bca .LLST41
     /tmp/ccxUk6vw.s:1631   .text:00000000000007fc .LVL120
     /tmp/ccxUk6vw.s:1652   .text:000000000000081c .LVL123
     /tmp/ccxUk6vw.s:1657   .text:0000000000000828 .LVL124
     /tmp/ccxUk6vw.s:1660   .text:0000000000000834 .LVL125
     /tmp/ccxUk6vw.s:370    .text:00000000000001dc .LFB68
     /tmp/ccxUk6vw.s:416    .text:0000000000000214 .LFE68
     /tmp/ccxUk6vw.s:247    .text:0000000000000128 .LFB67
     /tmp/ccxUk6vw.s:364    .text:00000000000001dc .LFE67
     /tmp/ccxUk6vw.s:271    .text:000000000000015c .LBB109
     /tmp/ccxUk6vw.s:12009  .debug_ranges:0000000000000000 .Ldebug_ranges0
     /tmp/ccxUk6vw.s:280    .text:000000000000015c .LBB111
     /tmp/ccxUk6vw.s:294    .text:0000000000000164 .LBE111
     /tmp/ccxUk6vw.s:281    .text:000000000000015c .LBB112
     /tmp/ccxUk6vw.s:293    .text:0000000000000164 .LBE112
     /tmp/ccxUk6vw.s:11372  .debug_loc:0000000000000bef .LLST3
     /tmp/ccxUk6vw.s:301    .text:0000000000000164 .LBB114
     /tmp/ccxUk6vw.s:316    .text:000000000000016c .LBE114
     /tmp/ccxUk6vw.s:302    .text:0000000000000164 .LBB115
     /tmp/ccxUk6vw.s:315    .text:000000000000016c .LBE115
     /tmp/ccxUk6vw.s:11380  .debug_loc:0000000000000c13 .LLST4
     /tmp/ccxUk6vw.s:338    .text:00000000000001a4 .LVL10
     /tmp/ccxUk6vw.s:350    .text:00000000000001c8 .LVL11
     /tmp/ccxUk6vw.s:180    .text:00000000000000e4 .LFB66
     /tmp/ccxUk6vw.s:241    .text:0000000000000128 .LFE66
     /tmp/ccxUk6vw.s:199    .text:0000000000000108 .LBB105
     /tmp/ccxUk6vw.s:213    .text:0000000000000110 .LBE105
     /tmp/ccxUk6vw.s:11389  .debug_loc:0000000000000c39 .LLST2
     /tmp/ccxUk6vw.s:226    .text:000000000000011c .LBB107
     /tmp/ccxUk6vw.s:239    .text:0000000000000128 .LBE107
     /tmp/ccxUk6vw.s:1551   .text:000000000000079c .LFB65
     /tmp/ccxUk6vw.s:1587   .text:00000000000007d0 .LFE65
     /tmp/ccxUk6vw.s:11398  .debug_loc:0000000000000c5f .LLST39
     /tmp/ccxUk6vw.s:1565   .text:00000000000007b4 .LVL116
     /tmp/ccxUk6vw.s:1576   .text:00000000000007c0 .LVL117
     /tmp/ccxUk6vw.s:3170   .text:0000000000000f30 .LFB64
     /tmp/ccxUk6vw.s:3276   .text:0000000000000fb8 .LFE64
     /tmp/ccxUk6vw.s:11405  .debug_loc:0000000000000c82 .LLST74
     /tmp/ccxUk6vw.s:11419  .debug_loc:0000000000000cbb .LLST75
     /tmp/ccxUk6vw.s:3226   .text:0000000000000f6c .LBB190
     /tmp/ccxUk6vw.s:3272   .text:0000000000000fb8 .LBE190
     /tmp/ccxUk6vw.s:12483  .debug_str:0000000000000e1b .LASF366
     /tmp/ccxUk6vw.s:11426  .debug_loc:0000000000000cde .LLST76
     /tmp/ccxUk6vw.s:3230   .text:0000000000000f74 .LVL245
     /tmp/ccxUk6vw.s:3190   .text:0000000000000f4c .LVL241
     /tmp/ccxUk6vw.s:127    .text:0000000000000094 .LFB63
     /tmp/ccxUk6vw.s:174    .text:00000000000000e4 .LFE63
     /tmp/ccxUk6vw.s:11433  .debug_loc:0000000000000d01 .LLST1
     /tmp/ccxUk6vw.s:163    .text:00000000000000d4 .LVL3
     /tmp/ccxUk6vw.s:1460   .text:0000000000000704 .LFB62
     /tmp/ccxUk6vw.s:1545   .text:000000000000079c .LFE62
     /tmp/ccxUk6vw.s:11440  .debug_loc:0000000000000d24 .LLST38
     /tmp/ccxUk6vw.s:1488   .text:0000000000000740 .LVL106
     /tmp/ccxUk6vw.s:1509   .text:0000000000000760 .LVL109
     /tmp/ccxUk6vw.s:1530   .text:0000000000000780 .LVL112
     /tmp/ccxUk6vw.s:1535   .text:000000000000078c .LVL113
     /tmp/ccxUk6vw.s:1542   .text:0000000000000798 .LVL115
GAS LISTING /tmp/ccxUk6vw.s 			page 148


     /tmp/ccxUk6vw.s:1380   .text:000000000000068c .LFB61
     /tmp/ccxUk6vw.s:1454   .text:0000000000000704 .LFE61
     /tmp/ccxUk6vw.s:12173  .debug_str:00000000000003f5 .LASF367
     /tmp/ccxUk6vw.s:11455  .debug_loc:0000000000000d6d .LLST37
     /tmp/ccxUk6vw.s:1419   .text:00000000000006d0 .LVL102
     /tmp/ccxUk6vw.s:1427   .text:00000000000006e0 .LVL103
     /tmp/ccxUk6vw.s:1440   .text:00000000000006f0 .LVL104
     /tmp/ccxUk6vw.s:1315   .text:0000000000000644 .LFB60
     /tmp/ccxUk6vw.s:1374   .text:000000000000068c .LFE60
     /tmp/ccxUk6vw.s:11462  .debug_loc:0000000000000d90 .LLST35
     /tmp/ccxUk6vw.s:11473  .debug_loc:0000000000000dc6 .LLST36
     /tmp/ccxUk6vw.s:1352   .text:000000000000066c .LVL98
     /tmp/ccxUk6vw.s:1369   .text:0000000000000684 .LVL100
     /tmp/ccxUk6vw.s:1238   .text:00000000000005e4 .LFB59
     /tmp/ccxUk6vw.s:1309   .text:0000000000000644 .LFE59
     /tmp/ccxUk6vw.s:11490  .debug_loc:0000000000000e11 .LLST33
     /tmp/ccxUk6vw.s:11501  .debug_loc:0000000000000e47 .LLST34
     /tmp/ccxUk6vw.s:1284   .text:0000000000000620 .LVL92
     /tmp/ccxUk6vw.s:1301   .text:0000000000000638 .LVL94
     /tmp/ccxUk6vw.s:1163   .text:0000000000000584 .LFB58
     /tmp/ccxUk6vw.s:1232   .text:00000000000005e4 .LFE58
     /tmp/ccxUk6vw.s:11518  .debug_loc:0000000000000e92 .LLST30
     /tmp/ccxUk6vw.s:11529  .debug_loc:0000000000000ec8 .LLST32
     /tmp/ccxUk6vw.s:1203   .text:00000000000005b0 .LVL84
     /tmp/ccxUk6vw.s:1224   .text:00000000000005d0 .LVL87
     /tmp/ccxUk6vw.s:1227   .text:00000000000005dc .LVL88
     /tmp/ccxUk6vw.s:1138   .text:0000000000000584 .LFE57
     /tmp/ccxUk6vw.s:11546  .debug_loc:0000000000000f13 .LLST26
     /tmp/ccxUk6vw.s:12441  .debug_str:0000000000000c75 .LASF368
     /tmp/ccxUk6vw.s:11557  .debug_loc:0000000000000f49 .LLST27
     /tmp/ccxUk6vw.s:11568  .debug_loc:0000000000000f7f .LLST28
     /tmp/ccxUk6vw.s:11579  .debug_loc:0000000000000fb5 .LLST29
     /tmp/ccxUk6vw.s:1067   .text:0000000000000518 .LVL70
     /tmp/ccxUk6vw.s:1075   .text:000000000000052c .LVL71
     /tmp/ccxUk6vw.s:1098   .text:0000000000000544 .LVL73
     /tmp/ccxUk6vw.s:1131   .text:0000000000000578 .LVL80
     /tmp/ccxUk6vw.s:1135   .text:0000000000000584 .LVL81
     /tmp/ccxUk6vw.s:87     .text:0000000000000058 .LFB56
     /tmp/ccxUk6vw.s:121    .text:0000000000000094 .LFE56
     /tmp/ccxUk6vw.s:11596  .debug_loc:0000000000001000 .LLST0
     /tmp/ccxUk6vw.s:110    .text:0000000000000084 .LVL1
     /tmp/ccxUk6vw.s:955    .text:0000000000000490 .LFB55
     /tmp/ccxUk6vw.s:1022   .text:00000000000004e8 .LFE55
     /tmp/ccxUk6vw.s:11603  .debug_loc:0000000000001023 .LLST24
     /tmp/ccxUk6vw.s:975    .text:00000000000004b0 .LBB122
     /tmp/ccxUk6vw.s:986    .text:00000000000004c0 .LBE122
     /tmp/ccxUk6vw.s:11620  .debug_loc:000000000000106e .LLST25
     /tmp/ccxUk6vw.s:985    .text:00000000000004c0 .LVL64
     /tmp/ccxUk6vw.s:1002   .text:00000000000004d0 .LVL66
     /tmp/ccxUk6vw.s:881    .text:0000000000000438 .LFB54
     /tmp/ccxUk6vw.s:949    .text:0000000000000490 .LFE54
     /tmp/ccxUk6vw.s:11627  .debug_loc:0000000000001091 .LLST21
     /tmp/ccxUk6vw.s:11638  .debug_loc:00000000000010c7 .LLST23
     /tmp/ccxUk6vw.s:919    .text:0000000000000460 .LVL58
     /tmp/ccxUk6vw.s:940    .text:0000000000000480 .LVL60
     /tmp/ccxUk6vw.s:944    .text:0000000000000488 .LVL61
     /tmp/ccxUk6vw.s:856    .text:0000000000000438 .LFE53
GAS LISTING /tmp/ccxUk6vw.s 			page 149


     /tmp/ccxUk6vw.s:11655  .debug_loc:0000000000001112 .LLST15
     /tmp/ccxUk6vw.s:12319  .debug_str:0000000000000883 .LASF369
     /tmp/ccxUk6vw.s:11666  .debug_loc:0000000000001148 .LLST16
     /tmp/ccxUk6vw.s:11677  .debug_loc:000000000000117e .LLST17
     /tmp/ccxUk6vw.s:11688  .debug_loc:00000000000011b4 .LLST18
     /tmp/ccxUk6vw.s:11699  .debug_loc:00000000000011ea .LLST19
     /tmp/ccxUk6vw.s:11710  .debug_loc:0000000000001220 .LLST20
     /tmp/ccxUk6vw.s:770    .text:00000000000003b0 .LVL42
     /tmp/ccxUk6vw.s:781    .text:00000000000003d0 .LVL43
     /tmp/ccxUk6vw.s:810    .text:00000000000003f0 .LVL45
     /tmp/ccxUk6vw.s:849    .text:000000000000042c .LVL54
     /tmp/ccxUk6vw.s:853    .text:0000000000000438 .LVL55
     /tmp/ccxUk6vw.s:685    .text:0000000000000370 .LFE52
     /tmp/ccxUk6vw.s:11727  .debug_loc:000000000000126b .LLST9
     /tmp/ccxUk6vw.s:11738  .debug_loc:00000000000012a1 .LLST10
     /tmp/ccxUk6vw.s:11749  .debug_loc:00000000000012d7 .LLST11
     /tmp/ccxUk6vw.s:11760  .debug_loc:000000000000130d .LLST12
     /tmp/ccxUk6vw.s:11771  .debug_loc:0000000000001343 .LLST13
     /tmp/ccxUk6vw.s:11782  .debug_loc:0000000000001379 .LLST14
     /tmp/ccxUk6vw.s:592    .text:00000000000002dc .LVL23
     /tmp/ccxUk6vw.s:603    .text:00000000000002fc .LVL24
     /tmp/ccxUk6vw.s:619    .text:0000000000000314 .LVL25
     /tmp/ccxUk6vw.s:639    .text:0000000000000328 .LVL27
     /tmp/ccxUk6vw.s:678    .text:0000000000000364 .LVL36
     /tmp/ccxUk6vw.s:682    .text:0000000000000370 .LVL37
     /tmp/ccxUk6vw.s:473    .text:000000000000024c .LFB51
     /tmp/ccxUk6vw.s:531    .text:000000000000029c .LFE51
     /tmp/ccxUk6vw.s:11799  .debug_loc:00000000000013c4 .LLST7
     /tmp/ccxUk6vw.s:11806  .debug_loc:00000000000013e7 .LLST8
     /tmp/ccxUk6vw.s:503    .text:000000000000027c .LVL16
     /tmp/ccxUk6vw.s:527    .text:0000000000000298 .LVL18
     /tmp/ccxUk6vw.s:422    .text:0000000000000214 .LFB50
     /tmp/ccxUk6vw.s:467    .text:000000000000024c .LFE50
     /tmp/ccxUk6vw.s:11817  .debug_loc:000000000000141d .LLST5
     /tmp/ccxUk6vw.s:11824  .debug_loc:0000000000001440 .LLST6
     /tmp/ccxUk6vw.s:445    .text:0000000000000230 .LVL13
     /tmp/ccxUk6vw.s:456    .text:000000000000023c .LVL14
     /tmp/ccxUk6vw.s:2042   .text:0000000000000a14 .LFB49
     /tmp/ccxUk6vw.s:2983   .text:0000000000000e74 .LFE49
     /tmp/ccxUk6vw.s:12791  .debug_str:00000000000018b1 .LASF370
     /tmp/ccxUk6vw.s:11831  .debug_loc:0000000000001463 .LLST51
     /tmp/ccxUk6vw.s:12503  .debug_str:0000000000000ec8 .LASF371
     /tmp/ccxUk6vw.s:12201  .debug_str:00000000000004ab .LASF372
     /tmp/ccxUk6vw.s:11842  .debug_loc:0000000000001499 .LLST64
     /tmp/ccxUk6vw.s:2245   .text:0000000000000b64 .LBB174
     /tmp/ccxUk6vw.s:2258   .text:0000000000000b68 .LBE174
     /tmp/ccxUk6vw.s:2262   .text:0000000000000b6c .LBB176
     /tmp/ccxUk6vw.s:2275   .text:0000000000000b70 .LBE176
     /tmp/ccxUk6vw.s:2427   .text:0000000000000bd4 .LBB178
     /tmp/ccxUk6vw.s:2438   .text:0000000000000bd8 .LBE178
     /tmp/ccxUk6vw.s:11849  .debug_loc:00000000000014bc .LLST65
     /tmp/ccxUk6vw.s:2443   .text:0000000000000bdc .LBB180
     /tmp/ccxUk6vw.s:2455   .text:0000000000000be0 .LBE180
     /tmp/ccxUk6vw.s:11856  .debug_loc:00000000000014df .LLST66
     /tmp/ccxUk6vw.s:2418   .text:0000000000000bc4 .LVL168
     /tmp/ccxUk6vw.s:2484   .text:0000000000000c04 .LVL176
     /tmp/ccxUk6vw.s:2492   .text:0000000000000c10 .LVL177
GAS LISTING /tmp/ccxUk6vw.s 			page 150


     /tmp/ccxUk6vw.s:2500   .text:0000000000000c1c .LVL178
     /tmp/ccxUk6vw.s:2508   .text:0000000000000c28 .LVL179
     /tmp/ccxUk6vw.s:2516   .text:0000000000000c34 .LVL180
     /tmp/ccxUk6vw.s:2524   .text:0000000000000c40 .LVL181
     /tmp/ccxUk6vw.s:2532   .text:0000000000000c4c .LVL182
     /tmp/ccxUk6vw.s:2540   .text:0000000000000c58 .LVL183
     /tmp/ccxUk6vw.s:2548   .text:0000000000000c64 .LVL184
     /tmp/ccxUk6vw.s:2556   .text:0000000000000c70 .LVL185
     /tmp/ccxUk6vw.s:2564   .text:0000000000000c7c .LVL186
     /tmp/ccxUk6vw.s:2572   .text:0000000000000c88 .LVL187
     /tmp/ccxUk6vw.s:2580   .text:0000000000000c94 .LVL188
     /tmp/ccxUk6vw.s:2588   .text:0000000000000ca0 .LVL189
     /tmp/ccxUk6vw.s:2596   .text:0000000000000cac .LVL190
     /tmp/ccxUk6vw.s:2604   .text:0000000000000cb8 .LVL191
     /tmp/ccxUk6vw.s:2621   .text:0000000000000cd4 .LVL192
     /tmp/ccxUk6vw.s:2625   .text:0000000000000cdc .LVL193
     /tmp/ccxUk6vw.s:2631   .text:0000000000000ce0 .LBB156
     /tmp/ccxUk6vw.s:2762   .text:0000000000000d70 .LBE156
     /tmp/ccxUk6vw.s:2743   .text:0000000000000d50 .LBB164
     /tmp/ccxUk6vw.s:2758   .text:0000000000000d6c .LBE164
     /tmp/ccxUk6vw.s:11863  .debug_loc:0000000000001502 .LLST61
     /tmp/ccxUk6vw.s:2757   .text:0000000000000d6c .LVL204
     /tmp/ccxUk6vw.s:2633   .text:0000000000000ce0 .LBB157
     /tmp/ccxUk6vw.s:2646   .text:0000000000000ce4 .LBE157
     /tmp/ccxUk6vw.s:2650   .text:0000000000000ce8 .LBB159
     /tmp/ccxUk6vw.s:2663   .text:0000000000000cec .LBE159
     /tmp/ccxUk6vw.s:2668   .text:0000000000000cf0 .LBB161
     /tmp/ccxUk6vw.s:2680   .text:0000000000000cf8 .LBE161
     /tmp/ccxUk6vw.s:11870  .debug_loc:0000000000001525 .LLST60
     /tmp/ccxUk6vw.s:2711   .text:0000000000000d40 .LBB165
     /tmp/ccxUk6vw.s:2722   .text:0000000000000d44 .LBE165
     /tmp/ccxUk6vw.s:11878  .debug_loc:0000000000001549 .LLST62
     /tmp/ccxUk6vw.s:2727   .text:0000000000000d48 .LBB167
     /tmp/ccxUk6vw.s:2741   .text:0000000000000d50 .LBE167
     /tmp/ccxUk6vw.s:11885  .debug_loc:000000000000156c .LLST63
     /tmp/ccxUk6vw.s:2690   .text:0000000000000d14 .LVL198
     /tmp/ccxUk6vw.s:2764   .text:0000000000000d70 .LBB141
     /tmp/ccxUk6vw.s:2924   .text:0000000000000e0c .LBE141
     /tmp/ccxUk6vw.s:11892  .debug_loc:000000000000158f .LLST55
     /tmp/ccxUk6vw.s:11899  .debug_loc:00000000000015b2 .LLST56
     /tmp/ccxUk6vw.s:11906  .debug_loc:00000000000015d5 .LLST57
     /tmp/ccxUk6vw.s:2918   .text:0000000000000e08 .LVL220
     /tmp/ccxUk6vw.s:2766   .text:0000000000000d70 .LBB142
     /tmp/ccxUk6vw.s:2779   .text:0000000000000d74 .LBE142
     /tmp/ccxUk6vw.s:2783   .text:0000000000000d78 .LBB144
     /tmp/ccxUk6vw.s:2796   .text:0000000000000d7c .LBE144
     /tmp/ccxUk6vw.s:2877   .text:0000000000000de0 .LBB149
     /tmp/ccxUk6vw.s:2888   .text:0000000000000de4 .LBE149
     /tmp/ccxUk6vw.s:11917  .debug_loc:000000000000160b .LLST58
     /tmp/ccxUk6vw.s:2893   .text:0000000000000de8 .LBB151
     /tmp/ccxUk6vw.s:2907   .text:0000000000000df0 .LBE151
     /tmp/ccxUk6vw.s:11924  .debug_loc:000000000000162e .LLST59
     /tmp/ccxUk6vw.s:2870   .text:0000000000000dd4 .LVL214
     /tmp/ccxUk6vw.s:2872   .text:0000000000000ddc .LVL215
     /tmp/ccxUk6vw.s:2926   .text:0000000000000e0c .LBB138
     /tmp/ccxUk6vw.s:2976   .text:0000000000000e70 .LBE138
     /tmp/ccxUk6vw.s:11931  .debug_loc:0000000000001651 .LLST54
GAS LISTING /tmp/ccxUk6vw.s 			page 151


     /tmp/ccxUk6vw.s:2942   .text:0000000000000e30 .LBB139
     /tmp/ccxUk6vw.s:2954   .text:0000000000000e34 .LBE139
     /tmp/ccxUk6vw.s:2940   .text:0000000000000e30 .LVL223
     /tmp/ccxUk6vw.s:2961   .text:0000000000000e48 .LVL224
     /tmp/ccxUk6vw.s:2966   .text:0000000000000e58 .LVL225
     /tmp/ccxUk6vw.s:2971   .text:0000000000000e68 .LVL226
     /tmp/ccxUk6vw.s:2975   .text:0000000000000e70 .LVL227
     /tmp/ccxUk6vw.s:2143   .text:0000000000000a9c .LBB133
     /tmp/ccxUk6vw.s:2239   .text:0000000000000b64 .LBE133
     /tmp/ccxUk6vw.s:11938  .debug_loc:0000000000001674 .LLST52
     /tmp/ccxUk6vw.s:11945  .debug_loc:0000000000001697 .LLST53
     /tmp/ccxUk6vw.s:2155   .text:0000000000000abc .LBB134
     /tmp/ccxUk6vw.s:2171   .text:0000000000000ac8 .LBE134
     /tmp/ccxUk6vw.s:2186   .text:0000000000000aec .LBB136
     /tmp/ccxUk6vw.s:2198   .text:0000000000000af0 .LBE136
     /tmp/ccxUk6vw.s:2148   .text:0000000000000aac .LVL152
     /tmp/ccxUk6vw.s:2153   .text:0000000000000abc .LVL153
     /tmp/ccxUk6vw.s:2179   .text:0000000000000adc .LVL156
     /tmp/ccxUk6vw.s:2184   .text:0000000000000aec .LVL157
     /tmp/ccxUk6vw.s:2205   .text:0000000000000b04 .LVL158
     /tmp/ccxUk6vw.s:2210   .text:0000000000000b14 .LVL159
     /tmp/ccxUk6vw.s:2218   .text:0000000000000b34 .LVL160
     /tmp/ccxUk6vw.s:2232   .text:0000000000000b58 .LVL162
     /tmp/ccxUk6vw.s:2236   .text:0000000000000b60 .LVL163
     /tmp/ccxUk6vw.s:2065   .text:0000000000000a2c .LBB127
     /tmp/ccxUk6vw.s:2080   .text:0000000000000a38 .LBE127
     /tmp/ccxUk6vw.s:2461   .text:0000000000000be8 .LVL173
     /tmp/ccxUk6vw.s:10     .text:0000000000000000 .LFB48
     /tmp/ccxUk6vw.s:81     .text:0000000000000058 .LFE48
     /tmp/ccxUk6vw.s:3932   .text:000000000000146c .LFB47
     /tmp/ccxUk6vw.s:4086   .text:0000000000001530 .LFE47
     /tmp/ccxUk6vw.s:3947   .text:0000000000001484 .LBB211
     /tmp/ccxUk6vw.s:3958   .text:0000000000001488 .LBE211
     /tmp/ccxUk6vw.s:4007   .text:00000000000014f8 .LBB213
     /tmp/ccxUk6vw.s:4027   .text:000000000000150c .LBE213
     /tmp/ccxUk6vw.s:11952  .debug_loc:00000000000016ba .LLST104
     /tmp/ccxUk6vw.s:11964  .debug_loc:00000000000016f8 .LLST105
     /tmp/ccxUk6vw.s:4030   .text:000000000000150c .LBB215
     /tmp/ccxUk6vw.s:4031   .text:000000000000150c .LBB216
     /tmp/ccxUk6vw.s:4043   .text:0000000000001514 .LBE216
     /tmp/ccxUk6vw.s:11971  .debug_loc:000000000000171b .LLST106
     /tmp/ccxUk6vw.s:4047   .text:0000000000001514 .LBB218
     /tmp/ccxUk6vw.s:4059   .text:000000000000151c .LBE218
     /tmp/ccxUk6vw.s:11979  .debug_loc:000000000000173f .LLST107
     /tmp/ccxUk6vw.s:4063   .text:000000000000151c .LBB220
     /tmp/ccxUk6vw.s:4074   .text:0000000000001520 .LBE220
     /tmp/ccxUk6vw.s:11988  .debug_loc:0000000000001765 .LLST108
     /tmp/ccxUk6vw.s:3969   .text:00000000000014ac .LVL315
     /tmp/ccxUk6vw.s:3973   .text:00000000000014b4 .LVL316
     /tmp/ccxUk6vw.s:3977   .text:00000000000014bc .LVL317
     /tmp/ccxUk6vw.s:3981   .text:00000000000014c4 .LVL318
     /tmp/ccxUk6vw.s:3985   .text:00000000000014cc .LVL319
     /tmp/ccxUk6vw.s:3989   .text:00000000000014d4 .LVL320
     /tmp/ccxUk6vw.s:3993   .text:00000000000014dc .LVL321
     /tmp/ccxUk6vw.s:3997   .text:00000000000014e4 .LVL322
     /tmp/ccxUk6vw.s:12049  .debug_str:0000000000000013 .LASF373
     /tmp/ccxUk6vw.s:12541  .debug_str:0000000000000ff2 .LASF374
GAS LISTING /tmp/ccxUk6vw.s 			page 152


     /tmp/ccxUk6vw.s:12165  .debug_str:0000000000000393 .LASF387
     /tmp/ccxUk6vw.s:12073  .debug_str:00000000000000e3 .LASF388
     /tmp/ccxUk6vw.s:12793  .debug_str:00000000000018b7 .LASF375
     /tmp/ccxUk6vw.s:12753  .debug_str:00000000000016ea .LASF376
     /tmp/ccxUk6vw.s:12357  .debug_str:00000000000009ba .LASF377
     /tmp/ccxUk6vw.s:12315  .debug_str:0000000000000866 .LASF378
     /tmp/ccxUk6vw.s:12455  .debug_str:0000000000000d19 .LASF379
     /tmp/ccxUk6vw.s:3602   .text:0000000000001158 .LVL285
     /tmp/ccxUk6vw.s:3653   .text:00000000000011e4 .LVL290
     /tmp/ccxUk6vw.s:3340   .text:0000000000001004 .LVL252
     /tmp/ccxUk6vw.s:3409   .text:0000000000001058 .LVL259
     /tmp/ccxUk6vw.s:3471   .text:00000000000010ac .LVL269
     /tmp/ccxUk6vw.s:3412   .text:000000000000105c .LVL260
     /tmp/ccxUk6vw.s:3448   .text:0000000000001084 .LVL268
     /tmp/ccxUk6vw.s:3369   .text:0000000000001034 .LVL254
     /tmp/ccxUk6vw.s:3397   .text:0000000000001048 .LVL257
     /tmp/ccxUk6vw.s:3380   .text:000000000000103c .LVL255
     /tmp/ccxUk6vw.s:3418   .text:0000000000001060 .LVL261
     /tmp/ccxUk6vw.s:3494   .text:00000000000010c8 .LVL273
     /tmp/ccxUk6vw.s:3391   .text:0000000000001044 .LVL256
     /tmp/ccxUk6vw.s:3443   .text:000000000000107c .LVL266
     /tmp/ccxUk6vw.s:3401   .text:0000000000001050 .LVL258
     /tmp/ccxUk6vw.s:3422   .text:0000000000001068 .LVL262
     /tmp/ccxUk6vw.s:3430   .text:0000000000001070 .LVL263
     /tmp/ccxUk6vw.s:3433   .text:0000000000001074 .LVL264
     /tmp/ccxUk6vw.s:3445   .text:0000000000001080 .LVL267
     /tmp/ccxUk6vw.s:3440   .text:0000000000001078 .LVL265
     /tmp/ccxUk6vw.s:3483   .text:00000000000010b8 .LVL271
     /tmp/ccxUk6vw.s:3487   .text:00000000000010bc .LVL272
     /tmp/ccxUk6vw.s:3506   .text:00000000000010d4 .LVL275
     /tmp/ccxUk6vw.s:3510   .text:00000000000010d8 .LVL276
     /tmp/ccxUk6vw.s:3361   .text:000000000000102c .LVL253
     /tmp/ccxUk6vw.s:3303   .text:0000000000000fd8 .LVL249
     /tmp/ccxUk6vw.s:3316   .text:0000000000000ff0 .LVL250
     /tmp/ccxUk6vw.s:3318   .text:0000000000000ff4 .LVL251
     /tmp/ccxUk6vw.s:3834   .text:0000000000001380 .LVL303
     /tmp/ccxUk6vw.s:3917   .text:000000000000145c .LVL312
     /tmp/ccxUk6vw.s:3903   .text:000000000000144c .LVL311
     /tmp/ccxUk6vw.s:3700   .text:0000000000001240 .LVL292
     /tmp/ccxUk6vw.s:3783   .text:000000000000131c .LVL301
     /tmp/ccxUk6vw.s:3769   .text:000000000000130c .LVL300
     /tmp/ccxUk6vw.s:3528   .text:00000000000010e4 .LVL277
     /tmp/ccxUk6vw.s:3550   .text:0000000000001114 .LVL278
     /tmp/ccxUk6vw.s:3588   .text:0000000000001150 .LVL284
     /tmp/ccxUk6vw.s:3582   .text:0000000000001148 .LVL282
     /tmp/ccxUk6vw.s:3585   .text:000000000000114c .LVL283
     /tmp/ccxUk6vw.s:3579   .text:0000000000001144 .LVL281
     /tmp/ccxUk6vw.s:2992   .text:0000000000000e74 .LVL228
     /tmp/ccxUk6vw.s:3020   .text:0000000000000ea4 .LVL230
     /tmp/ccxUk6vw.s:3030   .text:0000000000000eb8 .LVL232
     /tmp/ccxUk6vw.s:3034   .text:0000000000000ebc .LVL233
     /tmp/ccxUk6vw.s:3083   .text:0000000000000ee4 .LVL236
     /tmp/ccxUk6vw.s:3080   .text:0000000000000ee0 .LVL235
     /tmp/ccxUk6vw.s:3086   .text:0000000000000ee8 .LVL237
     /tmp/ccxUk6vw.s:3011   .text:0000000000000e9c .LVL229
     /tmp/ccxUk6vw.s:1996   .text:00000000000009f8 .LVL149
     /tmp/ccxUk6vw.s:2001   .text:00000000000009fc .LVL150
GAS LISTING /tmp/ccxUk6vw.s 			page 153


     /tmp/ccxUk6vw.s:1764   .text:00000000000008bc .LVL134
     /tmp/ccxUk6vw.s:1772   .text:00000000000008d4 .LVL135
     /tmp/ccxUk6vw.s:1828   .text:0000000000000958 .LVL139
     /tmp/ccxUk6vw.s:1928   .text:00000000000009c4 .LVL143
     /tmp/ccxUk6vw.s:1939   .text:00000000000009d0 .LVL146
     /tmp/ccxUk6vw.s:1934   .text:00000000000009c8 .LVL144
     /tmp/ccxUk6vw.s:1922   .text:00000000000009b8 .LVL142
     /tmp/ccxUk6vw.s:1936   .text:00000000000009cc .LVL145
     /tmp/ccxUk6vw.s:1689   .text:0000000000000850 .LVL126
     /tmp/ccxUk6vw.s:1717   .text:0000000000000870 .LVL129
     /tmp/ccxUk6vw.s:1721   .text:0000000000000878 .LVL130
     /tmp/ccxUk6vw.s:1695   .text:0000000000000854 .LVL127
     /tmp/ccxUk6vw.s:1613   .text:00000000000007e8 .LVL118
     /tmp/ccxUk6vw.s:1641   .text:0000000000000808 .LVL121
     /tmp/ccxUk6vw.s:1645   .text:0000000000000810 .LVL122
     /tmp/ccxUk6vw.s:1619   .text:00000000000007ec .LVL119
     /tmp/ccxUk6vw.s:277    .text:000000000000015c .LVL7
     /tmp/ccxUk6vw.s:290    .text:0000000000000164 .LVL8
     /tmp/ccxUk6vw.s:311    .text:000000000000016c .LVL9
     /tmp/ccxUk6vw.s:198    .text:0000000000000108 .LVL4
     /tmp/ccxUk6vw.s:209    .text:0000000000000110 .LVL5
     /tmp/ccxUk6vw.s:3173   .text:0000000000000f30 .LVL239
     /tmp/ccxUk6vw.s:3183   .text:0000000000000f44 .LVL240
     /tmp/ccxUk6vw.s:3200   .text:0000000000000f58 .LVL242
     /tmp/ccxUk6vw.s:3223   .text:0000000000000f68 .LVL244
     /tmp/ccxUk6vw.s:3237   .text:0000000000000f84 .LVL246
     /tmp/ccxUk6vw.s:3248   .text:0000000000000f8c .LVL247
     /tmp/ccxUk6vw.s:157    .text:00000000000000c8 .LVL2
     /tmp/ccxUk6vw.s:1490   .text:0000000000000744 .LVL107
     /tmp/ccxUk6vw.s:1497   .text:0000000000000754 .LVL108
     /tmp/ccxUk6vw.s:1522   .text:0000000000000774 .LVL110
     /tmp/ccxUk6vw.s:1528   .text:0000000000000778 .LVL111
     /tmp/ccxUk6vw.s:1537   .text:0000000000000790 .LVL114
     /tmp/ccxUk6vw.s:1405   .text:00000000000006b0 .LVL101
     /tmp/ccxUk6vw.s:1449   .text:00000000000006fc .LVL105
     /tmp/ccxUk6vw.s:1333   .text:0000000000000658 .LVL96
     /tmp/ccxUk6vw.s:1340   .text:0000000000000660 .LVL97
     /tmp/ccxUk6vw.s:1363   .text:000000000000067c .LVL99
     /tmp/ccxUk6vw.s:1256   .text:00000000000005f8 .LVL89
     /tmp/ccxUk6vw.s:1261   .text:00000000000005fc .LVL90
     /tmp/ccxUk6vw.s:1295   .text:0000000000000630 .LVL93
     /tmp/ccxUk6vw.s:1273   .text:0000000000000614 .LVL91
     /tmp/ccxUk6vw.s:1303   .text:000000000000063c .LVL95
     /tmp/ccxUk6vw.s:1183   .text:000000000000059c .LVL82
     /tmp/ccxUk6vw.s:1213   .text:00000000000005bc .LVL85
     /tmp/ccxUk6vw.s:1217   .text:00000000000005c4 .LVL86
     /tmp/ccxUk6vw.s:1192   .text:00000000000005a4 .LVL83
     /tmp/ccxUk6vw.s:1054   .text:0000000000000508 .LVL68
     /tmp/ccxUk6vw.s:1111   .text:0000000000000554 .LVL75
     /tmp/ccxUk6vw.s:1118   .text:0000000000000560 .LVL77
     /tmp/ccxUk6vw.s:1127   .text:000000000000056c .LVL79
     /tmp/ccxUk6vw.s:1060   .text:000000000000050c .LVL69
     /tmp/ccxUk6vw.s:1114   .text:0000000000000558 .LVL76
     /tmp/ccxUk6vw.s:1108   .text:0000000000000550 .LVL74
     /tmp/ccxUk6vw.s:1124   .text:0000000000000568 .LVL78
     /tmp/ccxUk6vw.s:1087   .text:0000000000000538 .LVL72
     /tmp/ccxUk6vw.s:102    .text:0000000000000074 .LVL0
GAS LISTING /tmp/ccxUk6vw.s 			page 154


     /tmp/ccxUk6vw.s:967    .text:00000000000004a0 .LVL62
     /tmp/ccxUk6vw.s:991    .text:00000000000004c4 .LVL65
     /tmp/ccxUk6vw.s:1013   .text:00000000000004e0 .LVL67
     /tmp/ccxUk6vw.s:977    .text:00000000000004b0 .LVL63
     /tmp/ccxUk6vw.s:899    .text:000000000000044c .LVL56
     /tmp/ccxUk6vw.s:907    .text:0000000000000454 .LVL57
     /tmp/ccxUk6vw.s:930    .text:0000000000000470 .LVL59
     /tmp/ccxUk6vw.s:757    .text:00000000000003a0 .LVL40
     /tmp/ccxUk6vw.s:826    .text:0000000000000404 .LVL48
     /tmp/ccxUk6vw.s:836    .text:0000000000000414 .LVL51
     /tmp/ccxUk6vw.s:763    .text:00000000000003a4 .LVL41
     /tmp/ccxUk6vw.s:823    .text:0000000000000400 .LVL47
     /tmp/ccxUk6vw.s:845    .text:0000000000000420 .LVL53
     /tmp/ccxUk6vw.s:751    .text:000000000000039c .LVL39
     /tmp/ccxUk6vw.s:829    .text:0000000000000408 .LVL49
     /tmp/ccxUk6vw.s:745    .text:0000000000000398 .LVL38
     /tmp/ccxUk6vw.s:832    .text:000000000000040c .LVL50
     /tmp/ccxUk6vw.s:820    .text:00000000000003fc .LVL46
     /tmp/ccxUk6vw.s:842    .text:000000000000041c .LVL52
     /tmp/ccxUk6vw.s:799    .text:00000000000003e4 .LVL44
     /tmp/ccxUk6vw.s:579    .text:00000000000002cc .LVL21
     /tmp/ccxUk6vw.s:655    .text:000000000000033c .LVL30
     /tmp/ccxUk6vw.s:665    .text:000000000000034c .LVL33
     /tmp/ccxUk6vw.s:585    .text:00000000000002d0 .LVL22
     /tmp/ccxUk6vw.s:658    .text:0000000000000340 .LVL31
     /tmp/ccxUk6vw.s:573    .text:00000000000002c8 .LVL20
     /tmp/ccxUk6vw.s:652    .text:0000000000000338 .LVL29
     /tmp/ccxUk6vw.s:674    .text:0000000000000358 .LVL35
     /tmp/ccxUk6vw.s:567    .text:00000000000002c4 .LVL19
     /tmp/ccxUk6vw.s:661    .text:0000000000000344 .LVL32
     /tmp/ccxUk6vw.s:649    .text:0000000000000334 .LVL28
     /tmp/ccxUk6vw.s:671    .text:0000000000000354 .LVL34
     /tmp/ccxUk6vw.s:628    .text:000000000000031c .LVL26
     /tmp/ccxUk6vw.s:522    .text:0000000000000290 .LVL17
     /tmp/ccxUk6vw.s:492    .text:0000000000000270 .LVL15
     /tmp/ccxUk6vw.s:440    .text:0000000000000228 .LVL12
     /tmp/ccxUk6vw.s:2062   .text:0000000000000a2c .LVL151
     /tmp/ccxUk6vw.s:2471   .text:0000000000000bf4 .LVL174
     /tmp/ccxUk6vw.s:2475   .text:0000000000000bfc .LVL175
     /tmp/ccxUk6vw.s:2298   .text:0000000000000b98 .LVL166
     /tmp/ccxUk6vw.s:2304   .text:0000000000000ba4 .LVL167
     /tmp/ccxUk6vw.s:2426   .text:0000000000000bd4 .LVL169
     /tmp/ccxUk6vw.s:2435   .text:0000000000000bd8 .LVL170
     /tmp/ccxUk6vw.s:2442   .text:0000000000000bdc .LVL171
     /tmp/ccxUk6vw.s:2451   .text:0000000000000be0 .LVL172
     /tmp/ccxUk6vw.s:2749   .text:0000000000000d5c .LVL203
     /tmp/ccxUk6vw.s:2667   .text:0000000000000cf0 .LVL196
     /tmp/ccxUk6vw.s:2677   .text:0000000000000cf8 .LVL197
     /tmp/ccxUk6vw.s:2710   .text:0000000000000d40 .LVL199
     /tmp/ccxUk6vw.s:2719   .text:0000000000000d44 .LVL200
     /tmp/ccxUk6vw.s:2726   .text:0000000000000d48 .LVL201
     /tmp/ccxUk6vw.s:2738   .text:0000000000000d50 .LVL202
     /tmp/ccxUk6vw.s:2803   .text:0000000000000d8c .LVL207
     /tmp/ccxUk6vw.s:2826   .text:0000000000000d9c .LVL209
     /tmp/ccxUk6vw.s:2836   .text:0000000000000dac .LVL210
     /tmp/ccxUk6vw.s:2859   .text:0000000000000dc4 .LVL212
     /tmp/ccxUk6vw.s:2855   .text:0000000000000dbc .LVL211
GAS LISTING /tmp/ccxUk6vw.s 			page 155


     /tmp/ccxUk6vw.s:2863   .text:0000000000000dcc .LVL213
     /tmp/ccxUk6vw.s:2904   .text:0000000000000df0 .LVL219
     /tmp/ccxUk6vw.s:2876   .text:0000000000000de0 .LVL216
     /tmp/ccxUk6vw.s:2885   .text:0000000000000de4 .LVL217
     /tmp/ccxUk6vw.s:2892   .text:0000000000000de8 .LVL218
     /tmp/ccxUk6vw.s:2931   .text:0000000000000e18 .LVL222
     /tmp/ccxUk6vw.s:2169   .text:0000000000000ac8 .LVL154
     /tmp/ccxUk6vw.s:2177   .text:0000000000000ad4 .LVL155
     /tmp/ccxUk6vw.s:2223   .text:0000000000000b40 .LVL161
     /tmp/ccxUk6vw.s:4006   .text:00000000000014f8 .LVL323
     /tmp/ccxUk6vw.s:4012   .text:00000000000014fc .LVL324
     /tmp/ccxUk6vw.s:4024   .text:000000000000150c .LVL326
     /tmp/ccxUk6vw.s:4017   .text:0000000000001508 .LVL325
     /tmp/ccxUk6vw.s:4040   .text:0000000000001514 .LVL327
     /tmp/ccxUk6vw.s:4056   .text:000000000000151c .LVL328
     /tmp/ccxUk6vw.s:4071   .text:0000000000001520 .LVL329
     /tmp/ccxUk6vw.s:4131   .debug_info:0000000000000000 .Ldebug_info0
     /tmp/ccxUk6vw.s:275    .text:000000000000015c .LBE109
     /tmp/ccxUk6vw.s:278    .text:000000000000015c .LBB119
     /tmp/ccxUk6vw.s:297    .text:0000000000000164 .LBE119
     /tmp/ccxUk6vw.s:299    .text:0000000000000164 .LBB120
     /tmp/ccxUk6vw.s:318    .text:000000000000016c .LBE120
     /tmp/ccxUk6vw.s:2829   .text:0000000000000da0 .LBB147
     /tmp/ccxUk6vw.s:2865   .text:0000000000000dcc .LBE147
     /tmp/ccxUk6vw.s:2909   .text:0000000000000df0 .LBB148
     /tmp/ccxUk6vw.s:2922   .text:0000000000000e0c .LBE148
     /tmp/ccxUk6vw.s:2243   .text:0000000000000b64 .LBB173
     /tmp/ccxUk6vw.s:2456   .text:0000000000000be0 .LBE173
     /tmp/ccxUk6vw.s:2479   .text:0000000000000bfc .LBB182
     /tmp/ccxUk6vw.s:2629   .text:0000000000000ce0 .LBE182
     /tmp/ccxUk6vw.s:3185   .text:0000000000000f44 .LBB188
     /tmp/ccxUk6vw.s:3193   .text:0000000000000f4c .LBE188
     /tmp/ccxUk6vw.s:3195   .text:0000000000000f4c .LBB192
     /tmp/ccxUk6vw.s:3274   .text:0000000000000fb8 .LBE192
     /tmp/ccxUk6vw.s:4044   .text:0000000000001514 .LBE215
     /tmp/ccxUk6vw.s:4046   .text:0000000000001514 .LBB222
     /tmp/ccxUk6vw.s:4060   .text:000000000000151c .LBE222
     /tmp/ccxUk6vw.s:4062   .text:000000000000151c .LBB223
     /tmp/ccxUk6vw.s:4075   .text:0000000000001520 .LBE223
     /tmp/ccxUk6vw.s:688    .gcc_except_table:0000000000000000 .LLSDA52
     /tmp/ccxUk6vw.s:858    .gcc_except_table:0000000000000038 .LLSDA53
     /tmp/ccxUk6vw.s:1140   .gcc_except_table:0000000000000063 .LLSDA57
     /tmp/ccxUk6vw.s:1953   .gcc_except_table:000000000000008e .LLSDA71

UNDEFINED SYMBOLS
_ZN3TCB7runningE
_Z11bodyWrapperPFvPvES_
_ZN3TCB8dispatchEv
_ZN11ConsoleUtil11pendingPutcE
_ZN11ConsoleUtil9putOutputEc
_ZN11ConsoleUtil11pendingGetcE
_ZN9Scheduler9readyHeadE
_ZN3TCB10putcThreadE
_ZN9Scheduler3putEP3TCB
_ZN11ConsoleUtil10outputHeadE
_ZN11ConsoleUtil10outputTailE
_ZN15MemoryAllocator7kmallocEm
GAS LISTING /tmp/ccxUk6vw.s 			page 156


_ZN15MemoryAllocator11initializedE
_ZN15MemoryAllocator5kfreeEPv
_ZN3TCBnwEm
_ZN3TCBC1EPFvPvES0_Pmm
_ZN3TCBdlEPv
_Unwind_Resume
__gxx_personality_v0
_ZN3SCBnwEm
_ZN3SCBC1Em
_ZN3SCBdlEPv
_ZN3SCBD1Ev
_ZN3SCB4waitEv
_ZN3SCB6signalEv
_ZN9Scheduler5sleepEP3TCB
_ZN11ConsoleUtil8getInputEv
_ZN11ConsoleUtil9getOutputEv
_Z5kfreePKv
_ZN3TCBD1Ev
_ZN15MemoryAllocator6memcpyEPvS0_m
_ZN3TCB9currentPCE
_ZN3TCB9currentSPE
_ZN11ConsoleUtil11printStringEPKc
_ZN11ConsoleUtil8printIntEiii
_ZN11ConsoleUtil5printEPKciS1_i
_ZN9Scheduler5awakeEv
_ZN3TCB16timeSliceCounterE
CONSOLE_STATUS
CONSOLE_TX_DATA
plic_claim
plic_complete
_ZN11ConsoleUtil8putInputEc
_ZN11ConsoleUtil15putcUtilSyscallEv
CONSOLE_RX_DATA
_ZN5Buddy5allocEm
_ZN5Buddy16BLOCKS_AVAILABLEE
_ZN5Buddy16BUDDY_START_ADDRE
kernelTextEnd
userTextStart
userDataStart
userDataEnd
HEAP_END_ADDR
_ZN5RiscV14supervisorTrapEv
HEAP_START_ADDR
_Z9kmem_initPvi
_ZN15MemoryAllocator10initializeEv
_ZN9Scheduler10initializeEv
_ZN3TCB10initializeEv
_ZN3SCB10initializeEv
_ZN11ConsoleUtil10initializeEv
