GAS LISTING /tmp/ccyPB5Cy.s 			page 1


   1              		.file	"riscv.cpp"
   2              		.option pic
   3              		.option norelax
   4              		.text
   5              	.Ltext0:
   6              		.align	2
   7              		.globl	_ZN5RiscV10popSppSpieEv
   9              	_ZN5RiscV10popSppSpieEv:
  10              	.LFB45:
  11              		.file 1 "src/kernel/riscv.cpp"
   1:src/kernel/riscv.cpp **** //
   2:src/kernel/riscv.cpp **** // Created by os on 4/28/22.
   3:src/kernel/riscv.cpp **** //
   4:src/kernel/riscv.cpp **** 
   5:src/kernel/riscv.cpp **** #include "../../h/kernel/riscv.hpp"
   6:src/kernel/riscv.cpp **** #include "../../h/kernel/memory_allocator.hpp"
   7:src/kernel/riscv.cpp **** #include "../../h/kernel/tcb.hpp"
   8:src/kernel/riscv.cpp **** #include "../../h/kernel/scheduler.hpp"
   9:src/kernel/riscv.cpp **** #include "../../h/user/printing.hpp"
  10:src/kernel/riscv.cpp **** #include "../../h/kernel/scb.hpp"
  11:src/kernel/riscv.cpp **** #include "../../h/user/user_wrappers.hpp"
  12:src/kernel/riscv.cpp **** 
  13:src/kernel/riscv.cpp **** uint64 RiscV::globalTime = 0;
  14:src/kernel/riscv.cpp **** bool RiscV::userMainFinished = false;
  15:src/kernel/riscv.cpp **** void* RiscV::kPMT = nullptr;
  16:src/kernel/riscv.cpp **** void* RiscV::uPMT = nullptr;
  17:src/kernel/riscv.cpp **** bool RiscV::initialized = false;
  18:src/kernel/riscv.cpp **** 
  19:src/kernel/riscv.cpp **** //initailize each of the key components and switch to user mode for user code execution
  20:src/kernel/riscv.cpp **** void RiscV::initialize(){
  21:src/kernel/riscv.cpp ****     RiscV::w_stvec((uint64) &RiscV::supervisorTrap);
  22:src/kernel/riscv.cpp ****     kmem_init(BUDDY_START_ADDR_CONST, 4096);
  23:src/kernel/riscv.cpp ****     MemoryAllocator::initialize();
  24:src/kernel/riscv.cpp ****     Scheduler::initialize();
  25:src/kernel/riscv.cpp ****     TCB::initialize();
  26:src/kernel/riscv.cpp ****     SCB::initialize();
  27:src/kernel/riscv.cpp ****     ConsoleUtil::initialize();
  28:src/kernel/riscv.cpp ****     RiscV::buildKernelPMT();
  29:src/kernel/riscv.cpp ****     RiscV::buildUserPMT();
  30:src/kernel/riscv.cpp ****     RiscV::initialized = true;
  31:src/kernel/riscv.cpp ****     RiscV::startVirtualMemory(RiscV::kPMT);
  32:src/kernel/riscv.cpp ****     RiscV::enableInterrupts();
  33:src/kernel/riscv.cpp **** }
  34:src/kernel/riscv.cpp **** 
  35:src/kernel/riscv.cpp **** //get previous privilege and previous interrupt status
  36:src/kernel/riscv.cpp **** void RiscV::popSppSpie() {
  12              		.loc 1 36 26
  13              		.cfi_startproc
  14 0000 130101FF 		addi	sp,sp,-16
  15              		.cfi_def_cfa_offset 16
  16 0004 23348100 		sd	s0,8(sp)
  17              		.cfi_offset 8, -8
  18 0008 13040101 		addi	s0,sp,16
  19              		.cfi_def_cfa 8, 0
  37:src/kernel/riscv.cpp ****     uint64 ra = 0;
  20              		.loc 1 37 5
  21              	.LVL0:
GAS LISTING /tmp/ccyPB5Cy.s 			page 2


  38:src/kernel/riscv.cpp ****     if(TCB::running->mode == TCB::Mode::SUPERVISOR)
  22              		.loc 1 38 5
  23              		.loc 1 38 22 is_stmt 0
  24 000c 97070000 		la	a5,_ZN3TCB7runningE
  24      83B70700 
  25 0014 83B70700 		ld	a5,0(a5)
  26 0018 83A64701 		lw	a3,20(a5)
  27              		.loc 1 38 5
  28 001c 13071000 		li	a4,1
  29 0020 6388E602 		beq	a3,a4,.L5
  39:src/kernel/riscv.cpp ****         asm("csrw sepc, ra");
  40:src/kernel/riscv.cpp ****     else
  41:src/kernel/riscv.cpp ****     {
  42:src/kernel/riscv.cpp ****         ra = (uint64)bodyWrapper;
  30              		.loc 1 42 9 is_stmt 1
  31              	.LVL1:
  43:src/kernel/riscv.cpp ****         asm("mv a0, %[iarg]" : : [iarg] "r" (TCB::running->body));
  32              		.loc 1 43 9
  33              		.loc 1 43 60 is_stmt 0
  34 0024 03B78701 		ld	a4,24(a5)
  35              		.loc 1 43 66
  36              	#APP
  37              	# 43 "src/kernel/riscv.cpp" 1
  44              	        asm("mv a1, %[iarg]" : : [iarg] "r" (TCB::running->args));
  38              		mv a0, a4
  39              	# 0 "" 2
  40              		.loc 1 44 9 is_stmt 1
  41              		.loc 1 44 60 is_stmt 0
  42              	#NO_APP
  43 002c 83B70702 		ld	a5,32(a5)
  44              		.loc 1 44 66
  45              	#APP
  46              	# 44 "src/kernel/riscv.cpp" 1
  45              	        asm("csrw sepc, %[ra]" : : [ra] "r" (ra));
  47              		mv a1, a5
  48              	# 0 "" 2
  49              		.loc 1 45 9 is_stmt 1
  50              		.loc 1 45 50 is_stmt 0
  51              	#NO_APP
  52 0034 97070000 		la	a5,_Z11bodyWrapperPFvPvES_
  52      83B70700 
  53              	#APP
  54              	# 45 "src/kernel/riscv.cpp" 1
  46              	    }
  55              		csrw sepc, a5
  56              	# 0 "" 2
  57              	.LVL2:
  58              	#NO_APP
  59              	.L3:
  47:src/kernel/riscv.cpp ****     asm("sret");
  60              		.loc 1 47 5 is_stmt 1
  61              		.loc 1 47 16 is_stmt 0
  62              	#APP
  63              	# 47 "src/kernel/riscv.cpp" 1
  48              	}
  64              		sret
  65              	# 0 "" 2
GAS LISTING /tmp/ccyPB5Cy.s 			page 3


  66              		.loc 1 48 1
  67              	#NO_APP
  68 0044 03348100 		ld	s0,8(sp)
  69              		.cfi_remember_state
  70              		.cfi_restore 8
  71              		.cfi_def_cfa 2, 16
  72 0048 13010101 		addi	sp,sp,16
  73              		.cfi_def_cfa_offset 0
  74 004c 67800000 		jr	ra
  75              	.LVL3:
  76              	.L5:
  77              		.cfi_restore_state
  39:src/kernel/riscv.cpp ****         asm("csrw sepc, ra");
  78              		.loc 1 39 9 is_stmt 1
  39:src/kernel/riscv.cpp ****         asm("csrw sepc, ra");
  79              		.loc 1 39 29 is_stmt 0
  80              	#APP
  81              	# 39 "src/kernel/riscv.cpp" 1
  82              		csrw sepc, ra
  83              	# 0 "" 2
  84              	#NO_APP
  85 0054 6FF0DFFE 		j	.L3
  86              		.cfi_endproc
  87              	.LFE45:
  89              		.align	2
  90              		.globl	_ZN5RiscV28executeThreadDispatchSyscallEv
  92              	_ZN5RiscV28executeThreadDispatchSyscallEv:
  93              	.LFB53:
  49:src/kernel/riscv.cpp **** 
  50:src/kernel/riscv.cpp **** //handler function for traps
  51:src/kernel/riscv.cpp **** void RiscV::handleSupervisorTrap() {
  52:src/kernel/riscv.cpp **** 
  53:src/kernel/riscv.cpp ****     //read scause
  54:src/kernel/riscv.cpp ****     uint64 stval;
  55:src/kernel/riscv.cpp ****     asm("csrr %[stval], stval" : [stval] "=r" (stval));
  56:src/kernel/riscv.cpp ****     uint64 volatile scause = RiscV::r_scause();
  57:src/kernel/riscv.cpp **** 
  58:src/kernel/riscv.cpp ****     asm("csrr %[sscratch], sscratch" : [sscratch] "=r" (TCB::running->a0Location));
  59:src/kernel/riscv.cpp **** 
  60:src/kernel/riscv.cpp ****     if(scause == 0x09 || scause == 0x08) {
  61:src/kernel/riscv.cpp **** 
  62:src/kernel/riscv.cpp ****         //save sstatus and sepc
  63:src/kernel/riscv.cpp ****         //sepc should be increased by 4, since this is an ecall trap
  64:src/kernel/riscv.cpp ****         uint64 volatile sstatus = RiscV::r_sstatus();
  65:src/kernel/riscv.cpp ****         uint64 volatile sepc = RiscV::r_sepc()+4;
  66:src/kernel/riscv.cpp ****         TCB::running->sepc = sepc;
  67:src/kernel/riscv.cpp ****         TCB::running->sstatus = sstatus;
  68:src/kernel/riscv.cpp **** 
  69:src/kernel/riscv.cpp ****         //get the syscall ID from a0
  70:src/kernel/riscv.cpp ****         uint64 syscallID;
  71:src/kernel/riscv.cpp ****         asm("mv %[syscallID], a0" : [syscallID] "=r" (syscallID));
  72:src/kernel/riscv.cpp **** 
  73:src/kernel/riscv.cpp ****         switch(syscallID){
  74:src/kernel/riscv.cpp ****             case 0x01 : executeMemAllocSyscall();break;
  75:src/kernel/riscv.cpp ****             case 0x02 : executeMemFreeSyscall();break;
  76:src/kernel/riscv.cpp ****             case 0x11 : executeThreadCreateSyscall();break;
  77:src/kernel/riscv.cpp ****             case 0x12 : executeThreadExitSyscall();break;
GAS LISTING /tmp/ccyPB5Cy.s 			page 4


  78:src/kernel/riscv.cpp ****             case 0x13 : executeThreadDispatchSyscall();break;
  79:src/kernel/riscv.cpp ****             case 0x14 : executeThreadAttachBodySyscall();break;
  80:src/kernel/riscv.cpp ****             case 0x15 : executeThreadStartSyscall();break;
  81:src/kernel/riscv.cpp ****             case 0x21 : executeSemOpenSyscall();break;
  82:src/kernel/riscv.cpp ****             case 0x22 : executeSemCloseSyscall();break;
  83:src/kernel/riscv.cpp ****             case 0x23 : executeSemWaitSyscall();break;
  84:src/kernel/riscv.cpp ****             case 0x24 : executeSemSignalSyscall();break;
  85:src/kernel/riscv.cpp ****             case 0x31 : executeTimeSleepSyscall();break;
  86:src/kernel/riscv.cpp ****             case 0x41 : executeGetcSyscall();break;
  87:src/kernel/riscv.cpp ****             case 0x42 : executePutcSyscall();break;
  88:src/kernel/riscv.cpp ****             case 0x43 : executePutcUtilSyscall();break;
  89:src/kernel/riscv.cpp ****             case 0x51 : executeThreadFreeSyscall();break;
  90:src/kernel/riscv.cpp ****             case 0x52 : executeSemaphoreFreeSyscall();break;
  91:src/kernel/riscv.cpp ****             //in this case we need to save SP and PC at this point so that newly created thread
  92:src/kernel/riscv.cpp ****             //can return to this point and exit trap routine regularly
  93:src/kernel/riscv.cpp ****             //note that getPC() returns PC incremented by 8 to skip executeForkSyscall
  94:src/kernel/riscv.cpp ****             case 0x61 : asm("mv %[sp], sp" : [sp] "=r"(TCB::currentSP));
  95:src/kernel/riscv.cpp ****                         RiscV::getPC();
  96:src/kernel/riscv.cpp ****                         executeForkSyscall();
  97:src/kernel/riscv.cpp ****                         break;
  98:src/kernel/riscv.cpp ****         }
  99:src/kernel/riscv.cpp **** 
 100:src/kernel/riscv.cpp ****         //write previously save sstatus and incremented sepc
 101:src/kernel/riscv.cpp ****         RiscV::w_sstatus(TCB::running->sstatus);
 102:src/kernel/riscv.cpp ****         RiscV::w_sepc(TCB::running->sepc);
 103:src/kernel/riscv.cpp ****     }
 104:src/kernel/riscv.cpp **** 
 105:src/kernel/riscv.cpp ****     //timer interrupt (in this system's implementation, timer tick is manifested as software interr
 106:src/kernel/riscv.cpp ****     else if(scause == (0x01UL<<63 | 0x1)){
 107:src/kernel/riscv.cpp **** 
 108:src/kernel/riscv.cpp ****         //save sstatus and sepc
 109:src/kernel/riscv.cpp ****         //this time sepc remains the same
 110:src/kernel/riscv.cpp ****         uint64 volatile sstatus = RiscV::r_sstatus();
 111:src/kernel/riscv.cpp ****         uint64 volatile sepc = RiscV::r_sepc();
 112:src/kernel/riscv.cpp **** 
 113:src/kernel/riscv.cpp ****         //clear the SIP bit for software interrupt
 114:src/kernel/riscv.cpp ****         mc_sip(SIP_SSIE);
 115:src/kernel/riscv.cpp **** 
 116:src/kernel/riscv.cpp **** 
 117:src/kernel/riscv.cpp ****         //increase global time and try to awake threads that are asleep
 118:src/kernel/riscv.cpp ****         globalTime += 1;
 119:src/kernel/riscv.cpp ****         Scheduler::awake();
 120:src/kernel/riscv.cpp **** 
 121:src/kernel/riscv.cpp ****         //check whether time slice has run out for running thread
 122:src/kernel/riscv.cpp ****         //if so, dispatch
 123:src/kernel/riscv.cpp ****         TCB::timeSliceCounter++;
 124:src/kernel/riscv.cpp ****         if(TCB::timeSliceCounter >= TCB::running->timeSlice) {
 125:src/kernel/riscv.cpp **** 
 126:src/kernel/riscv.cpp ****             TCB::timeSliceCounter = 0;
 127:src/kernel/riscv.cpp **** 
 128:src/kernel/riscv.cpp ****             TCB* old = TCB::running;
 129:src/kernel/riscv.cpp **** 
 130:src/kernel/riscv.cpp ****             old->status = TCB::Status::READY;
 131:src/kernel/riscv.cpp **** 
 132:src/kernel/riscv.cpp ****             TCB::dispatch();
 133:src/kernel/riscv.cpp ****         }
 134:src/kernel/riscv.cpp **** 
GAS LISTING /tmp/ccyPB5Cy.s 			page 5


 135:src/kernel/riscv.cpp ****         //write previously save sstatus and sepc
 136:src/kernel/riscv.cpp ****         RiscV::w_sstatus(sstatus);
 137:src/kernel/riscv.cpp ****         RiscV::w_sepc(sepc);
 138:src/kernel/riscv.cpp ****     }
 139:src/kernel/riscv.cpp **** 
 140:src/kernel/riscv.cpp ****     //hardware interrupt, from console (note that here we only check for keyboard interrupts, handl
 141:src/kernel/riscv.cpp ****     else if(scause == (0x01UL<<63 | 0x9)){
 142:src/kernel/riscv.cpp ****         //save sstatus and sepc
 143:src/kernel/riscv.cpp ****         //this time sepc remains the same
 144:src/kernel/riscv.cpp ****         uint64 volatile sstatus = RiscV::r_sstatus();
 145:src/kernel/riscv.cpp ****         uint64 volatile sepc = RiscV::r_sepc();
 146:src/kernel/riscv.cpp **** 
 147:src/kernel/riscv.cpp ****         //get the console status register location, and console status reg value
 148:src/kernel/riscv.cpp ****         uint64 status = CONSOLE_STATUS;
 149:src/kernel/riscv.cpp ****         asm("mv a0, %[status]" : : [status] "r" (status));
 150:src/kernel/riscv.cpp ****         asm("lb a1, 0(a0)");
 151:src/kernel/riscv.cpp ****         asm("mv %[status], a1" : [status] "=r" (status));
 152:src/kernel/riscv.cpp **** 
 153:src/kernel/riscv.cpp ****         //if keyboard is ready to send data
 154:src/kernel/riscv.cpp ****         if(status & 1UL)
 155:src/kernel/riscv.cpp ****         {
 156:src/kernel/riscv.cpp ****             //fetch the character from CONSOLE_TX_DATA register
 157:src/kernel/riscv.cpp ****             uint64 data;
 158:src/kernel/riscv.cpp ****             char c;
 159:src/kernel/riscv.cpp ****             data = CONSOLE_TX_DATA;
 160:src/kernel/riscv.cpp ****             asm("mv a0, %[data]" : : [data] "r" (data));
 161:src/kernel/riscv.cpp ****             asm("lb a1, 0(a0)");
 162:src/kernel/riscv.cpp ****             asm("mv %[c], a1" : [c] "=r" (c));
 163:src/kernel/riscv.cpp **** 
 164:src/kernel/riscv.cpp ****             //if there was a getc request put the character into the input buffer, othrewise ignore
 165:src/kernel/riscv.cpp ****             if(ConsoleUtil::pendingGetc!=0) {
 166:src/kernel/riscv.cpp ****                 ConsoleUtil::pendingGetc--;
 167:src/kernel/riscv.cpp ****                 ConsoleUtil::putInput(c);
 168:src/kernel/riscv.cpp ****             }
 169:src/kernel/riscv.cpp ****         }
 170:src/kernel/riscv.cpp ****         plic_complete(plic_claim());
 171:src/kernel/riscv.cpp **** 
 172:src/kernel/riscv.cpp ****         RiscV::w_sstatus(sstatus);
 173:src/kernel/riscv.cpp ****         RiscV::w_sepc(sepc);
 174:src/kernel/riscv.cpp ****     }
 175:src/kernel/riscv.cpp **** 
 176:src/kernel/riscv.cpp ****     //illegal instruction, exit running thread
 177:src/kernel/riscv.cpp ****     else if(scause == 0x02){
 178:src/kernel/riscv.cpp ****         TCB* old = TCB::running;
 179:src/kernel/riscv.cpp ****         old->status = TCB::Status::FINISHED;
 180:src/kernel/riscv.cpp ****         ConsoleUtil::printString("sepc: ");
 181:src/kernel/riscv.cpp ****         uint64 sepc = RiscV::r_sepc();
 182:src/kernel/riscv.cpp ****         ConsoleUtil::printInt(sepc,16);
 183:src/kernel/riscv.cpp ****         ConsoleUtil::printString("\n");
 184:src/kernel/riscv.cpp ****         ConsoleUtil::printString("Illegal instruction\nExiting thread...\n");
 185:src/kernel/riscv.cpp ****         TCB::dispatch();
 186:src/kernel/riscv.cpp ****     }
 187:src/kernel/riscv.cpp **** 
 188:src/kernel/riscv.cpp ****     //some other kind of error, for more information check out RiscV handbook
 189:src/kernel/riscv.cpp ****     else{
 190:src/kernel/riscv.cpp ****         ConsoleUtil::printString("Error: \n");
 191:src/kernel/riscv.cpp ****         ConsoleUtil::printString("scause: ");
GAS LISTING /tmp/ccyPB5Cy.s 			page 6


 192:src/kernel/riscv.cpp ****         uint64  scause = RiscV::r_scause();
 193:src/kernel/riscv.cpp ****         ConsoleUtil::printInt(scause);
 194:src/kernel/riscv.cpp ****         ConsoleUtil::printString("sepc: ");
 195:src/kernel/riscv.cpp ****         uint64 sepc = RiscV::r_sepc();
 196:src/kernel/riscv.cpp ****         ConsoleUtil::printInt(sepc,16);
 197:src/kernel/riscv.cpp ****         ConsoleUtil::printString("\n");
 198:src/kernel/riscv.cpp ****         ConsoleUtil::print("stvec: ",stval,"\n");
 199:src/kernel/riscv.cpp ****         TCB* old = TCB::running;
 200:src/kernel/riscv.cpp ****         old->status = TCB::Status::FINISHED;
 201:src/kernel/riscv.cpp ****         ConsoleUtil::printString("Exiting thread...\n");
 202:src/kernel/riscv.cpp ****         TCB::dispatch();
 203:src/kernel/riscv.cpp ****     }
 204:src/kernel/riscv.cpp **** 
 205:src/kernel/riscv.cpp ****     RiscV::jumpToDesignatedPrivilegeMode();
 206:src/kernel/riscv.cpp **** }
 207:src/kernel/riscv.cpp **** 
 208:src/kernel/riscv.cpp **** void RiscV::executeMemAllocSyscall(){
 209:src/kernel/riscv.cpp **** 
 210:src/kernel/riscv.cpp ****     //fetch the arguments from a0-a7 registers
 211:src/kernel/riscv.cpp ****     uint64 size;
 212:src/kernel/riscv.cpp ****     asm("mv %[size], a1" : [size] "=r" (size));
 213:src/kernel/riscv.cpp **** 
 214:src/kernel/riscv.cpp ****     //call internal allocator and return the address in a0
 215:src/kernel/riscv.cpp ****     uint64 addr =(uint64)MemoryAllocator::kmalloc(size);
 216:src/kernel/riscv.cpp **** 
 217:src/kernel/riscv.cpp ****     asm("mv a0, %[addr]" : : [addr] "r" (addr));
 218:src/kernel/riscv.cpp **** 
 219:src/kernel/riscv.cpp ****     RiscV::saveA0toSscratch();
 220:src/kernel/riscv.cpp **** }
 221:src/kernel/riscv.cpp **** 
 222:src/kernel/riscv.cpp **** void RiscV::executeMemFreeSyscall() {
 223:src/kernel/riscv.cpp **** 
 224:src/kernel/riscv.cpp ****     //fetch the arguments from a0-a7 registers
 225:src/kernel/riscv.cpp ****     uint64 iaddr, status;
 226:src/kernel/riscv.cpp **** 
 227:src/kernel/riscv.cpp **** 
 228:src/kernel/riscv.cpp ****     if(MemoryAllocator::initialized) {
 229:src/kernel/riscv.cpp ****         //call internal allocator and free memory which iaddr points to
 230:src/kernel/riscv.cpp ****         asm("mv %[iaddr], a1" : [iaddr] "=r"(iaddr));
 231:src/kernel/riscv.cpp ****         status = MemoryAllocator::kfree((void *) iaddr);;
 232:src/kernel/riscv.cpp ****     }
 233:src/kernel/riscv.cpp ****     else
 234:src/kernel/riscv.cpp ****         status = -1;
 235:src/kernel/riscv.cpp **** 
 236:src/kernel/riscv.cpp ****     //return status
 237:src/kernel/riscv.cpp ****     asm("mv a0, %[status]" : : [status] "r" (status));
 238:src/kernel/riscv.cpp **** 
 239:src/kernel/riscv.cpp ****     RiscV::saveA0toSscratch();
 240:src/kernel/riscv.cpp **** }
 241:src/kernel/riscv.cpp **** 
 242:src/kernel/riscv.cpp **** void RiscV::executeThreadCreateSyscall(){
 243:src/kernel/riscv.cpp **** 
 244:src/kernel/riscv.cpp ****     //fetch the arguments from a0-a7 registers
 245:src/kernel/riscv.cpp ****     uint64 iroutine, iargs, ihandle, istack;
 246:src/kernel/riscv.cpp **** 
 247:src/kernel/riscv.cpp ****     asm("mv %[istack], a7" : [istack] "=r"(istack));
 248:src/kernel/riscv.cpp ****     asm("mv %[ihandle], a1" : [ihandle] "=r"(ihandle));
GAS LISTING /tmp/ccyPB5Cy.s 			page 7


 249:src/kernel/riscv.cpp ****     asm("mv %[iroutine], a2" : [iroutine] "=r"(iroutine));
 250:src/kernel/riscv.cpp ****     asm("mv %[iargs], a3" : [iargs] "=r"(iargs));
 251:src/kernel/riscv.cpp **** 
 252:src/kernel/riscv.cpp ****     //call constructor for Thread Control Block and if not null, write thread address into ihandle
 253:src/kernel/riscv.cpp ****     TCB *tcb = new TCB((TCB::Body)iroutine, (void*)iargs, (uint64*)istack, DEFAULT_TIME_SLICE);
 254:src/kernel/riscv.cpp **** 
 255:src/kernel/riscv.cpp ****     uint64 status = 0;
 256:src/kernel/riscv.cpp **** 
 257:src/kernel/riscv.cpp ****     if(tcb == nullptr){
 258:src/kernel/riscv.cpp ****         status = -1;
 259:src/kernel/riscv.cpp ****     }
 260:src/kernel/riscv.cpp ****     else{
 261:src/kernel/riscv.cpp ****         if(tcb->body)
 262:src/kernel/riscv.cpp ****             Scheduler::put(tcb);
 263:src/kernel/riscv.cpp ****         *((TCB**)ihandle) = tcb;
 264:src/kernel/riscv.cpp ****     }
 265:src/kernel/riscv.cpp **** 
 266:src/kernel/riscv.cpp ****     //return status
 267:src/kernel/riscv.cpp ****     asm("mv a0, %[status]" : : [status] "r" (status));
 268:src/kernel/riscv.cpp **** 
 269:src/kernel/riscv.cpp ****     RiscV::saveA0toSscratch();
 270:src/kernel/riscv.cpp **** }
 271:src/kernel/riscv.cpp **** 
 272:src/kernel/riscv.cpp **** void RiscV::executeThreadAttachBodySyscall(){
 273:src/kernel/riscv.cpp **** 
 274:src/kernel/riscv.cpp ****     //fetch the arguments from a0-a7 registers
 275:src/kernel/riscv.cpp ****     uint64 iroutine, iargs, ihandle, istack;
 276:src/kernel/riscv.cpp **** 
 277:src/kernel/riscv.cpp **** 
 278:src/kernel/riscv.cpp ****     asm("mv %[istack], a7" : [istack] "=r"(istack));
 279:src/kernel/riscv.cpp ****     asm("mv %[ihandle], a1" : [ihandle] "=r"(ihandle));
 280:src/kernel/riscv.cpp ****     asm("mv %[iroutine], a2" : [iroutine] "=r"(iroutine));
 281:src/kernel/riscv.cpp ****     asm("mv %[iargs], a3" : [iargs] "=r"(iargs));
 282:src/kernel/riscv.cpp **** 
 283:src/kernel/riscv.cpp ****     TCB *tcb = new TCB((TCB::Body)iroutine, (void*)iargs, (uint64*)istack, DEFAULT_TIME_SLICE);
 284:src/kernel/riscv.cpp **** 
 285:src/kernel/riscv.cpp ****     uint64 status = 0;
 286:src/kernel/riscv.cpp **** 
 287:src/kernel/riscv.cpp ****     if(tcb == nullptr){
 288:src/kernel/riscv.cpp ****         status = -1;
 289:src/kernel/riscv.cpp ****     }
 290:src/kernel/riscv.cpp ****     else{
 291:src/kernel/riscv.cpp ****         tcb->body = (TCB::Body)iroutine;
 292:src/kernel/riscv.cpp ****         tcb->args = (void*)iargs;
 293:src/kernel/riscv.cpp ****         *((TCB**)ihandle) = tcb;
 294:src/kernel/riscv.cpp ****     }
 295:src/kernel/riscv.cpp **** 
 296:src/kernel/riscv.cpp ****     asm("mv a0, %[status]" : : [status] "r" (status));
 297:src/kernel/riscv.cpp **** 
 298:src/kernel/riscv.cpp ****     RiscV::saveA0toSscratch();
 299:src/kernel/riscv.cpp **** }
 300:src/kernel/riscv.cpp **** 
 301:src/kernel/riscv.cpp **** void RiscV::executeThreadStartSyscall(){
 302:src/kernel/riscv.cpp **** 
 303:src/kernel/riscv.cpp ****     //fetch the arguments from a0-a7 registers
 304:src/kernel/riscv.cpp ****     uint64 ihandle;
 305:src/kernel/riscv.cpp **** 
GAS LISTING /tmp/ccyPB5Cy.s 			page 8


 306:src/kernel/riscv.cpp ****     asm("mv %[ihandle], a1" : [ihandle] "=r"(ihandle));
 307:src/kernel/riscv.cpp **** 
 308:src/kernel/riscv.cpp ****     //get the handle and put tcb in scheduler if not null
 309:src/kernel/riscv.cpp ****     TCB* tcb =(TCB*)ihandle;
 310:src/kernel/riscv.cpp **** 
 311:src/kernel/riscv.cpp ****     uint64 status = 0;
 312:src/kernel/riscv.cpp **** 
 313:src/kernel/riscv.cpp ****     if(tcb == nullptr){
 314:src/kernel/riscv.cpp ****         status = -1;
 315:src/kernel/riscv.cpp ****     }
 316:src/kernel/riscv.cpp ****     else{
 317:src/kernel/riscv.cpp ****         tcb->status = TCB::Status::READY;
 318:src/kernel/riscv.cpp ****         Scheduler::put(tcb);
 319:src/kernel/riscv.cpp ****         TCB::dispatch();
 320:src/kernel/riscv.cpp ****     }
 321:src/kernel/riscv.cpp **** 
 322:src/kernel/riscv.cpp ****     //return status
 323:src/kernel/riscv.cpp ****     asm("mv a0, %[status]" : : [status] "r" (status));
 324:src/kernel/riscv.cpp **** 
 325:src/kernel/riscv.cpp ****     RiscV::saveA0toSscratch();
 326:src/kernel/riscv.cpp **** }
 327:src/kernel/riscv.cpp **** 
 328:src/kernel/riscv.cpp **** void RiscV::executeThreadExitSyscall() {
 329:src/kernel/riscv.cpp **** 
 330:src/kernel/riscv.cpp ****     //fetch the arguments from a0-a7 registers
 331:src/kernel/riscv.cpp ****     uint64 status = 0;
 332:src/kernel/riscv.cpp **** 
 333:src/kernel/riscv.cpp ****     //if thread not null, set status to finished and dispatch
 334:src/kernel/riscv.cpp ****     if(TCB::running == nullptr){
 335:src/kernel/riscv.cpp ****         status = -1;
 336:src/kernel/riscv.cpp ****     }
 337:src/kernel/riscv.cpp ****     else{
 338:src/kernel/riscv.cpp ****         TCB* old = TCB::running;
 339:src/kernel/riscv.cpp ****         old->status = TCB::Status::FINISHED;
 340:src/kernel/riscv.cpp ****         TCB::dispatch();
 341:src/kernel/riscv.cpp ****     }
 342:src/kernel/riscv.cpp **** 
 343:src/kernel/riscv.cpp ****     asm("mv a0, %[status]" : : [status] "r" (status));
 344:src/kernel/riscv.cpp **** 
 345:src/kernel/riscv.cpp ****     RiscV::saveA0toSscratch();
 346:src/kernel/riscv.cpp **** }
 347:src/kernel/riscv.cpp **** 
 348:src/kernel/riscv.cpp **** void RiscV::executeThreadDispatchSyscall(){
  94              		.loc 1 348 43 is_stmt 1
  95              		.cfi_startproc
  96 0058 130101FF 		addi	sp,sp,-16
  97              		.cfi_def_cfa_offset 16
  98 005c 23341100 		sd	ra,8(sp)
  99 0060 23308100 		sd	s0,0(sp)
 100              		.cfi_offset 1, -8
 101              		.cfi_offset 8, -16
 102 0064 13040101 		addi	s0,sp,16
 103              		.cfi_def_cfa 8, 0
 349:src/kernel/riscv.cpp **** 
 350:src/kernel/riscv.cpp ****     //dispatch current running thread
 351:src/kernel/riscv.cpp ****     TCB* old = TCB::running;
 104              		.loc 1 351 5
GAS LISTING /tmp/ccyPB5Cy.s 			page 9


 105              		.loc 1 351 10 is_stmt 0
 106 0068 97070000 		la	a5,_ZN3TCB7runningE
 106      83B70700 
 107 0070 83B70700 		ld	a5,0(a5)
 108              	.LVL4:
 352:src/kernel/riscv.cpp ****     old->status = TCB::Status::READY;
 109              		.loc 1 352 5 is_stmt 1
 110              		.loc 1 352 17 is_stmt 0
 111 0074 13071000 		li	a4,1
 112 0078 23A8E700 		sw	a4,16(a5)
 353:src/kernel/riscv.cpp ****     TCB::dispatch();
 113              		.loc 1 353 5 is_stmt 1
 114              		.loc 1 353 18 is_stmt 0
 115 007c 97000000 		call	_ZN3TCB8dispatchEv@plt
 115      E7800000 
 116              	.LVL5:
 354:src/kernel/riscv.cpp **** }
 117              		.loc 1 354 1
 118 0084 83308100 		ld	ra,8(sp)
 119              		.cfi_restore 1
 120 0088 03340100 		ld	s0,0(sp)
 121              		.cfi_restore 8
 122              		.cfi_def_cfa 2, 16
 123 008c 13010101 		addi	sp,sp,16
 124              		.cfi_def_cfa_offset 0
 125 0090 67800000 		jr	ra
 126              		.cfi_endproc
 127              	.LFE53:
 129              		.align	2
 130              		.globl	_ZN5RiscV18executePutcSyscallEv
 132              	_ZN5RiscV18executePutcSyscallEv:
 133              	.LFB60:
 355:src/kernel/riscv.cpp **** 
 356:src/kernel/riscv.cpp **** void RiscV::executeSemOpenSyscall() {
 357:src/kernel/riscv.cpp **** 
 358:src/kernel/riscv.cpp ****     //fetch the arguments from a0-a7 registers
 359:src/kernel/riscv.cpp ****     uint64 ihandle, iinit;
 360:src/kernel/riscv.cpp **** 
 361:src/kernel/riscv.cpp ****     asm("mv %[ihandle], a1" : [ihandle] "=r"(ihandle));
 362:src/kernel/riscv.cpp ****     asm("mv %[iinit], a2" : [iinit] "=r"(iinit));
 363:src/kernel/riscv.cpp **** 
 364:src/kernel/riscv.cpp ****     //create new Semaphore Control Block and write it into ihandle if not null
 365:src/kernel/riscv.cpp ****     SCB *scb = new SCB(iinit);
 366:src/kernel/riscv.cpp **** 
 367:src/kernel/riscv.cpp ****     uint64 status = 0;
 368:src/kernel/riscv.cpp **** 
 369:src/kernel/riscv.cpp ****     if(scb == nullptr){
 370:src/kernel/riscv.cpp ****         status = -1;
 371:src/kernel/riscv.cpp ****     }
 372:src/kernel/riscv.cpp ****     else{
 373:src/kernel/riscv.cpp ****         *((SCB**)ihandle) = scb;
 374:src/kernel/riscv.cpp ****     }
 375:src/kernel/riscv.cpp **** 
 376:src/kernel/riscv.cpp ****     //return status
 377:src/kernel/riscv.cpp ****     asm("mv a0, %[status]" : : [status] "r" (status));
 378:src/kernel/riscv.cpp **** 
 379:src/kernel/riscv.cpp ****     RiscV::saveA0toSscratch();
GAS LISTING /tmp/ccyPB5Cy.s 			page 10


 380:src/kernel/riscv.cpp **** 
 381:src/kernel/riscv.cpp **** }
 382:src/kernel/riscv.cpp **** 
 383:src/kernel/riscv.cpp **** void RiscV::executeSemCloseSyscall() {
 384:src/kernel/riscv.cpp **** 
 385:src/kernel/riscv.cpp ****     //fetch the arguments from a0-a7 registers
 386:src/kernel/riscv.cpp ****     uint64 ihandle;
 387:src/kernel/riscv.cpp **** 
 388:src/kernel/riscv.cpp ****     asm("mv %[ihandle], a1" : [ihandle] "=r"(ihandle));
 389:src/kernel/riscv.cpp **** 
 390:src/kernel/riscv.cpp ****     //delete scb if not null
 391:src/kernel/riscv.cpp ****     SCB *scb = (SCB*)ihandle;
 392:src/kernel/riscv.cpp ****     uint64 status = 0;
 393:src/kernel/riscv.cpp **** 
 394:src/kernel/riscv.cpp ****     if(scb == nullptr){
 395:src/kernel/riscv.cpp ****         status = -1;
 396:src/kernel/riscv.cpp ****     }
 397:src/kernel/riscv.cpp ****     else
 398:src/kernel/riscv.cpp ****         delete (SCB*)ihandle;
 399:src/kernel/riscv.cpp **** 
 400:src/kernel/riscv.cpp ****     //return status
 401:src/kernel/riscv.cpp ****     asm("mv a0, %[status]" : : [status] "r" (status));
 402:src/kernel/riscv.cpp **** 
 403:src/kernel/riscv.cpp ****     RiscV::saveA0toSscratch();
 404:src/kernel/riscv.cpp **** }
 405:src/kernel/riscv.cpp **** 
 406:src/kernel/riscv.cpp **** void RiscV::executeSemWaitSyscall() {
 407:src/kernel/riscv.cpp **** 
 408:src/kernel/riscv.cpp ****     //fetch the arguments from a0-a7 registers
 409:src/kernel/riscv.cpp ****     uint64 ihandle;
 410:src/kernel/riscv.cpp **** 
 411:src/kernel/riscv.cpp ****     asm("mv %[ihandle], a1" : [ihandle] "=r"(ihandle));
 412:src/kernel/riscv.cpp **** 
 413:src/kernel/riscv.cpp ****     uint64 status = 0;
 414:src/kernel/riscv.cpp ****     //call wait method on ihandle scb
 415:src/kernel/riscv.cpp **** 
 416:src/kernel/riscv.cpp ****     if(((SCB*)ihandle) != nullptr)
 417:src/kernel/riscv.cpp ****         ((SCB*)ihandle)->wait();
 418:src/kernel/riscv.cpp ****     else
 419:src/kernel/riscv.cpp ****         status = -1;
 420:src/kernel/riscv.cpp **** 
 421:src/kernel/riscv.cpp ****     if(TCB::running->semError != nullptr)
 422:src/kernel/riscv.cpp ****         status = -1;
 423:src/kernel/riscv.cpp ****     else
 424:src/kernel/riscv.cpp ****         status = 0;
 425:src/kernel/riscv.cpp **** 
 426:src/kernel/riscv.cpp ****     //return status
 427:src/kernel/riscv.cpp ****     asm("mv a0, %[status]" : : [status] "r" (status));
 428:src/kernel/riscv.cpp **** 
 429:src/kernel/riscv.cpp ****     RiscV::saveA0toSscratch();
 430:src/kernel/riscv.cpp **** 
 431:src/kernel/riscv.cpp **** }
 432:src/kernel/riscv.cpp **** 
 433:src/kernel/riscv.cpp **** void RiscV::executeSemSignalSyscall() {
 434:src/kernel/riscv.cpp **** 
 435:src/kernel/riscv.cpp ****     //fetch the arguments from a0-a7 registers
 436:src/kernel/riscv.cpp ****     uint64 ihandle;
GAS LISTING /tmp/ccyPB5Cy.s 			page 11


 437:src/kernel/riscv.cpp **** 
 438:src/kernel/riscv.cpp ****     asm("mv %[ihandle], a1" : [ihandle] "=r"(ihandle));
 439:src/kernel/riscv.cpp **** 
 440:src/kernel/riscv.cpp ****     //call signal method on ihandle scb
 441:src/kernel/riscv.cpp **** 
 442:src/kernel/riscv.cpp ****     uint64 status = 0;
 443:src/kernel/riscv.cpp **** 
 444:src/kernel/riscv.cpp ****     if(((SCB*)ihandle) != nullptr)
 445:src/kernel/riscv.cpp ****         ((SCB*)ihandle)->signal();
 446:src/kernel/riscv.cpp ****     else
 447:src/kernel/riscv.cpp ****         status = -1;
 448:src/kernel/riscv.cpp **** 
 449:src/kernel/riscv.cpp ****     //return status
 450:src/kernel/riscv.cpp ****     asm("mv a0, %[status]" : : [status] "r" (status));
 451:src/kernel/riscv.cpp **** 
 452:src/kernel/riscv.cpp ****     RiscV::saveA0toSscratch();
 453:src/kernel/riscv.cpp **** }
 454:src/kernel/riscv.cpp **** 
 455:src/kernel/riscv.cpp **** void RiscV::executeTimeSleepSyscall() {
 456:src/kernel/riscv.cpp **** 
 457:src/kernel/riscv.cpp ****     //fetch the arguments from a0-a7 registers
 458:src/kernel/riscv.cpp ****     uint64 itime;
 459:src/kernel/riscv.cpp **** 
 460:src/kernel/riscv.cpp ****     asm("mv %[itime], a1" : [itime] "=r"(itime));
 461:src/kernel/riscv.cpp **** 
 462:src/kernel/riscv.cpp ****     //calculate wake time for running thread and put it to sleep
 463:src/kernel/riscv.cpp ****     //fetch new running with dispatch
 464:src/kernel/riscv.cpp ****     TCB* tcb = TCB::running;
 465:src/kernel/riscv.cpp ****     tcb->sleepTime = globalTime;
 466:src/kernel/riscv.cpp ****     tcb->wakeTime = globalTime + itime;
 467:src/kernel/riscv.cpp **** 
 468:src/kernel/riscv.cpp ****     Scheduler::sleep(tcb);
 469:src/kernel/riscv.cpp **** 
 470:src/kernel/riscv.cpp ****     tcb->status = TCB::Status::BLOCKED;
 471:src/kernel/riscv.cpp **** 
 472:src/kernel/riscv.cpp ****     TCB::dispatch();
 473:src/kernel/riscv.cpp **** 
 474:src/kernel/riscv.cpp ****     uint64 status = 0;
 475:src/kernel/riscv.cpp **** 
 476:src/kernel/riscv.cpp ****     //return status
 477:src/kernel/riscv.cpp ****     asm("mv a0, %[status]" : : [status] "r" (status));
 478:src/kernel/riscv.cpp **** 
 479:src/kernel/riscv.cpp ****     RiscV::saveA0toSscratch();
 480:src/kernel/riscv.cpp **** }
 481:src/kernel/riscv.cpp **** 
 482:src/kernel/riscv.cpp **** void RiscV::executeGetcSyscall() {
 483:src/kernel/riscv.cpp **** 
 484:src/kernel/riscv.cpp ****     //register a pending getc call
 485:src/kernel/riscv.cpp ****     if(!userMainFinished)
 486:src/kernel/riscv.cpp ****         ConsoleUtil::pendingGetc++;
 487:src/kernel/riscv.cpp **** 
 488:src/kernel/riscv.cpp ****     //get character from input buffer
 489:src/kernel/riscv.cpp ****     char c = ConsoleUtil::getInput();
 490:src/kernel/riscv.cpp **** 
 491:src/kernel/riscv.cpp ****     //if char == \n echo it as LF and CR
 492:src/kernel/riscv.cpp ****     if(c==13) {
 493:src/kernel/riscv.cpp ****         ConsoleUtil::putOutput(13);
GAS LISTING /tmp/ccyPB5Cy.s 			page 12


 494:src/kernel/riscv.cpp ****         ConsoleUtil::putOutput(10);
 495:src/kernel/riscv.cpp ****     }
 496:src/kernel/riscv.cpp ****     //if not ESC character, echo it to console
 497:src/kernel/riscv.cpp ****     else if(c!=0x01b)
 498:src/kernel/riscv.cpp ****         ConsoleUtil::putOutput(c);
 499:src/kernel/riscv.cpp **** 
 500:src/kernel/riscv.cpp ****     //return character
 501:src/kernel/riscv.cpp ****     asm("mv a0, %[c]" : : [c] "r" (c));
 502:src/kernel/riscv.cpp **** 
 503:src/kernel/riscv.cpp ****     RiscV::saveA0toSscratch();
 504:src/kernel/riscv.cpp **** }
 505:src/kernel/riscv.cpp **** 
 506:src/kernel/riscv.cpp **** void RiscV::executePutcSyscall() {
 134              		.loc 1 506 34 is_stmt 1
 135              		.cfi_startproc
 136 0094 130101FF 		addi	sp,sp,-16
 137              		.cfi_def_cfa_offset 16
 138 0098 23341100 		sd	ra,8(sp)
 139 009c 23308100 		sd	s0,0(sp)
 140              		.cfi_offset 1, -8
 141              		.cfi_offset 8, -16
 142 00a0 13040101 		addi	s0,sp,16
 143              		.cfi_def_cfa 8, 0
 507:src/kernel/riscv.cpp **** 
 508:src/kernel/riscv.cpp ****     //register a pending putc call
 509:src/kernel/riscv.cpp ****     if(!userMainFinished)
 144              		.loc 1 509 5
 145              		.loc 1 509 8 is_stmt 0
 146 00a4 97070000 		lbu	a5,.LANCHOR0
 146      83C70700 
 147              		.loc 1 509 5
 148 00ac 639C0700 		bnez	a5,.L9
 510:src/kernel/riscv.cpp ****         ConsoleUtil::pendingPutc++;
 149              		.loc 1 510 9 is_stmt 1
 150              		.loc 1 510 33 is_stmt 0
 151 00b0 17070000 		la	a4,_ZN11ConsoleUtil11pendingPutcE
 151      03370700 
 152 00b8 83370700 		ld	a5,0(a4)
 153 00bc 93871700 		addi	a5,a5,1
 154 00c0 2330F700 		sd	a5,0(a4)
 155              	.L9:
 511:src/kernel/riscv.cpp **** 
 512:src/kernel/riscv.cpp ****     char c;
 156              		.loc 1 512 5 is_stmt 1
 513:src/kernel/riscv.cpp **** 
 514:src/kernel/riscv.cpp ****     asm("mv %[c], a1" : [c] "=r"(c));
 157              		.loc 1 514 5
 158              		.loc 1 514 37 is_stmt 0
 159              	#APP
 160              	# 514 "src/kernel/riscv.cpp" 1
 515              	
 161              		mv a0, a1
 162              	# 0 "" 2
 163              	.LVL6:
 516:src/kernel/riscv.cpp ****     //put character in output buffer
 517:src/kernel/riscv.cpp ****     ConsoleUtil::putOutput(c);
 164              		.loc 1 517 5 is_stmt 1
GAS LISTING /tmp/ccyPB5Cy.s 			page 13


 165              		.loc 1 517 27 is_stmt 0
 166              	#NO_APP
 167 00c8 1375F50F 		andi	a0,a0,0xff
 168 00cc 97000000 		call	_ZN11ConsoleUtil9putOutputEc@plt
 168      E7800000 
 169              	.LVL7:
 518:src/kernel/riscv.cpp **** }
 170              		.loc 1 518 1
 171 00d4 83308100 		ld	ra,8(sp)
 172              		.cfi_restore 1
 173 00d8 03340100 		ld	s0,0(sp)
 174              		.cfi_restore 8
 175              		.cfi_def_cfa 2, 16
 176 00dc 13010101 		addi	sp,sp,16
 177              		.cfi_def_cfa_offset 0
 178 00e0 67800000 		jr	ra
 179              		.cfi_endproc
 180              	.LFE60:
 182              		.align	2
 183              		.globl	_ZN5RiscV29jumpToDesignatedPrivilegeModeEv
 185              	_ZN5RiscV29jumpToDesignatedPrivilegeModeEv:
 186              	.LFB63:
 519:src/kernel/riscv.cpp **** 
 520:src/kernel/riscv.cpp **** //wrapper function for putcThread
 521:src/kernel/riscv.cpp **** //spins in a while loop and checks whether console is ready to take output
 522:src/kernel/riscv.cpp **** //if ready read data from output buffer
 523:src/kernel/riscv.cpp **** void RiscV::putcWrapper(void* arg)
 524:src/kernel/riscv.cpp **** {
 525:src/kernel/riscv.cpp ****     while(true)
 526:src/kernel/riscv.cpp ****     {
 527:src/kernel/riscv.cpp ****         //read console status from status register
 528:src/kernel/riscv.cpp ****         uint64 status = CONSOLE_STATUS;
 529:src/kernel/riscv.cpp ****         asm("mv a0, %[status]" : : [status] "r" (status));
 530:src/kernel/riscv.cpp ****         asm("lb a1, 0(a0)");
 531:src/kernel/riscv.cpp ****         asm("mv %[status], a1" : [status] "=r" (status));
 532:src/kernel/riscv.cpp **** 
 533:src/kernel/riscv.cpp ****         //if console ready..
 534:src/kernel/riscv.cpp ****         if(status & 1UL<<5){
 535:src/kernel/riscv.cpp **** 
 536:src/kernel/riscv.cpp ****             //get character from output buffer with possible block if nothing in buffer
 537:src/kernel/riscv.cpp ****                 char volatile c = ConsoleUtil::putcUtilSyscall();
 538:src/kernel/riscv.cpp ****                 uint64 data = CONSOLE_RX_DATA;
 539:src/kernel/riscv.cpp ****                 asm("mv a0, %[data]" : : [data] "r"(data));
 540:src/kernel/riscv.cpp ****                 asm("mv a1, %[c]" : : [c] "r"(c));
 541:src/kernel/riscv.cpp ****                 asm("sb a1,0(a0)");
 542:src/kernel/riscv.cpp **** 
 543:src/kernel/riscv.cpp ****             //decrement number of pending putc requests
 544:src/kernel/riscv.cpp ****             if(ConsoleUtil::pendingPutc>0)
 545:src/kernel/riscv.cpp ****                 ConsoleUtil::pendingPutc--;
 546:src/kernel/riscv.cpp ****         }
 547:src/kernel/riscv.cpp ****         else
 548:src/kernel/riscv.cpp ****             RiscV::threadDispatchUtil();
 549:src/kernel/riscv.cpp ****     }
 550:src/kernel/riscv.cpp **** }
 551:src/kernel/riscv.cpp **** 
 552:src/kernel/riscv.cpp **** //utility syscall to get character from output buffer
 553:src/kernel/riscv.cpp **** //syscall is needed because we don't want to fiddle with kernel structures from anywhere but the tr
GAS LISTING /tmp/ccyPB5Cy.s 			page 14


 554:src/kernel/riscv.cpp **** void RiscV::executePutcUtilSyscall() {
 555:src/kernel/riscv.cpp ****     char c = ConsoleUtil::getOutput();
 556:src/kernel/riscv.cpp ****     asm("mv a0, %[c]" : : [c] "r" ((uint64)(c)) );
 557:src/kernel/riscv.cpp **** 
 558:src/kernel/riscv.cpp ****     RiscV::saveA0toSscratch();
 559:src/kernel/riscv.cpp **** }
 560:src/kernel/riscv.cpp **** 
 561:src/kernel/riscv.cpp **** //return to privilege that was given at creation
 562:src/kernel/riscv.cpp **** void RiscV::jumpToDesignatedPrivilegeMode() {
 187              		.loc 1 562 45 is_stmt 1
 188              		.cfi_startproc
 189 00e4 130101FF 		addi	sp,sp,-16
 190              		.cfi_def_cfa_offset 16
 191 00e8 23348100 		sd	s0,8(sp)
 192              		.cfi_offset 8, -8
 193 00ec 13040101 		addi	s0,sp,16
 194              		.cfi_def_cfa 8, 0
 563:src/kernel/riscv.cpp ****     if(TCB::running->mode == TCB::Mode::SUPERVISOR) {
 195              		.loc 1 563 5
 196              		.loc 1 563 22 is_stmt 0
 197 00f0 97070000 		la	a5,_ZN3TCB7runningE
 197      83B70700 
 198 00f8 83B70700 		ld	a5,0(a5)
 199 00fc 03A74701 		lw	a4,20(a5)
 200              		.loc 1 563 5
 201 0100 93071000 		li	a5,1
 202 0104 630CF700 		beq	a4,a5,.L15
 564:src/kernel/riscv.cpp ****         RiscV::ms_sstatus(RiscV::SSTATUS_SPP);
 565:src/kernel/riscv.cpp **** //        RiscV::startVirtualMemory(RiscV::kPMT);
 566:src/kernel/riscv.cpp ****     }
 567:src/kernel/riscv.cpp ****     else {
 568:src/kernel/riscv.cpp ****         RiscV::mc_sstatus(RiscV::SSTATUS_SPP);
 203              		.loc 1 568 9 is_stmt 1
 204              	.LVL8:
 205              	.LBB95:
 206              	.LBB96:
 207              		.file 2 "src/kernel/../../h/kernel/riscv.hpp"
   1:src/kernel/../../h/kernel/riscv.hpp **** //
   2:src/kernel/../../h/kernel/riscv.hpp **** // Created by os on 4/28/22.
   3:src/kernel/../../h/kernel/riscv.hpp **** //
   4:src/kernel/../../h/kernel/riscv.hpp **** 
   5:src/kernel/../../h/kernel/riscv.hpp **** #ifndef OS1_KERNEL_RISCV_HPP
   6:src/kernel/../../h/kernel/riscv.hpp **** #define OS1_KERNEL_RISCV_HPP
   7:src/kernel/../../h/kernel/riscv.hpp **** #include "../../lib/hw.h"
   8:src/kernel/../../h/kernel/riscv.hpp **** class TCB;
   9:src/kernel/../../h/kernel/riscv.hpp **** class SlabAllocator;
  10:src/kernel/../../h/kernel/riscv.hpp **** 
  11:src/kernel/../../h/kernel/riscv.hpp **** class RiscV{
  12:src/kernel/../../h/kernel/riscv.hpp **** 
  13:src/kernel/../../h/kernel/riscv.hpp ****     static uint64 globalTime;
  14:src/kernel/../../h/kernel/riscv.hpp **** 
  15:src/kernel/../../h/kernel/riscv.hpp ****     static void* kPMT;
  16:src/kernel/../../h/kernel/riscv.hpp ****     static void* uPMT;
  17:src/kernel/../../h/kernel/riscv.hpp **** 
  18:src/kernel/../../h/kernel/riscv.hpp ****     static bool initialized;
  19:src/kernel/../../h/kernel/riscv.hpp **** 
  20:src/kernel/../../h/kernel/riscv.hpp ****     static bool userMainFinished;
GAS LISTING /tmp/ccyPB5Cy.s 			page 15


  21:src/kernel/../../h/kernel/riscv.hpp **** 
  22:src/kernel/../../h/kernel/riscv.hpp ****     enum BitMaskSstatus{
  23:src/kernel/../../h/kernel/riscv.hpp ****         SSTATUS_SIE = (1<<1),
  24:src/kernel/../../h/kernel/riscv.hpp ****         SSTATUS_SPIE = (1<<5),
  25:src/kernel/../../h/kernel/riscv.hpp ****         SSTATUS_SPP = (1<<8),
  26:src/kernel/../../h/kernel/riscv.hpp ****     };
  27:src/kernel/../../h/kernel/riscv.hpp **** 
  28:src/kernel/../../h/kernel/riscv.hpp ****     enum BitMaskSip{
  29:src/kernel/../../h/kernel/riscv.hpp ****         SIP_SSIE = (1<<1),
  30:src/kernel/../../h/kernel/riscv.hpp ****         SIP_STIE = (1<<5),
  31:src/kernel/../../h/kernel/riscv.hpp ****         SIP_SEIE = (1<<9),
  32:src/kernel/../../h/kernel/riscv.hpp ****     };
  33:src/kernel/../../h/kernel/riscv.hpp **** 
  34:src/kernel/../../h/kernel/riscv.hpp ****     static void executeMemAllocSyscall();   //wrapper function for moving parameters and calling Me
  35:src/kernel/../../h/kernel/riscv.hpp **** 
  36:src/kernel/../../h/kernel/riscv.hpp ****     static void executeMemFreeSyscall();    //wrapper function for moving parameters and calling Me
  37:src/kernel/../../h/kernel/riscv.hpp **** 
  38:src/kernel/../../h/kernel/riscv.hpp ****     static void executeThreadCreateSyscall();
  39:src/kernel/../../h/kernel/riscv.hpp **** 
  40:src/kernel/../../h/kernel/riscv.hpp ****     static void executeThreadExitSyscall();
  41:src/kernel/../../h/kernel/riscv.hpp **** 
  42:src/kernel/../../h/kernel/riscv.hpp ****     static void executeThreadDispatchSyscall();
  43:src/kernel/../../h/kernel/riscv.hpp **** 
  44:src/kernel/../../h/kernel/riscv.hpp ****     static void executeThreadAttachBodySyscall();
  45:src/kernel/../../h/kernel/riscv.hpp **** 
  46:src/kernel/../../h/kernel/riscv.hpp ****     static void executeThreadStartSyscall();
  47:src/kernel/../../h/kernel/riscv.hpp **** 
  48:src/kernel/../../h/kernel/riscv.hpp ****     static void executeSemOpenSyscall();
  49:src/kernel/../../h/kernel/riscv.hpp **** 
  50:src/kernel/../../h/kernel/riscv.hpp ****     static void executeSemCloseSyscall();
  51:src/kernel/../../h/kernel/riscv.hpp **** 
  52:src/kernel/../../h/kernel/riscv.hpp ****     static void executeSemWaitSyscall();
  53:src/kernel/../../h/kernel/riscv.hpp **** 
  54:src/kernel/../../h/kernel/riscv.hpp ****     static void executeSemSignalSyscall();
  55:src/kernel/../../h/kernel/riscv.hpp **** 
  56:src/kernel/../../h/kernel/riscv.hpp ****     static void executeTimeSleepSyscall();
  57:src/kernel/../../h/kernel/riscv.hpp **** 
  58:src/kernel/../../h/kernel/riscv.hpp ****     static void executeGetcSyscall();
  59:src/kernel/../../h/kernel/riscv.hpp **** 
  60:src/kernel/../../h/kernel/riscv.hpp ****     static void executePutcSyscall();
  61:src/kernel/../../h/kernel/riscv.hpp **** 
  62:src/kernel/../../h/kernel/riscv.hpp ****     static void executePutcUtilSyscall();
  63:src/kernel/../../h/kernel/riscv.hpp **** 
  64:src/kernel/../../h/kernel/riscv.hpp ****     static void executeThreadFreeSyscall();
  65:src/kernel/../../h/kernel/riscv.hpp **** 
  66:src/kernel/../../h/kernel/riscv.hpp ****     static void executeSemaphoreFreeSyscall();
  67:src/kernel/../../h/kernel/riscv.hpp **** 
  68:src/kernel/../../h/kernel/riscv.hpp ****     static void executeForkSyscall();
  69:src/kernel/../../h/kernel/riscv.hpp **** 
  70:src/kernel/../../h/kernel/riscv.hpp ****     static void putcWrapper(void *arg);
  71:src/kernel/../../h/kernel/riscv.hpp **** 
  72:src/kernel/../../h/kernel/riscv.hpp ****     static void threadCreateUtil(TCB** handle, void(*start_routine)(void*), void *arg);
  73:src/kernel/../../h/kernel/riscv.hpp **** 
  74:src/kernel/../../h/kernel/riscv.hpp ****     static void threadExitUtil();
  75:src/kernel/../../h/kernel/riscv.hpp **** 
  76:src/kernel/../../h/kernel/riscv.hpp ****     static void threadDispatchUtil();
  77:src/kernel/../../h/kernel/riscv.hpp **** 
GAS LISTING /tmp/ccyPB5Cy.s 			page 16


  78:src/kernel/../../h/kernel/riscv.hpp ****     static uint64 r_scause();
  79:src/kernel/../../h/kernel/riscv.hpp **** 
  80:src/kernel/../../h/kernel/riscv.hpp ****     static void w_scause(uint64 scause);
  81:src/kernel/../../h/kernel/riscv.hpp **** 
  82:src/kernel/../../h/kernel/riscv.hpp ****     static uint64 r_sepc();
  83:src/kernel/../../h/kernel/riscv.hpp **** 
  84:src/kernel/../../h/kernel/riscv.hpp ****     static void w_sepc(uint64 sepc);
  85:src/kernel/../../h/kernel/riscv.hpp **** 
  86:src/kernel/../../h/kernel/riscv.hpp ****     static uint64 r_stvec();
  87:src/kernel/../../h/kernel/riscv.hpp **** 
  88:src/kernel/../../h/kernel/riscv.hpp ****     static void w_stvec(uint64 stvec);
  89:src/kernel/../../h/kernel/riscv.hpp **** 
  90:src/kernel/../../h/kernel/riscv.hpp ****     static uint64 r_sstatus();
  91:src/kernel/../../h/kernel/riscv.hpp **** 
  92:src/kernel/../../h/kernel/riscv.hpp ****     static void w_sstatus(uint64 sstatus);
  93:src/kernel/../../h/kernel/riscv.hpp **** 
  94:src/kernel/../../h/kernel/riscv.hpp ****     static void ms_sstatus(uint64 mask);
  95:src/kernel/../../h/kernel/riscv.hpp **** 
  96:src/kernel/../../h/kernel/riscv.hpp ****     static void mc_sstatus(uint64 mask);
  97:src/kernel/../../h/kernel/riscv.hpp **** 
  98:src/kernel/../../h/kernel/riscv.hpp ****     static void ms_sip(uint64 mask);
  99:src/kernel/../../h/kernel/riscv.hpp **** 
 100:src/kernel/../../h/kernel/riscv.hpp ****     static void mc_sip(uint64 mask);
 101:src/kernel/../../h/kernel/riscv.hpp **** 
 102:src/kernel/../../h/kernel/riscv.hpp ****     static void ms_sie(uint64 mask);
 103:src/kernel/../../h/kernel/riscv.hpp **** 
 104:src/kernel/../../h/kernel/riscv.hpp ****     static void mc_sie(uint64 mask);
 105:src/kernel/../../h/kernel/riscv.hpp **** 
 106:src/kernel/../../h/kernel/riscv.hpp ****     static void startVirtualMemory(void *PMT);
 107:src/kernel/../../h/kernel/riscv.hpp ****     static void shutVirtualMemory();
 108:src/kernel/../../h/kernel/riscv.hpp **** 
 109:src/kernel/../../h/kernel/riscv.hpp ****     static void saveA0toSscratch();
 110:src/kernel/../../h/kernel/riscv.hpp **** 
 111:src/kernel/../../h/kernel/riscv.hpp ****     static void jumpToDesignatedPrivilegeMode();
 112:src/kernel/../../h/kernel/riscv.hpp **** 
 113:src/kernel/../../h/kernel/riscv.hpp ****     static void popSppSpie();
 114:src/kernel/../../h/kernel/riscv.hpp **** 
 115:src/kernel/../../h/kernel/riscv.hpp ****     static void popSppSpie2();
 116:src/kernel/../../h/kernel/riscv.hpp **** 
 117:src/kernel/../../h/kernel/riscv.hpp ****     static void getPC();
 118:src/kernel/../../h/kernel/riscv.hpp **** 
 119:src/kernel/../../h/kernel/riscv.hpp ****     static void supervisorTrap();      //supervisorTrap defined in /src/supervisorTrap.S
 120:src/kernel/../../h/kernel/riscv.hpp **** 
 121:src/kernel/../../h/kernel/riscv.hpp ****     static void handleSupervisorTrap();
 122:src/kernel/../../h/kernel/riscv.hpp **** 
 123:src/kernel/../../h/kernel/riscv.hpp ****     static void enableInterrupts();
 124:src/kernel/../../h/kernel/riscv.hpp **** 
 125:src/kernel/../../h/kernel/riscv.hpp ****     static void disableInterrupts();
 126:src/kernel/../../h/kernel/riscv.hpp **** 
 127:src/kernel/../../h/kernel/riscv.hpp ****     static void enableHardwareInterrupts();
 128:src/kernel/../../h/kernel/riscv.hpp **** 
 129:src/kernel/../../h/kernel/riscv.hpp ****     static void disableHardwareInterrupts();
 130:src/kernel/../../h/kernel/riscv.hpp **** 
 131:src/kernel/../../h/kernel/riscv.hpp ****     static void enableTimerInterrupts();
 132:src/kernel/../../h/kernel/riscv.hpp **** 
 133:src/kernel/../../h/kernel/riscv.hpp ****     static void disableTimerInterrupts();
 134:src/kernel/../../h/kernel/riscv.hpp **** 
GAS LISTING /tmp/ccyPB5Cy.s 			page 17


 135:src/kernel/../../h/kernel/riscv.hpp ****     static void handlePageFault(void* PMT,uint64 addr, uint64 mask);
 136:src/kernel/../../h/kernel/riscv.hpp **** 
 137:src/kernel/../../h/kernel/riscv.hpp ****     static void initialize();
 138:src/kernel/../../h/kernel/riscv.hpp **** 
 139:src/kernel/../../h/kernel/riscv.hpp ****     static void finalize();
 140:src/kernel/../../h/kernel/riscv.hpp **** 
 141:src/kernel/../../h/kernel/riscv.hpp ****     static void* getPMT();
 142:src/kernel/../../h/kernel/riscv.hpp **** 
 143:src/kernel/../../h/kernel/riscv.hpp ****     static void buildSection(void* PMT, uint64 start, uint64 end, uint64 mask);
 144:src/kernel/../../h/kernel/riscv.hpp **** 
 145:src/kernel/../../h/kernel/riscv.hpp ****     static void buildKernelPMT();
 146:src/kernel/../../h/kernel/riscv.hpp **** 
 147:src/kernel/../../h/kernel/riscv.hpp ****     static void buildUserPMT();
 148:src/kernel/../../h/kernel/riscv.hpp **** 
 149:src/kernel/../../h/kernel/riscv.hpp ****     static void mapConsoleRegisters(void *PMT);
 150:src/kernel/../../h/kernel/riscv.hpp **** 
 151:src/kernel/../../h/kernel/riscv.hpp ****     friend class TCB;
 152:src/kernel/../../h/kernel/riscv.hpp **** 
 153:src/kernel/../../h/kernel/riscv.hpp ****     friend class System;
 154:src/kernel/../../h/kernel/riscv.hpp **** 
 155:src/kernel/../../h/kernel/riscv.hpp ****     friend class Scheduler;
 156:src/kernel/../../h/kernel/riscv.hpp **** 
 157:src/kernel/../../h/kernel/riscv.hpp ****     friend class ConsoleUtil;
 158:src/kernel/../../h/kernel/riscv.hpp **** 
 159:src/kernel/../../h/kernel/riscv.hpp ****     friend class SlabAllocator;
 160:src/kernel/../../h/kernel/riscv.hpp **** };
 161:src/kernel/../../h/kernel/riscv.hpp **** 
 162:src/kernel/../../h/kernel/riscv.hpp **** inline uint64 RiscV::r_scause(){
 163:src/kernel/../../h/kernel/riscv.hpp ****     uint64 volatile scause;
 164:src/kernel/../../h/kernel/riscv.hpp ****     asm("csrr %[scause], scause" : [scause] "=r" (scause));
 165:src/kernel/../../h/kernel/riscv.hpp ****     return scause;
 166:src/kernel/../../h/kernel/riscv.hpp **** }
 167:src/kernel/../../h/kernel/riscv.hpp **** 
 168:src/kernel/../../h/kernel/riscv.hpp **** inline void RiscV::w_scause(uint64 scause){
 169:src/kernel/../../h/kernel/riscv.hpp ****     asm("csrw scause, %[scause]" : : [scause] "r" (scause));
 170:src/kernel/../../h/kernel/riscv.hpp **** }
 171:src/kernel/../../h/kernel/riscv.hpp **** 
 172:src/kernel/../../h/kernel/riscv.hpp **** inline uint64 RiscV::r_sepc(){
 173:src/kernel/../../h/kernel/riscv.hpp ****     uint64 sepc;
 174:src/kernel/../../h/kernel/riscv.hpp ****     asm("csrr %[sepc], sepc" : [sepc] "=r" (sepc));
 175:src/kernel/../../h/kernel/riscv.hpp ****     return sepc;
 176:src/kernel/../../h/kernel/riscv.hpp **** }
 177:src/kernel/../../h/kernel/riscv.hpp **** 
 178:src/kernel/../../h/kernel/riscv.hpp **** inline void RiscV::w_sepc(uint64 sepc){
 179:src/kernel/../../h/kernel/riscv.hpp ****     asm("csrw sepc, %[sepc]" : : [sepc] "r" (sepc));
 180:src/kernel/../../h/kernel/riscv.hpp **** }
 181:src/kernel/../../h/kernel/riscv.hpp **** 
 182:src/kernel/../../h/kernel/riscv.hpp **** inline uint64 RiscV::r_stvec(){
 183:src/kernel/../../h/kernel/riscv.hpp ****     uint64 stvec;
 184:src/kernel/../../h/kernel/riscv.hpp ****     asm("csrr %[stvec], stvec" : [stvec] "=r" (stvec));
 185:src/kernel/../../h/kernel/riscv.hpp ****     return stvec;
 186:src/kernel/../../h/kernel/riscv.hpp **** }
 187:src/kernel/../../h/kernel/riscv.hpp **** 
 188:src/kernel/../../h/kernel/riscv.hpp **** inline void RiscV::w_sstatus(uint64 sstatus){
 189:src/kernel/../../h/kernel/riscv.hpp ****     asm("csrw sstatus, %[sstatus]" : : [sstatus] "r" (sstatus));
 190:src/kernel/../../h/kernel/riscv.hpp **** }
 191:src/kernel/../../h/kernel/riscv.hpp **** 
GAS LISTING /tmp/ccyPB5Cy.s 			page 18


 192:src/kernel/../../h/kernel/riscv.hpp **** inline uint64 RiscV::r_sstatus(){
 193:src/kernel/../../h/kernel/riscv.hpp ****     uint64 sstatus;
 194:src/kernel/../../h/kernel/riscv.hpp ****     asm("csrr %[sstatus], sstatus" : [sstatus] "=r" (sstatus));
 195:src/kernel/../../h/kernel/riscv.hpp ****     return sstatus;
 196:src/kernel/../../h/kernel/riscv.hpp **** }
 197:src/kernel/../../h/kernel/riscv.hpp **** 
 198:src/kernel/../../h/kernel/riscv.hpp **** inline void RiscV::w_stvec(uint64 stvec){
 199:src/kernel/../../h/kernel/riscv.hpp ****     asm("csrw stvec, %[stvec]" : : [stvec] "r" (stvec));
 200:src/kernel/../../h/kernel/riscv.hpp **** }
 201:src/kernel/../../h/kernel/riscv.hpp **** 
 202:src/kernel/../../h/kernel/riscv.hpp **** inline void  RiscV::ms_sstatus(uint64 mask) {
 203:src/kernel/../../h/kernel/riscv.hpp ****     asm("csrs sstatus, %[mask]" : : [mask] "r" (mask));
 204:src/kernel/../../h/kernel/riscv.hpp **** }
 205:src/kernel/../../h/kernel/riscv.hpp **** 
 206:src/kernel/../../h/kernel/riscv.hpp **** inline void  RiscV::mc_sstatus(uint64 mask) {
 207:src/kernel/../../h/kernel/riscv.hpp ****     asm("csrc sstatus, %[mask]" : : [mask] "r" (mask));
 208              		.loc 2 207 5
 209              		.loc 2 207 55 is_stmt 0
 210 0108 93070010 		li	a5,256
 211              	#APP
 212              	# 207 "src/kernel/../../h/kernel/riscv.hpp" 1
 208              	}
 213              		csrc sstatus, a5
 214              	# 0 "" 2
 215              	.LVL9:
 216              	#NO_APP
 217              	.L11:
 218              	.LBE96:
 219              	.LBE95:
 569:src/kernel/riscv.cpp **** //        RiscV::startVirtualMemory(RiscV::uPMT);
 570:src/kernel/riscv.cpp ****     }
 571:src/kernel/riscv.cpp **** }
 220              		.loc 1 571 1
 221 0110 03348100 		ld	s0,8(sp)
 222              		.cfi_remember_state
 223              		.cfi_restore 8
 224              		.cfi_def_cfa 2, 16
 225 0114 13010101 		addi	sp,sp,16
 226              		.cfi_def_cfa_offset 0
 227 0118 67800000 		jr	ra
 228              	.L15:
 229              		.cfi_restore_state
 564:src/kernel/riscv.cpp **** //        RiscV::startVirtualMemory(RiscV::kPMT);
 230              		.loc 1 564 9 is_stmt 1
 231              	.LVL10:
 232              	.LBB97:
 233              	.LBB98:
 203:src/kernel/../../h/kernel/riscv.hpp **** }
 234              		.loc 2 203 5
 203:src/kernel/../../h/kernel/riscv.hpp **** }
 235              		.loc 2 203 55 is_stmt 0
 236 011c 93070010 		li	a5,256
 237              	#APP
 238              	# 203 "src/kernel/../../h/kernel/riscv.hpp" 1
 204:src/kernel/../../h/kernel/riscv.hpp **** 
 239              		csrs sstatus, a5
 240              	# 0 "" 2
GAS LISTING /tmp/ccyPB5Cy.s 			page 19


 241              		.loc 2 204 1
 242              	#NO_APP
 243 0124 6FF0DFFE 		j	.L11
 244              	.LBE98:
 245              	.LBE97:
 246              		.cfi_endproc
 247              	.LFE63:
 249              		.align	2
 250              		.globl	_ZN5RiscV8finalizeEv
 252              	_ZN5RiscV8finalizeEv:
 253              	.LFB64:
 572:src/kernel/riscv.cpp **** 
 573:src/kernel/riscv.cpp **** 
 574:src/kernel/riscv.cpp **** //clear out the scheduler and let console finish remaining outputs if there are any
 575:src/kernel/riscv.cpp **** void RiscV::finalize() {
 254              		.loc 1 575 24 is_stmt 1
 255              		.cfi_startproc
 256 0128 130101FF 		addi	sp,sp,-16
 257              		.cfi_def_cfa_offset 16
 258 012c 23341100 		sd	ra,8(sp)
 259 0130 23308100 		sd	s0,0(sp)
 260              		.cfi_offset 1, -8
 261              		.cfi_offset 8, -16
 262 0134 13040101 		addi	s0,sp,16
 263              		.cfi_def_cfa 8, 0
 576:src/kernel/riscv.cpp ****     userMainFinished = true;
 264              		.loc 1 576 5
 265              		.loc 1 576 22 is_stmt 0
 266 0138 93071000 		li	a5,1
 267 013c 17070000 		sb	a5,.LANCHOR0,a4
 267      2300F700 
 577:src/kernel/riscv.cpp **** 
 578:src/kernel/riscv.cpp ****     ConsoleUtil::pendingPutc = 0;
 268              		.loc 1 578 5 is_stmt 1
 269              		.loc 1 578 30 is_stmt 0
 270 0144 97070000 		la	a5,_ZN11ConsoleUtil11pendingPutcE
 270      83B70700 
 271 014c 23B00700 		sd	zero,0(a5)
 579:src/kernel/riscv.cpp ****     ConsoleUtil::pendingGetc = 0;
 272              		.loc 1 579 5 is_stmt 1
 273              		.loc 1 579 30 is_stmt 0
 274 0150 97070000 		la	a5,_ZN11ConsoleUtil11pendingGetcE
 274      83B70700 
 275 0158 23B00700 		sd	zero,0(a5)
 580:src/kernel/riscv.cpp **** 
 581:src/kernel/riscv.cpp ****     RiscV::disableInterrupts();
 276              		.loc 1 581 5 is_stmt 1
 277              	.LBB99:
 278              	.LBB100:
 209:src/kernel/../../h/kernel/riscv.hpp **** 
 210:src/kernel/../../h/kernel/riscv.hpp **** inline void  RiscV::ms_sip(uint64 mask) {
 211:src/kernel/../../h/kernel/riscv.hpp ****     asm("csrs sip, %[mask]" : : [mask] "r" (mask));
 212:src/kernel/../../h/kernel/riscv.hpp **** }
 213:src/kernel/../../h/kernel/riscv.hpp **** 
 214:src/kernel/../../h/kernel/riscv.hpp **** inline void  RiscV::mc_sip(uint64 mask) {
 215:src/kernel/../../h/kernel/riscv.hpp ****     asm("csrc sip, %[mask]" : : [mask] "r" (mask));
 216:src/kernel/../../h/kernel/riscv.hpp **** }
GAS LISTING /tmp/ccyPB5Cy.s 			page 20


 217:src/kernel/../../h/kernel/riscv.hpp **** 
 218:src/kernel/../../h/kernel/riscv.hpp **** inline void  RiscV::ms_sie(uint64 mask) {
 219:src/kernel/../../h/kernel/riscv.hpp ****     asm("csrs sie, %[mask]" : : [mask] "r" (mask));
 220:src/kernel/../../h/kernel/riscv.hpp **** }
 221:src/kernel/../../h/kernel/riscv.hpp **** 
 222:src/kernel/../../h/kernel/riscv.hpp **** inline void  RiscV::mc_sie(uint64 mask){
 223:src/kernel/../../h/kernel/riscv.hpp ****     asm("csrc sie, %[mask]" : : [mask] "r" (mask));
 224:src/kernel/../../h/kernel/riscv.hpp **** }
 225:src/kernel/../../h/kernel/riscv.hpp **** 
 226:src/kernel/../../h/kernel/riscv.hpp **** inline void RiscV::enableInterrupts() {
 227:src/kernel/../../h/kernel/riscv.hpp ****     RiscV::ms_sie(SIP_SSIE);
 228:src/kernel/../../h/kernel/riscv.hpp ****     RiscV::ms_sie(SIP_SEIE);
 229:src/kernel/../../h/kernel/riscv.hpp ****     RiscV::ms_sstatus(SSTATUS_SIE);
 230:src/kernel/../../h/kernel/riscv.hpp **** }
 231:src/kernel/../../h/kernel/riscv.hpp **** 
 232:src/kernel/../../h/kernel/riscv.hpp **** inline void RiscV::disableInterrupts() {
 233:src/kernel/../../h/kernel/riscv.hpp ****     disableTimerInterrupts();
 279              		.loc 2 233 5
 280              	.LBE100:
 281              	.LBE99:
 234:src/kernel/../../h/kernel/riscv.hpp ****     disableHardwareInterrupts();
 235:src/kernel/../../h/kernel/riscv.hpp **** }
 236:src/kernel/../../h/kernel/riscv.hpp **** 
 237:src/kernel/../../h/kernel/riscv.hpp **** inline void RiscV::enableHardwareInterrupts() {
 238:src/kernel/../../h/kernel/riscv.hpp ****     RiscV::mc_sie(SIP_SSIE);
 239:src/kernel/../../h/kernel/riscv.hpp ****     RiscV::ms_sstatus(SSTATUS_SIE);
 240:src/kernel/../../h/kernel/riscv.hpp ****     RiscV::ms_sie(SIP_SEIE);
 241:src/kernel/../../h/kernel/riscv.hpp **** }
 242:src/kernel/../../h/kernel/riscv.hpp **** 
 243:src/kernel/../../h/kernel/riscv.hpp **** inline void RiscV::disableHardwareInterrupts(){
 244:src/kernel/../../h/kernel/riscv.hpp ****     RiscV::mc_sie(SIP_SEIE);
 245:src/kernel/../../h/kernel/riscv.hpp **** }
 246:src/kernel/../../h/kernel/riscv.hpp **** 
 247:src/kernel/../../h/kernel/riscv.hpp **** inline void RiscV::enableTimerInterrupts() {
 248:src/kernel/../../h/kernel/riscv.hpp ****     RiscV::mc_sie(SIP_SEIE);
 249:src/kernel/../../h/kernel/riscv.hpp ****     RiscV::ms_sstatus(SSTATUS_SIE);
 250:src/kernel/../../h/kernel/riscv.hpp ****     RiscV::ms_sie(SIP_SSIE);
 251:src/kernel/../../h/kernel/riscv.hpp **** }
 252:src/kernel/../../h/kernel/riscv.hpp **** 
 253:src/kernel/../../h/kernel/riscv.hpp **** inline void RiscV::disableTimerInterrupts(){
 254:src/kernel/../../h/kernel/riscv.hpp ****     RiscV::mc_sie(SIP_SSIE);
 282              		.loc 2 254 5
 283              	.LVL11:
 284              	.LBB109:
 285              	.LBB107:
 286              	.LBB101:
 287              	.LBB102:
 288              	.LBB103:
 223:src/kernel/../../h/kernel/riscv.hpp **** }
 289              		.loc 2 223 5
 223:src/kernel/../../h/kernel/riscv.hpp **** }
 290              		.loc 2 223 51 is_stmt 0
 291 015c 93072000 		li	a5,2
 292              	#APP
 293              	# 223 "src/kernel/../../h/kernel/riscv.hpp" 1
 294              		csrc sie, a5
 295              	# 0 "" 2
GAS LISTING /tmp/ccyPB5Cy.s 			page 21


 296              	.LVL12:
 297              	#NO_APP
 298              	.LBE103:
 299              	.LBE102:
 300              	.LBE101:
 234:src/kernel/../../h/kernel/riscv.hpp ****     disableHardwareInterrupts();
 301              		.loc 2 234 5 is_stmt 1
 302              	.LBE107:
 303              	.LBE109:
 244:src/kernel/../../h/kernel/riscv.hpp **** }
 304              		.loc 2 244 5
 305              	.LBB110:
 306              	.LBB108:
 307              	.LBB104:
 308              	.LBB105:
 309              	.LBB106:
 223:src/kernel/../../h/kernel/riscv.hpp **** }
 310              		.loc 2 223 5
 223:src/kernel/../../h/kernel/riscv.hpp **** }
 311              		.loc 2 223 51 is_stmt 0
 312 0164 93070020 		li	a5,512
 313              	#APP
 314              	# 223 "src/kernel/../../h/kernel/riscv.hpp" 1
 315              		csrc sie, a5
 316              	# 0 "" 2
 317              	.LVL13:
 318              	#NO_APP
 319              	.L18:
 320              	.LBE106:
 321              	.LBE105:
 322              	.LBE104:
 323              	.LBE108:
 324              	.LBE110:
 582:src/kernel/riscv.cpp **** 
 583:src/kernel/riscv.cpp ****     while(Scheduler::readyHead != nullptr)
 325              		.loc 1 583 5 is_stmt 1
 326              		.loc 1 583 32
 327 016c 97070000 		la	a5,_ZN9Scheduler9readyHeadE
 327      83B70700 
 328 0174 83B70700 		ld	a5,0(a5)
 329 0178 638C0700 		beqz	a5,.L17
 584:src/kernel/riscv.cpp ****         Scheduler::readyHead = Scheduler::readyHead->next;
 330              		.loc 1 584 9
 331              		.loc 1 584 54 is_stmt 0
 332 017c 03B78704 		ld	a4,72(a5)
 333              		.loc 1 584 30
 334 0180 97070000 		la	a5,_ZN9Scheduler9readyHeadE
 334      83B70700 
 335 0188 23B0E700 		sd	a4,0(a5)
 583:src/kernel/riscv.cpp ****         Scheduler::readyHead = Scheduler::readyHead->next;
 336              		.loc 1 583 5
 337 018c 6FF01FFE 		j	.L18
 338              	.L17:
 585:src/kernel/riscv.cpp **** 
 586:src/kernel/riscv.cpp ****     Scheduler::put(TCB::putcThread);
 339              		.loc 1 586 5 is_stmt 1
 340              		.loc 1 586 19 is_stmt 0
GAS LISTING /tmp/ccyPB5Cy.s 			page 22


 341 0190 97070000 		la	a5,_ZN3TCB10putcThreadE
 341      83B70700 
 342 0198 03B50700 		ld	a0,0(a5)
 343 019c 97000000 		call	_ZN9Scheduler3putEP3TCB@plt
 343      E7800000 
 344              	.LVL14:
 345              	.L20:
 587:src/kernel/riscv.cpp **** 
 588:src/kernel/riscv.cpp ****     while(ConsoleUtil::outputHead != ConsoleUtil::outputTail)
 346              		.loc 1 588 5 is_stmt 1
 347              		.loc 1 588 35
 348 01a4 97070000 		la	a5,_ZN11ConsoleUtil10outputHeadE
 348      83B70700 
 349 01ac 03B70700 		ld	a4,0(a5)
 350 01b0 97070000 		la	a5,_ZN11ConsoleUtil10outputTailE
 350      83B70700 
 351 01b8 83B70700 		ld	a5,0(a5)
 352 01bc 6308F700 		beq	a4,a5,.L16
 589:src/kernel/riscv.cpp ****         TCB::dispatch();
 353              		.loc 1 589 9
 354              		.loc 1 589 22 is_stmt 0
 355 01c0 97000000 		call	_ZN3TCB8dispatchEv@plt
 355      E7800000 
 356              	.LVL15:
 588:src/kernel/riscv.cpp ****         TCB::dispatch();
 357              		.loc 1 588 5
 358 01c8 6FF0DFFD 		j	.L20
 359              	.L16:
 590:src/kernel/riscv.cpp **** }
 360              		.loc 1 590 1
 361 01cc 83308100 		ld	ra,8(sp)
 362              		.cfi_restore 1
 363 01d0 03340100 		ld	s0,0(sp)
 364              		.cfi_restore 8
 365              		.cfi_def_cfa 2, 16
 366 01d4 13010101 		addi	sp,sp,16
 367              		.cfi_def_cfa_offset 0
 368 01d8 67800000 		jr	ra
 369              		.cfi_endproc
 370              	.LFE64:
 372              		.align	2
 373              		.globl	_ZN5RiscV16saveA0toSscratchEv
 375              	_ZN5RiscV16saveA0toSscratchEv:
 376              	.LFB65:
 591:src/kernel/riscv.cpp **** 
 592:src/kernel/riscv.cpp **** //write value in a0 to a memory location where a0 is store on stack for currently running thread
 593:src/kernel/riscv.cpp **** void RiscV::saveA0toSscratch()
 594:src/kernel/riscv.cpp **** {
 377              		.loc 1 594 1 is_stmt 1
 378              		.cfi_startproc
 379 01dc 130101FF 		addi	sp,sp,-16
 380              		.cfi_def_cfa_offset 16
 381 01e0 23348100 		sd	s0,8(sp)
 382              		.cfi_offset 8, -8
 383 01e4 13040101 		addi	s0,sp,16
 384              		.cfi_def_cfa 8, 0
 595:src/kernel/riscv.cpp ****     uint64 a1;
GAS LISTING /tmp/ccyPB5Cy.s 			page 23


 385              		.loc 1 595 5
 596:src/kernel/riscv.cpp ****     asm("mv %[a1], a1": [a1] "=r"(a1));
 386              		.loc 1 596 5
 387              		.loc 1 596 39 is_stmt 0
 388              	#APP
 389              	# 596 "src/kernel/riscv.cpp" 1
 597              	    asm("mv a1, %[a0]" : :  [a0] "r"(TCB::running->a0Location));
 390              		mv a5, a1
 391              	# 0 "" 2
 392              		.loc 1 597 5 is_stmt 1
 393              		.loc 1 597 52 is_stmt 0
 394              	#NO_APP
 395 01ec 17070000 		la	a4,_ZN3TCB7runningE
 395      03370700 
 396 01f4 03370700 		ld	a4,0(a4)
 397 01f8 03378706 		ld	a4,104(a4)
 398              		.loc 1 597 64
 399              	#APP
 400              	# 597 "src/kernel/riscv.cpp" 1
 598              	    asm("sd a0, 80(a1)");
 401              		mv a1, a4
 402              	# 0 "" 2
 403              		.loc 1 598 5 is_stmt 1
 404              		.loc 1 598 25 is_stmt 0
 405              	# 598 "src/kernel/riscv.cpp" 1
 599              	    asm("mv a1,%[a1]"::  [a1]"r"(a1));
 406              		sd a0, 80(a1)
 407              	# 0 "" 2
 408              		.loc 1 599 5 is_stmt 1
 409              		.loc 1 599 38 is_stmt 0
 410              	# 599 "src/kernel/riscv.cpp" 1
 600              	}
 411              		mv a1,a5
 412              	# 0 "" 2
 413              		.loc 1 600 1
 414              	#NO_APP
 415 0208 03348100 		ld	s0,8(sp)
 416              		.cfi_restore 8
 417              		.cfi_def_cfa 2, 16
 418 020c 13010101 		addi	sp,sp,16
 419              		.cfi_def_cfa_offset 0
 420 0210 67800000 		jr	ra
 421              		.cfi_endproc
 422              	.LFE65:
 424              		.align	2
 425              		.globl	_ZN5RiscV22executeMemAllocSyscallEv
 427              	_ZN5RiscV22executeMemAllocSyscallEv:
 428              	.LFB47:
 208:src/kernel/riscv.cpp **** 
 429              		.loc 1 208 37 is_stmt 1
 430              		.cfi_startproc
 431 0214 130101FF 		addi	sp,sp,-16
 432              		.cfi_def_cfa_offset 16
 433 0218 23341100 		sd	ra,8(sp)
 434 021c 23308100 		sd	s0,0(sp)
 435              		.cfi_offset 1, -8
 436              		.cfi_offset 8, -16
GAS LISTING /tmp/ccyPB5Cy.s 			page 24


 437 0220 13040101 		addi	s0,sp,16
 438              		.cfi_def_cfa 8, 0
 211:src/kernel/riscv.cpp ****     asm("mv %[size], a1" : [size] "=r" (size));
 439              		.loc 1 211 5
 212:src/kernel/riscv.cpp **** 
 440              		.loc 1 212 5
 212:src/kernel/riscv.cpp **** 
 441              		.loc 1 212 47 is_stmt 0
 442              	#APP
 443              	# 212 "src/kernel/riscv.cpp" 1
 444              		mv a0, a1
 445              	# 0 "" 2
 446              	.LVL16:
 215:src/kernel/riscv.cpp **** 
 447              		.loc 1 215 5 is_stmt 1
 215:src/kernel/riscv.cpp **** 
 448              		.loc 1 215 50 is_stmt 0
 449              	#NO_APP
 450 0228 97000000 		call	_ZN15MemoryAllocator7kmallocEm@plt
 450      E7800000 
 451              	.LVL17:
 217:src/kernel/riscv.cpp **** 
 452              		.loc 1 217 5 is_stmt 1
 217:src/kernel/riscv.cpp **** 
 453              		.loc 1 217 48 is_stmt 0
 454              	#APP
 455              	# 217 "src/kernel/riscv.cpp" 1
 219:src/kernel/riscv.cpp **** }
 456              		mv a0, a0
 457              	# 0 "" 2
 458              		.loc 1 219 5 is_stmt 1
 219:src/kernel/riscv.cpp **** }
 459              		.loc 1 219 28 is_stmt 0
 460              	#NO_APP
 461 0234 97000000 		call	_ZN5RiscV16saveA0toSscratchEv
 461      E7800000 
 462              	.LVL18:
 220:src/kernel/riscv.cpp **** 
 463              		.loc 1 220 1
 464 023c 83308100 		ld	ra,8(sp)
 465              		.cfi_restore 1
 466 0240 03340100 		ld	s0,0(sp)
 467              		.cfi_restore 8
 468              		.cfi_def_cfa 2, 16
 469 0244 13010101 		addi	sp,sp,16
 470              		.cfi_def_cfa_offset 0
 471 0248 67800000 		jr	ra
 472              		.cfi_endproc
 473              	.LFE47:
 475              		.align	2
 476              		.globl	_ZN5RiscV21executeMemFreeSyscallEv
 478              	_ZN5RiscV21executeMemFreeSyscallEv:
 479              	.LFB48:
 222:src/kernel/riscv.cpp **** 
 480              		.loc 1 222 37 is_stmt 1
 481              		.cfi_startproc
 482 024c 130101FF 		addi	sp,sp,-16
GAS LISTING /tmp/ccyPB5Cy.s 			page 25


 483              		.cfi_def_cfa_offset 16
 484 0250 23341100 		sd	ra,8(sp)
 485 0254 23308100 		sd	s0,0(sp)
 486              		.cfi_offset 1, -8
 487              		.cfi_offset 8, -16
 488 0258 13040101 		addi	s0,sp,16
 489              		.cfi_def_cfa 8, 0
 225:src/kernel/riscv.cpp **** 
 490              		.loc 1 225 5
 228:src/kernel/riscv.cpp ****         //call internal allocator and free memory which iaddr points to
 491              		.loc 1 228 5
 492 025c 97070000 		la	a5,_ZN15MemoryAllocator11initializedE
 492      83B70700 
 493 0264 83C70700 		lbu	a5,0(a5)
 494 0268 63920702 		bnez	a5,.L30
 234:src/kernel/riscv.cpp **** 
 495              		.loc 1 234 16 is_stmt 0
 496 026c 1305F0FF 		li	a0,-1
 497              	.L27:
 498              	.LVL19:
 237:src/kernel/riscv.cpp **** 
 499              		.loc 1 237 5 is_stmt 1
 237:src/kernel/riscv.cpp **** 
 500              		.loc 1 237 54 is_stmt 0
 501              	#APP
 502              	# 237 "src/kernel/riscv.cpp" 1
 239:src/kernel/riscv.cpp **** }
 503              		mv a0, a0
 504              	# 0 "" 2
 505              		.loc 1 239 5 is_stmt 1
 239:src/kernel/riscv.cpp **** }
 506              		.loc 1 239 28 is_stmt 0
 507              	#NO_APP
 508 0274 97000000 		call	_ZN5RiscV16saveA0toSscratchEv
 508      E7800000 
 509              	.LVL20:
 240:src/kernel/riscv.cpp **** 
 510              		.loc 1 240 1
 511 027c 83308100 		ld	ra,8(sp)
 512              		.cfi_remember_state
 513              		.cfi_restore 1
 514 0280 03340100 		ld	s0,0(sp)
 515              		.cfi_restore 8
 516              		.cfi_def_cfa 2, 16
 517 0284 13010101 		addi	sp,sp,16
 518              		.cfi_def_cfa_offset 0
 519 0288 67800000 		jr	ra
 520              	.L30:
 521              		.cfi_restore_state
 230:src/kernel/riscv.cpp ****         status = MemoryAllocator::kfree((void *) iaddr);;
 522              		.loc 1 230 9 is_stmt 1
 230:src/kernel/riscv.cpp ****         status = MemoryAllocator::kfree((void *) iaddr);;
 523              		.loc 1 230 53 is_stmt 0
 524              	#APP
 525              	# 230 "src/kernel/riscv.cpp" 1
 526              		mv a0, a1
 527              	# 0 "" 2
GAS LISTING /tmp/ccyPB5Cy.s 			page 26


 528              	.LVL21:
 231:src/kernel/riscv.cpp ****     }
 529              		.loc 1 231 9 is_stmt 1
 231:src/kernel/riscv.cpp ****     }
 530              		.loc 1 231 40 is_stmt 0
 531              	#NO_APP
 532 0290 97000000 		call	_ZN15MemoryAllocator5kfreeEPv@plt
 532      E7800000 
 533              	.LVL22:
 231:src/kernel/riscv.cpp ****     }
 534              		.loc 1 231 57 is_stmt 1
 535 0298 6FF09FFD 		j	.L27
 536              		.cfi_endproc
 537              	.LFE48:
 539              		.align	2
 540              		.globl	_ZN5RiscV26executeThreadCreateSyscallEv
 542              	_ZN5RiscV26executeThreadCreateSyscallEv:
 543              	.LFB49:
 242:src/kernel/riscv.cpp **** 
 544              		.loc 1 242 41
 545              		.cfi_startproc
 546              		.cfi_personality 0x9b,DW.ref.__gxx_personality_v0
 547              		.cfi_lsda 0x1b,.LLSDA49
 548 029c 130101FC 		addi	sp,sp,-64
 549              		.cfi_def_cfa_offset 64
 550 02a0 233C1102 		sd	ra,56(sp)
 551 02a4 23388102 		sd	s0,48(sp)
 552 02a8 23349102 		sd	s1,40(sp)
 553 02ac 23302103 		sd	s2,32(sp)
 554 02b0 233C3101 		sd	s3,24(sp)
 555 02b4 23384101 		sd	s4,16(sp)
 556 02b8 23345101 		sd	s5,8(sp)
 557              		.cfi_offset 1, -8
 558              		.cfi_offset 8, -16
 559              		.cfi_offset 9, -24
 560              		.cfi_offset 18, -32
 561              		.cfi_offset 19, -40
 562              		.cfi_offset 20, -48
 563              		.cfi_offset 21, -56
 564 02bc 13040104 		addi	s0,sp,64
 565              		.cfi_def_cfa 8, 0
 245:src/kernel/riscv.cpp **** 
 566              		.loc 1 245 5
 247:src/kernel/riscv.cpp ****     asm("mv %[ihandle], a1" : [ihandle] "=r"(ihandle));
 567              		.loc 1 247 5
 247:src/kernel/riscv.cpp ****     asm("mv %[ihandle], a1" : [ihandle] "=r"(ihandle));
 568              		.loc 1 247 52 is_stmt 0
 569              	#APP
 570              	# 247 "src/kernel/riscv.cpp" 1
 571              		mv s5, a7
 572              	# 0 "" 2
 573              	.LVL23:
 248:src/kernel/riscv.cpp ****     asm("mv %[iroutine], a2" : [iroutine] "=r"(iroutine));
 574              		.loc 1 248 5 is_stmt 1
 248:src/kernel/riscv.cpp ****     asm("mv %[iroutine], a2" : [iroutine] "=r"(iroutine));
 575              		.loc 1 248 55 is_stmt 0
 576              	# 248 "src/kernel/riscv.cpp" 1
GAS LISTING /tmp/ccyPB5Cy.s 			page 27


 577              		mv s2, a1
 578              	# 0 "" 2
 579              	.LVL24:
 249:src/kernel/riscv.cpp ****     asm("mv %[iargs], a3" : [iargs] "=r"(iargs));
 580              		.loc 1 249 5 is_stmt 1
 249:src/kernel/riscv.cpp ****     asm("mv %[iargs], a3" : [iargs] "=r"(iargs));
 581              		.loc 1 249 58 is_stmt 0
 582              	# 249 "src/kernel/riscv.cpp" 1
 583              		mv s3, a2
 584              	# 0 "" 2
 585              	.LVL25:
 250:src/kernel/riscv.cpp **** 
 586              		.loc 1 250 5 is_stmt 1
 250:src/kernel/riscv.cpp **** 
 587              		.loc 1 250 49 is_stmt 0
 588              	# 250 "src/kernel/riscv.cpp" 1
 589              		mv s4, a3
 590              	# 0 "" 2
 591              	.LVL26:
 253:src/kernel/riscv.cpp **** 
 592              		.loc 1 253 5 is_stmt 1
 253:src/kernel/riscv.cpp **** 
 593              		.loc 1 253 94 is_stmt 0
 594              	#NO_APP
 595 02d0 13050007 		li	a0,112
 596              	.LEHB0:
 597 02d4 97000000 		call	_ZN3TCBnwEm@plt
 597      E7800000 
 598              	.LVL27:
 599              	.LEHE0:
 600 02dc 93040500 		mv	s1,a0
 601 02e0 630E0500 		beqz	a0,.L32
 253:src/kernel/riscv.cpp **** 
 602              		.loc 1 253 94 discriminator 1
 603 02e4 13072000 		li	a4,2
 604 02e8 93860A00 		mv	a3,s5
 605 02ec 13060A00 		mv	a2,s4
 606 02f0 93850900 		mv	a1,s3
 607              	.LEHB1:
 608 02f4 97000000 		call	_ZN3TCBC1EPFvPvES0_Pmm@plt
 608      E7800000 
 609              	.LVL28:
 610              	.LEHE1:
 611              	.L32:
 255:src/kernel/riscv.cpp **** 
 612              		.loc 1 255 5 is_stmt 1 discriminator 6
 257:src/kernel/riscv.cpp ****         status = -1;
 613              		.loc 1 257 5 discriminator 6
 614 02fc 63880404 		beqz	s1,.L36
 261:src/kernel/riscv.cpp ****             Scheduler::put(tcb);
 615              		.loc 1 261 9
 261:src/kernel/riscv.cpp ****             Scheduler::put(tcb);
 616              		.loc 1 261 17 is_stmt 0
 617 0300 83B78401 		ld	a5,24(s1)
 261:src/kernel/riscv.cpp ****             Scheduler::put(tcb);
 618              		.loc 1 261 9
 619 0304 63880700 		beqz	a5,.L34
GAS LISTING /tmp/ccyPB5Cy.s 			page 28


 262:src/kernel/riscv.cpp ****         *((TCB**)ihandle) = tcb;
 620              		.loc 1 262 13 is_stmt 1
 262:src/kernel/riscv.cpp ****         *((TCB**)ihandle) = tcb;
 621              		.loc 1 262 27 is_stmt 0
 622 0308 13850400 		mv	a0,s1
 623              	.LEHB2:
 624 030c 97000000 		call	_ZN9Scheduler3putEP3TCB@plt
 624      E7800000 
 625              	.LVL29:
 626              	.LEHE2:
 627              	.L34:
 263:src/kernel/riscv.cpp ****     }
 628              		.loc 1 263 9 is_stmt 1
 263:src/kernel/riscv.cpp ****     }
 629              		.loc 1 263 27 is_stmt 0
 630 0314 23309900 		sd	s1,0(s2)
 255:src/kernel/riscv.cpp **** 
 631              		.loc 1 255 12
 632 0318 93070000 		li	a5,0
 633              	.L33:
 634              	.LVL30:
 267:src/kernel/riscv.cpp **** 
 635              		.loc 1 267 5 is_stmt 1
 267:src/kernel/riscv.cpp **** 
 636              		.loc 1 267 54 is_stmt 0
 637              	#APP
 638              	# 267 "src/kernel/riscv.cpp" 1
 269:src/kernel/riscv.cpp **** }
 639              		mv a0, a5
 640              	# 0 "" 2
 641              		.loc 1 269 5 is_stmt 1
 269:src/kernel/riscv.cpp **** }
 642              		.loc 1 269 28 is_stmt 0
 643              	#NO_APP
 644 0320 97000000 		call	_ZN5RiscV16saveA0toSscratchEv
 644      E7800000 
 645              	.LVL31:
 270:src/kernel/riscv.cpp **** 
 646              		.loc 1 270 1
 647 0328 83308103 		ld	ra,56(sp)
 648              		.cfi_remember_state
 649              		.cfi_restore 1
 650 032c 03340103 		ld	s0,48(sp)
 651              		.cfi_restore 8
 652              		.cfi_def_cfa 2, 64
 653 0330 83348102 		ld	s1,40(sp)
 654              		.cfi_restore 9
 655              	.LVL32:
 656 0334 03390102 		ld	s2,32(sp)
 657              		.cfi_restore 18
 658              	.LVL33:
 659 0338 83398101 		ld	s3,24(sp)
 660              		.cfi_restore 19
 661              	.LVL34:
 662 033c 033A0101 		ld	s4,16(sp)
 663              		.cfi_restore 20
 664              	.LVL35:
GAS LISTING /tmp/ccyPB5Cy.s 			page 29


 665 0340 833A8100 		ld	s5,8(sp)
 666              		.cfi_restore 21
 667              	.LVL36:
 668 0344 13010104 		addi	sp,sp,64
 669              		.cfi_def_cfa_offset 0
 670 0348 67800000 		jr	ra
 671              	.LVL37:
 672              	.L36:
 673              		.cfi_restore_state
 258:src/kernel/riscv.cpp ****     }
 674              		.loc 1 258 16
 675 034c 9307F0FF 		li	a5,-1
 676 0350 6FF0DFFC 		j	.L33
 677              	.LVL38:
 678              	.L37:
 679 0354 13090500 		mv	s2,a0
 680              	.LVL39:
 253:src/kernel/riscv.cpp **** 
 681              		.loc 1 253 94
 682 0358 13850400 		mv	a0,s1
 683 035c 97000000 		call	_ZN3TCBdlEPv@plt
 683      E7800000 
 684              	.LVL40:
 685 0364 13050900 		mv	a0,s2
 686              	.LEHB3:
 687 0368 97000000 		call	_Unwind_Resume@plt
 687      E7800000 
 688              	.LVL41:
 689              	.LEHE3:
 690              		.cfi_endproc
 691              	.LFE49:
 692              		.globl	__gxx_personality_v0
 693              		.section	.gcc_except_table,"a",@progbits
 694              	.LLSDA49:
 695 0000 FF       		.byte	0xff
 696 0001 FF       		.byte	0xff
 697 0002 03       		.byte	0x3
 698 0003 34       		.byte	0x34
 699 0004 00000000 		.4byte	.LEHB0-.LFB49
 700 0008 00000000 		.4byte	.LEHE0-.LEHB0
 701 000c 00000000 		.4byte	0
 702 0010 00       		.byte	0
 703 0011 00000000 		.4byte	.LEHB1-.LFB49
 704 0015 00000000 		.4byte	.LEHE1-.LEHB1
 705 0019 00000000 		.4byte	.L37-.LFB49
 706 001d 00       		.byte	0
 707 001e 00000000 		.4byte	.LEHB2-.LFB49
 708 0022 00000000 		.4byte	.LEHE2-.LEHB2
 709 0026 00000000 		.4byte	0
 710 002a 00       		.byte	0
 711 002b 00000000 		.4byte	.LEHB3-.LFB49
 712 002f 00000000 		.4byte	.LEHE3-.LEHB3
 713 0033 00000000 		.4byte	0
 714 0037 00       		.byte	0
 715              		.text
 717              		.align	2
 718              		.globl	_ZN5RiscV30executeThreadAttachBodySyscallEv
GAS LISTING /tmp/ccyPB5Cy.s 			page 30


 720              	_ZN5RiscV30executeThreadAttachBodySyscallEv:
 721              	.LFB50:
 272:src/kernel/riscv.cpp **** 
 722              		.loc 1 272 45 is_stmt 1
 723              		.cfi_startproc
 724              		.cfi_personality 0x9b,DW.ref.__gxx_personality_v0
 725              		.cfi_lsda 0x1b,.LLSDA50
 726 0370 130101FC 		addi	sp,sp,-64
 727              		.cfi_def_cfa_offset 64
 728 0374 233C1102 		sd	ra,56(sp)
 729 0378 23388102 		sd	s0,48(sp)
 730 037c 23349102 		sd	s1,40(sp)
 731 0380 23302103 		sd	s2,32(sp)
 732 0384 233C3101 		sd	s3,24(sp)
 733 0388 23384101 		sd	s4,16(sp)
 734 038c 23345101 		sd	s5,8(sp)
 735              		.cfi_offset 1, -8
 736              		.cfi_offset 8, -16
 737              		.cfi_offset 9, -24
 738              		.cfi_offset 18, -32
 739              		.cfi_offset 19, -40
 740              		.cfi_offset 20, -48
 741              		.cfi_offset 21, -56
 742 0390 13040104 		addi	s0,sp,64
 743              		.cfi_def_cfa 8, 0
 275:src/kernel/riscv.cpp **** 
 744              		.loc 1 275 5
 278:src/kernel/riscv.cpp ****     asm("mv %[ihandle], a1" : [ihandle] "=r"(ihandle));
 745              		.loc 1 278 5
 278:src/kernel/riscv.cpp ****     asm("mv %[ihandle], a1" : [ihandle] "=r"(ihandle));
 746              		.loc 1 278 52 is_stmt 0
 747              	#APP
 748              	# 278 "src/kernel/riscv.cpp" 1
 749              		mv s5, a7
 750              	# 0 "" 2
 751              	.LVL42:
 279:src/kernel/riscv.cpp ****     asm("mv %[iroutine], a2" : [iroutine] "=r"(iroutine));
 752              		.loc 1 279 5 is_stmt 1
 279:src/kernel/riscv.cpp ****     asm("mv %[iroutine], a2" : [iroutine] "=r"(iroutine));
 753              		.loc 1 279 55 is_stmt 0
 754              	# 279 "src/kernel/riscv.cpp" 1
 755              		mv s4, a1
 756              	# 0 "" 2
 757              	.LVL43:
 280:src/kernel/riscv.cpp ****     asm("mv %[iargs], a3" : [iargs] "=r"(iargs));
 758              		.loc 1 280 5 is_stmt 1
 280:src/kernel/riscv.cpp ****     asm("mv %[iargs], a3" : [iargs] "=r"(iargs));
 759              		.loc 1 280 58 is_stmt 0
 760              	# 280 "src/kernel/riscv.cpp" 1
 761              		mv s3, a2
 762              	# 0 "" 2
 763              	.LVL44:
 281:src/kernel/riscv.cpp **** 
 764              		.loc 1 281 5 is_stmt 1
 281:src/kernel/riscv.cpp **** 
 765              		.loc 1 281 49 is_stmt 0
 766              	# 281 "src/kernel/riscv.cpp" 1
GAS LISTING /tmp/ccyPB5Cy.s 			page 31


 767              		mv s2, a3
 768              	# 0 "" 2
 769              	.LVL45:
 283:src/kernel/riscv.cpp **** 
 770              		.loc 1 283 5 is_stmt 1
 283:src/kernel/riscv.cpp **** 
 771              		.loc 1 283 94 is_stmt 0
 772              	#NO_APP
 773 03a4 13050007 		li	a0,112
 774              	.LEHB4:
 775 03a8 97000000 		call	_ZN3TCBnwEm@plt
 775      E7800000 
 776              	.LVL46:
 777              	.LEHE4:
 778 03b0 93040500 		mv	s1,a0
 779 03b4 630E0500 		beqz	a0,.L41
 283:src/kernel/riscv.cpp **** 
 780              		.loc 1 283 94 discriminator 1
 781 03b8 13072000 		li	a4,2
 782 03bc 93860A00 		mv	a3,s5
 783 03c0 13060900 		mv	a2,s2
 784 03c4 93850900 		mv	a1,s3
 785              	.LEHB5:
 786 03c8 97000000 		call	_ZN3TCBC1EPFvPvES0_Pmm@plt
 786      E7800000 
 787              	.LVL47:
 788              	.LEHE5:
 789              	.L41:
 285:src/kernel/riscv.cpp **** 
 790              		.loc 1 285 5 is_stmt 1 discriminator 6
 287:src/kernel/riscv.cpp ****         status = -1;
 791              		.loc 1 287 5 discriminator 6
 792 03d0 63820404 		beqz	s1,.L44
 291:src/kernel/riscv.cpp ****         tcb->args = (void*)iargs;
 793              		.loc 1 291 9
 291:src/kernel/riscv.cpp ****         tcb->args = (void*)iargs;
 794              		.loc 1 291 19 is_stmt 0
 795 03d4 23BC3401 		sd	s3,24(s1)
 292:src/kernel/riscv.cpp ****         *((TCB**)ihandle) = tcb;
 796              		.loc 1 292 9 is_stmt 1
 292:src/kernel/riscv.cpp ****         *((TCB**)ihandle) = tcb;
 797              		.loc 1 292 19 is_stmt 0
 798 03d8 23B02403 		sd	s2,32(s1)
 293:src/kernel/riscv.cpp ****     }
 799              		.loc 1 293 9 is_stmt 1
 293:src/kernel/riscv.cpp ****     }
 800              		.loc 1 293 27 is_stmt 0
 801 03dc 23309A00 		sd	s1,0(s4)
 285:src/kernel/riscv.cpp **** 
 802              		.loc 1 285 12
 803 03e0 93070000 		li	a5,0
 804              	.L42:
 805              	.LVL48:
 296:src/kernel/riscv.cpp **** 
 806              		.loc 1 296 5 is_stmt 1
 296:src/kernel/riscv.cpp **** 
 807              		.loc 1 296 54 is_stmt 0
GAS LISTING /tmp/ccyPB5Cy.s 			page 32


 808              	#APP
 809              	# 296 "src/kernel/riscv.cpp" 1
 298:src/kernel/riscv.cpp **** }
 810              		mv a0, a5
 811              	# 0 "" 2
 812              		.loc 1 298 5 is_stmt 1
 298:src/kernel/riscv.cpp **** }
 813              		.loc 1 298 28 is_stmt 0
 814              	#NO_APP
 815 03e8 97000000 		call	_ZN5RiscV16saveA0toSscratchEv
 815      E7800000 
 816              	.LVL49:
 299:src/kernel/riscv.cpp **** 
 817              		.loc 1 299 1
 818 03f0 83308103 		ld	ra,56(sp)
 819              		.cfi_remember_state
 820              		.cfi_restore 1
 821 03f4 03340103 		ld	s0,48(sp)
 822              		.cfi_restore 8
 823              		.cfi_def_cfa 2, 64
 824 03f8 83348102 		ld	s1,40(sp)
 825              		.cfi_restore 9
 826              	.LVL50:
 827 03fc 03390102 		ld	s2,32(sp)
 828              		.cfi_restore 18
 829              	.LVL51:
 830 0400 83398101 		ld	s3,24(sp)
 831              		.cfi_restore 19
 832              	.LVL52:
 833 0404 033A0101 		ld	s4,16(sp)
 834              		.cfi_restore 20
 835              	.LVL53:
 836 0408 833A8100 		ld	s5,8(sp)
 837              		.cfi_restore 21
 838              	.LVL54:
 839 040c 13010104 		addi	sp,sp,64
 840              		.cfi_def_cfa_offset 0
 841 0410 67800000 		jr	ra
 842              	.LVL55:
 843              	.L44:
 844              		.cfi_restore_state
 288:src/kernel/riscv.cpp ****     }
 845              		.loc 1 288 16
 846 0414 9307F0FF 		li	a5,-1
 847 0418 6FF0DFFC 		j	.L42
 848              	.LVL56:
 849              	.L45:
 850 041c 13090500 		mv	s2,a0
 851              	.LVL57:
 283:src/kernel/riscv.cpp **** 
 852              		.loc 1 283 94
 853 0420 13850400 		mv	a0,s1
 854 0424 97000000 		call	_ZN3TCBdlEPv@plt
 854      E7800000 
 855              	.LVL58:
 856 042c 13050900 		mv	a0,s2
 857              	.LEHB6:
GAS LISTING /tmp/ccyPB5Cy.s 			page 33


 858 0430 97000000 		call	_Unwind_Resume@plt
 858      E7800000 
 859              	.LVL59:
 860              	.LEHE6:
 861              		.cfi_endproc
 862              	.LFE50:
 863              		.section	.gcc_except_table
 864              	.LLSDA50:
 865 0038 FF       		.byte	0xff
 866 0039 FF       		.byte	0xff
 867 003a 03       		.byte	0x3
 868 003b 27       		.byte	0x27
 869 003c 00000000 		.4byte	.LEHB4-.LFB50
 870 0040 00000000 		.4byte	.LEHE4-.LEHB4
 871 0044 00000000 		.4byte	0
 872 0048 00       		.byte	0
 873 0049 00000000 		.4byte	.LEHB5-.LFB50
 874 004d 00000000 		.4byte	.LEHE5-.LEHB5
 875 0051 00000000 		.4byte	.L45-.LFB50
 876 0055 00       		.byte	0
 877 0056 00000000 		.4byte	.LEHB6-.LFB50
 878 005a 00000000 		.4byte	.LEHE6-.LEHB6
 879 005e 00000000 		.4byte	0
 880 0062 00       		.byte	0
 881              		.text
 883              		.align	2
 884              		.globl	_ZN5RiscV25executeThreadStartSyscallEv
 886              	_ZN5RiscV25executeThreadStartSyscallEv:
 887              	.LFB51:
 301:src/kernel/riscv.cpp **** 
 888              		.loc 1 301 40 is_stmt 1
 889              		.cfi_startproc
 890 0438 130101FF 		addi	sp,sp,-16
 891              		.cfi_def_cfa_offset 16
 892 043c 23341100 		sd	ra,8(sp)
 893 0440 23308100 		sd	s0,0(sp)
 894              		.cfi_offset 1, -8
 895              		.cfi_offset 8, -16
 896 0444 13040101 		addi	s0,sp,16
 897              		.cfi_def_cfa 8, 0
 304:src/kernel/riscv.cpp **** 
 898              		.loc 1 304 5
 306:src/kernel/riscv.cpp **** 
 899              		.loc 1 306 5
 306:src/kernel/riscv.cpp **** 
 900              		.loc 1 306 55 is_stmt 0
 901              	#APP
 902              	# 306 "src/kernel/riscv.cpp" 1
 903              		mv a0, a1
 904              	# 0 "" 2
 905              	.LVL60:
 309:src/kernel/riscv.cpp **** 
 906              		.loc 1 309 5 is_stmt 1
 311:src/kernel/riscv.cpp **** 
 907              		.loc 1 311 5
 313:src/kernel/riscv.cpp ****         status = -1;
 908              		.loc 1 313 5
GAS LISTING /tmp/ccyPB5Cy.s 			page 34


 909              	#NO_APP
 910 044c 63120502 		bnez	a0,.L52
 314:src/kernel/riscv.cpp ****     }
 911              		.loc 1 314 16 is_stmt 0
 912 0450 9307F0FF 		li	a5,-1
 913              	.LVL61:
 914              	.L49:
 323:src/kernel/riscv.cpp **** 
 915              		.loc 1 323 5 is_stmt 1
 323:src/kernel/riscv.cpp **** 
 916              		.loc 1 323 54 is_stmt 0
 917              	#APP
 918              	# 323 "src/kernel/riscv.cpp" 1
 325:src/kernel/riscv.cpp **** }
 919              		mv a0, a5
 920              	# 0 "" 2
 921              		.loc 1 325 5 is_stmt 1
 325:src/kernel/riscv.cpp **** }
 922              		.loc 1 325 28 is_stmt 0
 923              	#NO_APP
 924 0458 97000000 		call	_ZN5RiscV16saveA0toSscratchEv
 924      E7800000 
 925              	.LVL62:
 326:src/kernel/riscv.cpp **** 
 926              		.loc 1 326 1
 927 0460 83308100 		ld	ra,8(sp)
 928              		.cfi_remember_state
 929              		.cfi_restore 1
 930 0464 03340100 		ld	s0,0(sp)
 931              		.cfi_restore 8
 932              		.cfi_def_cfa 2, 16
 933 0468 13010101 		addi	sp,sp,16
 934              		.cfi_def_cfa_offset 0
 935 046c 67800000 		jr	ra
 936              	.LVL63:
 937              	.L52:
 938              		.cfi_restore_state
 317:src/kernel/riscv.cpp ****         Scheduler::put(tcb);
 939              		.loc 1 317 9 is_stmt 1
 317:src/kernel/riscv.cpp ****         Scheduler::put(tcb);
 940              		.loc 1 317 21 is_stmt 0
 941 0470 93071000 		li	a5,1
 942 0474 2328F500 		sw	a5,16(a0)
 318:src/kernel/riscv.cpp ****         TCB::dispatch();
 943              		.loc 1 318 9 is_stmt 1
 318:src/kernel/riscv.cpp ****         TCB::dispatch();
 944              		.loc 1 318 23 is_stmt 0
 945 0478 97000000 		call	_ZN9Scheduler3putEP3TCB@plt
 945      E7800000 
 946              	.LVL64:
 319:src/kernel/riscv.cpp ****     }
 947              		.loc 1 319 9 is_stmt 1
 319:src/kernel/riscv.cpp ****     }
 948              		.loc 1 319 22 is_stmt 0
 949 0480 97000000 		call	_ZN3TCB8dispatchEv@plt
 949      E7800000 
 950              	.LVL65:
GAS LISTING /tmp/ccyPB5Cy.s 			page 35


 311:src/kernel/riscv.cpp **** 
 951              		.loc 1 311 12
 952 0488 93070000 		li	a5,0
 953 048c 6FF09FFC 		j	.L49
 954              		.cfi_endproc
 955              	.LFE51:
 957              		.align	2
 958              		.globl	_ZN5RiscV24executeThreadExitSyscallEv
 960              	_ZN5RiscV24executeThreadExitSyscallEv:
 961              	.LFB52:
 328:src/kernel/riscv.cpp **** 
 962              		.loc 1 328 40 is_stmt 1
 963              		.cfi_startproc
 964 0490 130101FF 		addi	sp,sp,-16
 965              		.cfi_def_cfa_offset 16
 966 0494 23341100 		sd	ra,8(sp)
 967 0498 23308100 		sd	s0,0(sp)
 968              		.cfi_offset 1, -8
 969              		.cfi_offset 8, -16
 970 049c 13040101 		addi	s0,sp,16
 971              		.cfi_def_cfa 8, 0
 331:src/kernel/riscv.cpp **** 
 972              		.loc 1 331 5
 973              	.LVL66:
 334:src/kernel/riscv.cpp ****         status = -1;
 974              		.loc 1 334 5
 975              	.LBB111:
 334:src/kernel/riscv.cpp ****         status = -1;
 976              		.loc 1 334 21 is_stmt 0
 977 04a0 97070000 		la	a5,_ZN3TCB7runningE
 977      83B70700 
 978 04a8 83B70700 		ld	a5,0(a5)
 334:src/kernel/riscv.cpp ****         status = -1;
 979              		.loc 1 334 5
 980 04ac 638A0702 		beqz	a5,.L55
 981              	.LBB112:
 338:src/kernel/riscv.cpp ****         old->status = TCB::Status::FINISHED;
 982              		.loc 1 338 9 is_stmt 1
 983              	.LVL67:
 339:src/kernel/riscv.cpp ****         TCB::dispatch();
 984              		.loc 1 339 9
 339:src/kernel/riscv.cpp ****         TCB::dispatch();
 985              		.loc 1 339 21 is_stmt 0
 986 04b0 13072000 		li	a4,2
 987 04b4 23A8E700 		sw	a4,16(a5)
 340:src/kernel/riscv.cpp ****     }
 988              		.loc 1 340 9 is_stmt 1
 340:src/kernel/riscv.cpp ****     }
 989              		.loc 1 340 22 is_stmt 0
 990 04b8 97000000 		call	_ZN3TCB8dispatchEv@plt
 990      E7800000 
 991              	.LVL68:
 992              	.LBE112:
 993              	.LBE111:
 331:src/kernel/riscv.cpp **** 
 994              		.loc 1 331 12
 995 04c0 93070000 		li	a5,0
GAS LISTING /tmp/ccyPB5Cy.s 			page 36


 996              	.L54:
 997              	.LVL69:
 343:src/kernel/riscv.cpp **** 
 998              		.loc 1 343 5 is_stmt 1
 343:src/kernel/riscv.cpp **** 
 999              		.loc 1 343 54 is_stmt 0
 1000              	#APP
 1001              	# 343 "src/kernel/riscv.cpp" 1
 345:src/kernel/riscv.cpp **** }
 1002              		mv a0, a5
 1003              	# 0 "" 2
 1004              		.loc 1 345 5 is_stmt 1
 345:src/kernel/riscv.cpp **** }
 1005              		.loc 1 345 28 is_stmt 0
 1006              	#NO_APP
 1007 04c8 97000000 		call	_ZN5RiscV16saveA0toSscratchEv
 1007      E7800000 
 1008              	.LVL70:
 346:src/kernel/riscv.cpp **** 
 1009              		.loc 1 346 1
 1010 04d0 83308100 		ld	ra,8(sp)
 1011              		.cfi_remember_state
 1012              		.cfi_restore 1
 1013 04d4 03340100 		ld	s0,0(sp)
 1014              		.cfi_restore 8
 1015              		.cfi_def_cfa 2, 16
 1016 04d8 13010101 		addi	sp,sp,16
 1017              		.cfi_def_cfa_offset 0
 1018 04dc 67800000 		jr	ra
 1019              	.LVL71:
 1020              	.L55:
 1021              		.cfi_restore_state
 1022              	.LBB113:
 335:src/kernel/riscv.cpp ****     }
 1023              		.loc 1 335 16
 1024 04e0 9307F0FF 		li	a5,-1
 1025 04e4 6FF01FFE 		j	.L54
 1026              	.LBE113:
 1027              		.cfi_endproc
 1028              	.LFE52:
 1030              		.align	2
 1031              		.globl	_ZN5RiscV21executeSemOpenSyscallEv
 1033              	_ZN5RiscV21executeSemOpenSyscallEv:
 1034              	.LFB54:
 356:src/kernel/riscv.cpp **** 
 1035              		.loc 1 356 37 is_stmt 1
 1036              		.cfi_startproc
 1037              		.cfi_personality 0x9b,DW.ref.__gxx_personality_v0
 1038              		.cfi_lsda 0x1b,.LLSDA54
 1039 04e8 130101FD 		addi	sp,sp,-48
 1040              		.cfi_def_cfa_offset 48
 1041 04ec 23341102 		sd	ra,40(sp)
 1042 04f0 23308102 		sd	s0,32(sp)
 1043 04f4 233C9100 		sd	s1,24(sp)
 1044 04f8 23382101 		sd	s2,16(sp)
 1045 04fc 23343101 		sd	s3,8(sp)
 1046              		.cfi_offset 1, -8
GAS LISTING /tmp/ccyPB5Cy.s 			page 37


 1047              		.cfi_offset 8, -16
 1048              		.cfi_offset 9, -24
 1049              		.cfi_offset 18, -32
 1050              		.cfi_offset 19, -40
 1051 0500 13040103 		addi	s0,sp,48
 1052              		.cfi_def_cfa 8, 0
 359:src/kernel/riscv.cpp **** 
 1053              		.loc 1 359 5
 361:src/kernel/riscv.cpp ****     asm("mv %[iinit], a2" : [iinit] "=r"(iinit));
 1054              		.loc 1 361 5
 361:src/kernel/riscv.cpp ****     asm("mv %[iinit], a2" : [iinit] "=r"(iinit));
 1055              		.loc 1 361 55 is_stmt 0
 1056              	#APP
 1057              	# 361 "src/kernel/riscv.cpp" 1
 1058              		mv s2, a1
 1059              	# 0 "" 2
 1060              	.LVL72:
 362:src/kernel/riscv.cpp **** 
 1061              		.loc 1 362 5 is_stmt 1
 362:src/kernel/riscv.cpp **** 
 1062              		.loc 1 362 49 is_stmt 0
 1063              	# 362 "src/kernel/riscv.cpp" 1
 1064              		mv s3, a2
 1065              	# 0 "" 2
 1066              	.LVL73:
 365:src/kernel/riscv.cpp **** 
 1067              		.loc 1 365 5 is_stmt 1
 365:src/kernel/riscv.cpp **** 
 1068              		.loc 1 365 29 is_stmt 0
 1069              	#NO_APP
 1070 050c 13058001 		li	a0,24
 1071              	.LEHB7:
 1072 0510 97000000 		call	_ZN3SCBnwEm@plt
 1072      E7800000 
 1073              	.LVL74:
 1074              	.LEHE7:
 1075 0518 93040500 		mv	s1,a0
 1076 051c 63080500 		beqz	a0,.L58
 365:src/kernel/riscv.cpp **** 
 1077              		.loc 1 365 29 discriminator 1
 1078 0520 93850900 		mv	a1,s3
 1079              	.LEHB8:
 1080 0524 97000000 		call	_ZN3SCBC1Em@plt
 1080      E7800000 
 1081              	.LVL75:
 1082              	.LEHE8:
 1083              	.L58:
 367:src/kernel/riscv.cpp **** 
 1084              		.loc 1 367 5 is_stmt 1 discriminator 6
 369:src/kernel/riscv.cpp ****         status = -1;
 1085              		.loc 1 369 5 discriminator 6
 1086 052c 638A0402 		beqz	s1,.L61
 373:src/kernel/riscv.cpp ****     }
 1087              		.loc 1 373 9
 373:src/kernel/riscv.cpp ****     }
 1088              		.loc 1 373 27 is_stmt 0
 1089 0530 23309900 		sd	s1,0(s2)
GAS LISTING /tmp/ccyPB5Cy.s 			page 38


 367:src/kernel/riscv.cpp **** 
 1090              		.loc 1 367 12
 1091 0534 93070000 		li	a5,0
 1092              	.L59:
 1093              	.LVL76:
 377:src/kernel/riscv.cpp **** 
 1094              		.loc 1 377 5 is_stmt 1
 377:src/kernel/riscv.cpp **** 
 1095              		.loc 1 377 54 is_stmt 0
 1096              	#APP
 1097              	# 377 "src/kernel/riscv.cpp" 1
 379:src/kernel/riscv.cpp **** 
 1098              		mv a0, a5
 1099              	# 0 "" 2
 1100              		.loc 1 379 5 is_stmt 1
 379:src/kernel/riscv.cpp **** 
 1101              		.loc 1 379 28 is_stmt 0
 1102              	#NO_APP
 1103 053c 97000000 		call	_ZN5RiscV16saveA0toSscratchEv
 1103      E7800000 
 1104              	.LVL77:
 381:src/kernel/riscv.cpp **** 
 1105              		.loc 1 381 1
 1106 0544 83308102 		ld	ra,40(sp)
 1107              		.cfi_remember_state
 1108              		.cfi_restore 1
 1109 0548 03340102 		ld	s0,32(sp)
 1110              		.cfi_restore 8
 1111              		.cfi_def_cfa 2, 48
 1112 054c 83348101 		ld	s1,24(sp)
 1113              		.cfi_restore 9
 1114              	.LVL78:
 1115 0550 03390101 		ld	s2,16(sp)
 1116              		.cfi_restore 18
 1117              	.LVL79:
 1118 0554 83398100 		ld	s3,8(sp)
 1119              		.cfi_restore 19
 1120              	.LVL80:
 1121 0558 13010103 		addi	sp,sp,48
 1122              		.cfi_def_cfa_offset 0
 1123 055c 67800000 		jr	ra
 1124              	.LVL81:
 1125              	.L61:
 1126              		.cfi_restore_state
 370:src/kernel/riscv.cpp ****     }
 1127              		.loc 1 370 16
 1128 0560 9307F0FF 		li	a5,-1
 1129 0564 6FF05FFD 		j	.L59
 1130              	.LVL82:
 1131              	.L62:
 1132 0568 13090500 		mv	s2,a0
 1133              	.LVL83:
 365:src/kernel/riscv.cpp **** 
 1134              		.loc 1 365 29
 1135 056c 13850400 		mv	a0,s1
 1136 0570 97000000 		call	_ZN3SCBdlEPv@plt
 1136      E7800000 
GAS LISTING /tmp/ccyPB5Cy.s 			page 39


 1137              	.LVL84:
 1138 0578 13050900 		mv	a0,s2
 1139              	.LEHB9:
 1140 057c 97000000 		call	_Unwind_Resume@plt
 1140      E7800000 
 1141              	.LVL85:
 1142              	.LEHE9:
 1143              		.cfi_endproc
 1144              	.LFE54:
 1145              		.section	.gcc_except_table
 1146              	.LLSDA54:
 1147 0063 FF       		.byte	0xff
 1148 0064 FF       		.byte	0xff
 1149 0065 03       		.byte	0x3
 1150 0066 27       		.byte	0x27
 1151 0067 00000000 		.4byte	.LEHB7-.LFB54
 1152 006b 00000000 		.4byte	.LEHE7-.LEHB7
 1153 006f 00000000 		.4byte	0
 1154 0073 00       		.byte	0
 1155 0074 00000000 		.4byte	.LEHB8-.LFB54
 1156 0078 00000000 		.4byte	.LEHE8-.LEHB8
 1157 007c 00000000 		.4byte	.L62-.LFB54
 1158 0080 00       		.byte	0
 1159 0081 00000000 		.4byte	.LEHB9-.LFB54
 1160 0085 00000000 		.4byte	.LEHE9-.LEHB9
 1161 0089 00000000 		.4byte	0
 1162 008d 00       		.byte	0
 1163              		.text
 1165              		.align	2
 1166              		.globl	_ZN5RiscV22executeSemCloseSyscallEv
 1168              	_ZN5RiscV22executeSemCloseSyscallEv:
 1169              	.LFB55:
 383:src/kernel/riscv.cpp **** 
 1170              		.loc 1 383 38 is_stmt 1
 1171              		.cfi_startproc
 1172 0584 130101FE 		addi	sp,sp,-32
 1173              		.cfi_def_cfa_offset 32
 1174 0588 233C1100 		sd	ra,24(sp)
 1175 058c 23388100 		sd	s0,16(sp)
 1176 0590 23349100 		sd	s1,8(sp)
 1177              		.cfi_offset 1, -8
 1178              		.cfi_offset 8, -16
 1179              		.cfi_offset 9, -24
 1180 0594 13040102 		addi	s0,sp,32
 1181              		.cfi_def_cfa 8, 0
 386:src/kernel/riscv.cpp **** 
 1182              		.loc 1 386 5
 388:src/kernel/riscv.cpp **** 
 1183              		.loc 1 388 5
 388:src/kernel/riscv.cpp **** 
 1184              		.loc 1 388 55 is_stmt 0
 1185              	#APP
 1186              	# 388 "src/kernel/riscv.cpp" 1
 1187              		mv s1, a1
 1188              	# 0 "" 2
 1189              	.LVL86:
 391:src/kernel/riscv.cpp ****     uint64 status = 0;
GAS LISTING /tmp/ccyPB5Cy.s 			page 40


 1190              		.loc 1 391 5 is_stmt 1
 392:src/kernel/riscv.cpp **** 
 1191              		.loc 1 392 5
 394:src/kernel/riscv.cpp ****         status = -1;
 1192              		.loc 1 394 5
 1193              	#NO_APP
 1194 059c 63940402 		bnez	s1,.L69
 395:src/kernel/riscv.cpp ****     }
 1195              		.loc 1 395 16 is_stmt 0
 1196 05a0 9307F0FF 		li	a5,-1
 1197              	.L66:
 1198              	.LVL87:
 401:src/kernel/riscv.cpp **** 
 1199              		.loc 1 401 5 is_stmt 1
 401:src/kernel/riscv.cpp **** 
 1200              		.loc 1 401 54 is_stmt 0
 1201              	#APP
 1202              	# 401 "src/kernel/riscv.cpp" 1
 403:src/kernel/riscv.cpp **** }
 1203              		mv a0, a5
 1204              	# 0 "" 2
 1205              		.loc 1 403 5 is_stmt 1
 403:src/kernel/riscv.cpp **** }
 1206              		.loc 1 403 28 is_stmt 0
 1207              	#NO_APP
 1208 05a8 97000000 		call	_ZN5RiscV16saveA0toSscratchEv
 1208      E7800000 
 1209              	.LVL88:
 404:src/kernel/riscv.cpp **** 
 1210              		.loc 1 404 1
 1211 05b0 83308101 		ld	ra,24(sp)
 1212              		.cfi_remember_state
 1213              		.cfi_restore 1
 1214 05b4 03340101 		ld	s0,16(sp)
 1215              		.cfi_restore 8
 1216              		.cfi_def_cfa 2, 32
 1217 05b8 83348100 		ld	s1,8(sp)
 1218              		.cfi_restore 9
 1219              	.LVL89:
 1220 05bc 13010102 		addi	sp,sp,32
 1221              		.cfi_def_cfa_offset 0
 1222 05c0 67800000 		jr	ra
 1223              	.LVL90:
 1224              	.L69:
 1225              		.cfi_restore_state
 398:src/kernel/riscv.cpp **** 
 1226              		.loc 1 398 9 is_stmt 1 discriminator 1
 398:src/kernel/riscv.cpp **** 
 1227              		.loc 1 398 22 is_stmt 0 discriminator 1
 1228 05c4 13850400 		mv	a0,s1
 1229 05c8 97000000 		call	_ZN3SCBD1Ev@plt
 1229      E7800000 
 1230              	.LVL91:
 1231 05d0 13850400 		mv	a0,s1
 1232 05d4 97000000 		call	_ZN3SCBdlEPv@plt
 1232      E7800000 
 1233              	.LVL92:
GAS LISTING /tmp/ccyPB5Cy.s 			page 41


 392:src/kernel/riscv.cpp **** 
 1234              		.loc 1 392 12 discriminator 1
 1235 05dc 93070000 		li	a5,0
 1236 05e0 6FF05FFC 		j	.L66
 1237              		.cfi_endproc
 1238              	.LFE55:
 1240              		.align	2
 1241              		.globl	_ZN5RiscV21executeSemWaitSyscallEv
 1243              	_ZN5RiscV21executeSemWaitSyscallEv:
 1244              	.LFB56:
 406:src/kernel/riscv.cpp **** 
 1245              		.loc 1 406 37 is_stmt 1
 1246              		.cfi_startproc
 1247 05e4 130101FF 		addi	sp,sp,-16
 1248              		.cfi_def_cfa_offset 16
 1249 05e8 23341100 		sd	ra,8(sp)
 1250 05ec 23308100 		sd	s0,0(sp)
 1251              		.cfi_offset 1, -8
 1252              		.cfi_offset 8, -16
 1253 05f0 13040101 		addi	s0,sp,16
 1254              		.cfi_def_cfa 8, 0
 409:src/kernel/riscv.cpp **** 
 1255              		.loc 1 409 5
 411:src/kernel/riscv.cpp **** 
 1256              		.loc 1 411 5
 411:src/kernel/riscv.cpp **** 
 1257              		.loc 1 411 55 is_stmt 0
 1258              	#APP
 1259              	# 411 "src/kernel/riscv.cpp" 1
 1260              		mv a0, a1
 1261              	# 0 "" 2
 1262              	.LVL93:
 413:src/kernel/riscv.cpp ****     //call wait method on ihandle scb
 1263              		.loc 1 413 5 is_stmt 1
 416:src/kernel/riscv.cpp ****         ((SCB*)ihandle)->wait();
 1264              		.loc 1 416 5
 1265              	#NO_APP
 1266 05f8 631C0502 		bnez	a0,.L75
 1267              	.LVL94:
 1268              	.L71:
 421:src/kernel/riscv.cpp ****         status = -1;
 1269              		.loc 1 421 5
 421:src/kernel/riscv.cpp ****         status = -1;
 1270              		.loc 1 421 22 is_stmt 0
 1271 05fc 97070000 		la	a5,_ZN3TCB7runningE
 1271      83B70700 
 1272 0604 83B70700 		ld	a5,0(a5)
 1273 0608 83B70706 		ld	a5,96(a5)
 421:src/kernel/riscv.cpp ****         status = -1;
 1274              		.loc 1 421 5
 1275 060c 63880702 		beqz	a5,.L73
 422:src/kernel/riscv.cpp ****     else
 1276              		.loc 1 422 16
 1277 0610 9307F0FF 		li	a5,-1
 1278              	.L72:
 1279              	.LVL95:
 427:src/kernel/riscv.cpp **** 
GAS LISTING /tmp/ccyPB5Cy.s 			page 42


 1280              		.loc 1 427 5 is_stmt 1
 427:src/kernel/riscv.cpp **** 
 1281              		.loc 1 427 54 is_stmt 0
 1282              	#APP
 1283              	# 427 "src/kernel/riscv.cpp" 1
 429:src/kernel/riscv.cpp **** 
 1284              		mv a0, a5
 1285              	# 0 "" 2
 1286              		.loc 1 429 5 is_stmt 1
 429:src/kernel/riscv.cpp **** 
 1287              		.loc 1 429 28 is_stmt 0
 1288              	#NO_APP
 1289 0618 97000000 		call	_ZN5RiscV16saveA0toSscratchEv
 1289      E7800000 
 1290              	.LVL96:
 431:src/kernel/riscv.cpp **** 
 1291              		.loc 1 431 1
 1292 0620 83308100 		ld	ra,8(sp)
 1293              		.cfi_remember_state
 1294              		.cfi_restore 1
 1295 0624 03340100 		ld	s0,0(sp)
 1296              		.cfi_restore 8
 1297              		.cfi_def_cfa 2, 16
 1298 0628 13010101 		addi	sp,sp,16
 1299              		.cfi_def_cfa_offset 0
 1300 062c 67800000 		jr	ra
 1301              	.LVL97:
 1302              	.L75:
 1303              		.cfi_restore_state
 417:src/kernel/riscv.cpp ****     else
 1304              		.loc 1 417 9 is_stmt 1
 417:src/kernel/riscv.cpp ****     else
 1305              		.loc 1 417 30 is_stmt 0
 1306 0630 97000000 		call	_ZN3SCB4waitEv@plt
 1306      E7800000 
 1307              	.LVL98:
 1308 0638 6FF05FFC 		j	.L71
 1309              	.LVL99:
 1310              	.L73:
 424:src/kernel/riscv.cpp **** 
 1311              		.loc 1 424 16
 1312 063c 93070000 		li	a5,0
 1313 0640 6FF05FFD 		j	.L72
 1314              		.cfi_endproc
 1315              	.LFE56:
 1317              		.align	2
 1318              		.globl	_ZN5RiscV23executeSemSignalSyscallEv
 1320              	_ZN5RiscV23executeSemSignalSyscallEv:
 1321              	.LFB57:
 433:src/kernel/riscv.cpp **** 
 1322              		.loc 1 433 39 is_stmt 1
 1323              		.cfi_startproc
 1324 0644 130101FF 		addi	sp,sp,-16
 1325              		.cfi_def_cfa_offset 16
 1326 0648 23341100 		sd	ra,8(sp)
 1327 064c 23308100 		sd	s0,0(sp)
 1328              		.cfi_offset 1, -8
GAS LISTING /tmp/ccyPB5Cy.s 			page 43


 1329              		.cfi_offset 8, -16
 1330 0650 13040101 		addi	s0,sp,16
 1331              		.cfi_def_cfa 8, 0
 436:src/kernel/riscv.cpp **** 
 1332              		.loc 1 436 5
 438:src/kernel/riscv.cpp **** 
 1333              		.loc 1 438 5
 438:src/kernel/riscv.cpp **** 
 1334              		.loc 1 438 55 is_stmt 0
 1335              	#APP
 1336              	# 438 "src/kernel/riscv.cpp" 1
 1337              		mv a0, a1
 1338              	# 0 "" 2
 1339              	.LVL100:
 442:src/kernel/riscv.cpp **** 
 1340              		.loc 1 442 5 is_stmt 1
 444:src/kernel/riscv.cpp ****         ((SCB*)ihandle)->signal();
 1341              		.loc 1 444 5
 1342              	#NO_APP
 1343 0658 63120502 		bnez	a0,.L80
 447:src/kernel/riscv.cpp **** 
 1344              		.loc 1 447 16 is_stmt 0
 1345 065c 9307F0FF 		li	a5,-1
 1346              	.LVL101:
 1347              	.L77:
 450:src/kernel/riscv.cpp **** 
 1348              		.loc 1 450 5 is_stmt 1
 450:src/kernel/riscv.cpp **** 
 1349              		.loc 1 450 54 is_stmt 0
 1350              	#APP
 1351              	# 450 "src/kernel/riscv.cpp" 1
 452:src/kernel/riscv.cpp **** }
 1352              		mv a0, a5
 1353              	# 0 "" 2
 1354              		.loc 1 452 5 is_stmt 1
 452:src/kernel/riscv.cpp **** }
 1355              		.loc 1 452 28 is_stmt 0
 1356              	#NO_APP
 1357 0664 97000000 		call	_ZN5RiscV16saveA0toSscratchEv
 1357      E7800000 
 1358              	.LVL102:
 453:src/kernel/riscv.cpp **** 
 1359              		.loc 1 453 1
 1360 066c 83308100 		ld	ra,8(sp)
 1361              		.cfi_remember_state
 1362              		.cfi_restore 1
 1363 0670 03340100 		ld	s0,0(sp)
 1364              		.cfi_restore 8
 1365              		.cfi_def_cfa 2, 16
 1366 0674 13010101 		addi	sp,sp,16
 1367              		.cfi_def_cfa_offset 0
 1368 0678 67800000 		jr	ra
 1369              	.LVL103:
 1370              	.L80:
 1371              		.cfi_restore_state
 445:src/kernel/riscv.cpp ****     else
 1372              		.loc 1 445 9 is_stmt 1
GAS LISTING /tmp/ccyPB5Cy.s 			page 44


 445:src/kernel/riscv.cpp ****     else
 1373              		.loc 1 445 32 is_stmt 0
 1374 067c 97000000 		call	_ZN3SCB6signalEv@plt
 1374      E7800000 
 1375              	.LVL104:
 442:src/kernel/riscv.cpp **** 
 1376              		.loc 1 442 12
 1377 0684 93070000 		li	a5,0
 1378 0688 6FF09FFD 		j	.L77
 1379              		.cfi_endproc
 1380              	.LFE57:
 1382              		.align	2
 1383              		.globl	_ZN5RiscV23executeTimeSleepSyscallEv
 1385              	_ZN5RiscV23executeTimeSleepSyscallEv:
 1386              	.LFB58:
 455:src/kernel/riscv.cpp **** 
 1387              		.loc 1 455 39 is_stmt 1
 1388              		.cfi_startproc
 1389 068c 130101FE 		addi	sp,sp,-32
 1390              		.cfi_def_cfa_offset 32
 1391 0690 233C1100 		sd	ra,24(sp)
 1392 0694 23388100 		sd	s0,16(sp)
 1393 0698 23349100 		sd	s1,8(sp)
 1394              		.cfi_offset 1, -8
 1395              		.cfi_offset 8, -16
 1396              		.cfi_offset 9, -24
 1397 069c 13040102 		addi	s0,sp,32
 1398              		.cfi_def_cfa 8, 0
 458:src/kernel/riscv.cpp **** 
 1399              		.loc 1 458 5
 460:src/kernel/riscv.cpp **** 
 1400              		.loc 1 460 5
 460:src/kernel/riscv.cpp **** 
 1401              		.loc 1 460 49 is_stmt 0
 1402              	#APP
 1403              	# 460 "src/kernel/riscv.cpp" 1
 464:src/kernel/riscv.cpp ****     tcb->sleepTime = globalTime;
 1404              		mv a4, a1
 1405              	# 0 "" 2
 1406              		.loc 1 464 5 is_stmt 1
 464:src/kernel/riscv.cpp ****     tcb->sleepTime = globalTime;
 1407              		.loc 1 464 10 is_stmt 0
 1408              	#NO_APP
 1409 06a4 97070000 		la	a5,_ZN3TCB7runningE
 1409      83B70700 
 1410 06ac 83B40700 		ld	s1,0(a5)
 1411              	.LVL105:
 465:src/kernel/riscv.cpp ****     tcb->wakeTime = globalTime + itime;
 1412              		.loc 1 465 5 is_stmt 1
 465:src/kernel/riscv.cpp ****     tcb->wakeTime = globalTime + itime;
 1413              		.loc 1 465 20 is_stmt 0
 1414 06b0 97070000 		ld	a5,.LANCHOR0+8
 1414      83B70700 
 1415 06b8 23B8F404 		sd	a5,80(s1)
 466:src/kernel/riscv.cpp **** 
 1416              		.loc 1 466 5 is_stmt 1
 466:src/kernel/riscv.cpp **** 
GAS LISTING /tmp/ccyPB5Cy.s 			page 45


 1417              		.loc 1 466 32 is_stmt 0
 1418 06bc B387E700 		add	a5,a5,a4
 466:src/kernel/riscv.cpp **** 
 1419              		.loc 1 466 19
 1420 06c0 23BCF404 		sd	a5,88(s1)
 468:src/kernel/riscv.cpp **** 
 1421              		.loc 1 468 5 is_stmt 1
 468:src/kernel/riscv.cpp **** 
 1422              		.loc 1 468 21 is_stmt 0
 1423 06c4 13850400 		mv	a0,s1
 1424 06c8 97000000 		call	_ZN9Scheduler5sleepEP3TCB@plt
 1424      E7800000 
 1425              	.LVL106:
 470:src/kernel/riscv.cpp **** 
 1426              		.loc 1 470 5 is_stmt 1
 470:src/kernel/riscv.cpp **** 
 1427              		.loc 1 470 17 is_stmt 0
 1428 06d0 93073000 		li	a5,3
 1429 06d4 23A8F400 		sw	a5,16(s1)
 472:src/kernel/riscv.cpp **** 
 1430              		.loc 1 472 5 is_stmt 1
 472:src/kernel/riscv.cpp **** 
 1431              		.loc 1 472 18 is_stmt 0
 1432 06d8 97000000 		call	_ZN3TCB8dispatchEv@plt
 1432      E7800000 
 1433              	.LVL107:
 474:src/kernel/riscv.cpp **** 
 1434              		.loc 1 474 5 is_stmt 1
 477:src/kernel/riscv.cpp **** 
 1435              		.loc 1 477 5
 477:src/kernel/riscv.cpp **** 
 1436              		.loc 1 477 54 is_stmt 0
 1437 06e0 93070000 		li	a5,0
 1438              	#APP
 1439              	# 477 "src/kernel/riscv.cpp" 1
 479:src/kernel/riscv.cpp **** }
 1440              		mv a0, a5
 1441              	# 0 "" 2
 1442              		.loc 1 479 5 is_stmt 1
 479:src/kernel/riscv.cpp **** }
 1443              		.loc 1 479 28 is_stmt 0
 1444              	#NO_APP
 1445 06e8 97000000 		call	_ZN5RiscV16saveA0toSscratchEv
 1445      E7800000 
 1446              	.LVL108:
 480:src/kernel/riscv.cpp **** 
 1447              		.loc 1 480 1
 1448 06f0 83308101 		ld	ra,24(sp)
 1449              		.cfi_restore 1
 1450 06f4 03340101 		ld	s0,16(sp)
 1451              		.cfi_restore 8
 1452              		.cfi_def_cfa 2, 32
 1453 06f8 83348100 		ld	s1,8(sp)
 1454              		.cfi_restore 9
 1455              	.LVL109:
 1456 06fc 13010102 		addi	sp,sp,32
 1457              		.cfi_def_cfa_offset 0
GAS LISTING /tmp/ccyPB5Cy.s 			page 46


 1458 0700 67800000 		jr	ra
 1459              		.cfi_endproc
 1460              	.LFE58:
 1462              		.align	2
 1463              		.globl	_ZN5RiscV18executeGetcSyscallEv
 1465              	_ZN5RiscV18executeGetcSyscallEv:
 1466              	.LFB59:
 482:src/kernel/riscv.cpp **** 
 1467              		.loc 1 482 34 is_stmt 1
 1468              		.cfi_startproc
 1469 0704 130101FE 		addi	sp,sp,-32
 1470              		.cfi_def_cfa_offset 32
 1471 0708 233C1100 		sd	ra,24(sp)
 1472 070c 23388100 		sd	s0,16(sp)
 1473 0710 23349100 		sd	s1,8(sp)
 1474              		.cfi_offset 1, -8
 1475              		.cfi_offset 8, -16
 1476              		.cfi_offset 9, -24
 1477 0714 13040102 		addi	s0,sp,32
 1478              		.cfi_def_cfa 8, 0
 485:src/kernel/riscv.cpp ****         ConsoleUtil::pendingGetc++;
 1479              		.loc 1 485 5
 485:src/kernel/riscv.cpp ****         ConsoleUtil::pendingGetc++;
 1480              		.loc 1 485 8 is_stmt 0
 1481 0718 97070000 		lbu	a5,.LANCHOR0
 1481      83C70700 
 485:src/kernel/riscv.cpp ****         ConsoleUtil::pendingGetc++;
 1482              		.loc 1 485 5
 1483 0720 639C0700 		bnez	a5,.L84
 486:src/kernel/riscv.cpp **** 
 1484              		.loc 1 486 9 is_stmt 1
 486:src/kernel/riscv.cpp **** 
 1485              		.loc 1 486 33 is_stmt 0
 1486 0724 17070000 		la	a4,_ZN11ConsoleUtil11pendingGetcE
 1486      03370700 
 1487 072c 83370700 		ld	a5,0(a4)
 1488 0730 93871700 		addi	a5,a5,1
 1489 0734 2330F700 		sd	a5,0(a4)
 1490              	.L84:
 489:src/kernel/riscv.cpp **** 
 1491              		.loc 1 489 5 is_stmt 1
 489:src/kernel/riscv.cpp **** 
 1492              		.loc 1 489 35 is_stmt 0
 1493 0738 97000000 		call	_ZN11ConsoleUtil8getInputEv@plt
 1493      E7800000 
 1494              	.LVL110:
 1495 0740 93040500 		mv	s1,a0
 1496              	.LVL111:
 492:src/kernel/riscv.cpp ****         ConsoleUtil::putOutput(13);
 1497              		.loc 1 492 5 is_stmt 1
 1498 0744 9307D000 		li	a5,13
 1499 0748 6306F502 		beq	a0,a5,.L88
 497:src/kernel/riscv.cpp ****         ConsoleUtil::putOutput(c);
 1500              		.loc 1 497 10
 1501 074c 9307B001 		li	a5,27
 1502 0750 6310F504 		bne	a0,a5,.L89
 1503              	.LVL112:
GAS LISTING /tmp/ccyPB5Cy.s 			page 47


 1504              	.L86:
 501:src/kernel/riscv.cpp **** 
 1505              		.loc 1 501 5
 501:src/kernel/riscv.cpp **** 
 1506              		.loc 1 501 39 is_stmt 0
 1507              	#APP
 1508              	# 501 "src/kernel/riscv.cpp" 1
 503:src/kernel/riscv.cpp **** }
 1509              		mv a0, s1
 1510              	# 0 "" 2
 1511              		.loc 1 503 5 is_stmt 1
 503:src/kernel/riscv.cpp **** }
 1512              		.loc 1 503 28 is_stmt 0
 1513              	#NO_APP
 1514 0758 97000000 		call	_ZN5RiscV16saveA0toSscratchEv
 1514      E7800000 
 1515              	.LVL113:
 504:src/kernel/riscv.cpp **** 
 1516              		.loc 1 504 1
 1517 0760 83308101 		ld	ra,24(sp)
 1518              		.cfi_remember_state
 1519              		.cfi_restore 1
 1520 0764 03340101 		ld	s0,16(sp)
 1521              		.cfi_restore 8
 1522              		.cfi_def_cfa 2, 32
 1523 0768 83348100 		ld	s1,8(sp)
 1524              		.cfi_restore 9
 1525 076c 13010102 		addi	sp,sp,32
 1526              		.cfi_def_cfa_offset 0
 1527 0770 67800000 		jr	ra
 1528              	.LVL114:
 1529              	.L88:
 1530              		.cfi_restore_state
 493:src/kernel/riscv.cpp ****         ConsoleUtil::putOutput(10);
 1531              		.loc 1 493 9 is_stmt 1
 493:src/kernel/riscv.cpp ****         ConsoleUtil::putOutput(10);
 1532              		.loc 1 493 31 is_stmt 0
 1533 0774 1305D000 		li	a0,13
 1534              	.LVL115:
 1535 0778 97000000 		call	_ZN11ConsoleUtil9putOutputEc@plt
 1535      E7800000 
 1536              	.LVL116:
 494:src/kernel/riscv.cpp ****     }
 1537              		.loc 1 494 9 is_stmt 1
 494:src/kernel/riscv.cpp ****     }
 1538              		.loc 1 494 31 is_stmt 0
 1539 0780 1305A000 		li	a0,10
 1540 0784 97000000 		call	_ZN11ConsoleUtil9putOutputEc@plt
 1540      E7800000 
 1541              	.LVL117:
 1542 078c 6FF09FFC 		j	.L86
 1543              	.LVL118:
 1544              	.L89:
 498:src/kernel/riscv.cpp **** 
 1545              		.loc 1 498 9 is_stmt 1
 498:src/kernel/riscv.cpp **** 
 1546              		.loc 1 498 31 is_stmt 0
GAS LISTING /tmp/ccyPB5Cy.s 			page 48


 1547 0790 97000000 		call	_ZN11ConsoleUtil9putOutputEc@plt
 1547      E7800000 
 1548              	.LVL119:
 1549 0798 6FF0DFFB 		j	.L86
 1550              		.cfi_endproc
 1551              	.LFE59:
 1553              		.align	2
 1554              		.globl	_ZN5RiscV22executePutcUtilSyscallEv
 1556              	_ZN5RiscV22executePutcUtilSyscallEv:
 1557              	.LFB62:
 554:src/kernel/riscv.cpp ****     char c = ConsoleUtil::getOutput();
 1558              		.loc 1 554 38 is_stmt 1
 1559              		.cfi_startproc
 1560 079c 130101FF 		addi	sp,sp,-16
 1561              		.cfi_def_cfa_offset 16
 1562 07a0 23341100 		sd	ra,8(sp)
 1563 07a4 23308100 		sd	s0,0(sp)
 1564              		.cfi_offset 1, -8
 1565              		.cfi_offset 8, -16
 1566 07a8 13040101 		addi	s0,sp,16
 1567              		.cfi_def_cfa 8, 0
 555:src/kernel/riscv.cpp ****     asm("mv a0, %[c]" : : [c] "r" ((uint64)(c)) );
 1568              		.loc 1 555 5
 555:src/kernel/riscv.cpp ****     asm("mv a0, %[c]" : : [c] "r" ((uint64)(c)) );
 1569              		.loc 1 555 36 is_stmt 0
 1570 07ac 97000000 		call	_ZN11ConsoleUtil9getOutputEv@plt
 1570      E7800000 
 1571              	.LVL120:
 556:src/kernel/riscv.cpp **** 
 1572              		.loc 1 556 5 is_stmt 1
 556:src/kernel/riscv.cpp **** 
 1573              		.loc 1 556 50 is_stmt 0
 1574              	#APP
 1575              	# 556 "src/kernel/riscv.cpp" 1
 558:src/kernel/riscv.cpp **** }
 1576              		mv a0, a0
 1577              	# 0 "" 2
 1578              		.loc 1 558 5 is_stmt 1
 558:src/kernel/riscv.cpp **** }
 1579              		.loc 1 558 28 is_stmt 0
 1580              	#NO_APP
 1581 07b8 97000000 		call	_ZN5RiscV16saveA0toSscratchEv
 1581      E7800000 
 1582              	.LVL121:
 559:src/kernel/riscv.cpp **** 
 1583              		.loc 1 559 1
 1584 07c0 83308100 		ld	ra,8(sp)
 1585              		.cfi_restore 1
 1586 07c4 03340100 		ld	s0,0(sp)
 1587              		.cfi_restore 8
 1588              		.cfi_def_cfa 2, 16
 1589 07c8 13010101 		addi	sp,sp,16
 1590              		.cfi_def_cfa_offset 0
 1591 07cc 67800000 		jr	ra
 1592              		.cfi_endproc
 1593              	.LFE62:
 1595              		.align	2
GAS LISTING /tmp/ccyPB5Cy.s 			page 49


 1596              		.globl	_ZN5RiscV24executeThreadFreeSyscallEv
 1598              	_ZN5RiscV24executeThreadFreeSyscallEv:
 1599              	.LFB66:
 601:src/kernel/riscv.cpp **** 
 602:src/kernel/riscv.cpp **** //syscall to free the space that is allocated for thread
 603:src/kernel/riscv.cpp **** void RiscV::executeThreadFreeSyscall() {
 1600              		.loc 1 603 40 is_stmt 1
 1601              		.cfi_startproc
 1602 07d0 130101FE 		addi	sp,sp,-32
 1603              		.cfi_def_cfa_offset 32
 1604 07d4 233C1100 		sd	ra,24(sp)
 1605 07d8 23388100 		sd	s0,16(sp)
 1606 07dc 23349100 		sd	s1,8(sp)
 1607              		.cfi_offset 1, -8
 1608              		.cfi_offset 8, -16
 1609              		.cfi_offset 9, -24
 1610 07e0 13040102 		addi	s0,sp,32
 1611              		.cfi_def_cfa 8, 0
 604:src/kernel/riscv.cpp ****     uint64 iaddr, status;
 1612              		.loc 1 604 5
 605:src/kernel/riscv.cpp **** 
 606:src/kernel/riscv.cpp ****     asm("mv %[iaddr], a1" : [iaddr] "=r"(iaddr));
 1613              		.loc 1 606 5
 1614              		.loc 1 606 49 is_stmt 0
 1615              	#APP
 1616              	# 606 "src/kernel/riscv.cpp" 1
 607              	
 1617              		mv s1, a1
 1618              	# 0 "" 2
 1619              	.LVL122:
 608:src/kernel/riscv.cpp ****     TCB *thr = (TCB*)iaddr;
 1620              		.loc 1 608 5 is_stmt 1
 609:src/kernel/riscv.cpp **** 
 610:src/kernel/riscv.cpp ****     if(thr == nullptr)
 1621              		.loc 1 610 5
 1622              	#NO_APP
 1623 07e8 63940402 		bnez	s1,.L95
 1624              	.L93:
 1625              	.LVL123:
 611:src/kernel/riscv.cpp ****         status = -1;
 612:src/kernel/riscv.cpp ****     else {
 613:src/kernel/riscv.cpp ****         kfree(thr->stack);
 614:src/kernel/riscv.cpp ****         delete thr;
 615:src/kernel/riscv.cpp ****     }
 616:src/kernel/riscv.cpp **** 
 617:src/kernel/riscv.cpp ****     //return status
 618:src/kernel/riscv.cpp ****     asm("mv a0, %[status]" : : [status] "r" (status));
 1626              		.loc 1 618 5
 1627              		.loc 1 618 54 is_stmt 0
 1628 07ec 9307F0FF 		li	a5,-1
 1629              	#APP
 1630              	# 618 "src/kernel/riscv.cpp" 1
 619              	
 620:src/kernel/riscv.cpp ****     RiscV::saveA0toSscratch();
 1631              		mv a0, a5
 1632              	# 0 "" 2
 1633              		.loc 1 620 5 is_stmt 1
GAS LISTING /tmp/ccyPB5Cy.s 			page 50


 1634              		.loc 1 620 28 is_stmt 0
 1635              	#NO_APP
 1636 07f4 97000000 		call	_ZN5RiscV16saveA0toSscratchEv
 1636      E7800000 
 1637              	.LVL124:
 621:src/kernel/riscv.cpp **** }
 1638              		.loc 1 621 1
 1639 07fc 83308101 		ld	ra,24(sp)
 1640              		.cfi_remember_state
 1641              		.cfi_restore 1
 1642 0800 03340101 		ld	s0,16(sp)
 1643              		.cfi_restore 8
 1644              		.cfi_def_cfa 2, 32
 1645 0804 83348100 		ld	s1,8(sp)
 1646              		.cfi_restore 9
 1647              	.LVL125:
 1648 0808 13010102 		addi	sp,sp,32
 1649              		.cfi_def_cfa_offset 0
 1650 080c 67800000 		jr	ra
 1651              	.LVL126:
 1652              	.L95:
 1653              		.cfi_restore_state
 613:src/kernel/riscv.cpp ****         delete thr;
 1654              		.loc 1 613 9 is_stmt 1
 613:src/kernel/riscv.cpp ****         delete thr;
 1655              		.loc 1 613 14 is_stmt 0
 1656 0810 03B58402 		ld	a0,40(s1)
 1657 0814 97000000 		call	_Z5kfreePKv@plt
 1657      E7800000 
 1658              	.LVL127:
 614:src/kernel/riscv.cpp ****     }
 1659              		.loc 1 614 9 is_stmt 1
 614:src/kernel/riscv.cpp ****     }
 1660              		.loc 1 614 16 is_stmt 0
 1661 081c 13850400 		mv	a0,s1
 1662 0820 97000000 		call	_ZN3TCBD1Ev@plt
 1662      E7800000 
 1663              	.LVL128:
 1664 0828 13850400 		mv	a0,s1
 1665 082c 97000000 		call	_ZN3TCBdlEPv@plt
 1665      E7800000 
 1666              	.LVL129:
 1667 0834 6FF09FFB 		j	.L93
 1668              		.cfi_endproc
 1669              	.LFE66:
 1671              		.align	2
 1672              		.globl	_ZN5RiscV27executeSemaphoreFreeSyscallEv
 1674              	_ZN5RiscV27executeSemaphoreFreeSyscallEv:
 1675              	.LFB67:
 622:src/kernel/riscv.cpp **** 
 623:src/kernel/riscv.cpp **** //syscall to free the space that is allocated for semaphore
 624:src/kernel/riscv.cpp **** void RiscV::executeSemaphoreFreeSyscall() {
 1676              		.loc 1 624 43 is_stmt 1
 1677              		.cfi_startproc
 1678 0838 130101FE 		addi	sp,sp,-32
 1679              		.cfi_def_cfa_offset 32
 1680 083c 233C1100 		sd	ra,24(sp)
GAS LISTING /tmp/ccyPB5Cy.s 			page 51


 1681 0840 23388100 		sd	s0,16(sp)
 1682 0844 23349100 		sd	s1,8(sp)
 1683              		.cfi_offset 1, -8
 1684              		.cfi_offset 8, -16
 1685              		.cfi_offset 9, -24
 1686 0848 13040102 		addi	s0,sp,32
 1687              		.cfi_def_cfa 8, 0
 625:src/kernel/riscv.cpp ****     uint64 iaddr, status;
 1688              		.loc 1 625 5
 626:src/kernel/riscv.cpp **** 
 627:src/kernel/riscv.cpp ****     //call internal allocator and free memory which iaddr points to
 628:src/kernel/riscv.cpp ****     asm("mv %[iaddr], a1" : [iaddr] "=r"(iaddr));
 1689              		.loc 1 628 5
 1690              		.loc 1 628 49 is_stmt 0
 1691              	#APP
 1692              	# 628 "src/kernel/riscv.cpp" 1
 629              	
 1693              		mv s1, a1
 1694              	# 0 "" 2
 1695              	.LVL130:
 630:src/kernel/riscv.cpp ****     SCB *scb = (SCB*)iaddr;
 1696              		.loc 1 630 5 is_stmt 1
 631:src/kernel/riscv.cpp **** 
 632:src/kernel/riscv.cpp ****     if(scb == nullptr){
 1697              		.loc 1 632 5
 1698              	#NO_APP
 1699 0850 63940402 		bnez	s1,.L99
 1700              	.L97:
 1701              	.LVL131:
 633:src/kernel/riscv.cpp ****         status = -1;
 634:src/kernel/riscv.cpp ****     }
 635:src/kernel/riscv.cpp ****     else
 636:src/kernel/riscv.cpp ****         delete scb;
 637:src/kernel/riscv.cpp **** 
 638:src/kernel/riscv.cpp ****     //return status
 639:src/kernel/riscv.cpp ****     asm("mv a0, %[status]" : : [status] "r" (status));
 1702              		.loc 1 639 5
 1703              		.loc 1 639 54 is_stmt 0
 1704 0854 9307F0FF 		li	a5,-1
 1705              	#APP
 1706              	# 639 "src/kernel/riscv.cpp" 1
 640              	
 641:src/kernel/riscv.cpp ****     RiscV::saveA0toSscratch();
 1707              		mv a0, a5
 1708              	# 0 "" 2
 1709              		.loc 1 641 5 is_stmt 1
 1710              		.loc 1 641 28 is_stmt 0
 1711              	#NO_APP
 1712 085c 97000000 		call	_ZN5RiscV16saveA0toSscratchEv
 1712      E7800000 
 1713              	.LVL132:
 642:src/kernel/riscv.cpp **** }
 1714              		.loc 1 642 1
 1715 0864 83308101 		ld	ra,24(sp)
 1716              		.cfi_remember_state
 1717              		.cfi_restore 1
 1718 0868 03340101 		ld	s0,16(sp)
GAS LISTING /tmp/ccyPB5Cy.s 			page 52


 1719              		.cfi_restore 8
 1720              		.cfi_def_cfa 2, 32
 1721 086c 83348100 		ld	s1,8(sp)
 1722              		.cfi_restore 9
 1723              	.LVL133:
 1724 0870 13010102 		addi	sp,sp,32
 1725              		.cfi_def_cfa_offset 0
 1726 0874 67800000 		jr	ra
 1727              	.LVL134:
 1728              	.L99:
 1729              		.cfi_restore_state
 636:src/kernel/riscv.cpp **** 
 1730              		.loc 1 636 9 is_stmt 1 discriminator 1
 636:src/kernel/riscv.cpp **** 
 1731              		.loc 1 636 16 is_stmt 0 discriminator 1
 1732 0878 13850400 		mv	a0,s1
 1733 087c 97000000 		call	_ZN3SCBD1Ev@plt
 1733      E7800000 
 1734              	.LVL135:
 1735 0884 13850400 		mv	a0,s1
 1736 0888 97000000 		call	_ZN3SCBdlEPv@plt
 1736      E7800000 
 1737              	.LVL136:
 1738 0890 6FF05FFC 		j	.L97
 1739              		.cfi_endproc
 1740              	.LFE67:
 1742              		.align	2
 1743              		.globl	_ZN5RiscV18executeForkSyscallEv
 1745              	_ZN5RiscV18executeForkSyscallEv:
 1746              	.LFB68:
 643:src/kernel/riscv.cpp **** 
 644:src/kernel/riscv.cpp **** //fork syscall
 645:src/kernel/riscv.cpp **** void RiscV::executeForkSyscall() {
 1747              		.loc 1 645 34 is_stmt 1
 1748              		.cfi_startproc
 1749              		.cfi_personality 0x9b,DW.ref.__gxx_personality_v0
 1750              		.cfi_lsda 0x1b,.LLSDA68
 1751 0894 130101FE 		addi	sp,sp,-32
 1752              		.cfi_def_cfa_offset 32
 1753 0898 233C1100 		sd	ra,24(sp)
 1754 089c 23388100 		sd	s0,16(sp)
 1755 08a0 23349100 		sd	s1,8(sp)
 1756 08a4 23302101 		sd	s2,0(sp)
 1757              		.cfi_offset 1, -8
 1758              		.cfi_offset 8, -16
 1759              		.cfi_offset 9, -24
 1760              		.cfi_offset 18, -32
 1761 08a8 13040102 		addi	s0,sp,32
 1762              		.cfi_def_cfa 8, 0
 646:src/kernel/riscv.cpp **** 
 647:src/kernel/riscv.cpp ****     //create new stack and copy stack from currently running stack into the new one
 648:src/kernel/riscv.cpp ****     uint64 *stack = (uint64*)MemoryAllocator::kmalloc((DEFAULT_STACK_SIZE+MEM_BLOCK_SIZE-1)/MEM_BLO
 1763              		.loc 1 648 5
 1764              		.loc 1 648 54 is_stmt 0
 1765 08ac 13050004 		li	a0,64
 1766              	.LEHB10:
 1767 08b0 97000000 		call	_ZN15MemoryAllocator7kmallocEm@plt
GAS LISTING /tmp/ccyPB5Cy.s 			page 53


 1767      E7800000 
 1768              	.LVL137:
 1769 08b8 13090500 		mv	s2,a0
 1770              	.LVL138:
 649:src/kernel/riscv.cpp **** 
 650:src/kernel/riscv.cpp ****     MemoryAllocator::memcpy((void*)TCB::running->stack,(void*)stack,DEFAULT_STACK_SIZE);
 1771              		.loc 1 650 5 is_stmt 1
 1772              		.loc 1 650 28 is_stmt 0
 1773 08bc 97070000 		la	a5,_ZN3TCB7runningE
 1773      83B70700 
 1774 08c4 83B70700 		ld	a5,0(a5)
 1775 08c8 37160000 		li	a2,4096
 1776 08cc 93050500 		mv	a1,a0
 1777 08d0 03B58702 		ld	a0,40(a5)
 1778              	.LVL139:
 1779 08d4 97000000 		call	_ZN15MemoryAllocator6memcpyEPvS0_m@plt
 1779      E7800000 
 1780              	.LVL140:
 651:src/kernel/riscv.cpp **** 
 652:src/kernel/riscv.cpp ****     //create new TCB for new thread
 653:src/kernel/riscv.cpp ****     TCB *forked = new TCB(nullptr, nullptr, stack, DEFAULT_TIME_SLICE);
 1781              		.loc 1 653 5 is_stmt 1
 1782              		.loc 1 653 70 is_stmt 0
 1783 08dc 13050007 		li	a0,112
 1784 08e0 97000000 		call	_ZN3TCBnwEm@plt
 1784      E7800000 
 1785              	.LVL141:
 1786              	.LEHE10:
 1787 08e8 93040500 		mv	s1,a0
 1788 08ec 630E0500 		beqz	a0,.L101
 1789              		.loc 1 653 70 discriminator 1
 1790 08f0 13072000 		li	a4,2
 1791 08f4 93060900 		mv	a3,s2
 1792 08f8 13060000 		li	a2,0
 1793 08fc 93050000 		li	a1,0
 1794              	.LEHB11:
 1795 0900 97000000 		call	_ZN3TCBC1EPFvPvES0_Pmm@plt
 1795      E7800000 
 1796              	.LVL142:
 1797              	.LEHE11:
 1798              	.L101:
 654:src/kernel/riscv.cpp **** 
 655:src/kernel/riscv.cpp ****     uint64 status = 0;
 1799              		.loc 1 655 5 is_stmt 1 discriminator 6
 656:src/kernel/riscv.cpp **** 
 657:src/kernel/riscv.cpp ****     if(forked) {
 1800              		.loc 1 657 5 discriminator 6
 1801              	.LBB114:
 1802 0908 638E040A 		beqz	s1,.L104
 1803              	.LBB115:
 658:src/kernel/riscv.cpp **** 
 659:src/kernel/riscv.cpp ****         //set return address where forked thread should return
 660:src/kernel/riscv.cpp ****         forked->context.ra = TCB::currentPC;
 1804              		.loc 1 660 9
 1805              		.loc 1 660 28 is_stmt 0
 1806 090c 97070000 		la	a5,_ZN3TCB9currentPCE
 1806      83B70700 
GAS LISTING /tmp/ccyPB5Cy.s 			page 54


 1807 0914 83B70700 		ld	a5,0(a5)
 1808 0918 23B4F400 		sd	a5,8(s1)
 661:src/kernel/riscv.cpp **** 
 662:src/kernel/riscv.cpp ****         //set SP value where forked thread's stack starts
 663:src/kernel/riscv.cpp ****         forked->context.sp = (uint64)((char*)stack + TCB::currentSP - (char*)TCB::running->stack);
 1809              		.loc 1 663 9 is_stmt 1
 1810              		.loc 1 663 59 is_stmt 0
 1811 091c 97070000 		la	a5,_ZN3TCB9currentSPE
 1811      83B70700 
 1812 0924 83B70700 		ld	a5,0(a5)
 1813              		.loc 1 663 52
 1814 0928 B307F900 		add	a5,s2,a5
 1815              		.loc 1 663 71
 1816 092c 17070000 		la	a4,_ZN3TCB7runningE
 1816      03370700 
 1817 0934 83360700 		ld	a3,0(a4)
 1818              		.loc 1 663 92
 1819 0938 83B68602 		ld	a3,40(a3)
 1820              		.loc 1 663 69
 1821 093c B387D740 		sub	a5,a5,a3
 1822              		.loc 1 663 28
 1823 0940 23B0F400 		sd	a5,0(s1)
 664:src/kernel/riscv.cpp **** 
 665:src/kernel/riscv.cpp ****         //get memory location of where registers are stored from previous context switch
 666:src/kernel/riscv.cpp ****         uint64 registerStartSP = (uint64)((char*)TCB::running->a0Location - (char*)TCB::running->st
 1824              		.loc 1 666 9 is_stmt 1
 1825              		.loc 1 666 64 is_stmt 0
 1826 0944 83370700 		ld	a5,0(a4)
 1827 0948 03B58706 		ld	a0,104(a5)
 1828              		.loc 1 666 98
 1829 094c 83B78702 		ld	a5,40(a5)
 1830              		.loc 1 666 75
 1831 0950 3305F540 		sub	a0,a0,a5
 1832              		.loc 1 666 104
 1833 0954 3309A900 		add	s2,s2,a0
 1834              	.LVL143:
 667:src/kernel/riscv.cpp **** 
 668:src/kernel/riscv.cpp ****         forked->a0Location = registerStartSP;
 1835              		.loc 1 668 9 is_stmt 1
 1836              		.loc 1 668 28 is_stmt 0
 1837 0958 23B42407 		sd	s2,104(s1)
 669:src/kernel/riscv.cpp **** 
 670:src/kernel/riscv.cpp ****         uint64 a1,a0;
 1838              		.loc 1 670 9 is_stmt 1
 671:src/kernel/riscv.cpp **** 
 672:src/kernel/riscv.cpp ****         //write address of stored registers in SP of forked thread so that it can return regularly
 673:src/kernel/riscv.cpp ****         asm("mv %[a1], a1": [a1] "=r"(a1));
 1839              		.loc 1 673 9
 1840              		.loc 1 673 43 is_stmt 0
 1841              	#APP
 1842              	# 673 "src/kernel/riscv.cpp" 1
 674              	
 675:src/kernel/riscv.cpp ****         asm("mv %[a0], a0": [a0] "=r"(a0));
 1843              		mv a3, a1
 1844              	# 0 "" 2
 1845              		.loc 1 675 9 is_stmt 1
 1846              		.loc 1 675 43 is_stmt 0
GAS LISTING /tmp/ccyPB5Cy.s 			page 55


 1847              	# 675 "src/kernel/riscv.cpp" 1
 676              	
 677:src/kernel/riscv.cpp ****         asm("mv a0,%[a0]"::  [a0]"r"(registerStartSP));
 1848              		mv a5, a0
 1849              	# 0 "" 2
 1850              		.loc 1 677 9 is_stmt 1
 1851              		.loc 1 677 55 is_stmt 0
 1852              	# 677 "src/kernel/riscv.cpp" 1
 678              	
 679:src/kernel/riscv.cpp ****         asm("mv a1, %[a0]" : :  [a0] "r"(registerStartSP));
 1853              		mv a0,s2
 1854              	# 0 "" 2
 1855              		.loc 1 679 9 is_stmt 1
 1856              		.loc 1 679 59 is_stmt 0
 1857              	# 679 "src/kernel/riscv.cpp" 1
 680              	
 681:src/kernel/riscv.cpp ****         asm("sd a0, 16(a1)");
 1858              		mv a1, s2
 1859              	# 0 "" 2
 1860              		.loc 1 681 9 is_stmt 1
 1861              		.loc 1 681 29 is_stmt 0
 1862              	# 681 "src/kernel/riscv.cpp" 1
 682              	
 683:src/kernel/riscv.cpp ****         //write 0 in a0 register of forked thread because fork should return 0 in context of child,
 684:src/kernel/riscv.cpp ****         asm("li a0, 0");
 1863              		sd a0, 16(a1)
 1864              	# 0 "" 2
 1865              		.loc 1 684 9 is_stmt 1
 1866              		.loc 1 684 24 is_stmt 0
 1867              	# 684 "src/kernel/riscv.cpp" 1
 685              	
 686:src/kernel/riscv.cpp ****         asm("sd a0, 80(a1)");
 1868              		li a0, 0
 1869              	# 0 "" 2
 1870              		.loc 1 686 9 is_stmt 1
 1871              		.loc 1 686 29 is_stmt 0
 1872              	# 686 "src/kernel/riscv.cpp" 1
 687              	
 688:src/kernel/riscv.cpp ****         asm("mv a1,%[a1]"::  [a1]"r"(a1));
 1873              		sd a0, 80(a1)
 1874              	# 0 "" 2
 1875              		.loc 1 688 9 is_stmt 1
 1876              		.loc 1 688 42 is_stmt 0
 1877              	# 688 "src/kernel/riscv.cpp" 1
 689              	
 690:src/kernel/riscv.cpp ****         asm("mv a0,%[a0]"::  [a0]"r"(a0));
 1878              		mv a1,a3
 1879              	# 0 "" 2
 1880              		.loc 1 690 9 is_stmt 1
 1881              		.loc 1 690 42 is_stmt 0
 1882              	# 690 "src/kernel/riscv.cpp" 1
 691              	
 692:src/kernel/riscv.cpp ****         forked->sepc = TCB::running->sepc;
 1883              		mv a0,a5
 1884              	# 0 "" 2
 1885              		.loc 1 692 9 is_stmt 1
 1886              		.loc 1 692 38 is_stmt 0
GAS LISTING /tmp/ccyPB5Cy.s 			page 56


 1887              	#NO_APP
 1888 0980 83370700 		ld	a5,0(a4)
 1889 0984 03B78703 		ld	a4,56(a5)
 1890              		.loc 1 692 22
 1891 0988 23BCE402 		sd	a4,56(s1)
 693:src/kernel/riscv.cpp **** 
 694:src/kernel/riscv.cpp ****         forked->sstatus = TCB::running->sstatus;
 1892              		.loc 1 694 9 is_stmt 1
 1893              		.loc 1 694 41 is_stmt 0
 1894 098c 83B70704 		ld	a5,64(a5)
 1895              		.loc 1 694 25
 1896 0990 23B0F404 		sd	a5,64(s1)
 695:src/kernel/riscv.cpp **** 
 696:src/kernel/riscv.cpp ****         //put forked in scheduler
 697:src/kernel/riscv.cpp ****         Scheduler::put(forked);
 1897              		.loc 1 697 9 is_stmt 1
 1898              		.loc 1 697 23 is_stmt 0
 1899 0994 13850400 		mv	a0,s1
 1900              	.LEHB12:
 1901 0998 97000000 		call	_ZN9Scheduler3putEP3TCB@plt
 1901      E7800000 
 1902              	.LVL144:
 1903              	.LEHE12:
 698:src/kernel/riscv.cpp **** 
 699:src/kernel/riscv.cpp ****         //return address of forked as thread ID
 700:src/kernel/riscv.cpp ****         status = (uint64)forked;
 1904              		.loc 1 700 9 is_stmt 1
 1905              	.L102:
 1906              	.LBE115:
 1907              	.LBE114:
 701:src/kernel/riscv.cpp ****     }else
 702:src/kernel/riscv.cpp ****         status = -1;
 703:src/kernel/riscv.cpp **** 
 704:src/kernel/riscv.cpp ****     asm("mv a0, %[status]" : : [status] "r" (status));
 1908              		.loc 1 704 5
 1909              		.loc 1 704 54 is_stmt 0
 1910              	#APP
 1911              	# 704 "src/kernel/riscv.cpp" 1
 705              	
 706:src/kernel/riscv.cpp ****     RiscV::saveA0toSscratch();
 1912              		mv a0, s1
 1913              	# 0 "" 2
 1914              		.loc 1 706 5 is_stmt 1
 1915              		.loc 1 706 28 is_stmt 0
 1916              	#NO_APP
 1917 09a4 97000000 		call	_ZN5RiscV16saveA0toSscratchEv
 1917      E7800000 
 1918              	.LVL145:
 707:src/kernel/riscv.cpp **** 
 708:src/kernel/riscv.cpp **** }
 1919              		.loc 1 708 1
 1920 09ac 83308101 		ld	ra,24(sp)
 1921              		.cfi_remember_state
 1922              		.cfi_restore 1
 1923 09b0 03340101 		ld	s0,16(sp)
 1924              		.cfi_restore 8
 1925              		.cfi_def_cfa 2, 32
GAS LISTING /tmp/ccyPB5Cy.s 			page 57


 1926 09b4 83348100 		ld	s1,8(sp)
 1927              		.cfi_restore 9
 1928              	.LVL146:
 1929 09b8 03390100 		ld	s2,0(sp)
 1930              		.cfi_restore 18
 1931 09bc 13010102 		addi	sp,sp,32
 1932              		.cfi_def_cfa_offset 0
 1933 09c0 67800000 		jr	ra
 1934              	.LVL147:
 1935              	.L104:
 1936              		.cfi_restore_state
 1937              	.LBB116:
 702:src/kernel/riscv.cpp **** 
 1938              		.loc 1 702 16
 1939 09c4 9304F0FF 		li	s1,-1
 1940              	.LVL148:
 1941 09c8 6FF09FFD 		j	.L102
 1942              	.LVL149:
 1943              	.L105:
 1944 09cc 13090500 		mv	s2,a0
 1945              	.LVL150:
 1946              	.LBE116:
 653:src/kernel/riscv.cpp **** 
 1947              		.loc 1 653 70
 1948 09d0 13850400 		mv	a0,s1
 1949 09d4 97000000 		call	_ZN3TCBdlEPv@plt
 1949      E7800000 
 1950              	.LVL151:
 1951 09dc 13050900 		mv	a0,s2
 1952              	.LEHB13:
 1953 09e0 97000000 		call	_Unwind_Resume@plt
 1953      E7800000 
 1954              	.LVL152:
 1955              	.LEHE13:
 1956              		.cfi_endproc
 1957              	.LFE68:
 1958              		.section	.gcc_except_table
 1959              	.LLSDA68:
 1960 008e FF       		.byte	0xff
 1961 008f FF       		.byte	0xff
 1962 0090 03       		.byte	0x3
 1963 0091 34       		.byte	0x34
 1964 0092 00000000 		.4byte	.LEHB10-.LFB68
 1965 0096 00000000 		.4byte	.LEHE10-.LEHB10
 1966 009a 00000000 		.4byte	0
 1967 009e 00       		.byte	0
 1968 009f 00000000 		.4byte	.LEHB11-.LFB68
 1969 00a3 00000000 		.4byte	.LEHE11-.LEHB11
 1970 00a7 00000000 		.4byte	.L105-.LFB68
 1971 00ab 00       		.byte	0
 1972 00ac 00000000 		.4byte	.LEHB12-.LFB68
 1973 00b0 00000000 		.4byte	.LEHE12-.LEHB12
 1974 00b4 00000000 		.4byte	0
 1975 00b8 00       		.byte	0
 1976 00b9 00000000 		.4byte	.LEHB13-.LFB68
 1977 00bd 00000000 		.4byte	.LEHE13-.LEHB13
 1978 00c1 00000000 		.4byte	0
GAS LISTING /tmp/ccyPB5Cy.s 			page 58


 1979 00c5 00       		.byte	0
 1980              		.text
 1982              		.align	2
 1983              		.globl	_ZN5RiscV5getPCEv
 1985              	_ZN5RiscV5getPCEv:
 1986              	.LFB69:
 709:src/kernel/riscv.cpp **** 
 710:src/kernel/riscv.cpp **** void RiscV::getPC(){
 1987              		.loc 1 710 20 is_stmt 1
 1988              		.cfi_startproc
 1989 09e8 130101FF 		addi	sp,sp,-16
 1990              		.cfi_def_cfa_offset 16
 1991 09ec 23348100 		sd	s0,8(sp)
 1992              		.cfi_offset 8, -8
 1993 09f0 13040101 		addi	s0,sp,16
 1994              		.cfi_def_cfa 8, 0
 711:src/kernel/riscv.cpp ****     uint64 ra;
 1995              		.loc 1 711 5
 712:src/kernel/riscv.cpp **** 
 713:src/kernel/riscv.cpp ****     asm("mv %[ra], ra" : [ra] "=r"(ra));
 1996              		.loc 1 713 5
 1997              		.loc 1 713 40 is_stmt 0
 1998              	#APP
 1999              	# 713 "src/kernel/riscv.cpp" 1
 714              	
 2000              		mv a5, ra
 2001              	# 0 "" 2
 2002              	.LVL153:
 715:src/kernel/riscv.cpp ****     TCB::currentPC = ra + 8;
 2003              		.loc 1 715 5 is_stmt 1
 2004              		.loc 1 715 25 is_stmt 0
 2005              	#NO_APP
 2006 09f8 93878700 		addi	a5,a5,8
 2007              	.LVL154:
 2008              		.loc 1 715 20
 2009 09fc 17070000 		la	a4,_ZN3TCB9currentPCE
 2009      03370700 
 2010 0a04 2330F700 		sd	a5,0(a4)
 716:src/kernel/riscv.cpp **** }
 2011              		.loc 1 716 1
 2012 0a08 03348100 		ld	s0,8(sp)
 2013              		.cfi_restore 8
 2014              		.cfi_def_cfa 2, 16
 2015 0a0c 13010101 		addi	sp,sp,16
 2016              		.cfi_def_cfa_offset 0
 2017 0a10 67800000 		jr	ra
 2018              		.cfi_endproc
 2019              	.LFE69:
 2021              		.section	.rodata.str1.8,"aMS",@progbits,1
 2022              		.align	3
 2023              	.LC0:
 2024 0000 73657063 		.string	"sepc: "
 2024      3A2000
 2025 0007 00       		.align	3
 2026              	.LC1:
 2027 0008 0A00     		.string	"\n"
 2028 000a 00000000 		.align	3
GAS LISTING /tmp/ccyPB5Cy.s 			page 59


 2028      0000
 2029              	.LC2:
 2030 0010 496C6C65 		.string	"Illegal instruction\nExiting thread...\n"
 2030      67616C20 
 2030      696E7374 
 2030      72756374 
 2030      696F6E0A 
 2031 0037 00       		.align	3
 2032              	.LC3:
 2033 0038 4572726F 		.string	"Error: \n"
 2033      723A200A 
 2033      00
 2034 0041 00000000 		.align	3
 2034      000000
 2035              	.LC4:
 2036 0048 73636175 		.string	"scause: "
 2036      73653A20 
 2036      00
 2037 0051 00000000 		.align	3
 2037      000000
 2038              	.LC5:
 2039 0058 73747665 		.string	"stvec: "
 2039      633A2000 
 2040              		.align	3
 2041              	.LC6:
 2042 0060 45786974 		.string	"Exiting thread...\n"
 2042      696E6720 
 2042      74687265 
 2042      61642E2E 
 2042      2E0A00
 2043              		.text
 2044              		.align	2
 2045              		.globl	_ZN5RiscV20handleSupervisorTrapEv
 2047              	_ZN5RiscV20handleSupervisorTrapEv:
 2048              	.LFB46:
  51:src/kernel/riscv.cpp **** 
 2049              		.loc 1 51 36 is_stmt 1
 2050              		.cfi_startproc
 2051 0a14 130101F9 		addi	sp,sp,-112
 2052              		.cfi_def_cfa_offset 112
 2053 0a18 23341106 		sd	ra,104(sp)
 2054 0a1c 23308106 		sd	s0,96(sp)
 2055 0a20 233C9104 		sd	s1,88(sp)
 2056              		.cfi_offset 1, -8
 2057              		.cfi_offset 8, -16
 2058              		.cfi_offset 9, -24
 2059 0a24 13040107 		addi	s0,sp,112
 2060              		.cfi_def_cfa 8, 0
  54:src/kernel/riscv.cpp ****     asm("csrr %[stval], stval" : [stval] "=r" (stval));
 2061              		.loc 1 54 5
  55:src/kernel/riscv.cpp ****     uint64 volatile scause = RiscV::r_scause();
 2062              		.loc 1 55 5
  55:src/kernel/riscv.cpp ****     uint64 volatile scause = RiscV::r_scause();
 2063              		.loc 1 55 55 is_stmt 0
 2064              	#APP
 2065              	# 55 "src/kernel/riscv.cpp" 1
 2066              		csrr s1, stval
GAS LISTING /tmp/ccyPB5Cy.s 			page 60


 2067              	# 0 "" 2
 2068              	.LVL155:
  56:src/kernel/riscv.cpp **** 
 2069              		.loc 1 56 5 is_stmt 1
 2070              	#NO_APP
 2071              	.LBB117:
 2072              	.LBB118:
 163:src/kernel/../../h/kernel/riscv.hpp ****     asm("csrr %[scause], scause" : [scause] "=r" (scause));
 2073              		.loc 2 163 5
 164:src/kernel/../../h/kernel/riscv.hpp ****     return scause;
 2074              		.loc 2 164 5
 164:src/kernel/../../h/kernel/riscv.hpp ****     return scause;
 2075              		.loc 2 164 59 is_stmt 0
 2076              	#APP
 2077              	# 164 "src/kernel/../../h/kernel/riscv.hpp" 1
 2078              		csrr a5, scause
 2079              	# 0 "" 2
 2080              	#NO_APP
 2081 0a30 2334F4FC 		sd	a5,-56(s0)
 165:src/kernel/../../h/kernel/riscv.hpp **** }
 2082              		.loc 2 165 5 is_stmt 1
 165:src/kernel/../../h/kernel/riscv.hpp **** }
 2083              		.loc 2 165 12 is_stmt 0
 2084 0a34 833784FC 		ld	a5,-56(s0)
 2085              	.LBE118:
 2086              	.LBE117:
  56:src/kernel/riscv.cpp **** 
 2087              		.loc 1 56 46
 2088 0a38 233CF4FC 		sd	a5,-40(s0)
  58:src/kernel/riscv.cpp **** 
 2089              		.loc 1 58 5 is_stmt 1
  58:src/kernel/riscv.cpp **** 
 2090              		.loc 1 58 71 is_stmt 0
 2091 0a3c 97070000 		la	a5,_ZN3TCB7runningE
 2091      83B70700 
 2092 0a44 83B70700 		ld	a5,0(a5)
  58:src/kernel/riscv.cpp **** 
 2093              		.loc 1 58 83
 2094              	#APP
 2095              	# 58 "src/kernel/riscv.cpp" 1
 2096              		csrr a4, sscratch
 2097              	# 0 "" 2
 2098              	#NO_APP
 2099 0a4c 23B4E706 		sd	a4,104(a5)
  60:src/kernel/riscv.cpp **** 
 2100              		.loc 1 60 5 is_stmt 1
 2101              	.LBB119:
  60:src/kernel/riscv.cpp **** 
 2102              		.loc 1 60 15 is_stmt 0
 2103 0a50 033784FD 		ld	a4,-40(s0)
  60:src/kernel/riscv.cpp **** 
 2104              		.loc 1 60 23
 2105 0a54 93079000 		li	a5,9
 2106 0a58 6306F710 		beq	a4,a5,.L111
  60:src/kernel/riscv.cpp **** 
 2107              		.loc 1 60 33 discriminator 2
 2108 0a5c 033784FD 		ld	a4,-40(s0)
GAS LISTING /tmp/ccyPB5Cy.s 			page 61


  60:src/kernel/riscv.cpp **** 
 2109              		.loc 1 60 23 discriminator 2
 2110 0a60 93078000 		li	a5,8
 2111 0a64 6300F710 		beq	a4,a5,.L111
 2112              	.LBE119:
 106:src/kernel/riscv.cpp **** 
 2113              		.loc 1 106 10 is_stmt 1
 2114              	.LBB174:
 2115              	.LBB120:
 106:src/kernel/riscv.cpp **** 
 2116              		.loc 1 106 20 is_stmt 0
 2117 0a68 033784FD 		ld	a4,-40(s0)
 106:src/kernel/riscv.cpp **** 
 2118              		.loc 1 106 10
 2119 0a6c 9307F0FF 		li	a5,-1
 2120 0a70 9397F703 		slli	a5,a5,63
 2121 0a74 93871700 		addi	a5,a5,1
 2122 0a78 6304F726 		beq	a4,a5,.L141
 2123              	.LBE120:
 2124              	.LBE174:
 141:src/kernel/riscv.cpp ****         //save sstatus and sepc
 2125              		.loc 1 141 10 is_stmt 1
 2126              	.LBB175:
 2127              	.LBB161:
 2128              	.LBB121:
 141:src/kernel/riscv.cpp ****         //save sstatus and sepc
 2129              		.loc 1 141 20 is_stmt 0
 2130 0a7c 033784FD 		ld	a4,-40(s0)
 141:src/kernel/riscv.cpp ****         //save sstatus and sepc
 2131              		.loc 1 141 10
 2132 0a80 9307F0FF 		li	a5,-1
 2133 0a84 9397F703 		slli	a5,a5,63
 2134 0a88 93879700 		addi	a5,a5,9
 2135 0a8c 6302F72E 		beq	a4,a5,.L142
 2136              	.LBE121:
 2137              	.LBE161:
 2138              	.LBE175:
 177:src/kernel/riscv.cpp ****         TCB* old = TCB::running;
 2139              		.loc 1 177 10 is_stmt 1
 2140              	.LBB176:
 2141              	.LBB162:
 2142              	.LBB145:
 2143              	.LBB122:
 177:src/kernel/riscv.cpp ****         TCB* old = TCB::running;
 2144              		.loc 1 177 20 is_stmt 0
 2145 0a90 033784FD 		ld	a4,-40(s0)
 177:src/kernel/riscv.cpp ****         TCB* old = TCB::running;
 2146              		.loc 1 177 10
 2147 0a94 93072000 		li	a5,2
 2148 0a98 630AF736 		beq	a4,a5,.L143
 2149              	.LBB123:
 190:src/kernel/riscv.cpp ****         ConsoleUtil::printString("scause: ");
 2150              		.loc 1 190 9 is_stmt 1
 190:src/kernel/riscv.cpp ****         ConsoleUtil::printString("scause: ");
 2151              		.loc 1 190 33 is_stmt 0
 2152 0a9c 17050000 		lla	a0,.LC3
 2152      13050500 
GAS LISTING /tmp/ccyPB5Cy.s 			page 62


 2153 0aa4 97000000 		call	_ZN11ConsoleUtil11printStringEPKc@plt
 2153      E7800000 
 2154              	.LVL156:
 191:src/kernel/riscv.cpp ****         uint64  scause = RiscV::r_scause();
 2155              		.loc 1 191 9 is_stmt 1
 191:src/kernel/riscv.cpp ****         uint64  scause = RiscV::r_scause();
 2156              		.loc 1 191 33 is_stmt 0
 2157 0aac 17050000 		lla	a0,.LC4
 2157      13050500 
 2158 0ab4 97000000 		call	_ZN11ConsoleUtil11printStringEPKc@plt
 2158      E7800000 
 2159              	.LVL157:
 192:src/kernel/riscv.cpp ****         ConsoleUtil::printInt(scause);
 2160              		.loc 1 192 9 is_stmt 1
 2161              	.LBB124:
 2162              	.LBB125:
 163:src/kernel/../../h/kernel/riscv.hpp ****     asm("csrr %[scause], scause" : [scause] "=r" (scause));
 2163              		.loc 2 163 5
 164:src/kernel/../../h/kernel/riscv.hpp ****     return scause;
 2164              		.loc 2 164 5
 164:src/kernel/../../h/kernel/riscv.hpp ****     return scause;
 2165              		.loc 2 164 59 is_stmt 0
 2166              	#APP
 2167              	# 164 "src/kernel/../../h/kernel/riscv.hpp" 1
 2168              		csrr a5, scause
 2169              	# 0 "" 2
 2170              	#NO_APP
 2171 0ac0 2338F4FC 		sd	a5,-48(s0)
 165:src/kernel/../../h/kernel/riscv.hpp **** }
 2172              		.loc 2 165 5 is_stmt 1
 165:src/kernel/../../h/kernel/riscv.hpp **** }
 2173              		.loc 2 165 12 is_stmt 0
 2174 0ac4 033504FD 		ld	a0,-48(s0)
 2175              	.LVL158:
 2176              	.LBE125:
 2177              	.LBE124:
 193:src/kernel/riscv.cpp ****         ConsoleUtil::printString("sepc: ");
 2178              		.loc 1 193 9 is_stmt 1
 193:src/kernel/riscv.cpp ****         ConsoleUtil::printString("sepc: ");
 2179              		.loc 1 193 30 is_stmt 0
 2180 0ac8 13060000 		li	a2,0
 2181 0acc 9305A000 		li	a1,10
 2182 0ad0 1B050500 		sext.w	a0,a0
 2183              	.LVL159:
 2184 0ad4 97000000 		call	_ZN11ConsoleUtil8printIntEiii@plt
 2184      E7800000 
 2185              	.LVL160:
 194:src/kernel/riscv.cpp ****         uint64 sepc = RiscV::r_sepc();
 2186              		.loc 1 194 9 is_stmt 1
 194:src/kernel/riscv.cpp ****         uint64 sepc = RiscV::r_sepc();
 2187              		.loc 1 194 33 is_stmt 0
 2188 0adc 17050000 		lla	a0,.LC0
 2188      13050500 
 2189 0ae4 97000000 		call	_ZN11ConsoleUtil11printStringEPKc@plt
 2189      E7800000 
 2190              	.LVL161:
 195:src/kernel/riscv.cpp ****         ConsoleUtil::printInt(sepc,16);
GAS LISTING /tmp/ccyPB5Cy.s 			page 63


 2191              		.loc 1 195 9 is_stmt 1
 2192              	.LBB126:
 2193              	.LBB127:
 173:src/kernel/../../h/kernel/riscv.hpp ****     asm("csrr %[sepc], sepc" : [sepc] "=r" (sepc));
 2194              		.loc 2 173 5
 174:src/kernel/../../h/kernel/riscv.hpp ****     return sepc;
 2195              		.loc 2 174 5
 174:src/kernel/../../h/kernel/riscv.hpp ****     return sepc;
 2196              		.loc 2 174 51 is_stmt 0
 2197              	#APP
 2198              	# 174 "src/kernel/../../h/kernel/riscv.hpp" 1
 175:src/kernel/../../h/kernel/riscv.hpp **** }
 2199              		csrr a0, sepc
 2200              	# 0 "" 2
 2201              		.loc 2 175 5 is_stmt 1
 2202              	#NO_APP
 2203              	.LBE127:
 2204              	.LBE126:
 196:src/kernel/riscv.cpp ****         ConsoleUtil::printString("\n");
 2205              		.loc 1 196 9
 196:src/kernel/riscv.cpp ****         ConsoleUtil::printString("\n");
 2206              		.loc 1 196 30 is_stmt 0
 2207 0af0 13060000 		li	a2,0
 2208 0af4 93050001 		li	a1,16
 2209 0af8 1B050500 		sext.w	a0,a0
 2210 0afc 97000000 		call	_ZN11ConsoleUtil8printIntEiii@plt
 2210      E7800000 
 2211              	.LVL162:
 197:src/kernel/riscv.cpp ****         ConsoleUtil::print("stvec: ",stval,"\n");
 2212              		.loc 1 197 9 is_stmt 1
 197:src/kernel/riscv.cpp ****         ConsoleUtil::print("stvec: ",stval,"\n");
 2213              		.loc 1 197 33 is_stmt 0
 2214 0b04 17050000 		lla	a0,.LC1
 2214      13050500 
 2215 0b0c 97000000 		call	_ZN11ConsoleUtil11printStringEPKc@plt
 2215      E7800000 
 2216              	.LVL163:
 198:src/kernel/riscv.cpp ****         TCB* old = TCB::running;
 2217              		.loc 1 198 9 is_stmt 1
 198:src/kernel/riscv.cpp ****         TCB* old = TCB::running;
 2218              		.loc 1 198 27 is_stmt 0
 2219 0b14 93060001 		li	a3,16
 2220 0b18 17060000 		lla	a2,.LC1
 2220      13060600 
 2221 0b20 9B850400 		sext.w	a1,s1
 2222 0b24 17050000 		lla	a0,.LC5
 2222      13050500 
 2223 0b2c 97000000 		call	_ZN11ConsoleUtil5printEPKciS1_i@plt
 2223      E7800000 
 2224              	.LVL164:
 199:src/kernel/riscv.cpp ****         old->status = TCB::Status::FINISHED;
 2225              		.loc 1 199 9 is_stmt 1
 199:src/kernel/riscv.cpp ****         old->status = TCB::Status::FINISHED;
 2226              		.loc 1 199 14 is_stmt 0
 2227 0b34 97070000 		la	a5,_ZN3TCB7runningE
 2227      83B70700 
 2228 0b3c 83B70700 		ld	a5,0(a5)
GAS LISTING /tmp/ccyPB5Cy.s 			page 64


 2229              	.LVL165:
 200:src/kernel/riscv.cpp ****         ConsoleUtil::printString("Exiting thread...\n");
 2230              		.loc 1 200 9 is_stmt 1
 200:src/kernel/riscv.cpp ****         ConsoleUtil::printString("Exiting thread...\n");
 2231              		.loc 1 200 21 is_stmt 0
 2232 0b40 13072000 		li	a4,2
 2233 0b44 23A8E700 		sw	a4,16(a5)
 201:src/kernel/riscv.cpp ****         TCB::dispatch();
 2234              		.loc 1 201 9 is_stmt 1
 201:src/kernel/riscv.cpp ****         TCB::dispatch();
 2235              		.loc 1 201 33 is_stmt 0
 2236 0b48 17050000 		lla	a0,.LC6
 2236      13050500 
 2237 0b50 97000000 		call	_ZN11ConsoleUtil11printStringEPKc@plt
 2237      E7800000 
 2238              	.LVL166:
 202:src/kernel/riscv.cpp ****     }
 2239              		.loc 1 202 9 is_stmt 1
 202:src/kernel/riscv.cpp ****     }
 2240              		.loc 1 202 22 is_stmt 0
 2241 0b58 97000000 		call	_ZN3TCB8dispatchEv@plt
 2241      E7800000 
 2242              	.LVL167:
 2243 0b60 6F000008 		j	.L134
 2244              	.L111:
 2245              	.LBE123:
 2246              	.LBE122:
 2247              	.LBE145:
 2248              	.LBE162:
 2249              	.LBB163:
  64:src/kernel/riscv.cpp ****         uint64 volatile sepc = RiscV::r_sepc()+4;
 2250              		.loc 1 64 9 is_stmt 1
 2251              	.LBB164:
 2252              	.LBB165:
 193:src/kernel/../../h/kernel/riscv.hpp ****     asm("csrr %[sstatus], sstatus" : [sstatus] "=r" (sstatus));
 2253              		.loc 2 193 5
 194:src/kernel/../../h/kernel/riscv.hpp ****     return sstatus;
 2254              		.loc 2 194 5
 194:src/kernel/../../h/kernel/riscv.hpp ****     return sstatus;
 2255              		.loc 2 194 63 is_stmt 0
 2256              	#APP
 2257              	# 194 "src/kernel/../../h/kernel/riscv.hpp" 1
 2258              		csrr a5, sstatus
 2259              	# 0 "" 2
 2260              	.LVL168:
 195:src/kernel/../../h/kernel/riscv.hpp **** }
 2261              		.loc 2 195 5 is_stmt 1
 2262              	#NO_APP
 2263              	.LBE165:
 2264              	.LBE164:
  64:src/kernel/riscv.cpp ****         uint64 volatile sepc = RiscV::r_sepc()+4;
 2265              		.loc 1 64 52 is_stmt 0
 2266 0b68 233CF4F8 		sd	a5,-104(s0)
  65:src/kernel/riscv.cpp ****         TCB::running->sepc = sepc;
 2267              		.loc 1 65 9 is_stmt 1
 2268              	.LBB166:
 2269              	.LBB167:
GAS LISTING /tmp/ccyPB5Cy.s 			page 65


 173:src/kernel/../../h/kernel/riscv.hpp ****     asm("csrr %[sepc], sepc" : [sepc] "=r" (sepc));
 2270              		.loc 2 173 5
 174:src/kernel/../../h/kernel/riscv.hpp ****     return sepc;
 2271              		.loc 2 174 5
 174:src/kernel/../../h/kernel/riscv.hpp ****     return sepc;
 2272              		.loc 2 174 51 is_stmt 0
 2273              	#APP
 2274              	# 174 "src/kernel/../../h/kernel/riscv.hpp" 1
 2275              		csrr a5, sepc
 2276              	# 0 "" 2
 2277              	.LVL169:
 175:src/kernel/../../h/kernel/riscv.hpp **** }
 2278              		.loc 2 175 5 is_stmt 1
 2279              	#NO_APP
 2280              	.LBE167:
 2281              	.LBE166:
  65:src/kernel/riscv.cpp ****         TCB::running->sepc = sepc;
 2282              		.loc 1 65 47 is_stmt 0
 2283 0b70 93874700 		addi	a5,a5,4
  65:src/kernel/riscv.cpp ****         TCB::running->sepc = sepc;
 2284              		.loc 1 65 48
 2285 0b74 2330F4FA 		sd	a5,-96(s0)
  66:src/kernel/riscv.cpp ****         TCB::running->sstatus = sstatus;
 2286              		.loc 1 66 9 is_stmt 1
  66:src/kernel/riscv.cpp ****         TCB::running->sstatus = sstatus;
 2287              		.loc 1 66 23 is_stmt 0
 2288 0b78 97070000 		la	a5,_ZN3TCB7runningE
 2288      83B70700 
 2289 0b80 83B70700 		ld	a5,0(a5)
  66:src/kernel/riscv.cpp ****         TCB::running->sstatus = sstatus;
 2290              		.loc 1 66 28
 2291 0b84 033704FA 		ld	a4,-96(s0)
 2292 0b88 23BCE702 		sd	a4,56(a5)
  67:src/kernel/riscv.cpp **** 
 2293              		.loc 1 67 9 is_stmt 1
  67:src/kernel/riscv.cpp **** 
 2294              		.loc 1 67 31 is_stmt 0
 2295 0b8c 033784F9 		ld	a4,-104(s0)
 2296 0b90 23B0E704 		sd	a4,64(a5)
  70:src/kernel/riscv.cpp ****         asm("mv %[syscallID], a0" : [syscallID] "=r" (syscallID));
 2297              		.loc 1 70 9 is_stmt 1
  71:src/kernel/riscv.cpp **** 
 2298              		.loc 1 71 9
  71:src/kernel/riscv.cpp **** 
 2299              		.loc 1 71 66 is_stmt 0
 2300              	#APP
 2301              	# 71 "src/kernel/riscv.cpp" 1
 2302              		mv a5, a0
 2303              	# 0 "" 2
 2304              	.LVL170:
  73:src/kernel/riscv.cpp ****             case 0x01 : executeMemAllocSyscall();break;
 2305              		.loc 1 73 9 is_stmt 1
 2306              	#NO_APP
 2307 0b98 13071006 		li	a4,97
 2308 0b9c 6364F702 		bgtu	a5,a4,.L114
 2309 0ba0 93972700 		slli	a5,a5,2
 2310              	.LVL171:
GAS LISTING /tmp/ccyPB5Cy.s 			page 66


 2311 0ba4 17070000 		lla	a4,.L116
 2311      13070700 
 2312 0bac B387E700 		add	a5,a5,a4
 2313 0bb0 83A70700 		lw	a5,0(a5)
 2314 0bb4 B387E700 		add	a5,a5,a4
 2315 0bb8 67800700 		jr	a5
 2316              		.section	.rodata
 2317              		.align	2
 2318              		.align	2
 2319              	.L116:
 2320 0000 00000000 		.word	.L114-.L116
 2321 0004 00000000 		.word	.L133-.L116
 2322 0008 00000000 		.word	.L132-.L116
 2323 000c 00000000 		.word	.L114-.L116
 2324 0010 00000000 		.word	.L114-.L116
 2325 0014 00000000 		.word	.L114-.L116
 2326 0018 00000000 		.word	.L114-.L116
 2327 001c 00000000 		.word	.L114-.L116
 2328 0020 00000000 		.word	.L114-.L116
 2329 0024 00000000 		.word	.L114-.L116
 2330 0028 00000000 		.word	.L114-.L116
 2331 002c 00000000 		.word	.L114-.L116
 2332 0030 00000000 		.word	.L114-.L116
 2333 0034 00000000 		.word	.L114-.L116
 2334 0038 00000000 		.word	.L114-.L116
 2335 003c 00000000 		.word	.L114-.L116
 2336 0040 00000000 		.word	.L114-.L116
 2337 0044 00000000 		.word	.L131-.L116
 2338 0048 00000000 		.word	.L130-.L116
 2339 004c 00000000 		.word	.L129-.L116
 2340 0050 00000000 		.word	.L128-.L116
 2341 0054 00000000 		.word	.L127-.L116
 2342 0058 00000000 		.word	.L114-.L116
 2343 005c 00000000 		.word	.L114-.L116
 2344 0060 00000000 		.word	.L114-.L116
 2345 0064 00000000 		.word	.L114-.L116
 2346 0068 00000000 		.word	.L114-.L116
 2347 006c 00000000 		.word	.L114-.L116
 2348 0070 00000000 		.word	.L114-.L116
 2349 0074 00000000 		.word	.L114-.L116
 2350 0078 00000000 		.word	.L114-.L116
 2351 007c 00000000 		.word	.L114-.L116
 2352 0080 00000000 		.word	.L114-.L116
 2353 0084 00000000 		.word	.L126-.L116
 2354 0088 00000000 		.word	.L125-.L116
 2355 008c 00000000 		.word	.L124-.L116
 2356 0090 00000000 		.word	.L123-.L116
 2357 0094 00000000 		.word	.L114-.L116
 2358 0098 00000000 		.word	.L114-.L116
 2359 009c 00000000 		.word	.L114-.L116
 2360 00a0 00000000 		.word	.L114-.L116
 2361 00a4 00000000 		.word	.L114-.L116
 2362 00a8 00000000 		.word	.L114-.L116
 2363 00ac 00000000 		.word	.L114-.L116
 2364 00b0 00000000 		.word	.L114-.L116
 2365 00b4 00000000 		.word	.L114-.L116
 2366 00b8 00000000 		.word	.L114-.L116
GAS LISTING /tmp/ccyPB5Cy.s 			page 67


 2367 00bc 00000000 		.word	.L114-.L116
 2368 00c0 00000000 		.word	.L114-.L116
 2369 00c4 00000000 		.word	.L122-.L116
 2370 00c8 00000000 		.word	.L114-.L116
 2371 00cc 00000000 		.word	.L114-.L116
 2372 00d0 00000000 		.word	.L114-.L116
 2373 00d4 00000000 		.word	.L114-.L116
 2374 00d8 00000000 		.word	.L114-.L116
 2375 00dc 00000000 		.word	.L114-.L116
 2376 00e0 00000000 		.word	.L114-.L116
 2377 00e4 00000000 		.word	.L114-.L116
 2378 00e8 00000000 		.word	.L114-.L116
 2379 00ec 00000000 		.word	.L114-.L116
 2380 00f0 00000000 		.word	.L114-.L116
 2381 00f4 00000000 		.word	.L114-.L116
 2382 00f8 00000000 		.word	.L114-.L116
 2383 00fc 00000000 		.word	.L114-.L116
 2384 0100 00000000 		.word	.L114-.L116
 2385 0104 00000000 		.word	.L121-.L116
 2386 0108 00000000 		.word	.L120-.L116
 2387 010c 00000000 		.word	.L119-.L116
 2388 0110 00000000 		.word	.L114-.L116
 2389 0114 00000000 		.word	.L114-.L116
 2390 0118 00000000 		.word	.L114-.L116
 2391 011c 00000000 		.word	.L114-.L116
 2392 0120 00000000 		.word	.L114-.L116
 2393 0124 00000000 		.word	.L114-.L116
 2394 0128 00000000 		.word	.L114-.L116
 2395 012c 00000000 		.word	.L114-.L116
 2396 0130 00000000 		.word	.L114-.L116
 2397 0134 00000000 		.word	.L114-.L116
 2398 0138 00000000 		.word	.L114-.L116
 2399 013c 00000000 		.word	.L114-.L116
 2400 0140 00000000 		.word	.L114-.L116
 2401 0144 00000000 		.word	.L118-.L116
 2402 0148 00000000 		.word	.L117-.L116
 2403 014c 00000000 		.word	.L114-.L116
 2404 0150 00000000 		.word	.L114-.L116
 2405 0154 00000000 		.word	.L114-.L116
 2406 0158 00000000 		.word	.L114-.L116
 2407 015c 00000000 		.word	.L114-.L116
 2408 0160 00000000 		.word	.L114-.L116
 2409 0164 00000000 		.word	.L114-.L116
 2410 0168 00000000 		.word	.L114-.L116
 2411 016c 00000000 		.word	.L114-.L116
 2412 0170 00000000 		.word	.L114-.L116
 2413 0174 00000000 		.word	.L114-.L116
 2414 0178 00000000 		.word	.L114-.L116
 2415 017c 00000000 		.word	.L114-.L116
 2416 0180 00000000 		.word	.L114-.L116
 2417 0184 00000000 		.word	.L115-.L116
 2418              		.text
 2419              	.L133:
  74:src/kernel/riscv.cpp ****             case 0x02 : executeMemFreeSyscall();break;
 2420              		.loc 1 74 13
  74:src/kernel/riscv.cpp ****             case 0x02 : executeMemFreeSyscall();break;
 2421              		.loc 1 74 25
GAS LISTING /tmp/ccyPB5Cy.s 			page 68


  74:src/kernel/riscv.cpp ****             case 0x02 : executeMemFreeSyscall();break;
 2422              		.loc 1 74 47 is_stmt 0
 2423 0bbc 97000000 		call	_ZN5RiscV22executeMemAllocSyscallEv
 2423      E7800000 
 2424              	.LVL172:
  74:src/kernel/riscv.cpp ****             case 0x02 : executeMemFreeSyscall();break;
 2425              		.loc 1 74 50 is_stmt 1
 2426              	.L114:
 101:src/kernel/riscv.cpp ****         RiscV::w_sepc(TCB::running->sepc);
 2427              		.loc 1 101 9
 101:src/kernel/riscv.cpp ****         RiscV::w_sepc(TCB::running->sepc);
 2428              		.loc 1 101 25 is_stmt 0
 2429 0bc4 97070000 		la	a5,_ZN3TCB7runningE
 2429      83B70700 
 2430 0bcc 83B70700 		ld	a5,0(a5)
 2431 0bd0 03B70704 		ld	a4,64(a5)
 2432              	.LVL173:
 2433              	.LBB168:
 2434              	.LBB169:
 189:src/kernel/../../h/kernel/riscv.hpp **** }
 2435              		.loc 2 189 5 is_stmt 1
 189:src/kernel/../../h/kernel/riscv.hpp **** }
 2436              		.loc 2 189 64 is_stmt 0
 2437              	#APP
 2438              	# 189 "src/kernel/../../h/kernel/riscv.hpp" 1
 2439              		csrw sstatus, a4
 2440              	# 0 "" 2
 2441              	.LVL174:
 2442              	#NO_APP
 2443              	.LBE169:
 2444              	.LBE168:
 102:src/kernel/riscv.cpp ****     }
 2445              		.loc 1 102 9 is_stmt 1
 102:src/kernel/riscv.cpp ****     }
 2446              		.loc 1 102 22 is_stmt 0
 2447 0bd8 83B78703 		ld	a5,56(a5)
 2448              	.LVL175:
 2449              	.LBB170:
 2450              	.LBB171:
 179:src/kernel/../../h/kernel/riscv.hpp **** }
 2451              		.loc 2 179 5 is_stmt 1
 179:src/kernel/../../h/kernel/riscv.hpp **** }
 2452              		.loc 2 179 52 is_stmt 0
 2453              	#APP
 2454              	# 179 "src/kernel/../../h/kernel/riscv.hpp" 1
 2455              		csrw sepc, a5
 2456              	# 0 "" 2
 2457              	.LVL176:
 2458              	#NO_APP
 2459              	.L134:
 2460              	.LBE171:
 2461              	.LBE170:
 2462              	.LBE163:
 2463              	.LBE176:
 205:src/kernel/riscv.cpp **** }
 2464              		.loc 1 205 5 is_stmt 1
 205:src/kernel/riscv.cpp **** }
GAS LISTING /tmp/ccyPB5Cy.s 			page 69


 2465              		.loc 1 205 41 is_stmt 0
 2466 0be0 97000000 		call	_ZN5RiscV29jumpToDesignatedPrivilegeModeEv
 2466      E7800000 
 2467              	.LVL177:
 206:src/kernel/riscv.cpp **** 
 2468              		.loc 1 206 1
 2469 0be8 83308106 		ld	ra,104(sp)
 2470              		.cfi_remember_state
 2471              		.cfi_restore 1
 2472 0bec 03340106 		ld	s0,96(sp)
 2473              		.cfi_restore 8
 2474              		.cfi_def_cfa 2, 112
 2475 0bf0 83348105 		ld	s1,88(sp)
 2476              		.cfi_restore 9
 2477              	.LVL178:
 2478 0bf4 13010107 		addi	sp,sp,112
 2479              		.cfi_def_cfa_offset 0
 2480 0bf8 67800000 		jr	ra
 2481              	.LVL179:
 2482              	.L132:
 2483              		.cfi_restore_state
 2484              	.LBB177:
 2485              	.LBB172:
  75:src/kernel/riscv.cpp ****             case 0x11 : executeThreadCreateSyscall();break;
 2486              		.loc 1 75 13 is_stmt 1
  75:src/kernel/riscv.cpp ****             case 0x11 : executeThreadCreateSyscall();break;
 2487              		.loc 1 75 25
  75:src/kernel/riscv.cpp ****             case 0x11 : executeThreadCreateSyscall();break;
 2488              		.loc 1 75 46 is_stmt 0
 2489 0bfc 97000000 		call	_ZN5RiscV21executeMemFreeSyscallEv
 2489      E7800000 
 2490              	.LVL180:
  75:src/kernel/riscv.cpp ****             case 0x11 : executeThreadCreateSyscall();break;
 2491              		.loc 1 75 49 is_stmt 1
 2492 0c04 6FF01FFC 		j	.L114
 2493              	.L131:
  76:src/kernel/riscv.cpp ****             case 0x12 : executeThreadExitSyscall();break;
 2494              		.loc 1 76 13
  76:src/kernel/riscv.cpp ****             case 0x12 : executeThreadExitSyscall();break;
 2495              		.loc 1 76 25
  76:src/kernel/riscv.cpp ****             case 0x12 : executeThreadExitSyscall();break;
 2496              		.loc 1 76 51 is_stmt 0
 2497 0c08 97000000 		call	_ZN5RiscV26executeThreadCreateSyscallEv
 2497      E7800000 
 2498              	.LVL181:
  76:src/kernel/riscv.cpp ****             case 0x12 : executeThreadExitSyscall();break;
 2499              		.loc 1 76 54 is_stmt 1
 2500 0c10 6FF05FFB 		j	.L114
 2501              	.L130:
  77:src/kernel/riscv.cpp ****             case 0x13 : executeThreadDispatchSyscall();break;
 2502              		.loc 1 77 13
  77:src/kernel/riscv.cpp ****             case 0x13 : executeThreadDispatchSyscall();break;
 2503              		.loc 1 77 25
  77:src/kernel/riscv.cpp ****             case 0x13 : executeThreadDispatchSyscall();break;
 2504              		.loc 1 77 49 is_stmt 0
 2505 0c14 97000000 		call	_ZN5RiscV24executeThreadExitSyscallEv
 2505      E7800000 
GAS LISTING /tmp/ccyPB5Cy.s 			page 70


 2506              	.LVL182:
  77:src/kernel/riscv.cpp ****             case 0x13 : executeThreadDispatchSyscall();break;
 2507              		.loc 1 77 52 is_stmt 1
 2508 0c1c 6FF09FFA 		j	.L114
 2509              	.L129:
  78:src/kernel/riscv.cpp ****             case 0x14 : executeThreadAttachBodySyscall();break;
 2510              		.loc 1 78 13
  78:src/kernel/riscv.cpp ****             case 0x14 : executeThreadAttachBodySyscall();break;
 2511              		.loc 1 78 25
  78:src/kernel/riscv.cpp ****             case 0x14 : executeThreadAttachBodySyscall();break;
 2512              		.loc 1 78 53 is_stmt 0
 2513 0c20 97000000 		call	_ZN5RiscV28executeThreadDispatchSyscallEv
 2513      E7800000 
 2514              	.LVL183:
  78:src/kernel/riscv.cpp ****             case 0x14 : executeThreadAttachBodySyscall();break;
 2515              		.loc 1 78 56 is_stmt 1
 2516 0c28 6FF0DFF9 		j	.L114
 2517              	.L128:
  79:src/kernel/riscv.cpp ****             case 0x15 : executeThreadStartSyscall();break;
 2518              		.loc 1 79 13
  79:src/kernel/riscv.cpp ****             case 0x15 : executeThreadStartSyscall();break;
 2519              		.loc 1 79 25
  79:src/kernel/riscv.cpp ****             case 0x15 : executeThreadStartSyscall();break;
 2520              		.loc 1 79 55 is_stmt 0
 2521 0c2c 97000000 		call	_ZN5RiscV30executeThreadAttachBodySyscallEv
 2521      E7800000 
 2522              	.LVL184:
  79:src/kernel/riscv.cpp ****             case 0x15 : executeThreadStartSyscall();break;
 2523              		.loc 1 79 58 is_stmt 1
 2524 0c34 6FF01FF9 		j	.L114
 2525              	.L127:
  80:src/kernel/riscv.cpp ****             case 0x21 : executeSemOpenSyscall();break;
 2526              		.loc 1 80 13
  80:src/kernel/riscv.cpp ****             case 0x21 : executeSemOpenSyscall();break;
 2527              		.loc 1 80 25
  80:src/kernel/riscv.cpp ****             case 0x21 : executeSemOpenSyscall();break;
 2528              		.loc 1 80 50 is_stmt 0
 2529 0c38 97000000 		call	_ZN5RiscV25executeThreadStartSyscallEv
 2529      E7800000 
 2530              	.LVL185:
  80:src/kernel/riscv.cpp ****             case 0x21 : executeSemOpenSyscall();break;
 2531              		.loc 1 80 53 is_stmt 1
 2532 0c40 6FF05FF8 		j	.L114
 2533              	.L126:
  81:src/kernel/riscv.cpp ****             case 0x22 : executeSemCloseSyscall();break;
 2534              		.loc 1 81 13
  81:src/kernel/riscv.cpp ****             case 0x22 : executeSemCloseSyscall();break;
 2535              		.loc 1 81 25
  81:src/kernel/riscv.cpp ****             case 0x22 : executeSemCloseSyscall();break;
 2536              		.loc 1 81 46 is_stmt 0
 2537 0c44 97000000 		call	_ZN5RiscV21executeSemOpenSyscallEv
 2537      E7800000 
 2538              	.LVL186:
  81:src/kernel/riscv.cpp ****             case 0x22 : executeSemCloseSyscall();break;
 2539              		.loc 1 81 49 is_stmt 1
 2540 0c4c 6FF09FF7 		j	.L114
 2541              	.L125:
GAS LISTING /tmp/ccyPB5Cy.s 			page 71


  82:src/kernel/riscv.cpp ****             case 0x23 : executeSemWaitSyscall();break;
 2542              		.loc 1 82 13
  82:src/kernel/riscv.cpp ****             case 0x23 : executeSemWaitSyscall();break;
 2543              		.loc 1 82 25
  82:src/kernel/riscv.cpp ****             case 0x23 : executeSemWaitSyscall();break;
 2544              		.loc 1 82 47 is_stmt 0
 2545 0c50 97000000 		call	_ZN5RiscV22executeSemCloseSyscallEv
 2545      E7800000 
 2546              	.LVL187:
  82:src/kernel/riscv.cpp ****             case 0x23 : executeSemWaitSyscall();break;
 2547              		.loc 1 82 50 is_stmt 1
 2548 0c58 6FF0DFF6 		j	.L114
 2549              	.L124:
  83:src/kernel/riscv.cpp ****             case 0x24 : executeSemSignalSyscall();break;
 2550              		.loc 1 83 13
  83:src/kernel/riscv.cpp ****             case 0x24 : executeSemSignalSyscall();break;
 2551              		.loc 1 83 25
  83:src/kernel/riscv.cpp ****             case 0x24 : executeSemSignalSyscall();break;
 2552              		.loc 1 83 46 is_stmt 0
 2553 0c5c 97000000 		call	_ZN5RiscV21executeSemWaitSyscallEv
 2553      E7800000 
 2554              	.LVL188:
  83:src/kernel/riscv.cpp ****             case 0x24 : executeSemSignalSyscall();break;
 2555              		.loc 1 83 49 is_stmt 1
 2556 0c64 6FF01FF6 		j	.L114
 2557              	.L123:
  84:src/kernel/riscv.cpp ****             case 0x31 : executeTimeSleepSyscall();break;
 2558              		.loc 1 84 13
  84:src/kernel/riscv.cpp ****             case 0x31 : executeTimeSleepSyscall();break;
 2559              		.loc 1 84 25
  84:src/kernel/riscv.cpp ****             case 0x31 : executeTimeSleepSyscall();break;
 2560              		.loc 1 84 48 is_stmt 0
 2561 0c68 97000000 		call	_ZN5RiscV23executeSemSignalSyscallEv
 2561      E7800000 
 2562              	.LVL189:
  84:src/kernel/riscv.cpp ****             case 0x31 : executeTimeSleepSyscall();break;
 2563              		.loc 1 84 51 is_stmt 1
 2564 0c70 6FF05FF5 		j	.L114
 2565              	.L122:
  85:src/kernel/riscv.cpp ****             case 0x41 : executeGetcSyscall();break;
 2566              		.loc 1 85 13
  85:src/kernel/riscv.cpp ****             case 0x41 : executeGetcSyscall();break;
 2567              		.loc 1 85 25
  85:src/kernel/riscv.cpp ****             case 0x41 : executeGetcSyscall();break;
 2568              		.loc 1 85 48 is_stmt 0
 2569 0c74 97000000 		call	_ZN5RiscV23executeTimeSleepSyscallEv
 2569      E7800000 
 2570              	.LVL190:
  85:src/kernel/riscv.cpp ****             case 0x41 : executeGetcSyscall();break;
 2571              		.loc 1 85 51 is_stmt 1
 2572 0c7c 6FF09FF4 		j	.L114
 2573              	.L121:
  86:src/kernel/riscv.cpp ****             case 0x42 : executePutcSyscall();break;
 2574              		.loc 1 86 13
  86:src/kernel/riscv.cpp ****             case 0x42 : executePutcSyscall();break;
 2575              		.loc 1 86 25
  86:src/kernel/riscv.cpp ****             case 0x42 : executePutcSyscall();break;
GAS LISTING /tmp/ccyPB5Cy.s 			page 72


 2576              		.loc 1 86 43 is_stmt 0
 2577 0c80 97000000 		call	_ZN5RiscV18executeGetcSyscallEv
 2577      E7800000 
 2578              	.LVL191:
  86:src/kernel/riscv.cpp ****             case 0x42 : executePutcSyscall();break;
 2579              		.loc 1 86 46 is_stmt 1
 2580 0c88 6FF0DFF3 		j	.L114
 2581              	.L120:
  87:src/kernel/riscv.cpp ****             case 0x43 : executePutcUtilSyscall();break;
 2582              		.loc 1 87 13
  87:src/kernel/riscv.cpp ****             case 0x43 : executePutcUtilSyscall();break;
 2583              		.loc 1 87 25
  87:src/kernel/riscv.cpp ****             case 0x43 : executePutcUtilSyscall();break;
 2584              		.loc 1 87 43 is_stmt 0
 2585 0c8c 97000000 		call	_ZN5RiscV18executePutcSyscallEv
 2585      E7800000 
 2586              	.LVL192:
  87:src/kernel/riscv.cpp ****             case 0x43 : executePutcUtilSyscall();break;
 2587              		.loc 1 87 46 is_stmt 1
 2588 0c94 6FF01FF3 		j	.L114
 2589              	.L119:
  88:src/kernel/riscv.cpp ****             case 0x51 : executeThreadFreeSyscall();break;
 2590              		.loc 1 88 13
  88:src/kernel/riscv.cpp ****             case 0x51 : executeThreadFreeSyscall();break;
 2591              		.loc 1 88 25
  88:src/kernel/riscv.cpp ****             case 0x51 : executeThreadFreeSyscall();break;
 2592              		.loc 1 88 47 is_stmt 0
 2593 0c98 97000000 		call	_ZN5RiscV22executePutcUtilSyscallEv
 2593      E7800000 
 2594              	.LVL193:
  88:src/kernel/riscv.cpp ****             case 0x51 : executeThreadFreeSyscall();break;
 2595              		.loc 1 88 50 is_stmt 1
 2596 0ca0 6FF05FF2 		j	.L114
 2597              	.L118:
  89:src/kernel/riscv.cpp ****             case 0x52 : executeSemaphoreFreeSyscall();break;
 2598              		.loc 1 89 13
  89:src/kernel/riscv.cpp ****             case 0x52 : executeSemaphoreFreeSyscall();break;
 2599              		.loc 1 89 25
  89:src/kernel/riscv.cpp ****             case 0x52 : executeSemaphoreFreeSyscall();break;
 2600              		.loc 1 89 49 is_stmt 0
 2601 0ca4 97000000 		call	_ZN5RiscV24executeThreadFreeSyscallEv
 2601      E7800000 
 2602              	.LVL194:
  89:src/kernel/riscv.cpp ****             case 0x52 : executeSemaphoreFreeSyscall();break;
 2603              		.loc 1 89 52 is_stmt 1
 2604 0cac 6FF09FF1 		j	.L114
 2605              	.L117:
  90:src/kernel/riscv.cpp ****             //in this case we need to save SP and PC at this point so that newly created thread
 2606              		.loc 1 90 13
  90:src/kernel/riscv.cpp ****             //in this case we need to save SP and PC at this point so that newly created thread
 2607              		.loc 1 90 25
  90:src/kernel/riscv.cpp ****             //in this case we need to save SP and PC at this point so that newly created thread
 2608              		.loc 1 90 52 is_stmt 0
 2609 0cb0 97000000 		call	_ZN5RiscV27executeSemaphoreFreeSyscallEv
 2609      E7800000 
 2610              	.LVL195:
  90:src/kernel/riscv.cpp ****             //in this case we need to save SP and PC at this point so that newly created thread
GAS LISTING /tmp/ccyPB5Cy.s 			page 73


 2611              		.loc 1 90 55 is_stmt 1
 2612 0cb8 6FF0DFF0 		j	.L114
 2613              	.L115:
  94:src/kernel/riscv.cpp ****                         RiscV::getPC();
 2614              		.loc 1 94 13
  94:src/kernel/riscv.cpp ****                         RiscV::getPC();
 2615              		.loc 1 94 25
  94:src/kernel/riscv.cpp ****                         RiscV::getPC();
 2616              		.loc 1 94 72 is_stmt 0
 2617              	#APP
 2618              	# 94 "src/kernel/riscv.cpp" 1
 2619              		mv a5, sp
 2620              	# 0 "" 2
 2621              	#NO_APP
 2622 0cc0 17070000 		la	a4,_ZN3TCB9currentSPE
 2622      03370700 
 2623 0cc8 2330F700 		sd	a5,0(a4)
  95:src/kernel/riscv.cpp ****                         executeForkSyscall();
 2624              		.loc 1 95 25 is_stmt 1
  95:src/kernel/riscv.cpp ****                         executeForkSyscall();
 2625              		.loc 1 95 37 is_stmt 0
 2626 0ccc 97000000 		call	_ZN5RiscV5getPCEv
 2626      E7800000 
 2627              	.LVL196:
  96:src/kernel/riscv.cpp ****                         break;
 2628              		.loc 1 96 25 is_stmt 1
  96:src/kernel/riscv.cpp ****                         break;
 2629              		.loc 1 96 43 is_stmt 0
 2630 0cd4 97000000 		call	_ZN5RiscV18executeForkSyscallEv
 2630      E7800000 
 2631              	.LVL197:
  97:src/kernel/riscv.cpp ****         }
 2632              		.loc 1 97 25 is_stmt 1
 2633 0cdc 6FF09FEE 		j	.L114
 2634              	.L141:
 2635              	.LBE172:
 2636              	.LBB173:
 2637              	.LBB146:
 110:src/kernel/riscv.cpp ****         uint64 volatile sepc = RiscV::r_sepc();
 2638              		.loc 1 110 9
 2639              	.LBB147:
 2640              	.LBB148:
 193:src/kernel/../../h/kernel/riscv.hpp ****     asm("csrr %[sstatus], sstatus" : [sstatus] "=r" (sstatus));
 2641              		.loc 2 193 5
 194:src/kernel/../../h/kernel/riscv.hpp ****     return sstatus;
 2642              		.loc 2 194 5
 194:src/kernel/../../h/kernel/riscv.hpp ****     return sstatus;
 2643              		.loc 2 194 63 is_stmt 0
 2644              	#APP
 2645              	# 194 "src/kernel/../../h/kernel/riscv.hpp" 1
 2646              		csrr a5, sstatus
 2647              	# 0 "" 2
 2648              	.LVL198:
 195:src/kernel/../../h/kernel/riscv.hpp **** }
 2649              		.loc 2 195 5 is_stmt 1
 2650              	#NO_APP
 2651              	.LBE148:
GAS LISTING /tmp/ccyPB5Cy.s 			page 74


 2652              	.LBE147:
 110:src/kernel/riscv.cpp ****         uint64 volatile sepc = RiscV::r_sepc();
 2653              		.loc 1 110 52 is_stmt 0
 2654 0ce4 2334F4FA 		sd	a5,-88(s0)
 111:src/kernel/riscv.cpp **** 
 2655              		.loc 1 111 9 is_stmt 1
 2656              	.LBB149:
 2657              	.LBB150:
 173:src/kernel/../../h/kernel/riscv.hpp ****     asm("csrr %[sepc], sepc" : [sepc] "=r" (sepc));
 2658              		.loc 2 173 5
 174:src/kernel/../../h/kernel/riscv.hpp ****     return sepc;
 2659              		.loc 2 174 5
 174:src/kernel/../../h/kernel/riscv.hpp ****     return sepc;
 2660              		.loc 2 174 51 is_stmt 0
 2661              	#APP
 2662              	# 174 "src/kernel/../../h/kernel/riscv.hpp" 1
 2663              		csrr a5, sepc
 2664              	# 0 "" 2
 2665              	.LVL199:
 175:src/kernel/../../h/kernel/riscv.hpp **** }
 2666              		.loc 2 175 5 is_stmt 1
 2667              	#NO_APP
 2668              	.LBE150:
 2669              	.LBE149:
 111:src/kernel/riscv.cpp **** 
 2670              		.loc 1 111 46 is_stmt 0
 2671 0cec 2338F4FA 		sd	a5,-80(s0)
 114:src/kernel/riscv.cpp **** 
 2672              		.loc 1 114 9 is_stmt 1
 2673              	.LVL200:
 2674              	.LBB151:
 2675              	.LBB152:
 215:src/kernel/../../h/kernel/riscv.hpp **** }
 2676              		.loc 2 215 5
 215:src/kernel/../../h/kernel/riscv.hpp **** }
 2677              		.loc 2 215 51 is_stmt 0
 2678 0cf0 93072000 		li	a5,2
 2679              	#APP
 2680              	# 215 "src/kernel/../../h/kernel/riscv.hpp" 1
 2681              		csrc sip, a5
 2682              	# 0 "" 2
 2683              	.LVL201:
 2684              	#NO_APP
 2685              	.LBE152:
 2686              	.LBE151:
 118:src/kernel/riscv.cpp ****         Scheduler::awake();
 2687              		.loc 1 118 9 is_stmt 1
 118:src/kernel/riscv.cpp ****         Scheduler::awake();
 2688              		.loc 1 118 20 is_stmt 0
 2689 0cf8 17070000 		lla	a4,.LANCHOR0
 2689      13070700 
 2690 0d00 83378700 		ld	a5,8(a4)
 2691 0d04 93871700 		addi	a5,a5,1
 2692 0d08 2334F700 		sd	a5,8(a4)
 119:src/kernel/riscv.cpp **** 
 2693              		.loc 1 119 9 is_stmt 1
 119:src/kernel/riscv.cpp **** 
GAS LISTING /tmp/ccyPB5Cy.s 			page 75


 2694              		.loc 1 119 25 is_stmt 0
 2695 0d0c 97000000 		call	_ZN9Scheduler5awakeEv@plt
 2695      E7800000 
 2696              	.LVL202:
 123:src/kernel/riscv.cpp ****         if(TCB::timeSliceCounter >= TCB::running->timeSlice) {
 2697              		.loc 1 123 9 is_stmt 1
 123:src/kernel/riscv.cpp ****         if(TCB::timeSliceCounter >= TCB::running->timeSlice) {
 2698              		.loc 1 123 30 is_stmt 0
 2699 0d14 17070000 		la	a4,_ZN3TCB16timeSliceCounterE
 2699      03370700 
 2700 0d1c 83370700 		ld	a5,0(a4)
 2701 0d20 93871700 		addi	a5,a5,1
 2702 0d24 2330F700 		sd	a5,0(a4)
 124:src/kernel/riscv.cpp **** 
 2703              		.loc 1 124 9 is_stmt 1
 2704              	.LBB153:
 124:src/kernel/riscv.cpp **** 
 2705              		.loc 1 124 51 is_stmt 0
 2706 0d28 17070000 		la	a4,_ZN3TCB7runningE
 2706      03370700 
 2707 0d30 03370700 		ld	a4,0(a4)
 2708 0d34 83360703 		ld	a3,48(a4)
 124:src/kernel/riscv.cpp **** 
 2709              		.loc 1 124 9
 2710 0d38 63FCD700 		bgeu	a5,a3,.L144
 2711              	.L135:
 2712              	.LBE153:
 136:src/kernel/riscv.cpp ****         RiscV::w_sepc(sepc);
 2713              		.loc 1 136 9 is_stmt 1
 136:src/kernel/riscv.cpp ****         RiscV::w_sepc(sepc);
 2714              		.loc 1 136 25 is_stmt 0
 2715 0d3c 833784FA 		ld	a5,-88(s0)
 2716              	.LVL203:
 2717              	.LBB155:
 2718              	.LBB156:
 189:src/kernel/../../h/kernel/riscv.hpp **** }
 2719              		.loc 2 189 5 is_stmt 1
 189:src/kernel/../../h/kernel/riscv.hpp **** }
 2720              		.loc 2 189 64 is_stmt 0
 2721              	#APP
 2722              	# 189 "src/kernel/../../h/kernel/riscv.hpp" 1
 2723              		csrw sstatus, a5
 2724              	# 0 "" 2
 2725              	.LVL204:
 2726              	#NO_APP
 2727              	.LBE156:
 2728              	.LBE155:
 137:src/kernel/riscv.cpp ****     }
 2729              		.loc 1 137 9 is_stmt 1
 137:src/kernel/riscv.cpp ****     }
 2730              		.loc 1 137 22 is_stmt 0
 2731 0d44 833704FB 		ld	a5,-80(s0)
 2732              	.LVL205:
 2733              	.LBB157:
 2734              	.LBB158:
 179:src/kernel/../../h/kernel/riscv.hpp **** }
 2735              		.loc 2 179 5 is_stmt 1
GAS LISTING /tmp/ccyPB5Cy.s 			page 76


 179:src/kernel/../../h/kernel/riscv.hpp **** }
 2736              		.loc 2 179 52 is_stmt 0
 2737              	#APP
 2738              	# 179 "src/kernel/../../h/kernel/riscv.hpp" 1
 180:src/kernel/../../h/kernel/riscv.hpp **** 
 2739              		csrw sepc, a5
 2740              	# 0 "" 2
 2741              		.loc 2 180 1
 2742              	#NO_APP
 2743 0d4c 6FF05FE9 		j	.L134
 2744              	.LVL206:
 2745              	.L144:
 2746              	.LBE158:
 2747              	.LBE157:
 2748              	.LBB159:
 2749              	.LBB154:
 126:src/kernel/riscv.cpp **** 
 2750              		.loc 1 126 13 is_stmt 1
 126:src/kernel/riscv.cpp **** 
 2751              		.loc 1 126 35 is_stmt 0
 2752 0d50 97070000 		la	a5,_ZN3TCB16timeSliceCounterE
 2752      83B70700 
 2753 0d58 23B00700 		sd	zero,0(a5)
 128:src/kernel/riscv.cpp **** 
 2754              		.loc 1 128 13 is_stmt 1
 2755              	.LVL207:
 130:src/kernel/riscv.cpp **** 
 2756              		.loc 1 130 13
 130:src/kernel/riscv.cpp **** 
 2757              		.loc 1 130 25 is_stmt 0
 2758 0d5c 93071000 		li	a5,1
 2759 0d60 2328F700 		sw	a5,16(a4)
 132:src/kernel/riscv.cpp ****         }
 2760              		.loc 1 132 13 is_stmt 1
 132:src/kernel/riscv.cpp ****         }
 2761              		.loc 1 132 26 is_stmt 0
 2762 0d64 97000000 		call	_ZN3TCB8dispatchEv@plt
 2762      E7800000 
 2763              	.LVL208:
 2764              	.LBE154:
 2765 0d6c 6FF01FFD 		j	.L135
 2766              	.L142:
 2767              	.LBE159:
 2768              	.LBE146:
 2769              	.LBB160:
 2770              	.LBB131:
 144:src/kernel/riscv.cpp ****         uint64 volatile sepc = RiscV::r_sepc();
 2771              		.loc 1 144 9 is_stmt 1
 2772              	.LBB132:
 2773              	.LBB133:
 193:src/kernel/../../h/kernel/riscv.hpp ****     asm("csrr %[sstatus], sstatus" : [sstatus] "=r" (sstatus));
 2774              		.loc 2 193 5
 194:src/kernel/../../h/kernel/riscv.hpp ****     return sstatus;
 2775              		.loc 2 194 5
 194:src/kernel/../../h/kernel/riscv.hpp ****     return sstatus;
 2776              		.loc 2 194 63 is_stmt 0
 2777              	#APP
GAS LISTING /tmp/ccyPB5Cy.s 			page 77


 2778              	# 194 "src/kernel/../../h/kernel/riscv.hpp" 1
 2779              		csrr a5, sstatus
 2780              	# 0 "" 2
 2781              	.LVL209:
 195:src/kernel/../../h/kernel/riscv.hpp **** }
 2782              		.loc 2 195 5 is_stmt 1
 2783              	#NO_APP
 2784              	.LBE133:
 2785              	.LBE132:
 144:src/kernel/riscv.cpp ****         uint64 volatile sepc = RiscV::r_sepc();
 2786              		.loc 1 144 52 is_stmt 0
 2787 0d74 233CF4FA 		sd	a5,-72(s0)
 145:src/kernel/riscv.cpp **** 
 2788              		.loc 1 145 9 is_stmt 1
 2789              	.LBB134:
 2790              	.LBB135:
 173:src/kernel/../../h/kernel/riscv.hpp ****     asm("csrr %[sepc], sepc" : [sepc] "=r" (sepc));
 2791              		.loc 2 173 5
 174:src/kernel/../../h/kernel/riscv.hpp ****     return sepc;
 2792              		.loc 2 174 5
 174:src/kernel/../../h/kernel/riscv.hpp ****     return sepc;
 2793              		.loc 2 174 51 is_stmt 0
 2794              	#APP
 2795              	# 174 "src/kernel/../../h/kernel/riscv.hpp" 1
 2796              		csrr a5, sepc
 2797              	# 0 "" 2
 2798              	.LVL210:
 175:src/kernel/../../h/kernel/riscv.hpp **** }
 2799              		.loc 2 175 5 is_stmt 1
 2800              	#NO_APP
 2801              	.LBE135:
 2802              	.LBE134:
 145:src/kernel/riscv.cpp **** 
 2803              		.loc 1 145 46 is_stmt 0
 2804 0d7c 2330F4FC 		sd	a5,-64(s0)
 148:src/kernel/riscv.cpp ****         asm("mv a0, %[status]" : : [status] "r" (status));
 2805              		.loc 1 148 9 is_stmt 1
 148:src/kernel/riscv.cpp ****         asm("mv a0, %[status]" : : [status] "r" (status));
 2806              		.loc 1 148 16 is_stmt 0
 2807 0d80 97070000 		la	a5,CONSOLE_STATUS
 2807      83B70700 
 2808 0d88 83B70700 		ld	a5,0(a5)
 2809              	.LVL211:
 149:src/kernel/riscv.cpp ****         asm("lb a1, 0(a0)");
 2810              		.loc 1 149 9 is_stmt 1
 149:src/kernel/riscv.cpp ****         asm("lb a1, 0(a0)");
 2811              		.loc 1 149 58 is_stmt 0
 2812              	#APP
 2813              	# 149 "src/kernel/riscv.cpp" 1
 150:src/kernel/riscv.cpp ****         asm("mv %[status], a1" : [status] "=r" (status));
 2814              		mv a0, a5
 2815              	# 0 "" 2
 2816              		.loc 1 150 9 is_stmt 1
 150:src/kernel/riscv.cpp ****         asm("mv %[status], a1" : [status] "=r" (status));
 2817              		.loc 1 150 28 is_stmt 0
 2818              	# 150 "src/kernel/riscv.cpp" 1
 151:src/kernel/riscv.cpp **** 
GAS LISTING /tmp/ccyPB5Cy.s 			page 78


 2819              		lb a1, 0(a0)
 2820              	# 0 "" 2
 2821              		.loc 1 151 9 is_stmt 1
 151:src/kernel/riscv.cpp **** 
 2822              		.loc 1 151 57 is_stmt 0
 2823              	# 151 "src/kernel/riscv.cpp" 1
 2824              		mv a5, a1
 2825              	# 0 "" 2
 2826              	.LVL212:
 154:src/kernel/riscv.cpp ****         {
 2827              		.loc 1 154 9 is_stmt 1
 2828              	#NO_APP
 2829              	.LBB136:
 154:src/kernel/riscv.cpp ****         {
 2830              		.loc 1 154 19 is_stmt 0
 2831 0d98 93F71700 		andi	a5,a5,1
 2832              	.LVL213:
 154:src/kernel/riscv.cpp ****         {
 2833              		.loc 1 154 9
 2834 0d9c 63880702 		beqz	a5,.L137
 2835              	.LBB137:
 157:src/kernel/riscv.cpp ****             char c;
 2836              		.loc 1 157 13 is_stmt 1
 158:src/kernel/riscv.cpp ****             data = CONSOLE_TX_DATA;
 2837              		.loc 1 158 13
 159:src/kernel/riscv.cpp ****             asm("mv a0, %[data]" : : [data] "r" (data));
 2838              		.loc 1 159 13
 159:src/kernel/riscv.cpp ****             asm("mv a0, %[data]" : : [data] "r" (data));
 2839              		.loc 1 159 18 is_stmt 0
 2840 0da0 97070000 		la	a5,CONSOLE_TX_DATA
 2840      83B70700 
 2841 0da8 83B70700 		ld	a5,0(a5)
 2842              	.LVL214:
 160:src/kernel/riscv.cpp ****             asm("lb a1, 0(a0)");
 2843              		.loc 1 160 13 is_stmt 1
 160:src/kernel/riscv.cpp ****             asm("lb a1, 0(a0)");
 2844              		.loc 1 160 56 is_stmt 0
 2845              	#APP
 2846              	# 160 "src/kernel/riscv.cpp" 1
 161:src/kernel/riscv.cpp ****             asm("mv %[c], a1" : [c] "=r" (c));
 2847              		mv a0, a5
 2848              	# 0 "" 2
 2849              		.loc 1 161 13 is_stmt 1
 161:src/kernel/riscv.cpp ****             asm("mv %[c], a1" : [c] "=r" (c));
 2850              		.loc 1 161 32 is_stmt 0
 2851              	# 161 "src/kernel/riscv.cpp" 1
 162:src/kernel/riscv.cpp **** 
 2852              		lb a1, 0(a0)
 2853              	# 0 "" 2
 2854              		.loc 1 162 13 is_stmt 1
 162:src/kernel/riscv.cpp **** 
 2855              		.loc 1 162 46 is_stmt 0
 2856              	# 162 "src/kernel/riscv.cpp" 1
 2857              		mv a0, a1
 2858              	# 0 "" 2
 2859              	#NO_APP
 2860 0db8 1375F50F 		andi	a0,a0,0xff
GAS LISTING /tmp/ccyPB5Cy.s 			page 79


 2861              	.LVL215:
 165:src/kernel/riscv.cpp ****                 ConsoleUtil::pendingGetc--;
 2862              		.loc 1 165 13 is_stmt 1
 165:src/kernel/riscv.cpp ****                 ConsoleUtil::pendingGetc--;
 2863              		.loc 1 165 40 is_stmt 0
 2864 0dbc 97070000 		la	a5,_ZN11ConsoleUtil11pendingGetcE
 2864      83B70700 
 2865              	.LVL216:
 2866 0dc4 83B70700 		ld	a5,0(a5)
 165:src/kernel/riscv.cpp ****                 ConsoleUtil::pendingGetc--;
 2867              		.loc 1 165 13
 2868 0dc8 63940702 		bnez	a5,.L145
 2869              	.LVL217:
 2870              	.L137:
 2871              	.LBE137:
 2872              	.LBE136:
 170:src/kernel/riscv.cpp **** 
 2873              		.loc 1 170 9 is_stmt 1
 170:src/kernel/riscv.cpp **** 
 2874              		.loc 1 170 22 is_stmt 0
 2875 0dcc 97000000 		call	plic_claim@plt
 2875      E7800000 
 2876              	.LVL218:
 2877 0dd4 97000000 		call	plic_complete@plt
 2877      E7800000 
 2878              	.LVL219:
 172:src/kernel/riscv.cpp ****         RiscV::w_sepc(sepc);
 2879              		.loc 1 172 9 is_stmt 1
 172:src/kernel/riscv.cpp ****         RiscV::w_sepc(sepc);
 2880              		.loc 1 172 25 is_stmt 0
 2881 0ddc 833784FB 		ld	a5,-72(s0)
 2882              	.LVL220:
 2883              	.LBB139:
 2884              	.LBB140:
 189:src/kernel/../../h/kernel/riscv.hpp **** }
 2885              		.loc 2 189 5 is_stmt 1
 189:src/kernel/../../h/kernel/riscv.hpp **** }
 2886              		.loc 2 189 64 is_stmt 0
 2887              	#APP
 2888              	# 189 "src/kernel/../../h/kernel/riscv.hpp" 1
 2889              		csrw sstatus, a5
 2890              	# 0 "" 2
 2891              	.LVL221:
 2892              	#NO_APP
 2893              	.LBE140:
 2894              	.LBE139:
 173:src/kernel/riscv.cpp ****     }
 2895              		.loc 1 173 9 is_stmt 1
 173:src/kernel/riscv.cpp ****     }
 2896              		.loc 1 173 22 is_stmt 0
 2897 0de4 833704FC 		ld	a5,-64(s0)
 2898              	.LVL222:
 2899              	.LBB141:
 2900              	.LBB142:
 179:src/kernel/../../h/kernel/riscv.hpp **** }
 2901              		.loc 2 179 5 is_stmt 1
 179:src/kernel/../../h/kernel/riscv.hpp **** }
GAS LISTING /tmp/ccyPB5Cy.s 			page 80


 2902              		.loc 2 179 52 is_stmt 0
 2903              	#APP
 2904              	# 179 "src/kernel/../../h/kernel/riscv.hpp" 1
 180:src/kernel/../../h/kernel/riscv.hpp **** 
 2905              		csrw sepc, a5
 2906              	# 0 "" 2
 2907              		.loc 2 180 1
 2908              	#NO_APP
 2909 0dec 6FF05FDF 		j	.L134
 2910              	.LVL223:
 2911              	.L145:
 2912              	.LBE142:
 2913              	.LBE141:
 2914              	.LBB143:
 2915              	.LBB138:
 166:src/kernel/riscv.cpp ****                 ConsoleUtil::putInput(c);
 2916              		.loc 1 166 17 is_stmt 1
 166:src/kernel/riscv.cpp ****                 ConsoleUtil::putInput(c);
 2917              		.loc 1 166 41 is_stmt 0
 2918 0df0 9387F7FF 		addi	a5,a5,-1
 2919 0df4 17070000 		la	a4,_ZN11ConsoleUtil11pendingGetcE
 2919      03370700 
 2920 0dfc 2330F700 		sd	a5,0(a4)
 167:src/kernel/riscv.cpp ****             }
 2921              		.loc 1 167 17 is_stmt 1
 167:src/kernel/riscv.cpp ****             }
 2922              		.loc 1 167 38 is_stmt 0
 2923 0e00 97000000 		call	_ZN11ConsoleUtil8putInputEc@plt
 2923      E7800000 
 2924              	.LVL224:
 2925 0e08 6FF05FFC 		j	.L137
 2926              	.LVL225:
 2927              	.L143:
 2928              	.LBE138:
 2929              	.LBE143:
 2930              	.LBE131:
 2931              	.LBB144:
 2932              	.LBB128:
 178:src/kernel/riscv.cpp ****         old->status = TCB::Status::FINISHED;
 2933              		.loc 1 178 9 is_stmt 1
 178:src/kernel/riscv.cpp ****         old->status = TCB::Status::FINISHED;
 2934              		.loc 1 178 14 is_stmt 0
 2935 0e0c 97070000 		la	a5,_ZN3TCB7runningE
 2935      83B70700 
 2936 0e14 83B70700 		ld	a5,0(a5)
 2937              	.LVL226:
 179:src/kernel/riscv.cpp ****         ConsoleUtil::printString("sepc: ");
 2938              		.loc 1 179 9 is_stmt 1
 179:src/kernel/riscv.cpp ****         ConsoleUtil::printString("sepc: ");
 2939              		.loc 1 179 21 is_stmt 0
 2940 0e18 13072000 		li	a4,2
 2941 0e1c 23A8E700 		sw	a4,16(a5)
 180:src/kernel/riscv.cpp ****         uint64 sepc = RiscV::r_sepc();
 2942              		.loc 1 180 9 is_stmt 1
 180:src/kernel/riscv.cpp ****         uint64 sepc = RiscV::r_sepc();
 2943              		.loc 1 180 33 is_stmt 0
 2944 0e20 17050000 		lla	a0,.LC0
GAS LISTING /tmp/ccyPB5Cy.s 			page 81


 2944      13050500 
 2945 0e28 97000000 		call	_ZN11ConsoleUtil11printStringEPKc@plt
 2945      E7800000 
 2946              	.LVL227:
 181:src/kernel/riscv.cpp ****         ConsoleUtil::printInt(sepc,16);
 2947              		.loc 1 181 9 is_stmt 1
 2948              	.LBB129:
 2949              	.LBB130:
 173:src/kernel/../../h/kernel/riscv.hpp ****     asm("csrr %[sepc], sepc" : [sepc] "=r" (sepc));
 2950              		.loc 2 173 5
 174:src/kernel/../../h/kernel/riscv.hpp ****     return sepc;
 2951              		.loc 2 174 5
 174:src/kernel/../../h/kernel/riscv.hpp ****     return sepc;
 2952              		.loc 2 174 51 is_stmt 0
 2953              	#APP
 2954              	# 174 "src/kernel/../../h/kernel/riscv.hpp" 1
 175:src/kernel/../../h/kernel/riscv.hpp **** }
 2955              		csrr a0, sepc
 2956              	# 0 "" 2
 2957              		.loc 2 175 5 is_stmt 1
 2958              	#NO_APP
 2959              	.LBE130:
 2960              	.LBE129:
 182:src/kernel/riscv.cpp ****         ConsoleUtil::printString("\n");
 2961              		.loc 1 182 9
 182:src/kernel/riscv.cpp ****         ConsoleUtil::printString("\n");
 2962              		.loc 1 182 30 is_stmt 0
 2963 0e34 13060000 		li	a2,0
 2964 0e38 93050001 		li	a1,16
 2965 0e3c 1B050500 		sext.w	a0,a0
 2966 0e40 97000000 		call	_ZN11ConsoleUtil8printIntEiii@plt
 2966      E7800000 
 2967              	.LVL228:
 183:src/kernel/riscv.cpp ****         ConsoleUtil::printString("Illegal instruction\nExiting thread...\n");
 2968              		.loc 1 183 9 is_stmt 1
 183:src/kernel/riscv.cpp ****         ConsoleUtil::printString("Illegal instruction\nExiting thread...\n");
 2969              		.loc 1 183 33 is_stmt 0
 2970 0e48 17050000 		lla	a0,.LC1
 2970      13050500 
 2971 0e50 97000000 		call	_ZN11ConsoleUtil11printStringEPKc@plt
 2971      E7800000 
 2972              	.LVL229:
 184:src/kernel/riscv.cpp ****         TCB::dispatch();
 2973              		.loc 1 184 9 is_stmt 1
 184:src/kernel/riscv.cpp ****         TCB::dispatch();
 2974              		.loc 1 184 33 is_stmt 0
 2975 0e58 17050000 		lla	a0,.LC2
 2975      13050500 
 2976 0e60 97000000 		call	_ZN11ConsoleUtil11printStringEPKc@plt
 2976      E7800000 
 2977              	.LVL230:
 185:src/kernel/riscv.cpp ****     }
 2978              		.loc 1 185 9 is_stmt 1
 185:src/kernel/riscv.cpp ****     }
 2979              		.loc 1 185 22 is_stmt 0
 2980 0e68 97000000 		call	_ZN3TCB8dispatchEv@plt
 2980      E7800000 
GAS LISTING /tmp/ccyPB5Cy.s 			page 82


 2981              	.LVL231:
 2982              	.LBE128:
 2983 0e70 6FF01FD7 		j	.L134
 2984              	.LBE144:
 2985              	.LBE160:
 2986              	.LBE173:
 2987              	.LBE177:
 2988              		.cfi_endproc
 2989              	.LFE46:
 2991              		.align	2
 2992              		.globl	_ZN5RiscV16threadCreateUtilEPP3TCBPFvPvES3_
 2994              	_ZN5RiscV16threadCreateUtilEPP3TCBPFvPvES3_:
 2995              	.LFB70:
 717:src/kernel/riscv.cpp **** 
 718:src/kernel/riscv.cpp **** void RiscV::threadCreateUtil(TCB **handle, void (*start_routine)(void *), void *arg) {
 2996              		.loc 1 718 86 is_stmt 1
 2997              		.cfi_startproc
 2998              	.LVL232:
 2999 0e74 130101FD 		addi	sp,sp,-48
 3000              		.cfi_def_cfa_offset 48
 3001 0e78 23341102 		sd	ra,40(sp)
 3002 0e7c 23308102 		sd	s0,32(sp)
 3003 0e80 233C9100 		sd	s1,24(sp)
 3004 0e84 23382101 		sd	s2,16(sp)
 3005 0e88 23343101 		sd	s3,8(sp)
 3006              		.cfi_offset 1, -8
 3007              		.cfi_offset 8, -16
 3008              		.cfi_offset 9, -24
 3009              		.cfi_offset 18, -32
 3010              		.cfi_offset 19, -40
 3011 0e8c 13040103 		addi	s0,sp,48
 3012              		.cfi_def_cfa 8, 0
 3013 0e90 13090500 		mv	s2,a0
 3014 0e94 93840500 		mv	s1,a1
 3015 0e98 93090600 		mv	s3,a2
 719:src/kernel/riscv.cpp ****     uint64 ihandle = (uint64)handle;
 3016              		.loc 1 719 5
 3017              	.LVL233:
 720:src/kernel/riscv.cpp ****     uint64 iroutine = (uint64)start_routine;
 3018              		.loc 1 720 5
 721:src/kernel/riscv.cpp ****     uint64 iarg = (uint64)arg;
 3019              		.loc 1 721 5
 722:src/kernel/riscv.cpp ****     uint64 istack = 0;
 3020              		.loc 1 722 5
 723:src/kernel/riscv.cpp **** 
 724:src/kernel/riscv.cpp ****     if(start_routine) {
 3021              		.loc 1 724 5
 3022 0e9c 638E0500 		beqz	a1,.L149
 725:src/kernel/riscv.cpp ****         istack = (uint64) MemoryAllocator::kmalloc((DEFAULT_STACK_SIZE+MEM_BLOCK_SIZE-1)/MEM_BLOCK_
 3023              		.loc 1 725 9
 3024              		.loc 1 725 51 is_stmt 0
 3025 0ea0 13050004 		li	a0,64
 3026              	.LVL234:
 3027 0ea4 97000000 		call	_ZN15MemoryAllocator7kmallocEm@plt
 3027      E7800000 
 3028              	.LVL235:
 726:src/kernel/riscv.cpp ****         if(istack == 0) {
GAS LISTING /tmp/ccyPB5Cy.s 			page 83


 3029              		.loc 1 726 9 is_stmt 1
 3030 0eac 63180500 		bnez	a0,.L147
 727:src/kernel/riscv.cpp ****             *handle = nullptr;
 3031              		.loc 1 727 13
 3032              		.loc 1 727 21 is_stmt 0
 3033 0eb0 23300900 		sd	zero,0(s2)
 728:src/kernel/riscv.cpp ****             return;
 3034              		.loc 1 728 13 is_stmt 1
 3035 0eb4 6F000002 		j	.L146
 3036              	.LVL236:
 3037              	.L149:
 722:src/kernel/riscv.cpp **** 
 3038              		.loc 1 722 12 is_stmt 0
 3039 0eb8 13050000 		li	a0,0
 3040              	.LVL237:
 3041              	.L147:
 729:src/kernel/riscv.cpp ****         }
 730:src/kernel/riscv.cpp ****     }
 731:src/kernel/riscv.cpp **** 
 732:src/kernel/riscv.cpp ****     asm("mv a7, %[istack]" : : [istack] "r" (istack));
 3042              		.loc 1 732 5 is_stmt 1
 3043              		.loc 1 732 54 is_stmt 0
 3044              	#APP
 3045              	# 732 "src/kernel/riscv.cpp" 1
 733              	    asm("mv a3, %[iarg]" : : [iarg] "r" (iarg));
 3046              		mv a7, a0
 3047              	# 0 "" 2
 3048              		.loc 1 733 5 is_stmt 1
 3049              		.loc 1 733 48 is_stmt 0
 3050              	# 733 "src/kernel/riscv.cpp" 1
 734              	    asm("mv a2, %[iroutine]" : : [iroutine] "r" (iroutine));
 3051              		mv a3, s3
 3052              	# 0 "" 2
 3053              		.loc 1 734 5 is_stmt 1
 3054              		.loc 1 734 60 is_stmt 0
 3055              	# 734 "src/kernel/riscv.cpp" 1
 735              	    asm("mv a1, %[ihandle]" : : [ihandle] "r" (ihandle));
 3056              		mv a2, s1
 3057              	# 0 "" 2
 3058              		.loc 1 735 5 is_stmt 1
 3059              		.loc 1 735 57 is_stmt 0
 3060              	# 735 "src/kernel/riscv.cpp" 1
 736              	    asm("li a0, 0x11");
 3061              		mv a1, s2
 3062              	# 0 "" 2
 3063              		.loc 1 736 5 is_stmt 1
 3064              		.loc 1 736 23 is_stmt 0
 3065              	# 736 "src/kernel/riscv.cpp" 1
 737              	
 738:src/kernel/riscv.cpp ****     asm("ecall");
 3066              		li a0, 0x11
 3067              	# 0 "" 2
 3068              		.loc 1 738 5 is_stmt 1
 3069              		.loc 1 738 17 is_stmt 0
 3070              	# 738 "src/kernel/riscv.cpp" 1
 739              	
 740:src/kernel/riscv.cpp ****     uint64 status;
GAS LISTING /tmp/ccyPB5Cy.s 			page 84


 3071              		ecall
 3072              	# 0 "" 2
 3073              		.loc 1 740 5 is_stmt 1
 741:src/kernel/riscv.cpp **** 
 742:src/kernel/riscv.cpp ****     asm("mv %[status], a0" : [status] "=r" (status));
 3074              		.loc 1 742 5
 3075              	.LVL238:
 3076              	#NO_APP
 3077              	.L146:
 743:src/kernel/riscv.cpp **** 
 744:src/kernel/riscv.cpp **** }
 3078              		.loc 1 744 1 is_stmt 0
 3079 0ed4 83308102 		ld	ra,40(sp)
 3080              		.cfi_restore 1
 3081 0ed8 03340102 		ld	s0,32(sp)
 3082              		.cfi_restore 8
 3083              		.cfi_def_cfa 2, 48
 3084 0edc 83348101 		ld	s1,24(sp)
 3085              		.cfi_restore 9
 3086              	.LVL239:
 3087 0ee0 03390101 		ld	s2,16(sp)
 3088              		.cfi_restore 18
 3089              	.LVL240:
 3090 0ee4 83398100 		ld	s3,8(sp)
 3091              		.cfi_restore 19
 3092              	.LVL241:
 3093 0ee8 13010103 		addi	sp,sp,48
 3094              		.cfi_def_cfa_offset 0
 3095 0eec 67800000 		jr	ra
 3096              		.cfi_endproc
 3097              	.LFE70:
 3099              		.align	2
 3100              		.globl	_ZN5RiscV14threadExitUtilEv
 3102              	_ZN5RiscV14threadExitUtilEv:
 3103              	.LFB71:
 745:src/kernel/riscv.cpp **** 
 746:src/kernel/riscv.cpp **** void RiscV::threadExitUtil() {
 3104              		.loc 1 746 30 is_stmt 1
 3105              		.cfi_startproc
 3106 0ef0 130101FF 		addi	sp,sp,-16
 3107              		.cfi_def_cfa_offset 16
 3108 0ef4 23348100 		sd	s0,8(sp)
 3109              		.cfi_offset 8, -8
 3110 0ef8 13040101 		addi	s0,sp,16
 3111              		.cfi_def_cfa 8, 0
 747:src/kernel/riscv.cpp ****     asm("li a0, 0x12");
 3112              		.loc 1 747 5
 3113              		.loc 1 747 23 is_stmt 0
 3114              	#APP
 3115              	# 747 "src/kernel/riscv.cpp" 1
 748              	
 749:src/kernel/riscv.cpp ****     asm("ecall");
 3116              		li a0, 0x12
 3117              	# 0 "" 2
 3118              		.loc 1 749 5 is_stmt 1
 3119              		.loc 1 749 17 is_stmt 0
 3120              	# 749 "src/kernel/riscv.cpp" 1
GAS LISTING /tmp/ccyPB5Cy.s 			page 85


 750              	
 751:src/kernel/riscv.cpp ****     uint64 status;
 3121              		ecall
 3122              	# 0 "" 2
 3123              		.loc 1 751 5 is_stmt 1
 752:src/kernel/riscv.cpp **** 
 753:src/kernel/riscv.cpp ****     asm("mv %[status], a0" : [status] "=r" (status));
 3124              		.loc 1 753 5
 3125              	.LVL242:
 754:src/kernel/riscv.cpp **** }
 3126              		.loc 1 754 1 is_stmt 0
 3127              	#NO_APP
 3128 0f04 03348100 		ld	s0,8(sp)
 3129              		.cfi_restore 8
 3130              		.cfi_def_cfa 2, 16
 3131 0f08 13010101 		addi	sp,sp,16
 3132              		.cfi_def_cfa_offset 0
 3133 0f0c 67800000 		jr	ra
 3134              		.cfi_endproc
 3135              	.LFE71:
 3137              		.align	2
 3138              		.globl	_ZN5RiscV18threadDispatchUtilEv
 3140              	_ZN5RiscV18threadDispatchUtilEv:
 3141              	.LFB72:
 755:src/kernel/riscv.cpp **** 
 756:src/kernel/riscv.cpp **** void RiscV::threadDispatchUtil() {
 3142              		.loc 1 756 34 is_stmt 1
 3143              		.cfi_startproc
 3144 0f10 130101FF 		addi	sp,sp,-16
 3145              		.cfi_def_cfa_offset 16
 3146 0f14 23348100 		sd	s0,8(sp)
 3147              		.cfi_offset 8, -8
 3148 0f18 13040101 		addi	s0,sp,16
 3149              		.cfi_def_cfa 8, 0
 757:src/kernel/riscv.cpp ****     asm("li a0, 0x13");
 3150              		.loc 1 757 5
 3151              		.loc 1 757 23 is_stmt 0
 3152              	#APP
 3153              	# 757 "src/kernel/riscv.cpp" 1
 758              	
 759:src/kernel/riscv.cpp ****     asm("ecall");
 3154              		li a0, 0x13
 3155              	# 0 "" 2
 3156              		.loc 1 759 5 is_stmt 1
 3157              		.loc 1 759 17 is_stmt 0
 3158              	# 759 "src/kernel/riscv.cpp" 1
 760              	}
 3159              		ecall
 3160              	# 0 "" 2
 3161              		.loc 1 760 1
 3162              	#NO_APP
 3163 0f24 03348100 		ld	s0,8(sp)
 3164              		.cfi_restore 8
 3165              		.cfi_def_cfa 2, 16
 3166 0f28 13010101 		addi	sp,sp,16
 3167              		.cfi_def_cfa_offset 0
 3168 0f2c 67800000 		jr	ra
GAS LISTING /tmp/ccyPB5Cy.s 			page 86


 3169              		.cfi_endproc
 3170              	.LFE72:
 3172              		.align	2
 3173              		.globl	_ZN5RiscV11putcWrapperEPv
 3175              	_ZN5RiscV11putcWrapperEPv:
 3176              	.LFB61:
 524:src/kernel/riscv.cpp ****     while(true)
 3177              		.loc 1 524 1 is_stmt 1
 3178              		.cfi_startproc
 3179              	.LVL243:
 3180 0f30 130101FE 		addi	sp,sp,-32
 3181              		.cfi_def_cfa_offset 32
 3182 0f34 233C1100 		sd	ra,24(sp)
 3183 0f38 23388100 		sd	s0,16(sp)
 3184              		.cfi_offset 1, -8
 3185              		.cfi_offset 8, -16
 3186 0f3c 13040102 		addi	s0,sp,32
 3187              		.cfi_def_cfa 8, 0
 3188 0f40 6F00C000 		j	.L156
 3189              	.LVL244:
 3190              	.L157:
 3191              	.LBB178:
 3192              	.LBB179:
 548:src/kernel/riscv.cpp ****     }
 3193              		.loc 1 548 13
 548:src/kernel/riscv.cpp ****     }
 3194              		.loc 1 548 38 is_stmt 0
 3195 0f44 97000000 		call	_ZN5RiscV18threadDispatchUtilEv
 3195      E7800000 
 3196              	.LVL245:
 3197              	.L156:
 3198              	.LBE179:
 3199              	.LBE178:
 525:src/kernel/riscv.cpp ****     {
 3200              		.loc 1 525 5 is_stmt 1
 3201              	.LBB182:
 528:src/kernel/riscv.cpp ****         asm("mv a0, %[status]" : : [status] "r" (status));
 3202              		.loc 1 528 9
 528:src/kernel/riscv.cpp ****         asm("mv a0, %[status]" : : [status] "r" (status));
 3203              		.loc 1 528 16 is_stmt 0
 3204 0f4c 97070000 		la	a5,CONSOLE_STATUS
 3204      83B70700 
 3205 0f54 83B70700 		ld	a5,0(a5)
 3206              	.LVL246:
 529:src/kernel/riscv.cpp ****         asm("lb a1, 0(a0)");
 3207              		.loc 1 529 9 is_stmt 1
 529:src/kernel/riscv.cpp ****         asm("lb a1, 0(a0)");
 3208              		.loc 1 529 58 is_stmt 0
 3209              	#APP
 3210              	# 529 "src/kernel/riscv.cpp" 1
 530:src/kernel/riscv.cpp ****         asm("mv %[status], a1" : [status] "=r" (status));
 3211              		mv a0, a5
 3212              	# 0 "" 2
 3213              		.loc 1 530 9 is_stmt 1
 530:src/kernel/riscv.cpp ****         asm("mv %[status], a1" : [status] "=r" (status));
 3214              		.loc 1 530 28 is_stmt 0
 3215              	# 530 "src/kernel/riscv.cpp" 1
GAS LISTING /tmp/ccyPB5Cy.s 			page 87


 531:src/kernel/riscv.cpp **** 
 3216              		lb a1, 0(a0)
 3217              	# 0 "" 2
 3218              		.loc 1 531 9 is_stmt 1
 531:src/kernel/riscv.cpp **** 
 3219              		.loc 1 531 57 is_stmt 0
 3220              	# 531 "src/kernel/riscv.cpp" 1
 3221              		mv a5, a1
 3222              	# 0 "" 2
 3223              	.LVL247:
 534:src/kernel/riscv.cpp **** 
 3224              		.loc 1 534 9 is_stmt 1
 3225              	#NO_APP
 3226              	.LBB181:
 534:src/kernel/riscv.cpp **** 
 3227              		.loc 1 534 19 is_stmt 0
 3228 0f64 93F70702 		andi	a5,a5,32
 3229              	.LVL248:
 534:src/kernel/riscv.cpp **** 
 3230              		.loc 1 534 9
 3231 0f68 E38E07FC 		beqz	a5,.L157
 3232              	.LBB180:
 537:src/kernel/riscv.cpp ****                 uint64 data = CONSOLE_RX_DATA;
 3233              		.loc 1 537 17 is_stmt 1
 537:src/kernel/riscv.cpp ****                 uint64 data = CONSOLE_RX_DATA;
 3234              		.loc 1 537 63 is_stmt 0
 3235 0f6c 97000000 		call	_ZN11ConsoleUtil15putcUtilSyscallEv@plt
 3235      E7800000 
 3236              	.LVL249:
 537:src/kernel/riscv.cpp ****                 uint64 data = CONSOLE_RX_DATA;
 3237              		.loc 1 537 64
 3238 0f74 A307A4FE 		sb	a0,-17(s0)
 538:src/kernel/riscv.cpp ****                 asm("mv a0, %[data]" : : [data] "r"(data));
 3239              		.loc 1 538 17 is_stmt 1
 538:src/kernel/riscv.cpp ****                 asm("mv a0, %[data]" : : [data] "r"(data));
 3240              		.loc 1 538 24 is_stmt 0
 3241 0f78 97070000 		la	a5,CONSOLE_RX_DATA
 3241      83B70700 
 3242 0f80 83B70700 		ld	a5,0(a5)
 3243              	.LVL250:
 539:src/kernel/riscv.cpp ****                 asm("mv a1, %[c]" : : [c] "r"(c));
 3244              		.loc 1 539 17 is_stmt 1
 539:src/kernel/riscv.cpp ****                 asm("mv a1, %[c]" : : [c] "r"(c));
 3245              		.loc 1 539 59 is_stmt 0
 3246              	#APP
 3247              	# 539 "src/kernel/riscv.cpp" 1
 540:src/kernel/riscv.cpp ****                 asm("sb a1,0(a0)");
 3248              		mv a0, a5
 3249              	# 0 "" 2
 3250              		.loc 1 540 17 is_stmt 1
 540:src/kernel/riscv.cpp ****                 asm("sb a1,0(a0)");
 3251              		.loc 1 540 47 is_stmt 0
 3252              	#NO_APP
 3253 0f88 8347F4FE 		lbu	a5,-17(s0)
 3254              	.LVL251:
 540:src/kernel/riscv.cpp ****                 asm("sb a1,0(a0)");
 3255              		.loc 1 540 50
GAS LISTING /tmp/ccyPB5Cy.s 			page 88


 3256              	#APP
 3257              	# 540 "src/kernel/riscv.cpp" 1
 541:src/kernel/riscv.cpp **** 
 3258              		mv a1, a5
 3259              	# 0 "" 2
 3260              		.loc 1 541 17 is_stmt 1
 541:src/kernel/riscv.cpp **** 
 3261              		.loc 1 541 35 is_stmt 0
 3262              	# 541 "src/kernel/riscv.cpp" 1
 544:src/kernel/riscv.cpp ****                 ConsoleUtil::pendingPutc--;
 3263              		sb a1,0(a0)
 3264              	# 0 "" 2
 3265              		.loc 1 544 13 is_stmt 1
 544:src/kernel/riscv.cpp ****                 ConsoleUtil::pendingPutc--;
 3266              		.loc 1 544 40 is_stmt 0
 3267              	#NO_APP
 3268 0f94 97070000 		la	a5,_ZN11ConsoleUtil11pendingPutcE
 3268      83B70700 
 3269 0f9c 83B70700 		ld	a5,0(a5)
 544:src/kernel/riscv.cpp ****                 ConsoleUtil::pendingPutc--;
 3270              		.loc 1 544 13
 3271 0fa0 E38607FA 		beqz	a5,.L156
 545:src/kernel/riscv.cpp ****         }
 3272              		.loc 1 545 17 is_stmt 1
 545:src/kernel/riscv.cpp ****         }
 3273              		.loc 1 545 41 is_stmt 0
 3274 0fa4 9387F7FF 		addi	a5,a5,-1
 3275 0fa8 17070000 		la	a4,_ZN11ConsoleUtil11pendingPutcE
 3275      03370700 
 3276 0fb0 2330F700 		sd	a5,0(a4)
 3277 0fb4 6FF09FF9 		j	.L156
 3278              	.LBE180:
 3279              	.LBE181:
 3280              	.LBE182:
 3281              		.cfi_endproc
 3282              	.LFE61:
 3284              		.align	2
 3285              		.globl	_ZN5RiscV6getPMTEv
 3287              	_ZN5RiscV6getPMTEv:
 3288              	.LFB76:
 761:src/kernel/riscv.cpp **** 
 762:src/kernel/riscv.cpp **** void RiscV::buildSection(void *PMT, uint64 start, uint64 end, uint64 mask) {
 763:src/kernel/riscv.cpp ****     for(uint64 i=start;i< end;i+=0x1000) {
 764:src/kernel/riscv.cpp ****         handlePageFault(PMT,i, mask);
 765:src/kernel/riscv.cpp ****     }
 766:src/kernel/riscv.cpp **** }
 767:src/kernel/riscv.cpp **** 
 768:src/kernel/riscv.cpp **** void RiscV::buildKernelPMT() {
 769:src/kernel/riscv.cpp ****     RiscV::kPMT = RiscV::getPMT();
 770:src/kernel/riscv.cpp ****     uint64 bEnd = ((uint64)Buddy::BUDDY_START_ADDR + (Buddy::BLOCKS_AVAILABLE<<12));
 771:src/kernel/riscv.cpp **** 
 772:src/kernel/riscv.cpp **** 
 773:src/kernel/riscv.cpp ****     RiscV::buildSection(kPMT, OS_ENTRY, KERNEL_TEXT_END, 0xb);
 774:src/kernel/riscv.cpp ****     RiscV::buildSection(kPMT, KERNEL_TEXT_END, USER_TEXT_START, 0x7);
 775:src/kernel/riscv.cpp ****     RiscV::buildSection(kPMT, USER_TEXT_START, USER_DATA_START, 0x1b);
 776:src/kernel/riscv.cpp ****     RiscV::buildSection(kPMT, USER_DATA_START, USER_DATA_END, 0x17);
 777:src/kernel/riscv.cpp ****     RiscV::buildSection(kPMT, USER_DATA_END, bEnd, 0x7);
GAS LISTING /tmp/ccyPB5Cy.s 			page 89


 778:src/kernel/riscv.cpp ****     RiscV::buildSection(kPMT, bEnd, HEAP_END, 0x17);
 779:src/kernel/riscv.cpp **** 
 780:src/kernel/riscv.cpp ****     RiscV::mapConsoleRegisters(kPMT);
 781:src/kernel/riscv.cpp ****     RiscV::ms_sstatus(1<<18);
 782:src/kernel/riscv.cpp **** }
 783:src/kernel/riscv.cpp **** 
 784:src/kernel/riscv.cpp **** void RiscV::buildUserPMT() {
 785:src/kernel/riscv.cpp ****     RiscV::uPMT = RiscV::getPMT();
 786:src/kernel/riscv.cpp ****     uint64 bEnd = ((uint64)Buddy::BUDDY_START_ADDR + (Buddy::BLOCKS_AVAILABLE<<12));
 787:src/kernel/riscv.cpp **** 
 788:src/kernel/riscv.cpp **** 
 789:src/kernel/riscv.cpp ****     RiscV::buildSection(uPMT, OS_ENTRY, KERNEL_TEXT_END, 0xb);
 790:src/kernel/riscv.cpp ****     RiscV::buildSection(uPMT, KERNEL_TEXT_END, USER_TEXT_START, 0x7);
 791:src/kernel/riscv.cpp ****     RiscV::buildSection(uPMT, USER_TEXT_START, USER_DATA_START, 0x1b);
 792:src/kernel/riscv.cpp ****     RiscV::buildSection(uPMT, USER_DATA_START, USER_DATA_END, 0x17);
 793:src/kernel/riscv.cpp ****     RiscV::buildSection(uPMT, USER_DATA_END, bEnd, 0x7);
 794:src/kernel/riscv.cpp ****     RiscV::buildSection(uPMT, bEnd, HEAP_END, 0x17);
 795:src/kernel/riscv.cpp **** 
 796:src/kernel/riscv.cpp ****     RiscV::mapConsoleRegisters(uPMT);
 797:src/kernel/riscv.cpp ****     RiscV::ms_sstatus(1<<18);
 798:src/kernel/riscv.cpp **** }
 799:src/kernel/riscv.cpp **** 
 800:src/kernel/riscv.cpp **** void* RiscV::getPMT(){
 3289              		.loc 1 800 22 is_stmt 1
 3290              		.cfi_startproc
 3291 0fb8 130101FF 		addi	sp,sp,-16
 3292              		.cfi_def_cfa_offset 16
 3293 0fbc 23341100 		sd	ra,8(sp)
 3294 0fc0 23308100 		sd	s0,0(sp)
 3295              		.cfi_offset 1, -8
 3296              		.cfi_offset 8, -16
 3297 0fc4 13040101 		addi	s0,sp,16
 3298              		.cfi_def_cfa 8, 0
 801:src/kernel/riscv.cpp ****     void* ret = Buddy::alloc(1);
 3299              		.loc 1 801 5
 3300              		.loc 1 801 29 is_stmt 0
 3301 0fc8 13051000 		li	a0,1
 3302 0fcc 97000000 		call	_ZN5Buddy5allocEm@plt
 3302      E7800000 
 3303              	.LVL252:
 802:src/kernel/riscv.cpp ****     uint64* arr = (uint64*)ret;
 3304              		.loc 1 802 5 is_stmt 1
 803:src/kernel/riscv.cpp ****     for(int i=0;i<512;i++)
 3305              		.loc 1 803 5
 3306              	.LBB183:
 3307              		.loc 1 803 13 is_stmt 0
 3308 0fd4 93070000 		li	a5,0
 3309              	.LVL253:
 3310              	.L162:
 3311              		.loc 1 803 18 is_stmt 1 discriminator 3
 3312 0fd8 1307F01F 		li	a4,511
 3313 0fdc 634CF700 		bgt	a5,a4,.L160
 804:src/kernel/riscv.cpp ****         arr[i] = 0;
 3314              		.loc 1 804 9 discriminator 2
 3315              		.loc 1 804 14 is_stmt 0 discriminator 2
 3316 0fe0 13973700 		slli	a4,a5,3
 3317 0fe4 3307E500 		add	a4,a0,a4
GAS LISTING /tmp/ccyPB5Cy.s 			page 90


 3318              		.loc 1 804 16 discriminator 2
 3319 0fe8 23300700 		sd	zero,0(a4)
 803:src/kernel/riscv.cpp ****     for(int i=0;i<512;i++)
 3320              		.loc 1 803 5 is_stmt 1 discriminator 2
 3321 0fec 9B871700 		addiw	a5,a5,1
 3322              	.LVL254:
 3323 0ff0 6FF09FFE 		j	.L162
 3324              	.LVL255:
 3325              	.L160:
 3326              	.LBE183:
 805:src/kernel/riscv.cpp ****     return ret;
 806:src/kernel/riscv.cpp **** }
 3327              		.loc 1 806 1 is_stmt 0
 3328 0ff4 83308100 		ld	ra,8(sp)
 3329              		.cfi_restore 1
 3330 0ff8 03340100 		ld	s0,0(sp)
 3331              		.cfi_restore 8
 3332              		.cfi_def_cfa 2, 16
 3333 0ffc 13010101 		addi	sp,sp,16
 3334              		.cfi_def_cfa_offset 0
 3335 1000 67800000 		jr	ra
 3336              		.cfi_endproc
 3337              	.LFE76:
 3339              		.align	2
 3340              		.globl	_ZN5RiscV15handlePageFaultEPvmm
 3342              	_ZN5RiscV15handlePageFaultEPvmm:
 3343              	.LFB77:
 807:src/kernel/riscv.cpp **** 
 808:src/kernel/riscv.cpp **** void RiscV::handlePageFault(void* PMT, uint64 addr, uint64 mask){
 3344              		.loc 1 808 65 is_stmt 1
 3345              		.cfi_startproc
 3346              	.LVL256:
 3347 1004 130101FC 		addi	sp,sp,-64
 3348              		.cfi_def_cfa_offset 64
 3349 1008 233C1102 		sd	ra,56(sp)
 3350 100c 23388102 		sd	s0,48(sp)
 3351 1010 23349102 		sd	s1,40(sp)
 3352 1014 23302103 		sd	s2,32(sp)
 3353 1018 233C3101 		sd	s3,24(sp)
 3354 101c 23384101 		sd	s4,16(sp)
 3355 1020 23345101 		sd	s5,8(sp)
 3356              		.cfi_offset 1, -8
 3357              		.cfi_offset 8, -16
 3358              		.cfi_offset 9, -24
 3359              		.cfi_offset 18, -32
 3360              		.cfi_offset 19, -40
 3361              		.cfi_offset 20, -48
 3362              		.cfi_offset 21, -56
 3363 1024 13040104 		addi	s0,sp,64
 3364              		.cfi_def_cfa 8, 0
 3365 1028 93090600 		mv	s3,a2
 809:src/kernel/riscv.cpp ****     uint64 pmt2Entry = (addr >> 30) & (0x1ff);;
 3366              		.loc 1 809 5
 3367              		.loc 1 809 30 is_stmt 0
 3368 102c 93D7E501 		srli	a5,a1,30
 3369              		.loc 1 809 12
 3370 1030 93F7F71F 		andi	a5,a5,511
GAS LISTING /tmp/ccyPB5Cy.s 			page 91


 3371              	.LVL257:
 3372              		.loc 1 809 47 is_stmt 1
 810:src/kernel/riscv.cpp ****     uint64 pmt1Entry = (addr >> 21) & (0x1ff);
 3373              		.loc 1 810 5
 3374              		.loc 1 810 30 is_stmt 0
 3375 1034 13D95501 		srli	s2,a1,21
 3376              		.loc 1 810 12
 3377 1038 1379F91F 		andi	s2,s2,511
 3378              	.LVL258:
 811:src/kernel/riscv.cpp ****     uint64 pmt0Entry = (addr >> 12) & (0x1ff);
 3379              		.loc 1 811 5 is_stmt 1
 3380              		.loc 1 811 30 is_stmt 0
 3381 103c 93D4C500 		srli	s1,a1,12
 3382              		.loc 1 811 12
 3383 1040 13FAF41F 		andi	s4,s1,511
 3384              	.LVL259:
 812:src/kernel/riscv.cpp ****     uint64 pmt2Desc = ((uint64*)PMT)[pmt2Entry];
 3385              		.loc 1 812 5 is_stmt 1
 3386              		.loc 1 812 47 is_stmt 0
 3387 1044 93973700 		slli	a5,a5,3
 3388              	.LVL260:
 3389 1048 B30AF500 		add	s5,a0,a5
 3390              		.loc 1 812 12
 3391 104c 83B70A00 		ld	a5,0(s5)
 3392              	.LVL261:
 813:src/kernel/riscv.cpp ****     void* pmt1 = nullptr;
 3393              		.loc 1 813 5 is_stmt 1
 814:src/kernel/riscv.cpp ****     if(pmt2Desc == 0){
 3394              		.loc 1 814 5
 3395 1050 638E0704 		beqz	a5,.L170
 815:src/kernel/riscv.cpp ****         pmt1 = RiscV::getPMT();
 816:src/kernel/riscv.cpp ****         ((uint64*)PMT)[pmt2Entry] = (((uint64)pmt1 >> 12) << 10) | (uint64)1;
 817:src/kernel/riscv.cpp ****     }
 818:src/kernel/riscv.cpp ****     else
 819:src/kernel/riscv.cpp ****         pmt1 = (void*)((pmt2Desc >> 10) << 12);
 3396              		.loc 1 819 9
 3397              		.loc 1 819 34 is_stmt 0
 3398 1054 13D5A700 		srli	a0,a5,10
 3399              	.LVL262:
 3400              		.loc 1 819 41
 3401 1058 1315C500 		slli	a0,a0,12
 3402              	.LVL263:
 3403              	.L166:
 820:src/kernel/riscv.cpp ****     uint64 pmt1Desc = ((uint64*)pmt1)[pmt1Entry];
 3404              		.loc 1 820 5 is_stmt 1
 3405              		.loc 1 820 48 is_stmt 0
 3406 105c 13193900 		slli	s2,s2,3
 3407              	.LVL264:
 3408 1060 33092501 		add	s2,a0,s2
 3409              		.loc 1 820 12
 3410 1064 03350900 		ld	a0,0(s2)
 3411              	.LVL265:
 821:src/kernel/riscv.cpp ****     void* pmt0 = nullptr;
 3412              		.loc 1 821 5 is_stmt 1
 822:src/kernel/riscv.cpp ****     if(pmt1Desc == 0){
 3413              		.loc 1 822 5
 3414 1068 63000506 		beqz	a0,.L171
GAS LISTING /tmp/ccyPB5Cy.s 			page 92


 823:src/kernel/riscv.cpp ****         pmt0 = RiscV::getPMT();
 824:src/kernel/riscv.cpp ****         ((uint64*)pmt1)[pmt1Entry] = (((uint64)pmt0 >> 12) << 10) | (uint64)1;
 825:src/kernel/riscv.cpp ****     }
 826:src/kernel/riscv.cpp ****     else
 827:src/kernel/riscv.cpp ****         pmt0 = (void*)((pmt1Desc >> 10) << 12);
 3415              		.loc 1 827 9
 3416              		.loc 1 827 34 is_stmt 0
 3417 106c 1355A500 		srli	a0,a0,10
 3418              	.LVL266:
 3419              		.loc 1 827 41
 3420 1070 1315C500 		slli	a0,a0,12
 3421              	.LVL267:
 3422              	.L168:
 828:src/kernel/riscv.cpp ****     ((uint64 *) pmt0)[pmt0Entry] = ((addr >> 12) << 10) | mask;
 3423              		.loc 1 828 5 is_stmt 1
 3424              		.loc 1 828 50 is_stmt 0
 3425 1074 9394A400 		slli	s1,s1,10
 3426              		.loc 1 828 32
 3427 1078 131A3A00 		slli	s4,s4,3
 3428              	.LVL268:
 3429 107c 33054501 		add	a0,a0,s4
 3430              	.LVL269:
 3431              		.loc 1 828 57
 3432 1080 B3E93401 		or	s3,s1,s3
 3433              	.LVL270:
 3434              		.loc 1 828 34
 3435 1084 23303501 		sd	s3,0(a0)
 829:src/kernel/riscv.cpp **** }
 3436              		.loc 1 829 1
 3437 1088 83308103 		ld	ra,56(sp)
 3438              		.cfi_remember_state
 3439              		.cfi_restore 1
 3440 108c 03340103 		ld	s0,48(sp)
 3441              		.cfi_restore 8
 3442              		.cfi_def_cfa 2, 64
 3443 1090 83348102 		ld	s1,40(sp)
 3444              		.cfi_restore 9
 3445 1094 03390102 		ld	s2,32(sp)
 3446              		.cfi_restore 18
 3447 1098 83398101 		ld	s3,24(sp)
 3448              		.cfi_restore 19
 3449 109c 033A0101 		ld	s4,16(sp)
 3450              		.cfi_restore 20
 3451 10a0 833A8100 		ld	s5,8(sp)
 3452              		.cfi_restore 21
 3453 10a4 13010104 		addi	sp,sp,64
 3454              		.cfi_def_cfa_offset 0
 3455 10a8 67800000 		jr	ra
 3456              	.LVL271:
 3457              	.L170:
 3458              		.cfi_restore_state
 815:src/kernel/riscv.cpp ****         ((uint64*)PMT)[pmt2Entry] = (((uint64)pmt1 >> 12) << 10) | (uint64)1;
 3459              		.loc 1 815 9 is_stmt 1
 815:src/kernel/riscv.cpp ****         ((uint64*)PMT)[pmt2Entry] = (((uint64)pmt1 >> 12) << 10) | (uint64)1;
 3460              		.loc 1 815 29 is_stmt 0
 3461 10ac 97000000 		call	_ZN5RiscV6getPMTEv
 3461      E7800000 
GAS LISTING /tmp/ccyPB5Cy.s 			page 93


 3462              	.LVL272:
 816:src/kernel/riscv.cpp ****     }
 3463              		.loc 1 816 9 is_stmt 1
 816:src/kernel/riscv.cpp ****     }
 3464              		.loc 1 816 52 is_stmt 0
 3465 10b4 9357C500 		srli	a5,a0,12
 816:src/kernel/riscv.cpp ****     }
 3466              		.loc 1 816 59
 3467 10b8 9397A700 		slli	a5,a5,10
 816:src/kernel/riscv.cpp ****     }
 3468              		.loc 1 816 66
 3469 10bc 93E71700 		ori	a5,a5,1
 816:src/kernel/riscv.cpp ****     }
 3470              		.loc 1 816 35
 3471 10c0 23B0FA00 		sd	a5,0(s5)
 3472 10c4 6FF09FF9 		j	.L166
 3473              	.LVL273:
 3474              	.L171:
 823:src/kernel/riscv.cpp ****         ((uint64*)pmt1)[pmt1Entry] = (((uint64)pmt0 >> 12) << 10) | (uint64)1;
 3475              		.loc 1 823 9 is_stmt 1
 823:src/kernel/riscv.cpp ****         ((uint64*)pmt1)[pmt1Entry] = (((uint64)pmt0 >> 12) << 10) | (uint64)1;
 3476              		.loc 1 823 29 is_stmt 0
 3477 10c8 97000000 		call	_ZN5RiscV6getPMTEv
 3477      E7800000 
 3478              	.LVL274:
 824:src/kernel/riscv.cpp ****     }
 3479              		.loc 1 824 9 is_stmt 1
 824:src/kernel/riscv.cpp ****     }
 3480              		.loc 1 824 53 is_stmt 0
 3481 10d0 9357C500 		srli	a5,a0,12
 824:src/kernel/riscv.cpp ****     }
 3482              		.loc 1 824 60
 3483 10d4 9397A700 		slli	a5,a5,10
 824:src/kernel/riscv.cpp ****     }
 3484              		.loc 1 824 67
 3485 10d8 93E71700 		ori	a5,a5,1
 824:src/kernel/riscv.cpp ****     }
 3486              		.loc 1 824 36
 3487 10dc 2330F900 		sd	a5,0(s2)
 3488 10e0 6FF05FF9 		j	.L168
 3489              		.cfi_endproc
 3490              	.LFE77:
 3492              		.align	2
 3493              		.globl	_ZN5RiscV12buildSectionEPvmmm
 3495              	_ZN5RiscV12buildSectionEPvmmm:
 3496              	.LFB73:
 762:src/kernel/riscv.cpp ****     for(uint64 i=start;i< end;i+=0x1000) {
 3497              		.loc 1 762 76 is_stmt 1
 3498              		.cfi_startproc
 3499              	.LVL275:
 3500 10e4 130101FD 		addi	sp,sp,-48
 3501              		.cfi_def_cfa_offset 48
 3502 10e8 23341102 		sd	ra,40(sp)
 3503 10ec 23308102 		sd	s0,32(sp)
 3504 10f0 233C9100 		sd	s1,24(sp)
 3505 10f4 23382101 		sd	s2,16(sp)
 3506 10f8 23343101 		sd	s3,8(sp)
GAS LISTING /tmp/ccyPB5Cy.s 			page 94


 3507 10fc 23304101 		sd	s4,0(sp)
 3508              		.cfi_offset 1, -8
 3509              		.cfi_offset 8, -16
 3510              		.cfi_offset 9, -24
 3511              		.cfi_offset 18, -32
 3512              		.cfi_offset 19, -40
 3513              		.cfi_offset 20, -48
 3514 1100 13040103 		addi	s0,sp,48
 3515              		.cfi_def_cfa 8, 0
 3516 1104 130A0500 		mv	s4,a0
 3517 1108 93840500 		mv	s1,a1
 3518 110c 13090600 		mv	s2,a2
 3519 1110 93890600 		mv	s3,a3
 763:src/kernel/riscv.cpp ****         handlePageFault(PMT,i, mask);
 3520              		.loc 1 763 5
 3521              	.LVL276:
 3522              	.L174:
 3523              	.LBB184:
 763:src/kernel/riscv.cpp ****         handlePageFault(PMT,i, mask);
 3524              		.loc 1 763 25 discriminator 3
 3525 1114 63F22403 		bgeu	s1,s2,.L172
 764:src/kernel/riscv.cpp ****     }
 3526              		.loc 1 764 9 discriminator 2
 764:src/kernel/riscv.cpp ****     }
 3527              		.loc 1 764 24 is_stmt 0 discriminator 2
 3528 1118 13860900 		mv	a2,s3
 3529 111c 93850400 		mv	a1,s1
 3530 1120 13050A00 		mv	a0,s4
 3531 1124 97000000 		call	_ZN5RiscV15handlePageFaultEPvmm
 3531      E7800000 
 3532              	.LVL277:
 763:src/kernel/riscv.cpp ****         handlePageFault(PMT,i, mask);
 3533              		.loc 1 763 5 is_stmt 1 discriminator 2
 763:src/kernel/riscv.cpp ****         handlePageFault(PMT,i, mask);
 3534              		.loc 1 763 32 is_stmt 0 discriminator 2
 3535 112c B7170000 		li	a5,4096
 3536 1130 B384F400 		add	s1,s1,a5
 3537              	.LVL278:
 763:src/kernel/riscv.cpp ****         handlePageFault(PMT,i, mask);
 3538              		.loc 1 763 5 discriminator 2
 3539 1134 6FF01FFE 		j	.L174
 3540              	.L172:
 3541              	.LBE184:
 766:src/kernel/riscv.cpp **** 
 3542              		.loc 1 766 1
 3543 1138 83308102 		ld	ra,40(sp)
 3544              		.cfi_restore 1
 3545 113c 03340102 		ld	s0,32(sp)
 3546              		.cfi_restore 8
 3547              		.cfi_def_cfa 2, 48
 3548 1140 83348101 		ld	s1,24(sp)
 3549              		.cfi_restore 9
 3550              	.LVL279:
 3551 1144 03390101 		ld	s2,16(sp)
 3552              		.cfi_restore 18
 3553              	.LVL280:
 3554 1148 83398100 		ld	s3,8(sp)
GAS LISTING /tmp/ccyPB5Cy.s 			page 95


 3555              		.cfi_restore 19
 3556              	.LVL281:
 3557 114c 033A0100 		ld	s4,0(sp)
 3558              		.cfi_restore 20
 3559              	.LVL282:
 3560 1150 13010103 		addi	sp,sp,48
 3561              		.cfi_def_cfa_offset 0
 3562 1154 67800000 		jr	ra
 3563              		.cfi_endproc
 3564              	.LFE73:
 3566              		.align	2
 3567              		.globl	_ZN5RiscV19mapConsoleRegistersEPv
 3569              	_ZN5RiscV19mapConsoleRegistersEPv:
 3570              	.LFB78:
 830:src/kernel/riscv.cpp **** 
 831:src/kernel/riscv.cpp **** void RiscV::mapConsoleRegisters(void *PMT) {
 3571              		.loc 1 831 44 is_stmt 1
 3572              		.cfi_startproc
 3573              	.LVL283:
 3574 1158 130101FE 		addi	sp,sp,-32
 3575              		.cfi_def_cfa_offset 32
 3576 115c 233C1100 		sd	ra,24(sp)
 3577 1160 23388100 		sd	s0,16(sp)
 3578 1164 23349100 		sd	s1,8(sp)
 3579              		.cfi_offset 1, -8
 3580              		.cfi_offset 8, -16
 3581              		.cfi_offset 9, -24
 3582 1168 13040102 		addi	s0,sp,32
 3583              		.cfi_def_cfa 8, 0
 3584 116c 93040500 		mv	s1,a0
 832:src/kernel/riscv.cpp ****     handlePageFault(PMT, (uint64)CONSOLE_RX_DATA,0xf);
 3585              		.loc 1 832 5
 3586              		.loc 1 832 20 is_stmt 0
 3587 1170 1306F000 		li	a2,15
 3588 1174 97070000 		la	a5,CONSOLE_RX_DATA
 3588      83B70700 
 3589 117c 83B50700 		ld	a1,0(a5)
 3590 1180 97000000 		call	_ZN5RiscV15handlePageFaultEPvmm
 3590      E7800000 
 3591              	.LVL284:
 833:src/kernel/riscv.cpp ****     handlePageFault(PMT, (uint64)CONSOLE_TX_DATA,0xf);
 3592              		.loc 1 833 5 is_stmt 1
 3593              		.loc 1 833 20 is_stmt 0
 3594 1188 1306F000 		li	a2,15
 3595 118c 97070000 		la	a5,CONSOLE_TX_DATA
 3595      83B70700 
 3596 1194 83B50700 		ld	a1,0(a5)
 3597 1198 13850400 		mv	a0,s1
 3598 119c 97000000 		call	_ZN5RiscV15handlePageFaultEPvmm
 3598      E7800000 
 3599              	.LVL285:
 834:src/kernel/riscv.cpp ****     handlePageFault(PMT, (uint64)CONSOLE_STATUS,0xf);
 3600              		.loc 1 834 5 is_stmt 1
 3601              		.loc 1 834 20 is_stmt 0
 3602 11a4 1306F000 		li	a2,15
 3603 11a8 97070000 		la	a5,CONSOLE_STATUS
 3603      83B70700 
GAS LISTING /tmp/ccyPB5Cy.s 			page 96


 3604 11b0 83B50700 		ld	a1,0(a5)
 3605 11b4 13850400 		mv	a0,s1
 3606 11b8 97000000 		call	_ZN5RiscV15handlePageFaultEPvmm
 3606      E7800000 
 3607              	.LVL286:
 835:src/kernel/riscv.cpp ****     handlePageFault(PMT, (uint64)0xc201004,0xf);
 3608              		.loc 1 835 5 is_stmt 1
 3609              		.loc 1 835 20 is_stmt 0
 3610 11c0 1306F000 		li	a2,15
 3611 11c4 B715200C 		li	a1,203427840
 3612 11c8 93854500 		addi	a1,a1,4
 3613 11cc 13850400 		mv	a0,s1
 3614 11d0 97000000 		call	_ZN5RiscV15handlePageFaultEPvmm
 3614      E7800000 
 3615              	.LVL287:
 836:src/kernel/riscv.cpp **** }...
 3616              		.loc 1 836 1
 3617 11d8 83308101 		ld	ra,24(sp)
 3618              		.cfi_restore 1
 3619 11dc 03340101 		ld	s0,16(sp)
 3620              		.cfi_restore 8
 3621              		.cfi_def_cfa 2, 32
 3622 11e0 83348100 		ld	s1,8(sp)
 3623              		.cfi_restore 9
 3624              	.LVL288:
 3625 11e4 13010102 		addi	sp,sp,32
 3626              		.cfi_def_cfa_offset 0
 3627 11e8 67800000 		jr	ra
 3628              		.cfi_endproc
 3629              	.LFE78:
 3631              		.align	2
 3632              		.globl	_ZN5RiscV14buildKernelPMTEv
 3634              	_ZN5RiscV14buildKernelPMTEv:
 3635              	.LFB74:
 768:src/kernel/riscv.cpp **** void RiscV::buildKernelPMT() {
 3636              		.loc 1 768 30 is_stmt 1
 3637              		.cfi_startproc
 3638 11ec 130101FD 		addi	sp,sp,-48
 3639              		.cfi_def_cfa_offset 48
 3640 11f0 23341102 		sd	ra,40(sp)
 3641 11f4 23308102 		sd	s0,32(sp)
 3642 11f8 233C9100 		sd	s1,24(sp)
 3643 11fc 23382101 		sd	s2,16(sp)
 3644 1200 23343101 		sd	s3,8(sp)
 3645 1204 23304101 		sd	s4,0(sp)
 3646              		.cfi_offset 1, -8
 3647              		.cfi_offset 8, -16
 3648              		.cfi_offset 9, -24
 3649              		.cfi_offset 18, -32
 3650              		.cfi_offset 19, -40
 3651              		.cfi_offset 20, -48
 3652 1208 13040103 		addi	s0,sp,48
 3653              		.cfi_def_cfa 8, 0
 769:src/kernel/riscv.cpp ****     RiscV::kPMT = RiscV::getPMT();
 3654              		.loc 1 769 5
 769:src/kernel/riscv.cpp ****     RiscV::kPMT = RiscV::getPMT();
 3655              		.loc 1 769 32 is_stmt 0
GAS LISTING /tmp/ccyPB5Cy.s 			page 97


 3656 120c 97000000 		call	_ZN5RiscV6getPMTEv
 3656      E7800000 
 3657              	.LVL289:
 769:src/kernel/riscv.cpp ****     RiscV::kPMT = RiscV::getPMT();
 3658              		.loc 1 769 17
 3659 1214 97040000 		lla	s1,.LANCHOR0
 3659      93840400 
 3660 121c 23B8A400 		sd	a0,16(s1)
 770:src/kernel/riscv.cpp ****     uint64 bEnd = ((uint64)Buddy::BUDDY_START_ADDR + (Buddy::BLOCKS_AVAILABLE<<12));
 3661              		.loc 1 770 5 is_stmt 1
 770:src/kernel/riscv.cpp ****     uint64 bEnd = ((uint64)Buddy::BUDDY_START_ADDR + (Buddy::BLOCKS_AVAILABLE<<12));
 3662              		.loc 1 770 78 is_stmt 0
 3663 1220 97070000 		la	a5,_ZN5Buddy16BLOCKS_AVAILABLEE
 3663      83B70700 
 3664 1228 03B90700 		ld	s2,0(a5)
 3665 122c 1319C900 		slli	s2,s2,12
 770:src/kernel/riscv.cpp ****     uint64 bEnd = ((uint64)Buddy::BUDDY_START_ADDR + (Buddy::BLOCKS_AVAILABLE<<12));
 3666              		.loc 1 770 52
 3667 1230 97070000 		la	a5,_ZN5Buddy16BUDDY_START_ADDRE
 3667      83B70700 
 3668 1238 83B70700 		ld	a5,0(a5)
 770:src/kernel/riscv.cpp ****     uint64 bEnd = ((uint64)Buddy::BUDDY_START_ADDR + (Buddy::BLOCKS_AVAILABLE<<12));
 3669              		.loc 1 770 12
 3670 123c 3309F900 		add	s2,s2,a5
 3671              	.LVL290:
 773:src/kernel/riscv.cpp ****     RiscV::buildSection(kPMT, OS_ENTRY, KERNEL_TEXT_END, 0xb);
 3672              		.loc 1 773 5 is_stmt 1
 773:src/kernel/riscv.cpp ****     RiscV::buildSection(kPMT, OS_ENTRY, KERNEL_TEXT_END, 0xb);
 3673              		.loc 1 773 24 is_stmt 0
 3674 1240 170A0000 		la	s4,kernelTextEnd
 3674      033A0A00 
 3675 1248 9306B000 		li	a3,11
 3676 124c 13060A00 		mv	a2,s4
 3677 1250 93051000 		li	a1,1
 3678 1254 9395F501 		slli	a1,a1,31
 3679 1258 97000000 		call	_ZN5RiscV12buildSectionEPvmmm
 3679      E7800000 
 3680              	.LVL291:
 774:src/kernel/riscv.cpp ****     RiscV::buildSection(kPMT, KERNEL_TEXT_END, USER_TEXT_START, 0x7);
 3681              		.loc 1 774 5 is_stmt 1
 774:src/kernel/riscv.cpp ****     RiscV::buildSection(kPMT, KERNEL_TEXT_END, USER_TEXT_START, 0x7);
 3682              		.loc 1 774 24 is_stmt 0
 3683 1260 97090000 		la	s3,userTextStart
 3683      83B90900 
 3684 1268 93067000 		li	a3,7
 3685 126c 13860900 		mv	a2,s3
 3686 1270 93050A00 		mv	a1,s4
 3687 1274 03B50401 		ld	a0,16(s1)
 3688 1278 97000000 		call	_ZN5RiscV12buildSectionEPvmmm
 3688      E7800000 
 3689              	.LVL292:
 775:src/kernel/riscv.cpp ****     RiscV::buildSection(kPMT, USER_TEXT_START, USER_DATA_START, 0x1b);
 3690              		.loc 1 775 5 is_stmt 1
 775:src/kernel/riscv.cpp ****     RiscV::buildSection(kPMT, USER_TEXT_START, USER_DATA_START, 0x1b);
 3691              		.loc 1 775 24 is_stmt 0
 3692 1280 170A0000 		la	s4,userDataStart
 3692      033A0A00 
GAS LISTING /tmp/ccyPB5Cy.s 			page 98


 3693 1288 9306B001 		li	a3,27
 3694 128c 13060A00 		mv	a2,s4
 3695 1290 93850900 		mv	a1,s3
 3696 1294 03B50401 		ld	a0,16(s1)
 3697 1298 97000000 		call	_ZN5RiscV12buildSectionEPvmmm
 3697      E7800000 
 3698              	.LVL293:
 776:src/kernel/riscv.cpp ****     RiscV::buildSection(kPMT, USER_DATA_START, USER_DATA_END, 0x17);
 3699              		.loc 1 776 5 is_stmt 1
 776:src/kernel/riscv.cpp ****     RiscV::buildSection(kPMT, USER_DATA_START, USER_DATA_END, 0x17);
 3700              		.loc 1 776 24 is_stmt 0
 3701 12a0 97090000 		la	s3,userDataEnd
 3701      83B90900 
 3702 12a8 93067001 		li	a3,23
 3703 12ac 13860900 		mv	a2,s3
 3704 12b0 93050A00 		mv	a1,s4
 3705 12b4 03B50401 		ld	a0,16(s1)
 3706 12b8 97000000 		call	_ZN5RiscV12buildSectionEPvmmm
 3706      E7800000 
 3707              	.LVL294:
 777:src/kernel/riscv.cpp ****     RiscV::buildSection(kPMT, USER_DATA_END, bEnd, 0x7);
 3708              		.loc 1 777 5 is_stmt 1
 777:src/kernel/riscv.cpp ****     RiscV::buildSection(kPMT, USER_DATA_END, bEnd, 0x7);
 3709              		.loc 1 777 24 is_stmt 0
 3710 12c0 93067000 		li	a3,7
 3711 12c4 13060900 		mv	a2,s2
 3712 12c8 93850900 		mv	a1,s3
 3713 12cc 03B50401 		ld	a0,16(s1)
 3714 12d0 97000000 		call	_ZN5RiscV12buildSectionEPvmmm
 3714      E7800000 
 3715              	.LVL295:
 778:src/kernel/riscv.cpp ****     RiscV::buildSection(kPMT, bEnd, HEAP_END, 0x17);
 3716              		.loc 1 778 5 is_stmt 1
 778:src/kernel/riscv.cpp ****     RiscV::buildSection(kPMT, bEnd, HEAP_END, 0x17);
 3717              		.loc 1 778 24 is_stmt 0
 3718 12d8 93067001 		li	a3,23
 3719 12dc 97070000 		la	a5,HEAP_END_ADDR
 3719      83B70700 
 3720 12e4 03B60700 		ld	a2,0(a5)
 3721 12e8 93050900 		mv	a1,s2
 3722 12ec 03B50401 		ld	a0,16(s1)
 3723 12f0 97000000 		call	_ZN5RiscV12buildSectionEPvmmm
 3723      E7800000 
 3724              	.LVL296:
 780:src/kernel/riscv.cpp ****     RiscV::mapConsoleRegisters(kPMT);
 3725              		.loc 1 780 5 is_stmt 1
 780:src/kernel/riscv.cpp ****     RiscV::mapConsoleRegisters(kPMT);
 3726              		.loc 1 780 31 is_stmt 0
 3727 12f8 03B50401 		ld	a0,16(s1)
 3728 12fc 97000000 		call	_ZN5RiscV19mapConsoleRegistersEPv
 3728      E7800000 
 3729              	.LVL297:
 781:src/kernel/riscv.cpp ****     RiscV::ms_sstatus(1<<18);
 3730              		.loc 1 781 5 is_stmt 1
 3731              	.LBB185:
 3732              	.LBB186:
 203:src/kernel/../../h/kernel/riscv.hpp **** }
GAS LISTING /tmp/ccyPB5Cy.s 			page 99


 3733              		.loc 2 203 5
 203:src/kernel/../../h/kernel/riscv.hpp **** }
 3734              		.loc 2 203 55 is_stmt 0
 3735 1304 B7070400 		li	a5,262144
 3736              	#APP
 3737              	# 203 "src/kernel/../../h/kernel/riscv.hpp" 1
 3738              		csrs sstatus, a5
 3739              	# 0 "" 2
 3740              	.LVL298:
 3741              	#NO_APP
 3742              	.LBE186:
 3743              	.LBE185:
 782:src/kernel/riscv.cpp **** }
 3744              		.loc 1 782 1
 3745 130c 83308102 		ld	ra,40(sp)
 3746              		.cfi_restore 1
 3747 1310 03340102 		ld	s0,32(sp)
 3748              		.cfi_restore 8
 3749              		.cfi_def_cfa 2, 48
 3750 1314 83348101 		ld	s1,24(sp)
 3751              		.cfi_restore 9
 3752 1318 03390101 		ld	s2,16(sp)
 3753              		.cfi_restore 18
 3754              	.LVL299:
 3755 131c 83398100 		ld	s3,8(sp)
 3756              		.cfi_restore 19
 3757 1320 033A0100 		ld	s4,0(sp)
 3758              		.cfi_restore 20
 3759 1324 13010103 		addi	sp,sp,48
 3760              		.cfi_def_cfa_offset 0
 3761 1328 67800000 		jr	ra
 3762              		.cfi_endproc
 3763              	.LFE74:
 3765              		.align	2
 3766              		.globl	_ZN5RiscV12buildUserPMTEv
 3768              	_ZN5RiscV12buildUserPMTEv:
 3769              	.LFB75:
 784:src/kernel/riscv.cpp **** void RiscV::buildUserPMT() {
 3770              		.loc 1 784 28 is_stmt 1
 3771              		.cfi_startproc
 3772 132c 130101FD 		addi	sp,sp,-48
 3773              		.cfi_def_cfa_offset 48
 3774 1330 23341102 		sd	ra,40(sp)
 3775 1334 23308102 		sd	s0,32(sp)
 3776 1338 233C9100 		sd	s1,24(sp)
 3777 133c 23382101 		sd	s2,16(sp)
 3778 1340 23343101 		sd	s3,8(sp)
 3779 1344 23304101 		sd	s4,0(sp)
 3780              		.cfi_offset 1, -8
 3781              		.cfi_offset 8, -16
 3782              		.cfi_offset 9, -24
 3783              		.cfi_offset 18, -32
 3784              		.cfi_offset 19, -40
 3785              		.cfi_offset 20, -48
 3786 1348 13040103 		addi	s0,sp,48
 3787              		.cfi_def_cfa 8, 0
 785:src/kernel/riscv.cpp ****     RiscV::uPMT = RiscV::getPMT();
GAS LISTING /tmp/ccyPB5Cy.s 			page 100


 3788              		.loc 1 785 5
 785:src/kernel/riscv.cpp ****     RiscV::uPMT = RiscV::getPMT();
 3789              		.loc 1 785 32 is_stmt 0
 3790 134c 97000000 		call	_ZN5RiscV6getPMTEv
 3790      E7800000 
 3791              	.LVL300:
 785:src/kernel/riscv.cpp ****     RiscV::uPMT = RiscV::getPMT();
 3792              		.loc 1 785 17
 3793 1354 97040000 		lla	s1,.LANCHOR0
 3793      93840400 
 3794 135c 23BCA400 		sd	a0,24(s1)
 786:src/kernel/riscv.cpp ****     uint64 bEnd = ((uint64)Buddy::BUDDY_START_ADDR + (Buddy::BLOCKS_AVAILABLE<<12));
 3795              		.loc 1 786 5 is_stmt 1
 786:src/kernel/riscv.cpp ****     uint64 bEnd = ((uint64)Buddy::BUDDY_START_ADDR + (Buddy::BLOCKS_AVAILABLE<<12));
 3796              		.loc 1 786 78 is_stmt 0
 3797 1360 97070000 		la	a5,_ZN5Buddy16BLOCKS_AVAILABLEE
 3797      83B70700 
 3798 1368 03B90700 		ld	s2,0(a5)
 3799 136c 1319C900 		slli	s2,s2,12
 786:src/kernel/riscv.cpp ****     uint64 bEnd = ((uint64)Buddy::BUDDY_START_ADDR + (Buddy::BLOCKS_AVAILABLE<<12));
 3800              		.loc 1 786 52
 3801 1370 97070000 		la	a5,_ZN5Buddy16BUDDY_START_ADDRE
 3801      83B70700 
 3802 1378 83B70700 		ld	a5,0(a5)
 786:src/kernel/riscv.cpp ****     uint64 bEnd = ((uint64)Buddy::BUDDY_START_ADDR + (Buddy::BLOCKS_AVAILABLE<<12));
 3803              		.loc 1 786 12
 3804 137c 3309F900 		add	s2,s2,a5
 3805              	.LVL301:
 789:src/kernel/riscv.cpp ****     RiscV::buildSection(uPMT, OS_ENTRY, KERNEL_TEXT_END, 0xb);
 3806              		.loc 1 789 5 is_stmt 1
 789:src/kernel/riscv.cpp ****     RiscV::buildSection(uPMT, OS_ENTRY, KERNEL_TEXT_END, 0xb);
 3807              		.loc 1 789 24 is_stmt 0
 3808 1380 170A0000 		la	s4,kernelTextEnd
 3808      033A0A00 
 3809 1388 9306B000 		li	a3,11
 3810 138c 13060A00 		mv	a2,s4
 3811 1390 93051000 		li	a1,1
 3812 1394 9395F501 		slli	a1,a1,31
 3813 1398 97000000 		call	_ZN5RiscV12buildSectionEPvmmm
 3813      E7800000 
 3814              	.LVL302:
 790:src/kernel/riscv.cpp ****     RiscV::buildSection(uPMT, KERNEL_TEXT_END, USER_TEXT_START, 0x7);
 3815              		.loc 1 790 5 is_stmt 1
 790:src/kernel/riscv.cpp ****     RiscV::buildSection(uPMT, KERNEL_TEXT_END, USER_TEXT_START, 0x7);
 3816              		.loc 1 790 24 is_stmt 0
 3817 13a0 97090000 		la	s3,userTextStart
 3817      83B90900 
 3818 13a8 93067000 		li	a3,7
 3819 13ac 13860900 		mv	a2,s3
 3820 13b0 93050A00 		mv	a1,s4
 3821 13b4 03B58401 		ld	a0,24(s1)
 3822 13b8 97000000 		call	_ZN5RiscV12buildSectionEPvmmm
 3822      E7800000 
 3823              	.LVL303:
 791:src/kernel/riscv.cpp ****     RiscV::buildSection(uPMT, USER_TEXT_START, USER_DATA_START, 0x1b);
 3824              		.loc 1 791 5 is_stmt 1
 791:src/kernel/riscv.cpp ****     RiscV::buildSection(uPMT, USER_TEXT_START, USER_DATA_START, 0x1b);
GAS LISTING /tmp/ccyPB5Cy.s 			page 101


 3825              		.loc 1 791 24 is_stmt 0
 3826 13c0 170A0000 		la	s4,userDataStart
 3826      033A0A00 
 3827 13c8 9306B001 		li	a3,27
 3828 13cc 13060A00 		mv	a2,s4
 3829 13d0 93850900 		mv	a1,s3
 3830 13d4 03B58401 		ld	a0,24(s1)
 3831 13d8 97000000 		call	_ZN5RiscV12buildSectionEPvmmm
 3831      E7800000 
 3832              	.LVL304:
 792:src/kernel/riscv.cpp ****     RiscV::buildSection(uPMT, USER_DATA_START, USER_DATA_END, 0x17);
 3833              		.loc 1 792 5 is_stmt 1
 792:src/kernel/riscv.cpp ****     RiscV::buildSection(uPMT, USER_DATA_START, USER_DATA_END, 0x17);
 3834              		.loc 1 792 24 is_stmt 0
 3835 13e0 97090000 		la	s3,userDataEnd
 3835      83B90900 
 3836 13e8 93067001 		li	a3,23
 3837 13ec 13860900 		mv	a2,s3
 3838 13f0 93050A00 		mv	a1,s4
 3839 13f4 03B58401 		ld	a0,24(s1)
 3840 13f8 97000000 		call	_ZN5RiscV12buildSectionEPvmmm
 3840      E7800000 
 3841              	.LVL305:
 793:src/kernel/riscv.cpp ****     RiscV::buildSection(uPMT, USER_DATA_END, bEnd, 0x7);
 3842              		.loc 1 793 5 is_stmt 1
 793:src/kernel/riscv.cpp ****     RiscV::buildSection(uPMT, USER_DATA_END, bEnd, 0x7);
 3843              		.loc 1 793 24 is_stmt 0
 3844 1400 93067000 		li	a3,7
 3845 1404 13060900 		mv	a2,s2
 3846 1408 93850900 		mv	a1,s3
 3847 140c 03B58401 		ld	a0,24(s1)
 3848 1410 97000000 		call	_ZN5RiscV12buildSectionEPvmmm
 3848      E7800000 
 3849              	.LVL306:
 794:src/kernel/riscv.cpp ****     RiscV::buildSection(uPMT, bEnd, HEAP_END, 0x17);
 3850              		.loc 1 794 5 is_stmt 1
 794:src/kernel/riscv.cpp ****     RiscV::buildSection(uPMT, bEnd, HEAP_END, 0x17);
 3851              		.loc 1 794 24 is_stmt 0
 3852 1418 93067001 		li	a3,23
 3853 141c 97070000 		la	a5,HEAP_END_ADDR
 3853      83B70700 
 3854 1424 03B60700 		ld	a2,0(a5)
 3855 1428 93050900 		mv	a1,s2
 3856 142c 03B58401 		ld	a0,24(s1)
 3857 1430 97000000 		call	_ZN5RiscV12buildSectionEPvmmm
 3857      E7800000 
 3858              	.LVL307:
 796:src/kernel/riscv.cpp ****     RiscV::mapConsoleRegisters(uPMT);
 3859              		.loc 1 796 5 is_stmt 1
 796:src/kernel/riscv.cpp ****     RiscV::mapConsoleRegisters(uPMT);
 3860              		.loc 1 796 31 is_stmt 0
 3861 1438 03B58401 		ld	a0,24(s1)
 3862 143c 97000000 		call	_ZN5RiscV19mapConsoleRegistersEPv
 3862      E7800000 
 3863              	.LVL308:
 797:src/kernel/riscv.cpp ****     RiscV::ms_sstatus(1<<18);
 3864              		.loc 1 797 5 is_stmt 1
GAS LISTING /tmp/ccyPB5Cy.s 			page 102


 3865              	.LBB187:
 3866              	.LBB188:
 203:src/kernel/../../h/kernel/riscv.hpp **** }
 3867              		.loc 2 203 5
 203:src/kernel/../../h/kernel/riscv.hpp **** }
 3868              		.loc 2 203 55 is_stmt 0
 3869 1444 B7070400 		li	a5,262144
 3870              	#APP
 3871              	# 203 "src/kernel/../../h/kernel/riscv.hpp" 1
 3872              		csrs sstatus, a5
 3873              	# 0 "" 2
 3874              	.LVL309:
 3875              	#NO_APP
 3876              	.LBE188:
 3877              	.LBE187:
 798:src/kernel/riscv.cpp **** }
 3878              		.loc 1 798 1
 3879 144c 83308102 		ld	ra,40(sp)
 3880              		.cfi_restore 1
 3881 1450 03340102 		ld	s0,32(sp)
 3882              		.cfi_restore 8
 3883              		.cfi_def_cfa 2, 48
 3884 1454 83348101 		ld	s1,24(sp)
 3885              		.cfi_restore 9
 3886 1458 03390101 		ld	s2,16(sp)
 3887              		.cfi_restore 18
 3888              	.LVL310:
 3889 145c 83398100 		ld	s3,8(sp)
 3890              		.cfi_restore 19
 3891 1460 033A0100 		ld	s4,0(sp)
 3892              		.cfi_restore 20
 3893 1464 13010103 		addi	sp,sp,48
 3894              		.cfi_def_cfa_offset 0
 3895 1468 67800000 		jr	ra
 3896              		.cfi_endproc
 3897              	.LFE75:
 3899              		.align	2
 3900              		.globl	_ZN5RiscV10initializeEv
 3902              	_ZN5RiscV10initializeEv:
 3903              	.LFB44:
  20:src/kernel/riscv.cpp **** void RiscV::initialize(){
 3904              		.loc 1 20 25 is_stmt 1
 3905              		.cfi_startproc
 3906 146c 130101FF 		addi	sp,sp,-16
 3907              		.cfi_def_cfa_offset 16
 3908 1470 23341100 		sd	ra,8(sp)
 3909 1474 23308100 		sd	s0,0(sp)
 3910              		.cfi_offset 1, -8
 3911              		.cfi_offset 8, -16
 3912 1478 13040101 		addi	s0,sp,16
 3913              		.cfi_def_cfa 8, 0
  21:src/kernel/riscv.cpp ****     RiscV::w_stvec((uint64) &RiscV::supervisorTrap);
 3914              		.loc 1 21 5
  21:src/kernel/riscv.cpp ****     RiscV::w_stvec((uint64) &RiscV::supervisorTrap);
 3915              		.loc 1 21 19 is_stmt 0
 3916 147c 97070000 		la	a5,_ZN5RiscV14supervisorTrapEv
 3916      83B70700 
GAS LISTING /tmp/ccyPB5Cy.s 			page 103


 3917              	.LVL311:
 3918              	.LBB189:
 3919              	.LBB190:
 199:src/kernel/../../h/kernel/riscv.hpp **** }
 3920              		.loc 2 199 5 is_stmt 1
 199:src/kernel/../../h/kernel/riscv.hpp **** }
 3921              		.loc 2 199 56 is_stmt 0
 3922              	#APP
 3923              	# 199 "src/kernel/../../h/kernel/riscv.hpp" 1
 3924              		csrw stvec, a5
 3925              	# 0 "" 2
 3926              	.LVL312:
 3927              	#NO_APP
 3928              	.LBE190:
 3929              	.LBE189:
  22:src/kernel/riscv.cpp ****     kmem_init(BUDDY_START_ADDR_CONST, 4096);
 3930              		.loc 1 22 5 is_stmt 1
  22:src/kernel/riscv.cpp ****     kmem_init(BUDDY_START_ADDR_CONST, 4096);
 3931              		.loc 1 22 15 is_stmt 0
 3932 1488 97070000 		la	a5,HEAP_START_ADDR
 3932      83B70700 
 3933 1490 03B50700 		ld	a0,0(a5)
 3934 1494 1355C500 		srli	a0,a0,12
 3935 1498 13052500 		addi	a0,a0,2
  22:src/kernel/riscv.cpp ****     kmem_init(BUDDY_START_ADDR_CONST, 4096);
 3936              		.loc 1 22 14
 3937 149c B7150000 		li	a1,4096
 3938 14a0 1315C500 		slli	a0,a0,12
 3939 14a4 97000000 		call	_Z9kmem_initPvi@plt
 3939      E7800000 
 3940              	.LVL313:
  23:src/kernel/riscv.cpp ****     MemoryAllocator::initialize();
 3941              		.loc 1 23 5 is_stmt 1
  23:src/kernel/riscv.cpp ****     MemoryAllocator::initialize();
 3942              		.loc 1 23 32 is_stmt 0
 3943 14ac 97000000 		call	_ZN15MemoryAllocator10initializeEv@plt
 3943      E7800000 
 3944              	.LVL314:
  24:src/kernel/riscv.cpp ****     Scheduler::initialize();
 3945              		.loc 1 24 5 is_stmt 1
  24:src/kernel/riscv.cpp ****     Scheduler::initialize();
 3946              		.loc 1 24 26 is_stmt 0
 3947 14b4 97000000 		call	_ZN9Scheduler10initializeEv@plt
 3947      E7800000 
 3948              	.LVL315:
  25:src/kernel/riscv.cpp ****     TCB::initialize();
 3949              		.loc 1 25 5 is_stmt 1
  25:src/kernel/riscv.cpp ****     TCB::initialize();
 3950              		.loc 1 25 20 is_stmt 0
 3951 14bc 97000000 		call	_ZN3TCB10initializeEv@plt
 3951      E7800000 
 3952              	.LVL316:
  26:src/kernel/riscv.cpp ****     SCB::initialize();
 3953              		.loc 1 26 5 is_stmt 1
  26:src/kernel/riscv.cpp ****     SCB::initialize();
 3954              		.loc 1 26 20 is_stmt 0
 3955 14c4 97000000 		call	_ZN3SCB10initializeEv@plt
GAS LISTING /tmp/ccyPB5Cy.s 			page 104


 3955      E7800000 
 3956              	.LVL317:
  27:src/kernel/riscv.cpp ****     ConsoleUtil::initialize();
 3957              		.loc 1 27 5 is_stmt 1
  27:src/kernel/riscv.cpp ****     ConsoleUtil::initialize();
 3958              		.loc 1 27 28 is_stmt 0
 3959 14cc 97000000 		call	_ZN11ConsoleUtil10initializeEv@plt
 3959      E7800000 
 3960              	.LVL318:
  28:src/kernel/riscv.cpp ****     RiscV::buildKernelPMT();
 3961              		.loc 1 28 5 is_stmt 1
  28:src/kernel/riscv.cpp ****     RiscV::buildKernelPMT();
 3962              		.loc 1 28 26 is_stmt 0
 3963 14d4 97000000 		call	_ZN5RiscV14buildKernelPMTEv
 3963      E7800000 
 3964              	.LVL319:
  29:src/kernel/riscv.cpp ****     RiscV::buildUserPMT();
 3965              		.loc 1 29 5 is_stmt 1
  29:src/kernel/riscv.cpp ****     RiscV::buildUserPMT();
 3966              		.loc 1 29 24 is_stmt 0
 3967 14dc 97000000 		call	_ZN5RiscV12buildUserPMTEv
 3967      E7800000 
 3968              	.LVL320:
  30:src/kernel/riscv.cpp ****     RiscV::initialized = true;
 3969              		.loc 1 30 5 is_stmt 1
  30:src/kernel/riscv.cpp ****     RiscV::initialized = true;
 3970              		.loc 1 30 24 is_stmt 0
 3971 14e4 97070000 		lla	a5,.LANCHOR0
 3971      93870700 
 3972 14ec 13071000 		li	a4,1
 3973 14f0 2380E702 		sb	a4,32(a5)
  31:src/kernel/riscv.cpp ****     RiscV::startVirtualMemory(RiscV::kPMT);
 3974              		.loc 1 31 5 is_stmt 1
  31:src/kernel/riscv.cpp ****     RiscV::startVirtualMemory(RiscV::kPMT);
 3975              		.loc 1 31 30 is_stmt 0
 3976 14f4 83B70701 		ld	a5,16(a5)
 3977              	.LVL321:
 3978              	.LBB191:
 3979              	.LBB192:
 255:src/kernel/../../h/kernel/riscv.hpp **** }
 256:src/kernel/../../h/kernel/riscv.hpp **** 
 257:src/kernel/../../h/kernel/riscv.hpp **** inline void RiscV::startVirtualMemory(void* PMT) {
 258:src/kernel/../../h/kernel/riscv.hpp ****     uint64 satp = ((uint64)1<<63) | ((uint64)(PMT)>>12);
 3980              		.loc 2 258 5 is_stmt 1
 3981              		.loc 2 258 51 is_stmt 0
 3982 14f8 93D7C700 		srli	a5,a5,12
 3983              	.LVL322:
 3984              		.loc 2 258 12
 3985 14fc 1307F0FF 		li	a4,-1
 3986 1500 1317F703 		slli	a4,a4,63
 3987 1504 B3E7E700 		or	a5,a5,a4
 3988              	.LVL323:
 259:src/kernel/../../h/kernel/riscv.hpp ****     asm("csrw satp, %[satp]" : : [satp] "r" (satp));
 3989              		.loc 2 259 5 is_stmt 1
 3990              		.loc 2 259 52 is_stmt 0
 3991              	#APP
 3992              	# 259 "src/kernel/../../h/kernel/riscv.hpp" 1
GAS LISTING /tmp/ccyPB5Cy.s 			page 105


 260              	}
 3993              		csrw satp, a5
 3994              	# 0 "" 2
 3995              	.LVL324:
 3996              	#NO_APP
 3997              	.LBE192:
 3998              	.LBE191:
  32:src/kernel/riscv.cpp ****     RiscV::enableInterrupts();
 3999              		.loc 1 32 5 is_stmt 1
 227:src/kernel/../../h/kernel/riscv.hpp ****     RiscV::ms_sie(SIP_SEIE);
 4000              		.loc 2 227 5
 4001              	.LBB193:
 4002              	.LBB194:
 4003              	.LBB195:
 219:src/kernel/../../h/kernel/riscv.hpp **** }
 4004              		.loc 2 219 5
 219:src/kernel/../../h/kernel/riscv.hpp **** }
 4005              		.loc 2 219 51 is_stmt 0
 4006 150c 93072000 		li	a5,2
 4007              	#APP
 4008              	# 219 "src/kernel/../../h/kernel/riscv.hpp" 1
 4009              		csrs sie, a5
 4010              	# 0 "" 2
 4011              	.LVL325:
 4012              	#NO_APP
 4013              	.LBE195:
 4014              	.LBE194:
 4015              	.LBE193:
 228:src/kernel/../../h/kernel/riscv.hpp ****     RiscV::ms_sstatus(SSTATUS_SIE);
 4016              		.loc 2 228 5 is_stmt 1
 4017              	.LBB200:
 4018              	.LBB196:
 4019              	.LBB197:
 219:src/kernel/../../h/kernel/riscv.hpp **** }
 4020              		.loc 2 219 5
 219:src/kernel/../../h/kernel/riscv.hpp **** }
 4021              		.loc 2 219 51 is_stmt 0
 4022 1514 13070020 		li	a4,512
 4023              	#APP
 4024              	# 219 "src/kernel/../../h/kernel/riscv.hpp" 1
 4025              		csrs sie, a4
 4026              	# 0 "" 2
 4027              	.LVL326:
 4028              	#NO_APP
 4029              	.LBE197:
 4030              	.LBE196:
 4031              	.LBE200:
 229:src/kernel/../../h/kernel/riscv.hpp **** }
 4032              		.loc 2 229 5 is_stmt 1
 4033              	.LBB201:
 4034              	.LBB198:
 4035              	.LBB199:
 203:src/kernel/../../h/kernel/riscv.hpp **** }
 4036              		.loc 2 203 5
 203:src/kernel/../../h/kernel/riscv.hpp **** }
 4037              		.loc 2 203 55 is_stmt 0
 4038              	#APP
GAS LISTING /tmp/ccyPB5Cy.s 			page 106


 4039              	# 203 "src/kernel/../../h/kernel/riscv.hpp" 1
 4040              		csrs sstatus, a5
 4041              	# 0 "" 2
 4042              	.LVL327:
 4043              	#NO_APP
 4044              	.LBE199:
 4045              	.LBE198:
 4046              	.LBE201:
  33:src/kernel/riscv.cpp **** }
 4047              		.loc 1 33 1
 4048 1520 83308100 		ld	ra,8(sp)
 4049              		.cfi_restore 1
 4050 1524 03340100 		ld	s0,0(sp)
 4051              		.cfi_restore 8
 4052              		.cfi_def_cfa 2, 16
 4053 1528 13010101 		addi	sp,sp,16
 4054              		.cfi_def_cfa_offset 0
 4055 152c 67800000 		jr	ra
 4056              		.cfi_endproc
 4057              	.LFE44:
 4059              		.globl	_ZN5RiscV11initializedE
 4060              		.globl	_ZN5RiscV4uPMTE
 4061              		.globl	_ZN5RiscV4kPMTE
 4062              		.globl	_ZN5RiscV16userMainFinishedE
 4063              		.globl	_ZN5RiscV10globalTimeE
 4064              		.bss
 4065              		.align	3
 4066              		.set	.LANCHOR0,. + 0
 4069              	_ZN5RiscV16userMainFinishedE:
 4070 0000 00       		.zero	1
 4071 0001 00000000 		.zero	7
 4071      000000
 4074              	_ZN5RiscV10globalTimeE:
 4075 0008 00000000 		.zero	8
 4075      00000000 
 4078              	_ZN5RiscV4kPMTE:
 4079 0010 00000000 		.zero	8
 4079      00000000 
 4082              	_ZN5RiscV4uPMTE:
 4083 0018 00000000 		.zero	8
 4083      00000000 
 4086              	_ZN5RiscV11initializedE:
 4087 0020 00       		.zero	1
 4088              		.text
 4089              	.Letext0:
 4090              		.file 3 "src/kernel/../../h/kernel/../../lib/hw.h"
 4091              		.file 4 "src/kernel/../../h/kernel/tcb.hpp"
 4092              		.file 5 "src/kernel/../../h/kernel/utility.hpp"
 4093              		.file 6 "src/kernel/../../h/kernel/memory_allocator.hpp"
 4094              		.file 7 "src/kernel/../../h/kernel/buddy_allocator.hpp"
 4095              		.file 8 "src/kernel/../../h/kernel/console_util.hpp"
 4096              		.file 9 "src/kernel/../../h/kernel/scb.hpp"
 4097              		.file 10 "src/kernel/../../h/kernel/slab_t.hpp"
 4098              		.file 11 "src/kernel/../../h/kernel/cache_t.hpp"
 4099              		.file 12 "src/kernel/../../h/kernel/scheduler.hpp"
 4100              		.file 13 "src/kernel/../../h/kernel/slab.hpp"
 12553              		.align	3
GAS LISTING /tmp/ccyPB5Cy.s 			page 107


 12556              	DW.ref.__gxx_personality_v0:
 12557 0000 00000000 		.dword	__gxx_personality_v0
 12557      00000000 
 12558              		.ident	"GCC: (Ubuntu 9.4.0-1ubuntu1~20.04) 9.4.0"
 12559              		.section	.note.GNU-stack,"",@progbits
GAS LISTING /tmp/ccyPB5Cy.s 			page 108


DEFINED SYMBOLS
                            *ABS*:0000000000000000 riscv.cpp
     /tmp/ccyPB5Cy.s:9      .text:0000000000000000 _ZN5RiscV10popSppSpieEv
     /tmp/ccyPB5Cy.s:13     .text:0000000000000000 .L0 
     /tmp/ccyPB5Cy.s:14     .text:0000000000000000 .L0 
     /tmp/ccyPB5Cy.s:15     .text:0000000000000004 .L0 
     /tmp/ccyPB5Cy.s:17     .text:0000000000000008 .L0 
     /tmp/ccyPB5Cy.s:19     .text:000000000000000c .L0 
     /tmp/ccyPB5Cy.s:22     .text:000000000000000c .L0 
     /tmp/ccyPB5Cy.s:23     .text:000000000000000c .L0 
     /tmp/ccyPB5Cy.s:24     .text:000000000000000c .L0 
     /tmp/ccyPB5Cy.s:28     .text:000000000000001c .L0 
     /tmp/ccyPB5Cy.s:32     .text:0000000000000024 .L0 
     /tmp/ccyPB5Cy.s:33     .text:0000000000000024 .L0 
     /tmp/ccyPB5Cy.s:34     .text:0000000000000024 .L0 
src/kernel/riscv.cpp:43     .text:0000000000000028 .L0 
     /tmp/ccyPB5Cy.s:41     .text:000000000000002c .L0 
     /tmp/ccyPB5Cy.s:43     .text:000000000000002c .L0 
src/kernel/riscv.cpp:44     .text:0000000000000030 .L0 
     /tmp/ccyPB5Cy.s:50     .text:0000000000000034 .L0 
     /tmp/ccyPB5Cy.s:52     .text:0000000000000034 .L0 
     /tmp/ccyPB5Cy.s:61     .text:0000000000000040 .L0 
src/kernel/riscv.cpp:47     .text:0000000000000040 .L0 
     /tmp/ccyPB5Cy.s:68     .text:0000000000000044 .L0 
     /tmp/ccyPB5Cy.s:69     .text:0000000000000048 .L0 
     /tmp/ccyPB5Cy.s:70     .text:0000000000000048 .L0 
     /tmp/ccyPB5Cy.s:71     .text:0000000000000048 .L0 
     /tmp/ccyPB5Cy.s:73     .text:000000000000004c .L0 
     /tmp/ccyPB5Cy.s:77     .text:0000000000000050 .L0 
     /tmp/ccyPB5Cy.s:79     .text:0000000000000050 .L0 
src/kernel/riscv.cpp:39     .text:0000000000000050 .L0 
     /tmp/ccyPB5Cy.s:86     .text:0000000000000058 .L0 
     /tmp/ccyPB5Cy.s:92     .text:0000000000000058 _ZN5RiscV28executeThreadDispatchSyscallEv
     /tmp/ccyPB5Cy.s:95     .text:0000000000000058 .L0 
     /tmp/ccyPB5Cy.s:96     .text:0000000000000058 .L0 
     /tmp/ccyPB5Cy.s:97     .text:000000000000005c .L0 
     /tmp/ccyPB5Cy.s:100    .text:0000000000000064 .L0 
     /tmp/ccyPB5Cy.s:101    .text:0000000000000064 .L0 
     /tmp/ccyPB5Cy.s:103    .text:0000000000000068 .L0 
     /tmp/ccyPB5Cy.s:105    .text:0000000000000068 .L0 
     /tmp/ccyPB5Cy.s:106    .text:0000000000000068 .L0 
     /tmp/ccyPB5Cy.s:110    .text:0000000000000074 .L0 
     /tmp/ccyPB5Cy.s:111    .text:0000000000000074 .L0 
     /tmp/ccyPB5Cy.s:114    .text:000000000000007c .L0 
     /tmp/ccyPB5Cy.s:115    .text:000000000000007c .L0 
     /tmp/ccyPB5Cy.s:118    .text:0000000000000084 .L0 
     /tmp/ccyPB5Cy.s:119    .text:0000000000000088 .L0 
     /tmp/ccyPB5Cy.s:121    .text:000000000000008c .L0 
     /tmp/ccyPB5Cy.s:122    .text:000000000000008c .L0 
     /tmp/ccyPB5Cy.s:124    .text:0000000000000090 .L0 
     /tmp/ccyPB5Cy.s:126    .text:0000000000000094 .L0 
     /tmp/ccyPB5Cy.s:132    .text:0000000000000094 _ZN5RiscV18executePutcSyscallEv
     /tmp/ccyPB5Cy.s:135    .text:0000000000000094 .L0 
     /tmp/ccyPB5Cy.s:136    .text:0000000000000094 .L0 
     /tmp/ccyPB5Cy.s:137    .text:0000000000000098 .L0 
     /tmp/ccyPB5Cy.s:140    .text:00000000000000a0 .L0 
     /tmp/ccyPB5Cy.s:141    .text:00000000000000a0 .L0 
GAS LISTING /tmp/ccyPB5Cy.s 			page 109


     /tmp/ccyPB5Cy.s:143    .text:00000000000000a4 .L0 
     /tmp/ccyPB5Cy.s:145    .text:00000000000000a4 .L0 
     /tmp/ccyPB5Cy.s:146    .text:00000000000000a4 .L0 
     /tmp/ccyPB5Cy.s:148    .text:00000000000000ac .L0 
     /tmp/ccyPB5Cy.s:150    .text:00000000000000b0 .L0 
     /tmp/ccyPB5Cy.s:151    .text:00000000000000b0 .L0 
     /tmp/ccyPB5Cy.s:157    .text:00000000000000c4 .L0 
     /tmp/ccyPB5Cy.s:158    .text:00000000000000c4 .L0 
src/kernel/riscv.cpp:514    .text:00000000000000c4 .L0 
     /tmp/ccyPB5Cy.s:165    .text:00000000000000c8 .L0 
     /tmp/ccyPB5Cy.s:167    .text:00000000000000c8 .L0 
     /tmp/ccyPB5Cy.s:171    .text:00000000000000d4 .L0 
     /tmp/ccyPB5Cy.s:172    .text:00000000000000d8 .L0 
     /tmp/ccyPB5Cy.s:174    .text:00000000000000dc .L0 
     /tmp/ccyPB5Cy.s:175    .text:00000000000000dc .L0 
     /tmp/ccyPB5Cy.s:177    .text:00000000000000e0 .L0 
     /tmp/ccyPB5Cy.s:179    .text:00000000000000e4 .L0 
     /tmp/ccyPB5Cy.s:185    .text:00000000000000e4 _ZN5RiscV29jumpToDesignatedPrivilegeModeEv
     /tmp/ccyPB5Cy.s:188    .text:00000000000000e4 .L0 
     /tmp/ccyPB5Cy.s:189    .text:00000000000000e4 .L0 
     /tmp/ccyPB5Cy.s:190    .text:00000000000000e8 .L0 
     /tmp/ccyPB5Cy.s:192    .text:00000000000000ec .L0 
     /tmp/ccyPB5Cy.s:194    .text:00000000000000f0 .L0 
     /tmp/ccyPB5Cy.s:196    .text:00000000000000f0 .L0 
     /tmp/ccyPB5Cy.s:197    .text:00000000000000f0 .L0 
     /tmp/ccyPB5Cy.s:201    .text:0000000000000100 .L0 
     /tmp/ccyPB5Cy.s:208    .text:0000000000000108 .L0 
     /tmp/ccyPB5Cy.s:209    .text:0000000000000108 .L0 
     /tmp/ccyPB5Cy.s:210    .text:0000000000000108 .L0 
     /tmp/ccyPB5Cy.s:221    .text:0000000000000110 .L0 
     /tmp/ccyPB5Cy.s:222    .text:0000000000000114 .L0 
     /tmp/ccyPB5Cy.s:223    .text:0000000000000114 .L0 
     /tmp/ccyPB5Cy.s:224    .text:0000000000000114 .L0 
     /tmp/ccyPB5Cy.s:226    .text:0000000000000118 .L0 
     /tmp/ccyPB5Cy.s:229    .text:000000000000011c .L0 
     /tmp/ccyPB5Cy.s:234    .text:000000000000011c .L0 
     /tmp/ccyPB5Cy.s:235    .text:000000000000011c .L0 
     /tmp/ccyPB5Cy.s:236    .text:000000000000011c .L0 
     /tmp/ccyPB5Cy.s:243    .text:0000000000000124 .L0 
     /tmp/ccyPB5Cy.s:246    .text:0000000000000128 .L0 
     /tmp/ccyPB5Cy.s:252    .text:0000000000000128 _ZN5RiscV8finalizeEv
     /tmp/ccyPB5Cy.s:255    .text:0000000000000128 .L0 
     /tmp/ccyPB5Cy.s:256    .text:0000000000000128 .L0 
     /tmp/ccyPB5Cy.s:257    .text:000000000000012c .L0 
     /tmp/ccyPB5Cy.s:260    .text:0000000000000134 .L0 
     /tmp/ccyPB5Cy.s:261    .text:0000000000000134 .L0 
     /tmp/ccyPB5Cy.s:263    .text:0000000000000138 .L0 
     /tmp/ccyPB5Cy.s:265    .text:0000000000000138 .L0 
     /tmp/ccyPB5Cy.s:266    .text:0000000000000138 .L0 
     /tmp/ccyPB5Cy.s:269    .text:0000000000000144 .L0 
     /tmp/ccyPB5Cy.s:270    .text:0000000000000144 .L0 
     /tmp/ccyPB5Cy.s:273    .text:0000000000000150 .L0 
     /tmp/ccyPB5Cy.s:274    .text:0000000000000150 .L0 
     /tmp/ccyPB5Cy.s:279    .text:000000000000015c .L0 
     /tmp/ccyPB5Cy.s:282    .text:000000000000015c .L0 
     /tmp/ccyPB5Cy.s:289    .text:000000000000015c .L0 
     /tmp/ccyPB5Cy.s:290    .text:000000000000015c .L0 
GAS LISTING /tmp/ccyPB5Cy.s 			page 110


     /tmp/ccyPB5Cy.s:291    .text:000000000000015c .L0 
     /tmp/ccyPB5Cy.s:304    .text:0000000000000164 .L0 
     /tmp/ccyPB5Cy.s:310    .text:0000000000000164 .L0 
     /tmp/ccyPB5Cy.s:311    .text:0000000000000164 .L0 
     /tmp/ccyPB5Cy.s:312    .text:0000000000000164 .L0 
     /tmp/ccyPB5Cy.s:326    .text:000000000000016c .L0 
     /tmp/ccyPB5Cy.s:327    .text:000000000000016c .L0 
     /tmp/ccyPB5Cy.s:331    .text:000000000000017c .L0 
     /tmp/ccyPB5Cy.s:332    .text:000000000000017c .L0 
     /tmp/ccyPB5Cy.s:334    .text:0000000000000180 .L0 
     /tmp/ccyPB5Cy.s:337    .text:000000000000018c .L0 
     /tmp/ccyPB5Cy.s:340    .text:0000000000000190 .L0 
     /tmp/ccyPB5Cy.s:341    .text:0000000000000190 .L0 
     /tmp/ccyPB5Cy.s:347    .text:00000000000001a4 .L0 
     /tmp/ccyPB5Cy.s:348    .text:00000000000001a4 .L0 
     /tmp/ccyPB5Cy.s:354    .text:00000000000001c0 .L0 
     /tmp/ccyPB5Cy.s:355    .text:00000000000001c0 .L0 
     /tmp/ccyPB5Cy.s:358    .text:00000000000001c8 .L0 
     /tmp/ccyPB5Cy.s:361    .text:00000000000001cc .L0 
     /tmp/ccyPB5Cy.s:362    .text:00000000000001d0 .L0 
     /tmp/ccyPB5Cy.s:364    .text:00000000000001d4 .L0 
     /tmp/ccyPB5Cy.s:365    .text:00000000000001d4 .L0 
     /tmp/ccyPB5Cy.s:367    .text:00000000000001d8 .L0 
     /tmp/ccyPB5Cy.s:369    .text:00000000000001dc .L0 
     /tmp/ccyPB5Cy.s:375    .text:00000000000001dc _ZN5RiscV16saveA0toSscratchEv
     /tmp/ccyPB5Cy.s:378    .text:00000000000001dc .L0 
     /tmp/ccyPB5Cy.s:379    .text:00000000000001dc .L0 
     /tmp/ccyPB5Cy.s:380    .text:00000000000001e0 .L0 
     /tmp/ccyPB5Cy.s:382    .text:00000000000001e4 .L0 
     /tmp/ccyPB5Cy.s:384    .text:00000000000001e8 .L0 
     /tmp/ccyPB5Cy.s:386    .text:00000000000001e8 .L0 
     /tmp/ccyPB5Cy.s:387    .text:00000000000001e8 .L0 
src/kernel/riscv.cpp:596    .text:00000000000001e8 .L0 
     /tmp/ccyPB5Cy.s:393    .text:00000000000001ec .L0 
     /tmp/ccyPB5Cy.s:395    .text:00000000000001ec .L0 
src/kernel/riscv.cpp:597    .text:00000000000001fc .L0 
     /tmp/ccyPB5Cy.s:404    .text:0000000000000200 .L0 
src/kernel/riscv.cpp:598    .text:0000000000000200 .L0 
     /tmp/ccyPB5Cy.s:409    .text:0000000000000204 .L0 
src/kernel/riscv.cpp:599    .text:0000000000000204 .L0 
     /tmp/ccyPB5Cy.s:415    .text:0000000000000208 .L0 
     /tmp/ccyPB5Cy.s:416    .text:000000000000020c .L0 
     /tmp/ccyPB5Cy.s:417    .text:000000000000020c .L0 
     /tmp/ccyPB5Cy.s:419    .text:0000000000000210 .L0 
     /tmp/ccyPB5Cy.s:421    .text:0000000000000214 .L0 
     /tmp/ccyPB5Cy.s:427    .text:0000000000000214 _ZN5RiscV22executeMemAllocSyscallEv
     /tmp/ccyPB5Cy.s:430    .text:0000000000000214 .L0 
     /tmp/ccyPB5Cy.s:431    .text:0000000000000214 .L0 
     /tmp/ccyPB5Cy.s:432    .text:0000000000000218 .L0 
     /tmp/ccyPB5Cy.s:435    .text:0000000000000220 .L0 
     /tmp/ccyPB5Cy.s:436    .text:0000000000000220 .L0 
     /tmp/ccyPB5Cy.s:438    .text:0000000000000224 .L0 
     /tmp/ccyPB5Cy.s:440    .text:0000000000000224 .L0 
     /tmp/ccyPB5Cy.s:441    .text:0000000000000224 .L0 
src/kernel/riscv.cpp:212    .text:0000000000000224 .L0 
     /tmp/ccyPB5Cy.s:448    .text:0000000000000228 .L0 
     /tmp/ccyPB5Cy.s:450    .text:0000000000000228 .L0 
GAS LISTING /tmp/ccyPB5Cy.s 			page 111


     /tmp/ccyPB5Cy.s:453    .text:0000000000000230 .L0 
src/kernel/riscv.cpp:217    .text:0000000000000230 .L0 
     /tmp/ccyPB5Cy.s:459    .text:0000000000000234 .L0 
     /tmp/ccyPB5Cy.s:461    .text:0000000000000234 .L0 
     /tmp/ccyPB5Cy.s:464    .text:000000000000023c .L0 
     /tmp/ccyPB5Cy.s:465    .text:0000000000000240 .L0 
     /tmp/ccyPB5Cy.s:467    .text:0000000000000244 .L0 
     /tmp/ccyPB5Cy.s:468    .text:0000000000000244 .L0 
     /tmp/ccyPB5Cy.s:470    .text:0000000000000248 .L0 
     /tmp/ccyPB5Cy.s:472    .text:000000000000024c .L0 
     /tmp/ccyPB5Cy.s:478    .text:000000000000024c _ZN5RiscV21executeMemFreeSyscallEv
     /tmp/ccyPB5Cy.s:481    .text:000000000000024c .L0 
     /tmp/ccyPB5Cy.s:482    .text:000000000000024c .L0 
     /tmp/ccyPB5Cy.s:483    .text:0000000000000250 .L0 
     /tmp/ccyPB5Cy.s:486    .text:0000000000000258 .L0 
     /tmp/ccyPB5Cy.s:487    .text:0000000000000258 .L0 
     /tmp/ccyPB5Cy.s:489    .text:000000000000025c .L0 
     /tmp/ccyPB5Cy.s:491    .text:000000000000025c .L0 
     /tmp/ccyPB5Cy.s:492    .text:000000000000025c .L0 
     /tmp/ccyPB5Cy.s:496    .text:000000000000026c .L0 
     /tmp/ccyPB5Cy.s:500    .text:0000000000000270 .L0 
src/kernel/riscv.cpp:237    .text:0000000000000270 .L0 
     /tmp/ccyPB5Cy.s:506    .text:0000000000000274 .L0 
     /tmp/ccyPB5Cy.s:508    .text:0000000000000274 .L0 
     /tmp/ccyPB5Cy.s:511    .text:000000000000027c .L0 
     /tmp/ccyPB5Cy.s:512    .text:0000000000000280 .L0 
     /tmp/ccyPB5Cy.s:513    .text:0000000000000280 .L0 
     /tmp/ccyPB5Cy.s:515    .text:0000000000000284 .L0 
     /tmp/ccyPB5Cy.s:516    .text:0000000000000284 .L0 
     /tmp/ccyPB5Cy.s:518    .text:0000000000000288 .L0 
     /tmp/ccyPB5Cy.s:521    .text:000000000000028c .L0 
     /tmp/ccyPB5Cy.s:523    .text:000000000000028c .L0 
src/kernel/riscv.cpp:230    .text:000000000000028c .L0 
     /tmp/ccyPB5Cy.s:530    .text:0000000000000290 .L0 
     /tmp/ccyPB5Cy.s:532    .text:0000000000000290 .L0 
     /tmp/ccyPB5Cy.s:535    .text:0000000000000298 .L0 
     /tmp/ccyPB5Cy.s:536    .text:000000000000029c .L0 
     /tmp/ccyPB5Cy.s:542    .text:000000000000029c _ZN5RiscV26executeThreadCreateSyscallEv
     /tmp/ccyPB5Cy.s:545    .text:000000000000029c .L0 
     /tmp/ccyPB5Cy.s:12556  .data.rel.local.DW.ref.__gxx_personality_v0:0000000000000000 DW.ref.__gxx_personality_v0
     /tmp/ccyPB5Cy.s:548    .text:000000000000029c .L0 
     /tmp/ccyPB5Cy.s:549    .text:00000000000002a0 .L0 
     /tmp/ccyPB5Cy.s:557    .text:00000000000002bc .L0 
     /tmp/ccyPB5Cy.s:558    .text:00000000000002bc .L0 
     /tmp/ccyPB5Cy.s:559    .text:00000000000002bc .L0 
     /tmp/ccyPB5Cy.s:560    .text:00000000000002bc .L0 
     /tmp/ccyPB5Cy.s:561    .text:00000000000002bc .L0 
     /tmp/ccyPB5Cy.s:562    .text:00000000000002bc .L0 
     /tmp/ccyPB5Cy.s:563    .text:00000000000002bc .L0 
     /tmp/ccyPB5Cy.s:565    .text:00000000000002c0 .L0 
     /tmp/ccyPB5Cy.s:567    .text:00000000000002c0 .L0 
     /tmp/ccyPB5Cy.s:568    .text:00000000000002c0 .L0 
src/kernel/riscv.cpp:247    .text:00000000000002c0 .L0 
     /tmp/ccyPB5Cy.s:575    .text:00000000000002c4 .L0 
src/kernel/riscv.cpp:248    .text:00000000000002c4 .L0 
     /tmp/ccyPB5Cy.s:581    .text:00000000000002c8 .L0 
src/kernel/riscv.cpp:249    .text:00000000000002c8 .L0 
GAS LISTING /tmp/ccyPB5Cy.s 			page 112


     /tmp/ccyPB5Cy.s:587    .text:00000000000002cc .L0 
src/kernel/riscv.cpp:250    .text:00000000000002cc .L0 
     /tmp/ccyPB5Cy.s:593    .text:00000000000002d0 .L0 
     /tmp/ccyPB5Cy.s:595    .text:00000000000002d0 .L0 
     /tmp/ccyPB5Cy.s:603    .text:00000000000002e4 .L0 
     /tmp/ccyPB5Cy.s:613    .text:00000000000002fc .L0 
     /tmp/ccyPB5Cy.s:614    .text:00000000000002fc .L0 
     /tmp/ccyPB5Cy.s:616    .text:0000000000000300 .L0 
     /tmp/ccyPB5Cy.s:617    .text:0000000000000300 .L0 
     /tmp/ccyPB5Cy.s:619    .text:0000000000000304 .L0 
     /tmp/ccyPB5Cy.s:621    .text:0000000000000308 .L0 
     /tmp/ccyPB5Cy.s:622    .text:0000000000000308 .L0 
     /tmp/ccyPB5Cy.s:629    .text:0000000000000314 .L0 
     /tmp/ccyPB5Cy.s:630    .text:0000000000000314 .L0 
     /tmp/ccyPB5Cy.s:632    .text:0000000000000318 .L0 
     /tmp/ccyPB5Cy.s:636    .text:000000000000031c .L0 
src/kernel/riscv.cpp:267    .text:000000000000031c .L0 
     /tmp/ccyPB5Cy.s:642    .text:0000000000000320 .L0 
     /tmp/ccyPB5Cy.s:644    .text:0000000000000320 .L0 
     /tmp/ccyPB5Cy.s:647    .text:0000000000000328 .L0 
     /tmp/ccyPB5Cy.s:648    .text:000000000000032c .L0 
     /tmp/ccyPB5Cy.s:649    .text:000000000000032c .L0 
     /tmp/ccyPB5Cy.s:651    .text:0000000000000330 .L0 
     /tmp/ccyPB5Cy.s:652    .text:0000000000000330 .L0 
     /tmp/ccyPB5Cy.s:654    .text:0000000000000334 .L0 
     /tmp/ccyPB5Cy.s:657    .text:0000000000000338 .L0 
     /tmp/ccyPB5Cy.s:660    .text:000000000000033c .L0 
     /tmp/ccyPB5Cy.s:663    .text:0000000000000340 .L0 
     /tmp/ccyPB5Cy.s:666    .text:0000000000000344 .L0 
     /tmp/ccyPB5Cy.s:669    .text:0000000000000348 .L0 
     /tmp/ccyPB5Cy.s:673    .text:000000000000034c .L0 
     /tmp/ccyPB5Cy.s:675    .text:000000000000034c .L0 
     /tmp/ccyPB5Cy.s:682    .text:0000000000000358 .L0 
     /tmp/ccyPB5Cy.s:690    .text:0000000000000370 .L0 
     /tmp/ccyPB5Cy.s:720    .text:0000000000000370 _ZN5RiscV30executeThreadAttachBodySyscallEv
     /tmp/ccyPB5Cy.s:723    .text:0000000000000370 .L0 
     /tmp/ccyPB5Cy.s:726    .text:0000000000000370 .L0 
     /tmp/ccyPB5Cy.s:727    .text:0000000000000374 .L0 
     /tmp/ccyPB5Cy.s:735    .text:0000000000000390 .L0 
     /tmp/ccyPB5Cy.s:736    .text:0000000000000390 .L0 
     /tmp/ccyPB5Cy.s:737    .text:0000000000000390 .L0 
     /tmp/ccyPB5Cy.s:738    .text:0000000000000390 .L0 
     /tmp/ccyPB5Cy.s:739    .text:0000000000000390 .L0 
     /tmp/ccyPB5Cy.s:740    .text:0000000000000390 .L0 
     /tmp/ccyPB5Cy.s:741    .text:0000000000000390 .L0 
     /tmp/ccyPB5Cy.s:743    .text:0000000000000394 .L0 
     /tmp/ccyPB5Cy.s:745    .text:0000000000000394 .L0 
     /tmp/ccyPB5Cy.s:746    .text:0000000000000394 .L0 
src/kernel/riscv.cpp:278    .text:0000000000000394 .L0 
     /tmp/ccyPB5Cy.s:753    .text:0000000000000398 .L0 
src/kernel/riscv.cpp:279    .text:0000000000000398 .L0 
     /tmp/ccyPB5Cy.s:759    .text:000000000000039c .L0 
src/kernel/riscv.cpp:280    .text:000000000000039c .L0 
     /tmp/ccyPB5Cy.s:765    .text:00000000000003a0 .L0 
src/kernel/riscv.cpp:281    .text:00000000000003a0 .L0 
     /tmp/ccyPB5Cy.s:771    .text:00000000000003a4 .L0 
     /tmp/ccyPB5Cy.s:773    .text:00000000000003a4 .L0 
GAS LISTING /tmp/ccyPB5Cy.s 			page 113


     /tmp/ccyPB5Cy.s:781    .text:00000000000003b8 .L0 
     /tmp/ccyPB5Cy.s:791    .text:00000000000003d0 .L0 
     /tmp/ccyPB5Cy.s:792    .text:00000000000003d0 .L0 
     /tmp/ccyPB5Cy.s:794    .text:00000000000003d4 .L0 
     /tmp/ccyPB5Cy.s:795    .text:00000000000003d4 .L0 
     /tmp/ccyPB5Cy.s:797    .text:00000000000003d8 .L0 
     /tmp/ccyPB5Cy.s:798    .text:00000000000003d8 .L0 
     /tmp/ccyPB5Cy.s:800    .text:00000000000003dc .L0 
     /tmp/ccyPB5Cy.s:801    .text:00000000000003dc .L0 
     /tmp/ccyPB5Cy.s:803    .text:00000000000003e0 .L0 
     /tmp/ccyPB5Cy.s:807    .text:00000000000003e4 .L0 
src/kernel/riscv.cpp:296    .text:00000000000003e4 .L0 
     /tmp/ccyPB5Cy.s:813    .text:00000000000003e8 .L0 
     /tmp/ccyPB5Cy.s:815    .text:00000000000003e8 .L0 
     /tmp/ccyPB5Cy.s:818    .text:00000000000003f0 .L0 
     /tmp/ccyPB5Cy.s:819    .text:00000000000003f4 .L0 
     /tmp/ccyPB5Cy.s:820    .text:00000000000003f4 .L0 
     /tmp/ccyPB5Cy.s:822    .text:00000000000003f8 .L0 
     /tmp/ccyPB5Cy.s:823    .text:00000000000003f8 .L0 
     /tmp/ccyPB5Cy.s:825    .text:00000000000003fc .L0 
     /tmp/ccyPB5Cy.s:828    .text:0000000000000400 .L0 
     /tmp/ccyPB5Cy.s:831    .text:0000000000000404 .L0 
     /tmp/ccyPB5Cy.s:834    .text:0000000000000408 .L0 
     /tmp/ccyPB5Cy.s:837    .text:000000000000040c .L0 
     /tmp/ccyPB5Cy.s:840    .text:0000000000000410 .L0 
     /tmp/ccyPB5Cy.s:844    .text:0000000000000414 .L0 
     /tmp/ccyPB5Cy.s:846    .text:0000000000000414 .L0 
     /tmp/ccyPB5Cy.s:853    .text:0000000000000420 .L0 
     /tmp/ccyPB5Cy.s:861    .text:0000000000000438 .L0 
     /tmp/ccyPB5Cy.s:886    .text:0000000000000438 _ZN5RiscV25executeThreadStartSyscallEv
     /tmp/ccyPB5Cy.s:889    .text:0000000000000438 .L0 
     /tmp/ccyPB5Cy.s:890    .text:0000000000000438 .L0 
     /tmp/ccyPB5Cy.s:891    .text:000000000000043c .L0 
     /tmp/ccyPB5Cy.s:894    .text:0000000000000444 .L0 
     /tmp/ccyPB5Cy.s:895    .text:0000000000000444 .L0 
     /tmp/ccyPB5Cy.s:897    .text:0000000000000448 .L0 
     /tmp/ccyPB5Cy.s:899    .text:0000000000000448 .L0 
     /tmp/ccyPB5Cy.s:900    .text:0000000000000448 .L0 
src/kernel/riscv.cpp:306    .text:0000000000000448 .L0 
     /tmp/ccyPB5Cy.s:907    .text:000000000000044c .L0 
     /tmp/ccyPB5Cy.s:908    .text:000000000000044c .L0 
     /tmp/ccyPB5Cy.s:910    .text:000000000000044c .L0 
     /tmp/ccyPB5Cy.s:912    .text:0000000000000450 .L0 
     /tmp/ccyPB5Cy.s:916    .text:0000000000000454 .L0 
src/kernel/riscv.cpp:323    .text:0000000000000454 .L0 
     /tmp/ccyPB5Cy.s:922    .text:0000000000000458 .L0 
     /tmp/ccyPB5Cy.s:924    .text:0000000000000458 .L0 
     /tmp/ccyPB5Cy.s:927    .text:0000000000000460 .L0 
     /tmp/ccyPB5Cy.s:928    .text:0000000000000464 .L0 
     /tmp/ccyPB5Cy.s:929    .text:0000000000000464 .L0 
     /tmp/ccyPB5Cy.s:931    .text:0000000000000468 .L0 
     /tmp/ccyPB5Cy.s:932    .text:0000000000000468 .L0 
     /tmp/ccyPB5Cy.s:934    .text:000000000000046c .L0 
     /tmp/ccyPB5Cy.s:938    .text:0000000000000470 .L0 
     /tmp/ccyPB5Cy.s:940    .text:0000000000000470 .L0 
     /tmp/ccyPB5Cy.s:941    .text:0000000000000470 .L0 
     /tmp/ccyPB5Cy.s:944    .text:0000000000000478 .L0 
GAS LISTING /tmp/ccyPB5Cy.s 			page 114


     /tmp/ccyPB5Cy.s:945    .text:0000000000000478 .L0 
     /tmp/ccyPB5Cy.s:948    .text:0000000000000480 .L0 
     /tmp/ccyPB5Cy.s:949    .text:0000000000000480 .L0 
     /tmp/ccyPB5Cy.s:952    .text:0000000000000488 .L0 
     /tmp/ccyPB5Cy.s:954    .text:0000000000000490 .L0 
     /tmp/ccyPB5Cy.s:960    .text:0000000000000490 _ZN5RiscV24executeThreadExitSyscallEv
     /tmp/ccyPB5Cy.s:963    .text:0000000000000490 .L0 
     /tmp/ccyPB5Cy.s:964    .text:0000000000000490 .L0 
     /tmp/ccyPB5Cy.s:965    .text:0000000000000494 .L0 
     /tmp/ccyPB5Cy.s:968    .text:000000000000049c .L0 
     /tmp/ccyPB5Cy.s:969    .text:000000000000049c .L0 
     /tmp/ccyPB5Cy.s:971    .text:00000000000004a0 .L0 
     /tmp/ccyPB5Cy.s:974    .text:00000000000004a0 .L0 
     /tmp/ccyPB5Cy.s:976    .text:00000000000004a0 .L0 
     /tmp/ccyPB5Cy.s:977    .text:00000000000004a0 .L0 
     /tmp/ccyPB5Cy.s:980    .text:00000000000004ac .L0 
     /tmp/ccyPB5Cy.s:984    .text:00000000000004b0 .L0 
     /tmp/ccyPB5Cy.s:985    .text:00000000000004b0 .L0 
     /tmp/ccyPB5Cy.s:986    .text:00000000000004b0 .L0 
     /tmp/ccyPB5Cy.s:989    .text:00000000000004b8 .L0 
     /tmp/ccyPB5Cy.s:990    .text:00000000000004b8 .L0 
     /tmp/ccyPB5Cy.s:995    .text:00000000000004c0 .L0 
     /tmp/ccyPB5Cy.s:999    .text:00000000000004c4 .L0 
src/kernel/riscv.cpp:343    .text:00000000000004c4 .L0 
     /tmp/ccyPB5Cy.s:1005   .text:00000000000004c8 .L0 
     /tmp/ccyPB5Cy.s:1007   .text:00000000000004c8 .L0 
     /tmp/ccyPB5Cy.s:1010   .text:00000000000004d0 .L0 
     /tmp/ccyPB5Cy.s:1011   .text:00000000000004d4 .L0 
     /tmp/ccyPB5Cy.s:1012   .text:00000000000004d4 .L0 
     /tmp/ccyPB5Cy.s:1014   .text:00000000000004d8 .L0 
     /tmp/ccyPB5Cy.s:1015   .text:00000000000004d8 .L0 
     /tmp/ccyPB5Cy.s:1017   .text:00000000000004dc .L0 
     /tmp/ccyPB5Cy.s:1021   .text:00000000000004e0 .L0 
     /tmp/ccyPB5Cy.s:1024   .text:00000000000004e0 .L0 
     /tmp/ccyPB5Cy.s:1027   .text:00000000000004e8 .L0 
     /tmp/ccyPB5Cy.s:1033   .text:00000000000004e8 _ZN5RiscV21executeSemOpenSyscallEv
     /tmp/ccyPB5Cy.s:1036   .text:00000000000004e8 .L0 
     /tmp/ccyPB5Cy.s:1039   .text:00000000000004e8 .L0 
     /tmp/ccyPB5Cy.s:1040   .text:00000000000004ec .L0 
     /tmp/ccyPB5Cy.s:1046   .text:0000000000000500 .L0 
     /tmp/ccyPB5Cy.s:1047   .text:0000000000000500 .L0 
     /tmp/ccyPB5Cy.s:1048   .text:0000000000000500 .L0 
     /tmp/ccyPB5Cy.s:1049   .text:0000000000000500 .L0 
     /tmp/ccyPB5Cy.s:1050   .text:0000000000000500 .L0 
     /tmp/ccyPB5Cy.s:1052   .text:0000000000000504 .L0 
     /tmp/ccyPB5Cy.s:1054   .text:0000000000000504 .L0 
     /tmp/ccyPB5Cy.s:1055   .text:0000000000000504 .L0 
src/kernel/riscv.cpp:361    .text:0000000000000504 .L0 
     /tmp/ccyPB5Cy.s:1062   .text:0000000000000508 .L0 
src/kernel/riscv.cpp:362    .text:0000000000000508 .L0 
     /tmp/ccyPB5Cy.s:1068   .text:000000000000050c .L0 
     /tmp/ccyPB5Cy.s:1070   .text:000000000000050c .L0 
     /tmp/ccyPB5Cy.s:1078   .text:0000000000000520 .L0 
     /tmp/ccyPB5Cy.s:1085   .text:000000000000052c .L0 
     /tmp/ccyPB5Cy.s:1086   .text:000000000000052c .L0 
     /tmp/ccyPB5Cy.s:1088   .text:0000000000000530 .L0 
     /tmp/ccyPB5Cy.s:1089   .text:0000000000000530 .L0 
GAS LISTING /tmp/ccyPB5Cy.s 			page 115


     /tmp/ccyPB5Cy.s:1091   .text:0000000000000534 .L0 
     /tmp/ccyPB5Cy.s:1095   .text:0000000000000538 .L0 
src/kernel/riscv.cpp:377    .text:0000000000000538 .L0 
     /tmp/ccyPB5Cy.s:1101   .text:000000000000053c .L0 
     /tmp/ccyPB5Cy.s:1103   .text:000000000000053c .L0 
     /tmp/ccyPB5Cy.s:1106   .text:0000000000000544 .L0 
     /tmp/ccyPB5Cy.s:1107   .text:0000000000000548 .L0 
     /tmp/ccyPB5Cy.s:1108   .text:0000000000000548 .L0 
     /tmp/ccyPB5Cy.s:1110   .text:000000000000054c .L0 
     /tmp/ccyPB5Cy.s:1111   .text:000000000000054c .L0 
     /tmp/ccyPB5Cy.s:1113   .text:0000000000000550 .L0 
     /tmp/ccyPB5Cy.s:1116   .text:0000000000000554 .L0 
     /tmp/ccyPB5Cy.s:1119   .text:0000000000000558 .L0 
     /tmp/ccyPB5Cy.s:1122   .text:000000000000055c .L0 
     /tmp/ccyPB5Cy.s:1126   .text:0000000000000560 .L0 
     /tmp/ccyPB5Cy.s:1128   .text:0000000000000560 .L0 
     /tmp/ccyPB5Cy.s:1135   .text:000000000000056c .L0 
     /tmp/ccyPB5Cy.s:1143   .text:0000000000000584 .L0 
     /tmp/ccyPB5Cy.s:1168   .text:0000000000000584 _ZN5RiscV22executeSemCloseSyscallEv
     /tmp/ccyPB5Cy.s:1171   .text:0000000000000584 .L0 
     /tmp/ccyPB5Cy.s:1172   .text:0000000000000584 .L0 
     /tmp/ccyPB5Cy.s:1173   .text:0000000000000588 .L0 
     /tmp/ccyPB5Cy.s:1177   .text:0000000000000594 .L0 
     /tmp/ccyPB5Cy.s:1178   .text:0000000000000594 .L0 
     /tmp/ccyPB5Cy.s:1179   .text:0000000000000594 .L0 
     /tmp/ccyPB5Cy.s:1181   .text:0000000000000598 .L0 
     /tmp/ccyPB5Cy.s:1183   .text:0000000000000598 .L0 
     /tmp/ccyPB5Cy.s:1184   .text:0000000000000598 .L0 
src/kernel/riscv.cpp:388    .text:0000000000000598 .L0 
     /tmp/ccyPB5Cy.s:1191   .text:000000000000059c .L0 
     /tmp/ccyPB5Cy.s:1192   .text:000000000000059c .L0 
     /tmp/ccyPB5Cy.s:1194   .text:000000000000059c .L0 
     /tmp/ccyPB5Cy.s:1196   .text:00000000000005a0 .L0 
     /tmp/ccyPB5Cy.s:1200   .text:00000000000005a4 .L0 
src/kernel/riscv.cpp:401    .text:00000000000005a4 .L0 
     /tmp/ccyPB5Cy.s:1206   .text:00000000000005a8 .L0 
     /tmp/ccyPB5Cy.s:1208   .text:00000000000005a8 .L0 
     /tmp/ccyPB5Cy.s:1211   .text:00000000000005b0 .L0 
     /tmp/ccyPB5Cy.s:1212   .text:00000000000005b4 .L0 
     /tmp/ccyPB5Cy.s:1213   .text:00000000000005b4 .L0 
     /tmp/ccyPB5Cy.s:1215   .text:00000000000005b8 .L0 
     /tmp/ccyPB5Cy.s:1216   .text:00000000000005b8 .L0 
     /tmp/ccyPB5Cy.s:1218   .text:00000000000005bc .L0 
     /tmp/ccyPB5Cy.s:1221   .text:00000000000005c0 .L0 
     /tmp/ccyPB5Cy.s:1225   .text:00000000000005c4 .L0 
     /tmp/ccyPB5Cy.s:1227   .text:00000000000005c4 .L0 
     /tmp/ccyPB5Cy.s:1228   .text:00000000000005c4 .L0 
     /tmp/ccyPB5Cy.s:1235   .text:00000000000005dc .L0 
     /tmp/ccyPB5Cy.s:1237   .text:00000000000005e4 .L0 
     /tmp/ccyPB5Cy.s:1243   .text:00000000000005e4 _ZN5RiscV21executeSemWaitSyscallEv
     /tmp/ccyPB5Cy.s:1246   .text:00000000000005e4 .L0 
     /tmp/ccyPB5Cy.s:1247   .text:00000000000005e4 .L0 
     /tmp/ccyPB5Cy.s:1248   .text:00000000000005e8 .L0 
     /tmp/ccyPB5Cy.s:1251   .text:00000000000005f0 .L0 
     /tmp/ccyPB5Cy.s:1252   .text:00000000000005f0 .L0 
     /tmp/ccyPB5Cy.s:1254   .text:00000000000005f4 .L0 
     /tmp/ccyPB5Cy.s:1256   .text:00000000000005f4 .L0 
GAS LISTING /tmp/ccyPB5Cy.s 			page 116


     /tmp/ccyPB5Cy.s:1257   .text:00000000000005f4 .L0 
src/kernel/riscv.cpp:411    .text:00000000000005f4 .L0 
     /tmp/ccyPB5Cy.s:1264   .text:00000000000005f8 .L0 
     /tmp/ccyPB5Cy.s:1266   .text:00000000000005f8 .L0 
     /tmp/ccyPB5Cy.s:1270   .text:00000000000005fc .L0 
     /tmp/ccyPB5Cy.s:1271   .text:00000000000005fc .L0 
     /tmp/ccyPB5Cy.s:1275   .text:000000000000060c .L0 
     /tmp/ccyPB5Cy.s:1277   .text:0000000000000610 .L0 
     /tmp/ccyPB5Cy.s:1281   .text:0000000000000614 .L0 
src/kernel/riscv.cpp:427    .text:0000000000000614 .L0 
     /tmp/ccyPB5Cy.s:1287   .text:0000000000000618 .L0 
     /tmp/ccyPB5Cy.s:1289   .text:0000000000000618 .L0 
     /tmp/ccyPB5Cy.s:1292   .text:0000000000000620 .L0 
     /tmp/ccyPB5Cy.s:1293   .text:0000000000000624 .L0 
     /tmp/ccyPB5Cy.s:1294   .text:0000000000000624 .L0 
     /tmp/ccyPB5Cy.s:1296   .text:0000000000000628 .L0 
     /tmp/ccyPB5Cy.s:1297   .text:0000000000000628 .L0 
     /tmp/ccyPB5Cy.s:1299   .text:000000000000062c .L0 
     /tmp/ccyPB5Cy.s:1303   .text:0000000000000630 .L0 
     /tmp/ccyPB5Cy.s:1305   .text:0000000000000630 .L0 
     /tmp/ccyPB5Cy.s:1306   .text:0000000000000630 .L0 
     /tmp/ccyPB5Cy.s:1312   .text:000000000000063c .L0 
     /tmp/ccyPB5Cy.s:1314   .text:0000000000000644 .L0 
     /tmp/ccyPB5Cy.s:1320   .text:0000000000000644 _ZN5RiscV23executeSemSignalSyscallEv
     /tmp/ccyPB5Cy.s:1323   .text:0000000000000644 .L0 
     /tmp/ccyPB5Cy.s:1324   .text:0000000000000644 .L0 
     /tmp/ccyPB5Cy.s:1325   .text:0000000000000648 .L0 
     /tmp/ccyPB5Cy.s:1328   .text:0000000000000650 .L0 
     /tmp/ccyPB5Cy.s:1329   .text:0000000000000650 .L0 
     /tmp/ccyPB5Cy.s:1331   .text:0000000000000654 .L0 
     /tmp/ccyPB5Cy.s:1333   .text:0000000000000654 .L0 
     /tmp/ccyPB5Cy.s:1334   .text:0000000000000654 .L0 
src/kernel/riscv.cpp:438    .text:0000000000000654 .L0 
     /tmp/ccyPB5Cy.s:1341   .text:0000000000000658 .L0 
     /tmp/ccyPB5Cy.s:1343   .text:0000000000000658 .L0 
     /tmp/ccyPB5Cy.s:1345   .text:000000000000065c .L0 
     /tmp/ccyPB5Cy.s:1349   .text:0000000000000660 .L0 
src/kernel/riscv.cpp:450    .text:0000000000000660 .L0 
     /tmp/ccyPB5Cy.s:1355   .text:0000000000000664 .L0 
     /tmp/ccyPB5Cy.s:1357   .text:0000000000000664 .L0 
     /tmp/ccyPB5Cy.s:1360   .text:000000000000066c .L0 
     /tmp/ccyPB5Cy.s:1361   .text:0000000000000670 .L0 
     /tmp/ccyPB5Cy.s:1362   .text:0000000000000670 .L0 
     /tmp/ccyPB5Cy.s:1364   .text:0000000000000674 .L0 
     /tmp/ccyPB5Cy.s:1365   .text:0000000000000674 .L0 
     /tmp/ccyPB5Cy.s:1367   .text:0000000000000678 .L0 
     /tmp/ccyPB5Cy.s:1371   .text:000000000000067c .L0 
     /tmp/ccyPB5Cy.s:1373   .text:000000000000067c .L0 
     /tmp/ccyPB5Cy.s:1374   .text:000000000000067c .L0 
     /tmp/ccyPB5Cy.s:1377   .text:0000000000000684 .L0 
     /tmp/ccyPB5Cy.s:1379   .text:000000000000068c .L0 
     /tmp/ccyPB5Cy.s:1385   .text:000000000000068c _ZN5RiscV23executeTimeSleepSyscallEv
     /tmp/ccyPB5Cy.s:1388   .text:000000000000068c .L0 
     /tmp/ccyPB5Cy.s:1389   .text:000000000000068c .L0 
     /tmp/ccyPB5Cy.s:1390   .text:0000000000000690 .L0 
     /tmp/ccyPB5Cy.s:1394   .text:000000000000069c .L0 
     /tmp/ccyPB5Cy.s:1395   .text:000000000000069c .L0 
GAS LISTING /tmp/ccyPB5Cy.s 			page 117


     /tmp/ccyPB5Cy.s:1396   .text:000000000000069c .L0 
     /tmp/ccyPB5Cy.s:1398   .text:00000000000006a0 .L0 
     /tmp/ccyPB5Cy.s:1400   .text:00000000000006a0 .L0 
     /tmp/ccyPB5Cy.s:1401   .text:00000000000006a0 .L0 
src/kernel/riscv.cpp:460    .text:00000000000006a0 .L0 
     /tmp/ccyPB5Cy.s:1407   .text:00000000000006a4 .L0 
     /tmp/ccyPB5Cy.s:1409   .text:00000000000006a4 .L0 
     /tmp/ccyPB5Cy.s:1413   .text:00000000000006b0 .L0 
     /tmp/ccyPB5Cy.s:1414   .text:00000000000006b0 .L0 
     /tmp/ccyPB5Cy.s:1417   .text:00000000000006bc .L0 
     /tmp/ccyPB5Cy.s:1418   .text:00000000000006bc .L0 
     /tmp/ccyPB5Cy.s:1420   .text:00000000000006c0 .L0 
     /tmp/ccyPB5Cy.s:1422   .text:00000000000006c4 .L0 
     /tmp/ccyPB5Cy.s:1423   .text:00000000000006c4 .L0 
     /tmp/ccyPB5Cy.s:1427   .text:00000000000006d0 .L0 
     /tmp/ccyPB5Cy.s:1428   .text:00000000000006d0 .L0 
     /tmp/ccyPB5Cy.s:1431   .text:00000000000006d8 .L0 
     /tmp/ccyPB5Cy.s:1432   .text:00000000000006d8 .L0 
     /tmp/ccyPB5Cy.s:1435   .text:00000000000006e0 .L0 
     /tmp/ccyPB5Cy.s:1436   .text:00000000000006e0 .L0 
     /tmp/ccyPB5Cy.s:1437   .text:00000000000006e0 .L0 
     /tmp/ccyPB5Cy.s:1443   .text:00000000000006e8 .L0 
     /tmp/ccyPB5Cy.s:1445   .text:00000000000006e8 .L0 
     /tmp/ccyPB5Cy.s:1448   .text:00000000000006f0 .L0 
     /tmp/ccyPB5Cy.s:1449   .text:00000000000006f4 .L0 
     /tmp/ccyPB5Cy.s:1451   .text:00000000000006f8 .L0 
     /tmp/ccyPB5Cy.s:1452   .text:00000000000006f8 .L0 
     /tmp/ccyPB5Cy.s:1454   .text:00000000000006fc .L0 
     /tmp/ccyPB5Cy.s:1457   .text:0000000000000700 .L0 
     /tmp/ccyPB5Cy.s:1459   .text:0000000000000704 .L0 
     /tmp/ccyPB5Cy.s:1465   .text:0000000000000704 _ZN5RiscV18executeGetcSyscallEv
     /tmp/ccyPB5Cy.s:1468   .text:0000000000000704 .L0 
     /tmp/ccyPB5Cy.s:1469   .text:0000000000000704 .L0 
     /tmp/ccyPB5Cy.s:1470   .text:0000000000000708 .L0 
     /tmp/ccyPB5Cy.s:1474   .text:0000000000000714 .L0 
     /tmp/ccyPB5Cy.s:1475   .text:0000000000000714 .L0 
     /tmp/ccyPB5Cy.s:1476   .text:0000000000000714 .L0 
     /tmp/ccyPB5Cy.s:1478   .text:0000000000000718 .L0 
     /tmp/ccyPB5Cy.s:1480   .text:0000000000000718 .L0 
     /tmp/ccyPB5Cy.s:1481   .text:0000000000000718 .L0 
     /tmp/ccyPB5Cy.s:1483   .text:0000000000000720 .L0 
     /tmp/ccyPB5Cy.s:1485   .text:0000000000000724 .L0 
     /tmp/ccyPB5Cy.s:1486   .text:0000000000000724 .L0 
     /tmp/ccyPB5Cy.s:1492   .text:0000000000000738 .L0 
     /tmp/ccyPB5Cy.s:1493   .text:0000000000000738 .L0 
     /tmp/ccyPB5Cy.s:1498   .text:0000000000000744 .L0 
     /tmp/ccyPB5Cy.s:1501   .text:000000000000074c .L0 
     /tmp/ccyPB5Cy.s:1506   .text:0000000000000754 .L0 
src/kernel/riscv.cpp:501    .text:0000000000000754 .L0 
     /tmp/ccyPB5Cy.s:1512   .text:0000000000000758 .L0 
     /tmp/ccyPB5Cy.s:1514   .text:0000000000000758 .L0 
     /tmp/ccyPB5Cy.s:1517   .text:0000000000000760 .L0 
     /tmp/ccyPB5Cy.s:1518   .text:0000000000000764 .L0 
     /tmp/ccyPB5Cy.s:1519   .text:0000000000000764 .L0 
     /tmp/ccyPB5Cy.s:1521   .text:0000000000000768 .L0 
     /tmp/ccyPB5Cy.s:1522   .text:0000000000000768 .L0 
     /tmp/ccyPB5Cy.s:1524   .text:000000000000076c .L0 
GAS LISTING /tmp/ccyPB5Cy.s 			page 118


     /tmp/ccyPB5Cy.s:1526   .text:0000000000000770 .L0 
     /tmp/ccyPB5Cy.s:1530   .text:0000000000000774 .L0 
     /tmp/ccyPB5Cy.s:1532   .text:0000000000000774 .L0 
     /tmp/ccyPB5Cy.s:1533   .text:0000000000000774 .L0 
     /tmp/ccyPB5Cy.s:1538   .text:0000000000000780 .L0 
     /tmp/ccyPB5Cy.s:1539   .text:0000000000000780 .L0 
     /tmp/ccyPB5Cy.s:1546   .text:0000000000000790 .L0 
     /tmp/ccyPB5Cy.s:1547   .text:0000000000000790 .L0 
     /tmp/ccyPB5Cy.s:1550   .text:000000000000079c .L0 
     /tmp/ccyPB5Cy.s:1556   .text:000000000000079c _ZN5RiscV22executePutcUtilSyscallEv
     /tmp/ccyPB5Cy.s:1559   .text:000000000000079c .L0 
     /tmp/ccyPB5Cy.s:1560   .text:000000000000079c .L0 
     /tmp/ccyPB5Cy.s:1561   .text:00000000000007a0 .L0 
     /tmp/ccyPB5Cy.s:1564   .text:00000000000007a8 .L0 
     /tmp/ccyPB5Cy.s:1565   .text:00000000000007a8 .L0 
     /tmp/ccyPB5Cy.s:1567   .text:00000000000007ac .L0 
     /tmp/ccyPB5Cy.s:1569   .text:00000000000007ac .L0 
     /tmp/ccyPB5Cy.s:1570   .text:00000000000007ac .L0 
     /tmp/ccyPB5Cy.s:1573   .text:00000000000007b4 .L0 
src/kernel/riscv.cpp:556    .text:00000000000007b4 .L0 
     /tmp/ccyPB5Cy.s:1579   .text:00000000000007b8 .L0 
     /tmp/ccyPB5Cy.s:1581   .text:00000000000007b8 .L0 
     /tmp/ccyPB5Cy.s:1584   .text:00000000000007c0 .L0 
     /tmp/ccyPB5Cy.s:1585   .text:00000000000007c4 .L0 
     /tmp/ccyPB5Cy.s:1587   .text:00000000000007c8 .L0 
     /tmp/ccyPB5Cy.s:1588   .text:00000000000007c8 .L0 
     /tmp/ccyPB5Cy.s:1590   .text:00000000000007cc .L0 
     /tmp/ccyPB5Cy.s:1592   .text:00000000000007d0 .L0 
     /tmp/ccyPB5Cy.s:1598   .text:00000000000007d0 _ZN5RiscV24executeThreadFreeSyscallEv
     /tmp/ccyPB5Cy.s:1601   .text:00000000000007d0 .L0 
     /tmp/ccyPB5Cy.s:1602   .text:00000000000007d0 .L0 
     /tmp/ccyPB5Cy.s:1603   .text:00000000000007d4 .L0 
     /tmp/ccyPB5Cy.s:1607   .text:00000000000007e0 .L0 
     /tmp/ccyPB5Cy.s:1608   .text:00000000000007e0 .L0 
     /tmp/ccyPB5Cy.s:1609   .text:00000000000007e0 .L0 
     /tmp/ccyPB5Cy.s:1611   .text:00000000000007e4 .L0 
     /tmp/ccyPB5Cy.s:1613   .text:00000000000007e4 .L0 
     /tmp/ccyPB5Cy.s:1614   .text:00000000000007e4 .L0 
src/kernel/riscv.cpp:606    .text:00000000000007e4 .L0 
     /tmp/ccyPB5Cy.s:1621   .text:00000000000007e8 .L0 
     /tmp/ccyPB5Cy.s:1623   .text:00000000000007e8 .L0 
     /tmp/ccyPB5Cy.s:1627   .text:00000000000007ec .L0 
     /tmp/ccyPB5Cy.s:1628   .text:00000000000007ec .L0 
     /tmp/ccyPB5Cy.s:1634   .text:00000000000007f4 .L0 
     /tmp/ccyPB5Cy.s:1636   .text:00000000000007f4 .L0 
     /tmp/ccyPB5Cy.s:1639   .text:00000000000007fc .L0 
     /tmp/ccyPB5Cy.s:1640   .text:0000000000000800 .L0 
     /tmp/ccyPB5Cy.s:1641   .text:0000000000000800 .L0 
     /tmp/ccyPB5Cy.s:1643   .text:0000000000000804 .L0 
     /tmp/ccyPB5Cy.s:1644   .text:0000000000000804 .L0 
     /tmp/ccyPB5Cy.s:1646   .text:0000000000000808 .L0 
     /tmp/ccyPB5Cy.s:1649   .text:000000000000080c .L0 
     /tmp/ccyPB5Cy.s:1653   .text:0000000000000810 .L0 
     /tmp/ccyPB5Cy.s:1655   .text:0000000000000810 .L0 
     /tmp/ccyPB5Cy.s:1656   .text:0000000000000810 .L0 
     /tmp/ccyPB5Cy.s:1660   .text:000000000000081c .L0 
     /tmp/ccyPB5Cy.s:1661   .text:000000000000081c .L0 
GAS LISTING /tmp/ccyPB5Cy.s 			page 119


     /tmp/ccyPB5Cy.s:1668   .text:0000000000000838 .L0 
     /tmp/ccyPB5Cy.s:1674   .text:0000000000000838 _ZN5RiscV27executeSemaphoreFreeSyscallEv
     /tmp/ccyPB5Cy.s:1677   .text:0000000000000838 .L0 
     /tmp/ccyPB5Cy.s:1678   .text:0000000000000838 .L0 
     /tmp/ccyPB5Cy.s:1679   .text:000000000000083c .L0 
     /tmp/ccyPB5Cy.s:1683   .text:0000000000000848 .L0 
     /tmp/ccyPB5Cy.s:1684   .text:0000000000000848 .L0 
     /tmp/ccyPB5Cy.s:1685   .text:0000000000000848 .L0 
     /tmp/ccyPB5Cy.s:1687   .text:000000000000084c .L0 
     /tmp/ccyPB5Cy.s:1689   .text:000000000000084c .L0 
     /tmp/ccyPB5Cy.s:1690   .text:000000000000084c .L0 
src/kernel/riscv.cpp:628    .text:000000000000084c .L0 
     /tmp/ccyPB5Cy.s:1697   .text:0000000000000850 .L0 
     /tmp/ccyPB5Cy.s:1699   .text:0000000000000850 .L0 
     /tmp/ccyPB5Cy.s:1703   .text:0000000000000854 .L0 
     /tmp/ccyPB5Cy.s:1704   .text:0000000000000854 .L0 
     /tmp/ccyPB5Cy.s:1710   .text:000000000000085c .L0 
     /tmp/ccyPB5Cy.s:1712   .text:000000000000085c .L0 
     /tmp/ccyPB5Cy.s:1715   .text:0000000000000864 .L0 
     /tmp/ccyPB5Cy.s:1716   .text:0000000000000868 .L0 
     /tmp/ccyPB5Cy.s:1717   .text:0000000000000868 .L0 
     /tmp/ccyPB5Cy.s:1719   .text:000000000000086c .L0 
     /tmp/ccyPB5Cy.s:1720   .text:000000000000086c .L0 
     /tmp/ccyPB5Cy.s:1722   .text:0000000000000870 .L0 
     /tmp/ccyPB5Cy.s:1725   .text:0000000000000874 .L0 
     /tmp/ccyPB5Cy.s:1729   .text:0000000000000878 .L0 
     /tmp/ccyPB5Cy.s:1731   .text:0000000000000878 .L0 
     /tmp/ccyPB5Cy.s:1732   .text:0000000000000878 .L0 
     /tmp/ccyPB5Cy.s:1739   .text:0000000000000894 .L0 
     /tmp/ccyPB5Cy.s:1745   .text:0000000000000894 _ZN5RiscV18executeForkSyscallEv
     /tmp/ccyPB5Cy.s:1748   .text:0000000000000894 .L0 
     /tmp/ccyPB5Cy.s:1751   .text:0000000000000894 .L0 
     /tmp/ccyPB5Cy.s:1752   .text:0000000000000898 .L0 
     /tmp/ccyPB5Cy.s:1757   .text:00000000000008a8 .L0 
     /tmp/ccyPB5Cy.s:1758   .text:00000000000008a8 .L0 
     /tmp/ccyPB5Cy.s:1759   .text:00000000000008a8 .L0 
     /tmp/ccyPB5Cy.s:1760   .text:00000000000008a8 .L0 
     /tmp/ccyPB5Cy.s:1762   .text:00000000000008ac .L0 
     /tmp/ccyPB5Cy.s:1764   .text:00000000000008ac .L0 
     /tmp/ccyPB5Cy.s:1765   .text:00000000000008ac .L0 
     /tmp/ccyPB5Cy.s:1772   .text:00000000000008bc .L0 
     /tmp/ccyPB5Cy.s:1773   .text:00000000000008bc .L0 
     /tmp/ccyPB5Cy.s:1782   .text:00000000000008dc .L0 
     /tmp/ccyPB5Cy.s:1783   .text:00000000000008dc .L0 
     /tmp/ccyPB5Cy.s:1790   .text:00000000000008f0 .L0 
     /tmp/ccyPB5Cy.s:1800   .text:0000000000000908 .L0 
     /tmp/ccyPB5Cy.s:1802   .text:0000000000000908 .L0 
     /tmp/ccyPB5Cy.s:1805   .text:000000000000090c .L0 
     /tmp/ccyPB5Cy.s:1806   .text:000000000000090c .L0 
     /tmp/ccyPB5Cy.s:1810   .text:000000000000091c .L0 
     /tmp/ccyPB5Cy.s:1811   .text:000000000000091c .L0 
     /tmp/ccyPB5Cy.s:1814   .text:0000000000000928 .L0 
     /tmp/ccyPB5Cy.s:1816   .text:000000000000092c .L0 
     /tmp/ccyPB5Cy.s:1819   .text:0000000000000938 .L0 
     /tmp/ccyPB5Cy.s:1821   .text:000000000000093c .L0 
     /tmp/ccyPB5Cy.s:1823   .text:0000000000000940 .L0 
     /tmp/ccyPB5Cy.s:1825   .text:0000000000000944 .L0 
GAS LISTING /tmp/ccyPB5Cy.s 			page 120


     /tmp/ccyPB5Cy.s:1826   .text:0000000000000944 .L0 
     /tmp/ccyPB5Cy.s:1829   .text:000000000000094c .L0 
     /tmp/ccyPB5Cy.s:1831   .text:0000000000000950 .L0 
     /tmp/ccyPB5Cy.s:1833   .text:0000000000000954 .L0 
     /tmp/ccyPB5Cy.s:1836   .text:0000000000000958 .L0 
     /tmp/ccyPB5Cy.s:1837   .text:0000000000000958 .L0 
     /tmp/ccyPB5Cy.s:1839   .text:000000000000095c .L0 
     /tmp/ccyPB5Cy.s:1840   .text:000000000000095c .L0 
src/kernel/riscv.cpp:673    .text:000000000000095c .L0 
     /tmp/ccyPB5Cy.s:1846   .text:0000000000000960 .L0 
src/kernel/riscv.cpp:675    .text:0000000000000960 .L0 
     /tmp/ccyPB5Cy.s:1851   .text:0000000000000964 .L0 
src/kernel/riscv.cpp:677    .text:0000000000000964 .L0 
     /tmp/ccyPB5Cy.s:1856   .text:0000000000000968 .L0 
src/kernel/riscv.cpp:679    .text:0000000000000968 .L0 
     /tmp/ccyPB5Cy.s:1861   .text:000000000000096c .L0 
src/kernel/riscv.cpp:681    .text:000000000000096c .L0 
     /tmp/ccyPB5Cy.s:1866   .text:0000000000000970 .L0 
src/kernel/riscv.cpp:684    .text:0000000000000970 .L0 
     /tmp/ccyPB5Cy.s:1871   .text:0000000000000974 .L0 
src/kernel/riscv.cpp:686    .text:0000000000000974 .L0 
     /tmp/ccyPB5Cy.s:1876   .text:0000000000000978 .L0 
src/kernel/riscv.cpp:688    .text:0000000000000978 .L0 
     /tmp/ccyPB5Cy.s:1881   .text:000000000000097c .L0 
src/kernel/riscv.cpp:690    .text:000000000000097c .L0 
     /tmp/ccyPB5Cy.s:1886   .text:0000000000000980 .L0 
     /tmp/ccyPB5Cy.s:1888   .text:0000000000000980 .L0 
     /tmp/ccyPB5Cy.s:1891   .text:0000000000000988 .L0 
     /tmp/ccyPB5Cy.s:1893   .text:000000000000098c .L0 
     /tmp/ccyPB5Cy.s:1894   .text:000000000000098c .L0 
     /tmp/ccyPB5Cy.s:1896   .text:0000000000000990 .L0 
     /tmp/ccyPB5Cy.s:1898   .text:0000000000000994 .L0 
     /tmp/ccyPB5Cy.s:1899   .text:0000000000000994 .L0 
     /tmp/ccyPB5Cy.s:1908   .text:00000000000009a0 .L0 
     /tmp/ccyPB5Cy.s:1909   .text:00000000000009a0 .L0 
src/kernel/riscv.cpp:704    .text:00000000000009a0 .L0 
     /tmp/ccyPB5Cy.s:1915   .text:00000000000009a4 .L0 
     /tmp/ccyPB5Cy.s:1917   .text:00000000000009a4 .L0 
     /tmp/ccyPB5Cy.s:1920   .text:00000000000009ac .L0 
     /tmp/ccyPB5Cy.s:1921   .text:00000000000009b0 .L0 
     /tmp/ccyPB5Cy.s:1922   .text:00000000000009b0 .L0 
     /tmp/ccyPB5Cy.s:1924   .text:00000000000009b4 .L0 
     /tmp/ccyPB5Cy.s:1925   .text:00000000000009b4 .L0 
     /tmp/ccyPB5Cy.s:1927   .text:00000000000009b8 .L0 
     /tmp/ccyPB5Cy.s:1930   .text:00000000000009bc .L0 
     /tmp/ccyPB5Cy.s:1932   .text:00000000000009c0 .L0 
     /tmp/ccyPB5Cy.s:1936   .text:00000000000009c4 .L0 
     /tmp/ccyPB5Cy.s:1939   .text:00000000000009c4 .L0 
     /tmp/ccyPB5Cy.s:1948   .text:00000000000009d0 .L0 
     /tmp/ccyPB5Cy.s:1956   .text:00000000000009e8 .L0 
     /tmp/ccyPB5Cy.s:1985   .text:00000000000009e8 _ZN5RiscV5getPCEv
     /tmp/ccyPB5Cy.s:1988   .text:00000000000009e8 .L0 
     /tmp/ccyPB5Cy.s:1989   .text:00000000000009e8 .L0 
     /tmp/ccyPB5Cy.s:1990   .text:00000000000009ec .L0 
     /tmp/ccyPB5Cy.s:1992   .text:00000000000009f0 .L0 
     /tmp/ccyPB5Cy.s:1994   .text:00000000000009f4 .L0 
     /tmp/ccyPB5Cy.s:1996   .text:00000000000009f4 .L0 
GAS LISTING /tmp/ccyPB5Cy.s 			page 121


     /tmp/ccyPB5Cy.s:1997   .text:00000000000009f4 .L0 
src/kernel/riscv.cpp:713    .text:00000000000009f4 .L0 
     /tmp/ccyPB5Cy.s:2004   .text:00000000000009f8 .L0 
     /tmp/ccyPB5Cy.s:2006   .text:00000000000009f8 .L0 
     /tmp/ccyPB5Cy.s:2009   .text:00000000000009fc .L0 
     /tmp/ccyPB5Cy.s:2012   .text:0000000000000a08 .L0 
     /tmp/ccyPB5Cy.s:2013   .text:0000000000000a0c .L0 
     /tmp/ccyPB5Cy.s:2014   .text:0000000000000a0c .L0 
     /tmp/ccyPB5Cy.s:2016   .text:0000000000000a10 .L0 
     /tmp/ccyPB5Cy.s:2018   .text:0000000000000a14 .L0 
     /tmp/ccyPB5Cy.s:2047   .text:0000000000000a14 _ZN5RiscV20handleSupervisorTrapEv
     /tmp/ccyPB5Cy.s:2050   .text:0000000000000a14 .L0 
     /tmp/ccyPB5Cy.s:2051   .text:0000000000000a14 .L0 
     /tmp/ccyPB5Cy.s:2052   .text:0000000000000a18 .L0 
     /tmp/ccyPB5Cy.s:2056   .text:0000000000000a24 .L0 
     /tmp/ccyPB5Cy.s:2057   .text:0000000000000a24 .L0 
     /tmp/ccyPB5Cy.s:2058   .text:0000000000000a24 .L0 
     /tmp/ccyPB5Cy.s:2060   .text:0000000000000a28 .L0 
     /tmp/ccyPB5Cy.s:2062   .text:0000000000000a28 .L0 
     /tmp/ccyPB5Cy.s:2063   .text:0000000000000a28 .L0 
src/kernel/riscv.cpp:55     .text:0000000000000a28 .L0 
     /tmp/ccyPB5Cy.s:2073   .text:0000000000000a2c .L0 
     /tmp/ccyPB5Cy.s:2074   .text:0000000000000a2c .L0 
     /tmp/ccyPB5Cy.s:2075   .text:0000000000000a2c .L0 
src/kernel/../../h/kernel/riscv.hpp:164    .text:0000000000000a2c .L0 
     /tmp/ccyPB5Cy.s:2083   .text:0000000000000a34 .L0 
     /tmp/ccyPB5Cy.s:2084   .text:0000000000000a34 .L0 
     /tmp/ccyPB5Cy.s:2088   .text:0000000000000a38 .L0 
     /tmp/ccyPB5Cy.s:2090   .text:0000000000000a3c .L0 
     /tmp/ccyPB5Cy.s:2091   .text:0000000000000a3c .L0 
src/kernel/riscv.cpp:58     .text:0000000000000a48 .L0 
     /tmp/ccyPB5Cy.s:2102   .text:0000000000000a50 .L0 
     /tmp/ccyPB5Cy.s:2103   .text:0000000000000a50 .L0 
     /tmp/ccyPB5Cy.s:2105   .text:0000000000000a54 .L0 
     /tmp/ccyPB5Cy.s:2108   .text:0000000000000a5c .L0 
     /tmp/ccyPB5Cy.s:2110   .text:0000000000000a60 .L0 
     /tmp/ccyPB5Cy.s:2116   .text:0000000000000a68 .L0 
     /tmp/ccyPB5Cy.s:2117   .text:0000000000000a68 .L0 
     /tmp/ccyPB5Cy.s:2119   .text:0000000000000a6c .L0 
     /tmp/ccyPB5Cy.s:2129   .text:0000000000000a7c .L0 
     /tmp/ccyPB5Cy.s:2130   .text:0000000000000a7c .L0 
     /tmp/ccyPB5Cy.s:2132   .text:0000000000000a80 .L0 
     /tmp/ccyPB5Cy.s:2144   .text:0000000000000a90 .L0 
     /tmp/ccyPB5Cy.s:2145   .text:0000000000000a90 .L0 
     /tmp/ccyPB5Cy.s:2147   .text:0000000000000a94 .L0 
     /tmp/ccyPB5Cy.s:2151   .text:0000000000000a9c .L0 
     /tmp/ccyPB5Cy.s:2152   .text:0000000000000a9c .L0 
     /tmp/ccyPB5Cy.s:2156   .text:0000000000000aac .L0 
     /tmp/ccyPB5Cy.s:2157   .text:0000000000000aac .L0 
     /tmp/ccyPB5Cy.s:2163   .text:0000000000000abc .L0 
     /tmp/ccyPB5Cy.s:2164   .text:0000000000000abc .L0 
     /tmp/ccyPB5Cy.s:2165   .text:0000000000000abc .L0 
src/kernel/../../h/kernel/riscv.hpp:164    .text:0000000000000abc .L0 
     /tmp/ccyPB5Cy.s:2173   .text:0000000000000ac4 .L0 
     /tmp/ccyPB5Cy.s:2174   .text:0000000000000ac4 .L0 
     /tmp/ccyPB5Cy.s:2179   .text:0000000000000ac8 .L0 
     /tmp/ccyPB5Cy.s:2180   .text:0000000000000ac8 .L0 
GAS LISTING /tmp/ccyPB5Cy.s 			page 122


     /tmp/ccyPB5Cy.s:2187   .text:0000000000000adc .L0 
     /tmp/ccyPB5Cy.s:2188   .text:0000000000000adc .L0 
     /tmp/ccyPB5Cy.s:2194   .text:0000000000000aec .L0 
     /tmp/ccyPB5Cy.s:2195   .text:0000000000000aec .L0 
     /tmp/ccyPB5Cy.s:2196   .text:0000000000000aec .L0 
src/kernel/../../h/kernel/riscv.hpp:174    .text:0000000000000aec .L0 
     /tmp/ccyPB5Cy.s:2205   .text:0000000000000af0 .L0 
     /tmp/ccyPB5Cy.s:2206   .text:0000000000000af0 .L0 
     /tmp/ccyPB5Cy.s:2207   .text:0000000000000af0 .L0 
     /tmp/ccyPB5Cy.s:2213   .text:0000000000000b04 .L0 
     /tmp/ccyPB5Cy.s:2214   .text:0000000000000b04 .L0 
     /tmp/ccyPB5Cy.s:2218   .text:0000000000000b14 .L0 
     /tmp/ccyPB5Cy.s:2219   .text:0000000000000b14 .L0 
     /tmp/ccyPB5Cy.s:2226   .text:0000000000000b34 .L0 
     /tmp/ccyPB5Cy.s:2227   .text:0000000000000b34 .L0 
     /tmp/ccyPB5Cy.s:2231   .text:0000000000000b40 .L0 
     /tmp/ccyPB5Cy.s:2232   .text:0000000000000b40 .L0 
     /tmp/ccyPB5Cy.s:2235   .text:0000000000000b48 .L0 
     /tmp/ccyPB5Cy.s:2236   .text:0000000000000b48 .L0 
     /tmp/ccyPB5Cy.s:2240   .text:0000000000000b58 .L0 
     /tmp/ccyPB5Cy.s:2241   .text:0000000000000b58 .L0 
     /tmp/ccyPB5Cy.s:2253   .text:0000000000000b64 .L0 
     /tmp/ccyPB5Cy.s:2254   .text:0000000000000b64 .L0 
     /tmp/ccyPB5Cy.s:2255   .text:0000000000000b64 .L0 
src/kernel/../../h/kernel/riscv.hpp:194    .text:0000000000000b64 .L0 
     /tmp/ccyPB5Cy.s:2265   .text:0000000000000b68 .L0 
     /tmp/ccyPB5Cy.s:2266   .text:0000000000000b68 .L0 
     /tmp/ccyPB5Cy.s:2270   .text:0000000000000b6c .L0 
     /tmp/ccyPB5Cy.s:2271   .text:0000000000000b6c .L0 
     /tmp/ccyPB5Cy.s:2272   .text:0000000000000b6c .L0 
src/kernel/../../h/kernel/riscv.hpp:174    .text:0000000000000b6c .L0 
     /tmp/ccyPB5Cy.s:2282   .text:0000000000000b70 .L0 
     /tmp/ccyPB5Cy.s:2283   .text:0000000000000b70 .L0 
     /tmp/ccyPB5Cy.s:2285   .text:0000000000000b74 .L0 
     /tmp/ccyPB5Cy.s:2287   .text:0000000000000b78 .L0 
     /tmp/ccyPB5Cy.s:2288   .text:0000000000000b78 .L0 
     /tmp/ccyPB5Cy.s:2291   .text:0000000000000b84 .L0 
     /tmp/ccyPB5Cy.s:2294   .text:0000000000000b8c .L0 
     /tmp/ccyPB5Cy.s:2295   .text:0000000000000b8c .L0 
     /tmp/ccyPB5Cy.s:2298   .text:0000000000000b94 .L0 
     /tmp/ccyPB5Cy.s:2299   .text:0000000000000b94 .L0 
src/kernel/riscv.cpp:71     .text:0000000000000b94 .L0 
     /tmp/ccyPB5Cy.s:2307   .text:0000000000000b98 .L0 
     /tmp/ccyPB5Cy.s:2421   .text:0000000000000bbc .L0 
     /tmp/ccyPB5Cy.s:2422   .text:0000000000000bbc .L0 
     /tmp/ccyPB5Cy.s:2423   .text:0000000000000bbc .L0 
     /tmp/ccyPB5Cy.s:2427   .text:0000000000000bc4 .L0 
     /tmp/ccyPB5Cy.s:2428   .text:0000000000000bc4 .L0 
     /tmp/ccyPB5Cy.s:2429   .text:0000000000000bc4 .L0 
     /tmp/ccyPB5Cy.s:2436   .text:0000000000000bd4 .L0 
src/kernel/../../h/kernel/riscv.hpp:189    .text:0000000000000bd4 .L0 
     /tmp/ccyPB5Cy.s:2446   .text:0000000000000bd8 .L0 
     /tmp/ccyPB5Cy.s:2447   .text:0000000000000bd8 .L0 
     /tmp/ccyPB5Cy.s:2452   .text:0000000000000bdc .L0 
src/kernel/../../h/kernel/riscv.hpp:179    .text:0000000000000bdc .L0 
     /tmp/ccyPB5Cy.s:2465   .text:0000000000000be0 .L0 
     /tmp/ccyPB5Cy.s:2466   .text:0000000000000be0 .L0 
GAS LISTING /tmp/ccyPB5Cy.s 			page 123


     /tmp/ccyPB5Cy.s:2469   .text:0000000000000be8 .L0 
     /tmp/ccyPB5Cy.s:2470   .text:0000000000000bec .L0 
     /tmp/ccyPB5Cy.s:2471   .text:0000000000000bec .L0 
     /tmp/ccyPB5Cy.s:2473   .text:0000000000000bf0 .L0 
     /tmp/ccyPB5Cy.s:2474   .text:0000000000000bf0 .L0 
     /tmp/ccyPB5Cy.s:2476   .text:0000000000000bf4 .L0 
     /tmp/ccyPB5Cy.s:2479   .text:0000000000000bf8 .L0 
     /tmp/ccyPB5Cy.s:2483   .text:0000000000000bfc .L0 
     /tmp/ccyPB5Cy.s:2487   .text:0000000000000bfc .L0 
     /tmp/ccyPB5Cy.s:2488   .text:0000000000000bfc .L0 
     /tmp/ccyPB5Cy.s:2489   .text:0000000000000bfc .L0 
     /tmp/ccyPB5Cy.s:2492   .text:0000000000000c04 .L0 
     /tmp/ccyPB5Cy.s:2495   .text:0000000000000c08 .L0 
     /tmp/ccyPB5Cy.s:2496   .text:0000000000000c08 .L0 
     /tmp/ccyPB5Cy.s:2497   .text:0000000000000c08 .L0 
     /tmp/ccyPB5Cy.s:2500   .text:0000000000000c10 .L0 
     /tmp/ccyPB5Cy.s:2503   .text:0000000000000c14 .L0 
     /tmp/ccyPB5Cy.s:2504   .text:0000000000000c14 .L0 
     /tmp/ccyPB5Cy.s:2505   .text:0000000000000c14 .L0 
     /tmp/ccyPB5Cy.s:2508   .text:0000000000000c1c .L0 
     /tmp/ccyPB5Cy.s:2511   .text:0000000000000c20 .L0 
     /tmp/ccyPB5Cy.s:2512   .text:0000000000000c20 .L0 
     /tmp/ccyPB5Cy.s:2513   .text:0000000000000c20 .L0 
     /tmp/ccyPB5Cy.s:2516   .text:0000000000000c28 .L0 
     /tmp/ccyPB5Cy.s:2519   .text:0000000000000c2c .L0 
     /tmp/ccyPB5Cy.s:2520   .text:0000000000000c2c .L0 
     /tmp/ccyPB5Cy.s:2521   .text:0000000000000c2c .L0 
     /tmp/ccyPB5Cy.s:2524   .text:0000000000000c34 .L0 
     /tmp/ccyPB5Cy.s:2527   .text:0000000000000c38 .L0 
     /tmp/ccyPB5Cy.s:2528   .text:0000000000000c38 .L0 
     /tmp/ccyPB5Cy.s:2529   .text:0000000000000c38 .L0 
     /tmp/ccyPB5Cy.s:2532   .text:0000000000000c40 .L0 
     /tmp/ccyPB5Cy.s:2535   .text:0000000000000c44 .L0 
     /tmp/ccyPB5Cy.s:2536   .text:0000000000000c44 .L0 
     /tmp/ccyPB5Cy.s:2537   .text:0000000000000c44 .L0 
     /tmp/ccyPB5Cy.s:2540   .text:0000000000000c4c .L0 
     /tmp/ccyPB5Cy.s:2543   .text:0000000000000c50 .L0 
     /tmp/ccyPB5Cy.s:2544   .text:0000000000000c50 .L0 
     /tmp/ccyPB5Cy.s:2545   .text:0000000000000c50 .L0 
     /tmp/ccyPB5Cy.s:2548   .text:0000000000000c58 .L0 
     /tmp/ccyPB5Cy.s:2551   .text:0000000000000c5c .L0 
     /tmp/ccyPB5Cy.s:2552   .text:0000000000000c5c .L0 
     /tmp/ccyPB5Cy.s:2553   .text:0000000000000c5c .L0 
     /tmp/ccyPB5Cy.s:2556   .text:0000000000000c64 .L0 
     /tmp/ccyPB5Cy.s:2559   .text:0000000000000c68 .L0 
     /tmp/ccyPB5Cy.s:2560   .text:0000000000000c68 .L0 
     /tmp/ccyPB5Cy.s:2561   .text:0000000000000c68 .L0 
     /tmp/ccyPB5Cy.s:2564   .text:0000000000000c70 .L0 
     /tmp/ccyPB5Cy.s:2567   .text:0000000000000c74 .L0 
     /tmp/ccyPB5Cy.s:2568   .text:0000000000000c74 .L0 
     /tmp/ccyPB5Cy.s:2569   .text:0000000000000c74 .L0 
     /tmp/ccyPB5Cy.s:2572   .text:0000000000000c7c .L0 
     /tmp/ccyPB5Cy.s:2575   .text:0000000000000c80 .L0 
     /tmp/ccyPB5Cy.s:2576   .text:0000000000000c80 .L0 
     /tmp/ccyPB5Cy.s:2577   .text:0000000000000c80 .L0 
     /tmp/ccyPB5Cy.s:2580   .text:0000000000000c88 .L0 
     /tmp/ccyPB5Cy.s:2583   .text:0000000000000c8c .L0 
GAS LISTING /tmp/ccyPB5Cy.s 			page 124


     /tmp/ccyPB5Cy.s:2584   .text:0000000000000c8c .L0 
     /tmp/ccyPB5Cy.s:2585   .text:0000000000000c8c .L0 
     /tmp/ccyPB5Cy.s:2588   .text:0000000000000c94 .L0 
     /tmp/ccyPB5Cy.s:2591   .text:0000000000000c98 .L0 
     /tmp/ccyPB5Cy.s:2592   .text:0000000000000c98 .L0 
     /tmp/ccyPB5Cy.s:2593   .text:0000000000000c98 .L0 
     /tmp/ccyPB5Cy.s:2596   .text:0000000000000ca0 .L0 
     /tmp/ccyPB5Cy.s:2599   .text:0000000000000ca4 .L0 
     /tmp/ccyPB5Cy.s:2600   .text:0000000000000ca4 .L0 
     /tmp/ccyPB5Cy.s:2601   .text:0000000000000ca4 .L0 
     /tmp/ccyPB5Cy.s:2604   .text:0000000000000cac .L0 
     /tmp/ccyPB5Cy.s:2607   .text:0000000000000cb0 .L0 
     /tmp/ccyPB5Cy.s:2608   .text:0000000000000cb0 .L0 
     /tmp/ccyPB5Cy.s:2609   .text:0000000000000cb0 .L0 
     /tmp/ccyPB5Cy.s:2612   .text:0000000000000cb8 .L0 
     /tmp/ccyPB5Cy.s:2615   .text:0000000000000cbc .L0 
     /tmp/ccyPB5Cy.s:2616   .text:0000000000000cbc .L0 
src/kernel/riscv.cpp:94     .text:0000000000000cbc .L0 
     /tmp/ccyPB5Cy.s:2625   .text:0000000000000ccc .L0 
     /tmp/ccyPB5Cy.s:2626   .text:0000000000000ccc .L0 
     /tmp/ccyPB5Cy.s:2629   .text:0000000000000cd4 .L0 
     /tmp/ccyPB5Cy.s:2630   .text:0000000000000cd4 .L0 
     /tmp/ccyPB5Cy.s:2633   .text:0000000000000cdc .L0 
     /tmp/ccyPB5Cy.s:2641   .text:0000000000000ce0 .L0 
     /tmp/ccyPB5Cy.s:2642   .text:0000000000000ce0 .L0 
     /tmp/ccyPB5Cy.s:2643   .text:0000000000000ce0 .L0 
src/kernel/../../h/kernel/riscv.hpp:194    .text:0000000000000ce0 .L0 
     /tmp/ccyPB5Cy.s:2653   .text:0000000000000ce4 .L0 
     /tmp/ccyPB5Cy.s:2654   .text:0000000000000ce4 .L0 
     /tmp/ccyPB5Cy.s:2658   .text:0000000000000ce8 .L0 
     /tmp/ccyPB5Cy.s:2659   .text:0000000000000ce8 .L0 
     /tmp/ccyPB5Cy.s:2660   .text:0000000000000ce8 .L0 
src/kernel/../../h/kernel/riscv.hpp:174    .text:0000000000000ce8 .L0 
     /tmp/ccyPB5Cy.s:2670   .text:0000000000000cec .L0 
     /tmp/ccyPB5Cy.s:2671   .text:0000000000000cec .L0 
     /tmp/ccyPB5Cy.s:2676   .text:0000000000000cf0 .L0 
     /tmp/ccyPB5Cy.s:2677   .text:0000000000000cf0 .L0 
     /tmp/ccyPB5Cy.s:2678   .text:0000000000000cf0 .L0 
     /tmp/ccyPB5Cy.s:2688   .text:0000000000000cf8 .L0 
     /tmp/ccyPB5Cy.s:2689   .text:0000000000000cf8 .L0 
     /tmp/ccyPB5Cy.s:2694   .text:0000000000000d0c .L0 
     /tmp/ccyPB5Cy.s:2695   .text:0000000000000d0c .L0 
     /tmp/ccyPB5Cy.s:2698   .text:0000000000000d14 .L0 
     /tmp/ccyPB5Cy.s:2699   .text:0000000000000d14 .L0 
     /tmp/ccyPB5Cy.s:2705   .text:0000000000000d28 .L0 
     /tmp/ccyPB5Cy.s:2706   .text:0000000000000d28 .L0 
     /tmp/ccyPB5Cy.s:2710   .text:0000000000000d38 .L0 
     /tmp/ccyPB5Cy.s:2714   .text:0000000000000d3c .L0 
     /tmp/ccyPB5Cy.s:2715   .text:0000000000000d3c .L0 
     /tmp/ccyPB5Cy.s:2720   .text:0000000000000d40 .L0 
src/kernel/../../h/kernel/riscv.hpp:189    .text:0000000000000d40 .L0 
     /tmp/ccyPB5Cy.s:2730   .text:0000000000000d44 .L0 
     /tmp/ccyPB5Cy.s:2731   .text:0000000000000d44 .L0 
     /tmp/ccyPB5Cy.s:2736   .text:0000000000000d48 .L0 
src/kernel/../../h/kernel/riscv.hpp:179    .text:0000000000000d48 .L0 
     /tmp/ccyPB5Cy.s:2743   .text:0000000000000d4c .L0 
     /tmp/ccyPB5Cy.s:2751   .text:0000000000000d50 .L0 
GAS LISTING /tmp/ccyPB5Cy.s 			page 125


     /tmp/ccyPB5Cy.s:2752   .text:0000000000000d50 .L0 
     /tmp/ccyPB5Cy.s:2756   .text:0000000000000d5c .L0 
     /tmp/ccyPB5Cy.s:2757   .text:0000000000000d5c .L0 
     /tmp/ccyPB5Cy.s:2758   .text:0000000000000d5c .L0 
     /tmp/ccyPB5Cy.s:2761   .text:0000000000000d64 .L0 
     /tmp/ccyPB5Cy.s:2762   .text:0000000000000d64 .L0 
     /tmp/ccyPB5Cy.s:2774   .text:0000000000000d70 .L0 
     /tmp/ccyPB5Cy.s:2775   .text:0000000000000d70 .L0 
     /tmp/ccyPB5Cy.s:2776   .text:0000000000000d70 .L0 
src/kernel/../../h/kernel/riscv.hpp:194    .text:0000000000000d70 .L0 
     /tmp/ccyPB5Cy.s:2786   .text:0000000000000d74 .L0 
     /tmp/ccyPB5Cy.s:2787   .text:0000000000000d74 .L0 
     /tmp/ccyPB5Cy.s:2791   .text:0000000000000d78 .L0 
     /tmp/ccyPB5Cy.s:2792   .text:0000000000000d78 .L0 
     /tmp/ccyPB5Cy.s:2793   .text:0000000000000d78 .L0 
src/kernel/../../h/kernel/riscv.hpp:174    .text:0000000000000d78 .L0 
     /tmp/ccyPB5Cy.s:2803   .text:0000000000000d7c .L0 
     /tmp/ccyPB5Cy.s:2804   .text:0000000000000d7c .L0 
     /tmp/ccyPB5Cy.s:2806   .text:0000000000000d80 .L0 
     /tmp/ccyPB5Cy.s:2807   .text:0000000000000d80 .L0 
     /tmp/ccyPB5Cy.s:2811   .text:0000000000000d8c .L0 
src/kernel/riscv.cpp:149    .text:0000000000000d8c .L0 
     /tmp/ccyPB5Cy.s:2817   .text:0000000000000d90 .L0 
src/kernel/riscv.cpp:150    .text:0000000000000d90 .L0 
     /tmp/ccyPB5Cy.s:2822   .text:0000000000000d94 .L0 
src/kernel/riscv.cpp:151    .text:0000000000000d94 .L0 
     /tmp/ccyPB5Cy.s:2830   .text:0000000000000d98 .L0 
     /tmp/ccyPB5Cy.s:2831   .text:0000000000000d98 .L0 
     /tmp/ccyPB5Cy.s:2834   .text:0000000000000d9c .L0 
     /tmp/ccyPB5Cy.s:2837   .text:0000000000000da0 .L0 
     /tmp/ccyPB5Cy.s:2838   .text:0000000000000da0 .L0 
     /tmp/ccyPB5Cy.s:2839   .text:0000000000000da0 .L0 
     /tmp/ccyPB5Cy.s:2840   .text:0000000000000da0 .L0 
     /tmp/ccyPB5Cy.s:2844   .text:0000000000000dac .L0 
src/kernel/riscv.cpp:160    .text:0000000000000dac .L0 
     /tmp/ccyPB5Cy.s:2850   .text:0000000000000db0 .L0 
src/kernel/riscv.cpp:161    .text:0000000000000db0 .L0 
     /tmp/ccyPB5Cy.s:2855   .text:0000000000000db4 .L0 
src/kernel/riscv.cpp:162    .text:0000000000000db4 .L0 
     /tmp/ccyPB5Cy.s:2863   .text:0000000000000dbc .L0 
     /tmp/ccyPB5Cy.s:2864   .text:0000000000000dbc .L0 
     /tmp/ccyPB5Cy.s:2868   .text:0000000000000dc8 .L0 
     /tmp/ccyPB5Cy.s:2874   .text:0000000000000dcc .L0 
     /tmp/ccyPB5Cy.s:2875   .text:0000000000000dcc .L0 
     /tmp/ccyPB5Cy.s:2880   .text:0000000000000ddc .L0 
     /tmp/ccyPB5Cy.s:2881   .text:0000000000000ddc .L0 
     /tmp/ccyPB5Cy.s:2886   .text:0000000000000de0 .L0 
src/kernel/../../h/kernel/riscv.hpp:189    .text:0000000000000de0 .L0 
     /tmp/ccyPB5Cy.s:2896   .text:0000000000000de4 .L0 
     /tmp/ccyPB5Cy.s:2897   .text:0000000000000de4 .L0 
     /tmp/ccyPB5Cy.s:2902   .text:0000000000000de8 .L0 
src/kernel/../../h/kernel/riscv.hpp:179    .text:0000000000000de8 .L0 
     /tmp/ccyPB5Cy.s:2909   .text:0000000000000dec .L0 
     /tmp/ccyPB5Cy.s:2917   .text:0000000000000df0 .L0 
     /tmp/ccyPB5Cy.s:2918   .text:0000000000000df0 .L0 
     /tmp/ccyPB5Cy.s:2922   .text:0000000000000e00 .L0 
     /tmp/ccyPB5Cy.s:2923   .text:0000000000000e00 .L0 
GAS LISTING /tmp/ccyPB5Cy.s 			page 126


     /tmp/ccyPB5Cy.s:2934   .text:0000000000000e0c .L0 
     /tmp/ccyPB5Cy.s:2935   .text:0000000000000e0c .L0 
     /tmp/ccyPB5Cy.s:2939   .text:0000000000000e18 .L0 
     /tmp/ccyPB5Cy.s:2940   .text:0000000000000e18 .L0 
     /tmp/ccyPB5Cy.s:2943   .text:0000000000000e20 .L0 
     /tmp/ccyPB5Cy.s:2944   .text:0000000000000e20 .L0 
     /tmp/ccyPB5Cy.s:2950   .text:0000000000000e30 .L0 
     /tmp/ccyPB5Cy.s:2951   .text:0000000000000e30 .L0 
     /tmp/ccyPB5Cy.s:2952   .text:0000000000000e30 .L0 
src/kernel/../../h/kernel/riscv.hpp:174    .text:0000000000000e30 .L0 
     /tmp/ccyPB5Cy.s:2961   .text:0000000000000e34 .L0 
     /tmp/ccyPB5Cy.s:2962   .text:0000000000000e34 .L0 
     /tmp/ccyPB5Cy.s:2963   .text:0000000000000e34 .L0 
     /tmp/ccyPB5Cy.s:2969   .text:0000000000000e48 .L0 
     /tmp/ccyPB5Cy.s:2970   .text:0000000000000e48 .L0 
     /tmp/ccyPB5Cy.s:2974   .text:0000000000000e58 .L0 
     /tmp/ccyPB5Cy.s:2975   .text:0000000000000e58 .L0 
     /tmp/ccyPB5Cy.s:2979   .text:0000000000000e68 .L0 
     /tmp/ccyPB5Cy.s:2980   .text:0000000000000e68 .L0 
     /tmp/ccyPB5Cy.s:2988   .text:0000000000000e74 .L0 
     /tmp/ccyPB5Cy.s:2994   .text:0000000000000e74 _ZN5RiscV16threadCreateUtilEPP3TCBPFvPvES3_
     /tmp/ccyPB5Cy.s:2997   .text:0000000000000e74 .L0 
     /tmp/ccyPB5Cy.s:2999   .text:0000000000000e74 .L0 
     /tmp/ccyPB5Cy.s:3000   .text:0000000000000e78 .L0 
     /tmp/ccyPB5Cy.s:3006   .text:0000000000000e8c .L0 
     /tmp/ccyPB5Cy.s:3007   .text:0000000000000e8c .L0 
     /tmp/ccyPB5Cy.s:3008   .text:0000000000000e8c .L0 
     /tmp/ccyPB5Cy.s:3009   .text:0000000000000e8c .L0 
     /tmp/ccyPB5Cy.s:3010   .text:0000000000000e8c .L0 
     /tmp/ccyPB5Cy.s:3012   .text:0000000000000e90 .L0 
     /tmp/ccyPB5Cy.s:3018   .text:0000000000000e9c .L0 
     /tmp/ccyPB5Cy.s:3019   .text:0000000000000e9c .L0 
     /tmp/ccyPB5Cy.s:3020   .text:0000000000000e9c .L0 
     /tmp/ccyPB5Cy.s:3021   .text:0000000000000e9c .L0 
     /tmp/ccyPB5Cy.s:3022   .text:0000000000000e9c .L0 
     /tmp/ccyPB5Cy.s:3024   .text:0000000000000ea0 .L0 
     /tmp/ccyPB5Cy.s:3025   .text:0000000000000ea0 .L0 
     /tmp/ccyPB5Cy.s:3030   .text:0000000000000eac .L0 
     /tmp/ccyPB5Cy.s:3032   .text:0000000000000eb0 .L0 
     /tmp/ccyPB5Cy.s:3033   .text:0000000000000eb0 .L0 
     /tmp/ccyPB5Cy.s:3035   .text:0000000000000eb4 .L0 
     /tmp/ccyPB5Cy.s:3039   .text:0000000000000eb8 .L0 
     /tmp/ccyPB5Cy.s:3043   .text:0000000000000ebc .L0 
src/kernel/riscv.cpp:732    .text:0000000000000ebc .L0 
     /tmp/ccyPB5Cy.s:3049   .text:0000000000000ec0 .L0 
src/kernel/riscv.cpp:733    .text:0000000000000ec0 .L0 
     /tmp/ccyPB5Cy.s:3054   .text:0000000000000ec4 .L0 
src/kernel/riscv.cpp:734    .text:0000000000000ec4 .L0 
     /tmp/ccyPB5Cy.s:3059   .text:0000000000000ec8 .L0 
src/kernel/riscv.cpp:735    .text:0000000000000ec8 .L0 
     /tmp/ccyPB5Cy.s:3064   .text:0000000000000ecc .L0 
src/kernel/riscv.cpp:736    .text:0000000000000ecc .L0 
     /tmp/ccyPB5Cy.s:3069   .text:0000000000000ed0 .L0 
src/kernel/riscv.cpp:738    .text:0000000000000ed0 .L0 
     /tmp/ccyPB5Cy.s:3074   .text:0000000000000ed4 .L0 
     /tmp/ccyPB5Cy.s:3078   .text:0000000000000ed4 .L0 
     /tmp/ccyPB5Cy.s:3079   .text:0000000000000ed4 .L0 
GAS LISTING /tmp/ccyPB5Cy.s 			page 127


     /tmp/ccyPB5Cy.s:3080   .text:0000000000000ed8 .L0 
     /tmp/ccyPB5Cy.s:3082   .text:0000000000000edc .L0 
     /tmp/ccyPB5Cy.s:3083   .text:0000000000000edc .L0 
     /tmp/ccyPB5Cy.s:3085   .text:0000000000000ee0 .L0 
     /tmp/ccyPB5Cy.s:3088   .text:0000000000000ee4 .L0 
     /tmp/ccyPB5Cy.s:3091   .text:0000000000000ee8 .L0 
     /tmp/ccyPB5Cy.s:3094   .text:0000000000000eec .L0 
     /tmp/ccyPB5Cy.s:3096   .text:0000000000000ef0 .L0 
     /tmp/ccyPB5Cy.s:3102   .text:0000000000000ef0 _ZN5RiscV14threadExitUtilEv
     /tmp/ccyPB5Cy.s:3105   .text:0000000000000ef0 .L0 
     /tmp/ccyPB5Cy.s:3106   .text:0000000000000ef0 .L0 
     /tmp/ccyPB5Cy.s:3107   .text:0000000000000ef4 .L0 
     /tmp/ccyPB5Cy.s:3109   .text:0000000000000ef8 .L0 
     /tmp/ccyPB5Cy.s:3111   .text:0000000000000efc .L0 
     /tmp/ccyPB5Cy.s:3113   .text:0000000000000efc .L0 
src/kernel/riscv.cpp:747    .text:0000000000000efc .L0 
     /tmp/ccyPB5Cy.s:3119   .text:0000000000000f00 .L0 
src/kernel/riscv.cpp:749    .text:0000000000000f00 .L0 
     /tmp/ccyPB5Cy.s:3124   .text:0000000000000f04 .L0 
     /tmp/ccyPB5Cy.s:3126   .text:0000000000000f04 .L0 
     /tmp/ccyPB5Cy.s:3128   .text:0000000000000f04 .L0 
     /tmp/ccyPB5Cy.s:3129   .text:0000000000000f08 .L0 
     /tmp/ccyPB5Cy.s:3130   .text:0000000000000f08 .L0 
     /tmp/ccyPB5Cy.s:3132   .text:0000000000000f0c .L0 
     /tmp/ccyPB5Cy.s:3134   .text:0000000000000f10 .L0 
     /tmp/ccyPB5Cy.s:3140   .text:0000000000000f10 _ZN5RiscV18threadDispatchUtilEv
     /tmp/ccyPB5Cy.s:3143   .text:0000000000000f10 .L0 
     /tmp/ccyPB5Cy.s:3144   .text:0000000000000f10 .L0 
     /tmp/ccyPB5Cy.s:3145   .text:0000000000000f14 .L0 
     /tmp/ccyPB5Cy.s:3147   .text:0000000000000f18 .L0 
     /tmp/ccyPB5Cy.s:3149   .text:0000000000000f1c .L0 
     /tmp/ccyPB5Cy.s:3151   .text:0000000000000f1c .L0 
src/kernel/riscv.cpp:757    .text:0000000000000f1c .L0 
     /tmp/ccyPB5Cy.s:3157   .text:0000000000000f20 .L0 
src/kernel/riscv.cpp:759    .text:0000000000000f20 .L0 
     /tmp/ccyPB5Cy.s:3163   .text:0000000000000f24 .L0 
     /tmp/ccyPB5Cy.s:3164   .text:0000000000000f28 .L0 
     /tmp/ccyPB5Cy.s:3165   .text:0000000000000f28 .L0 
     /tmp/ccyPB5Cy.s:3167   .text:0000000000000f2c .L0 
     /tmp/ccyPB5Cy.s:3169   .text:0000000000000f30 .L0 
     /tmp/ccyPB5Cy.s:3175   .text:0000000000000f30 _ZN5RiscV11putcWrapperEPv
     /tmp/ccyPB5Cy.s:3178   .text:0000000000000f30 .L0 
     /tmp/ccyPB5Cy.s:3180   .text:0000000000000f30 .L0 
     /tmp/ccyPB5Cy.s:3181   .text:0000000000000f34 .L0 
     /tmp/ccyPB5Cy.s:3184   .text:0000000000000f3c .L0 
     /tmp/ccyPB5Cy.s:3185   .text:0000000000000f3c .L0 
     /tmp/ccyPB5Cy.s:3187   .text:0000000000000f40 .L0 
     /tmp/ccyPB5Cy.s:3194   .text:0000000000000f44 .L0 
     /tmp/ccyPB5Cy.s:3195   .text:0000000000000f44 .L0 
     /tmp/ccyPB5Cy.s:3202   .text:0000000000000f4c .L0 
     /tmp/ccyPB5Cy.s:3203   .text:0000000000000f4c .L0 
     /tmp/ccyPB5Cy.s:3204   .text:0000000000000f4c .L0 
     /tmp/ccyPB5Cy.s:3208   .text:0000000000000f58 .L0 
src/kernel/riscv.cpp:529    .text:0000000000000f58 .L0 
     /tmp/ccyPB5Cy.s:3214   .text:0000000000000f5c .L0 
src/kernel/riscv.cpp:530    .text:0000000000000f5c .L0 
     /tmp/ccyPB5Cy.s:3219   .text:0000000000000f60 .L0 
GAS LISTING /tmp/ccyPB5Cy.s 			page 128


src/kernel/riscv.cpp:531    .text:0000000000000f60 .L0 
     /tmp/ccyPB5Cy.s:3227   .text:0000000000000f64 .L0 
     /tmp/ccyPB5Cy.s:3228   .text:0000000000000f64 .L0 
     /tmp/ccyPB5Cy.s:3231   .text:0000000000000f68 .L0 
     /tmp/ccyPB5Cy.s:3234   .text:0000000000000f6c .L0 
     /tmp/ccyPB5Cy.s:3235   .text:0000000000000f6c .L0 
     /tmp/ccyPB5Cy.s:3238   .text:0000000000000f74 .L0 
     /tmp/ccyPB5Cy.s:3240   .text:0000000000000f78 .L0 
     /tmp/ccyPB5Cy.s:3241   .text:0000000000000f78 .L0 
     /tmp/ccyPB5Cy.s:3245   .text:0000000000000f84 .L0 
src/kernel/riscv.cpp:539    .text:0000000000000f84 .L0 
     /tmp/ccyPB5Cy.s:3251   .text:0000000000000f88 .L0 
     /tmp/ccyPB5Cy.s:3253   .text:0000000000000f88 .L0 
src/kernel/riscv.cpp:540    .text:0000000000000f8c .L0 
     /tmp/ccyPB5Cy.s:3261   .text:0000000000000f90 .L0 
src/kernel/riscv.cpp:541    .text:0000000000000f90 .L0 
     /tmp/ccyPB5Cy.s:3266   .text:0000000000000f94 .L0 
     /tmp/ccyPB5Cy.s:3268   .text:0000000000000f94 .L0 
     /tmp/ccyPB5Cy.s:3271   .text:0000000000000fa0 .L0 
     /tmp/ccyPB5Cy.s:3273   .text:0000000000000fa4 .L0 
     /tmp/ccyPB5Cy.s:3274   .text:0000000000000fa4 .L0 
     /tmp/ccyPB5Cy.s:3281   .text:0000000000000fb8 .L0 
     /tmp/ccyPB5Cy.s:3287   .text:0000000000000fb8 _ZN5RiscV6getPMTEv
     /tmp/ccyPB5Cy.s:3290   .text:0000000000000fb8 .L0 
     /tmp/ccyPB5Cy.s:3291   .text:0000000000000fb8 .L0 
     /tmp/ccyPB5Cy.s:3292   .text:0000000000000fbc .L0 
     /tmp/ccyPB5Cy.s:3295   .text:0000000000000fc4 .L0 
     /tmp/ccyPB5Cy.s:3296   .text:0000000000000fc4 .L0 
     /tmp/ccyPB5Cy.s:3298   .text:0000000000000fc8 .L0 
     /tmp/ccyPB5Cy.s:3300   .text:0000000000000fc8 .L0 
     /tmp/ccyPB5Cy.s:3301   .text:0000000000000fc8 .L0 
     /tmp/ccyPB5Cy.s:3305   .text:0000000000000fd4 .L0 
     /tmp/ccyPB5Cy.s:3307   .text:0000000000000fd4 .L0 
     /tmp/ccyPB5Cy.s:3308   .text:0000000000000fd4 .L0 
     /tmp/ccyPB5Cy.s:3312   .text:0000000000000fd8 .L0 
     /tmp/ccyPB5Cy.s:3315   .text:0000000000000fe0 .L0 
     /tmp/ccyPB5Cy.s:3316   .text:0000000000000fe0 .L0 
     /tmp/ccyPB5Cy.s:3319   .text:0000000000000fe8 .L0 
     /tmp/ccyPB5Cy.s:3321   .text:0000000000000fec .L0 
     /tmp/ccyPB5Cy.s:3328   .text:0000000000000ff4 .L0 
     /tmp/ccyPB5Cy.s:3329   .text:0000000000000ff8 .L0 
     /tmp/ccyPB5Cy.s:3331   .text:0000000000000ffc .L0 
     /tmp/ccyPB5Cy.s:3332   .text:0000000000000ffc .L0 
     /tmp/ccyPB5Cy.s:3334   .text:0000000000001000 .L0 
     /tmp/ccyPB5Cy.s:3336   .text:0000000000001004 .L0 
     /tmp/ccyPB5Cy.s:3342   .text:0000000000001004 _ZN5RiscV15handlePageFaultEPvmm
     /tmp/ccyPB5Cy.s:3345   .text:0000000000001004 .L0 
     /tmp/ccyPB5Cy.s:3347   .text:0000000000001004 .L0 
     /tmp/ccyPB5Cy.s:3348   .text:0000000000001008 .L0 
     /tmp/ccyPB5Cy.s:3356   .text:0000000000001024 .L0 
     /tmp/ccyPB5Cy.s:3357   .text:0000000000001024 .L0 
     /tmp/ccyPB5Cy.s:3358   .text:0000000000001024 .L0 
     /tmp/ccyPB5Cy.s:3359   .text:0000000000001024 .L0 
     /tmp/ccyPB5Cy.s:3360   .text:0000000000001024 .L0 
     /tmp/ccyPB5Cy.s:3361   .text:0000000000001024 .L0 
     /tmp/ccyPB5Cy.s:3362   .text:0000000000001024 .L0 
     /tmp/ccyPB5Cy.s:3364   .text:0000000000001028 .L0 
GAS LISTING /tmp/ccyPB5Cy.s 			page 129


     /tmp/ccyPB5Cy.s:3367   .text:000000000000102c .L0 
     /tmp/ccyPB5Cy.s:3368   .text:000000000000102c .L0 
     /tmp/ccyPB5Cy.s:3370   .text:0000000000001030 .L0 
     /tmp/ccyPB5Cy.s:3373   .text:0000000000001034 .L0 
     /tmp/ccyPB5Cy.s:3374   .text:0000000000001034 .L0 
     /tmp/ccyPB5Cy.s:3375   .text:0000000000001034 .L0 
     /tmp/ccyPB5Cy.s:3377   .text:0000000000001038 .L0 
     /tmp/ccyPB5Cy.s:3380   .text:000000000000103c .L0 
     /tmp/ccyPB5Cy.s:3381   .text:000000000000103c .L0 
     /tmp/ccyPB5Cy.s:3383   .text:0000000000001040 .L0 
     /tmp/ccyPB5Cy.s:3386   .text:0000000000001044 .L0 
     /tmp/ccyPB5Cy.s:3387   .text:0000000000001044 .L0 
     /tmp/ccyPB5Cy.s:3391   .text:000000000000104c .L0 
     /tmp/ccyPB5Cy.s:3394   .text:0000000000001050 .L0 
     /tmp/ccyPB5Cy.s:3395   .text:0000000000001050 .L0 
     /tmp/ccyPB5Cy.s:3397   .text:0000000000001054 .L0 
     /tmp/ccyPB5Cy.s:3398   .text:0000000000001054 .L0 
     /tmp/ccyPB5Cy.s:3401   .text:0000000000001058 .L0 
     /tmp/ccyPB5Cy.s:3405   .text:000000000000105c .L0 
     /tmp/ccyPB5Cy.s:3406   .text:000000000000105c .L0 
     /tmp/ccyPB5Cy.s:3410   .text:0000000000001064 .L0 
     /tmp/ccyPB5Cy.s:3413   .text:0000000000001068 .L0 
     /tmp/ccyPB5Cy.s:3414   .text:0000000000001068 .L0 
     /tmp/ccyPB5Cy.s:3416   .text:000000000000106c .L0 
     /tmp/ccyPB5Cy.s:3417   .text:000000000000106c .L0 
     /tmp/ccyPB5Cy.s:3420   .text:0000000000001070 .L0 
     /tmp/ccyPB5Cy.s:3424   .text:0000000000001074 .L0 
     /tmp/ccyPB5Cy.s:3425   .text:0000000000001074 .L0 
     /tmp/ccyPB5Cy.s:3427   .text:0000000000001078 .L0 
     /tmp/ccyPB5Cy.s:3432   .text:0000000000001080 .L0 
     /tmp/ccyPB5Cy.s:3435   .text:0000000000001084 .L0 
     /tmp/ccyPB5Cy.s:3437   .text:0000000000001088 .L0 
     /tmp/ccyPB5Cy.s:3438   .text:000000000000108c .L0 
     /tmp/ccyPB5Cy.s:3439   .text:000000000000108c .L0 
     /tmp/ccyPB5Cy.s:3441   .text:0000000000001090 .L0 
     /tmp/ccyPB5Cy.s:3442   .text:0000000000001090 .L0 
     /tmp/ccyPB5Cy.s:3444   .text:0000000000001094 .L0 
     /tmp/ccyPB5Cy.s:3446   .text:0000000000001098 .L0 
     /tmp/ccyPB5Cy.s:3448   .text:000000000000109c .L0 
     /tmp/ccyPB5Cy.s:3450   .text:00000000000010a0 .L0 
     /tmp/ccyPB5Cy.s:3452   .text:00000000000010a4 .L0 
     /tmp/ccyPB5Cy.s:3454   .text:00000000000010a8 .L0 
     /tmp/ccyPB5Cy.s:3458   .text:00000000000010ac .L0 
     /tmp/ccyPB5Cy.s:3460   .text:00000000000010ac .L0 
     /tmp/ccyPB5Cy.s:3461   .text:00000000000010ac .L0 
     /tmp/ccyPB5Cy.s:3464   .text:00000000000010b4 .L0 
     /tmp/ccyPB5Cy.s:3465   .text:00000000000010b4 .L0 
     /tmp/ccyPB5Cy.s:3467   .text:00000000000010b8 .L0 
     /tmp/ccyPB5Cy.s:3469   .text:00000000000010bc .L0 
     /tmp/ccyPB5Cy.s:3471   .text:00000000000010c0 .L0 
     /tmp/ccyPB5Cy.s:3476   .text:00000000000010c8 .L0 
     /tmp/ccyPB5Cy.s:3477   .text:00000000000010c8 .L0 
     /tmp/ccyPB5Cy.s:3480   .text:00000000000010d0 .L0 
     /tmp/ccyPB5Cy.s:3481   .text:00000000000010d0 .L0 
     /tmp/ccyPB5Cy.s:3483   .text:00000000000010d4 .L0 
     /tmp/ccyPB5Cy.s:3485   .text:00000000000010d8 .L0 
     /tmp/ccyPB5Cy.s:3487   .text:00000000000010dc .L0 
GAS LISTING /tmp/ccyPB5Cy.s 			page 130


     /tmp/ccyPB5Cy.s:3489   .text:00000000000010e4 .L0 
     /tmp/ccyPB5Cy.s:3495   .text:00000000000010e4 _ZN5RiscV12buildSectionEPvmmm
     /tmp/ccyPB5Cy.s:3498   .text:00000000000010e4 .L0 
     /tmp/ccyPB5Cy.s:3500   .text:00000000000010e4 .L0 
     /tmp/ccyPB5Cy.s:3501   .text:00000000000010e8 .L0 
     /tmp/ccyPB5Cy.s:3508   .text:0000000000001100 .L0 
     /tmp/ccyPB5Cy.s:3509   .text:0000000000001100 .L0 
     /tmp/ccyPB5Cy.s:3510   .text:0000000000001100 .L0 
     /tmp/ccyPB5Cy.s:3511   .text:0000000000001100 .L0 
     /tmp/ccyPB5Cy.s:3512   .text:0000000000001100 .L0 
     /tmp/ccyPB5Cy.s:3513   .text:0000000000001100 .L0 
     /tmp/ccyPB5Cy.s:3515   .text:0000000000001104 .L0 
     /tmp/ccyPB5Cy.s:3524   .text:0000000000001114 .L0 
     /tmp/ccyPB5Cy.s:3525   .text:0000000000001114 .L0 
     /tmp/ccyPB5Cy.s:3527   .text:0000000000001118 .L0 
     /tmp/ccyPB5Cy.s:3528   .text:0000000000001118 .L0 
     /tmp/ccyPB5Cy.s:3534   .text:000000000000112c .L0 
     /tmp/ccyPB5Cy.s:3535   .text:000000000000112c .L0 
     /tmp/ccyPB5Cy.s:3539   .text:0000000000001134 .L0 
     /tmp/ccyPB5Cy.s:3543   .text:0000000000001138 .L0 
     /tmp/ccyPB5Cy.s:3544   .text:000000000000113c .L0 
     /tmp/ccyPB5Cy.s:3546   .text:0000000000001140 .L0 
     /tmp/ccyPB5Cy.s:3547   .text:0000000000001140 .L0 
     /tmp/ccyPB5Cy.s:3549   .text:0000000000001144 .L0 
     /tmp/ccyPB5Cy.s:3552   .text:0000000000001148 .L0 
     /tmp/ccyPB5Cy.s:3555   .text:000000000000114c .L0 
     /tmp/ccyPB5Cy.s:3558   .text:0000000000001150 .L0 
     /tmp/ccyPB5Cy.s:3561   .text:0000000000001154 .L0 
     /tmp/ccyPB5Cy.s:3563   .text:0000000000001158 .L0 
     /tmp/ccyPB5Cy.s:3569   .text:0000000000001158 _ZN5RiscV19mapConsoleRegistersEPv
     /tmp/ccyPB5Cy.s:3572   .text:0000000000001158 .L0 
     /tmp/ccyPB5Cy.s:3574   .text:0000000000001158 .L0 
     /tmp/ccyPB5Cy.s:3575   .text:000000000000115c .L0 
     /tmp/ccyPB5Cy.s:3579   .text:0000000000001168 .L0 
     /tmp/ccyPB5Cy.s:3580   .text:0000000000001168 .L0 
     /tmp/ccyPB5Cy.s:3581   .text:0000000000001168 .L0 
     /tmp/ccyPB5Cy.s:3583   .text:000000000000116c .L0 
     /tmp/ccyPB5Cy.s:3586   .text:0000000000001170 .L0 
     /tmp/ccyPB5Cy.s:3587   .text:0000000000001170 .L0 
     /tmp/ccyPB5Cy.s:3593   .text:0000000000001188 .L0 
     /tmp/ccyPB5Cy.s:3594   .text:0000000000001188 .L0 
     /tmp/ccyPB5Cy.s:3601   .text:00000000000011a4 .L0 
     /tmp/ccyPB5Cy.s:3602   .text:00000000000011a4 .L0 
     /tmp/ccyPB5Cy.s:3609   .text:00000000000011c0 .L0 
     /tmp/ccyPB5Cy.s:3610   .text:00000000000011c0 .L0 
     /tmp/ccyPB5Cy.s:3617   .text:00000000000011d8 .L0 
     /tmp/ccyPB5Cy.s:3618   .text:00000000000011dc .L0 
     /tmp/ccyPB5Cy.s:3620   .text:00000000000011e0 .L0 
     /tmp/ccyPB5Cy.s:3621   .text:00000000000011e0 .L0 
     /tmp/ccyPB5Cy.s:3623   .text:00000000000011e4 .L0 
     /tmp/ccyPB5Cy.s:3626   .text:00000000000011e8 .L0 
     /tmp/ccyPB5Cy.s:3628   .text:00000000000011ec .L0 
     /tmp/ccyPB5Cy.s:3634   .text:00000000000011ec _ZN5RiscV14buildKernelPMTEv
     /tmp/ccyPB5Cy.s:3637   .text:00000000000011ec .L0 
     /tmp/ccyPB5Cy.s:3638   .text:00000000000011ec .L0 
     /tmp/ccyPB5Cy.s:3639   .text:00000000000011f0 .L0 
     /tmp/ccyPB5Cy.s:3646   .text:0000000000001208 .L0 
GAS LISTING /tmp/ccyPB5Cy.s 			page 131


     /tmp/ccyPB5Cy.s:3647   .text:0000000000001208 .L0 
     /tmp/ccyPB5Cy.s:3648   .text:0000000000001208 .L0 
     /tmp/ccyPB5Cy.s:3649   .text:0000000000001208 .L0 
     /tmp/ccyPB5Cy.s:3650   .text:0000000000001208 .L0 
     /tmp/ccyPB5Cy.s:3651   .text:0000000000001208 .L0 
     /tmp/ccyPB5Cy.s:3653   .text:000000000000120c .L0 
     /tmp/ccyPB5Cy.s:3655   .text:000000000000120c .L0 
     /tmp/ccyPB5Cy.s:3656   .text:000000000000120c .L0 
     /tmp/ccyPB5Cy.s:3659   .text:0000000000001214 .L0 
     /tmp/ccyPB5Cy.s:3662   .text:0000000000001220 .L0 
     /tmp/ccyPB5Cy.s:3663   .text:0000000000001220 .L0 
     /tmp/ccyPB5Cy.s:3667   .text:0000000000001230 .L0 
     /tmp/ccyPB5Cy.s:3670   .text:000000000000123c .L0 
     /tmp/ccyPB5Cy.s:3673   .text:0000000000001240 .L0 
     /tmp/ccyPB5Cy.s:3674   .text:0000000000001240 .L0 
     /tmp/ccyPB5Cy.s:3682   .text:0000000000001260 .L0 
     /tmp/ccyPB5Cy.s:3683   .text:0000000000001260 .L0 
     /tmp/ccyPB5Cy.s:3691   .text:0000000000001280 .L0 
     /tmp/ccyPB5Cy.s:3692   .text:0000000000001280 .L0 
     /tmp/ccyPB5Cy.s:3700   .text:00000000000012a0 .L0 
     /tmp/ccyPB5Cy.s:3701   .text:00000000000012a0 .L0 
     /tmp/ccyPB5Cy.s:3709   .text:00000000000012c0 .L0 
     /tmp/ccyPB5Cy.s:3710   .text:00000000000012c0 .L0 
     /tmp/ccyPB5Cy.s:3717   .text:00000000000012d8 .L0 
     /tmp/ccyPB5Cy.s:3718   .text:00000000000012d8 .L0 
     /tmp/ccyPB5Cy.s:3726   .text:00000000000012f8 .L0 
     /tmp/ccyPB5Cy.s:3727   .text:00000000000012f8 .L0 
     /tmp/ccyPB5Cy.s:3733   .text:0000000000001304 .L0 
     /tmp/ccyPB5Cy.s:3734   .text:0000000000001304 .L0 
     /tmp/ccyPB5Cy.s:3735   .text:0000000000001304 .L0 
     /tmp/ccyPB5Cy.s:3745   .text:000000000000130c .L0 
     /tmp/ccyPB5Cy.s:3746   .text:0000000000001310 .L0 
     /tmp/ccyPB5Cy.s:3748   .text:0000000000001314 .L0 
     /tmp/ccyPB5Cy.s:3749   .text:0000000000001314 .L0 
     /tmp/ccyPB5Cy.s:3751   .text:0000000000001318 .L0 
     /tmp/ccyPB5Cy.s:3753   .text:000000000000131c .L0 
     /tmp/ccyPB5Cy.s:3756   .text:0000000000001320 .L0 
     /tmp/ccyPB5Cy.s:3758   .text:0000000000001324 .L0 
     /tmp/ccyPB5Cy.s:3760   .text:0000000000001328 .L0 
     /tmp/ccyPB5Cy.s:3762   .text:000000000000132c .L0 
     /tmp/ccyPB5Cy.s:3768   .text:000000000000132c _ZN5RiscV12buildUserPMTEv
     /tmp/ccyPB5Cy.s:3771   .text:000000000000132c .L0 
     /tmp/ccyPB5Cy.s:3772   .text:000000000000132c .L0 
     /tmp/ccyPB5Cy.s:3773   .text:0000000000001330 .L0 
     /tmp/ccyPB5Cy.s:3780   .text:0000000000001348 .L0 
     /tmp/ccyPB5Cy.s:3781   .text:0000000000001348 .L0 
     /tmp/ccyPB5Cy.s:3782   .text:0000000000001348 .L0 
     /tmp/ccyPB5Cy.s:3783   .text:0000000000001348 .L0 
     /tmp/ccyPB5Cy.s:3784   .text:0000000000001348 .L0 
     /tmp/ccyPB5Cy.s:3785   .text:0000000000001348 .L0 
     /tmp/ccyPB5Cy.s:3787   .text:000000000000134c .L0 
     /tmp/ccyPB5Cy.s:3789   .text:000000000000134c .L0 
     /tmp/ccyPB5Cy.s:3790   .text:000000000000134c .L0 
     /tmp/ccyPB5Cy.s:3793   .text:0000000000001354 .L0 
     /tmp/ccyPB5Cy.s:3796   .text:0000000000001360 .L0 
     /tmp/ccyPB5Cy.s:3797   .text:0000000000001360 .L0 
     /tmp/ccyPB5Cy.s:3801   .text:0000000000001370 .L0 
GAS LISTING /tmp/ccyPB5Cy.s 			page 132


     /tmp/ccyPB5Cy.s:3804   .text:000000000000137c .L0 
     /tmp/ccyPB5Cy.s:3807   .text:0000000000001380 .L0 
     /tmp/ccyPB5Cy.s:3808   .text:0000000000001380 .L0 
     /tmp/ccyPB5Cy.s:3816   .text:00000000000013a0 .L0 
     /tmp/ccyPB5Cy.s:3817   .text:00000000000013a0 .L0 
     /tmp/ccyPB5Cy.s:3825   .text:00000000000013c0 .L0 
     /tmp/ccyPB5Cy.s:3826   .text:00000000000013c0 .L0 
     /tmp/ccyPB5Cy.s:3834   .text:00000000000013e0 .L0 
     /tmp/ccyPB5Cy.s:3835   .text:00000000000013e0 .L0 
     /tmp/ccyPB5Cy.s:3843   .text:0000000000001400 .L0 
     /tmp/ccyPB5Cy.s:3844   .text:0000000000001400 .L0 
     /tmp/ccyPB5Cy.s:3851   .text:0000000000001418 .L0 
     /tmp/ccyPB5Cy.s:3852   .text:0000000000001418 .L0 
     /tmp/ccyPB5Cy.s:3860   .text:0000000000001438 .L0 
     /tmp/ccyPB5Cy.s:3861   .text:0000000000001438 .L0 
     /tmp/ccyPB5Cy.s:3867   .text:0000000000001444 .L0 
     /tmp/ccyPB5Cy.s:3868   .text:0000000000001444 .L0 
     /tmp/ccyPB5Cy.s:3869   .text:0000000000001444 .L0 
     /tmp/ccyPB5Cy.s:3879   .text:000000000000144c .L0 
     /tmp/ccyPB5Cy.s:3880   .text:0000000000001450 .L0 
     /tmp/ccyPB5Cy.s:3882   .text:0000000000001454 .L0 
     /tmp/ccyPB5Cy.s:3883   .text:0000000000001454 .L0 
     /tmp/ccyPB5Cy.s:3885   .text:0000000000001458 .L0 
     /tmp/ccyPB5Cy.s:3887   .text:000000000000145c .L0 
     /tmp/ccyPB5Cy.s:3890   .text:0000000000001460 .L0 
     /tmp/ccyPB5Cy.s:3892   .text:0000000000001464 .L0 
     /tmp/ccyPB5Cy.s:3894   .text:0000000000001468 .L0 
     /tmp/ccyPB5Cy.s:3896   .text:000000000000146c .L0 
     /tmp/ccyPB5Cy.s:3902   .text:000000000000146c _ZN5RiscV10initializeEv
     /tmp/ccyPB5Cy.s:3905   .text:000000000000146c .L0 
     /tmp/ccyPB5Cy.s:3906   .text:000000000000146c .L0 
     /tmp/ccyPB5Cy.s:3907   .text:0000000000001470 .L0 
     /tmp/ccyPB5Cy.s:3910   .text:0000000000001478 .L0 
     /tmp/ccyPB5Cy.s:3911   .text:0000000000001478 .L0 
     /tmp/ccyPB5Cy.s:3913   .text:000000000000147c .L0 
     /tmp/ccyPB5Cy.s:3915   .text:000000000000147c .L0 
     /tmp/ccyPB5Cy.s:3916   .text:000000000000147c .L0 
     /tmp/ccyPB5Cy.s:3921   .text:0000000000001484 .L0 
src/kernel/../../h/kernel/riscv.hpp:199    .text:0000000000001484 .L0 
     /tmp/ccyPB5Cy.s:3931   .text:0000000000001488 .L0 
     /tmp/ccyPB5Cy.s:3932   .text:0000000000001488 .L0 
     /tmp/ccyPB5Cy.s:3937   .text:000000000000149c .L0 
     /tmp/ccyPB5Cy.s:3942   .text:00000000000014ac .L0 
     /tmp/ccyPB5Cy.s:3943   .text:00000000000014ac .L0 
     /tmp/ccyPB5Cy.s:3946   .text:00000000000014b4 .L0 
     /tmp/ccyPB5Cy.s:3947   .text:00000000000014b4 .L0 
     /tmp/ccyPB5Cy.s:3950   .text:00000000000014bc .L0 
     /tmp/ccyPB5Cy.s:3951   .text:00000000000014bc .L0 
     /tmp/ccyPB5Cy.s:3954   .text:00000000000014c4 .L0 
     /tmp/ccyPB5Cy.s:3955   .text:00000000000014c4 .L0 
     /tmp/ccyPB5Cy.s:3958   .text:00000000000014cc .L0 
     /tmp/ccyPB5Cy.s:3959   .text:00000000000014cc .L0 
     /tmp/ccyPB5Cy.s:3962   .text:00000000000014d4 .L0 
     /tmp/ccyPB5Cy.s:3963   .text:00000000000014d4 .L0 
     /tmp/ccyPB5Cy.s:3966   .text:00000000000014dc .L0 
     /tmp/ccyPB5Cy.s:3967   .text:00000000000014dc .L0 
     /tmp/ccyPB5Cy.s:3970   .text:00000000000014e4 .L0 
GAS LISTING /tmp/ccyPB5Cy.s 			page 133


     /tmp/ccyPB5Cy.s:3971   .text:00000000000014e4 .L0 
     /tmp/ccyPB5Cy.s:3975   .text:00000000000014f4 .L0 
     /tmp/ccyPB5Cy.s:3976   .text:00000000000014f4 .L0 
     /tmp/ccyPB5Cy.s:3981   .text:00000000000014f8 .L0 
     /tmp/ccyPB5Cy.s:3982   .text:00000000000014f8 .L0 
     /tmp/ccyPB5Cy.s:3985   .text:00000000000014fc .L0 
     /tmp/ccyPB5Cy.s:3990   .text:0000000000001508 .L0 
src/kernel/../../h/kernel/riscv.hpp:259    .text:0000000000001508 .L0 
     /tmp/ccyPB5Cy.s:4000   .text:000000000000150c .L0 
     /tmp/ccyPB5Cy.s:4004   .text:000000000000150c .L0 
     /tmp/ccyPB5Cy.s:4005   .text:000000000000150c .L0 
     /tmp/ccyPB5Cy.s:4006   .text:000000000000150c .L0 
     /tmp/ccyPB5Cy.s:4020   .text:0000000000001514 .L0 
     /tmp/ccyPB5Cy.s:4021   .text:0000000000001514 .L0 
     /tmp/ccyPB5Cy.s:4022   .text:0000000000001514 .L0 
     /tmp/ccyPB5Cy.s:4036   .text:000000000000151c .L0 
     /tmp/ccyPB5Cy.s:4037   .text:000000000000151c .L0 
src/kernel/../../h/kernel/riscv.hpp:203    .text:000000000000151c .L0 
     /tmp/ccyPB5Cy.s:4048   .text:0000000000001520 .L0 
     /tmp/ccyPB5Cy.s:4049   .text:0000000000001524 .L0 
     /tmp/ccyPB5Cy.s:4051   .text:0000000000001528 .L0 
     /tmp/ccyPB5Cy.s:4052   .text:0000000000001528 .L0 
     /tmp/ccyPB5Cy.s:4054   .text:000000000000152c .L0 
     /tmp/ccyPB5Cy.s:4056   .text:0000000000001530 .L0 
     /tmp/ccyPB5Cy.s:4086   .bss:0000000000000020 _ZN5RiscV11initializedE
     /tmp/ccyPB5Cy.s:4082   .bss:0000000000000018 _ZN5RiscV4uPMTE
     /tmp/ccyPB5Cy.s:4078   .bss:0000000000000010 _ZN5RiscV4kPMTE
     /tmp/ccyPB5Cy.s:4069   .bss:0000000000000000 _ZN5RiscV16userMainFinishedE
     /tmp/ccyPB5Cy.s:4074   .bss:0000000000000008 _ZN5RiscV10globalTimeE
     /tmp/ccyPB5Cy.s:4066   .bss:0000000000000000 .LANCHOR0
     /tmp/ccyPB5Cy.s:4101   .text:0000000000001530 .L0 
     /tmp/ccyPB5Cy.s:24     .text:000000000000000c .L0 
     /tmp/ccyPB5Cy.s:52     .text:0000000000000034 .L0 
     /tmp/ccyPB5Cy.s:106    .text:0000000000000068 .L0 
     /tmp/ccyPB5Cy.s:146    .text:00000000000000a4 .L0 
     /tmp/ccyPB5Cy.s:151    .text:00000000000000b0 .L0 
     /tmp/ccyPB5Cy.s:197    .text:00000000000000f0 .L0 
     /tmp/ccyPB5Cy.s:267    .text:000000000000013c .L0 
     /tmp/ccyPB5Cy.s:270    .text:0000000000000144 .L0 
     /tmp/ccyPB5Cy.s:274    .text:0000000000000150 .L0 
     /tmp/ccyPB5Cy.s:327    .text:000000000000016c .L0 
     /tmp/ccyPB5Cy.s:334    .text:0000000000000180 .L0 
     /tmp/ccyPB5Cy.s:341    .text:0000000000000190 .L0 
     /tmp/ccyPB5Cy.s:348    .text:00000000000001a4 .L0 
     /tmp/ccyPB5Cy.s:350    .text:00000000000001b0 .L0 
     /tmp/ccyPB5Cy.s:395    .text:00000000000001ec .L0 
     /tmp/ccyPB5Cy.s:492    .text:000000000000025c .L0 
     /tmp/ccyPB5Cy.s:977    .text:00000000000004a0 .L0 
     /tmp/ccyPB5Cy.s:1271   .text:00000000000005fc .L0 
     /tmp/ccyPB5Cy.s:1409   .text:00000000000006a4 .L0 
     /tmp/ccyPB5Cy.s:1414   .text:00000000000006b0 .L0 
     /tmp/ccyPB5Cy.s:1481   .text:0000000000000718 .L0 
     /tmp/ccyPB5Cy.s:1486   .text:0000000000000724 .L0 
     /tmp/ccyPB5Cy.s:1773   .text:00000000000008bc .L0 
     /tmp/ccyPB5Cy.s:1806   .text:000000000000090c .L0 
     /tmp/ccyPB5Cy.s:1811   .text:000000000000091c .L0 
     /tmp/ccyPB5Cy.s:1816   .text:000000000000092c .L0 
GAS LISTING /tmp/ccyPB5Cy.s 			page 134


     /tmp/ccyPB5Cy.s:2009   .text:00000000000009fc .L0 
     /tmp/ccyPB5Cy.s:2091   .text:0000000000000a3c .L0 
     /tmp/ccyPB5Cy.s:2032   .rodata.str1.8:0000000000000038 .LC3
     /tmp/ccyPB5Cy.s:2152   .text:0000000000000a9c .L0 
     /tmp/ccyPB5Cy.s:2035   .rodata.str1.8:0000000000000048 .LC4
     /tmp/ccyPB5Cy.s:2157   .text:0000000000000aac .L0 
     /tmp/ccyPB5Cy.s:2023   .rodata.str1.8:0000000000000000 .LC0
     /tmp/ccyPB5Cy.s:2188   .text:0000000000000adc .L0 
     /tmp/ccyPB5Cy.s:2026   .rodata.str1.8:0000000000000008 .LC1
     /tmp/ccyPB5Cy.s:2214   .text:0000000000000b04 .L0 
     /tmp/ccyPB5Cy.s:2220   .text:0000000000000b18 .L0 
     /tmp/ccyPB5Cy.s:2038   .rodata.str1.8:0000000000000058 .LC5
     /tmp/ccyPB5Cy.s:2222   .text:0000000000000b24 .L0 
     /tmp/ccyPB5Cy.s:2227   .text:0000000000000b34 .L0 
     /tmp/ccyPB5Cy.s:2041   .rodata.str1.8:0000000000000060 .LC6
     /tmp/ccyPB5Cy.s:2236   .text:0000000000000b48 .L0 
     /tmp/ccyPB5Cy.s:2288   .text:0000000000000b78 .L0 
     /tmp/ccyPB5Cy.s:2319   .rodata:0000000000000000 .L116
     /tmp/ccyPB5Cy.s:2311   .text:0000000000000ba4 .L0 
     /tmp/ccyPB5Cy.s:2429   .text:0000000000000bc4 .L0 
     /tmp/ccyPB5Cy.s:2622   .text:0000000000000cc0 .L0 
     /tmp/ccyPB5Cy.s:2689   .text:0000000000000cf8 .L0 
     /tmp/ccyPB5Cy.s:2699   .text:0000000000000d14 .L0 
     /tmp/ccyPB5Cy.s:2706   .text:0000000000000d28 .L0 
     /tmp/ccyPB5Cy.s:2752   .text:0000000000000d50 .L0 
     /tmp/ccyPB5Cy.s:2807   .text:0000000000000d80 .L0 
     /tmp/ccyPB5Cy.s:2840   .text:0000000000000da0 .L0 
     /tmp/ccyPB5Cy.s:2864   .text:0000000000000dbc .L0 
     /tmp/ccyPB5Cy.s:2919   .text:0000000000000df4 .L0 
     /tmp/ccyPB5Cy.s:2935   .text:0000000000000e0c .L0 
     /tmp/ccyPB5Cy.s:2944   .text:0000000000000e20 .L0 
     /tmp/ccyPB5Cy.s:2970   .text:0000000000000e48 .L0 
     /tmp/ccyPB5Cy.s:2029   .rodata.str1.8:0000000000000010 .LC2
     /tmp/ccyPB5Cy.s:2975   .text:0000000000000e58 .L0 
     /tmp/ccyPB5Cy.s:3204   .text:0000000000000f4c .L0 
     /tmp/ccyPB5Cy.s:3241   .text:0000000000000f78 .L0 
     /tmp/ccyPB5Cy.s:3268   .text:0000000000000f94 .L0 
     /tmp/ccyPB5Cy.s:3275   .text:0000000000000fa8 .L0 
     /tmp/ccyPB5Cy.s:3588   .text:0000000000001174 .L0 
     /tmp/ccyPB5Cy.s:3595   .text:000000000000118c .L0 
     /tmp/ccyPB5Cy.s:3603   .text:00000000000011a8 .L0 
     /tmp/ccyPB5Cy.s:3659   .text:0000000000001214 .L0 
     /tmp/ccyPB5Cy.s:3663   .text:0000000000001220 .L0 
     /tmp/ccyPB5Cy.s:3667   .text:0000000000001230 .L0 
     /tmp/ccyPB5Cy.s:3674   .text:0000000000001240 .L0 
     /tmp/ccyPB5Cy.s:3683   .text:0000000000001260 .L0 
     /tmp/ccyPB5Cy.s:3692   .text:0000000000001280 .L0 
     /tmp/ccyPB5Cy.s:3701   .text:00000000000012a0 .L0 
     /tmp/ccyPB5Cy.s:3719   .text:00000000000012dc .L0 
     /tmp/ccyPB5Cy.s:3793   .text:0000000000001354 .L0 
     /tmp/ccyPB5Cy.s:3797   .text:0000000000001360 .L0 
     /tmp/ccyPB5Cy.s:3801   .text:0000000000001370 .L0 
     /tmp/ccyPB5Cy.s:3808   .text:0000000000001380 .L0 
     /tmp/ccyPB5Cy.s:3817   .text:00000000000013a0 .L0 
     /tmp/ccyPB5Cy.s:3826   .text:00000000000013c0 .L0 
     /tmp/ccyPB5Cy.s:3835   .text:00000000000013e0 .L0 
     /tmp/ccyPB5Cy.s:3853   .text:000000000000141c .L0 
GAS LISTING /tmp/ccyPB5Cy.s 			page 135


     /tmp/ccyPB5Cy.s:3916   .text:000000000000147c .L0 
     /tmp/ccyPB5Cy.s:3932   .text:0000000000001488 .L0 
     /tmp/ccyPB5Cy.s:3971   .text:00000000000014e4 .L0 
     /tmp/ccyPB5Cy.s:76     .text:0000000000000050 .L5
     /tmp/ccyPB5Cy.s:59     .text:0000000000000040 .L3
     /tmp/ccyPB5Cy.s:155    .text:00000000000000c4 .L9
     /tmp/ccyPB5Cy.s:228    .text:000000000000011c .L15
     /tmp/ccyPB5Cy.s:217    .text:0000000000000110 .L11
     /tmp/ccyPB5Cy.s:338    .text:0000000000000190 .L17
     /tmp/ccyPB5Cy.s:319    .text:000000000000016c .L18
     /tmp/ccyPB5Cy.s:359    .text:00000000000001cc .L16
     /tmp/ccyPB5Cy.s:345    .text:00000000000001a4 .L20
     /tmp/ccyPB5Cy.s:520    .text:000000000000028c .L30
     /tmp/ccyPB5Cy.s:497    .text:0000000000000270 .L27
     /tmp/ccyPB5Cy.s:611    .text:00000000000002fc .L32
     /tmp/ccyPB5Cy.s:672    .text:000000000000034c .L36
     /tmp/ccyPB5Cy.s:627    .text:0000000000000314 .L34
     /tmp/ccyPB5Cy.s:633    .text:000000000000031c .L33
     /tmp/ccyPB5Cy.s:789    .text:00000000000003d0 .L41
     /tmp/ccyPB5Cy.s:843    .text:0000000000000414 .L44
     /tmp/ccyPB5Cy.s:804    .text:00000000000003e4 .L42
     /tmp/ccyPB5Cy.s:937    .text:0000000000000470 .L52
     /tmp/ccyPB5Cy.s:914    .text:0000000000000454 .L49
     /tmp/ccyPB5Cy.s:1020   .text:00000000000004e0 .L55
     /tmp/ccyPB5Cy.s:996    .text:00000000000004c4 .L54
     /tmp/ccyPB5Cy.s:1083   .text:000000000000052c .L58
     /tmp/ccyPB5Cy.s:1125   .text:0000000000000560 .L61
     /tmp/ccyPB5Cy.s:1092   .text:0000000000000538 .L59
     /tmp/ccyPB5Cy.s:1224   .text:00000000000005c4 .L69
     /tmp/ccyPB5Cy.s:1197   .text:00000000000005a4 .L66
     /tmp/ccyPB5Cy.s:1302   .text:0000000000000630 .L75
     /tmp/ccyPB5Cy.s:1310   .text:000000000000063c .L73
     /tmp/ccyPB5Cy.s:1268   .text:00000000000005fc .L71
     /tmp/ccyPB5Cy.s:1278   .text:0000000000000614 .L72
     /tmp/ccyPB5Cy.s:1370   .text:000000000000067c .L80
     /tmp/ccyPB5Cy.s:1347   .text:0000000000000660 .L77
     /tmp/ccyPB5Cy.s:1490   .text:0000000000000738 .L84
     /tmp/ccyPB5Cy.s:1529   .text:0000000000000774 .L88
     /tmp/ccyPB5Cy.s:1544   .text:0000000000000790 .L89
     /tmp/ccyPB5Cy.s:1504   .text:0000000000000754 .L86
     /tmp/ccyPB5Cy.s:1652   .text:0000000000000810 .L95
     /tmp/ccyPB5Cy.s:1624   .text:00000000000007ec .L93
     /tmp/ccyPB5Cy.s:1728   .text:0000000000000878 .L99
     /tmp/ccyPB5Cy.s:1700   .text:0000000000000854 .L97
     /tmp/ccyPB5Cy.s:1798   .text:0000000000000908 .L101
     /tmp/ccyPB5Cy.s:1935   .text:00000000000009c4 .L104
     /tmp/ccyPB5Cy.s:1905   .text:00000000000009a0 .L102
     /tmp/ccyPB5Cy.s:2244   .text:0000000000000b64 .L111
     /tmp/ccyPB5Cy.s:2634   .text:0000000000000ce0 .L141
     /tmp/ccyPB5Cy.s:2766   .text:0000000000000d70 .L142
     /tmp/ccyPB5Cy.s:2927   .text:0000000000000e0c .L143
     /tmp/ccyPB5Cy.s:2459   .text:0000000000000be0 .L134
     /tmp/ccyPB5Cy.s:2426   .text:0000000000000bc4 .L114
     /tmp/ccyPB5Cy.s:2745   .text:0000000000000d50 .L144
     /tmp/ccyPB5Cy.s:2711   .text:0000000000000d3c .L135
     /tmp/ccyPB5Cy.s:2870   .text:0000000000000dcc .L137
     /tmp/ccyPB5Cy.s:2911   .text:0000000000000df0 .L145
GAS LISTING /tmp/ccyPB5Cy.s 			page 136


     /tmp/ccyPB5Cy.s:3037   .text:0000000000000eb8 .L149
     /tmp/ccyPB5Cy.s:3041   .text:0000000000000ebc .L147
     /tmp/ccyPB5Cy.s:3077   .text:0000000000000ed4 .L146
     /tmp/ccyPB5Cy.s:3197   .text:0000000000000f4c .L156
     /tmp/ccyPB5Cy.s:3190   .text:0000000000000f44 .L157
     /tmp/ccyPB5Cy.s:3325   .text:0000000000000ff4 .L160
     /tmp/ccyPB5Cy.s:3310   .text:0000000000000fd8 .L162
     /tmp/ccyPB5Cy.s:3457   .text:00000000000010ac .L170
     /tmp/ccyPB5Cy.s:3474   .text:00000000000010c8 .L171
     /tmp/ccyPB5Cy.s:3403   .text:000000000000105c .L166
     /tmp/ccyPB5Cy.s:3422   .text:0000000000001074 .L168
     /tmp/ccyPB5Cy.s:3540   .text:0000000000001138 .L172
     /tmp/ccyPB5Cy.s:3522   .text:0000000000001114 .L174
     /tmp/ccyPB5Cy.s:596    .text:00000000000002d4 .LEHB0
     /tmp/ccyPB5Cy.s:543    .text:000000000000029c .LFB49
     /tmp/ccyPB5Cy.s:599    .text:00000000000002dc .LEHE0
     /tmp/ccyPB5Cy.s:607    .text:00000000000002f4 .LEHB1
     /tmp/ccyPB5Cy.s:610    .text:00000000000002fc .LEHE1
     /tmp/ccyPB5Cy.s:678    .text:0000000000000354 .L37
     /tmp/ccyPB5Cy.s:623    .text:000000000000030c .LEHB2
     /tmp/ccyPB5Cy.s:626    .text:0000000000000314 .LEHE2
     /tmp/ccyPB5Cy.s:686    .text:0000000000000368 .LEHB3
     /tmp/ccyPB5Cy.s:689    .text:0000000000000370 .LEHE3
     /tmp/ccyPB5Cy.s:774    .text:00000000000003a8 .LEHB4
     /tmp/ccyPB5Cy.s:721    .text:0000000000000370 .LFB50
     /tmp/ccyPB5Cy.s:777    .text:00000000000003b0 .LEHE4
     /tmp/ccyPB5Cy.s:785    .text:00000000000003c8 .LEHB5
     /tmp/ccyPB5Cy.s:788    .text:00000000000003d0 .LEHE5
     /tmp/ccyPB5Cy.s:849    .text:000000000000041c .L45
     /tmp/ccyPB5Cy.s:857    .text:0000000000000430 .LEHB6
     /tmp/ccyPB5Cy.s:860    .text:0000000000000438 .LEHE6
     /tmp/ccyPB5Cy.s:1071   .text:0000000000000510 .LEHB7
     /tmp/ccyPB5Cy.s:1034   .text:00000000000004e8 .LFB54
     /tmp/ccyPB5Cy.s:1074   .text:0000000000000518 .LEHE7
     /tmp/ccyPB5Cy.s:1079   .text:0000000000000524 .LEHB8
     /tmp/ccyPB5Cy.s:1082   .text:000000000000052c .LEHE8
     /tmp/ccyPB5Cy.s:1131   .text:0000000000000568 .L62
     /tmp/ccyPB5Cy.s:1139   .text:000000000000057c .LEHB9
     /tmp/ccyPB5Cy.s:1142   .text:0000000000000584 .LEHE9
     /tmp/ccyPB5Cy.s:1766   .text:00000000000008b0 .LEHB10
     /tmp/ccyPB5Cy.s:1746   .text:0000000000000894 .LFB68
     /tmp/ccyPB5Cy.s:1786   .text:00000000000008e8 .LEHE10
     /tmp/ccyPB5Cy.s:1794   .text:0000000000000900 .LEHB11
     /tmp/ccyPB5Cy.s:1797   .text:0000000000000908 .LEHE11
     /tmp/ccyPB5Cy.s:1943   .text:00000000000009cc .L105
     /tmp/ccyPB5Cy.s:1900   .text:0000000000000998 .LEHB12
     /tmp/ccyPB5Cy.s:1903   .text:00000000000009a0 .LEHE12
     /tmp/ccyPB5Cy.s:1952   .text:00000000000009e0 .LEHB13
     /tmp/ccyPB5Cy.s:1955   .text:00000000000009e8 .LEHE13
     /tmp/ccyPB5Cy.s:2419   .text:0000000000000bbc .L133
     /tmp/ccyPB5Cy.s:2482   .text:0000000000000bfc .L132
     /tmp/ccyPB5Cy.s:2493   .text:0000000000000c08 .L131
     /tmp/ccyPB5Cy.s:2501   .text:0000000000000c14 .L130
     /tmp/ccyPB5Cy.s:2509   .text:0000000000000c20 .L129
     /tmp/ccyPB5Cy.s:2517   .text:0000000000000c2c .L128
     /tmp/ccyPB5Cy.s:2525   .text:0000000000000c38 .L127
     /tmp/ccyPB5Cy.s:2533   .text:0000000000000c44 .L126
GAS LISTING /tmp/ccyPB5Cy.s 			page 137


     /tmp/ccyPB5Cy.s:2541   .text:0000000000000c50 .L125
     /tmp/ccyPB5Cy.s:2549   .text:0000000000000c5c .L124
     /tmp/ccyPB5Cy.s:2557   .text:0000000000000c68 .L123
     /tmp/ccyPB5Cy.s:2565   .text:0000000000000c74 .L122
     /tmp/ccyPB5Cy.s:2573   .text:0000000000000c80 .L121
     /tmp/ccyPB5Cy.s:2581   .text:0000000000000c8c .L120
     /tmp/ccyPB5Cy.s:2589   .text:0000000000000c98 .L119
     /tmp/ccyPB5Cy.s:2597   .text:0000000000000ca4 .L118
     /tmp/ccyPB5Cy.s:2605   .text:0000000000000cb0 .L117
     /tmp/ccyPB5Cy.s:2613   .text:0000000000000cbc .L115
     /tmp/ccyPB5Cy.s:9045   .debug_abbrev:0000000000000000 .Ldebug_abbrev0
     /tmp/ccyPB5Cy.s:12486  .debug_str:00000000000016a5 .LASF373
     /tmp/ccyPB5Cy.s:12190  .debug_str:0000000000000cf6 .LASF374
     /tmp/ccyPB5Cy.s:12408  .debug_str:00000000000013b3 .LASF375
     /tmp/ccyPB5Cy.s:5      .text:0000000000000000 .Ltext0
     /tmp/ccyPB5Cy.s:4089   .text:0000000000001530 .Letext0
     /tmp/ccyPB5Cy.s:11784  .debug_line:0000000000000000 .Ldebug_line0
     /tmp/ccyPB5Cy.s:11840  .debug_str:00000000000001e7 .LASF0
     /tmp/ccyPB5Cy.s:12482  .debug_str:000000000000168a .LASF1
     /tmp/ccyPB5Cy.s:12416  .debug_str:000000000000141b .LASF2
     /tmp/ccyPB5Cy.s:12358  .debug_str:000000000000122d .LASF4
     /tmp/ccyPB5Cy.s:12374  .debug_str:00000000000012b4 .LASF3
     /tmp/ccyPB5Cy.s:11996  .debug_str:0000000000000669 .LASF5
     /tmp/ccyPB5Cy.s:12066  .debug_str:00000000000008b4 .LASF6
     /tmp/ccyPB5Cy.s:12274  .debug_str:0000000000000fa7 .LASF7
     /tmp/ccyPB5Cy.s:11882  .debug_str:0000000000000313 .LASF8
     /tmp/ccyPB5Cy.s:12468  .debug_str:00000000000015d9 .LASF9
     /tmp/ccyPB5Cy.s:12000  .debug_str:000000000000067b .LASF10
     /tmp/ccyPB5Cy.s:11920  .debug_str:0000000000000411 .LASF11
     /tmp/ccyPB5Cy.s:12100  .debug_str:00000000000009c9 .LASF12
     /tmp/ccyPB5Cy.s:12012  .debug_str:00000000000006dc .LASF13
     /tmp/ccyPB5Cy.s:12334  .debug_str:0000000000001194 .LASF14
     /tmp/ccyPB5Cy.s:12018  .debug_str:00000000000006fd .LASF15
     /tmp/ccyPB5Cy.s:11964  .debug_str:0000000000000591 .LASF16
     /tmp/ccyPB5Cy.s:11892  .debug_str:000000000000034f .LASF147
     /tmp/ccyPB5Cy.s:12072  .debug_str:00000000000008fd .LASF20
     /tmp/ccyPB5Cy.s:12464  .debug_str:00000000000015ba .LASF17
     /tmp/ccyPB5Cy.s:11832  .debug_str:0000000000000176 .LASF18
     /tmp/ccyPB5Cy.s:12034  .debug_str:000000000000078b .LASF19
     /tmp/ccyPB5Cy.s:12028  .debug_str:000000000000074f .LASF21
     /tmp/ccyPB5Cy.s:11984  .debug_str:0000000000000621 .LASF22
     /tmp/ccyPB5Cy.s:12290  .debug_str:0000000000001035 .LASF23
     /tmp/ccyPB5Cy.s:12340  .debug_str:00000000000011bc .LASF24
     /tmp/ccyPB5Cy.s:11830  .debug_str:000000000000016b .LASF25
     /tmp/ccyPB5Cy.s:11900  .debug_str:0000000000000381 .LASF26
     /tmp/ccyPB5Cy.s:12410  .debug_str:00000000000013e4 .LASF27
     /tmp/ccyPB5Cy.s:11970  .debug_str:00000000000005d2 .LASF28
     /tmp/ccyPB5Cy.s:12382  .debug_str:00000000000012e4 .LASF29
     /tmp/ccyPB5Cy.s:12264  .debug_str:0000000000000f72 .LASF30
     /tmp/ccyPB5Cy.s:12188  .debug_str:0000000000000cd2 .LASF32
     /tmp/ccyPB5Cy.s:12056  .debug_str:0000000000000858 .LASF31
     /tmp/ccyPB5Cy.s:12470  .debug_str:00000000000015e7 .LASF33
     /tmp/ccyPB5Cy.s:11880  .debug_str:00000000000002f8 .LASF34
     /tmp/ccyPB5Cy.s:12086  .debug_str:0000000000000954 .LASF35
     /tmp/ccyPB5Cy.s:11942  .debug_str:00000000000004a3 .LASF36
     /tmp/ccyPB5Cy.s:12414  .debug_str:00000000000013f5 .LASF37
     /tmp/ccyPB5Cy.s:12206  .debug_str:0000000000000d81 .LASF38
GAS LISTING /tmp/ccyPB5Cy.s 			page 138


     /tmp/ccyPB5Cy.s:12242  .debug_str:0000000000000ecb .LASF39
     /tmp/ccyPB5Cy.s:11834  .debug_str:0000000000000183 .LASF40
     /tmp/ccyPB5Cy.s:12032  .debug_str:000000000000075f .LASF41
     /tmp/ccyPB5Cy.s:12048  .debug_str:000000000000081b .LASF42
     /tmp/ccyPB5Cy.s:12432  .debug_str:0000000000001483 .LASF43
     /tmp/ccyPB5Cy.s:12226  .debug_str:0000000000000e00 .LASF44
     /tmp/ccyPB5Cy.s:11962  .debug_str:000000000000056e .LASF45
     /tmp/ccyPB5Cy.s:11946  .debug_str:00000000000004c3 .LASF46
     /tmp/ccyPB5Cy.s:12440  .debug_str:00000000000014e4 .LASF47
     /tmp/ccyPB5Cy.s:12512  .debug_str:0000000000001817 .LASF48
     /tmp/ccyPB5Cy.s:12232  .debug_str:0000000000000e54 .LASF49
     /tmp/ccyPB5Cy.s:11866  .debug_str:000000000000028a .LASF50
     /tmp/ccyPB5Cy.s:12230  .debug_str:0000000000000e2f .LASF51
     /tmp/ccyPB5Cy.s:12438  .debug_str:00000000000014cc .LASF52
     /tmp/ccyPB5Cy.s:12038  .debug_str:00000000000007be .LASF53
     /tmp/ccyPB5Cy.s:11898  .debug_str:000000000000036e .LASF54
     /tmp/ccyPB5Cy.s:12120  .debug_str:0000000000000a67 .LASF55
     /tmp/ccyPB5Cy.s:12070  .debug_str:00000000000008ea .LASF56
     /tmp/ccyPB5Cy.s:12146  .debug_str:0000000000000b73 .LASF57
     /tmp/ccyPB5Cy.s:11804  .debug_str:000000000000007a .LASF58
     /tmp/ccyPB5Cy.s:12474  .debug_str:0000000000001628 .LASF59
     /tmp/ccyPB5Cy.s:12510  .debug_str:00000000000017fe .LASF60
     /tmp/ccyPB5Cy.s:12006  .debug_str:00000000000006a0 .LASF61
     /tmp/ccyPB5Cy.s:12024  .debug_str:000000000000072e .LASF62
     /tmp/ccyPB5Cy.s:12200  .debug_str:0000000000000d3d .LASF63
     /tmp/ccyPB5Cy.s:11786  .debug_str:0000000000000000 .LASF64
     /tmp/ccyPB5Cy.s:12366  .debug_str:000000000000126e .LASF65
     /tmp/ccyPB5Cy.s:12454  .debug_str:0000000000001585 .LASF66
     /tmp/ccyPB5Cy.s:12348  .debug_str:00000000000011d8 .LASF68
     /tmp/ccyPB5Cy.s:12296  .debug_str:000000000000106b .LASF67
     /tmp/ccyPB5Cy.s:12182  .debug_str:0000000000000c97 .LASF69
     /tmp/ccyPB5Cy.s:11822  .debug_str:0000000000000126 .LASF70
     /tmp/ccyPB5Cy.s:12288  .debug_str:0000000000001019 .LASF71
     /tmp/ccyPB5Cy.s:12404  .debug_str:0000000000001397 .LASF72
     /tmp/ccyPB5Cy.s:11806  .debug_str:0000000000000091 .LASF73
     /tmp/ccyPB5Cy.s:12514  .debug_str:000000000000182d .LASF76
     /tmp/ccyPB5Cy.s:12308  .debug_str:00000000000010dc .LASF78
     /tmp/ccyPB5Cy.s:12314  .debug_str:0000000000001111 .LASF74
     /tmp/ccyPB5Cy.s:12436  .debug_str:00000000000014b7 .LASF75
     /tmp/ccyPB5Cy.s:11938  .debug_str:000000000000048c .LASF77
     /tmp/ccyPB5Cy.s:12356  .debug_str:000000000000121a .LASF79
     /tmp/ccyPB5Cy.s:11990  .debug_str:0000000000000639 .LASF80
     /tmp/ccyPB5Cy.s:12152  .debug_str:0000000000000ba1 .LASF81
     /tmp/ccyPB5Cy.s:12484  .debug_str:000000000000169d .LASF82
     /tmp/ccyPB5Cy.s:11992  .debug_str:0000000000000640 .LASF83
     /tmp/ccyPB5Cy.s:12324  .debug_str:0000000000001152 .LASF84
     /tmp/ccyPB5Cy.s:12330  .debug_str:0000000000001171 .LASF85
     /tmp/ccyPB5Cy.s:12008  .debug_str:00000000000006c6 .LASF86
     /tmp/ccyPB5Cy.s:12180  .debug_str:0000000000000c81 .LASF87
     /tmp/ccyPB5Cy.s:11976  .debug_str:0000000000000604 .LASF88
     /tmp/ccyPB5Cy.s:12244  .debug_str:0000000000000ef5 .LASF89
     /tmp/ccyPB5Cy.s:12166  .debug_str:0000000000000c01 .LASF90
     /tmp/ccyPB5Cy.s:12532  .debug_str:00000000000018a2 .LASF91
     /tmp/ccyPB5Cy.s:11870  .debug_str:00000000000002ab .LASF92
     /tmp/ccyPB5Cy.s:12362  .debug_str:000000000000124c .LASF93
     /tmp/ccyPB5Cy.s:12428  .debug_str:0000000000001469 .LASF94
     /tmp/ccyPB5Cy.s:11960  .debug_str:000000000000055b .LASF95
GAS LISTING /tmp/ccyPB5Cy.s 			page 139


     /tmp/ccyPB5Cy.s:11982  .debug_str:000000000000061a .LASF96
     /tmp/ccyPB5Cy.s:12020  .debug_str:0000000000000713 .LASF97
     /tmp/ccyPB5Cy.s:12418  .debug_str:0000000000001429 .LASF98
     /tmp/ccyPB5Cy.s:11878  .debug_str:00000000000002e5 .LASF99
     /tmp/ccyPB5Cy.s:12062  .debug_str:0000000000000891 .LASF100
     /tmp/ccyPB5Cy.s:12528  .debug_str:0000000000001876 .LASF101
     /tmp/ccyPB5Cy.s:12422  .debug_str:000000000000143d .LASF102
     /tmp/ccyPB5Cy.s:12544  .debug_str:0000000000001911 .LASF103
     /tmp/ccyPB5Cy.s:12118  .debug_str:0000000000000a55 .LASF104
     /tmp/ccyPB5Cy.s:12108  .debug_str:00000000000009fd .LASF105
     /tmp/ccyPB5Cy.s:12138  .debug_str:0000000000000b30 .LASF106
     /tmp/ccyPB5Cy.s:12058  .debug_str:000000000000086e .LASF107
     /tmp/ccyPB5Cy.s:12472  .debug_str:000000000000160a .LASF108
     /tmp/ccyPB5Cy.s:11906  .debug_str:00000000000003a5 .LASF109
     /tmp/ccyPB5Cy.s:12276  .debug_str:0000000000000fba .LASF110
     /tmp/ccyPB5Cy.s:12254  .debug_str:0000000000000f35 .LASF111
     /tmp/ccyPB5Cy.s:12010  .debug_str:00000000000006d0 .LASF112
     /tmp/ccyPB5Cy.s:12228  .debug_str:0000000000000e16 .LASF113
     /tmp/ccyPB5Cy.s:12248  .debug_str:0000000000000f14 .LASF114
     /tmp/ccyPB5Cy.s:12164  .debug_str:0000000000000bef .LASF115
     /tmp/ccyPB5Cy.s:12302  .debug_str:00000000000010a2 .LASF116
     /tmp/ccyPB5Cy.s:12064  .debug_str:0000000000000898 .LASF117
     /tmp/ccyPB5Cy.s:11848  .debug_str:0000000000000205 .LASF118
     /tmp/ccyPB5Cy.s:12130  .debug_str:0000000000000ac3 .LASF119
     /tmp/ccyPB5Cy.s:12548  .debug_str:0000000000001941 .LASF120
     /tmp/ccyPB5Cy.s:12446  .debug_str:0000000000001531 .LASF121
     /tmp/ccyPB5Cy.s:12534  .debug_str:00000000000018ba .LASF122
     /tmp/ccyPB5Cy.s:12396  .debug_str:0000000000001345 .LASF123
     /tmp/ccyPB5Cy.s:12530  .debug_str:0000000000001889 .LASF124
     /tmp/ccyPB5Cy.s:12240  .debug_str:0000000000000ea5 .LASF125
     /tmp/ccyPB5Cy.s:11802  .debug_str:0000000000000060 .LASF126
     /tmp/ccyPB5Cy.s:12036  .debug_str:0000000000000797 .LASF127
     /tmp/ccyPB5Cy.s:11958  .debug_str:0000000000000545 .LASF128
     /tmp/ccyPB5Cy.s:12476  .debug_str:000000000000164c .LASF129
     /tmp/ccyPB5Cy.s:11864  .debug_str:0000000000000273 .LASF130
     /tmp/ccyPB5Cy.s:12490  .debug_str:000000000000177c .LASF131
     /tmp/ccyPB5Cy.s:11854  .debug_str:0000000000000230 .LASF132
     /tmp/ccyPB5Cy.s:12442  .debug_str:0000000000001508 .LASF133
     /tmp/ccyPB5Cy.s:11998  .debug_str:0000000000000670 .LASF134
     /tmp/ccyPB5Cy.s:12360  .debug_str:0000000000001234 .LASF135
     /tmp/ccyPB5Cy.s:12444  .debug_str:0000000000001528 .LASF136
     /tmp/ccyPB5Cy.s:12278  .debug_str:0000000000000fc5 .LASF137
     /tmp/ccyPB5Cy.s:12104  .debug_str:00000000000009e2 .LASF138
     /tmp/ccyPB5Cy.s:12508  .debug_str:00000000000017eb .LASF139
     /tmp/ccyPB5Cy.s:12052  .debug_str:0000000000000845 .LASF140
     /tmp/ccyPB5Cy.s:12136  .debug_str:0000000000000b12 .LASF141
     /tmp/ccyPB5Cy.s:12162  .debug_str:0000000000000be0 .LASF142
     /tmp/ccyPB5Cy.s:12294  .debug_str:000000000000104f .LASF143
     /tmp/ccyPB5Cy.s:12338  .debug_str:00000000000011af .LASF144
     /tmp/ccyPB5Cy.s:12124  .debug_str:0000000000000a9a .LASF145
     /tmp/ccyPB5Cy.s:12106  .debug_str:00000000000009e9 .LASF248
     /tmp/ccyPB5Cy.s:11826  .debug_str:000000000000013c .LASF250
     /tmp/ccyPB5Cy.s:12148  .debug_str:0000000000000b93 .LASF146
     /tmp/ccyPB5Cy.s:12262  .debug_str:0000000000000f6a .LASF207
     /tmp/ccyPB5Cy.s:11846  .debug_str:00000000000001fe .LASF148
     /tmp/ccyPB5Cy.s:12022  .debug_str:0000000000000726 .LASF149
     /tmp/ccyPB5Cy.s:12144  .debug_str:0000000000000b6d .LASF150
GAS LISTING /tmp/ccyPB5Cy.s 			page 140


     /tmp/ccyPB5Cy.s:12132  .debug_str:0000000000000ae5 .LASF151
     /tmp/ccyPB5Cy.s:12346  .debug_str:00000000000011d0 .LASF152
     /tmp/ccyPB5Cy.s:12268  .debug_str:0000000000000f93 .LASF153
     /tmp/ccyPB5Cy.s:11886  .debug_str:0000000000000340 .LASF154
     /tmp/ccyPB5Cy.s:12394  .debug_str:000000000000133a .LASF155
     /tmp/ccyPB5Cy.s:11790  .debug_str:0000000000000018 .LASF156
     /tmp/ccyPB5Cy.s:11928  .debug_str:0000000000000452 .LASF157
     /tmp/ccyPB5Cy.s:12026  .debug_str:000000000000074a .LASF158
     /tmp/ccyPB5Cy.s:12494  .debug_str:00000000000017ad .LASF159
     /tmp/ccyPB5Cy.s:12194  .debug_str:0000000000000d13 .LASF163
     /tmp/ccyPB5Cy.s:12426  .debug_str:0000000000001461 .LASF160
     /tmp/ccyPB5Cy.s:11876  .debug_str:00000000000002d2 .LASF161
     /tmp/ccyPB5Cy.s:12222  .debug_str:0000000000000de9 .LASF162
     /tmp/ccyPB5Cy.s:12042  .debug_str:00000000000007f5 .LASF164
     /tmp/ccyPB5Cy.s:12216  .debug_str:0000000000000dcf .LASF165
     /tmp/ccyPB5Cy.s:11862  .debug_str:0000000000000266 .LASF166
     /tmp/ccyPB5Cy.s:12030  .debug_str:000000000000075a .LASF167
     /tmp/ccyPB5Cy.s:12380  .debug_str:00000000000012d5 .LASF168
     /tmp/ccyPB5Cy.s:12112  .debug_str:0000000000000a2c .LASF169
     /tmp/ccyPB5Cy.s:12202  .debug_str:0000000000000d66 .LASF170
     /tmp/ccyPB5Cy.s:12400  .debug_str:0000000000001369 .LASF171
     /tmp/ccyPB5Cy.s:11858  .debug_str:000000000000025c .LASF172
     /tmp/ccyPB5Cy.s:12256  .debug_str:0000000000000f4d .LASF173
     /tmp/ccyPB5Cy.s:11932  .debug_str:000000000000046f .LASF174
     /tmp/ccyPB5Cy.s:11940  .debug_str:0000000000000493 .LASF175
     /tmp/ccyPB5Cy.s:12004  .debug_str:0000000000000696 .LASF176
     /tmp/ccyPB5Cy.s:11874  .debug_str:00000000000002c8 .LASF177
     /tmp/ccyPB5Cy.s:12460  .debug_str:00000000000015a6 .LASF178
     /tmp/ccyPB5Cy.s:11956  .debug_str:000000000000051d .LASF179
     /tmp/ccyPB5Cy.s:11812  .debug_str:00000000000000e5 .LASF180
     /tmp/ccyPB5Cy.s:12318  .debug_str:0000000000001120 .LASF181
     /tmp/ccyPB5Cy.s:12204  .debug_str:0000000000000d79 .LASF182
     /tmp/ccyPB5Cy.s:12094  .debug_str:0000000000000997 .LASF183
     /tmp/ccyPB5Cy.s:11888  .debug_str:0000000000000345 .LASF184
     /tmp/ccyPB5Cy.s:12398  .debug_str:0000000000001364 .LASF185
     /tmp/ccyPB5Cy.s:12220  .debug_str:0000000000000de4 .LASF186
     /tmp/ccyPB5Cy.s:12354  .debug_str:0000000000001214 .LASF187
     /tmp/ccyPB5Cy.s:11814  .debug_str:00000000000000f1 .LASF188
     /tmp/ccyPB5Cy.s:11988  .debug_str:0000000000000634 .LASF189
     /tmp/ccyPB5Cy.s:12192  .debug_str:0000000000000d0b .LASF190
     /tmp/ccyPB5Cy.s:11844  .debug_str:00000000000001f9 .LASF191
     /tmp/ccyPB5Cy.s:11836  .debug_str:00000000000001a2 .LASF192
     /tmp/ccyPB5Cy.s:12142  .debug_str:0000000000000b64 .LASF193
     /tmp/ccyPB5Cy.s:12406  .debug_str:00000000000013aa .LASF194
     /tmp/ccyPB5Cy.s:12212  .debug_str:0000000000000dbf .LASF195
     /tmp/ccyPB5Cy.s:12506  .debug_str:00000000000017e3 .LASF196
     /tmp/ccyPB5Cy.s:12520  .debug_str:0000000000001848 .LASF197
     /tmp/ccyPB5Cy.s:12424  .debug_str:0000000000001450 .LASF198
     /tmp/ccyPB5Cy.s:12498  .debug_str:00000000000017bc .LASF199
     /tmp/ccyPB5Cy.s:12060  .debug_str:000000000000088c .LASF200
     /tmp/ccyPB5Cy.s:12390  .debug_str:000000000000131c .LASF201
     /tmp/ccyPB5Cy.s:12524  .debug_str:0000000000001861 .LASF202
     /tmp/ccyPB5Cy.s:11934  .debug_str:0000000000000474 .LASF203
     /tmp/ccyPB5Cy.s:11794  .debug_str:0000000000000034 .LASF204
     /tmp/ccyPB5Cy.s:12522  .debug_str:0000000000001853 .LASF205
     /tmp/ccyPB5Cy.s:12096  .debug_str:000000000000099e .LASF206
     /tmp/ccyPB5Cy.s:11966  .debug_str:00000000000005a7 .LASF208
GAS LISTING /tmp/ccyPB5Cy.s 			page 141


     /tmp/ccyPB5Cy.s:11924  .debug_str:0000000000000443 .LASF209
     /tmp/ccyPB5Cy.s:11890  .debug_str:000000000000034a .LASF210
     /tmp/ccyPB5Cy.s:12504  .debug_str:00000000000017d7 .LASF211
     /tmp/ccyPB5Cy.s:12412  .debug_str:00000000000013e9 .LASF212
     /tmp/ccyPB5Cy.s:11828  .debug_str:000000000000015e .LASF213
     /tmp/ccyPB5Cy.s:12492  .debug_str:00000000000017a0 .LASF214
     /tmp/ccyPB5Cy.s:12014  .debug_str:00000000000006ec .LASF215
     /tmp/ccyPB5Cy.s:12450  .debug_str:0000000000001560 .LASF216
     /tmp/ccyPB5Cy.s:12088  .debug_str:000000000000097c .LASF217
     /tmp/ccyPB5Cy.s:12300  .debug_str:0000000000001084 .LASF218
     /tmp/ccyPB5Cy.s:12538  .debug_str:00000000000018d8 .LASF219
     /tmp/ccyPB5Cy.s:11838  .debug_str:00000000000001ac .LASF220
     /tmp/ccyPB5Cy.s:12140  .debug_str:0000000000000b41 .LASF221
     /tmp/ccyPB5Cy.s:12502  .debug_str:00000000000017cc .LASF222
     /tmp/ccyPB5Cy.s:11922  .debug_str:0000000000000420 .LASF223
     /tmp/ccyPB5Cy.s:12488  .debug_str:0000000000001775 .LASF224
     /tmp/ccyPB5Cy.s:12068  .debug_str:00000000000008c7 .LASF225
     /tmp/ccyPB5Cy.s:12384  .debug_str:00000000000012f5 .LASF226
     /tmp/ccyPB5Cy.s:12462  .debug_str:00000000000015b4 .LASF376
     /tmp/ccyPB5Cy.s:12114  .debug_str:0000000000000a35 .LASF227
     /tmp/ccyPB5Cy.s:12260  .debug_str:0000000000000f64 .LASF231
     /tmp/ccyPB5Cy.s:11872  .debug_str:00000000000002b6 .LASF233
     /tmp/ccyPB5Cy.s:12430  .debug_str:0000000000001470 .LASF228
     /tmp/ccyPB5Cy.s:12080  .debug_str:0000000000000930 .LASF229
     /tmp/ccyPB5Cy.s:11818  .debug_str:0000000000000105 .LASF230
     /tmp/ccyPB5Cy.s:11850  .debug_str:000000000000021a .LASF232
     /tmp/ccyPB5Cy.s:12196  .debug_str:0000000000000d1f .LASF234
     /tmp/ccyPB5Cy.s:11994  .debug_str:0000000000000654 .LASF235
     /tmp/ccyPB5Cy.s:11954  .debug_str:000000000000050c .LASF236
     /tmp/ccyPB5Cy.s:12292  .debug_str:000000000000103e .LASF237
     /tmp/ccyPB5Cy.s:12500  .debug_str:00000000000017c5 .LASF377
     /tmp/ccyPB5Cy.s:11860  .debug_str:0000000000000261 .LASF238
     /tmp/ccyPB5Cy.s:11978  .debug_str:000000000000060e .LASF239
     /tmp/ccyPB5Cy.s:12322  .debug_str:000000000000114d .LASF240
     /tmp/ccyPB5Cy.s:11894  .debug_str:0000000000000355 .LASF241
     /tmp/ccyPB5Cy.s:11980  .debug_str:0000000000000613 .LASF242
     /tmp/ccyPB5Cy.s:12122  .debug_str:0000000000000a87 .LASF243
     /tmp/ccyPB5Cy.s:11930  .debug_str:0000000000000469 .LASF244
     /tmp/ccyPB5Cy.s:12286  .debug_str:0000000000000ffb .LASF245
     /tmp/ccyPB5Cy.s:11944  .debug_str:00000000000004bc .LASF246
     /tmp/ccyPB5Cy.s:12320  .debug_str:0000000000001138 .LASF247
     /tmp/ccyPB5Cy.s:12102  .debug_str:00000000000009d9 .LASF249
     /tmp/ccyPB5Cy.s:12252  .debug_str:0000000000000f20 .LASF251
     /tmp/ccyPB5Cy.s:12536  .debug_str:00000000000018cc .LASF252
     /tmp/ccyPB5Cy.s:11950  .debug_str:00000000000004f4 .LASF253
     /tmp/ccyPB5Cy.s:12372  .debug_str:00000000000012a8 .LASF254
     /tmp/ccyPB5Cy.s:12224  .debug_str:0000000000000df6 .LASF255
     /tmp/ccyPB5Cy.s:12150  .debug_str:0000000000000b98 .LASF256
     /tmp/ccyPB5Cy.s:11800  .debug_str:0000000000000055 .LASF257
     /tmp/ccyPB5Cy.s:11952  .debug_str:0000000000000500 .LASF258
     /tmp/ccyPB5Cy.s:12420  .debug_str:0000000000001430 .LASF259
     /tmp/ccyPB5Cy.s:11816  .debug_str:00000000000000fb .LASF260
     /tmp/ccyPB5Cy.s:12370  .debug_str:000000000000129e .LASF261
     /tmp/ccyPB5Cy.s:11912  .debug_str:00000000000003ee .LASF262
     /tmp/ccyPB5Cy.s:11820  .debug_str:000000000000011b .LASF263
     /tmp/ccyPB5Cy.s:12458  .debug_str:000000000000159d .LASF264
     /tmp/ccyPB5Cy.s:12352  .debug_str:00000000000011f8 .LASF265
GAS LISTING /tmp/ccyPB5Cy.s 			page 142


     /tmp/ccyPB5Cy.s:12282  .debug_str:0000000000000fe6 .LASF266
     /tmp/ccyPB5Cy.s:11808  .debug_str:00000000000000b1 .LASF267
     /tmp/ccyPB5Cy.s:12170  .debug_str:0000000000000c15 .LASF268
     /tmp/ccyPB5Cy.s:11884  .debug_str:0000000000000323 .LASF269
     /tmp/ccyPB5Cy.s:11852  .debug_str:0000000000000226 .LASF270
     /tmp/ccyPB5Cy.s:12542  .debug_str:00000000000018f4 .LASF271
     /tmp/ccyPB5Cy.s:12172  .debug_str:0000000000000c1f .LASF272
     /tmp/ccyPB5Cy.s:12368  .debug_str:000000000000128e .LASF273
     /tmp/ccyPB5Cy.s:12134  .debug_str:0000000000000aee .LASF274
     /tmp/ccyPB5Cy.s:11868  .debug_str:00000000000002a2 .LASF275
     /tmp/ccyPB5Cy.s:12306  .debug_str:00000000000010be .LASF276
     /tmp/ccyPB5Cy.s:12280  .debug_str:0000000000000fda .LASF277
     /tmp/ccyPB5Cy.s:12236  .debug_str:0000000000000e7e .LASF278
     /tmp/ccyPB5Cy.s:12116  .debug_str:0000000000000a4f .LASF279
     /tmp/ccyPB5Cy.s:12178  .debug_str:0000000000000c61 .LASF280
     /tmp/ccyPB5Cy.s:12168  .debug_str:0000000000000c0c .LASF281
     /tmp/ccyPB5Cy.s:12002  .debug_str:000000000000068a .LASF282
     /tmp/ccyPB5Cy.s:11916  .debug_str:0000000000000400 .LASF283
     /tmp/ccyPB5Cy.s:12078  .debug_str:0000000000000924 .LASF284
     /tmp/ccyPB5Cy.s:12160  .debug_str:0000000000000bdb .LASF285
     /tmp/ccyPB5Cy.s:11798  .debug_str:0000000000000049 .LASF286
     /tmp/ccyPB5Cy.s:12198  .debug_str:0000000000000d38 .LASF287
     /tmp/ccyPB5Cy.s:12546  .debug_str:0000000000001932 .LASF288
     /tmp/ccyPB5Cy.s:11824  .debug_str:0000000000000135 .LASF289
     /tmp/ccyPB5Cy.s:12448  .debug_str:000000000000154f .LASF290
     /tmp/ccyPB5Cy.s:12316  .debug_str:000000000000111a .LASF291
     /tmp/ccyPB5Cy.s:12154  .debug_str:0000000000000bb4 .LASF292
     /tmp/ccyPB5Cy.s:11896  .debug_str:0000000000000366 .LASF293
     /tmp/ccyPB5Cy.s:12040  .debug_str:00000000000007e3 .LASF294
     /tmp/ccyPB5Cy.s:12336  .debug_str:00000000000011a0 .LASF295
     /tmp/ccyPB5Cy.s:12098  .debug_str:00000000000009ae .LASF296
     /tmp/ccyPB5Cy.s:12208  .debug_str:0000000000000d9e .LASF297
     /tmp/ccyPB5Cy.s:12480  .debug_str:000000000000167a .LASF298
     /tmp/ccyPB5Cy.s:12110  .debug_str:0000000000000a1c .LASF299
     /tmp/ccyPB5Cy.s:12284  .debug_str:0000000000000fef .LASF300
     /tmp/ccyPB5Cy.s:12304  .debug_str:00000000000010b1 .LASF301
     /tmp/ccyPB5Cy.s:12084  .debug_str:0000000000000947 .LASF302
     /tmp/ccyPB5Cy.s:12350  .debug_str:00000000000011f2 .LASF303
     /tmp/ccyPB5Cy.s:12342  .debug_str:00000000000011c5 .LASF304
     /tmp/ccyPB5Cy.s:12210  .debug_str:0000000000000db4 .LASF305
     /tmp/ccyPB5Cy.s:11796  .debug_str:0000000000000040 .LASF306
     /tmp/ccyPB5Cy.s:12076  .debug_str:000000000000091c .LASF307
     /tmp/ccyPB5Cy.s:12378  .debug_str:00000000000012cb .LASF308
     /tmp/ccyPB5Cy.s:12456  .debug_str:0000000000001591 .LASF309
     /tmp/ccyPB5Cy.s:12328  .debug_str:0000000000001168 .LASF310
     /tmp/ccyPB5Cy.s:12128  .debug_str:0000000000000abe .LASF311
     /tmp/ccyPB5Cy.s:12158  .debug_str:0000000000000bd4 .LASF312
     /tmp/ccyPB5Cy.s:12312  .debug_str:00000000000010ff .LASF314
     /tmp/ccyPB5Cy.s:12298  .debug_str:000000000000107c .LASF313
     /tmp/ccyPB5Cy.s:12466  .debug_str:00000000000015c6 .LASF315
     /tmp/ccyPB5Cy.s:12332  .debug_str:0000000000001185 .LASF316
     /tmp/ccyPB5Cy.s:12074  .debug_str:000000000000090c .LASF317
     /tmp/ccyPB5Cy.s:12266  .debug_str:0000000000000f89 .LASF318
     /tmp/ccyPB5Cy.s:12540  .debug_str:00000000000018e7 .LASF319
     /tmp/ccyPB5Cy.s:12258  .debug_str:0000000000000f5d .LASF320
     /tmp/ccyPB5Cy.s:11926  .debug_str:0000000000000448 .LASF321
     /tmp/ccyPB5Cy.s:12496  .debug_str:00000000000017b2 .LASF322
GAS LISTING /tmp/ccyPB5Cy.s 			page 143


     /tmp/ccyPB5Cy.s:12388  .debug_str:0000000000001312 .LASF323
     /tmp/ccyPB5Cy.s:12082  .debug_str:000000000000093a .LASF324
     /tmp/ccyPB5Cy.s:12402  .debug_str:000000000000137f .LASF378
     /tmp/ccyPB5Cy.s:12044  .debug_str:0000000000000801 .LASF379
     /tmp/ccyPB5Cy.s:12452  .debug_str:000000000000157f .LASF325
     /tmp/ccyPB5Cy.s:11948  .debug_str:00000000000004da .LASF326
     /tmp/ccyPB5Cy.s:12046  .debug_str:0000000000000815 .LASF327
     /tmp/ccyPB5Cy.s:12392  .debug_str:0000000000001324 .LASF328
     /tmp/ccyPB5Cy.s:11856  .debug_str:0000000000000240 .LASF329
     /tmp/ccyPB5Cy.s:12326  .debug_str:000000000000115a .LASF330
     /tmp/ccyPB5Cy.s:11968  .debug_str:00000000000005b3 .LASF331
     /tmp/ccyPB5Cy.s:12434  .debug_str:00000000000014aa .LASF332
     /tmp/ccyPB5Cy.s:11974  .debug_str:00000000000005e6 .LASF333
     /tmp/ccyPB5Cy.s:12386  .debug_str:00000000000012fb .LASF334
     /tmp/ccyPB5Cy.s:12176  .debug_str:0000000000000c44 .LASF337
     /tmp/ccyPB5Cy.s:11792  .debug_str:0000000000000024 .LASF335
     /tmp/ccyPB5Cy.s:12156  .debug_str:0000000000000bc4 .LASF336
     /tmp/ccyPB5Cy.s:11908  .debug_str:00000000000003d0 .LASF338
     /tmp/ccyPB5Cy.s:3570   .text:0000000000001158 .LFB78
     /tmp/ccyPB5Cy.s:3629   .text:00000000000011ec .LFE78
     /tmp/ccyPB5Cy.s:10431  .debug_loc:0000000000000000 .LLST94
     /tmp/ccyPB5Cy.s:3591   .text:0000000000001188 .LVL284
     /tmp/ccyPB5Cy.s:3599   .text:00000000000011a4 .LVL285
     /tmp/ccyPB5Cy.s:3607   .text:00000000000011c0 .LVL286
     /tmp/ccyPB5Cy.s:3615   .text:00000000000011d8 .LVL287
     /tmp/ccyPB5Cy.s:3343   .text:0000000000001004 .LFB77
     /tmp/ccyPB5Cy.s:3490   .text:00000000000010e4 .LFE77
     /tmp/ccyPB5Cy.s:10449  .debug_loc:000000000000004c .LLST79
     /tmp/ccyPB5Cy.s:12238  .debug_str:0000000000000ea0 .LASF339
     /tmp/ccyPB5Cy.s:10474  .debug_loc:00000000000000ae .LLST80
     /tmp/ccyPB5Cy.s:12184  .debug_str:0000000000000cc3 .LASF340
     /tmp/ccyPB5Cy.s:10499  .debug_loc:0000000000000110 .LLST81
     /tmp/ccyPB5Cy.s:12364  .debug_str:0000000000001264 .LASF341
     /tmp/ccyPB5Cy.s:10525  .debug_loc:0000000000000182 .LLST82
     /tmp/ccyPB5Cy.s:11986  .debug_str:000000000000062a .LASF342
     /tmp/ccyPB5Cy.s:10578  .debug_loc:0000000000000213 .LLST83
     /tmp/ccyPB5Cy.s:12126  .debug_str:0000000000000ab4 .LASF343
     /tmp/ccyPB5Cy.s:10613  .debug_loc:0000000000000281 .LLST84
     /tmp/ccyPB5Cy.s:12246  .debug_str:0000000000000f0b .LASF344
     /tmp/ccyPB5Cy.s:10636  .debug_loc:00000000000002d3 .LLST85
     /tmp/ccyPB5Cy.s:11842  .debug_str:00000000000001f4 .LASF345
     /tmp/ccyPB5Cy.s:10647  .debug_loc:0000000000000309 .LLST86
     /tmp/ccyPB5Cy.s:12270  .debug_str:0000000000000f98 .LASF346
     /tmp/ccyPB5Cy.s:10668  .debug_loc:0000000000000367 .LLST87
     /tmp/ccyPB5Cy.s:12218  .debug_str:0000000000000ddf .LASF347
     /tmp/ccyPB5Cy.s:10684  .debug_loc:00000000000003b1 .LLST88
     /tmp/ccyPB5Cy.s:3462   .text:00000000000010b4 .LVL272
     /tmp/ccyPB5Cy.s:3478   .text:00000000000010d0 .LVL274
     /tmp/ccyPB5Cy.s:3288   .text:0000000000000fb8 .LFB76
     /tmp/ccyPB5Cy.s:3337   .text:0000000000001004 .LFE76
     /tmp/ccyPB5Cy.s:3306   .text:0000000000000fd4 .LBB183
     /tmp/ccyPB5Cy.s:3326   .text:0000000000000ff4 .LBE183
     /tmp/ccyPB5Cy.s:10705  .debug_loc:000000000000040f .LLST78
     /tmp/ccyPB5Cy.s:3303   .text:0000000000000fd4 .LVL252
     /tmp/ccyPB5Cy.s:3769   .text:000000000000132c .LFB75
     /tmp/ccyPB5Cy.s:3897   .text:000000000000146c .LFE75
     /tmp/ccyPB5Cy.s:12376  .debug_str:00000000000012c6 .LASF348
GAS LISTING /tmp/ccyPB5Cy.s 			page 144


     /tmp/ccyPB5Cy.s:10721  .debug_loc:0000000000000459 .LLST97
     /tmp/ccyPB5Cy.s:3865   .text:0000000000001444 .LBB187
     /tmp/ccyPB5Cy.s:3877   .text:000000000000144c .LBE187
     /tmp/ccyPB5Cy.s:10728  .debug_loc:000000000000047c .LLST98
     /tmp/ccyPB5Cy.s:3791   .text:0000000000001354 .LVL300
     /tmp/ccyPB5Cy.s:3814   .text:00000000000013a0 .LVL302
     /tmp/ccyPB5Cy.s:3823   .text:00000000000013c0 .LVL303
     /tmp/ccyPB5Cy.s:3832   .text:00000000000013e0 .LVL304
     /tmp/ccyPB5Cy.s:3841   .text:0000000000001400 .LVL305
     /tmp/ccyPB5Cy.s:3849   .text:0000000000001418 .LVL306
     /tmp/ccyPB5Cy.s:3858   .text:0000000000001438 .LVL307
     /tmp/ccyPB5Cy.s:3863   .text:0000000000001444 .LVL308
     /tmp/ccyPB5Cy.s:3635   .text:00000000000011ec .LFB74
     /tmp/ccyPB5Cy.s:3763   .text:000000000000132c .LFE74
     /tmp/ccyPB5Cy.s:10738  .debug_loc:00000000000004a2 .LLST95
     /tmp/ccyPB5Cy.s:3731   .text:0000000000001304 .LBB185
     /tmp/ccyPB5Cy.s:3743   .text:000000000000130c .LBE185
     /tmp/ccyPB5Cy.s:10745  .debug_loc:00000000000004c5 .LLST96
     /tmp/ccyPB5Cy.s:3657   .text:0000000000001214 .LVL289
     /tmp/ccyPB5Cy.s:3680   .text:0000000000001260 .LVL291
     /tmp/ccyPB5Cy.s:3689   .text:0000000000001280 .LVL292
     /tmp/ccyPB5Cy.s:3698   .text:00000000000012a0 .LVL293
     /tmp/ccyPB5Cy.s:3707   .text:00000000000012c0 .LVL294
     /tmp/ccyPB5Cy.s:3715   .text:00000000000012d8 .LVL295
     /tmp/ccyPB5Cy.s:3724   .text:00000000000012f8 .LVL296
     /tmp/ccyPB5Cy.s:3729   .text:0000000000001304 .LVL297
     /tmp/ccyPB5Cy.s:3496   .text:00000000000010e4 .LFB73
     /tmp/ccyPB5Cy.s:3564   .text:0000000000001158 .LFE73
     /tmp/ccyPB5Cy.s:10755  .debug_loc:00000000000004eb .LLST89
     /tmp/ccyPB5Cy.s:12344  .debug_str:00000000000011ca .LASF349
     /tmp/ccyPB5Cy.s:10773  .debug_loc:0000000000000537 .LLST90
     /tmp/ccyPB5Cy.s:10787  .debug_loc:0000000000000570 .LLST91
     /tmp/ccyPB5Cy.s:10805  .debug_loc:00000000000005bc .LLST92
     /tmp/ccyPB5Cy.s:3523   .text:0000000000001114 .LBB184
     /tmp/ccyPB5Cy.s:3541   .text:0000000000001138 .LBE184
     /tmp/ccyPB5Cy.s:10823  .debug_loc:0000000000000608 .LLST93
     /tmp/ccyPB5Cy.s:3532   .text:000000000000112c .LVL277
     /tmp/ccyPB5Cy.s:3141   .text:0000000000000f10 .LFB72
     /tmp/ccyPB5Cy.s:3170   .text:0000000000000f30 .LFE72
     /tmp/ccyPB5Cy.s:3103   .text:0000000000000ef0 .LFB71
     /tmp/ccyPB5Cy.s:3135   .text:0000000000000f10 .LFE71
     /tmp/ccyPB5Cy.s:2995   .text:0000000000000e74 .LFB70
     /tmp/ccyPB5Cy.s:3097   .text:0000000000000ef0 .LFE70
     /tmp/ccyPB5Cy.s:12090  .debug_str:0000000000000982 .LASF350
     /tmp/ccyPB5Cy.s:10830  .debug_loc:000000000000062b .LLST68
     /tmp/ccyPB5Cy.s:12310  .debug_str:00000000000010f1 .LASF351
     /tmp/ccyPB5Cy.s:10856  .debug_loc:000000000000069d .LLST69
     /tmp/ccyPB5Cy.s:10874  .debug_loc:00000000000006e9 .LLST70
     /tmp/ccyPB5Cy.s:11972  .debug_str:00000000000005de .LASF352
     /tmp/ccyPB5Cy.s:10900  .debug_loc:000000000000075b .LLST71
     /tmp/ccyPB5Cy.s:12016  .debug_str:00000000000006f4 .LASF353
     /tmp/ccyPB5Cy.s:10926  .debug_loc:00000000000007cd .LLST72
     /tmp/ccyPB5Cy.s:11918  .debug_str:000000000000040c .LASF354
     /tmp/ccyPB5Cy.s:10944  .debug_loc:0000000000000819 .LLST73
     /tmp/ccyPB5Cy.s:12526  .debug_str:000000000000186f .LASF355
     /tmp/ccyPB5Cy.s:10970  .debug_loc:000000000000088b .LLST74
     /tmp/ccyPB5Cy.s:3028   .text:0000000000000eac .LVL235
GAS LISTING /tmp/ccyPB5Cy.s 			page 145


     /tmp/ccyPB5Cy.s:1986   .text:00000000000009e8 .LFB69
     /tmp/ccyPB5Cy.s:2019   .text:0000000000000a14 .LFE69
     /tmp/ccyPB5Cy.s:10991  .debug_loc:00000000000008e9 .LLST51
     /tmp/ccyPB5Cy.s:1957   .text:00000000000009e8 .LFE68
     /tmp/ccyPB5Cy.s:11004  .debug_loc:0000000000000921 .LLST47
     /tmp/ccyPB5Cy.s:11914  .debug_str:00000000000003f9 .LASF356
     /tmp/ccyPB5Cy.s:11023  .debug_loc:000000000000097d .LLST48
     /tmp/ccyPB5Cy.s:11034  .debug_loc:00000000000009b3 .LLST49
     /tmp/ccyPB5Cy.s:1803   .text:000000000000090c .LBB115
     /tmp/ccyPB5Cy.s:1906   .text:00000000000009a0 .LBE115
     /tmp/ccyPB5Cy.s:11904  .debug_str:0000000000000395 .LASF357
     /tmp/ccyPB5Cy.s:11051  .debug_loc:00000000000009fe .LLST50
     /tmp/ccyPB5Cy.s:1902   .text:00000000000009a0 .LVL144
     /tmp/ccyPB5Cy.s:1768   .text:00000000000008b8 .LVL137
     /tmp/ccyPB5Cy.s:1780   .text:00000000000008dc .LVL140
     /tmp/ccyPB5Cy.s:1785   .text:00000000000008e8 .LVL141
     /tmp/ccyPB5Cy.s:1796   .text:0000000000000908 .LVL142
     /tmp/ccyPB5Cy.s:1918   .text:00000000000009ac .LVL145
     /tmp/ccyPB5Cy.s:1950   .text:00000000000009dc .LVL151
     /tmp/ccyPB5Cy.s:1954   .text:00000000000009e8 .LVL152
     /tmp/ccyPB5Cy.s:1675   .text:0000000000000838 .LFB67
     /tmp/ccyPB5Cy.s:1740   .text:0000000000000894 .LFE67
     /tmp/ccyPB5Cy.s:12250  .debug_str:0000000000000f1a .LASF358
     /tmp/ccyPB5Cy.s:11058  .debug_loc:0000000000000a21 .LLST44
     /tmp/ccyPB5Cy.s:11069  .debug_loc:0000000000000a57 .LLST45
     /tmp/ccyPB5Cy.s:1713   .text:0000000000000864 .LVL132
     /tmp/ccyPB5Cy.s:1734   .text:0000000000000884 .LVL135
     /tmp/ccyPB5Cy.s:1737   .text:0000000000000890 .LVL136
     /tmp/ccyPB5Cy.s:1599   .text:00000000000007d0 .LFB66
     /tmp/ccyPB5Cy.s:1669   .text:0000000000000838 .LFE66
     /tmp/ccyPB5Cy.s:11078  .debug_loc:0000000000000a7c .LLST41
     /tmp/ccyPB5Cy.s:11089  .debug_loc:0000000000000ab2 .LLST42
     /tmp/ccyPB5Cy.s:1637   .text:00000000000007fc .LVL124
     /tmp/ccyPB5Cy.s:1658   .text:000000000000081c .LVL127
     /tmp/ccyPB5Cy.s:1663   .text:0000000000000828 .LVL128
     /tmp/ccyPB5Cy.s:1666   .text:0000000000000834 .LVL129
     /tmp/ccyPB5Cy.s:376    .text:00000000000001dc .LFB65
     /tmp/ccyPB5Cy.s:422    .text:0000000000000214 .LFE65
     /tmp/ccyPB5Cy.s:253    .text:0000000000000128 .LFB64
     /tmp/ccyPB5Cy.s:370    .text:00000000000001dc .LFE64
     /tmp/ccyPB5Cy.s:277    .text:000000000000015c .LBB99
     /tmp/ccyPB5Cy.s:11748  .debug_ranges:0000000000000000 .Ldebug_ranges0
     /tmp/ccyPB5Cy.s:286    .text:000000000000015c .LBB101
     /tmp/ccyPB5Cy.s:300    .text:0000000000000164 .LBE101
     /tmp/ccyPB5Cy.s:287    .text:000000000000015c .LBB102
     /tmp/ccyPB5Cy.s:299    .text:0000000000000164 .LBE102
     /tmp/ccyPB5Cy.s:11098  .debug_loc:0000000000000ad7 .LLST4
     /tmp/ccyPB5Cy.s:307    .text:0000000000000164 .LBB104
     /tmp/ccyPB5Cy.s:322    .text:000000000000016c .LBE104
     /tmp/ccyPB5Cy.s:308    .text:0000000000000164 .LBB105
     /tmp/ccyPB5Cy.s:321    .text:000000000000016c .LBE105
     /tmp/ccyPB5Cy.s:11106  .debug_loc:0000000000000afb .LLST5
     /tmp/ccyPB5Cy.s:344    .text:00000000000001a4 .LVL14
     /tmp/ccyPB5Cy.s:356    .text:00000000000001c8 .LVL15
     /tmp/ccyPB5Cy.s:186    .text:00000000000000e4 .LFB63
     /tmp/ccyPB5Cy.s:247    .text:0000000000000128 .LFE63
     /tmp/ccyPB5Cy.s:205    .text:0000000000000108 .LBB95
GAS LISTING /tmp/ccyPB5Cy.s 			page 146


     /tmp/ccyPB5Cy.s:219    .text:0000000000000110 .LBE95
     /tmp/ccyPB5Cy.s:11115  .debug_loc:0000000000000b21 .LLST3
     /tmp/ccyPB5Cy.s:232    .text:000000000000011c .LBB97
     /tmp/ccyPB5Cy.s:245    .text:0000000000000128 .LBE97
     /tmp/ccyPB5Cy.s:1557   .text:000000000000079c .LFB62
     /tmp/ccyPB5Cy.s:1593   .text:00000000000007d0 .LFE62
     /tmp/ccyPB5Cy.s:11124  .debug_loc:0000000000000b47 .LLST40
     /tmp/ccyPB5Cy.s:1571   .text:00000000000007b4 .LVL120
     /tmp/ccyPB5Cy.s:1582   .text:00000000000007c0 .LVL121
     /tmp/ccyPB5Cy.s:3176   .text:0000000000000f30 .LFB61
     /tmp/ccyPB5Cy.s:3282   .text:0000000000000fb8 .LFE61
     /tmp/ccyPB5Cy.s:11131  .debug_loc:0000000000000b6a .LLST75
     /tmp/ccyPB5Cy.s:11145  .debug_loc:0000000000000ba3 .LLST76
     /tmp/ccyPB5Cy.s:3232   .text:0000000000000f6c .LBB180
     /tmp/ccyPB5Cy.s:3278   .text:0000000000000fb8 .LBE180
     /tmp/ccyPB5Cy.s:12214  .debug_str:0000000000000dca .LASF359
     /tmp/ccyPB5Cy.s:11152  .debug_loc:0000000000000bc6 .LLST77
     /tmp/ccyPB5Cy.s:3236   .text:0000000000000f74 .LVL249
     /tmp/ccyPB5Cy.s:3196   .text:0000000000000f4c .LVL245
     /tmp/ccyPB5Cy.s:133    .text:0000000000000094 .LFB60
     /tmp/ccyPB5Cy.s:180    .text:00000000000000e4 .LFE60
     /tmp/ccyPB5Cy.s:11159  .debug_loc:0000000000000be9 .LLST2
     /tmp/ccyPB5Cy.s:169    .text:00000000000000d4 .LVL7
     /tmp/ccyPB5Cy.s:1466   .text:0000000000000704 .LFB59
     /tmp/ccyPB5Cy.s:1551   .text:000000000000079c .LFE59
     /tmp/ccyPB5Cy.s:11166  .debug_loc:0000000000000c0c .LLST39
     /tmp/ccyPB5Cy.s:1494   .text:0000000000000740 .LVL110
     /tmp/ccyPB5Cy.s:1515   .text:0000000000000760 .LVL113
     /tmp/ccyPB5Cy.s:1536   .text:0000000000000780 .LVL116
     /tmp/ccyPB5Cy.s:1541   .text:000000000000078c .LVL117
     /tmp/ccyPB5Cy.s:1548   .text:0000000000000798 .LVL119
     /tmp/ccyPB5Cy.s:1386   .text:000000000000068c .LFB58
     /tmp/ccyPB5Cy.s:1460   .text:0000000000000704 .LFE58
     /tmp/ccyPB5Cy.s:11910  .debug_str:00000000000003e8 .LASF360
     /tmp/ccyPB5Cy.s:11181  .debug_loc:0000000000000c55 .LLST38
     /tmp/ccyPB5Cy.s:1425   .text:00000000000006d0 .LVL106
     /tmp/ccyPB5Cy.s:1433   .text:00000000000006e0 .LVL107
     /tmp/ccyPB5Cy.s:1446   .text:00000000000006f0 .LVL108
     /tmp/ccyPB5Cy.s:1321   .text:0000000000000644 .LFB57
     /tmp/ccyPB5Cy.s:1380   .text:000000000000068c .LFE57
     /tmp/ccyPB5Cy.s:11188  .debug_loc:0000000000000c78 .LLST36
     /tmp/ccyPB5Cy.s:11199  .debug_loc:0000000000000cae .LLST37
     /tmp/ccyPB5Cy.s:1358   .text:000000000000066c .LVL102
     /tmp/ccyPB5Cy.s:1375   .text:0000000000000684 .LVL104
     /tmp/ccyPB5Cy.s:1244   .text:00000000000005e4 .LFB56
     /tmp/ccyPB5Cy.s:1315   .text:0000000000000644 .LFE56
     /tmp/ccyPB5Cy.s:11216  .debug_loc:0000000000000cf9 .LLST34
     /tmp/ccyPB5Cy.s:11227  .debug_loc:0000000000000d2f .LLST35
     /tmp/ccyPB5Cy.s:1290   .text:0000000000000620 .LVL96
     /tmp/ccyPB5Cy.s:1307   .text:0000000000000638 .LVL98
     /tmp/ccyPB5Cy.s:1169   .text:0000000000000584 .LFB55
     /tmp/ccyPB5Cy.s:1238   .text:00000000000005e4 .LFE55
     /tmp/ccyPB5Cy.s:11244  .debug_loc:0000000000000d7a .LLST31
     /tmp/ccyPB5Cy.s:11255  .debug_loc:0000000000000db0 .LLST33
     /tmp/ccyPB5Cy.s:1209   .text:00000000000005b0 .LVL88
     /tmp/ccyPB5Cy.s:1230   .text:00000000000005d0 .LVL91
     /tmp/ccyPB5Cy.s:1233   .text:00000000000005dc .LVL92
GAS LISTING /tmp/ccyPB5Cy.s 			page 147


     /tmp/ccyPB5Cy.s:1144   .text:0000000000000584 .LFE54
     /tmp/ccyPB5Cy.s:11272  .debug_loc:0000000000000dfb .LLST27
     /tmp/ccyPB5Cy.s:12174  .debug_str:0000000000000c3e .LASF361
     /tmp/ccyPB5Cy.s:11283  .debug_loc:0000000000000e31 .LLST28
     /tmp/ccyPB5Cy.s:11294  .debug_loc:0000000000000e67 .LLST29
     /tmp/ccyPB5Cy.s:11305  .debug_loc:0000000000000e9d .LLST30
     /tmp/ccyPB5Cy.s:1073   .text:0000000000000518 .LVL74
     /tmp/ccyPB5Cy.s:1081   .text:000000000000052c .LVL75
     /tmp/ccyPB5Cy.s:1104   .text:0000000000000544 .LVL77
     /tmp/ccyPB5Cy.s:1137   .text:0000000000000578 .LVL84
     /tmp/ccyPB5Cy.s:1141   .text:0000000000000584 .LVL85
     /tmp/ccyPB5Cy.s:93     .text:0000000000000058 .LFB53
     /tmp/ccyPB5Cy.s:127    .text:0000000000000094 .LFE53
     /tmp/ccyPB5Cy.s:11322  .debug_loc:0000000000000ee8 .LLST1
     /tmp/ccyPB5Cy.s:116    .text:0000000000000084 .LVL5
     /tmp/ccyPB5Cy.s:961    .text:0000000000000490 .LFB52
     /tmp/ccyPB5Cy.s:1028   .text:00000000000004e8 .LFE52
     /tmp/ccyPB5Cy.s:11329  .debug_loc:0000000000000f0b .LLST25
     /tmp/ccyPB5Cy.s:981    .text:00000000000004b0 .LBB112
     /tmp/ccyPB5Cy.s:992    .text:00000000000004c0 .LBE112
     /tmp/ccyPB5Cy.s:11346  .debug_loc:0000000000000f56 .LLST26
     /tmp/ccyPB5Cy.s:991    .text:00000000000004c0 .LVL68
     /tmp/ccyPB5Cy.s:1008   .text:00000000000004d0 .LVL70
     /tmp/ccyPB5Cy.s:887    .text:0000000000000438 .LFB51
     /tmp/ccyPB5Cy.s:955    .text:0000000000000490 .LFE51
     /tmp/ccyPB5Cy.s:11353  .debug_loc:0000000000000f79 .LLST22
     /tmp/ccyPB5Cy.s:11364  .debug_loc:0000000000000faf .LLST24
     /tmp/ccyPB5Cy.s:925    .text:0000000000000460 .LVL62
     /tmp/ccyPB5Cy.s:946    .text:0000000000000480 .LVL64
     /tmp/ccyPB5Cy.s:950    .text:0000000000000488 .LVL65
     /tmp/ccyPB5Cy.s:862    .text:0000000000000438 .LFE50
     /tmp/ccyPB5Cy.s:11381  .debug_loc:0000000000000ffa .LLST16
     /tmp/ccyPB5Cy.s:12054  .debug_str:0000000000000852 .LASF362
     /tmp/ccyPB5Cy.s:11392  .debug_loc:0000000000001030 .LLST17
     /tmp/ccyPB5Cy.s:11403  .debug_loc:0000000000001066 .LLST18
     /tmp/ccyPB5Cy.s:11414  .debug_loc:000000000000109c .LLST19
     /tmp/ccyPB5Cy.s:11425  .debug_loc:00000000000010d2 .LLST20
     /tmp/ccyPB5Cy.s:11436  .debug_loc:0000000000001108 .LLST21
     /tmp/ccyPB5Cy.s:776    .text:00000000000003b0 .LVL46
     /tmp/ccyPB5Cy.s:787    .text:00000000000003d0 .LVL47
     /tmp/ccyPB5Cy.s:816    .text:00000000000003f0 .LVL49
     /tmp/ccyPB5Cy.s:855    .text:000000000000042c .LVL58
     /tmp/ccyPB5Cy.s:859    .text:0000000000000438 .LVL59
     /tmp/ccyPB5Cy.s:691    .text:0000000000000370 .LFE49
     /tmp/ccyPB5Cy.s:11453  .debug_loc:0000000000001153 .LLST10
     /tmp/ccyPB5Cy.s:11464  .debug_loc:0000000000001189 .LLST11
     /tmp/ccyPB5Cy.s:11475  .debug_loc:00000000000011bf .LLST12
     /tmp/ccyPB5Cy.s:11486  .debug_loc:00000000000011f5 .LLST13
     /tmp/ccyPB5Cy.s:11497  .debug_loc:000000000000122b .LLST14
     /tmp/ccyPB5Cy.s:11508  .debug_loc:0000000000001261 .LLST15
     /tmp/ccyPB5Cy.s:598    .text:00000000000002dc .LVL27
     /tmp/ccyPB5Cy.s:609    .text:00000000000002fc .LVL28
     /tmp/ccyPB5Cy.s:625    .text:0000000000000314 .LVL29
     /tmp/ccyPB5Cy.s:645    .text:0000000000000328 .LVL31
     /tmp/ccyPB5Cy.s:684    .text:0000000000000364 .LVL40
     /tmp/ccyPB5Cy.s:688    .text:0000000000000370 .LVL41
     /tmp/ccyPB5Cy.s:479    .text:000000000000024c .LFB48
GAS LISTING /tmp/ccyPB5Cy.s 			page 148


     /tmp/ccyPB5Cy.s:537    .text:000000000000029c .LFE48
     /tmp/ccyPB5Cy.s:11525  .debug_loc:00000000000012ac .LLST8
     /tmp/ccyPB5Cy.s:11532  .debug_loc:00000000000012cf .LLST9
     /tmp/ccyPB5Cy.s:509    .text:000000000000027c .LVL20
     /tmp/ccyPB5Cy.s:533    .text:0000000000000298 .LVL22
     /tmp/ccyPB5Cy.s:428    .text:0000000000000214 .LFB47
     /tmp/ccyPB5Cy.s:473    .text:000000000000024c .LFE47
     /tmp/ccyPB5Cy.s:11543  .debug_loc:0000000000001305 .LLST6
     /tmp/ccyPB5Cy.s:11550  .debug_loc:0000000000001328 .LLST7
     /tmp/ccyPB5Cy.s:451    .text:0000000000000230 .LVL17
     /tmp/ccyPB5Cy.s:462    .text:000000000000023c .LVL18
     /tmp/ccyPB5Cy.s:2048   .text:0000000000000a14 .LFB46
     /tmp/ccyPB5Cy.s:2989   .text:0000000000000e74 .LFE46
     /tmp/ccyPB5Cy.s:12516  .debug_str:0000000000001836 .LASF363
     /tmp/ccyPB5Cy.s:11557  .debug_loc:000000000000134b .LLST52
     /tmp/ccyPB5Cy.s:12234  .debug_str:0000000000000e77 .LASF364
     /tmp/ccyPB5Cy.s:11936  .debug_str:0000000000000482 .LASF365
     /tmp/ccyPB5Cy.s:11568  .debug_loc:0000000000001381 .LLST65
     /tmp/ccyPB5Cy.s:2251   .text:0000000000000b64 .LBB164
     /tmp/ccyPB5Cy.s:2264   .text:0000000000000b68 .LBE164
     /tmp/ccyPB5Cy.s:2268   .text:0000000000000b6c .LBB166
     /tmp/ccyPB5Cy.s:2281   .text:0000000000000b70 .LBE166
     /tmp/ccyPB5Cy.s:2433   .text:0000000000000bd4 .LBB168
     /tmp/ccyPB5Cy.s:2444   .text:0000000000000bd8 .LBE168
     /tmp/ccyPB5Cy.s:11575  .debug_loc:00000000000013a4 .LLST66
     /tmp/ccyPB5Cy.s:2449   .text:0000000000000bdc .LBB170
     /tmp/ccyPB5Cy.s:2461   .text:0000000000000be0 .LBE170
     /tmp/ccyPB5Cy.s:11582  .debug_loc:00000000000013c7 .LLST67
     /tmp/ccyPB5Cy.s:2424   .text:0000000000000bc4 .LVL172
     /tmp/ccyPB5Cy.s:2490   .text:0000000000000c04 .LVL180
     /tmp/ccyPB5Cy.s:2498   .text:0000000000000c10 .LVL181
     /tmp/ccyPB5Cy.s:2506   .text:0000000000000c1c .LVL182
     /tmp/ccyPB5Cy.s:2514   .text:0000000000000c28 .LVL183
     /tmp/ccyPB5Cy.s:2522   .text:0000000000000c34 .LVL184
     /tmp/ccyPB5Cy.s:2530   .text:0000000000000c40 .LVL185
     /tmp/ccyPB5Cy.s:2538   .text:0000000000000c4c .LVL186
     /tmp/ccyPB5Cy.s:2546   .text:0000000000000c58 .LVL187
     /tmp/ccyPB5Cy.s:2554   .text:0000000000000c64 .LVL188
     /tmp/ccyPB5Cy.s:2562   .text:0000000000000c70 .LVL189
     /tmp/ccyPB5Cy.s:2570   .text:0000000000000c7c .LVL190
     /tmp/ccyPB5Cy.s:2578   .text:0000000000000c88 .LVL191
     /tmp/ccyPB5Cy.s:2586   .text:0000000000000c94 .LVL192
     /tmp/ccyPB5Cy.s:2594   .text:0000000000000ca0 .LVL193
     /tmp/ccyPB5Cy.s:2602   .text:0000000000000cac .LVL194
     /tmp/ccyPB5Cy.s:2610   .text:0000000000000cb8 .LVL195
     /tmp/ccyPB5Cy.s:2627   .text:0000000000000cd4 .LVL196
     /tmp/ccyPB5Cy.s:2631   .text:0000000000000cdc .LVL197
     /tmp/ccyPB5Cy.s:2637   .text:0000000000000ce0 .LBB146
     /tmp/ccyPB5Cy.s:2768   .text:0000000000000d70 .LBE146
     /tmp/ccyPB5Cy.s:2749   .text:0000000000000d50 .LBB154
     /tmp/ccyPB5Cy.s:2764   .text:0000000000000d6c .LBE154
     /tmp/ccyPB5Cy.s:11589  .debug_loc:00000000000013ea .LLST62
     /tmp/ccyPB5Cy.s:2763   .text:0000000000000d6c .LVL208
     /tmp/ccyPB5Cy.s:2639   .text:0000000000000ce0 .LBB147
     /tmp/ccyPB5Cy.s:2652   .text:0000000000000ce4 .LBE147
     /tmp/ccyPB5Cy.s:2656   .text:0000000000000ce8 .LBB149
     /tmp/ccyPB5Cy.s:2669   .text:0000000000000cec .LBE149
GAS LISTING /tmp/ccyPB5Cy.s 			page 149


     /tmp/ccyPB5Cy.s:2674   .text:0000000000000cf0 .LBB151
     /tmp/ccyPB5Cy.s:2686   .text:0000000000000cf8 .LBE151
     /tmp/ccyPB5Cy.s:11596  .debug_loc:000000000000140d .LLST61
     /tmp/ccyPB5Cy.s:2717   .text:0000000000000d40 .LBB155
     /tmp/ccyPB5Cy.s:2728   .text:0000000000000d44 .LBE155
     /tmp/ccyPB5Cy.s:11604  .debug_loc:0000000000001431 .LLST63
     /tmp/ccyPB5Cy.s:2733   .text:0000000000000d48 .LBB157
     /tmp/ccyPB5Cy.s:2747   .text:0000000000000d50 .LBE157
     /tmp/ccyPB5Cy.s:11611  .debug_loc:0000000000001454 .LLST64
     /tmp/ccyPB5Cy.s:2696   .text:0000000000000d14 .LVL202
     /tmp/ccyPB5Cy.s:2770   .text:0000000000000d70 .LBB131
     /tmp/ccyPB5Cy.s:2930   .text:0000000000000e0c .LBE131
     /tmp/ccyPB5Cy.s:11618  .debug_loc:0000000000001477 .LLST56
     /tmp/ccyPB5Cy.s:11625  .debug_loc:000000000000149a .LLST57
     /tmp/ccyPB5Cy.s:11632  .debug_loc:00000000000014bd .LLST58
     /tmp/ccyPB5Cy.s:2924   .text:0000000000000e08 .LVL224
     /tmp/ccyPB5Cy.s:2772   .text:0000000000000d70 .LBB132
     /tmp/ccyPB5Cy.s:2785   .text:0000000000000d74 .LBE132
     /tmp/ccyPB5Cy.s:2789   .text:0000000000000d78 .LBB134
     /tmp/ccyPB5Cy.s:2802   .text:0000000000000d7c .LBE134
     /tmp/ccyPB5Cy.s:2883   .text:0000000000000de0 .LBB139
     /tmp/ccyPB5Cy.s:2894   .text:0000000000000de4 .LBE139
     /tmp/ccyPB5Cy.s:11643  .debug_loc:00000000000014f3 .LLST59
     /tmp/ccyPB5Cy.s:2899   .text:0000000000000de8 .LBB141
     /tmp/ccyPB5Cy.s:2913   .text:0000000000000df0 .LBE141
     /tmp/ccyPB5Cy.s:11650  .debug_loc:0000000000001516 .LLST60
     /tmp/ccyPB5Cy.s:2876   .text:0000000000000dd4 .LVL218
     /tmp/ccyPB5Cy.s:2878   .text:0000000000000ddc .LVL219
     /tmp/ccyPB5Cy.s:2932   .text:0000000000000e0c .LBB128
     /tmp/ccyPB5Cy.s:2982   .text:0000000000000e70 .LBE128
     /tmp/ccyPB5Cy.s:11657  .debug_loc:0000000000001539 .LLST55
     /tmp/ccyPB5Cy.s:2948   .text:0000000000000e30 .LBB129
     /tmp/ccyPB5Cy.s:2960   .text:0000000000000e34 .LBE129
     /tmp/ccyPB5Cy.s:2946   .text:0000000000000e30 .LVL227
     /tmp/ccyPB5Cy.s:2967   .text:0000000000000e48 .LVL228
     /tmp/ccyPB5Cy.s:2972   .text:0000000000000e58 .LVL229
     /tmp/ccyPB5Cy.s:2977   .text:0000000000000e68 .LVL230
     /tmp/ccyPB5Cy.s:2981   .text:0000000000000e70 .LVL231
     /tmp/ccyPB5Cy.s:2149   .text:0000000000000a9c .LBB123
     /tmp/ccyPB5Cy.s:2245   .text:0000000000000b64 .LBE123
     /tmp/ccyPB5Cy.s:11664  .debug_loc:000000000000155c .LLST53
     /tmp/ccyPB5Cy.s:11671  .debug_loc:000000000000157f .LLST54
     /tmp/ccyPB5Cy.s:2161   .text:0000000000000abc .LBB124
     /tmp/ccyPB5Cy.s:2177   .text:0000000000000ac8 .LBE124
     /tmp/ccyPB5Cy.s:2192   .text:0000000000000aec .LBB126
     /tmp/ccyPB5Cy.s:2204   .text:0000000000000af0 .LBE126
     /tmp/ccyPB5Cy.s:2154   .text:0000000000000aac .LVL156
     /tmp/ccyPB5Cy.s:2159   .text:0000000000000abc .LVL157
     /tmp/ccyPB5Cy.s:2185   .text:0000000000000adc .LVL160
     /tmp/ccyPB5Cy.s:2190   .text:0000000000000aec .LVL161
     /tmp/ccyPB5Cy.s:2211   .text:0000000000000b04 .LVL162
     /tmp/ccyPB5Cy.s:2216   .text:0000000000000b14 .LVL163
     /tmp/ccyPB5Cy.s:2224   .text:0000000000000b34 .LVL164
     /tmp/ccyPB5Cy.s:2238   .text:0000000000000b58 .LVL166
     /tmp/ccyPB5Cy.s:2242   .text:0000000000000b60 .LVL167
     /tmp/ccyPB5Cy.s:2071   .text:0000000000000a2c .LBB117
     /tmp/ccyPB5Cy.s:2086   .text:0000000000000a38 .LBE117
GAS LISTING /tmp/ccyPB5Cy.s 			page 150


     /tmp/ccyPB5Cy.s:2467   .text:0000000000000be8 .LVL177
     /tmp/ccyPB5Cy.s:10     .text:0000000000000000 .LFB45
     /tmp/ccyPB5Cy.s:87     .text:0000000000000058 .LFE45
     /tmp/ccyPB5Cy.s:11678  .debug_loc:00000000000015a2 .LLST0
     /tmp/ccyPB5Cy.s:3903   .text:000000000000146c .LFB44
     /tmp/ccyPB5Cy.s:4057   .text:0000000000001530 .LFE44
     /tmp/ccyPB5Cy.s:3918   .text:0000000000001484 .LBB189
     /tmp/ccyPB5Cy.s:3929   .text:0000000000001488 .LBE189
     /tmp/ccyPB5Cy.s:3978   .text:00000000000014f8 .LBB191
     /tmp/ccyPB5Cy.s:3998   .text:000000000000150c .LBE191
     /tmp/ccyPB5Cy.s:11691  .debug_loc:00000000000015da .LLST99
     /tmp/ccyPB5Cy.s:11703  .debug_loc:0000000000001618 .LLST100
     /tmp/ccyPB5Cy.s:4001   .text:000000000000150c .LBB193
     /tmp/ccyPB5Cy.s:4002   .text:000000000000150c .LBB194
     /tmp/ccyPB5Cy.s:4014   .text:0000000000001514 .LBE194
     /tmp/ccyPB5Cy.s:11710  .debug_loc:000000000000163b .LLST101
     /tmp/ccyPB5Cy.s:4018   .text:0000000000001514 .LBB196
     /tmp/ccyPB5Cy.s:4030   .text:000000000000151c .LBE196
     /tmp/ccyPB5Cy.s:11718  .debug_loc:000000000000165f .LLST102
     /tmp/ccyPB5Cy.s:4034   .text:000000000000151c .LBB198
     /tmp/ccyPB5Cy.s:4045   .text:0000000000001520 .LBE198
     /tmp/ccyPB5Cy.s:11727  .debug_loc:0000000000001685 .LLST103
     /tmp/ccyPB5Cy.s:3940   .text:00000000000014ac .LVL313
     /tmp/ccyPB5Cy.s:3944   .text:00000000000014b4 .LVL314
     /tmp/ccyPB5Cy.s:3948   .text:00000000000014bc .LVL315
     /tmp/ccyPB5Cy.s:3952   .text:00000000000014c4 .LVL316
     /tmp/ccyPB5Cy.s:3956   .text:00000000000014cc .LVL317
     /tmp/ccyPB5Cy.s:3960   .text:00000000000014d4 .LVL318
     /tmp/ccyPB5Cy.s:3964   .text:00000000000014dc .LVL319
     /tmp/ccyPB5Cy.s:3968   .text:00000000000014e4 .LVL320
     /tmp/ccyPB5Cy.s:11788  .debug_str:0000000000000013 .LASF366
     /tmp/ccyPB5Cy.s:12272  .debug_str:0000000000000fa1 .LASF367
     /tmp/ccyPB5Cy.s:11902  .debug_str:0000000000000386 .LASF380
     /tmp/ccyPB5Cy.s:11810  .debug_str:00000000000000cd .LASF381
     /tmp/ccyPB5Cy.s:12518  .debug_str:000000000000183c .LASF368
     /tmp/ccyPB5Cy.s:12478  .debug_str:000000000000166f .LASF369
     /tmp/ccyPB5Cy.s:12092  .debug_str:0000000000000989 .LASF370
     /tmp/ccyPB5Cy.s:12050  .debug_str:0000000000000835 .LASF371
     /tmp/ccyPB5Cy.s:12186  .debug_str:0000000000000cc8 .LASF372
     /tmp/ccyPB5Cy.s:3573   .text:0000000000001158 .LVL283
     /tmp/ccyPB5Cy.s:3624   .text:00000000000011e4 .LVL288
     /tmp/ccyPB5Cy.s:3346   .text:0000000000001004 .LVL256
     /tmp/ccyPB5Cy.s:3399   .text:0000000000001058 .LVL262
     /tmp/ccyPB5Cy.s:3456   .text:00000000000010ac .LVL271
     /tmp/ccyPB5Cy.s:3402   .text:000000000000105c .LVL263
     /tmp/ccyPB5Cy.s:3433   .text:0000000000001084 .LVL270
     /tmp/ccyPB5Cy.s:3371   .text:0000000000001034 .LVL257
     /tmp/ccyPB5Cy.s:3388   .text:0000000000001048 .LVL260
     /tmp/ccyPB5Cy.s:3378   .text:000000000000103c .LVL258
     /tmp/ccyPB5Cy.s:3407   .text:0000000000001060 .LVL264
     /tmp/ccyPB5Cy.s:3473   .text:00000000000010c8 .LVL273
     /tmp/ccyPB5Cy.s:3384   .text:0000000000001044 .LVL259
     /tmp/ccyPB5Cy.s:3428   .text:000000000000107c .LVL268
     /tmp/ccyPB5Cy.s:3392   .text:0000000000001050 .LVL261
     /tmp/ccyPB5Cy.s:3411   .text:0000000000001068 .LVL265
     /tmp/ccyPB5Cy.s:3418   .text:0000000000001070 .LVL266
     /tmp/ccyPB5Cy.s:3421   .text:0000000000001074 .LVL267
GAS LISTING /tmp/ccyPB5Cy.s 			page 151


     /tmp/ccyPB5Cy.s:3430   .text:0000000000001080 .LVL269
     /tmp/ccyPB5Cy.s:3309   .text:0000000000000fd8 .LVL253
     /tmp/ccyPB5Cy.s:3322   .text:0000000000000ff0 .LVL254
     /tmp/ccyPB5Cy.s:3324   .text:0000000000000ff4 .LVL255
     /tmp/ccyPB5Cy.s:3805   .text:0000000000001380 .LVL301
     /tmp/ccyPB5Cy.s:3888   .text:000000000000145c .LVL310
     /tmp/ccyPB5Cy.s:3874   .text:000000000000144c .LVL309
     /tmp/ccyPB5Cy.s:3671   .text:0000000000001240 .LVL290
     /tmp/ccyPB5Cy.s:3754   .text:000000000000131c .LVL299
     /tmp/ccyPB5Cy.s:3740   .text:000000000000130c .LVL298
     /tmp/ccyPB5Cy.s:3499   .text:00000000000010e4 .LVL275
     /tmp/ccyPB5Cy.s:3521   .text:0000000000001114 .LVL276
     /tmp/ccyPB5Cy.s:3559   .text:0000000000001150 .LVL282
     /tmp/ccyPB5Cy.s:3553   .text:0000000000001148 .LVL280
     /tmp/ccyPB5Cy.s:3556   .text:000000000000114c .LVL281
     /tmp/ccyPB5Cy.s:3550   .text:0000000000001144 .LVL279
     /tmp/ccyPB5Cy.s:2998   .text:0000000000000e74 .LVL232
     /tmp/ccyPB5Cy.s:3026   .text:0000000000000ea4 .LVL234
     /tmp/ccyPB5Cy.s:3036   .text:0000000000000eb8 .LVL236
     /tmp/ccyPB5Cy.s:3040   .text:0000000000000ebc .LVL237
     /tmp/ccyPB5Cy.s:3089   .text:0000000000000ee4 .LVL240
     /tmp/ccyPB5Cy.s:3086   .text:0000000000000ee0 .LVL239
     /tmp/ccyPB5Cy.s:3092   .text:0000000000000ee8 .LVL241
     /tmp/ccyPB5Cy.s:3017   .text:0000000000000e9c .LVL233
     /tmp/ccyPB5Cy.s:2002   .text:00000000000009f8 .LVL153
     /tmp/ccyPB5Cy.s:2007   .text:00000000000009fc .LVL154
     /tmp/ccyPB5Cy.s:1770   .text:00000000000008bc .LVL138
     /tmp/ccyPB5Cy.s:1778   .text:00000000000008d4 .LVL139
     /tmp/ccyPB5Cy.s:1834   .text:0000000000000958 .LVL143
     /tmp/ccyPB5Cy.s:1934   .text:00000000000009c4 .LVL147
     /tmp/ccyPB5Cy.s:1945   .text:00000000000009d0 .LVL150
     /tmp/ccyPB5Cy.s:1940   .text:00000000000009c8 .LVL148
     /tmp/ccyPB5Cy.s:1928   .text:00000000000009b8 .LVL146
     /tmp/ccyPB5Cy.s:1942   .text:00000000000009cc .LVL149
     /tmp/ccyPB5Cy.s:1695   .text:0000000000000850 .LVL130
     /tmp/ccyPB5Cy.s:1723   .text:0000000000000870 .LVL133
     /tmp/ccyPB5Cy.s:1727   .text:0000000000000878 .LVL134
     /tmp/ccyPB5Cy.s:1701   .text:0000000000000854 .LVL131
     /tmp/ccyPB5Cy.s:1619   .text:00000000000007e8 .LVL122
     /tmp/ccyPB5Cy.s:1647   .text:0000000000000808 .LVL125
     /tmp/ccyPB5Cy.s:1651   .text:0000000000000810 .LVL126
     /tmp/ccyPB5Cy.s:1625   .text:00000000000007ec .LVL123
     /tmp/ccyPB5Cy.s:283    .text:000000000000015c .LVL11
     /tmp/ccyPB5Cy.s:296    .text:0000000000000164 .LVL12
     /tmp/ccyPB5Cy.s:317    .text:000000000000016c .LVL13
     /tmp/ccyPB5Cy.s:204    .text:0000000000000108 .LVL8
     /tmp/ccyPB5Cy.s:215    .text:0000000000000110 .LVL9
     /tmp/ccyPB5Cy.s:3179   .text:0000000000000f30 .LVL243
     /tmp/ccyPB5Cy.s:3189   .text:0000000000000f44 .LVL244
     /tmp/ccyPB5Cy.s:3206   .text:0000000000000f58 .LVL246
     /tmp/ccyPB5Cy.s:3229   .text:0000000000000f68 .LVL248
     /tmp/ccyPB5Cy.s:3243   .text:0000000000000f84 .LVL250
     /tmp/ccyPB5Cy.s:3254   .text:0000000000000f8c .LVL251
     /tmp/ccyPB5Cy.s:163    .text:00000000000000c8 .LVL6
     /tmp/ccyPB5Cy.s:1496   .text:0000000000000744 .LVL111
     /tmp/ccyPB5Cy.s:1503   .text:0000000000000754 .LVL112
     /tmp/ccyPB5Cy.s:1528   .text:0000000000000774 .LVL114
GAS LISTING /tmp/ccyPB5Cy.s 			page 152


     /tmp/ccyPB5Cy.s:1534   .text:0000000000000778 .LVL115
     /tmp/ccyPB5Cy.s:1543   .text:0000000000000790 .LVL118
     /tmp/ccyPB5Cy.s:1411   .text:00000000000006b0 .LVL105
     /tmp/ccyPB5Cy.s:1455   .text:00000000000006fc .LVL109
     /tmp/ccyPB5Cy.s:1339   .text:0000000000000658 .LVL100
     /tmp/ccyPB5Cy.s:1346   .text:0000000000000660 .LVL101
     /tmp/ccyPB5Cy.s:1369   .text:000000000000067c .LVL103
     /tmp/ccyPB5Cy.s:1262   .text:00000000000005f8 .LVL93
     /tmp/ccyPB5Cy.s:1267   .text:00000000000005fc .LVL94
     /tmp/ccyPB5Cy.s:1301   .text:0000000000000630 .LVL97
     /tmp/ccyPB5Cy.s:1279   .text:0000000000000614 .LVL95
     /tmp/ccyPB5Cy.s:1309   .text:000000000000063c .LVL99
     /tmp/ccyPB5Cy.s:1189   .text:000000000000059c .LVL86
     /tmp/ccyPB5Cy.s:1219   .text:00000000000005bc .LVL89
     /tmp/ccyPB5Cy.s:1223   .text:00000000000005c4 .LVL90
     /tmp/ccyPB5Cy.s:1198   .text:00000000000005a4 .LVL87
     /tmp/ccyPB5Cy.s:1060   .text:0000000000000508 .LVL72
     /tmp/ccyPB5Cy.s:1117   .text:0000000000000554 .LVL79
     /tmp/ccyPB5Cy.s:1124   .text:0000000000000560 .LVL81
     /tmp/ccyPB5Cy.s:1133   .text:000000000000056c .LVL83
     /tmp/ccyPB5Cy.s:1066   .text:000000000000050c .LVL73
     /tmp/ccyPB5Cy.s:1120   .text:0000000000000558 .LVL80
     /tmp/ccyPB5Cy.s:1114   .text:0000000000000550 .LVL78
     /tmp/ccyPB5Cy.s:1130   .text:0000000000000568 .LVL82
     /tmp/ccyPB5Cy.s:1093   .text:0000000000000538 .LVL76
     /tmp/ccyPB5Cy.s:108    .text:0000000000000074 .LVL4
     /tmp/ccyPB5Cy.s:973    .text:00000000000004a0 .LVL66
     /tmp/ccyPB5Cy.s:997    .text:00000000000004c4 .LVL69
     /tmp/ccyPB5Cy.s:1019   .text:00000000000004e0 .LVL71
     /tmp/ccyPB5Cy.s:983    .text:00000000000004b0 .LVL67
     /tmp/ccyPB5Cy.s:905    .text:000000000000044c .LVL60
     /tmp/ccyPB5Cy.s:913    .text:0000000000000454 .LVL61
     /tmp/ccyPB5Cy.s:936    .text:0000000000000470 .LVL63
     /tmp/ccyPB5Cy.s:763    .text:00000000000003a0 .LVL44
     /tmp/ccyPB5Cy.s:832    .text:0000000000000404 .LVL52
     /tmp/ccyPB5Cy.s:842    .text:0000000000000414 .LVL55
     /tmp/ccyPB5Cy.s:769    .text:00000000000003a4 .LVL45
     /tmp/ccyPB5Cy.s:829    .text:0000000000000400 .LVL51
     /tmp/ccyPB5Cy.s:851    .text:0000000000000420 .LVL57
     /tmp/ccyPB5Cy.s:757    .text:000000000000039c .LVL43
     /tmp/ccyPB5Cy.s:835    .text:0000000000000408 .LVL53
     /tmp/ccyPB5Cy.s:751    .text:0000000000000398 .LVL42
     /tmp/ccyPB5Cy.s:838    .text:000000000000040c .LVL54
     /tmp/ccyPB5Cy.s:826    .text:00000000000003fc .LVL50
     /tmp/ccyPB5Cy.s:848    .text:000000000000041c .LVL56
     /tmp/ccyPB5Cy.s:805    .text:00000000000003e4 .LVL48
     /tmp/ccyPB5Cy.s:585    .text:00000000000002cc .LVL25
     /tmp/ccyPB5Cy.s:661    .text:000000000000033c .LVL34
     /tmp/ccyPB5Cy.s:671    .text:000000000000034c .LVL37
     /tmp/ccyPB5Cy.s:591    .text:00000000000002d0 .LVL26
     /tmp/ccyPB5Cy.s:664    .text:0000000000000340 .LVL35
     /tmp/ccyPB5Cy.s:579    .text:00000000000002c8 .LVL24
     /tmp/ccyPB5Cy.s:658    .text:0000000000000338 .LVL33
     /tmp/ccyPB5Cy.s:680    .text:0000000000000358 .LVL39
     /tmp/ccyPB5Cy.s:573    .text:00000000000002c4 .LVL23
     /tmp/ccyPB5Cy.s:667    .text:0000000000000344 .LVL36
     /tmp/ccyPB5Cy.s:655    .text:0000000000000334 .LVL32
GAS LISTING /tmp/ccyPB5Cy.s 			page 153


     /tmp/ccyPB5Cy.s:677    .text:0000000000000354 .LVL38
     /tmp/ccyPB5Cy.s:634    .text:000000000000031c .LVL30
     /tmp/ccyPB5Cy.s:528    .text:0000000000000290 .LVL21
     /tmp/ccyPB5Cy.s:498    .text:0000000000000270 .LVL19
     /tmp/ccyPB5Cy.s:446    .text:0000000000000228 .LVL16
     /tmp/ccyPB5Cy.s:2068   .text:0000000000000a2c .LVL155
     /tmp/ccyPB5Cy.s:2477   .text:0000000000000bf4 .LVL178
     /tmp/ccyPB5Cy.s:2481   .text:0000000000000bfc .LVL179
     /tmp/ccyPB5Cy.s:2304   .text:0000000000000b98 .LVL170
     /tmp/ccyPB5Cy.s:2310   .text:0000000000000ba4 .LVL171
     /tmp/ccyPB5Cy.s:2432   .text:0000000000000bd4 .LVL173
     /tmp/ccyPB5Cy.s:2441   .text:0000000000000bd8 .LVL174
     /tmp/ccyPB5Cy.s:2448   .text:0000000000000bdc .LVL175
     /tmp/ccyPB5Cy.s:2457   .text:0000000000000be0 .LVL176
     /tmp/ccyPB5Cy.s:2755   .text:0000000000000d5c .LVL207
     /tmp/ccyPB5Cy.s:2673   .text:0000000000000cf0 .LVL200
     /tmp/ccyPB5Cy.s:2683   .text:0000000000000cf8 .LVL201
     /tmp/ccyPB5Cy.s:2716   .text:0000000000000d40 .LVL203
     /tmp/ccyPB5Cy.s:2725   .text:0000000000000d44 .LVL204
     /tmp/ccyPB5Cy.s:2732   .text:0000000000000d48 .LVL205
     /tmp/ccyPB5Cy.s:2744   .text:0000000000000d50 .LVL206
     /tmp/ccyPB5Cy.s:2809   .text:0000000000000d8c .LVL211
     /tmp/ccyPB5Cy.s:2832   .text:0000000000000d9c .LVL213
     /tmp/ccyPB5Cy.s:2842   .text:0000000000000dac .LVL214
     /tmp/ccyPB5Cy.s:2865   .text:0000000000000dc4 .LVL216
     /tmp/ccyPB5Cy.s:2861   .text:0000000000000dbc .LVL215
     /tmp/ccyPB5Cy.s:2869   .text:0000000000000dcc .LVL217
     /tmp/ccyPB5Cy.s:2910   .text:0000000000000df0 .LVL223
     /tmp/ccyPB5Cy.s:2882   .text:0000000000000de0 .LVL220
     /tmp/ccyPB5Cy.s:2891   .text:0000000000000de4 .LVL221
     /tmp/ccyPB5Cy.s:2898   .text:0000000000000de8 .LVL222
     /tmp/ccyPB5Cy.s:2937   .text:0000000000000e18 .LVL226
     /tmp/ccyPB5Cy.s:2175   .text:0000000000000ac8 .LVL158
     /tmp/ccyPB5Cy.s:2183   .text:0000000000000ad4 .LVL159
     /tmp/ccyPB5Cy.s:2229   .text:0000000000000b40 .LVL165
     /tmp/ccyPB5Cy.s:21     .text:000000000000000c .LVL0
     /tmp/ccyPB5Cy.s:31     .text:0000000000000024 .LVL1
     /tmp/ccyPB5Cy.s:75     .text:0000000000000050 .LVL3
     /tmp/ccyPB5Cy.s:3977   .text:00000000000014f8 .LVL321
     /tmp/ccyPB5Cy.s:3983   .text:00000000000014fc .LVL322
     /tmp/ccyPB5Cy.s:3995   .text:000000000000150c .LVL324
     /tmp/ccyPB5Cy.s:3988   .text:0000000000001508 .LVL323
     /tmp/ccyPB5Cy.s:4011   .text:0000000000001514 .LVL325
     /tmp/ccyPB5Cy.s:4027   .text:000000000000151c .LVL326
     /tmp/ccyPB5Cy.s:4042   .text:0000000000001520 .LVL327
     /tmp/ccyPB5Cy.s:4102   .debug_info:0000000000000000 .Ldebug_info0
     /tmp/ccyPB5Cy.s:281    .text:000000000000015c .LBE99
     /tmp/ccyPB5Cy.s:284    .text:000000000000015c .LBB109
     /tmp/ccyPB5Cy.s:303    .text:0000000000000164 .LBE109
     /tmp/ccyPB5Cy.s:305    .text:0000000000000164 .LBB110
     /tmp/ccyPB5Cy.s:324    .text:000000000000016c .LBE110
     /tmp/ccyPB5Cy.s:2835   .text:0000000000000da0 .LBB137
     /tmp/ccyPB5Cy.s:2871   .text:0000000000000dcc .LBE137
     /tmp/ccyPB5Cy.s:2915   .text:0000000000000df0 .LBB138
     /tmp/ccyPB5Cy.s:2928   .text:0000000000000e0c .LBE138
     /tmp/ccyPB5Cy.s:2249   .text:0000000000000b64 .LBB163
     /tmp/ccyPB5Cy.s:2462   .text:0000000000000be0 .LBE163
GAS LISTING /tmp/ccyPB5Cy.s 			page 154


     /tmp/ccyPB5Cy.s:2485   .text:0000000000000bfc .LBB172
     /tmp/ccyPB5Cy.s:2635   .text:0000000000000ce0 .LBE172
     /tmp/ccyPB5Cy.s:3191   .text:0000000000000f44 .LBB178
     /tmp/ccyPB5Cy.s:3199   .text:0000000000000f4c .LBE178
     /tmp/ccyPB5Cy.s:3201   .text:0000000000000f4c .LBB182
     /tmp/ccyPB5Cy.s:3280   .text:0000000000000fb8 .LBE182
     /tmp/ccyPB5Cy.s:4015   .text:0000000000001514 .LBE193
     /tmp/ccyPB5Cy.s:4017   .text:0000000000001514 .LBB200
     /tmp/ccyPB5Cy.s:4031   .text:000000000000151c .LBE200
     /tmp/ccyPB5Cy.s:4033   .text:000000000000151c .LBB201
     /tmp/ccyPB5Cy.s:4046   .text:0000000000001520 .LBE201
     /tmp/ccyPB5Cy.s:694    .gcc_except_table:0000000000000000 .LLSDA49
     /tmp/ccyPB5Cy.s:864    .gcc_except_table:0000000000000038 .LLSDA50
     /tmp/ccyPB5Cy.s:1146   .gcc_except_table:0000000000000063 .LLSDA54
     /tmp/ccyPB5Cy.s:1959   .gcc_except_table:000000000000008e .LLSDA68

UNDEFINED SYMBOLS
_ZN3TCB7runningE
_Z11bodyWrapperPFvPvES_
_ZN3TCB8dispatchEv
_ZN11ConsoleUtil11pendingPutcE
_ZN11ConsoleUtil9putOutputEc
_ZN11ConsoleUtil11pendingGetcE
_ZN9Scheduler9readyHeadE
_ZN3TCB10putcThreadE
_ZN9Scheduler3putEP3TCB
_ZN11ConsoleUtil10outputHeadE
_ZN11ConsoleUtil10outputTailE
_ZN15MemoryAllocator7kmallocEm
_ZN15MemoryAllocator11initializedE
_ZN15MemoryAllocator5kfreeEPv
_ZN3TCBnwEm
_ZN3TCBC1EPFvPvES0_Pmm
_ZN3TCBdlEPv
_Unwind_Resume
__gxx_personality_v0
_ZN3SCBnwEm
_ZN3SCBC1Em
_ZN3SCBdlEPv
_ZN3SCBD1Ev
_ZN3SCB4waitEv
_ZN3SCB6signalEv
_ZN9Scheduler5sleepEP3TCB
_ZN11ConsoleUtil8getInputEv
_ZN11ConsoleUtil9getOutputEv
_Z5kfreePKv
_ZN3TCBD1Ev
_ZN15MemoryAllocator6memcpyEPvS0_m
_ZN3TCB9currentPCE
_ZN3TCB9currentSPE
_ZN11ConsoleUtil11printStringEPKc
_ZN11ConsoleUtil8printIntEiii
_ZN11ConsoleUtil5printEPKciS1_i
_ZN9Scheduler5awakeEv
_ZN3TCB16timeSliceCounterE
CONSOLE_STATUS
CONSOLE_TX_DATA
GAS LISTING /tmp/ccyPB5Cy.s 			page 155


plic_claim
plic_complete
_ZN11ConsoleUtil8putInputEc
_ZN11ConsoleUtil15putcUtilSyscallEv
CONSOLE_RX_DATA
_ZN5Buddy5allocEm
_ZN5Buddy16BLOCKS_AVAILABLEE
_ZN5Buddy16BUDDY_START_ADDRE
kernelTextEnd
userTextStart
userDataStart
userDataEnd
HEAP_END_ADDR
_ZN5RiscV14supervisorTrapEv
HEAP_START_ADDR
_Z9kmem_initPvi
_ZN15MemoryAllocator10initializeEv
_ZN9Scheduler10initializeEv
_ZN3TCB10initializeEv
_ZN3SCB10initializeEv
_ZN11ConsoleUtil10initializeEv
