GAS LISTING /tmp/ccv6l6Gj.s 			page 1


   1              		.file	"scb.cpp"
   2              		.option pic
   3              		.option norelax
   4              		.text
   5              	.Ltext0:
   6              		.align	2
   7              		.globl	_ZN3SCB4ctorEPv
   9              	_ZN3SCB4ctorEPv:
  10              	.LFB36:
  11              		.file 1 "src/kernel/scb.cpp"
   1:src/kernel/scb.cpp **** //
   2:src/kernel/scb.cpp **** // Created by os on 5/23/22.
   3:src/kernel/scb.cpp **** //
   4:src/kernel/scb.cpp **** 
   5:src/kernel/scb.cpp **** #include "../../h/scb.hpp"
   6:src/kernel/scb.cpp **** #include "../../h/scheduler.hpp"
   7:src/kernel/scb.cpp **** #include "../../h/memoryAllocator.hpp"
   8:src/kernel/scb.cpp **** #include "../../h/printing.hpp"
   9:src/kernel/scb.cpp **** #include "../../h/consoleUtil.hpp"
  10:src/kernel/scb.cpp **** 
  11:src/kernel/scb.cpp **** kmem_cache_t* SCB::scbCache = nullptr;
  12:src/kernel/scb.cpp **** 
  13:src/kernel/scb.cpp **** void SCB::initialize() {
  14:src/kernel/scb.cpp ****     SCB::scbCache = kmem_cache_create("SCB Cache", sizeof(SCB), SCB::ctor, SCB::dtor);
  15:src/kernel/scb.cpp **** }
  16:src/kernel/scb.cpp **** 
  17:src/kernel/scb.cpp **** SCB::SCB(uint64 init){
  18:src/kernel/scb.cpp ****     val = init;
  19:src/kernel/scb.cpp **** }
  20:src/kernel/scb.cpp **** 
  21:src/kernel/scb.cpp **** //if there are any threads that are still blocked on semaphore when it is being deleted
  22:src/kernel/scb.cpp **** //free those threads and set their semError field to point to this semaphore
  23:src/kernel/scb.cpp **** SCB::~SCB(){
  24:src/kernel/scb.cpp ****     TCB* iter = blockedHead;
  25:src/kernel/scb.cpp ****     while(iter !=nullptr) {
  26:src/kernel/scb.cpp ****         TCB* tmp = iter;
  27:src/kernel/scb.cpp ****         iter = iter->next;
  28:src/kernel/scb.cpp ****         tmp->next = 0;
  29:src/kernel/scb.cpp ****         tmp->semError = this;
  30:src/kernel/scb.cpp ****         Scheduler::put(tmp);
  31:src/kernel/scb.cpp ****     }
  32:src/kernel/scb.cpp **** }
  33:src/kernel/scb.cpp **** 
  34:src/kernel/scb.cpp **** //block a thread by putting running thread at the end of blocked queue
  35:src/kernel/scb.cpp **** void SCB::block() {
  36:src/kernel/scb.cpp ****     blockedTail = (!blockedHead ? blockedHead : blockedTail->next) = TCB::running;
  37:src/kernel/scb.cpp ****     TCB::running->next = nullptr;
  38:src/kernel/scb.cpp ****     TCB::running->status = TCB::BLOCKED;
  39:src/kernel/scb.cpp ****     TCB::dispatch();
  40:src/kernel/scb.cpp **** }
  41:src/kernel/scb.cpp **** 
  42:src/kernel/scb.cpp **** //unblock a thread by fetching first from the blocked queue and putting it in scheduler
  43:src/kernel/scb.cpp **** void SCB::deblock(){
  44:src/kernel/scb.cpp ****     TCB* tcb = blockedHead;
  45:src/kernel/scb.cpp ****     blockedHead = blockedHead->next;
  46:src/kernel/scb.cpp ****     tcb->next = nullptr;
  47:src/kernel/scb.cpp ****     if(tcb) {
GAS LISTING /tmp/ccv6l6Gj.s 			page 2


  48:src/kernel/scb.cpp ****         tcb->status = TCB::READY;
  49:src/kernel/scb.cpp ****         Scheduler::put(tcb);
  50:src/kernel/scb.cpp ****     }
  51:src/kernel/scb.cpp **** }
  52:src/kernel/scb.cpp **** 
  53:src/kernel/scb.cpp **** void SCB::wait() {
  54:src/kernel/scb.cpp ****     TCB::running->semError = nullptr;
  55:src/kernel/scb.cpp ****     if (--val < 0)
  56:src/kernel/scb.cpp ****         block();
  57:src/kernel/scb.cpp **** }
  58:src/kernel/scb.cpp **** 
  59:src/kernel/scb.cpp **** void SCB::signal(){
  60:src/kernel/scb.cpp ****     if(val++<0)
  61:src/kernel/scb.cpp ****         deblock();
  62:src/kernel/scb.cpp **** }
  63:src/kernel/scb.cpp **** 
  64:src/kernel/scb.cpp **** //overload operator new, to not use system call for every kernel object that is being allocated
  65:src/kernel/scb.cpp **** void* SCB::operator new(size_t size){
  66:src/kernel/scb.cpp ****     return kmem_cache_alloc(SCB::scbCache);
  67:src/kernel/scb.cpp **** }
  68:src/kernel/scb.cpp **** 
  69:src/kernel/scb.cpp **** //overload operator delete, to not use system call for every kernel object that is being deallocate
  70:src/kernel/scb.cpp **** void SCB::operator delete(void *addr){
  71:src/kernel/scb.cpp ****     kmem_cache_free(SCB::scbCache, addr);
  72:src/kernel/scb.cpp **** }
  73:src/kernel/scb.cpp **** 
  74:src/kernel/scb.cpp **** //syscall to free space that is taken up by semaphore
  75:src/kernel/scb.cpp **** int SCB::semaphore_free(void *addr) {
  76:src/kernel/scb.cpp ****     uint64 iptr = (uint64)addr;
  77:src/kernel/scb.cpp **** 
  78:src/kernel/scb.cpp ****     asm("mv a1, %[iptr]" : : [iptr] "r" (iptr));  //put address in a1
  79:src/kernel/scb.cpp ****     asm("li a0, 0x52");  //put number of syscall in a0
  80:src/kernel/scb.cpp ****     asm("ecall");
  81:src/kernel/scb.cpp **** 
  82:src/kernel/scb.cpp ****     uint64 status; //return status of mem_free
  83:src/kernel/scb.cpp **** 
  84:src/kernel/scb.cpp ****     asm("mv %[status], a0" : [status] "=r" (status));
  85:src/kernel/scb.cpp ****     return status;
  86:src/kernel/scb.cpp **** }
  87:src/kernel/scb.cpp **** 
  88:src/kernel/scb.cpp **** void SCB::ctor(void* scb){
  12              		.loc 1 88 26
  13              		.cfi_startproc
  14              	.LVL0:
  15 0000 130101FF 		addi	sp,sp,-16
  16              		.cfi_def_cfa_offset 16
  17 0004 23348100 		sd	s0,8(sp)
  18              		.cfi_offset 8, -8
  19 0008 13040101 		addi	s0,sp,16
  20              		.cfi_def_cfa 8, 0
  89:src/kernel/scb.cpp ****     ((SCB*)scb)->blockedHead = nullptr;
  21              		.loc 1 89 5
  22              		.loc 1 89 30 is_stmt 0
  23 000c 23340500 		sd	zero,8(a0)
  90:src/kernel/scb.cpp ****     ((SCB*)scb)->blockedTail = nullptr;
  24              		.loc 1 90 5 is_stmt 1
  25              		.loc 1 90 30 is_stmt 0
GAS LISTING /tmp/ccv6l6Gj.s 			page 3


  26 0010 23380500 		sd	zero,16(a0)
  91:src/kernel/scb.cpp **** }
  27              		.loc 1 91 1
  28 0014 03348100 		ld	s0,8(sp)
  29              		.cfi_restore 8
  30              		.cfi_def_cfa 2, 16
  31 0018 13010101 		addi	sp,sp,16
  32              		.cfi_def_cfa_offset 0
  33 001c 67800000 		jr	ra
  34              		.cfi_endproc
  35              	.LFE36:
  37              		.align	2
  38              		.globl	_ZN3SCB4dtorEPv
  40              	_ZN3SCB4dtorEPv:
  41              	.LFB37:
  92:src/kernel/scb.cpp **** 
  93:src/kernel/scb.cpp **** void SCB::dtor(void* scb){
  42              		.loc 1 93 26 is_stmt 1
  43              		.cfi_startproc
  44              	.LVL1:
  45 0020 130101FF 		addi	sp,sp,-16
  46              		.cfi_def_cfa_offset 16
  47 0024 23348100 		sd	s0,8(sp)
  48              		.cfi_offset 8, -8
  49 0028 13040101 		addi	s0,sp,16
  50              		.cfi_def_cfa 8, 0
  94:src/kernel/scb.cpp ****     ((SCB*)scb)->blockedHead = nullptr;
  51              		.loc 1 94 5
  52              		.loc 1 94 30 is_stmt 0
  53 002c 23340500 		sd	zero,8(a0)
  95:src/kernel/scb.cpp ****     ((SCB*)scb)->blockedTail = nullptr;
  54              		.loc 1 95 5 is_stmt 1
  55              		.loc 1 95 30 is_stmt 0
  56 0030 23380500 		sd	zero,16(a0)
  96:src/kernel/scb.cpp **** }...
  57              		.loc 1 96 1
  58 0034 03348100 		ld	s0,8(sp)
  59              		.cfi_restore 8
  60              		.cfi_def_cfa 2, 16
  61 0038 13010101 		addi	sp,sp,16
  62              		.cfi_def_cfa_offset 0
  63 003c 67800000 		jr	ra
  64              		.cfi_endproc
  65              	.LFE37:
  67              		.section	.rodata.str1.8,"aMS",@progbits,1
  68              		.align	3
  69              	.LC0:
  70 0000 53434220 		.string	"SCB Cache"
  70      43616368 
  70      6500
  71              		.text
  72              		.align	2
  73              		.globl	_ZN3SCB10initializeEv
  75              	_ZN3SCB10initializeEv:
  76              	.LFB22:
  13:src/kernel/scb.cpp **** void SCB::initialize() {
  77              		.loc 1 13 24 is_stmt 1
GAS LISTING /tmp/ccv6l6Gj.s 			page 4


  78              		.cfi_startproc
  79 0040 130101FF 		addi	sp,sp,-16
  80              		.cfi_def_cfa_offset 16
  81 0044 23341100 		sd	ra,8(sp)
  82 0048 23308100 		sd	s0,0(sp)
  83              		.cfi_offset 1, -8
  84              		.cfi_offset 8, -16
  85 004c 13040101 		addi	s0,sp,16
  86              		.cfi_def_cfa 8, 0
  14:src/kernel/scb.cpp ****     SCB::scbCache = kmem_cache_create("SCB Cache", sizeof(SCB), SCB::ctor, SCB::dtor);
  87              		.loc 1 14 5
  14:src/kernel/scb.cpp ****     SCB::scbCache = kmem_cache_create("SCB Cache", sizeof(SCB), SCB::ctor, SCB::dtor);
  88              		.loc 1 14 38 is_stmt 0
  89 0050 97060000 		lla	a3,_ZN3SCB4dtorEPv
  89      93860600 
  90 0058 17060000 		lla	a2,_ZN3SCB4ctorEPv
  90      13060600 
  91 0060 93058001 		li	a1,24
  92 0064 17050000 		lla	a0,.LC0
  92      13050500 
  93 006c 97000000 		call	_Z17kmem_cache_createPKcmPFvPvES3_@plt
  93      E7800000 
  94              	.LVL2:
  14:src/kernel/scb.cpp ****     SCB::scbCache = kmem_cache_create("SCB Cache", sizeof(SCB), SCB::ctor, SCB::dtor);
  95              		.loc 1 14 19
  96 0074 97070000 		sd	a0,.LANCHOR0,a5
  96      23B0A700 
  15:src/kernel/scb.cpp **** }
  97              		.loc 1 15 1
  98 007c 83308100 		ld	ra,8(sp)
  99              		.cfi_restore 1
 100 0080 03340100 		ld	s0,0(sp)
 101              		.cfi_restore 8
 102              		.cfi_def_cfa 2, 16
 103 0084 13010101 		addi	sp,sp,16
 104              		.cfi_def_cfa_offset 0
 105 0088 67800000 		jr	ra
 106              		.cfi_endproc
 107              	.LFE22:
 109              		.align	2
 110              		.globl	_ZN3SCBC2Em
 112              	_ZN3SCBC2Em:
 113              	.LFB24:
  17:src/kernel/scb.cpp **** SCB::SCB(uint64 init){
 114              		.loc 1 17 1 is_stmt 1
 115              		.cfi_startproc
 116              	.LVL3:
 117 008c 130101FF 		addi	sp,sp,-16
 118              		.cfi_def_cfa_offset 16
 119 0090 23348100 		sd	s0,8(sp)
 120              		.cfi_offset 8, -8
 121 0094 13040101 		addi	s0,sp,16
 122              		.cfi_def_cfa 8, 0
 123              	.LBB2:
  18:src/kernel/scb.cpp ****     val = init;
 124              		.loc 1 18 5
  18:src/kernel/scb.cpp ****     val = init;
GAS LISTING /tmp/ccv6l6Gj.s 			page 5


 125              		.loc 1 18 9 is_stmt 0
 126 0098 2320B500 		sw	a1,0(a0)
 127              	.LBE2:
  19:src/kernel/scb.cpp **** }
 128              		.loc 1 19 1
 129 009c 03348100 		ld	s0,8(sp)
 130              		.cfi_restore 8
 131              		.cfi_def_cfa 2, 16
 132 00a0 13010101 		addi	sp,sp,16
 133              		.cfi_def_cfa_offset 0
 134 00a4 67800000 		jr	ra
 135              		.cfi_endproc
 136              	.LFE24:
 138              		.globl	_ZN3SCBC1Em
 139              		.set	_ZN3SCBC1Em,_ZN3SCBC2Em
 140              		.align	2
 141              		.globl	_ZN3SCBD2Ev
 143              	_ZN3SCBD2Ev:
 144              	.LFB27:
  23:src/kernel/scb.cpp **** SCB::~SCB(){
 145              		.loc 1 23 1 is_stmt 1
 146              		.cfi_startproc
 147              		.cfi_personality 0x9b,DW.ref.__gxx_personality_v0
 148              		.cfi_lsda 0x1b,.LLSDA27
 149              	.LVL4:
 150 00a8 130101FE 		addi	sp,sp,-32
 151              		.cfi_def_cfa_offset 32
 152 00ac 233C1100 		sd	ra,24(sp)
 153 00b0 23388100 		sd	s0,16(sp)
 154 00b4 23349100 		sd	s1,8(sp)
 155 00b8 23302101 		sd	s2,0(sp)
 156              		.cfi_offset 1, -8
 157              		.cfi_offset 8, -16
 158              		.cfi_offset 9, -24
 159              		.cfi_offset 18, -32
 160 00bc 13040102 		addi	s0,sp,32
 161              		.cfi_def_cfa 8, 0
 162 00c0 13090500 		mv	s2,a0
 163              	.LBB3:
  24:src/kernel/scb.cpp ****     TCB* iter = blockedHead;
 164              		.loc 1 24 5
  24:src/kernel/scb.cpp ****     TCB* iter = blockedHead;
 165              		.loc 1 24 10 is_stmt 0
 166 00c4 03358500 		ld	a0,8(a0)
 167              	.LVL5:
 168              	.L11:
  25:src/kernel/scb.cpp ****     while(iter !=nullptr) {
 169              		.loc 1 25 5 is_stmt 1
  25:src/kernel/scb.cpp ****     while(iter !=nullptr) {
 170              		.loc 1 25 16
 171 00c8 63000502 		beqz	a0,.L9
 172              	.LBB4:
  26:src/kernel/scb.cpp ****         TCB* tmp = iter;
 173              		.loc 1 26 9
 174              	.LVL6:
  27:src/kernel/scb.cpp ****         iter = iter->next;
 175              		.loc 1 27 9
GAS LISTING /tmp/ccv6l6Gj.s 			page 6


  27:src/kernel/scb.cpp ****         iter = iter->next;
 176              		.loc 1 27 14 is_stmt 0
 177 00cc 83348504 		ld	s1,72(a0)
 178              	.LVL7:
  28:src/kernel/scb.cpp ****         tmp->next = 0;
 179              		.loc 1 28 9 is_stmt 1
  28:src/kernel/scb.cpp ****         tmp->next = 0;
 180              		.loc 1 28 19 is_stmt 0
 181 00d0 23340504 		sd	zero,72(a0)
  29:src/kernel/scb.cpp ****         tmp->semError = this;
 182              		.loc 1 29 9 is_stmt 1
  29:src/kernel/scb.cpp ****         tmp->semError = this;
 183              		.loc 1 29 23 is_stmt 0
 184 00d4 23302507 		sd	s2,96(a0)
  30:src/kernel/scb.cpp ****         Scheduler::put(tmp);
 185              		.loc 1 30 9 is_stmt 1
  30:src/kernel/scb.cpp ****         Scheduler::put(tmp);
 186              		.loc 1 30 23 is_stmt 0
 187 00d8 97000000 		call	_ZN9Scheduler3putEP3TCB@plt
 187      E7800000 
 188              	.LVL8:
  27:src/kernel/scb.cpp ****         iter = iter->next;
 189              		.loc 1 27 14
 190 00e0 13850400 		mv	a0,s1
 191              	.LBE4:
  25:src/kernel/scb.cpp ****     while(iter !=nullptr) {
 192              		.loc 1 25 5
 193 00e4 6FF05FFE 		j	.L11
 194              	.LVL9:
 195              	.L9:
 196              	.LBE3:
  32:src/kernel/scb.cpp **** }
 197              		.loc 1 32 1
 198 00e8 83308101 		ld	ra,24(sp)
 199              		.cfi_restore 1
 200 00ec 03340101 		ld	s0,16(sp)
 201              		.cfi_restore 8
 202              		.cfi_def_cfa 2, 32
 203 00f0 83348100 		ld	s1,8(sp)
 204              		.cfi_restore 9
 205 00f4 03390100 		ld	s2,0(sp)
 206              		.cfi_restore 18
 207              	.LVL10:
 208 00f8 13010102 		addi	sp,sp,32
 209              		.cfi_def_cfa_offset 0
 210 00fc 67800000 		jr	ra
 211              		.cfi_endproc
 212              	.LFE27:
 213              		.globl	__gxx_personality_v0
 214              		.section	.gcc_except_table,"a",@progbits
 215              	.LLSDA27:
 216 0000 FF       		.byte	0xff
 217 0001 FF       		.byte	0xff
 218 0002 03       		.byte	0x3
 219 0003 00       		.byte	0
 220              		.text
 222              		.globl	_ZN3SCBD1Ev
GAS LISTING /tmp/ccv6l6Gj.s 			page 7


 223              		.set	_ZN3SCBD1Ev,_ZN3SCBD2Ev
 224              		.align	2
 225              		.globl	_ZN3SCB5blockEv
 227              	_ZN3SCB5blockEv:
 228              	.LFB29:
  35:src/kernel/scb.cpp **** void SCB::block() {
 229              		.loc 1 35 19 is_stmt 1
 230              		.cfi_startproc
 231              	.LVL11:
 232 0100 130101FF 		addi	sp,sp,-16
 233              		.cfi_def_cfa_offset 16
 234 0104 23341100 		sd	ra,8(sp)
 235 0108 23308100 		sd	s0,0(sp)
 236              		.cfi_offset 1, -8
 237              		.cfi_offset 8, -16
 238 010c 13040101 		addi	s0,sp,16
 239              		.cfi_def_cfa 8, 0
  36:src/kernel/scb.cpp ****     blockedTail = (!blockedHead ? blockedHead : blockedTail->next) = TCB::running;
 240              		.loc 1 36 5
  36:src/kernel/scb.cpp ****     blockedTail = (!blockedHead ? blockedHead : blockedTail->next) = TCB::running;
 241              		.loc 1 36 21 is_stmt 0
 242 0110 83378500 		ld	a5,8(a0)
  36:src/kernel/scb.cpp ****     blockedTail = (!blockedHead ? blockedHead : blockedTail->next) = TCB::running;
 243              		.loc 1 36 68
 244 0114 63800704 		beqz	a5,.L17
  36:src/kernel/scb.cpp ****     blockedTail = (!blockedHead ? blockedHead : blockedTail->next) = TCB::running;
 245              		.loc 1 36 49 discriminator 2
 246 0118 03370501 		ld	a4,16(a0)
  36:src/kernel/scb.cpp ****     blockedTail = (!blockedHead ? blockedHead : blockedTail->next) = TCB::running;
 247              		.loc 1 36 68 discriminator 2
 248 011c 97070000 		la	a5,_ZN3TCB7runningE
 248      83B70700 
 249 0124 83B70700 		ld	a5,0(a5)
 250 0128 2334F704 		sd	a5,72(a4)
 251              	.L15:
  36:src/kernel/scb.cpp ****     blockedTail = (!blockedHead ? blockedHead : blockedTail->next) = TCB::running;
 252              		.loc 1 36 17 discriminator 4
 253 012c 2338F500 		sd	a5,16(a0)
  37:src/kernel/scb.cpp ****     TCB::running->next = nullptr;
 254              		.loc 1 37 5 is_stmt 1 discriminator 4
  37:src/kernel/scb.cpp ****     TCB::running->next = nullptr;
 255              		.loc 1 37 24 is_stmt 0 discriminator 4
 256 0130 23B40704 		sd	zero,72(a5)
  38:src/kernel/scb.cpp ****     TCB::running->status = TCB::BLOCKED;
 257              		.loc 1 38 5 is_stmt 1 discriminator 4
  38:src/kernel/scb.cpp ****     TCB::running->status = TCB::BLOCKED;
 258              		.loc 1 38 26 is_stmt 0 discriminator 4
 259 0134 13073000 		li	a4,3
 260 0138 23A8E700 		sw	a4,16(a5)
  39:src/kernel/scb.cpp ****     TCB::dispatch();
 261              		.loc 1 39 5 is_stmt 1 discriminator 4
  39:src/kernel/scb.cpp ****     TCB::dispatch();
 262              		.loc 1 39 18 is_stmt 0 discriminator 4
 263 013c 97000000 		call	_ZN3TCB8dispatchEv@plt
 263      E7800000 
 264              	.LVL12:
  40:src/kernel/scb.cpp **** }
GAS LISTING /tmp/ccv6l6Gj.s 			page 8


 265              		.loc 1 40 1 discriminator 4
 266 0144 83308100 		ld	ra,8(sp)
 267              		.cfi_remember_state
 268              		.cfi_restore 1
 269 0148 03340100 		ld	s0,0(sp)
 270              		.cfi_restore 8
 271              		.cfi_def_cfa 2, 16
 272 014c 13010101 		addi	sp,sp,16
 273              		.cfi_def_cfa_offset 0
 274 0150 67800000 		jr	ra
 275              	.LVL13:
 276              	.L17:
 277              		.cfi_restore_state
  36:src/kernel/scb.cpp ****     blockedTail = (!blockedHead ? blockedHead : blockedTail->next) = TCB::running;
 278              		.loc 1 36 68 discriminator 1
 279 0154 97070000 		la	a5,_ZN3TCB7runningE
 279      83B70700 
 280 015c 83B70700 		ld	a5,0(a5)
 281 0160 2334F500 		sd	a5,8(a0)
 282 0164 6FF09FFC 		j	.L15
 283              		.cfi_endproc
 284              	.LFE29:
 286              		.align	2
 287              		.globl	_ZN3SCB7deblockEv
 289              	_ZN3SCB7deblockEv:
 290              	.LFB30:
  43:src/kernel/scb.cpp **** void SCB::deblock(){
 291              		.loc 1 43 20 is_stmt 1
 292              		.cfi_startproc
 293              	.LVL14:
 294 0168 93070500 		mv	a5,a0
  44:src/kernel/scb.cpp ****     TCB* tcb = blockedHead;
 295              		.loc 1 44 5
  44:src/kernel/scb.cpp ****     TCB* tcb = blockedHead;
 296              		.loc 1 44 10 is_stmt 0
 297 016c 03358500 		ld	a0,8(a0)
 298              	.LVL15:
  45:src/kernel/scb.cpp ****     blockedHead = blockedHead->next;
 299              		.loc 1 45 5 is_stmt 1
  45:src/kernel/scb.cpp ****     blockedHead = blockedHead->next;
 300              		.loc 1 45 32 is_stmt 0
 301 0170 03378504 		ld	a4,72(a0)
  45:src/kernel/scb.cpp ****     blockedHead = blockedHead->next;
 302              		.loc 1 45 17
 303 0174 23B4E700 		sd	a4,8(a5)
  46:src/kernel/scb.cpp ****     tcb->next = nullptr;
 304              		.loc 1 46 5 is_stmt 1
  46:src/kernel/scb.cpp ****     tcb->next = nullptr;
 305              		.loc 1 46 15 is_stmt 0
 306 0178 23340504 		sd	zero,72(a0)
  47:src/kernel/scb.cpp ****     if(tcb) {
 307              		.loc 1 47 5 is_stmt 1
 308 017c 630A0502 		beqz	a0,.L21
  43:src/kernel/scb.cpp **** void SCB::deblock(){
 309              		.loc 1 43 20 is_stmt 0
 310 0180 130101FF 		addi	sp,sp,-16
 311              		.cfi_def_cfa_offset 16
GAS LISTING /tmp/ccv6l6Gj.s 			page 9


 312 0184 23341100 		sd	ra,8(sp)
 313 0188 23308100 		sd	s0,0(sp)
 314              		.cfi_offset 1, -8
 315              		.cfi_offset 8, -16
 316 018c 13040101 		addi	s0,sp,16
 317              		.cfi_def_cfa 8, 0
  48:src/kernel/scb.cpp ****         tcb->status = TCB::READY;
 318              		.loc 1 48 9 is_stmt 1
  48:src/kernel/scb.cpp ****         tcb->status = TCB::READY;
 319              		.loc 1 48 21 is_stmt 0
 320 0190 93071000 		li	a5,1
 321              	.LVL16:
 322 0194 2328F500 		sw	a5,16(a0)
  49:src/kernel/scb.cpp ****         Scheduler::put(tcb);
 323              		.loc 1 49 9 is_stmt 1
  49:src/kernel/scb.cpp ****         Scheduler::put(tcb);
 324              		.loc 1 49 23 is_stmt 0
 325 0198 97000000 		call	_ZN9Scheduler3putEP3TCB@plt
 325      E7800000 
 326              	.LVL17:
  51:src/kernel/scb.cpp **** }
 327              		.loc 1 51 1
 328 01a0 83308100 		ld	ra,8(sp)
 329              		.cfi_restore 1
 330 01a4 03340100 		ld	s0,0(sp)
 331              		.cfi_restore 8
 332              		.cfi_def_cfa 2, 16
 333 01a8 13010101 		addi	sp,sp,16
 334              		.cfi_def_cfa_offset 0
 335 01ac 67800000 		jr	ra
 336              	.LVL18:
 337              	.L21:
 338 01b0 67800000 		ret
 339              		.cfi_endproc
 340              	.LFE30:
 342              		.align	2
 343              		.globl	_ZN3SCB4waitEv
 345              	_ZN3SCB4waitEv:
 346              	.LFB31:
  53:src/kernel/scb.cpp **** void SCB::wait() {
 347              		.loc 1 53 18 is_stmt 1
 348              		.cfi_startproc
 349              	.LVL19:
  54:src/kernel/scb.cpp ****     TCB::running->semError = nullptr;
 350              		.loc 1 54 5
  54:src/kernel/scb.cpp ****     TCB::running->semError = nullptr;
 351              		.loc 1 54 19 is_stmt 0
 352 01b4 97070000 		la	a5,_ZN3TCB7runningE
 352      83B70700 
 353 01bc 83B70700 		ld	a5,0(a5)
  54:src/kernel/scb.cpp ****     TCB::running->semError = nullptr;
 354              		.loc 1 54 28
 355 01c0 23B00706 		sd	zero,96(a5)
  55:src/kernel/scb.cpp ****     if (--val < 0)
 356              		.loc 1 55 5 is_stmt 1
  55:src/kernel/scb.cpp ****     if (--val < 0)
 357              		.loc 1 55 11 is_stmt 0
GAS LISTING /tmp/ccv6l6Gj.s 			page 10


 358 01c4 83270500 		lw	a5,0(a0)
  55:src/kernel/scb.cpp ****     if (--val < 0)
 359              		.loc 1 55 9
 360 01c8 9B87F7FF 		addiw	a5,a5,-1
  55:src/kernel/scb.cpp ****     if (--val < 0)
 361              		.loc 1 55 15
 362 01cc 2320F500 		sw	a5,0(a0)
  55:src/kernel/scb.cpp ****     if (--val < 0)
 363              		.loc 1 55 5
 364 01d0 13970702 		slli	a4,a5,32
 365 01d4 63440700 		bltz	a4,.L30
 366 01d8 67800000 		ret
 367              	.L30:
  53:src/kernel/scb.cpp **** void SCB::wait() {
 368              		.loc 1 53 18
 369 01dc 130101FF 		addi	sp,sp,-16
 370              		.cfi_def_cfa_offset 16
 371 01e0 23341100 		sd	ra,8(sp)
 372 01e4 23308100 		sd	s0,0(sp)
 373              		.cfi_offset 1, -8
 374              		.cfi_offset 8, -16
 375 01e8 13040101 		addi	s0,sp,16
 376              		.cfi_def_cfa 8, 0
  56:src/kernel/scb.cpp ****         block();
 377              		.loc 1 56 9 is_stmt 1
  56:src/kernel/scb.cpp ****         block();
 378              		.loc 1 56 14 is_stmt 0
 379 01ec 97000000 		call	_ZN3SCB5blockEv
 379      E7800000 
 380              	.LVL20:
  57:src/kernel/scb.cpp **** }
 381              		.loc 1 57 1
 382 01f4 83308100 		ld	ra,8(sp)
 383              		.cfi_restore 1
 384 01f8 03340100 		ld	s0,0(sp)
 385              		.cfi_restore 8
 386              		.cfi_def_cfa 2, 16
 387 01fc 13010101 		addi	sp,sp,16
 388              		.cfi_def_cfa_offset 0
 389 0200 67800000 		jr	ra
 390              		.cfi_endproc
 391              	.LFE31:
 393              		.align	2
 394              		.globl	_ZN3SCB6signalEv
 396              	_ZN3SCB6signalEv:
 397              	.LFB32:
  59:src/kernel/scb.cpp **** void SCB::signal(){
 398              		.loc 1 59 19 is_stmt 1
 399              		.cfi_startproc
 400              	.LVL21:
  60:src/kernel/scb.cpp ****     if(val++<0)
 401              		.loc 1 60 5
  60:src/kernel/scb.cpp ****     if(val++<0)
 402              		.loc 1 60 8 is_stmt 0
 403 0204 83270500 		lw	a5,0(a0)
  60:src/kernel/scb.cpp ****     if(val++<0)
 404              		.loc 1 60 11
GAS LISTING /tmp/ccv6l6Gj.s 			page 11


 405 0208 1B871700 		addiw	a4,a5,1
 406 020c 2320E500 		sw	a4,0(a0)
  60:src/kernel/scb.cpp ****     if(val++<0)
 407              		.loc 1 60 5
 408 0210 63C40700 		bltz	a5,.L37
 409 0214 67800000 		ret
 410              	.L37:
  59:src/kernel/scb.cpp **** void SCB::signal(){
 411              		.loc 1 59 19
 412 0218 130101FF 		addi	sp,sp,-16
 413              		.cfi_def_cfa_offset 16
 414 021c 23341100 		sd	ra,8(sp)
 415 0220 23308100 		sd	s0,0(sp)
 416              		.cfi_offset 1, -8
 417              		.cfi_offset 8, -16
 418 0224 13040101 		addi	s0,sp,16
 419              		.cfi_def_cfa 8, 0
  61:src/kernel/scb.cpp ****         deblock();
 420              		.loc 1 61 9 is_stmt 1
  61:src/kernel/scb.cpp ****         deblock();
 421              		.loc 1 61 16 is_stmt 0
 422 0228 97000000 		call	_ZN3SCB7deblockEv
 422      E7800000 
 423              	.LVL22:
  62:src/kernel/scb.cpp **** }
 424              		.loc 1 62 1
 425 0230 83308100 		ld	ra,8(sp)
 426              		.cfi_restore 1
 427 0234 03340100 		ld	s0,0(sp)
 428              		.cfi_restore 8
 429              		.cfi_def_cfa 2, 16
 430 0238 13010101 		addi	sp,sp,16
 431              		.cfi_def_cfa_offset 0
 432 023c 67800000 		jr	ra
 433              		.cfi_endproc
 434              	.LFE32:
 436              		.align	2
 437              		.globl	_ZN3SCBnwEm
 439              	_ZN3SCBnwEm:
 440              	.LFB33:
  65:src/kernel/scb.cpp **** void* SCB::operator new(size_t size){
 441              		.loc 1 65 37 is_stmt 1
 442              		.cfi_startproc
 443              	.LVL23:
 444 0240 130101FF 		addi	sp,sp,-16
 445              		.cfi_def_cfa_offset 16
 446 0244 23341100 		sd	ra,8(sp)
 447 0248 23308100 		sd	s0,0(sp)
 448              		.cfi_offset 1, -8
 449              		.cfi_offset 8, -16
 450 024c 13040101 		addi	s0,sp,16
 451              		.cfi_def_cfa 8, 0
  66:src/kernel/scb.cpp ****     return kmem_cache_alloc(SCB::scbCache);
 452              		.loc 1 66 5
  66:src/kernel/scb.cpp ****     return kmem_cache_alloc(SCB::scbCache);
 453              		.loc 1 66 28 is_stmt 0
 454 0250 17050000 		ld	a0,.LANCHOR0
GAS LISTING /tmp/ccv6l6Gj.s 			page 12


 454      03350500 
 455              	.LVL24:
 456 0258 97000000 		call	_Z16kmem_cache_allocP5Cache@plt
 456      E7800000 
 457              	.LVL25:
  67:src/kernel/scb.cpp **** }
 458              		.loc 1 67 1
 459 0260 83308100 		ld	ra,8(sp)
 460              		.cfi_restore 1
 461 0264 03340100 		ld	s0,0(sp)
 462              		.cfi_restore 8
 463              		.cfi_def_cfa 2, 16
 464 0268 13010101 		addi	sp,sp,16
 465              		.cfi_def_cfa_offset 0
 466 026c 67800000 		jr	ra
 467              		.cfi_endproc
 468              	.LFE33:
 470              		.align	2
 471              		.globl	_ZN3SCBdlEPv
 473              	_ZN3SCBdlEPv:
 474              	.LFB34:
  70:src/kernel/scb.cpp **** void SCB::operator delete(void *addr){
 475              		.loc 1 70 38 is_stmt 1
 476              		.cfi_startproc
 477              	.LVL26:
 478 0270 130101FF 		addi	sp,sp,-16
 479              		.cfi_def_cfa_offset 16
 480 0274 23341100 		sd	ra,8(sp)
 481 0278 23308100 		sd	s0,0(sp)
 482              		.cfi_offset 1, -8
 483              		.cfi_offset 8, -16
 484 027c 13040101 		addi	s0,sp,16
 485              		.cfi_def_cfa 8, 0
 486 0280 93050500 		mv	a1,a0
  71:src/kernel/scb.cpp ****     kmem_cache_free(SCB::scbCache, addr);
 487              		.loc 1 71 5
  71:src/kernel/scb.cpp ****     kmem_cache_free(SCB::scbCache, addr);
 488              		.loc 1 71 20 is_stmt 0
 489 0284 17050000 		ld	a0,.LANCHOR0
 489      03350500 
 490              	.LVL27:
 491 028c 97000000 		call	_Z15kmem_cache_freeP5CachePv@plt
 491      E7800000 
 492              	.LVL28:
  72:src/kernel/scb.cpp **** }
 493              		.loc 1 72 1
 494 0294 83308100 		ld	ra,8(sp)
 495              		.cfi_restore 1
 496 0298 03340100 		ld	s0,0(sp)
 497              		.cfi_restore 8
 498              		.cfi_def_cfa 2, 16
 499 029c 13010101 		addi	sp,sp,16
 500              		.cfi_def_cfa_offset 0
 501 02a0 67800000 		jr	ra
 502              		.cfi_endproc
 503              	.LFE34:
 505              		.align	2
GAS LISTING /tmp/ccv6l6Gj.s 			page 13


 506              		.globl	_ZN3SCB14semaphore_freeEPv
 508              	_ZN3SCB14semaphore_freeEPv:
 509              	.LFB35:
  75:src/kernel/scb.cpp **** int SCB::semaphore_free(void *addr) {
 510              		.loc 1 75 37 is_stmt 1
 511              		.cfi_startproc
 512              	.LVL29:
 513 02a4 130101FF 		addi	sp,sp,-16
 514              		.cfi_def_cfa_offset 16
 515 02a8 23348100 		sd	s0,8(sp)
 516              		.cfi_offset 8, -8
 517 02ac 13040101 		addi	s0,sp,16
 518              		.cfi_def_cfa 8, 0
  76:src/kernel/scb.cpp ****     uint64 iptr = (uint64)addr;
 519              		.loc 1 76 5
 520              	.LVL30:
  78:src/kernel/scb.cpp ****     asm("mv a1, %[iptr]" : : [iptr] "r" (iptr));  //put address in a1
 521              		.loc 1 78 5
  78:src/kernel/scb.cpp ****     asm("mv a1, %[iptr]" : : [iptr] "r" (iptr));  //put address in a1
 522              		.loc 1 78 48 is_stmt 0
 523              	#APP
 524              	# 78 "src/kernel/scb.cpp" 1
  79:src/kernel/scb.cpp ****     asm("li a0, 0x52");  //put number of syscall in a0
 525              		mv a1, a0
 526              	# 0 "" 2
 527              		.loc 1 79 5 is_stmt 1
  79:src/kernel/scb.cpp ****     asm("li a0, 0x52");  //put number of syscall in a0
 528              		.loc 1 79 23 is_stmt 0
 529              	# 79 "src/kernel/scb.cpp" 1
  80:src/kernel/scb.cpp ****     asm("ecall");
 530              		li a0, 0x52
 531              	# 0 "" 2
 532              		.loc 1 80 5 is_stmt 1
  80:src/kernel/scb.cpp ****     asm("ecall");
 533              		.loc 1 80 17 is_stmt 0
 534              	# 80 "src/kernel/scb.cpp" 1
  82:src/kernel/scb.cpp ****     uint64 status; //return status of mem_free
 535              		ecall
 536              	# 0 "" 2
 537              		.loc 1 82 5 is_stmt 1
  84:src/kernel/scb.cpp ****     asm("mv %[status], a0" : [status] "=r" (status));
 538              		.loc 1 84 5
  84:src/kernel/scb.cpp ****     asm("mv %[status], a0" : [status] "=r" (status));
 539              		.loc 1 84 53 is_stmt 0
 540              	# 84 "src/kernel/scb.cpp" 1
 541              		mv a0, a0
 542              	# 0 "" 2
 543              	.LVL31:
  85:src/kernel/scb.cpp ****     return status;
 544              		.loc 1 85 5 is_stmt 1
  86:src/kernel/scb.cpp **** }
 545              		.loc 1 86 1 is_stmt 0
 546              	#NO_APP
 547 02c0 1B050500 		sext.w	a0,a0
 548              	.LVL32:
 549 02c4 03348100 		ld	s0,8(sp)
 550              		.cfi_restore 8
GAS LISTING /tmp/ccv6l6Gj.s 			page 14


 551              		.cfi_def_cfa 2, 16
 552 02c8 13010101 		addi	sp,sp,16
 553              		.cfi_def_cfa_offset 0
 554 02cc 67800000 		jr	ra
 555              		.cfi_endproc
 556              	.LFE35:
 558              		.globl	_ZN3SCB8scbCacheE
 559              		.bss
 560              		.align	3
 561              		.set	.LANCHOR0,. + 0
 564              	_ZN3SCB8scbCacheE:
 565 0000 00000000 		.zero	8
 565      00000000 
 566              		.text
 567              	.Letext0:
 568              		.file 2 "src/kernel/../../h/../lib/hw.h"
 569              		.file 3 "src/kernel/../../h/../h/../h/../h/utility.hpp"
 570              		.file 4 "src/kernel/../../h/scb.hpp"
 571              		.file 5 "src/kernel/../../h/../h/../h/../h/../h/slab_t.hpp"
 572              		.file 6 "src/kernel/../../h/../h/../h/../h/cache_t.hpp"
 573              		.file 7 "src/kernel/../../h/tcb.hpp"
 574              		.file 8 "src/kernel/../../h/scheduler.hpp"
 575              		.file 9 "src/kernel/../../h/../h/slab.hpp"
 3375              		.align	3
 3378              	DW.ref.__gxx_personality_v0:
 3379 0000 00000000 		.dword	__gxx_personality_v0
 3379      00000000 
 3380              		.ident	"GCC: (Ubuntu 9.4.0-1ubuntu1~20.04) 9.4.0"
 3381              		.section	.note.GNU-stack,"",@progbits
GAS LISTING /tmp/ccv6l6Gj.s 			page 15

