GAS LISTING /tmp/ccv6l6Gj.s 			page 1


   1              		.file	"scb.cpp"
   2              		.option pic
   3              		.option norelax
   4              		.text
   5              	.Ltext0:
   6              		.align	2
   7              		.globl	_ZN3SCB4ctorEPv
   9              	_ZN3SCB4ctorEPv:
  10              	.LFB36:
  11              		.file 1 "src/kernel/scb.cpp"
   1:src/kernel/scb.cpp **** //
   2:src/kernel/scb.cpp **** // Created by os on 5/23/22.
   3:src/kernel/scb.cpp **** //
   4:src/kernel/scb.cpp **** 
   5:src/kernel/scb.cpp **** #include "../../h/scb.hpp"
   6:src/kernel/scb.cpp **** #include "../../h/scheduler.hpp"
   7:src/kernel/scb.cpp **** #include "../../h/memoryAllocator.hpp"
   8:src/kernel/scb.cpp **** #include "../../h/printing.hpp"
   9:src/kernel/scb.cpp **** #include "../../h/consoleUtil.hpp"
  10:src/kernel/scb.cpp **** 
  11:src/kernel/scb.cpp **** kmem_cache_t* SCB::scbCache = nullptr;
  12:src/kernel/scb.cpp **** 
  13:src/kernel/scb.cpp **** void SCB::initialize() {
  14:src/kernel/scb.cpp ****     SCB::scbCache = kmem_cache_create("SCB Cache", sizeof(SCB), SCB::ctor, SCB::dtor);
  15:src/kernel/scb.cpp **** }
  16:src/kernel/scb.cpp **** 
  17:src/kernel/scb.cpp **** SCB::SCB(uint64 init){
  18:src/kernel/scb.cpp ****     val = init;
  19:src/kernel/scb.cpp **** }
  20:src/kernel/scb.cpp **** 
  21:src/kernel/scb.cpp **** //if there are any threads that are still blocked on semaphore when it is being deleted
  22:src/kernel/scb.cpp **** //free those threads and set their semError field to point to this semaphore
  23:src/kernel/scb.cpp **** SCB::~SCB(){
  24:src/kernel/scb.cpp ****     TCB* iter = blockedHead;
  25:src/kernel/scb.cpp ****     while(iter !=nullptr) {
  26:src/kernel/scb.cpp ****         TCB* tmp = iter;
  27:src/kernel/scb.cpp ****         iter = iter->next;
  28:src/kernel/scb.cpp ****         tmp->next = 0;
  29:src/kernel/scb.cpp ****         tmp->semError = this;
  30:src/kernel/scb.cpp ****         Scheduler::put(tmp);
  31:src/kernel/scb.cpp ****     }
  32:src/kernel/scb.cpp **** }
  33:src/kernel/scb.cpp **** 
  34:src/kernel/scb.cpp **** //block a thread by putting running thread at the end of blocked queue
  35:src/kernel/scb.cpp **** void SCB::block() {
  36:src/kernel/scb.cpp ****     blockedTail = (!blockedHead ? blockedHead : blockedTail->next) = TCB::running;
  37:src/kernel/scb.cpp ****     TCB::running->next = nullptr;
  38:src/kernel/scb.cpp ****     TCB::running->status = TCB::BLOCKED;
  39:src/kernel/scb.cpp ****     TCB::dispatch();
  40:src/kernel/scb.cpp **** }
  41:src/kernel/scb.cpp **** 
  42:src/kernel/scb.cpp **** //unblock a thread by fetching first from the blocked queue and putting it in scheduler
  43:src/kernel/scb.cpp **** void SCB::deblock(){
  44:src/kernel/scb.cpp ****     TCB* tcb = blockedHead;
  45:src/kernel/scb.cpp ****     blockedHead = blockedHead->next;
  46:src/kernel/scb.cpp ****     tcb->next = nullptr;
  47:src/kernel/scb.cpp ****     if(tcb) {
GAS LISTING /tmp/ccv6l6Gj.s 			page 2


  48:src/kernel/scb.cpp ****         tcb->status = TCB::READY;
  49:src/kernel/scb.cpp ****         Scheduler::put(tcb);
  50:src/kernel/scb.cpp ****     }
  51:src/kernel/scb.cpp **** }
  52:src/kernel/scb.cpp **** 
  53:src/kernel/scb.cpp **** void SCB::wait() {
  54:src/kernel/scb.cpp ****     TCB::running->semError = nullptr;
  55:src/kernel/scb.cpp ****     if (--val < 0)
  56:src/kernel/scb.cpp ****         block();
  57:src/kernel/scb.cpp **** }
  58:src/kernel/scb.cpp **** 
  59:src/kernel/scb.cpp **** void SCB::signal(){
  60:src/kernel/scb.cpp ****     if(val++<0)
  61:src/kernel/scb.cpp ****         deblock();
  62:src/kernel/scb.cpp **** }
  63:src/kernel/scb.cpp **** 
  64:src/kernel/scb.cpp **** //overload operator new, to not use system call for every kernel object that is being allocated
  65:src/kernel/scb.cpp **** void* SCB::operator new(size_t size){
  66:src/kernel/scb.cpp ****     return kmem_cache_alloc(SCB::scbCache);
  67:src/kernel/scb.cpp **** }
  68:src/kernel/scb.cpp **** 
  69:src/kernel/scb.cpp **** //overload operator delete, to not use system call for every kernel object that is being deallocate
  70:src/kernel/scb.cpp **** void SCB::operator delete(void *addr){
  71:src/kernel/scb.cpp ****     kmem_cache_free(SCB::scbCache, addr);
  72:src/kernel/scb.cpp **** }
  73:src/kernel/scb.cpp **** 
  74:src/kernel/scb.cpp **** //syscall to free space that is taken up by semaphore
  75:src/kernel/scb.cpp **** int SCB::semaphore_free(void *addr) {
  76:src/kernel/scb.cpp ****     uint64 iptr = (uint64)addr;
  77:src/kernel/scb.cpp **** 
  78:src/kernel/scb.cpp ****     asm("mv a1, %[iptr]" : : [iptr] "r" (iptr));  //put address in a1
  79:src/kernel/scb.cpp ****     asm("li a0, 0x52");  //put number of syscall in a0
  80:src/kernel/scb.cpp ****     asm("ecall");
  81:src/kernel/scb.cpp **** 
  82:src/kernel/scb.cpp ****     uint64 status; //return status of mem_free
  83:src/kernel/scb.cpp **** 
  84:src/kernel/scb.cpp ****     asm("mv %[status], a0" : [status] "=r" (status));
  85:src/kernel/scb.cpp ****     return status;
  86:src/kernel/scb.cpp **** }
  87:src/kernel/scb.cpp **** 
  88:src/kernel/scb.cpp **** void SCB::ctor(void* scb){
  12              		.loc 1 88 26
  13              		.cfi_startproc
  14              	.LVL0:
  15 0000 130101FF 		addi	sp,sp,-16
  16              		.cfi_def_cfa_offset 16
  17 0004 23348100 		sd	s0,8(sp)
  18              		.cfi_offset 8, -8
  19 0008 13040101 		addi	s0,sp,16
  20              		.cfi_def_cfa 8, 0
  89:src/kernel/scb.cpp ****     ((SCB*)scb)->blockedHead = nullptr;
  21              		.loc 1 89 5
  22              		.loc 1 89 30 is_stmt 0
  23 000c 23340500 		sd	zero,8(a0)
  90:src/kernel/scb.cpp ****     ((SCB*)scb)->blockedTail = nullptr;
  24              		.loc 1 90 5 is_stmt 1
  25              		.loc 1 90 30 is_stmt 0
GAS LISTING /tmp/ccv6l6Gj.s 			page 3


  26 0010 23380500 		sd	zero,16(a0)
  91:src/kernel/scb.cpp **** }
  27              		.loc 1 91 1
  28 0014 03348100 		ld	s0,8(sp)
  29              		.cfi_restore 8
  30              		.cfi_def_cfa 2, 16
  31 0018 13010101 		addi	sp,sp,16
  32              		.cfi_def_cfa_offset 0
  33 001c 67800000 		jr	ra
  34              		.cfi_endproc
  35              	.LFE36:
  37              		.align	2
  38              		.globl	_ZN3SCB4dtorEPv
  40              	_ZN3SCB4dtorEPv:
  41              	.LFB37:
  92:src/kernel/scb.cpp **** 
  93:src/kernel/scb.cpp **** void SCB::dtor(void* scb){
  42              		.loc 1 93 26 is_stmt 1
  43              		.cfi_startproc
  44              	.LVL1:
  45 0020 130101FF 		addi	sp,sp,-16
  46              		.cfi_def_cfa_offset 16
  47 0024 23348100 		sd	s0,8(sp)
  48              		.cfi_offset 8, -8
  49 0028 13040101 		addi	s0,sp,16
  50              		.cfi_def_cfa 8, 0
  94:src/kernel/scb.cpp ****     ((SCB*)scb)->blockedHead = nullptr;
  51              		.loc 1 94 5
  52              		.loc 1 94 30 is_stmt 0
  53 002c 23340500 		sd	zero,8(a0)
  95:src/kernel/scb.cpp ****     ((SCB*)scb)->blockedTail = nullptr;
  54              		.loc 1 95 5 is_stmt 1
  55              		.loc 1 95 30 is_stmt 0
  56 0030 23380500 		sd	zero,16(a0)
  96:src/kernel/scb.cpp **** }...
  57              		.loc 1 96 1
  58 0034 03348100 		ld	s0,8(sp)
  59              		.cfi_restore 8
  60              		.cfi_def_cfa 2, 16
  61 0038 13010101 		addi	sp,sp,16
  62              		.cfi_def_cfa_offset 0
  63 003c 67800000 		jr	ra
  64              		.cfi_endproc
  65              	.LFE37:
  67              		.section	.rodata.str1.8,"aMS",@progbits,1
  68              		.align	3
  69              	.LC0:
  70 0000 53434220 		.string	"SCB Cache"
  70      43616368 
  70      6500
  71              		.text
  72              		.align	2
  73              		.globl	_ZN3SCB10initializeEv
  75              	_ZN3SCB10initializeEv:
  76              	.LFB22:
  13:src/kernel/scb.cpp **** void SCB::initialize() {
  77              		.loc 1 13 24 is_stmt 1
GAS LISTING /tmp/ccv6l6Gj.s 			page 4


  78              		.cfi_startproc
  79 0040 130101FF 		addi	sp,sp,-16
  80              		.cfi_def_cfa_offset 16
  81 0044 23341100 		sd	ra,8(sp)
  82 0048 23308100 		sd	s0,0(sp)
  83              		.cfi_offset 1, -8
  84              		.cfi_offset 8, -16
  85 004c 13040101 		addi	s0,sp,16
  86              		.cfi_def_cfa 8, 0
  14:src/kernel/scb.cpp ****     SCB::scbCache = kmem_cache_create("SCB Cache", sizeof(SCB), SCB::ctor, SCB::dtor);
  87              		.loc 1 14 5
  14:src/kernel/scb.cpp ****     SCB::scbCache = kmem_cache_create("SCB Cache", sizeof(SCB), SCB::ctor, SCB::dtor);
  88              		.loc 1 14 38 is_stmt 0
  89 0050 97060000 		lla	a3,_ZN3SCB4dtorEPv
  89      93860600 
  90 0058 17060000 		lla	a2,_ZN3SCB4ctorEPv
  90      13060600 
  91 0060 93058001 		li	a1,24
  92 0064 17050000 		lla	a0,.LC0
  92      13050500 
  93 006c 97000000 		call	_Z17kmem_cache_createPKcmPFvPvES3_@plt
  93      E7800000 
  94              	.LVL2:
  14:src/kernel/scb.cpp ****     SCB::scbCache = kmem_cache_create("SCB Cache", sizeof(SCB), SCB::ctor, SCB::dtor);
  95              		.loc 1 14 19
  96 0074 97070000 		sd	a0,.LANCHOR0,a5
  96      23B0A700 
  15:src/kernel/scb.cpp **** }
  97              		.loc 1 15 1
  98 007c 83308100 		ld	ra,8(sp)
  99              		.cfi_restore 1
 100 0080 03340100 		ld	s0,0(sp)
 101              		.cfi_restore 8
 102              		.cfi_def_cfa 2, 16
 103 0084 13010101 		addi	sp,sp,16
 104              		.cfi_def_cfa_offset 0
 105 0088 67800000 		jr	ra
 106              		.cfi_endproc
 107              	.LFE22:
 109              		.align	2
 110              		.globl	_ZN3SCBC2Em
 112              	_ZN3SCBC2Em:
 113              	.LFB24:
  17:src/kernel/scb.cpp **** SCB::SCB(uint64 init){
 114              		.loc 1 17 1 is_stmt 1
 115              		.cfi_startproc
 116              	.LVL3:
 117 008c 130101FF 		addi	sp,sp,-16
 118              		.cfi_def_cfa_offset 16
 119 0090 23348100 		sd	s0,8(sp)
 120              		.cfi_offset 8, -8
 121 0094 13040101 		addi	s0,sp,16
 122              		.cfi_def_cfa 8, 0
 123              	.LBB2:
  18:src/kernel/scb.cpp ****     val = init;
 124              		.loc 1 18 5
  18:src/kernel/scb.cpp ****     val = init;
GAS LISTING /tmp/ccv6l6Gj.s 			page 5


 125              		.loc 1 18 9 is_stmt 0
 126 0098 2320B500 		sw	a1,0(a0)
 127              	.LBE2:
  19:src/kernel/scb.cpp **** }
 128              		.loc 1 19 1
 129 009c 03348100 		ld	s0,8(sp)
 130              		.cfi_restore 8
 131              		.cfi_def_cfa 2, 16
 132 00a0 13010101 		addi	sp,sp,16
 133              		.cfi_def_cfa_offset 0
 134 00a4 67800000 		jr	ra
 135              		.cfi_endproc
 136              	.LFE24:
 138              		.globl	_ZN3SCBC1Em
 139              		.set	_ZN3SCBC1Em,_ZN3SCBC2Em
 140              		.align	2
 141              		.globl	_ZN3SCBD2Ev
 143              	_ZN3SCBD2Ev:
 144              	.LFB27:
  23:src/kernel/scb.cpp **** SCB::~SCB(){
 145              		.loc 1 23 1 is_stmt 1
 146              		.cfi_startproc
 147              		.cfi_personality 0x9b,DW.ref.__gxx_personality_v0
 148              		.cfi_lsda 0x1b,.LLSDA27
 149              	.LVL4:
 150 00a8 130101FE 		addi	sp,sp,-32
 151              		.cfi_def_cfa_offset 32
 152 00ac 233C1100 		sd	ra,24(sp)
 153 00b0 23388100 		sd	s0,16(sp)
 154 00b4 23349100 		sd	s1,8(sp)
 155 00b8 23302101 		sd	s2,0(sp)
 156              		.cfi_offset 1, -8
 157              		.cfi_offset 8, -16
 158              		.cfi_offset 9, -24
 159              		.cfi_offset 18, -32
 160 00bc 13040102 		addi	s0,sp,32
 161              		.cfi_def_cfa 8, 0
 162 00c0 13090500 		mv	s2,a0
 163              	.LBB3:
  24:src/kernel/scb.cpp ****     TCB* iter = blockedHead;
 164              		.loc 1 24 5
  24:src/kernel/scb.cpp ****     TCB* iter = blockedHead;
 165              		.loc 1 24 10 is_stmt 0
 166 00c4 03358500 		ld	a0,8(a0)
 167              	.LVL5:
 168              	.L11:
  25:src/kernel/scb.cpp ****     while(iter !=nullptr) {
 169              		.loc 1 25 5 is_stmt 1
  25:src/kernel/scb.cpp ****     while(iter !=nullptr) {
 170              		.loc 1 25 16
 171 00c8 63000502 		beqz	a0,.L9
 172              	.LBB4:
  26:src/kernel/scb.cpp ****         TCB* tmp = iter;
 173              		.loc 1 26 9
 174              	.LVL6:
  27:src/kernel/scb.cpp ****         iter = iter->next;
 175              		.loc 1 27 9
GAS LISTING /tmp/ccv6l6Gj.s 			page 6


  27:src/kernel/scb.cpp ****         iter = iter->next;
 176              		.loc 1 27 14 is_stmt 0
 177 00cc 83348504 		ld	s1,72(a0)
 178              	.LVL7:
  28:src/kernel/scb.cpp ****         tmp->next = 0;
 179              		.loc 1 28 9 is_stmt 1
  28:src/kernel/scb.cpp ****         tmp->next = 0;
 180              		.loc 1 28 19 is_stmt 0
 181 00d0 23340504 		sd	zero,72(a0)
  29:src/kernel/scb.cpp ****         tmp->semError = this;
 182              		.loc 1 29 9 is_stmt 1
  29:src/kernel/scb.cpp ****         tmp->semError = this;
 183              		.loc 1 29 23 is_stmt 0
 184 00d4 23302507 		sd	s2,96(a0)
  30:src/kernel/scb.cpp ****         Scheduler::put(tmp);
 185              		.loc 1 30 9 is_stmt 1
  30:src/kernel/scb.cpp ****         Scheduler::put(tmp);
 186              		.loc 1 30 23 is_stmt 0
 187 00d8 97000000 		call	_ZN9Scheduler3putEP3TCB@plt
 187      E7800000 
 188              	.LVL8:
  27:src/kernel/scb.cpp ****         iter = iter->next;
 189              		.loc 1 27 14
 190 00e0 13850400 		mv	a0,s1
 191              	.LBE4:
  25:src/kernel/scb.cpp ****     while(iter !=nullptr) {
 192              		.loc 1 25 5
 193 00e4 6FF05FFE 		j	.L11
 194              	.LVL9:
 195              	.L9:
 196              	.LBE3:
  32:src/kernel/scb.cpp **** }
 197              		.loc 1 32 1
 198 00e8 83308101 		ld	ra,24(sp)
 199              		.cfi_restore 1
 200 00ec 03340101 		ld	s0,16(sp)
 201              		.cfi_restore 8
 202              		.cfi_def_cfa 2, 32
 203 00f0 83348100 		ld	s1,8(sp)
 204              		.cfi_restore 9
 205 00f4 03390100 		ld	s2,0(sp)
 206              		.cfi_restore 18
 207              	.LVL10:
 208 00f8 13010102 		addi	sp,sp,32
 209              		.cfi_def_cfa_offset 0
 210 00fc 67800000 		jr	ra
 211              		.cfi_endproc
 212              	.LFE27:
 213              		.globl	__gxx_personality_v0
 214              		.section	.gcc_except_table,"a",@progbits
 215              	.LLSDA27:
 216 0000 FF       		.byte	0xff
 217 0001 FF       		.byte	0xff
 218 0002 03       		.byte	0x3
 219 0003 00       		.byte	0
 220              		.text
 222              		.globl	_ZN3SCBD1Ev
GAS LISTING /tmp/ccv6l6Gj.s 			page 7


 223              		.set	_ZN3SCBD1Ev,_ZN3SCBD2Ev
 224              		.align	2
 225              		.globl	_ZN3SCB5blockEv
 227              	_ZN3SCB5blockEv:
 228              	.LFB29:
  35:src/kernel/scb.cpp **** void SCB::block() {
 229              		.loc 1 35 19 is_stmt 1
 230              		.cfi_startproc
 231              	.LVL11:
 232 0100 130101FF 		addi	sp,sp,-16
 233              		.cfi_def_cfa_offset 16
 234 0104 23341100 		sd	ra,8(sp)
 235 0108 23308100 		sd	s0,0(sp)
 236              		.cfi_offset 1, -8
 237              		.cfi_offset 8, -16
 238 010c 13040101 		addi	s0,sp,16
 239              		.cfi_def_cfa 8, 0
  36:src/kernel/scb.cpp ****     blockedTail = (!blockedHead ? blockedHead : blockedTail->next) = TCB::running;
 240              		.loc 1 36 5
  36:src/kernel/scb.cpp ****     blockedTail = (!blockedHead ? blockedHead : blockedTail->next) = TCB::running;
 241              		.loc 1 36 21 is_stmt 0
 242 0110 83378500 		ld	a5,8(a0)
  36:src/kernel/scb.cpp ****     blockedTail = (!blockedHead ? blockedHead : blockedTail->next) = TCB::running;
 243              		.loc 1 36 68
 244 0114 63800704 		beqz	a5,.L17
  36:src/kernel/scb.cpp ****     blockedTail = (!blockedHead ? blockedHead : blockedTail->next) = TCB::running;
 245              		.loc 1 36 49 discriminator 2
 246 0118 03370501 		ld	a4,16(a0)
  36:src/kernel/scb.cpp ****     blockedTail = (!blockedHead ? blockedHead : blockedTail->next) = TCB::running;
 247              		.loc 1 36 68 discriminator 2
 248 011c 97070000 		la	a5,_ZN3TCB7runningE
 248      83B70700 
 249 0124 83B70700 		ld	a5,0(a5)
 250 0128 2334F704 		sd	a5,72(a4)
 251              	.L15:
  36:src/kernel/scb.cpp ****     blockedTail = (!blockedHead ? blockedHead : blockedTail->next) = TCB::running;
 252              		.loc 1 36 17 discriminator 4
 253 012c 2338F500 		sd	a5,16(a0)
  37:src/kernel/scb.cpp ****     TCB::running->next = nullptr;
 254              		.loc 1 37 5 is_stmt 1 discriminator 4
  37:src/kernel/scb.cpp ****     TCB::running->next = nullptr;
 255              		.loc 1 37 24 is_stmt 0 discriminator 4
 256 0130 23B40704 		sd	zero,72(a5)
  38:src/kernel/scb.cpp ****     TCB::running->status = TCB::BLOCKED;
 257              		.loc 1 38 5 is_stmt 1 discriminator 4
  38:src/kernel/scb.cpp ****     TCB::running->status = TCB::BLOCKED;
 258              		.loc 1 38 26 is_stmt 0 discriminator 4
 259 0134 13073000 		li	a4,3
 260 0138 23A8E700 		sw	a4,16(a5)
  39:src/kernel/scb.cpp ****     TCB::dispatch();
 261              		.loc 1 39 5 is_stmt 1 discriminator 4
  39:src/kernel/scb.cpp ****     TCB::dispatch();
 262              		.loc 1 39 18 is_stmt 0 discriminator 4
 263 013c 97000000 		call	_ZN3TCB8dispatchEv@plt
 263      E7800000 
 264              	.LVL12:
  40:src/kernel/scb.cpp **** }
GAS LISTING /tmp/ccv6l6Gj.s 			page 8


 265              		.loc 1 40 1 discriminator 4
 266 0144 83308100 		ld	ra,8(sp)
 267              		.cfi_remember_state
 268              		.cfi_restore 1
 269 0148 03340100 		ld	s0,0(sp)
 270              		.cfi_restore 8
 271              		.cfi_def_cfa 2, 16
 272 014c 13010101 		addi	sp,sp,16
 273              		.cfi_def_cfa_offset 0
 274 0150 67800000 		jr	ra
 275              	.LVL13:
 276              	.L17:
 277              		.cfi_restore_state
  36:src/kernel/scb.cpp ****     blockedTail = (!blockedHead ? blockedHead : blockedTail->next) = TCB::running;
 278              		.loc 1 36 68 discriminator 1
 279 0154 97070000 		la	a5,_ZN3TCB7runningE
 279      83B70700 
 280 015c 83B70700 		ld	a5,0(a5)
 281 0160 2334F500 		sd	a5,8(a0)
 282 0164 6FF09FFC 		j	.L15
 283              		.cfi_endproc
 284              	.LFE29:
 286              		.align	2
 287              		.globl	_ZN3SCB7deblockEv
 289              	_ZN3SCB7deblockEv:
 290              	.LFB30:
  43:src/kernel/scb.cpp **** void SCB::deblock(){
 291              		.loc 1 43 20 is_stmt 1
 292              		.cfi_startproc
 293              	.LVL14:
 294 0168 93070500 		mv	a5,a0
  44:src/kernel/scb.cpp ****     TCB* tcb = blockedHead;
 295              		.loc 1 44 5
  44:src/kernel/scb.cpp ****     TCB* tcb = blockedHead;
 296              		.loc 1 44 10 is_stmt 0
 297 016c 03358500 		ld	a0,8(a0)
 298              	.LVL15:
  45:src/kernel/scb.cpp ****     blockedHead = blockedHead->next;
 299              		.loc 1 45 5 is_stmt 1
  45:src/kernel/scb.cpp ****     blockedHead = blockedHead->next;
 300              		.loc 1 45 32 is_stmt 0
 301 0170 03378504 		ld	a4,72(a0)
  45:src/kernel/scb.cpp ****     blockedHead = blockedHead->next;
 302              		.loc 1 45 17
 303 0174 23B4E700 		sd	a4,8(a5)
  46:src/kernel/scb.cpp ****     tcb->next = nullptr;
 304              		.loc 1 46 5 is_stmt 1
  46:src/kernel/scb.cpp ****     tcb->next = nullptr;
 305              		.loc 1 46 15 is_stmt 0
 306 0178 23340504 		sd	zero,72(a0)
  47:src/kernel/scb.cpp ****     if(tcb) {
 307              		.loc 1 47 5 is_stmt 1
 308 017c 630A0502 		beqz	a0,.L21
  43:src/kernel/scb.cpp **** void SCB::deblock(){
 309              		.loc 1 43 20 is_stmt 0
 310 0180 130101FF 		addi	sp,sp,-16
 311              		.cfi_def_cfa_offset 16
GAS LISTING /tmp/ccv6l6Gj.s 			page 9


 312 0184 23341100 		sd	ra,8(sp)
 313 0188 23308100 		sd	s0,0(sp)
 314              		.cfi_offset 1, -8
 315              		.cfi_offset 8, -16
 316 018c 13040101 		addi	s0,sp,16
 317              		.cfi_def_cfa 8, 0
  48:src/kernel/scb.cpp ****         tcb->status = TCB::READY;
 318              		.loc 1 48 9 is_stmt 1
  48:src/kernel/scb.cpp ****         tcb->status = TCB::READY;
 319              		.loc 1 48 21 is_stmt 0
 320 0190 93071000 		li	a5,1
 321              	.LVL16:
 322 0194 2328F500 		sw	a5,16(a0)
  49:src/kernel/scb.cpp ****         Scheduler::put(tcb);
 323              		.loc 1 49 9 is_stmt 1
  49:src/kernel/scb.cpp ****         Scheduler::put(tcb);
 324              		.loc 1 49 23 is_stmt 0
 325 0198 97000000 		call	_ZN9Scheduler3putEP3TCB@plt
 325      E7800000 
 326              	.LVL17:
  51:src/kernel/scb.cpp **** }
 327              		.loc 1 51 1
 328 01a0 83308100 		ld	ra,8(sp)
 329              		.cfi_restore 1
 330 01a4 03340100 		ld	s0,0(sp)
 331              		.cfi_restore 8
 332              		.cfi_def_cfa 2, 16
 333 01a8 13010101 		addi	sp,sp,16
 334              		.cfi_def_cfa_offset 0
 335 01ac 67800000 		jr	ra
 336              	.LVL18:
 337              	.L21:
 338 01b0 67800000 		ret
 339              		.cfi_endproc
 340              	.LFE30:
 342              		.align	2
 343              		.globl	_ZN3SCB4waitEv
 345              	_ZN3SCB4waitEv:
 346              	.LFB31:
  53:src/kernel/scb.cpp **** void SCB::wait() {
 347              		.loc 1 53 18 is_stmt 1
 348              		.cfi_startproc
 349              	.LVL19:
  54:src/kernel/scb.cpp ****     TCB::running->semError = nullptr;
 350              		.loc 1 54 5
  54:src/kernel/scb.cpp ****     TCB::running->semError = nullptr;
 351              		.loc 1 54 19 is_stmt 0
 352 01b4 97070000 		la	a5,_ZN3TCB7runningE
 352      83B70700 
 353 01bc 83B70700 		ld	a5,0(a5)
  54:src/kernel/scb.cpp ****     TCB::running->semError = nullptr;
 354              		.loc 1 54 28
 355 01c0 23B00706 		sd	zero,96(a5)
  55:src/kernel/scb.cpp ****     if (--val < 0)
 356              		.loc 1 55 5 is_stmt 1
  55:src/kernel/scb.cpp ****     if (--val < 0)
 357              		.loc 1 55 11 is_stmt 0
GAS LISTING /tmp/ccv6l6Gj.s 			page 10


 358 01c4 83270500 		lw	a5,0(a0)
  55:src/kernel/scb.cpp ****     if (--val < 0)
 359              		.loc 1 55 9
 360 01c8 9B87F7FF 		addiw	a5,a5,-1
  55:src/kernel/scb.cpp ****     if (--val < 0)
 361              		.loc 1 55 15
 362 01cc 2320F500 		sw	a5,0(a0)
  55:src/kernel/scb.cpp ****     if (--val < 0)
 363              		.loc 1 55 5
 364 01d0 13970702 		slli	a4,a5,32
 365 01d4 63440700 		bltz	a4,.L30
 366 01d8 67800000 		ret
 367              	.L30:
  53:src/kernel/scb.cpp **** void SCB::wait() {
 368              		.loc 1 53 18
 369 01dc 130101FF 		addi	sp,sp,-16
 370              		.cfi_def_cfa_offset 16
 371 01e0 23341100 		sd	ra,8(sp)
 372 01e4 23308100 		sd	s0,0(sp)
 373              		.cfi_offset 1, -8
 374              		.cfi_offset 8, -16
 375 01e8 13040101 		addi	s0,sp,16
 376              		.cfi_def_cfa 8, 0
  56:src/kernel/scb.cpp ****         block();
 377              		.loc 1 56 9 is_stmt 1
  56:src/kernel/scb.cpp ****         block();
 378              		.loc 1 56 14 is_stmt 0
 379 01ec 97000000 		call	_ZN3SCB5blockEv
 379      E7800000 
 380              	.LVL20:
  57:src/kernel/scb.cpp **** }
 381              		.loc 1 57 1
 382 01f4 83308100 		ld	ra,8(sp)
 383              		.cfi_restore 1
 384 01f8 03340100 		ld	s0,0(sp)
 385              		.cfi_restore 8
 386              		.cfi_def_cfa 2, 16
 387 01fc 13010101 		addi	sp,sp,16
 388              		.cfi_def_cfa_offset 0
 389 0200 67800000 		jr	ra
 390              		.cfi_endproc
 391              	.LFE31:
 393              		.align	2
 394              		.globl	_ZN3SCB6signalEv
 396              	_ZN3SCB6signalEv:
 397              	.LFB32:
  59:src/kernel/scb.cpp **** void SCB::signal(){
 398              		.loc 1 59 19 is_stmt 1
 399              		.cfi_startproc
 400              	.LVL21:
  60:src/kernel/scb.cpp ****     if(val++<0)
 401              		.loc 1 60 5
  60:src/kernel/scb.cpp ****     if(val++<0)
 402              		.loc 1 60 8 is_stmt 0
 403 0204 83270500 		lw	a5,0(a0)
  60:src/kernel/scb.cpp ****     if(val++<0)
 404              		.loc 1 60 11
GAS LISTING /tmp/ccv6l6Gj.s 			page 11


 405 0208 1B871700 		addiw	a4,a5,1
 406 020c 2320E500 		sw	a4,0(a0)
  60:src/kernel/scb.cpp ****     if(val++<0)
 407              		.loc 1 60 5
 408 0210 63C40700 		bltz	a5,.L37
 409 0214 67800000 		ret
 410              	.L37:
  59:src/kernel/scb.cpp **** void SCB::signal(){
 411              		.loc 1 59 19
 412 0218 130101FF 		addi	sp,sp,-16
 413              		.cfi_def_cfa_offset 16
 414 021c 23341100 		sd	ra,8(sp)
 415 0220 23308100 		sd	s0,0(sp)
 416              		.cfi_offset 1, -8
 417              		.cfi_offset 8, -16
 418 0224 13040101 		addi	s0,sp,16
 419              		.cfi_def_cfa 8, 0
  61:src/kernel/scb.cpp ****         deblock();
 420              		.loc 1 61 9 is_stmt 1
  61:src/kernel/scb.cpp ****         deblock();
 421              		.loc 1 61 16 is_stmt 0
 422 0228 97000000 		call	_ZN3SCB7deblockEv
 422      E7800000 
 423              	.LVL22:
  62:src/kernel/scb.cpp **** }
 424              		.loc 1 62 1
 425 0230 83308100 		ld	ra,8(sp)
 426              		.cfi_restore 1
 427 0234 03340100 		ld	s0,0(sp)
 428              		.cfi_restore 8
 429              		.cfi_def_cfa 2, 16
 430 0238 13010101 		addi	sp,sp,16
 431              		.cfi_def_cfa_offset 0
 432 023c 67800000 		jr	ra
 433              		.cfi_endproc
 434              	.LFE32:
 436              		.align	2
 437              		.globl	_ZN3SCBnwEm
 439              	_ZN3SCBnwEm:
 440              	.LFB33:
  65:src/kernel/scb.cpp **** void* SCB::operator new(size_t size){
 441              		.loc 1 65 37 is_stmt 1
 442              		.cfi_startproc
 443              	.LVL23:
 444 0240 130101FF 		addi	sp,sp,-16
 445              		.cfi_def_cfa_offset 16
 446 0244 23341100 		sd	ra,8(sp)
 447 0248 23308100 		sd	s0,0(sp)
 448              		.cfi_offset 1, -8
 449              		.cfi_offset 8, -16
 450 024c 13040101 		addi	s0,sp,16
 451              		.cfi_def_cfa 8, 0
  66:src/kernel/scb.cpp ****     return kmem_cache_alloc(SCB::scbCache);
 452              		.loc 1 66 5
  66:src/kernel/scb.cpp ****     return kmem_cache_alloc(SCB::scbCache);
 453              		.loc 1 66 28 is_stmt 0
 454 0250 17050000 		ld	a0,.LANCHOR0
GAS LISTING /tmp/ccv6l6Gj.s 			page 12


 454      03350500 
 455              	.LVL24:
 456 0258 97000000 		call	_Z16kmem_cache_allocP5Cache@plt
 456      E7800000 
 457              	.LVL25:
  67:src/kernel/scb.cpp **** }
 458              		.loc 1 67 1
 459 0260 83308100 		ld	ra,8(sp)
 460              		.cfi_restore 1
 461 0264 03340100 		ld	s0,0(sp)
 462              		.cfi_restore 8
 463              		.cfi_def_cfa 2, 16
 464 0268 13010101 		addi	sp,sp,16
 465              		.cfi_def_cfa_offset 0
 466 026c 67800000 		jr	ra
 467              		.cfi_endproc
 468              	.LFE33:
 470              		.align	2
 471              		.globl	_ZN3SCBdlEPv
 473              	_ZN3SCBdlEPv:
 474              	.LFB34:
  70:src/kernel/scb.cpp **** void SCB::operator delete(void *addr){
 475              		.loc 1 70 38 is_stmt 1
 476              		.cfi_startproc
 477              	.LVL26:
 478 0270 130101FF 		addi	sp,sp,-16
 479              		.cfi_def_cfa_offset 16
 480 0274 23341100 		sd	ra,8(sp)
 481 0278 23308100 		sd	s0,0(sp)
 482              		.cfi_offset 1, -8
 483              		.cfi_offset 8, -16
 484 027c 13040101 		addi	s0,sp,16
 485              		.cfi_def_cfa 8, 0
 486 0280 93050500 		mv	a1,a0
  71:src/kernel/scb.cpp ****     kmem_cache_free(SCB::scbCache, addr);
 487              		.loc 1 71 5
  71:src/kernel/scb.cpp ****     kmem_cache_free(SCB::scbCache, addr);
 488              		.loc 1 71 20 is_stmt 0
 489 0284 17050000 		ld	a0,.LANCHOR0
 489      03350500 
 490              	.LVL27:
 491 028c 97000000 		call	_Z15kmem_cache_freeP5CachePv@plt
 491      E7800000 
 492              	.LVL28:
  72:src/kernel/scb.cpp **** }
 493              		.loc 1 72 1
 494 0294 83308100 		ld	ra,8(sp)
 495              		.cfi_restore 1
 496 0298 03340100 		ld	s0,0(sp)
 497              		.cfi_restore 8
 498              		.cfi_def_cfa 2, 16
 499 029c 13010101 		addi	sp,sp,16
 500              		.cfi_def_cfa_offset 0
 501 02a0 67800000 		jr	ra
 502              		.cfi_endproc
 503              	.LFE34:
 505              		.align	2
GAS LISTING /tmp/ccv6l6Gj.s 			page 13


 506              		.globl	_ZN3SCB14semaphore_freeEPv
 508              	_ZN3SCB14semaphore_freeEPv:
 509              	.LFB35:
  75:src/kernel/scb.cpp **** int SCB::semaphore_free(void *addr) {
 510              		.loc 1 75 37 is_stmt 1
 511              		.cfi_startproc
 512              	.LVL29:
 513 02a4 130101FF 		addi	sp,sp,-16
 514              		.cfi_def_cfa_offset 16
 515 02a8 23348100 		sd	s0,8(sp)
 516              		.cfi_offset 8, -8
 517 02ac 13040101 		addi	s0,sp,16
 518              		.cfi_def_cfa 8, 0
  76:src/kernel/scb.cpp ****     uint64 iptr = (uint64)addr;
 519              		.loc 1 76 5
 520              	.LVL30:
  78:src/kernel/scb.cpp ****     asm("mv a1, %[iptr]" : : [iptr] "r" (iptr));  //put address in a1
 521              		.loc 1 78 5
  78:src/kernel/scb.cpp ****     asm("mv a1, %[iptr]" : : [iptr] "r" (iptr));  //put address in a1
 522              		.loc 1 78 48 is_stmt 0
 523              	#APP
 524              	# 78 "src/kernel/scb.cpp" 1
  79:src/kernel/scb.cpp ****     asm("li a0, 0x52");  //put number of syscall in a0
 525              		mv a1, a0
 526              	# 0 "" 2
 527              		.loc 1 79 5 is_stmt 1
  79:src/kernel/scb.cpp ****     asm("li a0, 0x52");  //put number of syscall in a0
 528              		.loc 1 79 23 is_stmt 0
 529              	# 79 "src/kernel/scb.cpp" 1
  80:src/kernel/scb.cpp ****     asm("ecall");
 530              		li a0, 0x52
 531              	# 0 "" 2
 532              		.loc 1 80 5 is_stmt 1
  80:src/kernel/scb.cpp ****     asm("ecall");
 533              		.loc 1 80 17 is_stmt 0
 534              	# 80 "src/kernel/scb.cpp" 1
  82:src/kernel/scb.cpp ****     uint64 status; //return status of mem_free
 535              		ecall
 536              	# 0 "" 2
 537              		.loc 1 82 5 is_stmt 1
  84:src/kernel/scb.cpp ****     asm("mv %[status], a0" : [status] "=r" (status));
 538              		.loc 1 84 5
  84:src/kernel/scb.cpp ****     asm("mv %[status], a0" : [status] "=r" (status));
 539              		.loc 1 84 53 is_stmt 0
 540              	# 84 "src/kernel/scb.cpp" 1
 541              		mv a0, a0
 542              	# 0 "" 2
 543              	.LVL31:
  85:src/kernel/scb.cpp ****     return status;
 544              		.loc 1 85 5 is_stmt 1
  86:src/kernel/scb.cpp **** }
 545              		.loc 1 86 1 is_stmt 0
 546              	#NO_APP
 547 02c0 1B050500 		sext.w	a0,a0
 548              	.LVL32:
 549 02c4 03348100 		ld	s0,8(sp)
 550              		.cfi_restore 8
GAS LISTING /tmp/ccv6l6Gj.s 			page 14


 551              		.cfi_def_cfa 2, 16
 552 02c8 13010101 		addi	sp,sp,16
 553              		.cfi_def_cfa_offset 0
 554 02cc 67800000 		jr	ra
 555              		.cfi_endproc
 556              	.LFE35:
 558              		.globl	_ZN3SCB8scbCacheE
 559              		.bss
 560              		.align	3
 561              		.set	.LANCHOR0,. + 0
 564              	_ZN3SCB8scbCacheE:
 565 0000 00000000 		.zero	8
 565      00000000 
 566              		.text
 567              	.Letext0:
 568              		.file 2 "src/kernel/../../h/../lib/hw.h"
 569              		.file 3 "src/kernel/../../h/../h/../h/../h/utility.hpp"
 570              		.file 4 "src/kernel/../../h/scb.hpp"
 571              		.file 5 "src/kernel/../../h/../h/../h/../h/../h/slab_t.hpp"
 572              		.file 6 "src/kernel/../../h/../h/../h/../h/cache_t.hpp"
 573              		.file 7 "src/kernel/../../h/tcb.hpp"
 574              		.file 8 "src/kernel/../../h/scheduler.hpp"
 575              		.file 9 "src/kernel/../../h/../h/slab.hpp"
 3375              		.align	3
 3378              	DW.ref.__gxx_personality_v0:
 3379 0000 00000000 		.dword	__gxx_personality_v0
 3379      00000000 
 3380              		.ident	"GCC: (Ubuntu 9.4.0-1ubuntu1~20.04) 9.4.0"
 3381              		.section	.note.GNU-stack,"",@progbits
GAS LISTING /tmp/ccv6l6Gj.s 			page 15


DEFINED SYMBOLS
                            *ABS*:0000000000000000 scb.cpp
     /tmp/ccv6l6Gj.s:9      .text:0000000000000000 _ZN3SCB4ctorEPv
     /tmp/ccv6l6Gj.s:13     .text:0000000000000000 .L0 
     /tmp/ccv6l6Gj.s:15     .text:0000000000000000 .L0 
     /tmp/ccv6l6Gj.s:16     .text:0000000000000004 .L0 
     /tmp/ccv6l6Gj.s:18     .text:0000000000000008 .L0 
     /tmp/ccv6l6Gj.s:20     .text:000000000000000c .L0 
     /tmp/ccv6l6Gj.s:22     .text:000000000000000c .L0 
     /tmp/ccv6l6Gj.s:23     .text:000000000000000c .L0 
     /tmp/ccv6l6Gj.s:25     .text:0000000000000010 .L0 
     /tmp/ccv6l6Gj.s:26     .text:0000000000000010 .L0 
     /tmp/ccv6l6Gj.s:28     .text:0000000000000014 .L0 
     /tmp/ccv6l6Gj.s:29     .text:0000000000000018 .L0 
     /tmp/ccv6l6Gj.s:30     .text:0000000000000018 .L0 
     /tmp/ccv6l6Gj.s:32     .text:000000000000001c .L0 
     /tmp/ccv6l6Gj.s:34     .text:0000000000000020 .L0 
     /tmp/ccv6l6Gj.s:40     .text:0000000000000020 _ZN3SCB4dtorEPv
     /tmp/ccv6l6Gj.s:43     .text:0000000000000020 .L0 
     /tmp/ccv6l6Gj.s:45     .text:0000000000000020 .L0 
     /tmp/ccv6l6Gj.s:46     .text:0000000000000024 .L0 
     /tmp/ccv6l6Gj.s:48     .text:0000000000000028 .L0 
     /tmp/ccv6l6Gj.s:50     .text:000000000000002c .L0 
     /tmp/ccv6l6Gj.s:52     .text:000000000000002c .L0 
     /tmp/ccv6l6Gj.s:53     .text:000000000000002c .L0 
     /tmp/ccv6l6Gj.s:55     .text:0000000000000030 .L0 
     /tmp/ccv6l6Gj.s:56     .text:0000000000000030 .L0 
     /tmp/ccv6l6Gj.s:58     .text:0000000000000034 .L0 
     /tmp/ccv6l6Gj.s:59     .text:0000000000000038 .L0 
     /tmp/ccv6l6Gj.s:60     .text:0000000000000038 .L0 
     /tmp/ccv6l6Gj.s:62     .text:000000000000003c .L0 
     /tmp/ccv6l6Gj.s:64     .text:0000000000000040 .L0 
     /tmp/ccv6l6Gj.s:75     .text:0000000000000040 _ZN3SCB10initializeEv
     /tmp/ccv6l6Gj.s:78     .text:0000000000000040 .L0 
     /tmp/ccv6l6Gj.s:79     .text:0000000000000040 .L0 
     /tmp/ccv6l6Gj.s:80     .text:0000000000000044 .L0 
     /tmp/ccv6l6Gj.s:83     .text:000000000000004c .L0 
     /tmp/ccv6l6Gj.s:84     .text:000000000000004c .L0 
     /tmp/ccv6l6Gj.s:86     .text:0000000000000050 .L0 
     /tmp/ccv6l6Gj.s:88     .text:0000000000000050 .L0 
     /tmp/ccv6l6Gj.s:89     .text:0000000000000050 .L0 
     /tmp/ccv6l6Gj.s:96     .text:0000000000000074 .L0 
     /tmp/ccv6l6Gj.s:98     .text:000000000000007c .L0 
     /tmp/ccv6l6Gj.s:99     .text:0000000000000080 .L0 
     /tmp/ccv6l6Gj.s:101    .text:0000000000000084 .L0 
     /tmp/ccv6l6Gj.s:102    .text:0000000000000084 .L0 
     /tmp/ccv6l6Gj.s:104    .text:0000000000000088 .L0 
     /tmp/ccv6l6Gj.s:106    .text:000000000000008c .L0 
     /tmp/ccv6l6Gj.s:112    .text:000000000000008c _ZN3SCBC2Em
     /tmp/ccv6l6Gj.s:115    .text:000000000000008c .L0 
     /tmp/ccv6l6Gj.s:117    .text:000000000000008c .L0 
     /tmp/ccv6l6Gj.s:118    .text:0000000000000090 .L0 
     /tmp/ccv6l6Gj.s:120    .text:0000000000000094 .L0 
     /tmp/ccv6l6Gj.s:122    .text:0000000000000098 .L0 
     /tmp/ccv6l6Gj.s:125    .text:0000000000000098 .L0 
     /tmp/ccv6l6Gj.s:126    .text:0000000000000098 .L0 
     /tmp/ccv6l6Gj.s:129    .text:000000000000009c .L0 
GAS LISTING /tmp/ccv6l6Gj.s 			page 16


     /tmp/ccv6l6Gj.s:130    .text:00000000000000a0 .L0 
     /tmp/ccv6l6Gj.s:131    .text:00000000000000a0 .L0 
     /tmp/ccv6l6Gj.s:133    .text:00000000000000a4 .L0 
     /tmp/ccv6l6Gj.s:135    .text:00000000000000a8 .L0 
     /tmp/ccv6l6Gj.s:112    .text:000000000000008c _ZN3SCBC1Em
     /tmp/ccv6l6Gj.s:143    .text:00000000000000a8 _ZN3SCBD2Ev
     /tmp/ccv6l6Gj.s:146    .text:00000000000000a8 .L0 
     /tmp/ccv6l6Gj.s:3378   .data.rel.local.DW.ref.__gxx_personality_v0:0000000000000000 DW.ref.__gxx_personality_v0
     /tmp/ccv6l6Gj.s:150    .text:00000000000000a8 .L0 
     /tmp/ccv6l6Gj.s:151    .text:00000000000000ac .L0 
     /tmp/ccv6l6Gj.s:156    .text:00000000000000bc .L0 
     /tmp/ccv6l6Gj.s:157    .text:00000000000000bc .L0 
     /tmp/ccv6l6Gj.s:158    .text:00000000000000bc .L0 
     /tmp/ccv6l6Gj.s:159    .text:00000000000000bc .L0 
     /tmp/ccv6l6Gj.s:161    .text:00000000000000c0 .L0 
     /tmp/ccv6l6Gj.s:165    .text:00000000000000c4 .L0 
     /tmp/ccv6l6Gj.s:166    .text:00000000000000c4 .L0 
     /tmp/ccv6l6Gj.s:170    .text:00000000000000c8 .L0 
     /tmp/ccv6l6Gj.s:171    .text:00000000000000c8 .L0 
     /tmp/ccv6l6Gj.s:175    .text:00000000000000cc .L0 
     /tmp/ccv6l6Gj.s:176    .text:00000000000000cc .L0 
     /tmp/ccv6l6Gj.s:177    .text:00000000000000cc .L0 
     /tmp/ccv6l6Gj.s:180    .text:00000000000000d0 .L0 
     /tmp/ccv6l6Gj.s:181    .text:00000000000000d0 .L0 
     /tmp/ccv6l6Gj.s:183    .text:00000000000000d4 .L0 
     /tmp/ccv6l6Gj.s:184    .text:00000000000000d4 .L0 
     /tmp/ccv6l6Gj.s:186    .text:00000000000000d8 .L0 
     /tmp/ccv6l6Gj.s:187    .text:00000000000000d8 .L0 
     /tmp/ccv6l6Gj.s:190    .text:00000000000000e0 .L0 
     /tmp/ccv6l6Gj.s:193    .text:00000000000000e4 .L0 
     /tmp/ccv6l6Gj.s:198    .text:00000000000000e8 .L0 
     /tmp/ccv6l6Gj.s:199    .text:00000000000000ec .L0 
     /tmp/ccv6l6Gj.s:201    .text:00000000000000f0 .L0 
     /tmp/ccv6l6Gj.s:202    .text:00000000000000f0 .L0 
     /tmp/ccv6l6Gj.s:204    .text:00000000000000f4 .L0 
     /tmp/ccv6l6Gj.s:206    .text:00000000000000f8 .L0 
     /tmp/ccv6l6Gj.s:209    .text:00000000000000fc .L0 
     /tmp/ccv6l6Gj.s:211    .text:0000000000000100 .L0 
     /tmp/ccv6l6Gj.s:143    .text:00000000000000a8 _ZN3SCBD1Ev
     /tmp/ccv6l6Gj.s:227    .text:0000000000000100 _ZN3SCB5blockEv
     /tmp/ccv6l6Gj.s:230    .text:0000000000000100 .L0 
     /tmp/ccv6l6Gj.s:232    .text:0000000000000100 .L0 
     /tmp/ccv6l6Gj.s:233    .text:0000000000000104 .L0 
     /tmp/ccv6l6Gj.s:236    .text:000000000000010c .L0 
     /tmp/ccv6l6Gj.s:237    .text:000000000000010c .L0 
     /tmp/ccv6l6Gj.s:239    .text:0000000000000110 .L0 
     /tmp/ccv6l6Gj.s:241    .text:0000000000000110 .L0 
     /tmp/ccv6l6Gj.s:242    .text:0000000000000110 .L0 
     /tmp/ccv6l6Gj.s:244    .text:0000000000000114 .L0 
     /tmp/ccv6l6Gj.s:246    .text:0000000000000118 .L0 
     /tmp/ccv6l6Gj.s:248    .text:000000000000011c .L0 
     /tmp/ccv6l6Gj.s:253    .text:000000000000012c .L0 
     /tmp/ccv6l6Gj.s:255    .text:0000000000000130 .L0 
     /tmp/ccv6l6Gj.s:256    .text:0000000000000130 .L0 
     /tmp/ccv6l6Gj.s:258    .text:0000000000000134 .L0 
     /tmp/ccv6l6Gj.s:259    .text:0000000000000134 .L0 
     /tmp/ccv6l6Gj.s:262    .text:000000000000013c .L0 
GAS LISTING /tmp/ccv6l6Gj.s 			page 17


     /tmp/ccv6l6Gj.s:263    .text:000000000000013c .L0 
     /tmp/ccv6l6Gj.s:266    .text:0000000000000144 .L0 
     /tmp/ccv6l6Gj.s:267    .text:0000000000000148 .L0 
     /tmp/ccv6l6Gj.s:268    .text:0000000000000148 .L0 
     /tmp/ccv6l6Gj.s:270    .text:000000000000014c .L0 
     /tmp/ccv6l6Gj.s:271    .text:000000000000014c .L0 
     /tmp/ccv6l6Gj.s:273    .text:0000000000000150 .L0 
     /tmp/ccv6l6Gj.s:277    .text:0000000000000154 .L0 
     /tmp/ccv6l6Gj.s:279    .text:0000000000000154 .L0 
     /tmp/ccv6l6Gj.s:283    .text:0000000000000168 .L0 
     /tmp/ccv6l6Gj.s:289    .text:0000000000000168 _ZN3SCB7deblockEv
     /tmp/ccv6l6Gj.s:292    .text:0000000000000168 .L0 
     /tmp/ccv6l6Gj.s:294    .text:0000000000000168 .L0 
     /tmp/ccv6l6Gj.s:296    .text:000000000000016c .L0 
     /tmp/ccv6l6Gj.s:297    .text:000000000000016c .L0 
     /tmp/ccv6l6Gj.s:300    .text:0000000000000170 .L0 
     /tmp/ccv6l6Gj.s:301    .text:0000000000000170 .L0 
     /tmp/ccv6l6Gj.s:303    .text:0000000000000174 .L0 
     /tmp/ccv6l6Gj.s:305    .text:0000000000000178 .L0 
     /tmp/ccv6l6Gj.s:306    .text:0000000000000178 .L0 
     /tmp/ccv6l6Gj.s:308    .text:000000000000017c .L0 
     /tmp/ccv6l6Gj.s:310    .text:0000000000000180 .L0 
     /tmp/ccv6l6Gj.s:311    .text:0000000000000184 .L0 
     /tmp/ccv6l6Gj.s:314    .text:000000000000018c .L0 
     /tmp/ccv6l6Gj.s:315    .text:000000000000018c .L0 
     /tmp/ccv6l6Gj.s:317    .text:0000000000000190 .L0 
     /tmp/ccv6l6Gj.s:319    .text:0000000000000190 .L0 
     /tmp/ccv6l6Gj.s:320    .text:0000000000000190 .L0 
     /tmp/ccv6l6Gj.s:324    .text:0000000000000198 .L0 
     /tmp/ccv6l6Gj.s:325    .text:0000000000000198 .L0 
     /tmp/ccv6l6Gj.s:328    .text:00000000000001a0 .L0 
     /tmp/ccv6l6Gj.s:329    .text:00000000000001a4 .L0 
     /tmp/ccv6l6Gj.s:331    .text:00000000000001a8 .L0 
     /tmp/ccv6l6Gj.s:332    .text:00000000000001a8 .L0 
     /tmp/ccv6l6Gj.s:334    .text:00000000000001ac .L0 
     /tmp/ccv6l6Gj.s:339    .text:00000000000001b4 .L0 
     /tmp/ccv6l6Gj.s:345    .text:00000000000001b4 _ZN3SCB4waitEv
     /tmp/ccv6l6Gj.s:348    .text:00000000000001b4 .L0 
     /tmp/ccv6l6Gj.s:350    .text:00000000000001b4 .L0 
     /tmp/ccv6l6Gj.s:351    .text:00000000000001b4 .L0 
     /tmp/ccv6l6Gj.s:352    .text:00000000000001b4 .L0 
     /tmp/ccv6l6Gj.s:355    .text:00000000000001c0 .L0 
     /tmp/ccv6l6Gj.s:357    .text:00000000000001c4 .L0 
     /tmp/ccv6l6Gj.s:358    .text:00000000000001c4 .L0 
     /tmp/ccv6l6Gj.s:360    .text:00000000000001c8 .L0 
     /tmp/ccv6l6Gj.s:362    .text:00000000000001cc .L0 
     /tmp/ccv6l6Gj.s:364    .text:00000000000001d0 .L0 
     /tmp/ccv6l6Gj.s:369    .text:00000000000001dc .L0 
     /tmp/ccv6l6Gj.s:370    .text:00000000000001e0 .L0 
     /tmp/ccv6l6Gj.s:373    .text:00000000000001e8 .L0 
     /tmp/ccv6l6Gj.s:374    .text:00000000000001e8 .L0 
     /tmp/ccv6l6Gj.s:376    .text:00000000000001ec .L0 
     /tmp/ccv6l6Gj.s:378    .text:00000000000001ec .L0 
     /tmp/ccv6l6Gj.s:379    .text:00000000000001ec .L0 
     /tmp/ccv6l6Gj.s:382    .text:00000000000001f4 .L0 
     /tmp/ccv6l6Gj.s:383    .text:00000000000001f8 .L0 
     /tmp/ccv6l6Gj.s:385    .text:00000000000001fc .L0 
GAS LISTING /tmp/ccv6l6Gj.s 			page 18


     /tmp/ccv6l6Gj.s:386    .text:00000000000001fc .L0 
     /tmp/ccv6l6Gj.s:388    .text:0000000000000200 .L0 
     /tmp/ccv6l6Gj.s:390    .text:0000000000000204 .L0 
     /tmp/ccv6l6Gj.s:396    .text:0000000000000204 _ZN3SCB6signalEv
     /tmp/ccv6l6Gj.s:399    .text:0000000000000204 .L0 
     /tmp/ccv6l6Gj.s:401    .text:0000000000000204 .L0 
     /tmp/ccv6l6Gj.s:402    .text:0000000000000204 .L0 
     /tmp/ccv6l6Gj.s:403    .text:0000000000000204 .L0 
     /tmp/ccv6l6Gj.s:405    .text:0000000000000208 .L0 
     /tmp/ccv6l6Gj.s:408    .text:0000000000000210 .L0 
     /tmp/ccv6l6Gj.s:412    .text:0000000000000218 .L0 
     /tmp/ccv6l6Gj.s:413    .text:000000000000021c .L0 
     /tmp/ccv6l6Gj.s:416    .text:0000000000000224 .L0 
     /tmp/ccv6l6Gj.s:417    .text:0000000000000224 .L0 
     /tmp/ccv6l6Gj.s:419    .text:0000000000000228 .L0 
     /tmp/ccv6l6Gj.s:421    .text:0000000000000228 .L0 
     /tmp/ccv6l6Gj.s:422    .text:0000000000000228 .L0 
     /tmp/ccv6l6Gj.s:425    .text:0000000000000230 .L0 
     /tmp/ccv6l6Gj.s:426    .text:0000000000000234 .L0 
     /tmp/ccv6l6Gj.s:428    .text:0000000000000238 .L0 
     /tmp/ccv6l6Gj.s:429    .text:0000000000000238 .L0 
     /tmp/ccv6l6Gj.s:431    .text:000000000000023c .L0 
     /tmp/ccv6l6Gj.s:433    .text:0000000000000240 .L0 
     /tmp/ccv6l6Gj.s:439    .text:0000000000000240 _ZN3SCBnwEm
     /tmp/ccv6l6Gj.s:442    .text:0000000000000240 .L0 
     /tmp/ccv6l6Gj.s:444    .text:0000000000000240 .L0 
     /tmp/ccv6l6Gj.s:445    .text:0000000000000244 .L0 
     /tmp/ccv6l6Gj.s:448    .text:000000000000024c .L0 
     /tmp/ccv6l6Gj.s:449    .text:000000000000024c .L0 
     /tmp/ccv6l6Gj.s:451    .text:0000000000000250 .L0 
     /tmp/ccv6l6Gj.s:453    .text:0000000000000250 .L0 
     /tmp/ccv6l6Gj.s:454    .text:0000000000000250 .L0 
     /tmp/ccv6l6Gj.s:459    .text:0000000000000260 .L0 
     /tmp/ccv6l6Gj.s:460    .text:0000000000000264 .L0 
     /tmp/ccv6l6Gj.s:462    .text:0000000000000268 .L0 
     /tmp/ccv6l6Gj.s:463    .text:0000000000000268 .L0 
     /tmp/ccv6l6Gj.s:465    .text:000000000000026c .L0 
     /tmp/ccv6l6Gj.s:467    .text:0000000000000270 .L0 
     /tmp/ccv6l6Gj.s:473    .text:0000000000000270 _ZN3SCBdlEPv
     /tmp/ccv6l6Gj.s:476    .text:0000000000000270 .L0 
     /tmp/ccv6l6Gj.s:478    .text:0000000000000270 .L0 
     /tmp/ccv6l6Gj.s:479    .text:0000000000000274 .L0 
     /tmp/ccv6l6Gj.s:482    .text:000000000000027c .L0 
     /tmp/ccv6l6Gj.s:483    .text:000000000000027c .L0 
     /tmp/ccv6l6Gj.s:485    .text:0000000000000280 .L0 
     /tmp/ccv6l6Gj.s:488    .text:0000000000000284 .L0 
     /tmp/ccv6l6Gj.s:489    .text:0000000000000284 .L0 
     /tmp/ccv6l6Gj.s:494    .text:0000000000000294 .L0 
     /tmp/ccv6l6Gj.s:495    .text:0000000000000298 .L0 
     /tmp/ccv6l6Gj.s:497    .text:000000000000029c .L0 
     /tmp/ccv6l6Gj.s:498    .text:000000000000029c .L0 
     /tmp/ccv6l6Gj.s:500    .text:00000000000002a0 .L0 
     /tmp/ccv6l6Gj.s:502    .text:00000000000002a4 .L0 
     /tmp/ccv6l6Gj.s:508    .text:00000000000002a4 _ZN3SCB14semaphore_freeEPv
     /tmp/ccv6l6Gj.s:511    .text:00000000000002a4 .L0 
     /tmp/ccv6l6Gj.s:513    .text:00000000000002a4 .L0 
     /tmp/ccv6l6Gj.s:514    .text:00000000000002a8 .L0 
GAS LISTING /tmp/ccv6l6Gj.s 			page 19


     /tmp/ccv6l6Gj.s:516    .text:00000000000002ac .L0 
     /tmp/ccv6l6Gj.s:518    .text:00000000000002b0 .L0 
     /tmp/ccv6l6Gj.s:521    .text:00000000000002b0 .L0 
     /tmp/ccv6l6Gj.s:522    .text:00000000000002b0 .L0 
  src/kernel/scb.cpp:78     .text:00000000000002b0 .L0 
     /tmp/ccv6l6Gj.s:528    .text:00000000000002b4 .L0 
  src/kernel/scb.cpp:79     .text:00000000000002b4 .L0 
     /tmp/ccv6l6Gj.s:533    .text:00000000000002b8 .L0 
  src/kernel/scb.cpp:80     .text:00000000000002b8 .L0 
     /tmp/ccv6l6Gj.s:538    .text:00000000000002bc .L0 
     /tmp/ccv6l6Gj.s:539    .text:00000000000002bc .L0 
  src/kernel/scb.cpp:84     .text:00000000000002bc .L0 
     /tmp/ccv6l6Gj.s:545    .text:00000000000002c0 .L0 
     /tmp/ccv6l6Gj.s:547    .text:00000000000002c0 .L0 
     /tmp/ccv6l6Gj.s:550    .text:00000000000002c8 .L0 
     /tmp/ccv6l6Gj.s:551    .text:00000000000002c8 .L0 
     /tmp/ccv6l6Gj.s:553    .text:00000000000002cc .L0 
     /tmp/ccv6l6Gj.s:555    .text:00000000000002d0 .L0 
     /tmp/ccv6l6Gj.s:564    .bss:0000000000000000 _ZN3SCB8scbCacheE
     /tmp/ccv6l6Gj.s:561    .bss:0000000000000000 .LANCHOR0
     /tmp/ccv6l6Gj.s:576    .text:00000000000002d0 .L0 
     /tmp/ccv6l6Gj.s:89     .text:0000000000000050 .L0 
     /tmp/ccv6l6Gj.s:90     .text:0000000000000058 .L0 
     /tmp/ccv6l6Gj.s:69     .rodata.str1.8:0000000000000000 .LC0
     /tmp/ccv6l6Gj.s:92     .text:0000000000000064 .L0 
     /tmp/ccv6l6Gj.s:96     .text:0000000000000074 .L0 
     /tmp/ccv6l6Gj.s:248    .text:000000000000011c .L0 
     /tmp/ccv6l6Gj.s:279    .text:0000000000000154 .L0 
     /tmp/ccv6l6Gj.s:352    .text:00000000000001b4 .L0 
     /tmp/ccv6l6Gj.s:454    .text:0000000000000250 .L0 
     /tmp/ccv6l6Gj.s:489    .text:0000000000000284 .L0 
     /tmp/ccv6l6Gj.s:195    .text:00000000000000e8 .L9
     /tmp/ccv6l6Gj.s:168    .text:00000000000000c8 .L11
     /tmp/ccv6l6Gj.s:276    .text:0000000000000154 .L17
     /tmp/ccv6l6Gj.s:251    .text:000000000000012c .L15
     /tmp/ccv6l6Gj.s:337    .text:00000000000001b0 .L21
     /tmp/ccv6l6Gj.s:367    .text:00000000000001dc .L30
     /tmp/ccv6l6Gj.s:410    .text:0000000000000218 .L37
     /tmp/ccv6l6Gj.s:1935   .debug_abbrev:0000000000000000 .Ldebug_abbrev0
     /tmp/ccv6l6Gj.s:3086   .debug_str:000000000000007b .LASF143
     /tmp/ccv6l6Gj.s:3326   .debug_str:000000000000072e .LASF144
     /tmp/ccv6l6Gj.s:3092   .debug_str:000000000000015b .LASF145
     /tmp/ccv6l6Gj.s:5      .text:0000000000000000 .Ltext0
     /tmp/ccv6l6Gj.s:567    .text:00000000000002d0 .Letext0
     /tmp/ccv6l6Gj.s:3066   .debug_line:0000000000000000 .Ldebug_line0
     /tmp/ccv6l6Gj.s:3174   .debug_str:000000000000037e .LASF0
     /tmp/ccv6l6Gj.s:3196   .debug_str:000000000000040d .LASF1
     /tmp/ccv6l6Gj.s:3256   .debug_str:000000000000058b .LASF2
     /tmp/ccv6l6Gj.s:3264   .debug_str:00000000000005d4 .LASF4
     /tmp/ccv6l6Gj.s:3182   .debug_str:00000000000003a9 .LASF3
     /tmp/ccv6l6Gj.s:3082   .debug_str:0000000000000064 .LASF5
     /tmp/ccv6l6Gj.s:3238   .debug_str:0000000000000505 .LASF6
     /tmp/ccv6l6Gj.s:3190   .debug_str:00000000000003ed .LASF7
     /tmp/ccv6l6Gj.s:3162   .debug_str:0000000000000334 .LASF8
     /tmp/ccv6l6Gj.s:3166   .debug_str:000000000000034d .LASF9
     /tmp/ccv6l6Gj.s:3110   .debug_str:00000000000001ec .LASF10
     /tmp/ccv6l6Gj.s:3156   .debug_str:0000000000000316 .LASF11
GAS LISTING /tmp/ccv6l6Gj.s 			page 20


     /tmp/ccv6l6Gj.s:3120   .debug_str:0000000000000231 .LASF12
     /tmp/ccv6l6Gj.s:3108   .debug_str:00000000000001dc .LASF13
     /tmp/ccv6l6Gj.s:3286   .debug_str:0000000000000655 .LASF14
     /tmp/ccv6l6Gj.s:3150   .debug_str:00000000000002e1 .LASF15
     /tmp/ccv6l6Gj.s:3280   .debug_str:0000000000000621 .LASF16
     /tmp/ccv6l6Gj.s:3294   .debug_str:000000000000067d .LASF17
     /tmp/ccv6l6Gj.s:3270   .debug_str:00000000000005f1 .LASF18
     /tmp/ccv6l6Gj.s:3232   .debug_str:00000000000004d9 .LASF19
     /tmp/ccv6l6Gj.s:3336   .debug_str:0000000000000783 .LASF20
     /tmp/ccv6l6Gj.s:3262   .debug_str:00000000000005c8 .LASF21
     /tmp/ccv6l6Gj.s:3176   .debug_str:000000000000038b .LASF22
     /tmp/ccv6l6Gj.s:3212   .debug_str:000000000000046c .LASF23
     /tmp/ccv6l6Gj.s:3278   .debug_str:0000000000000618 .LASF46
     /tmp/ccv6l6Gj.s:3274   .debug_str:0000000000000601 .LASF24
     /tmp/ccv6l6Gj.s:3130   .debug_str:0000000000000275 .LASF25
     /tmp/ccv6l6Gj.s:3250   .debug_str:0000000000000575 .LASF73
     /tmp/ccv6l6Gj.s:3318   .debug_str:0000000000000706 .LASF26
     /tmp/ccv6l6Gj.s:3222   .debug_str:0000000000000497 .LASF28
     /tmp/ccv6l6Gj.s:3138   .debug_str:00000000000002a8 .LASF27
     /tmp/ccv6l6Gj.s:3346   .debug_str:00000000000007bd .LASF29
     /tmp/ccv6l6Gj.s:3290   .debug_str:000000000000066e .LASF30
     /tmp/ccv6l6Gj.s:3186   .debug_str:00000000000003d7 .LASF31
     /tmp/ccv6l6Gj.s:3172   .debug_str:0000000000000378 .LASF32
     /tmp/ccv6l6Gj.s:3246   .debug_str:0000000000000547 .LASF33
     /tmp/ccv6l6Gj.s:3360   .debug_str:0000000000000838 .LASF34
     /tmp/ccv6l6Gj.s:3350   .debug_str:00000000000007dc .LASF35
     /tmp/ccv6l6Gj.s:3244   .debug_str:0000000000000538 .LASF36
     /tmp/ccv6l6Gj.s:3114   .debug_str:0000000000000200 .LASF37
     /tmp/ccv6l6Gj.s:3276   .debug_str:000000000000060d .LASF86
     /tmp/ccv6l6Gj.s:3242   .debug_str:0000000000000522 .LASF88
     /tmp/ccv6l6Gj.s:3210   .debug_str:0000000000000467 .LASF38
     /tmp/ccv6l6Gj.s:3258   .debug_str:0000000000000599 .LASF40
     /tmp/ccv6l6Gj.s:3254   .debug_str:0000000000000586 .LASF39
     /tmp/ccv6l6Gj.s:3126   .debug_str:0000000000000257 .LASF41
     /tmp/ccv6l6Gj.s:3368   .debug_str:000000000000085c .LASF42
     /tmp/ccv6l6Gj.s:3142   .debug_str:00000000000002b4 .LASF43
     /tmp/ccv6l6Gj.s:3074   .debug_str:0000000000000016 .LASF82
     /tmp/ccv6l6Gj.s:3288   .debug_str:0000000000000661 .LASF146
     /tmp/ccv6l6Gj.s:3154   .debug_str:0000000000000309 .LASF44
     /tmp/ccv6l6Gj.s:3324   .debug_str:0000000000000728 .LASF45
     /tmp/ccv6l6Gj.s:3188   .debug_str:00000000000003e8 .LASF47
     /tmp/ccv6l6Gj.s:3366   .debug_str:0000000000000851 .LASF48
     /tmp/ccv6l6Gj.s:3228   .debug_str:00000000000004ba .LASF49
     /tmp/ccv6l6Gj.s:3320   .debug_str:000000000000070b .LASF50
     /tmp/ccv6l6Gj.s:3236   .debug_str:00000000000004f9 .LASF51
     /tmp/ccv6l6Gj.s:3164   .debug_str:0000000000000344 .LASF52
     /tmp/ccv6l6Gj.s:3298   .debug_str:0000000000000687 .LASF53
     /tmp/ccv6l6Gj.s:3282   .debug_str:0000000000000637 .LASF54
     /tmp/ccv6l6Gj.s:3220   .debug_str:0000000000000485 .LASF56
     /tmp/ccv6l6Gj.s:3146   .debug_str:00000000000002cb .LASF55
     /tmp/ccv6l6Gj.s:3352   .debug_str:00000000000007ee .LASF57
     /tmp/ccv6l6Gj.s:3088   .debug_str:000000000000014b .LASF58
     /tmp/ccv6l6Gj.s:3112   .debug_str:00000000000001fb .LASF59
     /tmp/ccv6l6Gj.s:3134   .debug_str:0000000000000290 .LASF60
     /tmp/ccv6l6Gj.s:3084   .debug_str:000000000000006b .LASF61
     /tmp/ccv6l6Gj.s:3224   .debug_str:00000000000004a3 .LASF62
     /tmp/ccv6l6Gj.s:3338   .debug_str:0000000000000791 .LASF63
GAS LISTING /tmp/ccv6l6Gj.s 			page 21


     /tmp/ccv6l6Gj.s:3140   .debug_str:00000000000002ad .LASF64
     /tmp/ccv6l6Gj.s:3292   .debug_str:0000000000000675 .LASF147
     /tmp/ccv6l6Gj.s:3356   .debug_str:000000000000081d .LASF69
     /tmp/ccv6l6Gj.s:3272   .debug_str:00000000000005f9 .LASF65
     /tmp/ccv6l6Gj.s:3106   .debug_str:00000000000001d6 .LASF66
     /tmp/ccv6l6Gj.s:3096   .debug_str:0000000000000191 .LASF67
     /tmp/ccv6l6Gj.s:3070   .debug_str:0000000000000009 .LASF68
     /tmp/ccv6l6Gj.s:3168   .debug_str:000000000000035b .LASF70
     /tmp/ccv6l6Gj.s:3180   .debug_str:00000000000003a4 .LASF71
     /tmp/ccv6l6Gj.s:3178   .debug_str:0000000000000399 .LASF72
     /tmp/ccv6l6Gj.s:3116   .debug_str:000000000000021b .LASF74
     /tmp/ccv6l6Gj.s:3284   .debug_str:000000000000063e .LASF75
     /tmp/ccv6l6Gj.s:3252   .debug_str:0000000000000581 .LASF76
     /tmp/ccv6l6Gj.s:3266   .debug_str:00000000000005db .LASF77
     /tmp/ccv6l6Gj.s:3078   .debug_str:000000000000004e .LASF78
     /tmp/ccv6l6Gj.s:3206   .debug_str:0000000000000455 .LASF79
     /tmp/ccv6l6Gj.s:3322   .debug_str:0000000000000715 .LASF80
     /tmp/ccv6l6Gj.s:3312   .debug_str:00000000000006e2 .LASF81
     /tmp/ccv6l6Gj.s:3226   .debug_str:00000000000004ad .LASF83
     /tmp/ccv6l6Gj.s:3314   .debug_str:00000000000006ee .LASF84
     /tmp/ccv6l6Gj.s:3132   .debug_str:0000000000000281 .LASF85
     /tmp/ccv6l6Gj.s:3136   .debug_str:000000000000029f .LASF87
     /tmp/ccv6l6Gj.s:3316   .debug_str:00000000000006f3 .LASF89
     /tmp/ccv6l6Gj.s:3230   .debug_str:00000000000004c3 .LASF90
     /tmp/ccv6l6Gj.s:3200   .debug_str:0000000000000426 .LASF91
     /tmp/ccv6l6Gj.s:3348   .debug_str:00000000000007cc .LASF92
     /tmp/ccv6l6Gj.s:3240   .debug_str:0000000000000518 .LASF93
     /tmp/ccv6l6Gj.s:3118   .debug_str:0000000000000227 .LASF94
     /tmp/ccv6l6Gj.s:3128   .debug_str:0000000000000267 .LASF95
     /tmp/ccv6l6Gj.s:3076   .debug_str:0000000000000026 .LASF96
     /tmp/ccv6l6Gj.s:3328   .debug_str:0000000000000741 .LASF97
     /tmp/ccv6l6Gj.s:3310   .debug_str:00000000000006ca .LASF98
     /tmp/ccv6l6Gj.s:3192   .debug_str:0000000000000400 .LASF99
     /tmp/ccv6l6Gj.s:3334   .debug_str:000000000000077c .LASF100
     /tmp/ccv6l6Gj.s:3296   .debug_str:0000000000000682 .LASF101
     /tmp/ccv6l6Gj.s:3072   .debug_str:0000000000000011 .LASF102
     /tmp/ccv6l6Gj.s:3364   .debug_str:000000000000084c .LASF103
     /tmp/ccv6l6Gj.s:3214   .debug_str:0000000000000471 .LASF104
     /tmp/ccv6l6Gj.s:3306   .debug_str:00000000000006b6 .LASF105
     /tmp/ccv6l6Gj.s:3302   .debug_str:0000000000000694 .LASF106
     /tmp/ccv6l6Gj.s:3344   .debug_str:00000000000007b5 .LASF107
     /tmp/ccv6l6Gj.s:3308   .debug_str:00000000000006c0 .LASF108
     /tmp/ccv6l6Gj.s:3216   .debug_str:0000000000000477 .LASF109
     /tmp/ccv6l6Gj.s:3068   .debug_str:0000000000000000 .LASF110
     /tmp/ccv6l6Gj.s:3090   .debug_str:0000000000000150 .LASF111
     /tmp/ccv6l6Gj.s:3300   .debug_str:000000000000068c .LASF112
     /tmp/ccv6l6Gj.s:3144   .debug_str:00000000000002c0 .LASF113
     /tmp/ccv6l6Gj.s:3268   .debug_str:00000000000005e0 .LASF114
     /tmp/ccv6l6Gj.s:3204   .debug_str:000000000000044c .LASF115
     /tmp/ccv6l6Gj.s:3160   .debug_str:000000000000032a .LASF116
     /tmp/ccv6l6Gj.s:3208   .debug_str:000000000000045d .LASF117
     /tmp/ccv6l6Gj.s:3340   .debug_str:000000000000079e .LASF118
     /tmp/ccv6l6Gj.s:3100   .debug_str:00000000000001b4 .LASF119
     /tmp/ccv6l6Gj.s:3170   .debug_str:0000000000000360 .LASF148
     /tmp/ccv6l6Gj.s:3358   .debug_str:0000000000000824 .LASF149
     /tmp/ccv6l6Gj.s:3198   .debug_str:0000000000000420 .LASF120
     /tmp/ccv6l6Gj.s:3098   .debug_str:000000000000019a .LASF121
GAS LISTING /tmp/ccv6l6Gj.s 			page 22


     /tmp/ccv6l6Gj.s:3370   .debug_str:0000000000000869 .LASF122
     /tmp/ccv6l6Gj.s:3202   .debug_str:0000000000000436 .LASF123
     /tmp/ccv6l6Gj.s:3354   .debug_str:0000000000000801 .LASF124
     /tmp/ccv6l6Gj.s:3148   .debug_str:00000000000002d3 .LASF125
     /tmp/ccv6l6Gj.s:3260   .debug_str:00000000000005a9 .LASF127
     /tmp/ccv6l6Gj.s:3342   .debug_str:00000000000007a8 .LASF126
     /tmp/ccv6l6Gj.s:3248   .debug_str:0000000000000557 .LASF128
     /tmp/ccv6l6Gj.s:3234   .debug_str:00000000000004e7 .LASF150
     /tmp/ccv6l6Gj.s:41     .text:0000000000000020 .LFB37
     /tmp/ccv6l6Gj.s:65     .text:0000000000000040 .LFE37
     /tmp/ccv6l6Gj.s:10     .text:0000000000000000 .LFB36
     /tmp/ccv6l6Gj.s:35     .text:0000000000000020 .LFE36
     /tmp/ccv6l6Gj.s:509    .text:00000000000002a4 .LFB35
     /tmp/ccv6l6Gj.s:556    .text:00000000000002d0 .LFE35
     /tmp/ccv6l6Gj.s:3102   .debug_str:00000000000001c1 .LASF129
     /tmp/ccv6l6Gj.s:2867   .debug_loc:0000000000000000 .LLST10
     /tmp/ccv6l6Gj.s:3122   .debug_str:0000000000000241 .LASF130
     /tmp/ccv6l6Gj.s:2881   .debug_loc:0000000000000039 .LLST11
     /tmp/ccv6l6Gj.s:2895   .debug_loc:0000000000000072 .LLST12
     /tmp/ccv6l6Gj.s:474    .text:0000000000000270 .LFB34
     /tmp/ccv6l6Gj.s:503    .text:00000000000002a4 .LFE34
     /tmp/ccv6l6Gj.s:2902   .debug_loc:0000000000000095 .LLST9
     /tmp/ccv6l6Gj.s:492    .text:0000000000000294 .LVL28
     /tmp/ccv6l6Gj.s:440    .text:0000000000000240 .LFB33
     /tmp/ccv6l6Gj.s:468    .text:0000000000000270 .LFE33
     /tmp/ccv6l6Gj.s:3194   .debug_str:0000000000000408 .LASF131
     /tmp/ccv6l6Gj.s:2920   .debug_loc:00000000000000e1 .LLST8
     /tmp/ccv6l6Gj.s:457    .text:0000000000000260 .LVL25
     /tmp/ccv6l6Gj.s:397    .text:0000000000000204 .LFB32
     /tmp/ccv6l6Gj.s:434    .text:0000000000000240 .LFE32
     /tmp/ccv6l6Gj.s:3158   .debug_str:0000000000000325 .LASF132
     /tmp/ccv6l6Gj.s:2934   .debug_loc:000000000000011a .LLST7
     /tmp/ccv6l6Gj.s:423    .text:0000000000000230 .LVL22
     /tmp/ccv6l6Gj.s:346    .text:00000000000001b4 .LFB31
     /tmp/ccv6l6Gj.s:391    .text:0000000000000204 .LFE31
     /tmp/ccv6l6Gj.s:2948   .debug_loc:0000000000000153 .LLST6
     /tmp/ccv6l6Gj.s:380    .text:00000000000001f4 .LVL20
     /tmp/ccv6l6Gj.s:290    .text:0000000000000168 .LFB30
     /tmp/ccv6l6Gj.s:340    .text:00000000000001b4 .LFE30
     /tmp/ccv6l6Gj.s:2962   .debug_loc:000000000000018c .LLST4
     /tmp/ccv6l6Gj.s:2984   .debug_loc:00000000000001eb .LLST5
     /tmp/ccv6l6Gj.s:326    .text:00000000000001a0 .LVL17
     /tmp/ccv6l6Gj.s:228    .text:0000000000000100 .LFB29
     /tmp/ccv6l6Gj.s:284    .text:0000000000000168 .LFE29
     /tmp/ccv6l6Gj.s:2995   .debug_loc:0000000000000221 .LLST3
     /tmp/ccv6l6Gj.s:264    .text:0000000000000144 .LVL12
     /tmp/ccv6l6Gj.s:3080   .debug_str:000000000000005a .LASF133
     /tmp/ccv6l6Gj.s:3218   .debug_str:0000000000000480 .LASF134
     /tmp/ccv6l6Gj.s:3332   .debug_str:0000000000000770 .LASF135
     /tmp/ccv6l6Gj.s:144    .text:00000000000000a8 .LFB27
     /tmp/ccv6l6Gj.s:212    .text:0000000000000100 .LFE27
     /tmp/ccv6l6Gj.s:3013   .debug_loc:000000000000026d .LLST0
     /tmp/ccv6l6Gj.s:188    .text:00000000000000e0 .LVL8
     /tmp/ccv6l6Gj.s:163    .text:00000000000000c4 .LBB3
     /tmp/ccv6l6Gj.s:196    .text:00000000000000e8 .LBE3
     /tmp/ccv6l6Gj.s:3031   .debug_loc:00000000000002b9 .LLST1
     /tmp/ccv6l6Gj.s:172    .text:00000000000000cc .LBB4
GAS LISTING /tmp/ccv6l6Gj.s 			page 23


     /tmp/ccv6l6Gj.s:191    .text:00000000000000e4 .LBE4
     /tmp/ccv6l6Gj.s:3046   .debug_loc:0000000000000302 .LLST2
     /tmp/ccv6l6Gj.s:3094   .debug_str:000000000000018c .LASF151
     /tmp/ccv6l6Gj.s:3362   .debug_str:0000000000000840 .LASF136
     /tmp/ccv6l6Gj.s:113    .text:000000000000008c .LFB24
     /tmp/ccv6l6Gj.s:136    .text:00000000000000a8 .LFE24
     /tmp/ccv6l6Gj.s:76     .text:0000000000000040 .LFB22
     /tmp/ccv6l6Gj.s:107    .text:000000000000008c .LFE22
     /tmp/ccv6l6Gj.s:94     .text:0000000000000074 .LVL2
     /tmp/ccv6l6Gj.s:3304   .debug_str:0000000000000699 .LASF137
     /tmp/ccv6l6Gj.s:3104   .debug_str:00000000000001c6 .LASF139
     /tmp/ccv6l6Gj.s:3184   .debug_str:00000000000003bb .LASF138
     /tmp/ccv6l6Gj.s:3124   .debug_str:0000000000000246 .LASF140
     /tmp/ccv6l6Gj.s:3330   .debug_str:000000000000074d .LASF141
     /tmp/ccv6l6Gj.s:3152   .debug_str:00000000000002f7 .LASF142
     /tmp/ccv6l6Gj.s:512    .text:00000000000002a4 .LVL29
     /tmp/ccv6l6Gj.s:543    .text:00000000000002c0 .LVL31
     /tmp/ccv6l6Gj.s:520    .text:00000000000002b0 .LVL30
     /tmp/ccv6l6Gj.s:548    .text:00000000000002c4 .LVL32
     /tmp/ccv6l6Gj.s:477    .text:0000000000000270 .LVL26
     /tmp/ccv6l6Gj.s:490    .text:000000000000028c .LVL27
     /tmp/ccv6l6Gj.s:443    .text:0000000000000240 .LVL23
     /tmp/ccv6l6Gj.s:455    .text:0000000000000258 .LVL24
     /tmp/ccv6l6Gj.s:400    .text:0000000000000204 .LVL21
     /tmp/ccv6l6Gj.s:349    .text:00000000000001b4 .LVL19
     /tmp/ccv6l6Gj.s:293    .text:0000000000000168 .LVL14
     /tmp/ccv6l6Gj.s:298    .text:0000000000000170 .LVL15
     /tmp/ccv6l6Gj.s:321    .text:0000000000000194 .LVL16
     /tmp/ccv6l6Gj.s:336    .text:00000000000001b0 .LVL18
     /tmp/ccv6l6Gj.s:231    .text:0000000000000100 .LVL11
     /tmp/ccv6l6Gj.s:275    .text:0000000000000154 .LVL13
     /tmp/ccv6l6Gj.s:149    .text:00000000000000a8 .LVL4
     /tmp/ccv6l6Gj.s:167    .text:00000000000000c8 .LVL5
     /tmp/ccv6l6Gj.s:207    .text:00000000000000f8 .LVL10
     /tmp/ccv6l6Gj.s:178    .text:00000000000000d0 .LVL7
     /tmp/ccv6l6Gj.s:194    .text:00000000000000e8 .LVL9
     /tmp/ccv6l6Gj.s:174    .text:00000000000000cc .LVL6
     /tmp/ccv6l6Gj.s:577    .debug_info:0000000000000000 .Ldebug_info0
     /tmp/ccv6l6Gj.s:215    .gcc_except_table:0000000000000000 .LLSDA27

UNDEFINED SYMBOLS
_Z17kmem_cache_createPKcmPFvPvES3_
_ZN9Scheduler3putEP3TCB
__gxx_personality_v0
_ZN3TCB7runningE
_ZN3TCB8dispatchEv
_Z16kmem_cache_allocP5Cache
_Z15kmem_cache_freeP5CachePv
