GAS LISTING /tmp/ccEq1nYA.s 			page 1


   1              		.file	"scheduler.cpp"
   2              		.option pic
   3              		.option norelax
   4              		.text
   5              	.Ltext0:
   6              		.align	2
   7              		.globl	_ZN9Scheduler10initializeEv
   9              	_ZN9Scheduler10initializeEv:
  10              	.LFB44:
  11              		.file 1 "src/kernel/scheduler.cpp"
   1:src/kernel/scheduler.cpp **** //
   2:src/kernel/scheduler.cpp **** // Created by os on 5/18/22.
   3:src/kernel/scheduler.cpp **** //
   4:src/kernel/scheduler.cpp **** 
   5:src/kernel/scheduler.cpp **** #include "../../h/kernel/scheduler.hpp"
   6:src/kernel/scheduler.cpp **** #include "../../h/user/printing.hpp"
   7:src/kernel/scheduler.cpp **** #include "../../h/kernel/console_util.hpp"
   8:src/kernel/scheduler.cpp **** #include "../../h/kernel/riscv.hpp"
   9:src/kernel/scheduler.cpp **** 
  10:src/kernel/scheduler.cpp **** TCB* Scheduler::readyHead = nullptr;
  11:src/kernel/scheduler.cpp **** TCB* Scheduler::readyTail = nullptr;
  12:src/kernel/scheduler.cpp **** TCB* Scheduler::sleepingHead = nullptr;
  13:src/kernel/scheduler.cpp **** 
  14:src/kernel/scheduler.cpp **** 
  15:src/kernel/scheduler.cpp **** void Scheduler::initialize(){
  12              		.loc 1 15 29
  13              		.cfi_startproc
  14 0000 130101FF 		addi	sp,sp,-16
  15              		.cfi_def_cfa_offset 16
  16 0004 23348100 		sd	s0,8(sp)
  17              		.cfi_offset 8, -8
  18 0008 13040101 		addi	s0,sp,16
  19              		.cfi_def_cfa 8, 0
  16:src/kernel/scheduler.cpp **** }
  20              		.loc 1 16 1 is_stmt 0
  21 000c 03348100 		ld	s0,8(sp)
  22              		.cfi_restore 8
  23              		.cfi_def_cfa 2, 16
  24 0010 13010101 		addi	sp,sp,16
  25              		.cfi_def_cfa_offset 0
  26 0014 67800000 		jr	ra
  27              		.cfi_endproc
  28              	.LFE44:
  30              		.align	2
  31              		.globl	_ZN9Scheduler3putEP3TCB
  33              	_ZN9Scheduler3putEP3TCB:
  34              	.LFB45:
  17:src/kernel/scheduler.cpp **** 
  18:src/kernel/scheduler.cpp **** //put a TCB in scheduler
  19:src/kernel/scheduler.cpp **** //each TCB has a pointer to next TCB, so no external list/queue structures needed
  20:src/kernel/scheduler.cpp **** void Scheduler::put(TCB *tcb) {
  35              		.loc 1 20 31 is_stmt 1
  36              		.cfi_startproc
  37              	.LVL0:
  38 0018 130101FF 		addi	sp,sp,-16
  39              		.cfi_def_cfa_offset 16
  40 001c 23348100 		sd	s0,8(sp)
GAS LISTING /tmp/ccEq1nYA.s 			page 2


  41              		.cfi_offset 8, -8
  42 0020 13040101 		addi	s0,sp,16
  43              		.cfi_def_cfa 8, 0
  21:src/kernel/scheduler.cpp ****     tcb->next = nullptr;
  44              		.loc 1 21 5
  45              		.loc 1 21 15 is_stmt 0
  46 0024 23340504 		sd	zero,72(a0)
  22:src/kernel/scheduler.cpp ****     readyTail = (!readyHead ? readyHead : readyTail->next) = tcb;
  47              		.loc 1 22 5 is_stmt 1
  48              		.loc 1 22 18 is_stmt 0
  49 0028 97070000 		ld	a5,.LANCHOR0
  49      83B70700 
  50              		.loc 1 22 60
  51 0030 63820702 		beqz	a5,.L7
  52              		.loc 1 22 54 discriminator 2
  53 0034 97070000 		ld	a5,.LANCHOR0+8
  53      83B70700 
  54              		.loc 1 22 60 discriminator 2
  55 003c 23B4A704 		sd	a0,72(a5)
  56              	.L5:
  57              		.loc 1 22 15 discriminator 4
  58 0040 97070000 		sd	a0,.LANCHOR0+8,a5
  58      23B0A700 
  23:src/kernel/scheduler.cpp **** }
  59              		.loc 1 23 1 discriminator 4
  60 0048 03348100 		ld	s0,8(sp)
  61              		.cfi_remember_state
  62              		.cfi_restore 8
  63              		.cfi_def_cfa 2, 16
  64 004c 13010101 		addi	sp,sp,16
  65              		.cfi_def_cfa_offset 0
  66 0050 67800000 		jr	ra
  67              	.L7:
  68              		.cfi_restore_state
  22:src/kernel/scheduler.cpp ****     readyTail = (!readyHead ? readyHead : readyTail->next) = tcb;
  69              		.loc 1 22 60 discriminator 1
  70 0054 97070000 		sd	a0,.LANCHOR0,a5
  70      23B0A700 
  71 005c 6FF05FFE 		j	.L5
  72              		.cfi_endproc
  73              	.LFE45:
  75              		.align	2
  76              		.globl	_ZN9Scheduler3getEv
  78              	_ZN9Scheduler3getEv:
  79              	.LFB46:
  24:src/kernel/scheduler.cpp **** 
  25:src/kernel/scheduler.cpp **** 
  26:src/kernel/scheduler.cpp **** //get new TCB from scheduler
  27:src/kernel/scheduler.cpp **** TCB* Scheduler::get(){
  80              		.loc 1 27 22 is_stmt 1
  81              		.cfi_startproc
  82 0060 130101FF 		addi	sp,sp,-16
  83              		.cfi_def_cfa_offset 16
  84 0064 23348100 		sd	s0,8(sp)
  85              		.cfi_offset 8, -8
  86 0068 13040101 		addi	s0,sp,16
  87              		.cfi_def_cfa 8, 0
GAS LISTING /tmp/ccEq1nYA.s 			page 3


  28:src/kernel/scheduler.cpp ****     if(readyHead == nullptr)
  88              		.loc 1 28 5
  89              		.loc 1 28 18 is_stmt 0
  90 006c 17050000 		ld	a0,.LANCHOR0
  90      03350500 
  91              		.loc 1 28 5
  92 0074 630A0500 		beqz	a0,.L8
  29:src/kernel/scheduler.cpp ****         return nullptr;
  30:src/kernel/scheduler.cpp ****     TCB* tmp = readyHead;
  93              		.loc 1 30 5 is_stmt 1
  94              	.LVL1:
  31:src/kernel/scheduler.cpp ****     readyHead = readyHead->next;
  95              		.loc 1 31 5
  96              		.loc 1 31 28 is_stmt 0
  97 0078 83378504 		ld	a5,72(a0)
  98              		.loc 1 31 15
  99 007c 17070000 		sd	a5,.LANCHOR0,a4
  99      2330F700 
  32:src/kernel/scheduler.cpp ****     tmp->next = nullptr;
 100              		.loc 1 32 5 is_stmt 1
 101              		.loc 1 32 15 is_stmt 0
 102 0084 23340504 		sd	zero,72(a0)
  33:src/kernel/scheduler.cpp ****     return tmp;
 103              		.loc 1 33 5 is_stmt 1
 104              	.LVL2:
 105              	.L8:
  34:src/kernel/scheduler.cpp **** }
 106              		.loc 1 34 1 is_stmt 0
 107 0088 03348100 		ld	s0,8(sp)
 108              		.cfi_restore 8
 109              		.cfi_def_cfa 2, 16
 110 008c 13010101 		addi	sp,sp,16
 111              		.cfi_def_cfa_offset 0
 112 0090 67800000 		jr	ra
 113              		.cfi_endproc
 114              	.LFE46:
 116              		.align	2
 117              		.globl	_ZN9Scheduler5sleepEP3TCB
 119              	_ZN9Scheduler5sleepEP3TCB:
 120              	.LFB47:
  35:src/kernel/scheduler.cpp **** 
  36:src/kernel/scheduler.cpp **** //put a thread to sleep by linking it in sleeping queue (same thing as with ready threads, link by 
  37:src/kernel/scheduler.cpp **** void Scheduler::sleep(TCB *t) {
 121              		.loc 1 37 31 is_stmt 1
 122              		.cfi_startproc
 123              	.LVL3:
 124 0094 130101FF 		addi	sp,sp,-16
 125              		.cfi_def_cfa_offset 16
 126 0098 23348100 		sd	s0,8(sp)
 127              		.cfi_offset 8, -8
 128 009c 13040101 		addi	s0,sp,16
 129              		.cfi_def_cfa 8, 0
  38:src/kernel/scheduler.cpp ****     TCB* iter = sleepingHead, *prev = nullptr;
 130              		.loc 1 38 5
 131              		.loc 1 38 10 is_stmt 0
 132 00a0 97070000 		ld	a5,.LANCHOR0+16
 132      83B70700 
GAS LISTING /tmp/ccEq1nYA.s 			page 4


 133              	.LVL4:
 134              		.loc 1 38 32
 135 00a8 13060000 		li	a2,0
 136              	.LVL5:
 137              	.L13:
  39:src/kernel/scheduler.cpp ****     for(; iter!= nullptr; prev = iter, iter=iter->next)
 138              		.loc 1 39 5 is_stmt 1 discriminator 1
 139              		.loc 1 39 15 discriminator 1
 140 00ac 638E0700 		beqz	a5,.L12
  40:src/kernel/scheduler.cpp ****         if(iter->wakeTime>t->wakeTime)
 141              		.loc 1 40 9
 142              		.loc 1 40 18 is_stmt 0
 143 00b0 83B68705 		ld	a3,88(a5)
 144              		.loc 1 40 30
 145 00b4 03378505 		ld	a4,88(a0)
 146              		.loc 1 40 9
 147 00b8 6368D700 		bgtu	a3,a4,.L12
  39:src/kernel/scheduler.cpp ****     for(; iter!= nullptr; prev = iter, iter=iter->next)
 148              		.loc 1 39 5 is_stmt 1
 149              	.LVL6:
  39:src/kernel/scheduler.cpp ****     for(; iter!= nullptr; prev = iter, iter=iter->next)
 150              		.loc 1 39 32 is_stmt 0
 151 00bc 13860700 		mv	a2,a5
  39:src/kernel/scheduler.cpp ****     for(; iter!= nullptr; prev = iter, iter=iter->next)
 152              		.loc 1 39 44
 153 00c0 83B78704 		ld	a5,72(a5)
 154              	.LVL7:
  39:src/kernel/scheduler.cpp ****     for(; iter!= nullptr; prev = iter, iter=iter->next)
 155              		.loc 1 39 5
 156 00c4 6FF09FFE 		j	.L13
 157              	.L12:
  41:src/kernel/scheduler.cpp ****             break;
  42:src/kernel/scheduler.cpp ****     t->next = iter;
 158              		.loc 1 42 5 is_stmt 1
 159              		.loc 1 42 13 is_stmt 0
 160 00c8 2334F504 		sd	a5,72(a0)
  43:src/kernel/scheduler.cpp ****     if(prev)
 161              		.loc 1 43 5 is_stmt 1
 162 00cc 630A0600 		beqz	a2,.L14
  44:src/kernel/scheduler.cpp ****         prev->next = t;
 163              		.loc 1 44 9
 164              		.loc 1 44 20 is_stmt 0
 165 00d0 2334A604 		sd	a0,72(a2)
 166              	.LVL8:
 167              	.L11:
  45:src/kernel/scheduler.cpp ****     else
  46:src/kernel/scheduler.cpp ****         sleepingHead = t;
  47:src/kernel/scheduler.cpp **** }
 168              		.loc 1 47 1
 169 00d4 03348100 		ld	s0,8(sp)
 170              		.cfi_remember_state
 171              		.cfi_restore 8
 172              		.cfi_def_cfa 2, 16
 173 00d8 13010101 		addi	sp,sp,16
 174              		.cfi_def_cfa_offset 0
 175 00dc 67800000 		jr	ra
 176              	.LVL9:
GAS LISTING /tmp/ccEq1nYA.s 			page 5


 177              	.L14:
 178              		.cfi_restore_state
  46:src/kernel/scheduler.cpp **** }
 179              		.loc 1 46 9 is_stmt 1
  46:src/kernel/scheduler.cpp **** }
 180              		.loc 1 46 22 is_stmt 0
 181 00e0 97070000 		sd	a0,.LANCHOR0+16,a5
 181      23B0A700 
 182              	.LVL10:
 183              		.loc 1 47 1
 184 00e8 6FF0DFFE 		j	.L11
 185              		.cfi_endproc
 186              	.LFE47:
 188              		.align	2
 189              		.globl	_ZN9Scheduler5awakeEv
 191              	_ZN9Scheduler5awakeEv:
 192              	.LFB48:
  48:src/kernel/scheduler.cpp **** 
  49:src/kernel/scheduler.cpp **** //try and awake all threads whose awake time is less than global time
  50:src/kernel/scheduler.cpp **** void Scheduler::awake(){
 193              		.loc 1 50 24 is_stmt 1
 194              		.cfi_startproc
 195 00ec 130101FE 		addi	sp,sp,-32
 196              		.cfi_def_cfa_offset 32
 197 00f0 233C1100 		sd	ra,24(sp)
 198 00f4 23388100 		sd	s0,16(sp)
 199 00f8 23349100 		sd	s1,8(sp)
 200              		.cfi_offset 1, -8
 201              		.cfi_offset 8, -16
 202              		.cfi_offset 9, -24
 203 00fc 13040102 		addi	s0,sp,32
 204              		.cfi_def_cfa 8, 0
 205              	.L19:
  51:src/kernel/scheduler.cpp ****     while(sleepingHead){
 206              		.loc 1 51 5
 207              		.loc 1 51 11
 208 0100 97040000 		ld	s1,.LANCHOR0+16
 208      83B40400 
 209 0108 638C0402 		beqz	s1,.L17
 210              	.LBB2:
  52:src/kernel/scheduler.cpp ****         TCB* tmp = sleepingHead;
 211              		.loc 1 52 9
 212              	.LVL11:
  53:src/kernel/scheduler.cpp **** 
  54:src/kernel/scheduler.cpp ****         if(tmp->wakeTime <= RiscV::globalTime){
 213              		.loc 1 54 9
 214              		.loc 1 54 17 is_stmt 0
 215 010c 03B78405 		ld	a4,88(s1)
 216              		.loc 1 54 26
 217 0110 97070000 		la	a5,_ZN5RiscV10globalTimeE
 217      83B70700 
 218 0118 83B70700 		ld	a5,0(a5)
 219              		.loc 1 54 9
 220 011c 63E2E702 		bgtu	a4,a5,.L17
  55:src/kernel/scheduler.cpp ****             sleepingHead = sleepingHead->next;
 221              		.loc 1 55 13 is_stmt 1
 222              		.loc 1 55 42 is_stmt 0
GAS LISTING /tmp/ccEq1nYA.s 			page 6


 223 0120 83B78404 		ld	a5,72(s1)
 224              		.loc 1 55 26
 225 0124 17070000 		sd	a5,.LANCHOR0+16,a4
 225      2330F700 
  56:src/kernel/scheduler.cpp ****             put(tmp);
 226              		.loc 1 56 13 is_stmt 1
 227              		.loc 1 56 16 is_stmt 0
 228 012c 13850400 		mv	a0,s1
 229 0130 97000000 		call	_ZN9Scheduler3putEP3TCB
 229      E7800000 
 230              	.LVL12:
  57:src/kernel/scheduler.cpp ****             tmp->next = nullptr;
 231              		.loc 1 57 13 is_stmt 1
 232              		.loc 1 57 23 is_stmt 0
 233 0138 23B40404 		sd	zero,72(s1)
 234              	.LBE2:
  51:src/kernel/scheduler.cpp ****         TCB* tmp = sleepingHead;
 235              		.loc 1 51 5
 236 013c 6FF05FFC 		j	.L19
 237              	.LVL13:
 238              	.L17:
  58:src/kernel/scheduler.cpp ****         }
  59:src/kernel/scheduler.cpp ****         else{
  60:src/kernel/scheduler.cpp ****             break;
  61:src/kernel/scheduler.cpp ****         }
  62:src/kernel/scheduler.cpp ****     }
  63:src/kernel/scheduler.cpp **** }
 239              		.loc 1 63 1
 240 0140 83308101 		ld	ra,24(sp)
 241              		.cfi_restore 1
 242 0144 03340101 		ld	s0,16(sp)
 243              		.cfi_restore 8
 244              		.cfi_def_cfa 2, 32
 245 0148 83348100 		ld	s1,8(sp)
 246              		.cfi_restore 9
 247 014c 13010102 		addi	sp,sp,32
 248              		.cfi_def_cfa_offset 0
 249 0150 67800000 		jr	ra
 250              		.cfi_endproc
 251              	.LFE48:
 253              		.section	.rodata.str1.8,"aMS",@progbits,1
 254              		.align	3
 255              	.LC0:
 256 0000 0A00     		.string	"\n"
 257              		.text
 258              		.align	2
 259              		.globl	_ZN9Scheduler13showSchedulerEv
 261              	_ZN9Scheduler13showSchedulerEv:
 262              	.LFB49:
  64:src/kernel/scheduler.cpp **** 
  65:src/kernel/scheduler.cpp **** //utility function to print all threads currently in scheduler
  66:src/kernel/scheduler.cpp **** void Scheduler::showScheduler() {
 263              		.loc 1 66 33 is_stmt 1
 264              		.cfi_startproc
 265 0154 130101FE 		addi	sp,sp,-32
 266              		.cfi_def_cfa_offset 32
 267 0158 233C1100 		sd	ra,24(sp)
GAS LISTING /tmp/ccEq1nYA.s 			page 7


 268 015c 23388100 		sd	s0,16(sp)
 269 0160 23349100 		sd	s1,8(sp)
 270              		.cfi_offset 1, -8
 271              		.cfi_offset 8, -16
 272              		.cfi_offset 9, -24
 273 0164 13040102 		addi	s0,sp,32
 274              		.cfi_def_cfa 8, 0
  67:src/kernel/scheduler.cpp ****     TCB* iter = readyHead;
 275              		.loc 1 67 5
 276              		.loc 1 67 10 is_stmt 0
 277 0168 97040000 		ld	s1,.LANCHOR0
 277      83B40400 
 278              	.LVL14:
 279              	.L23:
  68:src/kernel/scheduler.cpp ****     while(iter){
 280              		.loc 1 68 5 is_stmt 1
 281              		.loc 1 68 11
 282 0170 63880402 		beqz	s1,.L21
  69:src/kernel/scheduler.cpp ****         ConsoleUtil::printInt((uint64)iter, 16);
 283              		.loc 1 69 9
 284              		.loc 1 69 30 is_stmt 0
 285 0174 13060000 		li	a2,0
 286 0178 93050001 		li	a1,16
 287 017c 1B850400 		sext.w	a0,s1
 288 0180 97000000 		call	_ZN11ConsoleUtil8printIntEiii@plt
 288      E7800000 
 289              	.LVL15:
  70:src/kernel/scheduler.cpp ****         ConsoleUtil::printString("\n");
 290              		.loc 1 70 9 is_stmt 1
 291              		.loc 1 70 33 is_stmt 0
 292 0188 17050000 		lla	a0,.LC0
 292      13050500 
 293 0190 97000000 		call	_ZN11ConsoleUtil11printStringEPKc@plt
 293      E7800000 
 294              	.LVL16:
  71:src/kernel/scheduler.cpp ****         iter = iter->next;
 295              		.loc 1 71 9 is_stmt 1
 296              		.loc 1 71 14 is_stmt 0
 297 0198 83B48404 		ld	s1,72(s1)
 298              	.LVL17:
  68:src/kernel/scheduler.cpp ****         ConsoleUtil::printInt((uint64)iter, 16);
 299              		.loc 1 68 5
 300 019c 6FF05FFD 		j	.L23
 301              	.L21:
  72:src/kernel/scheduler.cpp ****     }
  73:src/kernel/scheduler.cpp **** }
 302              		.loc 1 73 1
 303 01a0 83308101 		ld	ra,24(sp)
 304              		.cfi_restore 1
 305 01a4 03340101 		ld	s0,16(sp)
 306              		.cfi_restore 8
 307              		.cfi_def_cfa 2, 32
 308 01a8 83348100 		ld	s1,8(sp)
 309              		.cfi_restore 9
 310              	.LVL18:
 311 01ac 13010102 		addi	sp,sp,32
 312              		.cfi_def_cfa_offset 0
GAS LISTING /tmp/ccEq1nYA.s 			page 8


 313 01b0 67800000 		jr	ra
 314              		.cfi_endproc
 315              	.LFE49:
 317              		.align	2
 318              		.globl	_ZN9Scheduler12showSleepingEv
 320              	_ZN9Scheduler12showSleepingEv:
 321              	.LFB50:
  74:src/kernel/scheduler.cpp **** 
  75:src/kernel/scheduler.cpp **** //utility function to print all threads currently in sleep
  76:src/kernel/scheduler.cpp **** void Scheduler::showSleeping(){
 322              		.loc 1 76 31 is_stmt 1
 323              		.cfi_startproc
 324 01b4 130101FE 		addi	sp,sp,-32
 325              		.cfi_def_cfa_offset 32
 326 01b8 233C1100 		sd	ra,24(sp)
 327 01bc 23388100 		sd	s0,16(sp)
 328 01c0 23349100 		sd	s1,8(sp)
 329              		.cfi_offset 1, -8
 330              		.cfi_offset 8, -16
 331              		.cfi_offset 9, -24
 332 01c4 13040102 		addi	s0,sp,32
 333              		.cfi_def_cfa 8, 0
  77:src/kernel/scheduler.cpp ****     TCB* iter = sleepingHead;
 334              		.loc 1 77 5
 335              		.loc 1 77 10 is_stmt 0
 336 01c8 97040000 		ld	s1,.LANCHOR0+16
 336      83B40400 
 337              	.LVL19:
 338              	.L27:
  78:src/kernel/scheduler.cpp ****     while(iter){
 339              		.loc 1 78 5 is_stmt 1
 340              		.loc 1 78 11
 341 01d0 63880402 		beqz	s1,.L25
  79:src/kernel/scheduler.cpp ****         printInt((uint64)iter, 16);
 342              		.loc 1 79 9
 343              		.loc 1 79 17 is_stmt 0
 344 01d4 13060000 		li	a2,0
 345 01d8 93050001 		li	a1,16
 346 01dc 1B850400 		sext.w	a0,s1
 347 01e0 97000000 		call	_Z8printIntiii@plt
 347      E7800000 
 348              	.LVL20:
  80:src/kernel/scheduler.cpp ****         printString("\n");
 349              		.loc 1 80 9 is_stmt 1
 350              		.loc 1 80 20 is_stmt 0
 351 01e8 17050000 		lla	a0,.LC0
 351      13050500 
 352 01f0 97000000 		call	_Z11printStringPKc@plt
 352      E7800000 
 353              	.LVL21:
  81:src/kernel/scheduler.cpp ****         iter = iter->next;
 354              		.loc 1 81 9 is_stmt 1
 355              		.loc 1 81 14 is_stmt 0
 356 01f8 83B48404 		ld	s1,72(s1)
 357              	.LVL22:
  78:src/kernel/scheduler.cpp ****         printInt((uint64)iter, 16);
 358              		.loc 1 78 5
GAS LISTING /tmp/ccEq1nYA.s 			page 9


 359 01fc 6FF05FFD 		j	.L27
 360              	.L25:
  82:src/kernel/scheduler.cpp ****     }
  83:src/kernel/scheduler.cpp **** }...
 361              		.loc 1 83 1
 362 0200 83308101 		ld	ra,24(sp)
 363              		.cfi_restore 1
 364 0204 03340101 		ld	s0,16(sp)
 365              		.cfi_restore 8
 366              		.cfi_def_cfa 2, 32
 367 0208 83348100 		ld	s1,8(sp)
 368              		.cfi_restore 9
 369              	.LVL23:
 370 020c 13010102 		addi	sp,sp,32
 371              		.cfi_def_cfa_offset 0
 372 0210 67800000 		jr	ra
 373              		.cfi_endproc
 374              	.LFE50:
 376              		.globl	_ZN9Scheduler12sleepingHeadE
 377              		.globl	_ZN9Scheduler9readyTailE
 378              		.globl	_ZN9Scheduler9readyHeadE
 379              		.bss
 380              		.align	3
 381              		.set	.LANCHOR0,. + 0
 384              	_ZN9Scheduler9readyHeadE:
 385 0000 00000000 		.zero	8
 385      00000000 
 388              	_ZN9Scheduler9readyTailE:
 389 0008 00000000 		.zero	8
 389      00000000 
 392              	_ZN9Scheduler12sleepingHeadE:
 393 0010 00000000 		.zero	8
 393      00000000 
 394              		.text
 395              	.Letext0:
 396              		.file 2 "src/kernel/../../h/kernel/../../lib/hw.h"
 397              		.file 3 "src/kernel/../../h/kernel/utility.hpp"
 398              		.file 4 "src/kernel/../../h/kernel/console_util.hpp"
 399              		.file 5 "src/kernel/../../h/kernel/slab_t.hpp"
 400              		.file 6 "src/kernel/../../h/kernel/cache_t.hpp"
 401              		.file 7 "src/kernel/../../h/kernel/tcb.hpp"
 402              		.file 8 "src/kernel/../../h/kernel/scheduler.hpp"
 403              		.file 9 "src/kernel/../../h/user/printing.hpp"
GAS LISTING /tmp/ccEq1nYA.s 			page 10


DEFINED SYMBOLS
                            *ABS*:0000000000000000 scheduler.cpp
     /tmp/ccEq1nYA.s:9      .text:0000000000000000 _ZN9Scheduler10initializeEv
     /tmp/ccEq1nYA.s:13     .text:0000000000000000 .L0 
     /tmp/ccEq1nYA.s:14     .text:0000000000000000 .L0 
     /tmp/ccEq1nYA.s:15     .text:0000000000000004 .L0 
     /tmp/ccEq1nYA.s:17     .text:0000000000000008 .L0 
     /tmp/ccEq1nYA.s:19     .text:000000000000000c .L0 
     /tmp/ccEq1nYA.s:21     .text:000000000000000c .L0 
     /tmp/ccEq1nYA.s:22     .text:0000000000000010 .L0 
     /tmp/ccEq1nYA.s:23     .text:0000000000000010 .L0 
     /tmp/ccEq1nYA.s:25     .text:0000000000000014 .L0 
     /tmp/ccEq1nYA.s:27     .text:0000000000000018 .L0 
     /tmp/ccEq1nYA.s:33     .text:0000000000000018 _ZN9Scheduler3putEP3TCB
     /tmp/ccEq1nYA.s:36     .text:0000000000000018 .L0 
     /tmp/ccEq1nYA.s:38     .text:0000000000000018 .L0 
     /tmp/ccEq1nYA.s:39     .text:000000000000001c .L0 
     /tmp/ccEq1nYA.s:41     .text:0000000000000020 .L0 
     /tmp/ccEq1nYA.s:43     .text:0000000000000024 .L0 
     /tmp/ccEq1nYA.s:45     .text:0000000000000024 .L0 
     /tmp/ccEq1nYA.s:46     .text:0000000000000024 .L0 
     /tmp/ccEq1nYA.s:48     .text:0000000000000028 .L0 
     /tmp/ccEq1nYA.s:49     .text:0000000000000028 .L0 
     /tmp/ccEq1nYA.s:51     .text:0000000000000030 .L0 
     /tmp/ccEq1nYA.s:53     .text:0000000000000034 .L0 
     /tmp/ccEq1nYA.s:55     .text:000000000000003c .L0 
     /tmp/ccEq1nYA.s:58     .text:0000000000000040 .L0 
     /tmp/ccEq1nYA.s:60     .text:0000000000000048 .L0 
     /tmp/ccEq1nYA.s:61     .text:000000000000004c .L0 
     /tmp/ccEq1nYA.s:62     .text:000000000000004c .L0 
     /tmp/ccEq1nYA.s:63     .text:000000000000004c .L0 
     /tmp/ccEq1nYA.s:65     .text:0000000000000050 .L0 
     /tmp/ccEq1nYA.s:68     .text:0000000000000054 .L0 
     /tmp/ccEq1nYA.s:70     .text:0000000000000054 .L0 
     /tmp/ccEq1nYA.s:72     .text:0000000000000060 .L0 
     /tmp/ccEq1nYA.s:78     .text:0000000000000060 _ZN9Scheduler3getEv
     /tmp/ccEq1nYA.s:81     .text:0000000000000060 .L0 
     /tmp/ccEq1nYA.s:82     .text:0000000000000060 .L0 
     /tmp/ccEq1nYA.s:83     .text:0000000000000064 .L0 
     /tmp/ccEq1nYA.s:85     .text:0000000000000068 .L0 
     /tmp/ccEq1nYA.s:87     .text:000000000000006c .L0 
     /tmp/ccEq1nYA.s:89     .text:000000000000006c .L0 
     /tmp/ccEq1nYA.s:90     .text:000000000000006c .L0 
     /tmp/ccEq1nYA.s:92     .text:0000000000000074 .L0 
     /tmp/ccEq1nYA.s:95     .text:0000000000000078 .L0 
     /tmp/ccEq1nYA.s:96     .text:0000000000000078 .L0 
     /tmp/ccEq1nYA.s:97     .text:0000000000000078 .L0 
     /tmp/ccEq1nYA.s:99     .text:000000000000007c .L0 
     /tmp/ccEq1nYA.s:101    .text:0000000000000084 .L0 
     /tmp/ccEq1nYA.s:102    .text:0000000000000084 .L0 
     /tmp/ccEq1nYA.s:106    .text:0000000000000088 .L0 
     /tmp/ccEq1nYA.s:107    .text:0000000000000088 .L0 
     /tmp/ccEq1nYA.s:108    .text:000000000000008c .L0 
     /tmp/ccEq1nYA.s:109    .text:000000000000008c .L0 
     /tmp/ccEq1nYA.s:111    .text:0000000000000090 .L0 
     /tmp/ccEq1nYA.s:113    .text:0000000000000094 .L0 
     /tmp/ccEq1nYA.s:119    .text:0000000000000094 _ZN9Scheduler5sleepEP3TCB
GAS LISTING /tmp/ccEq1nYA.s 			page 11


     /tmp/ccEq1nYA.s:122    .text:0000000000000094 .L0 
     /tmp/ccEq1nYA.s:124    .text:0000000000000094 .L0 
     /tmp/ccEq1nYA.s:125    .text:0000000000000098 .L0 
     /tmp/ccEq1nYA.s:127    .text:000000000000009c .L0 
     /tmp/ccEq1nYA.s:129    .text:00000000000000a0 .L0 
     /tmp/ccEq1nYA.s:131    .text:00000000000000a0 .L0 
     /tmp/ccEq1nYA.s:132    .text:00000000000000a0 .L0 
     /tmp/ccEq1nYA.s:135    .text:00000000000000a8 .L0 
     /tmp/ccEq1nYA.s:139    .text:00000000000000ac .L0 
     /tmp/ccEq1nYA.s:140    .text:00000000000000ac .L0 
     /tmp/ccEq1nYA.s:142    .text:00000000000000b0 .L0 
     /tmp/ccEq1nYA.s:143    .text:00000000000000b0 .L0 
     /tmp/ccEq1nYA.s:145    .text:00000000000000b4 .L0 
     /tmp/ccEq1nYA.s:147    .text:00000000000000b8 .L0 
     /tmp/ccEq1nYA.s:150    .text:00000000000000bc .L0 
     /tmp/ccEq1nYA.s:151    .text:00000000000000bc .L0 
     /tmp/ccEq1nYA.s:153    .text:00000000000000c0 .L0 
     /tmp/ccEq1nYA.s:156    .text:00000000000000c4 .L0 
     /tmp/ccEq1nYA.s:159    .text:00000000000000c8 .L0 
     /tmp/ccEq1nYA.s:160    .text:00000000000000c8 .L0 
     /tmp/ccEq1nYA.s:162    .text:00000000000000cc .L0 
     /tmp/ccEq1nYA.s:164    .text:00000000000000d0 .L0 
     /tmp/ccEq1nYA.s:165    .text:00000000000000d0 .L0 
     /tmp/ccEq1nYA.s:169    .text:00000000000000d4 .L0 
     /tmp/ccEq1nYA.s:170    .text:00000000000000d8 .L0 
     /tmp/ccEq1nYA.s:171    .text:00000000000000d8 .L0 
     /tmp/ccEq1nYA.s:172    .text:00000000000000d8 .L0 
     /tmp/ccEq1nYA.s:174    .text:00000000000000dc .L0 
     /tmp/ccEq1nYA.s:178    .text:00000000000000e0 .L0 
     /tmp/ccEq1nYA.s:180    .text:00000000000000e0 .L0 
     /tmp/ccEq1nYA.s:181    .text:00000000000000e0 .L0 
     /tmp/ccEq1nYA.s:184    .text:00000000000000e8 .L0 
     /tmp/ccEq1nYA.s:185    .text:00000000000000ec .L0 
     /tmp/ccEq1nYA.s:191    .text:00000000000000ec _ZN9Scheduler5awakeEv
     /tmp/ccEq1nYA.s:194    .text:00000000000000ec .L0 
     /tmp/ccEq1nYA.s:195    .text:00000000000000ec .L0 
     /tmp/ccEq1nYA.s:196    .text:00000000000000f0 .L0 
     /tmp/ccEq1nYA.s:200    .text:00000000000000fc .L0 
     /tmp/ccEq1nYA.s:201    .text:00000000000000fc .L0 
     /tmp/ccEq1nYA.s:202    .text:00000000000000fc .L0 
     /tmp/ccEq1nYA.s:204    .text:0000000000000100 .L0 
     /tmp/ccEq1nYA.s:207    .text:0000000000000100 .L0 
     /tmp/ccEq1nYA.s:208    .text:0000000000000100 .L0 
     /tmp/ccEq1nYA.s:213    .text:000000000000010c .L0 
     /tmp/ccEq1nYA.s:214    .text:000000000000010c .L0 
     /tmp/ccEq1nYA.s:215    .text:000000000000010c .L0 
     /tmp/ccEq1nYA.s:217    .text:0000000000000110 .L0 
     /tmp/ccEq1nYA.s:220    .text:000000000000011c .L0 
     /tmp/ccEq1nYA.s:222    .text:0000000000000120 .L0 
     /tmp/ccEq1nYA.s:223    .text:0000000000000120 .L0 
     /tmp/ccEq1nYA.s:225    .text:0000000000000124 .L0 
     /tmp/ccEq1nYA.s:227    .text:000000000000012c .L0 
     /tmp/ccEq1nYA.s:228    .text:000000000000012c .L0 
     /tmp/ccEq1nYA.s:232    .text:0000000000000138 .L0 
     /tmp/ccEq1nYA.s:233    .text:0000000000000138 .L0 
     /tmp/ccEq1nYA.s:236    .text:000000000000013c .L0 
     /tmp/ccEq1nYA.s:240    .text:0000000000000140 .L0 
GAS LISTING /tmp/ccEq1nYA.s 			page 12


     /tmp/ccEq1nYA.s:241    .text:0000000000000144 .L0 
     /tmp/ccEq1nYA.s:243    .text:0000000000000148 .L0 
     /tmp/ccEq1nYA.s:244    .text:0000000000000148 .L0 
     /tmp/ccEq1nYA.s:246    .text:000000000000014c .L0 
     /tmp/ccEq1nYA.s:248    .text:0000000000000150 .L0 
     /tmp/ccEq1nYA.s:250    .text:0000000000000154 .L0 
     /tmp/ccEq1nYA.s:261    .text:0000000000000154 _ZN9Scheduler13showSchedulerEv
     /tmp/ccEq1nYA.s:264    .text:0000000000000154 .L0 
     /tmp/ccEq1nYA.s:265    .text:0000000000000154 .L0 
     /tmp/ccEq1nYA.s:266    .text:0000000000000158 .L0 
     /tmp/ccEq1nYA.s:270    .text:0000000000000164 .L0 
     /tmp/ccEq1nYA.s:271    .text:0000000000000164 .L0 
     /tmp/ccEq1nYA.s:272    .text:0000000000000164 .L0 
     /tmp/ccEq1nYA.s:274    .text:0000000000000168 .L0 
     /tmp/ccEq1nYA.s:276    .text:0000000000000168 .L0 
     /tmp/ccEq1nYA.s:277    .text:0000000000000168 .L0 
     /tmp/ccEq1nYA.s:281    .text:0000000000000170 .L0 
     /tmp/ccEq1nYA.s:282    .text:0000000000000170 .L0 
     /tmp/ccEq1nYA.s:284    .text:0000000000000174 .L0 
     /tmp/ccEq1nYA.s:285    .text:0000000000000174 .L0 
     /tmp/ccEq1nYA.s:291    .text:0000000000000188 .L0 
     /tmp/ccEq1nYA.s:292    .text:0000000000000188 .L0 
     /tmp/ccEq1nYA.s:296    .text:0000000000000198 .L0 
     /tmp/ccEq1nYA.s:297    .text:0000000000000198 .L0 
     /tmp/ccEq1nYA.s:300    .text:000000000000019c .L0 
     /tmp/ccEq1nYA.s:303    .text:00000000000001a0 .L0 
     /tmp/ccEq1nYA.s:304    .text:00000000000001a4 .L0 
     /tmp/ccEq1nYA.s:306    .text:00000000000001a8 .L0 
     /tmp/ccEq1nYA.s:307    .text:00000000000001a8 .L0 
     /tmp/ccEq1nYA.s:309    .text:00000000000001ac .L0 
     /tmp/ccEq1nYA.s:312    .text:00000000000001b0 .L0 
     /tmp/ccEq1nYA.s:314    .text:00000000000001b4 .L0 
     /tmp/ccEq1nYA.s:320    .text:00000000000001b4 _ZN9Scheduler12showSleepingEv
     /tmp/ccEq1nYA.s:323    .text:00000000000001b4 .L0 
     /tmp/ccEq1nYA.s:324    .text:00000000000001b4 .L0 
     /tmp/ccEq1nYA.s:325    .text:00000000000001b8 .L0 
     /tmp/ccEq1nYA.s:329    .text:00000000000001c4 .L0 
     /tmp/ccEq1nYA.s:330    .text:00000000000001c4 .L0 
     /tmp/ccEq1nYA.s:331    .text:00000000000001c4 .L0 
     /tmp/ccEq1nYA.s:333    .text:00000000000001c8 .L0 
     /tmp/ccEq1nYA.s:335    .text:00000000000001c8 .L0 
     /tmp/ccEq1nYA.s:336    .text:00000000000001c8 .L0 
     /tmp/ccEq1nYA.s:340    .text:00000000000001d0 .L0 
     /tmp/ccEq1nYA.s:341    .text:00000000000001d0 .L0 
     /tmp/ccEq1nYA.s:343    .text:00000000000001d4 .L0 
     /tmp/ccEq1nYA.s:344    .text:00000000000001d4 .L0 
     /tmp/ccEq1nYA.s:350    .text:00000000000001e8 .L0 
     /tmp/ccEq1nYA.s:351    .text:00000000000001e8 .L0 
     /tmp/ccEq1nYA.s:355    .text:00000000000001f8 .L0 
     /tmp/ccEq1nYA.s:356    .text:00000000000001f8 .L0 
     /tmp/ccEq1nYA.s:359    .text:00000000000001fc .L0 
     /tmp/ccEq1nYA.s:362    .text:0000000000000200 .L0 
     /tmp/ccEq1nYA.s:363    .text:0000000000000204 .L0 
     /tmp/ccEq1nYA.s:365    .text:0000000000000208 .L0 
     /tmp/ccEq1nYA.s:366    .text:0000000000000208 .L0 
     /tmp/ccEq1nYA.s:368    .text:000000000000020c .L0 
     /tmp/ccEq1nYA.s:371    .text:0000000000000210 .L0 
GAS LISTING /tmp/ccEq1nYA.s 			page 13


     /tmp/ccEq1nYA.s:373    .text:0000000000000214 .L0 
     /tmp/ccEq1nYA.s:392    .bss:0000000000000010 _ZN9Scheduler12sleepingHeadE
     /tmp/ccEq1nYA.s:388    .bss:0000000000000008 _ZN9Scheduler9readyTailE
     /tmp/ccEq1nYA.s:384    .bss:0000000000000000 _ZN9Scheduler9readyHeadE
     /tmp/ccEq1nYA.s:381    .bss:0000000000000000 .LANCHOR0
     /tmp/ccEq1nYA.s:404    .text:0000000000000214 .L0 
     /tmp/ccEq1nYA.s:49     .text:0000000000000028 .L0 
     /tmp/ccEq1nYA.s:53     .text:0000000000000034 .L0 
     /tmp/ccEq1nYA.s:58     .text:0000000000000040 .L0 
     /tmp/ccEq1nYA.s:70     .text:0000000000000054 .L0 
     /tmp/ccEq1nYA.s:90     .text:000000000000006c .L0 
     /tmp/ccEq1nYA.s:99     .text:000000000000007c .L0 
     /tmp/ccEq1nYA.s:132    .text:00000000000000a0 .L0 
     /tmp/ccEq1nYA.s:181    .text:00000000000000e0 .L0 
     /tmp/ccEq1nYA.s:208    .text:0000000000000100 .L0 
     /tmp/ccEq1nYA.s:217    .text:0000000000000110 .L0 
     /tmp/ccEq1nYA.s:225    .text:0000000000000124 .L0 
     /tmp/ccEq1nYA.s:277    .text:0000000000000168 .L0 
     /tmp/ccEq1nYA.s:255    .rodata.str1.8:0000000000000000 .LC0
     /tmp/ccEq1nYA.s:292    .text:0000000000000188 .L0 
     /tmp/ccEq1nYA.s:336    .text:00000000000001c8 .L0 
     /tmp/ccEq1nYA.s:351    .text:00000000000001e8 .L0 
     /tmp/ccEq1nYA.s:67     .text:0000000000000054 .L7
     /tmp/ccEq1nYA.s:56     .text:0000000000000040 .L5
     /tmp/ccEq1nYA.s:105    .text:0000000000000088 .L8
     /tmp/ccEq1nYA.s:157    .text:00000000000000c8 .L12
     /tmp/ccEq1nYA.s:137    .text:00000000000000ac .L13
     /tmp/ccEq1nYA.s:177    .text:00000000000000e0 .L14
     /tmp/ccEq1nYA.s:167    .text:00000000000000d4 .L11
     /tmp/ccEq1nYA.s:238    .text:0000000000000140 .L17
     /tmp/ccEq1nYA.s:205    .text:0000000000000100 .L19
     /tmp/ccEq1nYA.s:301    .text:00000000000001a0 .L21
     /tmp/ccEq1nYA.s:279    .text:0000000000000170 .L23
     /tmp/ccEq1nYA.s:360    .text:0000000000000200 .L25
     /tmp/ccEq1nYA.s:338    .text:00000000000001d0 .L27
     /tmp/ccEq1nYA.s:1646   .debug_abbrev:0000000000000000 .Ldebug_abbrev0
     /tmp/ccEq1nYA.s:2791   .debug_str:00000000000007a2 .LASF145
     /tmp/ccEq1nYA.s:2539   .debug_str:00000000000000b9 .LASF146
     /tmp/ccEq1nYA.s:2761   .debug_str:00000000000006a3 .LASF147
     /tmp/ccEq1nYA.s:5      .text:0000000000000000 .Ltext0
     /tmp/ccEq1nYA.s:395    .text:0000000000000214 .Letext0
     /tmp/ccEq1nYA.s:2509   .debug_line:0000000000000000 .Ldebug_line0
     /tmp/ccEq1nYA.s:2535   .debug_str:00000000000000a7 .LASF0
     /tmp/ccEq1nYA.s:2789   .debug_str:000000000000078f .LASF1
     /tmp/ccEq1nYA.s:2763   .debug_str:00000000000006d4 .LASF2
     /tmp/ccEq1nYA.s:2733   .debug_str:00000000000005e6 .LASF4
     /tmp/ccEq1nYA.s:2741   .debug_str:0000000000000613 .LASF3
     /tmp/ccEq1nYA.s:2593   .debug_str:0000000000000267 .LASF5
     /tmp/ccEq1nYA.s:2623   .debug_str:000000000000031c .LASF6
     /tmp/ccEq1nYA.s:2695   .debug_str:00000000000004fc .LASF7
     /tmp/ccEq1nYA.s:2557   .debug_str:0000000000000135 .LASF8
     /tmp/ccEq1nYA.s:2785   .debug_str:0000000000000768 .LASF9
     /tmp/ccEq1nYA.s:2597   .debug_str:0000000000000279 .LASF10
     /tmp/ccEq1nYA.s:2569   .debug_str:0000000000000181 .LASF11
     /tmp/ccEq1nYA.s:2633   .debug_str:000000000000035b .LASF12
     /tmp/ccEq1nYA.s:2601   .debug_str:0000000000000292 .LASF13
     /tmp/ccEq1nYA.s:2719   .debug_str:00000000000005a0 .LASF14
GAS LISTING /tmp/ccEq1nYA.s 			page 14


     /tmp/ccEq1nYA.s:2603   .debug_str:00000000000002a2 .LASF15
     /tmp/ccEq1nYA.s:2585   .debug_str:000000000000020f .LASF16
     /tmp/ccEq1nYA.s:2621   .debug_str:0000000000000317 .LASF17
     /tmp/ccEq1nYA.s:2749   .debug_str:0000000000000654 .LASF18
     /tmp/ccEq1nYA.s:2805   .debug_str:00000000000008a7 .LASF19
     /tmp/ccEq1nYA.s:2575   .debug_str:00000000000001b1 .LASF20
     /tmp/ccEq1nYA.s:2513   .debug_str:000000000000000c .LASF21
     /tmp/ccEq1nYA.s:2803   .debug_str:0000000000000899 .LASF22
     /tmp/ccEq1nYA.s:2643   .debug_str:00000000000003b8 .LASF23
     /tmp/ccEq1nYA.s:2809   .debug_str:00000000000008c1 .LASF52
     /tmp/ccEq1nYA.s:2579   .debug_str:00000000000001cf .LASF24
     /tmp/ccEq1nYA.s:2739   .debug_str:0000000000000607 .LASF25
     /tmp/ccEq1nYA.s:2675   .debug_str:0000000000000489 .LASF26
     /tmp/ccEq1nYA.s:2645   .debug_str:00000000000003bd .LASF27
     /tmp/ccEq1nYA.s:2515   .debug_str:0000000000000018 .LASF28
     /tmp/ccEq1nYA.s:2581   .debug_str:00000000000001db .LASF29
     /tmp/ccEq1nYA.s:2765   .debug_str:00000000000006e2 .LASF30
     /tmp/ccEq1nYA.s:2525   .debug_str:000000000000005c .LASF31
     /tmp/ccEq1nYA.s:2737   .debug_str:00000000000005fd .LASF32
     /tmp/ccEq1nYA.s:2567   .debug_str:0000000000000176 .LASF33
     /tmp/ccEq1nYA.s:2527   .debug_str:0000000000000066 .LASF34
     /tmp/ccEq1nYA.s:2777   .debug_str:0000000000000739 .LASF35
     /tmp/ccEq1nYA.s:2729   .debug_str:00000000000005c4 .LASF37
     /tmp/ccEq1nYA.s:2701   .debug_str:0000000000000525 .LASF39
     /tmp/ccEq1nYA.s:2519   .debug_str:000000000000002a .LASF41
     /tmp/ccEq1nYA.s:2647   .debug_str:00000000000003c6 .LASF36
     /tmp/ccEq1nYA.s:2559   .debug_str:0000000000000145 .LASF38
     /tmp/ccEq1nYA.s:2541   .debug_str:00000000000000d2 .LASF40
     /tmp/ccEq1nYA.s:2811   .debug_str:00000000000008cd .LASF42
     /tmp/ccEq1nYA.s:2595   .debug_str:000000000000026e .LASF96
     /tmp/ccEq1nYA.s:2649   .debug_str:00000000000003d0 .LASF98
     /tmp/ccEq1nYA.s:2735   .debug_str:00000000000005ed .LASF43
     /tmp/ccEq1nYA.s:2637   .debug_str:0000000000000374 .LASF44
     /tmp/ccEq1nYA.s:2553   .debug_str:0000000000000122 .LASF45
     /tmp/ccEq1nYA.s:2773   .debug_str:0000000000000715 .LASF47
     /tmp/ccEq1nYA.s:2699   .debug_str:0000000000000519 .LASF46
     /tmp/ccEq1nYA.s:2679   .debug_str:00000000000004a2 .LASF48
     /tmp/ccEq1nYA.s:2681   .debug_str:00000000000004c4 .LASF49
     /tmp/ccEq1nYA.s:2651   .debug_str:00000000000003ef .LASF50
     /tmp/ccEq1nYA.s:2629   .debug_str:0000000000000347 .LASF51
     /tmp/ccEq1nYA.s:2727   .debug_str:00000000000005be .LASF53
     /tmp/ccEq1nYA.s:2723   .debug_str:00000000000005b1 .LASF54
     /tmp/ccEq1nYA.s:2659   .debug_str:000000000000042e .LASF55
     /tmp/ccEq1nYA.s:2691   .debug_str:00000000000004ee .LASF56
     /tmp/ccEq1nYA.s:2627   .debug_str:000000000000033f .LASF57
     /tmp/ccEq1nYA.s:2547   .debug_str:000000000000010b .LASF58
     /tmp/ccEq1nYA.s:2683   .debug_str:00000000000004ca .LASF59
     /tmp/ccEq1nYA.s:2565   .debug_str:000000000000016c .LASF60
     /tmp/ccEq1nYA.s:2807   .debug_str:00000000000008b5 .LASF61
     /tmp/ccEq1nYA.s:2717   .debug_str:0000000000000597 .LASF62
     /tmp/ccEq1nYA.s:2721   .debug_str:00000000000005ac .LASF63
     /tmp/ccEq1nYA.s:2801   .debug_str:0000000000000892 .LASF64
     /tmp/ccEq1nYA.s:2711   .debug_str:000000000000055f .LASF66
     /tmp/ccEq1nYA.s:2703   .debug_str:000000000000052e .LASF65
     /tmp/ccEq1nYA.s:2783   .debug_str:0000000000000755 .LASF67
     /tmp/ccEq1nYA.s:2551   .debug_str:000000000000011d .LASF68
     /tmp/ccEq1nYA.s:2537   .debug_str:00000000000000b4 .LASF69
GAS LISTING /tmp/ccEq1nYA.s 			page 15


     /tmp/ccEq1nYA.s:2529   .debug_str:0000000000000071 .LASF70
     /tmp/ccEq1nYA.s:2625   .debug_str:000000000000032f .LASF71
     /tmp/ccEq1nYA.s:2697   .debug_str:000000000000050f .LASF72
     /tmp/ccEq1nYA.s:2605   .debug_str:00000000000002b8 .LASF73
     /tmp/ccEq1nYA.s:2687   .debug_str:00000000000004df .LASF74
     /tmp/ccEq1nYA.s:2689   .debug_str:00000000000004e6 .LASF148
     /tmp/ccEq1nYA.s:2517   .debug_str:0000000000000023 .LASF79
     /tmp/ccEq1nYA.s:2665   .debug_str:0000000000000454 .LASF75
     /tmp/ccEq1nYA.s:2641   .debug_str:00000000000003b2 .LASF76
     /tmp/ccEq1nYA.s:2619   .debug_str:000000000000030e .LASF77
     /tmp/ccEq1nYA.s:2725   .debug_str:00000000000005b6 .LASF78
     /tmp/ccEq1nYA.s:2693   .debug_str:00000000000004f7 .LASF80
     /tmp/ccEq1nYA.s:2561   .debug_str:0000000000000162 .LASF81
     /tmp/ccEq1nYA.s:2751   .debug_str:000000000000065c .LASF82
     /tmp/ccEq1nYA.s:2511   .debug_str:0000000000000000 .LASF83
     /tmp/ccEq1nYA.s:2573   .debug_str:000000000000019a .LASF84
     /tmp/ccEq1nYA.s:2607   .debug_str:00000000000002c5 .LASF85
     /tmp/ccEq1nYA.s:2793   .debug_str:0000000000000872 .LASF86
     /tmp/ccEq1nYA.s:2657   .debug_str:0000000000000422 .LASF87
     /tmp/ccEq1nYA.s:2769   .debug_str:0000000000000700 .LASF88
     /tmp/ccEq1nYA.s:2543   .debug_str:00000000000000dc .LASF89
     /tmp/ccEq1nYA.s:2673   .debug_str:000000000000047c .LASF90
     /tmp/ccEq1nYA.s:2613   .debug_str:00000000000002e8 .LASF91
     /tmp/ccEq1nYA.s:2669   .debug_str:0000000000000467 .LASF92
     /tmp/ccEq1nYA.s:2549   .debug_str:0000000000000110 .LASF93
     /tmp/ccEq1nYA.s:2609   .debug_str:00000000000002ca .LASF94
     /tmp/ccEq1nYA.s:2743   .debug_str:0000000000000625 .LASF95
     /tmp/ccEq1nYA.s:2635   .debug_str:000000000000036b .LASF97
     /tmp/ccEq1nYA.s:2661   .debug_str:0000000000000439 .LASF99
     /tmp/ccEq1nYA.s:2755   .debug_str:000000000000066c .LASF100
     /tmp/ccEq1nYA.s:2685   .debug_str:00000000000004cf .LASF101
     /tmp/ccEq1nYA.s:2577   .debug_str:00000000000001bf .LASF102
     /tmp/ccEq1nYA.s:2599   .debug_str:0000000000000288 .LASF103
     /tmp/ccEq1nYA.s:2555   .debug_str:000000000000012b .LASF104
     /tmp/ccEq1nYA.s:2779   .debug_str:0000000000000742 .LASF105
     /tmp/ccEq1nYA.s:2583   .debug_str:00000000000001e7 .LASF106
     /tmp/ccEq1nYA.s:2521   .debug_str:0000000000000046 .LASF107
     /tmp/ccEq1nYA.s:2713   .debug_str:0000000000000571 .LASF108
     /tmp/ccEq1nYA.s:2663   .debug_str:000000000000044c .LASF109
     /tmp/ccEq1nYA.s:2631   .debug_str:0000000000000354 .LASF110
     /tmp/ccEq1nYA.s:2563   .debug_str:0000000000000167 .LASF111
     /tmp/ccEq1nYA.s:2753   .debug_str:0000000000000667 .LASF112
     /tmp/ccEq1nYA.s:2671   .debug_str:0000000000000477 .LASF113
     /tmp/ccEq1nYA.s:2731   .debug_str:00000000000005e0 .LASF114
     /tmp/ccEq1nYA.s:2523   .debug_str:0000000000000052 .LASF115
     /tmp/ccEq1nYA.s:2591   .debug_str:0000000000000262 .LASF116
     /tmp/ccEq1nYA.s:2655   .debug_str:000000000000041a .LASF117
     /tmp/ccEq1nYA.s:2533   .debug_str:000000000000009d .LASF118
     /tmp/ccEq1nYA.s:2705   .debug_str:0000000000000536 .LASF119
     /tmp/ccEq1nYA.s:2759   .debug_str:000000000000069a .LASF120
     /tmp/ccEq1nYA.s:2667   .debug_str:000000000000045c .LASF121
     /tmp/ccEq1nYA.s:2799   .debug_str:000000000000088a .LASF122
     /tmp/ccEq1nYA.s:2653   .debug_str:000000000000040f .LASF123
     /tmp/ccEq1nYA.s:2767   .debug_str:00000000000006ef .LASF124
     /tmp/ccEq1nYA.s:2797   .debug_str:0000000000000881 .LASF125
     /tmp/ccEq1nYA.s:2571   .debug_str:0000000000000190 .LASF126
     /tmp/ccEq1nYA.s:2795   .debug_str:0000000000000877 .LASF127
GAS LISTING /tmp/ccEq1nYA.s 			page 16


     /tmp/ccEq1nYA.s:2747   .debug_str:000000000000064a .LASF128
     /tmp/ccEq1nYA.s:2707   .debug_str:000000000000053f .LASF129
     /tmp/ccEq1nYA.s:2757   .debug_str:0000000000000682 .LASF149
     /tmp/ccEq1nYA.s:2615   .debug_str:00000000000002f4 .LASF150
     /tmp/ccEq1nYA.s:2775   .debug_str:0000000000000733 .LASF130
     /tmp/ccEq1nYA.s:2639   .debug_str:0000000000000398 .LASF131
     /tmp/ccEq1nYA.s:2617   .debug_str:0000000000000308 .LASF132
     /tmp/ccEq1nYA.s:2745   .debug_str:0000000000000634 .LASF133
     /tmp/ccEq1nYA.s:2545   .debug_str:00000000000000ef .LASF134
     /tmp/ccEq1nYA.s:2715   .debug_str:0000000000000589 .LASF135
     /tmp/ccEq1nYA.s:2587   .debug_str:0000000000000225 .LASF136
     /tmp/ccEq1nYA.s:2771   .debug_str:0000000000000708 .LASF137
     /tmp/ccEq1nYA.s:2589   .debug_str:0000000000000244 .LASF138
     /tmp/ccEq1nYA.s:2611   .debug_str:00000000000002cf .LASF139
     /tmp/ccEq1nYA.s:2787   .debug_str:0000000000000776 .LASF140
     /tmp/ccEq1nYA.s:2531   .debug_str:0000000000000080 .LASF141
     /tmp/ccEq1nYA.s:321    .text:00000000000001b4 .LFB50
     /tmp/ccEq1nYA.s:374    .text:0000000000000214 .LFE50
     /tmp/ccEq1nYA.s:2781   .debug_str:0000000000000750 .LASF142
     /tmp/ccEq1nYA.s:2423   .debug_loc:0000000000000000 .LLST5
     /tmp/ccEq1nYA.s:348    .text:00000000000001e8 .LVL20
     /tmp/ccEq1nYA.s:353    .text:00000000000001f8 .LVL21
     /tmp/ccEq1nYA.s:262    .text:0000000000000154 .LFB49
     /tmp/ccEq1nYA.s:315    .text:00000000000001b4 .LFE49
     /tmp/ccEq1nYA.s:2430   .debug_loc:0000000000000023 .LLST4
     /tmp/ccEq1nYA.s:289    .text:0000000000000188 .LVL15
     /tmp/ccEq1nYA.s:294    .text:0000000000000198 .LVL16
     /tmp/ccEq1nYA.s:192    .text:00000000000000ec .LFB48
     /tmp/ccEq1nYA.s:251    .text:0000000000000154 .LFE48
     /tmp/ccEq1nYA.s:210    .text:000000000000010c .LBB2
     /tmp/ccEq1nYA.s:234    .text:000000000000013c .LBE2
     /tmp/ccEq1nYA.s:2437   .debug_loc:0000000000000046 .LLST3
     /tmp/ccEq1nYA.s:230    .text:0000000000000138 .LVL12
     /tmp/ccEq1nYA.s:120    .text:0000000000000094 .LFB47
     /tmp/ccEq1nYA.s:186    .text:00000000000000ec .LFE47
     /tmp/ccEq1nYA.s:2444   .debug_loc:0000000000000069 .LLST1
     /tmp/ccEq1nYA.s:2469   .debug_loc:00000000000000dc .LLST2
     /tmp/ccEq1nYA.s:79     .text:0000000000000060 .LFB46
     /tmp/ccEq1nYA.s:114    .text:0000000000000094 .LFE46
     /tmp/ccEq1nYA.s:2489   .debug_loc:0000000000000139 .LLST0
     /tmp/ccEq1nYA.s:34     .text:0000000000000018 .LFB45
     /tmp/ccEq1nYA.s:73     .text:0000000000000060 .LFE45
     /tmp/ccEq1nYA.s:10     .text:0000000000000000 .LFB44
     /tmp/ccEq1nYA.s:28     .text:0000000000000018 .LFE44
     /tmp/ccEq1nYA.s:2677   .debug_str:0000000000000493 .LASF143
     /tmp/ccEq1nYA.s:2709   .debug_str:000000000000054c .LASF144
     /tmp/ccEq1nYA.s:337    .text:00000000000001d0 .LVL19
     /tmp/ccEq1nYA.s:369    .text:000000000000020c .LVL23
     /tmp/ccEq1nYA.s:278    .text:0000000000000170 .LVL14
     /tmp/ccEq1nYA.s:310    .text:00000000000001ac .LVL18
     /tmp/ccEq1nYA.s:212    .text:000000000000010c .LVL11
     /tmp/ccEq1nYA.s:237    .text:0000000000000140 .LVL13
     /tmp/ccEq1nYA.s:133    .text:00000000000000a8 .LVL4
     /tmp/ccEq1nYA.s:149    .text:00000000000000bc .LVL6
     /tmp/ccEq1nYA.s:154    .text:00000000000000c4 .LVL7
     /tmp/ccEq1nYA.s:166    .text:00000000000000d4 .LVL8
     /tmp/ccEq1nYA.s:176    .text:00000000000000e0 .LVL9
GAS LISTING /tmp/ccEq1nYA.s 			page 17


     /tmp/ccEq1nYA.s:182    .text:00000000000000e8 .LVL10
     /tmp/ccEq1nYA.s:136    .text:00000000000000ac .LVL5
     /tmp/ccEq1nYA.s:94     .text:0000000000000078 .LVL1
     /tmp/ccEq1nYA.s:104    .text:0000000000000088 .LVL2
     /tmp/ccEq1nYA.s:405    .debug_info:0000000000000000 .Ldebug_info0

UNDEFINED SYMBOLS
_ZN5RiscV10globalTimeE
_ZN11ConsoleUtil8printIntEiii
_ZN11ConsoleUtil11printStringEPKc
_Z8printIntiii
_Z11printStringPKc
