GAS LISTING /tmp/cc5Z495Y.s 			page 1


   1              		.file	"slab_allocator.cpp"
   2              		.option pic
   3              		.option norelax
   4              		.text
   5              	.Ltext0:
   6              		.align	2
   7              		.globl	_ZN13SlabAllocator11shrinkCacheEP5Cache
   9              	_ZN13SlabAllocator11shrinkCacheEP5Cache:
  10              	.LFB42:
  11              		.file 1 "src/kernel/slab_allocator.cpp"
   1:src/kernel/slab_allocator.cpp **** //
   2:src/kernel/slab_allocator.cpp **** // Created by os on 12/25/22.
   3:src/kernel/slab_allocator.cpp **** //
   4:src/kernel/slab_allocator.cpp **** #include "../../h/kernel/slab_allocator.hpp"
   5:src/kernel/slab_allocator.cpp **** #include "../../h/kernel/utility.hpp"
   6:src/kernel/slab_allocator.cpp **** #include "../../h/kernel/riscv.hpp"
   7:src/kernel/slab_allocator.cpp **** 
   8:src/kernel/slab_allocator.cpp **** Cache* SlabAllocator::cache = nullptr;
   9:src/kernel/slab_allocator.cpp **** Cache* SlabAllocator::largeSlabCache = nullptr;
  10:src/kernel/slab_allocator.cpp **** Cache* SlabAllocator::sizeN[BUCKET_SIZE] = {nullptr, nullptr, nullptr, nullptr, nullptr, nullptr, n
  11:src/kernel/slab_allocator.cpp **** const char* SlabAllocator::names[13] = {"Buffer Cache No. 5", "Buffer Cache No. 6", "Buffer Cache N
  12:src/kernel/slab_allocator.cpp **** 
  13:src/kernel/slab_allocator.cpp **** void SlabAllocator::initialize(void* space, uint64 blockNum) {
  14:src/kernel/slab_allocator.cpp ****     Buddy::initialize(space, blockNum);
  15:src/kernel/slab_allocator.cpp ****     cache = (Cache*)SLAB_META_ADDR_CONST;
  16:src/kernel/slab_allocator.cpp ****     cache->ctor = nullptr;
  17:src/kernel/slab_allocator.cpp ****     cache->dtor = nullptr;
  18:src/kernel/slab_allocator.cpp ****     cache->emptyHead = nullptr;
  19:src/kernel/slab_allocator.cpp ****     cache->partialHead = nullptr;
  20:src/kernel/slab_allocator.cpp ****     cache->fullHead = nullptr;
  21:src/kernel/slab_allocator.cpp ****     cache->objectSize = sizeof(Cache);
  22:src/kernel/slab_allocator.cpp ****     cache->slabSize = DEFAULT_SLAB_SIZE;
  23:src/kernel/slab_allocator.cpp ****     cache->errCode = 0;
  24:src/kernel/slab_allocator.cpp ****     strcpy("Main Cache", cache->name);
  25:src/kernel/slab_allocator.cpp **** 
  26:src/kernel/slab_allocator.cpp ****     largeSlabCache = (Cache*)BUDDY_META_ADDR_CONST;
  27:src/kernel/slab_allocator.cpp ****     largeSlabCache->ctor = nullptr;
  28:src/kernel/slab_allocator.cpp ****     largeSlabCache->dtor = nullptr;
  29:src/kernel/slab_allocator.cpp ****     largeSlabCache->emptyHead = nullptr;
  30:src/kernel/slab_allocator.cpp ****     largeSlabCache->partialHead = nullptr;
  31:src/kernel/slab_allocator.cpp ****     largeSlabCache->fullHead = nullptr;
  32:src/kernel/slab_allocator.cpp ****     largeSlabCache->objectSize = sizeof(Slab);
  33:src/kernel/slab_allocator.cpp ****     largeSlabCache->slabSize = SLAB_HEADER_DEFAULT_SLAB_SIZE;
  34:src/kernel/slab_allocator.cpp ****     cache->errCode = 0;
  35:src/kernel/slab_allocator.cpp ****     strcpy("Large Slab Cache", cache->name);
  36:src/kernel/slab_allocator.cpp **** 
  37:src/kernel/slab_allocator.cpp **** 
  38:src/kernel/slab_allocator.cpp ****     for(int i=0;i<BUCKET_SIZE;i++){
  39:src/kernel/slab_allocator.cpp ****         sizeN[i] = SlabAllocator::createCache(names[i], 1<<(i+CACHE_LOWER_BOUND), nullptr, nullptr)
  40:src/kernel/slab_allocator.cpp ****     }
  41:src/kernel/slab_allocator.cpp **** }
  42:src/kernel/slab_allocator.cpp **** 
  43:src/kernel/slab_allocator.cpp **** bool SlabAllocator::allocateSlab(Cache *cache) {
  44:src/kernel/slab_allocator.cpp ****     Slab* slab = (Slab*)Buddy::alloc(cache->slabSize);
  45:src/kernel/slab_allocator.cpp ****     if(!slab) {
  46:src/kernel/slab_allocator.cpp ****         cache->errCode = 2;
  47:src/kernel/slab_allocator.cpp ****         return false;
GAS LISTING /tmp/cc5Z495Y.s 			page 2


  48:src/kernel/slab_allocator.cpp ****     }
  49:src/kernel/slab_allocator.cpp ****     SlabAllocator::insertIntoList(cache->emptyHead, slab);
  50:src/kernel/slab_allocator.cpp ****     slab->totalNumOfSlots = slab->numOfFreeSlots = (((1<<cache->slabSize) << BLOCK_SIZE_BITS) - siz
  51:src/kernel/slab_allocator.cpp ****     if(slab->totalNumOfSlots > MAX_NUMBER_OF_SLOTS)
  52:src/kernel/slab_allocator.cpp ****         slab->totalNumOfSlots = slab->numOfFreeSlots = MAX_NUMBER_OF_SLOTS;
  53:src/kernel/slab_allocator.cpp ****     slab->objectOffset = (void*)((uint64)slab + sizeof(Slab));
  54:src/kernel/slab_allocator.cpp ****     slab->parent = cache;
  55:src/kernel/slab_allocator.cpp ****     for(uint64 i=0;i<(slab->totalNumOfSlots+7)/8;i++)
  56:src/kernel/slab_allocator.cpp ****         slab->allocated[i] = 0;
  57:src/kernel/slab_allocator.cpp **** 
  58:src/kernel/slab_allocator.cpp ****     if(cache->ctor) {
  59:src/kernel/slab_allocator.cpp ****         for (uint64 i = 0; i < slab->totalNumOfSlots; i++) {
  60:src/kernel/slab_allocator.cpp ****             cache->ctor((void *) ((uint64) slab->objectOffset + i * slab->parent->objectSize));
  61:src/kernel/slab_allocator.cpp ****         }
  62:src/kernel/slab_allocator.cpp ****     }
  63:src/kernel/slab_allocator.cpp ****     return true;
  64:src/kernel/slab_allocator.cpp **** }
  65:src/kernel/slab_allocator.cpp **** 
  66:src/kernel/slab_allocator.cpp **** void* SlabAllocator::allocateSlot(Slab *slab) {
  67:src/kernel/slab_allocator.cpp ****     for(uint64 i=0; i<slab->totalNumOfSlots; i++){
  68:src/kernel/slab_allocator.cpp ****         if(!(slab->allocated[i/8] & (1<<(7 - i%8)))){
  69:src/kernel/slab_allocator.cpp ****             slab->allocated[i/8] |= (1<<(7 - i%8));
  70:src/kernel/slab_allocator.cpp ****             Slab* &headFrom = slab->isEmpty() ? slab->parent->emptyHead : slab->parent->partialHead
  71:src/kernel/slab_allocator.cpp ****             slab->numOfFreeSlots--;
  72:src/kernel/slab_allocator.cpp ****             Slab* &headTo = slab->isFull() ? slab->parent->fullHead : slab->parent->partialHead;
  73:src/kernel/slab_allocator.cpp **** 
  74:src/kernel/slab_allocator.cpp ****             if(headTo != headFrom)
  75:src/kernel/slab_allocator.cpp ****                 SlabAllocator::move(headFrom, headTo, slab);
  76:src/kernel/slab_allocator.cpp **** 
  77:src/kernel/slab_allocator.cpp ****             return (void*)((uint64)slab->objectOffset + i*slab->parent->objectSize);
  78:src/kernel/slab_allocator.cpp ****         }
  79:src/kernel/slab_allocator.cpp ****     }
  80:src/kernel/slab_allocator.cpp ****     slab->parent->errCode = 1;
  81:src/kernel/slab_allocator.cpp ****     return nullptr;
  82:src/kernel/slab_allocator.cpp **** }
  83:src/kernel/slab_allocator.cpp **** 
  84:src/kernel/slab_allocator.cpp **** void* SlabAllocator::allocateObject(Cache *cache) {
  85:src/kernel/slab_allocator.cpp ****     void* ret = SlabAllocator::allocateFromList(cache->partialHead);
  86:src/kernel/slab_allocator.cpp ****     if(ret){
  87:src/kernel/slab_allocator.cpp ****         return ret;
  88:src/kernel/slab_allocator.cpp ****     }
  89:src/kernel/slab_allocator.cpp ****     ret = SlabAllocator::allocateFromList(cache->emptyHead);
  90:src/kernel/slab_allocator.cpp ****     if(ret){
  91:src/kernel/slab_allocator.cpp ****         return ret;
  92:src/kernel/slab_allocator.cpp ****     }
  93:src/kernel/slab_allocator.cpp ****     if(cache->objectSize <= sizeof(Slab)) {
  94:src/kernel/slab_allocator.cpp ****         if (!SlabAllocator::allocateSlab(cache))
  95:src/kernel/slab_allocator.cpp ****             return nullptr;
  96:src/kernel/slab_allocator.cpp **** 
  97:src/kernel/slab_allocator.cpp ****         ret = SlabAllocator::allocateSlot(cache->emptyHead);
  98:src/kernel/slab_allocator.cpp ****     }
  99:src/kernel/slab_allocator.cpp ****     else{
 100:src/kernel/slab_allocator.cpp ****         Slab* slab = (Slab*)SlabAllocator::allocateObject(largeSlabCache);
 101:src/kernel/slab_allocator.cpp ****         slab->totalNumOfSlots = slab->numOfFreeSlots = (((1<<cache->slabSize) << BLOCK_SIZE_BITS)) 
 102:src/kernel/slab_allocator.cpp ****         if(slab->totalNumOfSlots > MAX_NUMBER_OF_SLOTS)
 103:src/kernel/slab_allocator.cpp ****             slab->totalNumOfSlots = slab->numOfFreeSlots = MAX_NUMBER_OF_SLOTS;
 104:src/kernel/slab_allocator.cpp ****         void* slabOffset = Buddy::alloc(cache->slabSize);
GAS LISTING /tmp/cc5Z495Y.s 			page 3


 105:src/kernel/slab_allocator.cpp ****         slab->objectOffset = slabOffset;
 106:src/kernel/slab_allocator.cpp ****         slab->parent = cache;
 107:src/kernel/slab_allocator.cpp ****         slab->next = nullptr;
 108:src/kernel/slab_allocator.cpp ****         for(uint64 i=0;i<(slab->totalNumOfSlots+7)/8;i++)
 109:src/kernel/slab_allocator.cpp ****             slab->allocated[i] = 0;
 110:src/kernel/slab_allocator.cpp **** 
 111:src/kernel/slab_allocator.cpp ****         if(cache->ctor) {
 112:src/kernel/slab_allocator.cpp ****             for (uint64 i = 0; i < slab->totalNumOfSlots; i++) {
 113:src/kernel/slab_allocator.cpp ****                 cache->ctor((void *) ((uint64) slab->objectOffset + i * slab->parent->objectSize));
 114:src/kernel/slab_allocator.cpp ****             }
 115:src/kernel/slab_allocator.cpp ****         }
 116:src/kernel/slab_allocator.cpp **** 
 117:src/kernel/slab_allocator.cpp ****         SlabAllocator::insertIntoList(cache->emptyHead, slab);
 118:src/kernel/slab_allocator.cpp ****         ret = SlabAllocator::allocateSlot(cache->emptyHead);
 119:src/kernel/slab_allocator.cpp ****     }
 120:src/kernel/slab_allocator.cpp **** 
 121:src/kernel/slab_allocator.cpp ****     return ret;
 122:src/kernel/slab_allocator.cpp **** }
 123:src/kernel/slab_allocator.cpp **** 
 124:src/kernel/slab_allocator.cpp **** void* SlabAllocator::allocateBuffer(size_t size) {
 125:src/kernel/slab_allocator.cpp ****     uint64 level = Buddy::getDeg(Buddy::ceil(size));
 126:src/kernel/slab_allocator.cpp ****     if(level < CACHE_LOWER_BOUND || level > CACHE_UPPER_BOUND)
 127:src/kernel/slab_allocator.cpp ****         return nullptr;
 128:src/kernel/slab_allocator.cpp ****     else
 129:src/kernel/slab_allocator.cpp ****         level -= CACHE_LOWER_BOUND;
 130:src/kernel/slab_allocator.cpp ****     return SlabAllocator::allocateObject(sizeN[level]);
 131:src/kernel/slab_allocator.cpp **** }
 132:src/kernel/slab_allocator.cpp **** 
 133:src/kernel/slab_allocator.cpp **** void SlabAllocator::freeSlot(Slab *slab, uint64 index) {
 134:src/kernel/slab_allocator.cpp ****     if(slab->allocated[index/8] & (1<<(7 - index%8))) {
 135:src/kernel/slab_allocator.cpp ****         slab->allocated[index/8] &= ~(1<<(7 - index%8));
 136:src/kernel/slab_allocator.cpp ****         Slab *&headFrom = slab->isFull() ? slab->parent->fullHead : slab->parent->partialHead;
 137:src/kernel/slab_allocator.cpp ****         slab->numOfFreeSlots++;
 138:src/kernel/slab_allocator.cpp ****         Slab *&headTo = slab->isEmpty() ? slab->parent->emptyHead : slab->parent->partialHead;
 139:src/kernel/slab_allocator.cpp **** 
 140:src/kernel/slab_allocator.cpp ****         if(slab->isEmpty()) {
 141:src/kernel/slab_allocator.cpp ****             SlabAllocator::removeFromList(headFrom, slab);
 142:src/kernel/slab_allocator.cpp ****             if(slab->parent->objectSize <= sizeof(Slab)) {
 143:src/kernel/slab_allocator.cpp ****                 Buddy::free(slab, slab->parent->slabSize);
 144:src/kernel/slab_allocator.cpp ****             }
 145:src/kernel/slab_allocator.cpp ****             else{
 146:src/kernel/slab_allocator.cpp ****                 Buddy::free(slab->objectOffset, slab->parent->slabSize);
 147:src/kernel/slab_allocator.cpp ****                 SlabAllocator::freeObject(largeSlabCache, slab);
 148:src/kernel/slab_allocator.cpp ****             }
 149:src/kernel/slab_allocator.cpp ****         }
 150:src/kernel/slab_allocator.cpp ****         else
 151:src/kernel/slab_allocator.cpp ****             if (headTo != headFrom)
 152:src/kernel/slab_allocator.cpp ****                 SlabAllocator::move(headFrom, headTo, slab);
 153:src/kernel/slab_allocator.cpp ****     }
 154:src/kernel/slab_allocator.cpp **** }
 155:src/kernel/slab_allocator.cpp **** 
 156:src/kernel/slab_allocator.cpp **** bool SlabAllocator::freeObject(Cache* cache, const void *addr) {
 157:src/kernel/slab_allocator.cpp ****     if(cache->dtor)
 158:src/kernel/slab_allocator.cpp ****         cache->dtor((void*)addr);
 159:src/kernel/slab_allocator.cpp ****     if(cache->ctor)
 160:src/kernel/slab_allocator.cpp ****         cache->ctor((void*)addr);
 161:src/kernel/slab_allocator.cpp **** 
GAS LISTING /tmp/cc5Z495Y.s 			page 4


 162:src/kernel/slab_allocator.cpp ****     bool deleted = SlabAllocator::freeFromList(cache->fullHead, addr);
 163:src/kernel/slab_allocator.cpp ****     if(deleted)
 164:src/kernel/slab_allocator.cpp ****         return deleted;
 165:src/kernel/slab_allocator.cpp **** 
 166:src/kernel/slab_allocator.cpp ****     deleted = SlabAllocator::freeFromList(cache->partialHead, addr);
 167:src/kernel/slab_allocator.cpp **** 
 168:src/kernel/slab_allocator.cpp ****     return deleted;
 169:src/kernel/slab_allocator.cpp **** }
 170:src/kernel/slab_allocator.cpp **** 
 171:src/kernel/slab_allocator.cpp **** void SlabAllocator::freeBuffer(const void *addr) {
 172:src/kernel/slab_allocator.cpp ****     for(int i=0;i<BUCKET_SIZE;i++)
 173:src/kernel/slab_allocator.cpp ****         if(SlabAllocator::freeObject(sizeN[i], addr))
 174:src/kernel/slab_allocator.cpp ****             return;
 175:src/kernel/slab_allocator.cpp **** }
 176:src/kernel/slab_allocator.cpp **** 
 177:src/kernel/slab_allocator.cpp **** Cache* SlabAllocator::createCache(const char *name, size_t size, void (*ctor)(void *), void (*dtor)
 178:src/kernel/slab_allocator.cpp ****     Cache* ret = (Cache*)SlabAllocator::allocateObject(SlabAllocator::cache);
 179:src/kernel/slab_allocator.cpp ****     if(ret == nullptr)
 180:src/kernel/slab_allocator.cpp ****         return nullptr;
 181:src/kernel/slab_allocator.cpp ****     ret->ctor = ctor;
 182:src/kernel/slab_allocator.cpp ****     ret->dtor = dtor;
 183:src/kernel/slab_allocator.cpp ****     ret->emptyHead = ret->partialHead = ret->fullHead = nullptr;
 184:src/kernel/slab_allocator.cpp ****     ret->objectSize = size;
 185:src/kernel/slab_allocator.cpp ****     ret->errCode = 0;
 186:src/kernel/slab_allocator.cpp ****     int deg = Buddy::getDeg(Buddy::ceil(size));
 187:src/kernel/slab_allocator.cpp ****     if(size <= sizeof(Slab)){
 188:src/kernel/slab_allocator.cpp ****         ret->slabSize = SMALL_CACHE_DEFAULT_SLAB_SIZE;
 189:src/kernel/slab_allocator.cpp ****     }
 190:src/kernel/slab_allocator.cpp ****     else{
 191:src/kernel/slab_allocator.cpp ****         deg-=10;
 192:src/kernel/slab_allocator.cpp ****         ret->slabSize = deg;
 193:src/kernel/slab_allocator.cpp ****     }
 194:src/kernel/slab_allocator.cpp ****     strcpy(name, ret->name);
 195:src/kernel/slab_allocator.cpp ****     return ret;
 196:src/kernel/slab_allocator.cpp **** }
 197:src/kernel/slab_allocator.cpp **** 
 198:src/kernel/slab_allocator.cpp **** void SlabAllocator::deleteCache(Cache* &cache) {
 199:src/kernel/slab_allocator.cpp ****     deleteList(cache->fullHead);
 200:src/kernel/slab_allocator.cpp ****     deleteList(cache->partialHead);
 201:src/kernel/slab_allocator.cpp ****     deleteList(cache->emptyHead);
 202:src/kernel/slab_allocator.cpp ****     SlabAllocator::freeObject(SlabAllocator::cache, cache);
 203:src/kernel/slab_allocator.cpp ****     cache = nullptr;
 204:src/kernel/slab_allocator.cpp **** }
 205:src/kernel/slab_allocator.cpp **** 
 206:src/kernel/slab_allocator.cpp **** int SlabAllocator::shrinkCache(Cache *cache) {
  12              		.loc 1 206 46
  13              		.cfi_startproc
  14              	.LVL0:
  15 0000 130101FE 		addi	sp,sp,-32
  16              		.cfi_def_cfa_offset 32
  17 0004 233C1100 		sd	ra,24(sp)
  18 0008 23388100 		sd	s0,16(sp)
  19 000c 23349100 		sd	s1,8(sp)
  20 0010 23302101 		sd	s2,0(sp)
  21              		.cfi_offset 1, -8
  22              		.cfi_offset 8, -16
  23              		.cfi_offset 9, -24
GAS LISTING /tmp/cc5Z495Y.s 			page 5


  24              		.cfi_offset 18, -32
  25 0014 13040102 		addi	s0,sp,32
  26              		.cfi_def_cfa 8, 0
  27 0018 93040500 		mv	s1,a0
 207:src/kernel/slab_allocator.cpp ****     int ret = 0;
  28              		.loc 1 207 5
  29              	.LVL1:
  30              		.loc 1 207 9 is_stmt 0
  31 001c 13090000 		li	s2,0
  32              	.LVL2:
  33              	.L3:
 208:src/kernel/slab_allocator.cpp ****     while(cache->emptyHead){
  34              		.loc 1 208 5 is_stmt 1
  35              		.loc 1 208 18
  36 0020 03B58406 		ld	a0,104(s1)
  37 0024 63040502 		beqz	a0,.L2
 209:src/kernel/slab_allocator.cpp ****         Buddy::free(cache->emptyHead, cache->slabSize);
  38              		.loc 1 209 9
  39              		.loc 1 209 20 is_stmt 0
  40 0028 83B58404 		ld	a1,72(s1)
  41 002c 97000000 		call	_ZN5Buddy4freeEPvm@plt
  41      E7800000 
  42              	.LVL3:
 210:src/kernel/slab_allocator.cpp ****         ret += cache->emptyHead->totalNumOfSlots;
  43              		.loc 1 210 9 is_stmt 1
  44              		.loc 1 210 23 is_stmt 0
  45 0034 83B78406 		ld	a5,104(s1)
  46              		.loc 1 210 34
  47 0038 03B78701 		ld	a4,24(a5)
  48              		.loc 1 210 13
  49 003c 3B092701 		addw	s2,a4,s2
  50              	.LVL4:
 211:src/kernel/slab_allocator.cpp ****         cache->emptyHead = cache->emptyHead->next;
  51              		.loc 1 211 9 is_stmt 1
  52              		.loc 1 211 46 is_stmt 0
  53 0040 83B78700 		ld	a5,8(a5)
  54              		.loc 1 211 26
  55 0044 23B4F406 		sd	a5,104(s1)
 208:src/kernel/slab_allocator.cpp ****         Buddy::free(cache->emptyHead, cache->slabSize);
  56              		.loc 1 208 5
  57 0048 6FF09FFD 		j	.L3
  58              	.LVL5:
  59              	.L2:
 212:src/kernel/slab_allocator.cpp ****     }
 213:src/kernel/slab_allocator.cpp ****     return ret;
  60              		.loc 1 213 5 is_stmt 1
 214:src/kernel/slab_allocator.cpp **** }
  61              		.loc 1 214 1 is_stmt 0
  62 004c 13050900 		mv	a0,s2
  63 0050 83308101 		ld	ra,24(sp)
  64              		.cfi_restore 1
  65 0054 03340101 		ld	s0,16(sp)
  66              		.cfi_restore 8
  67              		.cfi_def_cfa 2, 32
  68 0058 83348100 		ld	s1,8(sp)
  69              		.cfi_restore 9
  70              	.LVL6:
GAS LISTING /tmp/cc5Z495Y.s 			page 6


  71 005c 03390100 		ld	s2,0(sp)
  72              		.cfi_restore 18
  73              	.LVL7:
  74 0060 13010102 		addi	sp,sp,32
  75              		.cfi_def_cfa_offset 0
  76 0064 67800000 		jr	ra
  77              		.cfi_endproc
  78              	.LFE42:
  80              		.section	.rodata.str1.8,"aMS",@progbits,1
  81              		.align	3
  82              	.LC0:
  83 0000 0A00     		.string	"\n"
  84 0002 00000000 		.align	3
  84      0000
  85              	.LC1:
  86 0008 536C6162 		.string	"Slab address:"
  86      20616464 
  86      72657373 
  86      3A00
  87 0016 0000     		.align	3
  88              	.LC2:
  89 0018 4E756D62 		.string	"Number of slots:"
  89      6572206F 
  89      6620736C 
  89      6F74733A 
  89      00
  90 0029 00000000 		.align	3
  90      000000
  91              	.LC3:
  92 0030 4E756D62 		.string	"Number of free slots:"
  92      6572206F 
  92      66206672 
  92      65652073 
  92      6C6F7473 
  93 0046 0000     		.align	3
  94              	.LC4:
  95 0048 536C6162 		.string	"Slab object size:"
  95      206F626A 
  95      65637420 
  95      73697A65 
  95      3A00
  96 005a 00000000 		.align	3
  96      0000
  97              	.LC5:
  98 0060 4F626A65 		.string	"Object offset:"
  98      6374206F 
  98      66667365 
  98      743A00
  99 006f 00       		.align	3
 100              	.LC6:
 101 0070 536C6162 		.string	"Slab allocated array address:"
 101      20616C6C 
 101      6F636174 
 101      65642061 
 101      72726179 
 102 008e 0000     		.align	3
 103              	.LC7:
GAS LISTING /tmp/cc5Z495Y.s 			page 7


 104 0090 416C6C6F 		.string	"Allocated status array: "
 104      63617465 
 104      64207374 
 104      61747573 
 104      20617272 
 105 00a9 00000000 		.align	3
 105      000000
 106              	.LC8:
 107 00b0 2000     		.string	" "
 108 00b2 00000000 		.align	3
 108      0000
 109              	.LC9:
 110 00b8 00       		.string	""
 111              		.text
 112              		.align	2
 113              		.globl	_ZN13SlabAllocator9printSlabEP4Slab
 115              	_ZN13SlabAllocator9printSlabEP4Slab:
 116              	.LFB43:
 215:src/kernel/slab_allocator.cpp **** 
 216:src/kernel/slab_allocator.cpp **** void SlabAllocator::printSlab(Slab *slab) {
 117              		.loc 1 216 43 is_stmt 1
 118              		.cfi_startproc
 119              	.LVL8:
 217:src/kernel/slab_allocator.cpp ****     if(slab) {
 120              		.loc 1 217 5
 121              	.LBB43:
 122 0068 630C0514 		beqz	a0,.L10
 123              	.LBE43:
 216:src/kernel/slab_allocator.cpp ****     if(slab) {
 124              		.loc 1 216 43 is_stmt 0
 125 006c 130101FE 		addi	sp,sp,-32
 126              		.cfi_def_cfa_offset 32
 127 0070 233C1100 		sd	ra,24(sp)
 128 0074 23388100 		sd	s0,16(sp)
 129 0078 23349100 		sd	s1,8(sp)
 130 007c 23302101 		sd	s2,0(sp)
 131              		.cfi_offset 1, -8
 132              		.cfi_offset 8, -16
 133              		.cfi_offset 9, -24
 134              		.cfi_offset 18, -32
 135 0080 13040102 		addi	s0,sp,32
 136              		.cfi_def_cfa 8, 0
 137 0084 13090500 		mv	s2,a0
 138              	.LBB46:
 139              	.LBB44:
 218:src/kernel/slab_allocator.cpp ****         ConsoleUtil::print("Slab address:", (uint64) slab, "\n");
 140              		.loc 1 218 9 is_stmt 1
 141              		.loc 1 218 27 is_stmt 0
 142 0088 93060001 		li	a3,16
 143 008c 17060000 		lla	a2,.LC0
 143      13060600 
 144 0094 9B050500 		sext.w	a1,a0
 145 0098 17050000 		lla	a0,.LC1
 145      13050500 
 146              	.LVL9:
 147 00a0 97000000 		call	_ZN11ConsoleUtil5printEPKciS1_i@plt
 147      E7800000 
GAS LISTING /tmp/cc5Z495Y.s 			page 8


 148              	.LVL10:
 219:src/kernel/slab_allocator.cpp ****         ConsoleUtil::print("Number of slots:", (uint64) slab->totalNumOfSlots, "\n",10);
 149              		.loc 1 219 9 is_stmt 1
 150              		.loc 1 219 27 is_stmt 0
 151 00a8 9306A000 		li	a3,10
 152 00ac 17060000 		lla	a2,.LC0
 152      13060600 
 153 00b4 83258901 		lw	a1,24(s2)
 154 00b8 17050000 		lla	a0,.LC2
 154      13050500 
 155 00c0 97000000 		call	_ZN11ConsoleUtil5printEPKciS1_i@plt
 155      E7800000 
 156              	.LVL11:
 220:src/kernel/slab_allocator.cpp ****         ConsoleUtil::print("Number of free slots:", (uint64) slab->numOfFreeSlots, "\n",10);
 157              		.loc 1 220 9 is_stmt 1
 158              		.loc 1 220 27 is_stmt 0
 159 00c8 9306A000 		li	a3,10
 160 00cc 17060000 		lla	a2,.LC0
 160      13060600 
 161 00d4 83250901 		lw	a1,16(s2)
 162 00d8 17050000 		lla	a0,.LC3
 162      13050500 
 163 00e0 97000000 		call	_ZN11ConsoleUtil5printEPKciS1_i@plt
 163      E7800000 
 164              	.LVL12:
 221:src/kernel/slab_allocator.cpp ****         ConsoleUtil::print("Slab object size:", (uint64) sizeof(Slab), "\n",10);
 165              		.loc 1 221 9 is_stmt 1
 166              		.loc 1 221 27 is_stmt 0
 167 00e8 9306A000 		li	a3,10
 168 00ec 17060000 		lla	a2,.LC0
 168      13060600 
 169 00f4 9305000B 		li	a1,176
 170 00f8 17050000 		lla	a0,.LC4
 170      13050500 
 171 0100 97000000 		call	_ZN11ConsoleUtil5printEPKciS1_i@plt
 171      E7800000 
 172              	.LVL13:
 222:src/kernel/slab_allocator.cpp ****         ConsoleUtil::print("Object offset:", (uint64) slab->objectOffset, "\n");
 173              		.loc 1 222 9 is_stmt 1
 174              		.loc 1 222 27 is_stmt 0
 175 0108 93060001 		li	a3,16
 176 010c 17060000 		lla	a2,.LC0
 176      13060600 
 177 0114 8325090A 		lw	a1,160(s2)
 178 0118 17050000 		lla	a0,.LC5
 178      13050500 
 179 0120 97000000 		call	_ZN11ConsoleUtil5printEPKciS1_i@plt
 179      E7800000 
 180              	.LVL14:
 223:src/kernel/slab_allocator.cpp ****         ConsoleUtil::print("Slab allocated array address:", (uint64) (&slab->allocated), "\n");
 181              		.loc 1 223 9 is_stmt 1
 182              		.loc 1 223 27 is_stmt 0
 183 0128 93060001 		li	a3,16
 184 012c 17060000 		lla	a2,.LC0
 184      13060600 
 185 0134 9B050902 		addiw	a1,s2,32
 186 0138 17050000 		lla	a0,.LC6
GAS LISTING /tmp/cc5Z495Y.s 			page 9


 186      13050500 
 187 0140 97000000 		call	_ZN11ConsoleUtil5printEPKciS1_i@plt
 187      E7800000 
 188              	.LVL15:
 224:src/kernel/slab_allocator.cpp ****         ConsoleUtil::printString("Allocated status array: ");
 189              		.loc 1 224 9 is_stmt 1
 190              		.loc 1 224 33 is_stmt 0
 191 0148 17050000 		lla	a0,.LC7
 191      13050500 
 192 0150 97000000 		call	_ZN11ConsoleUtil11printStringEPKc@plt
 192      E7800000 
 193              	.LVL16:
 225:src/kernel/slab_allocator.cpp ****         for (uint64 i = 0; i < (slab->totalNumOfSlots+7)/8; i++) {
 194              		.loc 1 225 9 is_stmt 1
 195              	.LBB45:
 196              		.loc 1 225 21 is_stmt 0
 197 0158 93040000 		li	s1,0
 198 015c 6F00C002 		j	.L8
 199              	.LVL17:
 200              	.L13:
 226:src/kernel/slab_allocator.cpp ****             ConsoleUtil::print("", slab->allocated[i], " ");
 201              		.loc 1 226 13 is_stmt 1 discriminator 2
 202              		.loc 1 226 53 is_stmt 0 discriminator 2
 203 0160 B3079900 		add	a5,s2,s1
 204              		.loc 1 226 31 discriminator 2
 205 0164 93060001 		li	a3,16
 206 0168 17060000 		lla	a2,.LC8
 206      13060600 
 207 0170 83C50702 		lbu	a1,32(a5)
 208 0174 17050000 		lla	a0,.LC9
 208      13050500 
 209 017c 97000000 		call	_ZN11ConsoleUtil5printEPKciS1_i@plt
 209      E7800000 
 210              	.LVL18:
 225:src/kernel/slab_allocator.cpp ****         for (uint64 i = 0; i < (slab->totalNumOfSlots+7)/8; i++) {
 211              		.loc 1 225 9 is_stmt 1 discriminator 2
 212 0184 93841400 		addi	s1,s1,1
 213              	.LVL19:
 214              	.L8:
 225:src/kernel/slab_allocator.cpp ****         for (uint64 i = 0; i < (slab->totalNumOfSlots+7)/8; i++) {
 215              		.loc 1 225 30 discriminator 3
 225:src/kernel/slab_allocator.cpp ****         for (uint64 i = 0; i < (slab->totalNumOfSlots+7)/8; i++) {
 216              		.loc 1 225 39 is_stmt 0 discriminator 3
 217 0188 83378901 		ld	a5,24(s2)
 225:src/kernel/slab_allocator.cpp ****         for (uint64 i = 0; i < (slab->totalNumOfSlots+7)/8; i++) {
 218              		.loc 1 225 54 discriminator 3
 219 018c 93877700 		addi	a5,a5,7
 225:src/kernel/slab_allocator.cpp ****         for (uint64 i = 0; i < (slab->totalNumOfSlots+7)/8; i++) {
 220              		.loc 1 225 57 discriminator 3
 221 0190 93D73700 		srli	a5,a5,3
 225:src/kernel/slab_allocator.cpp ****         for (uint64 i = 0; i < (slab->totalNumOfSlots+7)/8; i++) {
 222              		.loc 1 225 30 discriminator 3
 223 0194 E3E6F4FC 		bgtu	a5,s1,.L13
 224              	.LBE45:
 227:src/kernel/slab_allocator.cpp ****         }
 228:src/kernel/slab_allocator.cpp ****         ConsoleUtil::printString("\n");
 225              		.loc 1 228 9 is_stmt 1
GAS LISTING /tmp/cc5Z495Y.s 			page 10


 226              		.loc 1 228 33 is_stmt 0
 227 0198 17050000 		lla	a0,.LC0
 227      13050500 
 228 01a0 97000000 		call	_ZN11ConsoleUtil11printStringEPKc@plt
 228      E7800000 
 229              	.LVL20:
 230              	.LBE44:
 231              	.LBE46:
 229:src/kernel/slab_allocator.cpp ****     }
 230:src/kernel/slab_allocator.cpp **** }
 232              		.loc 1 230 1
 233 01a8 83308101 		ld	ra,24(sp)
 234              		.cfi_restore 1
 235 01ac 03340101 		ld	s0,16(sp)
 236              		.cfi_restore 8
 237              		.cfi_def_cfa 2, 32
 238 01b0 83348100 		ld	s1,8(sp)
 239              		.cfi_restore 9
 240              	.LVL21:
 241 01b4 03390100 		ld	s2,0(sp)
 242              		.cfi_restore 18
 243              	.LVL22:
 244 01b8 13010102 		addi	sp,sp,32
 245              		.cfi_def_cfa_offset 0
 246 01bc 67800000 		jr	ra
 247              	.LVL23:
 248              	.L10:
 249 01c0 67800000 		ret
 250              		.cfi_endproc
 251              	.LFE43:
 253              		.section	.rodata.str1.8
 254 00b9 00000000 		.align	3
 254      000000
 255              	.LC10:
 256 00c0 43616368 		.string	"Cache name: "
 256      65206E61 
 256      6D653A20 
 256      00
 257 00cd 000000   		.align	3
 258              	.LC11:
 259 00d0 43616368 		.string	"Cache address: "
 259      65206164 
 259      64726573 
 259      733A2000 
 260              		.align	3
 261              	.LC12:
 262 00e0 43616368 		.string	"Cache slab size: "
 262      6520736C 
 262      61622073 
 262      697A653A 
 262      2000
 263 00f2 00000000 		.align	3
 263      0000
 264              	.LC13:
 265 00f8 43616368 		.string	"Cache object size: "
 265      65206F62 
 265      6A656374 
GAS LISTING /tmp/cc5Z495Y.s 			page 11


 265      2073697A 
 265      653A2000 
 266 010c 00000000 		.align	3
 267              	.LC14:
 268 0110 456D7074 		.string	"Empty head: "
 268      79206865 
 268      61643A20 
 268      00
 269 011d 000000   		.align	3
 270              	.LC15:
 271 0120 50617274 		.string	"Partial head: "
 271      69616C20 
 271      68656164 
 271      3A2000
 272 012f 00       		.align	3
 273              	.LC16:
 274 0130 46756C6C 		.string	"Full head: "
 274      20686561 
 274      643A2000 
 275              		.text
 276              		.align	2
 277              		.globl	_ZN13SlabAllocator10printCacheEP5Cache
 279              	_ZN13SlabAllocator10printCacheEP5Cache:
 280              	.LFB44:
 231:src/kernel/slab_allocator.cpp **** 
 232:src/kernel/slab_allocator.cpp **** void SlabAllocator::printCache(Cache *cache) {
 281              		.loc 1 232 46 is_stmt 1
 282              		.cfi_startproc
 283              	.LVL24:
 284 01c4 130101FE 		addi	sp,sp,-32
 285              		.cfi_def_cfa_offset 32
 286 01c8 233C1100 		sd	ra,24(sp)
 287 01cc 23388100 		sd	s0,16(sp)
 288 01d0 23349100 		sd	s1,8(sp)
 289 01d4 23302101 		sd	s2,0(sp)
 290              		.cfi_offset 1, -8
 291              		.cfi_offset 8, -16
 292              		.cfi_offset 9, -24
 293              		.cfi_offset 18, -32
 294 01d8 13040102 		addi	s0,sp,32
 295              		.cfi_def_cfa 8, 0
 296 01dc 13090500 		mv	s2,a0
 233:src/kernel/slab_allocator.cpp ****     ConsoleUtil::printString("Cache name: ");
 297              		.loc 1 233 5
 298              		.loc 1 233 29 is_stmt 0
 299 01e0 17050000 		lla	a0,.LC10
 299      13050500 
 300              	.LVL25:
 301 01e8 97000000 		call	_ZN11ConsoleUtil11printStringEPKc@plt
 301      E7800000 
 302              	.LVL26:
 234:src/kernel/slab_allocator.cpp ****     ConsoleUtil::printString(cache->name);
 303              		.loc 1 234 5 is_stmt 1
 304              		.loc 1 234 29 is_stmt 0
 305 01f0 13050900 		mv	a0,s2
 306 01f4 97000000 		call	_ZN11ConsoleUtil11printStringEPKc@plt
 306      E7800000 
GAS LISTING /tmp/cc5Z495Y.s 			page 12


 307              	.LVL27:
 235:src/kernel/slab_allocator.cpp ****     ConsoleUtil::printString("\n");
 308              		.loc 1 235 5 is_stmt 1
 309              		.loc 1 235 29 is_stmt 0
 310 01fc 17050000 		lla	a0,.LC0
 310      13050500 
 311 0204 97000000 		call	_ZN11ConsoleUtil11printStringEPKc@plt
 311      E7800000 
 312              	.LVL28:
 236:src/kernel/slab_allocator.cpp ****     ConsoleUtil::print("Cache address: ", (uint64)cache, "\n");
 313              		.loc 1 236 5 is_stmt 1
 314              		.loc 1 236 23 is_stmt 0
 315 020c 93060001 		li	a3,16
 316 0210 17060000 		lla	a2,.LC0
 316      13060600 
 317 0218 9B050900 		sext.w	a1,s2
 318 021c 17050000 		lla	a0,.LC11
 318      13050500 
 319 0224 97000000 		call	_ZN11ConsoleUtil5printEPKciS1_i@plt
 319      E7800000 
 320              	.LVL29:
 237:src/kernel/slab_allocator.cpp ****     ConsoleUtil::print("Cache slab size: ", (uint64)cache->slabSize, "\n",10);
 321              		.loc 1 237 5 is_stmt 1
 322              		.loc 1 237 23 is_stmt 0
 323 022c 9306A000 		li	a3,10
 324 0230 17060000 		lla	a2,.LC0
 324      13060600 
 325 0238 83258904 		lw	a1,72(s2)
 326 023c 17050000 		lla	a0,.LC12
 326      13050500 
 327 0244 97000000 		call	_ZN11ConsoleUtil5printEPKciS1_i@plt
 327      E7800000 
 328              	.LVL30:
 238:src/kernel/slab_allocator.cpp ****     ConsoleUtil::print("Cache object size: ", (uint64)cache->objectSize, "\n",10);
 329              		.loc 1 238 5 is_stmt 1
 330              		.loc 1 238 23 is_stmt 0
 331 024c 9306A000 		li	a3,10
 332 0250 17060000 		lla	a2,.LC0
 332      13060600 
 333 0258 83250904 		lw	a1,64(s2)
 334 025c 17050000 		lla	a0,.LC13
 334      13050500 
 335 0264 97000000 		call	_ZN11ConsoleUtil5printEPKciS1_i@plt
 335      E7800000 
 336              	.LVL31:
 239:src/kernel/slab_allocator.cpp ****     ConsoleUtil::print("Empty head: ", (uint64)cache->emptyHead, "\n");
 337              		.loc 1 239 5 is_stmt 1
 338              		.loc 1 239 23 is_stmt 0
 339 026c 93060001 		li	a3,16
 340 0270 17060000 		lla	a2,.LC0
 340      13060600 
 341 0278 83258906 		lw	a1,104(s2)
 342 027c 17050000 		lla	a0,.LC14
 342      13050500 
 343 0284 97000000 		call	_ZN11ConsoleUtil5printEPKciS1_i@plt
 343      E7800000 
 344              	.LVL32:
GAS LISTING /tmp/cc5Z495Y.s 			page 13


 240:src/kernel/slab_allocator.cpp **** 
 241:src/kernel/slab_allocator.cpp ****     Slab* iter = cache->emptyHead;
 345              		.loc 1 241 5 is_stmt 1
 346              		.loc 1 241 11 is_stmt 0
 347 028c 83348906 		ld	s1,104(s2)
 348              	.LVL33:
 349              	.L16:
 242:src/kernel/slab_allocator.cpp ****     while(iter){
 350              		.loc 1 242 5 is_stmt 1
 351              		.loc 1 242 11
 352 0290 63860402 		beqz	s1,.L15
 243:src/kernel/slab_allocator.cpp ****         ConsoleUtil::print("", (uint64)iter, " ");
 353              		.loc 1 243 9
 354              		.loc 1 243 27 is_stmt 0
 355 0294 93060001 		li	a3,16
 356 0298 17060000 		lla	a2,.LC8
 356      13060600 
 357 02a0 9B850400 		sext.w	a1,s1
 358 02a4 17050000 		lla	a0,.LC9
 358      13050500 
 359 02ac 97000000 		call	_ZN11ConsoleUtil5printEPKciS1_i@plt
 359      E7800000 
 360              	.LVL34:
 244:src/kernel/slab_allocator.cpp ****         iter = iter->next;
 361              		.loc 1 244 9 is_stmt 1
 362              		.loc 1 244 14 is_stmt 0
 363 02b4 83B48400 		ld	s1,8(s1)
 364              	.LVL35:
 242:src/kernel/slab_allocator.cpp ****     while(iter){
 365              		.loc 1 242 5
 366 02b8 6FF09FFD 		j	.L16
 367              	.L15:
 245:src/kernel/slab_allocator.cpp ****     }
 246:src/kernel/slab_allocator.cpp ****     ConsoleUtil::printString("\n");
 368              		.loc 1 246 5 is_stmt 1
 369              		.loc 1 246 29 is_stmt 0
 370 02bc 17050000 		lla	a0,.LC0
 370      13050500 
 371 02c4 97000000 		call	_ZN11ConsoleUtil11printStringEPKc@plt
 371      E7800000 
 372              	.LVL36:
 247:src/kernel/slab_allocator.cpp **** 
 248:src/kernel/slab_allocator.cpp ****     ConsoleUtil::print("Partial head: ", (uint64)cache->partialHead, "\n");
 373              		.loc 1 248 5 is_stmt 1
 374              		.loc 1 248 23 is_stmt 0
 375 02cc 93060001 		li	a3,16
 376 02d0 17060000 		lla	a2,.LC0
 376      13060600 
 377 02d8 83250907 		lw	a1,112(s2)
 378 02dc 17050000 		lla	a0,.LC15
 378      13050500 
 379 02e4 97000000 		call	_ZN11ConsoleUtil5printEPKciS1_i@plt
 379      E7800000 
 380              	.LVL37:
 249:src/kernel/slab_allocator.cpp **** 
 250:src/kernel/slab_allocator.cpp ****     iter = cache->partialHead;
 381              		.loc 1 250 5 is_stmt 1
GAS LISTING /tmp/cc5Z495Y.s 			page 14


 382              		.loc 1 250 10 is_stmt 0
 383 02ec 83340907 		ld	s1,112(s2)
 384              	.LVL38:
 385              	.L18:
 251:src/kernel/slab_allocator.cpp ****     while(iter){
 386              		.loc 1 251 5 is_stmt 1
 387              		.loc 1 251 11
 388 02f0 63860402 		beqz	s1,.L17
 252:src/kernel/slab_allocator.cpp ****         ConsoleUtil::print("", (uint64)iter, " ");
 389              		.loc 1 252 9
 390              		.loc 1 252 27 is_stmt 0
 391 02f4 93060001 		li	a3,16
 392 02f8 17060000 		lla	a2,.LC8
 392      13060600 
 393 0300 9B850400 		sext.w	a1,s1
 394 0304 17050000 		lla	a0,.LC9
 394      13050500 
 395 030c 97000000 		call	_ZN11ConsoleUtil5printEPKciS1_i@plt
 395      E7800000 
 396              	.LVL39:
 253:src/kernel/slab_allocator.cpp ****         iter = iter->next;
 397              		.loc 1 253 9 is_stmt 1
 398              		.loc 1 253 14 is_stmt 0
 399 0314 83B48400 		ld	s1,8(s1)
 400              	.LVL40:
 251:src/kernel/slab_allocator.cpp ****     while(iter){
 401              		.loc 1 251 5
 402 0318 6FF09FFD 		j	.L18
 403              	.L17:
 254:src/kernel/slab_allocator.cpp ****     }
 255:src/kernel/slab_allocator.cpp ****     ConsoleUtil::printString("\n");
 404              		.loc 1 255 5 is_stmt 1
 405              		.loc 1 255 29 is_stmt 0
 406 031c 17050000 		lla	a0,.LC0
 406      13050500 
 407 0324 97000000 		call	_ZN11ConsoleUtil11printStringEPKc@plt
 407      E7800000 
 408              	.LVL41:
 256:src/kernel/slab_allocator.cpp **** 
 257:src/kernel/slab_allocator.cpp ****     ConsoleUtil::print("Full head: ", (uint64)cache->fullHead, "\n");
 409              		.loc 1 257 5 is_stmt 1
 410              		.loc 1 257 23 is_stmt 0
 411 032c 93060001 		li	a3,16
 412 0330 17060000 		lla	a2,.LC0
 412      13060600 
 413 0338 83258907 		lw	a1,120(s2)
 414 033c 17050000 		lla	a0,.LC16
 414      13050500 
 415 0344 97000000 		call	_ZN11ConsoleUtil5printEPKciS1_i@plt
 415      E7800000 
 416              	.LVL42:
 258:src/kernel/slab_allocator.cpp **** 
 259:src/kernel/slab_allocator.cpp ****     iter = cache->fullHead;
 417              		.loc 1 259 5 is_stmt 1
 418              		.loc 1 259 10 is_stmt 0
 419 034c 83348907 		ld	s1,120(s2)
 420              	.LVL43:
GAS LISTING /tmp/cc5Z495Y.s 			page 15


 421              	.L20:
 260:src/kernel/slab_allocator.cpp ****     while(iter){
 422              		.loc 1 260 5 is_stmt 1
 423              		.loc 1 260 11
 424 0350 63860402 		beqz	s1,.L19
 261:src/kernel/slab_allocator.cpp ****         ConsoleUtil::print("", (uint64)iter, " ");
 425              		.loc 1 261 9
 426              		.loc 1 261 27 is_stmt 0
 427 0354 93060001 		li	a3,16
 428 0358 17060000 		lla	a2,.LC8
 428      13060600 
 429 0360 9B850400 		sext.w	a1,s1
 430 0364 17050000 		lla	a0,.LC9
 430      13050500 
 431 036c 97000000 		call	_ZN11ConsoleUtil5printEPKciS1_i@plt
 431      E7800000 
 432              	.LVL44:
 262:src/kernel/slab_allocator.cpp ****         iter = iter->next;
 433              		.loc 1 262 9 is_stmt 1
 434              		.loc 1 262 14 is_stmt 0
 435 0374 83B48400 		ld	s1,8(s1)
 436              	.LVL45:
 260:src/kernel/slab_allocator.cpp ****     while(iter){
 437              		.loc 1 260 5
 438 0378 6FF09FFD 		j	.L20
 439              	.L19:
 263:src/kernel/slab_allocator.cpp ****     }
 264:src/kernel/slab_allocator.cpp ****     ConsoleUtil::printString("\n");
 440              		.loc 1 264 5 is_stmt 1
 441              		.loc 1 264 29 is_stmt 0
 442 037c 17050000 		lla	a0,.LC0
 442      13050500 
 443 0384 97000000 		call	_ZN11ConsoleUtil11printStringEPKc@plt
 443      E7800000 
 444              	.LVL46:
 265:src/kernel/slab_allocator.cpp **** }
 445              		.loc 1 265 1
 446 038c 83308101 		ld	ra,24(sp)
 447              		.cfi_restore 1
 448 0390 03340101 		ld	s0,16(sp)
 449              		.cfi_restore 8
 450              		.cfi_def_cfa 2, 32
 451 0394 83348100 		ld	s1,8(sp)
 452              		.cfi_restore 9
 453              	.LVL47:
 454 0398 03390100 		ld	s2,0(sp)
 455              		.cfi_restore 18
 456              	.LVL48:
 457 039c 13010102 		addi	sp,sp,32
 458              		.cfi_def_cfa_offset 0
 459 03a0 67800000 		jr	ra
 460              		.cfi_endproc
 461              	.LFE44:
 463              		.align	2
 464              		.globl	_ZN13SlabAllocator14insertIntoListERP4SlabS1_
 466              	_ZN13SlabAllocator14insertIntoListERP4SlabS1_:
 467              	.LFB45:
GAS LISTING /tmp/cc5Z495Y.s 			page 16


 266:src/kernel/slab_allocator.cpp **** 
 267:src/kernel/slab_allocator.cpp **** void SlabAllocator::insertIntoList(Slab *&head, Slab *slab) {
 468              		.loc 1 267 61 is_stmt 1
 469              		.cfi_startproc
 470              	.LVL49:
 471 03a4 130101FF 		addi	sp,sp,-16
 472              		.cfi_def_cfa_offset 16
 473 03a8 23348100 		sd	s0,8(sp)
 474              		.cfi_offset 8, -8
 475 03ac 13040101 		addi	s0,sp,16
 476              		.cfi_def_cfa 8, 0
 268:src/kernel/slab_allocator.cpp ****     slab->next = head;
 477              		.loc 1 268 5
 478              		.loc 1 268 18 is_stmt 0
 479 03b0 83370500 		ld	a5,0(a0)
 480              		.loc 1 268 16
 481 03b4 23B4F500 		sd	a5,8(a1)
 269:src/kernel/slab_allocator.cpp ****     if(head)
 482              		.loc 1 269 5 is_stmt 1
 483 03b8 63840700 		beqz	a5,.L23
 270:src/kernel/slab_allocator.cpp ****         head->prev = slab;
 484              		.loc 1 270 9
 485              		.loc 1 270 20 is_stmt 0
 486 03bc 23B0B700 		sd	a1,0(a5)
 487              	.L23:
 271:src/kernel/slab_allocator.cpp ****     slab->prev = nullptr;
 488              		.loc 1 271 5 is_stmt 1
 489              		.loc 1 271 16 is_stmt 0
 490 03c0 23B00500 		sd	zero,0(a1)
 272:src/kernel/slab_allocator.cpp ****     head = slab;
 491              		.loc 1 272 5 is_stmt 1
 492              		.loc 1 272 10 is_stmt 0
 493 03c4 2330B500 		sd	a1,0(a0)
 273:src/kernel/slab_allocator.cpp **** }
 494              		.loc 1 273 1
 495 03c8 03348100 		ld	s0,8(sp)
 496              		.cfi_restore 8
 497              		.cfi_def_cfa 2, 16
 498 03cc 13010101 		addi	sp,sp,16
 499              		.cfi_def_cfa_offset 0
 500 03d0 67800000 		jr	ra
 501              		.cfi_endproc
 502              	.LFE45:
 504              		.align	2
 505              		.globl	_ZN13SlabAllocator12allocateSlabEP5Cache
 507              	_ZN13SlabAllocator12allocateSlabEP5Cache:
 508              	.LFB33:
  43:src/kernel/slab_allocator.cpp ****     Slab* slab = (Slab*)Buddy::alloc(cache->slabSize);
 509              		.loc 1 43 48 is_stmt 1
 510              		.cfi_startproc
 511              	.LVL50:
 512 03d4 130101FD 		addi	sp,sp,-48
 513              		.cfi_def_cfa_offset 48
 514 03d8 23341102 		sd	ra,40(sp)
 515 03dc 23308102 		sd	s0,32(sp)
 516 03e0 233C9100 		sd	s1,24(sp)
 517 03e4 23382101 		sd	s2,16(sp)
GAS LISTING /tmp/cc5Z495Y.s 			page 17


 518 03e8 23343101 		sd	s3,8(sp)
 519              		.cfi_offset 1, -8
 520              		.cfi_offset 8, -16
 521              		.cfi_offset 9, -24
 522              		.cfi_offset 18, -32
 523              		.cfi_offset 19, -40
 524 03ec 13040103 		addi	s0,sp,48
 525              		.cfi_def_cfa 8, 0
 526 03f0 93090500 		mv	s3,a0
  44:src/kernel/slab_allocator.cpp ****     if(!slab) {
 527              		.loc 1 44 5
  44:src/kernel/slab_allocator.cpp ****     if(!slab) {
 528              		.loc 1 44 37 is_stmt 0
 529 03f4 03358504 		ld	a0,72(a0)
 530              	.LVL51:
 531 03f8 97000000 		call	_ZN5Buddy5allocEm@plt
 531      E7800000 
 532              	.LVL52:
  45:src/kernel/slab_allocator.cpp ****         cache->errCode = 2;
 533              		.loc 1 45 5 is_stmt 1
 534 0400 63000508 		beqz	a0,.L35
 535 0404 93040500 		mv	s1,a0
  49:src/kernel/slab_allocator.cpp ****     slab->totalNumOfSlots = slab->numOfFreeSlots = (((1<<cache->slabSize) << BLOCK_SIZE_BITS) - siz
 536              		.loc 1 49 5
  49:src/kernel/slab_allocator.cpp ****     slab->totalNumOfSlots = slab->numOfFreeSlots = (((1<<cache->slabSize) << BLOCK_SIZE_BITS) - siz
 537              		.loc 1 49 34 is_stmt 0
 538 0408 93050500 		mv	a1,a0
 539 040c 13858906 		addi	a0,s3,104
 540              	.LVL53:
 541 0410 97000000 		call	_ZN13SlabAllocator14insertIntoListERP4SlabS1_
 541      E7800000 
 542              	.LVL54:
  50:src/kernel/slab_allocator.cpp ****     if(slab->totalNumOfSlots > MAX_NUMBER_OF_SLOTS)
 543              		.loc 1 50 5 is_stmt 1
  50:src/kernel/slab_allocator.cpp ****     if(slab->totalNumOfSlots > MAX_NUMBER_OF_SLOTS)
 544              		.loc 1 50 65 is_stmt 0
 545 0418 03B78904 		ld	a4,72(s3)
  50:src/kernel/slab_allocator.cpp ****     if(slab->totalNumOfSlots > MAX_NUMBER_OF_SLOTS)
 546              		.loc 1 50 56
 547 041c 93071000 		li	a5,1
 548 0420 BB97E700 		sllw	a5,a5,a4
  50:src/kernel/slab_allocator.cpp ****     if(slab->totalNumOfSlots > MAX_NUMBER_OF_SLOTS)
 549              		.loc 1 50 75
 550 0424 9B97C700 		slliw	a5,a5,12
  50:src/kernel/slab_allocator.cpp ****     if(slab->totalNumOfSlots > MAX_NUMBER_OF_SLOTS)
 551              		.loc 1 50 95
 552 0428 938707F5 		addi	a5,a5,-176
  50:src/kernel/slab_allocator.cpp ****     if(slab->totalNumOfSlots > MAX_NUMBER_OF_SLOTS)
 553              		.loc 1 50 120
 554 042c 03B70904 		ld	a4,64(s3)
  50:src/kernel/slab_allocator.cpp ****     if(slab->totalNumOfSlots > MAX_NUMBER_OF_SLOTS)
 555              		.loc 1 50 111
 556 0430 B3D7E702 		divu	a5,a5,a4
  50:src/kernel/slab_allocator.cpp ****     if(slab->totalNumOfSlots > MAX_NUMBER_OF_SLOTS)
 557              		.loc 1 50 50
 558 0434 23B8F400 		sd	a5,16(s1)
  50:src/kernel/slab_allocator.cpp ****     if(slab->totalNumOfSlots > MAX_NUMBER_OF_SLOTS)
GAS LISTING /tmp/cc5Z495Y.s 			page 18


 559              		.loc 1 50 27
 560 0438 23BCF400 		sd	a5,24(s1)
  51:src/kernel/slab_allocator.cpp ****         slab->totalNumOfSlots = slab->numOfFreeSlots = MAX_NUMBER_OF_SLOTS;
 561              		.loc 1 51 5 is_stmt 1
 562 043c 13070040 		li	a4,1024
 563 0440 6378F700 		bleu	a5,a4,.L28
  52:src/kernel/slab_allocator.cpp ****     slab->objectOffset = (void*)((uint64)slab + sizeof(Slab));
 564              		.loc 1 52 9
  52:src/kernel/slab_allocator.cpp ****     slab->objectOffset = (void*)((uint64)slab + sizeof(Slab));
 565              		.loc 1 52 54 is_stmt 0
 566 0444 93070040 		li	a5,1024
 567 0448 23B8F400 		sd	a5,16(s1)
  52:src/kernel/slab_allocator.cpp ****     slab->objectOffset = (void*)((uint64)slab + sizeof(Slab));
 568              		.loc 1 52 31
 569 044c 23BCF400 		sd	a5,24(s1)
 570              	.L28:
  53:src/kernel/slab_allocator.cpp ****     slab->parent = cache;
 571              		.loc 1 53 5 is_stmt 1
  53:src/kernel/slab_allocator.cpp ****     slab->parent = cache;
 572              		.loc 1 53 47 is_stmt 0
 573 0450 9387040B 		addi	a5,s1,176
  53:src/kernel/slab_allocator.cpp ****     slab->parent = cache;
 574              		.loc 1 53 24
 575 0454 23B0F40A 		sd	a5,160(s1)
  54:src/kernel/slab_allocator.cpp ****     for(uint64 i=0;i<(slab->totalNumOfSlots+7)/8;i++)
 576              		.loc 1 54 5 is_stmt 1
  54:src/kernel/slab_allocator.cpp ****     for(uint64 i=0;i<(slab->totalNumOfSlots+7)/8;i++)
 577              		.loc 1 54 18 is_stmt 0
 578 0458 23B4340B 		sd	s3,168(s1)
  55:src/kernel/slab_allocator.cpp ****         slab->allocated[i] = 0;
 579              		.loc 1 55 5 is_stmt 1
 580              	.LVL55:
 581              	.LBB47:
  55:src/kernel/slab_allocator.cpp ****         slab->allocated[i] = 0;
 582              		.loc 1 55 16 is_stmt 0
 583 045c 13070000 		li	a4,0
 584              	.LVL56:
 585              	.L30:
  55:src/kernel/slab_allocator.cpp ****         slab->allocated[i] = 0;
 586              		.loc 1 55 21 is_stmt 1 discriminator 3
  55:src/kernel/slab_allocator.cpp ****         slab->allocated[i] = 0;
 587              		.loc 1 55 29 is_stmt 0 discriminator 3
 588 0460 83B78401 		ld	a5,24(s1)
  55:src/kernel/slab_allocator.cpp ****         slab->allocated[i] = 0;
 589              		.loc 1 55 44 discriminator 3
 590 0464 93877700 		addi	a5,a5,7
  55:src/kernel/slab_allocator.cpp ****         slab->allocated[i] = 0;
 591              		.loc 1 55 47 discriminator 3
 592 0468 93D73700 		srli	a5,a5,3
  55:src/kernel/slab_allocator.cpp ****         slab->allocated[i] = 0;
 593              		.loc 1 55 21 discriminator 3
 594 046c 6372F702 		bleu	a5,a4,.L29
  56:src/kernel/slab_allocator.cpp **** 
 595              		.loc 1 56 9 is_stmt 1 discriminator 2
  56:src/kernel/slab_allocator.cpp **** 
 596              		.loc 1 56 28 is_stmt 0 discriminator 2
 597 0470 B387E400 		add	a5,s1,a4
GAS LISTING /tmp/cc5Z495Y.s 			page 19


 598 0474 23800702 		sb	zero,32(a5)
  55:src/kernel/slab_allocator.cpp ****         slab->allocated[i] = 0;
 599              		.loc 1 55 5 is_stmt 1 discriminator 2
 600 0478 13071700 		addi	a4,a4,1
 601              	.LVL57:
 602 047c 6FF05FFE 		j	.L30
 603              	.LVL58:
 604              	.L35:
 605              	.LBE47:
  46:src/kernel/slab_allocator.cpp ****         return false;
 606              		.loc 1 46 9
  46:src/kernel/slab_allocator.cpp ****         return false;
 607              		.loc 1 46 24 is_stmt 0
 608 0480 93072000 		li	a5,2
 609 0484 23B8F904 		sd	a5,80(s3)
  47:src/kernel/slab_allocator.cpp ****     }
 610              		.loc 1 47 9 is_stmt 1
  47:src/kernel/slab_allocator.cpp ****     }
 611              		.loc 1 47 16 is_stmt 0
 612 0488 13050000 		li	a0,0
 613              	.LVL59:
 614 048c 6F008004 		j	.L27
 615              	.LVL60:
 616              	.L29:
  58:src/kernel/slab_allocator.cpp ****         for (uint64 i = 0; i < slab->totalNumOfSlots; i++) {
 617              		.loc 1 58 5 is_stmt 1
 618              	.LBB48:
  58:src/kernel/slab_allocator.cpp ****         for (uint64 i = 0; i < slab->totalNumOfSlots; i++) {
 619              		.loc 1 58 15 is_stmt 0
 620 0490 83B78905 		ld	a5,88(s3)
  58:src/kernel/slab_allocator.cpp ****         for (uint64 i = 0; i < slab->totalNumOfSlots; i++) {
 621              		.loc 1 58 5
 622 0494 638A0702 		beqz	a5,.L32
 623              	.LBB49:
  59:src/kernel/slab_allocator.cpp ****             cache->ctor((void *) ((uint64) slab->objectOffset + i * slab->parent->objectSize));
 624              		.loc 1 59 21
 625 0498 13090000 		li	s2,0
 626              	.LVL61:
 627              	.L31:
  59:src/kernel/slab_allocator.cpp ****             cache->ctor((void *) ((uint64) slab->objectOffset + i * slab->parent->objectSize));
 628              		.loc 1 59 30 is_stmt 1 discriminator 3
  59:src/kernel/slab_allocator.cpp ****             cache->ctor((void *) ((uint64) slab->objectOffset + i * slab->parent->objectSize));
 629              		.loc 1 59 38 is_stmt 0 discriminator 3
 630 049c 83B78401 		ld	a5,24(s1)
  59:src/kernel/slab_allocator.cpp ****             cache->ctor((void *) ((uint64) slab->objectOffset + i * slab->parent->objectSize));
 631              		.loc 1 59 30 discriminator 3
 632 04a0 6378F902 		bleu	a5,s2,.L33
  60:src/kernel/slab_allocator.cpp ****         }
 633              		.loc 1 60 13 is_stmt 1 discriminator 2
  60:src/kernel/slab_allocator.cpp ****         }
 634              		.loc 1 60 20 is_stmt 0 discriminator 2
 635 04a4 03B78905 		ld	a4,88(s3)
  60:src/kernel/slab_allocator.cpp ****         }
 636              		.loc 1 60 50 discriminator 2
 637 04a8 03B5040A 		ld	a0,160(s1)
  60:src/kernel/slab_allocator.cpp ****         }
 638              		.loc 1 60 75 discriminator 2
GAS LISTING /tmp/cc5Z495Y.s 			page 20


 639 04ac 83B7840A 		ld	a5,168(s1)
  60:src/kernel/slab_allocator.cpp ****         }
 640              		.loc 1 60 83 discriminator 2
 641 04b0 83B70704 		ld	a5,64(a5)
  60:src/kernel/slab_allocator.cpp ****         }
 642              		.loc 1 60 67 discriminator 2
 643 04b4 B3872703 		mul	a5,a5,s2
  60:src/kernel/slab_allocator.cpp ****         }
 644              		.loc 1 60 24 discriminator 2
 645 04b8 3305F500 		add	a0,a0,a5
 646 04bc E7000700 		jalr	a4
 647              	.LVL62:
  59:src/kernel/slab_allocator.cpp ****             cache->ctor((void *) ((uint64) slab->objectOffset + i * slab->parent->objectSize));
 648              		.loc 1 59 9 is_stmt 1 discriminator 2
 649 04c0 13091900 		addi	s2,s2,1
 650              	.LVL63:
 651 04c4 6FF09FFD 		j	.L31
 652              	.LVL64:
 653              	.L32:
 654              	.LBE49:
 655              	.LBE48:
  63:src/kernel/slab_allocator.cpp **** }
 656              		.loc 1 63 12 is_stmt 0
 657 04c8 13051000 		li	a0,1
 658 04cc 6F008000 		j	.L27
 659              	.LVL65:
 660              	.L33:
 661 04d0 13051000 		li	a0,1
 662              	.LVL66:
 663              	.L27:
  64:src/kernel/slab_allocator.cpp **** 
 664              		.loc 1 64 1
 665 04d4 83308102 		ld	ra,40(sp)
 666              		.cfi_restore 1
 667 04d8 03340102 		ld	s0,32(sp)
 668              		.cfi_restore 8
 669              		.cfi_def_cfa 2, 48
 670 04dc 83348101 		ld	s1,24(sp)
 671              		.cfi_restore 9
 672 04e0 03390101 		ld	s2,16(sp)
 673              		.cfi_restore 18
 674 04e4 83398100 		ld	s3,8(sp)
 675              		.cfi_restore 19
 676              	.LVL67:
 677 04e8 13010103 		addi	sp,sp,48
 678              		.cfi_def_cfa_offset 0
 679 04ec 67800000 		jr	ra
 680              		.cfi_endproc
 681              	.LFE33:
 683              		.align	2
 684              		.globl	_ZN13SlabAllocator14removeFromListERP4SlabS1_
 686              	_ZN13SlabAllocator14removeFromListERP4SlabS1_:
 687              	.LFB46:
 274:src/kernel/slab_allocator.cpp **** 
 275:src/kernel/slab_allocator.cpp **** void SlabAllocator::removeFromList(Slab* &head, Slab* slab) {
 688              		.loc 1 275 61 is_stmt 1
 689              		.cfi_startproc
GAS LISTING /tmp/cc5Z495Y.s 			page 21


 690              	.LVL68:
 691 04f0 130101FF 		addi	sp,sp,-16
 692              		.cfi_def_cfa_offset 16
 693 04f4 23348100 		sd	s0,8(sp)
 694              		.cfi_offset 8, -8
 695 04f8 13040101 		addi	s0,sp,16
 696              		.cfi_def_cfa 8, 0
 276:src/kernel/slab_allocator.cpp ****     if(slab == head)
 697              		.loc 1 276 5
 698              		.loc 1 276 16 is_stmt 0
 699 04fc 83370500 		ld	a5,0(a0)
 700              		.loc 1 276 5
 701 0500 638CB702 		beq	a5,a1,.L41
 702              	.L37:
 277:src/kernel/slab_allocator.cpp ****         head = slab->next;
 278:src/kernel/slab_allocator.cpp ****     if(slab->next)
 703              		.loc 1 278 5 is_stmt 1
 704              		.loc 1 278 14 is_stmt 0
 705 0504 83B78500 		ld	a5,8(a1)
 706              		.loc 1 278 5
 707 0508 63860700 		beqz	a5,.L38
 279:src/kernel/slab_allocator.cpp ****         slab->next->prev = slab->prev;
 708              		.loc 1 279 9 is_stmt 1
 709              		.loc 1 279 34 is_stmt 0
 710 050c 03B70500 		ld	a4,0(a1)
 711              		.loc 1 279 26
 712 0510 23B0E700 		sd	a4,0(a5)
 713              	.L38:
 280:src/kernel/slab_allocator.cpp ****     if(slab->prev)
 714              		.loc 1 280 5 is_stmt 1
 715              		.loc 1 280 14 is_stmt 0
 716 0514 83B70500 		ld	a5,0(a1)
 717              		.loc 1 280 5
 718 0518 63860700 		beqz	a5,.L39
 281:src/kernel/slab_allocator.cpp ****         slab->prev->next = slab->next;
 719              		.loc 1 281 9 is_stmt 1
 720              		.loc 1 281 34 is_stmt 0
 721 051c 03B78500 		ld	a4,8(a1)
 722              		.loc 1 281 26
 723 0520 23B4E700 		sd	a4,8(a5)
 724              	.L39:
 282:src/kernel/slab_allocator.cpp ****     slab->prev = nullptr;
 725              		.loc 1 282 5 is_stmt 1
 726              		.loc 1 282 16 is_stmt 0
 727 0524 23B00500 		sd	zero,0(a1)
 283:src/kernel/slab_allocator.cpp ****     slab->next = nullptr;
 728              		.loc 1 283 5 is_stmt 1
 729              		.loc 1 283 16 is_stmt 0
 730 0528 23B40500 		sd	zero,8(a1)
 284:src/kernel/slab_allocator.cpp **** }
 731              		.loc 1 284 1
 732 052c 03348100 		ld	s0,8(sp)
 733              		.cfi_remember_state
 734              		.cfi_restore 8
 735              		.cfi_def_cfa 2, 16
 736 0530 13010101 		addi	sp,sp,16
 737              		.cfi_def_cfa_offset 0
GAS LISTING /tmp/cc5Z495Y.s 			page 22


 738 0534 67800000 		jr	ra
 739              	.L41:
 740              		.cfi_restore_state
 277:src/kernel/slab_allocator.cpp ****     if(slab->next)
 741              		.loc 1 277 9 is_stmt 1
 277:src/kernel/slab_allocator.cpp ****     if(slab->next)
 742              		.loc 1 277 22 is_stmt 0
 743 0538 83B78500 		ld	a5,8(a1)
 277:src/kernel/slab_allocator.cpp ****     if(slab->next)
 744              		.loc 1 277 14
 745 053c 2330F500 		sd	a5,0(a0)
 746 0540 6FF05FFC 		j	.L37
 747              		.cfi_endproc
 748              	.LFE46:
 750              		.align	2
 751              		.globl	_ZN13SlabAllocator4moveERP4SlabS2_S1_
 753              	_ZN13SlabAllocator4moveERP4SlabS2_S1_:
 754              	.LFB47:
 285:src/kernel/slab_allocator.cpp **** 
 286:src/kernel/slab_allocator.cpp **** void SlabAllocator::move(Slab* &headFrom, Slab* &headTo, Slab* slab) {
 755              		.loc 1 286 70 is_stmt 1
 756              		.cfi_startproc
 757              	.LVL69:
 758 0544 130101FE 		addi	sp,sp,-32
 759              		.cfi_def_cfa_offset 32
 760 0548 233C1100 		sd	ra,24(sp)
 761 054c 23388100 		sd	s0,16(sp)
 762 0550 23349100 		sd	s1,8(sp)
 763 0554 23302101 		sd	s2,0(sp)
 764              		.cfi_offset 1, -8
 765              		.cfi_offset 8, -16
 766              		.cfi_offset 9, -24
 767              		.cfi_offset 18, -32
 768 0558 13040102 		addi	s0,sp,32
 769              		.cfi_def_cfa 8, 0
 770 055c 13890500 		mv	s2,a1
 771 0560 93040600 		mv	s1,a2
 287:src/kernel/slab_allocator.cpp ****     SlabAllocator::removeFromList(headFrom, slab);
 772              		.loc 1 287 5
 773              		.loc 1 287 34 is_stmt 0
 774 0564 93050600 		mv	a1,a2
 775              	.LVL70:
 776 0568 97000000 		call	_ZN13SlabAllocator14removeFromListERP4SlabS1_
 776      E7800000 
 777              	.LVL71:
 288:src/kernel/slab_allocator.cpp ****     SlabAllocator::insertIntoList(headTo, slab);
 778              		.loc 1 288 5 is_stmt 1
 779              		.loc 1 288 34 is_stmt 0
 780 0570 93850400 		mv	a1,s1
 781 0574 13050900 		mv	a0,s2
 782 0578 97000000 		call	_ZN13SlabAllocator14insertIntoListERP4SlabS1_
 782      E7800000 
 783              	.LVL72:
 289:src/kernel/slab_allocator.cpp **** }
 784              		.loc 1 289 1
 785 0580 83308101 		ld	ra,24(sp)
 786              		.cfi_restore 1
GAS LISTING /tmp/cc5Z495Y.s 			page 23


 787 0584 03340101 		ld	s0,16(sp)
 788              		.cfi_restore 8
 789              		.cfi_def_cfa 2, 32
 790 0588 83348100 		ld	s1,8(sp)
 791              		.cfi_restore 9
 792              	.LVL73:
 793 058c 03390100 		ld	s2,0(sp)
 794              		.cfi_restore 18
 795              	.LVL74:
 796 0590 13010102 		addi	sp,sp,32
 797              		.cfi_def_cfa_offset 0
 798 0594 67800000 		jr	ra
 799              		.cfi_endproc
 800              	.LFE47:
 802              		.align	2
 803              		.globl	_ZN13SlabAllocator12allocateSlotEP4Slab
 805              	_ZN13SlabAllocator12allocateSlotEP4Slab:
 806              	.LFB34:
  66:src/kernel/slab_allocator.cpp ****     for(uint64 i=0; i<slab->totalNumOfSlots; i++){
 807              		.loc 1 66 47 is_stmt 1
 808              		.cfi_startproc
 809              	.LVL75:
 810 0598 130101FE 		addi	sp,sp,-32
 811              		.cfi_def_cfa_offset 32
 812 059c 233C1100 		sd	ra,24(sp)
 813 05a0 23388100 		sd	s0,16(sp)
 814 05a4 23349100 		sd	s1,8(sp)
 815 05a8 23302101 		sd	s2,0(sp)
 816              		.cfi_offset 1, -8
 817              		.cfi_offset 8, -16
 818              		.cfi_offset 9, -24
 819              		.cfi_offset 18, -32
 820 05ac 13040102 		addi	s0,sp,32
 821              		.cfi_def_cfa 8, 0
 822 05b0 13090500 		mv	s2,a0
  67:src/kernel/slab_allocator.cpp ****         if(!(slab->allocated[i/8] & (1<<(7 - i%8)))){
 823              		.loc 1 67 5
 824              	.LVL76:
 825              	.LBB50:
  67:src/kernel/slab_allocator.cpp ****         if(!(slab->allocated[i/8] & (1<<(7 - i%8)))){
 826              		.loc 1 67 16 is_stmt 0
 827 05b4 93040000 		li	s1,0
 828              	.LVL77:
 829              	.L53:
  67:src/kernel/slab_allocator.cpp ****         if(!(slab->allocated[i/8] & (1<<(7 - i%8)))){
 830              		.loc 1 67 22 is_stmt 1 discriminator 1
  67:src/kernel/slab_allocator.cpp ****         if(!(slab->allocated[i/8] & (1<<(7 - i%8)))){
 831              		.loc 1 67 29 is_stmt 0 discriminator 1
 832 05b8 83368901 		ld	a3,24(s2)
  67:src/kernel/slab_allocator.cpp ****         if(!(slab->allocated[i/8] & (1<<(7 - i%8)))){
 833              		.loc 1 67 22 discriminator 1
 834 05bc 63F6D40A 		bleu	a3,s1,.L45
 835              	.LBE50:
  68:src/kernel/slab_allocator.cpp ****             slab->allocated[i/8] |= (1<<(7 - i%8));
 836              		.loc 1 68 9 is_stmt 1
 837              	.LBB58:
 838              	.LBB51:
GAS LISTING /tmp/cc5Z495Y.s 			page 24


  68:src/kernel/slab_allocator.cpp ****             slab->allocated[i/8] |= (1<<(7 - i%8));
 839              		.loc 1 68 31 is_stmt 0
 840 05c0 13D63400 		srli	a2,s1,3
  68:src/kernel/slab_allocator.cpp ****             slab->allocated[i/8] |= (1<<(7 - i%8));
 841              		.loc 1 68 33
 842 05c4 B307C900 		add	a5,s2,a2
 843 05c8 83C50702 		lbu	a1,32(a5)
  68:src/kernel/slab_allocator.cpp ****             slab->allocated[i/8] |= (1<<(7 - i%8));
 844              		.loc 1 68 44
 845 05cc 93C7F4FF 		not	a5,s1
 846 05d0 93F77700 		andi	a5,a5,7
  68:src/kernel/slab_allocator.cpp ****             slab->allocated[i/8] |= (1<<(7 - i%8));
 847              		.loc 1 68 12
 848 05d4 3BD7F540 		sraw	a4,a1,a5
 849 05d8 13771700 		andi	a4,a4,1
  68:src/kernel/slab_allocator.cpp ****             slab->allocated[i/8] |= (1<<(7 - i%8));
 850              		.loc 1 68 9
 851 05dc 63060700 		beqz	a4,.L55
 852              	.LBE51:
  67:src/kernel/slab_allocator.cpp ****         if(!(slab->allocated[i/8] & (1<<(7 - i%8)))){
 853              		.loc 1 67 5 is_stmt 1 discriminator 2
 854 05e0 93841400 		addi	s1,s1,1
 855              	.LVL78:
 856 05e4 6FF05FFD 		j	.L53
 857              	.L55:
 858              	.LBB56:
 859              	.LBB52:
  69:src/kernel/slab_allocator.cpp ****             Slab* &headFrom = slab->isEmpty() ? slab->parent->emptyHead : slab->parent->partialHead
 860              		.loc 1 69 13
  69:src/kernel/slab_allocator.cpp ****             Slab* &headFrom = slab->isEmpty() ? slab->parent->emptyHead : slab->parent->partialHead
 861              		.loc 1 69 39 is_stmt 0
 862 05e8 13071000 		li	a4,1
 863 05ec BB17F700 		sllw	a5,a4,a5
  69:src/kernel/slab_allocator.cpp ****             Slab* &headFrom = slab->isEmpty() ? slab->parent->emptyHead : slab->parent->partialHead
 864              		.loc 1 69 34
 865 05f0 3306C900 		add	a2,s2,a2
 866 05f4 B3E5F500 		or	a1,a1,a5
 867 05f8 2300B602 		sb	a1,32(a2)
  70:src/kernel/slab_allocator.cpp ****             slab->numOfFreeSlots--;
 868              		.loc 1 70 13 is_stmt 1
 869              	.LVL79:
 870              	.LBB53:
 871              	.LBB54:
 872              		.file 2 "src/kernel/../../h/kernel/slab_t.hpp"
   1:src/kernel/../../h/kernel/slab_t.hpp **** //
   2:src/kernel/../../h/kernel/slab_t.hpp **** // Created by os on 1/2/23.
   3:src/kernel/../../h/kernel/slab_t.hpp **** //
   4:src/kernel/../../h/kernel/slab_t.hpp **** 
   5:src/kernel/../../h/kernel/slab_t.hpp **** #ifndef KERNEL_FOR_RISCV_ARCHITECURE_SLAB_T_HPP
   6:src/kernel/../../h/kernel/slab_t.hpp **** #define KERNEL_FOR_RISCV_ARCHITECURE_SLAB_T_HPP
   7:src/kernel/../../h/kernel/slab_t.hpp **** #include "../../lib/hw.h"
   8:src/kernel/../../h/kernel/slab_t.hpp **** 
   9:src/kernel/../../h/kernel/slab_t.hpp **** typedef class Cache kmem_cache_t;
  10:src/kernel/../../h/kernel/slab_t.hpp **** 
  11:src/kernel/../../h/kernel/slab_t.hpp **** typedef class Slab{
  12:src/kernel/../../h/kernel/slab_t.hpp **** public:
  13:src/kernel/../../h/kernel/slab_t.hpp ****     inline bool isFull(){return numOfFreeSlots == 0;}
GAS LISTING /tmp/cc5Z495Y.s 			page 25


  14:src/kernel/../../h/kernel/slab_t.hpp ****     inline bool isEmpty(){return numOfFreeSlots == totalNumOfSlots;}
 873              		.loc 2 14 27
 874              		.loc 2 14 34 is_stmt 0
 875 05fc 83370901 		ld	a5,16(s2)
 876              	.LVL80:
 877              	.LBE54:
 878              	.LBE53:
  70:src/kernel/slab_allocator.cpp ****             slab->numOfFreeSlots--;
 879              		.loc 1 70 89
 880 0600 6388F604 		beq	a3,a5,.L56
  70:src/kernel/slab_allocator.cpp ****             slab->numOfFreeSlots--;
 881              		.loc 1 70 81 discriminator 2
 882 0604 0335890A 		ld	a0,168(s2)
 883              	.LVL81:
  70:src/kernel/slab_allocator.cpp ****             slab->numOfFreeSlots--;
 884              		.loc 1 70 89 discriminator 2
 885 0608 13050507 		addi	a0,a0,112
 886              	.L48:
 887              	.LVL82:
  71:src/kernel/slab_allocator.cpp ****             Slab* &headTo = slab->isFull() ? slab->parent->fullHead : slab->parent->partialHead;
 888              		.loc 1 71 13 is_stmt 1 discriminator 4
  71:src/kernel/slab_allocator.cpp ****             Slab* &headTo = slab->isFull() ? slab->parent->fullHead : slab->parent->partialHead;
 889              		.loc 1 71 33 is_stmt 0 discriminator 4
 890 060c 9387F7FF 		addi	a5,a5,-1
 891 0610 2338F900 		sd	a5,16(s2)
  72:src/kernel/slab_allocator.cpp **** 
 892              		.loc 1 72 13 is_stmt 1 discriminator 4
 893              	.LVL83:
 894              	.LBE52:
 895              	.LBE56:
 896              	.LBE58:
  13:src/kernel/../../h/kernel/slab_t.hpp ****     inline bool isEmpty(){return numOfFreeSlots == totalNumOfSlots;}
 897              		.loc 2 13 26 discriminator 4
 898              	.LBB59:
 899              	.LBB57:
 900              	.LBB55:
  72:src/kernel/slab_allocator.cpp **** 
 901              		.loc 1 72 85 is_stmt 0 discriminator 4
 902 0614 63940704 		bnez	a5,.L49
  72:src/kernel/slab_allocator.cpp **** 
 903              		.loc 1 72 52 discriminator 1
 904 0618 8335890A 		ld	a1,168(s2)
  72:src/kernel/slab_allocator.cpp **** 
 905              		.loc 1 72 85 discriminator 1
 906 061c 93858507 		addi	a1,a1,120
 907              	.L50:
 908              	.LVL84:
  74:src/kernel/slab_allocator.cpp ****                 SlabAllocator::move(headFrom, headTo, slab);
 909              		.loc 1 74 13 is_stmt 1 discriminator 4
  74:src/kernel/slab_allocator.cpp ****                 SlabAllocator::move(headFrom, headTo, slab);
 910              		.loc 1 74 16 is_stmt 0 discriminator 4
 911 0620 03B70500 		ld	a4,0(a1)
  74:src/kernel/slab_allocator.cpp ****                 SlabAllocator::move(headFrom, headTo, slab);
 912              		.loc 1 74 26 discriminator 4
 913 0624 83370500 		ld	a5,0(a0)
  74:src/kernel/slab_allocator.cpp ****                 SlabAllocator::move(headFrom, headTo, slab);
 914              		.loc 1 74 13 discriminator 4
GAS LISTING /tmp/cc5Z495Y.s 			page 26


 915 0628 6308F700 		beq	a4,a5,.L51
  75:src/kernel/slab_allocator.cpp **** 
 916              		.loc 1 75 17 is_stmt 1
  75:src/kernel/slab_allocator.cpp **** 
 917              		.loc 1 75 36 is_stmt 0
 918 062c 13060900 		mv	a2,s2
 919 0630 97000000 		call	_ZN13SlabAllocator4moveERP4SlabS2_S1_
 919      E7800000 
 920              	.LVL85:
 921              	.L51:
  77:src/kernel/slab_allocator.cpp ****         }
 922              		.loc 1 77 13 is_stmt 1
  77:src/kernel/slab_allocator.cpp ****         }
 923              		.loc 1 77 42 is_stmt 0
 924 0638 0335090A 		ld	a0,160(s2)
  77:src/kernel/slab_allocator.cpp ****         }
 925              		.loc 1 77 65
 926 063c 8337890A 		ld	a5,168(s2)
  77:src/kernel/slab_allocator.cpp ****         }
 927              		.loc 1 77 73
 928 0640 83B70704 		ld	a5,64(a5)
  77:src/kernel/slab_allocator.cpp ****         }
 929              		.loc 1 77 58
 930 0644 B3849702 		mul	s1,a5,s1
 931              	.LVL86:
  77:src/kernel/slab_allocator.cpp ****         }
 932              		.loc 1 77 55
 933 0648 33059500 		add	a0,a0,s1
  77:src/kernel/slab_allocator.cpp ****         }
 934              		.loc 1 77 83
 935 064c 6F00C002 		j	.L44
 936              	.LVL87:
 937              	.L56:
  70:src/kernel/slab_allocator.cpp ****             slab->numOfFreeSlots--;
 938              		.loc 1 70 55 discriminator 1
 939 0650 0335890A 		ld	a0,168(s2)
 940              	.LVL88:
  70:src/kernel/slab_allocator.cpp ****             slab->numOfFreeSlots--;
 941              		.loc 1 70 89 discriminator 1
 942 0654 13058506 		addi	a0,a0,104
 943 0658 6FF05FFB 		j	.L48
 944              	.LVL89:
 945              	.L49:
  72:src/kernel/slab_allocator.cpp **** 
 946              		.loc 1 72 77 discriminator 2
 947 065c 8335890A 		ld	a1,168(s2)
  72:src/kernel/slab_allocator.cpp **** 
 948              		.loc 1 72 85 discriminator 2
 949 0660 93850507 		addi	a1,a1,112
 950 0664 6FF0DFFB 		j	.L50
 951              	.LVL90:
 952              	.L45:
 953              	.LBE55:
 954              	.LBE57:
 955              	.LBE59:
  80:src/kernel/slab_allocator.cpp ****     return nullptr;
 956              		.loc 1 80 5 is_stmt 1
GAS LISTING /tmp/cc5Z495Y.s 			page 27


  80:src/kernel/slab_allocator.cpp ****     return nullptr;
 957              		.loc 1 80 11 is_stmt 0
 958 0668 8337890A 		ld	a5,168(s2)
  80:src/kernel/slab_allocator.cpp ****     return nullptr;
 959              		.loc 1 80 27
 960 066c 13071000 		li	a4,1
 961 0670 23B8E704 		sd	a4,80(a5)
  81:src/kernel/slab_allocator.cpp **** }
 962              		.loc 1 81 5 is_stmt 1
  81:src/kernel/slab_allocator.cpp **** }
 963              		.loc 1 81 12 is_stmt 0
 964 0674 13050000 		li	a0,0
 965              	.LVL91:
 966              	.L44:
  82:src/kernel/slab_allocator.cpp **** 
 967              		.loc 1 82 1
 968 0678 83308101 		ld	ra,24(sp)
 969              		.cfi_restore 1
 970 067c 03340101 		ld	s0,16(sp)
 971              		.cfi_restore 8
 972              		.cfi_def_cfa 2, 32
 973 0680 83348100 		ld	s1,8(sp)
 974              		.cfi_restore 9
 975 0684 03390100 		ld	s2,0(sp)
 976              		.cfi_restore 18
 977              	.LVL92:
 978 0688 13010102 		addi	sp,sp,32
 979              		.cfi_def_cfa_offset 0
 980 068c 67800000 		jr	ra
 981              		.cfi_endproc
 982              	.LFE34:
 984              		.align	2
 985              		.globl	_ZN13SlabAllocator14allocateObjectEP5Cache
 987              	_ZN13SlabAllocator14allocateObjectEP5Cache:
 988              	.LFB35:
  84:src/kernel/slab_allocator.cpp ****     void* ret = SlabAllocator::allocateFromList(cache->partialHead);
 989              		.loc 1 84 51 is_stmt 1
 990              		.cfi_startproc
 991              	.LVL93:
 992 0690 130101FD 		addi	sp,sp,-48
 993              		.cfi_def_cfa_offset 48
 994 0694 23341102 		sd	ra,40(sp)
 995 0698 23308102 		sd	s0,32(sp)
 996 069c 233C9100 		sd	s1,24(sp)
 997 06a0 23382101 		sd	s2,16(sp)
 998 06a4 23343101 		sd	s3,8(sp)
 999              		.cfi_offset 1, -8
 1000              		.cfi_offset 8, -16
 1001              		.cfi_offset 9, -24
 1002              		.cfi_offset 18, -32
 1003              		.cfi_offset 19, -40
 1004 06a8 13040103 		addi	s0,sp,48
 1005              		.cfi_def_cfa 8, 0
 1006 06ac 13090500 		mv	s2,a0
  85:src/kernel/slab_allocator.cpp ****     if(ret){
 1007              		.loc 1 85 5
  85:src/kernel/slab_allocator.cpp ****     if(ret){
GAS LISTING /tmp/cc5Z495Y.s 			page 28


 1008              		.loc 1 85 48 is_stmt 0
 1009 06b0 83340507 		ld	s1,112(a0)
 1010              	.LVL94:
 1011              	.L59:
 1012              	.LBB60:
 1013              	.LBB61:
 1014              		.file 3 "src/kernel/../../h/kernel/slab_allocator.hpp"
   1:src/kernel/../../h/kernel/slab_allocator.hpp **** //
   2:src/kernel/../../h/kernel/slab_allocator.hpp **** // Created by os on 12/25/22.
   3:src/kernel/../../h/kernel/slab_allocator.hpp **** //
   4:src/kernel/../../h/kernel/slab_allocator.hpp **** 
   5:src/kernel/../../h/kernel/slab_allocator.hpp **** #ifndef KERNEL_FOR_RISCV_ARCHITECURE_SLAN_HPP
   6:src/kernel/../../h/kernel/slab_allocator.hpp **** #define KERNEL_FOR_RISCV_ARCHITECURE_SLAN_HPP
   7:src/kernel/../../h/kernel/slab_allocator.hpp **** 
   8:src/kernel/../../h/kernel/slab_allocator.hpp **** #include "utility.hpp"
   9:src/kernel/../../h/kernel/slab_allocator.hpp **** #include "buddy_allocator.hpp"
  10:src/kernel/../../h/kernel/slab_allocator.hpp **** #include "console_util.hpp"
  11:src/kernel/../../h/kernel/slab_allocator.hpp **** #include "cache_t.hpp"
  12:src/kernel/../../h/kernel/slab_allocator.hpp **** 
  13:src/kernel/../../h/kernel/slab_allocator.hpp **** class SlabAllocator{
  14:src/kernel/../../h/kernel/slab_allocator.hpp **** public:
  15:src/kernel/../../h/kernel/slab_allocator.hpp **** 
  16:src/kernel/../../h/kernel/slab_allocator.hpp ****     static void initialize(void* space, uint64 blockNum);
  17:src/kernel/../../h/kernel/slab_allocator.hpp **** 
  18:src/kernel/../../h/kernel/slab_allocator.hpp ****     static Cache* createCache(const char* name, size_t size, void (*ctor)(void*), void (*dtor)(void
  19:src/kernel/../../h/kernel/slab_allocator.hpp **** 
  20:src/kernel/../../h/kernel/slab_allocator.hpp ****     static void deleteCache(Cache* &cache);
  21:src/kernel/../../h/kernel/slab_allocator.hpp **** 
  22:src/kernel/../../h/kernel/slab_allocator.hpp ****     static bool allocateSlab(Cache *cache);
  23:src/kernel/../../h/kernel/slab_allocator.hpp **** 
  24:src/kernel/../../h/kernel/slab_allocator.hpp ****     static int shrinkCache(Cache* cache);
  25:src/kernel/../../h/kernel/slab_allocator.hpp **** 
  26:src/kernel/../../h/kernel/slab_allocator.hpp ****     static void* allocateSlot(Slab* slab);
  27:src/kernel/../../h/kernel/slab_allocator.hpp **** 
  28:src/kernel/../../h/kernel/slab_allocator.hpp ****     static void* allocateObject(Cache *cache);
  29:src/kernel/../../h/kernel/slab_allocator.hpp **** 
  30:src/kernel/../../h/kernel/slab_allocator.hpp ****     static void* allocateBuffer(size_t size);
  31:src/kernel/../../h/kernel/slab_allocator.hpp **** 
  32:src/kernel/../../h/kernel/slab_allocator.hpp ****     static void freeSlot(Slab* slab, uint64 index);
  33:src/kernel/../../h/kernel/slab_allocator.hpp **** 
  34:src/kernel/../../h/kernel/slab_allocator.hpp ****     static bool freeObject(Cache* cache,const void* addr);
  35:src/kernel/../../h/kernel/slab_allocator.hpp **** 
  36:src/kernel/../../h/kernel/slab_allocator.hpp ****     static void freeBuffer(const void* addr);
  37:src/kernel/../../h/kernel/slab_allocator.hpp **** 
  38:src/kernel/../../h/kernel/slab_allocator.hpp ****     static void printSlab(Slab *slab);
  39:src/kernel/../../h/kernel/slab_allocator.hpp **** 
  40:src/kernel/../../h/kernel/slab_allocator.hpp ****     static void printCache(Cache *cache);
  41:src/kernel/../../h/kernel/slab_allocator.hpp **** 
  42:src/kernel/../../h/kernel/slab_allocator.hpp ****     static int cacheErrorHandler(Cache* cache);
  43:src/kernel/../../h/kernel/slab_allocator.hpp **** 
  44:src/kernel/../../h/kernel/slab_allocator.hpp ****     static Cache *sizeN[13];
  45:src/kernel/../../h/kernel/slab_allocator.hpp ****     static Cache *cache;
  46:src/kernel/../../h/kernel/slab_allocator.hpp ****     static Cache *largeSlabCache;
  47:src/kernel/../../h/kernel/slab_allocator.hpp **** 
  48:src/kernel/../../h/kernel/slab_allocator.hpp **** private:
  49:src/kernel/../../h/kernel/slab_allocator.hpp ****     static void insertIntoList(Slab* &head, Slab* slab);
  50:src/kernel/../../h/kernel/slab_allocator.hpp ****     static void removeFromList(Slab* &head, Slab* slab);
GAS LISTING /tmp/cc5Z495Y.s 			page 29


  51:src/kernel/../../h/kernel/slab_allocator.hpp ****     static void move(Slab* &headFrom, Slab* &headTo, Slab* slab);
  52:src/kernel/../../h/kernel/slab_allocator.hpp ****     static inline uint64 getUpperBound(Slab* slab){return (uint64)slab->objectOffset + slab->totalN
  53:src/kernel/../../h/kernel/slab_allocator.hpp ****     static inline uint64 getLowerBound(Slab* slab){return (uint64)slab->objectOffset;}
  54:src/kernel/../../h/kernel/slab_allocator.hpp **** 
  55:src/kernel/../../h/kernel/slab_allocator.hpp ****     static inline void* allocateFromList(Slab* head){
  56:src/kernel/../../h/kernel/slab_allocator.hpp ****         while(head != nullptr){
 1015              		.loc 3 56 9 is_stmt 1
 1016              		.loc 3 56 20
 1017 06b4 638C0400 		beqz	s1,.L58
 1018              	.LBB62:
  57:src/kernel/../../h/kernel/slab_allocator.hpp ****             void* ret = allocateSlot(head);
 1019              		.loc 3 57 13
 1020              		.loc 3 57 37 is_stmt 0
 1021 06b8 13850400 		mv	a0,s1
 1022 06bc 97000000 		call	_ZN13SlabAllocator12allocateSlotEP4Slab
 1022      E7800000 
 1023              	.LVL95:
  58:src/kernel/../../h/kernel/slab_allocator.hpp ****             if(ret != nullptr)
 1024              		.loc 3 58 13 is_stmt 1
 1025 06c4 E30805FE 		beqz	a0,.L59
  59:src/kernel/../../h/kernel/slab_allocator.hpp ****                 return ret;
 1026              		.loc 3 59 24 is_stmt 0
 1027 06c8 93040500 		mv	s1,a0
 1028              	.LVL96:
 1029              	.L58:
 1030              	.LBE62:
 1031              	.LBE61:
 1032              	.LBE60:
  86:src/kernel/slab_allocator.cpp ****         return ret;
 1033              		.loc 1 86 5 is_stmt 1
 1034 06cc 63820402 		beqz	s1,.L70
 1035              	.LVL97:
 1036              	.L57:
 122:src/kernel/slab_allocator.cpp **** 
 1037              		.loc 1 122 1 is_stmt 0
 1038 06d0 13850400 		mv	a0,s1
 1039 06d4 83308102 		ld	ra,40(sp)
 1040              		.cfi_remember_state
 1041              		.cfi_restore 1
 1042 06d8 03340102 		ld	s0,32(sp)
 1043              		.cfi_restore 8
 1044              		.cfi_def_cfa 2, 48
 1045 06dc 83348101 		ld	s1,24(sp)
 1046              		.cfi_restore 9
 1047 06e0 03390101 		ld	s2,16(sp)
 1048              		.cfi_restore 18
 1049              	.LVL98:
 1050 06e4 83398100 		ld	s3,8(sp)
 1051              		.cfi_restore 19
 1052 06e8 13010103 		addi	sp,sp,48
 1053              		.cfi_def_cfa_offset 0
 1054 06ec 67800000 		jr	ra
 1055              	.LVL99:
 1056              	.L70:
 1057              		.cfi_restore_state
  89:src/kernel/slab_allocator.cpp ****     if(ret){
 1058              		.loc 1 89 5 is_stmt 1
GAS LISTING /tmp/cc5Z495Y.s 			page 30


  89:src/kernel/slab_allocator.cpp ****     if(ret){
 1059              		.loc 1 89 42 is_stmt 0
 1060 06f0 83348906 		ld	s1,104(s2)
 1061              	.LVL100:
 1062              	.L62:
 1063              	.LBB63:
 1064              	.LBB64:
  56:src/kernel/../../h/kernel/slab_allocator.hpp ****             void* ret = allocateSlot(head);
 1065              		.loc 3 56 9 is_stmt 1
  56:src/kernel/../../h/kernel/slab_allocator.hpp ****             void* ret = allocateSlot(head);
 1066              		.loc 3 56 20
 1067 06f4 638C0400 		beqz	s1,.L61
 1068              	.LBB65:
  57:src/kernel/../../h/kernel/slab_allocator.hpp ****             if(ret != nullptr)
 1069              		.loc 3 57 13
  57:src/kernel/../../h/kernel/slab_allocator.hpp ****             if(ret != nullptr)
 1070              		.loc 3 57 37 is_stmt 0
 1071 06f8 13850400 		mv	a0,s1
 1072 06fc 97000000 		call	_ZN13SlabAllocator12allocateSlotEP4Slab
 1072      E7800000 
 1073              	.LVL101:
  58:src/kernel/../../h/kernel/slab_allocator.hpp ****                 return ret;
 1074              		.loc 3 58 13 is_stmt 1
 1075 0704 E30805FE 		beqz	a0,.L62
 1076              		.loc 3 59 24 is_stmt 0
 1077 0708 93040500 		mv	s1,a0
 1078              	.LVL102:
 1079              	.L61:
 1080              	.LBE65:
 1081              	.LBE64:
 1082              	.LBE63:
  90:src/kernel/slab_allocator.cpp ****         return ret;
 1083              		.loc 1 90 5 is_stmt 1
 1084 070c E39204FC 		bnez	s1,.L57
  93:src/kernel/slab_allocator.cpp ****         if (!SlabAllocator::allocateSlab(cache))
 1085              		.loc 1 93 5
 1086              	.LBB66:
  93:src/kernel/slab_allocator.cpp ****         if (!SlabAllocator::allocateSlab(cache))
 1087              		.loc 1 93 15 is_stmt 0
 1088 0710 03370904 		ld	a4,64(s2)
  93:src/kernel/slab_allocator.cpp ****         if (!SlabAllocator::allocateSlab(cache))
 1089              		.loc 1 93 5
 1090 0714 9307000B 		li	a5,176
 1091 0718 63E4E702 		bgtu	a4,a5,.L63
  94:src/kernel/slab_allocator.cpp ****             return nullptr;
 1092              		.loc 1 94 9 is_stmt 1
  94:src/kernel/slab_allocator.cpp ****             return nullptr;
 1093              		.loc 1 94 41 is_stmt 0
 1094 071c 13050900 		mv	a0,s2
 1095 0720 97000000 		call	_ZN13SlabAllocator12allocateSlabEP5Cache
 1095      E7800000 
 1096              	.LVL103:
  94:src/kernel/slab_allocator.cpp ****             return nullptr;
 1097              		.loc 1 94 9
 1098 0728 E30405FA 		beqz	a0,.L57
  97:src/kernel/slab_allocator.cpp ****     }
 1099              		.loc 1 97 9 is_stmt 1
GAS LISTING /tmp/cc5Z495Y.s 			page 31


  97:src/kernel/slab_allocator.cpp ****     }
 1100              		.loc 1 97 42 is_stmt 0
 1101 072c 03358906 		ld	a0,104(s2)
 1102 0730 97000000 		call	_ZN13SlabAllocator12allocateSlotEP4Slab
 1102      E7800000 
 1103              	.LVL104:
 1104 0738 93040500 		mv	s1,a0
 1105              	.LVL105:
 1106 073c 6FF05FF9 		j	.L57
 1107              	.L63:
 1108              	.LBB67:
 100:src/kernel/slab_allocator.cpp ****         slab->totalNumOfSlots = slab->numOfFreeSlots = (((1<<cache->slabSize) << BLOCK_SIZE_BITS)) 
 1109              		.loc 1 100 9 is_stmt 1
 100:src/kernel/slab_allocator.cpp ****         slab->totalNumOfSlots = slab->numOfFreeSlots = (((1<<cache->slabSize) << BLOCK_SIZE_BITS)) 
 1110              		.loc 1 100 58 is_stmt 0
 1111 0740 17050000 		ld	a0,.LANCHOR0
 1111      03350500 
 1112 0748 97000000 		call	_ZN13SlabAllocator14allocateObjectEP5Cache
 1112      E7800000 
 1113              	.LVL106:
 1114 0750 93040500 		mv	s1,a0
 1115              	.LVL107:
 101:src/kernel/slab_allocator.cpp ****         if(slab->totalNumOfSlots > MAX_NUMBER_OF_SLOTS)
 1116              		.loc 1 101 9 is_stmt 1
 101:src/kernel/slab_allocator.cpp ****         if(slab->totalNumOfSlots > MAX_NUMBER_OF_SLOTS)
 1117              		.loc 1 101 69 is_stmt 0
 1118 0754 03378904 		ld	a4,72(s2)
 101:src/kernel/slab_allocator.cpp ****         if(slab->totalNumOfSlots > MAX_NUMBER_OF_SLOTS)
 1119              		.loc 1 101 60
 1120 0758 93071000 		li	a5,1
 1121 075c BB97E700 		sllw	a5,a5,a4
 101:src/kernel/slab_allocator.cpp ****         if(slab->totalNumOfSlots > MAX_NUMBER_OF_SLOTS)
 1122              		.loc 1 101 79
 1123 0760 9B97C700 		slliw	a5,a5,12
 101:src/kernel/slab_allocator.cpp ****         if(slab->totalNumOfSlots > MAX_NUMBER_OF_SLOTS)
 1124              		.loc 1 101 109
 1125 0764 03370904 		ld	a4,64(s2)
 101:src/kernel/slab_allocator.cpp ****         if(slab->totalNumOfSlots > MAX_NUMBER_OF_SLOTS)
 1126              		.loc 1 101 100
 1127 0768 B3D7E702 		divu	a5,a5,a4
 101:src/kernel/slab_allocator.cpp ****         if(slab->totalNumOfSlots > MAX_NUMBER_OF_SLOTS)
 1128              		.loc 1 101 54
 1129 076c 2338F500 		sd	a5,16(a0)
 101:src/kernel/slab_allocator.cpp ****         if(slab->totalNumOfSlots > MAX_NUMBER_OF_SLOTS)
 1130              		.loc 1 101 31
 1131 0770 233CF500 		sd	a5,24(a0)
 102:src/kernel/slab_allocator.cpp ****             slab->totalNumOfSlots = slab->numOfFreeSlots = MAX_NUMBER_OF_SLOTS;
 1132              		.loc 1 102 9 is_stmt 1
 1133 0774 13070040 		li	a4,1024
 1134 0778 6378F700 		bleu	a5,a4,.L64
 103:src/kernel/slab_allocator.cpp ****         void* slabOffset = Buddy::alloc(cache->slabSize);
 1135              		.loc 1 103 13
 103:src/kernel/slab_allocator.cpp ****         void* slabOffset = Buddy::alloc(cache->slabSize);
 1136              		.loc 1 103 58 is_stmt 0
 1137 077c 93070040 		li	a5,1024
 1138 0780 2338F500 		sd	a5,16(a0)
 103:src/kernel/slab_allocator.cpp ****         void* slabOffset = Buddy::alloc(cache->slabSize);
GAS LISTING /tmp/cc5Z495Y.s 			page 32


 1139              		.loc 1 103 35
 1140 0784 233CF500 		sd	a5,24(a0)
 1141              	.L64:
 104:src/kernel/slab_allocator.cpp ****         slab->objectOffset = slabOffset;
 1142              		.loc 1 104 9 is_stmt 1
 104:src/kernel/slab_allocator.cpp ****         slab->objectOffset = slabOffset;
 1143              		.loc 1 104 40 is_stmt 0
 1144 0788 03358904 		ld	a0,72(s2)
 1145 078c 97000000 		call	_ZN5Buddy5allocEm@plt
 1145      E7800000 
 1146              	.LVL108:
 105:src/kernel/slab_allocator.cpp ****         slab->parent = cache;
 1147              		.loc 1 105 9 is_stmt 1
 105:src/kernel/slab_allocator.cpp ****         slab->parent = cache;
 1148              		.loc 1 105 28 is_stmt 0
 1149 0794 23B0A40A 		sd	a0,160(s1)
 106:src/kernel/slab_allocator.cpp ****         slab->next = nullptr;
 1150              		.loc 1 106 9 is_stmt 1
 106:src/kernel/slab_allocator.cpp ****         slab->next = nullptr;
 1151              		.loc 1 106 22 is_stmt 0
 1152 0798 23B4240B 		sd	s2,168(s1)
 107:src/kernel/slab_allocator.cpp ****         for(uint64 i=0;i<(slab->totalNumOfSlots+7)/8;i++)
 1153              		.loc 1 107 9 is_stmt 1
 107:src/kernel/slab_allocator.cpp ****         for(uint64 i=0;i<(slab->totalNumOfSlots+7)/8;i++)
 1154              		.loc 1 107 20 is_stmt 0
 1155 079c 23B40400 		sd	zero,8(s1)
 108:src/kernel/slab_allocator.cpp ****             slab->allocated[i] = 0;
 1156              		.loc 1 108 9 is_stmt 1
 1157              	.LVL109:
 1158              	.LBB68:
 108:src/kernel/slab_allocator.cpp ****             slab->allocated[i] = 0;
 1159              		.loc 1 108 20 is_stmt 0
 1160 07a0 13070000 		li	a4,0
 1161              	.LVL110:
 1162              	.L66:
 108:src/kernel/slab_allocator.cpp ****             slab->allocated[i] = 0;
 1163              		.loc 1 108 25 is_stmt 1 discriminator 3
 108:src/kernel/slab_allocator.cpp ****             slab->allocated[i] = 0;
 1164              		.loc 1 108 33 is_stmt 0 discriminator 3
 1165 07a4 83B78401 		ld	a5,24(s1)
 108:src/kernel/slab_allocator.cpp ****             slab->allocated[i] = 0;
 1166              		.loc 1 108 48 discriminator 3
 1167 07a8 93877700 		addi	a5,a5,7
 108:src/kernel/slab_allocator.cpp ****             slab->allocated[i] = 0;
 1168              		.loc 1 108 51 discriminator 3
 1169 07ac 93D73700 		srli	a5,a5,3
 108:src/kernel/slab_allocator.cpp ****             slab->allocated[i] = 0;
 1170              		.loc 1 108 25 discriminator 3
 1171 07b0 637AF700 		bleu	a5,a4,.L65
 109:src/kernel/slab_allocator.cpp **** 
 1172              		.loc 1 109 13 is_stmt 1 discriminator 2
 109:src/kernel/slab_allocator.cpp **** 
 1173              		.loc 1 109 32 is_stmt 0 discriminator 2
 1174 07b4 B387E400 		add	a5,s1,a4
 1175 07b8 23800702 		sb	zero,32(a5)
 108:src/kernel/slab_allocator.cpp ****             slab->allocated[i] = 0;
 1176              		.loc 1 108 9 is_stmt 1 discriminator 2
GAS LISTING /tmp/cc5Z495Y.s 			page 33


 1177 07bc 13071700 		addi	a4,a4,1
 1178              	.LVL111:
 1179 07c0 6FF05FFE 		j	.L66
 1180              	.L65:
 1181              	.LBE68:
 111:src/kernel/slab_allocator.cpp ****             for (uint64 i = 0; i < slab->totalNumOfSlots; i++) {
 1182              		.loc 1 111 9
 1183              	.LBB69:
 111:src/kernel/slab_allocator.cpp ****             for (uint64 i = 0; i < slab->totalNumOfSlots; i++) {
 1184              		.loc 1 111 19 is_stmt 0
 1185 07c4 83378905 		ld	a5,88(s2)
 111:src/kernel/slab_allocator.cpp ****             for (uint64 i = 0; i < slab->totalNumOfSlots; i++) {
 1186              		.loc 1 111 9
 1187 07c8 638A0702 		beqz	a5,.L67
 1188              	.LBB70:
 112:src/kernel/slab_allocator.cpp ****                 cache->ctor((void *) ((uint64) slab->objectOffset + i * slab->parent->objectSize));
 1189              		.loc 1 112 25
 1190 07cc 93090000 		li	s3,0
 1191              	.LVL112:
 1192              	.L68:
 112:src/kernel/slab_allocator.cpp ****                 cache->ctor((void *) ((uint64) slab->objectOffset + i * slab->parent->objectSize));
 1193              		.loc 1 112 34 is_stmt 1 discriminator 3
 112:src/kernel/slab_allocator.cpp ****                 cache->ctor((void *) ((uint64) slab->objectOffset + i * slab->parent->objectSize));
 1194              		.loc 1 112 42 is_stmt 0 discriminator 3
 1195 07d0 83B78401 		ld	a5,24(s1)
 112:src/kernel/slab_allocator.cpp ****                 cache->ctor((void *) ((uint64) slab->objectOffset + i * slab->parent->objectSize));
 1196              		.loc 1 112 34 discriminator 3
 1197 07d4 63F4F902 		bleu	a5,s3,.L67
 113:src/kernel/slab_allocator.cpp ****             }
 1198              		.loc 1 113 17 is_stmt 1 discriminator 2
 113:src/kernel/slab_allocator.cpp ****             }
 1199              		.loc 1 113 24 is_stmt 0 discriminator 2
 1200 07d8 03378905 		ld	a4,88(s2)
 113:src/kernel/slab_allocator.cpp ****             }
 1201              		.loc 1 113 54 discriminator 2
 1202 07dc 03B5040A 		ld	a0,160(s1)
 113:src/kernel/slab_allocator.cpp ****             }
 1203              		.loc 1 113 79 discriminator 2
 1204 07e0 83B7840A 		ld	a5,168(s1)
 113:src/kernel/slab_allocator.cpp ****             }
 1205              		.loc 1 113 87 discriminator 2
 1206 07e4 83B70704 		ld	a5,64(a5)
 113:src/kernel/slab_allocator.cpp ****             }
 1207              		.loc 1 113 71 discriminator 2
 1208 07e8 B3873703 		mul	a5,a5,s3
 113:src/kernel/slab_allocator.cpp ****             }
 1209              		.loc 1 113 28 discriminator 2
 1210 07ec 3305F500 		add	a0,a0,a5
 1211 07f0 E7000700 		jalr	a4
 1212              	.LVL113:
 112:src/kernel/slab_allocator.cpp ****                 cache->ctor((void *) ((uint64) slab->objectOffset + i * slab->parent->objectSize));
 1213              		.loc 1 112 13 is_stmt 1 discriminator 2
 1214 07f4 93891900 		addi	s3,s3,1
 1215              	.LVL114:
 1216 07f8 6FF09FFD 		j	.L68
 1217              	.LVL115:
 1218              	.L67:
GAS LISTING /tmp/cc5Z495Y.s 			page 34


 1219              	.LBE70:
 1220              	.LBE69:
 117:src/kernel/slab_allocator.cpp ****         ret = SlabAllocator::allocateSlot(cache->emptyHead);
 1221              		.loc 1 117 9
 117:src/kernel/slab_allocator.cpp ****         ret = SlabAllocator::allocateSlot(cache->emptyHead);
 1222              		.loc 1 117 38 is_stmt 0
 1223 07fc 93850400 		mv	a1,s1
 1224 0800 13058906 		addi	a0,s2,104
 1225 0804 97000000 		call	_ZN13SlabAllocator14insertIntoListERP4SlabS1_
 1225      E7800000 
 1226              	.LVL116:
 118:src/kernel/slab_allocator.cpp ****     }
 1227              		.loc 1 118 9 is_stmt 1
 118:src/kernel/slab_allocator.cpp ****     }
 1228              		.loc 1 118 42 is_stmt 0
 1229 080c 03358906 		ld	a0,104(s2)
 1230 0810 97000000 		call	_ZN13SlabAllocator12allocateSlotEP4Slab
 1230      E7800000 
 1231              	.LVL117:
 1232 0818 93040500 		mv	s1,a0
 1233              	.LVL118:
 1234 081c 6FF05FEB 		j	.L57
 1235              	.LBE67:
 1236              	.LBE66:
 1237              		.cfi_endproc
 1238              	.LFE35:
 1240              		.align	2
 1241              		.globl	_ZN13SlabAllocator14allocateBufferEm
 1243              	_ZN13SlabAllocator14allocateBufferEm:
 1244              	.LFB36:
 124:src/kernel/slab_allocator.cpp ****     uint64 level = Buddy::getDeg(Buddy::ceil(size));
 1245              		.loc 1 124 50 is_stmt 1
 1246              		.cfi_startproc
 1247              	.LVL119:
 125:src/kernel/slab_allocator.cpp ****     if(level < CACHE_LOWER_BOUND || level > CACHE_UPPER_BOUND)
 1248              		.loc 1 125 5
 1249              	.LBB71:
 1250              	.LBB72:
 1251              		.file 4 "src/kernel/../../h/kernel/buddy_allocator.hpp"
   1:src/kernel/../../h/kernel/buddy_allocator.hpp **** //
   2:src/kernel/../../h/kernel/buddy_allocator.hpp **** // Created by os on 12/24/22.
   3:src/kernel/../../h/kernel/buddy_allocator.hpp **** //
   4:src/kernel/../../h/kernel/buddy_allocator.hpp **** 
   5:src/kernel/../../h/kernel/buddy_allocator.hpp **** #ifndef KERNEL_FOR_RISCV_ARCHITECURE_BUDDY_ALLOCATOR_HPP
   6:src/kernel/../../h/kernel/buddy_allocator.hpp **** #define KERNEL_FOR_RISCV_ARCHITECURE_BUDDY_ALLOCATOR_HPP
   7:src/kernel/../../h/kernel/buddy_allocator.hpp **** 
   8:src/kernel/../../h/kernel/buddy_allocator.hpp **** #include "../../lib/hw.h"
   9:src/kernel/../../h/kernel/buddy_allocator.hpp **** #include "utility.hpp"
  10:src/kernel/../../h/kernel/buddy_allocator.hpp **** 
  11:src/kernel/../../h/kernel/buddy_allocator.hpp **** class SlabAllocator;
  12:src/kernel/../../h/kernel/buddy_allocator.hpp **** 
  13:src/kernel/../../h/kernel/buddy_allocator.hpp **** class Buddy{
  14:src/kernel/../../h/kernel/buddy_allocator.hpp **** public:
  15:src/kernel/../../h/kernel/buddy_allocator.hpp ****     static void initialize(void* addr, uint64 block_num);
  16:src/kernel/../../h/kernel/buddy_allocator.hpp **** 
  17:src/kernel/../../h/kernel/buddy_allocator.hpp ****     static void* alloc(uint64 num);
  18:src/kernel/../../h/kernel/buddy_allocator.hpp **** 
GAS LISTING /tmp/cc5Z495Y.s 			page 35


  19:src/kernel/../../h/kernel/buddy_allocator.hpp ****     static void free(void *addr, uint64 size);
  20:src/kernel/../../h/kernel/buddy_allocator.hpp **** 
  21:src/kernel/../../h/kernel/buddy_allocator.hpp ****     typedef struct Block{
  22:src/kernel/../../h/kernel/buddy_allocator.hpp ****         Block *next;
  23:src/kernel/../../h/kernel/buddy_allocator.hpp ****     }Bucket;
  24:src/kernel/../../h/kernel/buddy_allocator.hpp **** 
  25:src/kernel/../../h/kernel/buddy_allocator.hpp ****     static void printList();
  26:src/kernel/../../h/kernel/buddy_allocator.hpp **** 
  27:src/kernel/../../h/kernel/buddy_allocator.hpp ****     static inline bool canAllocate(uint64 size){
  28:src/kernel/../../h/kernel/buddy_allocator.hpp ****         return head[size] != nullptr;
  29:src/kernel/../../h/kernel/buddy_allocator.hpp ****     };
  30:src/kernel/../../h/kernel/buddy_allocator.hpp **** 
  31:src/kernel/../../h/kernel/buddy_allocator.hpp **** private:
  32:src/kernel/../../h/kernel/buddy_allocator.hpp ****     static void* BUDDY_META_DATA_ADDR;
  33:src/kernel/../../h/kernel/buddy_allocator.hpp ****     static void* BUDDY_START_ADDR;
  34:src/kernel/../../h/kernel/buddy_allocator.hpp ****     static uint64 BLOCKS_AVAILABLE;
  35:src/kernel/../../h/kernel/buddy_allocator.hpp ****     static Bucket *head[BUCKET_SIZE], *tail[BUCKET_SIZE];
  36:src/kernel/../../h/kernel/buddy_allocator.hpp **** 
  37:src/kernel/../../h/kernel/buddy_allocator.hpp ****     static inline uint64 ceil(uint64 num){
  38:src/kernel/../../h/kernel/buddy_allocator.hpp ****         num--;
 1252              		.loc 4 38 9
 1253              		.loc 4 38 12 is_stmt 0
 1254 0820 9307F5FF 		addi	a5,a0,-1
 1255              	.LVL120:
  39:src/kernel/../../h/kernel/buddy_allocator.hpp ****         num |= num>>1;
 1256              		.loc 4 39 9 is_stmt 1
 1257              		.loc 4 39 19 is_stmt 0
 1258 0824 13D51700 		srli	a0,a5,1
 1259              	.LVL121:
 1260              		.loc 4 39 13
 1261 0828 B3E7A700 		or	a5,a5,a0
 1262              	.LVL122:
  40:src/kernel/../../h/kernel/buddy_allocator.hpp ****         num |= num>>2;
 1263              		.loc 4 40 9 is_stmt 1
 1264              		.loc 4 40 19 is_stmt 0
 1265 082c 13D72700 		srli	a4,a5,2
 1266              		.loc 4 40 13
 1267 0830 B3E7E700 		or	a5,a5,a4
 1268              	.LVL123:
  41:src/kernel/../../h/kernel/buddy_allocator.hpp ****         num |= num>>4;
 1269              		.loc 4 41 9 is_stmt 1
 1270              		.loc 4 41 19 is_stmt 0
 1271 0834 13D74700 		srli	a4,a5,4
 1272              		.loc 4 41 13
 1273 0838 B3E7E700 		or	a5,a5,a4
 1274              	.LVL124:
  42:src/kernel/../../h/kernel/buddy_allocator.hpp ****         num |= num>>8;
 1275              		.loc 4 42 9 is_stmt 1
 1276              		.loc 4 42 19 is_stmt 0
 1277 083c 13D78700 		srli	a4,a5,8
 1278              		.loc 4 42 13
 1279 0840 B3E7E700 		or	a5,a5,a4
 1280              	.LVL125:
  43:src/kernel/../../h/kernel/buddy_allocator.hpp ****         num |= num>>16;
 1281              		.loc 4 43 9 is_stmt 1
 1282              		.loc 4 43 19 is_stmt 0
 1283 0844 13D70701 		srli	a4,a5,16
GAS LISTING /tmp/cc5Z495Y.s 			page 36


 1284              		.loc 4 43 13
 1285 0848 B3E7E700 		or	a5,a5,a4
 1286              	.LVL126:
  44:src/kernel/../../h/kernel/buddy_allocator.hpp ****         num |= num>>32;
 1287              		.loc 4 44 9 is_stmt 1
 1288              		.loc 4 44 19 is_stmt 0
 1289 084c 13D70702 		srli	a4,a5,32
 1290              		.loc 4 44 13
 1291 0850 B3E7E700 		or	a5,a5,a4
 1292              	.LVL127:
  45:src/kernel/../../h/kernel/buddy_allocator.hpp ****         return ++num;
 1293              		.loc 4 45 9 is_stmt 1
 1294              		.loc 4 45 18 is_stmt 0
 1295 0854 93871700 		addi	a5,a5,1
 1296              	.LVL128:
 1297              	.LBE72:
 1298              	.LBE71:
 1299              	.LBB73:
 1300              	.LBB74:
  46:src/kernel/../../h/kernel/buddy_allocator.hpp ****     }
  47:src/kernel/../../h/kernel/buddy_allocator.hpp **** 
  48:src/kernel/../../h/kernel/buddy_allocator.hpp ****     static inline uint64 getDeg(uint64 num){
  49:src/kernel/../../h/kernel/buddy_allocator.hpp ****         uint64 deg = 0;
 1301              		.loc 4 49 16
 1302 0858 13070000 		li	a4,0
 1303              	.L73:
 1304              	.LVL129:
  50:src/kernel/../../h/kernel/buddy_allocator.hpp ****         while(num>1){
 1305              		.loc 4 50 9 is_stmt 1
 1306              		.loc 4 50 18
 1307 085c 93061000 		li	a3,1
 1308 0860 63F8F600 		bleu	a5,a3,.L72
  51:src/kernel/../../h/kernel/buddy_allocator.hpp ****             num/=2;
 1309              		.loc 4 51 13
 1310              		.loc 4 51 16 is_stmt 0
 1311 0864 93D71700 		srli	a5,a5,1
 1312              	.LVL130:
  52:src/kernel/../../h/kernel/buddy_allocator.hpp ****             deg++;
 1313              		.loc 4 52 13 is_stmt 1
 1314              		.loc 4 52 16 is_stmt 0
 1315 0868 13071700 		addi	a4,a4,1
 1316              	.LVL131:
  50:src/kernel/../../h/kernel/buddy_allocator.hpp ****         while(num>1){
 1317              		.loc 4 50 9
 1318 086c 6FF01FFF 		j	.L73
 1319              	.L72:
  53:src/kernel/../../h/kernel/buddy_allocator.hpp ****         }
  54:src/kernel/../../h/kernel/buddy_allocator.hpp ****         return deg;
 1320              		.loc 4 54 9 is_stmt 1
 1321              	.LVL132:
 1322              	.LBE74:
 1323              	.LBE73:
 126:src/kernel/slab_allocator.cpp ****         return nullptr;
 1324              		.loc 1 126 5
 126:src/kernel/slab_allocator.cpp ****         return nullptr;
 1325              		.loc 1 126 34 is_stmt 0
 1326 0870 1307B7FF 		addi	a4,a4,-5
GAS LISTING /tmp/cc5Z495Y.s 			page 37


 1327              	.LVL133:
 126:src/kernel/slab_allocator.cpp ****         return nullptr;
 1328              		.loc 1 126 5
 1329 0874 9307C000 		li	a5,12
 1330 0878 63E0E704 		bgtu	a4,a5,.L75
 124:src/kernel/slab_allocator.cpp ****     uint64 level = Buddy::getDeg(Buddy::ceil(size));
 1331              		.loc 1 124 50
 1332 087c 130101FF 		addi	sp,sp,-16
 1333              		.cfi_def_cfa_offset 16
 1334 0880 23341100 		sd	ra,8(sp)
 1335 0884 23308100 		sd	s0,0(sp)
 1336              		.cfi_offset 1, -8
 1337              		.cfi_offset 8, -16
 1338 0888 13040101 		addi	s0,sp,16
 1339              		.cfi_def_cfa 8, 0
 129:src/kernel/slab_allocator.cpp ****     return SlabAllocator::allocateObject(sizeN[level]);
 1340              		.loc 1 129 9 is_stmt 1
 1341              	.LVL134:
 130:src/kernel/slab_allocator.cpp **** }
 1342              		.loc 1 130 5
 130:src/kernel/slab_allocator.cpp **** }
 1343              		.loc 1 130 41 is_stmt 0
 1344 088c 13173700 		slli	a4,a4,3
 1345              	.LVL135:
 1346 0890 97070000 		lla	a5,.LANCHOR0
 1346      93870700 
 1347 0898 3387E700 		add	a4,a5,a4
 1348 089c 03358700 		ld	a0,8(a4)
 1349 08a0 97000000 		call	_ZN13SlabAllocator14allocateObjectEP5Cache
 1349      E7800000 
 1350              	.LVL136:
 131:src/kernel/slab_allocator.cpp **** 
 1351              		.loc 1 131 1
 1352 08a8 83308100 		ld	ra,8(sp)
 1353              		.cfi_restore 1
 1354 08ac 03340100 		ld	s0,0(sp)
 1355              		.cfi_restore 8
 1356              		.cfi_def_cfa 2, 16
 1357 08b0 13010101 		addi	sp,sp,16
 1358              		.cfi_def_cfa_offset 0
 1359 08b4 67800000 		jr	ra
 1360              	.LVL137:
 1361              	.L75:
 127:src/kernel/slab_allocator.cpp ****     else
 1362              		.loc 1 127 16
 1363 08b8 13050000 		li	a0,0
 131:src/kernel/slab_allocator.cpp **** 
 1364              		.loc 1 131 1
 1365 08bc 67800000 		ret
 1366              		.cfi_endproc
 1367              	.LFE36:
 1369              		.align	2
 1370              		.globl	_ZN13SlabAllocator11createCacheEPKcmPFvPvES4_
 1372              	_ZN13SlabAllocator11createCacheEPKcmPFvPvES4_:
 1373              	.LFB40:
 177:src/kernel/slab_allocator.cpp ****     Cache* ret = (Cache*)SlabAllocator::allocateObject(SlabAllocator::cache);
 1374              		.loc 1 177 110 is_stmt 1
GAS LISTING /tmp/cc5Z495Y.s 			page 38


 1375              		.cfi_startproc
 1376              	.LVL138:
 1377 08c0 130101FC 		addi	sp,sp,-64
 1378              		.cfi_def_cfa_offset 64
 1379 08c4 233C1102 		sd	ra,56(sp)
 1380 08c8 23388102 		sd	s0,48(sp)
 1381 08cc 23349102 		sd	s1,40(sp)
 1382 08d0 23302103 		sd	s2,32(sp)
 1383 08d4 233C3101 		sd	s3,24(sp)
 1384 08d8 23384101 		sd	s4,16(sp)
 1385 08dc 23345101 		sd	s5,8(sp)
 1386              		.cfi_offset 1, -8
 1387              		.cfi_offset 8, -16
 1388              		.cfi_offset 9, -24
 1389              		.cfi_offset 18, -32
 1390              		.cfi_offset 19, -40
 1391              		.cfi_offset 20, -48
 1392              		.cfi_offset 21, -56
 1393 08e0 13040104 		addi	s0,sp,64
 1394              		.cfi_def_cfa 8, 0
 1395 08e4 93090500 		mv	s3,a0
 1396 08e8 13890500 		mv	s2,a1
 1397 08ec 930A0600 		mv	s5,a2
 1398 08f0 138A0600 		mv	s4,a3
 178:src/kernel/slab_allocator.cpp ****     if(ret == nullptr)
 1399              		.loc 1 178 5
 178:src/kernel/slab_allocator.cpp ****     if(ret == nullptr)
 1400              		.loc 1 178 55 is_stmt 0
 1401 08f4 17050000 		ld	a0,.LANCHOR0+112
 1401      03350500 
 1402              	.LVL139:
 1403 08fc 97000000 		call	_ZN13SlabAllocator14allocateObjectEP5Cache
 1403      E7800000 
 1404              	.LVL140:
 1405 0904 93040500 		mv	s1,a0
 1406              	.LVL141:
 179:src/kernel/slab_allocator.cpp ****         return nullptr;
 1407              		.loc 1 179 5 is_stmt 1
 1408 0908 630A0508 		beqz	a0,.L80
 181:src/kernel/slab_allocator.cpp ****     ret->dtor = dtor;
 1409              		.loc 1 181 5
 181:src/kernel/slab_allocator.cpp ****     ret->dtor = dtor;
 1410              		.loc 1 181 15 is_stmt 0
 1411 090c 233C5505 		sd	s5,88(a0)
 182:src/kernel/slab_allocator.cpp ****     ret->emptyHead = ret->partialHead = ret->fullHead = nullptr;
 1412              		.loc 1 182 5 is_stmt 1
 182:src/kernel/slab_allocator.cpp ****     ret->emptyHead = ret->partialHead = ret->fullHead = nullptr;
 1413              		.loc 1 182 15 is_stmt 0
 1414 0910 23304507 		sd	s4,96(a0)
 183:src/kernel/slab_allocator.cpp ****     ret->objectSize = size;
 1415              		.loc 1 183 5 is_stmt 1
 183:src/kernel/slab_allocator.cpp ****     ret->objectSize = size;
 1416              		.loc 1 183 55 is_stmt 0
 1417 0914 233C0506 		sd	zero,120(a0)
 183:src/kernel/slab_allocator.cpp ****     ret->objectSize = size;
 1418              		.loc 1 183 39
 1419 0918 23380506 		sd	zero,112(a0)
GAS LISTING /tmp/cc5Z495Y.s 			page 39


 183:src/kernel/slab_allocator.cpp ****     ret->objectSize = size;
 1420              		.loc 1 183 20
 1421 091c 23340506 		sd	zero,104(a0)
 184:src/kernel/slab_allocator.cpp ****     ret->errCode = 0;
 1422              		.loc 1 184 5 is_stmt 1
 184:src/kernel/slab_allocator.cpp ****     ret->errCode = 0;
 1423              		.loc 1 184 21 is_stmt 0
 1424 0920 23302505 		sd	s2,64(a0)
 185:src/kernel/slab_allocator.cpp ****     int deg = Buddy::getDeg(Buddy::ceil(size));
 1425              		.loc 1 185 5 is_stmt 1
 185:src/kernel/slab_allocator.cpp ****     int deg = Buddy::getDeg(Buddy::ceil(size));
 1426              		.loc 1 185 18 is_stmt 0
 1427 0924 23380504 		sd	zero,80(a0)
 186:src/kernel/slab_allocator.cpp ****     if(size <= sizeof(Slab)){
 1428              		.loc 1 186 5 is_stmt 1
 1429              	.LVL142:
 1430              	.LBB75:
 1431              	.LBB76:
  38:src/kernel/../../h/kernel/buddy_allocator.hpp ****         num |= num>>1;
 1432              		.loc 4 38 9
  38:src/kernel/../../h/kernel/buddy_allocator.hpp ****         num |= num>>1;
 1433              		.loc 4 38 12 is_stmt 0
 1434 0928 9307F9FF 		addi	a5,s2,-1
 1435              	.LVL143:
  39:src/kernel/../../h/kernel/buddy_allocator.hpp ****         num |= num>>2;
 1436              		.loc 4 39 9 is_stmt 1
  39:src/kernel/../../h/kernel/buddy_allocator.hpp ****         num |= num>>2;
 1437              		.loc 4 39 19 is_stmt 0
 1438 092c 13D71700 		srli	a4,a5,1
  39:src/kernel/../../h/kernel/buddy_allocator.hpp ****         num |= num>>2;
 1439              		.loc 4 39 13
 1440 0930 B3E7E700 		or	a5,a5,a4
 1441              	.LVL144:
  40:src/kernel/../../h/kernel/buddy_allocator.hpp ****         num |= num>>4;
 1442              		.loc 4 40 9 is_stmt 1
  40:src/kernel/../../h/kernel/buddy_allocator.hpp ****         num |= num>>4;
 1443              		.loc 4 40 19 is_stmt 0
 1444 0934 13D72700 		srli	a4,a5,2
  40:src/kernel/../../h/kernel/buddy_allocator.hpp ****         num |= num>>4;
 1445              		.loc 4 40 13
 1446 0938 B3E7E700 		or	a5,a5,a4
 1447              	.LVL145:
  41:src/kernel/../../h/kernel/buddy_allocator.hpp ****         num |= num>>8;
 1448              		.loc 4 41 9 is_stmt 1
  41:src/kernel/../../h/kernel/buddy_allocator.hpp ****         num |= num>>8;
 1449              		.loc 4 41 19 is_stmt 0
 1450 093c 13D74700 		srli	a4,a5,4
  41:src/kernel/../../h/kernel/buddy_allocator.hpp ****         num |= num>>8;
 1451              		.loc 4 41 13
 1452 0940 B3E7E700 		or	a5,a5,a4
 1453              	.LVL146:
  42:src/kernel/../../h/kernel/buddy_allocator.hpp ****         num |= num>>16;
 1454              		.loc 4 42 9 is_stmt 1
  42:src/kernel/../../h/kernel/buddy_allocator.hpp ****         num |= num>>16;
 1455              		.loc 4 42 19 is_stmt 0
 1456 0944 13D78700 		srli	a4,a5,8
  42:src/kernel/../../h/kernel/buddy_allocator.hpp ****         num |= num>>16;
GAS LISTING /tmp/cc5Z495Y.s 			page 40


 1457              		.loc 4 42 13
 1458 0948 B3E7E700 		or	a5,a5,a4
 1459              	.LVL147:
  43:src/kernel/../../h/kernel/buddy_allocator.hpp ****         num |= num>>32;
 1460              		.loc 4 43 9 is_stmt 1
  43:src/kernel/../../h/kernel/buddy_allocator.hpp ****         num |= num>>32;
 1461              		.loc 4 43 19 is_stmt 0
 1462 094c 13D70701 		srli	a4,a5,16
  43:src/kernel/../../h/kernel/buddy_allocator.hpp ****         num |= num>>32;
 1463              		.loc 4 43 13
 1464 0950 B3E7E700 		or	a5,a5,a4
 1465              	.LVL148:
  44:src/kernel/../../h/kernel/buddy_allocator.hpp ****         return ++num;
 1466              		.loc 4 44 9 is_stmt 1
  44:src/kernel/../../h/kernel/buddy_allocator.hpp ****         return ++num;
 1467              		.loc 4 44 19 is_stmt 0
 1468 0954 13D70702 		srli	a4,a5,32
  44:src/kernel/../../h/kernel/buddy_allocator.hpp ****         return ++num;
 1469              		.loc 4 44 13
 1470 0958 B3E7E700 		or	a5,a5,a4
 1471              	.LVL149:
  45:src/kernel/../../h/kernel/buddy_allocator.hpp ****     }
 1472              		.loc 4 45 9 is_stmt 1
  45:src/kernel/../../h/kernel/buddy_allocator.hpp ****     }
 1473              		.loc 4 45 18 is_stmt 0
 1474 095c 93871700 		addi	a5,a5,1
 1475              	.LVL150:
 1476              	.LBE76:
 1477              	.LBE75:
 1478              	.LBB77:
 1479              	.LBB78:
  49:src/kernel/../../h/kernel/buddy_allocator.hpp ****         while(num>1){
 1480              		.loc 4 49 16
 1481 0960 13070000 		li	a4,0
 1482              	.L83:
 1483              	.LVL151:
  50:src/kernel/../../h/kernel/buddy_allocator.hpp ****             num/=2;
 1484              		.loc 4 50 9 is_stmt 1
  50:src/kernel/../../h/kernel/buddy_allocator.hpp ****             num/=2;
 1485              		.loc 4 50 18
 1486 0964 93061000 		li	a3,1
 1487 0968 63F8F600 		bleu	a5,a3,.L82
  51:src/kernel/../../h/kernel/buddy_allocator.hpp ****             deg++;
 1488              		.loc 4 51 13
  51:src/kernel/../../h/kernel/buddy_allocator.hpp ****             deg++;
 1489              		.loc 4 51 16 is_stmt 0
 1490 096c 93D71700 		srli	a5,a5,1
 1491              	.LVL152:
  52:src/kernel/../../h/kernel/buddy_allocator.hpp ****         }
 1492              		.loc 4 52 13 is_stmt 1
  52:src/kernel/../../h/kernel/buddy_allocator.hpp ****         }
 1493              		.loc 4 52 16 is_stmt 0
 1494 0970 13071700 		addi	a4,a4,1
 1495              	.LVL153:
  50:src/kernel/../../h/kernel/buddy_allocator.hpp ****             num/=2;
 1496              		.loc 4 50 9
 1497 0974 6FF01FFF 		j	.L83
GAS LISTING /tmp/cc5Z495Y.s 			page 41


 1498              	.L82:
 1499              		.loc 4 54 9 is_stmt 1
 1500              	.LVL154:
 1501              	.LBE78:
 1502              	.LBE77:
 186:src/kernel/slab_allocator.cpp ****     if(size <= sizeof(Slab)){
 1503              		.loc 1 186 46 is_stmt 0
 1504 0978 1B070700 		sext.w	a4,a4
 1505              	.LVL155:
 187:src/kernel/slab_allocator.cpp ****         ret->slabSize = SMALL_CACHE_DEFAULT_SLAB_SIZE;
 1506              		.loc 1 187 5 is_stmt 1
 1507 097c 9307000B 		li	a5,176
 1508 0980 63E22705 		bgtu	s2,a5,.L84
 188:src/kernel/slab_allocator.cpp ****     }
 1509              		.loc 1 188 9
 188:src/kernel/slab_allocator.cpp ****     }
 1510              		.loc 1 188 23 is_stmt 0
 1511 0984 93071000 		li	a5,1
 1512 0988 23B4F404 		sd	a5,72(s1)
 1513              	.LVL156:
 1514              	.L85:
 194:src/kernel/slab_allocator.cpp ****     return ret;
 1515              		.loc 1 194 5 is_stmt 1
 194:src/kernel/slab_allocator.cpp ****     return ret;
 1516              		.loc 1 194 11 is_stmt 0
 1517 098c 93850400 		mv	a1,s1
 1518 0990 13850900 		mv	a0,s3
 1519 0994 97000000 		call	_Z6strcpyPKcPc@plt
 1519      E7800000 
 1520              	.LVL157:
 195:src/kernel/slab_allocator.cpp **** }
 1521              		.loc 1 195 5 is_stmt 1
 1522              	.L80:
 196:src/kernel/slab_allocator.cpp **** 
 1523              		.loc 1 196 1 is_stmt 0
 1524 099c 13850400 		mv	a0,s1
 1525 09a0 83308103 		ld	ra,56(sp)
 1526              		.cfi_remember_state
 1527              		.cfi_restore 1
 1528 09a4 03340103 		ld	s0,48(sp)
 1529              		.cfi_restore 8
 1530              		.cfi_def_cfa 2, 64
 1531 09a8 83348102 		ld	s1,40(sp)
 1532              		.cfi_restore 9
 1533              	.LVL158:
 1534 09ac 03390102 		ld	s2,32(sp)
 1535              		.cfi_restore 18
 1536              	.LVL159:
 1537 09b0 83398101 		ld	s3,24(sp)
 1538              		.cfi_restore 19
 1539              	.LVL160:
 1540 09b4 033A0101 		ld	s4,16(sp)
 1541              		.cfi_restore 20
 1542              	.LVL161:
 1543 09b8 833A8100 		ld	s5,8(sp)
 1544              		.cfi_restore 21
 1545              	.LVL162:
GAS LISTING /tmp/cc5Z495Y.s 			page 42


 1546 09bc 13010104 		addi	sp,sp,64
 1547              		.cfi_def_cfa_offset 0
 1548 09c0 67800000 		jr	ra
 1549              	.LVL163:
 1550              	.L84:
 1551              		.cfi_restore_state
 191:src/kernel/slab_allocator.cpp ****         ret->slabSize = deg;
 1552              		.loc 1 191 9 is_stmt 1
 191:src/kernel/slab_allocator.cpp ****         ret->slabSize = deg;
 1553              		.loc 1 191 12 is_stmt 0
 1554 09c4 1B0767FF 		addiw	a4,a4,-10
 1555              	.LVL164:
 192:src/kernel/slab_allocator.cpp ****     }
 1556              		.loc 1 192 9 is_stmt 1
 192:src/kernel/slab_allocator.cpp ****     }
 1557              		.loc 1 192 23 is_stmt 0
 1558 09c8 23B4E404 		sd	a4,72(s1)
 1559 09cc 6FF01FFC 		j	.L85
 1560              		.cfi_endproc
 1561              	.LFE40:
 1563              		.section	.rodata.str1.8
 1564 013c 00000000 		.align	3
 1565              	.LC17:
 1566 0140 4D61696E 		.string	"Main Cache"
 1566      20436163 
 1566      686500
 1567 014b 00000000 		.align	3
 1567      00
 1568              	.LC18:
 1569 0150 4C617267 		.string	"Large Slab Cache"
 1569      6520536C 
 1569      61622043 
 1569      61636865 
 1569      00
 1570              		.text
 1571              		.align	2
 1572              		.globl	_ZN13SlabAllocator10initializeEPvm
 1574              	_ZN13SlabAllocator10initializeEPvm:
 1575              	.LFB32:
  13:src/kernel/slab_allocator.cpp ****     Buddy::initialize(space, blockNum);
 1576              		.loc 1 13 62 is_stmt 1
 1577              		.cfi_startproc
 1578              	.LVL165:
 1579 09d0 130101FE 		addi	sp,sp,-32
 1580              		.cfi_def_cfa_offset 32
 1581 09d4 233C1100 		sd	ra,24(sp)
 1582 09d8 23388100 		sd	s0,16(sp)
 1583 09dc 23349100 		sd	s1,8(sp)
 1584 09e0 23302101 		sd	s2,0(sp)
 1585              		.cfi_offset 1, -8
 1586              		.cfi_offset 8, -16
 1587              		.cfi_offset 9, -24
 1588              		.cfi_offset 18, -32
 1589 09e4 13040102 		addi	s0,sp,32
 1590              		.cfi_def_cfa 8, 0
  14:src/kernel/slab_allocator.cpp ****     cache = (Cache*)SLAB_META_ADDR_CONST;
 1591              		.loc 1 14 5
GAS LISTING /tmp/cc5Z495Y.s 			page 43


  14:src/kernel/slab_allocator.cpp ****     cache = (Cache*)SLAB_META_ADDR_CONST;
 1592              		.loc 1 14 22 is_stmt 0
 1593 09e8 97000000 		call	_ZN5Buddy10initializeEPvm@plt
 1593      E7800000 
 1594              	.LVL166:
  15:src/kernel/slab_allocator.cpp ****     cache->ctor = nullptr;
 1595              		.loc 1 15 5 is_stmt 1
  15:src/kernel/slab_allocator.cpp ****     cache->ctor = nullptr;
 1596              		.loc 1 15 21 is_stmt 0
 1597 09f0 17090000 		la	s2,HEAP_START_ADDR
 1597      03390900 
 1598 09f8 83350900 		ld	a1,0(s2)
 1599 09fc 93D5C500 		srli	a1,a1,12
 1600 0a00 93851500 		addi	a1,a1,1
 1601 0a04 9395C500 		slli	a1,a1,12
  15:src/kernel/slab_allocator.cpp ****     cache->ctor = nullptr;
 1602              		.loc 1 15 11
 1603 0a08 97040000 		lla	s1,.LANCHOR0
 1603      93840400 
 1604 0a10 23B8B406 		sd	a1,112(s1)
  16:src/kernel/slab_allocator.cpp ****     cache->dtor = nullptr;
 1605              		.loc 1 16 5 is_stmt 1
  16:src/kernel/slab_allocator.cpp ****     cache->dtor = nullptr;
 1606              		.loc 1 16 17 is_stmt 0
 1607 0a14 23BC0504 		sd	zero,88(a1)
  17:src/kernel/slab_allocator.cpp ****     cache->emptyHead = nullptr;
 1608              		.loc 1 17 5 is_stmt 1
  17:src/kernel/slab_allocator.cpp ****     cache->emptyHead = nullptr;
 1609              		.loc 1 17 17 is_stmt 0
 1610 0a18 23B00506 		sd	zero,96(a1)
  18:src/kernel/slab_allocator.cpp ****     cache->partialHead = nullptr;
 1611              		.loc 1 18 5 is_stmt 1
  18:src/kernel/slab_allocator.cpp ****     cache->partialHead = nullptr;
 1612              		.loc 1 18 22 is_stmt 0
 1613 0a1c 23B40506 		sd	zero,104(a1)
  19:src/kernel/slab_allocator.cpp ****     cache->fullHead = nullptr;
 1614              		.loc 1 19 5 is_stmt 1
  19:src/kernel/slab_allocator.cpp ****     cache->fullHead = nullptr;
 1615              		.loc 1 19 24 is_stmt 0
 1616 0a20 23B80506 		sd	zero,112(a1)
  20:src/kernel/slab_allocator.cpp ****     cache->objectSize = sizeof(Cache);
 1617              		.loc 1 20 5 is_stmt 1
  20:src/kernel/slab_allocator.cpp ****     cache->objectSize = sizeof(Cache);
 1618              		.loc 1 20 21 is_stmt 0
 1619 0a24 23BC0506 		sd	zero,120(a1)
  21:src/kernel/slab_allocator.cpp ****     cache->slabSize = DEFAULT_SLAB_SIZE;
 1620              		.loc 1 21 5 is_stmt 1
  21:src/kernel/slab_allocator.cpp ****     cache->slabSize = DEFAULT_SLAB_SIZE;
 1621              		.loc 1 21 23 is_stmt 0
 1622 0a28 93070008 		li	a5,128
 1623 0a2c 23B0F504 		sd	a5,64(a1)
  22:src/kernel/slab_allocator.cpp ****     cache->errCode = 0;
 1624              		.loc 1 22 5 is_stmt 1
  22:src/kernel/slab_allocator.cpp ****     cache->errCode = 0;
 1625              		.loc 1 22 21 is_stmt 0
 1626 0a30 93072000 		li	a5,2
 1627 0a34 23B4F504 		sd	a5,72(a1)
GAS LISTING /tmp/cc5Z495Y.s 			page 44


  23:src/kernel/slab_allocator.cpp ****     strcpy("Main Cache", cache->name);
 1628              		.loc 1 23 5 is_stmt 1
  23:src/kernel/slab_allocator.cpp ****     strcpy("Main Cache", cache->name);
 1629              		.loc 1 23 20 is_stmt 0
 1630 0a38 23B80504 		sd	zero,80(a1)
  24:src/kernel/slab_allocator.cpp **** 
 1631              		.loc 1 24 5 is_stmt 1
  24:src/kernel/slab_allocator.cpp **** 
 1632              		.loc 1 24 11 is_stmt 0
 1633 0a3c 17050000 		lla	a0,.LC17
 1633      13050500 
 1634 0a44 97000000 		call	_Z6strcpyPKcPc@plt
 1634      E7800000 
 1635              	.LVL167:
  26:src/kernel/slab_allocator.cpp ****     largeSlabCache->ctor = nullptr;
 1636              		.loc 1 26 5 is_stmt 1
  26:src/kernel/slab_allocator.cpp ****     largeSlabCache->ctor = nullptr;
 1637              		.loc 1 26 30 is_stmt 0
 1638 0a4c 83370900 		ld	a5,0(s2)
 1639 0a50 37F7FFFF 		li	a4,-4096
 1640 0a54 B3F7E700 		and	a5,a5,a4
  26:src/kernel/slab_allocator.cpp ****     largeSlabCache->ctor = nullptr;
 1641              		.loc 1 26 20
 1642 0a58 23B0F400 		sd	a5,0(s1)
  27:src/kernel/slab_allocator.cpp ****     largeSlabCache->dtor = nullptr;
 1643              		.loc 1 27 5 is_stmt 1
  27:src/kernel/slab_allocator.cpp ****     largeSlabCache->dtor = nullptr;
 1644              		.loc 1 27 26 is_stmt 0
 1645 0a5c 23BC0704 		sd	zero,88(a5)
  28:src/kernel/slab_allocator.cpp ****     largeSlabCache->emptyHead = nullptr;
 1646              		.loc 1 28 5 is_stmt 1
  28:src/kernel/slab_allocator.cpp ****     largeSlabCache->emptyHead = nullptr;
 1647              		.loc 1 28 26 is_stmt 0
 1648 0a60 23B00706 		sd	zero,96(a5)
  29:src/kernel/slab_allocator.cpp ****     largeSlabCache->partialHead = nullptr;
 1649              		.loc 1 29 5 is_stmt 1
  29:src/kernel/slab_allocator.cpp ****     largeSlabCache->partialHead = nullptr;
 1650              		.loc 1 29 31 is_stmt 0
 1651 0a64 23B40706 		sd	zero,104(a5)
  30:src/kernel/slab_allocator.cpp ****     largeSlabCache->fullHead = nullptr;
 1652              		.loc 1 30 5 is_stmt 1
  30:src/kernel/slab_allocator.cpp ****     largeSlabCache->fullHead = nullptr;
 1653              		.loc 1 30 33 is_stmt 0
 1654 0a68 23B80706 		sd	zero,112(a5)
  31:src/kernel/slab_allocator.cpp ****     largeSlabCache->objectSize = sizeof(Slab);
 1655              		.loc 1 31 5 is_stmt 1
  31:src/kernel/slab_allocator.cpp ****     largeSlabCache->objectSize = sizeof(Slab);
 1656              		.loc 1 31 30 is_stmt 0
 1657 0a6c 23BC0706 		sd	zero,120(a5)
  32:src/kernel/slab_allocator.cpp ****     largeSlabCache->slabSize = SLAB_HEADER_DEFAULT_SLAB_SIZE;
 1658              		.loc 1 32 5 is_stmt 1
  32:src/kernel/slab_allocator.cpp ****     largeSlabCache->slabSize = SLAB_HEADER_DEFAULT_SLAB_SIZE;
 1659              		.loc 1 32 32 is_stmt 0
 1660 0a70 1307000B 		li	a4,176
 1661 0a74 23B0E704 		sd	a4,64(a5)
  33:src/kernel/slab_allocator.cpp ****     cache->errCode = 0;
 1662              		.loc 1 33 5 is_stmt 1
GAS LISTING /tmp/cc5Z495Y.s 			page 45


  33:src/kernel/slab_allocator.cpp ****     cache->errCode = 0;
 1663              		.loc 1 33 30 is_stmt 0
 1664 0a78 13074000 		li	a4,4
 1665 0a7c 23B4E704 		sd	a4,72(a5)
  34:src/kernel/slab_allocator.cpp ****     strcpy("Large Slab Cache", cache->name);
 1666              		.loc 1 34 5 is_stmt 1
  34:src/kernel/slab_allocator.cpp ****     strcpy("Large Slab Cache", cache->name);
 1667              		.loc 1 34 12 is_stmt 0
 1668 0a80 83B50407 		ld	a1,112(s1)
  34:src/kernel/slab_allocator.cpp ****     strcpy("Large Slab Cache", cache->name);
 1669              		.loc 1 34 20
 1670 0a84 23B80504 		sd	zero,80(a1)
  35:src/kernel/slab_allocator.cpp **** 
 1671              		.loc 1 35 5 is_stmt 1
  35:src/kernel/slab_allocator.cpp **** 
 1672              		.loc 1 35 11 is_stmt 0
 1673 0a88 17050000 		lla	a0,.LC18
 1673      13050500 
 1674 0a90 97000000 		call	_Z6strcpyPKcPc@plt
 1674      E7800000 
 1675              	.LVL168:
  38:src/kernel/slab_allocator.cpp ****         sizeN[i] = SlabAllocator::createCache(names[i], 1<<(i+CACHE_LOWER_BOUND), nullptr, nullptr)
 1676              		.loc 1 38 5 is_stmt 1
 1677              	.LBB79:
  38:src/kernel/slab_allocator.cpp ****         sizeN[i] = SlabAllocator::createCache(names[i], 1<<(i+CACHE_LOWER_BOUND), nullptr, nullptr)
 1678              		.loc 1 38 13 is_stmt 0
 1679 0a98 93040000 		li	s1,0
 1680 0a9c 6F008004 		j	.L89
 1681              	.LVL169:
 1682              	.L91:
  39:src/kernel/slab_allocator.cpp ****     }
 1683              		.loc 1 39 9 is_stmt 1 discriminator 2
  39:src/kernel/slab_allocator.cpp ****     }
 1684              		.loc 1 39 62 is_stmt 0 discriminator 2
 1685 0aa0 1B875400 		addiw	a4,s1,5
  39:src/kernel/slab_allocator.cpp ****     }
 1686              		.loc 1 39 46 discriminator 2
 1687 0aa4 13993400 		slli	s2,s1,3
 1688 0aa8 97070000 		lla	a5,.LANCHOR1
 1688      93870700 
 1689 0ab0 B3872701 		add	a5,a5,s2
 1690 0ab4 93060000 		li	a3,0
 1691 0ab8 13060000 		li	a2,0
 1692 0abc 93051000 		li	a1,1
 1693 0ac0 BB95E500 		sllw	a1,a1,a4
 1694 0ac4 03B50700 		ld	a0,0(a5)
 1695 0ac8 97000000 		call	_ZN13SlabAllocator11createCacheEPKcmPFvPvES4_
 1695      E7800000 
 1696              	.LVL170:
  39:src/kernel/slab_allocator.cpp ****     }
 1697              		.loc 1 39 18 discriminator 2
 1698 0ad0 97070000 		lla	a5,.LANCHOR0
 1698      93870700 
 1699 0ad8 B3872701 		add	a5,a5,s2
 1700 0adc 23B4A700 		sd	a0,8(a5)
  38:src/kernel/slab_allocator.cpp ****         sizeN[i] = SlabAllocator::createCache(names[i], 1<<(i+CACHE_LOWER_BOUND), nullptr, nullptr)
 1701              		.loc 1 38 5 is_stmt 1 discriminator 2
GAS LISTING /tmp/cc5Z495Y.s 			page 46


 1702 0ae0 9B841400 		addiw	s1,s1,1
 1703              	.LVL171:
 1704              	.L89:
  38:src/kernel/slab_allocator.cpp ****         sizeN[i] = SlabAllocator::createCache(names[i], 1<<(i+CACHE_LOWER_BOUND), nullptr, nullptr)
 1705              		.loc 1 38 18 discriminator 3
 1706 0ae4 9307C000 		li	a5,12
 1707 0ae8 E3DC97FA 		ble	s1,a5,.L91
 1708              	.LBE79:
  41:src/kernel/slab_allocator.cpp **** 
 1709              		.loc 1 41 1 is_stmt 0
 1710 0aec 83308101 		ld	ra,24(sp)
 1711              		.cfi_restore 1
 1712 0af0 03340101 		ld	s0,16(sp)
 1713              		.cfi_restore 8
 1714              		.cfi_def_cfa 2, 32
 1715 0af4 83348100 		ld	s1,8(sp)
 1716              		.cfi_restore 9
 1717              	.LVL172:
 1718 0af8 03390100 		ld	s2,0(sp)
 1719              		.cfi_restore 18
 1720 0afc 13010102 		addi	sp,sp,32
 1721              		.cfi_def_cfa_offset 0
 1722 0b00 67800000 		jr	ra
 1723              		.cfi_endproc
 1724              	.LFE32:
 1726              		.align	2
 1727              		.globl	_ZN13SlabAllocator8freeSlotEP4Slabm
 1729              	_ZN13SlabAllocator8freeSlotEP4Slabm:
 1730              	.LFB37:
 133:src/kernel/slab_allocator.cpp ****     if(slab->allocated[index/8] & (1<<(7 - index%8))) {
 1731              		.loc 1 133 56 is_stmt 1
 1732              		.cfi_startproc
 1733              	.LVL173:
 134:src/kernel/slab_allocator.cpp ****         slab->allocated[index/8] &= ~(1<<(7 - index%8));
 1734              		.loc 1 134 5
 1735              	.LBB80:
 134:src/kernel/slab_allocator.cpp ****         slab->allocated[index/8] &= ~(1<<(7 - index%8));
 1736              		.loc 1 134 29 is_stmt 0
 1737 0b04 13D73500 		srli	a4,a1,3
 134:src/kernel/slab_allocator.cpp ****         slab->allocated[index/8] &= ~(1<<(7 - index%8));
 1738              		.loc 1 134 31
 1739 0b08 B307E500 		add	a5,a0,a4
 1740 0b0c 83C60702 		lbu	a3,32(a5)
 134:src/kernel/slab_allocator.cpp ****         slab->allocated[index/8] &= ~(1<<(7 - index%8));
 1741              		.loc 1 134 42
 1742 0b10 93C5F5FF 		not	a1,a1
 1743              	.LVL174:
 1744 0b14 93F57500 		andi	a1,a1,7
 1745              	.LVL175:
 134:src/kernel/slab_allocator.cpp ****         slab->allocated[index/8] &= ~(1<<(7 - index%8));
 1746              		.loc 1 134 53
 1747 0b18 BBD7B640 		sraw	a5,a3,a1
 1748 0b1c 93F71700 		andi	a5,a5,1
 134:src/kernel/slab_allocator.cpp ****         slab->allocated[index/8] &= ~(1<<(7 - index%8));
 1749              		.loc 1 134 5
 1750 0b20 638E070E 		beqz	a5,.L101
 1751              	.LBE80:
GAS LISTING /tmp/cc5Z495Y.s 			page 47


 133:src/kernel/slab_allocator.cpp ****     if(slab->allocated[index/8] & (1<<(7 - index%8))) {
 1752              		.loc 1 133 56
 1753 0b24 130101FE 		addi	sp,sp,-32
 1754              		.cfi_def_cfa_offset 32
 1755 0b28 233C1100 		sd	ra,24(sp)
 1756 0b2c 23388100 		sd	s0,16(sp)
 1757 0b30 23349100 		sd	s1,8(sp)
 1758              		.cfi_offset 1, -8
 1759              		.cfi_offset 8, -16
 1760              		.cfi_offset 9, -24
 1761 0b34 13040102 		addi	s0,sp,32
 1762              		.cfi_def_cfa 8, 0
 1763 0b38 93040500 		mv	s1,a0
 1764              	.LBB88:
 1765              	.LBB81:
 135:src/kernel/slab_allocator.cpp ****         Slab *&headFrom = slab->isFull() ? slab->parent->fullHead : slab->parent->partialHead;
 1766              		.loc 1 135 9 is_stmt 1
 135:src/kernel/slab_allocator.cpp ****         Slab *&headFrom = slab->isFull() ? slab->parent->fullHead : slab->parent->partialHead;
 1767              		.loc 1 135 40 is_stmt 0
 1768 0b3c 93071000 		li	a5,1
 1769 0b40 BB95B700 		sllw	a1,a5,a1
 135:src/kernel/slab_allocator.cpp ****         Slab *&headFrom = slab->isFull() ? slab->parent->fullHead : slab->parent->partialHead;
 1770              		.loc 1 135 34
 1771 0b44 3307E500 		add	a4,a0,a4
 1772 0b48 93C5F5FF 		not	a1,a1
 1773 0b4c B3F5D500 		and	a1,a1,a3
 1774 0b50 2300B702 		sb	a1,32(a4)
 136:src/kernel/slab_allocator.cpp ****         slab->numOfFreeSlots++;
 1775              		.loc 1 136 9 is_stmt 1
 1776              	.LVL176:
 1777              	.LBB82:
 1778              	.LBB83:
  13:src/kernel/../../h/kernel/slab_t.hpp ****     inline bool isEmpty(){return numOfFreeSlots == totalNumOfSlots;}
 1779              		.loc 2 13 26
  13:src/kernel/../../h/kernel/slab_t.hpp ****     inline bool isEmpty(){return numOfFreeSlots == totalNumOfSlots;}
 1780              		.loc 2 13 33 is_stmt 0
 1781 0b54 83370501 		ld	a5,16(a0)
 1782              	.LVL177:
 1783              	.LBE83:
 1784              	.LBE82:
 136:src/kernel/slab_allocator.cpp ****         slab->numOfFreeSlots++;
 1785              		.loc 1 136 83
 1786 0b58 639A0704 		bnez	a5,.L94
 136:src/kernel/slab_allocator.cpp ****         slab->numOfFreeSlots++;
 1787              		.loc 1 136 50 discriminator 1
 1788 0b5c 0335850A 		ld	a0,168(a0)
 1789              	.LVL178:
 136:src/kernel/slab_allocator.cpp ****         slab->numOfFreeSlots++;
 1790              		.loc 1 136 83 discriminator 1
 1791 0b60 13058507 		addi	a0,a0,120
 1792              	.L95:
 1793              	.LVL179:
 137:src/kernel/slab_allocator.cpp ****         Slab *&headTo = slab->isEmpty() ? slab->parent->emptyHead : slab->parent->partialHead;
 1794              		.loc 1 137 9 is_stmt 1 discriminator 4
 137:src/kernel/slab_allocator.cpp ****         Slab *&headTo = slab->isEmpty() ? slab->parent->emptyHead : slab->parent->partialHead;
 1795              		.loc 1 137 29 is_stmt 0 discriminator 4
 1796 0b64 93871700 		addi	a5,a5,1
GAS LISTING /tmp/cc5Z495Y.s 			page 48


 1797 0b68 23B8F400 		sd	a5,16(s1)
 138:src/kernel/slab_allocator.cpp **** 
 1798              		.loc 1 138 9 is_stmt 1 discriminator 4
 1799              	.LVL180:
 1800              	.LBB84:
 1801              	.LBB85:
 1802              		.loc 2 14 27 discriminator 4
 1803              		.loc 2 14 52 is_stmt 0 discriminator 4
 1804 0b6c 03B78401 		ld	a4,24(s1)
 1805              	.LVL181:
 1806              	.LBE85:
 1807              	.LBE84:
 138:src/kernel/slab_allocator.cpp **** 
 1808              		.loc 1 138 83 discriminator 4
 1809 0b70 6384E704 		beq	a5,a4,.L104
 138:src/kernel/slab_allocator.cpp **** 
 1810              		.loc 1 138 75 discriminator 2
 1811 0b74 83B5840A 		ld	a1,168(s1)
 138:src/kernel/slab_allocator.cpp **** 
 1812              		.loc 1 138 83 discriminator 2
 1813 0b78 93850507 		addi	a1,a1,112
 1814              	.L97:
 1815              	.LVL182:
 140:src/kernel/slab_allocator.cpp ****             SlabAllocator::removeFromList(headFrom, slab);
 1816              		.loc 1 140 9 is_stmt 1 discriminator 4
 1817              	.LBE81:
 1818              	.LBE88:
 1819              		.loc 2 14 27 discriminator 4
 1820              	.LBB89:
 1821              	.LBB86:
 140:src/kernel/slab_allocator.cpp ****             SlabAllocator::removeFromList(headFrom, slab);
 1822              		.loc 1 140 9 is_stmt 0 discriminator 4
 1823 0b7c 6384E704 		beq	a5,a4,.L105
 151:src/kernel/slab_allocator.cpp ****                 SlabAllocator::move(headFrom, headTo, slab);
 1824              		.loc 1 151 13 is_stmt 1
 151:src/kernel/slab_allocator.cpp ****                 SlabAllocator::move(headFrom, headTo, slab);
 1825              		.loc 1 151 17 is_stmt 0
 1826 0b80 03B70500 		ld	a4,0(a1)
 151:src/kernel/slab_allocator.cpp ****                 SlabAllocator::move(headFrom, headTo, slab);
 1827              		.loc 1 151 27
 1828 0b84 83370500 		ld	a5,0(a0)
 151:src/kernel/slab_allocator.cpp ****                 SlabAllocator::move(headFrom, headTo, slab);
 1829              		.loc 1 151 13
 1830 0b88 6308F700 		beq	a4,a5,.L92
 152:src/kernel/slab_allocator.cpp ****     }
 1831              		.loc 1 152 17 is_stmt 1
 152:src/kernel/slab_allocator.cpp ****     }
 1832              		.loc 1 152 36 is_stmt 0
 1833 0b8c 13860400 		mv	a2,s1
 1834 0b90 97000000 		call	_ZN13SlabAllocator4moveERP4SlabS2_S1_
 1834      E7800000 
 1835              	.LVL183:
 1836              	.L92:
 1837              	.LBE86:
 1838              	.LBE89:
 154:src/kernel/slab_allocator.cpp **** 
 1839              		.loc 1 154 1
GAS LISTING /tmp/cc5Z495Y.s 			page 49


 1840 0b98 83308101 		ld	ra,24(sp)
 1841              		.cfi_remember_state
 1842              		.cfi_restore 1
 1843 0b9c 03340101 		ld	s0,16(sp)
 1844              		.cfi_restore 8
 1845              		.cfi_def_cfa 2, 32
 1846 0ba0 83348100 		ld	s1,8(sp)
 1847              		.cfi_restore 9
 1848              	.LVL184:
 1849 0ba4 13010102 		addi	sp,sp,32
 1850              		.cfi_def_cfa_offset 0
 1851 0ba8 67800000 		jr	ra
 1852              	.LVL185:
 1853              	.L94:
 1854              		.cfi_restore_state
 1855              	.LBB90:
 1856              	.LBB87:
 136:src/kernel/slab_allocator.cpp ****         slab->numOfFreeSlots++;
 1857              		.loc 1 136 75 discriminator 2
 1858 0bac 0335850A 		ld	a0,168(a0)
 136:src/kernel/slab_allocator.cpp ****         slab->numOfFreeSlots++;
 1859              		.loc 1 136 83 discriminator 2
 1860 0bb0 13050507 		addi	a0,a0,112
 1861 0bb4 6FF01FFB 		j	.L95
 1862              	.LVL186:
 1863              	.L104:
 138:src/kernel/slab_allocator.cpp **** 
 1864              		.loc 1 138 49 discriminator 1
 1865 0bb8 83B5840A 		ld	a1,168(s1)
 138:src/kernel/slab_allocator.cpp **** 
 1866              		.loc 1 138 83 discriminator 1
 1867 0bbc 93858506 		addi	a1,a1,104
 1868 0bc0 6FF0DFFB 		j	.L97
 1869              	.LVL187:
 1870              	.L105:
 141:src/kernel/slab_allocator.cpp ****             if(slab->parent->objectSize <= sizeof(Slab)) {
 1871              		.loc 1 141 13 is_stmt 1
 141:src/kernel/slab_allocator.cpp ****             if(slab->parent->objectSize <= sizeof(Slab)) {
 1872              		.loc 1 141 42 is_stmt 0
 1873 0bc4 93850400 		mv	a1,s1
 1874              	.LVL188:
 1875 0bc8 97000000 		call	_ZN13SlabAllocator14removeFromListERP4SlabS1_
 1875      E7800000 
 1876              	.LVL189:
 142:src/kernel/slab_allocator.cpp ****                 Buddy::free(slab, slab->parent->slabSize);
 1877              		.loc 1 142 13 is_stmt 1
 142:src/kernel/slab_allocator.cpp ****                 Buddy::free(slab, slab->parent->slabSize);
 1878              		.loc 1 142 22 is_stmt 0
 1879 0bd0 83B7840A 		ld	a5,168(s1)
 142:src/kernel/slab_allocator.cpp ****                 Buddy::free(slab, slab->parent->slabSize);
 1880              		.loc 1 142 30
 1881 0bd4 83B60704 		ld	a3,64(a5)
 142:src/kernel/slab_allocator.cpp ****                 Buddy::free(slab, slab->parent->slabSize);
 1882              		.loc 1 142 13
 1883 0bd8 1307000B 		li	a4,176
 1884 0bdc 636CD700 		bgtu	a3,a4,.L99
 143:src/kernel/slab_allocator.cpp ****             }
GAS LISTING /tmp/cc5Z495Y.s 			page 50


 1885              		.loc 1 143 17 is_stmt 1
 143:src/kernel/slab_allocator.cpp ****             }
 1886              		.loc 1 143 28 is_stmt 0
 1887 0be0 83B58704 		ld	a1,72(a5)
 1888 0be4 13850400 		mv	a0,s1
 1889 0be8 97000000 		call	_ZN5Buddy4freeEPvm@plt
 1889      E7800000 
 1890              	.LVL190:
 1891 0bf0 6FF09FFA 		j	.L92
 1892              	.L99:
 146:src/kernel/slab_allocator.cpp ****                 SlabAllocator::freeObject(largeSlabCache, slab);
 1893              		.loc 1 146 17 is_stmt 1
 146:src/kernel/slab_allocator.cpp ****                 SlabAllocator::freeObject(largeSlabCache, slab);
 1894              		.loc 1 146 28 is_stmt 0
 1895 0bf4 83B58704 		ld	a1,72(a5)
 1896 0bf8 03B5040A 		ld	a0,160(s1)
 1897 0bfc 97000000 		call	_ZN5Buddy4freeEPvm@plt
 1897      E7800000 
 1898              	.LVL191:
 147:src/kernel/slab_allocator.cpp ****             }
 1899              		.loc 1 147 17 is_stmt 1
 147:src/kernel/slab_allocator.cpp ****             }
 1900              		.loc 1 147 42 is_stmt 0
 1901 0c04 93850400 		mv	a1,s1
 1902 0c08 17050000 		ld	a0,.LANCHOR0
 1902      03350500 
 1903 0c10 97000000 		call	_ZN13SlabAllocator10freeObjectEP5CachePKv
 1903      E7800000 
 1904              	.LVL192:
 1905 0c18 6FF01FF8 		j	.L92
 1906              	.LVL193:
 1907              	.L101:
 1908              		.cfi_def_cfa_register 2
 1909              		.cfi_restore 1
 1910              		.cfi_restore 8
 1911              		.cfi_restore 9
 1912 0c1c 67800000 		ret
 1913              	.LBE87:
 1914              	.LBE90:
 1915              		.cfi_endproc
 1916              	.LFE37:
 1918              		.align	2
 1919              		.globl	_ZN13SlabAllocator10freeObjectEP5CachePKv
 1921              	_ZN13SlabAllocator10freeObjectEP5CachePKv:
 1922              	.LFB38:
 156:src/kernel/slab_allocator.cpp ****     if(cache->dtor)
 1923              		.loc 1 156 64 is_stmt 1
 1924              		.cfi_startproc
 1925              	.LVL194:
 1926 0c20 130101FE 		addi	sp,sp,-32
 1927              		.cfi_def_cfa_offset 32
 1928 0c24 233C1100 		sd	ra,24(sp)
 1929 0c28 23388100 		sd	s0,16(sp)
 1930 0c2c 23349100 		sd	s1,8(sp)
 1931 0c30 23302101 		sd	s2,0(sp)
 1932              		.cfi_offset 1, -8
 1933              		.cfi_offset 8, -16
GAS LISTING /tmp/cc5Z495Y.s 			page 51


 1934              		.cfi_offset 9, -24
 1935              		.cfi_offset 18, -32
 1936 0c34 13040102 		addi	s0,sp,32
 1937              		.cfi_def_cfa 8, 0
 1938 0c38 13090500 		mv	s2,a0
 1939 0c3c 93840500 		mv	s1,a1
 157:src/kernel/slab_allocator.cpp ****         cache->dtor((void*)addr);
 1940              		.loc 1 157 5
 157:src/kernel/slab_allocator.cpp ****         cache->dtor((void*)addr);
 1941              		.loc 1 157 15 is_stmt 0
 1942 0c40 83370506 		ld	a5,96(a0)
 157:src/kernel/slab_allocator.cpp ****         cache->dtor((void*)addr);
 1943              		.loc 1 157 5
 1944 0c44 63860700 		beqz	a5,.L107
 158:src/kernel/slab_allocator.cpp ****     if(cache->ctor)
 1945              		.loc 1 158 9 is_stmt 1
 158:src/kernel/slab_allocator.cpp ****     if(cache->ctor)
 1946              		.loc 1 158 20 is_stmt 0
 1947 0c48 13850500 		mv	a0,a1
 1948              	.LVL195:
 1949 0c4c E7800700 		jalr	a5
 1950              	.LVL196:
 1951              	.L107:
 159:src/kernel/slab_allocator.cpp ****         cache->ctor((void*)addr);
 1952              		.loc 1 159 5 is_stmt 1
 159:src/kernel/slab_allocator.cpp ****         cache->ctor((void*)addr);
 1953              		.loc 1 159 15 is_stmt 0
 1954 0c50 83378905 		ld	a5,88(s2)
 159:src/kernel/slab_allocator.cpp ****         cache->ctor((void*)addr);
 1955              		.loc 1 159 5
 1956 0c54 63860700 		beqz	a5,.L108
 160:src/kernel/slab_allocator.cpp **** 
 1957              		.loc 1 160 9 is_stmt 1
 160:src/kernel/slab_allocator.cpp **** 
 1958              		.loc 1 160 20 is_stmt 0
 1959 0c58 13850400 		mv	a0,s1
 1960 0c5c E7800700 		jalr	a5
 1961              	.LVL197:
 1962              	.L108:
 162:src/kernel/slab_allocator.cpp ****     if(deleted)
 1963              		.loc 1 162 5 is_stmt 1
 162:src/kernel/slab_allocator.cpp ****     if(deleted)
 1964              		.loc 1 162 47 is_stmt 0
 1965 0c60 03358907 		ld	a0,120(s2)
 1966              	.LVL198:
 1967 0c64 6F008000 		j	.L111
 1968              	.LVL199:
 1969              	.L110:
 1970              	.LBB105:
 1971              	.LBB106:
 1972              	.LBB107:
  60:src/kernel/../../h/kernel/slab_allocator.hpp ****         }
  61:src/kernel/../../h/kernel/slab_allocator.hpp ****         return nullptr;
  62:src/kernel/../../h/kernel/slab_allocator.hpp ****     }
  63:src/kernel/../../h/kernel/slab_allocator.hpp **** 
  64:src/kernel/../../h/kernel/slab_allocator.hpp ****     static inline bool freeFromList(Slab* head,const void* addr){
  65:src/kernel/../../h/kernel/slab_allocator.hpp ****         while(head){
GAS LISTING /tmp/cc5Z495Y.s 			page 52


  66:src/kernel/../../h/kernel/slab_allocator.hpp ****             uint64 upperBound = SlabAllocator::getUpperBound(head);
  67:src/kernel/../../h/kernel/slab_allocator.hpp ****             uint64 lowerBound = SlabAllocator::getLowerBound(head);
  68:src/kernel/../../h/kernel/slab_allocator.hpp ****             if((uint64)addr < upperBound && (uint64)addr >= lowerBound){
  69:src/kernel/../../h/kernel/slab_allocator.hpp ****                 uint64 index = ((uint64)addr - lowerBound) / head->parent->objectSize;
  70:src/kernel/../../h/kernel/slab_allocator.hpp ****                 freeSlot(head, index);
  71:src/kernel/../../h/kernel/slab_allocator.hpp ****                 return true;
  72:src/kernel/../../h/kernel/slab_allocator.hpp ****             }
  73:src/kernel/../../h/kernel/slab_allocator.hpp ****             head = head->next;
 1973              		.loc 3 73 13 is_stmt 1
 1974              		.loc 3 73 18 is_stmt 0
 1975 0c68 03358500 		ld	a0,8(a0)
 1976              	.LVL200:
 1977              	.L111:
 1978              	.LBE107:
  65:src/kernel/../../h/kernel/slab_allocator.hpp ****             uint64 upperBound = SlabAllocator::getUpperBound(head);
 1979              		.loc 3 65 9 is_stmt 1
  65:src/kernel/../../h/kernel/slab_allocator.hpp ****             uint64 upperBound = SlabAllocator::getUpperBound(head);
 1980              		.loc 3 65 15
 1981 0c6c 630E0502 		beqz	a0,.L116
 1982              	.LBB112:
  66:src/kernel/../../h/kernel/slab_allocator.hpp ****             uint64 lowerBound = SlabAllocator::getLowerBound(head);
 1983              		.loc 3 66 13
 1984              	.LVL201:
 1985              	.LBB108:
 1986              	.LBB109:
  52:src/kernel/../../h/kernel/slab_allocator.hpp ****     static inline uint64 getLowerBound(Slab* slab){return (uint64)slab->objectOffset;}
 1987              		.loc 3 52 52
  52:src/kernel/../../h/kernel/slab_allocator.hpp ****     static inline uint64 getLowerBound(Slab* slab){return (uint64)slab->objectOffset;}
 1988              		.loc 3 52 73 is_stmt 0
 1989 0c70 0337050A 		ld	a4,160(a0)
  52:src/kernel/../../h/kernel/slab_allocator.hpp ****     static inline uint64 getLowerBound(Slab* slab){return (uint64)slab->objectOffset;}
 1990              		.loc 3 52 94
 1991 0c74 83378501 		ld	a5,24(a0)
  52:src/kernel/../../h/kernel/slab_allocator.hpp ****     static inline uint64 getLowerBound(Slab* slab){return (uint64)slab->objectOffset;}
 1992              		.loc 3 52 116
 1993 0c78 8336850A 		ld	a3,168(a0)
  52:src/kernel/../../h/kernel/slab_allocator.hpp ****     static inline uint64 getLowerBound(Slab* slab){return (uint64)slab->objectOffset;}
 1994              		.loc 3 52 124
 1995 0c7c 83B50604 		ld	a1,64(a3)
  52:src/kernel/../../h/kernel/slab_allocator.hpp ****     static inline uint64 getLowerBound(Slab* slab){return (uint64)slab->objectOffset;}
 1996              		.loc 3 52 109
 1997 0c80 B387B702 		mul	a5,a5,a1
  52:src/kernel/../../h/kernel/slab_allocator.hpp ****     static inline uint64 getLowerBound(Slab* slab){return (uint64)slab->objectOffset;}
 1998              		.loc 3 52 124
 1999 0c84 B307F700 		add	a5,a4,a5
 2000              	.LVL202:
 2001              	.LBE109:
 2002              	.LBE108:
  67:src/kernel/../../h/kernel/slab_allocator.hpp ****             if((uint64)addr < upperBound && (uint64)addr >= lowerBound){
 2003              		.loc 3 67 13 is_stmt 1
 2004              	.LBE112:
 2005              	.LBE106:
 2006              	.LBE105:
  53:src/kernel/../../h/kernel/slab_allocator.hpp **** 
 2007              		.loc 3 53 52
 2008              	.LBB115:
 2009              	.LBB114:
GAS LISTING /tmp/cc5Z495Y.s 			page 53


 2010              	.LBB113:
  68:src/kernel/../../h/kernel/slab_allocator.hpp ****                 uint64 index = ((uint64)addr - lowerBound) / head->parent->objectSize;
 2011              		.loc 3 68 13
 2012              	.LBB110:
 2013 0c88 E3F0F4FE 		bleu	a5,s1,.L110
  68:src/kernel/../../h/kernel/slab_allocator.hpp ****                 uint64 index = ((uint64)addr - lowerBound) / head->parent->objectSize;
 2014              		.loc 3 68 42 is_stmt 0
 2015 0c8c E3EEE4FC 		bgtu	a4,s1,.L110
 2016              	.LBB111:
  69:src/kernel/../../h/kernel/slab_allocator.hpp ****                 freeSlot(head, index);
 2017              		.loc 3 69 17 is_stmt 1
  69:src/kernel/../../h/kernel/slab_allocator.hpp ****                 freeSlot(head, index);
 2018              		.loc 3 69 46 is_stmt 0
 2019 0c90 3387E440 		sub	a4,s1,a4
 2020              	.LVL203:
  70:src/kernel/../../h/kernel/slab_allocator.hpp ****                 return true;
 2021              		.loc 3 70 17 is_stmt 1
  70:src/kernel/../../h/kernel/slab_allocator.hpp ****                 return true;
 2022              		.loc 3 70 25 is_stmt 0
 2023 0c94 B355B702 		divu	a1,a4,a1
 2024              	.LVL204:
 2025 0c98 97000000 		call	_ZN13SlabAllocator8freeSlotEP4Slabm
 2025      E7800000 
 2026              	.LVL205:
  71:src/kernel/../../h/kernel/slab_allocator.hpp ****             }
 2027              		.loc 3 71 17 is_stmt 1
  71:src/kernel/../../h/kernel/slab_allocator.hpp ****             }
 2028              		.loc 3 71 24 is_stmt 0
 2029 0ca0 13051000 		li	a0,1
 2030 0ca4 6F008000 		j	.L109
 2031              	.LVL206:
 2032              	.L116:
 2033              	.LBE111:
 2034              	.LBE110:
 2035              	.LBE113:
  74:src/kernel/../../h/kernel/slab_allocator.hpp ****         }
  75:src/kernel/../../h/kernel/slab_allocator.hpp ****         return false;
 2036              		.loc 3 75 16
 2037 0ca8 13050000 		li	a0,0
 2038              	.LVL207:
 2039              	.L109:
 2040              	.LBE114:
 2041              	.LBE115:
 163:src/kernel/slab_allocator.cpp ****         return deleted;
 2042              		.loc 1 163 5 is_stmt 1
 2043 0cac 630E0500 		beqz	a0,.L118
 2044              	.LVL208:
 2045              	.L112:
 169:src/kernel/slab_allocator.cpp **** 
 2046              		.loc 1 169 1 is_stmt 0
 2047 0cb0 83308101 		ld	ra,24(sp)
 2048              		.cfi_remember_state
 2049              		.cfi_restore 1
 2050 0cb4 03340101 		ld	s0,16(sp)
 2051              		.cfi_restore 8
 2052              		.cfi_def_cfa 2, 32
 2053 0cb8 83348100 		ld	s1,8(sp)
GAS LISTING /tmp/cc5Z495Y.s 			page 54


 2054              		.cfi_restore 9
 2055              	.LVL209:
 2056 0cbc 03390100 		ld	s2,0(sp)
 2057              		.cfi_restore 18
 2058              	.LVL210:
 2059 0cc0 13010102 		addi	sp,sp,32
 2060              		.cfi_def_cfa_offset 0
 2061 0cc4 67800000 		jr	ra
 2062              	.LVL211:
 2063              	.L118:
 2064              		.cfi_restore_state
 166:src/kernel/slab_allocator.cpp **** 
 2065              		.loc 1 166 5 is_stmt 1
 166:src/kernel/slab_allocator.cpp **** 
 2066              		.loc 1 166 42 is_stmt 0
 2067 0cc8 83370907 		ld	a5,112(s2)
 2068              	.LVL212:
 2069 0ccc 6F008000 		j	.L115
 2070              	.LVL213:
 2071              	.L114:
 2072              	.LBB116:
 2073              	.LBB117:
 2074              	.LBB118:
  73:src/kernel/../../h/kernel/slab_allocator.hpp ****         }
 2075              		.loc 3 73 13 is_stmt 1
  73:src/kernel/../../h/kernel/slab_allocator.hpp ****         }
 2076              		.loc 3 73 18 is_stmt 0
 2077 0cd0 83B78700 		ld	a5,8(a5)
 2078              	.LVL214:
 2079              	.L115:
 2080              	.LBE118:
  65:src/kernel/../../h/kernel/slab_allocator.hpp ****             uint64 upperBound = SlabAllocator::getUpperBound(head);
 2081              		.loc 3 65 9 is_stmt 1
  65:src/kernel/../../h/kernel/slab_allocator.hpp ****             uint64 upperBound = SlabAllocator::getUpperBound(head);
 2082              		.loc 3 65 15
 2083 0cd4 E38E07FC 		beqz	a5,.L112
 2084              	.LBB123:
  66:src/kernel/../../h/kernel/slab_allocator.hpp ****             uint64 lowerBound = SlabAllocator::getLowerBound(head);
 2085              		.loc 3 66 13
 2086              	.LVL215:
 2087              	.LBB119:
 2088              	.LBB120:
  52:src/kernel/../../h/kernel/slab_allocator.hpp ****     static inline uint64 getLowerBound(Slab* slab){return (uint64)slab->objectOffset;}
 2089              		.loc 3 52 52
  52:src/kernel/../../h/kernel/slab_allocator.hpp ****     static inline uint64 getLowerBound(Slab* slab){return (uint64)slab->objectOffset;}
 2090              		.loc 3 52 73 is_stmt 0
 2091 0cd8 83B6070A 		ld	a3,160(a5)
  52:src/kernel/../../h/kernel/slab_allocator.hpp ****     static inline uint64 getLowerBound(Slab* slab){return (uint64)slab->objectOffset;}
 2092              		.loc 3 52 94
 2093 0cdc 03B78701 		ld	a4,24(a5)
  52:src/kernel/../../h/kernel/slab_allocator.hpp ****     static inline uint64 getLowerBound(Slab* slab){return (uint64)slab->objectOffset;}
 2094              		.loc 3 52 116
 2095 0ce0 03B6870A 		ld	a2,168(a5)
  52:src/kernel/../../h/kernel/slab_allocator.hpp ****     static inline uint64 getLowerBound(Slab* slab){return (uint64)slab->objectOffset;}
 2096              		.loc 3 52 124
 2097 0ce4 83350604 		ld	a1,64(a2)
  52:src/kernel/../../h/kernel/slab_allocator.hpp ****     static inline uint64 getLowerBound(Slab* slab){return (uint64)slab->objectOffset;}
GAS LISTING /tmp/cc5Z495Y.s 			page 55


 2098              		.loc 3 52 109
 2099 0ce8 3307B702 		mul	a4,a4,a1
  52:src/kernel/../../h/kernel/slab_allocator.hpp ****     static inline uint64 getLowerBound(Slab* slab){return (uint64)slab->objectOffset;}
 2100              		.loc 3 52 124
 2101 0cec 3387E600 		add	a4,a3,a4
 2102              	.LVL216:
 2103              	.LBE120:
 2104              	.LBE119:
  67:src/kernel/../../h/kernel/slab_allocator.hpp ****             if((uint64)addr < upperBound && (uint64)addr >= lowerBound){
 2105              		.loc 3 67 13 is_stmt 1
 2106              	.LBE123:
 2107              	.LBE117:
 2108              	.LBE116:
  53:src/kernel/../../h/kernel/slab_allocator.hpp **** 
 2109              		.loc 3 53 52
 2110              	.LBB126:
 2111              	.LBB125:
 2112              	.LBB124:
  68:src/kernel/../../h/kernel/slab_allocator.hpp ****                 uint64 index = ((uint64)addr - lowerBound) / head->parent->objectSize;
 2113              		.loc 3 68 13
 2114              	.LBB121:
 2115 0cf0 E3F0E4FE 		bleu	a4,s1,.L114
  68:src/kernel/../../h/kernel/slab_allocator.hpp ****                 uint64 index = ((uint64)addr - lowerBound) / head->parent->objectSize;
 2116              		.loc 3 68 42 is_stmt 0
 2117 0cf4 E3EED4FC 		bgtu	a3,s1,.L114
 2118              	.LBB122:
  69:src/kernel/../../h/kernel/slab_allocator.hpp ****                 freeSlot(head, index);
 2119              		.loc 3 69 17 is_stmt 1
  69:src/kernel/../../h/kernel/slab_allocator.hpp ****                 freeSlot(head, index);
 2120              		.loc 3 69 46 is_stmt 0
 2121 0cf8 B386D440 		sub	a3,s1,a3
 2122              	.LVL217:
  70:src/kernel/../../h/kernel/slab_allocator.hpp ****                 return true;
 2123              		.loc 3 70 17 is_stmt 1
  70:src/kernel/../../h/kernel/slab_allocator.hpp ****                 return true;
 2124              		.loc 3 70 25 is_stmt 0
 2125 0cfc B3D5B602 		divu	a1,a3,a1
 2126              	.LVL218:
 2127 0d00 13850700 		mv	a0,a5
 2128              	.LVL219:
 2129 0d04 97000000 		call	_ZN13SlabAllocator8freeSlotEP4Slabm
 2129      E7800000 
 2130              	.LVL220:
  71:src/kernel/../../h/kernel/slab_allocator.hpp ****             }
 2131              		.loc 3 71 17 is_stmt 1
  71:src/kernel/../../h/kernel/slab_allocator.hpp ****             }
 2132              		.loc 3 71 24 is_stmt 0
 2133 0d0c 13051000 		li	a0,1
 2134 0d10 6FF01FFA 		j	.L112
 2135              	.LBE122:
 2136              	.LBE121:
 2137              	.LBE124:
 2138              	.LBE125:
 2139              	.LBE126:
 2140              		.cfi_endproc
 2141              	.LFE38:
 2143              		.align	2
GAS LISTING /tmp/cc5Z495Y.s 			page 56


 2144              		.globl	_ZN13SlabAllocator10freeBufferEPKv
 2146              	_ZN13SlabAllocator10freeBufferEPKv:
 2147              	.LFB39:
 171:src/kernel/slab_allocator.cpp ****     for(int i=0;i<BUCKET_SIZE;i++)
 2148              		.loc 1 171 50 is_stmt 1
 2149              		.cfi_startproc
 2150              	.LVL221:
 2151 0d14 130101FE 		addi	sp,sp,-32
 2152              		.cfi_def_cfa_offset 32
 2153 0d18 233C1100 		sd	ra,24(sp)
 2154 0d1c 23388100 		sd	s0,16(sp)
 2155 0d20 23349100 		sd	s1,8(sp)
 2156 0d24 23302101 		sd	s2,0(sp)
 2157              		.cfi_offset 1, -8
 2158              		.cfi_offset 8, -16
 2159              		.cfi_offset 9, -24
 2160              		.cfi_offset 18, -32
 2161 0d28 13040102 		addi	s0,sp,32
 2162              		.cfi_def_cfa 8, 0
 2163 0d2c 13090500 		mv	s2,a0
 172:src/kernel/slab_allocator.cpp ****         if(SlabAllocator::freeObject(sizeN[i], addr))
 2164              		.loc 1 172 5
 2165              	.LVL222:
 2166              	.LBB127:
 172:src/kernel/slab_allocator.cpp ****         if(SlabAllocator::freeObject(sizeN[i], addr))
 2167              		.loc 1 172 13 is_stmt 0
 2168 0d30 93040000 		li	s1,0
 2169              	.LVL223:
 2170              	.L121:
 172:src/kernel/slab_allocator.cpp ****         if(SlabAllocator::freeObject(sizeN[i], addr))
 2171              		.loc 1 172 18 is_stmt 1 discriminator 1
 2172 0d34 9307C000 		li	a5,12
 2173 0d38 63C89702 		bgt	s1,a5,.L119
 173:src/kernel/slab_allocator.cpp ****             return;
 2174              		.loc 1 173 9
 173:src/kernel/slab_allocator.cpp ****             return;
 2175              		.loc 1 173 37 is_stmt 0
 2176 0d3c 13973400 		slli	a4,s1,3
 2177 0d40 97070000 		lla	a5,.LANCHOR0
 2177      93870700 
 2178 0d48 B387E700 		add	a5,a5,a4
 2179 0d4c 93050900 		mv	a1,s2
 2180 0d50 03B58700 		ld	a0,8(a5)
 2181 0d54 97000000 		call	_ZN13SlabAllocator10freeObjectEP5CachePKv
 2181      E7800000 
 2182              	.LVL224:
 173:src/kernel/slab_allocator.cpp ****             return;
 2183              		.loc 1 173 9
 2184 0d5c 63160500 		bnez	a0,.L119
 172:src/kernel/slab_allocator.cpp ****         if(SlabAllocator::freeObject(sizeN[i], addr))
 2185              		.loc 1 172 5 is_stmt 1 discriminator 2
 2186 0d60 9B841400 		addiw	s1,s1,1
 2187              	.LVL225:
 2188 0d64 6FF01FFD 		j	.L121
 2189              	.LVL226:
 2190              	.L119:
 2191              	.LBE127:
GAS LISTING /tmp/cc5Z495Y.s 			page 57


 175:src/kernel/slab_allocator.cpp **** 
 2192              		.loc 1 175 1 is_stmt 0
 2193 0d68 83308101 		ld	ra,24(sp)
 2194              		.cfi_restore 1
 2195 0d6c 03340101 		ld	s0,16(sp)
 2196              		.cfi_restore 8
 2197              		.cfi_def_cfa 2, 32
 2198 0d70 83348100 		ld	s1,8(sp)
 2199              		.cfi_restore 9
 2200              	.LVL227:
 2201 0d74 03390100 		ld	s2,0(sp)
 2202              		.cfi_restore 18
 2203              	.LVL228:
 2204 0d78 13010102 		addi	sp,sp,32
 2205              		.cfi_def_cfa_offset 0
 2206 0d7c 67800000 		jr	ra
 2207              		.cfi_endproc
 2208              	.LFE39:
 2210              		.align	2
 2211              		.globl	_ZN13SlabAllocator11deleteCacheERP5Cache
 2213              	_ZN13SlabAllocator11deleteCacheERP5Cache:
 2214              	.LFB41:
 198:src/kernel/slab_allocator.cpp ****     deleteList(cache->fullHead);
 2215              		.loc 1 198 48 is_stmt 1
 2216              		.cfi_startproc
 2217              	.LVL229:
 2218 0d80 130101FE 		addi	sp,sp,-32
 2219              		.cfi_def_cfa_offset 32
 2220 0d84 233C1100 		sd	ra,24(sp)
 2221 0d88 23388100 		sd	s0,16(sp)
 2222 0d8c 23349100 		sd	s1,8(sp)
 2223 0d90 23302101 		sd	s2,0(sp)
 2224              		.cfi_offset 1, -8
 2225              		.cfi_offset 8, -16
 2226              		.cfi_offset 9, -24
 2227              		.cfi_offset 18, -32
 2228 0d94 13040102 		addi	s0,sp,32
 2229              		.cfi_def_cfa 8, 0
 2230 0d98 93040500 		mv	s1,a0
 199:src/kernel/slab_allocator.cpp ****     deleteList(cache->partialHead);
 2231              		.loc 1 199 5
 199:src/kernel/slab_allocator.cpp ****     deleteList(cache->partialHead);
 2232              		.loc 1 199 16 is_stmt 0
 2233 0d9c 03390500 		ld	s2,0(a0)
 199:src/kernel/slab_allocator.cpp ****     deleteList(cache->partialHead);
 2234              		.loc 1 199 23
 2235 0da0 13098907 		addi	s2,s2,120
 2236              	.LVL230:
 2237              	.L125:
 2238              	.LBB137:
 2239              	.LBB138:
  76:src/kernel/../../h/kernel/slab_allocator.hpp ****     }
  77:src/kernel/../../h/kernel/slab_allocator.hpp **** 
  78:src/kernel/../../h/kernel/slab_allocator.hpp ****     static inline void deleteList(Slab* &head){
  79:src/kernel/../../h/kernel/slab_allocator.hpp ****         while(head){
 2240              		.loc 3 79 9 is_stmt 1
 2241              		.loc 3 79 15
GAS LISTING /tmp/cc5Z495Y.s 			page 58


 2242 0da4 03350900 		ld	a0,0(s2)
 2243 0da8 63020502 		beqz	a0,.L124
 2244              	.LBB139:
  80:src/kernel/../../h/kernel/slab_allocator.hpp ****             Slab* tmp = head;
 2245              		.loc 3 80 13
 2246              	.LVL231:
  81:src/kernel/../../h/kernel/slab_allocator.hpp ****             Buddy::free(tmp, head->parent->slabSize);
 2247              		.loc 3 81 13
 2248              		.loc 3 81 36 is_stmt 0
 2249 0dac 8337850A 		ld	a5,168(a0)
 2250              		.loc 3 81 24
 2251 0db0 83B58704 		ld	a1,72(a5)
 2252 0db4 97000000 		call	_ZN5Buddy4freeEPvm@plt
 2252      E7800000 
 2253              	.LVL232:
  82:src/kernel/../../h/kernel/slab_allocator.hpp ****             head = head->next;
 2254              		.loc 3 82 13 is_stmt 1
 2255              		.loc 3 82 20 is_stmt 0
 2256 0dbc 83370900 		ld	a5,0(s2)
 2257              		.loc 3 82 26
 2258 0dc0 83B78700 		ld	a5,8(a5)
 2259              		.loc 3 82 18
 2260 0dc4 2330F900 		sd	a5,0(s2)
 2261              	.LBE139:
  79:src/kernel/../../h/kernel/slab_allocator.hpp ****             Slab* tmp = head;
 2262              		.loc 3 79 9
 2263 0dc8 6FF0DFFD 		j	.L125
 2264              	.L124:
 2265              	.LVL233:
 2266              	.LBE138:
 2267              	.LBE137:
 200:src/kernel/slab_allocator.cpp ****     deleteList(cache->emptyHead);
 2268              		.loc 1 200 5 is_stmt 1
 200:src/kernel/slab_allocator.cpp ****     deleteList(cache->emptyHead);
 2269              		.loc 1 200 16 is_stmt 0
 2270 0dcc 03B90400 		ld	s2,0(s1)
 200:src/kernel/slab_allocator.cpp ****     deleteList(cache->emptyHead);
 2271              		.loc 1 200 23
 2272 0dd0 13090907 		addi	s2,s2,112
 2273              	.LVL234:
 2274              	.L127:
 2275              	.LBB140:
 2276              	.LBB141:
  79:src/kernel/../../h/kernel/slab_allocator.hpp ****             Slab* tmp = head;
 2277              		.loc 3 79 9 is_stmt 1
  79:src/kernel/../../h/kernel/slab_allocator.hpp ****             Slab* tmp = head;
 2278              		.loc 3 79 15
 2279 0dd4 03350900 		ld	a0,0(s2)
 2280 0dd8 63020502 		beqz	a0,.L126
 2281              	.LBB142:
  80:src/kernel/../../h/kernel/slab_allocator.hpp ****             Buddy::free(tmp, head->parent->slabSize);
 2282              		.loc 3 80 13
 2283              	.LVL235:
  81:src/kernel/../../h/kernel/slab_allocator.hpp ****             head = head->next;
 2284              		.loc 3 81 13
  81:src/kernel/../../h/kernel/slab_allocator.hpp ****             head = head->next;
 2285              		.loc 3 81 36 is_stmt 0
GAS LISTING /tmp/cc5Z495Y.s 			page 59


 2286 0ddc 8337850A 		ld	a5,168(a0)
  81:src/kernel/../../h/kernel/slab_allocator.hpp ****             head = head->next;
 2287              		.loc 3 81 24
 2288 0de0 83B58704 		ld	a1,72(a5)
 2289 0de4 97000000 		call	_ZN5Buddy4freeEPvm@plt
 2289      E7800000 
 2290              	.LVL236:
 2291              		.loc 3 82 13 is_stmt 1
 2292              		.loc 3 82 20 is_stmt 0
 2293 0dec 83370900 		ld	a5,0(s2)
 2294              		.loc 3 82 26
 2295 0df0 83B78700 		ld	a5,8(a5)
 2296              		.loc 3 82 18
 2297 0df4 2330F900 		sd	a5,0(s2)
 2298              	.LBE142:
  79:src/kernel/../../h/kernel/slab_allocator.hpp ****             Slab* tmp = head;
 2299              		.loc 3 79 9
 2300 0df8 6FF0DFFD 		j	.L127
 2301              	.L126:
 2302              	.LVL237:
 2303              	.LBE141:
 2304              	.LBE140:
 201:src/kernel/slab_allocator.cpp ****     SlabAllocator::freeObject(SlabAllocator::cache, cache);
 2305              		.loc 1 201 5 is_stmt 1
 201:src/kernel/slab_allocator.cpp ****     SlabAllocator::freeObject(SlabAllocator::cache, cache);
 2306              		.loc 1 201 16 is_stmt 0
 2307 0dfc 03B90400 		ld	s2,0(s1)
 201:src/kernel/slab_allocator.cpp ****     SlabAllocator::freeObject(SlabAllocator::cache, cache);
 2308              		.loc 1 201 23
 2309 0e00 13098906 		addi	s2,s2,104
 2310              	.LVL238:
 2311              	.L129:
 2312              	.LBB143:
 2313              	.LBB144:
  79:src/kernel/../../h/kernel/slab_allocator.hpp ****             Slab* tmp = head;
 2314              		.loc 3 79 9 is_stmt 1
  79:src/kernel/../../h/kernel/slab_allocator.hpp ****             Slab* tmp = head;
 2315              		.loc 3 79 15
 2316 0e04 03350900 		ld	a0,0(s2)
 2317 0e08 63020502 		beqz	a0,.L128
 2318              	.LBB145:
  80:src/kernel/../../h/kernel/slab_allocator.hpp ****             Buddy::free(tmp, head->parent->slabSize);
 2319              		.loc 3 80 13
 2320              	.LVL239:
  81:src/kernel/../../h/kernel/slab_allocator.hpp ****             head = head->next;
 2321              		.loc 3 81 13
  81:src/kernel/../../h/kernel/slab_allocator.hpp ****             head = head->next;
 2322              		.loc 3 81 36 is_stmt 0
 2323 0e0c 8337850A 		ld	a5,168(a0)
  81:src/kernel/../../h/kernel/slab_allocator.hpp ****             head = head->next;
 2324              		.loc 3 81 24
 2325 0e10 83B58704 		ld	a1,72(a5)
 2326 0e14 97000000 		call	_ZN5Buddy4freeEPvm@plt
 2326      E7800000 
 2327              	.LVL240:
 2328              		.loc 3 82 13 is_stmt 1
 2329              		.loc 3 82 20 is_stmt 0
GAS LISTING /tmp/cc5Z495Y.s 			page 60


 2330 0e1c 83370900 		ld	a5,0(s2)
 2331              		.loc 3 82 26
 2332 0e20 83B78700 		ld	a5,8(a5)
 2333              		.loc 3 82 18
 2334 0e24 2330F900 		sd	a5,0(s2)
 2335              	.LBE145:
  79:src/kernel/../../h/kernel/slab_allocator.hpp ****             Slab* tmp = head;
 2336              		.loc 3 79 9
 2337 0e28 6FF0DFFD 		j	.L129
 2338              	.L128:
 2339              	.LVL241:
 2340              	.LBE144:
 2341              	.LBE143:
 202:src/kernel/slab_allocator.cpp ****     cache = nullptr;
 2342              		.loc 1 202 5 is_stmt 1
 202:src/kernel/slab_allocator.cpp ****     cache = nullptr;
 2343              		.loc 1 202 30 is_stmt 0
 2344 0e2c 83B50400 		ld	a1,0(s1)
 2345 0e30 17050000 		ld	a0,.LANCHOR0+112
 2345      03350500 
 2346 0e38 97000000 		call	_ZN13SlabAllocator10freeObjectEP5CachePKv
 2346      E7800000 
 2347              	.LVL242:
 203:src/kernel/slab_allocator.cpp **** }
 2348              		.loc 1 203 5 is_stmt 1
 203:src/kernel/slab_allocator.cpp **** }
 2349              		.loc 1 203 11 is_stmt 0
 2350 0e40 23B00400 		sd	zero,0(s1)
 204:src/kernel/slab_allocator.cpp **** 
 2351              		.loc 1 204 1
 2352 0e44 83308101 		ld	ra,24(sp)
 2353              		.cfi_restore 1
 2354 0e48 03340101 		ld	s0,16(sp)
 2355              		.cfi_restore 8
 2356              		.cfi_def_cfa 2, 32
 2357 0e4c 83348100 		ld	s1,8(sp)
 2358              		.cfi_restore 9
 2359              	.LVL243:
 2360 0e50 03390100 		ld	s2,0(sp)
 2361              		.cfi_restore 18
 2362 0e54 13010102 		addi	sp,sp,32
 2363              		.cfi_def_cfa_offset 0
 2364 0e58 67800000 		jr	ra
 2365              		.cfi_endproc
 2366              	.LFE41:
 2368              		.section	.rodata.str1.8
 2369 0161 00000000 		.align	3
 2369      000000
 2370              	.LC19:
 2371 0168 4E6F2065 		.string	"No errors\n"
 2371      72726F72 
 2371      730A00
 2372 0173 00000000 		.align	3
 2372      00
 2373              	.LC20:
 2374 0178 4E6F2061 		.string	"No available slots\n"
 2374      7661696C 
GAS LISTING /tmp/cc5Z495Y.s 			page 61


 2374      61626C65 
 2374      20736C6F 
 2374      74730A00 
 2375 018c 00000000 		.align	3
 2376              	.LC21:
 2377 0190 436F756C 		.string	"Couldn't allocate slab\n"
 2377      646E2774 
 2377      20616C6C 
 2377      6F636174 
 2377      6520736C 
 2378              		.text
 2379              		.align	2
 2380              		.globl	_ZN13SlabAllocator17cacheErrorHandlerEP5Cache
 2382              	_ZN13SlabAllocator17cacheErrorHandlerEP5Cache:
 2383              	.LFB48:
 290:src/kernel/slab_allocator.cpp **** 
 291:src/kernel/slab_allocator.cpp **** int SlabAllocator::cacheErrorHandler(Cache *cache) {
 2384              		.loc 1 291 52 is_stmt 1
 2385              		.cfi_startproc
 2386              	.LVL244:
 2387 0e5c 130101FE 		addi	sp,sp,-32
 2388              		.cfi_def_cfa_offset 32
 2389 0e60 233C1100 		sd	ra,24(sp)
 2390 0e64 23388100 		sd	s0,16(sp)
 2391 0e68 23349100 		sd	s1,8(sp)
 2392              		.cfi_offset 1, -8
 2393              		.cfi_offset 8, -16
 2394              		.cfi_offset 9, -24
 2395 0e6c 13040102 		addi	s0,sp,32
 2396              		.cfi_def_cfa 8, 0
 2397 0e70 93040500 		mv	s1,a0
 292:src/kernel/slab_allocator.cpp ****     switch(cache->errCode){
 2398              		.loc 1 292 5
 2399              		.loc 1 292 19 is_stmt 0
 2400 0e74 83370505 		ld	a5,80(a0)
 2401              		.loc 1 292 5
 2402 0e78 13071000 		li	a4,1
 2403 0e7c 638EE702 		beq	a5,a4,.L132
 2404 0e80 13072000 		li	a4,2
 2405 0e84 6384E704 		beq	a5,a4,.L133
 2406 0e88 638E0700 		beqz	a5,.L136
 2407              	.LVL245:
 2408              	.L134:
 293:src/kernel/slab_allocator.cpp ****         case 0: ConsoleUtil::printString("No errors\n");break;
 294:src/kernel/slab_allocator.cpp ****         case 1: ConsoleUtil::printString("No available slots\n");break;
 295:src/kernel/slab_allocator.cpp ****         case 2: ConsoleUtil::printString("Couldn't allocate slab\n");break;
 296:src/kernel/slab_allocator.cpp ****     }
 297:src/kernel/slab_allocator.cpp ****     return cache->errCode;
 2409              		.loc 1 297 5 is_stmt 1
 298:src/kernel/slab_allocator.cpp **** }...
 2410              		.loc 1 298 1 is_stmt 0
 2411 0e8c 03A50405 		lw	a0,80(s1)
 2412 0e90 83308101 		ld	ra,24(sp)
 2413              		.cfi_remember_state
 2414              		.cfi_restore 1
 2415 0e94 03340101 		ld	s0,16(sp)
 2416              		.cfi_restore 8
GAS LISTING /tmp/cc5Z495Y.s 			page 62


 2417              		.cfi_def_cfa 2, 32
 2418 0e98 83348100 		ld	s1,8(sp)
 2419              		.cfi_restore 9
 2420              	.LVL246:
 2421 0e9c 13010102 		addi	sp,sp,32
 2422              		.cfi_def_cfa_offset 0
 2423 0ea0 67800000 		jr	ra
 2424              	.LVL247:
 2425              	.L136:
 2426              		.cfi_restore_state
 293:src/kernel/slab_allocator.cpp ****         case 0: ConsoleUtil::printString("No errors\n");break;
 2427              		.loc 1 293 9 is_stmt 1
 293:src/kernel/slab_allocator.cpp ****         case 0: ConsoleUtil::printString("No errors\n");break;
 2428              		.loc 1 293 17
 293:src/kernel/slab_allocator.cpp ****         case 0: ConsoleUtil::printString("No errors\n");break;
 2429              		.loc 1 293 41 is_stmt 0
 2430 0ea4 17050000 		lla	a0,.LC19
 2430      13050500 
 2431 0eac 97000000 		call	_ZN11ConsoleUtil11printStringEPKc@plt
 2431      E7800000 
 2432              	.LVL248:
 293:src/kernel/slab_allocator.cpp ****         case 0: ConsoleUtil::printString("No errors\n");break;
 2433              		.loc 1 293 57 is_stmt 1
 2434 0eb4 6FF09FFD 		j	.L134
 2435              	.L132:
 294:src/kernel/slab_allocator.cpp ****         case 1: ConsoleUtil::printString("No available slots\n");break;
 2436              		.loc 1 294 9
 294:src/kernel/slab_allocator.cpp ****         case 1: ConsoleUtil::printString("No available slots\n");break;
 2437              		.loc 1 294 17
 294:src/kernel/slab_allocator.cpp ****         case 1: ConsoleUtil::printString("No available slots\n");break;
 2438              		.loc 1 294 41 is_stmt 0
 2439 0eb8 17050000 		lla	a0,.LC20
 2439      13050500 
 2440 0ec0 97000000 		call	_ZN11ConsoleUtil11printStringEPKc@plt
 2440      E7800000 
 2441              	.LVL249:
 294:src/kernel/slab_allocator.cpp ****         case 1: ConsoleUtil::printString("No available slots\n");break;
 2442              		.loc 1 294 66 is_stmt 1
 2443 0ec8 6FF05FFC 		j	.L134
 2444              	.L133:
 295:src/kernel/slab_allocator.cpp ****         case 2: ConsoleUtil::printString("Couldn't allocate slab\n");break;
 2445              		.loc 1 295 9
 295:src/kernel/slab_allocator.cpp ****         case 2: ConsoleUtil::printString("Couldn't allocate slab\n");break;
 2446              		.loc 1 295 17
 295:src/kernel/slab_allocator.cpp ****         case 2: ConsoleUtil::printString("Couldn't allocate slab\n");break;
 2447              		.loc 1 295 41 is_stmt 0
 2448 0ecc 17050000 		lla	a0,.LC21
 2448      13050500 
 2449 0ed4 97000000 		call	_ZN11ConsoleUtil11printStringEPKc@plt
 2449      E7800000 
 2450              	.LVL250:
 295:src/kernel/slab_allocator.cpp ****         case 2: ConsoleUtil::printString("Couldn't allocate slab\n");break;
 2451              		.loc 1 295 70 is_stmt 1
 2452 0edc 6FF01FFB 		j	.L134
 2453              		.cfi_endproc
 2454              	.LFE48:
 2456              		.globl	_ZN13SlabAllocator5namesE
GAS LISTING /tmp/cc5Z495Y.s 			page 63


 2457              		.section	.rodata.str1.8
 2458              		.align	3
 2459              	.LC22:
 2460 01a8 42756666 		.string	"Buffer Cache No. 5"
 2460      65722043 
 2460      61636865 
 2460      204E6F2E 
 2460      203500
 2461 01bb 00000000 		.align	3
 2461      00
 2462              	.LC23:
 2463 01c0 42756666 		.string	"Buffer Cache No. 6"
 2463      65722043 
 2463      61636865 
 2463      204E6F2E 
 2463      203600
 2464 01d3 00000000 		.align	3
 2464      00
 2465              	.LC24:
 2466 01d8 42756666 		.string	"Buffer Cache No. 7"
 2466      65722043 
 2466      61636865 
 2466      204E6F2E 
 2466      203700
 2467 01eb 00000000 		.align	3
 2467      00
 2468              	.LC25:
 2469 01f0 42756666 		.string	"Buffer Cache No. 8"
 2469      65722043 
 2469      61636865 
 2469      204E6F2E 
 2469      203800
 2470 0203 00000000 		.align	3
 2470      00
 2471              	.LC26:
 2472 0208 42756666 		.string	"Buffer Cache No. 9"
 2472      65722043 
 2472      61636865 
 2472      204E6F2E 
 2472      203900
 2473 021b 00000000 		.align	3
 2473      00
 2474              	.LC27:
 2475 0220 42756666 		.string	"Buffer Cache No. 10"
 2475      65722043 
 2475      61636865 
 2475      204E6F2E 
 2475      20313000 
 2476 0234 00000000 		.align	3
 2477              	.LC28:
 2478 0238 42756666 		.string	"Buffer Cache No. 11"
 2478      65722043 
 2478      61636865 
 2478      204E6F2E 
 2478      20313100 
 2479 024c 00000000 		.align	3
 2480              	.LC29:
GAS LISTING /tmp/cc5Z495Y.s 			page 64


 2481 0250 42756666 		.string	"Buffer Cache No. 12"
 2481      65722043 
 2481      61636865 
 2481      204E6F2E 
 2481      20313200 
 2482 0264 00000000 		.align	3
 2483              	.LC30:
 2484 0268 42756666 		.string	"Buffer Cache No. 13"
 2484      65722043 
 2484      61636865 
 2484      204E6F2E 
 2484      20313300 
 2485 027c 00000000 		.align	3
 2486              	.LC31:
 2487 0280 42756666 		.string	"Buffer Cache No. 14"
 2487      65722043 
 2487      61636865 
 2487      204E6F2E 
 2487      20313400 
 2488 0294 00000000 		.align	3
 2489              	.LC32:
 2490 0298 42756666 		.string	"Buffer Cache No. 15"
 2490      65722043 
 2490      61636865 
 2490      204E6F2E 
 2490      20313500 
 2491 02ac 00000000 		.align	3
 2492              	.LC33:
 2493 02b0 42756666 		.string	"Buffer Cache No. 16"
 2493      65722043 
 2493      61636865 
 2493      204E6F2E 
 2493      20313600 
 2494 02c4 00000000 		.align	3
 2495              	.LC34:
 2496 02c8 42756666 		.string	"Buffer Cache No. 17"
 2496      65722043 
 2496      61636865 
 2496      204E6F2E 
 2496      20313700 
 2497              		.globl	_ZN13SlabAllocator5sizeNE
 2498              		.globl	_ZN13SlabAllocator14largeSlabCacheE
 2499              		.globl	_ZN13SlabAllocator5cacheE
 2500              		.bss
 2501              		.align	3
 2502              		.set	.LANCHOR0,. + 0
 2505              	_ZN13SlabAllocator14largeSlabCacheE:
 2506 0000 00000000 		.zero	8
 2506      00000000 
 2509              	_ZN13SlabAllocator5sizeNE:
 2510 0008 00000000 		.zero	104
 2510      00000000 
 2510      00000000 
 2510      00000000 
 2510      00000000 
 2513              	_ZN13SlabAllocator5cacheE:
 2514 0070 00000000 		.zero	8
GAS LISTING /tmp/cc5Z495Y.s 			page 65


 2514      00000000 
 2515              		.section	.data.rel.local,"aw"
 2516              		.align	3
 2517              		.set	.LANCHOR1,. + 0
 2520              	_ZN13SlabAllocator5namesE:
 2521 0000 00000000 		.dword	.LC22
 2521      00000000 
 2522 0008 00000000 		.dword	.LC23
 2522      00000000 
 2523 0010 00000000 		.dword	.LC24
 2523      00000000 
 2524 0018 00000000 		.dword	.LC25
 2524      00000000 
 2525 0020 00000000 		.dword	.LC26
 2525      00000000 
 2526 0028 00000000 		.dword	.LC27
 2526      00000000 
 2527 0030 00000000 		.dword	.LC28
 2527      00000000 
 2528 0038 00000000 		.dword	.LC29
 2528      00000000 
 2529 0040 00000000 		.dword	.LC30
 2529      00000000 
 2530 0048 00000000 		.dword	.LC31
 2530      00000000 
 2531 0050 00000000 		.dword	.LC32
 2531      00000000 
 2532 0058 00000000 		.dword	.LC33
 2532      00000000 
 2533 0060 00000000 		.dword	.LC34
 2533      00000000 
 2534              		.text
 2535              	.Letext0:
 2536              		.file 5 "src/kernel/../../h/kernel/../../lib/hw.h"
 2537              		.file 6 "src/kernel/../../h/kernel/utility.hpp"
 2538              		.file 7 "src/kernel/../../h/kernel/console_util.hpp"
 2539              		.file 8 "src/kernel/../../h/kernel/cache_t.hpp"
GAS LISTING /tmp/cc5Z495Y.s 			page 66


DEFINED SYMBOLS
                            *ABS*:0000000000000000 slab_allocator.cpp
     /tmp/cc5Z495Y.s:9      .text:0000000000000000 _ZN13SlabAllocator11shrinkCacheEP5Cache
     /tmp/cc5Z495Y.s:13     .text:0000000000000000 .L0 
     /tmp/cc5Z495Y.s:15     .text:0000000000000000 .L0 
     /tmp/cc5Z495Y.s:16     .text:0000000000000004 .L0 
     /tmp/cc5Z495Y.s:21     .text:0000000000000014 .L0 
     /tmp/cc5Z495Y.s:22     .text:0000000000000014 .L0 
     /tmp/cc5Z495Y.s:23     .text:0000000000000014 .L0 
     /tmp/cc5Z495Y.s:24     .text:0000000000000014 .L0 
     /tmp/cc5Z495Y.s:26     .text:0000000000000018 .L0 
     /tmp/cc5Z495Y.s:30     .text:000000000000001c .L0 
     /tmp/cc5Z495Y.s:31     .text:000000000000001c .L0 
     /tmp/cc5Z495Y.s:35     .text:0000000000000020 .L0 
     /tmp/cc5Z495Y.s:36     .text:0000000000000020 .L0 
     /tmp/cc5Z495Y.s:39     .text:0000000000000028 .L0 
     /tmp/cc5Z495Y.s:40     .text:0000000000000028 .L0 
     /tmp/cc5Z495Y.s:44     .text:0000000000000034 .L0 
     /tmp/cc5Z495Y.s:45     .text:0000000000000034 .L0 
     /tmp/cc5Z495Y.s:47     .text:0000000000000038 .L0 
     /tmp/cc5Z495Y.s:49     .text:000000000000003c .L0 
     /tmp/cc5Z495Y.s:52     .text:0000000000000040 .L0 
     /tmp/cc5Z495Y.s:53     .text:0000000000000040 .L0 
     /tmp/cc5Z495Y.s:55     .text:0000000000000044 .L0 
     /tmp/cc5Z495Y.s:57     .text:0000000000000048 .L0 
     /tmp/cc5Z495Y.s:61     .text:000000000000004c .L0 
     /tmp/cc5Z495Y.s:62     .text:000000000000004c .L0 
     /tmp/cc5Z495Y.s:64     .text:0000000000000054 .L0 
     /tmp/cc5Z495Y.s:66     .text:0000000000000058 .L0 
     /tmp/cc5Z495Y.s:67     .text:0000000000000058 .L0 
     /tmp/cc5Z495Y.s:69     .text:000000000000005c .L0 
     /tmp/cc5Z495Y.s:72     .text:0000000000000060 .L0 
     /tmp/cc5Z495Y.s:75     .text:0000000000000064 .L0 
     /tmp/cc5Z495Y.s:77     .text:0000000000000068 .L0 
     /tmp/cc5Z495Y.s:115    .text:0000000000000068 _ZN13SlabAllocator9printSlabEP4Slab
     /tmp/cc5Z495Y.s:118    .text:0000000000000068 .L0 
     /tmp/cc5Z495Y.s:120    .text:0000000000000068 .L0 
     /tmp/cc5Z495Y.s:122    .text:0000000000000068 .L0 
     /tmp/cc5Z495Y.s:125    .text:000000000000006c .L0 
     /tmp/cc5Z495Y.s:126    .text:0000000000000070 .L0 
     /tmp/cc5Z495Y.s:131    .text:0000000000000080 .L0 
     /tmp/cc5Z495Y.s:132    .text:0000000000000080 .L0 
     /tmp/cc5Z495Y.s:133    .text:0000000000000080 .L0 
     /tmp/cc5Z495Y.s:134    .text:0000000000000080 .L0 
     /tmp/cc5Z495Y.s:136    .text:0000000000000084 .L0 
     /tmp/cc5Z495Y.s:141    .text:0000000000000088 .L0 
     /tmp/cc5Z495Y.s:142    .text:0000000000000088 .L0 
     /tmp/cc5Z495Y.s:150    .text:00000000000000a8 .L0 
     /tmp/cc5Z495Y.s:151    .text:00000000000000a8 .L0 
     /tmp/cc5Z495Y.s:158    .text:00000000000000c8 .L0 
     /tmp/cc5Z495Y.s:159    .text:00000000000000c8 .L0 
     /tmp/cc5Z495Y.s:166    .text:00000000000000e8 .L0 
     /tmp/cc5Z495Y.s:167    .text:00000000000000e8 .L0 
     /tmp/cc5Z495Y.s:174    .text:0000000000000108 .L0 
     /tmp/cc5Z495Y.s:175    .text:0000000000000108 .L0 
     /tmp/cc5Z495Y.s:182    .text:0000000000000128 .L0 
     /tmp/cc5Z495Y.s:183    .text:0000000000000128 .L0 
GAS LISTING /tmp/cc5Z495Y.s 			page 67


     /tmp/cc5Z495Y.s:190    .text:0000000000000148 .L0 
     /tmp/cc5Z495Y.s:191    .text:0000000000000148 .L0 
     /tmp/cc5Z495Y.s:196    .text:0000000000000158 .L0 
     /tmp/cc5Z495Y.s:197    .text:0000000000000158 .L0 
     /tmp/cc5Z495Y.s:202    .text:0000000000000160 .L0 
     /tmp/cc5Z495Y.s:203    .text:0000000000000160 .L0 
     /tmp/cc5Z495Y.s:205    .text:0000000000000164 .L0 
     /tmp/cc5Z495Y.s:212    .text:0000000000000184 .L0 
     /tmp/cc5Z495Y.s:216    .text:0000000000000188 .L0 
     /tmp/cc5Z495Y.s:217    .text:0000000000000188 .L0 
     /tmp/cc5Z495Y.s:219    .text:000000000000018c .L0 
     /tmp/cc5Z495Y.s:221    .text:0000000000000190 .L0 
     /tmp/cc5Z495Y.s:223    .text:0000000000000194 .L0 
     /tmp/cc5Z495Y.s:226    .text:0000000000000198 .L0 
     /tmp/cc5Z495Y.s:227    .text:0000000000000198 .L0 
     /tmp/cc5Z495Y.s:233    .text:00000000000001a8 .L0 
     /tmp/cc5Z495Y.s:234    .text:00000000000001ac .L0 
     /tmp/cc5Z495Y.s:236    .text:00000000000001b0 .L0 
     /tmp/cc5Z495Y.s:237    .text:00000000000001b0 .L0 
     /tmp/cc5Z495Y.s:239    .text:00000000000001b4 .L0 
     /tmp/cc5Z495Y.s:242    .text:00000000000001b8 .L0 
     /tmp/cc5Z495Y.s:245    .text:00000000000001bc .L0 
     /tmp/cc5Z495Y.s:250    .text:00000000000001c4 .L0 
     /tmp/cc5Z495Y.s:279    .text:00000000000001c4 _ZN13SlabAllocator10printCacheEP5Cache
     /tmp/cc5Z495Y.s:282    .text:00000000000001c4 .L0 
     /tmp/cc5Z495Y.s:284    .text:00000000000001c4 .L0 
     /tmp/cc5Z495Y.s:285    .text:00000000000001c8 .L0 
     /tmp/cc5Z495Y.s:290    .text:00000000000001d8 .L0 
     /tmp/cc5Z495Y.s:291    .text:00000000000001d8 .L0 
     /tmp/cc5Z495Y.s:292    .text:00000000000001d8 .L0 
     /tmp/cc5Z495Y.s:293    .text:00000000000001d8 .L0 
     /tmp/cc5Z495Y.s:295    .text:00000000000001dc .L0 
     /tmp/cc5Z495Y.s:298    .text:00000000000001e0 .L0 
     /tmp/cc5Z495Y.s:299    .text:00000000000001e0 .L0 
     /tmp/cc5Z495Y.s:304    .text:00000000000001f0 .L0 
     /tmp/cc5Z495Y.s:305    .text:00000000000001f0 .L0 
     /tmp/cc5Z495Y.s:309    .text:00000000000001fc .L0 
     /tmp/cc5Z495Y.s:310    .text:00000000000001fc .L0 
     /tmp/cc5Z495Y.s:314    .text:000000000000020c .L0 
     /tmp/cc5Z495Y.s:315    .text:000000000000020c .L0 
     /tmp/cc5Z495Y.s:322    .text:000000000000022c .L0 
     /tmp/cc5Z495Y.s:323    .text:000000000000022c .L0 
     /tmp/cc5Z495Y.s:330    .text:000000000000024c .L0 
     /tmp/cc5Z495Y.s:331    .text:000000000000024c .L0 
     /tmp/cc5Z495Y.s:338    .text:000000000000026c .L0 
     /tmp/cc5Z495Y.s:339    .text:000000000000026c .L0 
     /tmp/cc5Z495Y.s:346    .text:000000000000028c .L0 
     /tmp/cc5Z495Y.s:347    .text:000000000000028c .L0 
     /tmp/cc5Z495Y.s:351    .text:0000000000000290 .L0 
     /tmp/cc5Z495Y.s:352    .text:0000000000000290 .L0 
     /tmp/cc5Z495Y.s:354    .text:0000000000000294 .L0 
     /tmp/cc5Z495Y.s:355    .text:0000000000000294 .L0 
     /tmp/cc5Z495Y.s:362    .text:00000000000002b4 .L0 
     /tmp/cc5Z495Y.s:363    .text:00000000000002b4 .L0 
     /tmp/cc5Z495Y.s:366    .text:00000000000002b8 .L0 
     /tmp/cc5Z495Y.s:369    .text:00000000000002bc .L0 
     /tmp/cc5Z495Y.s:370    .text:00000000000002bc .L0 
GAS LISTING /tmp/cc5Z495Y.s 			page 68


     /tmp/cc5Z495Y.s:374    .text:00000000000002cc .L0 
     /tmp/cc5Z495Y.s:375    .text:00000000000002cc .L0 
     /tmp/cc5Z495Y.s:382    .text:00000000000002ec .L0 
     /tmp/cc5Z495Y.s:383    .text:00000000000002ec .L0 
     /tmp/cc5Z495Y.s:387    .text:00000000000002f0 .L0 
     /tmp/cc5Z495Y.s:388    .text:00000000000002f0 .L0 
     /tmp/cc5Z495Y.s:390    .text:00000000000002f4 .L0 
     /tmp/cc5Z495Y.s:391    .text:00000000000002f4 .L0 
     /tmp/cc5Z495Y.s:398    .text:0000000000000314 .L0 
     /tmp/cc5Z495Y.s:399    .text:0000000000000314 .L0 
     /tmp/cc5Z495Y.s:402    .text:0000000000000318 .L0 
     /tmp/cc5Z495Y.s:405    .text:000000000000031c .L0 
     /tmp/cc5Z495Y.s:406    .text:000000000000031c .L0 
     /tmp/cc5Z495Y.s:410    .text:000000000000032c .L0 
     /tmp/cc5Z495Y.s:411    .text:000000000000032c .L0 
     /tmp/cc5Z495Y.s:418    .text:000000000000034c .L0 
     /tmp/cc5Z495Y.s:419    .text:000000000000034c .L0 
     /tmp/cc5Z495Y.s:423    .text:0000000000000350 .L0 
     /tmp/cc5Z495Y.s:424    .text:0000000000000350 .L0 
     /tmp/cc5Z495Y.s:426    .text:0000000000000354 .L0 
     /tmp/cc5Z495Y.s:427    .text:0000000000000354 .L0 
     /tmp/cc5Z495Y.s:434    .text:0000000000000374 .L0 
     /tmp/cc5Z495Y.s:435    .text:0000000000000374 .L0 
     /tmp/cc5Z495Y.s:438    .text:0000000000000378 .L0 
     /tmp/cc5Z495Y.s:441    .text:000000000000037c .L0 
     /tmp/cc5Z495Y.s:442    .text:000000000000037c .L0 
     /tmp/cc5Z495Y.s:446    .text:000000000000038c .L0 
     /tmp/cc5Z495Y.s:447    .text:0000000000000390 .L0 
     /tmp/cc5Z495Y.s:449    .text:0000000000000394 .L0 
     /tmp/cc5Z495Y.s:450    .text:0000000000000394 .L0 
     /tmp/cc5Z495Y.s:452    .text:0000000000000398 .L0 
     /tmp/cc5Z495Y.s:455    .text:000000000000039c .L0 
     /tmp/cc5Z495Y.s:458    .text:00000000000003a0 .L0 
     /tmp/cc5Z495Y.s:460    .text:00000000000003a4 .L0 
     /tmp/cc5Z495Y.s:466    .text:00000000000003a4 _ZN13SlabAllocator14insertIntoListERP4SlabS1_
     /tmp/cc5Z495Y.s:469    .text:00000000000003a4 .L0 
     /tmp/cc5Z495Y.s:471    .text:00000000000003a4 .L0 
     /tmp/cc5Z495Y.s:472    .text:00000000000003a8 .L0 
     /tmp/cc5Z495Y.s:474    .text:00000000000003ac .L0 
     /tmp/cc5Z495Y.s:476    .text:00000000000003b0 .L0 
     /tmp/cc5Z495Y.s:478    .text:00000000000003b0 .L0 
     /tmp/cc5Z495Y.s:479    .text:00000000000003b0 .L0 
     /tmp/cc5Z495Y.s:481    .text:00000000000003b4 .L0 
     /tmp/cc5Z495Y.s:483    .text:00000000000003b8 .L0 
     /tmp/cc5Z495Y.s:485    .text:00000000000003bc .L0 
     /tmp/cc5Z495Y.s:486    .text:00000000000003bc .L0 
     /tmp/cc5Z495Y.s:489    .text:00000000000003c0 .L0 
     /tmp/cc5Z495Y.s:490    .text:00000000000003c0 .L0 
     /tmp/cc5Z495Y.s:492    .text:00000000000003c4 .L0 
     /tmp/cc5Z495Y.s:493    .text:00000000000003c4 .L0 
     /tmp/cc5Z495Y.s:495    .text:00000000000003c8 .L0 
     /tmp/cc5Z495Y.s:496    .text:00000000000003cc .L0 
     /tmp/cc5Z495Y.s:497    .text:00000000000003cc .L0 
     /tmp/cc5Z495Y.s:499    .text:00000000000003d0 .L0 
     /tmp/cc5Z495Y.s:501    .text:00000000000003d4 .L0 
     /tmp/cc5Z495Y.s:507    .text:00000000000003d4 _ZN13SlabAllocator12allocateSlabEP5Cache
     /tmp/cc5Z495Y.s:510    .text:00000000000003d4 .L0 
GAS LISTING /tmp/cc5Z495Y.s 			page 69


     /tmp/cc5Z495Y.s:512    .text:00000000000003d4 .L0 
     /tmp/cc5Z495Y.s:513    .text:00000000000003d8 .L0 
     /tmp/cc5Z495Y.s:519    .text:00000000000003ec .L0 
     /tmp/cc5Z495Y.s:520    .text:00000000000003ec .L0 
     /tmp/cc5Z495Y.s:521    .text:00000000000003ec .L0 
     /tmp/cc5Z495Y.s:522    .text:00000000000003ec .L0 
     /tmp/cc5Z495Y.s:523    .text:00000000000003ec .L0 
     /tmp/cc5Z495Y.s:525    .text:00000000000003f0 .L0 
     /tmp/cc5Z495Y.s:528    .text:00000000000003f4 .L0 
     /tmp/cc5Z495Y.s:529    .text:00000000000003f4 .L0 
     /tmp/cc5Z495Y.s:534    .text:0000000000000400 .L0 
     /tmp/cc5Z495Y.s:537    .text:0000000000000408 .L0 
     /tmp/cc5Z495Y.s:538    .text:0000000000000408 .L0 
     /tmp/cc5Z495Y.s:544    .text:0000000000000418 .L0 
     /tmp/cc5Z495Y.s:545    .text:0000000000000418 .L0 
     /tmp/cc5Z495Y.s:547    .text:000000000000041c .L0 
     /tmp/cc5Z495Y.s:550    .text:0000000000000424 .L0 
     /tmp/cc5Z495Y.s:552    .text:0000000000000428 .L0 
     /tmp/cc5Z495Y.s:554    .text:000000000000042c .L0 
     /tmp/cc5Z495Y.s:556    .text:0000000000000430 .L0 
     /tmp/cc5Z495Y.s:558    .text:0000000000000434 .L0 
     /tmp/cc5Z495Y.s:560    .text:0000000000000438 .L0 
     /tmp/cc5Z495Y.s:562    .text:000000000000043c .L0 
     /tmp/cc5Z495Y.s:565    .text:0000000000000444 .L0 
     /tmp/cc5Z495Y.s:566    .text:0000000000000444 .L0 
     /tmp/cc5Z495Y.s:569    .text:000000000000044c .L0 
     /tmp/cc5Z495Y.s:572    .text:0000000000000450 .L0 
     /tmp/cc5Z495Y.s:573    .text:0000000000000450 .L0 
     /tmp/cc5Z495Y.s:575    .text:0000000000000454 .L0 
     /tmp/cc5Z495Y.s:577    .text:0000000000000458 .L0 
     /tmp/cc5Z495Y.s:578    .text:0000000000000458 .L0 
     /tmp/cc5Z495Y.s:582    .text:000000000000045c .L0 
     /tmp/cc5Z495Y.s:583    .text:000000000000045c .L0 
     /tmp/cc5Z495Y.s:587    .text:0000000000000460 .L0 
     /tmp/cc5Z495Y.s:588    .text:0000000000000460 .L0 
     /tmp/cc5Z495Y.s:590    .text:0000000000000464 .L0 
     /tmp/cc5Z495Y.s:592    .text:0000000000000468 .L0 
     /tmp/cc5Z495Y.s:594    .text:000000000000046c .L0 
     /tmp/cc5Z495Y.s:596    .text:0000000000000470 .L0 
     /tmp/cc5Z495Y.s:597    .text:0000000000000470 .L0 
     /tmp/cc5Z495Y.s:600    .text:0000000000000478 .L0 
     /tmp/cc5Z495Y.s:607    .text:0000000000000480 .L0 
     /tmp/cc5Z495Y.s:608    .text:0000000000000480 .L0 
     /tmp/cc5Z495Y.s:611    .text:0000000000000488 .L0 
     /tmp/cc5Z495Y.s:612    .text:0000000000000488 .L0 
     /tmp/cc5Z495Y.s:619    .text:0000000000000490 .L0 
     /tmp/cc5Z495Y.s:620    .text:0000000000000490 .L0 
     /tmp/cc5Z495Y.s:622    .text:0000000000000494 .L0 
     /tmp/cc5Z495Y.s:625    .text:0000000000000498 .L0 
     /tmp/cc5Z495Y.s:629    .text:000000000000049c .L0 
     /tmp/cc5Z495Y.s:630    .text:000000000000049c .L0 
     /tmp/cc5Z495Y.s:632    .text:00000000000004a0 .L0 
     /tmp/cc5Z495Y.s:634    .text:00000000000004a4 .L0 
     /tmp/cc5Z495Y.s:635    .text:00000000000004a4 .L0 
     /tmp/cc5Z495Y.s:637    .text:00000000000004a8 .L0 
     /tmp/cc5Z495Y.s:639    .text:00000000000004ac .L0 
     /tmp/cc5Z495Y.s:641    .text:00000000000004b0 .L0 
GAS LISTING /tmp/cc5Z495Y.s 			page 70


     /tmp/cc5Z495Y.s:643    .text:00000000000004b4 .L0 
     /tmp/cc5Z495Y.s:645    .text:00000000000004b8 .L0 
     /tmp/cc5Z495Y.s:649    .text:00000000000004c0 .L0 
     /tmp/cc5Z495Y.s:657    .text:00000000000004c8 .L0 
     /tmp/cc5Z495Y.s:665    .text:00000000000004d4 .L0 
     /tmp/cc5Z495Y.s:666    .text:00000000000004d8 .L0 
     /tmp/cc5Z495Y.s:668    .text:00000000000004dc .L0 
     /tmp/cc5Z495Y.s:669    .text:00000000000004dc .L0 
     /tmp/cc5Z495Y.s:671    .text:00000000000004e0 .L0 
     /tmp/cc5Z495Y.s:673    .text:00000000000004e4 .L0 
     /tmp/cc5Z495Y.s:675    .text:00000000000004e8 .L0 
     /tmp/cc5Z495Y.s:678    .text:00000000000004ec .L0 
     /tmp/cc5Z495Y.s:680    .text:00000000000004f0 .L0 
     /tmp/cc5Z495Y.s:686    .text:00000000000004f0 _ZN13SlabAllocator14removeFromListERP4SlabS1_
     /tmp/cc5Z495Y.s:689    .text:00000000000004f0 .L0 
     /tmp/cc5Z495Y.s:691    .text:00000000000004f0 .L0 
     /tmp/cc5Z495Y.s:692    .text:00000000000004f4 .L0 
     /tmp/cc5Z495Y.s:694    .text:00000000000004f8 .L0 
     /tmp/cc5Z495Y.s:696    .text:00000000000004fc .L0 
     /tmp/cc5Z495Y.s:698    .text:00000000000004fc .L0 
     /tmp/cc5Z495Y.s:699    .text:00000000000004fc .L0 
     /tmp/cc5Z495Y.s:701    .text:0000000000000500 .L0 
     /tmp/cc5Z495Y.s:704    .text:0000000000000504 .L0 
     /tmp/cc5Z495Y.s:705    .text:0000000000000504 .L0 
     /tmp/cc5Z495Y.s:707    .text:0000000000000508 .L0 
     /tmp/cc5Z495Y.s:709    .text:000000000000050c .L0 
     /tmp/cc5Z495Y.s:710    .text:000000000000050c .L0 
     /tmp/cc5Z495Y.s:712    .text:0000000000000510 .L0 
     /tmp/cc5Z495Y.s:715    .text:0000000000000514 .L0 
     /tmp/cc5Z495Y.s:716    .text:0000000000000514 .L0 
     /tmp/cc5Z495Y.s:718    .text:0000000000000518 .L0 
     /tmp/cc5Z495Y.s:720    .text:000000000000051c .L0 
     /tmp/cc5Z495Y.s:721    .text:000000000000051c .L0 
     /tmp/cc5Z495Y.s:723    .text:0000000000000520 .L0 
     /tmp/cc5Z495Y.s:726    .text:0000000000000524 .L0 
     /tmp/cc5Z495Y.s:727    .text:0000000000000524 .L0 
     /tmp/cc5Z495Y.s:729    .text:0000000000000528 .L0 
     /tmp/cc5Z495Y.s:730    .text:0000000000000528 .L0 
     /tmp/cc5Z495Y.s:732    .text:000000000000052c .L0 
     /tmp/cc5Z495Y.s:733    .text:0000000000000530 .L0 
     /tmp/cc5Z495Y.s:734    .text:0000000000000530 .L0 
     /tmp/cc5Z495Y.s:735    .text:0000000000000530 .L0 
     /tmp/cc5Z495Y.s:737    .text:0000000000000534 .L0 
     /tmp/cc5Z495Y.s:740    .text:0000000000000538 .L0 
     /tmp/cc5Z495Y.s:742    .text:0000000000000538 .L0 
     /tmp/cc5Z495Y.s:743    .text:0000000000000538 .L0 
     /tmp/cc5Z495Y.s:745    .text:000000000000053c .L0 
     /tmp/cc5Z495Y.s:747    .text:0000000000000544 .L0 
     /tmp/cc5Z495Y.s:753    .text:0000000000000544 _ZN13SlabAllocator4moveERP4SlabS2_S1_
     /tmp/cc5Z495Y.s:756    .text:0000000000000544 .L0 
     /tmp/cc5Z495Y.s:758    .text:0000000000000544 .L0 
     /tmp/cc5Z495Y.s:759    .text:0000000000000548 .L0 
     /tmp/cc5Z495Y.s:764    .text:0000000000000558 .L0 
     /tmp/cc5Z495Y.s:765    .text:0000000000000558 .L0 
     /tmp/cc5Z495Y.s:766    .text:0000000000000558 .L0 
     /tmp/cc5Z495Y.s:767    .text:0000000000000558 .L0 
     /tmp/cc5Z495Y.s:769    .text:000000000000055c .L0 
GAS LISTING /tmp/cc5Z495Y.s 			page 71


     /tmp/cc5Z495Y.s:773    .text:0000000000000564 .L0 
     /tmp/cc5Z495Y.s:774    .text:0000000000000564 .L0 
     /tmp/cc5Z495Y.s:779    .text:0000000000000570 .L0 
     /tmp/cc5Z495Y.s:780    .text:0000000000000570 .L0 
     /tmp/cc5Z495Y.s:785    .text:0000000000000580 .L0 
     /tmp/cc5Z495Y.s:786    .text:0000000000000584 .L0 
     /tmp/cc5Z495Y.s:788    .text:0000000000000588 .L0 
     /tmp/cc5Z495Y.s:789    .text:0000000000000588 .L0 
     /tmp/cc5Z495Y.s:791    .text:000000000000058c .L0 
     /tmp/cc5Z495Y.s:794    .text:0000000000000590 .L0 
     /tmp/cc5Z495Y.s:797    .text:0000000000000594 .L0 
     /tmp/cc5Z495Y.s:799    .text:0000000000000598 .L0 
     /tmp/cc5Z495Y.s:805    .text:0000000000000598 _ZN13SlabAllocator12allocateSlotEP4Slab
     /tmp/cc5Z495Y.s:808    .text:0000000000000598 .L0 
     /tmp/cc5Z495Y.s:810    .text:0000000000000598 .L0 
     /tmp/cc5Z495Y.s:811    .text:000000000000059c .L0 
     /tmp/cc5Z495Y.s:816    .text:00000000000005ac .L0 
     /tmp/cc5Z495Y.s:817    .text:00000000000005ac .L0 
     /tmp/cc5Z495Y.s:818    .text:00000000000005ac .L0 
     /tmp/cc5Z495Y.s:819    .text:00000000000005ac .L0 
     /tmp/cc5Z495Y.s:821    .text:00000000000005b0 .L0 
     /tmp/cc5Z495Y.s:826    .text:00000000000005b4 .L0 
     /tmp/cc5Z495Y.s:827    .text:00000000000005b4 .L0 
     /tmp/cc5Z495Y.s:831    .text:00000000000005b8 .L0 
     /tmp/cc5Z495Y.s:832    .text:00000000000005b8 .L0 
     /tmp/cc5Z495Y.s:834    .text:00000000000005bc .L0 
     /tmp/cc5Z495Y.s:839    .text:00000000000005c0 .L0 
     /tmp/cc5Z495Y.s:840    .text:00000000000005c0 .L0 
     /tmp/cc5Z495Y.s:842    .text:00000000000005c4 .L0 
     /tmp/cc5Z495Y.s:845    .text:00000000000005cc .L0 
     /tmp/cc5Z495Y.s:848    .text:00000000000005d4 .L0 
     /tmp/cc5Z495Y.s:851    .text:00000000000005dc .L0 
     /tmp/cc5Z495Y.s:854    .text:00000000000005e0 .L0 
     /tmp/cc5Z495Y.s:861    .text:00000000000005e8 .L0 
     /tmp/cc5Z495Y.s:862    .text:00000000000005e8 .L0 
     /tmp/cc5Z495Y.s:865    .text:00000000000005f0 .L0 
     /tmp/cc5Z495Y.s:873    .text:00000000000005fc .L0 
     /tmp/cc5Z495Y.s:874    .text:00000000000005fc .L0 
     /tmp/cc5Z495Y.s:875    .text:00000000000005fc .L0 
     /tmp/cc5Z495Y.s:880    .text:0000000000000600 .L0 
     /tmp/cc5Z495Y.s:882    .text:0000000000000604 .L0 
     /tmp/cc5Z495Y.s:885    .text:0000000000000608 .L0 
     /tmp/cc5Z495Y.s:889    .text:000000000000060c .L0 
     /tmp/cc5Z495Y.s:890    .text:000000000000060c .L0 
     /tmp/cc5Z495Y.s:897    .text:0000000000000614 .L0 
     /tmp/cc5Z495Y.s:901    .text:0000000000000614 .L0 
     /tmp/cc5Z495Y.s:902    .text:0000000000000614 .L0 
     /tmp/cc5Z495Y.s:904    .text:0000000000000618 .L0 
     /tmp/cc5Z495Y.s:906    .text:000000000000061c .L0 
     /tmp/cc5Z495Y.s:910    .text:0000000000000620 .L0 
     /tmp/cc5Z495Y.s:911    .text:0000000000000620 .L0 
     /tmp/cc5Z495Y.s:913    .text:0000000000000624 .L0 
     /tmp/cc5Z495Y.s:915    .text:0000000000000628 .L0 
     /tmp/cc5Z495Y.s:917    .text:000000000000062c .L0 
     /tmp/cc5Z495Y.s:918    .text:000000000000062c .L0 
     /tmp/cc5Z495Y.s:923    .text:0000000000000638 .L0 
     /tmp/cc5Z495Y.s:924    .text:0000000000000638 .L0 
GAS LISTING /tmp/cc5Z495Y.s 			page 72


     /tmp/cc5Z495Y.s:926    .text:000000000000063c .L0 
     /tmp/cc5Z495Y.s:928    .text:0000000000000640 .L0 
     /tmp/cc5Z495Y.s:930    .text:0000000000000644 .L0 
     /tmp/cc5Z495Y.s:933    .text:0000000000000648 .L0 
     /tmp/cc5Z495Y.s:935    .text:000000000000064c .L0 
     /tmp/cc5Z495Y.s:939    .text:0000000000000650 .L0 
     /tmp/cc5Z495Y.s:942    .text:0000000000000654 .L0 
     /tmp/cc5Z495Y.s:947    .text:000000000000065c .L0 
     /tmp/cc5Z495Y.s:949    .text:0000000000000660 .L0 
     /tmp/cc5Z495Y.s:957    .text:0000000000000668 .L0 
     /tmp/cc5Z495Y.s:958    .text:0000000000000668 .L0 
     /tmp/cc5Z495Y.s:960    .text:000000000000066c .L0 
     /tmp/cc5Z495Y.s:963    .text:0000000000000674 .L0 
     /tmp/cc5Z495Y.s:964    .text:0000000000000674 .L0 
     /tmp/cc5Z495Y.s:968    .text:0000000000000678 .L0 
     /tmp/cc5Z495Y.s:969    .text:000000000000067c .L0 
     /tmp/cc5Z495Y.s:971    .text:0000000000000680 .L0 
     /tmp/cc5Z495Y.s:972    .text:0000000000000680 .L0 
     /tmp/cc5Z495Y.s:974    .text:0000000000000684 .L0 
     /tmp/cc5Z495Y.s:976    .text:0000000000000688 .L0 
     /tmp/cc5Z495Y.s:979    .text:000000000000068c .L0 
     /tmp/cc5Z495Y.s:981    .text:0000000000000690 .L0 
     /tmp/cc5Z495Y.s:987    .text:0000000000000690 _ZN13SlabAllocator14allocateObjectEP5Cache
     /tmp/cc5Z495Y.s:990    .text:0000000000000690 .L0 
     /tmp/cc5Z495Y.s:992    .text:0000000000000690 .L0 
     /tmp/cc5Z495Y.s:993    .text:0000000000000694 .L0 
     /tmp/cc5Z495Y.s:999    .text:00000000000006a8 .L0 
     /tmp/cc5Z495Y.s:1000   .text:00000000000006a8 .L0 
     /tmp/cc5Z495Y.s:1001   .text:00000000000006a8 .L0 
     /tmp/cc5Z495Y.s:1002   .text:00000000000006a8 .L0 
     /tmp/cc5Z495Y.s:1003   .text:00000000000006a8 .L0 
     /tmp/cc5Z495Y.s:1005   .text:00000000000006ac .L0 
     /tmp/cc5Z495Y.s:1008   .text:00000000000006b0 .L0 
     /tmp/cc5Z495Y.s:1009   .text:00000000000006b0 .L0 
     /tmp/cc5Z495Y.s:1016   .text:00000000000006b4 .L0 
     /tmp/cc5Z495Y.s:1017   .text:00000000000006b4 .L0 
     /tmp/cc5Z495Y.s:1020   .text:00000000000006b8 .L0 
     /tmp/cc5Z495Y.s:1021   .text:00000000000006b8 .L0 
     /tmp/cc5Z495Y.s:1025   .text:00000000000006c4 .L0 
     /tmp/cc5Z495Y.s:1027   .text:00000000000006c8 .L0 
     /tmp/cc5Z495Y.s:1034   .text:00000000000006cc .L0 
     /tmp/cc5Z495Y.s:1038   .text:00000000000006d0 .L0 
     /tmp/cc5Z495Y.s:1040   .text:00000000000006d8 .L0 
     /tmp/cc5Z495Y.s:1041   .text:00000000000006d8 .L0 
     /tmp/cc5Z495Y.s:1043   .text:00000000000006dc .L0 
     /tmp/cc5Z495Y.s:1044   .text:00000000000006dc .L0 
     /tmp/cc5Z495Y.s:1046   .text:00000000000006e0 .L0 
     /tmp/cc5Z495Y.s:1048   .text:00000000000006e4 .L0 
     /tmp/cc5Z495Y.s:1051   .text:00000000000006e8 .L0 
     /tmp/cc5Z495Y.s:1053   .text:00000000000006ec .L0 
     /tmp/cc5Z495Y.s:1057   .text:00000000000006f0 .L0 
     /tmp/cc5Z495Y.s:1059   .text:00000000000006f0 .L0 
     /tmp/cc5Z495Y.s:1060   .text:00000000000006f0 .L0 
     /tmp/cc5Z495Y.s:1066   .text:00000000000006f4 .L0 
     /tmp/cc5Z495Y.s:1067   .text:00000000000006f4 .L0 
     /tmp/cc5Z495Y.s:1070   .text:00000000000006f8 .L0 
     /tmp/cc5Z495Y.s:1071   .text:00000000000006f8 .L0 
GAS LISTING /tmp/cc5Z495Y.s 			page 73


     /tmp/cc5Z495Y.s:1075   .text:0000000000000704 .L0 
     /tmp/cc5Z495Y.s:1077   .text:0000000000000708 .L0 
     /tmp/cc5Z495Y.s:1084   .text:000000000000070c .L0 
     /tmp/cc5Z495Y.s:1087   .text:0000000000000710 .L0 
     /tmp/cc5Z495Y.s:1088   .text:0000000000000710 .L0 
     /tmp/cc5Z495Y.s:1090   .text:0000000000000714 .L0 
     /tmp/cc5Z495Y.s:1093   .text:000000000000071c .L0 
     /tmp/cc5Z495Y.s:1094   .text:000000000000071c .L0 
     /tmp/cc5Z495Y.s:1098   .text:0000000000000728 .L0 
     /tmp/cc5Z495Y.s:1100   .text:000000000000072c .L0 
     /tmp/cc5Z495Y.s:1101   .text:000000000000072c .L0 
     /tmp/cc5Z495Y.s:1110   .text:0000000000000740 .L0 
     /tmp/cc5Z495Y.s:1111   .text:0000000000000740 .L0 
     /tmp/cc5Z495Y.s:1117   .text:0000000000000754 .L0 
     /tmp/cc5Z495Y.s:1118   .text:0000000000000754 .L0 
     /tmp/cc5Z495Y.s:1120   .text:0000000000000758 .L0 
     /tmp/cc5Z495Y.s:1123   .text:0000000000000760 .L0 
     /tmp/cc5Z495Y.s:1125   .text:0000000000000764 .L0 
     /tmp/cc5Z495Y.s:1127   .text:0000000000000768 .L0 
     /tmp/cc5Z495Y.s:1129   .text:000000000000076c .L0 
     /tmp/cc5Z495Y.s:1131   .text:0000000000000770 .L0 
     /tmp/cc5Z495Y.s:1133   .text:0000000000000774 .L0 
     /tmp/cc5Z495Y.s:1136   .text:000000000000077c .L0 
     /tmp/cc5Z495Y.s:1137   .text:000000000000077c .L0 
     /tmp/cc5Z495Y.s:1140   .text:0000000000000784 .L0 
     /tmp/cc5Z495Y.s:1143   .text:0000000000000788 .L0 
     /tmp/cc5Z495Y.s:1144   .text:0000000000000788 .L0 
     /tmp/cc5Z495Y.s:1148   .text:0000000000000794 .L0 
     /tmp/cc5Z495Y.s:1149   .text:0000000000000794 .L0 
     /tmp/cc5Z495Y.s:1151   .text:0000000000000798 .L0 
     /tmp/cc5Z495Y.s:1152   .text:0000000000000798 .L0 
     /tmp/cc5Z495Y.s:1154   .text:000000000000079c .L0 
     /tmp/cc5Z495Y.s:1155   .text:000000000000079c .L0 
     /tmp/cc5Z495Y.s:1159   .text:00000000000007a0 .L0 
     /tmp/cc5Z495Y.s:1160   .text:00000000000007a0 .L0 
     /tmp/cc5Z495Y.s:1164   .text:00000000000007a4 .L0 
     /tmp/cc5Z495Y.s:1165   .text:00000000000007a4 .L0 
     /tmp/cc5Z495Y.s:1167   .text:00000000000007a8 .L0 
     /tmp/cc5Z495Y.s:1169   .text:00000000000007ac .L0 
     /tmp/cc5Z495Y.s:1171   .text:00000000000007b0 .L0 
     /tmp/cc5Z495Y.s:1173   .text:00000000000007b4 .L0 
     /tmp/cc5Z495Y.s:1174   .text:00000000000007b4 .L0 
     /tmp/cc5Z495Y.s:1177   .text:00000000000007bc .L0 
     /tmp/cc5Z495Y.s:1184   .text:00000000000007c4 .L0 
     /tmp/cc5Z495Y.s:1185   .text:00000000000007c4 .L0 
     /tmp/cc5Z495Y.s:1187   .text:00000000000007c8 .L0 
     /tmp/cc5Z495Y.s:1190   .text:00000000000007cc .L0 
     /tmp/cc5Z495Y.s:1194   .text:00000000000007d0 .L0 
     /tmp/cc5Z495Y.s:1195   .text:00000000000007d0 .L0 
     /tmp/cc5Z495Y.s:1197   .text:00000000000007d4 .L0 
     /tmp/cc5Z495Y.s:1199   .text:00000000000007d8 .L0 
     /tmp/cc5Z495Y.s:1200   .text:00000000000007d8 .L0 
     /tmp/cc5Z495Y.s:1202   .text:00000000000007dc .L0 
     /tmp/cc5Z495Y.s:1204   .text:00000000000007e0 .L0 
     /tmp/cc5Z495Y.s:1206   .text:00000000000007e4 .L0 
     /tmp/cc5Z495Y.s:1208   .text:00000000000007e8 .L0 
     /tmp/cc5Z495Y.s:1210   .text:00000000000007ec .L0 
GAS LISTING /tmp/cc5Z495Y.s 			page 74


     /tmp/cc5Z495Y.s:1214   .text:00000000000007f4 .L0 
     /tmp/cc5Z495Y.s:1222   .text:00000000000007fc .L0 
     /tmp/cc5Z495Y.s:1223   .text:00000000000007fc .L0 
     /tmp/cc5Z495Y.s:1228   .text:000000000000080c .L0 
     /tmp/cc5Z495Y.s:1229   .text:000000000000080c .L0 
     /tmp/cc5Z495Y.s:1237   .text:0000000000000820 .L0 
     /tmp/cc5Z495Y.s:1243   .text:0000000000000820 _ZN13SlabAllocator14allocateBufferEm
     /tmp/cc5Z495Y.s:1246   .text:0000000000000820 .L0 
     /tmp/cc5Z495Y.s:1248   .text:0000000000000820 .L0 
     /tmp/cc5Z495Y.s:1252   .text:0000000000000820 .L0 
     /tmp/cc5Z495Y.s:1253   .text:0000000000000820 .L0 
     /tmp/cc5Z495Y.s:1254   .text:0000000000000820 .L0 
     /tmp/cc5Z495Y.s:1257   .text:0000000000000824 .L0 
     /tmp/cc5Z495Y.s:1258   .text:0000000000000824 .L0 
     /tmp/cc5Z495Y.s:1261   .text:0000000000000828 .L0 
     /tmp/cc5Z495Y.s:1264   .text:000000000000082c .L0 
     /tmp/cc5Z495Y.s:1265   .text:000000000000082c .L0 
     /tmp/cc5Z495Y.s:1267   .text:0000000000000830 .L0 
     /tmp/cc5Z495Y.s:1270   .text:0000000000000834 .L0 
     /tmp/cc5Z495Y.s:1271   .text:0000000000000834 .L0 
     /tmp/cc5Z495Y.s:1273   .text:0000000000000838 .L0 
     /tmp/cc5Z495Y.s:1276   .text:000000000000083c .L0 
     /tmp/cc5Z495Y.s:1277   .text:000000000000083c .L0 
     /tmp/cc5Z495Y.s:1279   .text:0000000000000840 .L0 
     /tmp/cc5Z495Y.s:1282   .text:0000000000000844 .L0 
     /tmp/cc5Z495Y.s:1283   .text:0000000000000844 .L0 
     /tmp/cc5Z495Y.s:1285   .text:0000000000000848 .L0 
     /tmp/cc5Z495Y.s:1288   .text:000000000000084c .L0 
     /tmp/cc5Z495Y.s:1289   .text:000000000000084c .L0 
     /tmp/cc5Z495Y.s:1291   .text:0000000000000850 .L0 
     /tmp/cc5Z495Y.s:1294   .text:0000000000000854 .L0 
     /tmp/cc5Z495Y.s:1295   .text:0000000000000854 .L0 
     /tmp/cc5Z495Y.s:1302   .text:0000000000000858 .L0 
     /tmp/cc5Z495Y.s:1306   .text:000000000000085c .L0 
     /tmp/cc5Z495Y.s:1307   .text:000000000000085c .L0 
     /tmp/cc5Z495Y.s:1310   .text:0000000000000864 .L0 
     /tmp/cc5Z495Y.s:1311   .text:0000000000000864 .L0 
     /tmp/cc5Z495Y.s:1314   .text:0000000000000868 .L0 
     /tmp/cc5Z495Y.s:1315   .text:0000000000000868 .L0 
     /tmp/cc5Z495Y.s:1318   .text:000000000000086c .L0 
     /tmp/cc5Z495Y.s:1324   .text:0000000000000870 .L0 
     /tmp/cc5Z495Y.s:1325   .text:0000000000000870 .L0 
     /tmp/cc5Z495Y.s:1326   .text:0000000000000870 .L0 
     /tmp/cc5Z495Y.s:1329   .text:0000000000000874 .L0 
     /tmp/cc5Z495Y.s:1332   .text:000000000000087c .L0 
     /tmp/cc5Z495Y.s:1333   .text:0000000000000880 .L0 
     /tmp/cc5Z495Y.s:1336   .text:0000000000000888 .L0 
     /tmp/cc5Z495Y.s:1337   .text:0000000000000888 .L0 
     /tmp/cc5Z495Y.s:1339   .text:000000000000088c .L0 
     /tmp/cc5Z495Y.s:1342   .text:000000000000088c .L0 
     /tmp/cc5Z495Y.s:1343   .text:000000000000088c .L0 
     /tmp/cc5Z495Y.s:1344   .text:000000000000088c .L0 
     /tmp/cc5Z495Y.s:1352   .text:00000000000008a8 .L0 
     /tmp/cc5Z495Y.s:1353   .text:00000000000008ac .L0 
     /tmp/cc5Z495Y.s:1355   .text:00000000000008b0 .L0 
     /tmp/cc5Z495Y.s:1356   .text:00000000000008b0 .L0 
     /tmp/cc5Z495Y.s:1358   .text:00000000000008b4 .L0 
GAS LISTING /tmp/cc5Z495Y.s 			page 75


     /tmp/cc5Z495Y.s:1363   .text:00000000000008b8 .L0 
     /tmp/cc5Z495Y.s:1365   .text:00000000000008bc .L0 
     /tmp/cc5Z495Y.s:1366   .text:00000000000008c0 .L0 
     /tmp/cc5Z495Y.s:1372   .text:00000000000008c0 _ZN13SlabAllocator11createCacheEPKcmPFvPvES4_
     /tmp/cc5Z495Y.s:1375   .text:00000000000008c0 .L0 
     /tmp/cc5Z495Y.s:1377   .text:00000000000008c0 .L0 
     /tmp/cc5Z495Y.s:1378   .text:00000000000008c4 .L0 
     /tmp/cc5Z495Y.s:1386   .text:00000000000008e0 .L0 
     /tmp/cc5Z495Y.s:1387   .text:00000000000008e0 .L0 
     /tmp/cc5Z495Y.s:1388   .text:00000000000008e0 .L0 
     /tmp/cc5Z495Y.s:1389   .text:00000000000008e0 .L0 
     /tmp/cc5Z495Y.s:1390   .text:00000000000008e0 .L0 
     /tmp/cc5Z495Y.s:1391   .text:00000000000008e0 .L0 
     /tmp/cc5Z495Y.s:1392   .text:00000000000008e0 .L0 
     /tmp/cc5Z495Y.s:1394   .text:00000000000008e4 .L0 
     /tmp/cc5Z495Y.s:1400   .text:00000000000008f4 .L0 
     /tmp/cc5Z495Y.s:1401   .text:00000000000008f4 .L0 
     /tmp/cc5Z495Y.s:1408   .text:0000000000000908 .L0 
     /tmp/cc5Z495Y.s:1410   .text:000000000000090c .L0 
     /tmp/cc5Z495Y.s:1411   .text:000000000000090c .L0 
     /tmp/cc5Z495Y.s:1413   .text:0000000000000910 .L0 
     /tmp/cc5Z495Y.s:1414   .text:0000000000000910 .L0 
     /tmp/cc5Z495Y.s:1416   .text:0000000000000914 .L0 
     /tmp/cc5Z495Y.s:1417   .text:0000000000000914 .L0 
     /tmp/cc5Z495Y.s:1419   .text:0000000000000918 .L0 
     /tmp/cc5Z495Y.s:1421   .text:000000000000091c .L0 
     /tmp/cc5Z495Y.s:1423   .text:0000000000000920 .L0 
     /tmp/cc5Z495Y.s:1424   .text:0000000000000920 .L0 
     /tmp/cc5Z495Y.s:1426   .text:0000000000000924 .L0 
     /tmp/cc5Z495Y.s:1427   .text:0000000000000924 .L0 
     /tmp/cc5Z495Y.s:1432   .text:0000000000000928 .L0 
     /tmp/cc5Z495Y.s:1433   .text:0000000000000928 .L0 
     /tmp/cc5Z495Y.s:1434   .text:0000000000000928 .L0 
     /tmp/cc5Z495Y.s:1437   .text:000000000000092c .L0 
     /tmp/cc5Z495Y.s:1438   .text:000000000000092c .L0 
     /tmp/cc5Z495Y.s:1440   .text:0000000000000930 .L0 
     /tmp/cc5Z495Y.s:1443   .text:0000000000000934 .L0 
     /tmp/cc5Z495Y.s:1444   .text:0000000000000934 .L0 
     /tmp/cc5Z495Y.s:1446   .text:0000000000000938 .L0 
     /tmp/cc5Z495Y.s:1449   .text:000000000000093c .L0 
     /tmp/cc5Z495Y.s:1450   .text:000000000000093c .L0 
     /tmp/cc5Z495Y.s:1452   .text:0000000000000940 .L0 
     /tmp/cc5Z495Y.s:1455   .text:0000000000000944 .L0 
     /tmp/cc5Z495Y.s:1456   .text:0000000000000944 .L0 
     /tmp/cc5Z495Y.s:1458   .text:0000000000000948 .L0 
     /tmp/cc5Z495Y.s:1461   .text:000000000000094c .L0 
     /tmp/cc5Z495Y.s:1462   .text:000000000000094c .L0 
     /tmp/cc5Z495Y.s:1464   .text:0000000000000950 .L0 
     /tmp/cc5Z495Y.s:1467   .text:0000000000000954 .L0 
     /tmp/cc5Z495Y.s:1468   .text:0000000000000954 .L0 
     /tmp/cc5Z495Y.s:1470   .text:0000000000000958 .L0 
     /tmp/cc5Z495Y.s:1473   .text:000000000000095c .L0 
     /tmp/cc5Z495Y.s:1474   .text:000000000000095c .L0 
     /tmp/cc5Z495Y.s:1481   .text:0000000000000960 .L0 
     /tmp/cc5Z495Y.s:1485   .text:0000000000000964 .L0 
     /tmp/cc5Z495Y.s:1486   .text:0000000000000964 .L0 
     /tmp/cc5Z495Y.s:1489   .text:000000000000096c .L0 
GAS LISTING /tmp/cc5Z495Y.s 			page 76


     /tmp/cc5Z495Y.s:1490   .text:000000000000096c .L0 
     /tmp/cc5Z495Y.s:1493   .text:0000000000000970 .L0 
     /tmp/cc5Z495Y.s:1494   .text:0000000000000970 .L0 
     /tmp/cc5Z495Y.s:1497   .text:0000000000000974 .L0 
     /tmp/cc5Z495Y.s:1503   .text:0000000000000978 .L0 
     /tmp/cc5Z495Y.s:1504   .text:0000000000000978 .L0 
     /tmp/cc5Z495Y.s:1507   .text:000000000000097c .L0 
     /tmp/cc5Z495Y.s:1510   .text:0000000000000984 .L0 
     /tmp/cc5Z495Y.s:1511   .text:0000000000000984 .L0 
     /tmp/cc5Z495Y.s:1516   .text:000000000000098c .L0 
     /tmp/cc5Z495Y.s:1517   .text:000000000000098c .L0 
     /tmp/cc5Z495Y.s:1523   .text:000000000000099c .L0 
     /tmp/cc5Z495Y.s:1524   .text:000000000000099c .L0 
     /tmp/cc5Z495Y.s:1526   .text:00000000000009a4 .L0 
     /tmp/cc5Z495Y.s:1527   .text:00000000000009a4 .L0 
     /tmp/cc5Z495Y.s:1529   .text:00000000000009a8 .L0 
     /tmp/cc5Z495Y.s:1530   .text:00000000000009a8 .L0 
     /tmp/cc5Z495Y.s:1532   .text:00000000000009ac .L0 
     /tmp/cc5Z495Y.s:1535   .text:00000000000009b0 .L0 
     /tmp/cc5Z495Y.s:1538   .text:00000000000009b4 .L0 
     /tmp/cc5Z495Y.s:1541   .text:00000000000009b8 .L0 
     /tmp/cc5Z495Y.s:1544   .text:00000000000009bc .L0 
     /tmp/cc5Z495Y.s:1547   .text:00000000000009c0 .L0 
     /tmp/cc5Z495Y.s:1551   .text:00000000000009c4 .L0 
     /tmp/cc5Z495Y.s:1553   .text:00000000000009c4 .L0 
     /tmp/cc5Z495Y.s:1554   .text:00000000000009c4 .L0 
     /tmp/cc5Z495Y.s:1557   .text:00000000000009c8 .L0 
     /tmp/cc5Z495Y.s:1558   .text:00000000000009c8 .L0 
     /tmp/cc5Z495Y.s:1560   .text:00000000000009d0 .L0 
     /tmp/cc5Z495Y.s:1574   .text:00000000000009d0 _ZN13SlabAllocator10initializeEPvm
     /tmp/cc5Z495Y.s:1577   .text:00000000000009d0 .L0 
     /tmp/cc5Z495Y.s:1579   .text:00000000000009d0 .L0 
     /tmp/cc5Z495Y.s:1580   .text:00000000000009d4 .L0 
     /tmp/cc5Z495Y.s:1585   .text:00000000000009e4 .L0 
     /tmp/cc5Z495Y.s:1586   .text:00000000000009e4 .L0 
     /tmp/cc5Z495Y.s:1587   .text:00000000000009e4 .L0 
     /tmp/cc5Z495Y.s:1588   .text:00000000000009e4 .L0 
     /tmp/cc5Z495Y.s:1590   .text:00000000000009e8 .L0 
     /tmp/cc5Z495Y.s:1592   .text:00000000000009e8 .L0 
     /tmp/cc5Z495Y.s:1593   .text:00000000000009e8 .L0 
     /tmp/cc5Z495Y.s:1596   .text:00000000000009f0 .L0 
     /tmp/cc5Z495Y.s:1597   .text:00000000000009f0 .L0 
     /tmp/cc5Z495Y.s:1603   .text:0000000000000a08 .L0 
     /tmp/cc5Z495Y.s:1606   .text:0000000000000a14 .L0 
     /tmp/cc5Z495Y.s:1607   .text:0000000000000a14 .L0 
     /tmp/cc5Z495Y.s:1609   .text:0000000000000a18 .L0 
     /tmp/cc5Z495Y.s:1610   .text:0000000000000a18 .L0 
     /tmp/cc5Z495Y.s:1612   .text:0000000000000a1c .L0 
     /tmp/cc5Z495Y.s:1613   .text:0000000000000a1c .L0 
     /tmp/cc5Z495Y.s:1615   .text:0000000000000a20 .L0 
     /tmp/cc5Z495Y.s:1616   .text:0000000000000a20 .L0 
     /tmp/cc5Z495Y.s:1618   .text:0000000000000a24 .L0 
     /tmp/cc5Z495Y.s:1619   .text:0000000000000a24 .L0 
     /tmp/cc5Z495Y.s:1621   .text:0000000000000a28 .L0 
     /tmp/cc5Z495Y.s:1622   .text:0000000000000a28 .L0 
     /tmp/cc5Z495Y.s:1625   .text:0000000000000a30 .L0 
     /tmp/cc5Z495Y.s:1626   .text:0000000000000a30 .L0 
GAS LISTING /tmp/cc5Z495Y.s 			page 77


     /tmp/cc5Z495Y.s:1629   .text:0000000000000a38 .L0 
     /tmp/cc5Z495Y.s:1630   .text:0000000000000a38 .L0 
     /tmp/cc5Z495Y.s:1632   .text:0000000000000a3c .L0 
     /tmp/cc5Z495Y.s:1633   .text:0000000000000a3c .L0 
     /tmp/cc5Z495Y.s:1637   .text:0000000000000a4c .L0 
     /tmp/cc5Z495Y.s:1638   .text:0000000000000a4c .L0 
     /tmp/cc5Z495Y.s:1642   .text:0000000000000a58 .L0 
     /tmp/cc5Z495Y.s:1644   .text:0000000000000a5c .L0 
     /tmp/cc5Z495Y.s:1645   .text:0000000000000a5c .L0 
     /tmp/cc5Z495Y.s:1647   .text:0000000000000a60 .L0 
     /tmp/cc5Z495Y.s:1648   .text:0000000000000a60 .L0 
     /tmp/cc5Z495Y.s:1650   .text:0000000000000a64 .L0 
     /tmp/cc5Z495Y.s:1651   .text:0000000000000a64 .L0 
     /tmp/cc5Z495Y.s:1653   .text:0000000000000a68 .L0 
     /tmp/cc5Z495Y.s:1654   .text:0000000000000a68 .L0 
     /tmp/cc5Z495Y.s:1656   .text:0000000000000a6c .L0 
     /tmp/cc5Z495Y.s:1657   .text:0000000000000a6c .L0 
     /tmp/cc5Z495Y.s:1659   .text:0000000000000a70 .L0 
     /tmp/cc5Z495Y.s:1660   .text:0000000000000a70 .L0 
     /tmp/cc5Z495Y.s:1663   .text:0000000000000a78 .L0 
     /tmp/cc5Z495Y.s:1664   .text:0000000000000a78 .L0 
     /tmp/cc5Z495Y.s:1667   .text:0000000000000a80 .L0 
     /tmp/cc5Z495Y.s:1668   .text:0000000000000a80 .L0 
     /tmp/cc5Z495Y.s:1670   .text:0000000000000a84 .L0 
     /tmp/cc5Z495Y.s:1672   .text:0000000000000a88 .L0 
     /tmp/cc5Z495Y.s:1673   .text:0000000000000a88 .L0 
     /tmp/cc5Z495Y.s:1678   .text:0000000000000a98 .L0 
     /tmp/cc5Z495Y.s:1679   .text:0000000000000a98 .L0 
     /tmp/cc5Z495Y.s:1684   .text:0000000000000aa0 .L0 
     /tmp/cc5Z495Y.s:1685   .text:0000000000000aa0 .L0 
     /tmp/cc5Z495Y.s:1687   .text:0000000000000aa4 .L0 
     /tmp/cc5Z495Y.s:1698   .text:0000000000000ad0 .L0 
     /tmp/cc5Z495Y.s:1702   .text:0000000000000ae0 .L0 
     /tmp/cc5Z495Y.s:1706   .text:0000000000000ae4 .L0 
     /tmp/cc5Z495Y.s:1710   .text:0000000000000aec .L0 
     /tmp/cc5Z495Y.s:1711   .text:0000000000000af0 .L0 
     /tmp/cc5Z495Y.s:1713   .text:0000000000000af4 .L0 
     /tmp/cc5Z495Y.s:1714   .text:0000000000000af4 .L0 
     /tmp/cc5Z495Y.s:1716   .text:0000000000000af8 .L0 
     /tmp/cc5Z495Y.s:1719   .text:0000000000000afc .L0 
     /tmp/cc5Z495Y.s:1721   .text:0000000000000b00 .L0 
     /tmp/cc5Z495Y.s:1723   .text:0000000000000b04 .L0 
     /tmp/cc5Z495Y.s:1729   .text:0000000000000b04 _ZN13SlabAllocator8freeSlotEP4Slabm
     /tmp/cc5Z495Y.s:1732   .text:0000000000000b04 .L0 
     /tmp/cc5Z495Y.s:1734   .text:0000000000000b04 .L0 
     /tmp/cc5Z495Y.s:1736   .text:0000000000000b04 .L0 
     /tmp/cc5Z495Y.s:1737   .text:0000000000000b04 .L0 
     /tmp/cc5Z495Y.s:1739   .text:0000000000000b08 .L0 
     /tmp/cc5Z495Y.s:1742   .text:0000000000000b10 .L0 
     /tmp/cc5Z495Y.s:1747   .text:0000000000000b18 .L0 
     /tmp/cc5Z495Y.s:1750   .text:0000000000000b20 .L0 
     /tmp/cc5Z495Y.s:1753   .text:0000000000000b24 .L0 
     /tmp/cc5Z495Y.s:1754   .text:0000000000000b28 .L0 
     /tmp/cc5Z495Y.s:1758   .text:0000000000000b34 .L0 
     /tmp/cc5Z495Y.s:1759   .text:0000000000000b34 .L0 
     /tmp/cc5Z495Y.s:1760   .text:0000000000000b34 .L0 
     /tmp/cc5Z495Y.s:1762   .text:0000000000000b38 .L0 
GAS LISTING /tmp/cc5Z495Y.s 			page 78


     /tmp/cc5Z495Y.s:1767   .text:0000000000000b3c .L0 
     /tmp/cc5Z495Y.s:1768   .text:0000000000000b3c .L0 
     /tmp/cc5Z495Y.s:1771   .text:0000000000000b44 .L0 
     /tmp/cc5Z495Y.s:1779   .text:0000000000000b54 .L0 
     /tmp/cc5Z495Y.s:1780   .text:0000000000000b54 .L0 
     /tmp/cc5Z495Y.s:1781   .text:0000000000000b54 .L0 
     /tmp/cc5Z495Y.s:1786   .text:0000000000000b58 .L0 
     /tmp/cc5Z495Y.s:1788   .text:0000000000000b5c .L0 
     /tmp/cc5Z495Y.s:1791   .text:0000000000000b60 .L0 
     /tmp/cc5Z495Y.s:1795   .text:0000000000000b64 .L0 
     /tmp/cc5Z495Y.s:1796   .text:0000000000000b64 .L0 
     /tmp/cc5Z495Y.s:1802   .text:0000000000000b6c .L0 
     /tmp/cc5Z495Y.s:1803   .text:0000000000000b6c .L0 
     /tmp/cc5Z495Y.s:1804   .text:0000000000000b6c .L0 
     /tmp/cc5Z495Y.s:1809   .text:0000000000000b70 .L0 
     /tmp/cc5Z495Y.s:1811   .text:0000000000000b74 .L0 
     /tmp/cc5Z495Y.s:1813   .text:0000000000000b78 .L0 
     /tmp/cc5Z495Y.s:1819   .text:0000000000000b7c .L0 
     /tmp/cc5Z495Y.s:1822   .text:0000000000000b7c .L0 
     /tmp/cc5Z495Y.s:1823   .text:0000000000000b7c .L0 
     /tmp/cc5Z495Y.s:1825   .text:0000000000000b80 .L0 
     /tmp/cc5Z495Y.s:1826   .text:0000000000000b80 .L0 
     /tmp/cc5Z495Y.s:1828   .text:0000000000000b84 .L0 
     /tmp/cc5Z495Y.s:1830   .text:0000000000000b88 .L0 
     /tmp/cc5Z495Y.s:1832   .text:0000000000000b8c .L0 
     /tmp/cc5Z495Y.s:1833   .text:0000000000000b8c .L0 
     /tmp/cc5Z495Y.s:1840   .text:0000000000000b98 .L0 
     /tmp/cc5Z495Y.s:1841   .text:0000000000000b9c .L0 
     /tmp/cc5Z495Y.s:1842   .text:0000000000000b9c .L0 
     /tmp/cc5Z495Y.s:1844   .text:0000000000000ba0 .L0 
     /tmp/cc5Z495Y.s:1845   .text:0000000000000ba0 .L0 
     /tmp/cc5Z495Y.s:1847   .text:0000000000000ba4 .L0 
     /tmp/cc5Z495Y.s:1850   .text:0000000000000ba8 .L0 
     /tmp/cc5Z495Y.s:1854   .text:0000000000000bac .L0 
     /tmp/cc5Z495Y.s:1858   .text:0000000000000bac .L0 
     /tmp/cc5Z495Y.s:1860   .text:0000000000000bb0 .L0 
     /tmp/cc5Z495Y.s:1865   .text:0000000000000bb8 .L0 
     /tmp/cc5Z495Y.s:1867   .text:0000000000000bbc .L0 
     /tmp/cc5Z495Y.s:1872   .text:0000000000000bc4 .L0 
     /tmp/cc5Z495Y.s:1873   .text:0000000000000bc4 .L0 
     /tmp/cc5Z495Y.s:1878   .text:0000000000000bd0 .L0 
     /tmp/cc5Z495Y.s:1879   .text:0000000000000bd0 .L0 
     /tmp/cc5Z495Y.s:1881   .text:0000000000000bd4 .L0 
     /tmp/cc5Z495Y.s:1883   .text:0000000000000bd8 .L0 
     /tmp/cc5Z495Y.s:1886   .text:0000000000000be0 .L0 
     /tmp/cc5Z495Y.s:1887   .text:0000000000000be0 .L0 
     /tmp/cc5Z495Y.s:1894   .text:0000000000000bf4 .L0 
     /tmp/cc5Z495Y.s:1895   .text:0000000000000bf4 .L0 
     /tmp/cc5Z495Y.s:1900   .text:0000000000000c04 .L0 
     /tmp/cc5Z495Y.s:1901   .text:0000000000000c04 .L0 
     /tmp/cc5Z495Y.s:1921   .text:0000000000000c20 _ZN13SlabAllocator10freeObjectEP5CachePKv
     /tmp/cc5Z495Y.s:1908   .text:0000000000000c1c .L0 
     /tmp/cc5Z495Y.s:1909   .text:0000000000000c1c .L0 
     /tmp/cc5Z495Y.s:1910   .text:0000000000000c1c .L0 
     /tmp/cc5Z495Y.s:1911   .text:0000000000000c1c .L0 
     /tmp/cc5Z495Y.s:1915   .text:0000000000000c20 .L0 
     /tmp/cc5Z495Y.s:1924   .text:0000000000000c20 .L0 
GAS LISTING /tmp/cc5Z495Y.s 			page 79


     /tmp/cc5Z495Y.s:1926   .text:0000000000000c20 .L0 
     /tmp/cc5Z495Y.s:1927   .text:0000000000000c24 .L0 
     /tmp/cc5Z495Y.s:1932   .text:0000000000000c34 .L0 
     /tmp/cc5Z495Y.s:1933   .text:0000000000000c34 .L0 
     /tmp/cc5Z495Y.s:1934   .text:0000000000000c34 .L0 
     /tmp/cc5Z495Y.s:1935   .text:0000000000000c34 .L0 
     /tmp/cc5Z495Y.s:1937   .text:0000000000000c38 .L0 
     /tmp/cc5Z495Y.s:1941   .text:0000000000000c40 .L0 
     /tmp/cc5Z495Y.s:1942   .text:0000000000000c40 .L0 
     /tmp/cc5Z495Y.s:1944   .text:0000000000000c44 .L0 
     /tmp/cc5Z495Y.s:1946   .text:0000000000000c48 .L0 
     /tmp/cc5Z495Y.s:1947   .text:0000000000000c48 .L0 
     /tmp/cc5Z495Y.s:1953   .text:0000000000000c50 .L0 
     /tmp/cc5Z495Y.s:1954   .text:0000000000000c50 .L0 
     /tmp/cc5Z495Y.s:1956   .text:0000000000000c54 .L0 
     /tmp/cc5Z495Y.s:1958   .text:0000000000000c58 .L0 
     /tmp/cc5Z495Y.s:1959   .text:0000000000000c58 .L0 
     /tmp/cc5Z495Y.s:1964   .text:0000000000000c60 .L0 
     /tmp/cc5Z495Y.s:1965   .text:0000000000000c60 .L0 
     /tmp/cc5Z495Y.s:1974   .text:0000000000000c68 .L0 
     /tmp/cc5Z495Y.s:1975   .text:0000000000000c68 .L0 
     /tmp/cc5Z495Y.s:1980   .text:0000000000000c6c .L0 
     /tmp/cc5Z495Y.s:1981   .text:0000000000000c6c .L0 
     /tmp/cc5Z495Y.s:1987   .text:0000000000000c70 .L0 
     /tmp/cc5Z495Y.s:1988   .text:0000000000000c70 .L0 
     /tmp/cc5Z495Y.s:1989   .text:0000000000000c70 .L0 
     /tmp/cc5Z495Y.s:1991   .text:0000000000000c74 .L0 
     /tmp/cc5Z495Y.s:1993   .text:0000000000000c78 .L0 
     /tmp/cc5Z495Y.s:1995   .text:0000000000000c7c .L0 
     /tmp/cc5Z495Y.s:1997   .text:0000000000000c80 .L0 
     /tmp/cc5Z495Y.s:1999   .text:0000000000000c84 .L0 
     /tmp/cc5Z495Y.s:2007   .text:0000000000000c88 .L0 
     /tmp/cc5Z495Y.s:2011   .text:0000000000000c88 .L0 
     /tmp/cc5Z495Y.s:2013   .text:0000000000000c88 .L0 
     /tmp/cc5Z495Y.s:2015   .text:0000000000000c8c .L0 
     /tmp/cc5Z495Y.s:2018   .text:0000000000000c90 .L0 
     /tmp/cc5Z495Y.s:2019   .text:0000000000000c90 .L0 
     /tmp/cc5Z495Y.s:2022   .text:0000000000000c94 .L0 
     /tmp/cc5Z495Y.s:2023   .text:0000000000000c94 .L0 
     /tmp/cc5Z495Y.s:2028   .text:0000000000000ca0 .L0 
     /tmp/cc5Z495Y.s:2029   .text:0000000000000ca0 .L0 
     /tmp/cc5Z495Y.s:2037   .text:0000000000000ca8 .L0 
     /tmp/cc5Z495Y.s:2043   .text:0000000000000cac .L0 
     /tmp/cc5Z495Y.s:2047   .text:0000000000000cb0 .L0 
     /tmp/cc5Z495Y.s:2048   .text:0000000000000cb4 .L0 
     /tmp/cc5Z495Y.s:2049   .text:0000000000000cb4 .L0 
     /tmp/cc5Z495Y.s:2051   .text:0000000000000cb8 .L0 
     /tmp/cc5Z495Y.s:2052   .text:0000000000000cb8 .L0 
     /tmp/cc5Z495Y.s:2054   .text:0000000000000cbc .L0 
     /tmp/cc5Z495Y.s:2057   .text:0000000000000cc0 .L0 
     /tmp/cc5Z495Y.s:2060   .text:0000000000000cc4 .L0 
     /tmp/cc5Z495Y.s:2064   .text:0000000000000cc8 .L0 
     /tmp/cc5Z495Y.s:2066   .text:0000000000000cc8 .L0 
     /tmp/cc5Z495Y.s:2067   .text:0000000000000cc8 .L0 
     /tmp/cc5Z495Y.s:2076   .text:0000000000000cd0 .L0 
     /tmp/cc5Z495Y.s:2077   .text:0000000000000cd0 .L0 
     /tmp/cc5Z495Y.s:2082   .text:0000000000000cd4 .L0 
GAS LISTING /tmp/cc5Z495Y.s 			page 80


     /tmp/cc5Z495Y.s:2083   .text:0000000000000cd4 .L0 
     /tmp/cc5Z495Y.s:2089   .text:0000000000000cd8 .L0 
     /tmp/cc5Z495Y.s:2090   .text:0000000000000cd8 .L0 
     /tmp/cc5Z495Y.s:2091   .text:0000000000000cd8 .L0 
     /tmp/cc5Z495Y.s:2093   .text:0000000000000cdc .L0 
     /tmp/cc5Z495Y.s:2095   .text:0000000000000ce0 .L0 
     /tmp/cc5Z495Y.s:2097   .text:0000000000000ce4 .L0 
     /tmp/cc5Z495Y.s:2099   .text:0000000000000ce8 .L0 
     /tmp/cc5Z495Y.s:2101   .text:0000000000000cec .L0 
     /tmp/cc5Z495Y.s:2109   .text:0000000000000cf0 .L0 
     /tmp/cc5Z495Y.s:2113   .text:0000000000000cf0 .L0 
     /tmp/cc5Z495Y.s:2115   .text:0000000000000cf0 .L0 
     /tmp/cc5Z495Y.s:2117   .text:0000000000000cf4 .L0 
     /tmp/cc5Z495Y.s:2120   .text:0000000000000cf8 .L0 
     /tmp/cc5Z495Y.s:2121   .text:0000000000000cf8 .L0 
     /tmp/cc5Z495Y.s:2124   .text:0000000000000cfc .L0 
     /tmp/cc5Z495Y.s:2125   .text:0000000000000cfc .L0 
     /tmp/cc5Z495Y.s:2132   .text:0000000000000d0c .L0 
     /tmp/cc5Z495Y.s:2133   .text:0000000000000d0c .L0 
     /tmp/cc5Z495Y.s:2140   .text:0000000000000d14 .L0 
     /tmp/cc5Z495Y.s:2146   .text:0000000000000d14 _ZN13SlabAllocator10freeBufferEPKv
     /tmp/cc5Z495Y.s:2149   .text:0000000000000d14 .L0 
     /tmp/cc5Z495Y.s:2151   .text:0000000000000d14 .L0 
     /tmp/cc5Z495Y.s:2152   .text:0000000000000d18 .L0 
     /tmp/cc5Z495Y.s:2157   .text:0000000000000d28 .L0 
     /tmp/cc5Z495Y.s:2158   .text:0000000000000d28 .L0 
     /tmp/cc5Z495Y.s:2159   .text:0000000000000d28 .L0 
     /tmp/cc5Z495Y.s:2160   .text:0000000000000d28 .L0 
     /tmp/cc5Z495Y.s:2162   .text:0000000000000d2c .L0 
     /tmp/cc5Z495Y.s:2167   .text:0000000000000d30 .L0 
     /tmp/cc5Z495Y.s:2168   .text:0000000000000d30 .L0 
     /tmp/cc5Z495Y.s:2172   .text:0000000000000d34 .L0 
     /tmp/cc5Z495Y.s:2175   .text:0000000000000d3c .L0 
     /tmp/cc5Z495Y.s:2176   .text:0000000000000d3c .L0 
     /tmp/cc5Z495Y.s:2184   .text:0000000000000d5c .L0 
     /tmp/cc5Z495Y.s:2186   .text:0000000000000d60 .L0 
     /tmp/cc5Z495Y.s:2193   .text:0000000000000d68 .L0 
     /tmp/cc5Z495Y.s:2194   .text:0000000000000d6c .L0 
     /tmp/cc5Z495Y.s:2196   .text:0000000000000d70 .L0 
     /tmp/cc5Z495Y.s:2197   .text:0000000000000d70 .L0 
     /tmp/cc5Z495Y.s:2199   .text:0000000000000d74 .L0 
     /tmp/cc5Z495Y.s:2202   .text:0000000000000d78 .L0 
     /tmp/cc5Z495Y.s:2205   .text:0000000000000d7c .L0 
     /tmp/cc5Z495Y.s:2207   .text:0000000000000d80 .L0 
     /tmp/cc5Z495Y.s:2213   .text:0000000000000d80 _ZN13SlabAllocator11deleteCacheERP5Cache
     /tmp/cc5Z495Y.s:2216   .text:0000000000000d80 .L0 
     /tmp/cc5Z495Y.s:2218   .text:0000000000000d80 .L0 
     /tmp/cc5Z495Y.s:2219   .text:0000000000000d84 .L0 
     /tmp/cc5Z495Y.s:2224   .text:0000000000000d94 .L0 
     /tmp/cc5Z495Y.s:2225   .text:0000000000000d94 .L0 
     /tmp/cc5Z495Y.s:2226   .text:0000000000000d94 .L0 
     /tmp/cc5Z495Y.s:2227   .text:0000000000000d94 .L0 
     /tmp/cc5Z495Y.s:2229   .text:0000000000000d98 .L0 
     /tmp/cc5Z495Y.s:2232   .text:0000000000000d9c .L0 
     /tmp/cc5Z495Y.s:2233   .text:0000000000000d9c .L0 
     /tmp/cc5Z495Y.s:2235   .text:0000000000000da0 .L0 
     /tmp/cc5Z495Y.s:2241   .text:0000000000000da4 .L0 
GAS LISTING /tmp/cc5Z495Y.s 			page 81


     /tmp/cc5Z495Y.s:2242   .text:0000000000000da4 .L0 
     /tmp/cc5Z495Y.s:2247   .text:0000000000000dac .L0 
     /tmp/cc5Z495Y.s:2248   .text:0000000000000dac .L0 
     /tmp/cc5Z495Y.s:2249   .text:0000000000000dac .L0 
     /tmp/cc5Z495Y.s:2251   .text:0000000000000db0 .L0 
     /tmp/cc5Z495Y.s:2255   .text:0000000000000dbc .L0 
     /tmp/cc5Z495Y.s:2256   .text:0000000000000dbc .L0 
     /tmp/cc5Z495Y.s:2258   .text:0000000000000dc0 .L0 
     /tmp/cc5Z495Y.s:2260   .text:0000000000000dc4 .L0 
     /tmp/cc5Z495Y.s:2263   .text:0000000000000dc8 .L0 
     /tmp/cc5Z495Y.s:2269   .text:0000000000000dcc .L0 
     /tmp/cc5Z495Y.s:2270   .text:0000000000000dcc .L0 
     /tmp/cc5Z495Y.s:2272   .text:0000000000000dd0 .L0 
     /tmp/cc5Z495Y.s:2278   .text:0000000000000dd4 .L0 
     /tmp/cc5Z495Y.s:2279   .text:0000000000000dd4 .L0 
     /tmp/cc5Z495Y.s:2284   .text:0000000000000ddc .L0 
     /tmp/cc5Z495Y.s:2285   .text:0000000000000ddc .L0 
     /tmp/cc5Z495Y.s:2286   .text:0000000000000ddc .L0 
     /tmp/cc5Z495Y.s:2288   .text:0000000000000de0 .L0 
     /tmp/cc5Z495Y.s:2292   .text:0000000000000dec .L0 
     /tmp/cc5Z495Y.s:2293   .text:0000000000000dec .L0 
     /tmp/cc5Z495Y.s:2295   .text:0000000000000df0 .L0 
     /tmp/cc5Z495Y.s:2297   .text:0000000000000df4 .L0 
     /tmp/cc5Z495Y.s:2300   .text:0000000000000df8 .L0 
     /tmp/cc5Z495Y.s:2306   .text:0000000000000dfc .L0 
     /tmp/cc5Z495Y.s:2307   .text:0000000000000dfc .L0 
     /tmp/cc5Z495Y.s:2309   .text:0000000000000e00 .L0 
     /tmp/cc5Z495Y.s:2315   .text:0000000000000e04 .L0 
     /tmp/cc5Z495Y.s:2316   .text:0000000000000e04 .L0 
     /tmp/cc5Z495Y.s:2321   .text:0000000000000e0c .L0 
     /tmp/cc5Z495Y.s:2322   .text:0000000000000e0c .L0 
     /tmp/cc5Z495Y.s:2323   .text:0000000000000e0c .L0 
     /tmp/cc5Z495Y.s:2325   .text:0000000000000e10 .L0 
     /tmp/cc5Z495Y.s:2329   .text:0000000000000e1c .L0 
     /tmp/cc5Z495Y.s:2330   .text:0000000000000e1c .L0 
     /tmp/cc5Z495Y.s:2332   .text:0000000000000e20 .L0 
     /tmp/cc5Z495Y.s:2334   .text:0000000000000e24 .L0 
     /tmp/cc5Z495Y.s:2337   .text:0000000000000e28 .L0 
     /tmp/cc5Z495Y.s:2343   .text:0000000000000e2c .L0 
     /tmp/cc5Z495Y.s:2344   .text:0000000000000e2c .L0 
     /tmp/cc5Z495Y.s:2349   .text:0000000000000e40 .L0 
     /tmp/cc5Z495Y.s:2350   .text:0000000000000e40 .L0 
     /tmp/cc5Z495Y.s:2352   .text:0000000000000e44 .L0 
     /tmp/cc5Z495Y.s:2353   .text:0000000000000e48 .L0 
     /tmp/cc5Z495Y.s:2355   .text:0000000000000e4c .L0 
     /tmp/cc5Z495Y.s:2356   .text:0000000000000e4c .L0 
     /tmp/cc5Z495Y.s:2358   .text:0000000000000e50 .L0 
     /tmp/cc5Z495Y.s:2361   .text:0000000000000e54 .L0 
     /tmp/cc5Z495Y.s:2363   .text:0000000000000e58 .L0 
     /tmp/cc5Z495Y.s:2365   .text:0000000000000e5c .L0 
     /tmp/cc5Z495Y.s:2382   .text:0000000000000e5c _ZN13SlabAllocator17cacheErrorHandlerEP5Cache
     /tmp/cc5Z495Y.s:2385   .text:0000000000000e5c .L0 
     /tmp/cc5Z495Y.s:2387   .text:0000000000000e5c .L0 
     /tmp/cc5Z495Y.s:2388   .text:0000000000000e60 .L0 
     /tmp/cc5Z495Y.s:2392   .text:0000000000000e6c .L0 
     /tmp/cc5Z495Y.s:2393   .text:0000000000000e6c .L0 
     /tmp/cc5Z495Y.s:2394   .text:0000000000000e6c .L0 
GAS LISTING /tmp/cc5Z495Y.s 			page 82


     /tmp/cc5Z495Y.s:2396   .text:0000000000000e70 .L0 
     /tmp/cc5Z495Y.s:2399   .text:0000000000000e74 .L0 
     /tmp/cc5Z495Y.s:2400   .text:0000000000000e74 .L0 
     /tmp/cc5Z495Y.s:2402   .text:0000000000000e78 .L0 
     /tmp/cc5Z495Y.s:2410   .text:0000000000000e8c .L0 
     /tmp/cc5Z495Y.s:2411   .text:0000000000000e8c .L0 
     /tmp/cc5Z495Y.s:2413   .text:0000000000000e94 .L0 
     /tmp/cc5Z495Y.s:2414   .text:0000000000000e94 .L0 
     /tmp/cc5Z495Y.s:2416   .text:0000000000000e98 .L0 
     /tmp/cc5Z495Y.s:2417   .text:0000000000000e98 .L0 
     /tmp/cc5Z495Y.s:2419   .text:0000000000000e9c .L0 
     /tmp/cc5Z495Y.s:2422   .text:0000000000000ea0 .L0 
     /tmp/cc5Z495Y.s:2426   .text:0000000000000ea4 .L0 
     /tmp/cc5Z495Y.s:2428   .text:0000000000000ea4 .L0 
     /tmp/cc5Z495Y.s:2429   .text:0000000000000ea4 .L0 
     /tmp/cc5Z495Y.s:2430   .text:0000000000000ea4 .L0 
     /tmp/cc5Z495Y.s:2434   .text:0000000000000eb4 .L0 
     /tmp/cc5Z495Y.s:2437   .text:0000000000000eb8 .L0 
     /tmp/cc5Z495Y.s:2438   .text:0000000000000eb8 .L0 
     /tmp/cc5Z495Y.s:2439   .text:0000000000000eb8 .L0 
     /tmp/cc5Z495Y.s:2443   .text:0000000000000ec8 .L0 
     /tmp/cc5Z495Y.s:2446   .text:0000000000000ecc .L0 
     /tmp/cc5Z495Y.s:2447   .text:0000000000000ecc .L0 
     /tmp/cc5Z495Y.s:2448   .text:0000000000000ecc .L0 
     /tmp/cc5Z495Y.s:2452   .text:0000000000000edc .L0 
     /tmp/cc5Z495Y.s:2453   .text:0000000000000ee0 .L0 
     /tmp/cc5Z495Y.s:2520   .data.rel.local:0000000000000000 _ZN13SlabAllocator5namesE
     /tmp/cc5Z495Y.s:2509   .bss:0000000000000008 _ZN13SlabAllocator5sizeNE
     /tmp/cc5Z495Y.s:2505   .bss:0000000000000000 _ZN13SlabAllocator14largeSlabCacheE
     /tmp/cc5Z495Y.s:2513   .bss:0000000000000070 _ZN13SlabAllocator5cacheE
     /tmp/cc5Z495Y.s:2502   .bss:0000000000000000 .LANCHOR0
     /tmp/cc5Z495Y.s:2517   .data.rel.local:0000000000000000 .LANCHOR1
     /tmp/cc5Z495Y.s:2540   .text:0000000000000ee0 .L0 
     /tmp/cc5Z495Y.s:82     .rodata.str1.8:0000000000000000 .LC0
     /tmp/cc5Z495Y.s:143    .text:000000000000008c .L0 
     /tmp/cc5Z495Y.s:85     .rodata.str1.8:0000000000000008 .LC1
     /tmp/cc5Z495Y.s:145    .text:0000000000000098 .L0 
     /tmp/cc5Z495Y.s:152    .text:00000000000000ac .L0 
     /tmp/cc5Z495Y.s:88     .rodata.str1.8:0000000000000018 .LC2
     /tmp/cc5Z495Y.s:154    .text:00000000000000b8 .L0 
     /tmp/cc5Z495Y.s:160    .text:00000000000000cc .L0 
     /tmp/cc5Z495Y.s:91     .rodata.str1.8:0000000000000030 .LC3
     /tmp/cc5Z495Y.s:162    .text:00000000000000d8 .L0 
     /tmp/cc5Z495Y.s:168    .text:00000000000000ec .L0 
     /tmp/cc5Z495Y.s:94     .rodata.str1.8:0000000000000048 .LC4
     /tmp/cc5Z495Y.s:170    .text:00000000000000f8 .L0 
     /tmp/cc5Z495Y.s:176    .text:000000000000010c .L0 
     /tmp/cc5Z495Y.s:97     .rodata.str1.8:0000000000000060 .LC5
     /tmp/cc5Z495Y.s:178    .text:0000000000000118 .L0 
     /tmp/cc5Z495Y.s:184    .text:000000000000012c .L0 
     /tmp/cc5Z495Y.s:100    .rodata.str1.8:0000000000000070 .LC6
     /tmp/cc5Z495Y.s:186    .text:0000000000000138 .L0 
     /tmp/cc5Z495Y.s:103    .rodata.str1.8:0000000000000090 .LC7
     /tmp/cc5Z495Y.s:191    .text:0000000000000148 .L0 
     /tmp/cc5Z495Y.s:106    .rodata.str1.8:00000000000000b0 .LC8
     /tmp/cc5Z495Y.s:206    .text:0000000000000168 .L0 
     /tmp/cc5Z495Y.s:109    .rodata.str1.8:00000000000000b8 .LC9
GAS LISTING /tmp/cc5Z495Y.s 			page 83


     /tmp/cc5Z495Y.s:208    .text:0000000000000174 .L0 
     /tmp/cc5Z495Y.s:227    .text:0000000000000198 .L0 
     /tmp/cc5Z495Y.s:255    .rodata.str1.8:00000000000000c0 .LC10
     /tmp/cc5Z495Y.s:299    .text:00000000000001e0 .L0 
     /tmp/cc5Z495Y.s:310    .text:00000000000001fc .L0 
     /tmp/cc5Z495Y.s:316    .text:0000000000000210 .L0 
     /tmp/cc5Z495Y.s:258    .rodata.str1.8:00000000000000d0 .LC11
     /tmp/cc5Z495Y.s:318    .text:000000000000021c .L0 
     /tmp/cc5Z495Y.s:324    .text:0000000000000230 .L0 
     /tmp/cc5Z495Y.s:261    .rodata.str1.8:00000000000000e0 .LC12
     /tmp/cc5Z495Y.s:326    .text:000000000000023c .L0 
     /tmp/cc5Z495Y.s:332    .text:0000000000000250 .L0 
     /tmp/cc5Z495Y.s:264    .rodata.str1.8:00000000000000f8 .LC13
     /tmp/cc5Z495Y.s:334    .text:000000000000025c .L0 
     /tmp/cc5Z495Y.s:340    .text:0000000000000270 .L0 
     /tmp/cc5Z495Y.s:267    .rodata.str1.8:0000000000000110 .LC14
     /tmp/cc5Z495Y.s:342    .text:000000000000027c .L0 
     /tmp/cc5Z495Y.s:356    .text:0000000000000298 .L0 
     /tmp/cc5Z495Y.s:358    .text:00000000000002a4 .L0 
     /tmp/cc5Z495Y.s:370    .text:00000000000002bc .L0 
     /tmp/cc5Z495Y.s:376    .text:00000000000002d0 .L0 
     /tmp/cc5Z495Y.s:270    .rodata.str1.8:0000000000000120 .LC15
     /tmp/cc5Z495Y.s:378    .text:00000000000002dc .L0 
     /tmp/cc5Z495Y.s:392    .text:00000000000002f8 .L0 
     /tmp/cc5Z495Y.s:394    .text:0000000000000304 .L0 
     /tmp/cc5Z495Y.s:406    .text:000000000000031c .L0 
     /tmp/cc5Z495Y.s:412    .text:0000000000000330 .L0 
     /tmp/cc5Z495Y.s:273    .rodata.str1.8:0000000000000130 .LC16
     /tmp/cc5Z495Y.s:414    .text:000000000000033c .L0 
     /tmp/cc5Z495Y.s:428    .text:0000000000000358 .L0 
     /tmp/cc5Z495Y.s:430    .text:0000000000000364 .L0 
     /tmp/cc5Z495Y.s:442    .text:000000000000037c .L0 
     /tmp/cc5Z495Y.s:1111   .text:0000000000000740 .L0 
     /tmp/cc5Z495Y.s:1346   .text:0000000000000890 .L0 
     /tmp/cc5Z495Y.s:1401   .text:00000000000008f4 .L0 
     /tmp/cc5Z495Y.s:1597   .text:00000000000009f0 .L0 
     /tmp/cc5Z495Y.s:1603   .text:0000000000000a08 .L0 
     /tmp/cc5Z495Y.s:1565   .rodata.str1.8:0000000000000140 .LC17
     /tmp/cc5Z495Y.s:1633   .text:0000000000000a3c .L0 
     /tmp/cc5Z495Y.s:1568   .rodata.str1.8:0000000000000150 .LC18
     /tmp/cc5Z495Y.s:1673   .text:0000000000000a88 .L0 
     /tmp/cc5Z495Y.s:1688   .text:0000000000000aa8 .L0 
     /tmp/cc5Z495Y.s:1698   .text:0000000000000ad0 .L0 
     /tmp/cc5Z495Y.s:1902   .text:0000000000000c08 .L0 
     /tmp/cc5Z495Y.s:2177   .text:0000000000000d40 .L0 
     /tmp/cc5Z495Y.s:2345   .text:0000000000000e30 .L0 
     /tmp/cc5Z495Y.s:2370   .rodata.str1.8:0000000000000168 .LC19
     /tmp/cc5Z495Y.s:2430   .text:0000000000000ea4 .L0 
     /tmp/cc5Z495Y.s:2373   .rodata.str1.8:0000000000000178 .LC20
     /tmp/cc5Z495Y.s:2439   .text:0000000000000eb8 .L0 
     /tmp/cc5Z495Y.s:2376   .rodata.str1.8:0000000000000190 .LC21
     /tmp/cc5Z495Y.s:2448   .text:0000000000000ecc .L0 
     /tmp/cc5Z495Y.s:59     .text:000000000000004c .L2
     /tmp/cc5Z495Y.s:33     .text:0000000000000020 .L3
     /tmp/cc5Z495Y.s:248    .text:00000000000001c0 .L10
     /tmp/cc5Z495Y.s:214    .text:0000000000000188 .L8
     /tmp/cc5Z495Y.s:200    .text:0000000000000160 .L13
GAS LISTING /tmp/cc5Z495Y.s 			page 84


     /tmp/cc5Z495Y.s:367    .text:00000000000002bc .L15
     /tmp/cc5Z495Y.s:349    .text:0000000000000290 .L16
     /tmp/cc5Z495Y.s:403    .text:000000000000031c .L17
     /tmp/cc5Z495Y.s:385    .text:00000000000002f0 .L18
     /tmp/cc5Z495Y.s:439    .text:000000000000037c .L19
     /tmp/cc5Z495Y.s:421    .text:0000000000000350 .L20
     /tmp/cc5Z495Y.s:487    .text:00000000000003c0 .L23
     /tmp/cc5Z495Y.s:604    .text:0000000000000480 .L35
     /tmp/cc5Z495Y.s:570    .text:0000000000000450 .L28
     /tmp/cc5Z495Y.s:616    .text:0000000000000490 .L29
     /tmp/cc5Z495Y.s:585    .text:0000000000000460 .L30
     /tmp/cc5Z495Y.s:663    .text:00000000000004d4 .L27
     /tmp/cc5Z495Y.s:653    .text:00000000000004c8 .L32
     /tmp/cc5Z495Y.s:660    .text:00000000000004d0 .L33
     /tmp/cc5Z495Y.s:627    .text:000000000000049c .L31
     /tmp/cc5Z495Y.s:739    .text:0000000000000538 .L41
     /tmp/cc5Z495Y.s:713    .text:0000000000000514 .L38
     /tmp/cc5Z495Y.s:724    .text:0000000000000524 .L39
     /tmp/cc5Z495Y.s:702    .text:0000000000000504 .L37
     /tmp/cc5Z495Y.s:952    .text:0000000000000668 .L45
     /tmp/cc5Z495Y.s:857    .text:00000000000005e8 .L55
     /tmp/cc5Z495Y.s:829    .text:00000000000005b8 .L53
     /tmp/cc5Z495Y.s:937    .text:0000000000000650 .L56
     /tmp/cc5Z495Y.s:945    .text:000000000000065c .L49
     /tmp/cc5Z495Y.s:921    .text:0000000000000638 .L51
     /tmp/cc5Z495Y.s:966    .text:0000000000000678 .L44
     /tmp/cc5Z495Y.s:886    .text:000000000000060c .L48
     /tmp/cc5Z495Y.s:907    .text:0000000000000620 .L50
     /tmp/cc5Z495Y.s:1029   .text:00000000000006cc .L58
     /tmp/cc5Z495Y.s:1011   .text:00000000000006b4 .L59
     /tmp/cc5Z495Y.s:1056   .text:00000000000006f0 .L70
     /tmp/cc5Z495Y.s:1079   .text:000000000000070c .L61
     /tmp/cc5Z495Y.s:1062   .text:00000000000006f4 .L62
     /tmp/cc5Z495Y.s:1036   .text:00000000000006d0 .L57
     /tmp/cc5Z495Y.s:1107   .text:0000000000000740 .L63
     /tmp/cc5Z495Y.s:1141   .text:0000000000000788 .L64
     /tmp/cc5Z495Y.s:1180   .text:00000000000007c4 .L65
     /tmp/cc5Z495Y.s:1162   .text:00000000000007a4 .L66
     /tmp/cc5Z495Y.s:1218   .text:00000000000007fc .L67
     /tmp/cc5Z495Y.s:1192   .text:00000000000007d0 .L68
     /tmp/cc5Z495Y.s:1319   .text:0000000000000870 .L72
     /tmp/cc5Z495Y.s:1303   .text:000000000000085c .L73
     /tmp/cc5Z495Y.s:1361   .text:00000000000008b8 .L75
     /tmp/cc5Z495Y.s:1522   .text:000000000000099c .L80
     /tmp/cc5Z495Y.s:1498   .text:0000000000000978 .L82
     /tmp/cc5Z495Y.s:1482   .text:0000000000000964 .L83
     /tmp/cc5Z495Y.s:1550   .text:00000000000009c4 .L84
     /tmp/cc5Z495Y.s:1514   .text:000000000000098c .L85
     /tmp/cc5Z495Y.s:1704   .text:0000000000000ae4 .L89
     /tmp/cc5Z495Y.s:1682   .text:0000000000000aa0 .L91
     /tmp/cc5Z495Y.s:1907   .text:0000000000000c1c .L101
     /tmp/cc5Z495Y.s:1853   .text:0000000000000bac .L94
     /tmp/cc5Z495Y.s:1863   .text:0000000000000bb8 .L104
     /tmp/cc5Z495Y.s:1870   .text:0000000000000bc4 .L105
     /tmp/cc5Z495Y.s:1836   .text:0000000000000b98 .L92
     /tmp/cc5Z495Y.s:1792   .text:0000000000000b64 .L95
     /tmp/cc5Z495Y.s:1814   .text:0000000000000b7c .L97
GAS LISTING /tmp/cc5Z495Y.s 			page 85


     /tmp/cc5Z495Y.s:1892   .text:0000000000000bf4 .L99
     /tmp/cc5Z495Y.s:1951   .text:0000000000000c50 .L107
     /tmp/cc5Z495Y.s:1962   .text:0000000000000c60 .L108
     /tmp/cc5Z495Y.s:1977   .text:0000000000000c6c .L111
     /tmp/cc5Z495Y.s:2032   .text:0000000000000ca8 .L116
     /tmp/cc5Z495Y.s:1969   .text:0000000000000c68 .L110
     /tmp/cc5Z495Y.s:2039   .text:0000000000000cac .L109
     /tmp/cc5Z495Y.s:2063   .text:0000000000000cc8 .L118
     /tmp/cc5Z495Y.s:2079   .text:0000000000000cd4 .L115
     /tmp/cc5Z495Y.s:2045   .text:0000000000000cb0 .L112
     /tmp/cc5Z495Y.s:2071   .text:0000000000000cd0 .L114
     /tmp/cc5Z495Y.s:2190   .text:0000000000000d68 .L119
     /tmp/cc5Z495Y.s:2170   .text:0000000000000d34 .L121
     /tmp/cc5Z495Y.s:2264   .text:0000000000000dcc .L124
     /tmp/cc5Z495Y.s:2237   .text:0000000000000da4 .L125
     /tmp/cc5Z495Y.s:2301   .text:0000000000000dfc .L126
     /tmp/cc5Z495Y.s:2274   .text:0000000000000dd4 .L127
     /tmp/cc5Z495Y.s:2338   .text:0000000000000e2c .L128
     /tmp/cc5Z495Y.s:2311   .text:0000000000000e04 .L129
     /tmp/cc5Z495Y.s:2435   .text:0000000000000eb8 .L132
     /tmp/cc5Z495Y.s:2444   .text:0000000000000ecc .L133
     /tmp/cc5Z495Y.s:2425   .text:0000000000000ea4 .L136
     /tmp/cc5Z495Y.s:2408   .text:0000000000000e8c .L134
     /tmp/cc5Z495Y.s:2459   .rodata.str1.8:00000000000001a8 .LC22
     /tmp/cc5Z495Y.s:2462   .rodata.str1.8:00000000000001c0 .LC23
     /tmp/cc5Z495Y.s:2465   .rodata.str1.8:00000000000001d8 .LC24
     /tmp/cc5Z495Y.s:2468   .rodata.str1.8:00000000000001f0 .LC25
     /tmp/cc5Z495Y.s:2471   .rodata.str1.8:0000000000000208 .LC26
     /tmp/cc5Z495Y.s:2474   .rodata.str1.8:0000000000000220 .LC27
     /tmp/cc5Z495Y.s:2477   .rodata.str1.8:0000000000000238 .LC28
     /tmp/cc5Z495Y.s:2480   .rodata.str1.8:0000000000000250 .LC29
     /tmp/cc5Z495Y.s:2483   .rodata.str1.8:0000000000000268 .LC30
     /tmp/cc5Z495Y.s:2486   .rodata.str1.8:0000000000000280 .LC31
     /tmp/cc5Z495Y.s:2489   .rodata.str1.8:0000000000000298 .LC32
     /tmp/cc5Z495Y.s:2492   .rodata.str1.8:00000000000002b0 .LC33
     /tmp/cc5Z495Y.s:2495   .rodata.str1.8:00000000000002c8 .LC34
     /tmp/cc5Z495Y.s:5472   .debug_abbrev:0000000000000000 .Ldebug_abbrev0
     /tmp/cc5Z495Y.s:7643   .debug_str:0000000000000099 .LASF165
     /tmp/cc5Z495Y.s:7929   .debug_str:0000000000000a36 .LASF166
     /tmp/cc5Z495Y.s:7649   .debug_str:000000000000017b .LASF167
     /tmp/cc5Z495Y.s:5      .text:0000000000000000 .Ltext0
     /tmp/cc5Z495Y.s:2535   .text:0000000000000ee0 .Letext0
     /tmp/cc5Z495Y.s:7627   .debug_line:0000000000000000 .Ldebug_line0
     /tmp/cc5Z495Y.s:7751   .debug_str:00000000000004e1 .LASF0
     /tmp/cc5Z495Y.s:7737   .debug_str:000000000000045b .LASF1
     /tmp/cc5Z495Y.s:7765   .debug_str:0000000000000540 .LASF2
     /tmp/cc5Z495Y.s:7849   .debug_str:00000000000007e3 .LASF3
     /tmp/cc5Z495Y.s:7857   .debug_str:000000000000081c .LASF4
     /tmp/cc5Z495Y.s:7635   .debug_str:000000000000004d .LASF5
     /tmp/cc5Z495Y.s:7829   .debug_str:000000000000075b .LASF6
     /tmp/cc5Z495Y.s:7757   .debug_str:00000000000004fe .LASF7
     /tmp/cc5Z495Y.s:7707   .debug_str:000000000000035a .LASF8
     /tmp/cc5Z495Y.s:7717   .debug_str:00000000000003d6 .LASF9
     /tmp/cc5Z495Y.s:7663   .debug_str:0000000000000220 .LASF10
     /tmp/cc5Z495Y.s:7701   .debug_str:0000000000000327 .LASF11
     /tmp/cc5Z495Y.s:7673   .debug_str:000000000000024e .LASF12
     /tmp/cc5Z495Y.s:7661   .debug_str:0000000000000210 .LASF13
GAS LISTING /tmp/cc5Z495Y.s 			page 86


     /tmp/cc5Z495Y.s:7883   .debug_str:00000000000008d6 .LASF14
     /tmp/cc5Z495Y.s:7691   .debug_str:00000000000002dd .LASF15
     /tmp/cc5Z495Y.s:7871   .debug_str:000000000000089c .LASF16
     /tmp/cc5Z495Y.s:7891   .debug_str:0000000000000924 .LASF17
     /tmp/cc5Z495Y.s:7861   .debug_str:0000000000000831 .LASF18
     /tmp/cc5Z495Y.s:7823   .debug_str:000000000000072f .LASF19
     /tmp/cc5Z495Y.s:7937   .debug_str:0000000000000a84 .LASF20
     /tmp/cc5Z495Y.s:7851   .debug_str:00000000000007f1 .LASF21
     /tmp/cc5Z495Y.s:7745   .debug_str:00000000000004c3 .LASF22
     /tmp/cc5Z495Y.s:7753   .debug_str:00000000000004f3 .LASF45
     /tmp/cc5Z495Y.s:7905   .debug_str:000000000000098a .LASF168
     /tmp/cc5Z495Y.s:7665   .debug_str:000000000000022f .LASF92
     /tmp/cc5Z495Y.s:7867   .debug_str:0000000000000869 .LASF23
     /tmp/cc5Z495Y.s:7945   .debug_str:0000000000000ada .LASF25
     /tmp/cc5Z495Y.s:7911   .debug_str:00000000000009a7 .LASF27
     /tmp/cc5Z495Y.s:7825   .debug_str:000000000000073d .LASF29
     /tmp/cc5Z495Y.s:7921   .debug_str:00000000000009ff .LASF24
     /tmp/cc5Z495Y.s:7919   .debug_str:00000000000009ec .LASF26
     /tmp/cc5Z495Y.s:7669   .debug_str:000000000000023f .LASF60
     /tmp/cc5Z495Y.s:7889   .debug_str:000000000000090e .LASF62
     /tmp/cc5Z495Y.s:7901   .debug_str:0000000000000978 .LASF28
     /tmp/cc5Z495Y.s:7705   .debug_str:0000000000000341 .LASF30
     /tmp/cc5Z495Y.s:7727   .debug_str:0000000000000416 .LASF31
     /tmp/cc5Z495Y.s:7947   .debug_str:0000000000000af4 .LASF32
     /tmp/cc5Z495Y.s:7685   .debug_str:0000000000000296 .LASF33
     /tmp/cc5Z495Y.s:7725   .debug_str:000000000000040f .LASF169
     /tmp/cc5Z495Y.s:7879   .debug_str:00000000000008cb .LASF34
     /tmp/cc5Z495Y.s:7805   .debug_str:00000000000006cb .LASF35
     /tmp/cc5Z495Y.s:7749   .debug_str:00000000000004dc .LASF36
     /tmp/cc5Z495Y.s:7855   .debug_str:000000000000080b .LASF37
     /tmp/cc5Z495Y.s:7697   .debug_str:0000000000000313 .LASF38
     /tmp/cc5Z495Y.s:7723   .debug_str:00000000000003fc .LASF39
     /tmp/cc5Z495Y.s:7693   .debug_str:00000000000002f3 .LASF40
     /tmp/cc5Z495Y.s:7629   .debug_str:0000000000000000 .LASF42
     /tmp/cc5Z495Y.s:7731   .debug_str:0000000000000440 .LASF41
     /tmp/cc5Z495Y.s:7899   .debug_str:0000000000000963 .LASF43
     /tmp/cc5Z495Y.s:7955   .debug_str:0000000000000b7b .LASF170
     /tmp/cc5Z495Y.s:7729   .debug_str:000000000000042b .LASF171
     /tmp/cc5Z495Y.s:7783   .debug_str:00000000000005f3 .LASF44
     /tmp/cc5Z495Y.s:7907   .debug_str:0000000000000990 .LASF46
     /tmp/cc5Z495Y.s:7797   .debug_str:0000000000000681 .LASF47
     /tmp/cc5Z495Y.s:7835   .debug_str:0000000000000780 .LASF48
     /tmp/cc5Z495Y.s:7957   .debug_str:0000000000000b84 .LASF49
     /tmp/cc5Z495Y.s:7677   .debug_str:0000000000000265 .LASF50
     /tmp/cc5Z495Y.s:7895   .debug_str:0000000000000949 .LASF51
     /tmp/cc5Z495Y.s:7925   .debug_str:0000000000000a20 .LASF52
     /tmp/cc5Z495Y.s:7939   .debug_str:0000000000000a92 .LASF53
     /tmp/cc5Z495Y.s:7739   .debug_str:0000000000000468 .LASF54
     /tmp/cc5Z495Y.s:7837   .debug_str:000000000000078c .LASF55
     /tmp/cc5Z495Y.s:7767   .debug_str:0000000000000553 .LASF56
     /tmp/cc5Z495Y.s:7933   .debug_str:0000000000000a5a .LASF57
     /tmp/cc5Z495Y.s:7843   .debug_str:00000000000007ae .LASF58
     /tmp/cc5Z495Y.s:7923   .debug_str:0000000000000a04 .LASF59
     /tmp/cc5Z495Y.s:7807   .debug_str:00000000000006d0 .LASF61
     /tmp/cc5Z495Y.s:7887   .debug_str:00000000000008f2 .LASF63
     /tmp/cc5Z495Y.s:7841   .debug_str:00000000000007a4 .LASF64
     /tmp/cc5Z495Y.s:7845   .debug_str:00000000000007b7 .LASF65
GAS LISTING /tmp/cc5Z495Y.s 			page 87


     /tmp/cc5Z495Y.s:7915   .debug_str:00000000000009d0 .LASF66
     /tmp/cc5Z495Y.s:7971   .debug_str:0000000000000be3 .LASF67
     /tmp/cc5Z495Y.s:7935   .debug_str:0000000000000a65 .LASF172
     /tmp/cc5Z495Y.s:7885   .debug_str:00000000000008e2 .LASF68
     /tmp/cc5Z495Y.s:7977   .debug_str:0000000000000c2f .LASF69
     /tmp/cc5Z495Y.s:7831   .debug_str:000000000000076e .LASF70
     /tmp/cc5Z495Y.s:7795   .debug_str:0000000000000663 .LASF71
     /tmp/cc5Z495Y.s:7961   .debug_str:0000000000000ba1 .LASF72
     /tmp/cc5Z495Y.s:7779   .debug_str:00000000000005cc .LASF73
     /tmp/cc5Z495Y.s:7633   .debug_str:0000000000000047 .LASF74
     /tmp/cc5Z495Y.s:7893   .debug_str:0000000000000929 .LASF75
     /tmp/cc5Z495Y.s:7931   .debug_str:0000000000000a54 .LASF76
     /tmp/cc5Z495Y.s:7755   .debug_str:00000000000004f9 .LASF77
     /tmp/cc5Z495Y.s:7967   .debug_str:0000000000000bcf .LASF78
     /tmp/cc5Z495Y.s:7813   .debug_str:00000000000006ec .LASF79
     /tmp/cc5Z495Y.s:7963   .debug_str:0000000000000bad .LASF80
     /tmp/cc5Z495Y.s:7781   .debug_str:00000000000005ee .LASF81
     /tmp/cc5Z495Y.s:7735   .debug_str:0000000000000456 .LASF82
     /tmp/cc5Z495Y.s:7927   .debug_str:0000000000000a2c .LASF83
     /tmp/cc5Z495Y.s:7827   .debug_str:000000000000074f .LASF84
     /tmp/cc5Z495Y.s:7713   .debug_str:000000000000039f .LASF85
     /tmp/cc5Z495Y.s:7793   .debug_str:000000000000065e .LASF86
     /tmp/cc5Z495Y.s:7875   .debug_str:00000000000008be .LASF87
     /tmp/cc5Z495Y.s:7917   .debug_str:00000000000009da .LASF89
     /tmp/cc5Z495Y.s:7687   .debug_str:00000000000002a7 .LASF88
     /tmp/cc5Z495Y.s:7959   .debug_str:0000000000000b8e .LASF90
     /tmp/cc5Z495Y.s:7645   .debug_str:0000000000000169 .LASF91
     /tmp/cc5Z495Y.s:7679   .debug_str:000000000000026e .LASF93
     /tmp/cc5Z495Y.s:7637   .debug_str:0000000000000054 .LASF94
     /tmp/cc5Z495Y.s:7809   .debug_str:00000000000006d9 .LASF95
     /tmp/cc5Z495Y.s:7941   .debug_str:0000000000000a9f .LASF96
     /tmp/cc5Z495Y.s:7683   .debug_str:000000000000028f .LASF97
     /tmp/cc5Z495Y.s:7859   .debug_str:0000000000000823 .LASF98
     /tmp/cc5Z495Y.s:7913   .debug_str:00000000000009ad .LASF99
     /tmp/cc5Z495Y.s:7865   .debug_str:000000000000085d .LASF100
     /tmp/cc5Z495Y.s:7689   .debug_str:00000000000002af .LASF101
     /tmp/cc5Z495Y.s:7815   .debug_str:00000000000006f5 .LASF102
     /tmp/cc5Z495Y.s:7975   .debug_str:0000000000000c06 .LASF103
     /tmp/cc5Z495Y.s:7803   .debug_str:00000000000006be .LASF104
     /tmp/cc5Z495Y.s:7801   .debug_str:0000000000000695 .LASF105
     /tmp/cc5Z495Y.s:7873   .debug_str:00000000000008b2 .LASF106
     /tmp/cc5Z495Y.s:7953   .debug_str:0000000000000b53 .LASF107
     /tmp/cc5Z495Y.s:7647   .debug_str:000000000000016e .LASF108
     /tmp/cc5Z495Y.s:7869   .debug_str:0000000000000874 .LASF109
     /tmp/cc5Z495Y.s:7897   .debug_str:0000000000000954 .LASF110
     /tmp/cc5Z495Y.s:7659   .debug_str:00000000000001e5 .LASF111
     /tmp/cc5Z495Y.s:7785   .debug_str:00000000000005f8 .LASF112
     /tmp/cc5Z495Y.s:7949   .debug_str:0000000000000b05 .LASF113
     /tmp/cc5Z495Y.s:7969   .debug_str:0000000000000bda .LASF114
     /tmp/cc5Z495Y.s:7651   .debug_str:00000000000001ac .LASF115
     /tmp/cc5Z495Y.s:7909   .debug_str:000000000000099c .LASF116
     /tmp/cc5Z495Y.s:7641   .debug_str:000000000000006f .LASF117
     /tmp/cc5Z495Y.s:7667   .debug_str:0000000000000234 .LASF118
     /tmp/cc5Z495Y.s:7743   .debug_str:00000000000004a0 .LASF119
     /tmp/cc5Z495Y.s:7777   .debug_str:00000000000005c2 .LASF120
     /tmp/cc5Z495Y.s:7863   .debug_str:0000000000000839 .LASF121
     /tmp/cc5Z495Y.s:7703   .debug_str:0000000000000336 .LASF122
GAS LISTING /tmp/cc5Z495Y.s 			page 88


     /tmp/cc5Z495Y.s:7789   .debug_str:0000000000000632 .LASF123
     /tmp/cc5Z495Y.s:7681   .debug_str:000000000000027d .LASF124
     /tmp/cc5Z495Y.s:7943   .debug_str:0000000000000aac .LASF125
     /tmp/cc5Z495Y.s:7881   .debug_str:00000000000008d0 .LASF126
     /tmp/cc5Z495Y.s:7973   .debug_str:0000000000000c00 .LASF127
     /tmp/cc5Z495Y.s:7819   .debug_str:000000000000071b .LASF128
     /tmp/cc5Z495Y.s:7733   .debug_str:0000000000000447 .LASF129
     /tmp/cc5Z495Y.s:7741   .debug_str:0000000000000472 .LASF130
     /tmp/cc5Z495Y.s:7847   .debug_str:00000000000007d4 .LASF131
     /tmp/cc5Z495Y.s:7715   .debug_str:00000000000003a8 .LASF132
     /tmp/cc5Z495Y.s:7671   .debug_str:0000000000000249 .LASF133
     /tmp/cc5Z495Y.s:7709   .debug_str:000000000000036a .LASF134
     /tmp/cc5Z495Y.s:7853   .debug_str:00000000000007fd .LASF135
     /tmp/cc5Z495Y.s:7951   .debug_str:0000000000000b2a .LASF136
     /tmp/cc5Z495Y.s:7839   .debug_str:0000000000000796 .LASF137
     /tmp/cc5Z495Y.s:7631   .debug_str:000000000000001e .LASF138
     /tmp/cc5Z495Y.s:7719   .debug_str:00000000000003e4 .LASF139
     /tmp/cc5Z495Y.s:7771   .debug_str:0000000000000564 .LASF140
     /tmp/cc5Z495Y.s:7699   .debug_str:000000000000031a .LASF141
     /tmp/cc5Z495Y.s:7787   .debug_str:0000000000000607 .LASF142
     /tmp/cc5Z495Y.s:7657   .debug_str:00000000000001da .LASF143
     /tmp/cc5Z495Y.s:7773   .debug_str:0000000000000590 .LASF144
     /tmp/cc5Z495Y.s:7877   .debug_str:00000000000008c5 .LASF145
     /tmp/cc5Z495Y.s:7817   .debug_str:0000000000000701 .LASF146
     /tmp/cc5Z495Y.s:7759   .debug_str:0000000000000511 .LASF147
     /tmp/cc5Z495Y.s:7965   .debug_str:0000000000000bb5 .LASF148
     /tmp/cc5Z495Y.s:7695   .debug_str:00000000000002f9 .LASF149
     /tmp/cc5Z495Y.s:2383   .text:0000000000000e5c .LFB48
     /tmp/cc5Z495Y.s:2454   .text:0000000000000ee0 .LFE48
     /tmp/cc5Z495Y.s:6540   .debug_loc:0000000000000000 .LLST74
     /tmp/cc5Z495Y.s:2432   .text:0000000000000eb4 .LVL248
     /tmp/cc5Z495Y.s:2441   .text:0000000000000ec8 .LVL249
     /tmp/cc5Z495Y.s:2450   .text:0000000000000edc .LVL250
     /tmp/cc5Z495Y.s:754    .text:0000000000000544 .LFB47
     /tmp/cc5Z495Y.s:800    .text:0000000000000598 .LFE47
     /tmp/cc5Z495Y.s:7833   .debug_str:0000000000000777 .LASF150
     /tmp/cc5Z495Y.s:6562   .debug_loc:000000000000005f .LLST10
     /tmp/cc5Z495Y.s:7675   .debug_str:000000000000025e .LASF151
     /tmp/cc5Z495Y.s:6576   .debug_loc:0000000000000098 .LLST11
     /tmp/cc5Z495Y.s:7821   .debug_str:000000000000072a .LASF152
     /tmp/cc5Z495Y.s:6594   .debug_loc:00000000000000e4 .LLST12
     /tmp/cc5Z495Y.s:777    .text:0000000000000570 .LVL71
     /tmp/cc5Z495Y.s:783    .text:0000000000000580 .LVL72
     /tmp/cc5Z495Y.s:687    .text:00000000000004f0 .LFB46
     /tmp/cc5Z495Y.s:748    .text:0000000000000544 .LFE46
     /tmp/cc5Z495Y.s:467    .text:00000000000003a4 .LFB45
     /tmp/cc5Z495Y.s:502    .text:00000000000003d4 .LFE45
     /tmp/cc5Z495Y.s:280    .text:00000000000001c4 .LFB44
     /tmp/cc5Z495Y.s:461    .text:00000000000003a4 .LFE44
     /tmp/cc5Z495Y.s:6612   .debug_loc:0000000000000130 .LLST4
     /tmp/cc5Z495Y.s:7791   .debug_str:0000000000000659 .LASF153
     /tmp/cc5Z495Y.s:6630   .debug_loc:000000000000017c .LLST5
     /tmp/cc5Z495Y.s:302    .text:00000000000001f0 .LVL26
     /tmp/cc5Z495Y.s:307    .text:00000000000001fc .LVL27
     /tmp/cc5Z495Y.s:312    .text:000000000000020c .LVL28
     /tmp/cc5Z495Y.s:320    .text:000000000000022c .LVL29
     /tmp/cc5Z495Y.s:328    .text:000000000000024c .LVL30
GAS LISTING /tmp/cc5Z495Y.s 			page 89


     /tmp/cc5Z495Y.s:336    .text:000000000000026c .LVL31
     /tmp/cc5Z495Y.s:344    .text:000000000000028c .LVL32
     /tmp/cc5Z495Y.s:360    .text:00000000000002b4 .LVL34
     /tmp/cc5Z495Y.s:372    .text:00000000000002cc .LVL36
     /tmp/cc5Z495Y.s:380    .text:00000000000002ec .LVL37
     /tmp/cc5Z495Y.s:396    .text:0000000000000314 .LVL39
     /tmp/cc5Z495Y.s:408    .text:000000000000032c .LVL41
     /tmp/cc5Z495Y.s:416    .text:000000000000034c .LVL42
     /tmp/cc5Z495Y.s:432    .text:0000000000000374 .LVL44
     /tmp/cc5Z495Y.s:444    .text:000000000000038c .LVL46
     /tmp/cc5Z495Y.s:116    .text:0000000000000068 .LFB43
     /tmp/cc5Z495Y.s:251    .text:00000000000001c4 .LFE43
     /tmp/cc5Z495Y.s:6637   .debug_loc:000000000000019f .LLST2
     /tmp/cc5Z495Y.s:195    .text:0000000000000158 .LBB45
     /tmp/cc5Z495Y.s:224    .text:0000000000000198 .LBE45
     /tmp/cc5Z495Y.s:6659   .debug_loc:00000000000001fe .LLST3
     /tmp/cc5Z495Y.s:210    .text:0000000000000184 .LVL18
     /tmp/cc5Z495Y.s:148    .text:00000000000000a8 .LVL10
     /tmp/cc5Z495Y.s:156    .text:00000000000000c8 .LVL11
     /tmp/cc5Z495Y.s:164    .text:00000000000000e8 .LVL12
     /tmp/cc5Z495Y.s:172    .text:0000000000000108 .LVL13
     /tmp/cc5Z495Y.s:180    .text:0000000000000128 .LVL14
     /tmp/cc5Z495Y.s:188    .text:0000000000000148 .LVL15
     /tmp/cc5Z495Y.s:193    .text:0000000000000158 .LVL16
     /tmp/cc5Z495Y.s:229    .text:00000000000001a8 .LVL20
     /tmp/cc5Z495Y.s:10     .text:0000000000000000 .LFB42
     /tmp/cc5Z495Y.s:78     .text:0000000000000068 .LFE42
     /tmp/cc5Z495Y.s:6671   .debug_loc:0000000000000235 .LLST0
     /tmp/cc5Z495Y.s:6689   .debug_loc:0000000000000281 .LLST1
     /tmp/cc5Z495Y.s:42     .text:0000000000000034 .LVL3
     /tmp/cc5Z495Y.s:2214   .text:0000000000000d80 .LFB41
     /tmp/cc5Z495Y.s:2366   .text:0000000000000e5c .LFE41
     /tmp/cc5Z495Y.s:6705   .debug_loc:00000000000002cb .LLST67
     /tmp/cc5Z495Y.s:2238   .text:0000000000000da4 .LBB137
     /tmp/cc5Z495Y.s:2267   .text:0000000000000dcc .LBE137
     /tmp/cc5Z495Y.s:6723   .debug_loc:0000000000000317 .LLST68
     /tmp/cc5Z495Y.s:2244   .text:0000000000000dac .LBB139
     /tmp/cc5Z495Y.s:2261   .text:0000000000000dc8 .LBE139
     /tmp/cc5Z495Y.s:6730   .debug_loc:000000000000033a .LLST69
     /tmp/cc5Z495Y.s:2253   .text:0000000000000dbc .LVL232
     /tmp/cc5Z495Y.s:2275   .text:0000000000000dd4 .LBB140
     /tmp/cc5Z495Y.s:2304   .text:0000000000000dfc .LBE140
     /tmp/cc5Z495Y.s:6737   .debug_loc:000000000000035d .LLST70
     /tmp/cc5Z495Y.s:2281   .text:0000000000000ddc .LBB142
     /tmp/cc5Z495Y.s:2298   .text:0000000000000df8 .LBE142
     /tmp/cc5Z495Y.s:6744   .debug_loc:0000000000000380 .LLST71
     /tmp/cc5Z495Y.s:2290   .text:0000000000000dec .LVL236
     /tmp/cc5Z495Y.s:2312   .text:0000000000000e04 .LBB143
     /tmp/cc5Z495Y.s:2341   .text:0000000000000e2c .LBE143
     /tmp/cc5Z495Y.s:6751   .debug_loc:00000000000003a3 .LLST72
     /tmp/cc5Z495Y.s:2318   .text:0000000000000e0c .LBB145
     /tmp/cc5Z495Y.s:2335   .text:0000000000000e28 .LBE145
     /tmp/cc5Z495Y.s:6758   .debug_loc:00000000000003c6 .LLST73
     /tmp/cc5Z495Y.s:2327   .text:0000000000000e1c .LVL240
     /tmp/cc5Z495Y.s:2347   .text:0000000000000e40 .LVL242
     /tmp/cc5Z495Y.s:1373   .text:00000000000008c0 .LFB40
     /tmp/cc5Z495Y.s:1561   .text:00000000000009d0 .LFE40
GAS LISTING /tmp/cc5Z495Y.s 			page 90


     /tmp/cc5Z495Y.s:6765   .debug_loc:00000000000003e9 .LLST33
     /tmp/cc5Z495Y.s:7763   .debug_str:000000000000053b .LASF154
     /tmp/cc5Z495Y.s:6787   .debug_loc:0000000000000448 .LLST34
     /tmp/cc5Z495Y.s:6809   .debug_loc:00000000000004a7 .LLST35
     /tmp/cc5Z495Y.s:6831   .debug_loc:0000000000000506 .LLST36
     /tmp/cc5Z495Y.s:6853   .debug_loc:0000000000000565 .LLST37
     /tmp/cc5Z495Y.s:6868   .debug_loc:00000000000005ae .LLST38
     /tmp/cc5Z495Y.s:1430   .text:0000000000000928 .LBB75
     /tmp/cc5Z495Y.s:1477   .text:0000000000000960 .LBE75
     /tmp/cc5Z495Y.s:6879   .debug_loc:00000000000005e4 .LLST39
     /tmp/cc5Z495Y.s:1478   .text:0000000000000960 .LBB77
     /tmp/cc5Z495Y.s:1502   .text:0000000000000978 .LBE77
     /tmp/cc5Z495Y.s:6890   .debug_loc:000000000000061a .LLST40
     /tmp/cc5Z495Y.s:6897   .debug_loc:000000000000063d .LLST41
     /tmp/cc5Z495Y.s:1404   .text:0000000000000904 .LVL140
     /tmp/cc5Z495Y.s:1520   .text:000000000000099c .LVL157
     /tmp/cc5Z495Y.s:2147   .text:0000000000000d14 .LFB39
     /tmp/cc5Z495Y.s:2208   .text:0000000000000d80 .LFE39
     /tmp/cc5Z495Y.s:7655   .debug_str:00000000000001d5 .LASF155
     /tmp/cc5Z495Y.s:6904   .debug_loc:0000000000000660 .LLST65
     /tmp/cc5Z495Y.s:2166   .text:0000000000000d30 .LBB127
     /tmp/cc5Z495Y.s:2191   .text:0000000000000d68 .LBE127
     /tmp/cc5Z495Y.s:6922   .debug_loc:00000000000006ac .LLST66
     /tmp/cc5Z495Y.s:2182   .text:0000000000000d5c .LVL224
     /tmp/cc5Z495Y.s:1922   .text:0000000000000c20 .LFB38
     /tmp/cc5Z495Y.s:2141   .text:0000000000000d14 .LFE38
     /tmp/cc5Z495Y.s:6938   .debug_loc:00000000000006f6 .LLST51
     /tmp/cc5Z495Y.s:6960   .debug_loc:0000000000000755 .LLST52
     /tmp/cc5Z495Y.s:7799   .debug_str:000000000000068d .LASF156
     /tmp/cc5Z495Y.s:6982   .debug_loc:00000000000007b4 .LLST53
     /tmp/cc5Z495Y.s:1970   .text:0000000000000c68 .LBB105
     /tmp/cc5Z495Y.s:7575   .debug_ranges:0000000000000000 .Ldebug_ranges0
     /tmp/cc5Z495Y.s:6993   .debug_loc:00000000000007ea .LLST54
     /tmp/cc5Z495Y.s:7000   .debug_loc:000000000000080d .LLST55
     /tmp/cc5Z495Y.s:7011   .debug_loc:0000000000000843 .LLST56
     /tmp/cc5Z495Y.s:7022   .debug_loc:0000000000000879 .LLST57
     /tmp/cc5Z495Y.s:1985   .text:0000000000000c70 .LBB108
     /tmp/cc5Z495Y.s:2002   .text:0000000000000c88 .LBE108
     /tmp/cc5Z495Y.s:7038   .debug_loc:00000000000008c4 .LLST58
     /tmp/cc5Z495Y.s:2016   .text:0000000000000c90 .LBB111
     /tmp/cc5Z495Y.s:2033   .text:0000000000000ca8 .LBE111
     /tmp/cc5Z495Y.s:7045   .debug_loc:00000000000008e7 .LLST59
     /tmp/cc5Z495Y.s:2026   .text:0000000000000ca0 .LVL205
     /tmp/cc5Z495Y.s:2072   .text:0000000000000cd0 .LBB116
     /tmp/cc5Z495Y.s:7067   .debug_loc:0000000000000928 .LLST60
     /tmp/cc5Z495Y.s:7074   .debug_loc:000000000000094b .LLST61
     /tmp/cc5Z495Y.s:7085   .debug_loc:0000000000000981 .LLST62
     /tmp/cc5Z495Y.s:2087   .text:0000000000000cd8 .LBB119
     /tmp/cc5Z495Y.s:2104   .text:0000000000000cf0 .LBE119
     /tmp/cc5Z495Y.s:7101   .debug_loc:00000000000009cc .LLST63
     /tmp/cc5Z495Y.s:2118   .text:0000000000000cf8 .LBB122
     /tmp/cc5Z495Y.s:2135   .text:0000000000000d14 .LBE122
     /tmp/cc5Z495Y.s:7108   .debug_loc:00000000000009ef .LLST64
     /tmp/cc5Z495Y.s:2130   .text:0000000000000d0c .LVL220
     /tmp/cc5Z495Y.s:1950   .text:0000000000000c50 .LVL196
     /tmp/cc5Z495Y.s:1961   .text:0000000000000c60 .LVL197
     /tmp/cc5Z495Y.s:1730   .text:0000000000000b04 .LFB37
GAS LISTING /tmp/cc5Z495Y.s 			page 91


     /tmp/cc5Z495Y.s:1916   .text:0000000000000c20 .LFE37
     /tmp/cc5Z495Y.s:7130   .debug_loc:0000000000000a30 .LLST45
     /tmp/cc5Z495Y.s:7903   .debug_str:0000000000000984 .LASF157
     /tmp/cc5Z495Y.s:7156   .debug_loc:0000000000000aa2 .LLST46
     /tmp/cc5Z495Y.s:7177   .debug_loc:0000000000000af1 .LLST47
     /tmp/cc5Z495Y.s:7188   .debug_loc:0000000000000b27 .LLST48
     /tmp/cc5Z495Y.s:1777   .text:0000000000000b54 .LBB82
     /tmp/cc5Z495Y.s:1784   .text:0000000000000b58 .LBE82
     /tmp/cc5Z495Y.s:7199   .debug_loc:0000000000000b5d .LLST49
     /tmp/cc5Z495Y.s:1800   .text:0000000000000b6c .LBB84
     /tmp/cc5Z495Y.s:1807   .text:0000000000000b70 .LBE84
     /tmp/cc5Z495Y.s:7206   .debug_loc:0000000000000b80 .LLST50
     /tmp/cc5Z495Y.s:1835   .text:0000000000000b98 .LVL183
     /tmp/cc5Z495Y.s:1876   .text:0000000000000bd0 .LVL189
     /tmp/cc5Z495Y.s:1890   .text:0000000000000bf0 .LVL190
     /tmp/cc5Z495Y.s:1898   .text:0000000000000c04 .LVL191
     /tmp/cc5Z495Y.s:1904   .text:0000000000000c18 .LVL192
     /tmp/cc5Z495Y.s:1244   .text:0000000000000820 .LFB36
     /tmp/cc5Z495Y.s:1367   .text:00000000000008c0 .LFE36
     /tmp/cc5Z495Y.s:7213   .debug_loc:0000000000000ba3 .LLST28
     /tmp/cc5Z495Y.s:7761   .debug_str:0000000000000535 .LASF158
     /tmp/cc5Z495Y.s:7233   .debug_loc:0000000000000bf1 .LLST29
     /tmp/cc5Z495Y.s:1249   .text:0000000000000820 .LBB71
     /tmp/cc5Z495Y.s:1298   .text:0000000000000858 .LBE71
     /tmp/cc5Z495Y.s:7256   .debug_loc:0000000000000c51 .LLST30
     /tmp/cc5Z495Y.s:1299   .text:0000000000000858 .LBB73
     /tmp/cc5Z495Y.s:1323   .text:0000000000000870 .LBE73
     /tmp/cc5Z495Y.s:7267   .debug_loc:0000000000000c87 .LLST31
     /tmp/cc5Z495Y.s:7274   .debug_loc:0000000000000caa .LLST32
     /tmp/cc5Z495Y.s:1350   .text:00000000000008a8 .LVL136
     /tmp/cc5Z495Y.s:988    .text:0000000000000690 .LFB35
     /tmp/cc5Z495Y.s:1238   .text:0000000000000820 .LFE35
     /tmp/cc5Z495Y.s:7281   .debug_loc:0000000000000ccd .LLST18
     /tmp/cc5Z495Y.s:7303   .debug_loc:0000000000000d2c .LLST19
     /tmp/cc5Z495Y.s:1108   .text:0000000000000740 .LBB67
     /tmp/cc5Z495Y.s:1235   .text:0000000000000820 .LBE67
     /tmp/cc5Z495Y.s:7318   .debug_loc:0000000000000d75 .LLST24
     /tmp/cc5Z495Y.s:7775   .debug_str:00000000000005b7 .LASF159
     /tmp/cc5Z495Y.s:7325   .debug_loc:0000000000000d98 .LLST25
     /tmp/cc5Z495Y.s:1158   .text:00000000000007a0 .LBB68
     /tmp/cc5Z495Y.s:1181   .text:00000000000007c4 .LBE68
     /tmp/cc5Z495Y.s:7332   .debug_loc:0000000000000dbb .LLST26
     /tmp/cc5Z495Y.s:1188   .text:00000000000007cc .LBB70
     /tmp/cc5Z495Y.s:1219   .text:00000000000007fc .LBE70
     /tmp/cc5Z495Y.s:7344   .debug_loc:0000000000000df2 .LLST27
     /tmp/cc5Z495Y.s:1113   .text:0000000000000750 .LVL106
     /tmp/cc5Z495Y.s:1146   .text:0000000000000794 .LVL108
     /tmp/cc5Z495Y.s:1226   .text:000000000000080c .LVL116
     /tmp/cc5Z495Y.s:1231   .text:0000000000000818 .LVL117
     /tmp/cc5Z495Y.s:1012   .text:00000000000006b4 .LBB60
     /tmp/cc5Z495Y.s:1032   .text:00000000000006cc .LBE60
     /tmp/cc5Z495Y.s:7351   .debug_loc:0000000000000e15 .LLST20
     /tmp/cc5Z495Y.s:1018   .text:00000000000006b8 .LBB62
     /tmp/cc5Z495Y.s:1030   .text:00000000000006cc .LBE62
     /tmp/cc5Z495Y.s:7358   .debug_loc:0000000000000e38 .LLST21
     /tmp/cc5Z495Y.s:1023   .text:00000000000006c4 .LVL95
     /tmp/cc5Z495Y.s:1063   .text:00000000000006f4 .LBB63
GAS LISTING /tmp/cc5Z495Y.s 			page 92


     /tmp/cc5Z495Y.s:1082   .text:000000000000070c .LBE63
     /tmp/cc5Z495Y.s:7365   .debug_loc:0000000000000e5b .LLST22
     /tmp/cc5Z495Y.s:1068   .text:00000000000006f8 .LBB65
     /tmp/cc5Z495Y.s:1080   .text:000000000000070c .LBE65
     /tmp/cc5Z495Y.s:7372   .debug_loc:0000000000000e7e .LLST23
     /tmp/cc5Z495Y.s:1073   .text:0000000000000704 .LVL101
     /tmp/cc5Z495Y.s:1096   .text:0000000000000728 .LVL103
     /tmp/cc5Z495Y.s:1103   .text:0000000000000738 .LVL104
     /tmp/cc5Z495Y.s:806    .text:0000000000000598 .LFB34
     /tmp/cc5Z495Y.s:982    .text:0000000000000690 .LFE34
     /tmp/cc5Z495Y.s:7379   .debug_loc:0000000000000ea1 .LLST13
     /tmp/cc5Z495Y.s:7413   .debug_loc:0000000000000f39 .LLST14
     /tmp/cc5Z495Y.s:7429   .debug_loc:0000000000000f83 .LLST15
     /tmp/cc5Z495Y.s:7440   .debug_loc:0000000000000fb9 .LLST16
     /tmp/cc5Z495Y.s:870    .text:00000000000005fc .LBB53
     /tmp/cc5Z495Y.s:878    .text:0000000000000600 .LBE53
     /tmp/cc5Z495Y.s:7447   .debug_loc:0000000000000fdc .LLST17
     /tmp/cc5Z495Y.s:920    .text:0000000000000638 .LVL85
     /tmp/cc5Z495Y.s:508    .text:00000000000003d4 .LFB33
     /tmp/cc5Z495Y.s:681    .text:00000000000004f0 .LFE33
     /tmp/cc5Z495Y.s:7454   .debug_loc:0000000000000fff .LLST6
     /tmp/cc5Z495Y.s:7472   .debug_loc:000000000000104b .LLST7
     /tmp/cc5Z495Y.s:581    .text:000000000000045c .LBB47
     /tmp/cc5Z495Y.s:605    .text:0000000000000480 .LBE47
     /tmp/cc5Z495Y.s:7491   .debug_loc:00000000000010a7 .LLST8
     /tmp/cc5Z495Y.s:623    .text:0000000000000498 .LBB49
     /tmp/cc5Z495Y.s:654    .text:00000000000004c8 .LBE49
     /tmp/cc5Z495Y.s:7511   .debug_loc:0000000000001104 .LLST9
     /tmp/cc5Z495Y.s:532    .text:0000000000000400 .LVL52
     /tmp/cc5Z495Y.s:542    .text:0000000000000418 .LVL54
     /tmp/cc5Z495Y.s:1575   .text:00000000000009d0 .LFB32
     /tmp/cc5Z495Y.s:1724   .text:0000000000000b04 .LFE32
     /tmp/cc5Z495Y.s:7769   .debug_str:000000000000055e .LASF160
     /tmp/cc5Z495Y.s:7522   .debug_loc:000000000000113a .LLST42
     /tmp/cc5Z495Y.s:7811   .debug_str:00000000000006e3 .LASF161
     /tmp/cc5Z495Y.s:7536   .debug_loc:0000000000001173 .LLST43
     /tmp/cc5Z495Y.s:1677   .text:0000000000000a98 .LBB79
     /tmp/cc5Z495Y.s:1708   .text:0000000000000aec .LBE79
     /tmp/cc5Z495Y.s:7550   .debug_loc:00000000000011ac .LLST44
     /tmp/cc5Z495Y.s:1696   .text:0000000000000ad0 .LVL170
     /tmp/cc5Z495Y.s:1594   .text:00000000000009f0 .LVL166
     /tmp/cc5Z495Y.s:1635   .text:0000000000000a4c .LVL167
     /tmp/cc5Z495Y.s:1675   .text:0000000000000a98 .LVL168
     /tmp/cc5Z495Y.s:7639   .debug_str:0000000000000064 .LASF162
     /tmp/cc5Z495Y.s:7747   .debug_str:00000000000004d1 .LASF163
     /tmp/cc5Z495Y.s:7653   .debug_str:00000000000001d0 .LASF164
     /tmp/cc5Z495Y.s:7711   .debug_str:0000000000000390 .LASF173
     /tmp/cc5Z495Y.s:7721   .debug_str:00000000000003f5 .LASF174
     /tmp/cc5Z495Y.s:2386   .text:0000000000000e5c .LVL244
     /tmp/cc5Z495Y.s:2407   .text:0000000000000e8c .LVL245
     /tmp/cc5Z495Y.s:2420   .text:0000000000000e9c .LVL246
     /tmp/cc5Z495Y.s:2424   .text:0000000000000ea4 .LVL247
     /tmp/cc5Z495Y.s:757    .text:0000000000000544 .LVL69
     /tmp/cc5Z495Y.s:775    .text:0000000000000568 .LVL70
     /tmp/cc5Z495Y.s:795    .text:0000000000000590 .LVL74
     /tmp/cc5Z495Y.s:792    .text:000000000000058c .LVL73
     /tmp/cc5Z495Y.s:283    .text:00000000000001c4 .LVL24
GAS LISTING /tmp/cc5Z495Y.s 			page 93


     /tmp/cc5Z495Y.s:300    .text:00000000000001e8 .LVL25
     /tmp/cc5Z495Y.s:456    .text:000000000000039c .LVL48
     /tmp/cc5Z495Y.s:348    .text:0000000000000290 .LVL33
     /tmp/cc5Z495Y.s:453    .text:0000000000000398 .LVL47
     /tmp/cc5Z495Y.s:119    .text:0000000000000068 .LVL8
     /tmp/cc5Z495Y.s:146    .text:00000000000000a0 .LVL9
     /tmp/cc5Z495Y.s:243    .text:00000000000001b8 .LVL22
     /tmp/cc5Z495Y.s:247    .text:00000000000001c0 .LVL23
     /tmp/cc5Z495Y.s:199    .text:0000000000000160 .LVL17
     /tmp/cc5Z495Y.s:240    .text:00000000000001b4 .LVL21
     /tmp/cc5Z495Y.s:14     .text:0000000000000000 .LVL0
     /tmp/cc5Z495Y.s:32     .text:0000000000000020 .LVL2
     /tmp/cc5Z495Y.s:70     .text:000000000000005c .LVL6
     /tmp/cc5Z495Y.s:29     .text:000000000000001c .LVL1
     /tmp/cc5Z495Y.s:50     .text:0000000000000040 .LVL4
     /tmp/cc5Z495Y.s:58     .text:000000000000004c .LVL5
     /tmp/cc5Z495Y.s:73     .text:0000000000000060 .LVL7
     /tmp/cc5Z495Y.s:2217   .text:0000000000000d80 .LVL229
     /tmp/cc5Z495Y.s:2236   .text:0000000000000da4 .LVL230
     /tmp/cc5Z495Y.s:2359   .text:0000000000000e50 .LVL243
     /tmp/cc5Z495Y.s:2265   .text:0000000000000dcc .LVL233
     /tmp/cc5Z495Y.s:2246   .text:0000000000000dac .LVL231
     /tmp/cc5Z495Y.s:2273   .text:0000000000000dd4 .LVL234
     /tmp/cc5Z495Y.s:2302   .text:0000000000000dfc .LVL237
     /tmp/cc5Z495Y.s:2283   .text:0000000000000ddc .LVL235
     /tmp/cc5Z495Y.s:2310   .text:0000000000000e04 .LVL238
     /tmp/cc5Z495Y.s:2339   .text:0000000000000e2c .LVL241
     /tmp/cc5Z495Y.s:2320   .text:0000000000000e0c .LVL239
     /tmp/cc5Z495Y.s:1376   .text:00000000000008c0 .LVL138
     /tmp/cc5Z495Y.s:1402   .text:00000000000008fc .LVL139
     /tmp/cc5Z495Y.s:1539   .text:00000000000009b4 .LVL160
     /tmp/cc5Z495Y.s:1549   .text:00000000000009c4 .LVL163
     /tmp/cc5Z495Y.s:1536   .text:00000000000009b0 .LVL159
     /tmp/cc5Z495Y.s:1545   .text:00000000000009bc .LVL162
     /tmp/cc5Z495Y.s:1542   .text:00000000000009b8 .LVL161
     /tmp/cc5Z495Y.s:1406   .text:0000000000000908 .LVL141
     /tmp/cc5Z495Y.s:1533   .text:00000000000009ac .LVL158
     /tmp/cc5Z495Y.s:1505   .text:000000000000097c .LVL155
     /tmp/cc5Z495Y.s:1513   .text:000000000000098c .LVL156
     /tmp/cc5Z495Y.s:1555   .text:00000000000009c8 .LVL164
     /tmp/cc5Z495Y.s:1429   .text:0000000000000928 .LVL142
     /tmp/cc5Z495Y.s:1435   .text:000000000000092c .LVL143
     /tmp/cc5Z495Y.s:1475   .text:0000000000000960 .LVL150
     /tmp/cc5Z495Y.s:1500   .text:0000000000000978 .LVL154
     /tmp/cc5Z495Y.s:1483   .text:0000000000000964 .LVL151
     /tmp/cc5Z495Y.s:2150   .text:0000000000000d14 .LVL221
     /tmp/cc5Z495Y.s:2169   .text:0000000000000d34 .LVL223
     /tmp/cc5Z495Y.s:2203   .text:0000000000000d78 .LVL228
     /tmp/cc5Z495Y.s:2165   .text:0000000000000d30 .LVL222
     /tmp/cc5Z495Y.s:2187   .text:0000000000000d64 .LVL225
     /tmp/cc5Z495Y.s:2189   .text:0000000000000d68 .LVL226
     /tmp/cc5Z495Y.s:2200   .text:0000000000000d74 .LVL227
     /tmp/cc5Z495Y.s:1925   .text:0000000000000c20 .LVL194
     /tmp/cc5Z495Y.s:1948   .text:0000000000000c4c .LVL195
     /tmp/cc5Z495Y.s:2058   .text:0000000000000cc0 .LVL210
     /tmp/cc5Z495Y.s:2062   .text:0000000000000cc8 .LVL211
     /tmp/cc5Z495Y.s:2055   .text:0000000000000cbc .LVL209
GAS LISTING /tmp/cc5Z495Y.s 			page 94


     /tmp/cc5Z495Y.s:2038   .text:0000000000000cac .LVL207
     /tmp/cc5Z495Y.s:2044   .text:0000000000000cb0 .LVL208
     /tmp/cc5Z495Y.s:2128   .text:0000000000000d04 .LVL219
     /tmp/cc5Z495Y.s:1966   .text:0000000000000c64 .LVL198
     /tmp/cc5Z495Y.s:2031   .text:0000000000000ca8 .LVL206
     /tmp/cc5Z495Y.s:1968   .text:0000000000000c68 .LVL199
     /tmp/cc5Z495Y.s:1976   .text:0000000000000c6c .LVL200
     /tmp/cc5Z495Y.s:2000   .text:0000000000000c88 .LVL202
     /tmp/cc5Z495Y.s:2020   .text:0000000000000c94 .LVL203
     /tmp/cc5Z495Y.s:1984   .text:0000000000000c70 .LVL201
     /tmp/cc5Z495Y.s:2024   .text:0000000000000c98 .LVL204
     /tmp/cc5Z495Y.s:2068   .text:0000000000000ccc .LVL212
     /tmp/cc5Z495Y.s:2070   .text:0000000000000cd0 .LVL213
     /tmp/cc5Z495Y.s:2078   .text:0000000000000cd4 .LVL214
     /tmp/cc5Z495Y.s:2102   .text:0000000000000cf0 .LVL216
     /tmp/cc5Z495Y.s:2122   .text:0000000000000cfc .LVL217
     /tmp/cc5Z495Y.s:2086   .text:0000000000000cd8 .LVL215
     /tmp/cc5Z495Y.s:2126   .text:0000000000000d00 .LVL218
     /tmp/cc5Z495Y.s:1733   .text:0000000000000b04 .LVL173
     /tmp/cc5Z495Y.s:1789   .text:0000000000000b60 .LVL178
     /tmp/cc5Z495Y.s:1848   .text:0000000000000ba4 .LVL184
     /tmp/cc5Z495Y.s:1852   .text:0000000000000bac .LVL185
     /tmp/cc5Z495Y.s:1906   .text:0000000000000c1c .LVL193
     /tmp/cc5Z495Y.s:1743   .text:0000000000000b14 .LVL174
     /tmp/cc5Z495Y.s:1745   .text:0000000000000b18 .LVL175
     /tmp/cc5Z495Y.s:1793   .text:0000000000000b64 .LVL179
     /tmp/cc5Z495Y.s:1862   .text:0000000000000bb8 .LVL186
     /tmp/cc5Z495Y.s:1815   .text:0000000000000b7c .LVL182
     /tmp/cc5Z495Y.s:1869   .text:0000000000000bc4 .LVL187
     /tmp/cc5Z495Y.s:1874   .text:0000000000000bc8 .LVL188
     /tmp/cc5Z495Y.s:1776   .text:0000000000000b54 .LVL176
     /tmp/cc5Z495Y.s:1782   .text:0000000000000b58 .LVL177
     /tmp/cc5Z495Y.s:1799   .text:0000000000000b6c .LVL180
     /tmp/cc5Z495Y.s:1805   .text:0000000000000b70 .LVL181
     /tmp/cc5Z495Y.s:1247   .text:0000000000000820 .LVL119
     /tmp/cc5Z495Y.s:1259   .text:0000000000000828 .LVL121
     /tmp/cc5Z495Y.s:1262   .text:000000000000082c .LVL122
     /tmp/cc5Z495Y.s:1321   .text:0000000000000870 .LVL132
     /tmp/cc5Z495Y.s:1327   .text:0000000000000874 .LVL133
     /tmp/cc5Z495Y.s:1341   .text:000000000000088c .LVL134
     /tmp/cc5Z495Y.s:1345   .text:0000000000000890 .LVL135
     /tmp/cc5Z495Y.s:1360   .text:00000000000008b8 .LVL137
     /tmp/cc5Z495Y.s:1255   .text:0000000000000824 .LVL120
     /tmp/cc5Z495Y.s:1296   .text:0000000000000858 .LVL128
     /tmp/cc5Z495Y.s:1304   .text:000000000000085c .LVL129
     /tmp/cc5Z495Y.s:991    .text:0000000000000690 .LVL93
     /tmp/cc5Z495Y.s:1010   .text:00000000000006b4 .LVL94
     /tmp/cc5Z495Y.s:1049   .text:00000000000006e4 .LVL98
     /tmp/cc5Z495Y.s:1055   .text:00000000000006f0 .LVL99
     /tmp/cc5Z495Y.s:1028   .text:00000000000006cc .LVL96
     /tmp/cc5Z495Y.s:1035   .text:00000000000006d0 .LVL97
     /tmp/cc5Z495Y.s:1061   .text:00000000000006f4 .LVL100
     /tmp/cc5Z495Y.s:1078   .text:000000000000070c .LVL102
     /tmp/cc5Z495Y.s:1115   .text:0000000000000754 .LVL107
     /tmp/cc5Z495Y.s:1233   .text:000000000000081c .LVL118
     /tmp/cc5Z495Y.s:1191   .text:00000000000007d0 .LVL112
     /tmp/cc5Z495Y.s:1157   .text:00000000000007a0 .LVL109
GAS LISTING /tmp/cc5Z495Y.s 			page 95


     /tmp/cc5Z495Y.s:1161   .text:00000000000007a4 .LVL110
     /tmp/cc5Z495Y.s:1217   .text:00000000000007fc .LVL115
     /tmp/cc5Z495Y.s:809    .text:0000000000000598 .LVL75
     /tmp/cc5Z495Y.s:883    .text:0000000000000608 .LVL81
     /tmp/cc5Z495Y.s:936    .text:0000000000000650 .LVL87
     /tmp/cc5Z495Y.s:940    .text:0000000000000654 .LVL88
     /tmp/cc5Z495Y.s:951    .text:0000000000000668 .LVL90
     /tmp/cc5Z495Y.s:965    .text:0000000000000678 .LVL91
     /tmp/cc5Z495Y.s:977    .text:0000000000000688 .LVL92
     /tmp/cc5Z495Y.s:824    .text:00000000000005b4 .LVL76
     /tmp/cc5Z495Y.s:828    .text:00000000000005b8 .LVL77
     /tmp/cc5Z495Y.s:931    .text:0000000000000648 .LVL86
     /tmp/cc5Z495Y.s:887    .text:000000000000060c .LVL82
     /tmp/cc5Z495Y.s:944    .text:000000000000065c .LVL89
     /tmp/cc5Z495Y.s:908    .text:0000000000000620 .LVL84
     /tmp/cc5Z495Y.s:869    .text:00000000000005fc .LVL79
     /tmp/cc5Z495Y.s:876    .text:0000000000000600 .LVL80
     /tmp/cc5Z495Y.s:511    .text:00000000000003d4 .LVL50
     /tmp/cc5Z495Y.s:530    .text:00000000000003f8 .LVL51
     /tmp/cc5Z495Y.s:676    .text:00000000000004e8 .LVL67
     /tmp/cc5Z495Y.s:540    .text:0000000000000410 .LVL53
     /tmp/cc5Z495Y.s:603    .text:0000000000000480 .LVL58
     /tmp/cc5Z495Y.s:613    .text:000000000000048c .LVL59
     /tmp/cc5Z495Y.s:615    .text:0000000000000490 .LVL60
     /tmp/cc5Z495Y.s:662    .text:00000000000004d4 .LVL66
     /tmp/cc5Z495Y.s:580    .text:000000000000045c .LVL55
     /tmp/cc5Z495Y.s:584    .text:0000000000000460 .LVL56
     /tmp/cc5Z495Y.s:626    .text:000000000000049c .LVL61
     /tmp/cc5Z495Y.s:652    .text:00000000000004c8 .LVL64
     /tmp/cc5Z495Y.s:659    .text:00000000000004d0 .LVL65
     /tmp/cc5Z495Y.s:1578   .text:00000000000009d0 .LVL165
     /tmp/cc5Z495Y.s:1681   .text:0000000000000aa0 .LVL169
     /tmp/cc5Z495Y.s:1717   .text:0000000000000af8 .LVL172
     /tmp/cc5Z495Y.s:2541   .debug_info:0000000000000000 .Ldebug_info0
     /tmp/cc5Z495Y.s:825    .text:00000000000005b4 .LBB50
     /tmp/cc5Z495Y.s:835    .text:00000000000005c0 .LBE50
     /tmp/cc5Z495Y.s:837    .text:00000000000005c0 .LBB58
     /tmp/cc5Z495Y.s:896    .text:0000000000000614 .LBE58
     /tmp/cc5Z495Y.s:898    .text:0000000000000614 .LBB59
     /tmp/cc5Z495Y.s:955    .text:0000000000000668 .LBE59
     /tmp/cc5Z495Y.s:859    .text:00000000000005e8 .LBB52
     /tmp/cc5Z495Y.s:894    .text:0000000000000614 .LBE52
     /tmp/cc5Z495Y.s:900    .text:0000000000000614 .LBB55
     /tmp/cc5Z495Y.s:953    .text:0000000000000668 .LBE55
     /tmp/cc5Z495Y.s:1765   .text:0000000000000b3c .LBB81
     /tmp/cc5Z495Y.s:1817   .text:0000000000000b7c .LBE81
     /tmp/cc5Z495Y.s:1821   .text:0000000000000b7c .LBB86
     /tmp/cc5Z495Y.s:1837   .text:0000000000000b98 .LBE86
     /tmp/cc5Z495Y.s:1856   .text:0000000000000bac .LBB87
     /tmp/cc5Z495Y.s:1913   .text:0000000000000c20 .LBE87
     /tmp/cc5Z495Y.s:2006   .text:0000000000000c88 .LBE105
     /tmp/cc5Z495Y.s:2008   .text:0000000000000c88 .LBB115
     /tmp/cc5Z495Y.s:2041   .text:0000000000000cac .LBE115
     /tmp/cc5Z495Y.s:1972   .text:0000000000000c68 .LBB107
     /tmp/cc5Z495Y.s:1978   .text:0000000000000c6c .LBE107
     /tmp/cc5Z495Y.s:1982   .text:0000000000000c70 .LBB112
     /tmp/cc5Z495Y.s:2004   .text:0000000000000c88 .LBE112
GAS LISTING /tmp/cc5Z495Y.s 			page 96


     /tmp/cc5Z495Y.s:2010   .text:0000000000000c88 .LBB113
     /tmp/cc5Z495Y.s:2035   .text:0000000000000ca8 .LBE113
     /tmp/cc5Z495Y.s:2108   .text:0000000000000cf0 .LBE116
     /tmp/cc5Z495Y.s:2110   .text:0000000000000cf0 .LBB126
     /tmp/cc5Z495Y.s:2139   .text:0000000000000d14 .LBE126
     /tmp/cc5Z495Y.s:2074   .text:0000000000000cd0 .LBB118
     /tmp/cc5Z495Y.s:2080   .text:0000000000000cd4 .LBE118
     /tmp/cc5Z495Y.s:2084   .text:0000000000000cd8 .LBB123
     /tmp/cc5Z495Y.s:2106   .text:0000000000000cf0 .LBE123
     /tmp/cc5Z495Y.s:2112   .text:0000000000000cf0 .LBB124
     /tmp/cc5Z495Y.s:2137   .text:0000000000000d14 .LBE124

UNDEFINED SYMBOLS
_ZN5Buddy4freeEPvm
_ZN11ConsoleUtil5printEPKciS1_i
_ZN11ConsoleUtil11printStringEPKc
_ZN5Buddy5allocEm
_Z6strcpyPKcPc
_ZN5Buddy10initializeEPvm
HEAP_START_ADDR
