GAS LISTING /tmp/ccpqtpVf.s 			page 1


   1              		.file	"slab_allocator.cpp"
   2              		.option pic
   3              		.option norelax
   4              		.text
   5              	.Ltext0:
   6              		.align	2
   7              		.globl	_ZN13SlabAllocator11shrinkCacheEP5Cache
   9              	_ZN13SlabAllocator11shrinkCacheEP5Cache:
  10              	.LFB42:
  11              		.file 1 "src/kernel/slab_allocator.cpp"
   1:src/kernel/slab_allocator.cpp **** //
   2:src/kernel/slab_allocator.cpp **** // Created by os on 12/25/22.
   3:src/kernel/slab_allocator.cpp **** //
   4:src/kernel/slab_allocator.cpp **** #include "../../h/kernel/slab_allocator.hpp"
   5:src/kernel/slab_allocator.cpp **** #include "../../h/kernel/utility.hpp"
   6:src/kernel/slab_allocator.cpp **** #include "../../h/kernel/riscv.hpp"
   7:src/kernel/slab_allocator.cpp **** 
   8:src/kernel/slab_allocator.cpp **** Cache* SlabAllocator::cache = nullptr;
   9:src/kernel/slab_allocator.cpp **** Cache* SlabAllocator::largeSlabCache = nullptr;
  10:src/kernel/slab_allocator.cpp **** Cache* SlabAllocator::sizeN[BUCKET_SIZE] = {nullptr, nullptr, nullptr, nullptr, nullptr, nullptr, n
  11:src/kernel/slab_allocator.cpp **** const char* SlabAllocator::names[13] = {"Buffer Cache No. 0", "Buffer Cache No. 1", "Buffer Cache N
  12:src/kernel/slab_allocator.cpp **** 
  13:src/kernel/slab_allocator.cpp **** void SlabAllocator::initialize(void* space, uint64 blockNum) {
  14:src/kernel/slab_allocator.cpp ****     Buddy::initialize(space, blockNum);
  15:src/kernel/slab_allocator.cpp ****     cache = (Cache*)SLAB_META_ADDR_CONST;
  16:src/kernel/slab_allocator.cpp ****     cache->ctor = nullptr;
  17:src/kernel/slab_allocator.cpp ****     cache->dtor = nullptr;
  18:src/kernel/slab_allocator.cpp ****     cache->emptyHead = nullptr;
  19:src/kernel/slab_allocator.cpp ****     cache->partialHead = nullptr;
  20:src/kernel/slab_allocator.cpp ****     cache->fullHead = nullptr;
  21:src/kernel/slab_allocator.cpp ****     cache->objectSize = sizeof(Cache);
  22:src/kernel/slab_allocator.cpp ****     cache->slabSize = DEFAULT_SLAB_SIZE;
  23:src/kernel/slab_allocator.cpp ****     strcpy("Main Cache", cache->name);
  24:src/kernel/slab_allocator.cpp **** 
  25:src/kernel/slab_allocator.cpp ****     largeSlabCache = (Cache*)BUDDY_META_ADDR_CONST;
  26:src/kernel/slab_allocator.cpp ****     largeSlabCache->ctor = nullptr;
  27:src/kernel/slab_allocator.cpp ****     largeSlabCache->dtor = nullptr;
  28:src/kernel/slab_allocator.cpp ****     largeSlabCache->emptyHead = nullptr;
  29:src/kernel/slab_allocator.cpp ****     largeSlabCache->partialHead = nullptr;
  30:src/kernel/slab_allocator.cpp ****     largeSlabCache->fullHead = nullptr;
  31:src/kernel/slab_allocator.cpp ****     largeSlabCache->objectSize = sizeof(Slab);
  32:src/kernel/slab_allocator.cpp ****     largeSlabCache->slabSize = SLAB_HEADER_DEFAULT_SLAB_SIZE;
  33:src/kernel/slab_allocator.cpp ****     strcpy("Large Slab Cache", cache->name);
  34:src/kernel/slab_allocator.cpp **** 
  35:src/kernel/slab_allocator.cpp **** 
  36:src/kernel/slab_allocator.cpp ****     for(int i=0;i<BUCKET_SIZE;i++){
  37:src/kernel/slab_allocator.cpp ****         sizeN[i] = SlabAllocator::createCache(names[i], 1<<(i+CACHE_LOWER_BOUND), nullptr, nullptr)
  38:src/kernel/slab_allocator.cpp ****     }
  39:src/kernel/slab_allocator.cpp **** }
  40:src/kernel/slab_allocator.cpp **** 
  41:src/kernel/slab_allocator.cpp **** bool SlabAllocator::allocateSlab(Cache *cache) {
  42:src/kernel/slab_allocator.cpp ****     Slab* slab = (Slab*)Buddy::alloc(cache->slabSize);
  43:src/kernel/slab_allocator.cpp ****     if(!slab)
  44:src/kernel/slab_allocator.cpp ****         return false;
  45:src/kernel/slab_allocator.cpp ****     SlabAllocator::insertIntoList(cache->emptyHead, slab);
  46:src/kernel/slab_allocator.cpp ****     slab->totalNumOfSlots = slab->numOfFreeSlots = (((1<<cache->slabSize) << BLOCK_SIZE_BITS) - siz
  47:src/kernel/slab_allocator.cpp ****     if(slab->totalNumOfSlots > MAX_NUMBER_OF_SLOTS)
GAS LISTING /tmp/ccpqtpVf.s 			page 2


  48:src/kernel/slab_allocator.cpp ****         slab->totalNumOfSlots = slab->numOfFreeSlots = MAX_NUMBER_OF_SLOTS;
  49:src/kernel/slab_allocator.cpp ****     slab->objectOffset = (void*)((uint64)slab + sizeof(Slab));
  50:src/kernel/slab_allocator.cpp ****     slab->parent = cache;
  51:src/kernel/slab_allocator.cpp ****     for(uint64 i=0;i<(slab->totalNumOfSlots+7)/8;i++)
  52:src/kernel/slab_allocator.cpp ****         slab->allocated[i] = 0;
  53:src/kernel/slab_allocator.cpp **** 
  54:src/kernel/slab_allocator.cpp ****     if(cache->ctor) {
  55:src/kernel/slab_allocator.cpp ****         for (uint64 i = 0; i < slab->totalNumOfSlots; i++) {
  56:src/kernel/slab_allocator.cpp ****             cache->ctor((void *) ((uint64) slab->objectOffset + i * slab->parent->objectSize));
  57:src/kernel/slab_allocator.cpp ****         }
  58:src/kernel/slab_allocator.cpp ****     }
  59:src/kernel/slab_allocator.cpp ****     return true;
  60:src/kernel/slab_allocator.cpp **** }
  61:src/kernel/slab_allocator.cpp **** 
  62:src/kernel/slab_allocator.cpp **** void* SlabAllocator::allocateSlot(Slab *slab) {
  63:src/kernel/slab_allocator.cpp ****     for(uint64 i=0; i<slab->totalNumOfSlots; i++){
  64:src/kernel/slab_allocator.cpp ****         if(!(slab->allocated[i/8] & (1<<(7 - i%8)))){
  65:src/kernel/slab_allocator.cpp ****             slab->allocated[i/8] |= (1<<(7 - i%8));
  66:src/kernel/slab_allocator.cpp ****             Slab* &headFrom = slab->isEmpty() ? slab->parent->emptyHead : slab->parent->partialHead
  67:src/kernel/slab_allocator.cpp ****             slab->numOfFreeSlots--;
  68:src/kernel/slab_allocator.cpp ****             Slab* &headTo = slab->isFull() ? slab->parent->fullHead : slab->parent->partialHead;
  69:src/kernel/slab_allocator.cpp **** 
  70:src/kernel/slab_allocator.cpp ****             if(headTo != headFrom)
  71:src/kernel/slab_allocator.cpp ****                 SlabAllocator::move(headFrom, headTo, slab);
  72:src/kernel/slab_allocator.cpp **** 
  73:src/kernel/slab_allocator.cpp ****             return (void*)((uint64)slab->objectOffset + i*slab->parent->objectSize);
  74:src/kernel/slab_allocator.cpp ****         }
  75:src/kernel/slab_allocator.cpp ****     }
  76:src/kernel/slab_allocator.cpp ****     return nullptr;
  77:src/kernel/slab_allocator.cpp **** }
  78:src/kernel/slab_allocator.cpp **** 
  79:src/kernel/slab_allocator.cpp **** void* SlabAllocator::allocateObject(Cache *cache) {
  80:src/kernel/slab_allocator.cpp ****     void* ret = SlabAllocator::allocateFromList(cache->partialHead);
  81:src/kernel/slab_allocator.cpp ****     if(ret){
  82:src/kernel/slab_allocator.cpp ****         return ret;
  83:src/kernel/slab_allocator.cpp ****     }
  84:src/kernel/slab_allocator.cpp ****     ret = SlabAllocator::allocateFromList(cache->emptyHead);
  85:src/kernel/slab_allocator.cpp ****     if(ret){
  86:src/kernel/slab_allocator.cpp ****         return ret;
  87:src/kernel/slab_allocator.cpp ****     }
  88:src/kernel/slab_allocator.cpp ****     if(cache->objectSize <= sizeof(Slab)) {
  89:src/kernel/slab_allocator.cpp ****         if (!SlabAllocator::allocateSlab(cache))
  90:src/kernel/slab_allocator.cpp ****             return nullptr;
  91:src/kernel/slab_allocator.cpp **** 
  92:src/kernel/slab_allocator.cpp ****         ret = SlabAllocator::allocateSlot(cache->emptyHead);
  93:src/kernel/slab_allocator.cpp ****     }
  94:src/kernel/slab_allocator.cpp ****     else{
  95:src/kernel/slab_allocator.cpp ****         Slab* slab = (Slab*)SlabAllocator::allocateObject(largeSlabCache);
  96:src/kernel/slab_allocator.cpp ****         slab->totalNumOfSlots = slab->numOfFreeSlots = (((1<<cache->slabSize) << BLOCK_SIZE_BITS)) 
  97:src/kernel/slab_allocator.cpp ****         if(slab->totalNumOfSlots > MAX_NUMBER_OF_SLOTS)
  98:src/kernel/slab_allocator.cpp ****             slab->totalNumOfSlots = slab->numOfFreeSlots = MAX_NUMBER_OF_SLOTS;
  99:src/kernel/slab_allocator.cpp ****         void* slabOffset = Buddy::alloc(cache->slabSize);
 100:src/kernel/slab_allocator.cpp ****         slab->objectOffset = slabOffset;
 101:src/kernel/slab_allocator.cpp ****         slab->parent = cache;
 102:src/kernel/slab_allocator.cpp ****         slab->next = nullptr;
 103:src/kernel/slab_allocator.cpp ****         for(uint64 i=0;i<(slab->totalNumOfSlots+7)/8;i++)
 104:src/kernel/slab_allocator.cpp ****             slab->allocated[i] = 0;
GAS LISTING /tmp/ccpqtpVf.s 			page 3


 105:src/kernel/slab_allocator.cpp **** 
 106:src/kernel/slab_allocator.cpp ****         if(cache->ctor) {
 107:src/kernel/slab_allocator.cpp ****             for (uint64 i = 0; i < slab->totalNumOfSlots; i++) {
 108:src/kernel/slab_allocator.cpp ****                 cache->ctor((void *) ((uint64) slab->objectOffset + i * slab->parent->objectSize));
 109:src/kernel/slab_allocator.cpp ****             }
 110:src/kernel/slab_allocator.cpp ****         }
 111:src/kernel/slab_allocator.cpp **** 
 112:src/kernel/slab_allocator.cpp ****         SlabAllocator::insertIntoList(cache->emptyHead, slab);
 113:src/kernel/slab_allocator.cpp ****         ret = SlabAllocator::allocateSlot(cache->emptyHead);
 114:src/kernel/slab_allocator.cpp ****     }
 115:src/kernel/slab_allocator.cpp **** 
 116:src/kernel/slab_allocator.cpp ****     return ret;
 117:src/kernel/slab_allocator.cpp **** }
 118:src/kernel/slab_allocator.cpp **** 
 119:src/kernel/slab_allocator.cpp **** void* SlabAllocator::allocateBuffer(size_t size) {
 120:src/kernel/slab_allocator.cpp ****     uint64 level = Buddy::getDeg(Buddy::ceil(size));
 121:src/kernel/slab_allocator.cpp ****     if(level < CACHE_LOWER_BOUND || level > CACHE_UPPER_BOUND)
 122:src/kernel/slab_allocator.cpp ****         return nullptr;
 123:src/kernel/slab_allocator.cpp ****     else
 124:src/kernel/slab_allocator.cpp ****         level -= CACHE_LOWER_BOUND;
 125:src/kernel/slab_allocator.cpp ****     return SlabAllocator::allocateObject(sizeN[level]);
 126:src/kernel/slab_allocator.cpp **** }
 127:src/kernel/slab_allocator.cpp **** 
 128:src/kernel/slab_allocator.cpp **** void SlabAllocator::freeSlot(Slab *slab, uint64 index) {
 129:src/kernel/slab_allocator.cpp ****     if(slab->allocated[index/8] & (1<<(7 - index%8))) {
 130:src/kernel/slab_allocator.cpp ****         slab->allocated[index/8] &= ~(1<<(7 - index%8));
 131:src/kernel/slab_allocator.cpp ****         Slab *&headFrom = slab->isFull() ? slab->parent->fullHead : slab->parent->partialHead;
 132:src/kernel/slab_allocator.cpp ****         slab->numOfFreeSlots++;
 133:src/kernel/slab_allocator.cpp ****         Slab *&headTo = slab->isEmpty() ? slab->parent->emptyHead : slab->parent->partialHead;
 134:src/kernel/slab_allocator.cpp **** 
 135:src/kernel/slab_allocator.cpp ****         if(slab->isEmpty()) {
 136:src/kernel/slab_allocator.cpp ****             SlabAllocator::removeFromList(headFrom, slab);
 137:src/kernel/slab_allocator.cpp ****             if(slab->parent->objectSize <= sizeof(Slab)) {
 138:src/kernel/slab_allocator.cpp ****                 Buddy::free(slab, slab->parent->slabSize);
 139:src/kernel/slab_allocator.cpp ****             }
 140:src/kernel/slab_allocator.cpp ****             else{
 141:src/kernel/slab_allocator.cpp ****                 Buddy::free(slab->objectOffset, slab->parent->slabSize);
 142:src/kernel/slab_allocator.cpp ****                 SlabAllocator::freeObject(largeSlabCache, slab);
 143:src/kernel/slab_allocator.cpp ****             }
 144:src/kernel/slab_allocator.cpp ****         }
 145:src/kernel/slab_allocator.cpp ****         else
 146:src/kernel/slab_allocator.cpp ****             if (headTo != headFrom)
 147:src/kernel/slab_allocator.cpp ****                 SlabAllocator::move(headFrom, headTo, slab);
 148:src/kernel/slab_allocator.cpp ****     }
 149:src/kernel/slab_allocator.cpp **** }
 150:src/kernel/slab_allocator.cpp **** 
 151:src/kernel/slab_allocator.cpp **** bool SlabAllocator::freeObject(Cache* cache, const void *addr) {
 152:src/kernel/slab_allocator.cpp ****     if(cache->dtor)
 153:src/kernel/slab_allocator.cpp ****         cache->dtor((void*)addr);
 154:src/kernel/slab_allocator.cpp ****     if(cache->ctor)
 155:src/kernel/slab_allocator.cpp ****         cache->ctor((void*)addr);
 156:src/kernel/slab_allocator.cpp **** 
 157:src/kernel/slab_allocator.cpp ****     bool deleted = SlabAllocator::freeFromList(cache->fullHead, addr);
 158:src/kernel/slab_allocator.cpp ****     if(deleted)
 159:src/kernel/slab_allocator.cpp ****         return deleted;
 160:src/kernel/slab_allocator.cpp **** 
 161:src/kernel/slab_allocator.cpp ****     deleted = SlabAllocator::freeFromList(cache->partialHead, addr);
GAS LISTING /tmp/ccpqtpVf.s 			page 4


 162:src/kernel/slab_allocator.cpp **** 
 163:src/kernel/slab_allocator.cpp ****     return deleted;
 164:src/kernel/slab_allocator.cpp **** }
 165:src/kernel/slab_allocator.cpp **** 
 166:src/kernel/slab_allocator.cpp **** void SlabAllocator::freeBuffer(const void *addr) {
 167:src/kernel/slab_allocator.cpp ****     for(int i=0;i<BUCKET_SIZE;i++)
 168:src/kernel/slab_allocator.cpp ****         if(SlabAllocator::freeObject(sizeN[i], addr))
 169:src/kernel/slab_allocator.cpp ****             return;
 170:src/kernel/slab_allocator.cpp **** }
 171:src/kernel/slab_allocator.cpp **** 
 172:src/kernel/slab_allocator.cpp **** Cache* SlabAllocator::createCache(const char *name, size_t size, void (*ctor)(void *), void (*dtor)
 173:src/kernel/slab_allocator.cpp ****     Cache* ret = (Cache*)SlabAllocator::allocateObject(SlabAllocator::cache);
 174:src/kernel/slab_allocator.cpp ****     if(ret == nullptr)
 175:src/kernel/slab_allocator.cpp ****         return nullptr;
 176:src/kernel/slab_allocator.cpp ****     ret->ctor = ctor;
 177:src/kernel/slab_allocator.cpp ****     ret->dtor = dtor;
 178:src/kernel/slab_allocator.cpp ****     ret->emptyHead = ret->partialHead = ret->fullHead = nullptr;
 179:src/kernel/slab_allocator.cpp ****     ret->objectSize = size;
 180:src/kernel/slab_allocator.cpp ****     int deg = Buddy::getDeg(Buddy::ceil(size));
 181:src/kernel/slab_allocator.cpp ****     if(size <= sizeof(Slab)){
 182:src/kernel/slab_allocator.cpp ****         ret->slabSize = SMALL_CACHE_DEFAULT_SLAB_SIZE;
 183:src/kernel/slab_allocator.cpp ****     }
 184:src/kernel/slab_allocator.cpp ****     else{
 185:src/kernel/slab_allocator.cpp ****         deg-=10;
 186:src/kernel/slab_allocator.cpp ****         ret->slabSize = deg;
 187:src/kernel/slab_allocator.cpp ****     }
 188:src/kernel/slab_allocator.cpp ****     strcpy(name, ret->name);
 189:src/kernel/slab_allocator.cpp ****     return ret;
 190:src/kernel/slab_allocator.cpp **** }
 191:src/kernel/slab_allocator.cpp **** 
 192:src/kernel/slab_allocator.cpp **** void SlabAllocator::deleteCache(Cache* &cache) {
 193:src/kernel/slab_allocator.cpp ****     deleteList(cache->fullHead);
 194:src/kernel/slab_allocator.cpp ****     deleteList(cache->partialHead);
 195:src/kernel/slab_allocator.cpp ****     deleteList(cache->emptyHead);
 196:src/kernel/slab_allocator.cpp ****     SlabAllocator::freeObject(SlabAllocator::cache, cache);
 197:src/kernel/slab_allocator.cpp ****     cache = nullptr;
 198:src/kernel/slab_allocator.cpp **** }
 199:src/kernel/slab_allocator.cpp **** 
 200:src/kernel/slab_allocator.cpp **** int SlabAllocator::shrinkCache(Cache *cache) {
  12              		.loc 1 200 46
  13              		.cfi_startproc
  14              	.LVL0:
  15 0000 130101FE 		addi	sp,sp,-32
  16              		.cfi_def_cfa_offset 32
  17 0004 233C1100 		sd	ra,24(sp)
  18 0008 23388100 		sd	s0,16(sp)
  19 000c 23349100 		sd	s1,8(sp)
  20 0010 23302101 		sd	s2,0(sp)
  21              		.cfi_offset 1, -8
  22              		.cfi_offset 8, -16
  23              		.cfi_offset 9, -24
  24              		.cfi_offset 18, -32
  25 0014 13040102 		addi	s0,sp,32
  26              		.cfi_def_cfa 8, 0
  27 0018 93040500 		mv	s1,a0
 201:src/kernel/slab_allocator.cpp ****     int ret = 0;
  28              		.loc 1 201 5
GAS LISTING /tmp/ccpqtpVf.s 			page 5


  29              	.LVL1:
  30              		.loc 1 201 9 is_stmt 0
  31 001c 13090000 		li	s2,0
  32              	.LVL2:
  33              	.L3:
 202:src/kernel/slab_allocator.cpp ****     while(cache->emptyHead){
  34              		.loc 1 202 5 is_stmt 1
  35              		.loc 1 202 18
  36 0020 03B50406 		ld	a0,96(s1)
  37 0024 63040502 		beqz	a0,.L2
 203:src/kernel/slab_allocator.cpp ****         Buddy::free(cache->emptyHead, cache->slabSize);
  38              		.loc 1 203 9
  39              		.loc 1 203 20 is_stmt 0
  40 0028 83B58404 		ld	a1,72(s1)
  41 002c 97000000 		call	_ZN5Buddy4freeEPvm@plt
  41      E7800000 
  42              	.LVL3:
 204:src/kernel/slab_allocator.cpp ****         ret += cache->emptyHead->totalNumOfSlots;
  43              		.loc 1 204 9 is_stmt 1
  44              		.loc 1 204 23 is_stmt 0
  45 0034 83B70406 		ld	a5,96(s1)
  46              		.loc 1 204 34
  47 0038 03B78701 		ld	a4,24(a5)
  48              		.loc 1 204 13
  49 003c 3B092701 		addw	s2,a4,s2
  50              	.LVL4:
 205:src/kernel/slab_allocator.cpp ****         cache->emptyHead = cache->emptyHead->next;
  51              		.loc 1 205 9 is_stmt 1
  52              		.loc 1 205 46 is_stmt 0
  53 0040 83B78700 		ld	a5,8(a5)
  54              		.loc 1 205 26
  55 0044 23B0F406 		sd	a5,96(s1)
 202:src/kernel/slab_allocator.cpp ****         Buddy::free(cache->emptyHead, cache->slabSize);
  56              		.loc 1 202 5
  57 0048 6FF09FFD 		j	.L3
  58              	.LVL5:
  59              	.L2:
 206:src/kernel/slab_allocator.cpp ****     }
 207:src/kernel/slab_allocator.cpp ****     return ret;
  60              		.loc 1 207 5 is_stmt 1
 208:src/kernel/slab_allocator.cpp **** }
  61              		.loc 1 208 1 is_stmt 0
  62 004c 13050900 		mv	a0,s2
  63 0050 83308101 		ld	ra,24(sp)
  64              		.cfi_restore 1
  65 0054 03340101 		ld	s0,16(sp)
  66              		.cfi_restore 8
  67              		.cfi_def_cfa 2, 32
  68 0058 83348100 		ld	s1,8(sp)
  69              		.cfi_restore 9
  70              	.LVL6:
  71 005c 03390100 		ld	s2,0(sp)
  72              		.cfi_restore 18
  73              	.LVL7:
  74 0060 13010102 		addi	sp,sp,32
  75              		.cfi_def_cfa_offset 0
  76 0064 67800000 		jr	ra
GAS LISTING /tmp/ccpqtpVf.s 			page 6


  77              		.cfi_endproc
  78              	.LFE42:
  80              		.section	.rodata.str1.8,"aMS",@progbits,1
  81              		.align	3
  82              	.LC0:
  83 0000 0A00     		.string	"\n"
  84 0002 00000000 		.align	3
  84      0000
  85              	.LC1:
  86 0008 536C6162 		.string	"Slab address:"
  86      20616464 
  86      72657373 
  86      3A00
  87 0016 0000     		.align	3
  88              	.LC2:
  89 0018 4E756D62 		.string	"Number of slots:"
  89      6572206F 
  89      6620736C 
  89      6F74733A 
  89      00
  90 0029 00000000 		.align	3
  90      000000
  91              	.LC3:
  92 0030 4E756D62 		.string	"Number of free slots:"
  92      6572206F 
  92      66206672 
  92      65652073 
  92      6C6F7473 
  93 0046 0000     		.align	3
  94              	.LC4:
  95 0048 536C6162 		.string	"Slab object size:"
  95      206F626A 
  95      65637420 
  95      73697A65 
  95      3A00
  96 005a 00000000 		.align	3
  96      0000
  97              	.LC5:
  98 0060 4F626A65 		.string	"Object offset:"
  98      6374206F 
  98      66667365 
  98      743A00
  99 006f 00       		.align	3
 100              	.LC6:
 101 0070 536C6162 		.string	"Slab allocated array address:"
 101      20616C6C 
 101      6F636174 
 101      65642061 
 101      72726179 
 102 008e 0000     		.align	3
 103              	.LC7:
 104 0090 416C6C6F 		.string	"Allocated status array: "
 104      63617465 
 104      64207374 
 104      61747573 
 104      20617272 
 105 00a9 00000000 		.align	3
GAS LISTING /tmp/ccpqtpVf.s 			page 7


 105      000000
 106              	.LC8:
 107 00b0 2000     		.string	" "
 108 00b2 00000000 		.align	3
 108      0000
 109              	.LC9:
 110 00b8 00       		.string	""
 111              		.text
 112              		.align	2
 113              		.globl	_ZN13SlabAllocator9printSlabEP4Slab
 115              	_ZN13SlabAllocator9printSlabEP4Slab:
 116              	.LFB43:
 209:src/kernel/slab_allocator.cpp **** 
 210:src/kernel/slab_allocator.cpp **** void SlabAllocator::printSlab(Slab *slab) {
 117              		.loc 1 210 43 is_stmt 1
 118              		.cfi_startproc
 119              	.LVL8:
 211:src/kernel/slab_allocator.cpp ****     if(slab) {
 120              		.loc 1 211 5
 121              	.LBB43:
 122 0068 630C0514 		beqz	a0,.L10
 123              	.LBE43:
 210:src/kernel/slab_allocator.cpp ****     if(slab) {
 124              		.loc 1 210 43 is_stmt 0
 125 006c 130101FE 		addi	sp,sp,-32
 126              		.cfi_def_cfa_offset 32
 127 0070 233C1100 		sd	ra,24(sp)
 128 0074 23388100 		sd	s0,16(sp)
 129 0078 23349100 		sd	s1,8(sp)
 130 007c 23302101 		sd	s2,0(sp)
 131              		.cfi_offset 1, -8
 132              		.cfi_offset 8, -16
 133              		.cfi_offset 9, -24
 134              		.cfi_offset 18, -32
 135 0080 13040102 		addi	s0,sp,32
 136              		.cfi_def_cfa 8, 0
 137 0084 13090500 		mv	s2,a0
 138              	.LBB46:
 139              	.LBB44:
 212:src/kernel/slab_allocator.cpp ****         ConsoleUtil::print("Slab address:", (uint64) slab, "\n");
 140              		.loc 1 212 9 is_stmt 1
 141              		.loc 1 212 27 is_stmt 0
 142 0088 93060001 		li	a3,16
 143 008c 17060000 		lla	a2,.LC0
 143      13060600 
 144 0094 9B050500 		sext.w	a1,a0
 145 0098 17050000 		lla	a0,.LC1
 145      13050500 
 146              	.LVL9:
 147 00a0 97000000 		call	_ZN11ConsoleUtil5printEPKciS1_i@plt
 147      E7800000 
 148              	.LVL10:
 213:src/kernel/slab_allocator.cpp ****         ConsoleUtil::print("Number of slots:", (uint64) slab->totalNumOfSlots, "\n",10);
 149              		.loc 1 213 9 is_stmt 1
 150              		.loc 1 213 27 is_stmt 0
 151 00a8 9306A000 		li	a3,10
 152 00ac 17060000 		lla	a2,.LC0
GAS LISTING /tmp/ccpqtpVf.s 			page 8


 152      13060600 
 153 00b4 83258901 		lw	a1,24(s2)
 154 00b8 17050000 		lla	a0,.LC2
 154      13050500 
 155 00c0 97000000 		call	_ZN11ConsoleUtil5printEPKciS1_i@plt
 155      E7800000 
 156              	.LVL11:
 214:src/kernel/slab_allocator.cpp ****         ConsoleUtil::print("Number of free slots:", (uint64) slab->numOfFreeSlots, "\n",10);
 157              		.loc 1 214 9 is_stmt 1
 158              		.loc 1 214 27 is_stmt 0
 159 00c8 9306A000 		li	a3,10
 160 00cc 17060000 		lla	a2,.LC0
 160      13060600 
 161 00d4 83250901 		lw	a1,16(s2)
 162 00d8 17050000 		lla	a0,.LC3
 162      13050500 
 163 00e0 97000000 		call	_ZN11ConsoleUtil5printEPKciS1_i@plt
 163      E7800000 
 164              	.LVL12:
 215:src/kernel/slab_allocator.cpp ****         ConsoleUtil::print("Slab object size:", (uint64) sizeof(Slab), "\n",10);
 165              		.loc 1 215 9 is_stmt 1
 166              		.loc 1 215 27 is_stmt 0
 167 00e8 9306A000 		li	a3,10
 168 00ec 17060000 		lla	a2,.LC0
 168      13060600 
 169 00f4 9305000B 		li	a1,176
 170 00f8 17050000 		lla	a0,.LC4
 170      13050500 
 171 0100 97000000 		call	_ZN11ConsoleUtil5printEPKciS1_i@plt
 171      E7800000 
 172              	.LVL13:
 216:src/kernel/slab_allocator.cpp ****         ConsoleUtil::print("Object offset:", (uint64) slab->objectOffset, "\n");
 173              		.loc 1 216 9 is_stmt 1
 174              		.loc 1 216 27 is_stmt 0
 175 0108 93060001 		li	a3,16
 176 010c 17060000 		lla	a2,.LC0
 176      13060600 
 177 0114 8325090A 		lw	a1,160(s2)
 178 0118 17050000 		lla	a0,.LC5
 178      13050500 
 179 0120 97000000 		call	_ZN11ConsoleUtil5printEPKciS1_i@plt
 179      E7800000 
 180              	.LVL14:
 217:src/kernel/slab_allocator.cpp ****         ConsoleUtil::print("Slab allocated array address:", (uint64) (&slab->allocated), "\n");
 181              		.loc 1 217 9 is_stmt 1
 182              		.loc 1 217 27 is_stmt 0
 183 0128 93060001 		li	a3,16
 184 012c 17060000 		lla	a2,.LC0
 184      13060600 
 185 0134 9B050902 		addiw	a1,s2,32
 186 0138 17050000 		lla	a0,.LC6
 186      13050500 
 187 0140 97000000 		call	_ZN11ConsoleUtil5printEPKciS1_i@plt
 187      E7800000 
 188              	.LVL15:
 218:src/kernel/slab_allocator.cpp ****         ConsoleUtil::printString("Allocated status array: ");
 189              		.loc 1 218 9 is_stmt 1
GAS LISTING /tmp/ccpqtpVf.s 			page 9


 190              		.loc 1 218 33 is_stmt 0
 191 0148 17050000 		lla	a0,.LC7
 191      13050500 
 192 0150 97000000 		call	_ZN11ConsoleUtil11printStringEPKc@plt
 192      E7800000 
 193              	.LVL16:
 219:src/kernel/slab_allocator.cpp ****         for (uint64 i = 0; i < (slab->totalNumOfSlots+7)/8; i++) {
 194              		.loc 1 219 9 is_stmt 1
 195              	.LBB45:
 196              		.loc 1 219 21 is_stmt 0
 197 0158 93040000 		li	s1,0
 198 015c 6F00C002 		j	.L8
 199              	.LVL17:
 200              	.L13:
 220:src/kernel/slab_allocator.cpp ****             ConsoleUtil::print("", slab->allocated[i], " ");
 201              		.loc 1 220 13 is_stmt 1 discriminator 2
 202              		.loc 1 220 53 is_stmt 0 discriminator 2
 203 0160 B3079900 		add	a5,s2,s1
 204              		.loc 1 220 31 discriminator 2
 205 0164 93060001 		li	a3,16
 206 0168 17060000 		lla	a2,.LC8
 206      13060600 
 207 0170 83C50702 		lbu	a1,32(a5)
 208 0174 17050000 		lla	a0,.LC9
 208      13050500 
 209 017c 97000000 		call	_ZN11ConsoleUtil5printEPKciS1_i@plt
 209      E7800000 
 210              	.LVL18:
 219:src/kernel/slab_allocator.cpp ****         for (uint64 i = 0; i < (slab->totalNumOfSlots+7)/8; i++) {
 211              		.loc 1 219 9 is_stmt 1 discriminator 2
 212 0184 93841400 		addi	s1,s1,1
 213              	.LVL19:
 214              	.L8:
 219:src/kernel/slab_allocator.cpp ****         for (uint64 i = 0; i < (slab->totalNumOfSlots+7)/8; i++) {
 215              		.loc 1 219 30 discriminator 3
 219:src/kernel/slab_allocator.cpp ****         for (uint64 i = 0; i < (slab->totalNumOfSlots+7)/8; i++) {
 216              		.loc 1 219 39 is_stmt 0 discriminator 3
 217 0188 83378901 		ld	a5,24(s2)
 219:src/kernel/slab_allocator.cpp ****         for (uint64 i = 0; i < (slab->totalNumOfSlots+7)/8; i++) {
 218              		.loc 1 219 54 discriminator 3
 219 018c 93877700 		addi	a5,a5,7
 219:src/kernel/slab_allocator.cpp ****         for (uint64 i = 0; i < (slab->totalNumOfSlots+7)/8; i++) {
 220              		.loc 1 219 57 discriminator 3
 221 0190 93D73700 		srli	a5,a5,3
 219:src/kernel/slab_allocator.cpp ****         for (uint64 i = 0; i < (slab->totalNumOfSlots+7)/8; i++) {
 222              		.loc 1 219 30 discriminator 3
 223 0194 E3E6F4FC 		bgtu	a5,s1,.L13
 224              	.LBE45:
 221:src/kernel/slab_allocator.cpp ****         }
 222:src/kernel/slab_allocator.cpp ****         ConsoleUtil::printString("\n");
 225              		.loc 1 222 9 is_stmt 1
 226              		.loc 1 222 33 is_stmt 0
 227 0198 17050000 		lla	a0,.LC0
 227      13050500 
 228 01a0 97000000 		call	_ZN11ConsoleUtil11printStringEPKc@plt
 228      E7800000 
 229              	.LVL20:
GAS LISTING /tmp/ccpqtpVf.s 			page 10


 230              	.LBE44:
 231              	.LBE46:
 223:src/kernel/slab_allocator.cpp ****     }
 224:src/kernel/slab_allocator.cpp **** }
 232              		.loc 1 224 1
 233 01a8 83308101 		ld	ra,24(sp)
 234              		.cfi_restore 1
 235 01ac 03340101 		ld	s0,16(sp)
 236              		.cfi_restore 8
 237              		.cfi_def_cfa 2, 32
 238 01b0 83348100 		ld	s1,8(sp)
 239              		.cfi_restore 9
 240              	.LVL21:
 241 01b4 03390100 		ld	s2,0(sp)
 242              		.cfi_restore 18
 243              	.LVL22:
 244 01b8 13010102 		addi	sp,sp,32
 245              		.cfi_def_cfa_offset 0
 246 01bc 67800000 		jr	ra
 247              	.LVL23:
 248              	.L10:
 249 01c0 67800000 		ret
 250              		.cfi_endproc
 251              	.LFE43:
 253              		.section	.rodata.str1.8
 254 00b9 00000000 		.align	3
 254      000000
 255              	.LC10:
 256 00c0 43616368 		.string	"Cache name: "
 256      65206E61 
 256      6D653A20 
 256      00
 257 00cd 000000   		.align	3
 258              	.LC11:
 259 00d0 43616368 		.string	"Cache address: "
 259      65206164 
 259      64726573 
 259      733A2000 
 260              		.align	3
 261              	.LC12:
 262 00e0 43616368 		.string	"Cache slab size: "
 262      6520736C 
 262      61622073 
 262      697A653A 
 262      2000
 263 00f2 00000000 		.align	3
 263      0000
 264              	.LC13:
 265 00f8 43616368 		.string	"Cache object size: "
 265      65206F62 
 265      6A656374 
 265      2073697A 
 265      653A2000 
 266 010c 00000000 		.align	3
 267              	.LC14:
 268 0110 456D7074 		.string	"Empty head: "
 268      79206865 
GAS LISTING /tmp/ccpqtpVf.s 			page 11


 268      61643A20 
 268      00
 269 011d 000000   		.align	3
 270              	.LC15:
 271 0120 50617274 		.string	"Partial head: "
 271      69616C20 
 271      68656164 
 271      3A2000
 272 012f 00       		.align	3
 273              	.LC16:
 274 0130 46756C6C 		.string	"Full head: "
 274      20686561 
 274      643A2000 
 275              		.text
 276              		.align	2
 277              		.globl	_ZN13SlabAllocator10printCacheEP5Cache
 279              	_ZN13SlabAllocator10printCacheEP5Cache:
 280              	.LFB44:
 225:src/kernel/slab_allocator.cpp **** 
 226:src/kernel/slab_allocator.cpp **** void SlabAllocator::printCache(Cache *cache) {
 281              		.loc 1 226 46 is_stmt 1
 282              		.cfi_startproc
 283              	.LVL24:
 284 01c4 130101FE 		addi	sp,sp,-32
 285              		.cfi_def_cfa_offset 32
 286 01c8 233C1100 		sd	ra,24(sp)
 287 01cc 23388100 		sd	s0,16(sp)
 288 01d0 23349100 		sd	s1,8(sp)
 289 01d4 23302101 		sd	s2,0(sp)
 290              		.cfi_offset 1, -8
 291              		.cfi_offset 8, -16
 292              		.cfi_offset 9, -24
 293              		.cfi_offset 18, -32
 294 01d8 13040102 		addi	s0,sp,32
 295              		.cfi_def_cfa 8, 0
 296 01dc 13090500 		mv	s2,a0
 227:src/kernel/slab_allocator.cpp ****     ConsoleUtil::printString("Cache name: ");
 297              		.loc 1 227 5
 298              		.loc 1 227 29 is_stmt 0
 299 01e0 17050000 		lla	a0,.LC10
 299      13050500 
 300              	.LVL25:
 301 01e8 97000000 		call	_ZN11ConsoleUtil11printStringEPKc@plt
 301      E7800000 
 302              	.LVL26:
 228:src/kernel/slab_allocator.cpp ****     ConsoleUtil::printString(cache->name);
 303              		.loc 1 228 5 is_stmt 1
 304              		.loc 1 228 29 is_stmt 0
 305 01f0 13050900 		mv	a0,s2
 306 01f4 97000000 		call	_ZN11ConsoleUtil11printStringEPKc@plt
 306      E7800000 
 307              	.LVL27:
 229:src/kernel/slab_allocator.cpp ****     ConsoleUtil::printString("\n");
 308              		.loc 1 229 5 is_stmt 1
 309              		.loc 1 229 29 is_stmt 0
 310 01fc 17050000 		lla	a0,.LC0
 310      13050500 
GAS LISTING /tmp/ccpqtpVf.s 			page 12


 311 0204 97000000 		call	_ZN11ConsoleUtil11printStringEPKc@plt
 311      E7800000 
 312              	.LVL28:
 230:src/kernel/slab_allocator.cpp ****     ConsoleUtil::print("Cache address: ", (uint64)cache, "\n");
 313              		.loc 1 230 5 is_stmt 1
 314              		.loc 1 230 23 is_stmt 0
 315 020c 93060001 		li	a3,16
 316 0210 17060000 		lla	a2,.LC0
 316      13060600 
 317 0218 9B050900 		sext.w	a1,s2
 318 021c 17050000 		lla	a0,.LC11
 318      13050500 
 319 0224 97000000 		call	_ZN11ConsoleUtil5printEPKciS1_i@plt
 319      E7800000 
 320              	.LVL29:
 231:src/kernel/slab_allocator.cpp ****     ConsoleUtil::print("Cache slab size: ", (uint64)cache->slabSize, "\n",10);
 321              		.loc 1 231 5 is_stmt 1
 322              		.loc 1 231 23 is_stmt 0
 323 022c 9306A000 		li	a3,10
 324 0230 17060000 		lla	a2,.LC0
 324      13060600 
 325 0238 83258904 		lw	a1,72(s2)
 326 023c 17050000 		lla	a0,.LC12
 326      13050500 
 327 0244 97000000 		call	_ZN11ConsoleUtil5printEPKciS1_i@plt
 327      E7800000 
 328              	.LVL30:
 232:src/kernel/slab_allocator.cpp ****     ConsoleUtil::print("Cache object size: ", (uint64)cache->objectSize, "\n",10);
 329              		.loc 1 232 5 is_stmt 1
 330              		.loc 1 232 23 is_stmt 0
 331 024c 9306A000 		li	a3,10
 332 0250 17060000 		lla	a2,.LC0
 332      13060600 
 333 0258 83250904 		lw	a1,64(s2)
 334 025c 17050000 		lla	a0,.LC13
 334      13050500 
 335 0264 97000000 		call	_ZN11ConsoleUtil5printEPKciS1_i@plt
 335      E7800000 
 336              	.LVL31:
 233:src/kernel/slab_allocator.cpp ****     ConsoleUtil::print("Empty head: ", (uint64)cache->emptyHead, "\n");
 337              		.loc 1 233 5 is_stmt 1
 338              		.loc 1 233 23 is_stmt 0
 339 026c 93060001 		li	a3,16
 340 0270 17060000 		lla	a2,.LC0
 340      13060600 
 341 0278 83250906 		lw	a1,96(s2)
 342 027c 17050000 		lla	a0,.LC14
 342      13050500 
 343 0284 97000000 		call	_ZN11ConsoleUtil5printEPKciS1_i@plt
 343      E7800000 
 344              	.LVL32:
 234:src/kernel/slab_allocator.cpp **** 
 235:src/kernel/slab_allocator.cpp ****     Slab* iter = cache->emptyHead;
 345              		.loc 1 235 5 is_stmt 1
 346              		.loc 1 235 11 is_stmt 0
 347 028c 83340906 		ld	s1,96(s2)
 348              	.LVL33:
GAS LISTING /tmp/ccpqtpVf.s 			page 13


 349              	.L16:
 236:src/kernel/slab_allocator.cpp ****     while(iter){
 350              		.loc 1 236 5 is_stmt 1
 351              		.loc 1 236 11
 352 0290 63860402 		beqz	s1,.L15
 237:src/kernel/slab_allocator.cpp ****         ConsoleUtil::print("", (uint64)iter, " ");
 353              		.loc 1 237 9
 354              		.loc 1 237 27 is_stmt 0
 355 0294 93060001 		li	a3,16
 356 0298 17060000 		lla	a2,.LC8
 356      13060600 
 357 02a0 9B850400 		sext.w	a1,s1
 358 02a4 17050000 		lla	a0,.LC9
 358      13050500 
 359 02ac 97000000 		call	_ZN11ConsoleUtil5printEPKciS1_i@plt
 359      E7800000 
 360              	.LVL34:
 238:src/kernel/slab_allocator.cpp ****         iter = iter->next;
 361              		.loc 1 238 9 is_stmt 1
 362              		.loc 1 238 14 is_stmt 0
 363 02b4 83B48400 		ld	s1,8(s1)
 364              	.LVL35:
 236:src/kernel/slab_allocator.cpp ****     while(iter){
 365              		.loc 1 236 5
 366 02b8 6FF09FFD 		j	.L16
 367              	.L15:
 239:src/kernel/slab_allocator.cpp ****     }
 240:src/kernel/slab_allocator.cpp ****     ConsoleUtil::printString("\n");
 368              		.loc 1 240 5 is_stmt 1
 369              		.loc 1 240 29 is_stmt 0
 370 02bc 17050000 		lla	a0,.LC0
 370      13050500 
 371 02c4 97000000 		call	_ZN11ConsoleUtil11printStringEPKc@plt
 371      E7800000 
 372              	.LVL36:
 241:src/kernel/slab_allocator.cpp **** 
 242:src/kernel/slab_allocator.cpp ****     ConsoleUtil::print("Partial head: ", (uint64)cache->partialHead, "\n");
 373              		.loc 1 242 5 is_stmt 1
 374              		.loc 1 242 23 is_stmt 0
 375 02cc 93060001 		li	a3,16
 376 02d0 17060000 		lla	a2,.LC0
 376      13060600 
 377 02d8 83258906 		lw	a1,104(s2)
 378 02dc 17050000 		lla	a0,.LC15
 378      13050500 
 379 02e4 97000000 		call	_ZN11ConsoleUtil5printEPKciS1_i@plt
 379      E7800000 
 380              	.LVL37:
 243:src/kernel/slab_allocator.cpp **** 
 244:src/kernel/slab_allocator.cpp ****     iter = cache->partialHead;
 381              		.loc 1 244 5 is_stmt 1
 382              		.loc 1 244 10 is_stmt 0
 383 02ec 83348906 		ld	s1,104(s2)
 384              	.LVL38:
 385              	.L18:
 245:src/kernel/slab_allocator.cpp ****     while(iter){
 386              		.loc 1 245 5 is_stmt 1
GAS LISTING /tmp/ccpqtpVf.s 			page 14


 387              		.loc 1 245 11
 388 02f0 63860402 		beqz	s1,.L17
 246:src/kernel/slab_allocator.cpp ****         ConsoleUtil::print("", (uint64)iter, " ");
 389              		.loc 1 246 9
 390              		.loc 1 246 27 is_stmt 0
 391 02f4 93060001 		li	a3,16
 392 02f8 17060000 		lla	a2,.LC8
 392      13060600 
 393 0300 9B850400 		sext.w	a1,s1
 394 0304 17050000 		lla	a0,.LC9
 394      13050500 
 395 030c 97000000 		call	_ZN11ConsoleUtil5printEPKciS1_i@plt
 395      E7800000 
 396              	.LVL39:
 247:src/kernel/slab_allocator.cpp ****         iter = iter->next;
 397              		.loc 1 247 9 is_stmt 1
 398              		.loc 1 247 14 is_stmt 0
 399 0314 83B48400 		ld	s1,8(s1)
 400              	.LVL40:
 245:src/kernel/slab_allocator.cpp ****     while(iter){
 401              		.loc 1 245 5
 402 0318 6FF09FFD 		j	.L18
 403              	.L17:
 248:src/kernel/slab_allocator.cpp ****     }
 249:src/kernel/slab_allocator.cpp ****     ConsoleUtil::printString("\n");
 404              		.loc 1 249 5 is_stmt 1
 405              		.loc 1 249 29 is_stmt 0
 406 031c 17050000 		lla	a0,.LC0
 406      13050500 
 407 0324 97000000 		call	_ZN11ConsoleUtil11printStringEPKc@plt
 407      E7800000 
 408              	.LVL41:
 250:src/kernel/slab_allocator.cpp **** 
 251:src/kernel/slab_allocator.cpp ****     ConsoleUtil::print("Full head: ", (uint64)cache->fullHead, "\n");
 409              		.loc 1 251 5 is_stmt 1
 410              		.loc 1 251 23 is_stmt 0
 411 032c 93060001 		li	a3,16
 412 0330 17060000 		lla	a2,.LC0
 412      13060600 
 413 0338 83250907 		lw	a1,112(s2)
 414 033c 17050000 		lla	a0,.LC16
 414      13050500 
 415 0344 97000000 		call	_ZN11ConsoleUtil5printEPKciS1_i@plt
 415      E7800000 
 416              	.LVL42:
 252:src/kernel/slab_allocator.cpp **** 
 253:src/kernel/slab_allocator.cpp ****     iter = cache->fullHead;
 417              		.loc 1 253 5 is_stmt 1
 418              		.loc 1 253 10 is_stmt 0
 419 034c 83340907 		ld	s1,112(s2)
 420              	.LVL43:
 421              	.L20:
 254:src/kernel/slab_allocator.cpp ****     while(iter){
 422              		.loc 1 254 5 is_stmt 1
 423              		.loc 1 254 11
 424 0350 63860402 		beqz	s1,.L19
 255:src/kernel/slab_allocator.cpp ****         ConsoleUtil::print("", (uint64)iter, " ");
GAS LISTING /tmp/ccpqtpVf.s 			page 15


 425              		.loc 1 255 9
 426              		.loc 1 255 27 is_stmt 0
 427 0354 93060001 		li	a3,16
 428 0358 17060000 		lla	a2,.LC8
 428      13060600 
 429 0360 9B850400 		sext.w	a1,s1
 430 0364 17050000 		lla	a0,.LC9
 430      13050500 
 431 036c 97000000 		call	_ZN11ConsoleUtil5printEPKciS1_i@plt
 431      E7800000 
 432              	.LVL44:
 256:src/kernel/slab_allocator.cpp ****         iter = iter->next;
 433              		.loc 1 256 9 is_stmt 1
 434              		.loc 1 256 14 is_stmt 0
 435 0374 83B48400 		ld	s1,8(s1)
 436              	.LVL45:
 254:src/kernel/slab_allocator.cpp ****     while(iter){
 437              		.loc 1 254 5
 438 0378 6FF09FFD 		j	.L20
 439              	.L19:
 257:src/kernel/slab_allocator.cpp ****     }
 258:src/kernel/slab_allocator.cpp ****     ConsoleUtil::printString("\n");
 440              		.loc 1 258 5 is_stmt 1
 441              		.loc 1 258 29 is_stmt 0
 442 037c 17050000 		lla	a0,.LC0
 442      13050500 
 443 0384 97000000 		call	_ZN11ConsoleUtil11printStringEPKc@plt
 443      E7800000 
 444              	.LVL46:
 259:src/kernel/slab_allocator.cpp **** }
 445              		.loc 1 259 1
 446 038c 83308101 		ld	ra,24(sp)
 447              		.cfi_restore 1
 448 0390 03340101 		ld	s0,16(sp)
 449              		.cfi_restore 8
 450              		.cfi_def_cfa 2, 32
 451 0394 83348100 		ld	s1,8(sp)
 452              		.cfi_restore 9
 453              	.LVL47:
 454 0398 03390100 		ld	s2,0(sp)
 455              		.cfi_restore 18
 456              	.LVL48:
 457 039c 13010102 		addi	sp,sp,32
 458              		.cfi_def_cfa_offset 0
 459 03a0 67800000 		jr	ra
 460              		.cfi_endproc
 461              	.LFE44:
 463              		.align	2
 464              		.globl	_ZN13SlabAllocator14insertIntoListERP4SlabS1_
 466              	_ZN13SlabAllocator14insertIntoListERP4SlabS1_:
 467              	.LFB45:
 260:src/kernel/slab_allocator.cpp **** 
 261:src/kernel/slab_allocator.cpp **** void SlabAllocator::insertIntoList(Slab *&head, Slab *slab) {
 468              		.loc 1 261 61 is_stmt 1
 469              		.cfi_startproc
 470              	.LVL49:
 471 03a4 130101FF 		addi	sp,sp,-16
GAS LISTING /tmp/ccpqtpVf.s 			page 16


 472              		.cfi_def_cfa_offset 16
 473 03a8 23348100 		sd	s0,8(sp)
 474              		.cfi_offset 8, -8
 475 03ac 13040101 		addi	s0,sp,16
 476              		.cfi_def_cfa 8, 0
 262:src/kernel/slab_allocator.cpp ****     slab->next = head;
 477              		.loc 1 262 5
 478              		.loc 1 262 18 is_stmt 0
 479 03b0 83370500 		ld	a5,0(a0)
 480              		.loc 1 262 16
 481 03b4 23B4F500 		sd	a5,8(a1)
 263:src/kernel/slab_allocator.cpp ****     if(head)
 482              		.loc 1 263 5 is_stmt 1
 483 03b8 63840700 		beqz	a5,.L23
 264:src/kernel/slab_allocator.cpp ****         head->prev = slab;
 484              		.loc 1 264 9
 485              		.loc 1 264 20 is_stmt 0
 486 03bc 23B0B700 		sd	a1,0(a5)
 487              	.L23:
 265:src/kernel/slab_allocator.cpp ****     slab->prev = nullptr;
 488              		.loc 1 265 5 is_stmt 1
 489              		.loc 1 265 16 is_stmt 0
 490 03c0 23B00500 		sd	zero,0(a1)
 266:src/kernel/slab_allocator.cpp ****     head = slab;
 491              		.loc 1 266 5 is_stmt 1
 492              		.loc 1 266 10 is_stmt 0
 493 03c4 2330B500 		sd	a1,0(a0)
 267:src/kernel/slab_allocator.cpp **** }
 494              		.loc 1 267 1
 495 03c8 03348100 		ld	s0,8(sp)
 496              		.cfi_restore 8
 497              		.cfi_def_cfa 2, 16
 498 03cc 13010101 		addi	sp,sp,16
 499              		.cfi_def_cfa_offset 0
 500 03d0 67800000 		jr	ra
 501              		.cfi_endproc
 502              	.LFE45:
 504              		.align	2
 505              		.globl	_ZN13SlabAllocator12allocateSlabEP5Cache
 507              	_ZN13SlabAllocator12allocateSlabEP5Cache:
 508              	.LFB33:
  41:src/kernel/slab_allocator.cpp ****     Slab* slab = (Slab*)Buddy::alloc(cache->slabSize);
 509              		.loc 1 41 48 is_stmt 1
 510              		.cfi_startproc
 511              	.LVL50:
 512 03d4 130101FD 		addi	sp,sp,-48
 513              		.cfi_def_cfa_offset 48
 514 03d8 23341102 		sd	ra,40(sp)
 515 03dc 23308102 		sd	s0,32(sp)
 516 03e0 233C9100 		sd	s1,24(sp)
 517 03e4 23382101 		sd	s2,16(sp)
 518 03e8 23343101 		sd	s3,8(sp)
 519              		.cfi_offset 1, -8
 520              		.cfi_offset 8, -16
 521              		.cfi_offset 9, -24
 522              		.cfi_offset 18, -32
 523              		.cfi_offset 19, -40
GAS LISTING /tmp/ccpqtpVf.s 			page 17


 524 03ec 13040103 		addi	s0,sp,48
 525              		.cfi_def_cfa 8, 0
 526 03f0 93090500 		mv	s3,a0
  42:src/kernel/slab_allocator.cpp ****     if(!slab)
 527              		.loc 1 42 5
  42:src/kernel/slab_allocator.cpp ****     if(!slab)
 528              		.loc 1 42 37 is_stmt 0
 529 03f4 03358504 		ld	a0,72(a0)
 530              	.LVL51:
 531 03f8 97000000 		call	_ZN5Buddy5allocEm@plt
 531      E7800000 
 532              	.LVL52:
  43:src/kernel/slab_allocator.cpp ****         return false;
 533              		.loc 1 43 5 is_stmt 1
 534 0400 630C050A 		beqz	a0,.L31
 535 0404 93040500 		mv	s1,a0
  45:src/kernel/slab_allocator.cpp ****     slab->totalNumOfSlots = slab->numOfFreeSlots = (((1<<cache->slabSize) << BLOCK_SIZE_BITS) - siz
 536              		.loc 1 45 5
  45:src/kernel/slab_allocator.cpp ****     slab->totalNumOfSlots = slab->numOfFreeSlots = (((1<<cache->slabSize) << BLOCK_SIZE_BITS) - siz
 537              		.loc 1 45 34 is_stmt 0
 538 0408 93050500 		mv	a1,a0
 539 040c 13850906 		addi	a0,s3,96
 540              	.LVL53:
 541 0410 97000000 		call	_ZN13SlabAllocator14insertIntoListERP4SlabS1_
 541      E7800000 
 542              	.LVL54:
  46:src/kernel/slab_allocator.cpp ****     if(slab->totalNumOfSlots > MAX_NUMBER_OF_SLOTS)
 543              		.loc 1 46 5 is_stmt 1
  46:src/kernel/slab_allocator.cpp ****     if(slab->totalNumOfSlots > MAX_NUMBER_OF_SLOTS)
 544              		.loc 1 46 65 is_stmt 0
 545 0418 03B78904 		ld	a4,72(s3)
  46:src/kernel/slab_allocator.cpp ****     if(slab->totalNumOfSlots > MAX_NUMBER_OF_SLOTS)
 546              		.loc 1 46 56
 547 041c 93071000 		li	a5,1
 548 0420 BB97E700 		sllw	a5,a5,a4
  46:src/kernel/slab_allocator.cpp ****     if(slab->totalNumOfSlots > MAX_NUMBER_OF_SLOTS)
 549              		.loc 1 46 75
 550 0424 9B97C700 		slliw	a5,a5,12
  46:src/kernel/slab_allocator.cpp ****     if(slab->totalNumOfSlots > MAX_NUMBER_OF_SLOTS)
 551              		.loc 1 46 95
 552 0428 938707F5 		addi	a5,a5,-176
  46:src/kernel/slab_allocator.cpp ****     if(slab->totalNumOfSlots > MAX_NUMBER_OF_SLOTS)
 553              		.loc 1 46 120
 554 042c 03B70904 		ld	a4,64(s3)
  46:src/kernel/slab_allocator.cpp ****     if(slab->totalNumOfSlots > MAX_NUMBER_OF_SLOTS)
 555              		.loc 1 46 111
 556 0430 B3D7E702 		divu	a5,a5,a4
  46:src/kernel/slab_allocator.cpp ****     if(slab->totalNumOfSlots > MAX_NUMBER_OF_SLOTS)
 557              		.loc 1 46 50
 558 0434 23B8F400 		sd	a5,16(s1)
  46:src/kernel/slab_allocator.cpp ****     if(slab->totalNumOfSlots > MAX_NUMBER_OF_SLOTS)
 559              		.loc 1 46 27
 560 0438 23BCF400 		sd	a5,24(s1)
  47:src/kernel/slab_allocator.cpp ****         slab->totalNumOfSlots = slab->numOfFreeSlots = MAX_NUMBER_OF_SLOTS;
 561              		.loc 1 47 5 is_stmt 1
 562 043c 13070040 		li	a4,1024
 563 0440 6378F700 		bleu	a5,a4,.L27
GAS LISTING /tmp/ccpqtpVf.s 			page 18


  48:src/kernel/slab_allocator.cpp ****     slab->objectOffset = (void*)((uint64)slab + sizeof(Slab));
 564              		.loc 1 48 9
  48:src/kernel/slab_allocator.cpp ****     slab->objectOffset = (void*)((uint64)slab + sizeof(Slab));
 565              		.loc 1 48 54 is_stmt 0
 566 0444 93070040 		li	a5,1024
 567 0448 23B8F400 		sd	a5,16(s1)
  48:src/kernel/slab_allocator.cpp ****     slab->objectOffset = (void*)((uint64)slab + sizeof(Slab));
 568              		.loc 1 48 31
 569 044c 23BCF400 		sd	a5,24(s1)
 570              	.L27:
  49:src/kernel/slab_allocator.cpp ****     slab->parent = cache;
 571              		.loc 1 49 5 is_stmt 1
  49:src/kernel/slab_allocator.cpp ****     slab->parent = cache;
 572              		.loc 1 49 47 is_stmt 0
 573 0450 9387040B 		addi	a5,s1,176
  49:src/kernel/slab_allocator.cpp ****     slab->parent = cache;
 574              		.loc 1 49 24
 575 0454 23B0F40A 		sd	a5,160(s1)
  50:src/kernel/slab_allocator.cpp ****     for(uint64 i=0;i<(slab->totalNumOfSlots+7)/8;i++)
 576              		.loc 1 50 5 is_stmt 1
  50:src/kernel/slab_allocator.cpp ****     for(uint64 i=0;i<(slab->totalNumOfSlots+7)/8;i++)
 577              		.loc 1 50 18 is_stmt 0
 578 0458 23B4340B 		sd	s3,168(s1)
  51:src/kernel/slab_allocator.cpp ****         slab->allocated[i] = 0;
 579              		.loc 1 51 5 is_stmt 1
 580              	.LVL55:
 581              	.LBB47:
  51:src/kernel/slab_allocator.cpp ****         slab->allocated[i] = 0;
 582              		.loc 1 51 16 is_stmt 0
 583 045c 13070000 		li	a4,0
 584              	.LVL56:
 585              	.L29:
  51:src/kernel/slab_allocator.cpp ****         slab->allocated[i] = 0;
 586              		.loc 1 51 21 is_stmt 1 discriminator 3
  51:src/kernel/slab_allocator.cpp ****         slab->allocated[i] = 0;
 587              		.loc 1 51 29 is_stmt 0 discriminator 3
 588 0460 83B78401 		ld	a5,24(s1)
  51:src/kernel/slab_allocator.cpp ****         slab->allocated[i] = 0;
 589              		.loc 1 51 44 discriminator 3
 590 0464 93877700 		addi	a5,a5,7
  51:src/kernel/slab_allocator.cpp ****         slab->allocated[i] = 0;
 591              		.loc 1 51 47 discriminator 3
 592 0468 93D73700 		srli	a5,a5,3
  51:src/kernel/slab_allocator.cpp ****         slab->allocated[i] = 0;
 593              		.loc 1 51 21 discriminator 3
 594 046c 637AF700 		bleu	a5,a4,.L28
  52:src/kernel/slab_allocator.cpp **** 
 595              		.loc 1 52 9 is_stmt 1 discriminator 2
  52:src/kernel/slab_allocator.cpp **** 
 596              		.loc 1 52 28 is_stmt 0 discriminator 2
 597 0470 B387E400 		add	a5,s1,a4
 598 0474 23800702 		sb	zero,32(a5)
  51:src/kernel/slab_allocator.cpp ****         slab->allocated[i] = 0;
 599              		.loc 1 51 5 is_stmt 1 discriminator 2
 600 0478 13071700 		addi	a4,a4,1
 601              	.LVL57:
 602 047c 6FF05FFE 		j	.L29
GAS LISTING /tmp/ccpqtpVf.s 			page 19


 603              	.L28:
 604              	.LBE47:
  54:src/kernel/slab_allocator.cpp ****         for (uint64 i = 0; i < slab->totalNumOfSlots; i++) {
 605              		.loc 1 54 5
 606              	.LBB48:
  54:src/kernel/slab_allocator.cpp ****         for (uint64 i = 0; i < slab->totalNumOfSlots; i++) {
 607              		.loc 1 54 15 is_stmt 0
 608 0480 83B70905 		ld	a5,80(s3)
  54:src/kernel/slab_allocator.cpp ****         for (uint64 i = 0; i < slab->totalNumOfSlots; i++) {
 609              		.loc 1 54 5
 610 0484 638E0702 		beqz	a5,.L32
 611              	.LBB49:
  55:src/kernel/slab_allocator.cpp ****             cache->ctor((void *) ((uint64) slab->objectOffset + i * slab->parent->objectSize));
 612              		.loc 1 55 21
 613 0488 13090000 		li	s2,0
 614              	.LVL58:
 615              	.L30:
  55:src/kernel/slab_allocator.cpp ****             cache->ctor((void *) ((uint64) slab->objectOffset + i * slab->parent->objectSize));
 616              		.loc 1 55 30 is_stmt 1 discriminator 3
  55:src/kernel/slab_allocator.cpp ****             cache->ctor((void *) ((uint64) slab->objectOffset + i * slab->parent->objectSize));
 617              		.loc 1 55 38 is_stmt 0 discriminator 3
 618 048c 83B78401 		ld	a5,24(s1)
  55:src/kernel/slab_allocator.cpp ****             cache->ctor((void *) ((uint64) slab->objectOffset + i * slab->parent->objectSize));
 619              		.loc 1 55 30 discriminator 3
 620 0490 637CF902 		bleu	a5,s2,.L33
  56:src/kernel/slab_allocator.cpp ****         }
 621              		.loc 1 56 13 is_stmt 1 discriminator 2
  56:src/kernel/slab_allocator.cpp ****         }
 622              		.loc 1 56 20 is_stmt 0 discriminator 2
 623 0494 03B70905 		ld	a4,80(s3)
  56:src/kernel/slab_allocator.cpp ****         }
 624              		.loc 1 56 50 discriminator 2
 625 0498 03B5040A 		ld	a0,160(s1)
  56:src/kernel/slab_allocator.cpp ****         }
 626              		.loc 1 56 75 discriminator 2
 627 049c 83B7840A 		ld	a5,168(s1)
  56:src/kernel/slab_allocator.cpp ****         }
 628              		.loc 1 56 83 discriminator 2
 629 04a0 83B70704 		ld	a5,64(a5)
  56:src/kernel/slab_allocator.cpp ****         }
 630              		.loc 1 56 67 discriminator 2
 631 04a4 B3872703 		mul	a5,a5,s2
  56:src/kernel/slab_allocator.cpp ****         }
 632              		.loc 1 56 24 discriminator 2
 633 04a8 3305F500 		add	a0,a0,a5
 634 04ac E7000700 		jalr	a4
 635              	.LVL59:
  55:src/kernel/slab_allocator.cpp ****             cache->ctor((void *) ((uint64) slab->objectOffset + i * slab->parent->objectSize));
 636              		.loc 1 55 9 is_stmt 1 discriminator 2
 637 04b0 13091900 		addi	s2,s2,1
 638              	.LVL60:
 639 04b4 6FF09FFD 		j	.L30
 640              	.LVL61:
 641              	.L31:
 642              	.LBE49:
 643              	.LBE48:
  44:src/kernel/slab_allocator.cpp ****     SlabAllocator::insertIntoList(cache->emptyHead, slab);
GAS LISTING /tmp/ccpqtpVf.s 			page 20


 644              		.loc 1 44 16 is_stmt 0
 645 04b8 13050000 		li	a0,0
 646              	.LVL62:
 647 04bc 6F000001 		j	.L26
 648              	.LVL63:
 649              	.L32:
  59:src/kernel/slab_allocator.cpp **** }
 650              		.loc 1 59 12
 651 04c0 13051000 		li	a0,1
 652 04c4 6F008000 		j	.L26
 653              	.LVL64:
 654              	.L33:
 655 04c8 13051000 		li	a0,1
 656              	.LVL65:
 657              	.L26:
  60:src/kernel/slab_allocator.cpp **** 
 658              		.loc 1 60 1
 659 04cc 83308102 		ld	ra,40(sp)
 660              		.cfi_restore 1
 661 04d0 03340102 		ld	s0,32(sp)
 662              		.cfi_restore 8
 663              		.cfi_def_cfa 2, 48
 664 04d4 83348101 		ld	s1,24(sp)
 665              		.cfi_restore 9
 666 04d8 03390101 		ld	s2,16(sp)
 667              		.cfi_restore 18
 668 04dc 83398100 		ld	s3,8(sp)
 669              		.cfi_restore 19
 670              	.LVL66:
 671 04e0 13010103 		addi	sp,sp,48
 672              		.cfi_def_cfa_offset 0
 673 04e4 67800000 		jr	ra
 674              		.cfi_endproc
 675              	.LFE33:
 677              		.align	2
 678              		.globl	_ZN13SlabAllocator14removeFromListERP4SlabS1_
 680              	_ZN13SlabAllocator14removeFromListERP4SlabS1_:
 681              	.LFB46:
 268:src/kernel/slab_allocator.cpp **** 
 269:src/kernel/slab_allocator.cpp **** void SlabAllocator::removeFromList(Slab* &head, Slab* slab) {
 682              		.loc 1 269 61 is_stmt 1
 683              		.cfi_startproc
 684              	.LVL67:
 685 04e8 130101FF 		addi	sp,sp,-16
 686              		.cfi_def_cfa_offset 16
 687 04ec 23348100 		sd	s0,8(sp)
 688              		.cfi_offset 8, -8
 689 04f0 13040101 		addi	s0,sp,16
 690              		.cfi_def_cfa 8, 0
 270:src/kernel/slab_allocator.cpp ****     if(slab == head)
 691              		.loc 1 270 5
 692              		.loc 1 270 16 is_stmt 0
 693 04f4 83370500 		ld	a5,0(a0)
 694              		.loc 1 270 5
 695 04f8 638CB702 		beq	a5,a1,.L40
 696              	.L36:
 271:src/kernel/slab_allocator.cpp ****         head = slab->next;
GAS LISTING /tmp/ccpqtpVf.s 			page 21


 272:src/kernel/slab_allocator.cpp ****     if(slab->next)
 697              		.loc 1 272 5 is_stmt 1
 698              		.loc 1 272 14 is_stmt 0
 699 04fc 83B78500 		ld	a5,8(a1)
 700              		.loc 1 272 5
 701 0500 63860700 		beqz	a5,.L37
 273:src/kernel/slab_allocator.cpp ****         slab->next->prev = slab->prev;
 702              		.loc 1 273 9 is_stmt 1
 703              		.loc 1 273 34 is_stmt 0
 704 0504 03B70500 		ld	a4,0(a1)
 705              		.loc 1 273 26
 706 0508 23B0E700 		sd	a4,0(a5)
 707              	.L37:
 274:src/kernel/slab_allocator.cpp ****     if(slab->prev)
 708              		.loc 1 274 5 is_stmt 1
 709              		.loc 1 274 14 is_stmt 0
 710 050c 83B70500 		ld	a5,0(a1)
 711              		.loc 1 274 5
 712 0510 63860700 		beqz	a5,.L38
 275:src/kernel/slab_allocator.cpp ****         slab->prev->next = slab->next;
 713              		.loc 1 275 9 is_stmt 1
 714              		.loc 1 275 34 is_stmt 0
 715 0514 03B78500 		ld	a4,8(a1)
 716              		.loc 1 275 26
 717 0518 23B4E700 		sd	a4,8(a5)
 718              	.L38:
 276:src/kernel/slab_allocator.cpp ****     slab->prev = nullptr;
 719              		.loc 1 276 5 is_stmt 1
 720              		.loc 1 276 16 is_stmt 0
 721 051c 23B00500 		sd	zero,0(a1)
 277:src/kernel/slab_allocator.cpp ****     slab->next = nullptr;
 722              		.loc 1 277 5 is_stmt 1
 723              		.loc 1 277 16 is_stmt 0
 724 0520 23B40500 		sd	zero,8(a1)
 278:src/kernel/slab_allocator.cpp **** }
 725              		.loc 1 278 1
 726 0524 03348100 		ld	s0,8(sp)
 727              		.cfi_remember_state
 728              		.cfi_restore 8
 729              		.cfi_def_cfa 2, 16
 730 0528 13010101 		addi	sp,sp,16
 731              		.cfi_def_cfa_offset 0
 732 052c 67800000 		jr	ra
 733              	.L40:
 734              		.cfi_restore_state
 271:src/kernel/slab_allocator.cpp ****     if(slab->next)
 735              		.loc 1 271 9 is_stmt 1
 271:src/kernel/slab_allocator.cpp ****     if(slab->next)
 736              		.loc 1 271 22 is_stmt 0
 737 0530 83B78500 		ld	a5,8(a1)
 271:src/kernel/slab_allocator.cpp ****     if(slab->next)
 738              		.loc 1 271 14
 739 0534 2330F500 		sd	a5,0(a0)
 740 0538 6FF05FFC 		j	.L36
 741              		.cfi_endproc
 742              	.LFE46:
 744              		.align	2
GAS LISTING /tmp/ccpqtpVf.s 			page 22


 745              		.globl	_ZN13SlabAllocator4moveERP4SlabS2_S1_
 747              	_ZN13SlabAllocator4moveERP4SlabS2_S1_:
 748              	.LFB47:
 279:src/kernel/slab_allocator.cpp **** 
 280:src/kernel/slab_allocator.cpp **** void SlabAllocator::move(Slab* &headFrom, Slab* &headTo, Slab* slab) {
 749              		.loc 1 280 70 is_stmt 1
 750              		.cfi_startproc
 751              	.LVL68:
 752 053c 130101FE 		addi	sp,sp,-32
 753              		.cfi_def_cfa_offset 32
 754 0540 233C1100 		sd	ra,24(sp)
 755 0544 23388100 		sd	s0,16(sp)
 756 0548 23349100 		sd	s1,8(sp)
 757 054c 23302101 		sd	s2,0(sp)
 758              		.cfi_offset 1, -8
 759              		.cfi_offset 8, -16
 760              		.cfi_offset 9, -24
 761              		.cfi_offset 18, -32
 762 0550 13040102 		addi	s0,sp,32
 763              		.cfi_def_cfa 8, 0
 764 0554 13890500 		mv	s2,a1
 765 0558 93040600 		mv	s1,a2
 281:src/kernel/slab_allocator.cpp ****     SlabAllocator::removeFromList(headFrom, slab);
 766              		.loc 1 281 5
 767              		.loc 1 281 34 is_stmt 0
 768 055c 93050600 		mv	a1,a2
 769              	.LVL69:
 770 0560 97000000 		call	_ZN13SlabAllocator14removeFromListERP4SlabS1_
 770      E7800000 
 771              	.LVL70:
 282:src/kernel/slab_allocator.cpp ****     SlabAllocator::insertIntoList(headTo, slab);
 772              		.loc 1 282 5 is_stmt 1
 773              		.loc 1 282 34 is_stmt 0
 774 0568 93850400 		mv	a1,s1
 775 056c 13050900 		mv	a0,s2
 776 0570 97000000 		call	_ZN13SlabAllocator14insertIntoListERP4SlabS1_
 776      E7800000 
 777              	.LVL71:
 283:src/kernel/slab_allocator.cpp **** }...
 778              		.loc 1 283 1
 779 0578 83308101 		ld	ra,24(sp)
 780              		.cfi_restore 1
 781 057c 03340101 		ld	s0,16(sp)
 782              		.cfi_restore 8
 783              		.cfi_def_cfa 2, 32
 784 0580 83348100 		ld	s1,8(sp)
 785              		.cfi_restore 9
 786              	.LVL72:
 787 0584 03390100 		ld	s2,0(sp)
 788              		.cfi_restore 18
 789              	.LVL73:
 790 0588 13010102 		addi	sp,sp,32
 791              		.cfi_def_cfa_offset 0
 792 058c 67800000 		jr	ra
 793              		.cfi_endproc
 794              	.LFE47:
 796              		.align	2
GAS LISTING /tmp/ccpqtpVf.s 			page 23


 797              		.globl	_ZN13SlabAllocator12allocateSlotEP4Slab
 799              	_ZN13SlabAllocator12allocateSlotEP4Slab:
 800              	.LFB34:
  62:src/kernel/slab_allocator.cpp **** void* SlabAllocator::allocateSlot(Slab *slab) {
 801              		.loc 1 62 47 is_stmt 1
 802              		.cfi_startproc
 803              	.LVL74:
 804 0590 130101FE 		addi	sp,sp,-32
 805              		.cfi_def_cfa_offset 32
 806 0594 233C1100 		sd	ra,24(sp)
 807 0598 23388100 		sd	s0,16(sp)
 808 059c 23349100 		sd	s1,8(sp)
 809 05a0 23302101 		sd	s2,0(sp)
 810              		.cfi_offset 1, -8
 811              		.cfi_offset 8, -16
 812              		.cfi_offset 9, -24
 813              		.cfi_offset 18, -32
 814 05a4 13040102 		addi	s0,sp,32
 815              		.cfi_def_cfa 8, 0
 816 05a8 13090500 		mv	s2,a0
  63:src/kernel/slab_allocator.cpp ****     for(uint64 i=0; i<slab->totalNumOfSlots; i++){
 817              		.loc 1 63 5
 818              	.LVL75:
 819              	.LBB50:
  63:src/kernel/slab_allocator.cpp ****     for(uint64 i=0; i<slab->totalNumOfSlots; i++){
 820              		.loc 1 63 16 is_stmt 0
 821 05ac 93040000 		li	s1,0
 822              	.LVL76:
 823              	.L51:
  63:src/kernel/slab_allocator.cpp ****     for(uint64 i=0; i<slab->totalNumOfSlots; i++){
 824              		.loc 1 63 22 is_stmt 1 discriminator 1
  63:src/kernel/slab_allocator.cpp ****     for(uint64 i=0; i<slab->totalNumOfSlots; i++){
 825              		.loc 1 63 29 is_stmt 0 discriminator 1
 826 05b0 83368901 		ld	a3,24(s2)
  63:src/kernel/slab_allocator.cpp ****     for(uint64 i=0; i<slab->totalNumOfSlots; i++){
 827              		.loc 1 63 22 discriminator 1
 828 05b4 63F6D40A 		bleu	a3,s1,.L52
 829              	.LBE50:
  64:src/kernel/slab_allocator.cpp ****         if(!(slab->allocated[i/8] & (1<<(7 - i%8)))){
 830              		.loc 1 64 9 is_stmt 1
 831              	.LBB58:
 832              	.LBB51:
  64:src/kernel/slab_allocator.cpp ****         if(!(slab->allocated[i/8] & (1<<(7 - i%8)))){
 833              		.loc 1 64 31 is_stmt 0
 834 05b8 13D63400 		srli	a2,s1,3
  64:src/kernel/slab_allocator.cpp ****         if(!(slab->allocated[i/8] & (1<<(7 - i%8)))){
 835              		.loc 1 64 33
 836 05bc B307C900 		add	a5,s2,a2
 837 05c0 83C50702 		lbu	a1,32(a5)
  64:src/kernel/slab_allocator.cpp ****         if(!(slab->allocated[i/8] & (1<<(7 - i%8)))){
 838              		.loc 1 64 44
 839 05c4 93C7F4FF 		not	a5,s1
 840 05c8 93F77700 		andi	a5,a5,7
  64:src/kernel/slab_allocator.cpp ****         if(!(slab->allocated[i/8] & (1<<(7 - i%8)))){
 841              		.loc 1 64 12
 842 05cc 3BD7F540 		sraw	a4,a1,a5
 843 05d0 13771700 		andi	a4,a4,1
GAS LISTING /tmp/ccpqtpVf.s 			page 24


  64:src/kernel/slab_allocator.cpp ****         if(!(slab->allocated[i/8] & (1<<(7 - i%8)))){
 844              		.loc 1 64 9
 845 05d4 63060700 		beqz	a4,.L54
 846              	.LBE51:
  63:src/kernel/slab_allocator.cpp ****     for(uint64 i=0; i<slab->totalNumOfSlots; i++){
 847              		.loc 1 63 5 is_stmt 1 discriminator 2
 848 05d8 93841400 		addi	s1,s1,1
 849              	.LVL77:
 850 05dc 6FF05FFD 		j	.L51
 851              	.L54:
 852              	.LBB56:
 853              	.LBB52:
  65:src/kernel/slab_allocator.cpp ****             slab->allocated[i/8] |= (1<<(7 - i%8));
 854              		.loc 1 65 13
  65:src/kernel/slab_allocator.cpp ****             slab->allocated[i/8] |= (1<<(7 - i%8));
 855              		.loc 1 65 39 is_stmt 0
 856 05e0 13071000 		li	a4,1
 857 05e4 BB17F700 		sllw	a5,a4,a5
  65:src/kernel/slab_allocator.cpp ****             slab->allocated[i/8] |= (1<<(7 - i%8));
 858              		.loc 1 65 34
 859 05e8 3306C900 		add	a2,s2,a2
 860 05ec B3E5F500 		or	a1,a1,a5
 861 05f0 2300B602 		sb	a1,32(a2)
  66:src/kernel/slab_allocator.cpp ****             Slab* &headFrom = slab->isEmpty() ? slab->parent->emptyHead : slab->parent->partialHead
 862              		.loc 1 66 13 is_stmt 1
 863              	.LVL78:
 864              	.LBB53:
 865              	.LBB54:
 866              		.file 2 "src/kernel/../../h/kernel/slab_t.hpp"
   1:src/kernel/../../h/kernel/slab_t.hpp **** //
   2:src/kernel/../../h/kernel/slab_t.hpp **** // Created by os on 1/2/23.
   3:src/kernel/../../h/kernel/slab_t.hpp **** //
   4:src/kernel/../../h/kernel/slab_t.hpp **** 
   5:src/kernel/../../h/kernel/slab_t.hpp **** #ifndef KERNEL_FOR_RISCV_ARCHITECURE_SLAB_T_HPP
   6:src/kernel/../../h/kernel/slab_t.hpp **** #define KERNEL_FOR_RISCV_ARCHITECURE_SLAB_T_HPP
   7:src/kernel/../../h/kernel/slab_t.hpp **** #include "../../lib/hw.h"
   8:src/kernel/../../h/kernel/slab_t.hpp **** 
   9:src/kernel/../../h/kernel/slab_t.hpp **** typedef class Cache kmem_cache_t;
  10:src/kernel/../../h/kernel/slab_t.hpp **** 
  11:src/kernel/../../h/kernel/slab_t.hpp **** typedef class Slab{
  12:src/kernel/../../h/kernel/slab_t.hpp **** public:
  13:src/kernel/../../h/kernel/slab_t.hpp ****     inline bool isFull(){return numOfFreeSlots == 0;}
  14:src/kernel/../../h/kernel/slab_t.hpp ****     inline bool isEmpty(){return numOfFreeSlots == totalNumOfSlots;}
 867              		.loc 2 14 27
 868              		.loc 2 14 34 is_stmt 0
 869 05f4 83370901 		ld	a5,16(s2)
 870              	.LVL79:
 871              	.LBE54:
 872              	.LBE53:
  66:src/kernel/slab_allocator.cpp ****             Slab* &headFrom = slab->isEmpty() ? slab->parent->emptyHead : slab->parent->partialHead
 873              		.loc 1 66 89
 874 05f8 6388F604 		beq	a3,a5,.L55
  66:src/kernel/slab_allocator.cpp ****             Slab* &headFrom = slab->isEmpty() ? slab->parent->emptyHead : slab->parent->partialHead
 875              		.loc 1 66 81 discriminator 2
 876 05fc 0335890A 		ld	a0,168(s2)
 877              	.LVL80:
  66:src/kernel/slab_allocator.cpp ****             Slab* &headFrom = slab->isEmpty() ? slab->parent->emptyHead : slab->parent->partialHead
GAS LISTING /tmp/ccpqtpVf.s 			page 25


 878              		.loc 1 66 89 discriminator 2
 879 0600 13058506 		addi	a0,a0,104
 880              	.L47:
 881              	.LVL81:
  67:src/kernel/slab_allocator.cpp ****             slab->numOfFreeSlots--;
 882              		.loc 1 67 13 is_stmt 1 discriminator 4
  67:src/kernel/slab_allocator.cpp ****             slab->numOfFreeSlots--;
 883              		.loc 1 67 33 is_stmt 0 discriminator 4
 884 0604 9387F7FF 		addi	a5,a5,-1
 885 0608 2338F900 		sd	a5,16(s2)
  68:src/kernel/slab_allocator.cpp ****             Slab* &headTo = slab->isFull() ? slab->parent->fullHead : slab->parent->partialHead;
 886              		.loc 1 68 13 is_stmt 1 discriminator 4
 887              	.LVL82:
 888              	.LBE52:
 889              	.LBE56:
 890              	.LBE58:
  13:src/kernel/../../h/kernel/slab_t.hpp ****     inline bool isEmpty(){return numOfFreeSlots == totalNumOfSlots;}
 891              		.loc 2 13 26 discriminator 4
 892              	.LBB59:
 893              	.LBB57:
 894              	.LBB55:
  68:src/kernel/slab_allocator.cpp ****             Slab* &headTo = slab->isFull() ? slab->parent->fullHead : slab->parent->partialHead;
 895              		.loc 1 68 85 is_stmt 0 discriminator 4
 896 060c 63940704 		bnez	a5,.L48
  68:src/kernel/slab_allocator.cpp ****             Slab* &headTo = slab->isFull() ? slab->parent->fullHead : slab->parent->partialHead;
 897              		.loc 1 68 52 discriminator 1
 898 0610 8335890A 		ld	a1,168(s2)
  68:src/kernel/slab_allocator.cpp ****             Slab* &headTo = slab->isFull() ? slab->parent->fullHead : slab->parent->partialHead;
 899              		.loc 1 68 85 discriminator 1
 900 0614 93850507 		addi	a1,a1,112
 901              	.L49:
 902              	.LVL83:
  70:src/kernel/slab_allocator.cpp ****             if(headTo != headFrom)
 903              		.loc 1 70 13 is_stmt 1 discriminator 4
  70:src/kernel/slab_allocator.cpp ****             if(headTo != headFrom)
 904              		.loc 1 70 16 is_stmt 0 discriminator 4
 905 0618 03B70500 		ld	a4,0(a1)
  70:src/kernel/slab_allocator.cpp ****             if(headTo != headFrom)
 906              		.loc 1 70 26 discriminator 4
 907 061c 83370500 		ld	a5,0(a0)
  70:src/kernel/slab_allocator.cpp ****             if(headTo != headFrom)
 908              		.loc 1 70 13 discriminator 4
 909 0620 6308F700 		beq	a4,a5,.L50
  71:src/kernel/slab_allocator.cpp ****                 SlabAllocator::move(headFrom, headTo, slab);
 910              		.loc 1 71 17 is_stmt 1
  71:src/kernel/slab_allocator.cpp ****                 SlabAllocator::move(headFrom, headTo, slab);
 911              		.loc 1 71 36 is_stmt 0
 912 0624 13060900 		mv	a2,s2
 913 0628 97000000 		call	_ZN13SlabAllocator4moveERP4SlabS2_S1_
 913      E7800000 
 914              	.LVL84:
 915              	.L50:
  73:src/kernel/slab_allocator.cpp ****             return (void*)((uint64)slab->objectOffset + i*slab->parent->objectSize);
 916              		.loc 1 73 13 is_stmt 1
  73:src/kernel/slab_allocator.cpp ****             return (void*)((uint64)slab->objectOffset + i*slab->parent->objectSize);
 917              		.loc 1 73 42 is_stmt 0
 918 0630 0335090A 		ld	a0,160(s2)
GAS LISTING /tmp/ccpqtpVf.s 			page 26


  73:src/kernel/slab_allocator.cpp ****             return (void*)((uint64)slab->objectOffset + i*slab->parent->objectSize);
 919              		.loc 1 73 65
 920 0634 8337890A 		ld	a5,168(s2)
  73:src/kernel/slab_allocator.cpp ****             return (void*)((uint64)slab->objectOffset + i*slab->parent->objectSize);
 921              		.loc 1 73 73
 922 0638 83B70704 		ld	a5,64(a5)
  73:src/kernel/slab_allocator.cpp ****             return (void*)((uint64)slab->objectOffset + i*slab->parent->objectSize);
 923              		.loc 1 73 58
 924 063c B3849702 		mul	s1,a5,s1
 925              	.LVL85:
  73:src/kernel/slab_allocator.cpp ****             return (void*)((uint64)slab->objectOffset + i*slab->parent->objectSize);
 926              		.loc 1 73 55
 927 0640 33059500 		add	a0,a0,s1
  73:src/kernel/slab_allocator.cpp ****             return (void*)((uint64)slab->objectOffset + i*slab->parent->objectSize);
 928              		.loc 1 73 83
 929 0644 6F000002 		j	.L43
 930              	.LVL86:
 931              	.L55:
  66:src/kernel/slab_allocator.cpp ****             Slab* &headFrom = slab->isEmpty() ? slab->parent->emptyHead : slab->parent->partialHead
 932              		.loc 1 66 55 discriminator 1
 933 0648 0335890A 		ld	a0,168(s2)
 934              	.LVL87:
  66:src/kernel/slab_allocator.cpp ****             Slab* &headFrom = slab->isEmpty() ? slab->parent->emptyHead : slab->parent->partialHead
 935              		.loc 1 66 89 discriminator 1
 936 064c 13050506 		addi	a0,a0,96
 937 0650 6FF05FFB 		j	.L47
 938              	.LVL88:
 939              	.L48:
  68:src/kernel/slab_allocator.cpp ****             Slab* &headTo = slab->isFull() ? slab->parent->fullHead : slab->parent->partialHead;
 940              		.loc 1 68 77 discriminator 2
 941 0654 8335890A 		ld	a1,168(s2)
  68:src/kernel/slab_allocator.cpp ****             Slab* &headTo = slab->isFull() ? slab->parent->fullHead : slab->parent->partialHead;
 942              		.loc 1 68 85 discriminator 2
 943 0658 93858506 		addi	a1,a1,104
 944 065c 6FF0DFFB 		j	.L49
 945              	.LVL89:
 946              	.L52:
 947              	.LBE55:
 948              	.LBE57:
 949              	.LBE59:
  76:src/kernel/slab_allocator.cpp ****     return nullptr;
 950              		.loc 1 76 12
 951 0660 13050000 		li	a0,0
 952              	.LVL90:
 953              	.L43:
  77:src/kernel/slab_allocator.cpp **** }
 954              		.loc 1 77 1
 955 0664 83308101 		ld	ra,24(sp)
 956              		.cfi_restore 1
 957 0668 03340101 		ld	s0,16(sp)
 958              		.cfi_restore 8
 959              		.cfi_def_cfa 2, 32
 960 066c 83348100 		ld	s1,8(sp)
 961              		.cfi_restore 9
 962 0670 03390100 		ld	s2,0(sp)
 963              		.cfi_restore 18
 964              	.LVL91:
GAS LISTING /tmp/ccpqtpVf.s 			page 27


 965 0674 13010102 		addi	sp,sp,32
 966              		.cfi_def_cfa_offset 0
 967 0678 67800000 		jr	ra
 968              		.cfi_endproc
 969              	.LFE34:
 971              		.align	2
 972              		.globl	_ZN13SlabAllocator14allocateObjectEP5Cache
 974              	_ZN13SlabAllocator14allocateObjectEP5Cache:
 975              	.LFB35:
  79:src/kernel/slab_allocator.cpp **** void* SlabAllocator::allocateObject(Cache *cache) {
 976              		.loc 1 79 51 is_stmt 1
 977              		.cfi_startproc
 978              	.LVL92:
 979 067c 130101FD 		addi	sp,sp,-48
 980              		.cfi_def_cfa_offset 48
 981 0680 23341102 		sd	ra,40(sp)
 982 0684 23308102 		sd	s0,32(sp)
 983 0688 233C9100 		sd	s1,24(sp)
 984 068c 23382101 		sd	s2,16(sp)
 985 0690 23343101 		sd	s3,8(sp)
 986              		.cfi_offset 1, -8
 987              		.cfi_offset 8, -16
 988              		.cfi_offset 9, -24
 989              		.cfi_offset 18, -32
 990              		.cfi_offset 19, -40
 991 0694 13040103 		addi	s0,sp,48
 992              		.cfi_def_cfa 8, 0
 993 0698 13090500 		mv	s2,a0
  80:src/kernel/slab_allocator.cpp ****     void* ret = SlabAllocator::allocateFromList(cache->partialHead);
 994              		.loc 1 80 5
  80:src/kernel/slab_allocator.cpp ****     void* ret = SlabAllocator::allocateFromList(cache->partialHead);
 995              		.loc 1 80 48 is_stmt 0
 996 069c 83348506 		ld	s1,104(a0)
 997              	.LVL93:
 998              	.L58:
 999              	.LBB60:
 1000              	.LBB61:
 1001              		.file 3 "src/kernel/../../h/kernel/slab_allocator.hpp"
   1:src/kernel/../../h/kernel/slab_allocator.hpp **** //
   2:src/kernel/../../h/kernel/slab_allocator.hpp **** // Created by os on 12/25/22.
   3:src/kernel/../../h/kernel/slab_allocator.hpp **** //
   4:src/kernel/../../h/kernel/slab_allocator.hpp **** 
   5:src/kernel/../../h/kernel/slab_allocator.hpp **** #ifndef KERNEL_FOR_RISCV_ARCHITECURE_SLAN_HPP
   6:src/kernel/../../h/kernel/slab_allocator.hpp **** #define KERNEL_FOR_RISCV_ARCHITECURE_SLAN_HPP
   7:src/kernel/../../h/kernel/slab_allocator.hpp **** 
   8:src/kernel/../../h/kernel/slab_allocator.hpp **** #include "utility.hpp"
   9:src/kernel/../../h/kernel/slab_allocator.hpp **** #include "buddy_allocator.hpp"
  10:src/kernel/../../h/kernel/slab_allocator.hpp **** #include "console_util.hpp"
  11:src/kernel/../../h/kernel/slab_allocator.hpp **** #include "cache_t.hpp"
  12:src/kernel/../../h/kernel/slab_allocator.hpp **** 
  13:src/kernel/../../h/kernel/slab_allocator.hpp **** class SlabAllocator{
  14:src/kernel/../../h/kernel/slab_allocator.hpp **** public:
  15:src/kernel/../../h/kernel/slab_allocator.hpp **** 
  16:src/kernel/../../h/kernel/slab_allocator.hpp ****     static void initialize(void* space, uint64 blockNum);
  17:src/kernel/../../h/kernel/slab_allocator.hpp **** 
  18:src/kernel/../../h/kernel/slab_allocator.hpp ****     static Cache* createCache(const char* name, size_t size, void (*ctor)(void*), void (*dtor)(void
  19:src/kernel/../../h/kernel/slab_allocator.hpp **** 
GAS LISTING /tmp/ccpqtpVf.s 			page 28


  20:src/kernel/../../h/kernel/slab_allocator.hpp ****     static void deleteCache(Cache* &cache);
  21:src/kernel/../../h/kernel/slab_allocator.hpp **** 
  22:src/kernel/../../h/kernel/slab_allocator.hpp ****     static bool allocateSlab(Cache *cache);
  23:src/kernel/../../h/kernel/slab_allocator.hpp **** 
  24:src/kernel/../../h/kernel/slab_allocator.hpp ****     static int shrinkCache(Cache* cache);
  25:src/kernel/../../h/kernel/slab_allocator.hpp **** 
  26:src/kernel/../../h/kernel/slab_allocator.hpp ****     static void* allocateSlot(Slab* slab);
  27:src/kernel/../../h/kernel/slab_allocator.hpp **** 
  28:src/kernel/../../h/kernel/slab_allocator.hpp ****     static void* allocateObject(Cache *cache);
  29:src/kernel/../../h/kernel/slab_allocator.hpp **** 
  30:src/kernel/../../h/kernel/slab_allocator.hpp ****     static void* allocateBuffer(size_t size);
  31:src/kernel/../../h/kernel/slab_allocator.hpp **** 
  32:src/kernel/../../h/kernel/slab_allocator.hpp ****     static void freeSlot(Slab* slab, uint64 index);
  33:src/kernel/../../h/kernel/slab_allocator.hpp **** 
  34:src/kernel/../../h/kernel/slab_allocator.hpp ****     static bool freeObject(Cache* cache,const void* addr);
  35:src/kernel/../../h/kernel/slab_allocator.hpp **** 
  36:src/kernel/../../h/kernel/slab_allocator.hpp ****     static void freeBuffer(const void* addr);
  37:src/kernel/../../h/kernel/slab_allocator.hpp **** 
  38:src/kernel/../../h/kernel/slab_allocator.hpp ****     static void printSlab(Slab *slab);
  39:src/kernel/../../h/kernel/slab_allocator.hpp **** 
  40:src/kernel/../../h/kernel/slab_allocator.hpp ****     static void printCache(Cache *cache);
  41:src/kernel/../../h/kernel/slab_allocator.hpp **** 
  42:src/kernel/../../h/kernel/slab_allocator.hpp ****     static Cache *sizeN[13];
  43:src/kernel/../../h/kernel/slab_allocator.hpp ****     static Cache *cache;
  44:src/kernel/../../h/kernel/slab_allocator.hpp ****     static Cache *largeSlabCache;
  45:src/kernel/../../h/kernel/slab_allocator.hpp **** 
  46:src/kernel/../../h/kernel/slab_allocator.hpp **** private:
  47:src/kernel/../../h/kernel/slab_allocator.hpp ****     static void insertIntoList(Slab* &head, Slab* slab);
  48:src/kernel/../../h/kernel/slab_allocator.hpp ****     static void removeFromList(Slab* &head, Slab* slab);
  49:src/kernel/../../h/kernel/slab_allocator.hpp ****     static void move(Slab* &headFrom, Slab* &headTo, Slab* slab);
  50:src/kernel/../../h/kernel/slab_allocator.hpp ****     static inline uint64 getUpperBound(Slab* slab){return (uint64)slab->objectOffset + slab->totalN
  51:src/kernel/../../h/kernel/slab_allocator.hpp ****     static inline uint64 getLowerBound(Slab* slab){return (uint64)slab->objectOffset;}
  52:src/kernel/../../h/kernel/slab_allocator.hpp **** 
  53:src/kernel/../../h/kernel/slab_allocator.hpp ****     static inline void* allocateFromList(Slab* head){
  54:src/kernel/../../h/kernel/slab_allocator.hpp ****         while(head != nullptr){
 1002              		.loc 3 54 9 is_stmt 1
 1003              		.loc 3 54 20
 1004 06a0 638C0400 		beqz	s1,.L57
 1005              	.LBB62:
  55:src/kernel/../../h/kernel/slab_allocator.hpp ****             void* ret = allocateSlot(head);
 1006              		.loc 3 55 13
 1007              		.loc 3 55 37 is_stmt 0
 1008 06a4 13850400 		mv	a0,s1
 1009 06a8 97000000 		call	_ZN13SlabAllocator12allocateSlotEP4Slab
 1009      E7800000 
 1010              	.LVL94:
  56:src/kernel/../../h/kernel/slab_allocator.hpp ****             if(ret != nullptr)
 1011              		.loc 3 56 13 is_stmt 1
 1012 06b0 E30805FE 		beqz	a0,.L58
  57:src/kernel/../../h/kernel/slab_allocator.hpp ****                 return ret;
 1013              		.loc 3 57 24 is_stmt 0
 1014 06b4 93040500 		mv	s1,a0
 1015              	.LVL95:
 1016              	.L57:
 1017              	.LBE62:
 1018              	.LBE61:
 1019              	.LBE60:
GAS LISTING /tmp/ccpqtpVf.s 			page 29


  81:src/kernel/slab_allocator.cpp ****     if(ret){
 1020              		.loc 1 81 5 is_stmt 1
 1021 06b8 63820402 		beqz	s1,.L69
 1022              	.LVL96:
 1023              	.L56:
 117:src/kernel/slab_allocator.cpp **** }
 1024              		.loc 1 117 1 is_stmt 0
 1025 06bc 13850400 		mv	a0,s1
 1026 06c0 83308102 		ld	ra,40(sp)
 1027              		.cfi_remember_state
 1028              		.cfi_restore 1
 1029 06c4 03340102 		ld	s0,32(sp)
 1030              		.cfi_restore 8
 1031              		.cfi_def_cfa 2, 48
 1032 06c8 83348101 		ld	s1,24(sp)
 1033              		.cfi_restore 9
 1034 06cc 03390101 		ld	s2,16(sp)
 1035              		.cfi_restore 18
 1036              	.LVL97:
 1037 06d0 83398100 		ld	s3,8(sp)
 1038              		.cfi_restore 19
 1039 06d4 13010103 		addi	sp,sp,48
 1040              		.cfi_def_cfa_offset 0
 1041 06d8 67800000 		jr	ra
 1042              	.LVL98:
 1043              	.L69:
 1044              		.cfi_restore_state
  84:src/kernel/slab_allocator.cpp ****     ret = SlabAllocator::allocateFromList(cache->emptyHead);
 1045              		.loc 1 84 5 is_stmt 1
  84:src/kernel/slab_allocator.cpp ****     ret = SlabAllocator::allocateFromList(cache->emptyHead);
 1046              		.loc 1 84 42 is_stmt 0
 1047 06dc 83340906 		ld	s1,96(s2)
 1048              	.LVL99:
 1049              	.L61:
 1050              	.LBB63:
 1051              	.LBB64:
  54:src/kernel/../../h/kernel/slab_allocator.hpp ****             void* ret = allocateSlot(head);
 1052              		.loc 3 54 9 is_stmt 1
  54:src/kernel/../../h/kernel/slab_allocator.hpp ****             void* ret = allocateSlot(head);
 1053              		.loc 3 54 20
 1054 06e0 638C0400 		beqz	s1,.L60
 1055              	.LBB65:
  55:src/kernel/../../h/kernel/slab_allocator.hpp ****             if(ret != nullptr)
 1056              		.loc 3 55 13
  55:src/kernel/../../h/kernel/slab_allocator.hpp ****             if(ret != nullptr)
 1057              		.loc 3 55 37 is_stmt 0
 1058 06e4 13850400 		mv	a0,s1
 1059 06e8 97000000 		call	_ZN13SlabAllocator12allocateSlotEP4Slab
 1059      E7800000 
 1060              	.LVL100:
  56:src/kernel/../../h/kernel/slab_allocator.hpp ****                 return ret;
 1061              		.loc 3 56 13 is_stmt 1
 1062 06f0 E30805FE 		beqz	a0,.L61
 1063              		.loc 3 57 24 is_stmt 0
 1064 06f4 93040500 		mv	s1,a0
 1065              	.LVL101:
 1066              	.L60:
GAS LISTING /tmp/ccpqtpVf.s 			page 30


 1067              	.LBE65:
 1068              	.LBE64:
 1069              	.LBE63:
  85:src/kernel/slab_allocator.cpp ****     if(ret){
 1070              		.loc 1 85 5 is_stmt 1
 1071 06f8 E39204FC 		bnez	s1,.L56
  88:src/kernel/slab_allocator.cpp ****     if(cache->objectSize <= sizeof(Slab)) {
 1072              		.loc 1 88 5
 1073              	.LBB66:
  88:src/kernel/slab_allocator.cpp ****     if(cache->objectSize <= sizeof(Slab)) {
 1074              		.loc 1 88 15 is_stmt 0
 1075 06fc 03370904 		ld	a4,64(s2)
  88:src/kernel/slab_allocator.cpp ****     if(cache->objectSize <= sizeof(Slab)) {
 1076              		.loc 1 88 5
 1077 0700 9307000B 		li	a5,176
 1078 0704 63E4E702 		bgtu	a4,a5,.L62
  89:src/kernel/slab_allocator.cpp ****         if (!SlabAllocator::allocateSlab(cache))
 1079              		.loc 1 89 9 is_stmt 1
  89:src/kernel/slab_allocator.cpp ****         if (!SlabAllocator::allocateSlab(cache))
 1080              		.loc 1 89 41 is_stmt 0
 1081 0708 13050900 		mv	a0,s2
 1082 070c 97000000 		call	_ZN13SlabAllocator12allocateSlabEP5Cache
 1082      E7800000 
 1083              	.LVL102:
  89:src/kernel/slab_allocator.cpp ****         if (!SlabAllocator::allocateSlab(cache))
 1084              		.loc 1 89 9
 1085 0714 E30405FA 		beqz	a0,.L56
  92:src/kernel/slab_allocator.cpp ****         ret = SlabAllocator::allocateSlot(cache->emptyHead);
 1086              		.loc 1 92 9 is_stmt 1
  92:src/kernel/slab_allocator.cpp ****         ret = SlabAllocator::allocateSlot(cache->emptyHead);
 1087              		.loc 1 92 42 is_stmt 0
 1088 0718 03350906 		ld	a0,96(s2)
 1089 071c 97000000 		call	_ZN13SlabAllocator12allocateSlotEP4Slab
 1089      E7800000 
 1090              	.LVL103:
 1091 0724 93040500 		mv	s1,a0
 1092              	.LVL104:
 1093 0728 6FF05FF9 		j	.L56
 1094              	.L62:
 1095              	.LBB67:
  95:src/kernel/slab_allocator.cpp ****         Slab* slab = (Slab*)SlabAllocator::allocateObject(largeSlabCache);
 1096              		.loc 1 95 9 is_stmt 1
  95:src/kernel/slab_allocator.cpp ****         Slab* slab = (Slab*)SlabAllocator::allocateObject(largeSlabCache);
 1097              		.loc 1 95 58 is_stmt 0
 1098 072c 17050000 		ld	a0,.LANCHOR0
 1098      03350500 
 1099 0734 97000000 		call	_ZN13SlabAllocator14allocateObjectEP5Cache
 1099      E7800000 
 1100              	.LVL105:
 1101 073c 93040500 		mv	s1,a0
 1102              	.LVL106:
  96:src/kernel/slab_allocator.cpp ****         slab->totalNumOfSlots = slab->numOfFreeSlots = (((1<<cache->slabSize) << BLOCK_SIZE_BITS)) 
 1103              		.loc 1 96 9 is_stmt 1
  96:src/kernel/slab_allocator.cpp ****         slab->totalNumOfSlots = slab->numOfFreeSlots = (((1<<cache->slabSize) << BLOCK_SIZE_BITS)) 
 1104              		.loc 1 96 69 is_stmt 0
 1105 0740 03378904 		ld	a4,72(s2)
  96:src/kernel/slab_allocator.cpp ****         slab->totalNumOfSlots = slab->numOfFreeSlots = (((1<<cache->slabSize) << BLOCK_SIZE_BITS)) 
GAS LISTING /tmp/ccpqtpVf.s 			page 31


 1106              		.loc 1 96 60
 1107 0744 93071000 		li	a5,1
 1108 0748 BB97E700 		sllw	a5,a5,a4
  96:src/kernel/slab_allocator.cpp ****         slab->totalNumOfSlots = slab->numOfFreeSlots = (((1<<cache->slabSize) << BLOCK_SIZE_BITS)) 
 1109              		.loc 1 96 79
 1110 074c 9B97C700 		slliw	a5,a5,12
  96:src/kernel/slab_allocator.cpp ****         slab->totalNumOfSlots = slab->numOfFreeSlots = (((1<<cache->slabSize) << BLOCK_SIZE_BITS)) 
 1111              		.loc 1 96 109
 1112 0750 03370904 		ld	a4,64(s2)
  96:src/kernel/slab_allocator.cpp ****         slab->totalNumOfSlots = slab->numOfFreeSlots = (((1<<cache->slabSize) << BLOCK_SIZE_BITS)) 
 1113              		.loc 1 96 100
 1114 0754 B3D7E702 		divu	a5,a5,a4
  96:src/kernel/slab_allocator.cpp ****         slab->totalNumOfSlots = slab->numOfFreeSlots = (((1<<cache->slabSize) << BLOCK_SIZE_BITS)) 
 1115              		.loc 1 96 54
 1116 0758 2338F500 		sd	a5,16(a0)
  96:src/kernel/slab_allocator.cpp ****         slab->totalNumOfSlots = slab->numOfFreeSlots = (((1<<cache->slabSize) << BLOCK_SIZE_BITS)) 
 1117              		.loc 1 96 31
 1118 075c 233CF500 		sd	a5,24(a0)
  97:src/kernel/slab_allocator.cpp ****         if(slab->totalNumOfSlots > MAX_NUMBER_OF_SLOTS)
 1119              		.loc 1 97 9 is_stmt 1
 1120 0760 13070040 		li	a4,1024
 1121 0764 6378F700 		bleu	a5,a4,.L63
  98:src/kernel/slab_allocator.cpp ****             slab->totalNumOfSlots = slab->numOfFreeSlots = MAX_NUMBER_OF_SLOTS;
 1122              		.loc 1 98 13
  98:src/kernel/slab_allocator.cpp ****             slab->totalNumOfSlots = slab->numOfFreeSlots = MAX_NUMBER_OF_SLOTS;
 1123              		.loc 1 98 58 is_stmt 0
 1124 0768 93070040 		li	a5,1024
 1125 076c 2338F500 		sd	a5,16(a0)
  98:src/kernel/slab_allocator.cpp ****             slab->totalNumOfSlots = slab->numOfFreeSlots = MAX_NUMBER_OF_SLOTS;
 1126              		.loc 1 98 35
 1127 0770 233CF500 		sd	a5,24(a0)
 1128              	.L63:
  99:src/kernel/slab_allocator.cpp ****         void* slabOffset = Buddy::alloc(cache->slabSize);
 1129              		.loc 1 99 9 is_stmt 1
  99:src/kernel/slab_allocator.cpp ****         void* slabOffset = Buddy::alloc(cache->slabSize);
 1130              		.loc 1 99 40 is_stmt 0
 1131 0774 03358904 		ld	a0,72(s2)
 1132 0778 97000000 		call	_ZN5Buddy5allocEm@plt
 1132      E7800000 
 1133              	.LVL107:
 100:src/kernel/slab_allocator.cpp ****         slab->objectOffset = slabOffset;
 1134              		.loc 1 100 9 is_stmt 1
 100:src/kernel/slab_allocator.cpp ****         slab->objectOffset = slabOffset;
 1135              		.loc 1 100 28 is_stmt 0
 1136 0780 23B0A40A 		sd	a0,160(s1)
 101:src/kernel/slab_allocator.cpp ****         slab->parent = cache;
 1137              		.loc 1 101 9 is_stmt 1
 101:src/kernel/slab_allocator.cpp ****         slab->parent = cache;
 1138              		.loc 1 101 22 is_stmt 0
 1139 0784 23B4240B 		sd	s2,168(s1)
 102:src/kernel/slab_allocator.cpp ****         slab->next = nullptr;
 1140              		.loc 1 102 9 is_stmt 1
 102:src/kernel/slab_allocator.cpp ****         slab->next = nullptr;
 1141              		.loc 1 102 20 is_stmt 0
 1142 0788 23B40400 		sd	zero,8(s1)
 103:src/kernel/slab_allocator.cpp ****         for(uint64 i=0;i<(slab->totalNumOfSlots+7)/8;i++)
 1143              		.loc 1 103 9 is_stmt 1
GAS LISTING /tmp/ccpqtpVf.s 			page 32


 1144              	.LVL108:
 1145              	.LBB68:
 103:src/kernel/slab_allocator.cpp ****         for(uint64 i=0;i<(slab->totalNumOfSlots+7)/8;i++)
 1146              		.loc 1 103 20 is_stmt 0
 1147 078c 13070000 		li	a4,0
 1148              	.LVL109:
 1149              	.L65:
 103:src/kernel/slab_allocator.cpp ****         for(uint64 i=0;i<(slab->totalNumOfSlots+7)/8;i++)
 1150              		.loc 1 103 25 is_stmt 1 discriminator 3
 103:src/kernel/slab_allocator.cpp ****         for(uint64 i=0;i<(slab->totalNumOfSlots+7)/8;i++)
 1151              		.loc 1 103 33 is_stmt 0 discriminator 3
 1152 0790 83B78401 		ld	a5,24(s1)
 103:src/kernel/slab_allocator.cpp ****         for(uint64 i=0;i<(slab->totalNumOfSlots+7)/8;i++)
 1153              		.loc 1 103 48 discriminator 3
 1154 0794 93877700 		addi	a5,a5,7
 103:src/kernel/slab_allocator.cpp ****         for(uint64 i=0;i<(slab->totalNumOfSlots+7)/8;i++)
 1155              		.loc 1 103 51 discriminator 3
 1156 0798 93D73700 		srli	a5,a5,3
 103:src/kernel/slab_allocator.cpp ****         for(uint64 i=0;i<(slab->totalNumOfSlots+7)/8;i++)
 1157              		.loc 1 103 25 discriminator 3
 1158 079c 637AF700 		bleu	a5,a4,.L64
 104:src/kernel/slab_allocator.cpp ****             slab->allocated[i] = 0;
 1159              		.loc 1 104 13 is_stmt 1 discriminator 2
 104:src/kernel/slab_allocator.cpp ****             slab->allocated[i] = 0;
 1160              		.loc 1 104 32 is_stmt 0 discriminator 2
 1161 07a0 B387E400 		add	a5,s1,a4
 1162 07a4 23800702 		sb	zero,32(a5)
 103:src/kernel/slab_allocator.cpp ****         for(uint64 i=0;i<(slab->totalNumOfSlots+7)/8;i++)
 1163              		.loc 1 103 9 is_stmt 1 discriminator 2
 1164 07a8 13071700 		addi	a4,a4,1
 1165              	.LVL110:
 1166 07ac 6FF05FFE 		j	.L65
 1167              	.L64:
 1168              	.LBE68:
 106:src/kernel/slab_allocator.cpp ****         if(cache->ctor) {
 1169              		.loc 1 106 9
 1170              	.LBB69:
 106:src/kernel/slab_allocator.cpp ****         if(cache->ctor) {
 1171              		.loc 1 106 19 is_stmt 0
 1172 07b0 83370905 		ld	a5,80(s2)
 106:src/kernel/slab_allocator.cpp ****         if(cache->ctor) {
 1173              		.loc 1 106 9
 1174 07b4 638A0702 		beqz	a5,.L66
 1175              	.LBB70:
 107:src/kernel/slab_allocator.cpp ****             for (uint64 i = 0; i < slab->totalNumOfSlots; i++) {
 1176              		.loc 1 107 25
 1177 07b8 93090000 		li	s3,0
 1178              	.LVL111:
 1179              	.L67:
 107:src/kernel/slab_allocator.cpp ****             for (uint64 i = 0; i < slab->totalNumOfSlots; i++) {
 1180              		.loc 1 107 34 is_stmt 1 discriminator 3
 107:src/kernel/slab_allocator.cpp ****             for (uint64 i = 0; i < slab->totalNumOfSlots; i++) {
 1181              		.loc 1 107 42 is_stmt 0 discriminator 3
 1182 07bc 83B78401 		ld	a5,24(s1)
 107:src/kernel/slab_allocator.cpp ****             for (uint64 i = 0; i < slab->totalNumOfSlots; i++) {
 1183              		.loc 1 107 34 discriminator 3
 1184 07c0 63F4F902 		bleu	a5,s3,.L66
GAS LISTING /tmp/ccpqtpVf.s 			page 33


 108:src/kernel/slab_allocator.cpp ****                 cache->ctor((void *) ((uint64) slab->objectOffset + i * slab->parent->objectSize));
 1185              		.loc 1 108 17 is_stmt 1 discriminator 2
 108:src/kernel/slab_allocator.cpp ****                 cache->ctor((void *) ((uint64) slab->objectOffset + i * slab->parent->objectSize));
 1186              		.loc 1 108 24 is_stmt 0 discriminator 2
 1187 07c4 03370905 		ld	a4,80(s2)
 108:src/kernel/slab_allocator.cpp ****                 cache->ctor((void *) ((uint64) slab->objectOffset + i * slab->parent->objectSize));
 1188              		.loc 1 108 54 discriminator 2
 1189 07c8 03B5040A 		ld	a0,160(s1)
 108:src/kernel/slab_allocator.cpp ****                 cache->ctor((void *) ((uint64) slab->objectOffset + i * slab->parent->objectSize));
 1190              		.loc 1 108 79 discriminator 2
 1191 07cc 83B7840A 		ld	a5,168(s1)
 108:src/kernel/slab_allocator.cpp ****                 cache->ctor((void *) ((uint64) slab->objectOffset + i * slab->parent->objectSize));
 1192              		.loc 1 108 87 discriminator 2
 1193 07d0 83B70704 		ld	a5,64(a5)
 108:src/kernel/slab_allocator.cpp ****                 cache->ctor((void *) ((uint64) slab->objectOffset + i * slab->parent->objectSize));
 1194              		.loc 1 108 71 discriminator 2
 1195 07d4 B3873703 		mul	a5,a5,s3
 108:src/kernel/slab_allocator.cpp ****                 cache->ctor((void *) ((uint64) slab->objectOffset + i * slab->parent->objectSize));
 1196              		.loc 1 108 28 discriminator 2
 1197 07d8 3305F500 		add	a0,a0,a5
 1198 07dc E7000700 		jalr	a4
 1199              	.LVL112:
 107:src/kernel/slab_allocator.cpp ****             for (uint64 i = 0; i < slab->totalNumOfSlots; i++) {
 1200              		.loc 1 107 13 is_stmt 1 discriminator 2
 1201 07e0 93891900 		addi	s3,s3,1
 1202              	.LVL113:
 1203 07e4 6FF09FFD 		j	.L67
 1204              	.LVL114:
 1205              	.L66:
 1206              	.LBE70:
 1207              	.LBE69:
 112:src/kernel/slab_allocator.cpp ****         SlabAllocator::insertIntoList(cache->emptyHead, slab);
 1208              		.loc 1 112 9
 112:src/kernel/slab_allocator.cpp ****         SlabAllocator::insertIntoList(cache->emptyHead, slab);
 1209              		.loc 1 112 38 is_stmt 0
 1210 07e8 93850400 		mv	a1,s1
 1211 07ec 13050906 		addi	a0,s2,96
 1212 07f0 97000000 		call	_ZN13SlabAllocator14insertIntoListERP4SlabS1_
 1212      E7800000 
 1213              	.LVL115:
 113:src/kernel/slab_allocator.cpp ****         ret = SlabAllocator::allocateSlot(cache->emptyHead);
 1214              		.loc 1 113 9 is_stmt 1
 113:src/kernel/slab_allocator.cpp ****         ret = SlabAllocator::allocateSlot(cache->emptyHead);
 1215              		.loc 1 113 42 is_stmt 0
 1216 07f8 03350906 		ld	a0,96(s2)
 1217 07fc 97000000 		call	_ZN13SlabAllocator12allocateSlotEP4Slab
 1217      E7800000 
 1218              	.LVL116:
 1219 0804 93040500 		mv	s1,a0
 1220              	.LVL117:
 1221 0808 6FF05FEB 		j	.L56
 1222              	.LBE67:
 1223              	.LBE66:
 1224              		.cfi_endproc
 1225              	.LFE35:
 1227              		.align	2
 1228              		.globl	_ZN13SlabAllocator14allocateBufferEm
GAS LISTING /tmp/ccpqtpVf.s 			page 34


 1230              	_ZN13SlabAllocator14allocateBufferEm:
 1231              	.LFB36:
 119:src/kernel/slab_allocator.cpp **** void* SlabAllocator::allocateBuffer(size_t size) {
 1232              		.loc 1 119 50 is_stmt 1
 1233              		.cfi_startproc
 1234              	.LVL118:
 120:src/kernel/slab_allocator.cpp ****     uint64 level = Buddy::getDeg(Buddy::ceil(size));
 1235              		.loc 1 120 5
 1236              	.LBB71:
 1237              	.LBB72:
 1238              		.file 4 "src/kernel/../../h/kernel/buddy_allocator.hpp"
   1:src/kernel/../../h/kernel/buddy_allocator.hpp **** //
   2:src/kernel/../../h/kernel/buddy_allocator.hpp **** // Created by os on 12/24/22.
   3:src/kernel/../../h/kernel/buddy_allocator.hpp **** //
   4:src/kernel/../../h/kernel/buddy_allocator.hpp **** 
   5:src/kernel/../../h/kernel/buddy_allocator.hpp **** #ifndef KERNEL_FOR_RISCV_ARCHITECURE_BUDDY_ALLOCATOR_HPP
   6:src/kernel/../../h/kernel/buddy_allocator.hpp **** #define KERNEL_FOR_RISCV_ARCHITECURE_BUDDY_ALLOCATOR_HPP
   7:src/kernel/../../h/kernel/buddy_allocator.hpp **** 
   8:src/kernel/../../h/kernel/buddy_allocator.hpp **** #include "../../lib/hw.h"
   9:src/kernel/../../h/kernel/buddy_allocator.hpp **** #include "utility.hpp"
  10:src/kernel/../../h/kernel/buddy_allocator.hpp **** 
  11:src/kernel/../../h/kernel/buddy_allocator.hpp **** class SlabAllocator;
  12:src/kernel/../../h/kernel/buddy_allocator.hpp **** 
  13:src/kernel/../../h/kernel/buddy_allocator.hpp **** class Buddy{
  14:src/kernel/../../h/kernel/buddy_allocator.hpp **** public:
  15:src/kernel/../../h/kernel/buddy_allocator.hpp ****     static void initialize(void* addr, uint64 block_num);
  16:src/kernel/../../h/kernel/buddy_allocator.hpp **** 
  17:src/kernel/../../h/kernel/buddy_allocator.hpp ****     static void* alloc(uint64 num);
  18:src/kernel/../../h/kernel/buddy_allocator.hpp **** 
  19:src/kernel/../../h/kernel/buddy_allocator.hpp ****     static void free(void *addr, uint64 size);
  20:src/kernel/../../h/kernel/buddy_allocator.hpp **** 
  21:src/kernel/../../h/kernel/buddy_allocator.hpp ****     typedef struct Block{
  22:src/kernel/../../h/kernel/buddy_allocator.hpp ****         Block *next;
  23:src/kernel/../../h/kernel/buddy_allocator.hpp ****     }Bucket;
  24:src/kernel/../../h/kernel/buddy_allocator.hpp **** 
  25:src/kernel/../../h/kernel/buddy_allocator.hpp ****     static void printList();
  26:src/kernel/../../h/kernel/buddy_allocator.hpp **** 
  27:src/kernel/../../h/kernel/buddy_allocator.hpp ****     static inline bool canAllocate(uint64 size){
  28:src/kernel/../../h/kernel/buddy_allocator.hpp ****         return head[size] != nullptr;
  29:src/kernel/../../h/kernel/buddy_allocator.hpp ****     };
  30:src/kernel/../../h/kernel/buddy_allocator.hpp **** 
  31:src/kernel/../../h/kernel/buddy_allocator.hpp **** private:
  32:src/kernel/../../h/kernel/buddy_allocator.hpp ****     static void* BUDDY_META_DATA_ADDR;
  33:src/kernel/../../h/kernel/buddy_allocator.hpp ****     static void* BUDDY_START_ADDR;
  34:src/kernel/../../h/kernel/buddy_allocator.hpp ****     static uint64 BLOCKS_AVAILABLE;
  35:src/kernel/../../h/kernel/buddy_allocator.hpp ****     static Bucket *head[BUCKET_SIZE], *tail[BUCKET_SIZE];
  36:src/kernel/../../h/kernel/buddy_allocator.hpp **** 
  37:src/kernel/../../h/kernel/buddy_allocator.hpp ****     static inline uint64 ceil(uint64 num){
  38:src/kernel/../../h/kernel/buddy_allocator.hpp ****         num--;
 1239              		.loc 4 38 9
 1240              		.loc 4 38 12 is_stmt 0
 1241 080c 9307F5FF 		addi	a5,a0,-1
 1242              	.LVL119:
  39:src/kernel/../../h/kernel/buddy_allocator.hpp ****         num |= num>>1;
 1243              		.loc 4 39 9 is_stmt 1
 1244              		.loc 4 39 19 is_stmt 0
 1245 0810 13D51700 		srli	a0,a5,1
GAS LISTING /tmp/ccpqtpVf.s 			page 35


 1246              	.LVL120:
 1247              		.loc 4 39 13
 1248 0814 B3E7A700 		or	a5,a5,a0
 1249              	.LVL121:
  40:src/kernel/../../h/kernel/buddy_allocator.hpp ****         num |= num>>2;
 1250              		.loc 4 40 9 is_stmt 1
 1251              		.loc 4 40 19 is_stmt 0
 1252 0818 13D72700 		srli	a4,a5,2
 1253              		.loc 4 40 13
 1254 081c B3E7E700 		or	a5,a5,a4
 1255              	.LVL122:
  41:src/kernel/../../h/kernel/buddy_allocator.hpp ****         num |= num>>4;
 1256              		.loc 4 41 9 is_stmt 1
 1257              		.loc 4 41 19 is_stmt 0
 1258 0820 13D74700 		srli	a4,a5,4
 1259              		.loc 4 41 13
 1260 0824 B3E7E700 		or	a5,a5,a4
 1261              	.LVL123:
  42:src/kernel/../../h/kernel/buddy_allocator.hpp ****         num |= num>>8;
 1262              		.loc 4 42 9 is_stmt 1
 1263              		.loc 4 42 19 is_stmt 0
 1264 0828 13D78700 		srli	a4,a5,8
 1265              		.loc 4 42 13
 1266 082c B3E7E700 		or	a5,a5,a4
 1267              	.LVL124:
  43:src/kernel/../../h/kernel/buddy_allocator.hpp ****         num |= num>>16;
 1268              		.loc 4 43 9 is_stmt 1
 1269              		.loc 4 43 19 is_stmt 0
 1270 0830 13D70701 		srli	a4,a5,16
 1271              		.loc 4 43 13
 1272 0834 B3E7E700 		or	a5,a5,a4
 1273              	.LVL125:
  44:src/kernel/../../h/kernel/buddy_allocator.hpp ****         num |= num>>32;
 1274              		.loc 4 44 9 is_stmt 1
 1275              		.loc 4 44 19 is_stmt 0
 1276 0838 13D70702 		srli	a4,a5,32
 1277              		.loc 4 44 13
 1278 083c B3E7E700 		or	a5,a5,a4
 1279              	.LVL126:
  45:src/kernel/../../h/kernel/buddy_allocator.hpp ****         return ++num;
 1280              		.loc 4 45 9 is_stmt 1
 1281              		.loc 4 45 18 is_stmt 0
 1282 0840 93871700 		addi	a5,a5,1
 1283              	.LVL127:
 1284              	.LBE72:
 1285              	.LBE71:
 1286              	.LBB73:
 1287              	.LBB74:
  46:src/kernel/../../h/kernel/buddy_allocator.hpp ****     }
  47:src/kernel/../../h/kernel/buddy_allocator.hpp **** 
  48:src/kernel/../../h/kernel/buddy_allocator.hpp ****     static inline uint64 getDeg(uint64 num){
  49:src/kernel/../../h/kernel/buddy_allocator.hpp ****         uint64 deg = 0;
 1288              		.loc 4 49 16
 1289 0844 13070000 		li	a4,0
 1290              	.L72:
 1291              	.LVL128:
  50:src/kernel/../../h/kernel/buddy_allocator.hpp ****         while(num>1){
GAS LISTING /tmp/ccpqtpVf.s 			page 36


 1292              		.loc 4 50 9 is_stmt 1
 1293              		.loc 4 50 18
 1294 0848 93061000 		li	a3,1
 1295 084c 63F8F600 		bleu	a5,a3,.L71
  51:src/kernel/../../h/kernel/buddy_allocator.hpp ****             num/=2;
 1296              		.loc 4 51 13
 1297              		.loc 4 51 16 is_stmt 0
 1298 0850 93D71700 		srli	a5,a5,1
 1299              	.LVL129:
  52:src/kernel/../../h/kernel/buddy_allocator.hpp ****             deg++;
 1300              		.loc 4 52 13 is_stmt 1
 1301              		.loc 4 52 16 is_stmt 0
 1302 0854 13071700 		addi	a4,a4,1
 1303              	.LVL130:
  50:src/kernel/../../h/kernel/buddy_allocator.hpp ****         while(num>1){
 1304              		.loc 4 50 9
 1305 0858 6FF01FFF 		j	.L72
 1306              	.L71:
  53:src/kernel/../../h/kernel/buddy_allocator.hpp ****         }
  54:src/kernel/../../h/kernel/buddy_allocator.hpp ****         return deg;
 1307              		.loc 4 54 9 is_stmt 1
 1308              	.LVL131:
 1309              	.LBE74:
 1310              	.LBE73:
 121:src/kernel/slab_allocator.cpp ****     if(level < CACHE_LOWER_BOUND || level > CACHE_UPPER_BOUND)
 1311              		.loc 1 121 5
 121:src/kernel/slab_allocator.cpp ****     if(level < CACHE_LOWER_BOUND || level > CACHE_UPPER_BOUND)
 1312              		.loc 1 121 34 is_stmt 0
 1313 085c 1307B7FF 		addi	a4,a4,-5
 1314              	.LVL132:
 121:src/kernel/slab_allocator.cpp ****     if(level < CACHE_LOWER_BOUND || level > CACHE_UPPER_BOUND)
 1315              		.loc 1 121 5
 1316 0860 9307C000 		li	a5,12
 1317 0864 63E0E704 		bgtu	a4,a5,.L74
 119:src/kernel/slab_allocator.cpp **** void* SlabAllocator::allocateBuffer(size_t size) {
 1318              		.loc 1 119 50
 1319 0868 130101FF 		addi	sp,sp,-16
 1320              		.cfi_def_cfa_offset 16
 1321 086c 23341100 		sd	ra,8(sp)
 1322 0870 23308100 		sd	s0,0(sp)
 1323              		.cfi_offset 1, -8
 1324              		.cfi_offset 8, -16
 1325 0874 13040101 		addi	s0,sp,16
 1326              		.cfi_def_cfa 8, 0
 124:src/kernel/slab_allocator.cpp ****         level -= CACHE_LOWER_BOUND;
 1327              		.loc 1 124 9 is_stmt 1
 1328              	.LVL133:
 125:src/kernel/slab_allocator.cpp ****     return SlabAllocator::allocateObject(sizeN[level]);
 1329              		.loc 1 125 5
 125:src/kernel/slab_allocator.cpp ****     return SlabAllocator::allocateObject(sizeN[level]);
 1330              		.loc 1 125 41 is_stmt 0
 1331 0878 13173700 		slli	a4,a4,3
 1332              	.LVL134:
 1333 087c 97070000 		lla	a5,.LANCHOR0
 1333      93870700 
 1334 0884 3387E700 		add	a4,a5,a4
 1335 0888 03358700 		ld	a0,8(a4)
GAS LISTING /tmp/ccpqtpVf.s 			page 37


 1336 088c 97000000 		call	_ZN13SlabAllocator14allocateObjectEP5Cache
 1336      E7800000 
 1337              	.LVL135:
 126:src/kernel/slab_allocator.cpp **** }
 1338              		.loc 1 126 1
 1339 0894 83308100 		ld	ra,8(sp)
 1340              		.cfi_restore 1
 1341 0898 03340100 		ld	s0,0(sp)
 1342              		.cfi_restore 8
 1343              		.cfi_def_cfa 2, 16
 1344 089c 13010101 		addi	sp,sp,16
 1345              		.cfi_def_cfa_offset 0
 1346 08a0 67800000 		jr	ra
 1347              	.LVL136:
 1348              	.L74:
 122:src/kernel/slab_allocator.cpp ****         return nullptr;
 1349              		.loc 1 122 16
 1350 08a4 13050000 		li	a0,0
 126:src/kernel/slab_allocator.cpp **** }
 1351              		.loc 1 126 1
 1352 08a8 67800000 		ret
 1353              		.cfi_endproc
 1354              	.LFE36:
 1356              		.align	2
 1357              		.globl	_ZN13SlabAllocator11createCacheEPKcmPFvPvES4_
 1359              	_ZN13SlabAllocator11createCacheEPKcmPFvPvES4_:
 1360              	.LFB40:
 172:src/kernel/slab_allocator.cpp **** Cache* SlabAllocator::createCache(const char *name, size_t size, void (*ctor)(void *), void (*dtor)
 1361              		.loc 1 172 110 is_stmt 1
 1362              		.cfi_startproc
 1363              	.LVL137:
 1364 08ac 130101FC 		addi	sp,sp,-64
 1365              		.cfi_def_cfa_offset 64
 1366 08b0 233C1102 		sd	ra,56(sp)
 1367 08b4 23388102 		sd	s0,48(sp)
 1368 08b8 23349102 		sd	s1,40(sp)
 1369 08bc 23302103 		sd	s2,32(sp)
 1370 08c0 233C3101 		sd	s3,24(sp)
 1371 08c4 23384101 		sd	s4,16(sp)
 1372 08c8 23345101 		sd	s5,8(sp)
 1373              		.cfi_offset 1, -8
 1374              		.cfi_offset 8, -16
 1375              		.cfi_offset 9, -24
 1376              		.cfi_offset 18, -32
 1377              		.cfi_offset 19, -40
 1378              		.cfi_offset 20, -48
 1379              		.cfi_offset 21, -56
 1380 08cc 13040104 		addi	s0,sp,64
 1381              		.cfi_def_cfa 8, 0
 1382 08d0 93090500 		mv	s3,a0
 1383 08d4 13890500 		mv	s2,a1
 1384 08d8 930A0600 		mv	s5,a2
 1385 08dc 138A0600 		mv	s4,a3
 173:src/kernel/slab_allocator.cpp ****     Cache* ret = (Cache*)SlabAllocator::allocateObject(SlabAllocator::cache);
 1386              		.loc 1 173 5
 173:src/kernel/slab_allocator.cpp ****     Cache* ret = (Cache*)SlabAllocator::allocateObject(SlabAllocator::cache);
 1387              		.loc 1 173 55 is_stmt 0
GAS LISTING /tmp/ccpqtpVf.s 			page 38


 1388 08e0 17050000 		ld	a0,.LANCHOR0+112
 1388      03350500 
 1389              	.LVL138:
 1390 08e8 97000000 		call	_ZN13SlabAllocator14allocateObjectEP5Cache
 1390      E7800000 
 1391              	.LVL139:
 1392 08f0 93040500 		mv	s1,a0
 1393              	.LVL140:
 174:src/kernel/slab_allocator.cpp ****     if(ret == nullptr)
 1394              		.loc 1 174 5 is_stmt 1
 1395 08f4 63080508 		beqz	a0,.L79
 176:src/kernel/slab_allocator.cpp ****     ret->ctor = ctor;
 1396              		.loc 1 176 5
 176:src/kernel/slab_allocator.cpp ****     ret->ctor = ctor;
 1397              		.loc 1 176 15 is_stmt 0
 1398 08f8 23385505 		sd	s5,80(a0)
 177:src/kernel/slab_allocator.cpp ****     ret->dtor = dtor;
 1399              		.loc 1 177 5 is_stmt 1
 177:src/kernel/slab_allocator.cpp ****     ret->dtor = dtor;
 1400              		.loc 1 177 15 is_stmt 0
 1401 08fc 233C4505 		sd	s4,88(a0)
 178:src/kernel/slab_allocator.cpp ****     ret->emptyHead = ret->partialHead = ret->fullHead = nullptr;
 1402              		.loc 1 178 5 is_stmt 1
 178:src/kernel/slab_allocator.cpp ****     ret->emptyHead = ret->partialHead = ret->fullHead = nullptr;
 1403              		.loc 1 178 55 is_stmt 0
 1404 0900 23380506 		sd	zero,112(a0)
 178:src/kernel/slab_allocator.cpp ****     ret->emptyHead = ret->partialHead = ret->fullHead = nullptr;
 1405              		.loc 1 178 39
 1406 0904 23340506 		sd	zero,104(a0)
 178:src/kernel/slab_allocator.cpp ****     ret->emptyHead = ret->partialHead = ret->fullHead = nullptr;
 1407              		.loc 1 178 20
 1408 0908 23300506 		sd	zero,96(a0)
 179:src/kernel/slab_allocator.cpp ****     ret->objectSize = size;
 1409              		.loc 1 179 5 is_stmt 1
 179:src/kernel/slab_allocator.cpp ****     ret->objectSize = size;
 1410              		.loc 1 179 21 is_stmt 0
 1411 090c 23302505 		sd	s2,64(a0)
 180:src/kernel/slab_allocator.cpp ****     int deg = Buddy::getDeg(Buddy::ceil(size));
 1412              		.loc 1 180 5 is_stmt 1
 1413              	.LVL141:
 1414              	.LBB75:
 1415              	.LBB76:
  38:src/kernel/../../h/kernel/buddy_allocator.hpp ****         num |= num>>1;
 1416              		.loc 4 38 9
  38:src/kernel/../../h/kernel/buddy_allocator.hpp ****         num |= num>>1;
 1417              		.loc 4 38 12 is_stmt 0
 1418 0910 9307F9FF 		addi	a5,s2,-1
 1419              	.LVL142:
  39:src/kernel/../../h/kernel/buddy_allocator.hpp ****         num |= num>>2;
 1420              		.loc 4 39 9 is_stmt 1
  39:src/kernel/../../h/kernel/buddy_allocator.hpp ****         num |= num>>2;
 1421              		.loc 4 39 19 is_stmt 0
 1422 0914 13D71700 		srli	a4,a5,1
  39:src/kernel/../../h/kernel/buddy_allocator.hpp ****         num |= num>>2;
 1423              		.loc 4 39 13
 1424 0918 B3E7E700 		or	a5,a5,a4
 1425              	.LVL143:
GAS LISTING /tmp/ccpqtpVf.s 			page 39


  40:src/kernel/../../h/kernel/buddy_allocator.hpp ****         num |= num>>4;
 1426              		.loc 4 40 9 is_stmt 1
  40:src/kernel/../../h/kernel/buddy_allocator.hpp ****         num |= num>>4;
 1427              		.loc 4 40 19 is_stmt 0
 1428 091c 13D72700 		srli	a4,a5,2
  40:src/kernel/../../h/kernel/buddy_allocator.hpp ****         num |= num>>4;
 1429              		.loc 4 40 13
 1430 0920 B3E7E700 		or	a5,a5,a4
 1431              	.LVL144:
  41:src/kernel/../../h/kernel/buddy_allocator.hpp ****         num |= num>>8;
 1432              		.loc 4 41 9 is_stmt 1
  41:src/kernel/../../h/kernel/buddy_allocator.hpp ****         num |= num>>8;
 1433              		.loc 4 41 19 is_stmt 0
 1434 0924 13D74700 		srli	a4,a5,4
  41:src/kernel/../../h/kernel/buddy_allocator.hpp ****         num |= num>>8;
 1435              		.loc 4 41 13
 1436 0928 B3E7E700 		or	a5,a5,a4
 1437              	.LVL145:
  42:src/kernel/../../h/kernel/buddy_allocator.hpp ****         num |= num>>16;
 1438              		.loc 4 42 9 is_stmt 1
  42:src/kernel/../../h/kernel/buddy_allocator.hpp ****         num |= num>>16;
 1439              		.loc 4 42 19 is_stmt 0
 1440 092c 13D78700 		srli	a4,a5,8
  42:src/kernel/../../h/kernel/buddy_allocator.hpp ****         num |= num>>16;
 1441              		.loc 4 42 13
 1442 0930 B3E7E700 		or	a5,a5,a4
 1443              	.LVL146:
  43:src/kernel/../../h/kernel/buddy_allocator.hpp ****         num |= num>>32;
 1444              		.loc 4 43 9 is_stmt 1
  43:src/kernel/../../h/kernel/buddy_allocator.hpp ****         num |= num>>32;
 1445              		.loc 4 43 19 is_stmt 0
 1446 0934 13D70701 		srli	a4,a5,16
  43:src/kernel/../../h/kernel/buddy_allocator.hpp ****         num |= num>>32;
 1447              		.loc 4 43 13
 1448 0938 B3E7E700 		or	a5,a5,a4
 1449              	.LVL147:
  44:src/kernel/../../h/kernel/buddy_allocator.hpp ****         return ++num;
 1450              		.loc 4 44 9 is_stmt 1
  44:src/kernel/../../h/kernel/buddy_allocator.hpp ****         return ++num;
 1451              		.loc 4 44 19 is_stmt 0
 1452 093c 13D70702 		srli	a4,a5,32
  44:src/kernel/../../h/kernel/buddy_allocator.hpp ****         return ++num;
 1453              		.loc 4 44 13
 1454 0940 B3E7E700 		or	a5,a5,a4
 1455              	.LVL148:
  45:src/kernel/../../h/kernel/buddy_allocator.hpp ****     }
 1456              		.loc 4 45 9 is_stmt 1
  45:src/kernel/../../h/kernel/buddy_allocator.hpp ****     }
 1457              		.loc 4 45 18 is_stmt 0
 1458 0944 93871700 		addi	a5,a5,1
 1459              	.LVL149:
 1460              	.LBE76:
 1461              	.LBE75:
 1462              	.LBB77:
 1463              	.LBB78:
  49:src/kernel/../../h/kernel/buddy_allocator.hpp ****         while(num>1){
 1464              		.loc 4 49 16
GAS LISTING /tmp/ccpqtpVf.s 			page 40


 1465 0948 13070000 		li	a4,0
 1466              	.L82:
 1467              	.LVL150:
  50:src/kernel/../../h/kernel/buddy_allocator.hpp ****             num/=2;
 1468              		.loc 4 50 9 is_stmt 1
  50:src/kernel/../../h/kernel/buddy_allocator.hpp ****             num/=2;
 1469              		.loc 4 50 18
 1470 094c 93061000 		li	a3,1
 1471 0950 63F8F600 		bleu	a5,a3,.L81
  51:src/kernel/../../h/kernel/buddy_allocator.hpp ****             deg++;
 1472              		.loc 4 51 13
  51:src/kernel/../../h/kernel/buddy_allocator.hpp ****             deg++;
 1473              		.loc 4 51 16 is_stmt 0
 1474 0954 93D71700 		srli	a5,a5,1
 1475              	.LVL151:
  52:src/kernel/../../h/kernel/buddy_allocator.hpp ****         }
 1476              		.loc 4 52 13 is_stmt 1
  52:src/kernel/../../h/kernel/buddy_allocator.hpp ****         }
 1477              		.loc 4 52 16 is_stmt 0
 1478 0958 13071700 		addi	a4,a4,1
 1479              	.LVL152:
  50:src/kernel/../../h/kernel/buddy_allocator.hpp ****             num/=2;
 1480              		.loc 4 50 9
 1481 095c 6FF01FFF 		j	.L82
 1482              	.L81:
 1483              		.loc 4 54 9 is_stmt 1
 1484              	.LVL153:
 1485              	.LBE78:
 1486              	.LBE77:
 180:src/kernel/slab_allocator.cpp ****     int deg = Buddy::getDeg(Buddy::ceil(size));
 1487              		.loc 1 180 46 is_stmt 0
 1488 0960 1B070700 		sext.w	a4,a4
 1489              	.LVL154:
 181:src/kernel/slab_allocator.cpp ****     if(size <= sizeof(Slab)){
 1490              		.loc 1 181 5 is_stmt 1
 1491 0964 9307000B 		li	a5,176
 1492 0968 63E22705 		bgtu	s2,a5,.L83
 182:src/kernel/slab_allocator.cpp ****         ret->slabSize = SMALL_CACHE_DEFAULT_SLAB_SIZE;
 1493              		.loc 1 182 9
 182:src/kernel/slab_allocator.cpp ****         ret->slabSize = SMALL_CACHE_DEFAULT_SLAB_SIZE;
 1494              		.loc 1 182 23 is_stmt 0
 1495 096c 93071000 		li	a5,1
 1496 0970 23B4F404 		sd	a5,72(s1)
 1497              	.LVL155:
 1498              	.L84:
 188:src/kernel/slab_allocator.cpp ****     strcpy(name, ret->name);
 1499              		.loc 1 188 5 is_stmt 1
 188:src/kernel/slab_allocator.cpp ****     strcpy(name, ret->name);
 1500              		.loc 1 188 11 is_stmt 0
 1501 0974 93850400 		mv	a1,s1
 1502 0978 13850900 		mv	a0,s3
 1503 097c 97000000 		call	_Z6strcpyPKcPc@plt
 1503      E7800000 
 1504              	.LVL156:
 189:src/kernel/slab_allocator.cpp ****     return ret;
 1505              		.loc 1 189 5 is_stmt 1
 1506              	.L79:
GAS LISTING /tmp/ccpqtpVf.s 			page 41


 190:src/kernel/slab_allocator.cpp **** }
 1507              		.loc 1 190 1 is_stmt 0
 1508 0984 13850400 		mv	a0,s1
 1509 0988 83308103 		ld	ra,56(sp)
 1510              		.cfi_remember_state
 1511              		.cfi_restore 1
 1512 098c 03340103 		ld	s0,48(sp)
 1513              		.cfi_restore 8
 1514              		.cfi_def_cfa 2, 64
 1515 0990 83348102 		ld	s1,40(sp)
 1516              		.cfi_restore 9
 1517              	.LVL157:
 1518 0994 03390102 		ld	s2,32(sp)
 1519              		.cfi_restore 18
 1520              	.LVL158:
 1521 0998 83398101 		ld	s3,24(sp)
 1522              		.cfi_restore 19
 1523              	.LVL159:
 1524 099c 033A0101 		ld	s4,16(sp)
 1525              		.cfi_restore 20
 1526              	.LVL160:
 1527 09a0 833A8100 		ld	s5,8(sp)
 1528              		.cfi_restore 21
 1529              	.LVL161:
 1530 09a4 13010104 		addi	sp,sp,64
 1531              		.cfi_def_cfa_offset 0
 1532 09a8 67800000 		jr	ra
 1533              	.LVL162:
 1534              	.L83:
 1535              		.cfi_restore_state
 185:src/kernel/slab_allocator.cpp ****         deg-=10;
 1536              		.loc 1 185 9 is_stmt 1
 185:src/kernel/slab_allocator.cpp ****         deg-=10;
 1537              		.loc 1 185 12 is_stmt 0
 1538 09ac 1B0767FF 		addiw	a4,a4,-10
 1539              	.LVL163:
 186:src/kernel/slab_allocator.cpp ****         ret->slabSize = deg;
 1540              		.loc 1 186 9 is_stmt 1
 186:src/kernel/slab_allocator.cpp ****         ret->slabSize = deg;
 1541              		.loc 1 186 23 is_stmt 0
 1542 09b0 23B4E404 		sd	a4,72(s1)
 1543 09b4 6FF01FFC 		j	.L84
 1544              		.cfi_endproc
 1545              	.LFE40:
 1547              		.section	.rodata.str1.8
 1548 013c 00000000 		.align	3
 1549              	.LC17:
 1550 0140 4D61696E 		.string	"Main Cache"
 1550      20436163 
 1550      686500
 1551 014b 00000000 		.align	3
 1551      00
 1552              	.LC18:
 1553 0150 4C617267 		.string	"Large Slab Cache"
 1553      6520536C 
 1553      61622043 
 1553      61636865 
GAS LISTING /tmp/ccpqtpVf.s 			page 42


 1553      00
 1554              		.text
 1555              		.align	2
 1556              		.globl	_ZN13SlabAllocator10initializeEPvm
 1558              	_ZN13SlabAllocator10initializeEPvm:
 1559              	.LFB32:
  13:src/kernel/slab_allocator.cpp **** void SlabAllocator::initialize(void* space, uint64 blockNum) {
 1560              		.loc 1 13 62 is_stmt 1
 1561              		.cfi_startproc
 1562              	.LVL164:
 1563 09b8 130101FE 		addi	sp,sp,-32
 1564              		.cfi_def_cfa_offset 32
 1565 09bc 233C1100 		sd	ra,24(sp)
 1566 09c0 23388100 		sd	s0,16(sp)
 1567 09c4 23349100 		sd	s1,8(sp)
 1568 09c8 23302101 		sd	s2,0(sp)
 1569              		.cfi_offset 1, -8
 1570              		.cfi_offset 8, -16
 1571              		.cfi_offset 9, -24
 1572              		.cfi_offset 18, -32
 1573 09cc 13040102 		addi	s0,sp,32
 1574              		.cfi_def_cfa 8, 0
  14:src/kernel/slab_allocator.cpp ****     Buddy::initialize(space, blockNum);
 1575              		.loc 1 14 5
  14:src/kernel/slab_allocator.cpp ****     Buddy::initialize(space, blockNum);
 1576              		.loc 1 14 22 is_stmt 0
 1577 09d0 97000000 		call	_ZN5Buddy10initializeEPvm@plt
 1577      E7800000 
 1578              	.LVL165:
  15:src/kernel/slab_allocator.cpp ****     cache = (Cache*)SLAB_META_ADDR_CONST;
 1579              		.loc 1 15 5 is_stmt 1
  15:src/kernel/slab_allocator.cpp ****     cache = (Cache*)SLAB_META_ADDR_CONST;
 1580              		.loc 1 15 21 is_stmt 0
 1581 09d8 17090000 		la	s2,HEAP_START_ADDR
 1581      03390900 
 1582 09e0 83350900 		ld	a1,0(s2)
 1583 09e4 93D5C500 		srli	a1,a1,12
 1584 09e8 93851500 		addi	a1,a1,1
 1585 09ec 9395C500 		slli	a1,a1,12
  15:src/kernel/slab_allocator.cpp ****     cache = (Cache*)SLAB_META_ADDR_CONST;
 1586              		.loc 1 15 11
 1587 09f0 97040000 		lla	s1,.LANCHOR0
 1587      93840400 
 1588 09f8 23B8B406 		sd	a1,112(s1)
  16:src/kernel/slab_allocator.cpp ****     cache->ctor = nullptr;
 1589              		.loc 1 16 5 is_stmt 1
  16:src/kernel/slab_allocator.cpp ****     cache->ctor = nullptr;
 1590              		.loc 1 16 17 is_stmt 0
 1591 09fc 23B80504 		sd	zero,80(a1)
  17:src/kernel/slab_allocator.cpp ****     cache->dtor = nullptr;
 1592              		.loc 1 17 5 is_stmt 1
  17:src/kernel/slab_allocator.cpp ****     cache->dtor = nullptr;
 1593              		.loc 1 17 17 is_stmt 0
 1594 0a00 23BC0504 		sd	zero,88(a1)
  18:src/kernel/slab_allocator.cpp ****     cache->emptyHead = nullptr;
 1595              		.loc 1 18 5 is_stmt 1
  18:src/kernel/slab_allocator.cpp ****     cache->emptyHead = nullptr;
GAS LISTING /tmp/ccpqtpVf.s 			page 43


 1596              		.loc 1 18 22 is_stmt 0
 1597 0a04 23B00506 		sd	zero,96(a1)
  19:src/kernel/slab_allocator.cpp ****     cache->partialHead = nullptr;
 1598              		.loc 1 19 5 is_stmt 1
  19:src/kernel/slab_allocator.cpp ****     cache->partialHead = nullptr;
 1599              		.loc 1 19 24 is_stmt 0
 1600 0a08 23B40506 		sd	zero,104(a1)
  20:src/kernel/slab_allocator.cpp ****     cache->fullHead = nullptr;
 1601              		.loc 1 20 5 is_stmt 1
  20:src/kernel/slab_allocator.cpp ****     cache->fullHead = nullptr;
 1602              		.loc 1 20 21 is_stmt 0
 1603 0a0c 23B80506 		sd	zero,112(a1)
  21:src/kernel/slab_allocator.cpp ****     cache->objectSize = sizeof(Cache);
 1604              		.loc 1 21 5 is_stmt 1
  21:src/kernel/slab_allocator.cpp ****     cache->objectSize = sizeof(Cache);
 1605              		.loc 1 21 23 is_stmt 0
 1606 0a10 93078007 		li	a5,120
 1607 0a14 23B0F504 		sd	a5,64(a1)
  22:src/kernel/slab_allocator.cpp ****     cache->slabSize = DEFAULT_SLAB_SIZE;
 1608              		.loc 1 22 5 is_stmt 1
  22:src/kernel/slab_allocator.cpp ****     cache->slabSize = DEFAULT_SLAB_SIZE;
 1609              		.loc 1 22 21 is_stmt 0
 1610 0a18 93072000 		li	a5,2
 1611 0a1c 23B4F504 		sd	a5,72(a1)
  23:src/kernel/slab_allocator.cpp ****     strcpy("Main Cache", cache->name);
 1612              		.loc 1 23 5 is_stmt 1
  23:src/kernel/slab_allocator.cpp ****     strcpy("Main Cache", cache->name);
 1613              		.loc 1 23 11 is_stmt 0
 1614 0a20 17050000 		lla	a0,.LC17
 1614      13050500 
 1615 0a28 97000000 		call	_Z6strcpyPKcPc@plt
 1615      E7800000 
 1616              	.LVL166:
  25:src/kernel/slab_allocator.cpp ****     largeSlabCache = (Cache*)BUDDY_META_ADDR_CONST;
 1617              		.loc 1 25 5 is_stmt 1
  25:src/kernel/slab_allocator.cpp ****     largeSlabCache = (Cache*)BUDDY_META_ADDR_CONST;
 1618              		.loc 1 25 30 is_stmt 0
 1619 0a30 83370900 		ld	a5,0(s2)
 1620 0a34 37F7FFFF 		li	a4,-4096
 1621 0a38 B3F7E700 		and	a5,a5,a4
  25:src/kernel/slab_allocator.cpp ****     largeSlabCache = (Cache*)BUDDY_META_ADDR_CONST;
 1622              		.loc 1 25 20
 1623 0a3c 23B0F400 		sd	a5,0(s1)
  26:src/kernel/slab_allocator.cpp ****     largeSlabCache->ctor = nullptr;
 1624              		.loc 1 26 5 is_stmt 1
  26:src/kernel/slab_allocator.cpp ****     largeSlabCache->ctor = nullptr;
 1625              		.loc 1 26 26 is_stmt 0
 1626 0a40 23B80704 		sd	zero,80(a5)
  27:src/kernel/slab_allocator.cpp ****     largeSlabCache->dtor = nullptr;
 1627              		.loc 1 27 5 is_stmt 1
  27:src/kernel/slab_allocator.cpp ****     largeSlabCache->dtor = nullptr;
 1628              		.loc 1 27 26 is_stmt 0
 1629 0a44 23BC0704 		sd	zero,88(a5)
  28:src/kernel/slab_allocator.cpp ****     largeSlabCache->emptyHead = nullptr;
 1630              		.loc 1 28 5 is_stmt 1
  28:src/kernel/slab_allocator.cpp ****     largeSlabCache->emptyHead = nullptr;
 1631              		.loc 1 28 31 is_stmt 0
GAS LISTING /tmp/ccpqtpVf.s 			page 44


 1632 0a48 23B00706 		sd	zero,96(a5)
  29:src/kernel/slab_allocator.cpp ****     largeSlabCache->partialHead = nullptr;
 1633              		.loc 1 29 5 is_stmt 1
  29:src/kernel/slab_allocator.cpp ****     largeSlabCache->partialHead = nullptr;
 1634              		.loc 1 29 33 is_stmt 0
 1635 0a4c 23B40706 		sd	zero,104(a5)
  30:src/kernel/slab_allocator.cpp ****     largeSlabCache->fullHead = nullptr;
 1636              		.loc 1 30 5 is_stmt 1
  30:src/kernel/slab_allocator.cpp ****     largeSlabCache->fullHead = nullptr;
 1637              		.loc 1 30 30 is_stmt 0
 1638 0a50 23B80706 		sd	zero,112(a5)
  31:src/kernel/slab_allocator.cpp ****     largeSlabCache->objectSize = sizeof(Slab);
 1639              		.loc 1 31 5 is_stmt 1
  31:src/kernel/slab_allocator.cpp ****     largeSlabCache->objectSize = sizeof(Slab);
 1640              		.loc 1 31 32 is_stmt 0
 1641 0a54 1307000B 		li	a4,176
 1642 0a58 23B0E704 		sd	a4,64(a5)
  32:src/kernel/slab_allocator.cpp ****     largeSlabCache->slabSize = SLAB_HEADER_DEFAULT_SLAB_SIZE;
 1643              		.loc 1 32 5 is_stmt 1
  32:src/kernel/slab_allocator.cpp ****     largeSlabCache->slabSize = SLAB_HEADER_DEFAULT_SLAB_SIZE;
 1644              		.loc 1 32 30 is_stmt 0
 1645 0a5c 13074000 		li	a4,4
 1646 0a60 23B4E704 		sd	a4,72(a5)
  33:src/kernel/slab_allocator.cpp ****     strcpy("Large Slab Cache", cache->name);
 1647              		.loc 1 33 5 is_stmt 1
  33:src/kernel/slab_allocator.cpp ****     strcpy("Large Slab Cache", cache->name);
 1648              		.loc 1 33 11 is_stmt 0
 1649 0a64 83B50407 		ld	a1,112(s1)
 1650 0a68 17050000 		lla	a0,.LC18
 1650      13050500 
 1651 0a70 97000000 		call	_Z6strcpyPKcPc@plt
 1651      E7800000 
 1652              	.LVL167:
  36:src/kernel/slab_allocator.cpp ****     for(int i=0;i<BUCKET_SIZE;i++){
 1653              		.loc 1 36 5 is_stmt 1
 1654              	.LBB79:
  36:src/kernel/slab_allocator.cpp ****     for(int i=0;i<BUCKET_SIZE;i++){
 1655              		.loc 1 36 13 is_stmt 0
 1656 0a78 93040000 		li	s1,0
 1657 0a7c 6F008004 		j	.L88
 1658              	.LVL168:
 1659              	.L90:
  37:src/kernel/slab_allocator.cpp ****         sizeN[i] = SlabAllocator::createCache(names[i], 1<<(i+CACHE_LOWER_BOUND), nullptr, nullptr)
 1660              		.loc 1 37 9 is_stmt 1 discriminator 2
  37:src/kernel/slab_allocator.cpp ****         sizeN[i] = SlabAllocator::createCache(names[i], 1<<(i+CACHE_LOWER_BOUND), nullptr, nullptr)
 1661              		.loc 1 37 62 is_stmt 0 discriminator 2
 1662 0a80 1B875400 		addiw	a4,s1,5
  37:src/kernel/slab_allocator.cpp ****         sizeN[i] = SlabAllocator::createCache(names[i], 1<<(i+CACHE_LOWER_BOUND), nullptr, nullptr)
 1663              		.loc 1 37 46 discriminator 2
 1664 0a84 13993400 		slli	s2,s1,3
 1665 0a88 97070000 		lla	a5,.LANCHOR1
 1665      93870700 
 1666 0a90 B3872701 		add	a5,a5,s2
 1667 0a94 93060000 		li	a3,0
 1668 0a98 13060000 		li	a2,0
 1669 0a9c 93051000 		li	a1,1
 1670 0aa0 BB95E500 		sllw	a1,a1,a4
GAS LISTING /tmp/ccpqtpVf.s 			page 45


 1671 0aa4 03B50700 		ld	a0,0(a5)
 1672 0aa8 97000000 		call	_ZN13SlabAllocator11createCacheEPKcmPFvPvES4_
 1672      E7800000 
 1673              	.LVL169:
  37:src/kernel/slab_allocator.cpp ****         sizeN[i] = SlabAllocator::createCache(names[i], 1<<(i+CACHE_LOWER_BOUND), nullptr, nullptr)
 1674              		.loc 1 37 18 discriminator 2
 1675 0ab0 97070000 		lla	a5,.LANCHOR0
 1675      93870700 
 1676 0ab8 B3872701 		add	a5,a5,s2
 1677 0abc 23B4A700 		sd	a0,8(a5)
  36:src/kernel/slab_allocator.cpp ****     for(int i=0;i<BUCKET_SIZE;i++){
 1678              		.loc 1 36 5 is_stmt 1 discriminator 2
 1679 0ac0 9B841400 		addiw	s1,s1,1
 1680              	.LVL170:
 1681              	.L88:
  36:src/kernel/slab_allocator.cpp ****     for(int i=0;i<BUCKET_SIZE;i++){
 1682              		.loc 1 36 18 discriminator 3
 1683 0ac4 9307C000 		li	a5,12
 1684 0ac8 E3DC97FA 		ble	s1,a5,.L90
 1685              	.LBE79:
  39:src/kernel/slab_allocator.cpp **** }
 1686              		.loc 1 39 1 is_stmt 0
 1687 0acc 83308101 		ld	ra,24(sp)
 1688              		.cfi_restore 1
 1689 0ad0 03340101 		ld	s0,16(sp)
 1690              		.cfi_restore 8
 1691              		.cfi_def_cfa 2, 32
 1692 0ad4 83348100 		ld	s1,8(sp)
 1693              		.cfi_restore 9
 1694              	.LVL171:
 1695 0ad8 03390100 		ld	s2,0(sp)
 1696              		.cfi_restore 18
 1697 0adc 13010102 		addi	sp,sp,32
 1698              		.cfi_def_cfa_offset 0
 1699 0ae0 67800000 		jr	ra
 1700              		.cfi_endproc
 1701              	.LFE32:
 1703              		.align	2
 1704              		.globl	_ZN13SlabAllocator8freeSlotEP4Slabm
 1706              	_ZN13SlabAllocator8freeSlotEP4Slabm:
 1707              	.LFB37:
 128:src/kernel/slab_allocator.cpp **** void SlabAllocator::freeSlot(Slab *slab, uint64 index) {
 1708              		.loc 1 128 56 is_stmt 1
 1709              		.cfi_startproc
 1710              	.LVL172:
 129:src/kernel/slab_allocator.cpp ****     if(slab->allocated[index/8] & (1<<(7 - index%8))) {
 1711              		.loc 1 129 5
 1712              	.LBB80:
 129:src/kernel/slab_allocator.cpp ****     if(slab->allocated[index/8] & (1<<(7 - index%8))) {
 1713              		.loc 1 129 29 is_stmt 0
 1714 0ae4 13D73500 		srli	a4,a1,3
 129:src/kernel/slab_allocator.cpp ****     if(slab->allocated[index/8] & (1<<(7 - index%8))) {
 1715              		.loc 1 129 31
 1716 0ae8 B307E500 		add	a5,a0,a4
 1717 0aec 83C60702 		lbu	a3,32(a5)
 129:src/kernel/slab_allocator.cpp ****     if(slab->allocated[index/8] & (1<<(7 - index%8))) {
 1718              		.loc 1 129 42
GAS LISTING /tmp/ccpqtpVf.s 			page 46


 1719 0af0 93C5F5FF 		not	a1,a1
 1720              	.LVL173:
 1721 0af4 93F57500 		andi	a1,a1,7
 1722              	.LVL174:
 129:src/kernel/slab_allocator.cpp ****     if(slab->allocated[index/8] & (1<<(7 - index%8))) {
 1723              		.loc 1 129 53
 1724 0af8 BBD7B640 		sraw	a5,a3,a1
 1725 0afc 93F71700 		andi	a5,a5,1
 129:src/kernel/slab_allocator.cpp ****     if(slab->allocated[index/8] & (1<<(7 - index%8))) {
 1726              		.loc 1 129 5
 1727 0b00 638E070E 		beqz	a5,.L100
 1728              	.LBE80:
 128:src/kernel/slab_allocator.cpp **** void SlabAllocator::freeSlot(Slab *slab, uint64 index) {
 1729              		.loc 1 128 56
 1730 0b04 130101FE 		addi	sp,sp,-32
 1731              		.cfi_def_cfa_offset 32
 1732 0b08 233C1100 		sd	ra,24(sp)
 1733 0b0c 23388100 		sd	s0,16(sp)
 1734 0b10 23349100 		sd	s1,8(sp)
 1735              		.cfi_offset 1, -8
 1736              		.cfi_offset 8, -16
 1737              		.cfi_offset 9, -24
 1738 0b14 13040102 		addi	s0,sp,32
 1739              		.cfi_def_cfa 8, 0
 1740 0b18 93040500 		mv	s1,a0
 1741              	.LBB88:
 1742              	.LBB81:
 130:src/kernel/slab_allocator.cpp ****         slab->allocated[index/8] &= ~(1<<(7 - index%8));
 1743              		.loc 1 130 9 is_stmt 1
 130:src/kernel/slab_allocator.cpp ****         slab->allocated[index/8] &= ~(1<<(7 - index%8));
 1744              		.loc 1 130 40 is_stmt 0
 1745 0b1c 93071000 		li	a5,1
 1746 0b20 BB95B700 		sllw	a1,a5,a1
 130:src/kernel/slab_allocator.cpp ****         slab->allocated[index/8] &= ~(1<<(7 - index%8));
 1747              		.loc 1 130 34
 1748 0b24 3307E500 		add	a4,a0,a4
 1749 0b28 93C5F5FF 		not	a1,a1
 1750 0b2c B3F5D500 		and	a1,a1,a3
 1751 0b30 2300B702 		sb	a1,32(a4)
 131:src/kernel/slab_allocator.cpp ****         Slab *&headFrom = slab->isFull() ? slab->parent->fullHead : slab->parent->partialHead;
 1752              		.loc 1 131 9 is_stmt 1
 1753              	.LVL175:
 1754              	.LBB82:
 1755              	.LBB83:
  13:src/kernel/../../h/kernel/slab_t.hpp ****     inline bool isEmpty(){return numOfFreeSlots == totalNumOfSlots;}
 1756              		.loc 2 13 26
  13:src/kernel/../../h/kernel/slab_t.hpp ****     inline bool isEmpty(){return numOfFreeSlots == totalNumOfSlots;}
 1757              		.loc 2 13 33 is_stmt 0
 1758 0b34 83370501 		ld	a5,16(a0)
 1759              	.LVL176:
 1760              	.LBE83:
 1761              	.LBE82:
 131:src/kernel/slab_allocator.cpp ****         Slab *&headFrom = slab->isFull() ? slab->parent->fullHead : slab->parent->partialHead;
 1762              		.loc 1 131 83
 1763 0b38 639A0704 		bnez	a5,.L93
 131:src/kernel/slab_allocator.cpp ****         Slab *&headFrom = slab->isFull() ? slab->parent->fullHead : slab->parent->partialHead;
 1764              		.loc 1 131 50 discriminator 1
GAS LISTING /tmp/ccpqtpVf.s 			page 47


 1765 0b3c 0335850A 		ld	a0,168(a0)
 1766              	.LVL177:
 131:src/kernel/slab_allocator.cpp ****         Slab *&headFrom = slab->isFull() ? slab->parent->fullHead : slab->parent->partialHead;
 1767              		.loc 1 131 83 discriminator 1
 1768 0b40 13050507 		addi	a0,a0,112
 1769              	.L94:
 1770              	.LVL178:
 132:src/kernel/slab_allocator.cpp ****         slab->numOfFreeSlots++;
 1771              		.loc 1 132 9 is_stmt 1 discriminator 4
 132:src/kernel/slab_allocator.cpp ****         slab->numOfFreeSlots++;
 1772              		.loc 1 132 29 is_stmt 0 discriminator 4
 1773 0b44 93871700 		addi	a5,a5,1
 1774 0b48 23B8F400 		sd	a5,16(s1)
 133:src/kernel/slab_allocator.cpp ****         Slab *&headTo = slab->isEmpty() ? slab->parent->emptyHead : slab->parent->partialHead;
 1775              		.loc 1 133 9 is_stmt 1 discriminator 4
 1776              	.LVL179:
 1777              	.LBB84:
 1778              	.LBB85:
 1779              		.loc 2 14 27 discriminator 4
 1780              		.loc 2 14 52 is_stmt 0 discriminator 4
 1781 0b4c 03B78401 		ld	a4,24(s1)
 1782              	.LVL180:
 1783              	.LBE85:
 1784              	.LBE84:
 133:src/kernel/slab_allocator.cpp ****         Slab *&headTo = slab->isEmpty() ? slab->parent->emptyHead : slab->parent->partialHead;
 1785              		.loc 1 133 83 discriminator 4
 1786 0b50 6384E704 		beq	a5,a4,.L103
 133:src/kernel/slab_allocator.cpp ****         Slab *&headTo = slab->isEmpty() ? slab->parent->emptyHead : slab->parent->partialHead;
 1787              		.loc 1 133 75 discriminator 2
 1788 0b54 83B5840A 		ld	a1,168(s1)
 133:src/kernel/slab_allocator.cpp ****         Slab *&headTo = slab->isEmpty() ? slab->parent->emptyHead : slab->parent->partialHead;
 1789              		.loc 1 133 83 discriminator 2
 1790 0b58 93858506 		addi	a1,a1,104
 1791              	.L96:
 1792              	.LVL181:
 135:src/kernel/slab_allocator.cpp ****         if(slab->isEmpty()) {
 1793              		.loc 1 135 9 is_stmt 1 discriminator 4
 1794              	.LBE81:
 1795              	.LBE88:
 1796              		.loc 2 14 27 discriminator 4
 1797              	.LBB89:
 1798              	.LBB86:
 135:src/kernel/slab_allocator.cpp ****         if(slab->isEmpty()) {
 1799              		.loc 1 135 9 is_stmt 0 discriminator 4
 1800 0b5c 6384E704 		beq	a5,a4,.L104
 146:src/kernel/slab_allocator.cpp ****             if (headTo != headFrom)
 1801              		.loc 1 146 13 is_stmt 1
 146:src/kernel/slab_allocator.cpp ****             if (headTo != headFrom)
 1802              		.loc 1 146 17 is_stmt 0
 1803 0b60 03B70500 		ld	a4,0(a1)
 146:src/kernel/slab_allocator.cpp ****             if (headTo != headFrom)
 1804              		.loc 1 146 27
 1805 0b64 83370500 		ld	a5,0(a0)
 146:src/kernel/slab_allocator.cpp ****             if (headTo != headFrom)
 1806              		.loc 1 146 13
 1807 0b68 6308F700 		beq	a4,a5,.L91
 147:src/kernel/slab_allocator.cpp ****                 SlabAllocator::move(headFrom, headTo, slab);
GAS LISTING /tmp/ccpqtpVf.s 			page 48


 1808              		.loc 1 147 17 is_stmt 1
 147:src/kernel/slab_allocator.cpp ****                 SlabAllocator::move(headFrom, headTo, slab);
 1809              		.loc 1 147 36 is_stmt 0
 1810 0b6c 13860400 		mv	a2,s1
 1811 0b70 97000000 		call	_ZN13SlabAllocator4moveERP4SlabS2_S1_
 1811      E7800000 
 1812              	.LVL182:
 1813              	.L91:
 1814              	.LBE86:
 1815              	.LBE89:
 149:src/kernel/slab_allocator.cpp **** }
 1816              		.loc 1 149 1
 1817 0b78 83308101 		ld	ra,24(sp)
 1818              		.cfi_remember_state
 1819              		.cfi_restore 1
 1820 0b7c 03340101 		ld	s0,16(sp)
 1821              		.cfi_restore 8
 1822              		.cfi_def_cfa 2, 32
 1823 0b80 83348100 		ld	s1,8(sp)
 1824              		.cfi_restore 9
 1825              	.LVL183:
 1826 0b84 13010102 		addi	sp,sp,32
 1827              		.cfi_def_cfa_offset 0
 1828 0b88 67800000 		jr	ra
 1829              	.LVL184:
 1830              	.L93:
 1831              		.cfi_restore_state
 1832              	.LBB90:
 1833              	.LBB87:
 131:src/kernel/slab_allocator.cpp ****         Slab *&headFrom = slab->isFull() ? slab->parent->fullHead : slab->parent->partialHead;
 1834              		.loc 1 131 75 discriminator 2
 1835 0b8c 0335850A 		ld	a0,168(a0)
 131:src/kernel/slab_allocator.cpp ****         Slab *&headFrom = slab->isFull() ? slab->parent->fullHead : slab->parent->partialHead;
 1836              		.loc 1 131 83 discriminator 2
 1837 0b90 13058506 		addi	a0,a0,104
 1838 0b94 6FF01FFB 		j	.L94
 1839              	.LVL185:
 1840              	.L103:
 133:src/kernel/slab_allocator.cpp ****         Slab *&headTo = slab->isEmpty() ? slab->parent->emptyHead : slab->parent->partialHead;
 1841              		.loc 1 133 49 discriminator 1
 1842 0b98 83B5840A 		ld	a1,168(s1)
 133:src/kernel/slab_allocator.cpp ****         Slab *&headTo = slab->isEmpty() ? slab->parent->emptyHead : slab->parent->partialHead;
 1843              		.loc 1 133 83 discriminator 1
 1844 0b9c 93850506 		addi	a1,a1,96
 1845 0ba0 6FF0DFFB 		j	.L96
 1846              	.LVL186:
 1847              	.L104:
 136:src/kernel/slab_allocator.cpp ****             SlabAllocator::removeFromList(headFrom, slab);
 1848              		.loc 1 136 13 is_stmt 1
 136:src/kernel/slab_allocator.cpp ****             SlabAllocator::removeFromList(headFrom, slab);
 1849              		.loc 1 136 42 is_stmt 0
 1850 0ba4 93850400 		mv	a1,s1
 1851              	.LVL187:
 1852 0ba8 97000000 		call	_ZN13SlabAllocator14removeFromListERP4SlabS1_
 1852      E7800000 
 1853              	.LVL188:
 137:src/kernel/slab_allocator.cpp ****             if(slab->parent->objectSize <= sizeof(Slab)) {
GAS LISTING /tmp/ccpqtpVf.s 			page 49


 1854              		.loc 1 137 13 is_stmt 1
 137:src/kernel/slab_allocator.cpp ****             if(slab->parent->objectSize <= sizeof(Slab)) {
 1855              		.loc 1 137 22 is_stmt 0
 1856 0bb0 83B7840A 		ld	a5,168(s1)
 137:src/kernel/slab_allocator.cpp ****             if(slab->parent->objectSize <= sizeof(Slab)) {
 1857              		.loc 1 137 30
 1858 0bb4 83B60704 		ld	a3,64(a5)
 137:src/kernel/slab_allocator.cpp ****             if(slab->parent->objectSize <= sizeof(Slab)) {
 1859              		.loc 1 137 13
 1860 0bb8 1307000B 		li	a4,176
 1861 0bbc 636CD700 		bgtu	a3,a4,.L98
 138:src/kernel/slab_allocator.cpp ****                 Buddy::free(slab, slab->parent->slabSize);
 1862              		.loc 1 138 17 is_stmt 1
 138:src/kernel/slab_allocator.cpp ****                 Buddy::free(slab, slab->parent->slabSize);
 1863              		.loc 1 138 28 is_stmt 0
 1864 0bc0 83B58704 		ld	a1,72(a5)
 1865 0bc4 13850400 		mv	a0,s1
 1866 0bc8 97000000 		call	_ZN5Buddy4freeEPvm@plt
 1866      E7800000 
 1867              	.LVL189:
 1868 0bd0 6FF09FFA 		j	.L91
 1869              	.L98:
 141:src/kernel/slab_allocator.cpp ****                 Buddy::free(slab->objectOffset, slab->parent->slabSize);
 1870              		.loc 1 141 17 is_stmt 1
 141:src/kernel/slab_allocator.cpp ****                 Buddy::free(slab->objectOffset, slab->parent->slabSize);
 1871              		.loc 1 141 28 is_stmt 0
 1872 0bd4 83B58704 		ld	a1,72(a5)
 1873 0bd8 03B5040A 		ld	a0,160(s1)
 1874 0bdc 97000000 		call	_ZN5Buddy4freeEPvm@plt
 1874      E7800000 
 1875              	.LVL190:
 142:src/kernel/slab_allocator.cpp ****                 SlabAllocator::freeObject(largeSlabCache, slab);
 1876              		.loc 1 142 17 is_stmt 1
 142:src/kernel/slab_allocator.cpp ****                 SlabAllocator::freeObject(largeSlabCache, slab);
 1877              		.loc 1 142 42 is_stmt 0
 1878 0be4 93850400 		mv	a1,s1
 1879 0be8 17050000 		ld	a0,.LANCHOR0
 1879      03350500 
 1880 0bf0 97000000 		call	_ZN13SlabAllocator10freeObjectEP5CachePKv
 1880      E7800000 
 1881              	.LVL191:
 1882 0bf8 6FF01FF8 		j	.L91
 1883              	.LVL192:
 1884              	.L100:
 1885              		.cfi_def_cfa_register 2
 1886              		.cfi_restore 1
 1887              		.cfi_restore 8
 1888              		.cfi_restore 9
 1889 0bfc 67800000 		ret
 1890              	.LBE87:
 1891              	.LBE90:
 1892              		.cfi_endproc
 1893              	.LFE37:
 1895              		.align	2
 1896              		.globl	_ZN13SlabAllocator10freeObjectEP5CachePKv
 1898              	_ZN13SlabAllocator10freeObjectEP5CachePKv:
 1899              	.LFB38:
GAS LISTING /tmp/ccpqtpVf.s 			page 50


 151:src/kernel/slab_allocator.cpp **** bool SlabAllocator::freeObject(Cache* cache, const void *addr) {
 1900              		.loc 1 151 64 is_stmt 1
 1901              		.cfi_startproc
 1902              	.LVL193:
 1903 0c00 130101FE 		addi	sp,sp,-32
 1904              		.cfi_def_cfa_offset 32
 1905 0c04 233C1100 		sd	ra,24(sp)
 1906 0c08 23388100 		sd	s0,16(sp)
 1907 0c0c 23349100 		sd	s1,8(sp)
 1908 0c10 23302101 		sd	s2,0(sp)
 1909              		.cfi_offset 1, -8
 1910              		.cfi_offset 8, -16
 1911              		.cfi_offset 9, -24
 1912              		.cfi_offset 18, -32
 1913 0c14 13040102 		addi	s0,sp,32
 1914              		.cfi_def_cfa 8, 0
 1915 0c18 13090500 		mv	s2,a0
 1916 0c1c 93840500 		mv	s1,a1
 152:src/kernel/slab_allocator.cpp ****     if(cache->dtor)
 1917              		.loc 1 152 5
 152:src/kernel/slab_allocator.cpp ****     if(cache->dtor)
 1918              		.loc 1 152 15 is_stmt 0
 1919 0c20 83378505 		ld	a5,88(a0)
 152:src/kernel/slab_allocator.cpp ****     if(cache->dtor)
 1920              		.loc 1 152 5
 1921 0c24 63860700 		beqz	a5,.L106
 153:src/kernel/slab_allocator.cpp ****         cache->dtor((void*)addr);
 1922              		.loc 1 153 9 is_stmt 1
 153:src/kernel/slab_allocator.cpp ****         cache->dtor((void*)addr);
 1923              		.loc 1 153 20 is_stmt 0
 1924 0c28 13850500 		mv	a0,a1
 1925              	.LVL194:
 1926 0c2c E7800700 		jalr	a5
 1927              	.LVL195:
 1928              	.L106:
 154:src/kernel/slab_allocator.cpp ****     if(cache->ctor)
 1929              		.loc 1 154 5 is_stmt 1
 154:src/kernel/slab_allocator.cpp ****     if(cache->ctor)
 1930              		.loc 1 154 15 is_stmt 0
 1931 0c30 83370905 		ld	a5,80(s2)
 154:src/kernel/slab_allocator.cpp ****     if(cache->ctor)
 1932              		.loc 1 154 5
 1933 0c34 63860700 		beqz	a5,.L107
 155:src/kernel/slab_allocator.cpp ****         cache->ctor((void*)addr);
 1934              		.loc 1 155 9 is_stmt 1
 155:src/kernel/slab_allocator.cpp ****         cache->ctor((void*)addr);
 1935              		.loc 1 155 20 is_stmt 0
 1936 0c38 13850400 		mv	a0,s1
 1937 0c3c E7800700 		jalr	a5
 1938              	.LVL196:
 1939              	.L107:
 157:src/kernel/slab_allocator.cpp ****     bool deleted = SlabAllocator::freeFromList(cache->fullHead, addr);
 1940              		.loc 1 157 5 is_stmt 1
 157:src/kernel/slab_allocator.cpp ****     bool deleted = SlabAllocator::freeFromList(cache->fullHead, addr);
 1941              		.loc 1 157 47 is_stmt 0
 1942 0c40 03350907 		ld	a0,112(s2)
 1943              	.LVL197:
GAS LISTING /tmp/ccpqtpVf.s 			page 51


 1944 0c44 6F008000 		j	.L110
 1945              	.LVL198:
 1946              	.L109:
 1947              	.LBB105:
 1948              	.LBB106:
 1949              	.LBB107:
  58:src/kernel/../../h/kernel/slab_allocator.hpp ****         }
  59:src/kernel/../../h/kernel/slab_allocator.hpp ****         return nullptr;
  60:src/kernel/../../h/kernel/slab_allocator.hpp ****     }
  61:src/kernel/../../h/kernel/slab_allocator.hpp **** 
  62:src/kernel/../../h/kernel/slab_allocator.hpp ****     static inline bool freeFromList(Slab* head,const void* addr){
  63:src/kernel/../../h/kernel/slab_allocator.hpp ****         while(head){
  64:src/kernel/../../h/kernel/slab_allocator.hpp ****             uint64 upperBound = SlabAllocator::getUpperBound(head);
  65:src/kernel/../../h/kernel/slab_allocator.hpp ****             uint64 lowerBound = SlabAllocator::getLowerBound(head);
  66:src/kernel/../../h/kernel/slab_allocator.hpp ****             if((uint64)addr < upperBound && (uint64)addr >= lowerBound){
  67:src/kernel/../../h/kernel/slab_allocator.hpp ****                 uint64 index = ((uint64)addr - lowerBound) / head->parent->objectSize;
  68:src/kernel/../../h/kernel/slab_allocator.hpp ****                 freeSlot(head, index);
  69:src/kernel/../../h/kernel/slab_allocator.hpp ****                 return true;
  70:src/kernel/../../h/kernel/slab_allocator.hpp ****             }
  71:src/kernel/../../h/kernel/slab_allocator.hpp ****             head = head->next;
 1950              		.loc 3 71 13 is_stmt 1
 1951              		.loc 3 71 18 is_stmt 0
 1952 0c48 03358500 		ld	a0,8(a0)
 1953              	.LVL199:
 1954              	.L110:
 1955              	.LBE107:
  63:src/kernel/../../h/kernel/slab_allocator.hpp ****             uint64 upperBound = SlabAllocator::getUpperBound(head);
 1956              		.loc 3 63 9 is_stmt 1
  63:src/kernel/../../h/kernel/slab_allocator.hpp ****             uint64 upperBound = SlabAllocator::getUpperBound(head);
 1957              		.loc 3 63 15
 1958 0c4c 630E0502 		beqz	a0,.L115
 1959              	.LBB112:
  64:src/kernel/../../h/kernel/slab_allocator.hpp ****             uint64 lowerBound = SlabAllocator::getLowerBound(head);
 1960              		.loc 3 64 13
 1961              	.LVL200:
 1962              	.LBB108:
 1963              	.LBB109:
  50:src/kernel/../../h/kernel/slab_allocator.hpp ****     static inline uint64 getLowerBound(Slab* slab){return (uint64)slab->objectOffset;}
 1964              		.loc 3 50 52
  50:src/kernel/../../h/kernel/slab_allocator.hpp ****     static inline uint64 getLowerBound(Slab* slab){return (uint64)slab->objectOffset;}
 1965              		.loc 3 50 73 is_stmt 0
 1966 0c50 0337050A 		ld	a4,160(a0)
  50:src/kernel/../../h/kernel/slab_allocator.hpp ****     static inline uint64 getLowerBound(Slab* slab){return (uint64)slab->objectOffset;}
 1967              		.loc 3 50 94
 1968 0c54 83378501 		ld	a5,24(a0)
  50:src/kernel/../../h/kernel/slab_allocator.hpp ****     static inline uint64 getLowerBound(Slab* slab){return (uint64)slab->objectOffset;}
 1969              		.loc 3 50 116
 1970 0c58 8336850A 		ld	a3,168(a0)
  50:src/kernel/../../h/kernel/slab_allocator.hpp ****     static inline uint64 getLowerBound(Slab* slab){return (uint64)slab->objectOffset;}
 1971              		.loc 3 50 124
 1972 0c5c 83B50604 		ld	a1,64(a3)
  50:src/kernel/../../h/kernel/slab_allocator.hpp ****     static inline uint64 getLowerBound(Slab* slab){return (uint64)slab->objectOffset;}
 1973              		.loc 3 50 109
 1974 0c60 B387B702 		mul	a5,a5,a1
  50:src/kernel/../../h/kernel/slab_allocator.hpp ****     static inline uint64 getLowerBound(Slab* slab){return (uint64)slab->objectOffset;}
 1975              		.loc 3 50 124
 1976 0c64 B307F700 		add	a5,a4,a5
GAS LISTING /tmp/ccpqtpVf.s 			page 52


 1977              	.LVL201:
 1978              	.LBE109:
 1979              	.LBE108:
  65:src/kernel/../../h/kernel/slab_allocator.hpp ****             if((uint64)addr < upperBound && (uint64)addr >= lowerBound){
 1980              		.loc 3 65 13 is_stmt 1
 1981              	.LBE112:
 1982              	.LBE106:
 1983              	.LBE105:
  51:src/kernel/../../h/kernel/slab_allocator.hpp **** 
 1984              		.loc 3 51 52
 1985              	.LBB115:
 1986              	.LBB114:
 1987              	.LBB113:
  66:src/kernel/../../h/kernel/slab_allocator.hpp ****                 uint64 index = ((uint64)addr - lowerBound) / head->parent->objectSize;
 1988              		.loc 3 66 13
 1989              	.LBB110:
 1990 0c68 E3F0F4FE 		bleu	a5,s1,.L109
  66:src/kernel/../../h/kernel/slab_allocator.hpp ****                 uint64 index = ((uint64)addr - lowerBound) / head->parent->objectSize;
 1991              		.loc 3 66 42 is_stmt 0
 1992 0c6c E3EEE4FC 		bgtu	a4,s1,.L109
 1993              	.LBB111:
  67:src/kernel/../../h/kernel/slab_allocator.hpp ****                 freeSlot(head, index);
 1994              		.loc 3 67 17 is_stmt 1
  67:src/kernel/../../h/kernel/slab_allocator.hpp ****                 freeSlot(head, index);
 1995              		.loc 3 67 46 is_stmt 0
 1996 0c70 3387E440 		sub	a4,s1,a4
 1997              	.LVL202:
  68:src/kernel/../../h/kernel/slab_allocator.hpp ****                 return true;
 1998              		.loc 3 68 17 is_stmt 1
  68:src/kernel/../../h/kernel/slab_allocator.hpp ****                 return true;
 1999              		.loc 3 68 25 is_stmt 0
 2000 0c74 B355B702 		divu	a1,a4,a1
 2001              	.LVL203:
 2002 0c78 97000000 		call	_ZN13SlabAllocator8freeSlotEP4Slabm
 2002      E7800000 
 2003              	.LVL204:
  69:src/kernel/../../h/kernel/slab_allocator.hpp ****             }
 2004              		.loc 3 69 17 is_stmt 1
  69:src/kernel/../../h/kernel/slab_allocator.hpp ****             }
 2005              		.loc 3 69 24 is_stmt 0
 2006 0c80 13051000 		li	a0,1
 2007 0c84 6F008000 		j	.L108
 2008              	.LVL205:
 2009              	.L115:
 2010              	.LBE111:
 2011              	.LBE110:
 2012              	.LBE113:
  72:src/kernel/../../h/kernel/slab_allocator.hpp ****         }
  73:src/kernel/../../h/kernel/slab_allocator.hpp ****         return false;
 2013              		.loc 3 73 16
 2014 0c88 13050000 		li	a0,0
 2015              	.LVL206:
 2016              	.L108:
 2017              	.LBE114:
 2018              	.LBE115:
 158:src/kernel/slab_allocator.cpp ****     if(deleted)
 2019              		.loc 1 158 5 is_stmt 1
GAS LISTING /tmp/ccpqtpVf.s 			page 53


 2020 0c8c 630E0500 		beqz	a0,.L117
 2021              	.LVL207:
 2022              	.L111:
 164:src/kernel/slab_allocator.cpp **** }
 2023              		.loc 1 164 1 is_stmt 0
 2024 0c90 83308101 		ld	ra,24(sp)
 2025              		.cfi_remember_state
 2026              		.cfi_restore 1
 2027 0c94 03340101 		ld	s0,16(sp)
 2028              		.cfi_restore 8
 2029              		.cfi_def_cfa 2, 32
 2030 0c98 83348100 		ld	s1,8(sp)
 2031              		.cfi_restore 9
 2032              	.LVL208:
 2033 0c9c 03390100 		ld	s2,0(sp)
 2034              		.cfi_restore 18
 2035              	.LVL209:
 2036 0ca0 13010102 		addi	sp,sp,32
 2037              		.cfi_def_cfa_offset 0
 2038 0ca4 67800000 		jr	ra
 2039              	.LVL210:
 2040              	.L117:
 2041              		.cfi_restore_state
 161:src/kernel/slab_allocator.cpp ****     deleted = SlabAllocator::freeFromList(cache->partialHead, addr);
 2042              		.loc 1 161 5 is_stmt 1
 161:src/kernel/slab_allocator.cpp ****     deleted = SlabAllocator::freeFromList(cache->partialHead, addr);
 2043              		.loc 1 161 42 is_stmt 0
 2044 0ca8 83378906 		ld	a5,104(s2)
 2045              	.LVL211:
 2046 0cac 6F008000 		j	.L114
 2047              	.LVL212:
 2048              	.L113:
 2049              	.LBB116:
 2050              	.LBB117:
 2051              	.LBB118:
  71:src/kernel/../../h/kernel/slab_allocator.hpp ****         }
 2052              		.loc 3 71 13 is_stmt 1
  71:src/kernel/../../h/kernel/slab_allocator.hpp ****         }
 2053              		.loc 3 71 18 is_stmt 0
 2054 0cb0 83B78700 		ld	a5,8(a5)
 2055              	.LVL213:
 2056              	.L114:
 2057              	.LBE118:
  63:src/kernel/../../h/kernel/slab_allocator.hpp ****             uint64 upperBound = SlabAllocator::getUpperBound(head);
 2058              		.loc 3 63 9 is_stmt 1
  63:src/kernel/../../h/kernel/slab_allocator.hpp ****             uint64 upperBound = SlabAllocator::getUpperBound(head);
 2059              		.loc 3 63 15
 2060 0cb4 E38E07FC 		beqz	a5,.L111
 2061              	.LBB123:
  64:src/kernel/../../h/kernel/slab_allocator.hpp ****             uint64 lowerBound = SlabAllocator::getLowerBound(head);
 2062              		.loc 3 64 13
 2063              	.LVL214:
 2064              	.LBB119:
 2065              	.LBB120:
  50:src/kernel/../../h/kernel/slab_allocator.hpp ****     static inline uint64 getLowerBound(Slab* slab){return (uint64)slab->objectOffset;}
 2066              		.loc 3 50 52
  50:src/kernel/../../h/kernel/slab_allocator.hpp ****     static inline uint64 getLowerBound(Slab* slab){return (uint64)slab->objectOffset;}
GAS LISTING /tmp/ccpqtpVf.s 			page 54


 2067              		.loc 3 50 73 is_stmt 0
 2068 0cb8 83B6070A 		ld	a3,160(a5)
  50:src/kernel/../../h/kernel/slab_allocator.hpp ****     static inline uint64 getLowerBound(Slab* slab){return (uint64)slab->objectOffset;}
 2069              		.loc 3 50 94
 2070 0cbc 03B78701 		ld	a4,24(a5)
  50:src/kernel/../../h/kernel/slab_allocator.hpp ****     static inline uint64 getLowerBound(Slab* slab){return (uint64)slab->objectOffset;}
 2071              		.loc 3 50 116
 2072 0cc0 03B6870A 		ld	a2,168(a5)
  50:src/kernel/../../h/kernel/slab_allocator.hpp ****     static inline uint64 getLowerBound(Slab* slab){return (uint64)slab->objectOffset;}
 2073              		.loc 3 50 124
 2074 0cc4 83350604 		ld	a1,64(a2)
  50:src/kernel/../../h/kernel/slab_allocator.hpp ****     static inline uint64 getLowerBound(Slab* slab){return (uint64)slab->objectOffset;}
 2075              		.loc 3 50 109
 2076 0cc8 3307B702 		mul	a4,a4,a1
  50:src/kernel/../../h/kernel/slab_allocator.hpp ****     static inline uint64 getLowerBound(Slab* slab){return (uint64)slab->objectOffset;}
 2077              		.loc 3 50 124
 2078 0ccc 3387E600 		add	a4,a3,a4
 2079              	.LVL215:
 2080              	.LBE120:
 2081              	.LBE119:
  65:src/kernel/../../h/kernel/slab_allocator.hpp ****             if((uint64)addr < upperBound && (uint64)addr >= lowerBound){
 2082              		.loc 3 65 13 is_stmt 1
 2083              	.LBE123:
 2084              	.LBE117:
 2085              	.LBE116:
  51:src/kernel/../../h/kernel/slab_allocator.hpp **** 
 2086              		.loc 3 51 52
 2087              	.LBB126:
 2088              	.LBB125:
 2089              	.LBB124:
  66:src/kernel/../../h/kernel/slab_allocator.hpp ****                 uint64 index = ((uint64)addr - lowerBound) / head->parent->objectSize;
 2090              		.loc 3 66 13
 2091              	.LBB121:
 2092 0cd0 E3F0E4FE 		bleu	a4,s1,.L113
  66:src/kernel/../../h/kernel/slab_allocator.hpp ****                 uint64 index = ((uint64)addr - lowerBound) / head->parent->objectSize;
 2093              		.loc 3 66 42 is_stmt 0
 2094 0cd4 E3EED4FC 		bgtu	a3,s1,.L113
 2095              	.LBB122:
  67:src/kernel/../../h/kernel/slab_allocator.hpp ****                 freeSlot(head, index);
 2096              		.loc 3 67 17 is_stmt 1
  67:src/kernel/../../h/kernel/slab_allocator.hpp ****                 freeSlot(head, index);
 2097              		.loc 3 67 46 is_stmt 0
 2098 0cd8 B386D440 		sub	a3,s1,a3
 2099              	.LVL216:
  68:src/kernel/../../h/kernel/slab_allocator.hpp ****                 return true;
 2100              		.loc 3 68 17 is_stmt 1
  68:src/kernel/../../h/kernel/slab_allocator.hpp ****                 return true;
 2101              		.loc 3 68 25 is_stmt 0
 2102 0cdc B3D5B602 		divu	a1,a3,a1
 2103              	.LVL217:
 2104 0ce0 13850700 		mv	a0,a5
 2105              	.LVL218:
 2106 0ce4 97000000 		call	_ZN13SlabAllocator8freeSlotEP4Slabm
 2106      E7800000 
 2107              	.LVL219:
  69:src/kernel/../../h/kernel/slab_allocator.hpp ****             }
 2108              		.loc 3 69 17 is_stmt 1
GAS LISTING /tmp/ccpqtpVf.s 			page 55


  69:src/kernel/../../h/kernel/slab_allocator.hpp ****             }
 2109              		.loc 3 69 24 is_stmt 0
 2110 0cec 13051000 		li	a0,1
 2111 0cf0 6FF01FFA 		j	.L111
 2112              	.LBE122:
 2113              	.LBE121:
 2114              	.LBE124:
 2115              	.LBE125:
 2116              	.LBE126:
 2117              		.cfi_endproc
 2118              	.LFE38:
 2120              		.align	2
 2121              		.globl	_ZN13SlabAllocator10freeBufferEPKv
 2123              	_ZN13SlabAllocator10freeBufferEPKv:
 2124              	.LFB39:
 166:src/kernel/slab_allocator.cpp **** void SlabAllocator::freeBuffer(const void *addr) {
 2125              		.loc 1 166 50 is_stmt 1
 2126              		.cfi_startproc
 2127              	.LVL220:
 2128 0cf4 130101FE 		addi	sp,sp,-32
 2129              		.cfi_def_cfa_offset 32
 2130 0cf8 233C1100 		sd	ra,24(sp)
 2131 0cfc 23388100 		sd	s0,16(sp)
 2132 0d00 23349100 		sd	s1,8(sp)
 2133 0d04 23302101 		sd	s2,0(sp)
 2134              		.cfi_offset 1, -8
 2135              		.cfi_offset 8, -16
 2136              		.cfi_offset 9, -24
 2137              		.cfi_offset 18, -32
 2138 0d08 13040102 		addi	s0,sp,32
 2139              		.cfi_def_cfa 8, 0
 2140 0d0c 13090500 		mv	s2,a0
 167:src/kernel/slab_allocator.cpp ****     for(int i=0;i<BUCKET_SIZE;i++)
 2141              		.loc 1 167 5
 2142              	.LVL221:
 2143              	.LBB127:
 167:src/kernel/slab_allocator.cpp ****     for(int i=0;i<BUCKET_SIZE;i++)
 2144              		.loc 1 167 13 is_stmt 0
 2145 0d10 93040000 		li	s1,0
 2146              	.LVL222:
 2147              	.L120:
 167:src/kernel/slab_allocator.cpp ****     for(int i=0;i<BUCKET_SIZE;i++)
 2148              		.loc 1 167 18 is_stmt 1 discriminator 1
 2149 0d14 9307C000 		li	a5,12
 2150 0d18 63C89702 		bgt	s1,a5,.L118
 168:src/kernel/slab_allocator.cpp ****         if(SlabAllocator::freeObject(sizeN[i], addr))
 2151              		.loc 1 168 9
 168:src/kernel/slab_allocator.cpp ****         if(SlabAllocator::freeObject(sizeN[i], addr))
 2152              		.loc 1 168 37 is_stmt 0
 2153 0d1c 13973400 		slli	a4,s1,3
 2154 0d20 97070000 		lla	a5,.LANCHOR0
 2154      93870700 
 2155 0d28 B387E700 		add	a5,a5,a4
 2156 0d2c 93050900 		mv	a1,s2
 2157 0d30 03B58700 		ld	a0,8(a5)
 2158 0d34 97000000 		call	_ZN13SlabAllocator10freeObjectEP5CachePKv
 2158      E7800000 
GAS LISTING /tmp/ccpqtpVf.s 			page 56


 2159              	.LVL223:
 168:src/kernel/slab_allocator.cpp ****         if(SlabAllocator::freeObject(sizeN[i], addr))
 2160              		.loc 1 168 9
 2161 0d3c 63160500 		bnez	a0,.L118
 167:src/kernel/slab_allocator.cpp ****     for(int i=0;i<BUCKET_SIZE;i++)
 2162              		.loc 1 167 5 is_stmt 1 discriminator 2
 2163 0d40 9B841400 		addiw	s1,s1,1
 2164              	.LVL224:
 2165 0d44 6FF01FFD 		j	.L120
 2166              	.LVL225:
 2167              	.L118:
 2168              	.LBE127:
 170:src/kernel/slab_allocator.cpp **** }
 2169              		.loc 1 170 1 is_stmt 0
 2170 0d48 83308101 		ld	ra,24(sp)
 2171              		.cfi_restore 1
 2172 0d4c 03340101 		ld	s0,16(sp)
 2173              		.cfi_restore 8
 2174              		.cfi_def_cfa 2, 32
 2175 0d50 83348100 		ld	s1,8(sp)
 2176              		.cfi_restore 9
 2177              	.LVL226:
 2178 0d54 03390100 		ld	s2,0(sp)
 2179              		.cfi_restore 18
 2180              	.LVL227:
 2181 0d58 13010102 		addi	sp,sp,32
 2182              		.cfi_def_cfa_offset 0
 2183 0d5c 67800000 		jr	ra
 2184              		.cfi_endproc
 2185              	.LFE39:
 2187              		.align	2
 2188              		.globl	_ZN13SlabAllocator11deleteCacheERP5Cache
 2190              	_ZN13SlabAllocator11deleteCacheERP5Cache:
 2191              	.LFB41:
 192:src/kernel/slab_allocator.cpp **** void SlabAllocator::deleteCache(Cache* &cache) {
 2192              		.loc 1 192 48 is_stmt 1
 2193              		.cfi_startproc
 2194              	.LVL228:
 2195 0d60 130101FE 		addi	sp,sp,-32
 2196              		.cfi_def_cfa_offset 32
 2197 0d64 233C1100 		sd	ra,24(sp)
 2198 0d68 23388100 		sd	s0,16(sp)
 2199 0d6c 23349100 		sd	s1,8(sp)
 2200 0d70 23302101 		sd	s2,0(sp)
 2201              		.cfi_offset 1, -8
 2202              		.cfi_offset 8, -16
 2203              		.cfi_offset 9, -24
 2204              		.cfi_offset 18, -32
 2205 0d74 13040102 		addi	s0,sp,32
 2206              		.cfi_def_cfa 8, 0
 2207 0d78 93040500 		mv	s1,a0
 193:src/kernel/slab_allocator.cpp ****     deleteList(cache->fullHead);
 2208              		.loc 1 193 5
 193:src/kernel/slab_allocator.cpp ****     deleteList(cache->fullHead);
 2209              		.loc 1 193 16 is_stmt 0
 2210 0d7c 03390500 		ld	s2,0(a0)
 193:src/kernel/slab_allocator.cpp ****     deleteList(cache->fullHead);
GAS LISTING /tmp/ccpqtpVf.s 			page 57


 2211              		.loc 1 193 23
 2212 0d80 13090907 		addi	s2,s2,112
 2213              	.LVL229:
 2214              	.L124:
 2215              	.LBB137:
 2216              	.LBB138:
  74:src/kernel/../../h/kernel/slab_allocator.hpp ****     }
  75:src/kernel/../../h/kernel/slab_allocator.hpp **** 
  76:src/kernel/../../h/kernel/slab_allocator.hpp ****     static inline void deleteList(Slab* &head){
  77:src/kernel/../../h/kernel/slab_allocator.hpp ****         while(head){
 2217              		.loc 3 77 9 is_stmt 1
 2218              		.loc 3 77 15
 2219 0d84 03350900 		ld	a0,0(s2)
 2220 0d88 63020502 		beqz	a0,.L123
 2221              	.LBB139:
  78:src/kernel/../../h/kernel/slab_allocator.hpp ****             Slab* tmp = head;
 2222              		.loc 3 78 13
 2223              	.LVL230:
  79:src/kernel/../../h/kernel/slab_allocator.hpp ****             Buddy::free(tmp, head->parent->slabSize);
 2224              		.loc 3 79 13
 2225              		.loc 3 79 36 is_stmt 0
 2226 0d8c 8337850A 		ld	a5,168(a0)
 2227              		.loc 3 79 24
 2228 0d90 83B58704 		ld	a1,72(a5)
 2229 0d94 97000000 		call	_ZN5Buddy4freeEPvm@plt
 2229      E7800000 
 2230              	.LVL231:
  80:src/kernel/../../h/kernel/slab_allocator.hpp ****             head = head->next;
 2231              		.loc 3 80 13 is_stmt 1
 2232              		.loc 3 80 20 is_stmt 0
 2233 0d9c 83370900 		ld	a5,0(s2)
 2234              		.loc 3 80 26
 2235 0da0 83B78700 		ld	a5,8(a5)
 2236              		.loc 3 80 18
 2237 0da4 2330F900 		sd	a5,0(s2)
 2238              	.LBE139:
  77:src/kernel/../../h/kernel/slab_allocator.hpp ****             Slab* tmp = head;
 2239              		.loc 3 77 9
 2240 0da8 6FF0DFFD 		j	.L124
 2241              	.L123:
 2242              	.LVL232:
 2243              	.LBE138:
 2244              	.LBE137:
 194:src/kernel/slab_allocator.cpp ****     deleteList(cache->partialHead);
 2245              		.loc 1 194 5 is_stmt 1
 194:src/kernel/slab_allocator.cpp ****     deleteList(cache->partialHead);
 2246              		.loc 1 194 16 is_stmt 0
 2247 0dac 03B90400 		ld	s2,0(s1)
 194:src/kernel/slab_allocator.cpp ****     deleteList(cache->partialHead);
 2248              		.loc 1 194 23
 2249 0db0 13098906 		addi	s2,s2,104
 2250              	.LVL233:
 2251              	.L126:
 2252              	.LBB140:
 2253              	.LBB141:
  77:src/kernel/../../h/kernel/slab_allocator.hpp ****             Slab* tmp = head;
 2254              		.loc 3 77 9 is_stmt 1
GAS LISTING /tmp/ccpqtpVf.s 			page 58


  77:src/kernel/../../h/kernel/slab_allocator.hpp ****             Slab* tmp = head;
 2255              		.loc 3 77 15
 2256 0db4 03350900 		ld	a0,0(s2)
 2257 0db8 63020502 		beqz	a0,.L125
 2258              	.LBB142:
  78:src/kernel/../../h/kernel/slab_allocator.hpp ****             Buddy::free(tmp, head->parent->slabSize);
 2259              		.loc 3 78 13
 2260              	.LVL234:
  79:src/kernel/../../h/kernel/slab_allocator.hpp ****             head = head->next;
 2261              		.loc 3 79 13
  79:src/kernel/../../h/kernel/slab_allocator.hpp ****             head = head->next;
 2262              		.loc 3 79 36 is_stmt 0
 2263 0dbc 8337850A 		ld	a5,168(a0)
  79:src/kernel/../../h/kernel/slab_allocator.hpp ****             head = head->next;
 2264              		.loc 3 79 24
 2265 0dc0 83B58704 		ld	a1,72(a5)
 2266 0dc4 97000000 		call	_ZN5Buddy4freeEPvm@plt
 2266      E7800000 
 2267              	.LVL235:
 2268              		.loc 3 80 13 is_stmt 1
 2269              		.loc 3 80 20 is_stmt 0
 2270 0dcc 83370900 		ld	a5,0(s2)
 2271              		.loc 3 80 26
 2272 0dd0 83B78700 		ld	a5,8(a5)
 2273              		.loc 3 80 18
 2274 0dd4 2330F900 		sd	a5,0(s2)
 2275              	.LBE142:
  77:src/kernel/../../h/kernel/slab_allocator.hpp ****             Slab* tmp = head;
 2276              		.loc 3 77 9
 2277 0dd8 6FF0DFFD 		j	.L126
 2278              	.L125:
 2279              	.LVL236:
 2280              	.LBE141:
 2281              	.LBE140:
 195:src/kernel/slab_allocator.cpp ****     deleteList(cache->emptyHead);
 2282              		.loc 1 195 5 is_stmt 1
 195:src/kernel/slab_allocator.cpp ****     deleteList(cache->emptyHead);
 2283              		.loc 1 195 16 is_stmt 0
 2284 0ddc 03B90400 		ld	s2,0(s1)
 195:src/kernel/slab_allocator.cpp ****     deleteList(cache->emptyHead);
 2285              		.loc 1 195 23
 2286 0de0 13090906 		addi	s2,s2,96
 2287              	.LVL237:
 2288              	.L128:
 2289              	.LBB143:
 2290              	.LBB144:
  77:src/kernel/../../h/kernel/slab_allocator.hpp ****             Slab* tmp = head;
 2291              		.loc 3 77 9 is_stmt 1
  77:src/kernel/../../h/kernel/slab_allocator.hpp ****             Slab* tmp = head;
 2292              		.loc 3 77 15
 2293 0de4 03350900 		ld	a0,0(s2)
 2294 0de8 63020502 		beqz	a0,.L127
 2295              	.LBB145:
  78:src/kernel/../../h/kernel/slab_allocator.hpp ****             Buddy::free(tmp, head->parent->slabSize);
 2296              		.loc 3 78 13
 2297              	.LVL238:
  79:src/kernel/../../h/kernel/slab_allocator.hpp ****             head = head->next;
GAS LISTING /tmp/ccpqtpVf.s 			page 59


 2298              		.loc 3 79 13
  79:src/kernel/../../h/kernel/slab_allocator.hpp ****             head = head->next;
 2299              		.loc 3 79 36 is_stmt 0
 2300 0dec 8337850A 		ld	a5,168(a0)
  79:src/kernel/../../h/kernel/slab_allocator.hpp ****             head = head->next;
 2301              		.loc 3 79 24
 2302 0df0 83B58704 		ld	a1,72(a5)
 2303 0df4 97000000 		call	_ZN5Buddy4freeEPvm@plt
 2303      E7800000 
 2304              	.LVL239:
 2305              		.loc 3 80 13 is_stmt 1
 2306              		.loc 3 80 20 is_stmt 0
 2307 0dfc 83370900 		ld	a5,0(s2)
 2308              		.loc 3 80 26
 2309 0e00 83B78700 		ld	a5,8(a5)
 2310              		.loc 3 80 18
 2311 0e04 2330F900 		sd	a5,0(s2)
 2312              	.LBE145:
  77:src/kernel/../../h/kernel/slab_allocator.hpp ****             Slab* tmp = head;
 2313              		.loc 3 77 9
 2314 0e08 6FF0DFFD 		j	.L128
 2315              	.L127:
 2316              	.LVL240:
 2317              	.LBE144:
 2318              	.LBE143:
 196:src/kernel/slab_allocator.cpp ****     SlabAllocator::freeObject(SlabAllocator::cache, cache);
 2319              		.loc 1 196 5 is_stmt 1
 196:src/kernel/slab_allocator.cpp ****     SlabAllocator::freeObject(SlabAllocator::cache, cache);
 2320              		.loc 1 196 30 is_stmt 0
 2321 0e0c 83B50400 		ld	a1,0(s1)
 2322 0e10 17050000 		ld	a0,.LANCHOR0+112
 2322      03350500 
 2323 0e18 97000000 		call	_ZN13SlabAllocator10freeObjectEP5CachePKv
 2323      E7800000 
 2324              	.LVL241:
 197:src/kernel/slab_allocator.cpp ****     cache = nullptr;
 2325              		.loc 1 197 5 is_stmt 1
 197:src/kernel/slab_allocator.cpp ****     cache = nullptr;
 2326              		.loc 1 197 11 is_stmt 0
 2327 0e20 23B00400 		sd	zero,0(s1)
 198:src/kernel/slab_allocator.cpp **** }
 2328              		.loc 1 198 1
 2329 0e24 83308101 		ld	ra,24(sp)
 2330              		.cfi_restore 1
 2331 0e28 03340101 		ld	s0,16(sp)
 2332              		.cfi_restore 8
 2333              		.cfi_def_cfa 2, 32
 2334 0e2c 83348100 		ld	s1,8(sp)
 2335              		.cfi_restore 9
 2336              	.LVL242:
 2337 0e30 03390100 		ld	s2,0(sp)
 2338              		.cfi_restore 18
 2339 0e34 13010102 		addi	sp,sp,32
 2340              		.cfi_def_cfa_offset 0
 2341 0e38 67800000 		jr	ra
 2342              		.cfi_endproc
 2343              	.LFE41:
GAS LISTING /tmp/ccpqtpVf.s 			page 60


 2345              		.globl	_ZN13SlabAllocator5namesE
 2346              		.section	.rodata.str1.8
 2347 0161 00000000 		.align	3
 2347      000000
 2348              	.LC19:
 2349 0168 42756666 		.string	"Buffer Cache No. 0"
 2349      65722043 
 2349      61636865 
 2349      204E6F2E 
 2349      203000
 2350 017b 00000000 		.align	3
 2350      00
 2351              	.LC20:
 2352 0180 42756666 		.string	"Buffer Cache No. 1"
 2352      65722043 
 2352      61636865 
 2352      204E6F2E 
 2352      203100
 2353 0193 00000000 		.align	3
 2353      00
 2354              	.LC21:
 2355 0198 42756666 		.string	"Buffer Cache No. 2"
 2355      65722043 
 2355      61636865 
 2355      204E6F2E 
 2355      203200
 2356 01ab 00000000 		.align	3
 2356      00
 2357              	.LC22:
 2358 01b0 42756666 		.string	"Buffer Cache No. 3"
 2358      65722043 
 2358      61636865 
 2358      204E6F2E 
 2358      203300
 2359 01c3 00000000 		.align	3
 2359      00
 2360              	.LC23:
 2361 01c8 42756666 		.string	"Buffer Cache No. 4"
 2361      65722043 
 2361      61636865 
 2361      204E6F2E 
 2361      203400
 2362 01db 00000000 		.align	3
 2362      00
 2363              	.LC24:
 2364 01e0 42756666 		.string	"Buffer Cache No. 5"
 2364      65722043 
 2364      61636865 
 2364      204E6F2E 
 2364      203500
 2365 01f3 00000000 		.align	3
 2365      00
 2366              	.LC25:
 2367 01f8 42756666 		.string	"Buffer Cache No. 6"
 2367      65722043 
 2367      61636865 
 2367      204E6F2E 
GAS LISTING /tmp/ccpqtpVf.s 			page 61


 2367      203600
 2368 020b 00000000 		.align	3
 2368      00
 2369              	.LC26:
 2370 0210 42756666 		.string	"Buffer Cache No. 7"
 2370      65722043 
 2370      61636865 
 2370      204E6F2E 
 2370      203700
 2371 0223 00000000 		.align	3
 2371      00
 2372              	.LC27:
 2373 0228 42756666 		.string	"Buffer Cache No. 8"
 2373      65722043 
 2373      61636865 
 2373      204E6F2E 
 2373      203800
 2374 023b 00000000 		.align	3
 2374      00
 2375              	.LC28:
 2376 0240 42756666 		.string	"Buffer Cache No. 9"
 2376      65722043 
 2376      61636865 
 2376      204E6F2E 
 2376      203900
 2377 0253 00000000 		.align	3
 2377      00
 2378              	.LC29:
 2379 0258 42756666 		.string	"Buffer Cache No. 10"
 2379      65722043 
 2379      61636865 
 2379      204E6F2E 
 2379      20313000 
 2380 026c 00000000 		.align	3
 2381              	.LC30:
 2382 0270 42756666 		.string	"Buffer Cache No. 11"
 2382      65722043 
 2382      61636865 
 2382      204E6F2E 
 2382      20313100 
 2383 0284 00000000 		.align	3
 2384              	.LC31:
 2385 0288 42756666 		.string	"Buffer Cache No. 12"
 2385      65722043 
 2385      61636865 
 2385      204E6F2E 
 2385      20313200 
 2386              		.globl	_ZN13SlabAllocator5sizeNE
 2387              		.globl	_ZN13SlabAllocator14largeSlabCacheE
 2388              		.globl	_ZN13SlabAllocator5cacheE
 2389              		.bss
 2390              		.align	3
 2391              		.set	.LANCHOR0,. + 0
 2394              	_ZN13SlabAllocator14largeSlabCacheE:
 2395 0000 00000000 		.zero	8
 2395      00000000 
 2398              	_ZN13SlabAllocator5sizeNE:
GAS LISTING /tmp/ccpqtpVf.s 			page 62


 2399 0008 00000000 		.zero	104
 2399      00000000 
 2399      00000000 
 2399      00000000 
 2399      00000000 
 2402              	_ZN13SlabAllocator5cacheE:
 2403 0070 00000000 		.zero	8
 2403      00000000 
 2404              		.section	.data.rel.local,"aw"
 2405              		.align	3
 2406              		.set	.LANCHOR1,. + 0
 2409              	_ZN13SlabAllocator5namesE:
 2410 0000 00000000 		.dword	.LC19
 2410      00000000 
 2411 0008 00000000 		.dword	.LC20
 2411      00000000 
 2412 0010 00000000 		.dword	.LC21
 2412      00000000 
 2413 0018 00000000 		.dword	.LC22
 2413      00000000 
 2414 0020 00000000 		.dword	.LC23
 2414      00000000 
 2415 0028 00000000 		.dword	.LC24
 2415      00000000 
 2416 0030 00000000 		.dword	.LC25
 2416      00000000 
 2417 0038 00000000 		.dword	.LC26
 2417      00000000 
 2418 0040 00000000 		.dword	.LC27
 2418      00000000 
 2419 0048 00000000 		.dword	.LC28
 2419      00000000 
 2420 0050 00000000 		.dword	.LC29
 2420      00000000 
 2421 0058 00000000 		.dword	.LC30
 2421      00000000 
 2422 0060 00000000 		.dword	.LC31
 2422      00000000 
 2423              		.text
 2424              	.Letext0:
 2425              		.file 5 "src/kernel/../../h/kernel/../../lib/hw.h"
 2426              		.file 6 "src/kernel/../../h/kernel/utility.hpp"
 2427              		.file 7 "src/kernel/../../h/kernel/console_util.hpp"
 2428              		.file 8 "src/kernel/../../h/kernel/cache_t.hpp"
GAS LISTING /tmp/ccpqtpVf.s 			page 63

