GAS LISTING /tmp/cc3wtzn3.s 			page 1


   1              		.file	"slab_allocator.cpp"
   2              		.option pic
   3              		.option norelax
   4              		.text
   5              	.Ltext0:
   6              		.section	.rodata.str1.8,"aMS",@progbits,1
   7              		.align	3
   8              	.LC0:
   9 0000 0A4E4F57 		.string	"\nNOW SHOWING SLAB INFO\n"
   9      2053484F 
   9      57494E47 
   9      20534C41 
   9      4220494E 
  10              		.align	3
  11              	.LC1:
  12 0018 0A00     		.string	"\n"
  13 001a 00000000 		.align	3
  13      0000
  14              	.LC2:
  15 0020 536C6162 		.string	"Slab address:"
  15      20616464 
  15      72657373 
  15      3A00
  16 002e 0000     		.align	3
  17              	.LC3:
  18 0030 4E756D62 		.string	"Number of slots:"
  18      6572206F 
  18      6620736C 
  18      6F74733A 
  18      00
  19 0041 00000000 		.align	3
  19      000000
  20              	.LC4:
  21 0048 4E756D62 		.string	"Number of free slots:"
  21      6572206F 
  21      66206672 
  21      65652073 
  21      6C6F7473 
  22 005e 0000     		.align	3
  23              	.LC5:
  24 0060 536C6162 		.string	"Slab object size:"
  24      206F626A 
  24      65637420 
  24      73697A65 
  24      3A00
  25 0072 00000000 		.align	3
  25      0000
  26              	.LC6:
  27 0078 4F626A65 		.string	"Object offset:"
  27      6374206F 
  27      66667365 
  27      743A00
  28 0087 00       		.align	3
  29              	.LC7:
  30 0088 416C6C6F 		.string	"Allocated status array: "
  30      63617465 
  30      64207374 
GAS LISTING /tmp/cc3wtzn3.s 			page 2


  30      61747573 
  30      20617272 
  31 00a1 00000000 		.align	3
  31      000000
  32              	.LC8:
  33 00a8 2000     		.string	" "
  34 00aa 00000000 		.align	3
  34      0000
  35              	.LC9:
  36 00b0 00       		.string	""
  37              		.text
  38              		.align	2
  39              		.globl	_ZN13SlabAllocator9printSlabEP4Slab
  41              	_ZN13SlabAllocator9printSlabEP4Slab:
  42              	.LFB46:
  43              		.file 1 "src/kernel/slab_allocator.cpp"
   1:src/kernel/slab_allocator.cpp **** //
   2:src/kernel/slab_allocator.cpp **** // Created by os on 12/25/22.
   3:src/kernel/slab_allocator.cpp **** //
   4:src/kernel/slab_allocator.cpp **** #include "../../h/kernel/slab_allocator.hpp"
   5:src/kernel/slab_allocator.cpp **** #include "../../h/kernel/utility.hpp"
   6:src/kernel/slab_allocator.cpp **** #include "../../h/kernel/riscv.hpp"
   7:src/kernel/slab_allocator.cpp **** 
   8:src/kernel/slab_allocator.cpp **** Cache* SlabAllocator::cache = nullptr;
   9:src/kernel/slab_allocator.cpp **** Cache* SlabAllocator::largeSlabCache = nullptr;
  10:src/kernel/slab_allocator.cpp **** Cache* SlabAllocator::sizeN[BUCKET_SIZE] = {nullptr, nullptr, nullptr, nullptr, nullptr, nullptr, n
  11:src/kernel/slab_allocator.cpp **** const char* SlabAllocator::names[13] = {"Buffer Cache No. 5", "Buffer Cache No. 6", "Buffer Cache N
  12:src/kernel/slab_allocator.cpp **** 
  13:src/kernel/slab_allocator.cpp **** void SlabAllocator::initialize(void* space, uint64 blockNum) {
  14:src/kernel/slab_allocator.cpp ****     Buddy::initialize(space, blockNum);
  15:src/kernel/slab_allocator.cpp ****     cache = (Cache*)SLAB_META_ADDR_CONST;
  16:src/kernel/slab_allocator.cpp ****     cache->ctor = nullptr;
  17:src/kernel/slab_allocator.cpp ****     cache->dtor = nullptr;
  18:src/kernel/slab_allocator.cpp ****     cache->emptyHead = nullptr;
  19:src/kernel/slab_allocator.cpp ****     cache->partialHead = nullptr;
  20:src/kernel/slab_allocator.cpp ****     cache->fullHead = nullptr;
  21:src/kernel/slab_allocator.cpp ****     cache->objectSize = sizeof(Cache);
  22:src/kernel/slab_allocator.cpp ****     cache->slabSize = DEFAULT_SLAB_SIZE;
  23:src/kernel/slab_allocator.cpp ****     cache->errCode = 0;
  24:src/kernel/slab_allocator.cpp ****     strcpy("Main Cache", cache->name);
  25:src/kernel/slab_allocator.cpp **** 
  26:src/kernel/slab_allocator.cpp ****     largeSlabCache = (Cache*)BUDDY_META_ADDR_CONST;
  27:src/kernel/slab_allocator.cpp ****     largeSlabCache->ctor = nullptr;
  28:src/kernel/slab_allocator.cpp ****     largeSlabCache->dtor = nullptr;
  29:src/kernel/slab_allocator.cpp ****     largeSlabCache->emptyHead = nullptr;
  30:src/kernel/slab_allocator.cpp ****     largeSlabCache->partialHead = nullptr;
  31:src/kernel/slab_allocator.cpp ****     largeSlabCache->fullHead = nullptr;
  32:src/kernel/slab_allocator.cpp ****     largeSlabCache->objectSize = sizeof(Slab);
  33:src/kernel/slab_allocator.cpp ****     largeSlabCache->slabSize = SLAB_HEADER_DEFAULT_SLAB_SIZE;
  34:src/kernel/slab_allocator.cpp ****     cache->errCode = 0;
  35:src/kernel/slab_allocator.cpp ****     strcpy("Large Slab Cache", cache->name);
  36:src/kernel/slab_allocator.cpp **** 
  37:src/kernel/slab_allocator.cpp **** 
  38:src/kernel/slab_allocator.cpp ****     for(int i=0;i<BUCKET_SIZE;i++){
  39:src/kernel/slab_allocator.cpp ****         sizeN[i] = SlabAllocator::createCache(names[i], 1<<(i+CACHE_LOWER_BOUND), nullptr, nullptr)
  40:src/kernel/slab_allocator.cpp ****     }
  41:src/kernel/slab_allocator.cpp **** }
GAS LISTING /tmp/cc3wtzn3.s 			page 3


  42:src/kernel/slab_allocator.cpp **** 
  43:src/kernel/slab_allocator.cpp **** bool SlabAllocator::allocateSlab(Cache *cache) {
  44:src/kernel/slab_allocator.cpp ****     Slab* slab = (Slab*)Buddy::alloc(cache->slabSize);
  45:src/kernel/slab_allocator.cpp ****     if(!slab) {
  46:src/kernel/slab_allocator.cpp ****         cache->errCode = 2;
  47:src/kernel/slab_allocator.cpp ****         return false;
  48:src/kernel/slab_allocator.cpp ****     }
  49:src/kernel/slab_allocator.cpp ****     SlabAllocator::insertIntoList(cache->emptyHead, slab);
  50:src/kernel/slab_allocator.cpp ****     slab->totalNumOfSlots = slab->numOfFreeSlots = (((1<<cache->slabSize) << BLOCK_SIZE_BITS) - siz
  51:src/kernel/slab_allocator.cpp ****     if(slab->totalNumOfSlots > MAX_NUMBER_OF_SLOTS)
  52:src/kernel/slab_allocator.cpp ****         slab->totalNumOfSlots = slab->numOfFreeSlots = MAX_NUMBER_OF_SLOTS;
  53:src/kernel/slab_allocator.cpp ****     slab->objectOffset = (void*)((uint64)slab + sizeof(Slab));
  54:src/kernel/slab_allocator.cpp ****     slab->parent = cache;
  55:src/kernel/slab_allocator.cpp ****     for(uint64 i=0;i<(slab->totalNumOfSlots+7)>>3;i++)
  56:src/kernel/slab_allocator.cpp ****         slab->allocated[i] = 0;
  57:src/kernel/slab_allocator.cpp **** 
  58:src/kernel/slab_allocator.cpp ****     if(cache->ctor) {
  59:src/kernel/slab_allocator.cpp ****         for (uint64 i = 0; i < slab->totalNumOfSlots; i++) {
  60:src/kernel/slab_allocator.cpp ****             cache->ctor((void *) ((uint64) slab->objectOffset + i * slab->parent->objectSize));
  61:src/kernel/slab_allocator.cpp ****         }
  62:src/kernel/slab_allocator.cpp ****     }
  63:src/kernel/slab_allocator.cpp ****     return true;
  64:src/kernel/slab_allocator.cpp **** }
  65:src/kernel/slab_allocator.cpp **** 
  66:src/kernel/slab_allocator.cpp **** void* SlabAllocator::allocateSlot(Slab *slab) {
  67:src/kernel/slab_allocator.cpp ****     for(uint64 i=0; i<slab->totalNumOfSlots; i++){
  68:src/kernel/slab_allocator.cpp ****         if(!(slab->allocated[i>>3] & (1<<(7 - (i&7))))){
  69:src/kernel/slab_allocator.cpp ****             slab->allocated[i>>3] |= (1<<(7 - (i&7)));
  70:src/kernel/slab_allocator.cpp ****             Slab* &headFrom = slab->isEmpty() ? slab->parent->emptyHead : slab->parent->partialHead
  71:src/kernel/slab_allocator.cpp ****             slab->numOfFreeSlots--;
  72:src/kernel/slab_allocator.cpp ****             Slab* &headTo = slab->isFull() ? slab->parent->fullHead : slab->parent->partialHead;
  73:src/kernel/slab_allocator.cpp **** 
  74:src/kernel/slab_allocator.cpp ****             if(headTo != headFrom)
  75:src/kernel/slab_allocator.cpp ****                 SlabAllocator::move(headFrom, headTo, slab);
  76:src/kernel/slab_allocator.cpp **** 
  77:src/kernel/slab_allocator.cpp ****             return (void*)((uint64)slab->objectOffset + i*slab->parent->objectSize);
  78:src/kernel/slab_allocator.cpp ****         }
  79:src/kernel/slab_allocator.cpp ****     }
  80:src/kernel/slab_allocator.cpp ****     slab->parent->errCode = 1;
  81:src/kernel/slab_allocator.cpp ****     return nullptr;
  82:src/kernel/slab_allocator.cpp **** }
  83:src/kernel/slab_allocator.cpp **** 
  84:src/kernel/slab_allocator.cpp **** void* SlabAllocator::allocateObject(Cache *cache) {
  85:src/kernel/slab_allocator.cpp ****     void* ret = SlabAllocator::allocateFromList(cache->partialHead);
  86:src/kernel/slab_allocator.cpp ****     if(ret){
  87:src/kernel/slab_allocator.cpp ****         return ret;
  88:src/kernel/slab_allocator.cpp ****     }
  89:src/kernel/slab_allocator.cpp ****     ret = SlabAllocator::allocateFromList(cache->emptyHead);
  90:src/kernel/slab_allocator.cpp ****     if(ret){
  91:src/kernel/slab_allocator.cpp ****         return ret;
  92:src/kernel/slab_allocator.cpp ****     }
  93:src/kernel/slab_allocator.cpp ****     if(cache->objectSize <= sizeof(Slab)) {
  94:src/kernel/slab_allocator.cpp ****         if (!SlabAllocator::allocateSlab(cache))
  95:src/kernel/slab_allocator.cpp ****             return nullptr;
  96:src/kernel/slab_allocator.cpp **** 
  97:src/kernel/slab_allocator.cpp ****         ret = SlabAllocator::allocateSlot(cache->emptyHead);
  98:src/kernel/slab_allocator.cpp ****     }
GAS LISTING /tmp/cc3wtzn3.s 			page 4


  99:src/kernel/slab_allocator.cpp ****     else{
 100:src/kernel/slab_allocator.cpp ****         Slab* slab = (Slab*)SlabAllocator::allocateObject(largeSlabCache);
 101:src/kernel/slab_allocator.cpp ****         slab->totalNumOfSlots = slab->numOfFreeSlots = (((1<<cache->slabSize) << BLOCK_SIZE_BITS)) 
 102:src/kernel/slab_allocator.cpp ****         if(slab->totalNumOfSlots > MAX_NUMBER_OF_SLOTS)
 103:src/kernel/slab_allocator.cpp ****             slab->totalNumOfSlots = slab->numOfFreeSlots = MAX_NUMBER_OF_SLOTS;
 104:src/kernel/slab_allocator.cpp ****         void* slabOffset = Buddy::alloc(cache->slabSize);
 105:src/kernel/slab_allocator.cpp ****         slab->objectOffset = slabOffset;
 106:src/kernel/slab_allocator.cpp ****         slab->parent = cache;
 107:src/kernel/slab_allocator.cpp ****         slab->next = nullptr;
 108:src/kernel/slab_allocator.cpp ****         for(uint64 i=0;i<(slab->totalNumOfSlots+7)>>3;i++)
 109:src/kernel/slab_allocator.cpp ****             slab->allocated[i] = 0;
 110:src/kernel/slab_allocator.cpp **** 
 111:src/kernel/slab_allocator.cpp ****         if(cache->ctor) {
 112:src/kernel/slab_allocator.cpp ****             for (uint64 i = 0; i < slab->totalNumOfSlots; i++) {
 113:src/kernel/slab_allocator.cpp ****                 cache->ctor((void *) ((uint64) slab->objectOffset + i * slab->parent->objectSize));
 114:src/kernel/slab_allocator.cpp ****             }
 115:src/kernel/slab_allocator.cpp ****         }
 116:src/kernel/slab_allocator.cpp **** 
 117:src/kernel/slab_allocator.cpp ****         SlabAllocator::insertIntoList(cache->emptyHead, slab);
 118:src/kernel/slab_allocator.cpp ****         ret = SlabAllocator::allocateSlot(cache->emptyHead);
 119:src/kernel/slab_allocator.cpp ****     }
 120:src/kernel/slab_allocator.cpp **** 
 121:src/kernel/slab_allocator.cpp ****     return ret;
 122:src/kernel/slab_allocator.cpp **** }
 123:src/kernel/slab_allocator.cpp **** 
 124:src/kernel/slab_allocator.cpp **** void* SlabAllocator::allocateBuffer(size_t size) {
 125:src/kernel/slab_allocator.cpp ****     uint64 level = Buddy::getDeg(Buddy::ceil(size));
 126:src/kernel/slab_allocator.cpp ****     if(level < CACHE_LOWER_BOUND || level > CACHE_UPPER_BOUND)
 127:src/kernel/slab_allocator.cpp ****         return nullptr;
 128:src/kernel/slab_allocator.cpp ****     else
 129:src/kernel/slab_allocator.cpp ****         level -= CACHE_LOWER_BOUND;
 130:src/kernel/slab_allocator.cpp ****     return SlabAllocator::allocateObject(sizeN[level]);
 131:src/kernel/slab_allocator.cpp **** }
 132:src/kernel/slab_allocator.cpp **** 
 133:src/kernel/slab_allocator.cpp **** void SlabAllocator::freeSlot(Slab *slab, uint64 index) {
 134:src/kernel/slab_allocator.cpp ****     if(slab->allocated[index>>3] & (1<<(7 - (index&7)))) {
 135:src/kernel/slab_allocator.cpp ****         slab->allocated[index>>3] &= ~(1<<(7 - (index&7)));
 136:src/kernel/slab_allocator.cpp ****         Slab *&headFrom = slab->isFull() ? slab->parent->fullHead : slab->parent->partialHead;
 137:src/kernel/slab_allocator.cpp ****         slab->numOfFreeSlots++;
 138:src/kernel/slab_allocator.cpp ****         Slab *&headTo = slab->isEmpty() ? slab->parent->emptyHead : slab->parent->partialHead;
 139:src/kernel/slab_allocator.cpp **** 
 140:src/kernel/slab_allocator.cpp **** //        if(slab->isEmpty()) {
 141:src/kernel/slab_allocator.cpp **** //            SlabAllocator::removeFromList(headFrom, slab);
 142:src/kernel/slab_allocator.cpp **** //            if(slab->parent->objectSize <= sizeof(Slab)) {
 143:src/kernel/slab_allocator.cpp **** //                Buddy::free(slab, slab->parent->slabSize);
 144:src/kernel/slab_allocator.cpp **** //            }
 145:src/kernel/slab_allocator.cpp **** //            else{
 146:src/kernel/slab_allocator.cpp **** //                Buddy::free(slab->objectOffset, slab->parent->slabSize);
 147:src/kernel/slab_allocator.cpp **** //                SlabAllocator::freeObject(largeSlabCache, slab);
 148:src/kernel/slab_allocator.cpp **** //            }
 149:src/kernel/slab_allocator.cpp **** //        }
 150:src/kernel/slab_allocator.cpp **** //        else
 151:src/kernel/slab_allocator.cpp ****             if (headTo != headFrom)
 152:src/kernel/slab_allocator.cpp ****                 SlabAllocator::move(headFrom, headTo, slab);
 153:src/kernel/slab_allocator.cpp ****     }
 154:src/kernel/slab_allocator.cpp **** }
 155:src/kernel/slab_allocator.cpp **** 
GAS LISTING /tmp/cc3wtzn3.s 			page 5


 156:src/kernel/slab_allocator.cpp **** bool SlabAllocator::freeObject(Cache* cache, const void *addr) {
 157:src/kernel/slab_allocator.cpp ****     if(cache->dtor)
 158:src/kernel/slab_allocator.cpp ****         cache->dtor((void*)addr);
 159:src/kernel/slab_allocator.cpp ****     if(cache->ctor)
 160:src/kernel/slab_allocator.cpp ****         cache->ctor((void*)addr);
 161:src/kernel/slab_allocator.cpp **** 
 162:src/kernel/slab_allocator.cpp ****     bool deleted = SlabAllocator::freeFromList(cache->fullHead, addr);
 163:src/kernel/slab_allocator.cpp ****     if(deleted)
 164:src/kernel/slab_allocator.cpp ****         return deleted;
 165:src/kernel/slab_allocator.cpp **** 
 166:src/kernel/slab_allocator.cpp ****     deleted = SlabAllocator::freeFromList(cache->partialHead, addr);
 167:src/kernel/slab_allocator.cpp **** 
 168:src/kernel/slab_allocator.cpp ****     return deleted;
 169:src/kernel/slab_allocator.cpp **** }
 170:src/kernel/slab_allocator.cpp **** 
 171:src/kernel/slab_allocator.cpp **** void SlabAllocator::freeBuffer(const void *addr) {
 172:src/kernel/slab_allocator.cpp ****     for(int i=0;i<BUCKET_SIZE;i++)
 173:src/kernel/slab_allocator.cpp ****         if(SlabAllocator::freeObject(sizeN[i], addr))
 174:src/kernel/slab_allocator.cpp ****             return;
 175:src/kernel/slab_allocator.cpp **** }
 176:src/kernel/slab_allocator.cpp **** 
 177:src/kernel/slab_allocator.cpp **** Cache* SlabAllocator::createCache(const char *name, size_t size, void (*ctor)(void *), void (*dtor)
 178:src/kernel/slab_allocator.cpp ****     Cache* ret = (Cache*)SlabAllocator::allocateObject(SlabAllocator::cache);
 179:src/kernel/slab_allocator.cpp ****     if(ret == nullptr)
 180:src/kernel/slab_allocator.cpp ****         return nullptr;
 181:src/kernel/slab_allocator.cpp ****     strcpy(name, ret->name);
 182:src/kernel/slab_allocator.cpp ****     ret->ctor = ctor;
 183:src/kernel/slab_allocator.cpp ****     ret->dtor = dtor;
 184:src/kernel/slab_allocator.cpp ****     ret->emptyHead = ret->partialHead = ret->fullHead = nullptr;
 185:src/kernel/slab_allocator.cpp ****     ret->objectSize = size;
 186:src/kernel/slab_allocator.cpp ****     ret->errCode = 0;
 187:src/kernel/slab_allocator.cpp ****     if(size <= sizeof(Slab))
 188:src/kernel/slab_allocator.cpp ****         ret->slabSize = SMALL_CACHE_DEFAULT_SLAB_SIZE;
 189:src/kernel/slab_allocator.cpp ****     else
 190:src/kernel/slab_allocator.cpp ****         ret->slabSize = Buddy::getDeg(Buddy::ceil(size))-10;
 191:src/kernel/slab_allocator.cpp ****     return ret;
 192:src/kernel/slab_allocator.cpp **** }
 193:src/kernel/slab_allocator.cpp **** 
 194:src/kernel/slab_allocator.cpp **** void SlabAllocator::deleteCache(Cache* &cache) {
 195:src/kernel/slab_allocator.cpp ****     deleteList(cache->fullHead);
 196:src/kernel/slab_allocator.cpp ****     deleteList(cache->partialHead);
 197:src/kernel/slab_allocator.cpp ****     deleteList(cache->emptyHead);
 198:src/kernel/slab_allocator.cpp ****     SlabAllocator::freeObject(SlabAllocator::cache, cache);
 199:src/kernel/slab_allocator.cpp ****     cache = nullptr;
 200:src/kernel/slab_allocator.cpp **** }
 201:src/kernel/slab_allocator.cpp **** 
 202:src/kernel/slab_allocator.cpp **** int SlabAllocator::shrinkCache(Cache *cache) {
 203:src/kernel/slab_allocator.cpp ****     int ret = 0;
 204:src/kernel/slab_allocator.cpp ****     while(cache->emptyHead){
 205:src/kernel/slab_allocator.cpp ****         ret += (1<<cache->slabSize);
 206:src/kernel/slab_allocator.cpp ****         if(cache->objectSize <= sizeof(Slab)) {
 207:src/kernel/slab_allocator.cpp ****             Buddy::free(cache->emptyHead, cache->slabSize);
 208:src/kernel/slab_allocator.cpp ****         }
 209:src/kernel/slab_allocator.cpp ****         else{
 210:src/kernel/slab_allocator.cpp ****             Buddy::free(cache->emptyHead->objectOffset, cache->slabSize);
 211:src/kernel/slab_allocator.cpp ****             SlabAllocator::freeObject(largeSlabCache, cache->emptyHead);
 212:src/kernel/slab_allocator.cpp ****         }
GAS LISTING /tmp/cc3wtzn3.s 			page 6


 213:src/kernel/slab_allocator.cpp ****         cache->emptyHead = cache->emptyHead->next;
 214:src/kernel/slab_allocator.cpp ****     }
 215:src/kernel/slab_allocator.cpp ****     return ret;
 216:src/kernel/slab_allocator.cpp **** }
 217:src/kernel/slab_allocator.cpp **** 
 218:src/kernel/slab_allocator.cpp **** void SlabAllocator::printSlab(Slab *slab) {
  44              		.loc 1 218 43
  45              		.cfi_startproc
  46              	.LVL0:
 219:src/kernel/slab_allocator.cpp ****     if(slab) {
  47              		.loc 1 219 5
  48              	.LBB41:
  49 0000 63040514 		beqz	a0,.L6
  50              	.LBE41:
 218:src/kernel/slab_allocator.cpp ****     if(slab) {
  51              		.loc 1 218 43 is_stmt 0
  52 0004 130101FE 		addi	sp,sp,-32
  53              		.cfi_def_cfa_offset 32
  54 0008 233C1100 		sd	ra,24(sp)
  55 000c 23388100 		sd	s0,16(sp)
  56 0010 23349100 		sd	s1,8(sp)
  57 0014 23302101 		sd	s2,0(sp)
  58              		.cfi_offset 1, -8
  59              		.cfi_offset 8, -16
  60              		.cfi_offset 9, -24
  61              		.cfi_offset 18, -32
  62 0018 13040102 		addi	s0,sp,32
  63              		.cfi_def_cfa 8, 0
  64 001c 13090500 		mv	s2,a0
  65              	.LBB44:
  66              	.LBB42:
 220:src/kernel/slab_allocator.cpp ****         ConsoleUtil::printString("\nNOW SHOWING SLAB INFO\n");
  67              		.loc 1 220 9 is_stmt 1
  68              		.loc 1 220 33 is_stmt 0
  69 0020 17050000 		lla	a0,.LC0
  69      13050500 
  70              	.LVL1:
  71 0028 97000000 		call	_ZN11ConsoleUtil11printStringEPKc@plt
  71      E7800000 
  72              	.LVL2:
 221:src/kernel/slab_allocator.cpp ****         ConsoleUtil::print("Slab address:", (uint64) slab, "\n");
  73              		.loc 1 221 9 is_stmt 1
  74              		.loc 1 221 27 is_stmt 0
  75 0030 93060001 		li	a3,16
  76 0034 17060000 		lla	a2,.LC1
  76      13060600 
  77 003c 9B050900 		sext.w	a1,s2
  78 0040 17050000 		lla	a0,.LC2
  78      13050500 
  79 0048 97000000 		call	_ZN11ConsoleUtil5printEPKciS1_i@plt
  79      E7800000 
  80              	.LVL3:
 222:src/kernel/slab_allocator.cpp ****         ConsoleUtil::print("Number of slots:", (uint64) slab->totalNumOfSlots, "\n",10);
  81              		.loc 1 222 9 is_stmt 1
  82              		.loc 1 222 27 is_stmt 0
  83 0050 9306A000 		li	a3,10
  84 0054 17060000 		lla	a2,.LC1
GAS LISTING /tmp/cc3wtzn3.s 			page 7


  84      13060600 
  85 005c 83258901 		lw	a1,24(s2)
  86 0060 17050000 		lla	a0,.LC3
  86      13050500 
  87 0068 97000000 		call	_ZN11ConsoleUtil5printEPKciS1_i@plt
  87      E7800000 
  88              	.LVL4:
 223:src/kernel/slab_allocator.cpp ****         ConsoleUtil::print("Number of free slots:", (uint64) slab->numOfFreeSlots, "\n",10);
  89              		.loc 1 223 9 is_stmt 1
  90              		.loc 1 223 27 is_stmt 0
  91 0070 9306A000 		li	a3,10
  92 0074 17060000 		lla	a2,.LC1
  92      13060600 
  93 007c 83250901 		lw	a1,16(s2)
  94 0080 17050000 		lla	a0,.LC4
  94      13050500 
  95 0088 97000000 		call	_ZN11ConsoleUtil5printEPKciS1_i@plt
  95      E7800000 
  96              	.LVL5:
 224:src/kernel/slab_allocator.cpp ****         ConsoleUtil::print("Slab object size:", (uint64) sizeof(Slab), "\n",10);
  97              		.loc 1 224 9 is_stmt 1
  98              		.loc 1 224 27 is_stmt 0
  99 0090 9306A000 		li	a3,10
 100 0094 17060000 		lla	a2,.LC1
 100      13060600 
 101 009c 9305000B 		li	a1,176
 102 00a0 17050000 		lla	a0,.LC5
 102      13050500 
 103 00a8 97000000 		call	_ZN11ConsoleUtil5printEPKciS1_i@plt
 103      E7800000 
 104              	.LVL6:
 225:src/kernel/slab_allocator.cpp ****         ConsoleUtil::print("Object offset:", (uint64) slab->objectOffset, "\n");
 105              		.loc 1 225 9 is_stmt 1
 106              		.loc 1 225 27 is_stmt 0
 107 00b0 93060001 		li	a3,16
 108 00b4 17060000 		lla	a2,.LC1
 108      13060600 
 109 00bc 8325090A 		lw	a1,160(s2)
 110 00c0 17050000 		lla	a0,.LC6
 110      13050500 
 111 00c8 97000000 		call	_ZN11ConsoleUtil5printEPKciS1_i@plt
 111      E7800000 
 112              	.LVL7:
 226:src/kernel/slab_allocator.cpp ****         ConsoleUtil::printString("Allocated status array: ");
 113              		.loc 1 226 9 is_stmt 1
 114              		.loc 1 226 33 is_stmt 0
 115 00d0 17050000 		lla	a0,.LC7
 115      13050500 
 116 00d8 97000000 		call	_ZN11ConsoleUtil11printStringEPKc@plt
 116      E7800000 
 117              	.LVL8:
 227:src/kernel/slab_allocator.cpp ****         for (uint64 i = 0; i < (slab->totalNumOfSlots+7)>>3; i++) {
 118              		.loc 1 227 9 is_stmt 1
 119              	.LBB43:
 120              		.loc 1 227 21 is_stmt 0
 121 00e0 93040000 		li	s1,0
 122 00e4 6F00C002 		j	.L4
GAS LISTING /tmp/cc3wtzn3.s 			page 8


 123              	.LVL9:
 124              	.L9:
 228:src/kernel/slab_allocator.cpp ****             ConsoleUtil::print("", slab->allocated[i], " ");
 125              		.loc 1 228 13 is_stmt 1 discriminator 2
 126              		.loc 1 228 53 is_stmt 0 discriminator 2
 127 00e8 B3079900 		add	a5,s2,s1
 128              		.loc 1 228 31 discriminator 2
 129 00ec 93060001 		li	a3,16
 130 00f0 17060000 		lla	a2,.LC8
 130      13060600 
 131 00f8 83C50702 		lbu	a1,32(a5)
 132 00fc 17050000 		lla	a0,.LC9
 132      13050500 
 133 0104 97000000 		call	_ZN11ConsoleUtil5printEPKciS1_i@plt
 133      E7800000 
 134              	.LVL10:
 227:src/kernel/slab_allocator.cpp ****         for (uint64 i = 0; i < (slab->totalNumOfSlots+7)>>3; i++) {
 135              		.loc 1 227 9 is_stmt 1 discriminator 2
 136 010c 93841400 		addi	s1,s1,1
 137              	.LVL11:
 138              	.L4:
 227:src/kernel/slab_allocator.cpp ****         for (uint64 i = 0; i < (slab->totalNumOfSlots+7)>>3; i++) {
 139              		.loc 1 227 30 discriminator 3
 227:src/kernel/slab_allocator.cpp ****         for (uint64 i = 0; i < (slab->totalNumOfSlots+7)>>3; i++) {
 140              		.loc 1 227 39 is_stmt 0 discriminator 3
 141 0110 83378901 		ld	a5,24(s2)
 227:src/kernel/slab_allocator.cpp ****         for (uint64 i = 0; i < (slab->totalNumOfSlots+7)>>3; i++) {
 142              		.loc 1 227 54 discriminator 3
 143 0114 93877700 		addi	a5,a5,7
 227:src/kernel/slab_allocator.cpp ****         for (uint64 i = 0; i < (slab->totalNumOfSlots+7)>>3; i++) {
 144              		.loc 1 227 57 discriminator 3
 145 0118 93D73700 		srli	a5,a5,3
 227:src/kernel/slab_allocator.cpp ****         for (uint64 i = 0; i < (slab->totalNumOfSlots+7)>>3; i++) {
 146              		.loc 1 227 30 discriminator 3
 147 011c E3E6F4FC 		bgtu	a5,s1,.L9
 148              	.LBE43:
 229:src/kernel/slab_allocator.cpp ****         }
 230:src/kernel/slab_allocator.cpp ****         ConsoleUtil::printString("\n");
 149              		.loc 1 230 9 is_stmt 1
 150              		.loc 1 230 33 is_stmt 0
 151 0120 17050000 		lla	a0,.LC1
 151      13050500 
 152 0128 97000000 		call	_ZN11ConsoleUtil11printStringEPKc@plt
 152      E7800000 
 153              	.LVL12:
 154              	.LBE42:
 155              	.LBE44:
 231:src/kernel/slab_allocator.cpp ****     }
 232:src/kernel/slab_allocator.cpp **** }
 156              		.loc 1 232 1
 157 0130 83308101 		ld	ra,24(sp)
 158              		.cfi_restore 1
 159 0134 03340101 		ld	s0,16(sp)
 160              		.cfi_restore 8
 161              		.cfi_def_cfa 2, 32
 162 0138 83348100 		ld	s1,8(sp)
 163              		.cfi_restore 9
GAS LISTING /tmp/cc3wtzn3.s 			page 9


 164              	.LVL13:
 165 013c 03390100 		ld	s2,0(sp)
 166              		.cfi_restore 18
 167              	.LVL14:
 168 0140 13010102 		addi	sp,sp,32
 169              		.cfi_def_cfa_offset 0
 170 0144 67800000 		jr	ra
 171              	.LVL15:
 172              	.L6:
 173 0148 67800000 		ret
 174              		.cfi_endproc
 175              	.LFE46:
 177              		.section	.rodata.str1.8
 178 00b1 00000000 		.align	3
 178      000000
 179              	.LC10:
 180 00b8 0A4E4F57 		.string	"\nNOW SHOWING CACHE INFO\n"
 180      2053484F 
 180      57494E47 
 180      20434143 
 180      48452049 
 181 00d1 00000000 		.align	3
 181      000000
 182              	.LC11:
 183 00d8 43616368 		.string	"Cache name: "
 183      65206E61 
 183      6D653A20 
 183      00
 184 00e5 000000   		.align	3
 185              	.LC12:
 186 00e8 43616368 		.string	"Cache address: "
 186      65206164 
 186      64726573 
 186      733A2000 
 187              		.align	3
 188              	.LC13:
 189 00f8 43616368 		.string	"Cache slab size: "
 189      6520736C 
 189      61622073 
 189      697A653A 
 189      2000
 190 010a 00000000 		.align	3
 190      0000
 191              	.LC14:
 192 0110 43616368 		.string	"Cache object size: "
 192      65206F62 
 192      6A656374 
 192      2073697A 
 192      653A2000 
 193 0124 00000000 		.align	3
 194              	.LC15:
 195 0128 456D7074 		.string	"Empty head: "
 195      79206865 
 195      61643A20 
 195      00
 196 0135 000000   		.align	3
 197              	.LC16:
GAS LISTING /tmp/cc3wtzn3.s 			page 10


 198 0138 50617274 		.string	"Partial head: "
 198      69616C20 
 198      68656164 
 198      3A2000
 199 0147 00       		.align	3
 200              	.LC17:
 201 0148 46756C6C 		.string	"Full head: "
 201      20686561 
 201      643A2000 
 202              		.text
 203              		.align	2
 204              		.globl	_ZN13SlabAllocator10printCacheEP5Cache
 206              	_ZN13SlabAllocator10printCacheEP5Cache:
 207              	.LFB47:
 233:src/kernel/slab_allocator.cpp **** 
 234:src/kernel/slab_allocator.cpp **** void SlabAllocator::printCache(Cache *cache) {
 208              		.loc 1 234 46 is_stmt 1
 209              		.cfi_startproc
 210              	.LVL16:
 235:src/kernel/slab_allocator.cpp ****     if(cache) {
 211              		.loc 1 235 5
 212              	.LBB45:
 213 014c 630A051E 		beqz	a0,.L19
 214              	.LBE45:
 234:src/kernel/slab_allocator.cpp ****     if(cache) {
 215              		.loc 1 234 46 is_stmt 0
 216 0150 130101FE 		addi	sp,sp,-32
 217              		.cfi_def_cfa_offset 32
 218 0154 233C1100 		sd	ra,24(sp)
 219 0158 23388100 		sd	s0,16(sp)
 220 015c 23349100 		sd	s1,8(sp)
 221 0160 23302101 		sd	s2,0(sp)
 222              		.cfi_offset 1, -8
 223              		.cfi_offset 8, -16
 224              		.cfi_offset 9, -24
 225              		.cfi_offset 18, -32
 226 0164 13040102 		addi	s0,sp,32
 227              		.cfi_def_cfa 8, 0
 228 0168 13090500 		mv	s2,a0
 229              	.LBB47:
 230              	.LBB46:
 236:src/kernel/slab_allocator.cpp ****         ConsoleUtil::printString("\nNOW SHOWING CACHE INFO\n");
 231              		.loc 1 236 9 is_stmt 1
 232              		.loc 1 236 33 is_stmt 0
 233 016c 17050000 		lla	a0,.LC10
 233      13050500 
 234              	.LVL17:
 235 0174 97000000 		call	_ZN11ConsoleUtil11printStringEPKc@plt
 235      E7800000 
 236              	.LVL18:
 237:src/kernel/slab_allocator.cpp ****         ConsoleUtil::printString("Cache name: ");
 237              		.loc 1 237 9 is_stmt 1
 238              		.loc 1 237 33 is_stmt 0
 239 017c 17050000 		lla	a0,.LC11
 239      13050500 
 240 0184 97000000 		call	_ZN11ConsoleUtil11printStringEPKc@plt
 240      E7800000 
GAS LISTING /tmp/cc3wtzn3.s 			page 11


 241              	.LVL19:
 238:src/kernel/slab_allocator.cpp ****         ConsoleUtil::printString(cache->name);
 242              		.loc 1 238 9 is_stmt 1
 243              		.loc 1 238 33 is_stmt 0
 244 018c 13050900 		mv	a0,s2
 245 0190 97000000 		call	_ZN11ConsoleUtil11printStringEPKc@plt
 245      E7800000 
 246              	.LVL20:
 239:src/kernel/slab_allocator.cpp ****         ConsoleUtil::printString("\n");
 247              		.loc 1 239 9 is_stmt 1
 248              		.loc 1 239 33 is_stmt 0
 249 0198 17050000 		lla	a0,.LC1
 249      13050500 
 250 01a0 97000000 		call	_ZN11ConsoleUtil11printStringEPKc@plt
 250      E7800000 
 251              	.LVL21:
 240:src/kernel/slab_allocator.cpp ****         ConsoleUtil::print("Cache address: ", (uint64) cache, "\n");
 252              		.loc 1 240 9 is_stmt 1
 253              		.loc 1 240 27 is_stmt 0
 254 01a8 93060001 		li	a3,16
 255 01ac 17060000 		lla	a2,.LC1
 255      13060600 
 256 01b4 9B050900 		sext.w	a1,s2
 257 01b8 17050000 		lla	a0,.LC12
 257      13050500 
 258 01c0 97000000 		call	_ZN11ConsoleUtil5printEPKciS1_i@plt
 258      E7800000 
 259              	.LVL22:
 241:src/kernel/slab_allocator.cpp ****         ConsoleUtil::print("Cache slab size: ", (uint64) cache->slabSize, "\n", 10);
 260              		.loc 1 241 9 is_stmt 1
 261              		.loc 1 241 27 is_stmt 0
 262 01c8 9306A000 		li	a3,10
 263 01cc 17060000 		lla	a2,.LC1
 263      13060600 
 264 01d4 83258904 		lw	a1,72(s2)
 265 01d8 17050000 		lla	a0,.LC13
 265      13050500 
 266 01e0 97000000 		call	_ZN11ConsoleUtil5printEPKciS1_i@plt
 266      E7800000 
 267              	.LVL23:
 242:src/kernel/slab_allocator.cpp ****         ConsoleUtil::print("Cache object size: ", (uint64) cache->objectSize, "\n", 10);
 268              		.loc 1 242 9 is_stmt 1
 269              		.loc 1 242 27 is_stmt 0
 270 01e8 9306A000 		li	a3,10
 271 01ec 17060000 		lla	a2,.LC1
 271      13060600 
 272 01f4 83250904 		lw	a1,64(s2)
 273 01f8 17050000 		lla	a0,.LC14
 273      13050500 
 274 0200 97000000 		call	_ZN11ConsoleUtil5printEPKciS1_i@plt
 274      E7800000 
 275              	.LVL24:
 243:src/kernel/slab_allocator.cpp ****         ConsoleUtil::print("Empty head: ", (uint64) cache->emptyHead, "\n");
 276              		.loc 1 243 9 is_stmt 1
 277              		.loc 1 243 27 is_stmt 0
 278 0208 93060001 		li	a3,16
 279 020c 17060000 		lla	a2,.LC1
GAS LISTING /tmp/cc3wtzn3.s 			page 12


 279      13060600 
 280 0214 83258906 		lw	a1,104(s2)
 281 0218 17050000 		lla	a0,.LC15
 281      13050500 
 282 0220 97000000 		call	_ZN11ConsoleUtil5printEPKciS1_i@plt
 282      E7800000 
 283              	.LVL25:
 244:src/kernel/slab_allocator.cpp **** 
 245:src/kernel/slab_allocator.cpp ****         Slab *iter = cache->emptyHead;
 284              		.loc 1 245 9 is_stmt 1
 285              		.loc 1 245 15 is_stmt 0
 286 0228 83348906 		ld	s1,104(s2)
 287              	.LVL26:
 288 022c 6F008002 		j	.L13
 289              	.L22:
 246:src/kernel/slab_allocator.cpp ****         while (iter) {
 247:src/kernel/slab_allocator.cpp ****             ConsoleUtil::print("", (uint64) iter, " ");
 290              		.loc 1 247 13 is_stmt 1
 291              		.loc 1 247 31 is_stmt 0
 292 0230 93060001 		li	a3,16
 293 0234 17060000 		lla	a2,.LC8
 293      13060600 
 294 023c 9B850400 		sext.w	a1,s1
 295 0240 17050000 		lla	a0,.LC9
 295      13050500 
 296 0248 97000000 		call	_ZN11ConsoleUtil5printEPKciS1_i@plt
 296      E7800000 
 297              	.LVL27:
 248:src/kernel/slab_allocator.cpp ****             iter = iter->next;
 298              		.loc 1 248 13 is_stmt 1
 299              		.loc 1 248 18 is_stmt 0
 300 0250 83B48400 		ld	s1,8(s1)
 301              	.LVL28:
 302              	.L13:
 246:src/kernel/slab_allocator.cpp ****         while (iter) {
 303              		.loc 1 246 9 is_stmt 1
 246:src/kernel/slab_allocator.cpp ****         while (iter) {
 304              		.loc 1 246 16
 305 0254 E39E04FC 		bnez	s1,.L22
 249:src/kernel/slab_allocator.cpp ****         }
 250:src/kernel/slab_allocator.cpp ****         ConsoleUtil::printString("\n");
 306              		.loc 1 250 9
 307              		.loc 1 250 33 is_stmt 0
 308 0258 17050000 		lla	a0,.LC1
 308      13050500 
 309 0260 97000000 		call	_ZN11ConsoleUtil11printStringEPKc@plt
 309      E7800000 
 310              	.LVL29:
 251:src/kernel/slab_allocator.cpp **** 
 252:src/kernel/slab_allocator.cpp ****         ConsoleUtil::print("Partial head: ", (uint64) cache->partialHead, "\n");
 311              		.loc 1 252 9 is_stmt 1
 312              		.loc 1 252 27 is_stmt 0
 313 0268 93060001 		li	a3,16
 314 026c 17060000 		lla	a2,.LC1
 314      13060600 
 315 0274 83250907 		lw	a1,112(s2)
 316 0278 17050000 		lla	a0,.LC16
GAS LISTING /tmp/cc3wtzn3.s 			page 13


 316      13050500 
 317 0280 97000000 		call	_ZN11ConsoleUtil5printEPKciS1_i@plt
 317      E7800000 
 318              	.LVL30:
 253:src/kernel/slab_allocator.cpp **** 
 254:src/kernel/slab_allocator.cpp ****         iter = cache->partialHead;
 319              		.loc 1 254 9 is_stmt 1
 320              		.loc 1 254 14 is_stmt 0
 321 0288 83340907 		ld	s1,112(s2)
 322              	.LVL31:
 323              	.L15:
 255:src/kernel/slab_allocator.cpp ****         while (iter) {
 324              		.loc 1 255 9 is_stmt 1
 325              		.loc 1 255 16
 326 028c 63860402 		beqz	s1,.L14
 256:src/kernel/slab_allocator.cpp ****             ConsoleUtil::print("", (uint64) iter, " ");
 327              		.loc 1 256 13
 328              		.loc 1 256 31 is_stmt 0
 329 0290 93060001 		li	a3,16
 330 0294 17060000 		lla	a2,.LC8
 330      13060600 
 331 029c 9B850400 		sext.w	a1,s1
 332 02a0 17050000 		lla	a0,.LC9
 332      13050500 
 333 02a8 97000000 		call	_ZN11ConsoleUtil5printEPKciS1_i@plt
 333      E7800000 
 334              	.LVL32:
 257:src/kernel/slab_allocator.cpp ****             iter = iter->next;
 335              		.loc 1 257 13 is_stmt 1
 336              		.loc 1 257 18 is_stmt 0
 337 02b0 83B48400 		ld	s1,8(s1)
 338              	.LVL33:
 255:src/kernel/slab_allocator.cpp ****         while (iter) {
 339              		.loc 1 255 9
 340 02b4 6FF09FFD 		j	.L15
 341              	.L14:
 258:src/kernel/slab_allocator.cpp ****         }
 259:src/kernel/slab_allocator.cpp ****         ConsoleUtil::printString("\n");
 342              		.loc 1 259 9 is_stmt 1
 343              		.loc 1 259 33 is_stmt 0
 344 02b8 17050000 		lla	a0,.LC1
 344      13050500 
 345 02c0 97000000 		call	_ZN11ConsoleUtil11printStringEPKc@plt
 345      E7800000 
 346              	.LVL34:
 260:src/kernel/slab_allocator.cpp **** 
 261:src/kernel/slab_allocator.cpp ****         ConsoleUtil::print("Full head: ", (uint64) cache->fullHead, "\n");
 347              		.loc 1 261 9 is_stmt 1
 348              		.loc 1 261 27 is_stmt 0
 349 02c8 93060001 		li	a3,16
 350 02cc 17060000 		lla	a2,.LC1
 350      13060600 
 351 02d4 83258907 		lw	a1,120(s2)
 352 02d8 17050000 		lla	a0,.LC17
 352      13050500 
 353 02e0 97000000 		call	_ZN11ConsoleUtil5printEPKciS1_i@plt
 353      E7800000 
GAS LISTING /tmp/cc3wtzn3.s 			page 14


 354              	.LVL35:
 262:src/kernel/slab_allocator.cpp **** 
 263:src/kernel/slab_allocator.cpp ****         iter = cache->fullHead;
 355              		.loc 1 263 9 is_stmt 1
 356              		.loc 1 263 14 is_stmt 0
 357 02e8 83348907 		ld	s1,120(s2)
 358              	.LVL36:
 359 02ec 6F008002 		j	.L17
 360              	.L23:
 264:src/kernel/slab_allocator.cpp ****         while (iter) {
 265:src/kernel/slab_allocator.cpp ****             ConsoleUtil::print("", (uint64) iter, " ");
 361              		.loc 1 265 13 is_stmt 1
 362              		.loc 1 265 31 is_stmt 0
 363 02f0 93060001 		li	a3,16
 364 02f4 17060000 		lla	a2,.LC8
 364      13060600 
 365 02fc 9B850400 		sext.w	a1,s1
 366 0300 17050000 		lla	a0,.LC9
 366      13050500 
 367 0308 97000000 		call	_ZN11ConsoleUtil5printEPKciS1_i@plt
 367      E7800000 
 368              	.LVL37:
 266:src/kernel/slab_allocator.cpp ****             iter = iter->next;
 369              		.loc 1 266 13 is_stmt 1
 370              		.loc 1 266 18 is_stmt 0
 371 0310 83B48400 		ld	s1,8(s1)
 372              	.LVL38:
 373              	.L17:
 264:src/kernel/slab_allocator.cpp ****         while (iter) {
 374              		.loc 1 264 9 is_stmt 1
 264:src/kernel/slab_allocator.cpp ****         while (iter) {
 375              		.loc 1 264 16
 376 0314 E39E04FC 		bnez	s1,.L23
 267:src/kernel/slab_allocator.cpp ****         }
 268:src/kernel/slab_allocator.cpp ****         ConsoleUtil::printString("\n");
 377              		.loc 1 268 9
 378              		.loc 1 268 33 is_stmt 0
 379 0318 17050000 		lla	a0,.LC1
 379      13050500 
 380 0320 97000000 		call	_ZN11ConsoleUtil11printStringEPKc@plt
 380      E7800000 
 381              	.LVL39:
 382              	.LBE46:
 383              	.LBE47:
 269:src/kernel/slab_allocator.cpp ****     }
 270:src/kernel/slab_allocator.cpp **** }
 384              		.loc 1 270 1
 385 0328 83308101 		ld	ra,24(sp)
 386              		.cfi_restore 1
 387 032c 03340101 		ld	s0,16(sp)
 388              		.cfi_restore 8
 389              		.cfi_def_cfa 2, 32
 390 0330 83348100 		ld	s1,8(sp)
 391              		.cfi_restore 9
 392              	.LVL40:
 393 0334 03390100 		ld	s2,0(sp)
 394              		.cfi_restore 18
GAS LISTING /tmp/cc3wtzn3.s 			page 15


 395              	.LVL41:
 396 0338 13010102 		addi	sp,sp,32
 397              		.cfi_def_cfa_offset 0
 398 033c 67800000 		jr	ra
 399              	.LVL42:
 400              	.L19:
 401 0340 67800000 		ret
 402              		.cfi_endproc
 403              	.LFE47:
 405              		.align	2
 406              		.globl	_ZN13SlabAllocator14insertIntoListERP4SlabS1_
 408              	_ZN13SlabAllocator14insertIntoListERP4SlabS1_:
 409              	.LFB48:
 271:src/kernel/slab_allocator.cpp **** 
 272:src/kernel/slab_allocator.cpp **** void SlabAllocator::insertIntoList(Slab *&head, Slab *slab) {
 410              		.loc 1 272 61 is_stmt 1
 411              		.cfi_startproc
 412              	.LVL43:
 413 0344 130101FF 		addi	sp,sp,-16
 414              		.cfi_def_cfa_offset 16
 415 0348 23348100 		sd	s0,8(sp)
 416              		.cfi_offset 8, -8
 417 034c 13040101 		addi	s0,sp,16
 418              		.cfi_def_cfa 8, 0
 273:src/kernel/slab_allocator.cpp ****     slab->next = head;
 419              		.loc 1 273 5
 420              		.loc 1 273 18 is_stmt 0
 421 0350 83370500 		ld	a5,0(a0)
 422              		.loc 1 273 16
 423 0354 23B4F500 		sd	a5,8(a1)
 274:src/kernel/slab_allocator.cpp ****     if(head)
 424              		.loc 1 274 5 is_stmt 1
 425 0358 63840700 		beqz	a5,.L25
 275:src/kernel/slab_allocator.cpp ****         head->prev = slab;
 426              		.loc 1 275 9
 427              		.loc 1 275 20 is_stmt 0
 428 035c 23B0B700 		sd	a1,0(a5)
 429              	.L25:
 276:src/kernel/slab_allocator.cpp ****     slab->prev = nullptr;
 430              		.loc 1 276 5 is_stmt 1
 431              		.loc 1 276 16 is_stmt 0
 432 0360 23B00500 		sd	zero,0(a1)
 277:src/kernel/slab_allocator.cpp ****     head = slab;
 433              		.loc 1 277 5 is_stmt 1
 434              		.loc 1 277 10 is_stmt 0
 435 0364 2330B500 		sd	a1,0(a0)
 278:src/kernel/slab_allocator.cpp **** }
 436              		.loc 1 278 1
 437 0368 03348100 		ld	s0,8(sp)
 438              		.cfi_restore 8
 439              		.cfi_def_cfa 2, 16
 440 036c 13010101 		addi	sp,sp,16
 441              		.cfi_def_cfa_offset 0
 442 0370 67800000 		jr	ra
 443              		.cfi_endproc
 444              	.LFE48:
 446              		.align	2
GAS LISTING /tmp/cc3wtzn3.s 			page 16


 447              		.globl	_ZN13SlabAllocator12allocateSlabEP5Cache
 449              	_ZN13SlabAllocator12allocateSlabEP5Cache:
 450              	.LFB36:
  43:src/kernel/slab_allocator.cpp ****     Slab* slab = (Slab*)Buddy::alloc(cache->slabSize);
 451              		.loc 1 43 48 is_stmt 1
 452              		.cfi_startproc
 453              	.LVL44:
 454 0374 130101FD 		addi	sp,sp,-48
 455              		.cfi_def_cfa_offset 48
 456 0378 23341102 		sd	ra,40(sp)
 457 037c 23308102 		sd	s0,32(sp)
 458 0380 233C9100 		sd	s1,24(sp)
 459 0384 23382101 		sd	s2,16(sp)
 460 0388 23343101 		sd	s3,8(sp)
 461              		.cfi_offset 1, -8
 462              		.cfi_offset 8, -16
 463              		.cfi_offset 9, -24
 464              		.cfi_offset 18, -32
 465              		.cfi_offset 19, -40
 466 038c 13040103 		addi	s0,sp,48
 467              		.cfi_def_cfa 8, 0
 468 0390 93090500 		mv	s3,a0
  44:src/kernel/slab_allocator.cpp ****     if(!slab) {
 469              		.loc 1 44 5
  44:src/kernel/slab_allocator.cpp ****     if(!slab) {
 470              		.loc 1 44 37 is_stmt 0
 471 0394 03358504 		ld	a0,72(a0)
 472              	.LVL45:
 473 0398 97000000 		call	_ZN5Buddy5allocEm@plt
 473      E7800000 
 474              	.LVL46:
  45:src/kernel/slab_allocator.cpp ****         cache->errCode = 2;
 475              		.loc 1 45 5 is_stmt 1
 476 03a0 63000508 		beqz	a0,.L37
 477 03a4 93040500 		mv	s1,a0
  49:src/kernel/slab_allocator.cpp ****     slab->totalNumOfSlots = slab->numOfFreeSlots = (((1<<cache->slabSize) << BLOCK_SIZE_BITS) - siz
 478              		.loc 1 49 5
  49:src/kernel/slab_allocator.cpp ****     slab->totalNumOfSlots = slab->numOfFreeSlots = (((1<<cache->slabSize) << BLOCK_SIZE_BITS) - siz
 479              		.loc 1 49 34 is_stmt 0
 480 03a8 93050500 		mv	a1,a0
 481 03ac 13858906 		addi	a0,s3,104
 482              	.LVL47:
 483 03b0 97000000 		call	_ZN13SlabAllocator14insertIntoListERP4SlabS1_
 483      E7800000 
 484              	.LVL48:
  50:src/kernel/slab_allocator.cpp ****     if(slab->totalNumOfSlots > MAX_NUMBER_OF_SLOTS)
 485              		.loc 1 50 5 is_stmt 1
  50:src/kernel/slab_allocator.cpp ****     if(slab->totalNumOfSlots > MAX_NUMBER_OF_SLOTS)
 486              		.loc 1 50 65 is_stmt 0
 487 03b8 03B78904 		ld	a4,72(s3)
  50:src/kernel/slab_allocator.cpp ****     if(slab->totalNumOfSlots > MAX_NUMBER_OF_SLOTS)
 488              		.loc 1 50 56
 489 03bc 93071000 		li	a5,1
 490 03c0 BB97E700 		sllw	a5,a5,a4
  50:src/kernel/slab_allocator.cpp ****     if(slab->totalNumOfSlots > MAX_NUMBER_OF_SLOTS)
 491              		.loc 1 50 75
 492 03c4 9B97C700 		slliw	a5,a5,12
GAS LISTING /tmp/cc3wtzn3.s 			page 17


  50:src/kernel/slab_allocator.cpp ****     if(slab->totalNumOfSlots > MAX_NUMBER_OF_SLOTS)
 493              		.loc 1 50 95
 494 03c8 938707F5 		addi	a5,a5,-176
  50:src/kernel/slab_allocator.cpp ****     if(slab->totalNumOfSlots > MAX_NUMBER_OF_SLOTS)
 495              		.loc 1 50 120
 496 03cc 03B70904 		ld	a4,64(s3)
  50:src/kernel/slab_allocator.cpp ****     if(slab->totalNumOfSlots > MAX_NUMBER_OF_SLOTS)
 497              		.loc 1 50 111
 498 03d0 B3D7E702 		divu	a5,a5,a4
  50:src/kernel/slab_allocator.cpp ****     if(slab->totalNumOfSlots > MAX_NUMBER_OF_SLOTS)
 499              		.loc 1 50 50
 500 03d4 23B8F400 		sd	a5,16(s1)
  50:src/kernel/slab_allocator.cpp ****     if(slab->totalNumOfSlots > MAX_NUMBER_OF_SLOTS)
 501              		.loc 1 50 27
 502 03d8 23BCF400 		sd	a5,24(s1)
  51:src/kernel/slab_allocator.cpp ****         slab->totalNumOfSlots = slab->numOfFreeSlots = MAX_NUMBER_OF_SLOTS;
 503              		.loc 1 51 5 is_stmt 1
 504 03dc 13070040 		li	a4,1024
 505 03e0 6378F700 		bleu	a5,a4,.L30
  52:src/kernel/slab_allocator.cpp ****     slab->objectOffset = (void*)((uint64)slab + sizeof(Slab));
 506              		.loc 1 52 9
  52:src/kernel/slab_allocator.cpp ****     slab->objectOffset = (void*)((uint64)slab + sizeof(Slab));
 507              		.loc 1 52 54 is_stmt 0
 508 03e4 93070040 		li	a5,1024
 509 03e8 23B8F400 		sd	a5,16(s1)
  52:src/kernel/slab_allocator.cpp ****     slab->objectOffset = (void*)((uint64)slab + sizeof(Slab));
 510              		.loc 1 52 31
 511 03ec 23BCF400 		sd	a5,24(s1)
 512              	.L30:
  53:src/kernel/slab_allocator.cpp ****     slab->parent = cache;
 513              		.loc 1 53 5 is_stmt 1
  53:src/kernel/slab_allocator.cpp ****     slab->parent = cache;
 514              		.loc 1 53 47 is_stmt 0
 515 03f0 9387040B 		addi	a5,s1,176
  53:src/kernel/slab_allocator.cpp ****     slab->parent = cache;
 516              		.loc 1 53 24
 517 03f4 23B0F40A 		sd	a5,160(s1)
  54:src/kernel/slab_allocator.cpp ****     for(uint64 i=0;i<(slab->totalNumOfSlots+7)>>3;i++)
 518              		.loc 1 54 5 is_stmt 1
  54:src/kernel/slab_allocator.cpp ****     for(uint64 i=0;i<(slab->totalNumOfSlots+7)>>3;i++)
 519              		.loc 1 54 18 is_stmt 0
 520 03f8 23B4340B 		sd	s3,168(s1)
  55:src/kernel/slab_allocator.cpp ****         slab->allocated[i] = 0;
 521              		.loc 1 55 5 is_stmt 1
 522              	.LVL49:
 523              	.LBB48:
  55:src/kernel/slab_allocator.cpp ****         slab->allocated[i] = 0;
 524              		.loc 1 55 16 is_stmt 0
 525 03fc 13070000 		li	a4,0
 526              	.LVL50:
 527              	.L32:
  55:src/kernel/slab_allocator.cpp ****         slab->allocated[i] = 0;
 528              		.loc 1 55 21 is_stmt 1 discriminator 3
  55:src/kernel/slab_allocator.cpp ****         slab->allocated[i] = 0;
 529              		.loc 1 55 29 is_stmt 0 discriminator 3
 530 0400 83B78401 		ld	a5,24(s1)
  55:src/kernel/slab_allocator.cpp ****         slab->allocated[i] = 0;
GAS LISTING /tmp/cc3wtzn3.s 			page 18


 531              		.loc 1 55 44 discriminator 3
 532 0404 93877700 		addi	a5,a5,7
  55:src/kernel/slab_allocator.cpp ****         slab->allocated[i] = 0;
 533              		.loc 1 55 47 discriminator 3
 534 0408 93D73700 		srli	a5,a5,3
  55:src/kernel/slab_allocator.cpp ****         slab->allocated[i] = 0;
 535              		.loc 1 55 21 discriminator 3
 536 040c 6372F702 		bleu	a5,a4,.L31
  56:src/kernel/slab_allocator.cpp **** 
 537              		.loc 1 56 9 is_stmt 1 discriminator 2
  56:src/kernel/slab_allocator.cpp **** 
 538              		.loc 1 56 28 is_stmt 0 discriminator 2
 539 0410 B387E400 		add	a5,s1,a4
 540 0414 23800702 		sb	zero,32(a5)
  55:src/kernel/slab_allocator.cpp ****         slab->allocated[i] = 0;
 541              		.loc 1 55 5 is_stmt 1 discriminator 2
 542 0418 13071700 		addi	a4,a4,1
 543              	.LVL51:
 544 041c 6FF05FFE 		j	.L32
 545              	.LVL52:
 546              	.L37:
 547              	.LBE48:
  46:src/kernel/slab_allocator.cpp ****         return false;
 548              		.loc 1 46 9
  46:src/kernel/slab_allocator.cpp ****         return false;
 549              		.loc 1 46 24 is_stmt 0
 550 0420 93072000 		li	a5,2
 551 0424 23B8F904 		sd	a5,80(s3)
  47:src/kernel/slab_allocator.cpp ****     }
 552              		.loc 1 47 9 is_stmt 1
  47:src/kernel/slab_allocator.cpp ****     }
 553              		.loc 1 47 16 is_stmt 0
 554 0428 13050000 		li	a0,0
 555              	.LVL53:
 556 042c 6F008004 		j	.L29
 557              	.LVL54:
 558              	.L31:
  58:src/kernel/slab_allocator.cpp ****         for (uint64 i = 0; i < slab->totalNumOfSlots; i++) {
 559              		.loc 1 58 5 is_stmt 1
 560              	.LBB49:
  58:src/kernel/slab_allocator.cpp ****         for (uint64 i = 0; i < slab->totalNumOfSlots; i++) {
 561              		.loc 1 58 15 is_stmt 0
 562 0430 83B78905 		ld	a5,88(s3)
  58:src/kernel/slab_allocator.cpp ****         for (uint64 i = 0; i < slab->totalNumOfSlots; i++) {
 563              		.loc 1 58 5
 564 0434 638A0702 		beqz	a5,.L34
 565              	.LBB50:
  59:src/kernel/slab_allocator.cpp ****             cache->ctor((void *) ((uint64) slab->objectOffset + i * slab->parent->objectSize));
 566              		.loc 1 59 21
 567 0438 13090000 		li	s2,0
 568              	.LVL55:
 569              	.L33:
  59:src/kernel/slab_allocator.cpp ****             cache->ctor((void *) ((uint64) slab->objectOffset + i * slab->parent->objectSize));
 570              		.loc 1 59 30 is_stmt 1 discriminator 3
  59:src/kernel/slab_allocator.cpp ****             cache->ctor((void *) ((uint64) slab->objectOffset + i * slab->parent->objectSize));
 571              		.loc 1 59 38 is_stmt 0 discriminator 3
 572 043c 83B78401 		ld	a5,24(s1)
GAS LISTING /tmp/cc3wtzn3.s 			page 19


  59:src/kernel/slab_allocator.cpp ****             cache->ctor((void *) ((uint64) slab->objectOffset + i * slab->parent->objectSize));
 573              		.loc 1 59 30 discriminator 3
 574 0440 6378F902 		bleu	a5,s2,.L35
  60:src/kernel/slab_allocator.cpp ****         }
 575              		.loc 1 60 13 is_stmt 1 discriminator 2
  60:src/kernel/slab_allocator.cpp ****         }
 576              		.loc 1 60 20 is_stmt 0 discriminator 2
 577 0444 03B78905 		ld	a4,88(s3)
  60:src/kernel/slab_allocator.cpp ****         }
 578              		.loc 1 60 50 discriminator 2
 579 0448 03B5040A 		ld	a0,160(s1)
  60:src/kernel/slab_allocator.cpp ****         }
 580              		.loc 1 60 75 discriminator 2
 581 044c 83B7840A 		ld	a5,168(s1)
  60:src/kernel/slab_allocator.cpp ****         }
 582              		.loc 1 60 83 discriminator 2
 583 0450 83B70704 		ld	a5,64(a5)
  60:src/kernel/slab_allocator.cpp ****         }
 584              		.loc 1 60 67 discriminator 2
 585 0454 B3872703 		mul	a5,a5,s2
  60:src/kernel/slab_allocator.cpp ****         }
 586              		.loc 1 60 24 discriminator 2
 587 0458 3305F500 		add	a0,a0,a5
 588 045c E7000700 		jalr	a4
 589              	.LVL56:
  59:src/kernel/slab_allocator.cpp ****             cache->ctor((void *) ((uint64) slab->objectOffset + i * slab->parent->objectSize));
 590              		.loc 1 59 9 is_stmt 1 discriminator 2
 591 0460 13091900 		addi	s2,s2,1
 592              	.LVL57:
 593 0464 6FF09FFD 		j	.L33
 594              	.LVL58:
 595              	.L34:
 596              	.LBE50:
 597              	.LBE49:
  63:src/kernel/slab_allocator.cpp **** }
 598              		.loc 1 63 12 is_stmt 0
 599 0468 13051000 		li	a0,1
 600 046c 6F008000 		j	.L29
 601              	.LVL59:
 602              	.L35:
 603 0470 13051000 		li	a0,1
 604              	.LVL60:
 605              	.L29:
  64:src/kernel/slab_allocator.cpp **** 
 606              		.loc 1 64 1
 607 0474 83308102 		ld	ra,40(sp)
 608              		.cfi_restore 1
 609 0478 03340102 		ld	s0,32(sp)
 610              		.cfi_restore 8
 611              		.cfi_def_cfa 2, 48
 612 047c 83348101 		ld	s1,24(sp)
 613              		.cfi_restore 9
 614 0480 03390101 		ld	s2,16(sp)
 615              		.cfi_restore 18
 616 0484 83398100 		ld	s3,8(sp)
 617              		.cfi_restore 19
 618              	.LVL61:
GAS LISTING /tmp/cc3wtzn3.s 			page 20


 619 0488 13010103 		addi	sp,sp,48
 620              		.cfi_def_cfa_offset 0
 621 048c 67800000 		jr	ra
 622              		.cfi_endproc
 623              	.LFE36:
 625              		.align	2
 626              		.globl	_ZN13SlabAllocator14removeFromListERP4SlabS1_
 628              	_ZN13SlabAllocator14removeFromListERP4SlabS1_:
 629              	.LFB49:
 279:src/kernel/slab_allocator.cpp **** 
 280:src/kernel/slab_allocator.cpp **** void SlabAllocator::removeFromList(Slab* &head, Slab* slab) {
 630              		.loc 1 280 61 is_stmt 1
 631              		.cfi_startproc
 632              	.LVL62:
 633 0490 130101FF 		addi	sp,sp,-16
 634              		.cfi_def_cfa_offset 16
 635 0494 23348100 		sd	s0,8(sp)
 636              		.cfi_offset 8, -8
 637 0498 13040101 		addi	s0,sp,16
 638              		.cfi_def_cfa 8, 0
 281:src/kernel/slab_allocator.cpp ****     if(slab == head)
 639              		.loc 1 281 5
 640              		.loc 1 281 16 is_stmt 0
 641 049c 83370500 		ld	a5,0(a0)
 642              		.loc 1 281 5
 643 04a0 638CB702 		beq	a5,a1,.L43
 644              	.L39:
 282:src/kernel/slab_allocator.cpp ****         head = slab->next;
 283:src/kernel/slab_allocator.cpp ****     if(slab->next)
 645              		.loc 1 283 5 is_stmt 1
 646              		.loc 1 283 14 is_stmt 0
 647 04a4 83B78500 		ld	a5,8(a1)
 648              		.loc 1 283 5
 649 04a8 63860700 		beqz	a5,.L40
 284:src/kernel/slab_allocator.cpp ****         slab->next->prev = slab->prev;
 650              		.loc 1 284 9 is_stmt 1
 651              		.loc 1 284 34 is_stmt 0
 652 04ac 03B70500 		ld	a4,0(a1)
 653              		.loc 1 284 26
 654 04b0 23B0E700 		sd	a4,0(a5)
 655              	.L40:
 285:src/kernel/slab_allocator.cpp ****     if(slab->prev)
 656              		.loc 1 285 5 is_stmt 1
 657              		.loc 1 285 14 is_stmt 0
 658 04b4 83B70500 		ld	a5,0(a1)
 659              		.loc 1 285 5
 660 04b8 63860700 		beqz	a5,.L41
 286:src/kernel/slab_allocator.cpp ****         slab->prev->next = slab->next;
 661              		.loc 1 286 9 is_stmt 1
 662              		.loc 1 286 34 is_stmt 0
 663 04bc 03B78500 		ld	a4,8(a1)
 664              		.loc 1 286 26
 665 04c0 23B4E700 		sd	a4,8(a5)
 666              	.L41:
 287:src/kernel/slab_allocator.cpp ****     slab->prev = nullptr;
 667              		.loc 1 287 5 is_stmt 1
 668              		.loc 1 287 16 is_stmt 0
GAS LISTING /tmp/cc3wtzn3.s 			page 21


 669 04c4 23B00500 		sd	zero,0(a1)
 288:src/kernel/slab_allocator.cpp ****     slab->next = nullptr;
 670              		.loc 1 288 5 is_stmt 1
 671              		.loc 1 288 16 is_stmt 0
 672 04c8 23B40500 		sd	zero,8(a1)
 289:src/kernel/slab_allocator.cpp **** }
 673              		.loc 1 289 1
 674 04cc 03348100 		ld	s0,8(sp)
 675              		.cfi_remember_state
 676              		.cfi_restore 8
 677              		.cfi_def_cfa 2, 16
 678 04d0 13010101 		addi	sp,sp,16
 679              		.cfi_def_cfa_offset 0
 680 04d4 67800000 		jr	ra
 681              	.L43:
 682              		.cfi_restore_state
 282:src/kernel/slab_allocator.cpp ****     if(slab->next)
 683              		.loc 1 282 9 is_stmt 1
 282:src/kernel/slab_allocator.cpp ****     if(slab->next)
 684              		.loc 1 282 22 is_stmt 0
 685 04d8 83B78500 		ld	a5,8(a1)
 282:src/kernel/slab_allocator.cpp ****     if(slab->next)
 686              		.loc 1 282 14
 687 04dc 2330F500 		sd	a5,0(a0)
 688 04e0 6FF05FFC 		j	.L39
 689              		.cfi_endproc
 690              	.LFE49:
 692              		.align	2
 693              		.globl	_ZN13SlabAllocator4moveERP4SlabS2_S1_
 695              	_ZN13SlabAllocator4moveERP4SlabS2_S1_:
 696              	.LFB50:
 290:src/kernel/slab_allocator.cpp **** 
 291:src/kernel/slab_allocator.cpp **** void SlabAllocator::move(Slab* &headFrom, Slab* &headTo, Slab* slab) {
 697              		.loc 1 291 70 is_stmt 1
 698              		.cfi_startproc
 699              	.LVL63:
 700 04e4 130101FE 		addi	sp,sp,-32
 701              		.cfi_def_cfa_offset 32
 702 04e8 233C1100 		sd	ra,24(sp)
 703 04ec 23388100 		sd	s0,16(sp)
 704 04f0 23349100 		sd	s1,8(sp)
 705 04f4 23302101 		sd	s2,0(sp)
 706              		.cfi_offset 1, -8
 707              		.cfi_offset 8, -16
 708              		.cfi_offset 9, -24
 709              		.cfi_offset 18, -32
 710 04f8 13040102 		addi	s0,sp,32
 711              		.cfi_def_cfa 8, 0
 712 04fc 13890500 		mv	s2,a1
 713 0500 93040600 		mv	s1,a2
 292:src/kernel/slab_allocator.cpp ****     SlabAllocator::removeFromList(headFrom, slab);
 714              		.loc 1 292 5
 715              		.loc 1 292 34 is_stmt 0
 716 0504 93050600 		mv	a1,a2
 717              	.LVL64:
 718 0508 97000000 		call	_ZN13SlabAllocator14removeFromListERP4SlabS1_
 718      E7800000 
GAS LISTING /tmp/cc3wtzn3.s 			page 22


 719              	.LVL65:
 293:src/kernel/slab_allocator.cpp ****     SlabAllocator::insertIntoList(headTo, slab);
 720              		.loc 1 293 5 is_stmt 1
 721              		.loc 1 293 34 is_stmt 0
 722 0510 93850400 		mv	a1,s1
 723 0514 13050900 		mv	a0,s2
 724 0518 97000000 		call	_ZN13SlabAllocator14insertIntoListERP4SlabS1_
 724      E7800000 
 725              	.LVL66:
 294:src/kernel/slab_allocator.cpp **** }
 726              		.loc 1 294 1
 727 0520 83308101 		ld	ra,24(sp)
 728              		.cfi_restore 1
 729 0524 03340101 		ld	s0,16(sp)
 730              		.cfi_restore 8
 731              		.cfi_def_cfa 2, 32
 732 0528 83348100 		ld	s1,8(sp)
 733              		.cfi_restore 9
 734              	.LVL67:
 735 052c 03390100 		ld	s2,0(sp)
 736              		.cfi_restore 18
 737              	.LVL68:
 738 0530 13010102 		addi	sp,sp,32
 739              		.cfi_def_cfa_offset 0
 740 0534 67800000 		jr	ra
 741              		.cfi_endproc
 742              	.LFE50:
 744              		.align	2
 745              		.globl	_ZN13SlabAllocator12allocateSlotEP4Slab
 747              	_ZN13SlabAllocator12allocateSlotEP4Slab:
 748              	.LFB37:
  66:src/kernel/slab_allocator.cpp ****     for(uint64 i=0; i<slab->totalNumOfSlots; i++){
 749              		.loc 1 66 47 is_stmt 1
 750              		.cfi_startproc
 751              	.LVL69:
 752 0538 130101FE 		addi	sp,sp,-32
 753              		.cfi_def_cfa_offset 32
 754 053c 233C1100 		sd	ra,24(sp)
 755 0540 23388100 		sd	s0,16(sp)
 756 0544 23349100 		sd	s1,8(sp)
 757 0548 23302101 		sd	s2,0(sp)
 758              		.cfi_offset 1, -8
 759              		.cfi_offset 8, -16
 760              		.cfi_offset 9, -24
 761              		.cfi_offset 18, -32
 762 054c 13040102 		addi	s0,sp,32
 763              		.cfi_def_cfa 8, 0
 764 0550 13090500 		mv	s2,a0
  67:src/kernel/slab_allocator.cpp ****         if(!(slab->allocated[i>>3] & (1<<(7 - (i&7))))){
 765              		.loc 1 67 5
 766              	.LVL70:
 767              	.LBB51:
  67:src/kernel/slab_allocator.cpp ****         if(!(slab->allocated[i>>3] & (1<<(7 - (i&7))))){
 768              		.loc 1 67 16 is_stmt 0
 769 0554 93040000 		li	s1,0
 770              	.LVL71:
 771              	.L55:
GAS LISTING /tmp/cc3wtzn3.s 			page 23


  67:src/kernel/slab_allocator.cpp ****         if(!(slab->allocated[i>>3] & (1<<(7 - (i&7))))){
 772              		.loc 1 67 22 is_stmt 1 discriminator 1
  67:src/kernel/slab_allocator.cpp ****         if(!(slab->allocated[i>>3] & (1<<(7 - (i&7))))){
 773              		.loc 1 67 29 is_stmt 0 discriminator 1
 774 0558 83368901 		ld	a3,24(s2)
  67:src/kernel/slab_allocator.cpp ****         if(!(slab->allocated[i>>3] & (1<<(7 - (i&7))))){
 775              		.loc 1 67 22 discriminator 1
 776 055c 63F6D40A 		bleu	a3,s1,.L47
 777              	.LBE51:
  68:src/kernel/slab_allocator.cpp ****             slab->allocated[i>>3] |= (1<<(7 - (i&7)));
 778              		.loc 1 68 9 is_stmt 1
 779              	.LBB59:
 780              	.LBB52:
  68:src/kernel/slab_allocator.cpp ****             slab->allocated[i>>3] |= (1<<(7 - (i&7)));
 781              		.loc 1 68 31 is_stmt 0
 782 0560 13D63400 		srli	a2,s1,3
  68:src/kernel/slab_allocator.cpp ****             slab->allocated[i>>3] |= (1<<(7 - (i&7)));
 783              		.loc 1 68 34
 784 0564 B307C900 		add	a5,s2,a2
 785 0568 83C50702 		lbu	a1,32(a5)
  68:src/kernel/slab_allocator.cpp ****             slab->allocated[i>>3] |= (1<<(7 - (i&7)));
 786              		.loc 1 68 45
 787 056c 93C7F4FF 		not	a5,s1
 788 0570 93F77700 		andi	a5,a5,7
  68:src/kernel/slab_allocator.cpp ****             slab->allocated[i>>3] |= (1<<(7 - (i&7)));
 789              		.loc 1 68 12
 790 0574 3BD7F540 		sraw	a4,a1,a5
 791 0578 13771700 		andi	a4,a4,1
  68:src/kernel/slab_allocator.cpp ****             slab->allocated[i>>3] |= (1<<(7 - (i&7)));
 792              		.loc 1 68 9
 793 057c 63060700 		beqz	a4,.L57
 794              	.LBE52:
  67:src/kernel/slab_allocator.cpp ****         if(!(slab->allocated[i>>3] & (1<<(7 - (i&7))))){
 795              		.loc 1 67 5 is_stmt 1 discriminator 2
 796 0580 93841400 		addi	s1,s1,1
 797              	.LVL72:
 798 0584 6FF05FFD 		j	.L55
 799              	.L57:
 800              	.LBB57:
 801              	.LBB53:
  69:src/kernel/slab_allocator.cpp ****             Slab* &headFrom = slab->isEmpty() ? slab->parent->emptyHead : slab->parent->partialHead
 802              		.loc 1 69 13
  69:src/kernel/slab_allocator.cpp ****             Slab* &headFrom = slab->isEmpty() ? slab->parent->emptyHead : slab->parent->partialHead
 803              		.loc 1 69 40 is_stmt 0
 804 0588 13071000 		li	a4,1
 805 058c BB17F700 		sllw	a5,a4,a5
  69:src/kernel/slab_allocator.cpp ****             Slab* &headFrom = slab->isEmpty() ? slab->parent->emptyHead : slab->parent->partialHead
 806              		.loc 1 69 35
 807 0590 3306C900 		add	a2,s2,a2
 808 0594 B3E5F500 		or	a1,a1,a5
 809 0598 2300B602 		sb	a1,32(a2)
  70:src/kernel/slab_allocator.cpp ****             slab->numOfFreeSlots--;
 810              		.loc 1 70 13 is_stmt 1
 811              	.LVL73:
 812              	.LBB54:
 813              	.LBB55:
 814              		.file 2 "src/kernel/../../h/kernel/slab_t.hpp"
GAS LISTING /tmp/cc3wtzn3.s 			page 24


   1:src/kernel/../../h/kernel/slab_t.hpp **** //
   2:src/kernel/../../h/kernel/slab_t.hpp **** // Created by os on 1/2/23.
   3:src/kernel/../../h/kernel/slab_t.hpp **** //
   4:src/kernel/../../h/kernel/slab_t.hpp **** 
   5:src/kernel/../../h/kernel/slab_t.hpp **** #ifndef KERNEL_FOR_RISCV_ARCHITECURE_SLAB_T_HPP
   6:src/kernel/../../h/kernel/slab_t.hpp **** #define KERNEL_FOR_RISCV_ARCHITECURE_SLAB_T_HPP
   7:src/kernel/../../h/kernel/slab_t.hpp **** #include "../../lib/hw.h"
   8:src/kernel/../../h/kernel/slab_t.hpp **** 
   9:src/kernel/../../h/kernel/slab_t.hpp **** typedef class Cache kmem_cache_t;
  10:src/kernel/../../h/kernel/slab_t.hpp **** 
  11:src/kernel/../../h/kernel/slab_t.hpp **** typedef class Slab{
  12:src/kernel/../../h/kernel/slab_t.hpp **** public:
  13:src/kernel/../../h/kernel/slab_t.hpp ****     inline bool isFull(){return numOfFreeSlots == 0;}
  14:src/kernel/../../h/kernel/slab_t.hpp ****     inline bool isEmpty(){return numOfFreeSlots == totalNumOfSlots;}
 815              		.loc 2 14 27
 816              		.loc 2 14 34 is_stmt 0
 817 059c 83370901 		ld	a5,16(s2)
 818              	.LVL74:
 819              	.LBE55:
 820              	.LBE54:
  70:src/kernel/slab_allocator.cpp ****             slab->numOfFreeSlots--;
 821              		.loc 1 70 89
 822 05a0 6388F604 		beq	a3,a5,.L58
  70:src/kernel/slab_allocator.cpp ****             slab->numOfFreeSlots--;
 823              		.loc 1 70 81 discriminator 2
 824 05a4 0335890A 		ld	a0,168(s2)
 825              	.LVL75:
  70:src/kernel/slab_allocator.cpp ****             slab->numOfFreeSlots--;
 826              		.loc 1 70 89 discriminator 2
 827 05a8 13050507 		addi	a0,a0,112
 828              	.L50:
 829              	.LVL76:
  71:src/kernel/slab_allocator.cpp ****             Slab* &headTo = slab->isFull() ? slab->parent->fullHead : slab->parent->partialHead;
 830              		.loc 1 71 13 is_stmt 1 discriminator 4
  71:src/kernel/slab_allocator.cpp ****             Slab* &headTo = slab->isFull() ? slab->parent->fullHead : slab->parent->partialHead;
 831              		.loc 1 71 33 is_stmt 0 discriminator 4
 832 05ac 9387F7FF 		addi	a5,a5,-1
 833 05b0 2338F900 		sd	a5,16(s2)
  72:src/kernel/slab_allocator.cpp **** 
 834              		.loc 1 72 13 is_stmt 1 discriminator 4
 835              	.LVL77:
 836              	.LBE53:
 837              	.LBE57:
 838              	.LBE59:
  13:src/kernel/../../h/kernel/slab_t.hpp ****     inline bool isEmpty(){return numOfFreeSlots == totalNumOfSlots;}
 839              		.loc 2 13 26 discriminator 4
 840              	.LBB60:
 841              	.LBB58:
 842              	.LBB56:
  72:src/kernel/slab_allocator.cpp **** 
 843              		.loc 1 72 85 is_stmt 0 discriminator 4
 844 05b4 63940704 		bnez	a5,.L51
  72:src/kernel/slab_allocator.cpp **** 
 845              		.loc 1 72 52 discriminator 1
 846 05b8 8335890A 		ld	a1,168(s2)
  72:src/kernel/slab_allocator.cpp **** 
 847              		.loc 1 72 85 discriminator 1
GAS LISTING /tmp/cc3wtzn3.s 			page 25


 848 05bc 93858507 		addi	a1,a1,120
 849              	.L52:
 850              	.LVL78:
  74:src/kernel/slab_allocator.cpp ****                 SlabAllocator::move(headFrom, headTo, slab);
 851              		.loc 1 74 13 is_stmt 1 discriminator 4
  74:src/kernel/slab_allocator.cpp ****                 SlabAllocator::move(headFrom, headTo, slab);
 852              		.loc 1 74 16 is_stmt 0 discriminator 4
 853 05c0 03B70500 		ld	a4,0(a1)
  74:src/kernel/slab_allocator.cpp ****                 SlabAllocator::move(headFrom, headTo, slab);
 854              		.loc 1 74 26 discriminator 4
 855 05c4 83370500 		ld	a5,0(a0)
  74:src/kernel/slab_allocator.cpp ****                 SlabAllocator::move(headFrom, headTo, slab);
 856              		.loc 1 74 13 discriminator 4
 857 05c8 6308F700 		beq	a4,a5,.L53
  75:src/kernel/slab_allocator.cpp **** 
 858              		.loc 1 75 17 is_stmt 1
  75:src/kernel/slab_allocator.cpp **** 
 859              		.loc 1 75 36 is_stmt 0
 860 05cc 13060900 		mv	a2,s2
 861 05d0 97000000 		call	_ZN13SlabAllocator4moveERP4SlabS2_S1_
 861      E7800000 
 862              	.LVL79:
 863              	.L53:
  77:src/kernel/slab_allocator.cpp ****         }
 864              		.loc 1 77 13 is_stmt 1
  77:src/kernel/slab_allocator.cpp ****         }
 865              		.loc 1 77 42 is_stmt 0
 866 05d8 0335090A 		ld	a0,160(s2)
  77:src/kernel/slab_allocator.cpp ****         }
 867              		.loc 1 77 65
 868 05dc 8337890A 		ld	a5,168(s2)
  77:src/kernel/slab_allocator.cpp ****         }
 869              		.loc 1 77 73
 870 05e0 83B70704 		ld	a5,64(a5)
  77:src/kernel/slab_allocator.cpp ****         }
 871              		.loc 1 77 58
 872 05e4 B3849702 		mul	s1,a5,s1
 873              	.LVL80:
  77:src/kernel/slab_allocator.cpp ****         }
 874              		.loc 1 77 55
 875 05e8 33059500 		add	a0,a0,s1
  77:src/kernel/slab_allocator.cpp ****         }
 876              		.loc 1 77 83
 877 05ec 6F00C002 		j	.L46
 878              	.LVL81:
 879              	.L58:
  70:src/kernel/slab_allocator.cpp ****             slab->numOfFreeSlots--;
 880              		.loc 1 70 55 discriminator 1
 881 05f0 0335890A 		ld	a0,168(s2)
 882              	.LVL82:
  70:src/kernel/slab_allocator.cpp ****             slab->numOfFreeSlots--;
 883              		.loc 1 70 89 discriminator 1
 884 05f4 13058506 		addi	a0,a0,104
 885 05f8 6FF05FFB 		j	.L50
 886              	.LVL83:
 887              	.L51:
  72:src/kernel/slab_allocator.cpp **** 
GAS LISTING /tmp/cc3wtzn3.s 			page 26


 888              		.loc 1 72 77 discriminator 2
 889 05fc 8335890A 		ld	a1,168(s2)
  72:src/kernel/slab_allocator.cpp **** 
 890              		.loc 1 72 85 discriminator 2
 891 0600 93850507 		addi	a1,a1,112
 892 0604 6FF0DFFB 		j	.L52
 893              	.LVL84:
 894              	.L47:
 895              	.LBE56:
 896              	.LBE58:
 897              	.LBE60:
  80:src/kernel/slab_allocator.cpp ****     return nullptr;
 898              		.loc 1 80 5 is_stmt 1
  80:src/kernel/slab_allocator.cpp ****     return nullptr;
 899              		.loc 1 80 11 is_stmt 0
 900 0608 8337890A 		ld	a5,168(s2)
  80:src/kernel/slab_allocator.cpp ****     return nullptr;
 901              		.loc 1 80 27
 902 060c 13071000 		li	a4,1
 903 0610 23B8E704 		sd	a4,80(a5)
  81:src/kernel/slab_allocator.cpp **** }
 904              		.loc 1 81 5 is_stmt 1
  81:src/kernel/slab_allocator.cpp **** }
 905              		.loc 1 81 12 is_stmt 0
 906 0614 13050000 		li	a0,0
 907              	.LVL85:
 908              	.L46:
  82:src/kernel/slab_allocator.cpp **** 
 909              		.loc 1 82 1
 910 0618 83308101 		ld	ra,24(sp)
 911              		.cfi_restore 1
 912 061c 03340101 		ld	s0,16(sp)
 913              		.cfi_restore 8
 914              		.cfi_def_cfa 2, 32
 915 0620 83348100 		ld	s1,8(sp)
 916              		.cfi_restore 9
 917 0624 03390100 		ld	s2,0(sp)
 918              		.cfi_restore 18
 919              	.LVL86:
 920 0628 13010102 		addi	sp,sp,32
 921              		.cfi_def_cfa_offset 0
 922 062c 67800000 		jr	ra
 923              		.cfi_endproc
 924              	.LFE37:
 926              		.align	2
 927              		.globl	_ZN13SlabAllocator14allocateObjectEP5Cache
 929              	_ZN13SlabAllocator14allocateObjectEP5Cache:
 930              	.LFB38:
  84:src/kernel/slab_allocator.cpp ****     void* ret = SlabAllocator::allocateFromList(cache->partialHead);
 931              		.loc 1 84 51 is_stmt 1
 932              		.cfi_startproc
 933              	.LVL87:
 934 0630 130101FD 		addi	sp,sp,-48
 935              		.cfi_def_cfa_offset 48
 936 0634 23341102 		sd	ra,40(sp)
 937 0638 23308102 		sd	s0,32(sp)
 938 063c 233C9100 		sd	s1,24(sp)
GAS LISTING /tmp/cc3wtzn3.s 			page 27


 939 0640 23382101 		sd	s2,16(sp)
 940 0644 23343101 		sd	s3,8(sp)
 941              		.cfi_offset 1, -8
 942              		.cfi_offset 8, -16
 943              		.cfi_offset 9, -24
 944              		.cfi_offset 18, -32
 945              		.cfi_offset 19, -40
 946 0648 13040103 		addi	s0,sp,48
 947              		.cfi_def_cfa 8, 0
 948 064c 13090500 		mv	s2,a0
  85:src/kernel/slab_allocator.cpp ****     if(ret){
 949              		.loc 1 85 5
  85:src/kernel/slab_allocator.cpp ****     if(ret){
 950              		.loc 1 85 48 is_stmt 0
 951 0650 83340507 		ld	s1,112(a0)
 952              	.LVL88:
 953              	.L61:
 954              	.LBB61:
 955              	.LBB62:
 956              		.file 3 "src/kernel/../../h/kernel/slab_allocator.hpp"
   1:src/kernel/../../h/kernel/slab_allocator.hpp **** //
   2:src/kernel/../../h/kernel/slab_allocator.hpp **** // Created by os on 12/25/22.
   3:src/kernel/../../h/kernel/slab_allocator.hpp **** //
   4:src/kernel/../../h/kernel/slab_allocator.hpp **** 
   5:src/kernel/../../h/kernel/slab_allocator.hpp **** #ifndef KERNEL_FOR_RISCV_ARCHITECURE_SLAN_HPP
   6:src/kernel/../../h/kernel/slab_allocator.hpp **** #define KERNEL_FOR_RISCV_ARCHITECURE_SLAN_HPP
   7:src/kernel/../../h/kernel/slab_allocator.hpp **** 
   8:src/kernel/../../h/kernel/slab_allocator.hpp **** #include "utility.hpp"
   9:src/kernel/../../h/kernel/slab_allocator.hpp **** #include "buddy_allocator.hpp"
  10:src/kernel/../../h/kernel/slab_allocator.hpp **** #include "console_util.hpp"
  11:src/kernel/../../h/kernel/slab_allocator.hpp **** #include "cache_t.hpp"
  12:src/kernel/../../h/kernel/slab_allocator.hpp **** 
  13:src/kernel/../../h/kernel/slab_allocator.hpp **** class SlabAllocator{
  14:src/kernel/../../h/kernel/slab_allocator.hpp **** public:
  15:src/kernel/../../h/kernel/slab_allocator.hpp **** 
  16:src/kernel/../../h/kernel/slab_allocator.hpp ****     static void initialize(void* space, uint64 blockNum);
  17:src/kernel/../../h/kernel/slab_allocator.hpp **** 
  18:src/kernel/../../h/kernel/slab_allocator.hpp ****     static Cache* createCache(const char* name, size_t size, void (*ctor)(void*), void (*dtor)(void
  19:src/kernel/../../h/kernel/slab_allocator.hpp **** 
  20:src/kernel/../../h/kernel/slab_allocator.hpp ****     static void deleteCache(Cache* &cache);
  21:src/kernel/../../h/kernel/slab_allocator.hpp **** 
  22:src/kernel/../../h/kernel/slab_allocator.hpp ****     static bool allocateSlab(Cache *cache);
  23:src/kernel/../../h/kernel/slab_allocator.hpp **** 
  24:src/kernel/../../h/kernel/slab_allocator.hpp ****     static int shrinkCache(Cache* cache);
  25:src/kernel/../../h/kernel/slab_allocator.hpp **** 
  26:src/kernel/../../h/kernel/slab_allocator.hpp ****     static void* allocateSlot(Slab* slab);
  27:src/kernel/../../h/kernel/slab_allocator.hpp **** 
  28:src/kernel/../../h/kernel/slab_allocator.hpp ****     static void* allocateObject(Cache *cache);
  29:src/kernel/../../h/kernel/slab_allocator.hpp **** 
  30:src/kernel/../../h/kernel/slab_allocator.hpp ****     static void* allocateBuffer(size_t size);
  31:src/kernel/../../h/kernel/slab_allocator.hpp **** 
  32:src/kernel/../../h/kernel/slab_allocator.hpp ****     static void freeSlot(Slab* slab, uint64 index);
  33:src/kernel/../../h/kernel/slab_allocator.hpp **** 
  34:src/kernel/../../h/kernel/slab_allocator.hpp ****     static bool freeObject(Cache* cache,const void* addr);
  35:src/kernel/../../h/kernel/slab_allocator.hpp **** 
  36:src/kernel/../../h/kernel/slab_allocator.hpp ****     static void freeBuffer(const void* addr);
  37:src/kernel/../../h/kernel/slab_allocator.hpp **** 
GAS LISTING /tmp/cc3wtzn3.s 			page 28


  38:src/kernel/../../h/kernel/slab_allocator.hpp ****     static void printSlab(Slab *slab);
  39:src/kernel/../../h/kernel/slab_allocator.hpp **** 
  40:src/kernel/../../h/kernel/slab_allocator.hpp ****     static void printCache(Cache *cache);
  41:src/kernel/../../h/kernel/slab_allocator.hpp **** 
  42:src/kernel/../../h/kernel/slab_allocator.hpp ****     static int cacheErrorHandler(Cache* cache);
  43:src/kernel/../../h/kernel/slab_allocator.hpp **** 
  44:src/kernel/../../h/kernel/slab_allocator.hpp ****     static Cache *sizeN[13];
  45:src/kernel/../../h/kernel/slab_allocator.hpp ****     static Cache *cache;
  46:src/kernel/../../h/kernel/slab_allocator.hpp ****     static Cache *largeSlabCache;
  47:src/kernel/../../h/kernel/slab_allocator.hpp **** 
  48:src/kernel/../../h/kernel/slab_allocator.hpp **** private:
  49:src/kernel/../../h/kernel/slab_allocator.hpp ****     static void insertIntoList(Slab* &head, Slab* slab);
  50:src/kernel/../../h/kernel/slab_allocator.hpp ****     static void removeFromList(Slab* &head, Slab* slab);
  51:src/kernel/../../h/kernel/slab_allocator.hpp ****     static void move(Slab* &headFrom, Slab* &headTo, Slab* slab);
  52:src/kernel/../../h/kernel/slab_allocator.hpp ****     static inline uint64 getUpperBound(Slab* slab){return (uint64)slab->objectOffset + slab->totalN
  53:src/kernel/../../h/kernel/slab_allocator.hpp ****     static inline uint64 getLowerBound(Slab* slab){return (uint64)slab->objectOffset;}
  54:src/kernel/../../h/kernel/slab_allocator.hpp **** 
  55:src/kernel/../../h/kernel/slab_allocator.hpp ****     static inline void* allocateFromList(Slab* head){
  56:src/kernel/../../h/kernel/slab_allocator.hpp ****         while(head != nullptr){
 957              		.loc 3 56 9 is_stmt 1
 958              		.loc 3 56 20
 959 0654 638C0400 		beqz	s1,.L60
 960              	.LBB63:
  57:src/kernel/../../h/kernel/slab_allocator.hpp ****             void* ret = allocateSlot(head);
 961              		.loc 3 57 13
 962              		.loc 3 57 37 is_stmt 0
 963 0658 13850400 		mv	a0,s1
 964 065c 97000000 		call	_ZN13SlabAllocator12allocateSlotEP4Slab
 964      E7800000 
 965              	.LVL89:
  58:src/kernel/../../h/kernel/slab_allocator.hpp ****             if(ret != nullptr)
 966              		.loc 3 58 13 is_stmt 1
 967 0664 E30805FE 		beqz	a0,.L61
  59:src/kernel/../../h/kernel/slab_allocator.hpp ****                 return ret;
 968              		.loc 3 59 24 is_stmt 0
 969 0668 93040500 		mv	s1,a0
 970              	.LVL90:
 971              	.L60:
 972              	.LBE63:
 973              	.LBE62:
 974              	.LBE61:
  86:src/kernel/slab_allocator.cpp ****         return ret;
 975              		.loc 1 86 5 is_stmt 1
 976 066c 63820402 		beqz	s1,.L72
 977              	.LVL91:
 978              	.L59:
 122:src/kernel/slab_allocator.cpp **** 
 979              		.loc 1 122 1 is_stmt 0
 980 0670 13850400 		mv	a0,s1
 981 0674 83308102 		ld	ra,40(sp)
 982              		.cfi_remember_state
 983              		.cfi_restore 1
 984 0678 03340102 		ld	s0,32(sp)
 985              		.cfi_restore 8
 986              		.cfi_def_cfa 2, 48
 987 067c 83348101 		ld	s1,24(sp)
 988              		.cfi_restore 9
GAS LISTING /tmp/cc3wtzn3.s 			page 29


 989 0680 03390101 		ld	s2,16(sp)
 990              		.cfi_restore 18
 991              	.LVL92:
 992 0684 83398100 		ld	s3,8(sp)
 993              		.cfi_restore 19
 994 0688 13010103 		addi	sp,sp,48
 995              		.cfi_def_cfa_offset 0
 996 068c 67800000 		jr	ra
 997              	.LVL93:
 998              	.L72:
 999              		.cfi_restore_state
  89:src/kernel/slab_allocator.cpp ****     if(ret){
 1000              		.loc 1 89 5 is_stmt 1
  89:src/kernel/slab_allocator.cpp ****     if(ret){
 1001              		.loc 1 89 42 is_stmt 0
 1002 0690 83348906 		ld	s1,104(s2)
 1003              	.LVL94:
 1004              	.L64:
 1005              	.LBB64:
 1006              	.LBB65:
  56:src/kernel/../../h/kernel/slab_allocator.hpp ****             void* ret = allocateSlot(head);
 1007              		.loc 3 56 9 is_stmt 1
  56:src/kernel/../../h/kernel/slab_allocator.hpp ****             void* ret = allocateSlot(head);
 1008              		.loc 3 56 20
 1009 0694 638C0400 		beqz	s1,.L63
 1010              	.LBB66:
  57:src/kernel/../../h/kernel/slab_allocator.hpp ****             if(ret != nullptr)
 1011              		.loc 3 57 13
  57:src/kernel/../../h/kernel/slab_allocator.hpp ****             if(ret != nullptr)
 1012              		.loc 3 57 37 is_stmt 0
 1013 0698 13850400 		mv	a0,s1
 1014 069c 97000000 		call	_ZN13SlabAllocator12allocateSlotEP4Slab
 1014      E7800000 
 1015              	.LVL95:
  58:src/kernel/../../h/kernel/slab_allocator.hpp ****                 return ret;
 1016              		.loc 3 58 13 is_stmt 1
 1017 06a4 E30805FE 		beqz	a0,.L64
 1018              		.loc 3 59 24 is_stmt 0
 1019 06a8 93040500 		mv	s1,a0
 1020              	.LVL96:
 1021              	.L63:
 1022              	.LBE66:
 1023              	.LBE65:
 1024              	.LBE64:
  90:src/kernel/slab_allocator.cpp ****         return ret;
 1025              		.loc 1 90 5 is_stmt 1
 1026 06ac E39204FC 		bnez	s1,.L59
  93:src/kernel/slab_allocator.cpp ****         if (!SlabAllocator::allocateSlab(cache))
 1027              		.loc 1 93 5
 1028              	.LBB67:
  93:src/kernel/slab_allocator.cpp ****         if (!SlabAllocator::allocateSlab(cache))
 1029              		.loc 1 93 15 is_stmt 0
 1030 06b0 03370904 		ld	a4,64(s2)
  93:src/kernel/slab_allocator.cpp ****         if (!SlabAllocator::allocateSlab(cache))
 1031              		.loc 1 93 5
 1032 06b4 9307000B 		li	a5,176
 1033 06b8 63E4E702 		bgtu	a4,a5,.L65
GAS LISTING /tmp/cc3wtzn3.s 			page 30


  94:src/kernel/slab_allocator.cpp ****             return nullptr;
 1034              		.loc 1 94 9 is_stmt 1
  94:src/kernel/slab_allocator.cpp ****             return nullptr;
 1035              		.loc 1 94 41 is_stmt 0
 1036 06bc 13050900 		mv	a0,s2
 1037 06c0 97000000 		call	_ZN13SlabAllocator12allocateSlabEP5Cache
 1037      E7800000 
 1038              	.LVL97:
  94:src/kernel/slab_allocator.cpp ****             return nullptr;
 1039              		.loc 1 94 9
 1040 06c8 E30405FA 		beqz	a0,.L59
  97:src/kernel/slab_allocator.cpp ****     }
 1041              		.loc 1 97 9 is_stmt 1
  97:src/kernel/slab_allocator.cpp ****     }
 1042              		.loc 1 97 42 is_stmt 0
 1043 06cc 03358906 		ld	a0,104(s2)
 1044 06d0 97000000 		call	_ZN13SlabAllocator12allocateSlotEP4Slab
 1044      E7800000 
 1045              	.LVL98:
 1046 06d8 93040500 		mv	s1,a0
 1047              	.LVL99:
 1048 06dc 6FF05FF9 		j	.L59
 1049              	.L65:
 1050              	.LBB68:
 100:src/kernel/slab_allocator.cpp ****         slab->totalNumOfSlots = slab->numOfFreeSlots = (((1<<cache->slabSize) << BLOCK_SIZE_BITS)) 
 1051              		.loc 1 100 9 is_stmt 1
 100:src/kernel/slab_allocator.cpp ****         slab->totalNumOfSlots = slab->numOfFreeSlots = (((1<<cache->slabSize) << BLOCK_SIZE_BITS)) 
 1052              		.loc 1 100 58 is_stmt 0
 1053 06e0 17050000 		ld	a0,.LANCHOR0
 1053      03350500 
 1054 06e8 97000000 		call	_ZN13SlabAllocator14allocateObjectEP5Cache
 1054      E7800000 
 1055              	.LVL100:
 1056 06f0 93040500 		mv	s1,a0
 1057              	.LVL101:
 101:src/kernel/slab_allocator.cpp ****         if(slab->totalNumOfSlots > MAX_NUMBER_OF_SLOTS)
 1058              		.loc 1 101 9 is_stmt 1
 101:src/kernel/slab_allocator.cpp ****         if(slab->totalNumOfSlots > MAX_NUMBER_OF_SLOTS)
 1059              		.loc 1 101 69 is_stmt 0
 1060 06f4 03378904 		ld	a4,72(s2)
 101:src/kernel/slab_allocator.cpp ****         if(slab->totalNumOfSlots > MAX_NUMBER_OF_SLOTS)
 1061              		.loc 1 101 60
 1062 06f8 93071000 		li	a5,1
 1063 06fc BB97E700 		sllw	a5,a5,a4
 101:src/kernel/slab_allocator.cpp ****         if(slab->totalNumOfSlots > MAX_NUMBER_OF_SLOTS)
 1064              		.loc 1 101 79
 1065 0700 9B97C700 		slliw	a5,a5,12
 101:src/kernel/slab_allocator.cpp ****         if(slab->totalNumOfSlots > MAX_NUMBER_OF_SLOTS)
 1066              		.loc 1 101 109
 1067 0704 03370904 		ld	a4,64(s2)
 101:src/kernel/slab_allocator.cpp ****         if(slab->totalNumOfSlots > MAX_NUMBER_OF_SLOTS)
 1068              		.loc 1 101 100
 1069 0708 B3D7E702 		divu	a5,a5,a4
 101:src/kernel/slab_allocator.cpp ****         if(slab->totalNumOfSlots > MAX_NUMBER_OF_SLOTS)
 1070              		.loc 1 101 54
 1071 070c 2338F500 		sd	a5,16(a0)
 101:src/kernel/slab_allocator.cpp ****         if(slab->totalNumOfSlots > MAX_NUMBER_OF_SLOTS)
GAS LISTING /tmp/cc3wtzn3.s 			page 31


 1072              		.loc 1 101 31
 1073 0710 233CF500 		sd	a5,24(a0)
 102:src/kernel/slab_allocator.cpp ****             slab->totalNumOfSlots = slab->numOfFreeSlots = MAX_NUMBER_OF_SLOTS;
 1074              		.loc 1 102 9 is_stmt 1
 1075 0714 13070040 		li	a4,1024
 1076 0718 6378F700 		bleu	a5,a4,.L66
 103:src/kernel/slab_allocator.cpp ****         void* slabOffset = Buddy::alloc(cache->slabSize);
 1077              		.loc 1 103 13
 103:src/kernel/slab_allocator.cpp ****         void* slabOffset = Buddy::alloc(cache->slabSize);
 1078              		.loc 1 103 58 is_stmt 0
 1079 071c 93070040 		li	a5,1024
 1080 0720 2338F500 		sd	a5,16(a0)
 103:src/kernel/slab_allocator.cpp ****         void* slabOffset = Buddy::alloc(cache->slabSize);
 1081              		.loc 1 103 35
 1082 0724 233CF500 		sd	a5,24(a0)
 1083              	.L66:
 104:src/kernel/slab_allocator.cpp ****         slab->objectOffset = slabOffset;
 1084              		.loc 1 104 9 is_stmt 1
 104:src/kernel/slab_allocator.cpp ****         slab->objectOffset = slabOffset;
 1085              		.loc 1 104 40 is_stmt 0
 1086 0728 03358904 		ld	a0,72(s2)
 1087 072c 97000000 		call	_ZN5Buddy5allocEm@plt
 1087      E7800000 
 1088              	.LVL102:
 105:src/kernel/slab_allocator.cpp ****         slab->parent = cache;
 1089              		.loc 1 105 9 is_stmt 1
 105:src/kernel/slab_allocator.cpp ****         slab->parent = cache;
 1090              		.loc 1 105 28 is_stmt 0
 1091 0734 23B0A40A 		sd	a0,160(s1)
 106:src/kernel/slab_allocator.cpp ****         slab->next = nullptr;
 1092              		.loc 1 106 9 is_stmt 1
 106:src/kernel/slab_allocator.cpp ****         slab->next = nullptr;
 1093              		.loc 1 106 22 is_stmt 0
 1094 0738 23B4240B 		sd	s2,168(s1)
 107:src/kernel/slab_allocator.cpp ****         for(uint64 i=0;i<(slab->totalNumOfSlots+7)>>3;i++)
 1095              		.loc 1 107 9 is_stmt 1
 107:src/kernel/slab_allocator.cpp ****         for(uint64 i=0;i<(slab->totalNumOfSlots+7)>>3;i++)
 1096              		.loc 1 107 20 is_stmt 0
 1097 073c 23B40400 		sd	zero,8(s1)
 108:src/kernel/slab_allocator.cpp ****             slab->allocated[i] = 0;
 1098              		.loc 1 108 9 is_stmt 1
 1099              	.LVL103:
 1100              	.LBB69:
 108:src/kernel/slab_allocator.cpp ****             slab->allocated[i] = 0;
 1101              		.loc 1 108 20 is_stmt 0
 1102 0740 13070000 		li	a4,0
 1103              	.LVL104:
 1104              	.L68:
 108:src/kernel/slab_allocator.cpp ****             slab->allocated[i] = 0;
 1105              		.loc 1 108 25 is_stmt 1 discriminator 3
 108:src/kernel/slab_allocator.cpp ****             slab->allocated[i] = 0;
 1106              		.loc 1 108 33 is_stmt 0 discriminator 3
 1107 0744 83B78401 		ld	a5,24(s1)
 108:src/kernel/slab_allocator.cpp ****             slab->allocated[i] = 0;
 1108              		.loc 1 108 48 discriminator 3
 1109 0748 93877700 		addi	a5,a5,7
 108:src/kernel/slab_allocator.cpp ****             slab->allocated[i] = 0;
GAS LISTING /tmp/cc3wtzn3.s 			page 32


 1110              		.loc 1 108 51 discriminator 3
 1111 074c 93D73700 		srli	a5,a5,3
 108:src/kernel/slab_allocator.cpp ****             slab->allocated[i] = 0;
 1112              		.loc 1 108 25 discriminator 3
 1113 0750 637AF700 		bleu	a5,a4,.L67
 109:src/kernel/slab_allocator.cpp **** 
 1114              		.loc 1 109 13 is_stmt 1 discriminator 2
 109:src/kernel/slab_allocator.cpp **** 
 1115              		.loc 1 109 32 is_stmt 0 discriminator 2
 1116 0754 B387E400 		add	a5,s1,a4
 1117 0758 23800702 		sb	zero,32(a5)
 108:src/kernel/slab_allocator.cpp ****             slab->allocated[i] = 0;
 1118              		.loc 1 108 9 is_stmt 1 discriminator 2
 1119 075c 13071700 		addi	a4,a4,1
 1120              	.LVL105:
 1121 0760 6FF05FFE 		j	.L68
 1122              	.L67:
 1123              	.LBE69:
 111:src/kernel/slab_allocator.cpp ****             for (uint64 i = 0; i < slab->totalNumOfSlots; i++) {
 1124              		.loc 1 111 9
 1125              	.LBB70:
 111:src/kernel/slab_allocator.cpp ****             for (uint64 i = 0; i < slab->totalNumOfSlots; i++) {
 1126              		.loc 1 111 19 is_stmt 0
 1127 0764 83378905 		ld	a5,88(s2)
 111:src/kernel/slab_allocator.cpp ****             for (uint64 i = 0; i < slab->totalNumOfSlots; i++) {
 1128              		.loc 1 111 9
 1129 0768 638A0702 		beqz	a5,.L69
 1130              	.LBB71:
 112:src/kernel/slab_allocator.cpp ****                 cache->ctor((void *) ((uint64) slab->objectOffset + i * slab->parent->objectSize));
 1131              		.loc 1 112 25
 1132 076c 93090000 		li	s3,0
 1133              	.LVL106:
 1134              	.L70:
 112:src/kernel/slab_allocator.cpp ****                 cache->ctor((void *) ((uint64) slab->objectOffset + i * slab->parent->objectSize));
 1135              		.loc 1 112 34 is_stmt 1 discriminator 3
 112:src/kernel/slab_allocator.cpp ****                 cache->ctor((void *) ((uint64) slab->objectOffset + i * slab->parent->objectSize));
 1136              		.loc 1 112 42 is_stmt 0 discriminator 3
 1137 0770 83B78401 		ld	a5,24(s1)
 112:src/kernel/slab_allocator.cpp ****                 cache->ctor((void *) ((uint64) slab->objectOffset + i * slab->parent->objectSize));
 1138              		.loc 1 112 34 discriminator 3
 1139 0774 63F4F902 		bleu	a5,s3,.L69
 113:src/kernel/slab_allocator.cpp ****             }
 1140              		.loc 1 113 17 is_stmt 1 discriminator 2
 113:src/kernel/slab_allocator.cpp ****             }
 1141              		.loc 1 113 24 is_stmt 0 discriminator 2
 1142 0778 03378905 		ld	a4,88(s2)
 113:src/kernel/slab_allocator.cpp ****             }
 1143              		.loc 1 113 54 discriminator 2
 1144 077c 03B5040A 		ld	a0,160(s1)
 113:src/kernel/slab_allocator.cpp ****             }
 1145              		.loc 1 113 79 discriminator 2
 1146 0780 83B7840A 		ld	a5,168(s1)
 113:src/kernel/slab_allocator.cpp ****             }
 1147              		.loc 1 113 87 discriminator 2
 1148 0784 83B70704 		ld	a5,64(a5)
 113:src/kernel/slab_allocator.cpp ****             }
 1149              		.loc 1 113 71 discriminator 2
GAS LISTING /tmp/cc3wtzn3.s 			page 33


 1150 0788 B3873703 		mul	a5,a5,s3
 113:src/kernel/slab_allocator.cpp ****             }
 1151              		.loc 1 113 28 discriminator 2
 1152 078c 3305F500 		add	a0,a0,a5
 1153 0790 E7000700 		jalr	a4
 1154              	.LVL107:
 112:src/kernel/slab_allocator.cpp ****                 cache->ctor((void *) ((uint64) slab->objectOffset + i * slab->parent->objectSize));
 1155              		.loc 1 112 13 is_stmt 1 discriminator 2
 1156 0794 93891900 		addi	s3,s3,1
 1157              	.LVL108:
 1158 0798 6FF09FFD 		j	.L70
 1159              	.LVL109:
 1160              	.L69:
 1161              	.LBE71:
 1162              	.LBE70:
 117:src/kernel/slab_allocator.cpp ****         ret = SlabAllocator::allocateSlot(cache->emptyHead);
 1163              		.loc 1 117 9
 117:src/kernel/slab_allocator.cpp ****         ret = SlabAllocator::allocateSlot(cache->emptyHead);
 1164              		.loc 1 117 38 is_stmt 0
 1165 079c 93850400 		mv	a1,s1
 1166 07a0 13058906 		addi	a0,s2,104
 1167 07a4 97000000 		call	_ZN13SlabAllocator14insertIntoListERP4SlabS1_
 1167      E7800000 
 1168              	.LVL110:
 118:src/kernel/slab_allocator.cpp ****     }
 1169              		.loc 1 118 9 is_stmt 1
 118:src/kernel/slab_allocator.cpp ****     }
 1170              		.loc 1 118 42 is_stmt 0
 1171 07ac 03358906 		ld	a0,104(s2)
 1172 07b0 97000000 		call	_ZN13SlabAllocator12allocateSlotEP4Slab
 1172      E7800000 
 1173              	.LVL111:
 1174 07b8 93040500 		mv	s1,a0
 1175              	.LVL112:
 1176 07bc 6FF05FEB 		j	.L59
 1177              	.LBE68:
 1178              	.LBE67:
 1179              		.cfi_endproc
 1180              	.LFE38:
 1182              		.align	2
 1183              		.globl	_ZN13SlabAllocator14allocateBufferEm
 1185              	_ZN13SlabAllocator14allocateBufferEm:
 1186              	.LFB39:
 124:src/kernel/slab_allocator.cpp ****     uint64 level = Buddy::getDeg(Buddy::ceil(size));
 1187              		.loc 1 124 50 is_stmt 1
 1188              		.cfi_startproc
 1189              	.LVL113:
 125:src/kernel/slab_allocator.cpp ****     if(level < CACHE_LOWER_BOUND || level > CACHE_UPPER_BOUND)
 1190              		.loc 1 125 5
 1191              	.LBB72:
 1192              	.LBB73:
 1193              		.file 4 "src/kernel/../../h/kernel/buddy_allocator.hpp"
   1:src/kernel/../../h/kernel/buddy_allocator.hpp **** //
   2:src/kernel/../../h/kernel/buddy_allocator.hpp **** // Created by os on 12/24/22.
   3:src/kernel/../../h/kernel/buddy_allocator.hpp **** //
   4:src/kernel/../../h/kernel/buddy_allocator.hpp **** 
   5:src/kernel/../../h/kernel/buddy_allocator.hpp **** #ifndef KERNEL_FOR_RISCV_ARCHITECURE_BUDDY_ALLOCATOR_HPP
GAS LISTING /tmp/cc3wtzn3.s 			page 34


   6:src/kernel/../../h/kernel/buddy_allocator.hpp **** #define KERNEL_FOR_RISCV_ARCHITECURE_BUDDY_ALLOCATOR_HPP
   7:src/kernel/../../h/kernel/buddy_allocator.hpp **** 
   8:src/kernel/../../h/kernel/buddy_allocator.hpp **** #include "../../lib/hw.h"
   9:src/kernel/../../h/kernel/buddy_allocator.hpp **** #include "utility.hpp"
  10:src/kernel/../../h/kernel/buddy_allocator.hpp **** 
  11:src/kernel/../../h/kernel/buddy_allocator.hpp **** class SlabAllocator;
  12:src/kernel/../../h/kernel/buddy_allocator.hpp **** 
  13:src/kernel/../../h/kernel/buddy_allocator.hpp **** class Buddy{
  14:src/kernel/../../h/kernel/buddy_allocator.hpp **** public:
  15:src/kernel/../../h/kernel/buddy_allocator.hpp ****     static void initialize(void* addr, uint64 block_num);
  16:src/kernel/../../h/kernel/buddy_allocator.hpp **** 
  17:src/kernel/../../h/kernel/buddy_allocator.hpp ****     static void* alloc(uint64 num);
  18:src/kernel/../../h/kernel/buddy_allocator.hpp **** 
  19:src/kernel/../../h/kernel/buddy_allocator.hpp ****     static void free(void *addr, uint64 size);
  20:src/kernel/../../h/kernel/buddy_allocator.hpp **** 
  21:src/kernel/../../h/kernel/buddy_allocator.hpp ****     typedef struct Block{
  22:src/kernel/../../h/kernel/buddy_allocator.hpp ****         Block *next;
  23:src/kernel/../../h/kernel/buddy_allocator.hpp ****     }Bucket;
  24:src/kernel/../../h/kernel/buddy_allocator.hpp **** 
  25:src/kernel/../../h/kernel/buddy_allocator.hpp ****     static void printList();
  26:src/kernel/../../h/kernel/buddy_allocator.hpp **** 
  27:src/kernel/../../h/kernel/buddy_allocator.hpp ****     static inline bool canAllocate(uint64 size){
  28:src/kernel/../../h/kernel/buddy_allocator.hpp ****         return head[size] != nullptr;
  29:src/kernel/../../h/kernel/buddy_allocator.hpp ****     };
  30:src/kernel/../../h/kernel/buddy_allocator.hpp **** 
  31:src/kernel/../../h/kernel/buddy_allocator.hpp **** private:
  32:src/kernel/../../h/kernel/buddy_allocator.hpp ****     static void* BUDDY_META_DATA_ADDR;
  33:src/kernel/../../h/kernel/buddy_allocator.hpp ****     static void* BUDDY_START_ADDR;
  34:src/kernel/../../h/kernel/buddy_allocator.hpp ****     static uint64 BLOCKS_AVAILABLE;
  35:src/kernel/../../h/kernel/buddy_allocator.hpp ****     static Bucket *head[BUCKET_SIZE], *tail[BUCKET_SIZE];
  36:src/kernel/../../h/kernel/buddy_allocator.hpp **** 
  37:src/kernel/../../h/kernel/buddy_allocator.hpp ****     static inline uint64 ceil(uint64 num){
  38:src/kernel/../../h/kernel/buddy_allocator.hpp ****         num--;
 1194              		.loc 4 38 9
 1195              		.loc 4 38 12 is_stmt 0
 1196 07c0 9307F5FF 		addi	a5,a0,-1
 1197              	.LVL114:
  39:src/kernel/../../h/kernel/buddy_allocator.hpp ****         num |= num>>1;
 1198              		.loc 4 39 9 is_stmt 1
 1199              		.loc 4 39 19 is_stmt 0
 1200 07c4 13D51700 		srli	a0,a5,1
 1201              	.LVL115:
 1202              		.loc 4 39 13
 1203 07c8 B3E7A700 		or	a5,a5,a0
 1204              	.LVL116:
  40:src/kernel/../../h/kernel/buddy_allocator.hpp ****         num |= num>>2;
 1205              		.loc 4 40 9 is_stmt 1
 1206              		.loc 4 40 19 is_stmt 0
 1207 07cc 13D72700 		srli	a4,a5,2
 1208              		.loc 4 40 13
 1209 07d0 B3E7E700 		or	a5,a5,a4
 1210              	.LVL117:
  41:src/kernel/../../h/kernel/buddy_allocator.hpp ****         num |= num>>4;
 1211              		.loc 4 41 9 is_stmt 1
 1212              		.loc 4 41 19 is_stmt 0
 1213 07d4 13D74700 		srli	a4,a5,4
 1214              		.loc 4 41 13
GAS LISTING /tmp/cc3wtzn3.s 			page 35


 1215 07d8 B3E7E700 		or	a5,a5,a4
 1216              	.LVL118:
  42:src/kernel/../../h/kernel/buddy_allocator.hpp ****         num |= num>>8;
 1217              		.loc 4 42 9 is_stmt 1
 1218              		.loc 4 42 19 is_stmt 0
 1219 07dc 13D78700 		srli	a4,a5,8
 1220              		.loc 4 42 13
 1221 07e0 B3E7E700 		or	a5,a5,a4
 1222              	.LVL119:
  43:src/kernel/../../h/kernel/buddy_allocator.hpp ****         num |= num>>16;
 1223              		.loc 4 43 9 is_stmt 1
 1224              		.loc 4 43 19 is_stmt 0
 1225 07e4 13D70701 		srli	a4,a5,16
 1226              		.loc 4 43 13
 1227 07e8 B3E7E700 		or	a5,a5,a4
 1228              	.LVL120:
  44:src/kernel/../../h/kernel/buddy_allocator.hpp ****         num |= num>>32;
 1229              		.loc 4 44 9 is_stmt 1
 1230              		.loc 4 44 19 is_stmt 0
 1231 07ec 13D70702 		srli	a4,a5,32
 1232              		.loc 4 44 13
 1233 07f0 B3E7E700 		or	a5,a5,a4
 1234              	.LVL121:
  45:src/kernel/../../h/kernel/buddy_allocator.hpp ****         return ++num;
 1235              		.loc 4 45 9 is_stmt 1
 1236              		.loc 4 45 18 is_stmt 0
 1237 07f4 93871700 		addi	a5,a5,1
 1238              	.LVL122:
 1239              	.LBE73:
 1240              	.LBE72:
 1241              	.LBB74:
 1242              	.LBB75:
  46:src/kernel/../../h/kernel/buddy_allocator.hpp ****     }
  47:src/kernel/../../h/kernel/buddy_allocator.hpp **** 
  48:src/kernel/../../h/kernel/buddy_allocator.hpp ****     static inline uint64 getDeg(uint64 num){
  49:src/kernel/../../h/kernel/buddy_allocator.hpp ****         uint64 deg = 0;
 1243              		.loc 4 49 16
 1244 07f8 13070000 		li	a4,0
 1245              	.L75:
 1246              	.LVL123:
  50:src/kernel/../../h/kernel/buddy_allocator.hpp ****         while(num>1){
 1247              		.loc 4 50 9 is_stmt 1
 1248              		.loc 4 50 18
 1249 07fc 93061000 		li	a3,1
 1250 0800 63F8F600 		bleu	a5,a3,.L74
  51:src/kernel/../../h/kernel/buddy_allocator.hpp ****             num/=2;
 1251              		.loc 4 51 13
 1252              		.loc 4 51 16 is_stmt 0
 1253 0804 93D71700 		srli	a5,a5,1
 1254              	.LVL124:
  52:src/kernel/../../h/kernel/buddy_allocator.hpp ****             deg++;
 1255              		.loc 4 52 13 is_stmt 1
 1256              		.loc 4 52 16 is_stmt 0
 1257 0808 13071700 		addi	a4,a4,1
 1258              	.LVL125:
  50:src/kernel/../../h/kernel/buddy_allocator.hpp ****         while(num>1){
 1259              		.loc 4 50 9
GAS LISTING /tmp/cc3wtzn3.s 			page 36


 1260 080c 6FF01FFF 		j	.L75
 1261              	.L74:
  53:src/kernel/../../h/kernel/buddy_allocator.hpp ****         }
  54:src/kernel/../../h/kernel/buddy_allocator.hpp ****         return deg;
 1262              		.loc 4 54 9 is_stmt 1
 1263              	.LVL126:
 1264              	.LBE75:
 1265              	.LBE74:
 126:src/kernel/slab_allocator.cpp ****         return nullptr;
 1266              		.loc 1 126 5
 126:src/kernel/slab_allocator.cpp ****         return nullptr;
 1267              		.loc 1 126 34 is_stmt 0
 1268 0810 1307B7FF 		addi	a4,a4,-5
 1269              	.LVL127:
 126:src/kernel/slab_allocator.cpp ****         return nullptr;
 1270              		.loc 1 126 5
 1271 0814 9307C000 		li	a5,12
 1272 0818 63E0E704 		bgtu	a4,a5,.L77
 124:src/kernel/slab_allocator.cpp ****     uint64 level = Buddy::getDeg(Buddy::ceil(size));
 1273              		.loc 1 124 50
 1274 081c 130101FF 		addi	sp,sp,-16
 1275              		.cfi_def_cfa_offset 16
 1276 0820 23341100 		sd	ra,8(sp)
 1277 0824 23308100 		sd	s0,0(sp)
 1278              		.cfi_offset 1, -8
 1279              		.cfi_offset 8, -16
 1280 0828 13040101 		addi	s0,sp,16
 1281              		.cfi_def_cfa 8, 0
 129:src/kernel/slab_allocator.cpp ****     return SlabAllocator::allocateObject(sizeN[level]);
 1282              		.loc 1 129 9 is_stmt 1
 1283              	.LVL128:
 130:src/kernel/slab_allocator.cpp **** }
 1284              		.loc 1 130 5
 130:src/kernel/slab_allocator.cpp **** }
 1285              		.loc 1 130 41 is_stmt 0
 1286 082c 13173700 		slli	a4,a4,3
 1287              	.LVL129:
 1288 0830 97070000 		lla	a5,.LANCHOR0
 1288      93870700 
 1289 0838 3387E700 		add	a4,a5,a4
 1290 083c 03358700 		ld	a0,8(a4)
 1291 0840 97000000 		call	_ZN13SlabAllocator14allocateObjectEP5Cache
 1291      E7800000 
 1292              	.LVL130:
 131:src/kernel/slab_allocator.cpp **** 
 1293              		.loc 1 131 1
 1294 0848 83308100 		ld	ra,8(sp)
 1295              		.cfi_restore 1
 1296 084c 03340100 		ld	s0,0(sp)
 1297              		.cfi_restore 8
 1298              		.cfi_def_cfa 2, 16
 1299 0850 13010101 		addi	sp,sp,16
 1300              		.cfi_def_cfa_offset 0
 1301 0854 67800000 		jr	ra
 1302              	.LVL131:
 1303              	.L77:
 127:src/kernel/slab_allocator.cpp ****     else
GAS LISTING /tmp/cc3wtzn3.s 			page 37


 1304              		.loc 1 127 16
 1305 0858 13050000 		li	a0,0
 131:src/kernel/slab_allocator.cpp **** 
 1306              		.loc 1 131 1
 1307 085c 67800000 		ret
 1308              		.cfi_endproc
 1309              	.LFE39:
 1311              		.align	2
 1312              		.globl	_ZN13SlabAllocator11createCacheEPKcmPFvPvES4_
 1314              	_ZN13SlabAllocator11createCacheEPKcmPFvPvES4_:
 1315              	.LFB43:
 177:src/kernel/slab_allocator.cpp ****     Cache* ret = (Cache*)SlabAllocator::allocateObject(SlabAllocator::cache);
 1316              		.loc 1 177 110 is_stmt 1
 1317              		.cfi_startproc
 1318              	.LVL132:
 1319 0860 130101FC 		addi	sp,sp,-64
 1320              		.cfi_def_cfa_offset 64
 1321 0864 233C1102 		sd	ra,56(sp)
 1322 0868 23388102 		sd	s0,48(sp)
 1323 086c 23349102 		sd	s1,40(sp)
 1324 0870 23302103 		sd	s2,32(sp)
 1325 0874 233C3101 		sd	s3,24(sp)
 1326 0878 23384101 		sd	s4,16(sp)
 1327 087c 23345101 		sd	s5,8(sp)
 1328              		.cfi_offset 1, -8
 1329              		.cfi_offset 8, -16
 1330              		.cfi_offset 9, -24
 1331              		.cfi_offset 18, -32
 1332              		.cfi_offset 19, -40
 1333              		.cfi_offset 20, -48
 1334              		.cfi_offset 21, -56
 1335 0880 13040104 		addi	s0,sp,64
 1336              		.cfi_def_cfa 8, 0
 1337 0884 930A0500 		mv	s5,a0
 1338 0888 93840500 		mv	s1,a1
 1339 088c 130A0600 		mv	s4,a2
 1340 0890 93890600 		mv	s3,a3
 178:src/kernel/slab_allocator.cpp ****     if(ret == nullptr)
 1341              		.loc 1 178 5
 178:src/kernel/slab_allocator.cpp ****     if(ret == nullptr)
 1342              		.loc 1 178 55 is_stmt 0
 1343 0894 17050000 		ld	a0,.LANCHOR0+112
 1343      03350500 
 1344              	.LVL133:
 1345 089c 97000000 		call	_ZN13SlabAllocator14allocateObjectEP5Cache
 1345      E7800000 
 1346              	.LVL134:
 1347 08a4 13090500 		mv	s2,a0
 1348              	.LVL135:
 179:src/kernel/slab_allocator.cpp ****         return nullptr;
 1349              		.loc 1 179 5 is_stmt 1
 1350 08a8 630E0508 		beqz	a0,.L82
 181:src/kernel/slab_allocator.cpp ****     ret->ctor = ctor;
 1351              		.loc 1 181 5
 181:src/kernel/slab_allocator.cpp ****     ret->ctor = ctor;
 1352              		.loc 1 181 11 is_stmt 0
 1353 08ac 93050500 		mv	a1,a0
GAS LISTING /tmp/cc3wtzn3.s 			page 38


 1354 08b0 13850A00 		mv	a0,s5
 1355              	.LVL136:
 1356 08b4 97000000 		call	_Z6strcpyPKcPc@plt
 1356      E7800000 
 1357              	.LVL137:
 182:src/kernel/slab_allocator.cpp ****     ret->dtor = dtor;
 1358              		.loc 1 182 5 is_stmt 1
 182:src/kernel/slab_allocator.cpp ****     ret->dtor = dtor;
 1359              		.loc 1 182 15 is_stmt 0
 1360 08bc 233C4905 		sd	s4,88(s2)
 183:src/kernel/slab_allocator.cpp ****     ret->emptyHead = ret->partialHead = ret->fullHead = nullptr;
 1361              		.loc 1 183 5 is_stmt 1
 183:src/kernel/slab_allocator.cpp ****     ret->emptyHead = ret->partialHead = ret->fullHead = nullptr;
 1362              		.loc 1 183 15 is_stmt 0
 1363 08c0 23303907 		sd	s3,96(s2)
 184:src/kernel/slab_allocator.cpp ****     ret->objectSize = size;
 1364              		.loc 1 184 5 is_stmt 1
 184:src/kernel/slab_allocator.cpp ****     ret->objectSize = size;
 1365              		.loc 1 184 55 is_stmt 0
 1366 08c4 233C0906 		sd	zero,120(s2)
 184:src/kernel/slab_allocator.cpp ****     ret->objectSize = size;
 1367              		.loc 1 184 39
 1368 08c8 23380906 		sd	zero,112(s2)
 184:src/kernel/slab_allocator.cpp ****     ret->objectSize = size;
 1369              		.loc 1 184 20
 1370 08cc 23340906 		sd	zero,104(s2)
 185:src/kernel/slab_allocator.cpp ****     ret->errCode = 0;
 1371              		.loc 1 185 5 is_stmt 1
 185:src/kernel/slab_allocator.cpp ****     ret->errCode = 0;
 1372              		.loc 1 185 21 is_stmt 0
 1373 08d0 23309904 		sd	s1,64(s2)
 186:src/kernel/slab_allocator.cpp ****     if(size <= sizeof(Slab))
 1374              		.loc 1 186 5 is_stmt 1
 186:src/kernel/slab_allocator.cpp ****     if(size <= sizeof(Slab))
 1375              		.loc 1 186 18 is_stmt 0
 1376 08d4 23380904 		sd	zero,80(s2)
 187:src/kernel/slab_allocator.cpp ****         ret->slabSize = SMALL_CACHE_DEFAULT_SLAB_SIZE;
 1377              		.loc 1 187 5 is_stmt 1
 1378 08d8 9307000B 		li	a5,176
 1379 08dc 63E89700 		bgtu	s1,a5,.L84
 188:src/kernel/slab_allocator.cpp ****     else
 1380              		.loc 1 188 9
 188:src/kernel/slab_allocator.cpp ****     else
 1381              		.loc 1 188 23 is_stmt 0
 1382 08e0 93071000 		li	a5,1
 1383 08e4 2334F904 		sd	a5,72(s2)
 1384 08e8 6F00C005 		j	.L82
 1385              	.L84:
 190:src/kernel/slab_allocator.cpp ****     return ret;
 1386              		.loc 1 190 9 is_stmt 1
 1387              	.LVL138:
 1388              	.LBB76:
 1389              	.LBB77:
  38:src/kernel/../../h/kernel/buddy_allocator.hpp ****         num |= num>>1;
 1390              		.loc 4 38 9
  38:src/kernel/../../h/kernel/buddy_allocator.hpp ****         num |= num>>1;
 1391              		.loc 4 38 12 is_stmt 0
GAS LISTING /tmp/cc3wtzn3.s 			page 39


 1392 08ec 9387F4FF 		addi	a5,s1,-1
 1393              	.LVL139:
  39:src/kernel/../../h/kernel/buddy_allocator.hpp ****         num |= num>>2;
 1394              		.loc 4 39 9 is_stmt 1
  39:src/kernel/../../h/kernel/buddy_allocator.hpp ****         num |= num>>2;
 1395              		.loc 4 39 19 is_stmt 0
 1396 08f0 93D41700 		srli	s1,a5,1
 1397              	.LVL140:
  39:src/kernel/../../h/kernel/buddy_allocator.hpp ****         num |= num>>2;
 1398              		.loc 4 39 13
 1399 08f4 B3E79700 		or	a5,a5,s1
 1400              	.LVL141:
  40:src/kernel/../../h/kernel/buddy_allocator.hpp ****         num |= num>>4;
 1401              		.loc 4 40 9 is_stmt 1
  40:src/kernel/../../h/kernel/buddy_allocator.hpp ****         num |= num>>4;
 1402              		.loc 4 40 19 is_stmt 0
 1403 08f8 93D42700 		srli	s1,a5,2
  40:src/kernel/../../h/kernel/buddy_allocator.hpp ****         num |= num>>4;
 1404              		.loc 4 40 13
 1405 08fc B3E79700 		or	a5,a5,s1
 1406              	.LVL142:
  41:src/kernel/../../h/kernel/buddy_allocator.hpp ****         num |= num>>8;
 1407              		.loc 4 41 9 is_stmt 1
  41:src/kernel/../../h/kernel/buddy_allocator.hpp ****         num |= num>>8;
 1408              		.loc 4 41 19 is_stmt 0
 1409 0900 13D74700 		srli	a4,a5,4
  41:src/kernel/../../h/kernel/buddy_allocator.hpp ****         num |= num>>8;
 1410              		.loc 4 41 13
 1411 0904 B3E7E700 		or	a5,a5,a4
 1412              	.LVL143:
  42:src/kernel/../../h/kernel/buddy_allocator.hpp ****         num |= num>>16;
 1413              		.loc 4 42 9 is_stmt 1
  42:src/kernel/../../h/kernel/buddy_allocator.hpp ****         num |= num>>16;
 1414              		.loc 4 42 19 is_stmt 0
 1415 0908 13D78700 		srli	a4,a5,8
  42:src/kernel/../../h/kernel/buddy_allocator.hpp ****         num |= num>>16;
 1416              		.loc 4 42 13
 1417 090c B3E7E700 		or	a5,a5,a4
 1418              	.LVL144:
  43:src/kernel/../../h/kernel/buddy_allocator.hpp ****         num |= num>>32;
 1419              		.loc 4 43 9 is_stmt 1
  43:src/kernel/../../h/kernel/buddy_allocator.hpp ****         num |= num>>32;
 1420              		.loc 4 43 19 is_stmt 0
 1421 0910 13D70701 		srli	a4,a5,16
  43:src/kernel/../../h/kernel/buddy_allocator.hpp ****         num |= num>>32;
 1422              		.loc 4 43 13
 1423 0914 B3E7E700 		or	a5,a5,a4
 1424              	.LVL145:
  44:src/kernel/../../h/kernel/buddy_allocator.hpp ****         return ++num;
 1425              		.loc 4 44 9 is_stmt 1
  44:src/kernel/../../h/kernel/buddy_allocator.hpp ****         return ++num;
 1426              		.loc 4 44 19 is_stmt 0
 1427 0918 13D70702 		srli	a4,a5,32
  44:src/kernel/../../h/kernel/buddy_allocator.hpp ****         return ++num;
 1428              		.loc 4 44 13
 1429 091c B3E7E700 		or	a5,a5,a4
 1430              	.LVL146:
GAS LISTING /tmp/cc3wtzn3.s 			page 40


  45:src/kernel/../../h/kernel/buddy_allocator.hpp ****     }
 1431              		.loc 4 45 9 is_stmt 1
  45:src/kernel/../../h/kernel/buddy_allocator.hpp ****     }
 1432              		.loc 4 45 18 is_stmt 0
 1433 0920 93871700 		addi	a5,a5,1
 1434              	.LVL147:
 1435              	.LBE77:
 1436              	.LBE76:
 1437              	.LBB78:
 1438              	.LBB79:
  49:src/kernel/../../h/kernel/buddy_allocator.hpp ****         while(num>1){
 1439              		.loc 4 49 16
 1440 0924 13070000 		li	a4,0
 1441              	.L86:
 1442              	.LVL148:
  50:src/kernel/../../h/kernel/buddy_allocator.hpp ****             num/=2;
 1443              		.loc 4 50 9 is_stmt 1
  50:src/kernel/../../h/kernel/buddy_allocator.hpp ****             num/=2;
 1444              		.loc 4 50 18
 1445 0928 93061000 		li	a3,1
 1446 092c 63F8F600 		bleu	a5,a3,.L85
  51:src/kernel/../../h/kernel/buddy_allocator.hpp ****             deg++;
 1447              		.loc 4 51 13
  51:src/kernel/../../h/kernel/buddy_allocator.hpp ****             deg++;
 1448              		.loc 4 51 16 is_stmt 0
 1449 0930 93D71700 		srli	a5,a5,1
 1450              	.LVL149:
  52:src/kernel/../../h/kernel/buddy_allocator.hpp ****         }
 1451              		.loc 4 52 13 is_stmt 1
  52:src/kernel/../../h/kernel/buddy_allocator.hpp ****         }
 1452              		.loc 4 52 16 is_stmt 0
 1453 0934 13071700 		addi	a4,a4,1
 1454              	.LVL150:
  50:src/kernel/../../h/kernel/buddy_allocator.hpp ****             num/=2;
 1455              		.loc 4 50 9
 1456 0938 6FF01FFF 		j	.L86
 1457              	.L85:
 1458              		.loc 4 54 9 is_stmt 1
 1459              	.LVL151:
 1460              	.LBE79:
 1461              	.LBE78:
 190:src/kernel/slab_allocator.cpp ****     return ret;
 1462              		.loc 1 190 57 is_stmt 0
 1463 093c 130767FF 		addi	a4,a4,-10
 190:src/kernel/slab_allocator.cpp ****     return ret;
 1464              		.loc 1 190 23
 1465 0940 2334E904 		sd	a4,72(s2)
 1466              	.LVL152:
 1467              	.L82:
 192:src/kernel/slab_allocator.cpp **** 
 1468              		.loc 1 192 1
 1469 0944 13050900 		mv	a0,s2
 1470 0948 83308103 		ld	ra,56(sp)
 1471              		.cfi_restore 1
 1472 094c 03340103 		ld	s0,48(sp)
 1473              		.cfi_restore 8
 1474              		.cfi_def_cfa 2, 64
GAS LISTING /tmp/cc3wtzn3.s 			page 41


 1475 0950 83348102 		ld	s1,40(sp)
 1476              		.cfi_restore 9
 1477 0954 03390102 		ld	s2,32(sp)
 1478              		.cfi_restore 18
 1479              	.LVL153:
 1480 0958 83398101 		ld	s3,24(sp)
 1481              		.cfi_restore 19
 1482              	.LVL154:
 1483 095c 033A0101 		ld	s4,16(sp)
 1484              		.cfi_restore 20
 1485              	.LVL155:
 1486 0960 833A8100 		ld	s5,8(sp)
 1487              		.cfi_restore 21
 1488              	.LVL156:
 1489 0964 13010104 		addi	sp,sp,64
 1490              		.cfi_def_cfa_offset 0
 1491 0968 67800000 		jr	ra
 1492              		.cfi_endproc
 1493              	.LFE43:
 1495              		.section	.rodata.str1.8
 1496 0154 00000000 		.align	3
 1497              	.LC18:
 1498 0158 4D61696E 		.string	"Main Cache"
 1498      20436163 
 1498      686500
 1499 0163 00000000 		.align	3
 1499      00
 1500              	.LC19:
 1501 0168 4C617267 		.string	"Large Slab Cache"
 1501      6520536C 
 1501      61622043 
 1501      61636865 
 1501      00
 1502              		.text
 1503              		.align	2
 1504              		.globl	_ZN13SlabAllocator10initializeEPvm
 1506              	_ZN13SlabAllocator10initializeEPvm:
 1507              	.LFB35:
  13:src/kernel/slab_allocator.cpp ****     Buddy::initialize(space, blockNum);
 1508              		.loc 1 13 62 is_stmt 1
 1509              		.cfi_startproc
 1510              	.LVL157:
 1511 096c 130101FE 		addi	sp,sp,-32
 1512              		.cfi_def_cfa_offset 32
 1513 0970 233C1100 		sd	ra,24(sp)
 1514 0974 23388100 		sd	s0,16(sp)
 1515 0978 23349100 		sd	s1,8(sp)
 1516 097c 23302101 		sd	s2,0(sp)
 1517              		.cfi_offset 1, -8
 1518              		.cfi_offset 8, -16
 1519              		.cfi_offset 9, -24
 1520              		.cfi_offset 18, -32
 1521 0980 13040102 		addi	s0,sp,32
 1522              		.cfi_def_cfa 8, 0
  14:src/kernel/slab_allocator.cpp ****     cache = (Cache*)SLAB_META_ADDR_CONST;
 1523              		.loc 1 14 5
  14:src/kernel/slab_allocator.cpp ****     cache = (Cache*)SLAB_META_ADDR_CONST;
GAS LISTING /tmp/cc3wtzn3.s 			page 42


 1524              		.loc 1 14 22 is_stmt 0
 1525 0984 97000000 		call	_ZN5Buddy10initializeEPvm@plt
 1525      E7800000 
 1526              	.LVL158:
  15:src/kernel/slab_allocator.cpp ****     cache->ctor = nullptr;
 1527              		.loc 1 15 5 is_stmt 1
  15:src/kernel/slab_allocator.cpp ****     cache->ctor = nullptr;
 1528              		.loc 1 15 21 is_stmt 0
 1529 098c 17090000 		la	s2,HEAP_START_ADDR
 1529      03390900 
 1530 0994 83350900 		ld	a1,0(s2)
 1531 0998 93D5C500 		srli	a1,a1,12
 1532 099c 93851500 		addi	a1,a1,1
 1533 09a0 9395C500 		slli	a1,a1,12
  15:src/kernel/slab_allocator.cpp ****     cache->ctor = nullptr;
 1534              		.loc 1 15 11
 1535 09a4 97040000 		lla	s1,.LANCHOR0
 1535      93840400 
 1536 09ac 23B8B406 		sd	a1,112(s1)
  16:src/kernel/slab_allocator.cpp ****     cache->dtor = nullptr;
 1537              		.loc 1 16 5 is_stmt 1
  16:src/kernel/slab_allocator.cpp ****     cache->dtor = nullptr;
 1538              		.loc 1 16 17 is_stmt 0
 1539 09b0 23BC0504 		sd	zero,88(a1)
  17:src/kernel/slab_allocator.cpp ****     cache->emptyHead = nullptr;
 1540              		.loc 1 17 5 is_stmt 1
  17:src/kernel/slab_allocator.cpp ****     cache->emptyHead = nullptr;
 1541              		.loc 1 17 17 is_stmt 0
 1542 09b4 23B00506 		sd	zero,96(a1)
  18:src/kernel/slab_allocator.cpp ****     cache->partialHead = nullptr;
 1543              		.loc 1 18 5 is_stmt 1
  18:src/kernel/slab_allocator.cpp ****     cache->partialHead = nullptr;
 1544              		.loc 1 18 22 is_stmt 0
 1545 09b8 23B40506 		sd	zero,104(a1)
  19:src/kernel/slab_allocator.cpp ****     cache->fullHead = nullptr;
 1546              		.loc 1 19 5 is_stmt 1
  19:src/kernel/slab_allocator.cpp ****     cache->fullHead = nullptr;
 1547              		.loc 1 19 24 is_stmt 0
 1548 09bc 23B80506 		sd	zero,112(a1)
  20:src/kernel/slab_allocator.cpp ****     cache->objectSize = sizeof(Cache);
 1549              		.loc 1 20 5 is_stmt 1
  20:src/kernel/slab_allocator.cpp ****     cache->objectSize = sizeof(Cache);
 1550              		.loc 1 20 21 is_stmt 0
 1551 09c0 23BC0506 		sd	zero,120(a1)
  21:src/kernel/slab_allocator.cpp ****     cache->slabSize = DEFAULT_SLAB_SIZE;
 1552              		.loc 1 21 5 is_stmt 1
  21:src/kernel/slab_allocator.cpp ****     cache->slabSize = DEFAULT_SLAB_SIZE;
 1553              		.loc 1 21 23 is_stmt 0
 1554 09c4 93070008 		li	a5,128
 1555 09c8 23B0F504 		sd	a5,64(a1)
  22:src/kernel/slab_allocator.cpp ****     cache->errCode = 0;
 1556              		.loc 1 22 5 is_stmt 1
  22:src/kernel/slab_allocator.cpp ****     cache->errCode = 0;
 1557              		.loc 1 22 21 is_stmt 0
 1558 09cc 93072000 		li	a5,2
 1559 09d0 23B4F504 		sd	a5,72(a1)
  23:src/kernel/slab_allocator.cpp ****     strcpy("Main Cache", cache->name);
GAS LISTING /tmp/cc3wtzn3.s 			page 43


 1560              		.loc 1 23 5 is_stmt 1
  23:src/kernel/slab_allocator.cpp ****     strcpy("Main Cache", cache->name);
 1561              		.loc 1 23 20 is_stmt 0
 1562 09d4 23B80504 		sd	zero,80(a1)
  24:src/kernel/slab_allocator.cpp **** 
 1563              		.loc 1 24 5 is_stmt 1
  24:src/kernel/slab_allocator.cpp **** 
 1564              		.loc 1 24 11 is_stmt 0
 1565 09d8 17050000 		lla	a0,.LC18
 1565      13050500 
 1566 09e0 97000000 		call	_Z6strcpyPKcPc@plt
 1566      E7800000 
 1567              	.LVL159:
  26:src/kernel/slab_allocator.cpp ****     largeSlabCache->ctor = nullptr;
 1568              		.loc 1 26 5 is_stmt 1
  26:src/kernel/slab_allocator.cpp ****     largeSlabCache->ctor = nullptr;
 1569              		.loc 1 26 30 is_stmt 0
 1570 09e8 83370900 		ld	a5,0(s2)
 1571 09ec 37F7FFFF 		li	a4,-4096
 1572 09f0 B3F7E700 		and	a5,a5,a4
  26:src/kernel/slab_allocator.cpp ****     largeSlabCache->ctor = nullptr;
 1573              		.loc 1 26 20
 1574 09f4 23B0F400 		sd	a5,0(s1)
  27:src/kernel/slab_allocator.cpp ****     largeSlabCache->dtor = nullptr;
 1575              		.loc 1 27 5 is_stmt 1
  27:src/kernel/slab_allocator.cpp ****     largeSlabCache->dtor = nullptr;
 1576              		.loc 1 27 26 is_stmt 0
 1577 09f8 23BC0704 		sd	zero,88(a5)
  28:src/kernel/slab_allocator.cpp ****     largeSlabCache->emptyHead = nullptr;
 1578              		.loc 1 28 5 is_stmt 1
  28:src/kernel/slab_allocator.cpp ****     largeSlabCache->emptyHead = nullptr;
 1579              		.loc 1 28 26 is_stmt 0
 1580 09fc 23B00706 		sd	zero,96(a5)
  29:src/kernel/slab_allocator.cpp ****     largeSlabCache->partialHead = nullptr;
 1581              		.loc 1 29 5 is_stmt 1
  29:src/kernel/slab_allocator.cpp ****     largeSlabCache->partialHead = nullptr;
 1582              		.loc 1 29 31 is_stmt 0
 1583 0a00 23B40706 		sd	zero,104(a5)
  30:src/kernel/slab_allocator.cpp ****     largeSlabCache->fullHead = nullptr;
 1584              		.loc 1 30 5 is_stmt 1
  30:src/kernel/slab_allocator.cpp ****     largeSlabCache->fullHead = nullptr;
 1585              		.loc 1 30 33 is_stmt 0
 1586 0a04 23B80706 		sd	zero,112(a5)
  31:src/kernel/slab_allocator.cpp ****     largeSlabCache->objectSize = sizeof(Slab);
 1587              		.loc 1 31 5 is_stmt 1
  31:src/kernel/slab_allocator.cpp ****     largeSlabCache->objectSize = sizeof(Slab);
 1588              		.loc 1 31 30 is_stmt 0
 1589 0a08 23BC0706 		sd	zero,120(a5)
  32:src/kernel/slab_allocator.cpp ****     largeSlabCache->slabSize = SLAB_HEADER_DEFAULT_SLAB_SIZE;
 1590              		.loc 1 32 5 is_stmt 1
  32:src/kernel/slab_allocator.cpp ****     largeSlabCache->slabSize = SLAB_HEADER_DEFAULT_SLAB_SIZE;
 1591              		.loc 1 32 32 is_stmt 0
 1592 0a0c 1307000B 		li	a4,176
 1593 0a10 23B0E704 		sd	a4,64(a5)
  33:src/kernel/slab_allocator.cpp ****     cache->errCode = 0;
 1594              		.loc 1 33 5 is_stmt 1
  33:src/kernel/slab_allocator.cpp ****     cache->errCode = 0;
GAS LISTING /tmp/cc3wtzn3.s 			page 44


 1595              		.loc 1 33 30 is_stmt 0
 1596 0a14 13074000 		li	a4,4
 1597 0a18 23B4E704 		sd	a4,72(a5)
  34:src/kernel/slab_allocator.cpp ****     strcpy("Large Slab Cache", cache->name);
 1598              		.loc 1 34 5 is_stmt 1
  34:src/kernel/slab_allocator.cpp ****     strcpy("Large Slab Cache", cache->name);
 1599              		.loc 1 34 12 is_stmt 0
 1600 0a1c 83B50407 		ld	a1,112(s1)
  34:src/kernel/slab_allocator.cpp ****     strcpy("Large Slab Cache", cache->name);
 1601              		.loc 1 34 20
 1602 0a20 23B80504 		sd	zero,80(a1)
  35:src/kernel/slab_allocator.cpp **** 
 1603              		.loc 1 35 5 is_stmt 1
  35:src/kernel/slab_allocator.cpp **** 
 1604              		.loc 1 35 11 is_stmt 0
 1605 0a24 17050000 		lla	a0,.LC19
 1605      13050500 
 1606 0a2c 97000000 		call	_Z6strcpyPKcPc@plt
 1606      E7800000 
 1607              	.LVL160:
  38:src/kernel/slab_allocator.cpp ****         sizeN[i] = SlabAllocator::createCache(names[i], 1<<(i+CACHE_LOWER_BOUND), nullptr, nullptr)
 1608              		.loc 1 38 5 is_stmt 1
 1609              	.LBB80:
  38:src/kernel/slab_allocator.cpp ****         sizeN[i] = SlabAllocator::createCache(names[i], 1<<(i+CACHE_LOWER_BOUND), nullptr, nullptr)
 1610              		.loc 1 38 13 is_stmt 0
 1611 0a34 93040000 		li	s1,0
 1612 0a38 6F008004 		j	.L90
 1613              	.LVL161:
 1614              	.L92:
  39:src/kernel/slab_allocator.cpp ****     }
 1615              		.loc 1 39 9 is_stmt 1 discriminator 2
  39:src/kernel/slab_allocator.cpp ****     }
 1616              		.loc 1 39 62 is_stmt 0 discriminator 2
 1617 0a3c 1B875400 		addiw	a4,s1,5
  39:src/kernel/slab_allocator.cpp ****     }
 1618              		.loc 1 39 46 discriminator 2
 1619 0a40 13993400 		slli	s2,s1,3
 1620 0a44 97070000 		lla	a5,.LANCHOR1
 1620      93870700 
 1621 0a4c B3872701 		add	a5,a5,s2
 1622 0a50 93060000 		li	a3,0
 1623 0a54 13060000 		li	a2,0
 1624 0a58 93051000 		li	a1,1
 1625 0a5c BB95E500 		sllw	a1,a1,a4
 1626 0a60 03B50700 		ld	a0,0(a5)
 1627 0a64 97000000 		call	_ZN13SlabAllocator11createCacheEPKcmPFvPvES4_
 1627      E7800000 
 1628              	.LVL162:
  39:src/kernel/slab_allocator.cpp ****     }
 1629              		.loc 1 39 18 discriminator 2
 1630 0a6c 97070000 		lla	a5,.LANCHOR0
 1630      93870700 
 1631 0a74 B3872701 		add	a5,a5,s2
 1632 0a78 23B4A700 		sd	a0,8(a5)
  38:src/kernel/slab_allocator.cpp ****         sizeN[i] = SlabAllocator::createCache(names[i], 1<<(i+CACHE_LOWER_BOUND), nullptr, nullptr)
 1633              		.loc 1 38 5 is_stmt 1 discriminator 2
 1634 0a7c 9B841400 		addiw	s1,s1,1
GAS LISTING /tmp/cc3wtzn3.s 			page 45


 1635              	.LVL163:
 1636              	.L90:
  38:src/kernel/slab_allocator.cpp ****         sizeN[i] = SlabAllocator::createCache(names[i], 1<<(i+CACHE_LOWER_BOUND), nullptr, nullptr)
 1637              		.loc 1 38 18 discriminator 3
 1638 0a80 9307C000 		li	a5,12
 1639 0a84 E3DC97FA 		ble	s1,a5,.L92
 1640              	.LBE80:
  41:src/kernel/slab_allocator.cpp **** 
 1641              		.loc 1 41 1 is_stmt 0
 1642 0a88 83308101 		ld	ra,24(sp)
 1643              		.cfi_restore 1
 1644 0a8c 03340101 		ld	s0,16(sp)
 1645              		.cfi_restore 8
 1646              		.cfi_def_cfa 2, 32
 1647 0a90 83348100 		ld	s1,8(sp)
 1648              		.cfi_restore 9
 1649              	.LVL164:
 1650 0a94 03390100 		ld	s2,0(sp)
 1651              		.cfi_restore 18
 1652 0a98 13010102 		addi	sp,sp,32
 1653              		.cfi_def_cfa_offset 0
 1654 0a9c 67800000 		jr	ra
 1655              		.cfi_endproc
 1656              	.LFE35:
 1658              		.align	2
 1659              		.globl	_ZN13SlabAllocator8freeSlotEP4Slabm
 1661              	_ZN13SlabAllocator8freeSlotEP4Slabm:
 1662              	.LFB40:
 133:src/kernel/slab_allocator.cpp ****     if(slab->allocated[index>>3] & (1<<(7 - (index&7)))) {
 1663              		.loc 1 133 56 is_stmt 1
 1664              		.cfi_startproc
 1665              	.LVL165:
 134:src/kernel/slab_allocator.cpp ****         slab->allocated[index>>3] &= ~(1<<(7 - (index&7)));
 1666              		.loc 1 134 5
 1667              	.LBB81:
 134:src/kernel/slab_allocator.cpp ****         slab->allocated[index>>3] &= ~(1<<(7 - (index&7)));
 1668              		.loc 1 134 29 is_stmt 0
 1669 0aa0 13D73500 		srli	a4,a1,3
 134:src/kernel/slab_allocator.cpp ****         slab->allocated[index>>3] &= ~(1<<(7 - (index&7)));
 1670              		.loc 1 134 32
 1671 0aa4 B307E500 		add	a5,a0,a4
 1672 0aa8 83C60702 		lbu	a3,32(a5)
 134:src/kernel/slab_allocator.cpp ****         slab->allocated[index>>3] &= ~(1<<(7 - (index&7)));
 1673              		.loc 1 134 43
 1674 0aac 93C5F5FF 		not	a1,a1
 1675              	.LVL166:
 1676 0ab0 93F57500 		andi	a1,a1,7
 1677              	.LVL167:
 134:src/kernel/slab_allocator.cpp ****         slab->allocated[index>>3] &= ~(1<<(7 - (index&7)));
 1678              		.loc 1 134 56
 1679 0ab4 BBD7B640 		sraw	a5,a3,a1
 1680 0ab8 93F71700 		andi	a5,a5,1
 134:src/kernel/slab_allocator.cpp ****         slab->allocated[index>>3] &= ~(1<<(7 - (index&7)));
 1681              		.loc 1 134 5
 1682 0abc 638A0708 		beqz	a5,.L100
 1683 0ac0 13060500 		mv	a2,a0
 1684              	.LBB82:
GAS LISTING /tmp/cc3wtzn3.s 			page 46


 135:src/kernel/slab_allocator.cpp ****         Slab *&headFrom = slab->isFull() ? slab->parent->fullHead : slab->parent->partialHead;
 1685              		.loc 1 135 9 is_stmt 1
 135:src/kernel/slab_allocator.cpp ****         Slab *&headFrom = slab->isFull() ? slab->parent->fullHead : slab->parent->partialHead;
 1686              		.loc 1 135 41 is_stmt 0
 1687 0ac4 93071000 		li	a5,1
 1688 0ac8 BB95B700 		sllw	a1,a5,a1
 135:src/kernel/slab_allocator.cpp ****         Slab *&headFrom = slab->isFull() ? slab->parent->fullHead : slab->parent->partialHead;
 1689              		.loc 1 135 35
 1690 0acc 3307E500 		add	a4,a0,a4
 1691 0ad0 93C5F5FF 		not	a1,a1
 1692 0ad4 B3F5D500 		and	a1,a1,a3
 1693 0ad8 2300B702 		sb	a1,32(a4)
 136:src/kernel/slab_allocator.cpp ****         slab->numOfFreeSlots++;
 1694              		.loc 1 136 9 is_stmt 1
 1695              	.LVL168:
 1696              	.LBB83:
 1697              	.LBB84:
  13:src/kernel/../../h/kernel/slab_t.hpp ****     inline bool isEmpty(){return numOfFreeSlots == totalNumOfSlots;}
 1698              		.loc 2 13 26
  13:src/kernel/../../h/kernel/slab_t.hpp ****     inline bool isEmpty(){return numOfFreeSlots == totalNumOfSlots;}
 1699              		.loc 2 13 33 is_stmt 0
 1700 0adc 83370501 		ld	a5,16(a0)
 1701              	.LVL169:
 1702              	.LBE84:
 1703              	.LBE83:
 136:src/kernel/slab_allocator.cpp ****         slab->numOfFreeSlots++;
 1704              		.loc 1 136 83
 1705 0ae0 639C0704 		bnez	a5,.L95
 136:src/kernel/slab_allocator.cpp ****         slab->numOfFreeSlots++;
 1706              		.loc 1 136 50 discriminator 1
 1707 0ae4 0335850A 		ld	a0,168(a0)
 1708              	.LVL170:
 136:src/kernel/slab_allocator.cpp ****         slab->numOfFreeSlots++;
 1709              		.loc 1 136 83 discriminator 1
 1710 0ae8 13058507 		addi	a0,a0,120
 1711              	.L96:
 1712              	.LVL171:
 137:src/kernel/slab_allocator.cpp ****         Slab *&headTo = slab->isEmpty() ? slab->parent->emptyHead : slab->parent->partialHead;
 1713              		.loc 1 137 9 is_stmt 1 discriminator 4
 137:src/kernel/slab_allocator.cpp ****         Slab *&headTo = slab->isEmpty() ? slab->parent->emptyHead : slab->parent->partialHead;
 1714              		.loc 1 137 29 is_stmt 0 discriminator 4
 1715 0aec 93871700 		addi	a5,a5,1
 1716 0af0 2338F600 		sd	a5,16(a2)
 138:src/kernel/slab_allocator.cpp **** 
 1717              		.loc 1 138 9 is_stmt 1 discriminator 4
 1718              	.LVL172:
 1719              	.LBB85:
 1720              	.LBB86:
 1721              		.loc 2 14 27 discriminator 4
 1722              		.loc 2 14 52 is_stmt 0 discriminator 4
 1723 0af4 03378601 		ld	a4,24(a2)
 1724              	.LVL173:
 1725              	.LBE86:
 1726              	.LBE85:
 138:src/kernel/slab_allocator.cpp **** 
 1727              		.loc 1 138 83 discriminator 4
 1728 0af8 6386E704 		beq	a5,a4,.L103
GAS LISTING /tmp/cc3wtzn3.s 			page 47


 138:src/kernel/slab_allocator.cpp **** 
 1729              		.loc 1 138 75 discriminator 2
 1730 0afc 8335860A 		ld	a1,168(a2)
 138:src/kernel/slab_allocator.cpp **** 
 1731              		.loc 1 138 83 discriminator 2
 1732 0b00 93850507 		addi	a1,a1,112
 1733              	.L98:
 1734              	.LVL174:
 151:src/kernel/slab_allocator.cpp ****                 SlabAllocator::move(headFrom, headTo, slab);
 1735              		.loc 1 151 13 is_stmt 1 discriminator 4
 151:src/kernel/slab_allocator.cpp ****                 SlabAllocator::move(headFrom, headTo, slab);
 1736              		.loc 1 151 17 is_stmt 0 discriminator 4
 1737 0b04 03B70500 		ld	a4,0(a1)
 151:src/kernel/slab_allocator.cpp ****                 SlabAllocator::move(headFrom, headTo, slab);
 1738              		.loc 1 151 27 discriminator 4
 1739 0b08 83370500 		ld	a5,0(a0)
 151:src/kernel/slab_allocator.cpp ****                 SlabAllocator::move(headFrom, headTo, slab);
 1740              		.loc 1 151 13 discriminator 4
 1741 0b0c 6302F704 		beq	a4,a5,.L100
 1742              	.LBE82:
 1743              	.LBE81:
 133:src/kernel/slab_allocator.cpp ****     if(slab->allocated[index>>3] & (1<<(7 - (index&7)))) {
 1744              		.loc 1 133 56
 1745 0b10 130101FF 		addi	sp,sp,-16
 1746              		.cfi_def_cfa_offset 16
 1747 0b14 23341100 		sd	ra,8(sp)
 1748 0b18 23308100 		sd	s0,0(sp)
 1749              		.cfi_offset 1, -8
 1750              		.cfi_offset 8, -16
 1751 0b1c 13040101 		addi	s0,sp,16
 1752              		.cfi_def_cfa 8, 0
 1753              	.LBB89:
 1754              	.LBB87:
 152:src/kernel/slab_allocator.cpp ****     }
 1755              		.loc 1 152 17 is_stmt 1
 152:src/kernel/slab_allocator.cpp ****     }
 1756              		.loc 1 152 36 is_stmt 0
 1757 0b20 97000000 		call	_ZN13SlabAllocator4moveERP4SlabS2_S1_
 1757      E7800000 
 1758              	.LVL175:
 1759              	.LBE87:
 1760              	.LBE89:
 154:src/kernel/slab_allocator.cpp **** 
 1761              		.loc 1 154 1
 1762 0b28 83308100 		ld	ra,8(sp)
 1763              		.cfi_restore 1
 1764 0b2c 03340100 		ld	s0,0(sp)
 1765              		.cfi_restore 8
 1766              		.cfi_def_cfa 2, 16
 1767 0b30 13010101 		addi	sp,sp,16
 1768              		.cfi_def_cfa_offset 0
 1769 0b34 67800000 		jr	ra
 1770              	.LVL176:
 1771              	.L95:
 1772              	.LBB90:
 1773              	.LBB88:
 136:src/kernel/slab_allocator.cpp ****         slab->numOfFreeSlots++;
GAS LISTING /tmp/cc3wtzn3.s 			page 48


 1774              		.loc 1 136 75 discriminator 2
 1775 0b38 0335850A 		ld	a0,168(a0)
 1776              	.LVL177:
 136:src/kernel/slab_allocator.cpp ****         slab->numOfFreeSlots++;
 1777              		.loc 1 136 83 discriminator 2
 1778 0b3c 13050507 		addi	a0,a0,112
 1779 0b40 6FF0DFFA 		j	.L96
 1780              	.LVL178:
 1781              	.L103:
 138:src/kernel/slab_allocator.cpp **** 
 1782              		.loc 1 138 49 discriminator 1
 1783 0b44 8335860A 		ld	a1,168(a2)
 138:src/kernel/slab_allocator.cpp **** 
 1784              		.loc 1 138 83 discriminator 1
 1785 0b48 93858506 		addi	a1,a1,104
 1786 0b4c 6FF09FFB 		j	.L98
 1787              	.LVL179:
 1788              	.L100:
 1789 0b50 67800000 		ret
 1790              	.LBE88:
 1791              	.LBE90:
 1792              		.cfi_endproc
 1793              	.LFE40:
 1795              		.align	2
 1796              		.globl	_ZN13SlabAllocator10freeObjectEP5CachePKv
 1798              	_ZN13SlabAllocator10freeObjectEP5CachePKv:
 1799              	.LFB41:
 156:src/kernel/slab_allocator.cpp ****     if(cache->dtor)
 1800              		.loc 1 156 64 is_stmt 1
 1801              		.cfi_startproc
 1802              	.LVL180:
 1803 0b54 130101FE 		addi	sp,sp,-32
 1804              		.cfi_def_cfa_offset 32
 1805 0b58 233C1100 		sd	ra,24(sp)
 1806 0b5c 23388100 		sd	s0,16(sp)
 1807 0b60 23349100 		sd	s1,8(sp)
 1808 0b64 23302101 		sd	s2,0(sp)
 1809              		.cfi_offset 1, -8
 1810              		.cfi_offset 8, -16
 1811              		.cfi_offset 9, -24
 1812              		.cfi_offset 18, -32
 1813 0b68 13040102 		addi	s0,sp,32
 1814              		.cfi_def_cfa 8, 0
 1815 0b6c 13090500 		mv	s2,a0
 1816 0b70 93840500 		mv	s1,a1
 157:src/kernel/slab_allocator.cpp ****         cache->dtor((void*)addr);
 1817              		.loc 1 157 5
 157:src/kernel/slab_allocator.cpp ****         cache->dtor((void*)addr);
 1818              		.loc 1 157 15 is_stmt 0
 1819 0b74 83370506 		ld	a5,96(a0)
 157:src/kernel/slab_allocator.cpp ****         cache->dtor((void*)addr);
 1820              		.loc 1 157 5
 1821 0b78 63860700 		beqz	a5,.L105
 158:src/kernel/slab_allocator.cpp ****     if(cache->ctor)
 1822              		.loc 1 158 9 is_stmt 1
 158:src/kernel/slab_allocator.cpp ****     if(cache->ctor)
 1823              		.loc 1 158 20 is_stmt 0
GAS LISTING /tmp/cc3wtzn3.s 			page 49


 1824 0b7c 13850500 		mv	a0,a1
 1825              	.LVL181:
 1826 0b80 E7800700 		jalr	a5
 1827              	.LVL182:
 1828              	.L105:
 159:src/kernel/slab_allocator.cpp ****         cache->ctor((void*)addr);
 1829              		.loc 1 159 5 is_stmt 1
 159:src/kernel/slab_allocator.cpp ****         cache->ctor((void*)addr);
 1830              		.loc 1 159 15 is_stmt 0
 1831 0b84 83378905 		ld	a5,88(s2)
 159:src/kernel/slab_allocator.cpp ****         cache->ctor((void*)addr);
 1832              		.loc 1 159 5
 1833 0b88 63860700 		beqz	a5,.L106
 160:src/kernel/slab_allocator.cpp **** 
 1834              		.loc 1 160 9 is_stmt 1
 160:src/kernel/slab_allocator.cpp **** 
 1835              		.loc 1 160 20 is_stmt 0
 1836 0b8c 13850400 		mv	a0,s1
 1837 0b90 E7800700 		jalr	a5
 1838              	.LVL183:
 1839              	.L106:
 162:src/kernel/slab_allocator.cpp ****     if(deleted)
 1840              		.loc 1 162 5 is_stmt 1
 162:src/kernel/slab_allocator.cpp ****     if(deleted)
 1841              		.loc 1 162 47 is_stmt 0
 1842 0b94 03358907 		ld	a0,120(s2)
 1843              	.LVL184:
 1844 0b98 6F008000 		j	.L109
 1845              	.LVL185:
 1846              	.L108:
 1847              	.LBB105:
 1848              	.LBB106:
 1849              	.LBB107:
  60:src/kernel/../../h/kernel/slab_allocator.hpp ****         }
  61:src/kernel/../../h/kernel/slab_allocator.hpp ****         return nullptr;
  62:src/kernel/../../h/kernel/slab_allocator.hpp ****     }
  63:src/kernel/../../h/kernel/slab_allocator.hpp **** 
  64:src/kernel/../../h/kernel/slab_allocator.hpp ****     static inline bool freeFromList(Slab* head,const void* addr){
  65:src/kernel/../../h/kernel/slab_allocator.hpp ****         while(head){
  66:src/kernel/../../h/kernel/slab_allocator.hpp ****             uint64 upperBound = SlabAllocator::getUpperBound(head);
  67:src/kernel/../../h/kernel/slab_allocator.hpp ****             uint64 lowerBound = SlabAllocator::getLowerBound(head);
  68:src/kernel/../../h/kernel/slab_allocator.hpp ****             if((uint64)addr < upperBound && (uint64)addr >= lowerBound){
  69:src/kernel/../../h/kernel/slab_allocator.hpp ****                 uint64 index = ((uint64)addr - lowerBound) / head->parent->objectSize;
  70:src/kernel/../../h/kernel/slab_allocator.hpp ****                 freeSlot(head, index);
  71:src/kernel/../../h/kernel/slab_allocator.hpp ****                 return true;
  72:src/kernel/../../h/kernel/slab_allocator.hpp ****             }
  73:src/kernel/../../h/kernel/slab_allocator.hpp ****             head = head->next;
 1850              		.loc 3 73 13 is_stmt 1
 1851              		.loc 3 73 18 is_stmt 0
 1852 0b9c 03358500 		ld	a0,8(a0)
 1853              	.LVL186:
 1854              	.L109:
 1855              	.LBE107:
  65:src/kernel/../../h/kernel/slab_allocator.hpp ****             uint64 upperBound = SlabAllocator::getUpperBound(head);
 1856              		.loc 3 65 9 is_stmt 1
  65:src/kernel/../../h/kernel/slab_allocator.hpp ****             uint64 upperBound = SlabAllocator::getUpperBound(head);
 1857              		.loc 3 65 15
GAS LISTING /tmp/cc3wtzn3.s 			page 50


 1858 0ba0 630E0502 		beqz	a0,.L114
 1859              	.LBB112:
  66:src/kernel/../../h/kernel/slab_allocator.hpp ****             uint64 lowerBound = SlabAllocator::getLowerBound(head);
 1860              		.loc 3 66 13
 1861              	.LVL187:
 1862              	.LBB108:
 1863              	.LBB109:
  52:src/kernel/../../h/kernel/slab_allocator.hpp ****     static inline uint64 getLowerBound(Slab* slab){return (uint64)slab->objectOffset;}
 1864              		.loc 3 52 52
  52:src/kernel/../../h/kernel/slab_allocator.hpp ****     static inline uint64 getLowerBound(Slab* slab){return (uint64)slab->objectOffset;}
 1865              		.loc 3 52 73 is_stmt 0
 1866 0ba4 0337050A 		ld	a4,160(a0)
  52:src/kernel/../../h/kernel/slab_allocator.hpp ****     static inline uint64 getLowerBound(Slab* slab){return (uint64)slab->objectOffset;}
 1867              		.loc 3 52 94
 1868 0ba8 83378501 		ld	a5,24(a0)
  52:src/kernel/../../h/kernel/slab_allocator.hpp ****     static inline uint64 getLowerBound(Slab* slab){return (uint64)slab->objectOffset;}
 1869              		.loc 3 52 116
 1870 0bac 8336850A 		ld	a3,168(a0)
  52:src/kernel/../../h/kernel/slab_allocator.hpp ****     static inline uint64 getLowerBound(Slab* slab){return (uint64)slab->objectOffset;}
 1871              		.loc 3 52 124
 1872 0bb0 83B50604 		ld	a1,64(a3)
  52:src/kernel/../../h/kernel/slab_allocator.hpp ****     static inline uint64 getLowerBound(Slab* slab){return (uint64)slab->objectOffset;}
 1873              		.loc 3 52 109
 1874 0bb4 B387B702 		mul	a5,a5,a1
  52:src/kernel/../../h/kernel/slab_allocator.hpp ****     static inline uint64 getLowerBound(Slab* slab){return (uint64)slab->objectOffset;}
 1875              		.loc 3 52 124
 1876 0bb8 B307F700 		add	a5,a4,a5
 1877              	.LVL188:
 1878              	.LBE109:
 1879              	.LBE108:
  67:src/kernel/../../h/kernel/slab_allocator.hpp ****             if((uint64)addr < upperBound && (uint64)addr >= lowerBound){
 1880              		.loc 3 67 13 is_stmt 1
 1881              	.LBE112:
 1882              	.LBE106:
 1883              	.LBE105:
  53:src/kernel/../../h/kernel/slab_allocator.hpp **** 
 1884              		.loc 3 53 52
 1885              	.LBB115:
 1886              	.LBB114:
 1887              	.LBB113:
  68:src/kernel/../../h/kernel/slab_allocator.hpp ****                 uint64 index = ((uint64)addr - lowerBound) / head->parent->objectSize;
 1888              		.loc 3 68 13
 1889              	.LBB110:
 1890 0bbc E3F0F4FE 		bleu	a5,s1,.L108
  68:src/kernel/../../h/kernel/slab_allocator.hpp ****                 uint64 index = ((uint64)addr - lowerBound) / head->parent->objectSize;
 1891              		.loc 3 68 42 is_stmt 0
 1892 0bc0 E3EEE4FC 		bgtu	a4,s1,.L108
 1893              	.LBB111:
  69:src/kernel/../../h/kernel/slab_allocator.hpp ****                 freeSlot(head, index);
 1894              		.loc 3 69 17 is_stmt 1
  69:src/kernel/../../h/kernel/slab_allocator.hpp ****                 freeSlot(head, index);
 1895              		.loc 3 69 46 is_stmt 0
 1896 0bc4 3387E440 		sub	a4,s1,a4
 1897              	.LVL189:
  70:src/kernel/../../h/kernel/slab_allocator.hpp ****                 return true;
 1898              		.loc 3 70 17 is_stmt 1
  70:src/kernel/../../h/kernel/slab_allocator.hpp ****                 return true;
GAS LISTING /tmp/cc3wtzn3.s 			page 51


 1899              		.loc 3 70 25 is_stmt 0
 1900 0bc8 B355B702 		divu	a1,a4,a1
 1901              	.LVL190:
 1902 0bcc 97000000 		call	_ZN13SlabAllocator8freeSlotEP4Slabm
 1902      E7800000 
 1903              	.LVL191:
  71:src/kernel/../../h/kernel/slab_allocator.hpp ****             }
 1904              		.loc 3 71 17 is_stmt 1
  71:src/kernel/../../h/kernel/slab_allocator.hpp ****             }
 1905              		.loc 3 71 24 is_stmt 0
 1906 0bd4 13051000 		li	a0,1
 1907 0bd8 6F008000 		j	.L107
 1908              	.LVL192:
 1909              	.L114:
 1910              	.LBE111:
 1911              	.LBE110:
 1912              	.LBE113:
  74:src/kernel/../../h/kernel/slab_allocator.hpp ****         }
  75:src/kernel/../../h/kernel/slab_allocator.hpp ****         return false;
 1913              		.loc 3 75 16
 1914 0bdc 13050000 		li	a0,0
 1915              	.LVL193:
 1916              	.L107:
 1917              	.LBE114:
 1918              	.LBE115:
 163:src/kernel/slab_allocator.cpp ****         return deleted;
 1919              		.loc 1 163 5 is_stmt 1
 1920 0be0 630E0500 		beqz	a0,.L116
 1921              	.LVL194:
 1922              	.L110:
 169:src/kernel/slab_allocator.cpp **** 
 1923              		.loc 1 169 1 is_stmt 0
 1924 0be4 83308101 		ld	ra,24(sp)
 1925              		.cfi_remember_state
 1926              		.cfi_restore 1
 1927 0be8 03340101 		ld	s0,16(sp)
 1928              		.cfi_restore 8
 1929              		.cfi_def_cfa 2, 32
 1930 0bec 83348100 		ld	s1,8(sp)
 1931              		.cfi_restore 9
 1932              	.LVL195:
 1933 0bf0 03390100 		ld	s2,0(sp)
 1934              		.cfi_restore 18
 1935              	.LVL196:
 1936 0bf4 13010102 		addi	sp,sp,32
 1937              		.cfi_def_cfa_offset 0
 1938 0bf8 67800000 		jr	ra
 1939              	.LVL197:
 1940              	.L116:
 1941              		.cfi_restore_state
 166:src/kernel/slab_allocator.cpp **** 
 1942              		.loc 1 166 5 is_stmt 1
 166:src/kernel/slab_allocator.cpp **** 
 1943              		.loc 1 166 42 is_stmt 0
 1944 0bfc 83370907 		ld	a5,112(s2)
 1945              	.LVL198:
 1946 0c00 6F008000 		j	.L113
GAS LISTING /tmp/cc3wtzn3.s 			page 52


 1947              	.LVL199:
 1948              	.L112:
 1949              	.LBB116:
 1950              	.LBB117:
 1951              	.LBB118:
  73:src/kernel/../../h/kernel/slab_allocator.hpp ****         }
 1952              		.loc 3 73 13 is_stmt 1
  73:src/kernel/../../h/kernel/slab_allocator.hpp ****         }
 1953              		.loc 3 73 18 is_stmt 0
 1954 0c04 83B78700 		ld	a5,8(a5)
 1955              	.LVL200:
 1956              	.L113:
 1957              	.LBE118:
  65:src/kernel/../../h/kernel/slab_allocator.hpp ****             uint64 upperBound = SlabAllocator::getUpperBound(head);
 1958              		.loc 3 65 9 is_stmt 1
  65:src/kernel/../../h/kernel/slab_allocator.hpp ****             uint64 upperBound = SlabAllocator::getUpperBound(head);
 1959              		.loc 3 65 15
 1960 0c08 E38E07FC 		beqz	a5,.L110
 1961              	.LBB123:
  66:src/kernel/../../h/kernel/slab_allocator.hpp ****             uint64 lowerBound = SlabAllocator::getLowerBound(head);
 1962              		.loc 3 66 13
 1963              	.LVL201:
 1964              	.LBB119:
 1965              	.LBB120:
  52:src/kernel/../../h/kernel/slab_allocator.hpp ****     static inline uint64 getLowerBound(Slab* slab){return (uint64)slab->objectOffset;}
 1966              		.loc 3 52 52
  52:src/kernel/../../h/kernel/slab_allocator.hpp ****     static inline uint64 getLowerBound(Slab* slab){return (uint64)slab->objectOffset;}
 1967              		.loc 3 52 73 is_stmt 0
 1968 0c0c 83B6070A 		ld	a3,160(a5)
  52:src/kernel/../../h/kernel/slab_allocator.hpp ****     static inline uint64 getLowerBound(Slab* slab){return (uint64)slab->objectOffset;}
 1969              		.loc 3 52 94
 1970 0c10 03B78701 		ld	a4,24(a5)
  52:src/kernel/../../h/kernel/slab_allocator.hpp ****     static inline uint64 getLowerBound(Slab* slab){return (uint64)slab->objectOffset;}
 1971              		.loc 3 52 116
 1972 0c14 03B6870A 		ld	a2,168(a5)
  52:src/kernel/../../h/kernel/slab_allocator.hpp ****     static inline uint64 getLowerBound(Slab* slab){return (uint64)slab->objectOffset;}
 1973              		.loc 3 52 124
 1974 0c18 83350604 		ld	a1,64(a2)
  52:src/kernel/../../h/kernel/slab_allocator.hpp ****     static inline uint64 getLowerBound(Slab* slab){return (uint64)slab->objectOffset;}
 1975              		.loc 3 52 109
 1976 0c1c 3307B702 		mul	a4,a4,a1
  52:src/kernel/../../h/kernel/slab_allocator.hpp ****     static inline uint64 getLowerBound(Slab* slab){return (uint64)slab->objectOffset;}
 1977              		.loc 3 52 124
 1978 0c20 3387E600 		add	a4,a3,a4
 1979              	.LVL202:
 1980              	.LBE120:
 1981              	.LBE119:
  67:src/kernel/../../h/kernel/slab_allocator.hpp ****             if((uint64)addr < upperBound && (uint64)addr >= lowerBound){
 1982              		.loc 3 67 13 is_stmt 1
 1983              	.LBE123:
 1984              	.LBE117:
 1985              	.LBE116:
  53:src/kernel/../../h/kernel/slab_allocator.hpp **** 
 1986              		.loc 3 53 52
 1987              	.LBB126:
 1988              	.LBB125:
 1989              	.LBB124:
GAS LISTING /tmp/cc3wtzn3.s 			page 53


  68:src/kernel/../../h/kernel/slab_allocator.hpp ****                 uint64 index = ((uint64)addr - lowerBound) / head->parent->objectSize;
 1990              		.loc 3 68 13
 1991              	.LBB121:
 1992 0c24 E3F0E4FE 		bleu	a4,s1,.L112
  68:src/kernel/../../h/kernel/slab_allocator.hpp ****                 uint64 index = ((uint64)addr - lowerBound) / head->parent->objectSize;
 1993              		.loc 3 68 42 is_stmt 0
 1994 0c28 E3EED4FC 		bgtu	a3,s1,.L112
 1995              	.LBB122:
  69:src/kernel/../../h/kernel/slab_allocator.hpp ****                 freeSlot(head, index);
 1996              		.loc 3 69 17 is_stmt 1
  69:src/kernel/../../h/kernel/slab_allocator.hpp ****                 freeSlot(head, index);
 1997              		.loc 3 69 46 is_stmt 0
 1998 0c2c B386D440 		sub	a3,s1,a3
 1999              	.LVL203:
  70:src/kernel/../../h/kernel/slab_allocator.hpp ****                 return true;
 2000              		.loc 3 70 17 is_stmt 1
  70:src/kernel/../../h/kernel/slab_allocator.hpp ****                 return true;
 2001              		.loc 3 70 25 is_stmt 0
 2002 0c30 B3D5B602 		divu	a1,a3,a1
 2003              	.LVL204:
 2004 0c34 13850700 		mv	a0,a5
 2005              	.LVL205:
 2006 0c38 97000000 		call	_ZN13SlabAllocator8freeSlotEP4Slabm
 2006      E7800000 
 2007              	.LVL206:
  71:src/kernel/../../h/kernel/slab_allocator.hpp ****             }
 2008              		.loc 3 71 17 is_stmt 1
  71:src/kernel/../../h/kernel/slab_allocator.hpp ****             }
 2009              		.loc 3 71 24 is_stmt 0
 2010 0c40 13051000 		li	a0,1
 2011 0c44 6FF01FFA 		j	.L110
 2012              	.LBE122:
 2013              	.LBE121:
 2014              	.LBE124:
 2015              	.LBE125:
 2016              	.LBE126:
 2017              		.cfi_endproc
 2018              	.LFE41:
 2020              		.align	2
 2021              		.globl	_ZN13SlabAllocator10freeBufferEPKv
 2023              	_ZN13SlabAllocator10freeBufferEPKv:
 2024              	.LFB42:
 171:src/kernel/slab_allocator.cpp ****     for(int i=0;i<BUCKET_SIZE;i++)
 2025              		.loc 1 171 50 is_stmt 1
 2026              		.cfi_startproc
 2027              	.LVL207:
 2028 0c48 130101FE 		addi	sp,sp,-32
 2029              		.cfi_def_cfa_offset 32
 2030 0c4c 233C1100 		sd	ra,24(sp)
 2031 0c50 23388100 		sd	s0,16(sp)
 2032 0c54 23349100 		sd	s1,8(sp)
 2033 0c58 23302101 		sd	s2,0(sp)
 2034              		.cfi_offset 1, -8
 2035              		.cfi_offset 8, -16
 2036              		.cfi_offset 9, -24
 2037              		.cfi_offset 18, -32
 2038 0c5c 13040102 		addi	s0,sp,32
GAS LISTING /tmp/cc3wtzn3.s 			page 54


 2039              		.cfi_def_cfa 8, 0
 2040 0c60 13090500 		mv	s2,a0
 172:src/kernel/slab_allocator.cpp ****         if(SlabAllocator::freeObject(sizeN[i], addr))
 2041              		.loc 1 172 5
 2042              	.LVL208:
 2043              	.LBB127:
 172:src/kernel/slab_allocator.cpp ****         if(SlabAllocator::freeObject(sizeN[i], addr))
 2044              		.loc 1 172 13 is_stmt 0
 2045 0c64 93040000 		li	s1,0
 2046              	.LVL209:
 2047              	.L119:
 172:src/kernel/slab_allocator.cpp ****         if(SlabAllocator::freeObject(sizeN[i], addr))
 2048              		.loc 1 172 18 is_stmt 1 discriminator 1
 2049 0c68 9307C000 		li	a5,12
 2050 0c6c 63C89702 		bgt	s1,a5,.L117
 173:src/kernel/slab_allocator.cpp ****             return;
 2051              		.loc 1 173 9
 173:src/kernel/slab_allocator.cpp ****             return;
 2052              		.loc 1 173 37 is_stmt 0
 2053 0c70 13973400 		slli	a4,s1,3
 2054 0c74 97070000 		lla	a5,.LANCHOR0
 2054      93870700 
 2055 0c7c B387E700 		add	a5,a5,a4
 2056 0c80 93050900 		mv	a1,s2
 2057 0c84 03B58700 		ld	a0,8(a5)
 2058 0c88 97000000 		call	_ZN13SlabAllocator10freeObjectEP5CachePKv
 2058      E7800000 
 2059              	.LVL210:
 173:src/kernel/slab_allocator.cpp ****             return;
 2060              		.loc 1 173 9
 2061 0c90 63160500 		bnez	a0,.L117
 172:src/kernel/slab_allocator.cpp ****         if(SlabAllocator::freeObject(sizeN[i], addr))
 2062              		.loc 1 172 5 is_stmt 1 discriminator 2
 2063 0c94 9B841400 		addiw	s1,s1,1
 2064              	.LVL211:
 2065 0c98 6FF01FFD 		j	.L119
 2066              	.LVL212:
 2067              	.L117:
 2068              	.LBE127:
 175:src/kernel/slab_allocator.cpp **** 
 2069              		.loc 1 175 1 is_stmt 0
 2070 0c9c 83308101 		ld	ra,24(sp)
 2071              		.cfi_restore 1
 2072 0ca0 03340101 		ld	s0,16(sp)
 2073              		.cfi_restore 8
 2074              		.cfi_def_cfa 2, 32
 2075 0ca4 83348100 		ld	s1,8(sp)
 2076              		.cfi_restore 9
 2077              	.LVL213:
 2078 0ca8 03390100 		ld	s2,0(sp)
 2079              		.cfi_restore 18
 2080              	.LVL214:
 2081 0cac 13010102 		addi	sp,sp,32
 2082              		.cfi_def_cfa_offset 0
 2083 0cb0 67800000 		jr	ra
 2084              		.cfi_endproc
 2085              	.LFE42:
GAS LISTING /tmp/cc3wtzn3.s 			page 55


 2087              		.align	2
 2088              		.globl	_ZN13SlabAllocator11shrinkCacheEP5Cache
 2090              	_ZN13SlabAllocator11shrinkCacheEP5Cache:
 2091              	.LFB45:
 202:src/kernel/slab_allocator.cpp ****     int ret = 0;
 2092              		.loc 1 202 46 is_stmt 1
 2093              		.cfi_startproc
 2094              	.LVL215:
 2095 0cb4 130101FE 		addi	sp,sp,-32
 2096              		.cfi_def_cfa_offset 32
 2097 0cb8 233C1100 		sd	ra,24(sp)
 2098 0cbc 23388100 		sd	s0,16(sp)
 2099 0cc0 23349100 		sd	s1,8(sp)
 2100 0cc4 23302101 		sd	s2,0(sp)
 2101              		.cfi_offset 1, -8
 2102              		.cfi_offset 8, -16
 2103              		.cfi_offset 9, -24
 2104              		.cfi_offset 18, -32
 2105 0cc8 13040102 		addi	s0,sp,32
 2106              		.cfi_def_cfa 8, 0
 2107 0ccc 93040500 		mv	s1,a0
 203:src/kernel/slab_allocator.cpp ****     while(cache->emptyHead){
 2108              		.loc 1 203 5
 2109              	.LVL216:
 203:src/kernel/slab_allocator.cpp ****     while(cache->emptyHead){
 2110              		.loc 1 203 9 is_stmt 0
 2111 0cd0 13090000 		li	s2,0
 2112 0cd4 6F000003 		j	.L125
 2113              	.LVL217:
 2114              	.L123:
 210:src/kernel/slab_allocator.cpp ****             SlabAllocator::freeObject(largeSlabCache, cache->emptyHead);
 2115              		.loc 1 210 13 is_stmt 1
 210:src/kernel/slab_allocator.cpp ****             SlabAllocator::freeObject(largeSlabCache, cache->emptyHead);
 2116              		.loc 1 210 24 is_stmt 0
 2117 0cd8 0335050A 		ld	a0,160(a0)
 2118 0cdc 97000000 		call	_ZN5Buddy4freeEPvm@plt
 2118      E7800000 
 2119              	.LVL218:
 211:src/kernel/slab_allocator.cpp ****         }
 2120              		.loc 1 211 13 is_stmt 1
 211:src/kernel/slab_allocator.cpp ****         }
 2121              		.loc 1 211 38 is_stmt 0
 2122 0ce4 83B58406 		ld	a1,104(s1)
 2123 0ce8 17050000 		ld	a0,.LANCHOR0
 2123      03350500 
 2124 0cf0 97000000 		call	_ZN13SlabAllocator10freeObjectEP5CachePKv
 2124      E7800000 
 2125              	.LVL219:
 2126              	.L124:
 213:src/kernel/slab_allocator.cpp ****     }
 2127              		.loc 1 213 9 is_stmt 1
 213:src/kernel/slab_allocator.cpp ****     }
 2128              		.loc 1 213 35 is_stmt 0
 2129 0cf8 83B78406 		ld	a5,104(s1)
 213:src/kernel/slab_allocator.cpp ****     }
 2130              		.loc 1 213 46
 2131 0cfc 83B78700 		ld	a5,8(a5)
GAS LISTING /tmp/cc3wtzn3.s 			page 56


 213:src/kernel/slab_allocator.cpp ****     }
 2132              		.loc 1 213 26
 2133 0d00 23B4F406 		sd	a5,104(s1)
 2134              	.L125:
 2135              	.LVL220:
 204:src/kernel/slab_allocator.cpp ****         ret += (1<<cache->slabSize);
 2136              		.loc 1 204 5 is_stmt 1
 204:src/kernel/slab_allocator.cpp ****         ret += (1<<cache->slabSize);
 2137              		.loc 1 204 18
 2138 0d04 03B58406 		ld	a0,104(s1)
 2139 0d08 63060502 		beqz	a0,.L122
 205:src/kernel/slab_allocator.cpp ****         if(cache->objectSize <= sizeof(Slab)) {
 2140              		.loc 1 205 9
 205:src/kernel/slab_allocator.cpp ****         if(cache->objectSize <= sizeof(Slab)) {
 2141              		.loc 1 205 27 is_stmt 0
 2142 0d0c 83B58404 		ld	a1,72(s1)
 205:src/kernel/slab_allocator.cpp ****         if(cache->objectSize <= sizeof(Slab)) {
 2143              		.loc 1 205 18
 2144 0d10 93071000 		li	a5,1
 2145 0d14 BB97B700 		sllw	a5,a5,a1
 205:src/kernel/slab_allocator.cpp ****         if(cache->objectSize <= sizeof(Slab)) {
 2146              		.loc 1 205 13
 2147 0d18 3B892701 		addw	s2,a5,s2
 2148              	.LVL221:
 206:src/kernel/slab_allocator.cpp ****             Buddy::free(cache->emptyHead, cache->slabSize);
 2149              		.loc 1 206 9 is_stmt 1
 206:src/kernel/slab_allocator.cpp ****             Buddy::free(cache->emptyHead, cache->slabSize);
 2150              		.loc 1 206 19 is_stmt 0
 2151 0d1c 03B70404 		ld	a4,64(s1)
 206:src/kernel/slab_allocator.cpp ****             Buddy::free(cache->emptyHead, cache->slabSize);
 2152              		.loc 1 206 9
 2153 0d20 9307000B 		li	a5,176
 2154 0d24 E3EAE7FA 		bgtu	a4,a5,.L123
 207:src/kernel/slab_allocator.cpp ****         }
 2155              		.loc 1 207 13 is_stmt 1
 207:src/kernel/slab_allocator.cpp ****         }
 2156              		.loc 1 207 24 is_stmt 0
 2157 0d28 97000000 		call	_ZN5Buddy4freeEPvm@plt
 2157      E7800000 
 2158              	.LVL222:
 2159 0d30 6FF09FFC 		j	.L124
 2160              	.LVL223:
 2161              	.L122:
 215:src/kernel/slab_allocator.cpp **** }
 2162              		.loc 1 215 5 is_stmt 1
 216:src/kernel/slab_allocator.cpp **** 
 2163              		.loc 1 216 1 is_stmt 0
 2164 0d34 13050900 		mv	a0,s2
 2165 0d38 83308101 		ld	ra,24(sp)
 2166              		.cfi_restore 1
 2167 0d3c 03340101 		ld	s0,16(sp)
 2168              		.cfi_restore 8
 2169              		.cfi_def_cfa 2, 32
 2170 0d40 83348100 		ld	s1,8(sp)
 2171              		.cfi_restore 9
 2172              	.LVL224:
 2173 0d44 03390100 		ld	s2,0(sp)
GAS LISTING /tmp/cc3wtzn3.s 			page 57


 2174              		.cfi_restore 18
 2175              	.LVL225:
 2176 0d48 13010102 		addi	sp,sp,32
 2177              		.cfi_def_cfa_offset 0
 2178 0d4c 67800000 		jr	ra
 2179              		.cfi_endproc
 2180              	.LFE45:
 2182              		.align	2
 2183              		.globl	_ZN13SlabAllocator11deleteCacheERP5Cache
 2185              	_ZN13SlabAllocator11deleteCacheERP5Cache:
 2186              	.LFB44:
 194:src/kernel/slab_allocator.cpp ****     deleteList(cache->fullHead);
 2187              		.loc 1 194 48 is_stmt 1
 2188              		.cfi_startproc
 2189              	.LVL226:
 2190 0d50 130101FE 		addi	sp,sp,-32
 2191              		.cfi_def_cfa_offset 32
 2192 0d54 233C1100 		sd	ra,24(sp)
 2193 0d58 23388100 		sd	s0,16(sp)
 2194 0d5c 23349100 		sd	s1,8(sp)
 2195 0d60 23302101 		sd	s2,0(sp)
 2196              		.cfi_offset 1, -8
 2197              		.cfi_offset 8, -16
 2198              		.cfi_offset 9, -24
 2199              		.cfi_offset 18, -32
 2200 0d64 13040102 		addi	s0,sp,32
 2201              		.cfi_def_cfa 8, 0
 2202 0d68 93040500 		mv	s1,a0
 195:src/kernel/slab_allocator.cpp ****     deleteList(cache->partialHead);
 2203              		.loc 1 195 5
 195:src/kernel/slab_allocator.cpp ****     deleteList(cache->partialHead);
 2204              		.loc 1 195 16 is_stmt 0
 2205 0d6c 03390500 		ld	s2,0(a0)
 195:src/kernel/slab_allocator.cpp ****     deleteList(cache->partialHead);
 2206              		.loc 1 195 23
 2207 0d70 13098907 		addi	s2,s2,120
 2208              	.LVL227:
 2209 0d74 6F004003 		j	.L131
 2210              	.LVL228:
 2211              	.L129:
 2212              	.LBB134:
 2213              	.LBB135:
  76:src/kernel/../../h/kernel/slab_allocator.hpp ****     }
  77:src/kernel/../../h/kernel/slab_allocator.hpp **** 
  78:src/kernel/../../h/kernel/slab_allocator.hpp ****     static inline void deleteList(Slab* &head){
  79:src/kernel/../../h/kernel/slab_allocator.hpp ****         while(head){
  80:src/kernel/../../h/kernel/slab_allocator.hpp ****             if(head->parent->objectSize <= sizeof(Slab)) {
  81:src/kernel/../../h/kernel/slab_allocator.hpp ****                 Buddy::free(head, head->parent->slabSize);
  82:src/kernel/../../h/kernel/slab_allocator.hpp ****             }
  83:src/kernel/../../h/kernel/slab_allocator.hpp ****             else{
  84:src/kernel/../../h/kernel/slab_allocator.hpp ****                 Buddy::free(head->objectOffset, head->parent->slabSize);
 2214              		.loc 3 84 17 is_stmt 1
 2215              		.loc 3 84 28 is_stmt 0
 2216 0d78 83B58704 		ld	a1,72(a5)
 2217 0d7c 0335050A 		ld	a0,160(a0)
 2218 0d80 97000000 		call	_ZN5Buddy4freeEPvm@plt
 2218      E7800000 
GAS LISTING /tmp/cc3wtzn3.s 			page 58


 2219              	.LVL229:
  85:src/kernel/../../h/kernel/slab_allocator.hpp ****                 SlabAllocator::freeObject(largeSlabCache, head);
 2220              		.loc 3 85 17 is_stmt 1
 2221              		.loc 3 85 42 is_stmt 0
 2222 0d88 83350900 		ld	a1,0(s2)
 2223 0d8c 17050000 		ld	a0,.LANCHOR0
 2223      03350500 
 2224 0d94 97000000 		call	_ZN13SlabAllocator10freeObjectEP5CachePKv
 2224      E7800000 
 2225              	.LVL230:
 2226              	.L130:
  86:src/kernel/../../h/kernel/slab_allocator.hpp ****             }
  87:src/kernel/../../h/kernel/slab_allocator.hpp ****             head = head->next;
 2227              		.loc 3 87 13 is_stmt 1
 2228              		.loc 3 87 20 is_stmt 0
 2229 0d9c 83370900 		ld	a5,0(s2)
 2230              		.loc 3 87 26
 2231 0da0 83B78700 		ld	a5,8(a5)
 2232              		.loc 3 87 18
 2233 0da4 2330F900 		sd	a5,0(s2)
 2234              	.L131:
  79:src/kernel/../../h/kernel/slab_allocator.hpp ****             if(head->parent->objectSize <= sizeof(Slab)) {
 2235              		.loc 3 79 9 is_stmt 1
  79:src/kernel/../../h/kernel/slab_allocator.hpp ****             if(head->parent->objectSize <= sizeof(Slab)) {
 2236              		.loc 3 79 15
 2237 0da8 03350900 		ld	a0,0(s2)
 2238 0dac 63020502 		beqz	a0,.L128
  80:src/kernel/../../h/kernel/slab_allocator.hpp ****                 Buddy::free(head, head->parent->slabSize);
 2239              		.loc 3 80 13
  80:src/kernel/../../h/kernel/slab_allocator.hpp ****                 Buddy::free(head, head->parent->slabSize);
 2240              		.loc 3 80 22 is_stmt 0
 2241 0db0 8337850A 		ld	a5,168(a0)
  80:src/kernel/../../h/kernel/slab_allocator.hpp ****                 Buddy::free(head, head->parent->slabSize);
 2242              		.loc 3 80 30
 2243 0db4 83B60704 		ld	a3,64(a5)
  80:src/kernel/../../h/kernel/slab_allocator.hpp ****                 Buddy::free(head, head->parent->slabSize);
 2244              		.loc 3 80 13
 2245 0db8 1307000B 		li	a4,176
 2246 0dbc E36ED7FA 		bgtu	a3,a4,.L129
  81:src/kernel/../../h/kernel/slab_allocator.hpp ****             }
 2247              		.loc 3 81 17 is_stmt 1
  81:src/kernel/../../h/kernel/slab_allocator.hpp ****             }
 2248              		.loc 3 81 28 is_stmt 0
 2249 0dc0 83B58704 		ld	a1,72(a5)
 2250 0dc4 97000000 		call	_ZN5Buddy4freeEPvm@plt
 2250      E7800000 
 2251              	.LVL231:
 2252 0dcc 6FF01FFD 		j	.L130
 2253              	.L128:
 2254              	.LVL232:
 2255              	.LBE135:
 2256              	.LBE134:
 196:src/kernel/slab_allocator.cpp ****     deleteList(cache->emptyHead);
 2257              		.loc 1 196 5 is_stmt 1
 196:src/kernel/slab_allocator.cpp ****     deleteList(cache->emptyHead);
 2258              		.loc 1 196 16 is_stmt 0
 2259 0dd0 03B90400 		ld	s2,0(s1)
GAS LISTING /tmp/cc3wtzn3.s 			page 59


 196:src/kernel/slab_allocator.cpp ****     deleteList(cache->emptyHead);
 2260              		.loc 1 196 23
 2261 0dd4 13090907 		addi	s2,s2,112
 2262              	.LVL233:
 2263 0dd8 6F004003 		j	.L135
 2264              	.L133:
 2265              	.LBB136:
 2266              	.LBB137:
  84:src/kernel/../../h/kernel/slab_allocator.hpp ****                 SlabAllocator::freeObject(largeSlabCache, head);
 2267              		.loc 3 84 17 is_stmt 1
  84:src/kernel/../../h/kernel/slab_allocator.hpp ****                 SlabAllocator::freeObject(largeSlabCache, head);
 2268              		.loc 3 84 28 is_stmt 0
 2269 0ddc 83B58704 		ld	a1,72(a5)
 2270 0de0 0335050A 		ld	a0,160(a0)
 2271 0de4 97000000 		call	_ZN5Buddy4freeEPvm@plt
 2271      E7800000 
 2272              	.LVL234:
  85:src/kernel/../../h/kernel/slab_allocator.hpp ****             }
 2273              		.loc 3 85 17 is_stmt 1
  85:src/kernel/../../h/kernel/slab_allocator.hpp ****             }
 2274              		.loc 3 85 42 is_stmt 0
 2275 0dec 83350900 		ld	a1,0(s2)
 2276 0df0 17050000 		ld	a0,.LANCHOR0
 2276      03350500 
 2277 0df8 97000000 		call	_ZN13SlabAllocator10freeObjectEP5CachePKv
 2277      E7800000 
 2278              	.LVL235:
 2279              	.L134:
 2280              		.loc 3 87 13 is_stmt 1
 2281              		.loc 3 87 20 is_stmt 0
 2282 0e00 83370900 		ld	a5,0(s2)
 2283              		.loc 3 87 26
 2284 0e04 83B78700 		ld	a5,8(a5)
 2285              		.loc 3 87 18
 2286 0e08 2330F900 		sd	a5,0(s2)
 2287              	.L135:
  79:src/kernel/../../h/kernel/slab_allocator.hpp ****             if(head->parent->objectSize <= sizeof(Slab)) {
 2288              		.loc 3 79 9 is_stmt 1
  79:src/kernel/../../h/kernel/slab_allocator.hpp ****             if(head->parent->objectSize <= sizeof(Slab)) {
 2289              		.loc 3 79 15
 2290 0e0c 03350900 		ld	a0,0(s2)
 2291 0e10 63020502 		beqz	a0,.L132
  80:src/kernel/../../h/kernel/slab_allocator.hpp ****                 Buddy::free(head, head->parent->slabSize);
 2292              		.loc 3 80 13
  80:src/kernel/../../h/kernel/slab_allocator.hpp ****                 Buddy::free(head, head->parent->slabSize);
 2293              		.loc 3 80 22 is_stmt 0
 2294 0e14 8337850A 		ld	a5,168(a0)
  80:src/kernel/../../h/kernel/slab_allocator.hpp ****                 Buddy::free(head, head->parent->slabSize);
 2295              		.loc 3 80 30
 2296 0e18 83B60704 		ld	a3,64(a5)
  80:src/kernel/../../h/kernel/slab_allocator.hpp ****                 Buddy::free(head, head->parent->slabSize);
 2297              		.loc 3 80 13
 2298 0e1c 1307000B 		li	a4,176
 2299 0e20 E36ED7FA 		bgtu	a3,a4,.L133
  81:src/kernel/../../h/kernel/slab_allocator.hpp ****             }
 2300              		.loc 3 81 17 is_stmt 1
  81:src/kernel/../../h/kernel/slab_allocator.hpp ****             }
GAS LISTING /tmp/cc3wtzn3.s 			page 60


 2301              		.loc 3 81 28 is_stmt 0
 2302 0e24 83B58704 		ld	a1,72(a5)
 2303 0e28 97000000 		call	_ZN5Buddy4freeEPvm@plt
 2303      E7800000 
 2304              	.LVL236:
 2305 0e30 6FF01FFD 		j	.L134
 2306              	.L132:
 2307              	.LVL237:
 2308              	.LBE137:
 2309              	.LBE136:
 197:src/kernel/slab_allocator.cpp ****     SlabAllocator::freeObject(SlabAllocator::cache, cache);
 2310              		.loc 1 197 5 is_stmt 1
 197:src/kernel/slab_allocator.cpp ****     SlabAllocator::freeObject(SlabAllocator::cache, cache);
 2311              		.loc 1 197 16 is_stmt 0
 2312 0e34 03B90400 		ld	s2,0(s1)
 197:src/kernel/slab_allocator.cpp ****     SlabAllocator::freeObject(SlabAllocator::cache, cache);
 2313              		.loc 1 197 23
 2314 0e38 13098906 		addi	s2,s2,104
 2315              	.LVL238:
 2316 0e3c 6F004003 		j	.L139
 2317              	.L137:
 2318              	.LBB138:
 2319              	.LBB139:
  84:src/kernel/../../h/kernel/slab_allocator.hpp ****                 SlabAllocator::freeObject(largeSlabCache, head);
 2320              		.loc 3 84 17 is_stmt 1
  84:src/kernel/../../h/kernel/slab_allocator.hpp ****                 SlabAllocator::freeObject(largeSlabCache, head);
 2321              		.loc 3 84 28 is_stmt 0
 2322 0e40 83B58704 		ld	a1,72(a5)
 2323 0e44 0335050A 		ld	a0,160(a0)
 2324 0e48 97000000 		call	_ZN5Buddy4freeEPvm@plt
 2324      E7800000 
 2325              	.LVL239:
  85:src/kernel/../../h/kernel/slab_allocator.hpp ****             }
 2326              		.loc 3 85 17 is_stmt 1
  85:src/kernel/../../h/kernel/slab_allocator.hpp ****             }
 2327              		.loc 3 85 42 is_stmt 0
 2328 0e50 83350900 		ld	a1,0(s2)
 2329 0e54 17050000 		ld	a0,.LANCHOR0
 2329      03350500 
 2330 0e5c 97000000 		call	_ZN13SlabAllocator10freeObjectEP5CachePKv
 2330      E7800000 
 2331              	.LVL240:
 2332              	.L138:
 2333              		.loc 3 87 13 is_stmt 1
 2334              		.loc 3 87 20 is_stmt 0
 2335 0e64 83370900 		ld	a5,0(s2)
 2336              		.loc 3 87 26
 2337 0e68 83B78700 		ld	a5,8(a5)
 2338              		.loc 3 87 18
 2339 0e6c 2330F900 		sd	a5,0(s2)
 2340              	.L139:
  79:src/kernel/../../h/kernel/slab_allocator.hpp ****             if(head->parent->objectSize <= sizeof(Slab)) {
 2341              		.loc 3 79 9 is_stmt 1
  79:src/kernel/../../h/kernel/slab_allocator.hpp ****             if(head->parent->objectSize <= sizeof(Slab)) {
 2342              		.loc 3 79 15
 2343 0e70 03350900 		ld	a0,0(s2)
 2344 0e74 63020502 		beqz	a0,.L136
GAS LISTING /tmp/cc3wtzn3.s 			page 61


  80:src/kernel/../../h/kernel/slab_allocator.hpp ****                 Buddy::free(head, head->parent->slabSize);
 2345              		.loc 3 80 13
  80:src/kernel/../../h/kernel/slab_allocator.hpp ****                 Buddy::free(head, head->parent->slabSize);
 2346              		.loc 3 80 22 is_stmt 0
 2347 0e78 8337850A 		ld	a5,168(a0)
  80:src/kernel/../../h/kernel/slab_allocator.hpp ****                 Buddy::free(head, head->parent->slabSize);
 2348              		.loc 3 80 30
 2349 0e7c 83B60704 		ld	a3,64(a5)
  80:src/kernel/../../h/kernel/slab_allocator.hpp ****                 Buddy::free(head, head->parent->slabSize);
 2350              		.loc 3 80 13
 2351 0e80 1307000B 		li	a4,176
 2352 0e84 E36ED7FA 		bgtu	a3,a4,.L137
  81:src/kernel/../../h/kernel/slab_allocator.hpp ****             }
 2353              		.loc 3 81 17 is_stmt 1
  81:src/kernel/../../h/kernel/slab_allocator.hpp ****             }
 2354              		.loc 3 81 28 is_stmt 0
 2355 0e88 83B58704 		ld	a1,72(a5)
 2356 0e8c 97000000 		call	_ZN5Buddy4freeEPvm@plt
 2356      E7800000 
 2357              	.LVL241:
 2358 0e94 6FF01FFD 		j	.L138
 2359              	.L136:
 2360              	.LVL242:
 2361              	.LBE139:
 2362              	.LBE138:
 198:src/kernel/slab_allocator.cpp ****     cache = nullptr;
 2363              		.loc 1 198 5 is_stmt 1
 198:src/kernel/slab_allocator.cpp ****     cache = nullptr;
 2364              		.loc 1 198 30 is_stmt 0
 2365 0e98 83B50400 		ld	a1,0(s1)
 2366 0e9c 17050000 		ld	a0,.LANCHOR0+112
 2366      03350500 
 2367 0ea4 97000000 		call	_ZN13SlabAllocator10freeObjectEP5CachePKv
 2367      E7800000 
 2368              	.LVL243:
 199:src/kernel/slab_allocator.cpp **** }
 2369              		.loc 1 199 5 is_stmt 1
 199:src/kernel/slab_allocator.cpp **** }
 2370              		.loc 1 199 11 is_stmt 0
 2371 0eac 23B00400 		sd	zero,0(s1)
 200:src/kernel/slab_allocator.cpp **** 
 2372              		.loc 1 200 1
 2373 0eb0 83308101 		ld	ra,24(sp)
 2374              		.cfi_restore 1
 2375 0eb4 03340101 		ld	s0,16(sp)
 2376              		.cfi_restore 8
 2377              		.cfi_def_cfa 2, 32
 2378 0eb8 83348100 		ld	s1,8(sp)
 2379              		.cfi_restore 9
 2380              	.LVL244:
 2381 0ebc 03390100 		ld	s2,0(sp)
 2382              		.cfi_restore 18
 2383 0ec0 13010102 		addi	sp,sp,32
 2384              		.cfi_def_cfa_offset 0
 2385 0ec4 67800000 		jr	ra
 2386              		.cfi_endproc
 2387              	.LFE44:
GAS LISTING /tmp/cc3wtzn3.s 			page 62


 2389              		.section	.rodata.str1.8
 2390 0179 00000000 		.align	3
 2390      000000
 2391              	.LC20:
 2392 0180 4E6F2065 		.string	"No errors\n"
 2392      72726F72 
 2392      730A00
 2393 018b 00000000 		.align	3
 2393      00
 2394              	.LC21:
 2395 0190 4E6F2061 		.string	"No available slots\n"
 2395      7661696C 
 2395      61626C65 
 2395      20736C6F 
 2395      74730A00 
 2396 01a4 00000000 		.align	3
 2397              	.LC22:
 2398 01a8 436F756C 		.string	"Couldn't allocate slab\n"
 2398      646E2774 
 2398      20616C6C 
 2398      6F636174 
 2398      6520736C 
 2399              		.text
 2400              		.align	2
 2401              		.globl	_ZN13SlabAllocator17cacheErrorHandlerEP5Cache
 2403              	_ZN13SlabAllocator17cacheErrorHandlerEP5Cache:
 2404              	.LFB51:
 295:src/kernel/slab_allocator.cpp **** 
 296:src/kernel/slab_allocator.cpp **** int SlabAllocator::cacheErrorHandler(Cache *cache) {
 2405              		.loc 1 296 52 is_stmt 1
 2406              		.cfi_startproc
 2407              	.LVL245:
 2408 0ec8 130101FE 		addi	sp,sp,-32
 2409              		.cfi_def_cfa_offset 32
 2410 0ecc 233C1100 		sd	ra,24(sp)
 2411 0ed0 23388100 		sd	s0,16(sp)
 2412 0ed4 23349100 		sd	s1,8(sp)
 2413              		.cfi_offset 1, -8
 2414              		.cfi_offset 8, -16
 2415              		.cfi_offset 9, -24
 2416 0ed8 13040102 		addi	s0,sp,32
 2417              		.cfi_def_cfa 8, 0
 2418 0edc 93040500 		mv	s1,a0
 297:src/kernel/slab_allocator.cpp ****     switch(cache->errCode){
 2419              		.loc 1 297 5
 2420              		.loc 1 297 19 is_stmt 0
 2421 0ee0 83370505 		ld	a5,80(a0)
 2422              		.loc 1 297 5
 2423 0ee4 13071000 		li	a4,1
 2424 0ee8 638EE702 		beq	a5,a4,.L142
 2425 0eec 13072000 		li	a4,2
 2426 0ef0 6384E704 		beq	a5,a4,.L143
 2427 0ef4 638E0700 		beqz	a5,.L146
 2428              	.LVL246:
 2429              	.L144:
 298:src/kernel/slab_allocator.cpp ****         case 0: ConsoleUtil::printString("No errors\n");break;
 299:src/kernel/slab_allocator.cpp ****         case 1: ConsoleUtil::printString("No available slots\n");break;
GAS LISTING /tmp/cc3wtzn3.s 			page 63


 300:src/kernel/slab_allocator.cpp ****         case 2: ConsoleUtil::printString("Couldn't allocate slab\n");break;
 301:src/kernel/slab_allocator.cpp ****     }
 302:src/kernel/slab_allocator.cpp ****     return cache->errCode;
 2430              		.loc 1 302 5 is_stmt 1
 303:src/kernel/slab_allocator.cpp **** }...
 2431              		.loc 1 303 1 is_stmt 0
 2432 0ef8 03A50405 		lw	a0,80(s1)
 2433 0efc 83308101 		ld	ra,24(sp)
 2434              		.cfi_remember_state
 2435              		.cfi_restore 1
 2436 0f00 03340101 		ld	s0,16(sp)
 2437              		.cfi_restore 8
 2438              		.cfi_def_cfa 2, 32
 2439 0f04 83348100 		ld	s1,8(sp)
 2440              		.cfi_restore 9
 2441              	.LVL247:
 2442 0f08 13010102 		addi	sp,sp,32
 2443              		.cfi_def_cfa_offset 0
 2444 0f0c 67800000 		jr	ra
 2445              	.LVL248:
 2446              	.L146:
 2447              		.cfi_restore_state
 298:src/kernel/slab_allocator.cpp ****         case 0: ConsoleUtil::printString("No errors\n");break;
 2448              		.loc 1 298 9 is_stmt 1
 298:src/kernel/slab_allocator.cpp ****         case 0: ConsoleUtil::printString("No errors\n");break;
 2449              		.loc 1 298 17
 298:src/kernel/slab_allocator.cpp ****         case 0: ConsoleUtil::printString("No errors\n");break;
 2450              		.loc 1 298 41 is_stmt 0
 2451 0f10 17050000 		lla	a0,.LC20
 2451      13050500 
 2452 0f18 97000000 		call	_ZN11ConsoleUtil11printStringEPKc@plt
 2452      E7800000 
 2453              	.LVL249:
 298:src/kernel/slab_allocator.cpp ****         case 0: ConsoleUtil::printString("No errors\n");break;
 2454              		.loc 1 298 57 is_stmt 1
 2455 0f20 6FF09FFD 		j	.L144
 2456              	.L142:
 299:src/kernel/slab_allocator.cpp ****         case 1: ConsoleUtil::printString("No available slots\n");break;
 2457              		.loc 1 299 9
 299:src/kernel/slab_allocator.cpp ****         case 1: ConsoleUtil::printString("No available slots\n");break;
 2458              		.loc 1 299 17
 299:src/kernel/slab_allocator.cpp ****         case 1: ConsoleUtil::printString("No available slots\n");break;
 2459              		.loc 1 299 41 is_stmt 0
 2460 0f24 17050000 		lla	a0,.LC21
 2460      13050500 
 2461 0f2c 97000000 		call	_ZN11ConsoleUtil11printStringEPKc@plt
 2461      E7800000 
 2462              	.LVL250:
 299:src/kernel/slab_allocator.cpp ****         case 1: ConsoleUtil::printString("No available slots\n");break;
 2463              		.loc 1 299 66 is_stmt 1
 2464 0f34 6FF05FFC 		j	.L144
 2465              	.L143:
 300:src/kernel/slab_allocator.cpp ****         case 2: ConsoleUtil::printString("Couldn't allocate slab\n");break;
 2466              		.loc 1 300 9
 300:src/kernel/slab_allocator.cpp ****         case 2: ConsoleUtil::printString("Couldn't allocate slab\n");break;
 2467              		.loc 1 300 17
 300:src/kernel/slab_allocator.cpp ****         case 2: ConsoleUtil::printString("Couldn't allocate slab\n");break;
GAS LISTING /tmp/cc3wtzn3.s 			page 64


 2468              		.loc 1 300 41 is_stmt 0
 2469 0f38 17050000 		lla	a0,.LC22
 2469      13050500 
 2470 0f40 97000000 		call	_ZN11ConsoleUtil11printStringEPKc@plt
 2470      E7800000 
 2471              	.LVL251:
 300:src/kernel/slab_allocator.cpp ****         case 2: ConsoleUtil::printString("Couldn't allocate slab\n");break;
 2472              		.loc 1 300 70 is_stmt 1
 2473 0f48 6FF01FFB 		j	.L144
 2474              		.cfi_endproc
 2475              	.LFE51:
 2477              		.globl	_ZN13SlabAllocator5namesE
 2478              		.section	.rodata.str1.8
 2479              		.align	3
 2480              	.LC23:
 2481 01c0 42756666 		.string	"Buffer Cache No. 5"
 2481      65722043 
 2481      61636865 
 2481      204E6F2E 
 2481      203500
 2482 01d3 00000000 		.align	3
 2482      00
 2483              	.LC24:
 2484 01d8 42756666 		.string	"Buffer Cache No. 6"
 2484      65722043 
 2484      61636865 
 2484      204E6F2E 
 2484      203600
 2485 01eb 00000000 		.align	3
 2485      00
 2486              	.LC25:
 2487 01f0 42756666 		.string	"Buffer Cache No. 7"
 2487      65722043 
 2487      61636865 
 2487      204E6F2E 
 2487      203700
 2488 0203 00000000 		.align	3
 2488      00
 2489              	.LC26:
 2490 0208 42756666 		.string	"Buffer Cache No. 8"
 2490      65722043 
 2490      61636865 
 2490      204E6F2E 
 2490      203800
 2491 021b 00000000 		.align	3
 2491      00
 2492              	.LC27:
 2493 0220 42756666 		.string	"Buffer Cache No. 9"
 2493      65722043 
 2493      61636865 
 2493      204E6F2E 
 2493      203900
 2494 0233 00000000 		.align	3
 2494      00
 2495              	.LC28:
 2496 0238 42756666 		.string	"Buffer Cache No. 10"
 2496      65722043 
GAS LISTING /tmp/cc3wtzn3.s 			page 65


 2496      61636865 
 2496      204E6F2E 
 2496      20313000 
 2497 024c 00000000 		.align	3
 2498              	.LC29:
 2499 0250 42756666 		.string	"Buffer Cache No. 11"
 2499      65722043 
 2499      61636865 
 2499      204E6F2E 
 2499      20313100 
 2500 0264 00000000 		.align	3
 2501              	.LC30:
 2502 0268 42756666 		.string	"Buffer Cache No. 12"
 2502      65722043 
 2502      61636865 
 2502      204E6F2E 
 2502      20313200 
 2503 027c 00000000 		.align	3
 2504              	.LC31:
 2505 0280 42756666 		.string	"Buffer Cache No. 13"
 2505      65722043 
 2505      61636865 
 2505      204E6F2E 
 2505      20313300 
 2506 0294 00000000 		.align	3
 2507              	.LC32:
 2508 0298 42756666 		.string	"Buffer Cache No. 14"
 2508      65722043 
 2508      61636865 
 2508      204E6F2E 
 2508      20313400 
 2509 02ac 00000000 		.align	3
 2510              	.LC33:
 2511 02b0 42756666 		.string	"Buffer Cache No. 15"
 2511      65722043 
 2511      61636865 
 2511      204E6F2E 
 2511      20313500 
 2512 02c4 00000000 		.align	3
 2513              	.LC34:
 2514 02c8 42756666 		.string	"Buffer Cache No. 16"
 2514      65722043 
 2514      61636865 
 2514      204E6F2E 
 2514      20313600 
 2515 02dc 00000000 		.align	3
 2516              	.LC35:
 2517 02e0 42756666 		.string	"Buffer Cache No. 17"
 2517      65722043 
 2517      61636865 
 2517      204E6F2E 
 2517      20313700 
 2518              		.globl	_ZN13SlabAllocator5sizeNE
 2519              		.globl	_ZN13SlabAllocator14largeSlabCacheE
 2520              		.globl	_ZN13SlabAllocator5cacheE
 2521              		.bss
 2522              		.align	3
GAS LISTING /tmp/cc3wtzn3.s 			page 66


 2523              		.set	.LANCHOR0,. + 0
 2526              	_ZN13SlabAllocator14largeSlabCacheE:
 2527 0000 00000000 		.zero	8
 2527      00000000 
 2530              	_ZN13SlabAllocator5sizeNE:
 2531 0008 00000000 		.zero	104
 2531      00000000 
 2531      00000000 
 2531      00000000 
 2531      00000000 
 2534              	_ZN13SlabAllocator5cacheE:
 2535 0070 00000000 		.zero	8
 2535      00000000 
 2536              		.section	.data.rel.local,"aw"
 2537              		.align	3
 2538              		.set	.LANCHOR1,. + 0
 2541              	_ZN13SlabAllocator5namesE:
 2542 0000 00000000 		.dword	.LC23
 2542      00000000 
 2543 0008 00000000 		.dword	.LC24
 2543      00000000 
 2544 0010 00000000 		.dword	.LC25
 2544      00000000 
 2545 0018 00000000 		.dword	.LC26
 2545      00000000 
 2546 0020 00000000 		.dword	.LC27
 2546      00000000 
 2547 0028 00000000 		.dword	.LC28
 2547      00000000 
 2548 0030 00000000 		.dword	.LC29
 2548      00000000 
 2549 0038 00000000 		.dword	.LC30
 2549      00000000 
 2550 0040 00000000 		.dword	.LC31
 2550      00000000 
 2551 0048 00000000 		.dword	.LC32
 2551      00000000 
 2552 0050 00000000 		.dword	.LC33
 2552      00000000 
 2553 0058 00000000 		.dword	.LC34
 2553      00000000 
 2554 0060 00000000 		.dword	.LC35
 2554      00000000 
 2555              		.text
 2556              	.Letext0:
 2557              		.file 5 "src/kernel/../../h/kernel/../../lib/hw.h"
 2558              		.file 6 "src/kernel/../../h/kernel/utility.hpp"
 2559              		.file 7 "src/kernel/../../h/kernel/console_util.hpp"
 2560              		.file 8 "src/kernel/../../h/kernel/cache_t.hpp"
GAS LISTING /tmp/cc3wtzn3.s 			page 67


DEFINED SYMBOLS
                            *ABS*:0000000000000000 slab_allocator.cpp
     /tmp/cc3wtzn3.s:41     .text:0000000000000000 _ZN13SlabAllocator9printSlabEP4Slab
     /tmp/cc3wtzn3.s:45     .text:0000000000000000 .L0 
     /tmp/cc3wtzn3.s:47     .text:0000000000000000 .L0 
     /tmp/cc3wtzn3.s:49     .text:0000000000000000 .L0 
     /tmp/cc3wtzn3.s:52     .text:0000000000000004 .L0 
     /tmp/cc3wtzn3.s:53     .text:0000000000000008 .L0 
     /tmp/cc3wtzn3.s:58     .text:0000000000000018 .L0 
     /tmp/cc3wtzn3.s:59     .text:0000000000000018 .L0 
     /tmp/cc3wtzn3.s:60     .text:0000000000000018 .L0 
     /tmp/cc3wtzn3.s:61     .text:0000000000000018 .L0 
     /tmp/cc3wtzn3.s:63     .text:000000000000001c .L0 
     /tmp/cc3wtzn3.s:68     .text:0000000000000020 .L0 
     /tmp/cc3wtzn3.s:69     .text:0000000000000020 .L0 
     /tmp/cc3wtzn3.s:74     .text:0000000000000030 .L0 
     /tmp/cc3wtzn3.s:75     .text:0000000000000030 .L0 
     /tmp/cc3wtzn3.s:82     .text:0000000000000050 .L0 
     /tmp/cc3wtzn3.s:83     .text:0000000000000050 .L0 
     /tmp/cc3wtzn3.s:90     .text:0000000000000070 .L0 
     /tmp/cc3wtzn3.s:91     .text:0000000000000070 .L0 
     /tmp/cc3wtzn3.s:98     .text:0000000000000090 .L0 
     /tmp/cc3wtzn3.s:99     .text:0000000000000090 .L0 
     /tmp/cc3wtzn3.s:106    .text:00000000000000b0 .L0 
     /tmp/cc3wtzn3.s:107    .text:00000000000000b0 .L0 
     /tmp/cc3wtzn3.s:114    .text:00000000000000d0 .L0 
     /tmp/cc3wtzn3.s:115    .text:00000000000000d0 .L0 
     /tmp/cc3wtzn3.s:120    .text:00000000000000e0 .L0 
     /tmp/cc3wtzn3.s:121    .text:00000000000000e0 .L0 
     /tmp/cc3wtzn3.s:126    .text:00000000000000e8 .L0 
     /tmp/cc3wtzn3.s:127    .text:00000000000000e8 .L0 
     /tmp/cc3wtzn3.s:129    .text:00000000000000ec .L0 
     /tmp/cc3wtzn3.s:136    .text:000000000000010c .L0 
     /tmp/cc3wtzn3.s:140    .text:0000000000000110 .L0 
     /tmp/cc3wtzn3.s:141    .text:0000000000000110 .L0 
     /tmp/cc3wtzn3.s:143    .text:0000000000000114 .L0 
     /tmp/cc3wtzn3.s:145    .text:0000000000000118 .L0 
     /tmp/cc3wtzn3.s:147    .text:000000000000011c .L0 
     /tmp/cc3wtzn3.s:150    .text:0000000000000120 .L0 
     /tmp/cc3wtzn3.s:151    .text:0000000000000120 .L0 
     /tmp/cc3wtzn3.s:157    .text:0000000000000130 .L0 
     /tmp/cc3wtzn3.s:158    .text:0000000000000134 .L0 
     /tmp/cc3wtzn3.s:160    .text:0000000000000138 .L0 
     /tmp/cc3wtzn3.s:161    .text:0000000000000138 .L0 
     /tmp/cc3wtzn3.s:163    .text:000000000000013c .L0 
     /tmp/cc3wtzn3.s:166    .text:0000000000000140 .L0 
     /tmp/cc3wtzn3.s:169    .text:0000000000000144 .L0 
     /tmp/cc3wtzn3.s:174    .text:000000000000014c .L0 
     /tmp/cc3wtzn3.s:206    .text:000000000000014c _ZN13SlabAllocator10printCacheEP5Cache
     /tmp/cc3wtzn3.s:209    .text:000000000000014c .L0 
     /tmp/cc3wtzn3.s:211    .text:000000000000014c .L0 
     /tmp/cc3wtzn3.s:213    .text:000000000000014c .L0 
     /tmp/cc3wtzn3.s:216    .text:0000000000000150 .L0 
     /tmp/cc3wtzn3.s:217    .text:0000000000000154 .L0 
     /tmp/cc3wtzn3.s:222    .text:0000000000000164 .L0 
     /tmp/cc3wtzn3.s:223    .text:0000000000000164 .L0 
     /tmp/cc3wtzn3.s:224    .text:0000000000000164 .L0 
GAS LISTING /tmp/cc3wtzn3.s 			page 68


     /tmp/cc3wtzn3.s:225    .text:0000000000000164 .L0 
     /tmp/cc3wtzn3.s:227    .text:0000000000000168 .L0 
     /tmp/cc3wtzn3.s:232    .text:000000000000016c .L0 
     /tmp/cc3wtzn3.s:233    .text:000000000000016c .L0 
     /tmp/cc3wtzn3.s:238    .text:000000000000017c .L0 
     /tmp/cc3wtzn3.s:239    .text:000000000000017c .L0 
     /tmp/cc3wtzn3.s:243    .text:000000000000018c .L0 
     /tmp/cc3wtzn3.s:244    .text:000000000000018c .L0 
     /tmp/cc3wtzn3.s:248    .text:0000000000000198 .L0 
     /tmp/cc3wtzn3.s:249    .text:0000000000000198 .L0 
     /tmp/cc3wtzn3.s:253    .text:00000000000001a8 .L0 
     /tmp/cc3wtzn3.s:254    .text:00000000000001a8 .L0 
     /tmp/cc3wtzn3.s:261    .text:00000000000001c8 .L0 
     /tmp/cc3wtzn3.s:262    .text:00000000000001c8 .L0 
     /tmp/cc3wtzn3.s:269    .text:00000000000001e8 .L0 
     /tmp/cc3wtzn3.s:270    .text:00000000000001e8 .L0 
     /tmp/cc3wtzn3.s:277    .text:0000000000000208 .L0 
     /tmp/cc3wtzn3.s:278    .text:0000000000000208 .L0 
     /tmp/cc3wtzn3.s:285    .text:0000000000000228 .L0 
     /tmp/cc3wtzn3.s:286    .text:0000000000000228 .L0 
     /tmp/cc3wtzn3.s:291    .text:0000000000000230 .L0 
     /tmp/cc3wtzn3.s:292    .text:0000000000000230 .L0 
     /tmp/cc3wtzn3.s:299    .text:0000000000000250 .L0 
     /tmp/cc3wtzn3.s:300    .text:0000000000000250 .L0 
     /tmp/cc3wtzn3.s:304    .text:0000000000000254 .L0 
     /tmp/cc3wtzn3.s:305    .text:0000000000000254 .L0 
     /tmp/cc3wtzn3.s:307    .text:0000000000000258 .L0 
     /tmp/cc3wtzn3.s:308    .text:0000000000000258 .L0 
     /tmp/cc3wtzn3.s:312    .text:0000000000000268 .L0 
     /tmp/cc3wtzn3.s:313    .text:0000000000000268 .L0 
     /tmp/cc3wtzn3.s:320    .text:0000000000000288 .L0 
     /tmp/cc3wtzn3.s:321    .text:0000000000000288 .L0 
     /tmp/cc3wtzn3.s:325    .text:000000000000028c .L0 
     /tmp/cc3wtzn3.s:326    .text:000000000000028c .L0 
     /tmp/cc3wtzn3.s:328    .text:0000000000000290 .L0 
     /tmp/cc3wtzn3.s:329    .text:0000000000000290 .L0 
     /tmp/cc3wtzn3.s:336    .text:00000000000002b0 .L0 
     /tmp/cc3wtzn3.s:337    .text:00000000000002b0 .L0 
     /tmp/cc3wtzn3.s:340    .text:00000000000002b4 .L0 
     /tmp/cc3wtzn3.s:343    .text:00000000000002b8 .L0 
     /tmp/cc3wtzn3.s:344    .text:00000000000002b8 .L0 
     /tmp/cc3wtzn3.s:348    .text:00000000000002c8 .L0 
     /tmp/cc3wtzn3.s:349    .text:00000000000002c8 .L0 
     /tmp/cc3wtzn3.s:356    .text:00000000000002e8 .L0 
     /tmp/cc3wtzn3.s:357    .text:00000000000002e8 .L0 
     /tmp/cc3wtzn3.s:362    .text:00000000000002f0 .L0 
     /tmp/cc3wtzn3.s:363    .text:00000000000002f0 .L0 
     /tmp/cc3wtzn3.s:370    .text:0000000000000310 .L0 
     /tmp/cc3wtzn3.s:371    .text:0000000000000310 .L0 
     /tmp/cc3wtzn3.s:375    .text:0000000000000314 .L0 
     /tmp/cc3wtzn3.s:376    .text:0000000000000314 .L0 
     /tmp/cc3wtzn3.s:378    .text:0000000000000318 .L0 
     /tmp/cc3wtzn3.s:379    .text:0000000000000318 .L0 
     /tmp/cc3wtzn3.s:385    .text:0000000000000328 .L0 
     /tmp/cc3wtzn3.s:386    .text:000000000000032c .L0 
     /tmp/cc3wtzn3.s:388    .text:0000000000000330 .L0 
     /tmp/cc3wtzn3.s:389    .text:0000000000000330 .L0 
GAS LISTING /tmp/cc3wtzn3.s 			page 69


     /tmp/cc3wtzn3.s:391    .text:0000000000000334 .L0 
     /tmp/cc3wtzn3.s:394    .text:0000000000000338 .L0 
     /tmp/cc3wtzn3.s:397    .text:000000000000033c .L0 
     /tmp/cc3wtzn3.s:402    .text:0000000000000344 .L0 
     /tmp/cc3wtzn3.s:408    .text:0000000000000344 _ZN13SlabAllocator14insertIntoListERP4SlabS1_
     /tmp/cc3wtzn3.s:411    .text:0000000000000344 .L0 
     /tmp/cc3wtzn3.s:413    .text:0000000000000344 .L0 
     /tmp/cc3wtzn3.s:414    .text:0000000000000348 .L0 
     /tmp/cc3wtzn3.s:416    .text:000000000000034c .L0 
     /tmp/cc3wtzn3.s:418    .text:0000000000000350 .L0 
     /tmp/cc3wtzn3.s:420    .text:0000000000000350 .L0 
     /tmp/cc3wtzn3.s:421    .text:0000000000000350 .L0 
     /tmp/cc3wtzn3.s:423    .text:0000000000000354 .L0 
     /tmp/cc3wtzn3.s:425    .text:0000000000000358 .L0 
     /tmp/cc3wtzn3.s:427    .text:000000000000035c .L0 
     /tmp/cc3wtzn3.s:428    .text:000000000000035c .L0 
     /tmp/cc3wtzn3.s:431    .text:0000000000000360 .L0 
     /tmp/cc3wtzn3.s:432    .text:0000000000000360 .L0 
     /tmp/cc3wtzn3.s:434    .text:0000000000000364 .L0 
     /tmp/cc3wtzn3.s:435    .text:0000000000000364 .L0 
     /tmp/cc3wtzn3.s:437    .text:0000000000000368 .L0 
     /tmp/cc3wtzn3.s:438    .text:000000000000036c .L0 
     /tmp/cc3wtzn3.s:439    .text:000000000000036c .L0 
     /tmp/cc3wtzn3.s:441    .text:0000000000000370 .L0 
     /tmp/cc3wtzn3.s:443    .text:0000000000000374 .L0 
     /tmp/cc3wtzn3.s:449    .text:0000000000000374 _ZN13SlabAllocator12allocateSlabEP5Cache
     /tmp/cc3wtzn3.s:452    .text:0000000000000374 .L0 
     /tmp/cc3wtzn3.s:454    .text:0000000000000374 .L0 
     /tmp/cc3wtzn3.s:455    .text:0000000000000378 .L0 
     /tmp/cc3wtzn3.s:461    .text:000000000000038c .L0 
     /tmp/cc3wtzn3.s:462    .text:000000000000038c .L0 
     /tmp/cc3wtzn3.s:463    .text:000000000000038c .L0 
     /tmp/cc3wtzn3.s:464    .text:000000000000038c .L0 
     /tmp/cc3wtzn3.s:465    .text:000000000000038c .L0 
     /tmp/cc3wtzn3.s:467    .text:0000000000000390 .L0 
     /tmp/cc3wtzn3.s:470    .text:0000000000000394 .L0 
     /tmp/cc3wtzn3.s:471    .text:0000000000000394 .L0 
     /tmp/cc3wtzn3.s:476    .text:00000000000003a0 .L0 
     /tmp/cc3wtzn3.s:479    .text:00000000000003a8 .L0 
     /tmp/cc3wtzn3.s:480    .text:00000000000003a8 .L0 
     /tmp/cc3wtzn3.s:486    .text:00000000000003b8 .L0 
     /tmp/cc3wtzn3.s:487    .text:00000000000003b8 .L0 
     /tmp/cc3wtzn3.s:489    .text:00000000000003bc .L0 
     /tmp/cc3wtzn3.s:492    .text:00000000000003c4 .L0 
     /tmp/cc3wtzn3.s:494    .text:00000000000003c8 .L0 
     /tmp/cc3wtzn3.s:496    .text:00000000000003cc .L0 
     /tmp/cc3wtzn3.s:498    .text:00000000000003d0 .L0 
     /tmp/cc3wtzn3.s:500    .text:00000000000003d4 .L0 
     /tmp/cc3wtzn3.s:502    .text:00000000000003d8 .L0 
     /tmp/cc3wtzn3.s:504    .text:00000000000003dc .L0 
     /tmp/cc3wtzn3.s:507    .text:00000000000003e4 .L0 
     /tmp/cc3wtzn3.s:508    .text:00000000000003e4 .L0 
     /tmp/cc3wtzn3.s:511    .text:00000000000003ec .L0 
     /tmp/cc3wtzn3.s:514    .text:00000000000003f0 .L0 
     /tmp/cc3wtzn3.s:515    .text:00000000000003f0 .L0 
     /tmp/cc3wtzn3.s:517    .text:00000000000003f4 .L0 
     /tmp/cc3wtzn3.s:519    .text:00000000000003f8 .L0 
GAS LISTING /tmp/cc3wtzn3.s 			page 70


     /tmp/cc3wtzn3.s:520    .text:00000000000003f8 .L0 
     /tmp/cc3wtzn3.s:524    .text:00000000000003fc .L0 
     /tmp/cc3wtzn3.s:525    .text:00000000000003fc .L0 
     /tmp/cc3wtzn3.s:529    .text:0000000000000400 .L0 
     /tmp/cc3wtzn3.s:530    .text:0000000000000400 .L0 
     /tmp/cc3wtzn3.s:532    .text:0000000000000404 .L0 
     /tmp/cc3wtzn3.s:534    .text:0000000000000408 .L0 
     /tmp/cc3wtzn3.s:536    .text:000000000000040c .L0 
     /tmp/cc3wtzn3.s:538    .text:0000000000000410 .L0 
     /tmp/cc3wtzn3.s:539    .text:0000000000000410 .L0 
     /tmp/cc3wtzn3.s:542    .text:0000000000000418 .L0 
     /tmp/cc3wtzn3.s:549    .text:0000000000000420 .L0 
     /tmp/cc3wtzn3.s:550    .text:0000000000000420 .L0 
     /tmp/cc3wtzn3.s:553    .text:0000000000000428 .L0 
     /tmp/cc3wtzn3.s:554    .text:0000000000000428 .L0 
     /tmp/cc3wtzn3.s:561    .text:0000000000000430 .L0 
     /tmp/cc3wtzn3.s:562    .text:0000000000000430 .L0 
     /tmp/cc3wtzn3.s:564    .text:0000000000000434 .L0 
     /tmp/cc3wtzn3.s:567    .text:0000000000000438 .L0 
     /tmp/cc3wtzn3.s:571    .text:000000000000043c .L0 
     /tmp/cc3wtzn3.s:572    .text:000000000000043c .L0 
     /tmp/cc3wtzn3.s:574    .text:0000000000000440 .L0 
     /tmp/cc3wtzn3.s:576    .text:0000000000000444 .L0 
     /tmp/cc3wtzn3.s:577    .text:0000000000000444 .L0 
     /tmp/cc3wtzn3.s:579    .text:0000000000000448 .L0 
     /tmp/cc3wtzn3.s:581    .text:000000000000044c .L0 
     /tmp/cc3wtzn3.s:583    .text:0000000000000450 .L0 
     /tmp/cc3wtzn3.s:585    .text:0000000000000454 .L0 
     /tmp/cc3wtzn3.s:587    .text:0000000000000458 .L0 
     /tmp/cc3wtzn3.s:591    .text:0000000000000460 .L0 
     /tmp/cc3wtzn3.s:599    .text:0000000000000468 .L0 
     /tmp/cc3wtzn3.s:607    .text:0000000000000474 .L0 
     /tmp/cc3wtzn3.s:608    .text:0000000000000478 .L0 
     /tmp/cc3wtzn3.s:610    .text:000000000000047c .L0 
     /tmp/cc3wtzn3.s:611    .text:000000000000047c .L0 
     /tmp/cc3wtzn3.s:613    .text:0000000000000480 .L0 
     /tmp/cc3wtzn3.s:615    .text:0000000000000484 .L0 
     /tmp/cc3wtzn3.s:617    .text:0000000000000488 .L0 
     /tmp/cc3wtzn3.s:620    .text:000000000000048c .L0 
     /tmp/cc3wtzn3.s:622    .text:0000000000000490 .L0 
     /tmp/cc3wtzn3.s:628    .text:0000000000000490 _ZN13SlabAllocator14removeFromListERP4SlabS1_
     /tmp/cc3wtzn3.s:631    .text:0000000000000490 .L0 
     /tmp/cc3wtzn3.s:633    .text:0000000000000490 .L0 
     /tmp/cc3wtzn3.s:634    .text:0000000000000494 .L0 
     /tmp/cc3wtzn3.s:636    .text:0000000000000498 .L0 
     /tmp/cc3wtzn3.s:638    .text:000000000000049c .L0 
     /tmp/cc3wtzn3.s:640    .text:000000000000049c .L0 
     /tmp/cc3wtzn3.s:641    .text:000000000000049c .L0 
     /tmp/cc3wtzn3.s:643    .text:00000000000004a0 .L0 
     /tmp/cc3wtzn3.s:646    .text:00000000000004a4 .L0 
     /tmp/cc3wtzn3.s:647    .text:00000000000004a4 .L0 
     /tmp/cc3wtzn3.s:649    .text:00000000000004a8 .L0 
     /tmp/cc3wtzn3.s:651    .text:00000000000004ac .L0 
     /tmp/cc3wtzn3.s:652    .text:00000000000004ac .L0 
     /tmp/cc3wtzn3.s:654    .text:00000000000004b0 .L0 
     /tmp/cc3wtzn3.s:657    .text:00000000000004b4 .L0 
     /tmp/cc3wtzn3.s:658    .text:00000000000004b4 .L0 
GAS LISTING /tmp/cc3wtzn3.s 			page 71


     /tmp/cc3wtzn3.s:660    .text:00000000000004b8 .L0 
     /tmp/cc3wtzn3.s:662    .text:00000000000004bc .L0 
     /tmp/cc3wtzn3.s:663    .text:00000000000004bc .L0 
     /tmp/cc3wtzn3.s:665    .text:00000000000004c0 .L0 
     /tmp/cc3wtzn3.s:668    .text:00000000000004c4 .L0 
     /tmp/cc3wtzn3.s:669    .text:00000000000004c4 .L0 
     /tmp/cc3wtzn3.s:671    .text:00000000000004c8 .L0 
     /tmp/cc3wtzn3.s:672    .text:00000000000004c8 .L0 
     /tmp/cc3wtzn3.s:674    .text:00000000000004cc .L0 
     /tmp/cc3wtzn3.s:675    .text:00000000000004d0 .L0 
     /tmp/cc3wtzn3.s:676    .text:00000000000004d0 .L0 
     /tmp/cc3wtzn3.s:677    .text:00000000000004d0 .L0 
     /tmp/cc3wtzn3.s:679    .text:00000000000004d4 .L0 
     /tmp/cc3wtzn3.s:682    .text:00000000000004d8 .L0 
     /tmp/cc3wtzn3.s:684    .text:00000000000004d8 .L0 
     /tmp/cc3wtzn3.s:685    .text:00000000000004d8 .L0 
     /tmp/cc3wtzn3.s:687    .text:00000000000004dc .L0 
     /tmp/cc3wtzn3.s:689    .text:00000000000004e4 .L0 
     /tmp/cc3wtzn3.s:695    .text:00000000000004e4 _ZN13SlabAllocator4moveERP4SlabS2_S1_
     /tmp/cc3wtzn3.s:698    .text:00000000000004e4 .L0 
     /tmp/cc3wtzn3.s:700    .text:00000000000004e4 .L0 
     /tmp/cc3wtzn3.s:701    .text:00000000000004e8 .L0 
     /tmp/cc3wtzn3.s:706    .text:00000000000004f8 .L0 
     /tmp/cc3wtzn3.s:707    .text:00000000000004f8 .L0 
     /tmp/cc3wtzn3.s:708    .text:00000000000004f8 .L0 
     /tmp/cc3wtzn3.s:709    .text:00000000000004f8 .L0 
     /tmp/cc3wtzn3.s:711    .text:00000000000004fc .L0 
     /tmp/cc3wtzn3.s:715    .text:0000000000000504 .L0 
     /tmp/cc3wtzn3.s:716    .text:0000000000000504 .L0 
     /tmp/cc3wtzn3.s:721    .text:0000000000000510 .L0 
     /tmp/cc3wtzn3.s:722    .text:0000000000000510 .L0 
     /tmp/cc3wtzn3.s:727    .text:0000000000000520 .L0 
     /tmp/cc3wtzn3.s:728    .text:0000000000000524 .L0 
     /tmp/cc3wtzn3.s:730    .text:0000000000000528 .L0 
     /tmp/cc3wtzn3.s:731    .text:0000000000000528 .L0 
     /tmp/cc3wtzn3.s:733    .text:000000000000052c .L0 
     /tmp/cc3wtzn3.s:736    .text:0000000000000530 .L0 
     /tmp/cc3wtzn3.s:739    .text:0000000000000534 .L0 
     /tmp/cc3wtzn3.s:741    .text:0000000000000538 .L0 
     /tmp/cc3wtzn3.s:747    .text:0000000000000538 _ZN13SlabAllocator12allocateSlotEP4Slab
     /tmp/cc3wtzn3.s:750    .text:0000000000000538 .L0 
     /tmp/cc3wtzn3.s:752    .text:0000000000000538 .L0 
     /tmp/cc3wtzn3.s:753    .text:000000000000053c .L0 
     /tmp/cc3wtzn3.s:758    .text:000000000000054c .L0 
     /tmp/cc3wtzn3.s:759    .text:000000000000054c .L0 
     /tmp/cc3wtzn3.s:760    .text:000000000000054c .L0 
     /tmp/cc3wtzn3.s:761    .text:000000000000054c .L0 
     /tmp/cc3wtzn3.s:763    .text:0000000000000550 .L0 
     /tmp/cc3wtzn3.s:768    .text:0000000000000554 .L0 
     /tmp/cc3wtzn3.s:769    .text:0000000000000554 .L0 
     /tmp/cc3wtzn3.s:773    .text:0000000000000558 .L0 
     /tmp/cc3wtzn3.s:774    .text:0000000000000558 .L0 
     /tmp/cc3wtzn3.s:776    .text:000000000000055c .L0 
     /tmp/cc3wtzn3.s:781    .text:0000000000000560 .L0 
     /tmp/cc3wtzn3.s:782    .text:0000000000000560 .L0 
     /tmp/cc3wtzn3.s:784    .text:0000000000000564 .L0 
     /tmp/cc3wtzn3.s:787    .text:000000000000056c .L0 
GAS LISTING /tmp/cc3wtzn3.s 			page 72


     /tmp/cc3wtzn3.s:790    .text:0000000000000574 .L0 
     /tmp/cc3wtzn3.s:793    .text:000000000000057c .L0 
     /tmp/cc3wtzn3.s:796    .text:0000000000000580 .L0 
     /tmp/cc3wtzn3.s:803    .text:0000000000000588 .L0 
     /tmp/cc3wtzn3.s:804    .text:0000000000000588 .L0 
     /tmp/cc3wtzn3.s:807    .text:0000000000000590 .L0 
     /tmp/cc3wtzn3.s:815    .text:000000000000059c .L0 
     /tmp/cc3wtzn3.s:816    .text:000000000000059c .L0 
     /tmp/cc3wtzn3.s:817    .text:000000000000059c .L0 
     /tmp/cc3wtzn3.s:822    .text:00000000000005a0 .L0 
     /tmp/cc3wtzn3.s:824    .text:00000000000005a4 .L0 
     /tmp/cc3wtzn3.s:827    .text:00000000000005a8 .L0 
     /tmp/cc3wtzn3.s:831    .text:00000000000005ac .L0 
     /tmp/cc3wtzn3.s:832    .text:00000000000005ac .L0 
     /tmp/cc3wtzn3.s:839    .text:00000000000005b4 .L0 
     /tmp/cc3wtzn3.s:843    .text:00000000000005b4 .L0 
     /tmp/cc3wtzn3.s:844    .text:00000000000005b4 .L0 
     /tmp/cc3wtzn3.s:846    .text:00000000000005b8 .L0 
     /tmp/cc3wtzn3.s:848    .text:00000000000005bc .L0 
     /tmp/cc3wtzn3.s:852    .text:00000000000005c0 .L0 
     /tmp/cc3wtzn3.s:853    .text:00000000000005c0 .L0 
     /tmp/cc3wtzn3.s:855    .text:00000000000005c4 .L0 
     /tmp/cc3wtzn3.s:857    .text:00000000000005c8 .L0 
     /tmp/cc3wtzn3.s:859    .text:00000000000005cc .L0 
     /tmp/cc3wtzn3.s:860    .text:00000000000005cc .L0 
     /tmp/cc3wtzn3.s:865    .text:00000000000005d8 .L0 
     /tmp/cc3wtzn3.s:866    .text:00000000000005d8 .L0 
     /tmp/cc3wtzn3.s:868    .text:00000000000005dc .L0 
     /tmp/cc3wtzn3.s:870    .text:00000000000005e0 .L0 
     /tmp/cc3wtzn3.s:872    .text:00000000000005e4 .L0 
     /tmp/cc3wtzn3.s:875    .text:00000000000005e8 .L0 
     /tmp/cc3wtzn3.s:877    .text:00000000000005ec .L0 
     /tmp/cc3wtzn3.s:881    .text:00000000000005f0 .L0 
     /tmp/cc3wtzn3.s:884    .text:00000000000005f4 .L0 
     /tmp/cc3wtzn3.s:889    .text:00000000000005fc .L0 
     /tmp/cc3wtzn3.s:891    .text:0000000000000600 .L0 
     /tmp/cc3wtzn3.s:899    .text:0000000000000608 .L0 
     /tmp/cc3wtzn3.s:900    .text:0000000000000608 .L0 
     /tmp/cc3wtzn3.s:902    .text:000000000000060c .L0 
     /tmp/cc3wtzn3.s:905    .text:0000000000000614 .L0 
     /tmp/cc3wtzn3.s:906    .text:0000000000000614 .L0 
     /tmp/cc3wtzn3.s:910    .text:0000000000000618 .L0 
     /tmp/cc3wtzn3.s:911    .text:000000000000061c .L0 
     /tmp/cc3wtzn3.s:913    .text:0000000000000620 .L0 
     /tmp/cc3wtzn3.s:914    .text:0000000000000620 .L0 
     /tmp/cc3wtzn3.s:916    .text:0000000000000624 .L0 
     /tmp/cc3wtzn3.s:918    .text:0000000000000628 .L0 
     /tmp/cc3wtzn3.s:921    .text:000000000000062c .L0 
     /tmp/cc3wtzn3.s:923    .text:0000000000000630 .L0 
     /tmp/cc3wtzn3.s:929    .text:0000000000000630 _ZN13SlabAllocator14allocateObjectEP5Cache
     /tmp/cc3wtzn3.s:932    .text:0000000000000630 .L0 
     /tmp/cc3wtzn3.s:934    .text:0000000000000630 .L0 
     /tmp/cc3wtzn3.s:935    .text:0000000000000634 .L0 
     /tmp/cc3wtzn3.s:941    .text:0000000000000648 .L0 
     /tmp/cc3wtzn3.s:942    .text:0000000000000648 .L0 
     /tmp/cc3wtzn3.s:943    .text:0000000000000648 .L0 
     /tmp/cc3wtzn3.s:944    .text:0000000000000648 .L0 
GAS LISTING /tmp/cc3wtzn3.s 			page 73


     /tmp/cc3wtzn3.s:945    .text:0000000000000648 .L0 
     /tmp/cc3wtzn3.s:947    .text:000000000000064c .L0 
     /tmp/cc3wtzn3.s:950    .text:0000000000000650 .L0 
     /tmp/cc3wtzn3.s:951    .text:0000000000000650 .L0 
     /tmp/cc3wtzn3.s:958    .text:0000000000000654 .L0 
     /tmp/cc3wtzn3.s:959    .text:0000000000000654 .L0 
     /tmp/cc3wtzn3.s:962    .text:0000000000000658 .L0 
     /tmp/cc3wtzn3.s:963    .text:0000000000000658 .L0 
     /tmp/cc3wtzn3.s:967    .text:0000000000000664 .L0 
     /tmp/cc3wtzn3.s:969    .text:0000000000000668 .L0 
     /tmp/cc3wtzn3.s:976    .text:000000000000066c .L0 
     /tmp/cc3wtzn3.s:980    .text:0000000000000670 .L0 
     /tmp/cc3wtzn3.s:982    .text:0000000000000678 .L0 
     /tmp/cc3wtzn3.s:983    .text:0000000000000678 .L0 
     /tmp/cc3wtzn3.s:985    .text:000000000000067c .L0 
     /tmp/cc3wtzn3.s:986    .text:000000000000067c .L0 
     /tmp/cc3wtzn3.s:988    .text:0000000000000680 .L0 
     /tmp/cc3wtzn3.s:990    .text:0000000000000684 .L0 
     /tmp/cc3wtzn3.s:993    .text:0000000000000688 .L0 
     /tmp/cc3wtzn3.s:995    .text:000000000000068c .L0 
     /tmp/cc3wtzn3.s:999    .text:0000000000000690 .L0 
     /tmp/cc3wtzn3.s:1001   .text:0000000000000690 .L0 
     /tmp/cc3wtzn3.s:1002   .text:0000000000000690 .L0 
     /tmp/cc3wtzn3.s:1008   .text:0000000000000694 .L0 
     /tmp/cc3wtzn3.s:1009   .text:0000000000000694 .L0 
     /tmp/cc3wtzn3.s:1012   .text:0000000000000698 .L0 
     /tmp/cc3wtzn3.s:1013   .text:0000000000000698 .L0 
     /tmp/cc3wtzn3.s:1017   .text:00000000000006a4 .L0 
     /tmp/cc3wtzn3.s:1019   .text:00000000000006a8 .L0 
     /tmp/cc3wtzn3.s:1026   .text:00000000000006ac .L0 
     /tmp/cc3wtzn3.s:1029   .text:00000000000006b0 .L0 
     /tmp/cc3wtzn3.s:1030   .text:00000000000006b0 .L0 
     /tmp/cc3wtzn3.s:1032   .text:00000000000006b4 .L0 
     /tmp/cc3wtzn3.s:1035   .text:00000000000006bc .L0 
     /tmp/cc3wtzn3.s:1036   .text:00000000000006bc .L0 
     /tmp/cc3wtzn3.s:1040   .text:00000000000006c8 .L0 
     /tmp/cc3wtzn3.s:1042   .text:00000000000006cc .L0 
     /tmp/cc3wtzn3.s:1043   .text:00000000000006cc .L0 
     /tmp/cc3wtzn3.s:1052   .text:00000000000006e0 .L0 
     /tmp/cc3wtzn3.s:1053   .text:00000000000006e0 .L0 
     /tmp/cc3wtzn3.s:1059   .text:00000000000006f4 .L0 
     /tmp/cc3wtzn3.s:1060   .text:00000000000006f4 .L0 
     /tmp/cc3wtzn3.s:1062   .text:00000000000006f8 .L0 
     /tmp/cc3wtzn3.s:1065   .text:0000000000000700 .L0 
     /tmp/cc3wtzn3.s:1067   .text:0000000000000704 .L0 
     /tmp/cc3wtzn3.s:1069   .text:0000000000000708 .L0 
     /tmp/cc3wtzn3.s:1071   .text:000000000000070c .L0 
     /tmp/cc3wtzn3.s:1073   .text:0000000000000710 .L0 
     /tmp/cc3wtzn3.s:1075   .text:0000000000000714 .L0 
     /tmp/cc3wtzn3.s:1078   .text:000000000000071c .L0 
     /tmp/cc3wtzn3.s:1079   .text:000000000000071c .L0 
     /tmp/cc3wtzn3.s:1082   .text:0000000000000724 .L0 
     /tmp/cc3wtzn3.s:1085   .text:0000000000000728 .L0 
     /tmp/cc3wtzn3.s:1086   .text:0000000000000728 .L0 
     /tmp/cc3wtzn3.s:1090   .text:0000000000000734 .L0 
     /tmp/cc3wtzn3.s:1091   .text:0000000000000734 .L0 
     /tmp/cc3wtzn3.s:1093   .text:0000000000000738 .L0 
GAS LISTING /tmp/cc3wtzn3.s 			page 74


     /tmp/cc3wtzn3.s:1094   .text:0000000000000738 .L0 
     /tmp/cc3wtzn3.s:1096   .text:000000000000073c .L0 
     /tmp/cc3wtzn3.s:1097   .text:000000000000073c .L0 
     /tmp/cc3wtzn3.s:1101   .text:0000000000000740 .L0 
     /tmp/cc3wtzn3.s:1102   .text:0000000000000740 .L0 
     /tmp/cc3wtzn3.s:1106   .text:0000000000000744 .L0 
     /tmp/cc3wtzn3.s:1107   .text:0000000000000744 .L0 
     /tmp/cc3wtzn3.s:1109   .text:0000000000000748 .L0 
     /tmp/cc3wtzn3.s:1111   .text:000000000000074c .L0 
     /tmp/cc3wtzn3.s:1113   .text:0000000000000750 .L0 
     /tmp/cc3wtzn3.s:1115   .text:0000000000000754 .L0 
     /tmp/cc3wtzn3.s:1116   .text:0000000000000754 .L0 
     /tmp/cc3wtzn3.s:1119   .text:000000000000075c .L0 
     /tmp/cc3wtzn3.s:1126   .text:0000000000000764 .L0 
     /tmp/cc3wtzn3.s:1127   .text:0000000000000764 .L0 
     /tmp/cc3wtzn3.s:1129   .text:0000000000000768 .L0 
     /tmp/cc3wtzn3.s:1132   .text:000000000000076c .L0 
     /tmp/cc3wtzn3.s:1136   .text:0000000000000770 .L0 
     /tmp/cc3wtzn3.s:1137   .text:0000000000000770 .L0 
     /tmp/cc3wtzn3.s:1139   .text:0000000000000774 .L0 
     /tmp/cc3wtzn3.s:1141   .text:0000000000000778 .L0 
     /tmp/cc3wtzn3.s:1142   .text:0000000000000778 .L0 
     /tmp/cc3wtzn3.s:1144   .text:000000000000077c .L0 
     /tmp/cc3wtzn3.s:1146   .text:0000000000000780 .L0 
     /tmp/cc3wtzn3.s:1148   .text:0000000000000784 .L0 
     /tmp/cc3wtzn3.s:1150   .text:0000000000000788 .L0 
     /tmp/cc3wtzn3.s:1152   .text:000000000000078c .L0 
     /tmp/cc3wtzn3.s:1156   .text:0000000000000794 .L0 
     /tmp/cc3wtzn3.s:1164   .text:000000000000079c .L0 
     /tmp/cc3wtzn3.s:1165   .text:000000000000079c .L0 
     /tmp/cc3wtzn3.s:1170   .text:00000000000007ac .L0 
     /tmp/cc3wtzn3.s:1171   .text:00000000000007ac .L0 
     /tmp/cc3wtzn3.s:1179   .text:00000000000007c0 .L0 
     /tmp/cc3wtzn3.s:1185   .text:00000000000007c0 _ZN13SlabAllocator14allocateBufferEm
     /tmp/cc3wtzn3.s:1188   .text:00000000000007c0 .L0 
     /tmp/cc3wtzn3.s:1190   .text:00000000000007c0 .L0 
     /tmp/cc3wtzn3.s:1194   .text:00000000000007c0 .L0 
     /tmp/cc3wtzn3.s:1195   .text:00000000000007c0 .L0 
     /tmp/cc3wtzn3.s:1196   .text:00000000000007c0 .L0 
     /tmp/cc3wtzn3.s:1199   .text:00000000000007c4 .L0 
     /tmp/cc3wtzn3.s:1200   .text:00000000000007c4 .L0 
     /tmp/cc3wtzn3.s:1203   .text:00000000000007c8 .L0 
     /tmp/cc3wtzn3.s:1206   .text:00000000000007cc .L0 
     /tmp/cc3wtzn3.s:1207   .text:00000000000007cc .L0 
     /tmp/cc3wtzn3.s:1209   .text:00000000000007d0 .L0 
     /tmp/cc3wtzn3.s:1212   .text:00000000000007d4 .L0 
     /tmp/cc3wtzn3.s:1213   .text:00000000000007d4 .L0 
     /tmp/cc3wtzn3.s:1215   .text:00000000000007d8 .L0 
     /tmp/cc3wtzn3.s:1218   .text:00000000000007dc .L0 
     /tmp/cc3wtzn3.s:1219   .text:00000000000007dc .L0 
     /tmp/cc3wtzn3.s:1221   .text:00000000000007e0 .L0 
     /tmp/cc3wtzn3.s:1224   .text:00000000000007e4 .L0 
     /tmp/cc3wtzn3.s:1225   .text:00000000000007e4 .L0 
     /tmp/cc3wtzn3.s:1227   .text:00000000000007e8 .L0 
     /tmp/cc3wtzn3.s:1230   .text:00000000000007ec .L0 
     /tmp/cc3wtzn3.s:1231   .text:00000000000007ec .L0 
     /tmp/cc3wtzn3.s:1233   .text:00000000000007f0 .L0 
GAS LISTING /tmp/cc3wtzn3.s 			page 75


     /tmp/cc3wtzn3.s:1236   .text:00000000000007f4 .L0 
     /tmp/cc3wtzn3.s:1237   .text:00000000000007f4 .L0 
     /tmp/cc3wtzn3.s:1244   .text:00000000000007f8 .L0 
     /tmp/cc3wtzn3.s:1248   .text:00000000000007fc .L0 
     /tmp/cc3wtzn3.s:1249   .text:00000000000007fc .L0 
     /tmp/cc3wtzn3.s:1252   .text:0000000000000804 .L0 
     /tmp/cc3wtzn3.s:1253   .text:0000000000000804 .L0 
     /tmp/cc3wtzn3.s:1256   .text:0000000000000808 .L0 
     /tmp/cc3wtzn3.s:1257   .text:0000000000000808 .L0 
     /tmp/cc3wtzn3.s:1260   .text:000000000000080c .L0 
     /tmp/cc3wtzn3.s:1266   .text:0000000000000810 .L0 
     /tmp/cc3wtzn3.s:1267   .text:0000000000000810 .L0 
     /tmp/cc3wtzn3.s:1268   .text:0000000000000810 .L0 
     /tmp/cc3wtzn3.s:1271   .text:0000000000000814 .L0 
     /tmp/cc3wtzn3.s:1274   .text:000000000000081c .L0 
     /tmp/cc3wtzn3.s:1275   .text:0000000000000820 .L0 
     /tmp/cc3wtzn3.s:1278   .text:0000000000000828 .L0 
     /tmp/cc3wtzn3.s:1279   .text:0000000000000828 .L0 
     /tmp/cc3wtzn3.s:1281   .text:000000000000082c .L0 
     /tmp/cc3wtzn3.s:1284   .text:000000000000082c .L0 
     /tmp/cc3wtzn3.s:1285   .text:000000000000082c .L0 
     /tmp/cc3wtzn3.s:1286   .text:000000000000082c .L0 
     /tmp/cc3wtzn3.s:1294   .text:0000000000000848 .L0 
     /tmp/cc3wtzn3.s:1295   .text:000000000000084c .L0 
     /tmp/cc3wtzn3.s:1297   .text:0000000000000850 .L0 
     /tmp/cc3wtzn3.s:1298   .text:0000000000000850 .L0 
     /tmp/cc3wtzn3.s:1300   .text:0000000000000854 .L0 
     /tmp/cc3wtzn3.s:1305   .text:0000000000000858 .L0 
     /tmp/cc3wtzn3.s:1307   .text:000000000000085c .L0 
     /tmp/cc3wtzn3.s:1308   .text:0000000000000860 .L0 
     /tmp/cc3wtzn3.s:1314   .text:0000000000000860 _ZN13SlabAllocator11createCacheEPKcmPFvPvES4_
     /tmp/cc3wtzn3.s:1317   .text:0000000000000860 .L0 
     /tmp/cc3wtzn3.s:1319   .text:0000000000000860 .L0 
     /tmp/cc3wtzn3.s:1320   .text:0000000000000864 .L0 
     /tmp/cc3wtzn3.s:1328   .text:0000000000000880 .L0 
     /tmp/cc3wtzn3.s:1329   .text:0000000000000880 .L0 
     /tmp/cc3wtzn3.s:1330   .text:0000000000000880 .L0 
     /tmp/cc3wtzn3.s:1331   .text:0000000000000880 .L0 
     /tmp/cc3wtzn3.s:1332   .text:0000000000000880 .L0 
     /tmp/cc3wtzn3.s:1333   .text:0000000000000880 .L0 
     /tmp/cc3wtzn3.s:1334   .text:0000000000000880 .L0 
     /tmp/cc3wtzn3.s:1336   .text:0000000000000884 .L0 
     /tmp/cc3wtzn3.s:1342   .text:0000000000000894 .L0 
     /tmp/cc3wtzn3.s:1343   .text:0000000000000894 .L0 
     /tmp/cc3wtzn3.s:1350   .text:00000000000008a8 .L0 
     /tmp/cc3wtzn3.s:1352   .text:00000000000008ac .L0 
     /tmp/cc3wtzn3.s:1353   .text:00000000000008ac .L0 
     /tmp/cc3wtzn3.s:1359   .text:00000000000008bc .L0 
     /tmp/cc3wtzn3.s:1360   .text:00000000000008bc .L0 
     /tmp/cc3wtzn3.s:1362   .text:00000000000008c0 .L0 
     /tmp/cc3wtzn3.s:1363   .text:00000000000008c0 .L0 
     /tmp/cc3wtzn3.s:1365   .text:00000000000008c4 .L0 
     /tmp/cc3wtzn3.s:1366   .text:00000000000008c4 .L0 
     /tmp/cc3wtzn3.s:1368   .text:00000000000008c8 .L0 
     /tmp/cc3wtzn3.s:1370   .text:00000000000008cc .L0 
     /tmp/cc3wtzn3.s:1372   .text:00000000000008d0 .L0 
     /tmp/cc3wtzn3.s:1373   .text:00000000000008d0 .L0 
GAS LISTING /tmp/cc3wtzn3.s 			page 76


     /tmp/cc3wtzn3.s:1375   .text:00000000000008d4 .L0 
     /tmp/cc3wtzn3.s:1376   .text:00000000000008d4 .L0 
     /tmp/cc3wtzn3.s:1378   .text:00000000000008d8 .L0 
     /tmp/cc3wtzn3.s:1381   .text:00000000000008e0 .L0 
     /tmp/cc3wtzn3.s:1382   .text:00000000000008e0 .L0 
     /tmp/cc3wtzn3.s:1390   .text:00000000000008ec .L0 
     /tmp/cc3wtzn3.s:1391   .text:00000000000008ec .L0 
     /tmp/cc3wtzn3.s:1392   .text:00000000000008ec .L0 
     /tmp/cc3wtzn3.s:1395   .text:00000000000008f0 .L0 
     /tmp/cc3wtzn3.s:1396   .text:00000000000008f0 .L0 
     /tmp/cc3wtzn3.s:1399   .text:00000000000008f4 .L0 
     /tmp/cc3wtzn3.s:1402   .text:00000000000008f8 .L0 
     /tmp/cc3wtzn3.s:1403   .text:00000000000008f8 .L0 
     /tmp/cc3wtzn3.s:1405   .text:00000000000008fc .L0 
     /tmp/cc3wtzn3.s:1408   .text:0000000000000900 .L0 
     /tmp/cc3wtzn3.s:1409   .text:0000000000000900 .L0 
     /tmp/cc3wtzn3.s:1411   .text:0000000000000904 .L0 
     /tmp/cc3wtzn3.s:1414   .text:0000000000000908 .L0 
     /tmp/cc3wtzn3.s:1415   .text:0000000000000908 .L0 
     /tmp/cc3wtzn3.s:1417   .text:000000000000090c .L0 
     /tmp/cc3wtzn3.s:1420   .text:0000000000000910 .L0 
     /tmp/cc3wtzn3.s:1421   .text:0000000000000910 .L0 
     /tmp/cc3wtzn3.s:1423   .text:0000000000000914 .L0 
     /tmp/cc3wtzn3.s:1426   .text:0000000000000918 .L0 
     /tmp/cc3wtzn3.s:1427   .text:0000000000000918 .L0 
     /tmp/cc3wtzn3.s:1429   .text:000000000000091c .L0 
     /tmp/cc3wtzn3.s:1432   .text:0000000000000920 .L0 
     /tmp/cc3wtzn3.s:1433   .text:0000000000000920 .L0 
     /tmp/cc3wtzn3.s:1440   .text:0000000000000924 .L0 
     /tmp/cc3wtzn3.s:1444   .text:0000000000000928 .L0 
     /tmp/cc3wtzn3.s:1445   .text:0000000000000928 .L0 
     /tmp/cc3wtzn3.s:1448   .text:0000000000000930 .L0 
     /tmp/cc3wtzn3.s:1449   .text:0000000000000930 .L0 
     /tmp/cc3wtzn3.s:1452   .text:0000000000000934 .L0 
     /tmp/cc3wtzn3.s:1453   .text:0000000000000934 .L0 
     /tmp/cc3wtzn3.s:1456   .text:0000000000000938 .L0 
     /tmp/cc3wtzn3.s:1462   .text:000000000000093c .L0 
     /tmp/cc3wtzn3.s:1463   .text:000000000000093c .L0 
     /tmp/cc3wtzn3.s:1465   .text:0000000000000940 .L0 
     /tmp/cc3wtzn3.s:1469   .text:0000000000000944 .L0 
     /tmp/cc3wtzn3.s:1471   .text:000000000000094c .L0 
     /tmp/cc3wtzn3.s:1473   .text:0000000000000950 .L0 
     /tmp/cc3wtzn3.s:1474   .text:0000000000000950 .L0 
     /tmp/cc3wtzn3.s:1476   .text:0000000000000954 .L0 
     /tmp/cc3wtzn3.s:1478   .text:0000000000000958 .L0 
     /tmp/cc3wtzn3.s:1481   .text:000000000000095c .L0 
     /tmp/cc3wtzn3.s:1484   .text:0000000000000960 .L0 
     /tmp/cc3wtzn3.s:1487   .text:0000000000000964 .L0 
     /tmp/cc3wtzn3.s:1490   .text:0000000000000968 .L0 
     /tmp/cc3wtzn3.s:1492   .text:000000000000096c .L0 
     /tmp/cc3wtzn3.s:1506   .text:000000000000096c _ZN13SlabAllocator10initializeEPvm
     /tmp/cc3wtzn3.s:1509   .text:000000000000096c .L0 
     /tmp/cc3wtzn3.s:1511   .text:000000000000096c .L0 
     /tmp/cc3wtzn3.s:1512   .text:0000000000000970 .L0 
     /tmp/cc3wtzn3.s:1517   .text:0000000000000980 .L0 
     /tmp/cc3wtzn3.s:1518   .text:0000000000000980 .L0 
     /tmp/cc3wtzn3.s:1519   .text:0000000000000980 .L0 
GAS LISTING /tmp/cc3wtzn3.s 			page 77


     /tmp/cc3wtzn3.s:1520   .text:0000000000000980 .L0 
     /tmp/cc3wtzn3.s:1522   .text:0000000000000984 .L0 
     /tmp/cc3wtzn3.s:1524   .text:0000000000000984 .L0 
     /tmp/cc3wtzn3.s:1525   .text:0000000000000984 .L0 
     /tmp/cc3wtzn3.s:1528   .text:000000000000098c .L0 
     /tmp/cc3wtzn3.s:1529   .text:000000000000098c .L0 
     /tmp/cc3wtzn3.s:1535   .text:00000000000009a4 .L0 
     /tmp/cc3wtzn3.s:1538   .text:00000000000009b0 .L0 
     /tmp/cc3wtzn3.s:1539   .text:00000000000009b0 .L0 
     /tmp/cc3wtzn3.s:1541   .text:00000000000009b4 .L0 
     /tmp/cc3wtzn3.s:1542   .text:00000000000009b4 .L0 
     /tmp/cc3wtzn3.s:1544   .text:00000000000009b8 .L0 
     /tmp/cc3wtzn3.s:1545   .text:00000000000009b8 .L0 
     /tmp/cc3wtzn3.s:1547   .text:00000000000009bc .L0 
     /tmp/cc3wtzn3.s:1548   .text:00000000000009bc .L0 
     /tmp/cc3wtzn3.s:1550   .text:00000000000009c0 .L0 
     /tmp/cc3wtzn3.s:1551   .text:00000000000009c0 .L0 
     /tmp/cc3wtzn3.s:1553   .text:00000000000009c4 .L0 
     /tmp/cc3wtzn3.s:1554   .text:00000000000009c4 .L0 
     /tmp/cc3wtzn3.s:1557   .text:00000000000009cc .L0 
     /tmp/cc3wtzn3.s:1558   .text:00000000000009cc .L0 
     /tmp/cc3wtzn3.s:1561   .text:00000000000009d4 .L0 
     /tmp/cc3wtzn3.s:1562   .text:00000000000009d4 .L0 
     /tmp/cc3wtzn3.s:1564   .text:00000000000009d8 .L0 
     /tmp/cc3wtzn3.s:1565   .text:00000000000009d8 .L0 
     /tmp/cc3wtzn3.s:1569   .text:00000000000009e8 .L0 
     /tmp/cc3wtzn3.s:1570   .text:00000000000009e8 .L0 
     /tmp/cc3wtzn3.s:1574   .text:00000000000009f4 .L0 
     /tmp/cc3wtzn3.s:1576   .text:00000000000009f8 .L0 
     /tmp/cc3wtzn3.s:1577   .text:00000000000009f8 .L0 
     /tmp/cc3wtzn3.s:1579   .text:00000000000009fc .L0 
     /tmp/cc3wtzn3.s:1580   .text:00000000000009fc .L0 
     /tmp/cc3wtzn3.s:1582   .text:0000000000000a00 .L0 
     /tmp/cc3wtzn3.s:1583   .text:0000000000000a00 .L0 
     /tmp/cc3wtzn3.s:1585   .text:0000000000000a04 .L0 
     /tmp/cc3wtzn3.s:1586   .text:0000000000000a04 .L0 
     /tmp/cc3wtzn3.s:1588   .text:0000000000000a08 .L0 
     /tmp/cc3wtzn3.s:1589   .text:0000000000000a08 .L0 
     /tmp/cc3wtzn3.s:1591   .text:0000000000000a0c .L0 
     /tmp/cc3wtzn3.s:1592   .text:0000000000000a0c .L0 
     /tmp/cc3wtzn3.s:1595   .text:0000000000000a14 .L0 
     /tmp/cc3wtzn3.s:1596   .text:0000000000000a14 .L0 
     /tmp/cc3wtzn3.s:1599   .text:0000000000000a1c .L0 
     /tmp/cc3wtzn3.s:1600   .text:0000000000000a1c .L0 
     /tmp/cc3wtzn3.s:1602   .text:0000000000000a20 .L0 
     /tmp/cc3wtzn3.s:1604   .text:0000000000000a24 .L0 
     /tmp/cc3wtzn3.s:1605   .text:0000000000000a24 .L0 
     /tmp/cc3wtzn3.s:1610   .text:0000000000000a34 .L0 
     /tmp/cc3wtzn3.s:1611   .text:0000000000000a34 .L0 
     /tmp/cc3wtzn3.s:1616   .text:0000000000000a3c .L0 
     /tmp/cc3wtzn3.s:1617   .text:0000000000000a3c .L0 
     /tmp/cc3wtzn3.s:1619   .text:0000000000000a40 .L0 
     /tmp/cc3wtzn3.s:1630   .text:0000000000000a6c .L0 
     /tmp/cc3wtzn3.s:1634   .text:0000000000000a7c .L0 
     /tmp/cc3wtzn3.s:1638   .text:0000000000000a80 .L0 
     /tmp/cc3wtzn3.s:1642   .text:0000000000000a88 .L0 
     /tmp/cc3wtzn3.s:1643   .text:0000000000000a8c .L0 
GAS LISTING /tmp/cc3wtzn3.s 			page 78


     /tmp/cc3wtzn3.s:1645   .text:0000000000000a90 .L0 
     /tmp/cc3wtzn3.s:1646   .text:0000000000000a90 .L0 
     /tmp/cc3wtzn3.s:1648   .text:0000000000000a94 .L0 
     /tmp/cc3wtzn3.s:1651   .text:0000000000000a98 .L0 
     /tmp/cc3wtzn3.s:1653   .text:0000000000000a9c .L0 
     /tmp/cc3wtzn3.s:1655   .text:0000000000000aa0 .L0 
     /tmp/cc3wtzn3.s:1661   .text:0000000000000aa0 _ZN13SlabAllocator8freeSlotEP4Slabm
     /tmp/cc3wtzn3.s:1664   .text:0000000000000aa0 .L0 
     /tmp/cc3wtzn3.s:1666   .text:0000000000000aa0 .L0 
     /tmp/cc3wtzn3.s:1668   .text:0000000000000aa0 .L0 
     /tmp/cc3wtzn3.s:1669   .text:0000000000000aa0 .L0 
     /tmp/cc3wtzn3.s:1671   .text:0000000000000aa4 .L0 
     /tmp/cc3wtzn3.s:1674   .text:0000000000000aac .L0 
     /tmp/cc3wtzn3.s:1679   .text:0000000000000ab4 .L0 
     /tmp/cc3wtzn3.s:1682   .text:0000000000000abc .L0 
     /tmp/cc3wtzn3.s:1686   .text:0000000000000ac4 .L0 
     /tmp/cc3wtzn3.s:1687   .text:0000000000000ac4 .L0 
     /tmp/cc3wtzn3.s:1690   .text:0000000000000acc .L0 
     /tmp/cc3wtzn3.s:1698   .text:0000000000000adc .L0 
     /tmp/cc3wtzn3.s:1699   .text:0000000000000adc .L0 
     /tmp/cc3wtzn3.s:1700   .text:0000000000000adc .L0 
     /tmp/cc3wtzn3.s:1705   .text:0000000000000ae0 .L0 
     /tmp/cc3wtzn3.s:1707   .text:0000000000000ae4 .L0 
     /tmp/cc3wtzn3.s:1710   .text:0000000000000ae8 .L0 
     /tmp/cc3wtzn3.s:1714   .text:0000000000000aec .L0 
     /tmp/cc3wtzn3.s:1715   .text:0000000000000aec .L0 
     /tmp/cc3wtzn3.s:1721   .text:0000000000000af4 .L0 
     /tmp/cc3wtzn3.s:1722   .text:0000000000000af4 .L0 
     /tmp/cc3wtzn3.s:1723   .text:0000000000000af4 .L0 
     /tmp/cc3wtzn3.s:1728   .text:0000000000000af8 .L0 
     /tmp/cc3wtzn3.s:1730   .text:0000000000000afc .L0 
     /tmp/cc3wtzn3.s:1732   .text:0000000000000b00 .L0 
     /tmp/cc3wtzn3.s:1736   .text:0000000000000b04 .L0 
     /tmp/cc3wtzn3.s:1737   .text:0000000000000b04 .L0 
     /tmp/cc3wtzn3.s:1739   .text:0000000000000b08 .L0 
     /tmp/cc3wtzn3.s:1741   .text:0000000000000b0c .L0 
     /tmp/cc3wtzn3.s:1745   .text:0000000000000b10 .L0 
     /tmp/cc3wtzn3.s:1746   .text:0000000000000b14 .L0 
     /tmp/cc3wtzn3.s:1749   .text:0000000000000b1c .L0 
     /tmp/cc3wtzn3.s:1750   .text:0000000000000b1c .L0 
     /tmp/cc3wtzn3.s:1752   .text:0000000000000b20 .L0 
     /tmp/cc3wtzn3.s:1756   .text:0000000000000b20 .L0 
     /tmp/cc3wtzn3.s:1757   .text:0000000000000b20 .L0 
     /tmp/cc3wtzn3.s:1762   .text:0000000000000b28 .L0 
     /tmp/cc3wtzn3.s:1763   .text:0000000000000b2c .L0 
     /tmp/cc3wtzn3.s:1765   .text:0000000000000b30 .L0 
     /tmp/cc3wtzn3.s:1766   .text:0000000000000b30 .L0 
     /tmp/cc3wtzn3.s:1768   .text:0000000000000b34 .L0 
     /tmp/cc3wtzn3.s:1775   .text:0000000000000b38 .L0 
     /tmp/cc3wtzn3.s:1778   .text:0000000000000b3c .L0 
     /tmp/cc3wtzn3.s:1783   .text:0000000000000b44 .L0 
     /tmp/cc3wtzn3.s:1785   .text:0000000000000b48 .L0 
     /tmp/cc3wtzn3.s:1792   .text:0000000000000b54 .L0 
     /tmp/cc3wtzn3.s:1798   .text:0000000000000b54 _ZN13SlabAllocator10freeObjectEP5CachePKv
     /tmp/cc3wtzn3.s:1801   .text:0000000000000b54 .L0 
     /tmp/cc3wtzn3.s:1803   .text:0000000000000b54 .L0 
     /tmp/cc3wtzn3.s:1804   .text:0000000000000b58 .L0 
GAS LISTING /tmp/cc3wtzn3.s 			page 79


     /tmp/cc3wtzn3.s:1809   .text:0000000000000b68 .L0 
     /tmp/cc3wtzn3.s:1810   .text:0000000000000b68 .L0 
     /tmp/cc3wtzn3.s:1811   .text:0000000000000b68 .L0 
     /tmp/cc3wtzn3.s:1812   .text:0000000000000b68 .L0 
     /tmp/cc3wtzn3.s:1814   .text:0000000000000b6c .L0 
     /tmp/cc3wtzn3.s:1818   .text:0000000000000b74 .L0 
     /tmp/cc3wtzn3.s:1819   .text:0000000000000b74 .L0 
     /tmp/cc3wtzn3.s:1821   .text:0000000000000b78 .L0 
     /tmp/cc3wtzn3.s:1823   .text:0000000000000b7c .L0 
     /tmp/cc3wtzn3.s:1824   .text:0000000000000b7c .L0 
     /tmp/cc3wtzn3.s:1830   .text:0000000000000b84 .L0 
     /tmp/cc3wtzn3.s:1831   .text:0000000000000b84 .L0 
     /tmp/cc3wtzn3.s:1833   .text:0000000000000b88 .L0 
     /tmp/cc3wtzn3.s:1835   .text:0000000000000b8c .L0 
     /tmp/cc3wtzn3.s:1836   .text:0000000000000b8c .L0 
     /tmp/cc3wtzn3.s:1841   .text:0000000000000b94 .L0 
     /tmp/cc3wtzn3.s:1842   .text:0000000000000b94 .L0 
     /tmp/cc3wtzn3.s:1851   .text:0000000000000b9c .L0 
     /tmp/cc3wtzn3.s:1852   .text:0000000000000b9c .L0 
     /tmp/cc3wtzn3.s:1857   .text:0000000000000ba0 .L0 
     /tmp/cc3wtzn3.s:1858   .text:0000000000000ba0 .L0 
     /tmp/cc3wtzn3.s:1864   .text:0000000000000ba4 .L0 
     /tmp/cc3wtzn3.s:1865   .text:0000000000000ba4 .L0 
     /tmp/cc3wtzn3.s:1866   .text:0000000000000ba4 .L0 
     /tmp/cc3wtzn3.s:1868   .text:0000000000000ba8 .L0 
     /tmp/cc3wtzn3.s:1870   .text:0000000000000bac .L0 
     /tmp/cc3wtzn3.s:1872   .text:0000000000000bb0 .L0 
     /tmp/cc3wtzn3.s:1874   .text:0000000000000bb4 .L0 
     /tmp/cc3wtzn3.s:1876   .text:0000000000000bb8 .L0 
     /tmp/cc3wtzn3.s:1884   .text:0000000000000bbc .L0 
     /tmp/cc3wtzn3.s:1888   .text:0000000000000bbc .L0 
     /tmp/cc3wtzn3.s:1890   .text:0000000000000bbc .L0 
     /tmp/cc3wtzn3.s:1892   .text:0000000000000bc0 .L0 
     /tmp/cc3wtzn3.s:1895   .text:0000000000000bc4 .L0 
     /tmp/cc3wtzn3.s:1896   .text:0000000000000bc4 .L0 
     /tmp/cc3wtzn3.s:1899   .text:0000000000000bc8 .L0 
     /tmp/cc3wtzn3.s:1900   .text:0000000000000bc8 .L0 
     /tmp/cc3wtzn3.s:1905   .text:0000000000000bd4 .L0 
     /tmp/cc3wtzn3.s:1906   .text:0000000000000bd4 .L0 
     /tmp/cc3wtzn3.s:1914   .text:0000000000000bdc .L0 
     /tmp/cc3wtzn3.s:1920   .text:0000000000000be0 .L0 
     /tmp/cc3wtzn3.s:1924   .text:0000000000000be4 .L0 
     /tmp/cc3wtzn3.s:1925   .text:0000000000000be8 .L0 
     /tmp/cc3wtzn3.s:1926   .text:0000000000000be8 .L0 
     /tmp/cc3wtzn3.s:1928   .text:0000000000000bec .L0 
     /tmp/cc3wtzn3.s:1929   .text:0000000000000bec .L0 
     /tmp/cc3wtzn3.s:1931   .text:0000000000000bf0 .L0 
     /tmp/cc3wtzn3.s:1934   .text:0000000000000bf4 .L0 
     /tmp/cc3wtzn3.s:1937   .text:0000000000000bf8 .L0 
     /tmp/cc3wtzn3.s:1941   .text:0000000000000bfc .L0 
     /tmp/cc3wtzn3.s:1943   .text:0000000000000bfc .L0 
     /tmp/cc3wtzn3.s:1944   .text:0000000000000bfc .L0 
     /tmp/cc3wtzn3.s:1953   .text:0000000000000c04 .L0 
     /tmp/cc3wtzn3.s:1954   .text:0000000000000c04 .L0 
     /tmp/cc3wtzn3.s:1959   .text:0000000000000c08 .L0 
     /tmp/cc3wtzn3.s:1960   .text:0000000000000c08 .L0 
     /tmp/cc3wtzn3.s:1966   .text:0000000000000c0c .L0 
GAS LISTING /tmp/cc3wtzn3.s 			page 80


     /tmp/cc3wtzn3.s:1967   .text:0000000000000c0c .L0 
     /tmp/cc3wtzn3.s:1968   .text:0000000000000c0c .L0 
     /tmp/cc3wtzn3.s:1970   .text:0000000000000c10 .L0 
     /tmp/cc3wtzn3.s:1972   .text:0000000000000c14 .L0 
     /tmp/cc3wtzn3.s:1974   .text:0000000000000c18 .L0 
     /tmp/cc3wtzn3.s:1976   .text:0000000000000c1c .L0 
     /tmp/cc3wtzn3.s:1978   .text:0000000000000c20 .L0 
     /tmp/cc3wtzn3.s:1986   .text:0000000000000c24 .L0 
     /tmp/cc3wtzn3.s:1990   .text:0000000000000c24 .L0 
     /tmp/cc3wtzn3.s:1992   .text:0000000000000c24 .L0 
     /tmp/cc3wtzn3.s:1994   .text:0000000000000c28 .L0 
     /tmp/cc3wtzn3.s:1997   .text:0000000000000c2c .L0 
     /tmp/cc3wtzn3.s:1998   .text:0000000000000c2c .L0 
     /tmp/cc3wtzn3.s:2001   .text:0000000000000c30 .L0 
     /tmp/cc3wtzn3.s:2002   .text:0000000000000c30 .L0 
     /tmp/cc3wtzn3.s:2009   .text:0000000000000c40 .L0 
     /tmp/cc3wtzn3.s:2010   .text:0000000000000c40 .L0 
     /tmp/cc3wtzn3.s:2017   .text:0000000000000c48 .L0 
     /tmp/cc3wtzn3.s:2023   .text:0000000000000c48 _ZN13SlabAllocator10freeBufferEPKv
     /tmp/cc3wtzn3.s:2026   .text:0000000000000c48 .L0 
     /tmp/cc3wtzn3.s:2028   .text:0000000000000c48 .L0 
     /tmp/cc3wtzn3.s:2029   .text:0000000000000c4c .L0 
     /tmp/cc3wtzn3.s:2034   .text:0000000000000c5c .L0 
     /tmp/cc3wtzn3.s:2035   .text:0000000000000c5c .L0 
     /tmp/cc3wtzn3.s:2036   .text:0000000000000c5c .L0 
     /tmp/cc3wtzn3.s:2037   .text:0000000000000c5c .L0 
     /tmp/cc3wtzn3.s:2039   .text:0000000000000c60 .L0 
     /tmp/cc3wtzn3.s:2044   .text:0000000000000c64 .L0 
     /tmp/cc3wtzn3.s:2045   .text:0000000000000c64 .L0 
     /tmp/cc3wtzn3.s:2049   .text:0000000000000c68 .L0 
     /tmp/cc3wtzn3.s:2052   .text:0000000000000c70 .L0 
     /tmp/cc3wtzn3.s:2053   .text:0000000000000c70 .L0 
     /tmp/cc3wtzn3.s:2061   .text:0000000000000c90 .L0 
     /tmp/cc3wtzn3.s:2063   .text:0000000000000c94 .L0 
     /tmp/cc3wtzn3.s:2070   .text:0000000000000c9c .L0 
     /tmp/cc3wtzn3.s:2071   .text:0000000000000ca0 .L0 
     /tmp/cc3wtzn3.s:2073   .text:0000000000000ca4 .L0 
     /tmp/cc3wtzn3.s:2074   .text:0000000000000ca4 .L0 
     /tmp/cc3wtzn3.s:2076   .text:0000000000000ca8 .L0 
     /tmp/cc3wtzn3.s:2079   .text:0000000000000cac .L0 
     /tmp/cc3wtzn3.s:2082   .text:0000000000000cb0 .L0 
     /tmp/cc3wtzn3.s:2084   .text:0000000000000cb4 .L0 
     /tmp/cc3wtzn3.s:2090   .text:0000000000000cb4 _ZN13SlabAllocator11shrinkCacheEP5Cache
     /tmp/cc3wtzn3.s:2093   .text:0000000000000cb4 .L0 
     /tmp/cc3wtzn3.s:2095   .text:0000000000000cb4 .L0 
     /tmp/cc3wtzn3.s:2096   .text:0000000000000cb8 .L0 
     /tmp/cc3wtzn3.s:2101   .text:0000000000000cc8 .L0 
     /tmp/cc3wtzn3.s:2102   .text:0000000000000cc8 .L0 
     /tmp/cc3wtzn3.s:2103   .text:0000000000000cc8 .L0 
     /tmp/cc3wtzn3.s:2104   .text:0000000000000cc8 .L0 
     /tmp/cc3wtzn3.s:2106   .text:0000000000000ccc .L0 
     /tmp/cc3wtzn3.s:2110   .text:0000000000000cd0 .L0 
     /tmp/cc3wtzn3.s:2111   .text:0000000000000cd0 .L0 
     /tmp/cc3wtzn3.s:2116   .text:0000000000000cd8 .L0 
     /tmp/cc3wtzn3.s:2117   .text:0000000000000cd8 .L0 
     /tmp/cc3wtzn3.s:2121   .text:0000000000000ce4 .L0 
     /tmp/cc3wtzn3.s:2122   .text:0000000000000ce4 .L0 
GAS LISTING /tmp/cc3wtzn3.s 			page 81


     /tmp/cc3wtzn3.s:2128   .text:0000000000000cf8 .L0 
     /tmp/cc3wtzn3.s:2129   .text:0000000000000cf8 .L0 
     /tmp/cc3wtzn3.s:2131   .text:0000000000000cfc .L0 
     /tmp/cc3wtzn3.s:2133   .text:0000000000000d00 .L0 
     /tmp/cc3wtzn3.s:2137   .text:0000000000000d04 .L0 
     /tmp/cc3wtzn3.s:2138   .text:0000000000000d04 .L0 
     /tmp/cc3wtzn3.s:2141   .text:0000000000000d0c .L0 
     /tmp/cc3wtzn3.s:2142   .text:0000000000000d0c .L0 
     /tmp/cc3wtzn3.s:2144   .text:0000000000000d10 .L0 
     /tmp/cc3wtzn3.s:2147   .text:0000000000000d18 .L0 
     /tmp/cc3wtzn3.s:2150   .text:0000000000000d1c .L0 
     /tmp/cc3wtzn3.s:2151   .text:0000000000000d1c .L0 
     /tmp/cc3wtzn3.s:2153   .text:0000000000000d20 .L0 
     /tmp/cc3wtzn3.s:2156   .text:0000000000000d28 .L0 
     /tmp/cc3wtzn3.s:2157   .text:0000000000000d28 .L0 
     /tmp/cc3wtzn3.s:2163   .text:0000000000000d34 .L0 
     /tmp/cc3wtzn3.s:2164   .text:0000000000000d34 .L0 
     /tmp/cc3wtzn3.s:2166   .text:0000000000000d3c .L0 
     /tmp/cc3wtzn3.s:2168   .text:0000000000000d40 .L0 
     /tmp/cc3wtzn3.s:2169   .text:0000000000000d40 .L0 
     /tmp/cc3wtzn3.s:2171   .text:0000000000000d44 .L0 
     /tmp/cc3wtzn3.s:2174   .text:0000000000000d48 .L0 
     /tmp/cc3wtzn3.s:2177   .text:0000000000000d4c .L0 
     /tmp/cc3wtzn3.s:2179   .text:0000000000000d50 .L0 
     /tmp/cc3wtzn3.s:2185   .text:0000000000000d50 _ZN13SlabAllocator11deleteCacheERP5Cache
     /tmp/cc3wtzn3.s:2188   .text:0000000000000d50 .L0 
     /tmp/cc3wtzn3.s:2190   .text:0000000000000d50 .L0 
     /tmp/cc3wtzn3.s:2191   .text:0000000000000d54 .L0 
     /tmp/cc3wtzn3.s:2196   .text:0000000000000d64 .L0 
     /tmp/cc3wtzn3.s:2197   .text:0000000000000d64 .L0 
     /tmp/cc3wtzn3.s:2198   .text:0000000000000d64 .L0 
     /tmp/cc3wtzn3.s:2199   .text:0000000000000d64 .L0 
     /tmp/cc3wtzn3.s:2201   .text:0000000000000d68 .L0 
     /tmp/cc3wtzn3.s:2204   .text:0000000000000d6c .L0 
     /tmp/cc3wtzn3.s:2205   .text:0000000000000d6c .L0 
     /tmp/cc3wtzn3.s:2207   .text:0000000000000d70 .L0 
     /tmp/cc3wtzn3.s:2215   .text:0000000000000d78 .L0 
     /tmp/cc3wtzn3.s:2216   .text:0000000000000d78 .L0 
     /tmp/cc3wtzn3.s:2221   .text:0000000000000d88 .L0 
     /tmp/cc3wtzn3.s:2222   .text:0000000000000d88 .L0 
     /tmp/cc3wtzn3.s:2228   .text:0000000000000d9c .L0 
     /tmp/cc3wtzn3.s:2229   .text:0000000000000d9c .L0 
     /tmp/cc3wtzn3.s:2231   .text:0000000000000da0 .L0 
     /tmp/cc3wtzn3.s:2233   .text:0000000000000da4 .L0 
     /tmp/cc3wtzn3.s:2236   .text:0000000000000da8 .L0 
     /tmp/cc3wtzn3.s:2237   .text:0000000000000da8 .L0 
     /tmp/cc3wtzn3.s:2240   .text:0000000000000db0 .L0 
     /tmp/cc3wtzn3.s:2241   .text:0000000000000db0 .L0 
     /tmp/cc3wtzn3.s:2243   .text:0000000000000db4 .L0 
     /tmp/cc3wtzn3.s:2245   .text:0000000000000db8 .L0 
     /tmp/cc3wtzn3.s:2248   .text:0000000000000dc0 .L0 
     /tmp/cc3wtzn3.s:2249   .text:0000000000000dc0 .L0 
     /tmp/cc3wtzn3.s:2258   .text:0000000000000dd0 .L0 
     /tmp/cc3wtzn3.s:2259   .text:0000000000000dd0 .L0 
     /tmp/cc3wtzn3.s:2261   .text:0000000000000dd4 .L0 
     /tmp/cc3wtzn3.s:2268   .text:0000000000000ddc .L0 
     /tmp/cc3wtzn3.s:2269   .text:0000000000000ddc .L0 
GAS LISTING /tmp/cc3wtzn3.s 			page 82


     /tmp/cc3wtzn3.s:2274   .text:0000000000000dec .L0 
     /tmp/cc3wtzn3.s:2275   .text:0000000000000dec .L0 
     /tmp/cc3wtzn3.s:2281   .text:0000000000000e00 .L0 
     /tmp/cc3wtzn3.s:2282   .text:0000000000000e00 .L0 
     /tmp/cc3wtzn3.s:2284   .text:0000000000000e04 .L0 
     /tmp/cc3wtzn3.s:2286   .text:0000000000000e08 .L0 
     /tmp/cc3wtzn3.s:2289   .text:0000000000000e0c .L0 
     /tmp/cc3wtzn3.s:2290   .text:0000000000000e0c .L0 
     /tmp/cc3wtzn3.s:2293   .text:0000000000000e14 .L0 
     /tmp/cc3wtzn3.s:2294   .text:0000000000000e14 .L0 
     /tmp/cc3wtzn3.s:2296   .text:0000000000000e18 .L0 
     /tmp/cc3wtzn3.s:2298   .text:0000000000000e1c .L0 
     /tmp/cc3wtzn3.s:2301   .text:0000000000000e24 .L0 
     /tmp/cc3wtzn3.s:2302   .text:0000000000000e24 .L0 
     /tmp/cc3wtzn3.s:2311   .text:0000000000000e34 .L0 
     /tmp/cc3wtzn3.s:2312   .text:0000000000000e34 .L0 
     /tmp/cc3wtzn3.s:2314   .text:0000000000000e38 .L0 
     /tmp/cc3wtzn3.s:2321   .text:0000000000000e40 .L0 
     /tmp/cc3wtzn3.s:2322   .text:0000000000000e40 .L0 
     /tmp/cc3wtzn3.s:2327   .text:0000000000000e50 .L0 
     /tmp/cc3wtzn3.s:2328   .text:0000000000000e50 .L0 
     /tmp/cc3wtzn3.s:2334   .text:0000000000000e64 .L0 
     /tmp/cc3wtzn3.s:2335   .text:0000000000000e64 .L0 
     /tmp/cc3wtzn3.s:2337   .text:0000000000000e68 .L0 
     /tmp/cc3wtzn3.s:2339   .text:0000000000000e6c .L0 
     /tmp/cc3wtzn3.s:2342   .text:0000000000000e70 .L0 
     /tmp/cc3wtzn3.s:2343   .text:0000000000000e70 .L0 
     /tmp/cc3wtzn3.s:2346   .text:0000000000000e78 .L0 
     /tmp/cc3wtzn3.s:2347   .text:0000000000000e78 .L0 
     /tmp/cc3wtzn3.s:2349   .text:0000000000000e7c .L0 
     /tmp/cc3wtzn3.s:2351   .text:0000000000000e80 .L0 
     /tmp/cc3wtzn3.s:2354   .text:0000000000000e88 .L0 
     /tmp/cc3wtzn3.s:2355   .text:0000000000000e88 .L0 
     /tmp/cc3wtzn3.s:2364   .text:0000000000000e98 .L0 
     /tmp/cc3wtzn3.s:2365   .text:0000000000000e98 .L0 
     /tmp/cc3wtzn3.s:2370   .text:0000000000000eac .L0 
     /tmp/cc3wtzn3.s:2371   .text:0000000000000eac .L0 
     /tmp/cc3wtzn3.s:2373   .text:0000000000000eb0 .L0 
     /tmp/cc3wtzn3.s:2374   .text:0000000000000eb4 .L0 
     /tmp/cc3wtzn3.s:2376   .text:0000000000000eb8 .L0 
     /tmp/cc3wtzn3.s:2377   .text:0000000000000eb8 .L0 
     /tmp/cc3wtzn3.s:2379   .text:0000000000000ebc .L0 
     /tmp/cc3wtzn3.s:2382   .text:0000000000000ec0 .L0 
     /tmp/cc3wtzn3.s:2384   .text:0000000000000ec4 .L0 
     /tmp/cc3wtzn3.s:2386   .text:0000000000000ec8 .L0 
     /tmp/cc3wtzn3.s:2403   .text:0000000000000ec8 _ZN13SlabAllocator17cacheErrorHandlerEP5Cache
     /tmp/cc3wtzn3.s:2406   .text:0000000000000ec8 .L0 
     /tmp/cc3wtzn3.s:2408   .text:0000000000000ec8 .L0 
     /tmp/cc3wtzn3.s:2409   .text:0000000000000ecc .L0 
     /tmp/cc3wtzn3.s:2413   .text:0000000000000ed8 .L0 
     /tmp/cc3wtzn3.s:2414   .text:0000000000000ed8 .L0 
     /tmp/cc3wtzn3.s:2415   .text:0000000000000ed8 .L0 
     /tmp/cc3wtzn3.s:2417   .text:0000000000000edc .L0 
     /tmp/cc3wtzn3.s:2420   .text:0000000000000ee0 .L0 
     /tmp/cc3wtzn3.s:2421   .text:0000000000000ee0 .L0 
     /tmp/cc3wtzn3.s:2423   .text:0000000000000ee4 .L0 
     /tmp/cc3wtzn3.s:2431   .text:0000000000000ef8 .L0 
GAS LISTING /tmp/cc3wtzn3.s 			page 83


     /tmp/cc3wtzn3.s:2432   .text:0000000000000ef8 .L0 
     /tmp/cc3wtzn3.s:2434   .text:0000000000000f00 .L0 
     /tmp/cc3wtzn3.s:2435   .text:0000000000000f00 .L0 
     /tmp/cc3wtzn3.s:2437   .text:0000000000000f04 .L0 
     /tmp/cc3wtzn3.s:2438   .text:0000000000000f04 .L0 
     /tmp/cc3wtzn3.s:2440   .text:0000000000000f08 .L0 
     /tmp/cc3wtzn3.s:2443   .text:0000000000000f0c .L0 
     /tmp/cc3wtzn3.s:2447   .text:0000000000000f10 .L0 
     /tmp/cc3wtzn3.s:2449   .text:0000000000000f10 .L0 
     /tmp/cc3wtzn3.s:2450   .text:0000000000000f10 .L0 
     /tmp/cc3wtzn3.s:2451   .text:0000000000000f10 .L0 
     /tmp/cc3wtzn3.s:2455   .text:0000000000000f20 .L0 
     /tmp/cc3wtzn3.s:2458   .text:0000000000000f24 .L0 
     /tmp/cc3wtzn3.s:2459   .text:0000000000000f24 .L0 
     /tmp/cc3wtzn3.s:2460   .text:0000000000000f24 .L0 
     /tmp/cc3wtzn3.s:2464   .text:0000000000000f34 .L0 
     /tmp/cc3wtzn3.s:2467   .text:0000000000000f38 .L0 
     /tmp/cc3wtzn3.s:2468   .text:0000000000000f38 .L0 
     /tmp/cc3wtzn3.s:2469   .text:0000000000000f38 .L0 
     /tmp/cc3wtzn3.s:2473   .text:0000000000000f48 .L0 
     /tmp/cc3wtzn3.s:2474   .text:0000000000000f4c .L0 
     /tmp/cc3wtzn3.s:2541   .data.rel.local:0000000000000000 _ZN13SlabAllocator5namesE
     /tmp/cc3wtzn3.s:2530   .bss:0000000000000008 _ZN13SlabAllocator5sizeNE
     /tmp/cc3wtzn3.s:2526   .bss:0000000000000000 _ZN13SlabAllocator14largeSlabCacheE
     /tmp/cc3wtzn3.s:2534   .bss:0000000000000070 _ZN13SlabAllocator5cacheE
     /tmp/cc3wtzn3.s:2523   .bss:0000000000000000 .LANCHOR0
     /tmp/cc3wtzn3.s:2538   .data.rel.local:0000000000000000 .LANCHOR1
     /tmp/cc3wtzn3.s:2561   .text:0000000000000f4c .L0 
     /tmp/cc3wtzn3.s:8      .rodata.str1.8:0000000000000000 .LC0
     /tmp/cc3wtzn3.s:69     .text:0000000000000020 .L0 
     /tmp/cc3wtzn3.s:11     .rodata.str1.8:0000000000000018 .LC1
     /tmp/cc3wtzn3.s:76     .text:0000000000000034 .L0 
     /tmp/cc3wtzn3.s:14     .rodata.str1.8:0000000000000020 .LC2
     /tmp/cc3wtzn3.s:78     .text:0000000000000040 .L0 
     /tmp/cc3wtzn3.s:84     .text:0000000000000054 .L0 
     /tmp/cc3wtzn3.s:17     .rodata.str1.8:0000000000000030 .LC3
     /tmp/cc3wtzn3.s:86     .text:0000000000000060 .L0 
     /tmp/cc3wtzn3.s:92     .text:0000000000000074 .L0 
     /tmp/cc3wtzn3.s:20     .rodata.str1.8:0000000000000048 .LC4
     /tmp/cc3wtzn3.s:94     .text:0000000000000080 .L0 
     /tmp/cc3wtzn3.s:100    .text:0000000000000094 .L0 
     /tmp/cc3wtzn3.s:23     .rodata.str1.8:0000000000000060 .LC5
     /tmp/cc3wtzn3.s:102    .text:00000000000000a0 .L0 
     /tmp/cc3wtzn3.s:108    .text:00000000000000b4 .L0 
     /tmp/cc3wtzn3.s:26     .rodata.str1.8:0000000000000078 .LC6
     /tmp/cc3wtzn3.s:110    .text:00000000000000c0 .L0 
     /tmp/cc3wtzn3.s:29     .rodata.str1.8:0000000000000088 .LC7
     /tmp/cc3wtzn3.s:115    .text:00000000000000d0 .L0 
     /tmp/cc3wtzn3.s:32     .rodata.str1.8:00000000000000a8 .LC8
     /tmp/cc3wtzn3.s:130    .text:00000000000000f0 .L0 
     /tmp/cc3wtzn3.s:35     .rodata.str1.8:00000000000000b0 .LC9
     /tmp/cc3wtzn3.s:132    .text:00000000000000fc .L0 
     /tmp/cc3wtzn3.s:151    .text:0000000000000120 .L0 
     /tmp/cc3wtzn3.s:179    .rodata.str1.8:00000000000000b8 .LC10
     /tmp/cc3wtzn3.s:233    .text:000000000000016c .L0 
     /tmp/cc3wtzn3.s:182    .rodata.str1.8:00000000000000d8 .LC11
     /tmp/cc3wtzn3.s:239    .text:000000000000017c .L0 
GAS LISTING /tmp/cc3wtzn3.s 			page 84


     /tmp/cc3wtzn3.s:249    .text:0000000000000198 .L0 
     /tmp/cc3wtzn3.s:255    .text:00000000000001ac .L0 
     /tmp/cc3wtzn3.s:185    .rodata.str1.8:00000000000000e8 .LC12
     /tmp/cc3wtzn3.s:257    .text:00000000000001b8 .L0 
     /tmp/cc3wtzn3.s:263    .text:00000000000001cc .L0 
     /tmp/cc3wtzn3.s:188    .rodata.str1.8:00000000000000f8 .LC13
     /tmp/cc3wtzn3.s:265    .text:00000000000001d8 .L0 
     /tmp/cc3wtzn3.s:271    .text:00000000000001ec .L0 
     /tmp/cc3wtzn3.s:191    .rodata.str1.8:0000000000000110 .LC14
     /tmp/cc3wtzn3.s:273    .text:00000000000001f8 .L0 
     /tmp/cc3wtzn3.s:279    .text:000000000000020c .L0 
     /tmp/cc3wtzn3.s:194    .rodata.str1.8:0000000000000128 .LC15
     /tmp/cc3wtzn3.s:281    .text:0000000000000218 .L0 
     /tmp/cc3wtzn3.s:293    .text:0000000000000234 .L0 
     /tmp/cc3wtzn3.s:295    .text:0000000000000240 .L0 
     /tmp/cc3wtzn3.s:308    .text:0000000000000258 .L0 
     /tmp/cc3wtzn3.s:314    .text:000000000000026c .L0 
     /tmp/cc3wtzn3.s:197    .rodata.str1.8:0000000000000138 .LC16
     /tmp/cc3wtzn3.s:316    .text:0000000000000278 .L0 
     /tmp/cc3wtzn3.s:330    .text:0000000000000294 .L0 
     /tmp/cc3wtzn3.s:332    .text:00000000000002a0 .L0 
     /tmp/cc3wtzn3.s:344    .text:00000000000002b8 .L0 
     /tmp/cc3wtzn3.s:350    .text:00000000000002cc .L0 
     /tmp/cc3wtzn3.s:200    .rodata.str1.8:0000000000000148 .LC17
     /tmp/cc3wtzn3.s:352    .text:00000000000002d8 .L0 
     /tmp/cc3wtzn3.s:364    .text:00000000000002f4 .L0 
     /tmp/cc3wtzn3.s:366    .text:0000000000000300 .L0 
     /tmp/cc3wtzn3.s:379    .text:0000000000000318 .L0 
     /tmp/cc3wtzn3.s:1053   .text:00000000000006e0 .L0 
     /tmp/cc3wtzn3.s:1288   .text:0000000000000830 .L0 
     /tmp/cc3wtzn3.s:1343   .text:0000000000000894 .L0 
     /tmp/cc3wtzn3.s:1529   .text:000000000000098c .L0 
     /tmp/cc3wtzn3.s:1535   .text:00000000000009a4 .L0 
     /tmp/cc3wtzn3.s:1497   .rodata.str1.8:0000000000000158 .LC18
     /tmp/cc3wtzn3.s:1565   .text:00000000000009d8 .L0 
     /tmp/cc3wtzn3.s:1500   .rodata.str1.8:0000000000000168 .LC19
     /tmp/cc3wtzn3.s:1605   .text:0000000000000a24 .L0 
     /tmp/cc3wtzn3.s:1620   .text:0000000000000a44 .L0 
     /tmp/cc3wtzn3.s:1630   .text:0000000000000a6c .L0 
     /tmp/cc3wtzn3.s:2054   .text:0000000000000c74 .L0 
     /tmp/cc3wtzn3.s:2123   .text:0000000000000ce8 .L0 
     /tmp/cc3wtzn3.s:2223   .text:0000000000000d8c .L0 
     /tmp/cc3wtzn3.s:2276   .text:0000000000000df0 .L0 
     /tmp/cc3wtzn3.s:2329   .text:0000000000000e54 .L0 
     /tmp/cc3wtzn3.s:2366   .text:0000000000000e9c .L0 
     /tmp/cc3wtzn3.s:2391   .rodata.str1.8:0000000000000180 .LC20
     /tmp/cc3wtzn3.s:2451   .text:0000000000000f10 .L0 
     /tmp/cc3wtzn3.s:2394   .rodata.str1.8:0000000000000190 .LC21
     /tmp/cc3wtzn3.s:2460   .text:0000000000000f24 .L0 
     /tmp/cc3wtzn3.s:2397   .rodata.str1.8:00000000000001a8 .LC22
     /tmp/cc3wtzn3.s:2469   .text:0000000000000f38 .L0 
     /tmp/cc3wtzn3.s:172    .text:0000000000000148 .L6
     /tmp/cc3wtzn3.s:138    .text:0000000000000110 .L4
     /tmp/cc3wtzn3.s:124    .text:00000000000000e8 .L9
     /tmp/cc3wtzn3.s:400    .text:0000000000000340 .L19
     /tmp/cc3wtzn3.s:302    .text:0000000000000254 .L13
     /tmp/cc3wtzn3.s:289    .text:0000000000000230 .L22
GAS LISTING /tmp/cc3wtzn3.s 			page 85


     /tmp/cc3wtzn3.s:341    .text:00000000000002b8 .L14
     /tmp/cc3wtzn3.s:323    .text:000000000000028c .L15
     /tmp/cc3wtzn3.s:373    .text:0000000000000314 .L17
     /tmp/cc3wtzn3.s:360    .text:00000000000002f0 .L23
     /tmp/cc3wtzn3.s:429    .text:0000000000000360 .L25
     /tmp/cc3wtzn3.s:546    .text:0000000000000420 .L37
     /tmp/cc3wtzn3.s:512    .text:00000000000003f0 .L30
     /tmp/cc3wtzn3.s:558    .text:0000000000000430 .L31
     /tmp/cc3wtzn3.s:527    .text:0000000000000400 .L32
     /tmp/cc3wtzn3.s:605    .text:0000000000000474 .L29
     /tmp/cc3wtzn3.s:595    .text:0000000000000468 .L34
     /tmp/cc3wtzn3.s:602    .text:0000000000000470 .L35
     /tmp/cc3wtzn3.s:569    .text:000000000000043c .L33
     /tmp/cc3wtzn3.s:681    .text:00000000000004d8 .L43
     /tmp/cc3wtzn3.s:655    .text:00000000000004b4 .L40
     /tmp/cc3wtzn3.s:666    .text:00000000000004c4 .L41
     /tmp/cc3wtzn3.s:644    .text:00000000000004a4 .L39
     /tmp/cc3wtzn3.s:894    .text:0000000000000608 .L47
     /tmp/cc3wtzn3.s:799    .text:0000000000000588 .L57
     /tmp/cc3wtzn3.s:771    .text:0000000000000558 .L55
     /tmp/cc3wtzn3.s:879    .text:00000000000005f0 .L58
     /tmp/cc3wtzn3.s:887    .text:00000000000005fc .L51
     /tmp/cc3wtzn3.s:863    .text:00000000000005d8 .L53
     /tmp/cc3wtzn3.s:908    .text:0000000000000618 .L46
     /tmp/cc3wtzn3.s:828    .text:00000000000005ac .L50
     /tmp/cc3wtzn3.s:849    .text:00000000000005c0 .L52
     /tmp/cc3wtzn3.s:971    .text:000000000000066c .L60
     /tmp/cc3wtzn3.s:953    .text:0000000000000654 .L61
     /tmp/cc3wtzn3.s:998    .text:0000000000000690 .L72
     /tmp/cc3wtzn3.s:1021   .text:00000000000006ac .L63
     /tmp/cc3wtzn3.s:1004   .text:0000000000000694 .L64
     /tmp/cc3wtzn3.s:978    .text:0000000000000670 .L59
     /tmp/cc3wtzn3.s:1049   .text:00000000000006e0 .L65
     /tmp/cc3wtzn3.s:1083   .text:0000000000000728 .L66
     /tmp/cc3wtzn3.s:1122   .text:0000000000000764 .L67
     /tmp/cc3wtzn3.s:1104   .text:0000000000000744 .L68
     /tmp/cc3wtzn3.s:1160   .text:000000000000079c .L69
     /tmp/cc3wtzn3.s:1134   .text:0000000000000770 .L70
     /tmp/cc3wtzn3.s:1261   .text:0000000000000810 .L74
     /tmp/cc3wtzn3.s:1245   .text:00000000000007fc .L75
     /tmp/cc3wtzn3.s:1303   .text:0000000000000858 .L77
     /tmp/cc3wtzn3.s:1467   .text:0000000000000944 .L82
     /tmp/cc3wtzn3.s:1385   .text:00000000000008ec .L84
     /tmp/cc3wtzn3.s:1457   .text:000000000000093c .L85
     /tmp/cc3wtzn3.s:1441   .text:0000000000000928 .L86
     /tmp/cc3wtzn3.s:1636   .text:0000000000000a80 .L90
     /tmp/cc3wtzn3.s:1614   .text:0000000000000a3c .L92
     /tmp/cc3wtzn3.s:1788   .text:0000000000000b50 .L100
     /tmp/cc3wtzn3.s:1771   .text:0000000000000b38 .L95
     /tmp/cc3wtzn3.s:1781   .text:0000000000000b44 .L103
     /tmp/cc3wtzn3.s:1711   .text:0000000000000aec .L96
     /tmp/cc3wtzn3.s:1733   .text:0000000000000b04 .L98
     /tmp/cc3wtzn3.s:1828   .text:0000000000000b84 .L105
     /tmp/cc3wtzn3.s:1839   .text:0000000000000b94 .L106
     /tmp/cc3wtzn3.s:1854   .text:0000000000000ba0 .L109
     /tmp/cc3wtzn3.s:1909   .text:0000000000000bdc .L114
     /tmp/cc3wtzn3.s:1846   .text:0000000000000b9c .L108
GAS LISTING /tmp/cc3wtzn3.s 			page 86


     /tmp/cc3wtzn3.s:1916   .text:0000000000000be0 .L107
     /tmp/cc3wtzn3.s:1940   .text:0000000000000bfc .L116
     /tmp/cc3wtzn3.s:1956   .text:0000000000000c08 .L113
     /tmp/cc3wtzn3.s:1922   .text:0000000000000be4 .L110
     /tmp/cc3wtzn3.s:1948   .text:0000000000000c04 .L112
     /tmp/cc3wtzn3.s:2067   .text:0000000000000c9c .L117
     /tmp/cc3wtzn3.s:2047   .text:0000000000000c68 .L119
     /tmp/cc3wtzn3.s:2134   .text:0000000000000d04 .L125
     /tmp/cc3wtzn3.s:2161   .text:0000000000000d34 .L122
     /tmp/cc3wtzn3.s:2114   .text:0000000000000cd8 .L123
     /tmp/cc3wtzn3.s:2126   .text:0000000000000cf8 .L124
     /tmp/cc3wtzn3.s:2234   .text:0000000000000da8 .L131
     /tmp/cc3wtzn3.s:2253   .text:0000000000000dd0 .L128
     /tmp/cc3wtzn3.s:2211   .text:0000000000000d78 .L129
     /tmp/cc3wtzn3.s:2226   .text:0000000000000d9c .L130
     /tmp/cc3wtzn3.s:2287   .text:0000000000000e0c .L135
     /tmp/cc3wtzn3.s:2306   .text:0000000000000e34 .L132
     /tmp/cc3wtzn3.s:2264   .text:0000000000000ddc .L133
     /tmp/cc3wtzn3.s:2279   .text:0000000000000e00 .L134
     /tmp/cc3wtzn3.s:2340   .text:0000000000000e70 .L139
     /tmp/cc3wtzn3.s:2359   .text:0000000000000e98 .L136
     /tmp/cc3wtzn3.s:2317   .text:0000000000000e40 .L137
     /tmp/cc3wtzn3.s:2332   .text:0000000000000e64 .L138
     /tmp/cc3wtzn3.s:2456   .text:0000000000000f24 .L142
     /tmp/cc3wtzn3.s:2465   .text:0000000000000f38 .L143
     /tmp/cc3wtzn3.s:2446   .text:0000000000000f10 .L146
     /tmp/cc3wtzn3.s:2429   .text:0000000000000ef8 .L144
     /tmp/cc3wtzn3.s:2480   .rodata.str1.8:00000000000001c0 .LC23
     /tmp/cc3wtzn3.s:2483   .rodata.str1.8:00000000000001d8 .LC24
     /tmp/cc3wtzn3.s:2486   .rodata.str1.8:00000000000001f0 .LC25
     /tmp/cc3wtzn3.s:2489   .rodata.str1.8:0000000000000208 .LC26
     /tmp/cc3wtzn3.s:2492   .rodata.str1.8:0000000000000220 .LC27
     /tmp/cc3wtzn3.s:2495   .rodata.str1.8:0000000000000238 .LC28
     /tmp/cc3wtzn3.s:2498   .rodata.str1.8:0000000000000250 .LC29
     /tmp/cc3wtzn3.s:2501   .rodata.str1.8:0000000000000268 .LC30
     /tmp/cc3wtzn3.s:2504   .rodata.str1.8:0000000000000280 .LC31
     /tmp/cc3wtzn3.s:2507   .rodata.str1.8:0000000000000298 .LC32
     /tmp/cc3wtzn3.s:2510   .rodata.str1.8:00000000000002b0 .LC33
     /tmp/cc3wtzn3.s:2513   .rodata.str1.8:00000000000002c8 .LC34
     /tmp/cc3wtzn3.s:2516   .rodata.str1.8:00000000000002e0 .LC35
     /tmp/cc3wtzn3.s:5433   .debug_abbrev:0000000000000000 .Ldebug_abbrev0
     /tmp/cc3wtzn3.s:7572   .debug_str:0000000000000099 .LASF165
     /tmp/cc3wtzn3.s:7858   .debug_str:0000000000000a36 .LASF166
     /tmp/cc3wtzn3.s:7578   .debug_str:000000000000017b .LASF167
     /tmp/cc3wtzn3.s:5      .text:0000000000000000 .Ltext0
     /tmp/cc3wtzn3.s:2556   .text:0000000000000f4c .Letext0
     /tmp/cc3wtzn3.s:7556   .debug_line:0000000000000000 .Ldebug_line0
     /tmp/cc3wtzn3.s:7680   .debug_str:00000000000004e1 .LASF0
     /tmp/cc3wtzn3.s:7666   .debug_str:000000000000045b .LASF1
     /tmp/cc3wtzn3.s:7694   .debug_str:0000000000000540 .LASF2
     /tmp/cc3wtzn3.s:7778   .debug_str:00000000000007e3 .LASF3
     /tmp/cc3wtzn3.s:7786   .debug_str:000000000000081c .LASF4
     /tmp/cc3wtzn3.s:7564   .debug_str:000000000000004d .LASF5
     /tmp/cc3wtzn3.s:7758   .debug_str:000000000000075b .LASF6
     /tmp/cc3wtzn3.s:7686   .debug_str:00000000000004fe .LASF7
     /tmp/cc3wtzn3.s:7636   .debug_str:000000000000035a .LASF8
     /tmp/cc3wtzn3.s:7646   .debug_str:00000000000003d6 .LASF9
GAS LISTING /tmp/cc3wtzn3.s 			page 87


     /tmp/cc3wtzn3.s:7592   .debug_str:0000000000000220 .LASF10
     /tmp/cc3wtzn3.s:7630   .debug_str:0000000000000327 .LASF11
     /tmp/cc3wtzn3.s:7602   .debug_str:000000000000024e .LASF12
     /tmp/cc3wtzn3.s:7590   .debug_str:0000000000000210 .LASF13
     /tmp/cc3wtzn3.s:7812   .debug_str:00000000000008d6 .LASF14
     /tmp/cc3wtzn3.s:7620   .debug_str:00000000000002dd .LASF15
     /tmp/cc3wtzn3.s:7800   .debug_str:000000000000089c .LASF16
     /tmp/cc3wtzn3.s:7820   .debug_str:0000000000000924 .LASF17
     /tmp/cc3wtzn3.s:7790   .debug_str:0000000000000831 .LASF18
     /tmp/cc3wtzn3.s:7752   .debug_str:000000000000072f .LASF19
     /tmp/cc3wtzn3.s:7866   .debug_str:0000000000000a84 .LASF20
     /tmp/cc3wtzn3.s:7780   .debug_str:00000000000007f1 .LASF21
     /tmp/cc3wtzn3.s:7674   .debug_str:00000000000004c3 .LASF22
     /tmp/cc3wtzn3.s:7682   .debug_str:00000000000004f3 .LASF45
     /tmp/cc3wtzn3.s:7834   .debug_str:000000000000098a .LASF168
     /tmp/cc3wtzn3.s:7594   .debug_str:000000000000022f .LASF92
     /tmp/cc3wtzn3.s:7796   .debug_str:0000000000000869 .LASF23
     /tmp/cc3wtzn3.s:7874   .debug_str:0000000000000ada .LASF25
     /tmp/cc3wtzn3.s:7840   .debug_str:00000000000009a7 .LASF27
     /tmp/cc3wtzn3.s:7754   .debug_str:000000000000073d .LASF29
     /tmp/cc3wtzn3.s:7850   .debug_str:00000000000009ff .LASF24
     /tmp/cc3wtzn3.s:7848   .debug_str:00000000000009ec .LASF26
     /tmp/cc3wtzn3.s:7598   .debug_str:000000000000023f .LASF60
     /tmp/cc3wtzn3.s:7818   .debug_str:000000000000090e .LASF62
     /tmp/cc3wtzn3.s:7830   .debug_str:0000000000000978 .LASF28
     /tmp/cc3wtzn3.s:7634   .debug_str:0000000000000341 .LASF30
     /tmp/cc3wtzn3.s:7656   .debug_str:0000000000000416 .LASF31
     /tmp/cc3wtzn3.s:7876   .debug_str:0000000000000af4 .LASF32
     /tmp/cc3wtzn3.s:7614   .debug_str:0000000000000296 .LASF33
     /tmp/cc3wtzn3.s:7654   .debug_str:000000000000040f .LASF169
     /tmp/cc3wtzn3.s:7808   .debug_str:00000000000008cb .LASF34
     /tmp/cc3wtzn3.s:7734   .debug_str:00000000000006cb .LASF35
     /tmp/cc3wtzn3.s:7678   .debug_str:00000000000004dc .LASF36
     /tmp/cc3wtzn3.s:7784   .debug_str:000000000000080b .LASF37
     /tmp/cc3wtzn3.s:7626   .debug_str:0000000000000313 .LASF38
     /tmp/cc3wtzn3.s:7652   .debug_str:00000000000003fc .LASF39
     /tmp/cc3wtzn3.s:7622   .debug_str:00000000000002f3 .LASF40
     /tmp/cc3wtzn3.s:7558   .debug_str:0000000000000000 .LASF42
     /tmp/cc3wtzn3.s:7660   .debug_str:0000000000000440 .LASF41
     /tmp/cc3wtzn3.s:7828   .debug_str:0000000000000963 .LASF43
     /tmp/cc3wtzn3.s:7884   .debug_str:0000000000000b7b .LASF170
     /tmp/cc3wtzn3.s:7658   .debug_str:000000000000042b .LASF171
     /tmp/cc3wtzn3.s:7712   .debug_str:00000000000005f3 .LASF44
     /tmp/cc3wtzn3.s:7836   .debug_str:0000000000000990 .LASF46
     /tmp/cc3wtzn3.s:7726   .debug_str:0000000000000681 .LASF47
     /tmp/cc3wtzn3.s:7764   .debug_str:0000000000000780 .LASF48
     /tmp/cc3wtzn3.s:7886   .debug_str:0000000000000b84 .LASF49
     /tmp/cc3wtzn3.s:7606   .debug_str:0000000000000265 .LASF50
     /tmp/cc3wtzn3.s:7824   .debug_str:0000000000000949 .LASF51
     /tmp/cc3wtzn3.s:7854   .debug_str:0000000000000a20 .LASF52
     /tmp/cc3wtzn3.s:7868   .debug_str:0000000000000a92 .LASF53
     /tmp/cc3wtzn3.s:7668   .debug_str:0000000000000468 .LASF54
     /tmp/cc3wtzn3.s:7766   .debug_str:000000000000078c .LASF55
     /tmp/cc3wtzn3.s:7696   .debug_str:0000000000000553 .LASF56
     /tmp/cc3wtzn3.s:7862   .debug_str:0000000000000a5a .LASF57
     /tmp/cc3wtzn3.s:7772   .debug_str:00000000000007ae .LASF58
     /tmp/cc3wtzn3.s:7852   .debug_str:0000000000000a04 .LASF59
GAS LISTING /tmp/cc3wtzn3.s 			page 88


     /tmp/cc3wtzn3.s:7736   .debug_str:00000000000006d0 .LASF61
     /tmp/cc3wtzn3.s:7816   .debug_str:00000000000008f2 .LASF63
     /tmp/cc3wtzn3.s:7770   .debug_str:00000000000007a4 .LASF64
     /tmp/cc3wtzn3.s:7774   .debug_str:00000000000007b7 .LASF65
     /tmp/cc3wtzn3.s:7844   .debug_str:00000000000009d0 .LASF66
     /tmp/cc3wtzn3.s:7900   .debug_str:0000000000000be3 .LASF67
     /tmp/cc3wtzn3.s:7864   .debug_str:0000000000000a65 .LASF172
     /tmp/cc3wtzn3.s:7814   .debug_str:00000000000008e2 .LASF68
     /tmp/cc3wtzn3.s:7906   .debug_str:0000000000000c2f .LASF69
     /tmp/cc3wtzn3.s:7760   .debug_str:000000000000076e .LASF70
     /tmp/cc3wtzn3.s:7724   .debug_str:0000000000000663 .LASF71
     /tmp/cc3wtzn3.s:7890   .debug_str:0000000000000ba1 .LASF72
     /tmp/cc3wtzn3.s:7708   .debug_str:00000000000005cc .LASF73
     /tmp/cc3wtzn3.s:7562   .debug_str:0000000000000047 .LASF74
     /tmp/cc3wtzn3.s:7822   .debug_str:0000000000000929 .LASF75
     /tmp/cc3wtzn3.s:7860   .debug_str:0000000000000a54 .LASF76
     /tmp/cc3wtzn3.s:7684   .debug_str:00000000000004f9 .LASF77
     /tmp/cc3wtzn3.s:7896   .debug_str:0000000000000bcf .LASF78
     /tmp/cc3wtzn3.s:7742   .debug_str:00000000000006ec .LASF79
     /tmp/cc3wtzn3.s:7892   .debug_str:0000000000000bad .LASF80
     /tmp/cc3wtzn3.s:7710   .debug_str:00000000000005ee .LASF81
     /tmp/cc3wtzn3.s:7664   .debug_str:0000000000000456 .LASF82
     /tmp/cc3wtzn3.s:7856   .debug_str:0000000000000a2c .LASF83
     /tmp/cc3wtzn3.s:7756   .debug_str:000000000000074f .LASF84
     /tmp/cc3wtzn3.s:7642   .debug_str:000000000000039f .LASF85
     /tmp/cc3wtzn3.s:7722   .debug_str:000000000000065e .LASF86
     /tmp/cc3wtzn3.s:7804   .debug_str:00000000000008be .LASF87
     /tmp/cc3wtzn3.s:7846   .debug_str:00000000000009da .LASF89
     /tmp/cc3wtzn3.s:7616   .debug_str:00000000000002a7 .LASF88
     /tmp/cc3wtzn3.s:7888   .debug_str:0000000000000b8e .LASF90
     /tmp/cc3wtzn3.s:7574   .debug_str:0000000000000169 .LASF91
     /tmp/cc3wtzn3.s:7608   .debug_str:000000000000026e .LASF93
     /tmp/cc3wtzn3.s:7566   .debug_str:0000000000000054 .LASF94
     /tmp/cc3wtzn3.s:7738   .debug_str:00000000000006d9 .LASF95
     /tmp/cc3wtzn3.s:7870   .debug_str:0000000000000a9f .LASF96
     /tmp/cc3wtzn3.s:7612   .debug_str:000000000000028f .LASF97
     /tmp/cc3wtzn3.s:7788   .debug_str:0000000000000823 .LASF98
     /tmp/cc3wtzn3.s:7842   .debug_str:00000000000009ad .LASF99
     /tmp/cc3wtzn3.s:7794   .debug_str:000000000000085d .LASF100
     /tmp/cc3wtzn3.s:7618   .debug_str:00000000000002af .LASF101
     /tmp/cc3wtzn3.s:7744   .debug_str:00000000000006f5 .LASF102
     /tmp/cc3wtzn3.s:7904   .debug_str:0000000000000c06 .LASF103
     /tmp/cc3wtzn3.s:7732   .debug_str:00000000000006be .LASF104
     /tmp/cc3wtzn3.s:7730   .debug_str:0000000000000695 .LASF105
     /tmp/cc3wtzn3.s:7802   .debug_str:00000000000008b2 .LASF106
     /tmp/cc3wtzn3.s:7882   .debug_str:0000000000000b53 .LASF107
     /tmp/cc3wtzn3.s:7576   .debug_str:000000000000016e .LASF108
     /tmp/cc3wtzn3.s:7798   .debug_str:0000000000000874 .LASF109
     /tmp/cc3wtzn3.s:7826   .debug_str:0000000000000954 .LASF110
     /tmp/cc3wtzn3.s:7588   .debug_str:00000000000001e5 .LASF111
     /tmp/cc3wtzn3.s:7714   .debug_str:00000000000005f8 .LASF112
     /tmp/cc3wtzn3.s:7878   .debug_str:0000000000000b05 .LASF113
     /tmp/cc3wtzn3.s:7898   .debug_str:0000000000000bda .LASF114
     /tmp/cc3wtzn3.s:7580   .debug_str:00000000000001ac .LASF115
     /tmp/cc3wtzn3.s:7838   .debug_str:000000000000099c .LASF116
     /tmp/cc3wtzn3.s:7570   .debug_str:000000000000006f .LASF117
     /tmp/cc3wtzn3.s:7596   .debug_str:0000000000000234 .LASF118
GAS LISTING /tmp/cc3wtzn3.s 			page 89


     /tmp/cc3wtzn3.s:7672   .debug_str:00000000000004a0 .LASF119
     /tmp/cc3wtzn3.s:7706   .debug_str:00000000000005c2 .LASF120
     /tmp/cc3wtzn3.s:7792   .debug_str:0000000000000839 .LASF121
     /tmp/cc3wtzn3.s:7632   .debug_str:0000000000000336 .LASF122
     /tmp/cc3wtzn3.s:7718   .debug_str:0000000000000632 .LASF123
     /tmp/cc3wtzn3.s:7610   .debug_str:000000000000027d .LASF124
     /tmp/cc3wtzn3.s:7872   .debug_str:0000000000000aac .LASF125
     /tmp/cc3wtzn3.s:7810   .debug_str:00000000000008d0 .LASF126
     /tmp/cc3wtzn3.s:7902   .debug_str:0000000000000c00 .LASF127
     /tmp/cc3wtzn3.s:7748   .debug_str:000000000000071b .LASF128
     /tmp/cc3wtzn3.s:7662   .debug_str:0000000000000447 .LASF129
     /tmp/cc3wtzn3.s:7670   .debug_str:0000000000000472 .LASF130
     /tmp/cc3wtzn3.s:7776   .debug_str:00000000000007d4 .LASF131
     /tmp/cc3wtzn3.s:7644   .debug_str:00000000000003a8 .LASF132
     /tmp/cc3wtzn3.s:7600   .debug_str:0000000000000249 .LASF133
     /tmp/cc3wtzn3.s:7638   .debug_str:000000000000036a .LASF134
     /tmp/cc3wtzn3.s:7782   .debug_str:00000000000007fd .LASF135
     /tmp/cc3wtzn3.s:7880   .debug_str:0000000000000b2a .LASF136
     /tmp/cc3wtzn3.s:7768   .debug_str:0000000000000796 .LASF137
     /tmp/cc3wtzn3.s:7560   .debug_str:000000000000001e .LASF138
     /tmp/cc3wtzn3.s:7648   .debug_str:00000000000003e4 .LASF139
     /tmp/cc3wtzn3.s:7700   .debug_str:0000000000000564 .LASF140
     /tmp/cc3wtzn3.s:7628   .debug_str:000000000000031a .LASF141
     /tmp/cc3wtzn3.s:7716   .debug_str:0000000000000607 .LASF142
     /tmp/cc3wtzn3.s:7586   .debug_str:00000000000001da .LASF143
     /tmp/cc3wtzn3.s:7702   .debug_str:0000000000000590 .LASF144
     /tmp/cc3wtzn3.s:7806   .debug_str:00000000000008c5 .LASF145
     /tmp/cc3wtzn3.s:7746   .debug_str:0000000000000701 .LASF146
     /tmp/cc3wtzn3.s:7688   .debug_str:0000000000000511 .LASF147
     /tmp/cc3wtzn3.s:7894   .debug_str:0000000000000bb5 .LASF148
     /tmp/cc3wtzn3.s:7624   .debug_str:00000000000002f9 .LASF149
     /tmp/cc3wtzn3.s:2404   .text:0000000000000ec8 .LFB51
     /tmp/cc3wtzn3.s:2475   .text:0000000000000f4c .LFE51
     /tmp/cc3wtzn3.s:6501   .debug_loc:0000000000000000 .LLST70
     /tmp/cc3wtzn3.s:2453   .text:0000000000000f20 .LVL249
     /tmp/cc3wtzn3.s:2462   .text:0000000000000f34 .LVL250
     /tmp/cc3wtzn3.s:2471   .text:0000000000000f48 .LVL251
     /tmp/cc3wtzn3.s:696    .text:00000000000004e4 .LFB50
     /tmp/cc3wtzn3.s:742    .text:0000000000000538 .LFE50
     /tmp/cc3wtzn3.s:7762   .debug_str:0000000000000777 .LASF150
     /tmp/cc3wtzn3.s:6523   .debug_loc:000000000000005f .LLST8
     /tmp/cc3wtzn3.s:7604   .debug_str:000000000000025e .LASF151
     /tmp/cc3wtzn3.s:6537   .debug_loc:0000000000000098 .LLST9
     /tmp/cc3wtzn3.s:7750   .debug_str:000000000000072a .LASF152
     /tmp/cc3wtzn3.s:6555   .debug_loc:00000000000000e4 .LLST10
     /tmp/cc3wtzn3.s:719    .text:0000000000000510 .LVL65
     /tmp/cc3wtzn3.s:725    .text:0000000000000520 .LVL66
     /tmp/cc3wtzn3.s:629    .text:0000000000000490 .LFB49
     /tmp/cc3wtzn3.s:690    .text:00000000000004e4 .LFE49
     /tmp/cc3wtzn3.s:409    .text:0000000000000344 .LFB48
     /tmp/cc3wtzn3.s:444    .text:0000000000000374 .LFE48
     /tmp/cc3wtzn3.s:207    .text:000000000000014c .LFB47
     /tmp/cc3wtzn3.s:403    .text:0000000000000344 .LFE47
     /tmp/cc3wtzn3.s:6573   .debug_loc:0000000000000130 .LLST2
     /tmp/cc3wtzn3.s:230    .text:000000000000016c .LBB46
     /tmp/cc3wtzn3.s:382    .text:0000000000000328 .LBE46
     /tmp/cc3wtzn3.s:7720   .debug_str:0000000000000659 .LASF153
GAS LISTING /tmp/cc3wtzn3.s 			page 90


     /tmp/cc3wtzn3.s:6595   .debug_loc:000000000000018f .LLST3
     /tmp/cc3wtzn3.s:236    .text:000000000000017c .LVL18
     /tmp/cc3wtzn3.s:241    .text:000000000000018c .LVL19
     /tmp/cc3wtzn3.s:246    .text:0000000000000198 .LVL20
     /tmp/cc3wtzn3.s:251    .text:00000000000001a8 .LVL21
     /tmp/cc3wtzn3.s:259    .text:00000000000001c8 .LVL22
     /tmp/cc3wtzn3.s:267    .text:00000000000001e8 .LVL23
     /tmp/cc3wtzn3.s:275    .text:0000000000000208 .LVL24
     /tmp/cc3wtzn3.s:283    .text:0000000000000228 .LVL25
     /tmp/cc3wtzn3.s:297    .text:0000000000000250 .LVL27
     /tmp/cc3wtzn3.s:310    .text:0000000000000268 .LVL29
     /tmp/cc3wtzn3.s:318    .text:0000000000000288 .LVL30
     /tmp/cc3wtzn3.s:334    .text:00000000000002b0 .LVL32
     /tmp/cc3wtzn3.s:346    .text:00000000000002c8 .LVL34
     /tmp/cc3wtzn3.s:354    .text:00000000000002e8 .LVL35
     /tmp/cc3wtzn3.s:368    .text:0000000000000310 .LVL37
     /tmp/cc3wtzn3.s:381    .text:0000000000000328 .LVL39
     /tmp/cc3wtzn3.s:42     .text:0000000000000000 .LFB46
     /tmp/cc3wtzn3.s:175    .text:000000000000014c .LFE46
     /tmp/cc3wtzn3.s:6602   .debug_loc:00000000000001b2 .LLST0
     /tmp/cc3wtzn3.s:119    .text:00000000000000e0 .LBB43
     /tmp/cc3wtzn3.s:148    .text:0000000000000120 .LBE43
     /tmp/cc3wtzn3.s:6624   .debug_loc:0000000000000211 .LLST1
     /tmp/cc3wtzn3.s:134    .text:000000000000010c .LVL10
     /tmp/cc3wtzn3.s:72     .text:0000000000000030 .LVL2
     /tmp/cc3wtzn3.s:80     .text:0000000000000050 .LVL3
     /tmp/cc3wtzn3.s:88     .text:0000000000000070 .LVL4
     /tmp/cc3wtzn3.s:96     .text:0000000000000090 .LVL5
     /tmp/cc3wtzn3.s:104    .text:00000000000000b0 .LVL6
     /tmp/cc3wtzn3.s:112    .text:00000000000000d0 .LVL7
     /tmp/cc3wtzn3.s:117    .text:00000000000000e0 .LVL8
     /tmp/cc3wtzn3.s:153    .text:0000000000000130 .LVL12
     /tmp/cc3wtzn3.s:2091   .text:0000000000000cb4 .LFB45
     /tmp/cc3wtzn3.s:2180   .text:0000000000000d50 .LFE45
     /tmp/cc3wtzn3.s:6636   .debug_loc:0000000000000248 .LLST64
     /tmp/cc3wtzn3.s:6654   .debug_loc:0000000000000294 .LLST65
     /tmp/cc3wtzn3.s:2119   .text:0000000000000ce4 .LVL218
     /tmp/cc3wtzn3.s:2125   .text:0000000000000cf8 .LVL219
     /tmp/cc3wtzn3.s:2158   .text:0000000000000d30 .LVL222
     /tmp/cc3wtzn3.s:2186   .text:0000000000000d50 .LFB44
     /tmp/cc3wtzn3.s:2387   .text:0000000000000ec8 .LFE44
     /tmp/cc3wtzn3.s:6670   .debug_loc:00000000000002de .LLST66
     /tmp/cc3wtzn3.s:2212   .text:0000000000000d78 .LBB134
     /tmp/cc3wtzn3.s:2256   .text:0000000000000dd0 .LBE134
     /tmp/cc3wtzn3.s:6688   .debug_loc:000000000000032a .LLST67
     /tmp/cc3wtzn3.s:2219   .text:0000000000000d88 .LVL229
     /tmp/cc3wtzn3.s:2225   .text:0000000000000d9c .LVL230
     /tmp/cc3wtzn3.s:2251   .text:0000000000000dcc .LVL231
     /tmp/cc3wtzn3.s:2265   .text:0000000000000ddc .LBB136
     /tmp/cc3wtzn3.s:2309   .text:0000000000000e34 .LBE136
     /tmp/cc3wtzn3.s:6695   .debug_loc:000000000000034d .LLST68
     /tmp/cc3wtzn3.s:2272   .text:0000000000000dec .LVL234
     /tmp/cc3wtzn3.s:2278   .text:0000000000000e00 .LVL235
     /tmp/cc3wtzn3.s:2304   .text:0000000000000e30 .LVL236
     /tmp/cc3wtzn3.s:2318   .text:0000000000000e40 .LBB138
     /tmp/cc3wtzn3.s:2362   .text:0000000000000e98 .LBE138
     /tmp/cc3wtzn3.s:6702   .debug_loc:0000000000000370 .LLST69
GAS LISTING /tmp/cc3wtzn3.s 			page 91


     /tmp/cc3wtzn3.s:2325   .text:0000000000000e50 .LVL239
     /tmp/cc3wtzn3.s:2331   .text:0000000000000e64 .LVL240
     /tmp/cc3wtzn3.s:2357   .text:0000000000000e94 .LVL241
     /tmp/cc3wtzn3.s:2368   .text:0000000000000eac .LVL243
     /tmp/cc3wtzn3.s:1315   .text:0000000000000860 .LFB43
     /tmp/cc3wtzn3.s:1493   .text:000000000000096c .LFE43
     /tmp/cc3wtzn3.s:6709   .debug_loc:0000000000000393 .LLST31
     /tmp/cc3wtzn3.s:7692   .debug_str:000000000000053b .LASF154
     /tmp/cc3wtzn3.s:6727   .debug_loc:00000000000003df .LLST32
     /tmp/cc3wtzn3.s:6750   .debug_loc:0000000000000440 .LLST33
     /tmp/cc3wtzn3.s:6768   .debug_loc:000000000000048c .LLST34
     /tmp/cc3wtzn3.s:6786   .debug_loc:00000000000004d8 .LLST35
     /tmp/cc3wtzn3.s:1388   .text:00000000000008ec .LBB76
     /tmp/cc3wtzn3.s:1436   .text:0000000000000924 .LBE76
     /tmp/cc3wtzn3.s:6805   .debug_loc:0000000000000534 .LLST36
     /tmp/cc3wtzn3.s:1437   .text:0000000000000924 .LBB78
     /tmp/cc3wtzn3.s:1461   .text:000000000000093c .LBE78
     /tmp/cc3wtzn3.s:6816   .debug_loc:000000000000056a .LLST37
     /tmp/cc3wtzn3.s:6823   .debug_loc:000000000000058d .LLST38
     /tmp/cc3wtzn3.s:1346   .text:00000000000008a4 .LVL134
     /tmp/cc3wtzn3.s:1357   .text:00000000000008bc .LVL137
     /tmp/cc3wtzn3.s:2024   .text:0000000000000c48 .LFB42
     /tmp/cc3wtzn3.s:2085   .text:0000000000000cb4 .LFE42
     /tmp/cc3wtzn3.s:7584   .debug_str:00000000000001d5 .LASF155
     /tmp/cc3wtzn3.s:6830   .debug_loc:00000000000005b0 .LLST62
     /tmp/cc3wtzn3.s:2043   .text:0000000000000c64 .LBB127
     /tmp/cc3wtzn3.s:2068   .text:0000000000000c9c .LBE127
     /tmp/cc3wtzn3.s:6848   .debug_loc:00000000000005fc .LLST63
     /tmp/cc3wtzn3.s:2059   .text:0000000000000c90 .LVL210
     /tmp/cc3wtzn3.s:1799   .text:0000000000000b54 .LFB41
     /tmp/cc3wtzn3.s:2018   .text:0000000000000c48 .LFE41
     /tmp/cc3wtzn3.s:6864   .debug_loc:0000000000000646 .LLST48
     /tmp/cc3wtzn3.s:6886   .debug_loc:00000000000006a5 .LLST49
     /tmp/cc3wtzn3.s:7728   .debug_str:000000000000068d .LASF156
     /tmp/cc3wtzn3.s:6908   .debug_loc:0000000000000704 .LLST50
     /tmp/cc3wtzn3.s:1847   .text:0000000000000b9c .LBB105
     /tmp/cc3wtzn3.s:7504   .debug_ranges:0000000000000000 .Ldebug_ranges0
     /tmp/cc3wtzn3.s:6919   .debug_loc:000000000000073a .LLST51
     /tmp/cc3wtzn3.s:6926   .debug_loc:000000000000075d .LLST52
     /tmp/cc3wtzn3.s:6937   .debug_loc:0000000000000793 .LLST53
     /tmp/cc3wtzn3.s:6948   .debug_loc:00000000000007c9 .LLST54
     /tmp/cc3wtzn3.s:1862   .text:0000000000000ba4 .LBB108
     /tmp/cc3wtzn3.s:1879   .text:0000000000000bbc .LBE108
     /tmp/cc3wtzn3.s:6964   .debug_loc:0000000000000814 .LLST55
     /tmp/cc3wtzn3.s:1893   .text:0000000000000bc4 .LBB111
     /tmp/cc3wtzn3.s:1910   .text:0000000000000bdc .LBE111
     /tmp/cc3wtzn3.s:6971   .debug_loc:0000000000000837 .LLST56
     /tmp/cc3wtzn3.s:1903   .text:0000000000000bd4 .LVL191
     /tmp/cc3wtzn3.s:1949   .text:0000000000000c04 .LBB116
     /tmp/cc3wtzn3.s:6993   .debug_loc:0000000000000878 .LLST57
     /tmp/cc3wtzn3.s:7000   .debug_loc:000000000000089b .LLST58
     /tmp/cc3wtzn3.s:7011   .debug_loc:00000000000008d1 .LLST59
     /tmp/cc3wtzn3.s:1964   .text:0000000000000c0c .LBB119
     /tmp/cc3wtzn3.s:1981   .text:0000000000000c24 .LBE119
     /tmp/cc3wtzn3.s:7027   .debug_loc:000000000000091c .LLST60
     /tmp/cc3wtzn3.s:1995   .text:0000000000000c2c .LBB122
     /tmp/cc3wtzn3.s:2012   .text:0000000000000c48 .LBE122
GAS LISTING /tmp/cc3wtzn3.s 			page 92


     /tmp/cc3wtzn3.s:7034   .debug_loc:000000000000093f .LLST61
     /tmp/cc3wtzn3.s:2007   .text:0000000000000c40 .LVL206
     /tmp/cc3wtzn3.s:1827   .text:0000000000000b84 .LVL182
     /tmp/cc3wtzn3.s:1838   .text:0000000000000b94 .LVL183
     /tmp/cc3wtzn3.s:1662   .text:0000000000000aa0 .LFB40
     /tmp/cc3wtzn3.s:1793   .text:0000000000000b54 .LFE40
     /tmp/cc3wtzn3.s:7056   .debug_loc:0000000000000980 .LLST42
     /tmp/cc3wtzn3.s:7832   .debug_str:0000000000000984 .LASF157
     /tmp/cc3wtzn3.s:7089   .debug_loc:0000000000000a08 .LLST43
     /tmp/cc3wtzn3.s:7110   .debug_loc:0000000000000a57 .LLST44
     /tmp/cc3wtzn3.s:7121   .debug_loc:0000000000000a8d .LLST45
     /tmp/cc3wtzn3.s:1696   .text:0000000000000adc .LBB83
     /tmp/cc3wtzn3.s:1703   .text:0000000000000ae0 .LBE83
     /tmp/cc3wtzn3.s:7128   .debug_loc:0000000000000ab0 .LLST46
     /tmp/cc3wtzn3.s:1719   .text:0000000000000af4 .LBB85
     /tmp/cc3wtzn3.s:1726   .text:0000000000000af8 .LBE85
     /tmp/cc3wtzn3.s:7135   .debug_loc:0000000000000ad3 .LLST47
     /tmp/cc3wtzn3.s:1758   .text:0000000000000b28 .LVL175
     /tmp/cc3wtzn3.s:1186   .text:00000000000007c0 .LFB39
     /tmp/cc3wtzn3.s:1309   .text:0000000000000860 .LFE39
     /tmp/cc3wtzn3.s:7142   .debug_loc:0000000000000af6 .LLST26
     /tmp/cc3wtzn3.s:7690   .debug_str:0000000000000535 .LASF158
     /tmp/cc3wtzn3.s:7162   .debug_loc:0000000000000b44 .LLST27
     /tmp/cc3wtzn3.s:1191   .text:00000000000007c0 .LBB72
     /tmp/cc3wtzn3.s:1240   .text:00000000000007f8 .LBE72
     /tmp/cc3wtzn3.s:7185   .debug_loc:0000000000000ba4 .LLST28
     /tmp/cc3wtzn3.s:1241   .text:00000000000007f8 .LBB74
     /tmp/cc3wtzn3.s:1265   .text:0000000000000810 .LBE74
     /tmp/cc3wtzn3.s:7196   .debug_loc:0000000000000bda .LLST29
     /tmp/cc3wtzn3.s:7203   .debug_loc:0000000000000bfd .LLST30
     /tmp/cc3wtzn3.s:1292   .text:0000000000000848 .LVL130
     /tmp/cc3wtzn3.s:930    .text:0000000000000630 .LFB38
     /tmp/cc3wtzn3.s:1180   .text:00000000000007c0 .LFE38
     /tmp/cc3wtzn3.s:7210   .debug_loc:0000000000000c20 .LLST16
     /tmp/cc3wtzn3.s:7232   .debug_loc:0000000000000c7f .LLST17
     /tmp/cc3wtzn3.s:1050   .text:00000000000006e0 .LBB68
     /tmp/cc3wtzn3.s:1177   .text:00000000000007c0 .LBE68
     /tmp/cc3wtzn3.s:7247   .debug_loc:0000000000000cc8 .LLST22
     /tmp/cc3wtzn3.s:7704   .debug_str:00000000000005b7 .LASF159
     /tmp/cc3wtzn3.s:7254   .debug_loc:0000000000000ceb .LLST23
     /tmp/cc3wtzn3.s:1100   .text:0000000000000740 .LBB69
     /tmp/cc3wtzn3.s:1123   .text:0000000000000764 .LBE69
     /tmp/cc3wtzn3.s:7261   .debug_loc:0000000000000d0e .LLST24
     /tmp/cc3wtzn3.s:1130   .text:000000000000076c .LBB71
     /tmp/cc3wtzn3.s:1161   .text:000000000000079c .LBE71
     /tmp/cc3wtzn3.s:7273   .debug_loc:0000000000000d45 .LLST25
     /tmp/cc3wtzn3.s:1055   .text:00000000000006f0 .LVL100
     /tmp/cc3wtzn3.s:1088   .text:0000000000000734 .LVL102
     /tmp/cc3wtzn3.s:1168   .text:00000000000007ac .LVL110
     /tmp/cc3wtzn3.s:1173   .text:00000000000007b8 .LVL111
     /tmp/cc3wtzn3.s:954    .text:0000000000000654 .LBB61
     /tmp/cc3wtzn3.s:974    .text:000000000000066c .LBE61
     /tmp/cc3wtzn3.s:7280   .debug_loc:0000000000000d68 .LLST18
     /tmp/cc3wtzn3.s:960    .text:0000000000000658 .LBB63
     /tmp/cc3wtzn3.s:972    .text:000000000000066c .LBE63
     /tmp/cc3wtzn3.s:7287   .debug_loc:0000000000000d8b .LLST19
     /tmp/cc3wtzn3.s:965    .text:0000000000000664 .LVL89
GAS LISTING /tmp/cc3wtzn3.s 			page 93


     /tmp/cc3wtzn3.s:1005   .text:0000000000000694 .LBB64
     /tmp/cc3wtzn3.s:1024   .text:00000000000006ac .LBE64
     /tmp/cc3wtzn3.s:7294   .debug_loc:0000000000000dae .LLST20
     /tmp/cc3wtzn3.s:1010   .text:0000000000000698 .LBB66
     /tmp/cc3wtzn3.s:1022   .text:00000000000006ac .LBE66
     /tmp/cc3wtzn3.s:7301   .debug_loc:0000000000000dd1 .LLST21
     /tmp/cc3wtzn3.s:1015   .text:00000000000006a4 .LVL95
     /tmp/cc3wtzn3.s:1038   .text:00000000000006c8 .LVL97
     /tmp/cc3wtzn3.s:1045   .text:00000000000006d8 .LVL98
     /tmp/cc3wtzn3.s:748    .text:0000000000000538 .LFB37
     /tmp/cc3wtzn3.s:924    .text:0000000000000630 .LFE37
     /tmp/cc3wtzn3.s:7308   .debug_loc:0000000000000df4 .LLST11
     /tmp/cc3wtzn3.s:7342   .debug_loc:0000000000000e8c .LLST12
     /tmp/cc3wtzn3.s:7358   .debug_loc:0000000000000ed6 .LLST13
     /tmp/cc3wtzn3.s:7369   .debug_loc:0000000000000f0c .LLST14
     /tmp/cc3wtzn3.s:812    .text:000000000000059c .LBB54
     /tmp/cc3wtzn3.s:820    .text:00000000000005a0 .LBE54
     /tmp/cc3wtzn3.s:7376   .debug_loc:0000000000000f2f .LLST15
     /tmp/cc3wtzn3.s:862    .text:00000000000005d8 .LVL79
     /tmp/cc3wtzn3.s:450    .text:0000000000000374 .LFB36
     /tmp/cc3wtzn3.s:623    .text:0000000000000490 .LFE36
     /tmp/cc3wtzn3.s:7383   .debug_loc:0000000000000f52 .LLST4
     /tmp/cc3wtzn3.s:7401   .debug_loc:0000000000000f9e .LLST5
     /tmp/cc3wtzn3.s:523    .text:00000000000003fc .LBB48
     /tmp/cc3wtzn3.s:547    .text:0000000000000420 .LBE48
     /tmp/cc3wtzn3.s:7420   .debug_loc:0000000000000ffa .LLST6
     /tmp/cc3wtzn3.s:565    .text:0000000000000438 .LBB50
     /tmp/cc3wtzn3.s:596    .text:0000000000000468 .LBE50
     /tmp/cc3wtzn3.s:7440   .debug_loc:0000000000001057 .LLST7
     /tmp/cc3wtzn3.s:474    .text:00000000000003a0 .LVL46
     /tmp/cc3wtzn3.s:484    .text:00000000000003b8 .LVL48
     /tmp/cc3wtzn3.s:1507   .text:000000000000096c .LFB35
     /tmp/cc3wtzn3.s:1656   .text:0000000000000aa0 .LFE35
     /tmp/cc3wtzn3.s:7698   .debug_str:000000000000055e .LASF160
     /tmp/cc3wtzn3.s:7451   .debug_loc:000000000000108d .LLST39
     /tmp/cc3wtzn3.s:7740   .debug_str:00000000000006e3 .LASF161
     /tmp/cc3wtzn3.s:7465   .debug_loc:00000000000010c6 .LLST40
     /tmp/cc3wtzn3.s:1609   .text:0000000000000a34 .LBB80
     /tmp/cc3wtzn3.s:1640   .text:0000000000000a88 .LBE80
     /tmp/cc3wtzn3.s:7479   .debug_loc:00000000000010ff .LLST41
     /tmp/cc3wtzn3.s:1628   .text:0000000000000a6c .LVL162
     /tmp/cc3wtzn3.s:1526   .text:000000000000098c .LVL158
     /tmp/cc3wtzn3.s:1567   .text:00000000000009e8 .LVL159
     /tmp/cc3wtzn3.s:1607   .text:0000000000000a34 .LVL160
     /tmp/cc3wtzn3.s:7568   .debug_str:0000000000000064 .LASF162
     /tmp/cc3wtzn3.s:7676   .debug_str:00000000000004d1 .LASF163
     /tmp/cc3wtzn3.s:7582   .debug_str:00000000000001d0 .LASF164
     /tmp/cc3wtzn3.s:7640   .debug_str:0000000000000390 .LASF173
     /tmp/cc3wtzn3.s:7650   .debug_str:00000000000003f5 .LASF174
     /tmp/cc3wtzn3.s:2407   .text:0000000000000ec8 .LVL245
     /tmp/cc3wtzn3.s:2428   .text:0000000000000ef8 .LVL246
     /tmp/cc3wtzn3.s:2441   .text:0000000000000f08 .LVL247
     /tmp/cc3wtzn3.s:2445   .text:0000000000000f10 .LVL248
     /tmp/cc3wtzn3.s:699    .text:00000000000004e4 .LVL63
     /tmp/cc3wtzn3.s:717    .text:0000000000000508 .LVL64
     /tmp/cc3wtzn3.s:737    .text:0000000000000530 .LVL68
     /tmp/cc3wtzn3.s:734    .text:000000000000052c .LVL67
GAS LISTING /tmp/cc3wtzn3.s 			page 94


     /tmp/cc3wtzn3.s:210    .text:000000000000014c .LVL16
     /tmp/cc3wtzn3.s:234    .text:0000000000000174 .LVL17
     /tmp/cc3wtzn3.s:395    .text:0000000000000338 .LVL41
     /tmp/cc3wtzn3.s:399    .text:0000000000000340 .LVL42
     /tmp/cc3wtzn3.s:287    .text:000000000000022c .LVL26
     /tmp/cc3wtzn3.s:392    .text:0000000000000334 .LVL40
     /tmp/cc3wtzn3.s:46     .text:0000000000000000 .LVL0
     /tmp/cc3wtzn3.s:70     .text:0000000000000028 .LVL1
     /tmp/cc3wtzn3.s:167    .text:0000000000000140 .LVL14
     /tmp/cc3wtzn3.s:171    .text:0000000000000148 .LVL15
     /tmp/cc3wtzn3.s:123    .text:00000000000000e8 .LVL9
     /tmp/cc3wtzn3.s:164    .text:000000000000013c .LVL13
     /tmp/cc3wtzn3.s:2094   .text:0000000000000cb4 .LVL215
     /tmp/cc3wtzn3.s:2113   .text:0000000000000cd8 .LVL217
     /tmp/cc3wtzn3.s:2172   .text:0000000000000d44 .LVL224
     /tmp/cc3wtzn3.s:2109   .text:0000000000000cd0 .LVL216
     /tmp/cc3wtzn3.s:2135   .text:0000000000000d04 .LVL220
     /tmp/cc3wtzn3.s:2148   .text:0000000000000d1c .LVL221
     /tmp/cc3wtzn3.s:2160   .text:0000000000000d34 .LVL223
     /tmp/cc3wtzn3.s:2175   .text:0000000000000d48 .LVL225
     /tmp/cc3wtzn3.s:2189   .text:0000000000000d50 .LVL226
     /tmp/cc3wtzn3.s:2210   .text:0000000000000d78 .LVL228
     /tmp/cc3wtzn3.s:2380   .text:0000000000000ebc .LVL244
     /tmp/cc3wtzn3.s:2208   .text:0000000000000d74 .LVL227
     /tmp/cc3wtzn3.s:2254   .text:0000000000000dd0 .LVL232
     /tmp/cc3wtzn3.s:2262   .text:0000000000000dd8 .LVL233
     /tmp/cc3wtzn3.s:2307   .text:0000000000000e34 .LVL237
     /tmp/cc3wtzn3.s:2315   .text:0000000000000e3c .LVL238
     /tmp/cc3wtzn3.s:2360   .text:0000000000000e98 .LVL242
     /tmp/cc3wtzn3.s:1318   .text:0000000000000860 .LVL132
     /tmp/cc3wtzn3.s:1344   .text:000000000000089c .LVL133
     /tmp/cc3wtzn3.s:1488   .text:0000000000000964 .LVL156
     /tmp/cc3wtzn3.s:1397   .text:00000000000008f4 .LVL140
     /tmp/cc3wtzn3.s:1466   .text:0000000000000944 .LVL152
     /tmp/cc3wtzn3.s:1485   .text:0000000000000960 .LVL155
     /tmp/cc3wtzn3.s:1482   .text:000000000000095c .LVL154
     /tmp/cc3wtzn3.s:1348   .text:00000000000008a8 .LVL135
     /tmp/cc3wtzn3.s:1355   .text:00000000000008b4 .LVL136
     /tmp/cc3wtzn3.s:1479   .text:0000000000000958 .LVL153
     /tmp/cc3wtzn3.s:1387   .text:00000000000008ec .LVL138
     /tmp/cc3wtzn3.s:1393   .text:00000000000008f0 .LVL139
     /tmp/cc3wtzn3.s:1434   .text:0000000000000924 .LVL147
     /tmp/cc3wtzn3.s:1459   .text:000000000000093c .LVL151
     /tmp/cc3wtzn3.s:1442   .text:0000000000000928 .LVL148
     /tmp/cc3wtzn3.s:2027   .text:0000000000000c48 .LVL207
     /tmp/cc3wtzn3.s:2046   .text:0000000000000c68 .LVL209
     /tmp/cc3wtzn3.s:2080   .text:0000000000000cac .LVL214
     /tmp/cc3wtzn3.s:2042   .text:0000000000000c64 .LVL208
     /tmp/cc3wtzn3.s:2064   .text:0000000000000c98 .LVL211
     /tmp/cc3wtzn3.s:2066   .text:0000000000000c9c .LVL212
     /tmp/cc3wtzn3.s:2077   .text:0000000000000ca8 .LVL213
     /tmp/cc3wtzn3.s:1802   .text:0000000000000b54 .LVL180
     /tmp/cc3wtzn3.s:1825   .text:0000000000000b80 .LVL181
     /tmp/cc3wtzn3.s:1935   .text:0000000000000bf4 .LVL196
     /tmp/cc3wtzn3.s:1939   .text:0000000000000bfc .LVL197
     /tmp/cc3wtzn3.s:1932   .text:0000000000000bf0 .LVL195
     /tmp/cc3wtzn3.s:1915   .text:0000000000000be0 .LVL193
GAS LISTING /tmp/cc3wtzn3.s 			page 95


     /tmp/cc3wtzn3.s:1921   .text:0000000000000be4 .LVL194
     /tmp/cc3wtzn3.s:2005   .text:0000000000000c38 .LVL205
     /tmp/cc3wtzn3.s:1843   .text:0000000000000b98 .LVL184
     /tmp/cc3wtzn3.s:1908   .text:0000000000000bdc .LVL192
     /tmp/cc3wtzn3.s:1845   .text:0000000000000b9c .LVL185
     /tmp/cc3wtzn3.s:1853   .text:0000000000000ba0 .LVL186
     /tmp/cc3wtzn3.s:1877   .text:0000000000000bbc .LVL188
     /tmp/cc3wtzn3.s:1897   .text:0000000000000bc8 .LVL189
     /tmp/cc3wtzn3.s:1861   .text:0000000000000ba4 .LVL187
     /tmp/cc3wtzn3.s:1901   .text:0000000000000bcc .LVL190
     /tmp/cc3wtzn3.s:1945   .text:0000000000000c00 .LVL198
     /tmp/cc3wtzn3.s:1947   .text:0000000000000c04 .LVL199
     /tmp/cc3wtzn3.s:1955   .text:0000000000000c08 .LVL200
     /tmp/cc3wtzn3.s:1979   .text:0000000000000c24 .LVL202
     /tmp/cc3wtzn3.s:1999   .text:0000000000000c30 .LVL203
     /tmp/cc3wtzn3.s:1963   .text:0000000000000c0c .LVL201
     /tmp/cc3wtzn3.s:2003   .text:0000000000000c34 .LVL204
     /tmp/cc3wtzn3.s:1665   .text:0000000000000aa0 .LVL165
     /tmp/cc3wtzn3.s:1708   .text:0000000000000ae8 .LVL170
     /tmp/cc3wtzn3.s:1770   .text:0000000000000b38 .LVL176
     /tmp/cc3wtzn3.s:1776   .text:0000000000000b3c .LVL177
     /tmp/cc3wtzn3.s:1787   .text:0000000000000b50 .LVL179
     /tmp/cc3wtzn3.s:1675   .text:0000000000000ab0 .LVL166
     /tmp/cc3wtzn3.s:1677   .text:0000000000000ab4 .LVL167
     /tmp/cc3wtzn3.s:1712   .text:0000000000000aec .LVL171
     /tmp/cc3wtzn3.s:1780   .text:0000000000000b44 .LVL178
     /tmp/cc3wtzn3.s:1734   .text:0000000000000b04 .LVL174
     /tmp/cc3wtzn3.s:1695   .text:0000000000000adc .LVL168
     /tmp/cc3wtzn3.s:1701   .text:0000000000000ae0 .LVL169
     /tmp/cc3wtzn3.s:1718   .text:0000000000000af4 .LVL172
     /tmp/cc3wtzn3.s:1724   .text:0000000000000af8 .LVL173
     /tmp/cc3wtzn3.s:1189   .text:00000000000007c0 .LVL113
     /tmp/cc3wtzn3.s:1201   .text:00000000000007c8 .LVL115
     /tmp/cc3wtzn3.s:1204   .text:00000000000007cc .LVL116
     /tmp/cc3wtzn3.s:1263   .text:0000000000000810 .LVL126
     /tmp/cc3wtzn3.s:1269   .text:0000000000000814 .LVL127
     /tmp/cc3wtzn3.s:1283   .text:000000000000082c .LVL128
     /tmp/cc3wtzn3.s:1287   .text:0000000000000830 .LVL129
     /tmp/cc3wtzn3.s:1302   .text:0000000000000858 .LVL131
     /tmp/cc3wtzn3.s:1197   .text:00000000000007c4 .LVL114
     /tmp/cc3wtzn3.s:1238   .text:00000000000007f8 .LVL122
     /tmp/cc3wtzn3.s:1246   .text:00000000000007fc .LVL123
     /tmp/cc3wtzn3.s:933    .text:0000000000000630 .LVL87
     /tmp/cc3wtzn3.s:952    .text:0000000000000654 .LVL88
     /tmp/cc3wtzn3.s:991    .text:0000000000000684 .LVL92
     /tmp/cc3wtzn3.s:997    .text:0000000000000690 .LVL93
     /tmp/cc3wtzn3.s:970    .text:000000000000066c .LVL90
     /tmp/cc3wtzn3.s:977    .text:0000000000000670 .LVL91
     /tmp/cc3wtzn3.s:1003   .text:0000000000000694 .LVL94
     /tmp/cc3wtzn3.s:1020   .text:00000000000006ac .LVL96
     /tmp/cc3wtzn3.s:1057   .text:00000000000006f4 .LVL101
     /tmp/cc3wtzn3.s:1175   .text:00000000000007bc .LVL112
     /tmp/cc3wtzn3.s:1133   .text:0000000000000770 .LVL106
     /tmp/cc3wtzn3.s:1099   .text:0000000000000740 .LVL103
     /tmp/cc3wtzn3.s:1103   .text:0000000000000744 .LVL104
     /tmp/cc3wtzn3.s:1159   .text:000000000000079c .LVL109
     /tmp/cc3wtzn3.s:751    .text:0000000000000538 .LVL69
GAS LISTING /tmp/cc3wtzn3.s 			page 96


     /tmp/cc3wtzn3.s:825    .text:00000000000005a8 .LVL75
     /tmp/cc3wtzn3.s:878    .text:00000000000005f0 .LVL81
     /tmp/cc3wtzn3.s:882    .text:00000000000005f4 .LVL82
     /tmp/cc3wtzn3.s:893    .text:0000000000000608 .LVL84
     /tmp/cc3wtzn3.s:907    .text:0000000000000618 .LVL85
     /tmp/cc3wtzn3.s:919    .text:0000000000000628 .LVL86
     /tmp/cc3wtzn3.s:766    .text:0000000000000554 .LVL70
     /tmp/cc3wtzn3.s:770    .text:0000000000000558 .LVL71
     /tmp/cc3wtzn3.s:873    .text:00000000000005e8 .LVL80
     /tmp/cc3wtzn3.s:829    .text:00000000000005ac .LVL76
     /tmp/cc3wtzn3.s:886    .text:00000000000005fc .LVL83
     /tmp/cc3wtzn3.s:850    .text:00000000000005c0 .LVL78
     /tmp/cc3wtzn3.s:811    .text:000000000000059c .LVL73
     /tmp/cc3wtzn3.s:818    .text:00000000000005a0 .LVL74
     /tmp/cc3wtzn3.s:453    .text:0000000000000374 .LVL44
     /tmp/cc3wtzn3.s:472    .text:0000000000000398 .LVL45
     /tmp/cc3wtzn3.s:618    .text:0000000000000488 .LVL61
     /tmp/cc3wtzn3.s:482    .text:00000000000003b0 .LVL47
     /tmp/cc3wtzn3.s:545    .text:0000000000000420 .LVL52
     /tmp/cc3wtzn3.s:555    .text:000000000000042c .LVL53
     /tmp/cc3wtzn3.s:557    .text:0000000000000430 .LVL54
     /tmp/cc3wtzn3.s:604    .text:0000000000000474 .LVL60
     /tmp/cc3wtzn3.s:522    .text:00000000000003fc .LVL49
     /tmp/cc3wtzn3.s:526    .text:0000000000000400 .LVL50
     /tmp/cc3wtzn3.s:568    .text:000000000000043c .LVL55
     /tmp/cc3wtzn3.s:594    .text:0000000000000468 .LVL58
     /tmp/cc3wtzn3.s:601    .text:0000000000000470 .LVL59
     /tmp/cc3wtzn3.s:1510   .text:000000000000096c .LVL157
     /tmp/cc3wtzn3.s:1613   .text:0000000000000a3c .LVL161
     /tmp/cc3wtzn3.s:1649   .text:0000000000000a94 .LVL164
     /tmp/cc3wtzn3.s:2562   .debug_info:0000000000000000 .Ldebug_info0
     /tmp/cc3wtzn3.s:767    .text:0000000000000554 .LBB51
     /tmp/cc3wtzn3.s:777    .text:0000000000000560 .LBE51
     /tmp/cc3wtzn3.s:779    .text:0000000000000560 .LBB59
     /tmp/cc3wtzn3.s:838    .text:00000000000005b4 .LBE59
     /tmp/cc3wtzn3.s:840    .text:00000000000005b4 .LBB60
     /tmp/cc3wtzn3.s:897    .text:0000000000000608 .LBE60
     /tmp/cc3wtzn3.s:801    .text:0000000000000588 .LBB53
     /tmp/cc3wtzn3.s:836    .text:00000000000005b4 .LBE53
     /tmp/cc3wtzn3.s:842    .text:00000000000005b4 .LBB56
     /tmp/cc3wtzn3.s:895    .text:0000000000000608 .LBE56
     /tmp/cc3wtzn3.s:1684   .text:0000000000000ac4 .LBB82
     /tmp/cc3wtzn3.s:1742   .text:0000000000000b10 .LBE82
     /tmp/cc3wtzn3.s:1754   .text:0000000000000b20 .LBB87
     /tmp/cc3wtzn3.s:1759   .text:0000000000000b28 .LBE87
     /tmp/cc3wtzn3.s:1773   .text:0000000000000b38 .LBB88
     /tmp/cc3wtzn3.s:1790   .text:0000000000000b54 .LBE88
     /tmp/cc3wtzn3.s:1883   .text:0000000000000bbc .LBE105
     /tmp/cc3wtzn3.s:1885   .text:0000000000000bbc .LBB115
     /tmp/cc3wtzn3.s:1918   .text:0000000000000be0 .LBE115
     /tmp/cc3wtzn3.s:1849   .text:0000000000000b9c .LBB107
     /tmp/cc3wtzn3.s:1855   .text:0000000000000ba0 .LBE107
     /tmp/cc3wtzn3.s:1859   .text:0000000000000ba4 .LBB112
     /tmp/cc3wtzn3.s:1881   .text:0000000000000bbc .LBE112
     /tmp/cc3wtzn3.s:1887   .text:0000000000000bbc .LBB113
     /tmp/cc3wtzn3.s:1912   .text:0000000000000bdc .LBE113
     /tmp/cc3wtzn3.s:1985   .text:0000000000000c24 .LBE116
GAS LISTING /tmp/cc3wtzn3.s 			page 97


     /tmp/cc3wtzn3.s:1987   .text:0000000000000c24 .LBB126
     /tmp/cc3wtzn3.s:2016   .text:0000000000000c48 .LBE126
     /tmp/cc3wtzn3.s:1951   .text:0000000000000c04 .LBB118
     /tmp/cc3wtzn3.s:1957   .text:0000000000000c08 .LBE118
     /tmp/cc3wtzn3.s:1961   .text:0000000000000c0c .LBB123
     /tmp/cc3wtzn3.s:1983   .text:0000000000000c24 .LBE123
     /tmp/cc3wtzn3.s:1989   .text:0000000000000c24 .LBB124
     /tmp/cc3wtzn3.s:2014   .text:0000000000000c48 .LBE124

UNDEFINED SYMBOLS
_ZN11ConsoleUtil11printStringEPKc
_ZN11ConsoleUtil5printEPKciS1_i
_ZN5Buddy5allocEm
_Z6strcpyPKcPc
_ZN5Buddy10initializeEPvm
HEAP_START_ADDR
_ZN5Buddy4freeEPvm
