GAS LISTING /tmp/ccGAYTyn.s 			page 1


   1              		.file	"slab.cpp"
   2              		.option pic
   3              		.option norelax
   4              		.text
   5              	.Ltext0:
   6              		.align	2
   7              		.globl	_Z9kmem_initPvi
   9              	_Z9kmem_initPvi:
  10              	.LFB10:
  11              		.file 1 "src/kernel/slab.cpp"
   1:src/kernel/slab.cpp **** //
   2:src/kernel/slab.cpp **** // Created by os on 1/2/23.
   3:src/kernel/slab.cpp **** //
   4:src/kernel/slab.cpp **** #include "../../h/kernel/slab.hpp"
   5:src/kernel/slab.cpp **** 
   6:src/kernel/slab.cpp **** void kmem_init(void* space, int block_num){
  12              		.loc 1 6 43
  13              		.cfi_startproc
  14              	.LVL0:
  15 0000 130101FF 		addi	sp,sp,-16
  16              		.cfi_def_cfa_offset 16
  17 0004 23341100 		sd	ra,8(sp)
  18 0008 23308100 		sd	s0,0(sp)
  19              		.cfi_offset 1, -8
  20              		.cfi_offset 8, -16
  21 000c 13040101 		addi	s0,sp,16
  22              		.cfi_def_cfa 8, 0
   7:src/kernel/slab.cpp ****     SlabAllocator::initialize(space, block_num);
  23              		.loc 1 7 5
  24              		.loc 1 7 30 is_stmt 0
  25 0010 97000000 		call	_ZN13SlabAllocator10initializeEPvm@plt
  25      E7800000 
  26              	.LVL1:
   8:src/kernel/slab.cpp **** }
  27              		.loc 1 8 1
  28 0018 83308100 		ld	ra,8(sp)
  29              		.cfi_restore 1
  30 001c 03340100 		ld	s0,0(sp)
  31              		.cfi_restore 8
  32              		.cfi_def_cfa 2, 16
  33 0020 13010101 		addi	sp,sp,16
  34              		.cfi_def_cfa_offset 0
  35 0024 67800000 		jr	ra
  36              		.cfi_endproc
  37              	.LFE10:
  39              		.align	2
  40              		.globl	_Z17kmem_cache_createPKcmPFvPvES3_
  42              	_Z17kmem_cache_createPKcmPFvPvES3_:
  43              	.LFB11:
   9:src/kernel/slab.cpp **** 
  10:src/kernel/slab.cpp **** kmem_cache_t* kmem_cache_create(const char* name, size_t size, void (*ctor)(void*), void (*dtor)(vo
  44              		.loc 1 10 105 is_stmt 1
  45              		.cfi_startproc
  46              	.LVL2:
  47 0028 130101FF 		addi	sp,sp,-16
  48              		.cfi_def_cfa_offset 16
  49 002c 23341100 		sd	ra,8(sp)
GAS LISTING /tmp/ccGAYTyn.s 			page 2


  50 0030 23308100 		sd	s0,0(sp)
  51              		.cfi_offset 1, -8
  52              		.cfi_offset 8, -16
  53 0034 13040101 		addi	s0,sp,16
  54              		.cfi_def_cfa 8, 0
  11:src/kernel/slab.cpp ****     return SlabAllocator::createCache(name, size, ctor, dtor);
  55              		.loc 1 11 5
  56              		.loc 1 11 38 is_stmt 0
  57 0038 97000000 		call	_ZN13SlabAllocator11createCacheEPKcmPFvPvES4_@plt
  57      E7800000 
  58              	.LVL3:
  12:src/kernel/slab.cpp **** }
  59              		.loc 1 12 1
  60 0040 83308100 		ld	ra,8(sp)
  61              		.cfi_restore 1
  62 0044 03340100 		ld	s0,0(sp)
  63              		.cfi_restore 8
  64              		.cfi_def_cfa 2, 16
  65 0048 13010101 		addi	sp,sp,16
  66              		.cfi_def_cfa_offset 0
  67 004c 67800000 		jr	ra
  68              		.cfi_endproc
  69              	.LFE11:
  71              		.align	2
  72              		.globl	_Z16kmem_cache_allocP5Cache
  74              	_Z16kmem_cache_allocP5Cache:
  75              	.LFB12:
  13:src/kernel/slab.cpp **** 
  14:src/kernel/slab.cpp **** void* kmem_cache_alloc(kmem_cache_t* cachep){
  76              		.loc 1 14 45 is_stmt 1
  77              		.cfi_startproc
  78              	.LVL4:
  79 0050 130101FF 		addi	sp,sp,-16
  80              		.cfi_def_cfa_offset 16
  81 0054 23341100 		sd	ra,8(sp)
  82 0058 23308100 		sd	s0,0(sp)
  83              		.cfi_offset 1, -8
  84              		.cfi_offset 8, -16
  85 005c 13040101 		addi	s0,sp,16
  86              		.cfi_def_cfa 8, 0
  15:src/kernel/slab.cpp ****     return SlabAllocator::allocateObject(cachep);
  87              		.loc 1 15 5
  88              		.loc 1 15 41 is_stmt 0
  89 0060 97000000 		call	_ZN13SlabAllocator14allocateObjectEP5Cache@plt
  89      E7800000 
  90              	.LVL5:
  16:src/kernel/slab.cpp **** }
  91              		.loc 1 16 1
  92 0068 83308100 		ld	ra,8(sp)
  93              		.cfi_restore 1
  94 006c 03340100 		ld	s0,0(sp)
  95              		.cfi_restore 8
  96              		.cfi_def_cfa 2, 16
  97 0070 13010101 		addi	sp,sp,16
  98              		.cfi_def_cfa_offset 0
  99 0074 67800000 		jr	ra
 100              		.cfi_endproc
GAS LISTING /tmp/ccGAYTyn.s 			page 3


 101              	.LFE12:
 103              		.align	2
 104              		.globl	_Z15kmem_cache_freeP5CachePv
 106              	_Z15kmem_cache_freeP5CachePv:
 107              	.LFB13:
  17:src/kernel/slab.cpp **** 
  18:src/kernel/slab.cpp **** void kmem_cache_free(kmem_cache_t* cachep, void* objp){
 108              		.loc 1 18 55 is_stmt 1
 109              		.cfi_startproc
 110              	.LVL6:
 111 0078 130101FF 		addi	sp,sp,-16
 112              		.cfi_def_cfa_offset 16
 113 007c 23341100 		sd	ra,8(sp)
 114 0080 23308100 		sd	s0,0(sp)
 115              		.cfi_offset 1, -8
 116              		.cfi_offset 8, -16
 117 0084 13040101 		addi	s0,sp,16
 118              		.cfi_def_cfa 8, 0
  19:src/kernel/slab.cpp ****     SlabAllocator::freeObject(cachep, objp);
 119              		.loc 1 19 5
 120              		.loc 1 19 30 is_stmt 0
 121 0088 97000000 		call	_ZN13SlabAllocator10freeObjectEP5CachePKv@plt
 121      E7800000 
 122              	.LVL7:
  20:src/kernel/slab.cpp **** }
 123              		.loc 1 20 1
 124 0090 83308100 		ld	ra,8(sp)
 125              		.cfi_restore 1
 126 0094 03340100 		ld	s0,0(sp)
 127              		.cfi_restore 8
 128              		.cfi_def_cfa 2, 16
 129 0098 13010101 		addi	sp,sp,16
 130              		.cfi_def_cfa_offset 0
 131 009c 67800000 		jr	ra
 132              		.cfi_endproc
 133              	.LFE13:
 135              		.align	2
 136              		.globl	_Z18kmem_cache_destroyP5Cache
 138              	_Z18kmem_cache_destroyP5Cache:
 139              	.LFB14:
  21:src/kernel/slab.cpp **** 
  22:src/kernel/slab.cpp **** void kmem_cache_destroy(kmem_cache_t* cachep){
 140              		.loc 1 22 46 is_stmt 1
 141              		.cfi_startproc
 142              	.LVL8:
 143 00a0 130101FE 		addi	sp,sp,-32
 144              		.cfi_def_cfa_offset 32
 145 00a4 233C1100 		sd	ra,24(sp)
 146 00a8 23388100 		sd	s0,16(sp)
 147              		.cfi_offset 1, -8
 148              		.cfi_offset 8, -16
 149 00ac 13040102 		addi	s0,sp,32
 150              		.cfi_def_cfa 8, 0
 151 00b0 2334A4FE 		sd	a0,-24(s0)
  23:src/kernel/slab.cpp ****     SlabAllocator::deleteCache(cachep);
 152              		.loc 1 23 5
 153              		.loc 1 23 31 is_stmt 0
GAS LISTING /tmp/ccGAYTyn.s 			page 4


 154 00b4 130584FE 		addi	a0,s0,-24
 155              	.LVL9:
 156 00b8 97000000 		call	_ZN13SlabAllocator11deleteCacheERP5Cache@plt
 156      E7800000 
 157              	.LVL10:
  24:src/kernel/slab.cpp **** }
 158              		.loc 1 24 1
 159 00c0 83308101 		ld	ra,24(sp)
 160              		.cfi_restore 1
 161 00c4 03340101 		ld	s0,16(sp)
 162              		.cfi_restore 8
 163              		.cfi_def_cfa 2, 32
 164 00c8 13010102 		addi	sp,sp,32
 165              		.cfi_def_cfa_offset 0
 166 00cc 67800000 		jr	ra
 167              		.cfi_endproc
 168              	.LFE14:
 170              		.align	2
 171              		.globl	_Z15kmem_cache_infoP5Cache
 173              	_Z15kmem_cache_infoP5Cache:
 174              	.LFB15:
  25:src/kernel/slab.cpp **** 
  26:src/kernel/slab.cpp **** void kmem_cache_info(kmem_cache_t* cachep){
 175              		.loc 1 26 43 is_stmt 1
 176              		.cfi_startproc
 177              	.LVL11:
 178 00d0 130101FF 		addi	sp,sp,-16
 179              		.cfi_def_cfa_offset 16
 180 00d4 23341100 		sd	ra,8(sp)
 181 00d8 23308100 		sd	s0,0(sp)
 182              		.cfi_offset 1, -8
 183              		.cfi_offset 8, -16
 184 00dc 13040101 		addi	s0,sp,16
 185              		.cfi_def_cfa 8, 0
  27:src/kernel/slab.cpp ****     SlabAllocator::printCache(cachep);
 186              		.loc 1 27 5
 187              		.loc 1 27 30 is_stmt 0
 188 00e0 97000000 		call	_ZN13SlabAllocator10printCacheEP5Cache@plt
 188      E7800000 
 189              	.LVL12:
  28:src/kernel/slab.cpp **** }
 190              		.loc 1 28 1
 191 00e8 83308100 		ld	ra,8(sp)
 192              		.cfi_restore 1
 193 00ec 03340100 		ld	s0,0(sp)
 194              		.cfi_restore 8
 195              		.cfi_def_cfa 2, 16
 196 00f0 13010101 		addi	sp,sp,16
 197              		.cfi_def_cfa_offset 0
 198 00f4 67800000 		jr	ra
 199              		.cfi_endproc
 200              	.LFE15:
 202              		.align	2
 203              		.globl	_Z17kmem_cache_shrinkP5Cache
 205              	_Z17kmem_cache_shrinkP5Cache:
 206              	.LFB16:
  29:src/kernel/slab.cpp **** 
GAS LISTING /tmp/ccGAYTyn.s 			page 5


  30:src/kernel/slab.cpp **** int kmem_cache_shrink(kmem_cache_t* cachep){
 207              		.loc 1 30 44 is_stmt 1
 208              		.cfi_startproc
 209              	.LVL13:
 210 00f8 130101FF 		addi	sp,sp,-16
 211              		.cfi_def_cfa_offset 16
 212 00fc 23341100 		sd	ra,8(sp)
 213 0100 23308100 		sd	s0,0(sp)
 214              		.cfi_offset 1, -8
 215              		.cfi_offset 8, -16
 216 0104 13040101 		addi	s0,sp,16
 217              		.cfi_def_cfa 8, 0
  31:src/kernel/slab.cpp ****     return SlabAllocator::shrinkCache(cachep);
 218              		.loc 1 31 5
 219              		.loc 1 31 38 is_stmt 0
 220 0108 97000000 		call	_ZN13SlabAllocator11shrinkCacheEP5Cache@plt
 220      E7800000 
 221              	.LVL14:
  32:src/kernel/slab.cpp **** }
 222              		.loc 1 32 1
 223 0110 83308100 		ld	ra,8(sp)
 224              		.cfi_restore 1
 225 0114 03340100 		ld	s0,0(sp)
 226              		.cfi_restore 8
 227              		.cfi_def_cfa 2, 16
 228 0118 13010101 		addi	sp,sp,16
 229              		.cfi_def_cfa_offset 0
 230 011c 67800000 		jr	ra
 231              		.cfi_endproc
 232              	.LFE16:
 234              		.align	2
 235              		.globl	_Z7kmallocm
 237              	_Z7kmallocm:
 238              	.LFB17:
  33:src/kernel/slab.cpp **** void* kmalloc(size_t size){
 239              		.loc 1 33 27 is_stmt 1
 240              		.cfi_startproc
 241              	.LVL15:
 242 0120 130101FF 		addi	sp,sp,-16
 243              		.cfi_def_cfa_offset 16
 244 0124 23341100 		sd	ra,8(sp)
 245 0128 23308100 		sd	s0,0(sp)
 246              		.cfi_offset 1, -8
 247              		.cfi_offset 8, -16
 248 012c 13040101 		addi	s0,sp,16
 249              		.cfi_def_cfa 8, 0
  34:src/kernel/slab.cpp ****     return SlabAllocator::allocateBuffer(size);
 250              		.loc 1 34 5
 251              		.loc 1 34 41 is_stmt 0
 252 0130 97000000 		call	_ZN13SlabAllocator14allocateBufferEm@plt
 252      E7800000 
 253              	.LVL16:
  35:src/kernel/slab.cpp **** }
 254              		.loc 1 35 1
 255 0138 83308100 		ld	ra,8(sp)
 256              		.cfi_restore 1
 257 013c 03340100 		ld	s0,0(sp)
GAS LISTING /tmp/ccGAYTyn.s 			page 6


 258              		.cfi_restore 8
 259              		.cfi_def_cfa 2, 16
 260 0140 13010101 		addi	sp,sp,16
 261              		.cfi_def_cfa_offset 0
 262 0144 67800000 		jr	ra
 263              		.cfi_endproc
 264              	.LFE17:
 266              		.align	2
 267              		.globl	_Z5kfreePKv
 269              	_Z5kfreePKv:
 270              	.LFB18:
  36:src/kernel/slab.cpp **** 
  37:src/kernel/slab.cpp **** void kfree(const void* objp){
 271              		.loc 1 37 29 is_stmt 1
 272              		.cfi_startproc
 273              	.LVL17:
 274 0148 130101FF 		addi	sp,sp,-16
 275              		.cfi_def_cfa_offset 16
 276 014c 23341100 		sd	ra,8(sp)
 277 0150 23308100 		sd	s0,0(sp)
 278              		.cfi_offset 1, -8
 279              		.cfi_offset 8, -16
 280 0154 13040101 		addi	s0,sp,16
 281              		.cfi_def_cfa 8, 0
  38:src/kernel/slab.cpp ****     SlabAllocator::freeBuffer(objp);
 282              		.loc 1 38 5
 283              		.loc 1 38 30 is_stmt 0
 284 0158 97000000 		call	_ZN13SlabAllocator10freeBufferEPKv@plt
 284      E7800000 
 285              	.LVL18:
  39:src/kernel/slab.cpp **** }...
 286              		.loc 1 39 1
 287 0160 83308100 		ld	ra,8(sp)
 288              		.cfi_restore 1
 289 0164 03340100 		ld	s0,0(sp)
 290              		.cfi_restore 8
 291              		.cfi_def_cfa 2, 16
 292 0168 13010101 		addi	sp,sp,16
 293              		.cfi_def_cfa_offset 0
 294 016c 67800000 		jr	ra
 295              		.cfi_endproc
 296              	.LFE18:
 298              	.Letext0:
 299              		.file 2 "src/kernel/../../h/kernel/../../lib/hw.h"
 300              		.file 3 "src/kernel/../../h/kernel/utility.hpp"
 301              		.file 4 "src/kernel/../../h/kernel/slab_t.hpp"
 302              		.file 5 "src/kernel/../../h/kernel/cache_t.hpp"
 303              		.file 6 "src/kernel/../../h/kernel/slabAllocator.hpp"
GAS LISTING /tmp/ccGAYTyn.s 			page 7

