GAS LISTING /tmp/ccrEM4Fq.s 			page 1


   1              		.file	"slab.cpp"
   2              		.option pic
   3              		.option norelax
   4              		.text
   5              	.Ltext0:
   6              		.align	2
   7              		.globl	_Z9kmem_initPvi
   9              	_Z9kmem_initPvi:
  10              	.LFB10:
  11              		.file 1 "src/kernel/slab.cpp"
   1:src/kernel/slab.cpp **** //
   2:src/kernel/slab.cpp **** // Created by os on 1/2/23.
   3:src/kernel/slab.cpp **** //
   4:src/kernel/slab.cpp **** #include "../../h/kernel/slab.hpp"
   5:src/kernel/slab.cpp **** 
   6:src/kernel/slab.cpp **** void kmem_init(void* space, int block_num){
  12              		.loc 1 6 43
  13              		.cfi_startproc
  14              	.LVL0:
  15 0000 130101FF 		addi	sp,sp,-16
  16              		.cfi_def_cfa_offset 16
  17 0004 23341100 		sd	ra,8(sp)
  18 0008 23308100 		sd	s0,0(sp)
  19              		.cfi_offset 1, -8
  20              		.cfi_offset 8, -16
  21 000c 13040101 		addi	s0,sp,16
  22              		.cfi_def_cfa 8, 0
   7:src/kernel/slab.cpp ****     SlabAllocator::initialize(space, block_num);
  23              		.loc 1 7 5
  24              		.loc 1 7 30 is_stmt 0
  25 0010 97000000 		call	_ZN13SlabAllocator10initializeEPvm@plt
  25      E7800000 
  26              	.LVL1:
   8:src/kernel/slab.cpp **** }
  27              		.loc 1 8 1
  28 0018 83308100 		ld	ra,8(sp)
  29              		.cfi_restore 1
  30 001c 03340100 		ld	s0,0(sp)
  31              		.cfi_restore 8
  32              		.cfi_def_cfa 2, 16
  33 0020 13010101 		addi	sp,sp,16
  34              		.cfi_def_cfa_offset 0
  35 0024 67800000 		jr	ra
  36              		.cfi_endproc
  37              	.LFE10:
  39              		.align	2
  40              		.globl	_Z17kmem_cache_createPKcmPFvPvES3_
  42              	_Z17kmem_cache_createPKcmPFvPvES3_:
  43              	.LFB11:
   9:src/kernel/slab.cpp **** 
  10:src/kernel/slab.cpp **** kmem_cache_t* kmem_cache_create(const char* name, size_t size, void (*ctor)(void*), void (*dtor)(vo
  44              		.loc 1 10 105 is_stmt 1
  45              		.cfi_startproc
  46              	.LVL2:
  47 0028 130101FF 		addi	sp,sp,-16
  48              		.cfi_def_cfa_offset 16
  49 002c 23341100 		sd	ra,8(sp)
GAS LISTING /tmp/ccrEM4Fq.s 			page 2


  50 0030 23308100 		sd	s0,0(sp)
  51              		.cfi_offset 1, -8
  52              		.cfi_offset 8, -16
  53 0034 13040101 		addi	s0,sp,16
  54              		.cfi_def_cfa 8, 0
  11:src/kernel/slab.cpp ****     return SlabAllocator::createCache(name, size, ctor, dtor);
  55              		.loc 1 11 5
  56              		.loc 1 11 38 is_stmt 0
  57 0038 97000000 		call	_ZN13SlabAllocator11createCacheEPKcmPFvPvES4_@plt
  57      E7800000 
  58              	.LVL3:
  12:src/kernel/slab.cpp **** }
  59              		.loc 1 12 1
  60 0040 83308100 		ld	ra,8(sp)
  61              		.cfi_restore 1
  62 0044 03340100 		ld	s0,0(sp)
  63              		.cfi_restore 8
  64              		.cfi_def_cfa 2, 16
  65 0048 13010101 		addi	sp,sp,16
  66              		.cfi_def_cfa_offset 0
  67 004c 67800000 		jr	ra
  68              		.cfi_endproc
  69              	.LFE11:
  71              		.align	2
  72              		.globl	_Z16kmem_cache_allocP5Cache
  74              	_Z16kmem_cache_allocP5Cache:
  75              	.LFB12:
  13:src/kernel/slab.cpp **** 
  14:src/kernel/slab.cpp **** void* kmem_cache_alloc(kmem_cache_t* cachep){
  76              		.loc 1 14 45 is_stmt 1
  77              		.cfi_startproc
  78              	.LVL4:
  79 0050 130101FF 		addi	sp,sp,-16
  80              		.cfi_def_cfa_offset 16
  81 0054 23341100 		sd	ra,8(sp)
  82 0058 23308100 		sd	s0,0(sp)
  83              		.cfi_offset 1, -8
  84              		.cfi_offset 8, -16
  85 005c 13040101 		addi	s0,sp,16
  86              		.cfi_def_cfa 8, 0
  15:src/kernel/slab.cpp ****     return SlabAllocator::allocateObject(cachep);
  87              		.loc 1 15 5
  88              		.loc 1 15 41 is_stmt 0
  89 0060 97000000 		call	_ZN13SlabAllocator14allocateObjectEP5Cache@plt
  89      E7800000 
  90              	.LVL5:
  16:src/kernel/slab.cpp **** }
  91              		.loc 1 16 1
  92 0068 83308100 		ld	ra,8(sp)
  93              		.cfi_restore 1
  94 006c 03340100 		ld	s0,0(sp)
  95              		.cfi_restore 8
  96              		.cfi_def_cfa 2, 16
  97 0070 13010101 		addi	sp,sp,16
  98              		.cfi_def_cfa_offset 0
  99 0074 67800000 		jr	ra
 100              		.cfi_endproc
GAS LISTING /tmp/ccrEM4Fq.s 			page 3


 101              	.LFE12:
 103              		.align	2
 104              		.globl	_Z15kmem_cache_freeP5CachePv
 106              	_Z15kmem_cache_freeP5CachePv:
 107              	.LFB13:
  17:src/kernel/slab.cpp **** 
  18:src/kernel/slab.cpp **** void kmem_cache_free(kmem_cache_t* cachep, void* objp){
 108              		.loc 1 18 55 is_stmt 1
 109              		.cfi_startproc
 110              	.LVL6:
 111 0078 130101FF 		addi	sp,sp,-16
 112              		.cfi_def_cfa_offset 16
 113 007c 23341100 		sd	ra,8(sp)
 114 0080 23308100 		sd	s0,0(sp)
 115              		.cfi_offset 1, -8
 116              		.cfi_offset 8, -16
 117 0084 13040101 		addi	s0,sp,16
 118              		.cfi_def_cfa 8, 0
  19:src/kernel/slab.cpp ****     SlabAllocator::freeObject(cachep, objp);
 119              		.loc 1 19 5
 120              		.loc 1 19 30 is_stmt 0
 121 0088 97000000 		call	_ZN13SlabAllocator10freeObjectEP5CachePKv@plt
 121      E7800000 
 122              	.LVL7:
  20:src/kernel/slab.cpp **** }
 123              		.loc 1 20 1
 124 0090 83308100 		ld	ra,8(sp)
 125              		.cfi_restore 1
 126 0094 03340100 		ld	s0,0(sp)
 127              		.cfi_restore 8
 128              		.cfi_def_cfa 2, 16
 129 0098 13010101 		addi	sp,sp,16
 130              		.cfi_def_cfa_offset 0
 131 009c 67800000 		jr	ra
 132              		.cfi_endproc
 133              	.LFE13:
 135              		.align	2
 136              		.globl	_Z18kmem_cache_destroyP5Cache
 138              	_Z18kmem_cache_destroyP5Cache:
 139              	.LFB14:
  21:src/kernel/slab.cpp **** 
  22:src/kernel/slab.cpp **** void kmem_cache_destroy(kmem_cache_t* cachep){
 140              		.loc 1 22 46 is_stmt 1
 141              		.cfi_startproc
 142              	.LVL8:
 143 00a0 130101FE 		addi	sp,sp,-32
 144              		.cfi_def_cfa_offset 32
 145 00a4 233C1100 		sd	ra,24(sp)
 146 00a8 23388100 		sd	s0,16(sp)
 147              		.cfi_offset 1, -8
 148              		.cfi_offset 8, -16
 149 00ac 13040102 		addi	s0,sp,32
 150              		.cfi_def_cfa 8, 0
 151 00b0 2334A4FE 		sd	a0,-24(s0)
  23:src/kernel/slab.cpp ****     SlabAllocator::deleteCache(cachep);
 152              		.loc 1 23 5
 153              		.loc 1 23 31 is_stmt 0
GAS LISTING /tmp/ccrEM4Fq.s 			page 4


 154 00b4 130584FE 		addi	a0,s0,-24
 155              	.LVL9:
 156 00b8 97000000 		call	_ZN13SlabAllocator11deleteCacheERP5Cache@plt
 156      E7800000 
 157              	.LVL10:
  24:src/kernel/slab.cpp **** }
 158              		.loc 1 24 1
 159 00c0 83308101 		ld	ra,24(sp)
 160              		.cfi_restore 1
 161 00c4 03340101 		ld	s0,16(sp)
 162              		.cfi_restore 8
 163              		.cfi_def_cfa 2, 32
 164 00c8 13010102 		addi	sp,sp,32
 165              		.cfi_def_cfa_offset 0
 166 00cc 67800000 		jr	ra
 167              		.cfi_endproc
 168              	.LFE14:
 170              		.align	2
 171              		.globl	_Z15kmem_cache_infoP5Cache
 173              	_Z15kmem_cache_infoP5Cache:
 174              	.LFB15:
  25:src/kernel/slab.cpp **** 
  26:src/kernel/slab.cpp **** void kmem_cache_info(kmem_cache_t* cachep){
 175              		.loc 1 26 43 is_stmt 1
 176              		.cfi_startproc
 177              	.LVL11:
 178 00d0 130101FF 		addi	sp,sp,-16
 179              		.cfi_def_cfa_offset 16
 180 00d4 23341100 		sd	ra,8(sp)
 181 00d8 23308100 		sd	s0,0(sp)
 182              		.cfi_offset 1, -8
 183              		.cfi_offset 8, -16
 184 00dc 13040101 		addi	s0,sp,16
 185              		.cfi_def_cfa 8, 0
  27:src/kernel/slab.cpp ****     SlabAllocator::printCache(cachep);
 186              		.loc 1 27 5
 187              		.loc 1 27 30 is_stmt 0
 188 00e0 97000000 		call	_ZN13SlabAllocator10printCacheEP5Cache@plt
 188      E7800000 
 189              	.LVL12:
  28:src/kernel/slab.cpp **** }
 190              		.loc 1 28 1
 191 00e8 83308100 		ld	ra,8(sp)
 192              		.cfi_restore 1
 193 00ec 03340100 		ld	s0,0(sp)
 194              		.cfi_restore 8
 195              		.cfi_def_cfa 2, 16
 196 00f0 13010101 		addi	sp,sp,16
 197              		.cfi_def_cfa_offset 0
 198 00f4 67800000 		jr	ra
 199              		.cfi_endproc
 200              	.LFE15:
 202              		.align	2
 203              		.globl	_Z17kmem_cache_shrinkP5Cache
 205              	_Z17kmem_cache_shrinkP5Cache:
 206              	.LFB16:
  29:src/kernel/slab.cpp **** 
GAS LISTING /tmp/ccrEM4Fq.s 			page 5


  30:src/kernel/slab.cpp **** int kmem_cache_shrink(kmem_cache_t* cachep){
 207              		.loc 1 30 44 is_stmt 1
 208              		.cfi_startproc
 209              	.LVL13:
 210 00f8 130101FF 		addi	sp,sp,-16
 211              		.cfi_def_cfa_offset 16
 212 00fc 23341100 		sd	ra,8(sp)
 213 0100 23308100 		sd	s0,0(sp)
 214              		.cfi_offset 1, -8
 215              		.cfi_offset 8, -16
 216 0104 13040101 		addi	s0,sp,16
 217              		.cfi_def_cfa 8, 0
  31:src/kernel/slab.cpp ****     return SlabAllocator::shrinkCache(cachep);
 218              		.loc 1 31 5
 219              		.loc 1 31 38 is_stmt 0
 220 0108 97000000 		call	_ZN13SlabAllocator11shrinkCacheEP5Cache@plt
 220      E7800000 
 221              	.LVL14:
  32:src/kernel/slab.cpp **** }
 222              		.loc 1 32 1
 223 0110 83308100 		ld	ra,8(sp)
 224              		.cfi_restore 1
 225 0114 03340100 		ld	s0,0(sp)
 226              		.cfi_restore 8
 227              		.cfi_def_cfa 2, 16
 228 0118 13010101 		addi	sp,sp,16
 229              		.cfi_def_cfa_offset 0
 230 011c 67800000 		jr	ra
 231              		.cfi_endproc
 232              	.LFE16:
 234              		.align	2
 235              		.globl	_Z7kmallocm
 237              	_Z7kmallocm:
 238              	.LFB17:
  33:src/kernel/slab.cpp **** void* kmalloc(size_t size){
 239              		.loc 1 33 27 is_stmt 1
 240              		.cfi_startproc
 241              	.LVL15:
 242 0120 130101FF 		addi	sp,sp,-16
 243              		.cfi_def_cfa_offset 16
 244 0124 23341100 		sd	ra,8(sp)
 245 0128 23308100 		sd	s0,0(sp)
 246              		.cfi_offset 1, -8
 247              		.cfi_offset 8, -16
 248 012c 13040101 		addi	s0,sp,16
 249              		.cfi_def_cfa 8, 0
  34:src/kernel/slab.cpp ****     return SlabAllocator::allocateBuffer(size);
 250              		.loc 1 34 5
 251              		.loc 1 34 41 is_stmt 0
 252 0130 97000000 		call	_ZN13SlabAllocator14allocateBufferEm@plt
 252      E7800000 
 253              	.LVL16:
  35:src/kernel/slab.cpp **** }
 254              		.loc 1 35 1
 255 0138 83308100 		ld	ra,8(sp)
 256              		.cfi_restore 1
 257 013c 03340100 		ld	s0,0(sp)
GAS LISTING /tmp/ccrEM4Fq.s 			page 6


 258              		.cfi_restore 8
 259              		.cfi_def_cfa 2, 16
 260 0140 13010101 		addi	sp,sp,16
 261              		.cfi_def_cfa_offset 0
 262 0144 67800000 		jr	ra
 263              		.cfi_endproc
 264              	.LFE17:
 266              		.align	2
 267              		.globl	_Z5kfreePKv
 269              	_Z5kfreePKv:
 270              	.LFB18:
  36:src/kernel/slab.cpp **** 
  37:src/kernel/slab.cpp **** void kfree(const void* objp){
 271              		.loc 1 37 29 is_stmt 1
 272              		.cfi_startproc
 273              	.LVL17:
 274 0148 130101FF 		addi	sp,sp,-16
 275              		.cfi_def_cfa_offset 16
 276 014c 23341100 		sd	ra,8(sp)
 277 0150 23308100 		sd	s0,0(sp)
 278              		.cfi_offset 1, -8
 279              		.cfi_offset 8, -16
 280 0154 13040101 		addi	s0,sp,16
 281              		.cfi_def_cfa 8, 0
  38:src/kernel/slab.cpp ****     SlabAllocator::freeBuffer(objp);
 282              		.loc 1 38 5
 283              		.loc 1 38 30 is_stmt 0
 284 0158 97000000 		call	_ZN13SlabAllocator10freeBufferEPKv@plt
 284      E7800000 
 285              	.LVL18:
  39:src/kernel/slab.cpp **** }
 286              		.loc 1 39 1
 287 0160 83308100 		ld	ra,8(sp)
 288              		.cfi_restore 1
 289 0164 03340100 		ld	s0,0(sp)
 290              		.cfi_restore 8
 291              		.cfi_def_cfa 2, 16
 292 0168 13010101 		addi	sp,sp,16
 293              		.cfi_def_cfa_offset 0
 294 016c 67800000 		jr	ra
 295              		.cfi_endproc
 296              	.LFE18:
 298              		.align	2
 299              		.globl	_Z16kmem_cache_errorP5Cache
 301              	_Z16kmem_cache_errorP5Cache:
 302              	.LFB19:
  40:src/kernel/slab.cpp **** 
  41:src/kernel/slab.cpp **** int kmem_cache_error(kmem_cache_t* cachep){
 303              		.loc 1 41 43 is_stmt 1
 304              		.cfi_startproc
 305              	.LVL19:
 306 0170 130101FF 		addi	sp,sp,-16
 307              		.cfi_def_cfa_offset 16
 308 0174 23341100 		sd	ra,8(sp)
 309 0178 23308100 		sd	s0,0(sp)
 310              		.cfi_offset 1, -8
 311              		.cfi_offset 8, -16
GAS LISTING /tmp/ccrEM4Fq.s 			page 7


 312 017c 13040101 		addi	s0,sp,16
 313              		.cfi_def_cfa 8, 0
  42:src/kernel/slab.cpp ****     return SlabAllocator::cacheErrorHandler(cachep);
 314              		.loc 1 42 5
 315              		.loc 1 42 44 is_stmt 0
 316 0180 97000000 		call	_ZN13SlabAllocator17cacheErrorHandlerEP5Cache@plt
 316      E7800000 
 317              	.LVL20:
  43:src/kernel/slab.cpp **** }...
 318              		.loc 1 43 1
 319 0188 83308100 		ld	ra,8(sp)
 320              		.cfi_restore 1
 321 018c 03340100 		ld	s0,0(sp)
 322              		.cfi_restore 8
 323              		.cfi_def_cfa 2, 16
 324 0190 13010101 		addi	sp,sp,16
 325              		.cfi_def_cfa_offset 0
 326 0194 67800000 		jr	ra
 327              		.cfi_endproc
 328              	.LFE19:
 330              	.Letext0:
 331              		.file 2 "src/kernel/../../h/kernel/../../lib/hw.h"
 332              		.file 3 "src/kernel/../../h/kernel/utility.hpp"
 333              		.file 4 "src/kernel/../../h/kernel/slab_t.hpp"
 334              		.file 5 "src/kernel/../../h/kernel/cache_t.hpp"
 335              		.file 6 "src/kernel/../../h/kernel/slab_allocator.hpp"
GAS LISTING /tmp/ccrEM4Fq.s 			page 8


DEFINED SYMBOLS
                            *ABS*:0000000000000000 slab.cpp
     /tmp/ccrEM4Fq.s:9      .text:0000000000000000 _Z9kmem_initPvi
     /tmp/ccrEM4Fq.s:13     .text:0000000000000000 .L0 
     /tmp/ccrEM4Fq.s:15     .text:0000000000000000 .L0 
     /tmp/ccrEM4Fq.s:16     .text:0000000000000004 .L0 
     /tmp/ccrEM4Fq.s:19     .text:000000000000000c .L0 
     /tmp/ccrEM4Fq.s:20     .text:000000000000000c .L0 
     /tmp/ccrEM4Fq.s:22     .text:0000000000000010 .L0 
     /tmp/ccrEM4Fq.s:24     .text:0000000000000010 .L0 
     /tmp/ccrEM4Fq.s:25     .text:0000000000000010 .L0 
     /tmp/ccrEM4Fq.s:28     .text:0000000000000018 .L0 
     /tmp/ccrEM4Fq.s:29     .text:000000000000001c .L0 
     /tmp/ccrEM4Fq.s:31     .text:0000000000000020 .L0 
     /tmp/ccrEM4Fq.s:32     .text:0000000000000020 .L0 
     /tmp/ccrEM4Fq.s:34     .text:0000000000000024 .L0 
     /tmp/ccrEM4Fq.s:36     .text:0000000000000028 .L0 
     /tmp/ccrEM4Fq.s:42     .text:0000000000000028 _Z17kmem_cache_createPKcmPFvPvES3_
     /tmp/ccrEM4Fq.s:45     .text:0000000000000028 .L0 
     /tmp/ccrEM4Fq.s:47     .text:0000000000000028 .L0 
     /tmp/ccrEM4Fq.s:48     .text:000000000000002c .L0 
     /tmp/ccrEM4Fq.s:51     .text:0000000000000034 .L0 
     /tmp/ccrEM4Fq.s:52     .text:0000000000000034 .L0 
     /tmp/ccrEM4Fq.s:54     .text:0000000000000038 .L0 
     /tmp/ccrEM4Fq.s:56     .text:0000000000000038 .L0 
     /tmp/ccrEM4Fq.s:57     .text:0000000000000038 .L0 
     /tmp/ccrEM4Fq.s:60     .text:0000000000000040 .L0 
     /tmp/ccrEM4Fq.s:61     .text:0000000000000044 .L0 
     /tmp/ccrEM4Fq.s:63     .text:0000000000000048 .L0 
     /tmp/ccrEM4Fq.s:64     .text:0000000000000048 .L0 
     /tmp/ccrEM4Fq.s:66     .text:000000000000004c .L0 
     /tmp/ccrEM4Fq.s:68     .text:0000000000000050 .L0 
     /tmp/ccrEM4Fq.s:74     .text:0000000000000050 _Z16kmem_cache_allocP5Cache
     /tmp/ccrEM4Fq.s:77     .text:0000000000000050 .L0 
     /tmp/ccrEM4Fq.s:79     .text:0000000000000050 .L0 
     /tmp/ccrEM4Fq.s:80     .text:0000000000000054 .L0 
     /tmp/ccrEM4Fq.s:83     .text:000000000000005c .L0 
     /tmp/ccrEM4Fq.s:84     .text:000000000000005c .L0 
     /tmp/ccrEM4Fq.s:86     .text:0000000000000060 .L0 
     /tmp/ccrEM4Fq.s:88     .text:0000000000000060 .L0 
     /tmp/ccrEM4Fq.s:89     .text:0000000000000060 .L0 
     /tmp/ccrEM4Fq.s:92     .text:0000000000000068 .L0 
     /tmp/ccrEM4Fq.s:93     .text:000000000000006c .L0 
     /tmp/ccrEM4Fq.s:95     .text:0000000000000070 .L0 
     /tmp/ccrEM4Fq.s:96     .text:0000000000000070 .L0 
     /tmp/ccrEM4Fq.s:98     .text:0000000000000074 .L0 
     /tmp/ccrEM4Fq.s:100    .text:0000000000000078 .L0 
     /tmp/ccrEM4Fq.s:106    .text:0000000000000078 _Z15kmem_cache_freeP5CachePv
     /tmp/ccrEM4Fq.s:109    .text:0000000000000078 .L0 
     /tmp/ccrEM4Fq.s:111    .text:0000000000000078 .L0 
     /tmp/ccrEM4Fq.s:112    .text:000000000000007c .L0 
     /tmp/ccrEM4Fq.s:115    .text:0000000000000084 .L0 
     /tmp/ccrEM4Fq.s:116    .text:0000000000000084 .L0 
     /tmp/ccrEM4Fq.s:118    .text:0000000000000088 .L0 
     /tmp/ccrEM4Fq.s:120    .text:0000000000000088 .L0 
     /tmp/ccrEM4Fq.s:121    .text:0000000000000088 .L0 
     /tmp/ccrEM4Fq.s:124    .text:0000000000000090 .L0 
GAS LISTING /tmp/ccrEM4Fq.s 			page 9


     /tmp/ccrEM4Fq.s:125    .text:0000000000000094 .L0 
     /tmp/ccrEM4Fq.s:127    .text:0000000000000098 .L0 
     /tmp/ccrEM4Fq.s:128    .text:0000000000000098 .L0 
     /tmp/ccrEM4Fq.s:130    .text:000000000000009c .L0 
     /tmp/ccrEM4Fq.s:132    .text:00000000000000a0 .L0 
     /tmp/ccrEM4Fq.s:138    .text:00000000000000a0 _Z18kmem_cache_destroyP5Cache
     /tmp/ccrEM4Fq.s:141    .text:00000000000000a0 .L0 
     /tmp/ccrEM4Fq.s:143    .text:00000000000000a0 .L0 
     /tmp/ccrEM4Fq.s:144    .text:00000000000000a4 .L0 
     /tmp/ccrEM4Fq.s:147    .text:00000000000000ac .L0 
     /tmp/ccrEM4Fq.s:148    .text:00000000000000ac .L0 
     /tmp/ccrEM4Fq.s:150    .text:00000000000000b0 .L0 
     /tmp/ccrEM4Fq.s:153    .text:00000000000000b4 .L0 
     /tmp/ccrEM4Fq.s:154    .text:00000000000000b4 .L0 
     /tmp/ccrEM4Fq.s:159    .text:00000000000000c0 .L0 
     /tmp/ccrEM4Fq.s:160    .text:00000000000000c4 .L0 
     /tmp/ccrEM4Fq.s:162    .text:00000000000000c8 .L0 
     /tmp/ccrEM4Fq.s:163    .text:00000000000000c8 .L0 
     /tmp/ccrEM4Fq.s:165    .text:00000000000000cc .L0 
     /tmp/ccrEM4Fq.s:167    .text:00000000000000d0 .L0 
     /tmp/ccrEM4Fq.s:173    .text:00000000000000d0 _Z15kmem_cache_infoP5Cache
     /tmp/ccrEM4Fq.s:176    .text:00000000000000d0 .L0 
     /tmp/ccrEM4Fq.s:178    .text:00000000000000d0 .L0 
     /tmp/ccrEM4Fq.s:179    .text:00000000000000d4 .L0 
     /tmp/ccrEM4Fq.s:182    .text:00000000000000dc .L0 
     /tmp/ccrEM4Fq.s:183    .text:00000000000000dc .L0 
     /tmp/ccrEM4Fq.s:185    .text:00000000000000e0 .L0 
     /tmp/ccrEM4Fq.s:187    .text:00000000000000e0 .L0 
     /tmp/ccrEM4Fq.s:188    .text:00000000000000e0 .L0 
     /tmp/ccrEM4Fq.s:191    .text:00000000000000e8 .L0 
     /tmp/ccrEM4Fq.s:192    .text:00000000000000ec .L0 
     /tmp/ccrEM4Fq.s:194    .text:00000000000000f0 .L0 
     /tmp/ccrEM4Fq.s:195    .text:00000000000000f0 .L0 
     /tmp/ccrEM4Fq.s:197    .text:00000000000000f4 .L0 
     /tmp/ccrEM4Fq.s:199    .text:00000000000000f8 .L0 
     /tmp/ccrEM4Fq.s:205    .text:00000000000000f8 _Z17kmem_cache_shrinkP5Cache
     /tmp/ccrEM4Fq.s:208    .text:00000000000000f8 .L0 
     /tmp/ccrEM4Fq.s:210    .text:00000000000000f8 .L0 
     /tmp/ccrEM4Fq.s:211    .text:00000000000000fc .L0 
     /tmp/ccrEM4Fq.s:214    .text:0000000000000104 .L0 
     /tmp/ccrEM4Fq.s:215    .text:0000000000000104 .L0 
     /tmp/ccrEM4Fq.s:217    .text:0000000000000108 .L0 
     /tmp/ccrEM4Fq.s:219    .text:0000000000000108 .L0 
     /tmp/ccrEM4Fq.s:220    .text:0000000000000108 .L0 
     /tmp/ccrEM4Fq.s:223    .text:0000000000000110 .L0 
     /tmp/ccrEM4Fq.s:224    .text:0000000000000114 .L0 
     /tmp/ccrEM4Fq.s:226    .text:0000000000000118 .L0 
     /tmp/ccrEM4Fq.s:227    .text:0000000000000118 .L0 
     /tmp/ccrEM4Fq.s:229    .text:000000000000011c .L0 
     /tmp/ccrEM4Fq.s:231    .text:0000000000000120 .L0 
     /tmp/ccrEM4Fq.s:237    .text:0000000000000120 _Z7kmallocm
     /tmp/ccrEM4Fq.s:240    .text:0000000000000120 .L0 
     /tmp/ccrEM4Fq.s:242    .text:0000000000000120 .L0 
     /tmp/ccrEM4Fq.s:243    .text:0000000000000124 .L0 
     /tmp/ccrEM4Fq.s:246    .text:000000000000012c .L0 
     /tmp/ccrEM4Fq.s:247    .text:000000000000012c .L0 
     /tmp/ccrEM4Fq.s:249    .text:0000000000000130 .L0 
GAS LISTING /tmp/ccrEM4Fq.s 			page 10


     /tmp/ccrEM4Fq.s:251    .text:0000000000000130 .L0 
     /tmp/ccrEM4Fq.s:252    .text:0000000000000130 .L0 
     /tmp/ccrEM4Fq.s:255    .text:0000000000000138 .L0 
     /tmp/ccrEM4Fq.s:256    .text:000000000000013c .L0 
     /tmp/ccrEM4Fq.s:258    .text:0000000000000140 .L0 
     /tmp/ccrEM4Fq.s:259    .text:0000000000000140 .L0 
     /tmp/ccrEM4Fq.s:261    .text:0000000000000144 .L0 
     /tmp/ccrEM4Fq.s:263    .text:0000000000000148 .L0 
     /tmp/ccrEM4Fq.s:269    .text:0000000000000148 _Z5kfreePKv
     /tmp/ccrEM4Fq.s:272    .text:0000000000000148 .L0 
     /tmp/ccrEM4Fq.s:274    .text:0000000000000148 .L0 
     /tmp/ccrEM4Fq.s:275    .text:000000000000014c .L0 
     /tmp/ccrEM4Fq.s:278    .text:0000000000000154 .L0 
     /tmp/ccrEM4Fq.s:279    .text:0000000000000154 .L0 
     /tmp/ccrEM4Fq.s:281    .text:0000000000000158 .L0 
     /tmp/ccrEM4Fq.s:283    .text:0000000000000158 .L0 
     /tmp/ccrEM4Fq.s:284    .text:0000000000000158 .L0 
     /tmp/ccrEM4Fq.s:287    .text:0000000000000160 .L0 
     /tmp/ccrEM4Fq.s:288    .text:0000000000000164 .L0 
     /tmp/ccrEM4Fq.s:290    .text:0000000000000168 .L0 
     /tmp/ccrEM4Fq.s:291    .text:0000000000000168 .L0 
     /tmp/ccrEM4Fq.s:293    .text:000000000000016c .L0 
     /tmp/ccrEM4Fq.s:295    .text:0000000000000170 .L0 
     /tmp/ccrEM4Fq.s:301    .text:0000000000000170 _Z16kmem_cache_errorP5Cache
     /tmp/ccrEM4Fq.s:304    .text:0000000000000170 .L0 
     /tmp/ccrEM4Fq.s:306    .text:0000000000000170 .L0 
     /tmp/ccrEM4Fq.s:307    .text:0000000000000174 .L0 
     /tmp/ccrEM4Fq.s:310    .text:000000000000017c .L0 
     /tmp/ccrEM4Fq.s:311    .text:000000000000017c .L0 
     /tmp/ccrEM4Fq.s:313    .text:0000000000000180 .L0 
     /tmp/ccrEM4Fq.s:315    .text:0000000000000180 .L0 
     /tmp/ccrEM4Fq.s:316    .text:0000000000000180 .L0 
     /tmp/ccrEM4Fq.s:319    .text:0000000000000188 .L0 
     /tmp/ccrEM4Fq.s:320    .text:000000000000018c .L0 
     /tmp/ccrEM4Fq.s:322    .text:0000000000000190 .L0 
     /tmp/ccrEM4Fq.s:323    .text:0000000000000190 .L0 
     /tmp/ccrEM4Fq.s:325    .text:0000000000000194 .L0 
     /tmp/ccrEM4Fq.s:327    .text:0000000000000198 .L0 
     /tmp/ccrEM4Fq.s:336    .text:0000000000000198 .L0 
     /tmp/ccrEM4Fq.s:1408   .debug_abbrev:0000000000000000 .Ldebug_abbrev0
     /tmp/ccrEM4Fq.s:2141   .debug_str:000000000000006a .LASF121
     /tmp/ccrEM4Fq.s:2193   .debug_str:0000000000000302 .LASF122
     /tmp/ccrEM4Fq.s:2145   .debug_str:000000000000013f .LASF123
     /tmp/ccrEM4Fq.s:5      .text:0000000000000000 .Ltext0
     /tmp/ccrEM4Fq.s:330    .text:0000000000000198 .Letext0
     /tmp/ccrEM4Fq.s:2131   .debug_line:0000000000000000 .Ldebug_line0
     /tmp/ccrEM4Fq.s:2217   .debug_str:00000000000003b6 .LASF0
     /tmp/ccrEM4Fq.s:2235   .debug_str:000000000000044c .LASF1
     /tmp/ccrEM4Fq.s:2285   .debug_str:0000000000000631 .LASF2
     /tmp/ccrEM4Fq.s:2291   .debug_str:000000000000065b .LASF4
     /tmp/ccrEM4Fq.s:2223   .debug_str:00000000000003f4 .LASF3
     /tmp/ccrEM4Fq.s:2135   .debug_str:0000000000000029 .LASF5
     /tmp/ccrEM4Fq.s:2279   .debug_str:00000000000005f4 .LASF6
     /tmp/ccrEM4Fq.s:2231   .debug_str:0000000000000434 .LASF7
     /tmp/ccrEM4Fq.s:2199   .debug_str:0000000000000327 .LASF8
     /tmp/ccrEM4Fq.s:2205   .debug_str:000000000000036e .LASF9
     /tmp/ccrEM4Fq.s:2159   .debug_str:00000000000001fb .LASF10
GAS LISTING /tmp/ccrEM4Fq.s 			page 11


     /tmp/ccrEM4Fq.s:2191   .debug_str:00000000000002f3 .LASF11
     /tmp/ccrEM4Fq.s:2167   .debug_str:000000000000021f .LASF12
     /tmp/ccrEM4Fq.s:2157   .debug_str:00000000000001eb .LASF13
     /tmp/ccrEM4Fq.s:2315   .debug_str:0000000000000715 .LASF14
     /tmp/ccrEM4Fq.s:2181   .debug_str:000000000000029e .LASF15
     /tmp/ccrEM4Fq.s:2307   .debug_str:00000000000006e6 .LASF16
     /tmp/ccrEM4Fq.s:2319   .debug_str:0000000000000733 .LASF17
     /tmp/ccrEM4Fq.s:2295   .debug_str:0000000000000670 .LASF18
     /tmp/ccrEM4Fq.s:2275   .debug_str:00000000000005da .LASF19
     /tmp/ccrEM4Fq.s:2345   .debug_str:0000000000000820 .LASF20
     /tmp/ccrEM4Fq.s:2289   .debug_str:000000000000064f .LASF21
     /tmp/ccrEM4Fq.s:2221   .debug_str:00000000000003e6 .LASF22
     /tmp/ccrEM4Fq.s:2253   .debug_str:000000000000050b .LASF23
     /tmp/ccrEM4Fq.s:2189   .debug_str:00000000000002e6 .LASF24
     /tmp/ccrEM4Fq.s:2339   .debug_str:00000000000007f1 .LASF34
     /tmp/ccrEM4Fq.s:2229   .debug_str:000000000000042f .LASF25
     /tmp/ccrEM4Fq.s:2367   .debug_str:000000000000092b .LASF26
     /tmp/ccrEM4Fq.s:2269   .debug_str:00000000000005b6 .LASF27
     /tmp/ccrEM4Fq.s:2365   .debug_str:0000000000000923 .LASF28
     /tmp/ccrEM4Fq.s:2251   .debug_str:0000000000000506 .LASF29
     /tmp/ccrEM4Fq.s:2215   .debug_str:00000000000003b1 .LASF30
     /tmp/ccrEM4Fq.s:2337   .debug_str:00000000000007e7 .LASF31
     /tmp/ccrEM4Fq.s:2277   .debug_str:00000000000005e8 .LASF32
     /tmp/ccrEM4Fq.s:2201   .debug_str:0000000000000337 .LASF33
     /tmp/ccrEM4Fq.s:2321   .debug_str:0000000000000738 .LASF35
     /tmp/ccrEM4Fq.s:2311   .debug_str:0000000000000708 .LASF36
     /tmp/ccrEM4Fq.s:2259   .debug_str:0000000000000546 .LASF38
     /tmp/ccrEM4Fq.s:2177   .debug_str:0000000000000268 .LASF37
     /tmp/ccrEM4Fq.s:2363   .debug_str:0000000000000910 .LASF39
     /tmp/ccrEM4Fq.s:2143   .debug_str:000000000000013a .LASF40
     /tmp/ccrEM4Fq.s:2161   .debug_str:000000000000020a .LASF41
     /tmp/ccrEM4Fq.s:2171   .debug_str:0000000000000240 .LASF42
     /tmp/ccrEM4Fq.s:2137   .debug_str:0000000000000030 .LASF43
     /tmp/ccrEM4Fq.s:2265   .debug_str:000000000000058e .LASF44
     /tmp/ccrEM4Fq.s:2349   .debug_str:000000000000083a .LASF45
     /tmp/ccrEM4Fq.s:2175   .debug_str:0000000000000261 .LASF46
     /tmp/ccrEM4Fq.s:2293   .debug_str:0000000000000662 .LASF47
     /tmp/ccrEM4Fq.s:2301   .debug_str:00000000000006a8 .LASF48
     /tmp/ccrEM4Fq.s:2335   .debug_str:00000000000007c4 .LASF50
     /tmp/ccrEM4Fq.s:2299   .debug_str:000000000000069c .LASF52
     /tmp/ccrEM4Fq.s:2179   .debug_str:0000000000000270 .LASF54
     /tmp/ccrEM4Fq.s:2271   .debug_str:00000000000005bf .LASF49
     /tmp/ccrEM4Fq.s:2377   .debug_str:000000000000097a .LASF51
     /tmp/ccrEM4Fq.s:2263   .debug_str:0000000000000581 .LASF53
     /tmp/ccrEM4Fq.s:2261   .debug_str:0000000000000558 .LASF55
     /tmp/ccrEM4Fq.s:2309   .debug_str:00000000000006fc .LASF56
     /tmp/ccrEM4Fq.s:2361   .debug_str:00000000000008e8 .LASF57
     /tmp/ccrEM4Fq.s:2227   .debug_str:0000000000000422 .LASF58
     /tmp/ccrEM4Fq.s:2247   .debug_str:00000000000004ce .LASF59
     /tmp/ccrEM4Fq.s:2323   .debug_str:000000000000073d .LASF60
     /tmp/ccrEM4Fq.s:2155   .debug_str:00000000000001c0 .LASF61
     /tmp/ccrEM4Fq.s:2255   .debug_str:0000000000000510 .LASF62
     /tmp/ccrEM4Fq.s:2355   .debug_str:0000000000000892 .LASF63
     /tmp/ccrEM4Fq.s:2369   .debug_str:0000000000000936 .LASF64
     /tmp/ccrEM4Fq.s:2147   .debug_str:0000000000000170 .LASF65
     /tmp/ccrEM4Fq.s:2329   .debug_str:0000000000000792 .LASF66
     /tmp/ccrEM4Fq.s:2139   .debug_str:0000000000000040 .LASF67
GAS LISTING /tmp/ccrEM4Fq.s 			page 12


     /tmp/ccrEM4Fq.s:2163   .debug_str:000000000000020f .LASF68
     /tmp/ccrEM4Fq.s:2219   .debug_str:00000000000003c3 .LASF69
     /tmp/ccrEM4Fq.s:2245   .debug_str:00000000000004c4 .LASF70
     /tmp/ccrEM4Fq.s:2297   .debug_str:0000000000000678 .LASF71
     /tmp/ccrEM4Fq.s:2195   .debug_str:0000000000000316 .LASF72
     /tmp/ccrEM4Fq.s:2257   .debug_str:000000000000051f .LASF73
     /tmp/ccrEM4Fq.s:2173   .debug_str:000000000000024f .LASF74
     /tmp/ccrEM4Fq.s:2351   .debug_str:0000000000000847 .LASF75
     /tmp/ccrEM4Fq.s:2341   .debug_str:00000000000007f7 .LASF76
     /tmp/ccrEM4Fq.s:2375   .debug_str:0000000000000974 .LASF77
     /tmp/ccrEM4Fq.s:2273   .debug_str:00000000000005cb .LASF78
     /tmp/ccrEM4Fq.s:2213   .debug_str:00000000000003a2 .LASF79
     /tmp/ccrEM4Fq.s:2303   .debug_str:00000000000006b3 .LASF81
     /tmp/ccrEM4Fq.s:2371   .debug_str:000000000000093f .LASF80
     /tmp/ccrEM4Fq.s:2203   .debug_str:0000000000000340 .LASF82
     /tmp/ccrEM4Fq.s:2165   .debug_str:000000000000021a .LASF83
     /tmp/ccrEM4Fq.s:2373   .debug_str:000000000000094e .LASF84
     /tmp/ccrEM4Fq.s:2209   .debug_str:000000000000038d .LASF85
     /tmp/ccrEM4Fq.s:2359   .debug_str:00000000000008bf .LASF86
     /tmp/ccrEM4Fq.s:2283   .debug_str:0000000000000623 .LASF87
     /tmp/ccrEM4Fq.s:2133   .debug_str:0000000000000000 .LASF88
     /tmp/ccrEM4Fq.s:2207   .debug_str:000000000000037c .LASF89
     /tmp/ccrEM4Fq.s:2241   .debug_str:0000000000000471 .LASF90
     /tmp/ccrEM4Fq.s:2187   .debug_str:00000000000002d9 .LASF91
     /tmp/ccrEM4Fq.s:2327   .debug_str:0000000000000767 .LASF92
     /tmp/ccrEM4Fq.s:2151   .debug_str:00000000000001a5 .LASF93
     /tmp/ccrEM4Fq.s:2243   .debug_str:000000000000049d .LASF94
     /tmp/ccrEM4Fq.s:2313   .debug_str:000000000000070f .LASF95
     /tmp/ccrEM4Fq.s:2149   .debug_str:0000000000000194 .LASF100
     /tmp/ccrEM4Fq.s:2281   .debug_str:0000000000000607 .LASF102
     /tmp/ccrEM4Fq.s:302    .text:0000000000000170 .LFB19
     /tmp/ccrEM4Fq.s:328    .text:0000000000000198 .LFE19
     /tmp/ccrEM4Fq.s:2211   .debug_str:000000000000039b .LASF98
     /tmp/ccrEM4Fq.s:1910   .debug_loc:0000000000000000 .LLST14
     /tmp/ccrEM4Fq.s:317    .text:0000000000000188 .LVL20
     /tmp/ccrEM4Fq.s:2197   .debug_str:0000000000000321 .LASF96
     /tmp/ccrEM4Fq.s:2239   .debug_str:0000000000000465 .LASF97
     /tmp/ccrEM4Fq.s:270    .text:0000000000000148 .LFB18
     /tmp/ccrEM4Fq.s:296    .text:0000000000000170 .LFE18
     /tmp/ccrEM4Fq.s:2305   .debug_str:00000000000006e1 .LASF99
     /tmp/ccrEM4Fq.s:1924   .debug_loc:0000000000000039 .LLST13
     /tmp/ccrEM4Fq.s:285    .text:0000000000000160 .LVL18
     /tmp/ccrEM4Fq.s:2357   .debug_str:00000000000008b7 .LASF101
     /tmp/ccrEM4Fq.s:2347   .debug_str:000000000000082e .LASF103
     /tmp/ccrEM4Fq.s:238    .text:0000000000000120 .LFB17
     /tmp/ccrEM4Fq.s:264    .text:0000000000000148 .LFE17
     /tmp/ccrEM4Fq.s:2233   .debug_str:0000000000000447 .LASF104
     /tmp/ccrEM4Fq.s:1938   .debug_loc:0000000000000072 .LLST12
     /tmp/ccrEM4Fq.s:253    .text:0000000000000138 .LVL16
     /tmp/ccrEM4Fq.s:2317   .debug_str:0000000000000721 .LASF105
     /tmp/ccrEM4Fq.s:2353   .debug_str:0000000000000875 .LASF106
     /tmp/ccrEM4Fq.s:206    .text:00000000000000f8 .LFB16
     /tmp/ccrEM4Fq.s:232    .text:0000000000000120 .LFE16
     /tmp/ccrEM4Fq.s:1952   .debug_loc:00000000000000ab .LLST11
     /tmp/ccrEM4Fq.s:221    .text:0000000000000110 .LVL14
     /tmp/ccrEM4Fq.s:2287   .debug_str:000000000000063f .LASF107
     /tmp/ccrEM4Fq.s:2325   .debug_str:000000000000074c .LASF108
GAS LISTING /tmp/ccrEM4Fq.s 			page 13


     /tmp/ccrEM4Fq.s:174    .text:00000000000000d0 .LFB15
     /tmp/ccrEM4Fq.s:200    .text:00000000000000f8 .LFE15
     /tmp/ccrEM4Fq.s:1966   .debug_loc:00000000000000e4 .LLST10
     /tmp/ccrEM4Fq.s:189    .text:00000000000000e8 .LVL12
     /tmp/ccrEM4Fq.s:2183   .debug_str:00000000000002b4 .LASF109
     /tmp/ccrEM4Fq.s:2267   .debug_str:0000000000000598 .LASF110
     /tmp/ccrEM4Fq.s:139    .text:00000000000000a0 .LFB14
     /tmp/ccrEM4Fq.s:168    .text:00000000000000d0 .LFE14
     /tmp/ccrEM4Fq.s:1980   .debug_loc:000000000000011d .LLST9
     /tmp/ccrEM4Fq.s:157    .text:00000000000000c0 .LVL10
     /tmp/ccrEM4Fq.s:2153   .debug_str:00000000000001b0 .LASF111
     /tmp/ccrEM4Fq.s:2331   .debug_str:000000000000079d .LASF112
     /tmp/ccrEM4Fq.s:107    .text:0000000000000078 .LFB13
     /tmp/ccrEM4Fq.s:133    .text:00000000000000a0 .LFE13
     /tmp/ccrEM4Fq.s:1992   .debug_loc:0000000000000154 .LLST7
     /tmp/ccrEM4Fq.s:2006   .debug_loc:000000000000018d .LLST8
     /tmp/ccrEM4Fq.s:122    .text:0000000000000090 .LVL7
     /tmp/ccrEM4Fq.s:2169   .debug_str:000000000000022f .LASF113
     /tmp/ccrEM4Fq.s:2225   .debug_str:0000000000000406 .LASF114
     /tmp/ccrEM4Fq.s:75     .text:0000000000000050 .LFB12
     /tmp/ccrEM4Fq.s:101    .text:0000000000000078 .LFE12
     /tmp/ccrEM4Fq.s:2020   .debug_loc:00000000000001c6 .LLST6
     /tmp/ccrEM4Fq.s:90     .text:0000000000000068 .LVL5
     /tmp/ccrEM4Fq.s:2185   .debug_str:00000000000002c7 .LASF115
     /tmp/ccrEM4Fq.s:2343   .debug_str:00000000000007fd .LASF116
     /tmp/ccrEM4Fq.s:43     .text:0000000000000028 .LFB11
     /tmp/ccrEM4Fq.s:69     .text:0000000000000050 .LFE11
     /tmp/ccrEM4Fq.s:2034   .debug_loc:00000000000001ff .LLST2
     /tmp/ccrEM4Fq.s:2048   .debug_loc:0000000000000238 .LLST3
     /tmp/ccrEM4Fq.s:2062   .debug_loc:0000000000000271 .LLST4
     /tmp/ccrEM4Fq.s:2076   .debug_loc:00000000000002aa .LLST5
     /tmp/ccrEM4Fq.s:58     .text:0000000000000040 .LVL3
     /tmp/ccrEM4Fq.s:2333   .debug_str:00000000000007ba .LASF117
     /tmp/ccrEM4Fq.s:2249   .debug_str:00000000000004f6 .LASF118
     /tmp/ccrEM4Fq.s:10     .text:0000000000000000 .LFB10
     /tmp/ccrEM4Fq.s:37     .text:0000000000000028 .LFE10
     /tmp/ccrEM4Fq.s:2237   .debug_str:000000000000045f .LASF119
     /tmp/ccrEM4Fq.s:2090   .debug_loc:00000000000002e3 .LLST0
     /tmp/ccrEM4Fq.s:2379   .debug_str:00000000000009a3 .LASF120
     /tmp/ccrEM4Fq.s:2104   .debug_loc:000000000000031c .LLST1
     /tmp/ccrEM4Fq.s:26     .text:0000000000000018 .LVL1
     /tmp/ccrEM4Fq.s:305    .text:0000000000000170 .LVL19
     /tmp/ccrEM4Fq.s:273    .text:0000000000000148 .LVL17
     /tmp/ccrEM4Fq.s:241    .text:0000000000000120 .LVL15
     /tmp/ccrEM4Fq.s:209    .text:00000000000000f8 .LVL13
     /tmp/ccrEM4Fq.s:177    .text:00000000000000d0 .LVL11
     /tmp/ccrEM4Fq.s:142    .text:00000000000000a0 .LVL8
     /tmp/ccrEM4Fq.s:155    .text:00000000000000b8 .LVL9
     /tmp/ccrEM4Fq.s:110    .text:0000000000000078 .LVL6
     /tmp/ccrEM4Fq.s:78     .text:0000000000000050 .LVL4
     /tmp/ccrEM4Fq.s:46     .text:0000000000000028 .LVL2
     /tmp/ccrEM4Fq.s:14     .text:0000000000000000 .LVL0
     /tmp/ccrEM4Fq.s:337    .debug_info:0000000000000000 .Ldebug_info0

UNDEFINED SYMBOLS
_ZN13SlabAllocator10initializeEPvm
_ZN13SlabAllocator11createCacheEPKcmPFvPvES4_
GAS LISTING /tmp/ccrEM4Fq.s 			page 14


_ZN13SlabAllocator14allocateObjectEP5Cache
_ZN13SlabAllocator10freeObjectEP5CachePKv
_ZN13SlabAllocator11deleteCacheERP5Cache
_ZN13SlabAllocator10printCacheEP5Cache
_ZN13SlabAllocator11shrinkCacheEP5Cache
_ZN13SlabAllocator14allocateBufferEm
_ZN13SlabAllocator10freeBufferEPKv
_ZN13SlabAllocator17cacheErrorHandlerEP5Cache
