GAS LISTING /tmp/ccme2164.s 			page 1


   1              		.file	"system.cpp"
   2              		.option pic
   3              		.option norelax
   4              		.text
   5              	.Ltext0:
   6              		.align	2
   7              		.globl	_Z4ctorPv
   9              	_Z4ctorPv:
  10              	.LFB44:
  11              		.file 1 "src/kernel/system.cpp"
   1:src/kernel/system.cpp **** //
   2:src/kernel/system.cpp **** // Created by os on 5/31/22.
   3:src/kernel/system.cpp **** //
   4:src/kernel/system.cpp **** 
   5:src/kernel/system.cpp **** #include "../../h/system.hpp"
   6:src/kernel/system.cpp **** #include "../../h/riscv.hpp"
   7:src/kernel/system.cpp **** #include "../../h/syscall_c.h"
   8:src/kernel/system.cpp **** #include "../../src/user/tests/userMain.hpp"
   9:src/kernel/system.cpp **** #include "../../h/printing.hpp"
  10:src/kernel/system.cpp **** #include "../../h/tcb.hpp"
  11:src/kernel/system.cpp **** #include "../../h/scheduler.hpp"
  12:src/kernel/system.cpp **** //#include "../../src/user/tests/testUser.hpp"
  13:src/kernel/system.cpp **** #include "../../h/userWrappers.hpp"
  14:src/kernel/system.cpp **** 
  15:src/kernel/system.cpp **** bool System::initialized = false;
  16:src/kernel/system.cpp **** 
  17:src/kernel/system.cpp **** struct Test{
  18:src/kernel/system.cpp ****     uint64 a,b,c,d,e,f;
  19:src/kernel/system.cpp **** };
  20:src/kernel/system.cpp **** 
  21:src/kernel/system.cpp **** void ctor(void* tst){
  12              		.loc 1 21 21
  13              		.cfi_startproc
  14              	.LVL0:
  15 0000 130101FF 		addi	sp,sp,-16
  16              		.cfi_def_cfa_offset 16
  17 0004 23348100 		sd	s0,8(sp)
  18              		.cfi_offset 8, -8
  19 0008 13040101 		addi	s0,sp,16
  20              		.cfi_def_cfa 8, 0
  22:src/kernel/system.cpp ****     ((Test*)tst)->a = 17;
  21              		.loc 1 22 5
  22              		.loc 1 22 21 is_stmt 0
  23 000c 93071001 		li	a5,17
  24 0010 2330F500 		sd	a5,0(a0)
  23:src/kernel/system.cpp ****     ((Test*)tst)->b = 32;
  25              		.loc 1 23 5 is_stmt 1
  26              		.loc 1 23 21 is_stmt 0
  27 0014 93070002 		li	a5,32
  28 0018 2334F500 		sd	a5,8(a0)
  24:src/kernel/system.cpp ****     ((Test*)tst)->c = 13;
  29              		.loc 1 24 5 is_stmt 1
  30              		.loc 1 24 21 is_stmt 0
  31 001c 9307D000 		li	a5,13
  32 0020 2338F500 		sd	a5,16(a0)
  25:src/kernel/system.cpp **** 
  26:src/kernel/system.cpp **** }
GAS LISTING /tmp/ccme2164.s 			page 2


  33              		.loc 1 26 1
  34 0024 03348100 		ld	s0,8(sp)
  35              		.cfi_restore 8
  36              		.cfi_def_cfa 2, 16
  37 0028 13010101 		addi	sp,sp,16
  38              		.cfi_def_cfa_offset 0
  39 002c 67800000 		jr	ra
  40              		.cfi_endproc
  41              	.LFE44:
  43              		.align	2
  44              		.globl	_ZN6SystemC2Ev
  46              	_ZN6SystemC2Ev:
  47              	.LFB46:
  27:src/kernel/system.cpp **** System::System() {
  48              		.loc 1 27 1 is_stmt 1
  49              		.cfi_startproc
  50              	.LVL1:
  28:src/kernel/system.cpp ****     //check whether system is already running to prevent user malicious access
  29:src/kernel/system.cpp ****     if (!initialized) {
  51              		.loc 1 29 5
  52              	.LBB2:
  53              		.loc 1 29 9 is_stmt 0
  54 0030 97070000 		lbu	a5,.LANCHOR0
  54      83C70700 
  55              		.loc 1 29 5
  56 0038 63840700 		beqz	a5,.L11
  57 003c 67800000 		ret
  58              	.L11:
  59              	.LBE2:
  27:src/kernel/system.cpp **** System::System() {
  60              		.loc 1 27 1
  61 0040 130101FE 		addi	sp,sp,-32
  62              		.cfi_def_cfa_offset 32
  63 0044 233C1100 		sd	ra,24(sp)
  64 0048 23388100 		sd	s0,16(sp)
  65              		.cfi_offset 1, -8
  66              		.cfi_offset 8, -16
  67 004c 13040102 		addi	s0,sp,32
  68              		.cfi_def_cfa 8, 0
  69              	.LBB4:
  70              	.LBB3:
  30:src/kernel/system.cpp ****         initialized = true;
  71              		.loc 1 30 9 is_stmt 1
  72              		.loc 1 30 21 is_stmt 0
  73 0050 93071000 		li	a5,1
  74 0054 17070000 		sb	a5,.LANCHOR0,a4
  74      2300F700 
  31:src/kernel/system.cpp **** 
  32:src/kernel/system.cpp ****         //initialize the machine
  33:src/kernel/system.cpp ****         RiscV::initialize();
  75              		.loc 1 33 9 is_stmt 1
  76              		.loc 1 33 26 is_stmt 0
  77 005c 97000000 		call	_ZN5RiscV10initializeEv@plt
  77      E7800000 
  78              	.LVL2:
  34:src/kernel/system.cpp ****         //creating a thread that will be executing user code
  35:src/kernel/system.cpp ****         //this is done as to separate user code execution from main kernel thread
GAS LISTING /tmp/ccme2164.s 			page 3


  36:src/kernel/system.cpp ****         //also it provides kernel with an idle thread that will run itself if user code gets blocke
  37:src/kernel/system.cpp **** 
  38:src/kernel/system.cpp ****         thread_t userMainThread;
  79              		.loc 1 38 9 is_stmt 1
  39:src/kernel/system.cpp ****         RiscV::threadCreateUtil((TCB**)(&userMainThread), userMainWrapper, nullptr);
  80              		.loc 1 39 9
  81              		.loc 1 39 32 is_stmt 0
  82 0064 13060000 		li	a2,0
  83 0068 97050000 		la	a1,_Z15userMainWrapperPv
  83      83B50500 
  84 0070 130584FE 		addi	a0,s0,-24
  85 0074 97000000 		call	_ZN5RiscV16threadCreateUtilEPP3TCBPFvPvES3_@plt
  85      E7800000 
  86              	.LVL3:
  87              	.L6:
  40:src/kernel/system.cpp **** 
  41:src/kernel/system.cpp **** 
  42:src/kernel/system.cpp **** //        //return control to user code until it reaches the end
  43:src/kernel/system.cpp **** //        //exit only if user is finished and machine is ready to exit (in case there is something 
  44:src/kernel/system.cpp ****         while (( (TCB*)userMainThread)->status != TCB::Status::FINISHED) {
  88              		.loc 1 44 9 is_stmt 1
  89              		.loc 1 44 48
  90              		.loc 1 44 18 is_stmt 0
  91 007c 833784FE 		ld	a5,-24(s0)
  92              		.loc 1 44 41
  93 0080 03A70701 		lw	a4,16(a5)
  94              		.loc 1 44 48
  95 0084 93072000 		li	a5,2
  96 0088 6308F700 		beq	a4,a5,.L5
  45:src/kernel/system.cpp ****             RiscV::threadDispatchUtil();
  97              		.loc 1 45 13 is_stmt 1
  98              		.loc 1 45 38 is_stmt 0
  99 008c 97000000 		call	_ZN5RiscV18threadDispatchUtilEv@plt
  99      E7800000 
 100              	.LVL4:
 101 0094 6FF09FFE 		j	.L6
 102              	.L5:
  46:src/kernel/system.cpp ****         }
  47:src/kernel/system.cpp **** 
  48:src/kernel/system.cpp ****         //finalize the machine
  49:src/kernel/system.cpp ****         RiscV::finalize();
 103              		.loc 1 49 9 is_stmt 1
 104              		.loc 1 49 24 is_stmt 0
 105 0098 97000000 		call	_ZN5RiscV8finalizeEv@plt
 105      E7800000 
 106              	.LVL5:
 107              	.LBE3:
 108              	.LBE4:
  50:src/kernel/system.cpp ****     }
  51:src/kernel/system.cpp **** }...
 109              		.loc 1 51 1
 110 00a0 83308101 		ld	ra,24(sp)
 111              		.cfi_restore 1
 112 00a4 03340101 		ld	s0,16(sp)
 113              		.cfi_restore 8
 114              		.cfi_def_cfa 2, 32
 115 00a8 13010102 		addi	sp,sp,32
GAS LISTING /tmp/ccme2164.s 			page 4


 116              		.cfi_def_cfa_offset 0
 117 00ac 67800000 		jr	ra
 118              		.cfi_endproc
 119              	.LFE46:
 121              		.globl	_ZN6SystemC1Ev
 122              		.set	_ZN6SystemC1Ev,_ZN6SystemC2Ev
 123              		.globl	_ZN6System11initializedE
 124              		.bss
 125              		.set	.LANCHOR0,. + 0
 128              	_ZN6System11initializedE:
 129 0000 00       		.zero	1
 130              		.text
 131              	.Letext0:
 132              		.file 2 "src/kernel/../../h/../lib/hw.h"
 133              		.file 3 "src/kernel/../../h/../h/utility.hpp"
 134              		.file 4 "src/kernel/../../h/system.hpp"
 135              		.file 5 "src/kernel/../../h/riscv.hpp"
 136              		.file 6 "src/kernel/../../h/tcb.hpp"
 137              		.file 7 "src/kernel/../../h/../h/_thread.hpp"
 138              		.file 8 "src/kernel/../../h/../h/../h/../h/../h/slab_t.hpp"
 139              		.file 9 "src/kernel/../../h/../h/../h/../h/cache_t.hpp"
GAS LISTING /tmp/ccme2164.s 			page 5


DEFINED SYMBOLS
                            *ABS*:0000000000000000 system.cpp
     /tmp/ccme2164.s:9      .text:0000000000000000 _Z4ctorPv
     /tmp/ccme2164.s:13     .text:0000000000000000 .L0 
     /tmp/ccme2164.s:15     .text:0000000000000000 .L0 
     /tmp/ccme2164.s:16     .text:0000000000000004 .L0 
     /tmp/ccme2164.s:18     .text:0000000000000008 .L0 
     /tmp/ccme2164.s:20     .text:000000000000000c .L0 
     /tmp/ccme2164.s:22     .text:000000000000000c .L0 
     /tmp/ccme2164.s:23     .text:000000000000000c .L0 
     /tmp/ccme2164.s:26     .text:0000000000000014 .L0 
     /tmp/ccme2164.s:27     .text:0000000000000014 .L0 
     /tmp/ccme2164.s:30     .text:000000000000001c .L0 
     /tmp/ccme2164.s:31     .text:000000000000001c .L0 
     /tmp/ccme2164.s:34     .text:0000000000000024 .L0 
     /tmp/ccme2164.s:35     .text:0000000000000028 .L0 
     /tmp/ccme2164.s:36     .text:0000000000000028 .L0 
     /tmp/ccme2164.s:38     .text:000000000000002c .L0 
     /tmp/ccme2164.s:40     .text:0000000000000030 .L0 
     /tmp/ccme2164.s:46     .text:0000000000000030 _ZN6SystemC2Ev
     /tmp/ccme2164.s:49     .text:0000000000000030 .L0 
     /tmp/ccme2164.s:51     .text:0000000000000030 .L0 
     /tmp/ccme2164.s:53     .text:0000000000000030 .L0 
     /tmp/ccme2164.s:54     .text:0000000000000030 .L0 
     /tmp/ccme2164.s:56     .text:0000000000000038 .L0 
     /tmp/ccme2164.s:61     .text:0000000000000040 .L0 
     /tmp/ccme2164.s:62     .text:0000000000000044 .L0 
     /tmp/ccme2164.s:65     .text:000000000000004c .L0 
     /tmp/ccme2164.s:66     .text:000000000000004c .L0 
     /tmp/ccme2164.s:68     .text:0000000000000050 .L0 
     /tmp/ccme2164.s:72     .text:0000000000000050 .L0 
     /tmp/ccme2164.s:73     .text:0000000000000050 .L0 
     /tmp/ccme2164.s:76     .text:000000000000005c .L0 
     /tmp/ccme2164.s:77     .text:000000000000005c .L0 
     /tmp/ccme2164.s:80     .text:0000000000000064 .L0 
     /tmp/ccme2164.s:81     .text:0000000000000064 .L0 
     /tmp/ccme2164.s:82     .text:0000000000000064 .L0 
     /tmp/ccme2164.s:89     .text:000000000000007c .L0 
     /tmp/ccme2164.s:90     .text:000000000000007c .L0 
     /tmp/ccme2164.s:91     .text:000000000000007c .L0 
     /tmp/ccme2164.s:93     .text:0000000000000080 .L0 
     /tmp/ccme2164.s:95     .text:0000000000000084 .L0 
     /tmp/ccme2164.s:98     .text:000000000000008c .L0 
     /tmp/ccme2164.s:99     .text:000000000000008c .L0 
     /tmp/ccme2164.s:104    .text:0000000000000098 .L0 
     /tmp/ccme2164.s:105    .text:0000000000000098 .L0 
     /tmp/ccme2164.s:110    .text:00000000000000a0 .L0 
     /tmp/ccme2164.s:111    .text:00000000000000a4 .L0 
     /tmp/ccme2164.s:113    .text:00000000000000a8 .L0 
     /tmp/ccme2164.s:114    .text:00000000000000a8 .L0 
     /tmp/ccme2164.s:116    .text:00000000000000ac .L0 
     /tmp/ccme2164.s:118    .text:00000000000000b0 .L0 
     /tmp/ccme2164.s:46     .text:0000000000000030 _ZN6SystemC1Ev
     /tmp/ccme2164.s:128    .bss:0000000000000000 _ZN6System11initializedE
     /tmp/ccme2164.s:125    .bss:0000000000000000 .LANCHOR0
     /tmp/ccme2164.s:140    .text:00000000000000b0 .L0 
     /tmp/ccme2164.s:54     .text:0000000000000030 .L0 
GAS LISTING /tmp/ccme2164.s 			page 6


     /tmp/ccme2164.s:74     .text:0000000000000054 .L0 
     /tmp/ccme2164.s:83     .text:0000000000000068 .L0 
     /tmp/ccme2164.s:58     .text:0000000000000040 .L11
     /tmp/ccme2164.s:102    .text:0000000000000098 .L5
     /tmp/ccme2164.s:87     .text:000000000000007c .L6
     /tmp/ccme2164.s:1565   .debug_abbrev:0000000000000000 .Ldebug_abbrev0
     /tmp/ccme2164.s:2776   .debug_str:0000000000000e9b .LASF224
     /tmp/ccme2164.s:2414   .debug_str:00000000000001e0 .LASF225
     /tmp/ccme2164.s:2722   .debug_str:0000000000000c4e .LASF226
     /tmp/ccme2164.s:5      .text:0000000000000000 .Ltext0
     /tmp/ccme2164.s:131    .text:00000000000000b0 .Letext0
     /tmp/ccme2164.s:2350   .debug_line:0000000000000000 .Ldebug_line0
     /tmp/ccme2164.s:2380   .debug_str:00000000000000e8 .LASF0
     /tmp/ccme2164.s:2772   .debug_str:0000000000000e80 .LASF1
     /tmp/ccme2164.s:2728   .debug_str:0000000000000caa .LASF2
     /tmp/ccme2164.s:2696   .debug_str:0000000000000b6d .LASF4
     /tmp/ccme2164.s:2704   .debug_str:0000000000000bc4 .LASF3
     /tmp/ccme2164.s:2476   .debug_str:00000000000003d6 .LASF5
     /tmp/ccme2164.s:2526   .debug_str:00000000000005ab .LASF6
     /tmp/ccme2164.s:2644   .debug_str:00000000000009ef .LASF7
     /tmp/ccme2164.s:2412   .debug_str:00000000000001d0 .LASF8
     /tmp/ccme2164.s:2762   .debug_str:0000000000000dea .LASF9
     /tmp/ccme2164.s:2480   .debug_str:00000000000003e8 .LASF10
     /tmp/ccme2164.s:2434   .debug_str:000000000000026f .LASF11
     /tmp/ccme2164.s:2538   .debug_str:000000000000061d .LASF12
     /tmp/ccme2164.s:2490   .debug_str:000000000000043d .LASF13
     /tmp/ccme2164.s:2676   .debug_str:0000000000000afe .LASF14
     /tmp/ccme2164.s:2492   .debug_str:000000000000044d .LASF15
     /tmp/ccme2164.s:2462   .debug_str:0000000000000383 .LASF16
     /tmp/ccme2164.s:2520   .debug_str:0000000000000583 .LASF17
     /tmp/ccme2164.s:2708   .debug_str:0000000000000be5 .LASF18
     /tmp/ccme2164.s:2800   .debug_str:0000000000001029 .LASF19
     /tmp/ccme2164.s:2442   .debug_str:00000000000002ab .LASF20
     /tmp/ccme2164.s:2356   .debug_str:000000000000001f .LASF21
     /tmp/ccme2164.s:2798   .debug_str:000000000000101b .LASF22
     /tmp/ccme2164.s:2566   .debug_str:0000000000000726 .LASF23
     /tmp/ccme2164.s:2628   .debug_str:000000000000098b .LASF24
     /tmp/ccme2164.s:2464   .debug_str:0000000000000399 .LASF26
     /tmp/ccme2164.s:2406   .debug_str:0000000000000193 .LASF157
     /tmp/ccme2164.s:2422   .debug_str:000000000000020a .LASF25
     /tmp/ccme2164.s:2374   .debug_str:00000000000000b4 .LASF27
     /tmp/ccme2164.s:2428   .debug_str:0000000000000236 .LASF28
     /tmp/ccme2164.s:2724   .debug_str:0000000000000c7f .LASF29
     /tmp/ccme2164.s:2682   .debug_str:0000000000000b14 .LASF30
     /tmp/ccme2164.s:2638   .debug_str:00000000000009c9 .LASF31
     /tmp/ccme2164.s:2582   .debug_str:00000000000007b3 .LASF33
     /tmp/ccme2164.s:2516   .debug_str:000000000000054f .LASF32
     /tmp/ccme2164.s:2764   .debug_str:0000000000000df8 .LASF34
     /tmp/ccme2164.s:2410   .debug_str:00000000000001b5 .LASF35
     /tmp/ccme2164.s:2534   .debug_str:00000000000005ee .LASF36
     /tmp/ccme2164.s:2448   .debug_str:00000000000002d0 .LASF37
     /tmp/ccme2164.s:2726   .debug_str:0000000000000c84 .LASF38
     /tmp/ccme2164.s:2598   .debug_str:0000000000000853 .LASF39
     /tmp/ccme2164.s:2622   .debug_str:0000000000000945 .LASF40
     /tmp/ccme2164.s:2376   .debug_str:00000000000000bf .LASF41
     /tmp/ccme2164.s:2504   .debug_str:00000000000004a4 .LASF42
     /tmp/ccme2164.s:2512   .debug_str:0000000000000528 .LASF43
GAS LISTING /tmp/ccme2164.s 			page 7


     /tmp/ccme2164.s:2740   .debug_str:0000000000000cf2 .LASF44
     /tmp/ccme2164.s:2610   .debug_str:00000000000008a3 .LASF45
     /tmp/ccme2164.s:2460   .debug_str:0000000000000360 .LASF46
     /tmp/ccme2164.s:2450   .debug_str:00000000000002e9 .LASF47
     /tmp/ccme2164.s:2746   .debug_str:0000000000000d46 .LASF48
     /tmp/ccme2164.s:2792   .debug_str:0000000000000ff1 .LASF49
     /tmp/ccme2164.s:2616   .debug_str:00000000000008f7 .LASF50
     /tmp/ccme2164.s:2398   .debug_str:0000000000000154 .LASF51
     /tmp/ccme2164.s:2614   .debug_str:00000000000008d2 .LASF52
     /tmp/ccme2164.s:2744   .debug_str:0000000000000d2e .LASF53
     /tmp/ccme2164.s:2508   .debug_str:00000000000004f7 .LASF54
     /tmp/ccme2164.s:2426   .debug_str:0000000000000223 .LASF55
     /tmp/ccme2164.s:2550   .debug_str:000000000000067d .LASF56
     /tmp/ccme2164.s:2528   .debug_str:00000000000005be .LASF57
     /tmp/ccme2164.s:2564   .debug_str:0000000000000706 .LASF58
     /tmp/ccme2164.s:2362   .debug_str:000000000000004e .LASF59
     /tmp/ccme2164.s:2768   .debug_str:0000000000000e39 .LASF60
     /tmp/ccme2164.s:2790   .debug_str:0000000000000fd8 .LASF61
     /tmp/ccme2164.s:2484   .debug_str:0000000000000401 .LASF62
     /tmp/ccme2164.s:2498   .debug_str:000000000000047e .LASF63
     /tmp/ccme2164.s:2590   .debug_str:00000000000007f6 .LASF64
     /tmp/ccme2164.s:2352   .debug_str:0000000000000000 .LASF65
     /tmp/ccme2164.s:2702   .debug_str:0000000000000ba4 .LASF66
     /tmp/ccme2164.s:2754   .debug_str:0000000000000db1 .LASF67
     /tmp/ccme2164.s:2688   .debug_str:0000000000000b32 .LASF69
     /tmp/ccme2164.s:2654   .debug_str:0000000000000a5a .LASF68
     /tmp/ccme2164.s:2580   .debug_str:0000000000000787 .LASF70
     /tmp/ccme2164.s:2370   .debug_str:000000000000009b .LASF71
     /tmp/ccme2164.s:2650   .debug_str:0000000000000a22 .LASF72
     /tmp/ccme2164.s:2718   .debug_str:0000000000000c32 .LASF73
     /tmp/ccme2164.s:2364   .debug_str:0000000000000065 .LASF74
     /tmp/ccme2164.s:2794   .debug_str:0000000000001007 .LASF77
     /tmp/ccme2164.s:2660   .debug_str:0000000000000a82 .LASF79
     /tmp/ccme2164.s:2664   .debug_str:0000000000000aa9 .LASF75
     /tmp/ccme2164.s:2742   .debug_str:0000000000000d19 .LASF76
     /tmp/ccme2164.s:2444   .debug_str:00000000000002b9 .LASF78
     /tmp/ccme2164.s:2694   .debug_str:0000000000000b5a .LASF80
     /tmp/ccme2164.s:2472   .debug_str:00000000000003bb .LASF81
     /tmp/ccme2164.s:2568   .debug_str:000000000000072b .LASF82
     /tmp/ccme2164.s:2774   .debug_str:0000000000000e93 .LASF83
     /tmp/ccme2164.s:2474   .debug_str:00000000000003c2 .LASF84
     /tmp/ccme2164.s:2668   .debug_str:0000000000000aca .LASF85
     /tmp/ccme2164.s:2672   .debug_str:0000000000000adb .LASF86
     /tmp/ccme2164.s:2486   .debug_str:0000000000000427 .LASF87
     /tmp/ccme2164.s:2578   .debug_str:0000000000000771 .LASF88
     /tmp/ccme2164.s:2466   .debug_str:00000000000003a5 .LASF89
     /tmp/ccme2164.s:2624   .debug_str:000000000000096f .LASF90
     /tmp/ccme2164.s:2576   .debug_str:0000000000000766 .LASF91
     /tmp/ccme2164.s:2808   .debug_str:0000000000001073 .LASF92
     /tmp/ccme2164.s:2402   .debug_str:000000000000017e .LASF93
     /tmp/ccme2164.s:2700   .debug_str:0000000000000b8c .LASF94
     /tmp/ccme2164.s:2738   .debug_str:0000000000000ceb .LASF95
     /tmp/ccme2164.s:2458   .debug_str:000000000000034d .LASF96
     /tmp/ccme2164.s:2468   .debug_str:00000000000003af .LASF97
     /tmp/ccme2164.s:2494   .debug_str:0000000000000463 .LASF98
     /tmp/ccme2164.s:2730   .debug_str:0000000000000cb8 .LASF99
     /tmp/ccme2164.s:2408   .debug_str:00000000000001a2 .LASF100
GAS LISTING /tmp/ccme2164.s 			page 8


     /tmp/ccme2164.s:2522   .debug_str:0000000000000588 .LASF101
     /tmp/ccme2164.s:2802   .debug_str:0000000000001037 .LASF102
     /tmp/ccme2164.s:2732   .debug_str:0000000000000cbf .LASF103
     /tmp/ccme2164.s:2784   .debug_str:0000000000000f9d .LASF104
     /tmp/ccme2164.s:2546   .debug_str:000000000000065c .LASF105
     /tmp/ccme2164.s:2542   .debug_str:0000000000000634 .LASF106
     /tmp/ccme2164.s:2558   .debug_str:00000000000006e6 .LASF107
     /tmp/ccme2164.s:2518   .debug_str:0000000000000565 .LASF108
     /tmp/ccme2164.s:2766   .debug_str:0000000000000e1b .LASF109
     /tmp/ccme2164.s:2432   .debug_str:0000000000000244 .LASF110
     /tmp/ccme2164.s:2646   .debug_str:0000000000000a02 .LASF111
     /tmp/ccme2164.s:2630   .debug_str:0000000000000992 .LASF112
     /tmp/ccme2164.s:2488   .debug_str:0000000000000431 .LASF113
     /tmp/ccme2164.s:2612   .debug_str:00000000000008b9 .LASF114
     /tmp/ccme2164.s:2626   .debug_str:0000000000000985 .LASF115
     /tmp/ccme2164.s:2574   .debug_str:0000000000000754 .LASF116
     /tmp/ccme2164.s:2658   .debug_str:0000000000000a73 .LASF117
     /tmp/ccme2164.s:2524   .debug_str:000000000000058f .LASF118
     /tmp/ccme2164.s:2386   .debug_str:0000000000000101 .LASF119
     /tmp/ccme2164.s:2552   .debug_str:000000000000069d .LASF120
     /tmp/ccme2164.s:2814   .debug_str:00000000000010aa .LASF121
     /tmp/ccme2164.s:2752   .debug_str:0000000000000d93 .LASF122
     /tmp/ccme2164.s:2810   .debug_str:000000000000108b .LASF123
     /tmp/ccme2164.s:2712   .debug_str:0000000000000bf8 .LASF124
     /tmp/ccme2164.s:2804   .debug_str:000000000000104a .LASF125
     /tmp/ccme2164.s:2620   .debug_str:000000000000091f .LASF126
     /tmp/ccme2164.s:2360   .debug_str:0000000000000034 .LASF127
     /tmp/ccme2164.s:2506   .debug_str:00000000000004d0 .LASF128
     /tmp/ccme2164.s:2454   .debug_str:0000000000000328 .LASF129
     /tmp/ccme2164.s:2770   .debug_str:0000000000000e5d .LASF130
     /tmp/ccme2164.s:2396   .debug_str:000000000000013d .LASF131
     /tmp/ccme2164.s:2778   .debug_str:0000000000000f6b .LASF132
     /tmp/ccme2164.s:2388   .debug_str:0000000000000116 .LASF133
     /tmp/ccme2164.s:2748   .debug_str:0000000000000d6a .LASF134
     /tmp/ccme2164.s:2478   .debug_str:00000000000003dd .LASF135
     /tmp/ccme2164.s:2698   .debug_str:0000000000000b74 .LASF136
     /tmp/ccme2164.s:2750   .debug_str:0000000000000d8a .LASF137
     /tmp/ccme2164.s:2648   .debug_str:0000000000000a0d .LASF138
     /tmp/ccme2164.s:2540   .debug_str:000000000000062d .LASF139
     /tmp/ccme2164.s:2788   .debug_str:0000000000000fc5 .LASF140
     /tmp/ccme2164.s:2514   .debug_str:0000000000000542 .LASF141
     /tmp/ccme2164.s:2556   .debug_str:00000000000006c8 .LASF142
     /tmp/ccme2164.s:2572   .debug_str:0000000000000745 .LASF143
     /tmp/ccme2164.s:2652   .debug_str:0000000000000a3e .LASF144
     /tmp/ccme2164.s:2636   .debug_str:00000000000009c1 .LASF222
     /tmp/ccme2164.s:2384   .debug_str:00000000000000fa .LASF149
     /tmp/ccme2164.s:2496   .debug_str:0000000000000476 .LASF145
     /tmp/ccme2164.s:2562   .debug_str:0000000000000700 .LASF146
     /tmp/ccme2164.s:2554   .debug_str:00000000000006bf .LASF147
     /tmp/ccme2164.s:2686   .debug_str:0000000000000b2a .LASF148
     /tmp/ccme2164.s:2642   .debug_str:00000000000009ea .LASF150
     /tmp/ccme2164.s:2416   .debug_str:00000000000001f6 .LASF151
     /tmp/ccme2164.s:2710   .debug_str:0000000000000bed .LASF152
     /tmp/ccme2164.s:2354   .debug_str:0000000000000013 .LASF153
     /tmp/ccme2164.s:2436   .debug_str:000000000000027e .LASF154
     /tmp/ccme2164.s:2500   .debug_str:000000000000049a .LASF155
     /tmp/ccme2164.s:2780   .debug_str:0000000000000f8f .LASF156
GAS LISTING /tmp/ccme2164.s 			page 9


     /tmp/ccme2164.s:2586   .debug_str:00000000000007df .LASF158
     /tmp/ccme2164.s:2736   .debug_str:0000000000000ce3 .LASF159
     /tmp/ccme2164.s:2424   .debug_str:0000000000000210 .LASF160
     /tmp/ccme2164.s:2608   .debug_str:0000000000000896 .LASF161
     /tmp/ccme2164.s:2510   .debug_str:000000000000051c .LASF162
     /tmp/ccme2164.s:2604   .debug_str:0000000000000881 .LASF163
     /tmp/ccme2164.s:2392   .debug_str:000000000000012b .LASF164
     /tmp/ccme2164.s:2502   .debug_str:000000000000049f .LASF165
     /tmp/ccme2164.s:2706   .debug_str:0000000000000bd6 .LASF166
     /tmp/ccme2164.s:2544   .debug_str:0000000000000653 .LASF167
     /tmp/ccme2164.s:2594   .debug_str:0000000000000838 .LASF168
     /tmp/ccme2164.s:2716   .debug_str:0000000000000c1c .LASF169
     /tmp/ccme2164.s:2390   .debug_str:0000000000000126 .LASF170
     /tmp/ccme2164.s:2632   .debug_str:00000000000009aa .LASF171
     /tmp/ccme2164.s:2440   .debug_str:00000000000002a6 .LASF172
     /tmp/ccme2164.s:2446   .debug_str:00000000000002c0 .LASF173
     /tmp/ccme2164.s:2482   .debug_str:00000000000003f7 .LASF174
     /tmp/ccme2164.s:2404   .debug_str:0000000000000189 .LASF175
     /tmp/ccme2164.s:2758   .debug_str:0000000000000dc9 .LASF176
     /tmp/ccme2164.s:2452   .debug_str:0000000000000300 .LASF177
     /tmp/ccme2164.s:2366   .debug_str:0000000000000085 .LASF178
     /tmp/ccme2164.s:2666   .debug_str:0000000000000ab2 .LASF179
     /tmp/ccme2164.s:2596   .debug_str:000000000000084b .LASF180
     /tmp/ccme2164.s:2536   .debug_str:0000000000000616 .LASF181
     /tmp/ccme2164.s:2418   .debug_str:00000000000001fb .LASF182
     /tmp/ccme2164.s:2714   .debug_str:0000000000000c17 .LASF183
     /tmp/ccme2164.s:2606   .debug_str:0000000000000891 .LASF184
     /tmp/ccme2164.s:2692   .debug_str:0000000000000b54 .LASF185
     /tmp/ccme2164.s:2368   .debug_str:0000000000000091 .LASF186
     /tmp/ccme2164.s:2470   .debug_str:00000000000003b6 .LASF187
     /tmp/ccme2164.s:2584   .debug_str:00000000000007d7 .LASF188
     /tmp/ccme2164.s:2382   .debug_str:00000000000000f5 .LASF189
     /tmp/ccme2164.s:2378   .debug_str:00000000000000de .LASF190
     /tmp/ccme2164.s:2560   .debug_str:00000000000006f7 .LASF191
     /tmp/ccme2164.s:2720   .debug_str:0000000000000c45 .LASF192
     /tmp/ccme2164.s:2600   .debug_str:0000000000000870 .LASF193
     /tmp/ccme2164.s:2786   .debug_str:0000000000000fbd .LASF194
     /tmp/ccme2164.s:2796   .debug_str:0000000000001010 .LASF195
     /tmp/ccme2164.s:2734   .debug_str:0000000000000cd2 .LASF196
     /tmp/ccme2164.s:2782   .debug_str:0000000000000f94 .LASF197
     /tmp/ccme2164.s:2690   .debug_str:0000000000000b4c .LASF198
     /tmp/ccme2164.s:2806   .debug_str:0000000000001063 .LASF199
     /tmp/ccme2164.s:2400   .debug_str:000000000000016c .LASF200
     /tmp/ccme2164.s:2438   .debug_str:0000000000000295 .LASF201
     /tmp/ccme2164.s:2430   .debug_str:000000000000023b .LASF202
     /tmp/ccme2164.s:2532   .debug_str:00000000000005e1 .LASF203
     /tmp/ccme2164.s:2602   .debug_str:000000000000087b .LASF204
     /tmp/ccme2164.s:2684   .debug_str:0000000000000b25 .LASF205
     /tmp/ccme2164.s:2588   .debug_str:00000000000007eb .LASF206
     /tmp/ccme2164.s:2358   .debug_str:000000000000002b .LASF207
     /tmp/ccme2164.s:2420   .debug_str:0000000000000200 .LASF208
     /tmp/ccme2164.s:2756   .debug_str:0000000000000dbd .LASF209
     /tmp/ccme2164.s:2670   .debug_str:0000000000000ad2 .LASF210
     /tmp/ccme2164.s:2680   .debug_str:0000000000000b0f .LASF211
     /tmp/ccme2164.s:2570   .debug_str:000000000000073e .LASF212
     /tmp/ccme2164.s:2662   .debug_str:0000000000000a97 .LASF214
     /tmp/ccme2164.s:2656   .debug_str:0000000000000a6b .LASF213
GAS LISTING /tmp/ccme2164.s 			page 10


     /tmp/ccme2164.s:2760   .debug_str:0000000000000dd7 .LASF215
     /tmp/ccme2164.s:2394   .debug_str:0000000000000138 .LASF216
     /tmp/ccme2164.s:2674   .debug_str:0000000000000aef .LASF217
     /tmp/ccme2164.s:2530   .debug_str:00000000000005d1 .LASF218
     /tmp/ccme2164.s:2640   .debug_str:00000000000009e0 .LASF219
     /tmp/ccme2164.s:2812   .debug_str:000000000000109d .LASF220
     /tmp/ccme2164.s:2634   .debug_str:00000000000009ba .LASF221
     /tmp/ccme2164.s:2592   .debug_str:000000000000081f .LASF227
     /tmp/ccme2164.s:2678   .debug_str:0000000000000b0a .LASF223
     /tmp/ccme2164.s:2618   .debug_str:000000000000091a .LASF228
     /tmp/ccme2164.s:2456   .debug_str:000000000000033e .LASF229
     /tmp/ccme2164.s:2548   .debug_str:000000000000066e .LASF230
     /tmp/ccme2164.s:47     .text:0000000000000030 .LFB46
     /tmp/ccme2164.s:119    .text:00000000000000b0 .LFE46
     /tmp/ccme2164.s:2323   .debug_loc:0000000000000000 .LLST0
     /tmp/ccme2164.s:78     .text:0000000000000064 .LVL2
     /tmp/ccme2164.s:86     .text:000000000000007c .LVL3
     /tmp/ccme2164.s:100    .text:0000000000000094 .LVL4
     /tmp/ccme2164.s:106    .text:00000000000000a0 .LVL5
     /tmp/ccme2164.s:70     .text:0000000000000050 .LBB3
     /tmp/ccme2164.s:107    .text:00000000000000a0 .LBE3
     /tmp/ccme2164.s:2372   .debug_str:00000000000000aa .LASF231
     /tmp/ccme2164.s:10     .text:0000000000000000 .LFB44
     /tmp/ccme2164.s:41     .text:0000000000000030 .LFE44
     /tmp/ccme2164.s:50     .text:0000000000000030 .LVL1
     /tmp/ccme2164.s:141    .debug_info:0000000000000000 .Ldebug_info0

UNDEFINED SYMBOLS
_ZN5RiscV10initializeEv
_Z15userMainWrapperPv
_ZN5RiscV16threadCreateUtilEPP3TCBPFvPvES3_
_ZN5RiscV18threadDispatchUtilEv
_ZN5RiscV8finalizeEv
