GAS LISTING /tmp/ccFpoo0z.s 			page 1


   1              		.file	"system.cpp"
   2              		.option pic
   3              		.option norelax
   4              		.text
   5              	.Ltext0:
   6              		.align	2
   7              		.globl	_Z4ctorPv
   9              	_Z4ctorPv:
  10              	.LFB42:
  11              		.file 1 "src/kernel/system.cpp"
   1:src/kernel/system.cpp **** //
   2:src/kernel/system.cpp **** // Created by os on 5/31/22.
   3:src/kernel/system.cpp **** //
   4:src/kernel/system.cpp **** 
   5:src/kernel/system.cpp **** #include "../../h/system.hpp"
   6:src/kernel/system.cpp **** #include "../../h/riscv.hpp"
   7:src/kernel/system.cpp **** #include "../../h/syscall_c.h"
   8:src/kernel/system.cpp **** //#include "../../tests/userMain.hpp"
   9:src/kernel/system.cpp **** #include "../../h/printing.hpp"
  10:src/kernel/system.cpp **** #include "../../h/tcb.hpp"
  11:src/kernel/system.cpp **** #include "../../h/scheduler.hpp"
  12:src/kernel/system.cpp **** //#include "../../src/user/tests/testUser.hpp"
  13:src/kernel/system.cpp **** #include "../../h/tcbWrapperUtil.hpp"
  14:src/kernel/system.cpp **** 
  15:src/kernel/system.cpp **** bool System::initialized = false;
  16:src/kernel/system.cpp **** 
  17:src/kernel/system.cpp **** struct Test{
  18:src/kernel/system.cpp ****     uint64 a,b,c,d,e,f;
  19:src/kernel/system.cpp **** };
  20:src/kernel/system.cpp **** 
  21:src/kernel/system.cpp **** void ctor(void* tst){
  12              		.loc 1 21 21
  13              		.cfi_startproc
  14              	.LVL0:
  15 0000 130101FF 		addi	sp,sp,-16
  16              		.cfi_def_cfa_offset 16
  17 0004 23348100 		sd	s0,8(sp)
  18              		.cfi_offset 8, -8
  19 0008 13040101 		addi	s0,sp,16
  20              		.cfi_def_cfa 8, 0
  22:src/kernel/system.cpp ****     ((Test*)tst)->a = 17;
  21              		.loc 1 22 5
  22              		.loc 1 22 21 is_stmt 0
  23 000c 93071001 		li	a5,17
  24 0010 2330F500 		sd	a5,0(a0)
  23:src/kernel/system.cpp ****     ((Test*)tst)->b = 32;
  25              		.loc 1 23 5 is_stmt 1
  26              		.loc 1 23 21 is_stmt 0
  27 0014 93070002 		li	a5,32
  28 0018 2334F500 		sd	a5,8(a0)
  24:src/kernel/system.cpp ****     ((Test*)tst)->c = 13;
  29              		.loc 1 24 5 is_stmt 1
  30              		.loc 1 24 21 is_stmt 0
  31 001c 9307D000 		li	a5,13
  32 0020 2338F500 		sd	a5,16(a0)
  25:src/kernel/system.cpp **** 
  26:src/kernel/system.cpp **** }
GAS LISTING /tmp/ccFpoo0z.s 			page 2


  33              		.loc 1 26 1
  34 0024 03348100 		ld	s0,8(sp)
  35              		.cfi_restore 8
  36              		.cfi_def_cfa 2, 16
  37 0028 13010101 		addi	sp,sp,16
  38              		.cfi_def_cfa_offset 0
  39 002c 67800000 		jr	ra
  40              		.cfi_endproc
  41              	.LFE42:
  43              		.align	2
  44              		.globl	_ZN6SystemC2Ev
  46              	_ZN6SystemC2Ev:
  47              	.LFB44:
  27:src/kernel/system.cpp **** System::System() {
  48              		.loc 1 27 1 is_stmt 1
  49              		.cfi_startproc
  50              	.LVL1:
  28:src/kernel/system.cpp ****     //check whether system is already running to prevent user malicious access
  29:src/kernel/system.cpp ****     if (!initialized) {
  51              		.loc 1 29 5
  52              	.LBB2:
  53              		.loc 1 29 9 is_stmt 0
  54 0030 97070000 		lbu	a5,.LANCHOR0
  54      83C70700 
  55              		.loc 1 29 5
  56 0038 63840700 		beqz	a5,.L11
  57 003c 67800000 		ret
  58              	.L11:
  59              	.LBE2:
  27:src/kernel/system.cpp **** System::System() {
  60              		.loc 1 27 1
  61 0040 130101FE 		addi	sp,sp,-32
  62              		.cfi_def_cfa_offset 32
  63 0044 233C1100 		sd	ra,24(sp)
  64 0048 23388100 		sd	s0,16(sp)
  65              		.cfi_offset 1, -8
  66              		.cfi_offset 8, -16
  67 004c 13040102 		addi	s0,sp,32
  68              		.cfi_def_cfa 8, 0
  69              	.LBB4:
  70              	.LBB3:
  30:src/kernel/system.cpp ****         initialized = true;
  71              		.loc 1 30 9 is_stmt 1
  72              		.loc 1 30 21 is_stmt 0
  73 0050 93071000 		li	a5,1
  74 0054 17070000 		sb	a5,.LANCHOR0,a4
  74      2300F700 
  31:src/kernel/system.cpp **** 
  32:src/kernel/system.cpp ****         //initialize the machine
  33:src/kernel/system.cpp ****         RiscV::initialize();
  75              		.loc 1 33 9 is_stmt 1
  76              		.loc 1 33 26 is_stmt 0
  77 005c 97000000 		call	_ZN5RiscV10initializeEv@plt
  77      E7800000 
  78              	.LVL2:
  34:src/kernel/system.cpp ****         //creating a thread that will be executing user code
  35:src/kernel/system.cpp ****         //this is done as to separate user code execution from main kernel thread
GAS LISTING /tmp/ccFpoo0z.s 			page 3


  36:src/kernel/system.cpp ****         //also it provides kernel with an idle thread that will run itself if user code gets blocke
  37:src/kernel/system.cpp **** 
  38:src/kernel/system.cpp ****         thread_t userMainThread;
  79              		.loc 1 38 9 is_stmt 1
  39:src/kernel/system.cpp ****         RiscV::threadCreateUtil((TCB**)(&userMainThread), TCBWrapper::userMainWrapper, nullptr);
  80              		.loc 1 39 9
  81              		.loc 1 39 32 is_stmt 0
  82 0064 13060000 		li	a2,0
  83 0068 97050000 		la	a1,_ZN10TCBWrapper15userMainWrapperEPv
  83      83B50500 
  84 0070 130584FE 		addi	a0,s0,-24
  85 0074 97000000 		call	_ZN5RiscV16threadCreateUtilEPP3TCBPFvPvES3_@plt
  85      E7800000 
  86              	.LVL3:
  87              	.L6:
  40:src/kernel/system.cpp **** 
  41:src/kernel/system.cpp **** 
  42:src/kernel/system.cpp **** //        //return control to user code until it reaches the end
  43:src/kernel/system.cpp **** //        //exit only if user is finished and machine is ready to exit (in case there is something 
  44:src/kernel/system.cpp ****         while (( (TCB*)userMainThread)->status != TCB::Status::FINISHED) {
  88              		.loc 1 44 9 is_stmt 1
  89              		.loc 1 44 48
  90              		.loc 1 44 18 is_stmt 0
  91 007c 833784FE 		ld	a5,-24(s0)
  92              		.loc 1 44 41
  93 0080 03A70701 		lw	a4,16(a5)
  94              		.loc 1 44 48
  95 0084 93072000 		li	a5,2
  96 0088 6308F700 		beq	a4,a5,.L5
  45:src/kernel/system.cpp ****             TCB::dispatch();
  97              		.loc 1 45 13 is_stmt 1
  98              		.loc 1 45 26 is_stmt 0
  99 008c 97000000 		call	_ZN3TCB8dispatchEv@plt
  99      E7800000 
 100              	.LVL4:
 101 0094 6FF09FFE 		j	.L6
 102              	.L5:
  46:src/kernel/system.cpp ****         }
  47:src/kernel/system.cpp **** 
  48:src/kernel/system.cpp ****         //finalize the machine
  49:src/kernel/system.cpp ****         RiscV::finalize();
 103              		.loc 1 49 9 is_stmt 1
 104              		.loc 1 49 24 is_stmt 0
 105 0098 97000000 		call	_ZN5RiscV8finalizeEv@plt
 105      E7800000 
 106              	.LVL5:
 107              	.LBE3:
 108              	.LBE4:
  50:src/kernel/system.cpp ****     }
  51:src/kernel/system.cpp **** }
 109              		.loc 1 51 1
 110 00a0 83308101 		ld	ra,24(sp)
 111              		.cfi_restore 1
 112 00a4 03340101 		ld	s0,16(sp)
 113              		.cfi_restore 8
 114              		.cfi_def_cfa 2, 32
 115 00a8 13010102 		addi	sp,sp,32
GAS LISTING /tmp/ccFpoo0z.s 			page 4


 116              		.cfi_def_cfa_offset 0
 117 00ac 67800000 		jr	ra
 118              		.cfi_endproc
 119              	.LFE44:
 121              		.globl	_ZN6SystemC1Ev
 122              		.set	_ZN6SystemC1Ev,_ZN6SystemC2Ev
 123              		.align	2
 124              		.globl	_ZN6System15userMainWrapperEPv
 126              	_ZN6System15userMainWrapperEPv:
 127              	.LFB46:
  52:src/kernel/system.cpp **** 
  53:src/kernel/system.cpp **** //wrapper function for userMain as per POSIX threads
  54:src/kernel/system.cpp **** void System::userMainWrapper(void *arg){
 128              		.loc 1 54 40 is_stmt 1
 129              		.cfi_startproc
 130              	.LVL6:
 131 00b0 130101FF 		addi	sp,sp,-16
 132              		.cfi_def_cfa_offset 16
 133 00b4 23348100 		sd	s0,8(sp)
 134              		.cfi_offset 8, -8
 135 00b8 13040101 		addi	s0,sp,16
 136              		.cfi_def_cfa 8, 0
  55:src/kernel/system.cpp **** //    int ret = fork();
  56:src/kernel/system.cpp **** //
  57:src/kernel/system.cpp **** //    if(ret == 0){
  58:src/kernel/system.cpp **** //        printString("dete\n");
  59:src/kernel/system.cpp **** //    }
  60:src/kernel/system.cpp **** //    else {
  61:src/kernel/system.cpp **** //        printString("otac\n");
  62:src/kernel/system.cpp **** //        thread_dispatch();
  63:src/kernel/system.cpp **** //    }
  64:src/kernel/system.cpp **** //    MemoryAllocator::showMemory();
  65:src/kernel/system.cpp **** //    testUser();
  66:src/kernel/system.cpp **** }...
 137              		.loc 1 66 1 is_stmt 0
 138 00bc 03348100 		ld	s0,8(sp)
 139              		.cfi_restore 8
 140              		.cfi_def_cfa 2, 16
 141 00c0 13010101 		addi	sp,sp,16
 142              		.cfi_def_cfa_offset 0
 143 00c4 67800000 		jr	ra
 144              		.cfi_endproc
 145              	.LFE46:
 147              		.globl	_ZN6System11initializedE
 148              		.bss
 149              		.set	.LANCHOR0,. + 0
 152              	_ZN6System11initializedE:
 153 0000 00       		.zero	1
 154              		.text
 155              	.Letext0:
 156              		.file 2 "src/kernel/../../h/../lib/hw.h"
 157              		.file 3 "src/kernel/../../h/../h/utility.hpp"
 158              		.file 4 "src/kernel/../../h/system.hpp"
 159              		.file 5 "src/kernel/../../h/riscv.hpp"
 160              		.file 6 "src/kernel/../../h/tcb.hpp"
 161              		.file 7 "src/kernel/../../h/../h/_thread.hpp"
 162              		.file 8 "src/kernel/../../h/../h/../h/../h/../h/slab_t.hpp"
GAS LISTING /tmp/ccFpoo0z.s 			page 5


 163              		.file 9 "src/kernel/../../h/../h/../h/../h/cache_t.hpp"
GAS LISTING /tmp/ccFpoo0z.s 			page 6


DEFINED SYMBOLS
                            *ABS*:0000000000000000 system.cpp
     /tmp/ccFpoo0z.s:9      .text:0000000000000000 _Z4ctorPv
     /tmp/ccFpoo0z.s:13     .text:0000000000000000 .L0 
     /tmp/ccFpoo0z.s:15     .text:0000000000000000 .L0 
     /tmp/ccFpoo0z.s:16     .text:0000000000000004 .L0 
     /tmp/ccFpoo0z.s:18     .text:0000000000000008 .L0 
     /tmp/ccFpoo0z.s:20     .text:000000000000000c .L0 
     /tmp/ccFpoo0z.s:22     .text:000000000000000c .L0 
     /tmp/ccFpoo0z.s:23     .text:000000000000000c .L0 
     /tmp/ccFpoo0z.s:26     .text:0000000000000014 .L0 
     /tmp/ccFpoo0z.s:27     .text:0000000000000014 .L0 
     /tmp/ccFpoo0z.s:30     .text:000000000000001c .L0 
     /tmp/ccFpoo0z.s:31     .text:000000000000001c .L0 
     /tmp/ccFpoo0z.s:34     .text:0000000000000024 .L0 
     /tmp/ccFpoo0z.s:35     .text:0000000000000028 .L0 
     /tmp/ccFpoo0z.s:36     .text:0000000000000028 .L0 
     /tmp/ccFpoo0z.s:38     .text:000000000000002c .L0 
     /tmp/ccFpoo0z.s:40     .text:0000000000000030 .L0 
     /tmp/ccFpoo0z.s:46     .text:0000000000000030 _ZN6SystemC2Ev
     /tmp/ccFpoo0z.s:49     .text:0000000000000030 .L0 
     /tmp/ccFpoo0z.s:51     .text:0000000000000030 .L0 
     /tmp/ccFpoo0z.s:53     .text:0000000000000030 .L0 
     /tmp/ccFpoo0z.s:54     .text:0000000000000030 .L0 
     /tmp/ccFpoo0z.s:56     .text:0000000000000038 .L0 
     /tmp/ccFpoo0z.s:61     .text:0000000000000040 .L0 
     /tmp/ccFpoo0z.s:62     .text:0000000000000044 .L0 
     /tmp/ccFpoo0z.s:65     .text:000000000000004c .L0 
     /tmp/ccFpoo0z.s:66     .text:000000000000004c .L0 
     /tmp/ccFpoo0z.s:68     .text:0000000000000050 .L0 
     /tmp/ccFpoo0z.s:72     .text:0000000000000050 .L0 
     /tmp/ccFpoo0z.s:73     .text:0000000000000050 .L0 
     /tmp/ccFpoo0z.s:76     .text:000000000000005c .L0 
     /tmp/ccFpoo0z.s:77     .text:000000000000005c .L0 
     /tmp/ccFpoo0z.s:80     .text:0000000000000064 .L0 
     /tmp/ccFpoo0z.s:81     .text:0000000000000064 .L0 
     /tmp/ccFpoo0z.s:82     .text:0000000000000064 .L0 
     /tmp/ccFpoo0z.s:89     .text:000000000000007c .L0 
     /tmp/ccFpoo0z.s:90     .text:000000000000007c .L0 
     /tmp/ccFpoo0z.s:91     .text:000000000000007c .L0 
     /tmp/ccFpoo0z.s:93     .text:0000000000000080 .L0 
     /tmp/ccFpoo0z.s:95     .text:0000000000000084 .L0 
     /tmp/ccFpoo0z.s:98     .text:000000000000008c .L0 
     /tmp/ccFpoo0z.s:99     .text:000000000000008c .L0 
     /tmp/ccFpoo0z.s:104    .text:0000000000000098 .L0 
     /tmp/ccFpoo0z.s:105    .text:0000000000000098 .L0 
     /tmp/ccFpoo0z.s:110    .text:00000000000000a0 .L0 
     /tmp/ccFpoo0z.s:111    .text:00000000000000a4 .L0 
     /tmp/ccFpoo0z.s:113    .text:00000000000000a8 .L0 
     /tmp/ccFpoo0z.s:114    .text:00000000000000a8 .L0 
     /tmp/ccFpoo0z.s:116    .text:00000000000000ac .L0 
     /tmp/ccFpoo0z.s:118    .text:00000000000000b0 .L0 
     /tmp/ccFpoo0z.s:46     .text:0000000000000030 _ZN6SystemC1Ev
     /tmp/ccFpoo0z.s:126    .text:00000000000000b0 _ZN6System15userMainWrapperEPv
     /tmp/ccFpoo0z.s:129    .text:00000000000000b0 .L0 
     /tmp/ccFpoo0z.s:131    .text:00000000000000b0 .L0 
     /tmp/ccFpoo0z.s:132    .text:00000000000000b4 .L0 
GAS LISTING /tmp/ccFpoo0z.s 			page 7


     /tmp/ccFpoo0z.s:134    .text:00000000000000b8 .L0 
     /tmp/ccFpoo0z.s:136    .text:00000000000000bc .L0 
     /tmp/ccFpoo0z.s:138    .text:00000000000000bc .L0 
     /tmp/ccFpoo0z.s:139    .text:00000000000000c0 .L0 
     /tmp/ccFpoo0z.s:140    .text:00000000000000c0 .L0 
     /tmp/ccFpoo0z.s:142    .text:00000000000000c4 .L0 
     /tmp/ccFpoo0z.s:144    .text:00000000000000c8 .L0 
     /tmp/ccFpoo0z.s:152    .bss:0000000000000000 _ZN6System11initializedE
     /tmp/ccFpoo0z.s:149    .bss:0000000000000000 .LANCHOR0
     /tmp/ccFpoo0z.s:164    .text:00000000000000c8 .L0 
     /tmp/ccFpoo0z.s:54     .text:0000000000000030 .L0 
     /tmp/ccFpoo0z.s:74     .text:0000000000000054 .L0 
     /tmp/ccFpoo0z.s:83     .text:0000000000000068 .L0 
     /tmp/ccFpoo0z.s:58     .text:0000000000000040 .L11
     /tmp/ccFpoo0z.s:102    .text:0000000000000098 .L5
     /tmp/ccFpoo0z.s:87     .text:000000000000007c .L6
     /tmp/ccFpoo0z.s:1554   .debug_abbrev:0000000000000000 .Ldebug_abbrev0
     /tmp/ccFpoo0z.s:2770   .debug_str:0000000000000de3 .LASF212
     /tmp/ccFpoo0z.s:2424   .debug_str:00000000000001d4 .LASF213
     /tmp/ccFpoo0z.s:2718   .debug_str:0000000000000bb2 .LASF214
     /tmp/ccFpoo0z.s:5      .text:0000000000000000 .Ltext0
     /tmp/ccFpoo0z.s:155    .text:00000000000000c8 .Letext0
     /tmp/ccFpoo0z.s:2362   .debug_line:0000000000000000 .Ldebug_line0
     /tmp/ccFpoo0z.s:2388   .debug_str:00000000000000bc .LASF0
     /tmp/ccFpoo0z.s:2766   .debug_str:0000000000000dc8 .LASF1
     /tmp/ccFpoo0z.s:2724   .debug_str:0000000000000c0e .LASF2
     /tmp/ccFpoo0z.s:2694   .debug_str:0000000000000ae4 .LASF4
     /tmp/ccFpoo0z.s:2702   .debug_str:0000000000000b3b .LASF3
     /tmp/ccFpoo0z.s:2486   .debug_str:00000000000003d4 .LASF5
     /tmp/ccFpoo0z.s:2534   .debug_str:000000000000059c .LASF6
     /tmp/ccFpoo0z.s:2644   .debug_str:0000000000000982 .LASF7
     /tmp/ccFpoo0z.s:2422   .debug_str:00000000000001c4 .LASF8
     /tmp/ccFpoo0z.s:2756   .debug_str:0000000000000d32 .LASF9
     /tmp/ccFpoo0z.s:2490   .debug_str:00000000000003e6 .LASF10
     /tmp/ccFpoo0z.s:2446   .debug_str:0000000000000282 .LASF11
     /tmp/ccFpoo0z.s:2546   .debug_str:000000000000060e .LASF12
     /tmp/ccFpoo0z.s:2500   .debug_str:000000000000043b .LASF13
     /tmp/ccFpoo0z.s:2674   .debug_str:0000000000000a75 .LASF14
     /tmp/ccFpoo0z.s:2502   .debug_str:000000000000044b .LASF15
     /tmp/ccFpoo0z.s:2472   .debug_str:0000000000000381 .LASF16
     /tmp/ccFpoo0z.s:2528   .debug_str:0000000000000574 .LASF17
     /tmp/ccFpoo0z.s:2706   .debug_str:0000000000000b5c .LASF18
     /tmp/ccFpoo0z.s:2568   .debug_str:00000000000006c8 .LASF19
     /tmp/ccFpoo0z.s:2628   .debug_str:000000000000091e .LASF20
     /tmp/ccFpoo0z.s:2460   .debug_str:00000000000002ee .LASF63
     /tmp/ccFpoo0z.s:2444   .debug_str:0000000000000263 .LASF65
     /tmp/ccFpoo0z.s:2474   .debug_str:0000000000000397 .LASF22
     /tmp/ccFpoo0z.s:2416   .debug_str:0000000000000187 .LASF145
     /tmp/ccFpoo0z.s:2432   .debug_str:00000000000001fe .LASF21
     /tmp/ccFpoo0z.s:2382   .debug_str:0000000000000088 .LASF23
     /tmp/ccFpoo0z.s:2438   .debug_str:000000000000022a .LASF24
     /tmp/ccFpoo0z.s:2720   .debug_str:0000000000000be3 .LASF25
     /tmp/ccFpoo0z.s:2680   .debug_str:0000000000000a8b .LASF26
     /tmp/ccFpoo0z.s:2638   .debug_str:000000000000095c .LASF27
     /tmp/ccFpoo0z.s:2582   .debug_str:0000000000000746 .LASF29
     /tmp/ccFpoo0z.s:2524   .debug_str:0000000000000540 .LASF28
     /tmp/ccFpoo0z.s:2758   .debug_str:0000000000000d40 .LASF30
GAS LISTING /tmp/ccFpoo0z.s 			page 8


     /tmp/ccFpoo0z.s:2420   .debug_str:00000000000001a9 .LASF31
     /tmp/ccFpoo0z.s:2542   .debug_str:00000000000005df .LASF32
     /tmp/ccFpoo0z.s:2458   .debug_str:00000000000002d5 .LASF33
     /tmp/ccFpoo0z.s:2722   .debug_str:0000000000000be8 .LASF34
     /tmp/ccFpoo0z.s:2598   .debug_str:00000000000007e6 .LASF35
     /tmp/ccFpoo0z.s:2622   .debug_str:00000000000008d8 .LASF36
     /tmp/ccFpoo0z.s:2384   .debug_str:0000000000000093 .LASF37
     /tmp/ccFpoo0z.s:2514   .debug_str:00000000000004a2 .LASF38
     /tmp/ccFpoo0z.s:2522   .debug_str:0000000000000526 .LASF39
     /tmp/ccFpoo0z.s:2734   .debug_str:0000000000000c43 .LASF40
     /tmp/ccFpoo0z.s:2610   .debug_str:0000000000000836 .LASF41
     /tmp/ccFpoo0z.s:2470   .debug_str:000000000000035e .LASF42
     /tmp/ccFpoo0z.s:2742   .debug_str:0000000000000cbb .LASF43
     /tmp/ccFpoo0z.s:2740   .debug_str:0000000000000c97 .LASF44
     /tmp/ccFpoo0z.s:2784   .debug_str:0000000000000f19 .LASF45
     /tmp/ccFpoo0z.s:2616   .debug_str:000000000000088a .LASF46
     /tmp/ccFpoo0z.s:2408   .debug_str:0000000000000148 .LASF47
     /tmp/ccFpoo0z.s:2614   .debug_str:0000000000000865 .LASF48
     /tmp/ccFpoo0z.s:2738   .debug_str:0000000000000c7f .LASF49
     /tmp/ccFpoo0z.s:2518   .debug_str:00000000000004f5 .LASF50
     /tmp/ccFpoo0z.s:2436   .debug_str:0000000000000217 .LASF51
     /tmp/ccFpoo0z.s:2554   .debug_str:000000000000063d .LASF52
     /tmp/ccFpoo0z.s:2536   .debug_str:00000000000005af .LASF53
     /tmp/ccFpoo0z.s:2566   .debug_str:00000000000006a8 .LASF54
     /tmp/ccFpoo0z.s:2372   .debug_str:0000000000000042 .LASF55
     /tmp/ccFpoo0z.s:2762   .debug_str:0000000000000d81 .LASF56
     /tmp/ccFpoo0z.s:2782   .debug_str:0000000000000f00 .LASF57
     /tmp/ccFpoo0z.s:2494   .debug_str:00000000000003ff .LASF58
     /tmp/ccFpoo0z.s:2508   .debug_str:000000000000047c .LASF59
     /tmp/ccFpoo0z.s:2590   .debug_str:0000000000000789 .LASF60
     /tmp/ccFpoo0z.s:2364   .debug_str:0000000000000000 .LASF61
     /tmp/ccFpoo0z.s:2700   .debug_str:0000000000000b1b .LASF62
     /tmp/ccFpoo0z.s:2748   .debug_str:0000000000000cf9 .LASF64
     /tmp/ccFpoo0z.s:2686   .debug_str:0000000000000aa9 .LASF66
     /tmp/ccFpoo0z.s:2652   .debug_str:00000000000009d1 .LASF67
     /tmp/ccFpoo0z.s:2580   .debug_str:000000000000071a .LASF68
     /tmp/ccFpoo0z.s:2378   .debug_str:000000000000006f .LASF69
     /tmp/ccFpoo0z.s:2650   .debug_str:00000000000009b5 .LASF70
     /tmp/ccFpoo0z.s:2786   .debug_str:0000000000000f2f .LASF73
     /tmp/ccFpoo0z.s:2658   .debug_str:00000000000009f9 .LASF75
     /tmp/ccFpoo0z.s:2662   .debug_str:0000000000000a20 .LASF71
     /tmp/ccFpoo0z.s:2736   .debug_str:0000000000000c6a .LASF72
     /tmp/ccFpoo0z.s:2454   .debug_str:00000000000002be .LASF74
     /tmp/ccFpoo0z.s:2692   .debug_str:0000000000000ad1 .LASF76
     /tmp/ccFpoo0z.s:2482   .debug_str:00000000000003b9 .LASF77
     /tmp/ccFpoo0z.s:2570   .debug_str:00000000000006cd .LASF78
     /tmp/ccFpoo0z.s:2768   .debug_str:0000000000000ddb .LASF79
     /tmp/ccFpoo0z.s:2484   .debug_str:00000000000003c0 .LASF80
     /tmp/ccFpoo0z.s:2666   .debug_str:0000000000000a41 .LASF81
     /tmp/ccFpoo0z.s:2670   .debug_str:0000000000000a52 .LASF82
     /tmp/ccFpoo0z.s:2496   .debug_str:0000000000000425 .LASF83
     /tmp/ccFpoo0z.s:2578   .debug_str:0000000000000704 .LASF84
     /tmp/ccFpoo0z.s:2476   .debug_str:00000000000003a3 .LASF85
     /tmp/ccFpoo0z.s:2624   .debug_str:0000000000000902 .LASF86
     /tmp/ccFpoo0z.s:2576   .debug_str:00000000000006f9 .LASF87
     /tmp/ccFpoo0z.s:2796   .debug_str:0000000000000f7f .LASF88
     /tmp/ccFpoo0z.s:2412   .debug_str:0000000000000172 .LASF89
GAS LISTING /tmp/ccFpoo0z.s 			page 9


     /tmp/ccFpoo0z.s:2698   .debug_str:0000000000000b03 .LASF90
     /tmp/ccFpoo0z.s:2732   .debug_str:0000000000000c3c .LASF91
     /tmp/ccFpoo0z.s:2468   .debug_str:000000000000034b .LASF92
     /tmp/ccFpoo0z.s:2478   .debug_str:00000000000003ad .LASF93
     /tmp/ccFpoo0z.s:2504   .debug_str:0000000000000461 .LASF94
     /tmp/ccFpoo0z.s:2726   .debug_str:0000000000000c1c .LASF95
     /tmp/ccFpoo0z.s:2418   .debug_str:0000000000000196 .LASF96
     /tmp/ccFpoo0z.s:2530   .debug_str:0000000000000579 .LASF97
     /tmp/ccFpoo0z.s:2790   .debug_str:0000000000000f43 .LASF98
     /tmp/ccFpoo0z.s:2560   .debug_str:0000000000000688 .LASF99
     /tmp/ccFpoo0z.s:2526   .debug_str:0000000000000556 .LASF100
     /tmp/ccFpoo0z.s:2760   .debug_str:0000000000000d63 .LASF101
     /tmp/ccFpoo0z.s:2442   .debug_str:0000000000000238 .LASF102
     /tmp/ccFpoo0z.s:2646   .debug_str:0000000000000995 .LASF103
     /tmp/ccFpoo0z.s:2630   .debug_str:0000000000000925 .LASF104
     /tmp/ccFpoo0z.s:2498   .debug_str:000000000000042f .LASF105
     /tmp/ccFpoo0z.s:2612   .debug_str:000000000000084c .LASF106
     /tmp/ccFpoo0z.s:2626   .debug_str:0000000000000918 .LASF107
     /tmp/ccFpoo0z.s:2574   .debug_str:00000000000006e7 .LASF108
     /tmp/ccFpoo0z.s:2656   .debug_str:00000000000009ea .LASF109
     /tmp/ccFpoo0z.s:2532   .debug_str:0000000000000580 .LASF110
     /tmp/ccFpoo0z.s:2394   .debug_str:00000000000000d5 .LASF111
     /tmp/ccFpoo0z.s:2556   .debug_str:000000000000065d .LASF112
     /tmp/ccFpoo0z.s:2802   .debug_str:0000000000000fb6 .LASF113
     /tmp/ccFpoo0z.s:2746   .debug_str:0000000000000cdb .LASF114
     /tmp/ccFpoo0z.s:2798   .debug_str:0000000000000f97 .LASF115
     /tmp/ccFpoo0z.s:2710   .debug_str:0000000000000b6f .LASF116
     /tmp/ccFpoo0z.s:2792   .debug_str:0000000000000f56 .LASF117
     /tmp/ccFpoo0z.s:2620   .debug_str:00000000000008b2 .LASF118
     /tmp/ccFpoo0z.s:2370   .debug_str:0000000000000028 .LASF119
     /tmp/ccFpoo0z.s:2516   .debug_str:00000000000004ce .LASF120
     /tmp/ccFpoo0z.s:2464   .debug_str:0000000000000326 .LASF121
     /tmp/ccFpoo0z.s:2764   .debug_str:0000000000000da5 .LASF122
     /tmp/ccFpoo0z.s:2404   .debug_str:0000000000000111 .LASF123
     /tmp/ccFpoo0z.s:2772   .debug_str:0000000000000eb3 .LASF124
     /tmp/ccFpoo0z.s:2396   .debug_str:00000000000000ea .LASF125
     /tmp/ccFpoo0z.s:2406   .debug_str:0000000000000128 .LASF126
     /tmp/ccFpoo0z.s:2488   .debug_str:00000000000003db .LASF127
     /tmp/ccFpoo0z.s:2696   .debug_str:0000000000000aeb .LASF128
     /tmp/ccFpoo0z.s:2744   .debug_str:0000000000000cd2 .LASF129
     /tmp/ccFpoo0z.s:2648   .debug_str:00000000000009a0 .LASF130
     /tmp/ccFpoo0z.s:2548   .debug_str:000000000000061e .LASF131
     /tmp/ccFpoo0z.s:2780   .debug_str:0000000000000eed .LASF132
     /tmp/ccFpoo0z.s:2636   .debug_str:0000000000000954 .LASF210
     /tmp/ccFpoo0z.s:2392   .debug_str:00000000000000ce .LASF137
     /tmp/ccFpoo0z.s:2506   .debug_str:0000000000000474 .LASF133
     /tmp/ccFpoo0z.s:2564   .debug_str:00000000000006a2 .LASF134
     /tmp/ccFpoo0z.s:2558   .debug_str:000000000000067f .LASF135
     /tmp/ccFpoo0z.s:2684   .debug_str:0000000000000aa1 .LASF136
     /tmp/ccFpoo0z.s:2642   .debug_str:000000000000097d .LASF138
     /tmp/ccFpoo0z.s:2426   .debug_str:00000000000001ea .LASF139
     /tmp/ccFpoo0z.s:2708   .debug_str:0000000000000b64 .LASF140
     /tmp/ccFpoo0z.s:2366   .debug_str:0000000000000013 .LASF141
     /tmp/ccFpoo0z.s:2448   .debug_str:0000000000000291 .LASF142
     /tmp/ccFpoo0z.s:2510   .debug_str:0000000000000498 .LASF143
     /tmp/ccFpoo0z.s:2774   .debug_str:0000000000000ed7 .LASF144
     /tmp/ccFpoo0z.s:2586   .debug_str:0000000000000772 .LASF146
GAS LISTING /tmp/ccFpoo0z.s 			page 10


     /tmp/ccFpoo0z.s:2730   .debug_str:0000000000000c34 .LASF147
     /tmp/ccFpoo0z.s:2434   .debug_str:0000000000000204 .LASF148
     /tmp/ccFpoo0z.s:2608   .debug_str:0000000000000829 .LASF149
     /tmp/ccFpoo0z.s:2520   .debug_str:000000000000051a .LASF150
     /tmp/ccFpoo0z.s:2604   .debug_str:0000000000000814 .LASF151
     /tmp/ccFpoo0z.s:2400   .debug_str:00000000000000ff .LASF152
     /tmp/ccFpoo0z.s:2512   .debug_str:000000000000049d .LASF153
     /tmp/ccFpoo0z.s:2704   .debug_str:0000000000000b4d .LASF154
     /tmp/ccFpoo0z.s:2550   .debug_str:0000000000000625 .LASF155
     /tmp/ccFpoo0z.s:2594   .debug_str:00000000000007cb .LASF156
     /tmp/ccFpoo0z.s:2714   .debug_str:0000000000000b93 .LASF157
     /tmp/ccFpoo0z.s:2398   .debug_str:00000000000000fa .LASF158
     /tmp/ccFpoo0z.s:2632   .debug_str:000000000000093d .LASF159
     /tmp/ccFpoo0z.s:2452   .debug_str:00000000000002b9 .LASF160
     /tmp/ccFpoo0z.s:2456   .debug_str:00000000000002c5 .LASF161
     /tmp/ccFpoo0z.s:2492   .debug_str:00000000000003f5 .LASF162
     /tmp/ccFpoo0z.s:2414   .debug_str:000000000000017d .LASF163
     /tmp/ccFpoo0z.s:2752   .debug_str:0000000000000d11 .LASF164
     /tmp/ccFpoo0z.s:2462   .debug_str:00000000000002fe .LASF165
     /tmp/ccFpoo0z.s:2374   .debug_str:0000000000000059 .LASF166
     /tmp/ccFpoo0z.s:2664   .debug_str:0000000000000a29 .LASF167
     /tmp/ccFpoo0z.s:2596   .debug_str:00000000000007de .LASF168
     /tmp/ccFpoo0z.s:2544   .debug_str:0000000000000607 .LASF169
     /tmp/ccFpoo0z.s:2428   .debug_str:00000000000001ef .LASF170
     /tmp/ccFpoo0z.s:2712   .debug_str:0000000000000b8e .LASF171
     /tmp/ccFpoo0z.s:2606   .debug_str:0000000000000824 .LASF172
     /tmp/ccFpoo0z.s:2690   .debug_str:0000000000000acb .LASF173
     /tmp/ccFpoo0z.s:2376   .debug_str:0000000000000065 .LASF174
     /tmp/ccFpoo0z.s:2480   .debug_str:00000000000003b4 .LASF175
     /tmp/ccFpoo0z.s:2584   .debug_str:000000000000076a .LASF176
     /tmp/ccFpoo0z.s:2390   .debug_str:00000000000000c9 .LASF177
     /tmp/ccFpoo0z.s:2386   .debug_str:00000000000000b2 .LASF178
     /tmp/ccFpoo0z.s:2562   .debug_str:0000000000000699 .LASF179
     /tmp/ccFpoo0z.s:2716   .debug_str:0000000000000ba9 .LASF180
     /tmp/ccFpoo0z.s:2600   .debug_str:0000000000000803 .LASF181
     /tmp/ccFpoo0z.s:2778   .debug_str:0000000000000ee5 .LASF182
     /tmp/ccFpoo0z.s:2788   .debug_str:0000000000000f38 .LASF183
     /tmp/ccFpoo0z.s:2728   .debug_str:0000000000000c23 .LASF184
     /tmp/ccFpoo0z.s:2776   .debug_str:0000000000000edc .LASF185
     /tmp/ccFpoo0z.s:2688   .debug_str:0000000000000ac3 .LASF186
     /tmp/ccFpoo0z.s:2794   .debug_str:0000000000000f6f .LASF187
     /tmp/ccFpoo0z.s:2410   .debug_str:0000000000000160 .LASF188
     /tmp/ccFpoo0z.s:2450   .debug_str:00000000000002a8 .LASF189
     /tmp/ccFpoo0z.s:2440   .debug_str:000000000000022f .LASF190
     /tmp/ccFpoo0z.s:2540   .debug_str:00000000000005d2 .LASF191
     /tmp/ccFpoo0z.s:2602   .debug_str:000000000000080e .LASF192
     /tmp/ccFpoo0z.s:2682   .debug_str:0000000000000a9c .LASF193
     /tmp/ccFpoo0z.s:2588   .debug_str:000000000000077e .LASF194
     /tmp/ccFpoo0z.s:2368   .debug_str:000000000000001f .LASF195
     /tmp/ccFpoo0z.s:2430   .debug_str:00000000000001f4 .LASF196
     /tmp/ccFpoo0z.s:2750   .debug_str:0000000000000d05 .LASF197
     /tmp/ccFpoo0z.s:2668   .debug_str:0000000000000a49 .LASF198
     /tmp/ccFpoo0z.s:2678   .debug_str:0000000000000a86 .LASF199
     /tmp/ccFpoo0z.s:2572   .debug_str:00000000000006e0 .LASF200
     /tmp/ccFpoo0z.s:2660   .debug_str:0000000000000a0e .LASF202
     /tmp/ccFpoo0z.s:2654   .debug_str:00000000000009e2 .LASF201
     /tmp/ccFpoo0z.s:2754   .debug_str:0000000000000d1f .LASF203
GAS LISTING /tmp/ccFpoo0z.s 			page 11


     /tmp/ccFpoo0z.s:2402   .debug_str:000000000000010c .LASF204
     /tmp/ccFpoo0z.s:2672   .debug_str:0000000000000a66 .LASF205
     /tmp/ccFpoo0z.s:2538   .debug_str:00000000000005c2 .LASF206
     /tmp/ccFpoo0z.s:2640   .debug_str:0000000000000973 .LASF207
     /tmp/ccFpoo0z.s:2800   .debug_str:0000000000000fa9 .LASF208
     /tmp/ccFpoo0z.s:2634   .debug_str:000000000000094d .LASF209
     /tmp/ccFpoo0z.s:2592   .debug_str:00000000000007b2 .LASF215
     /tmp/ccFpoo0z.s:2676   .debug_str:0000000000000a81 .LASF211
     /tmp/ccFpoo0z.s:127    .text:00000000000000b0 .LFB46
     /tmp/ccFpoo0z.s:145    .text:00000000000000c8 .LFE46
     /tmp/ccFpoo0z.s:2618   .debug_str:00000000000008ad .LASF216
     /tmp/ccFpoo0z.s:2466   .debug_str:000000000000033c .LASF217
     /tmp/ccFpoo0z.s:2552   .debug_str:000000000000062e .LASF218
     /tmp/ccFpoo0z.s:47     .text:0000000000000030 .LFB44
     /tmp/ccFpoo0z.s:119    .text:00000000000000b0 .LFE44
     /tmp/ccFpoo0z.s:2335   .debug_loc:0000000000000000 .LLST0
     /tmp/ccFpoo0z.s:78     .text:0000000000000064 .LVL2
     /tmp/ccFpoo0z.s:86     .text:000000000000007c .LVL3
     /tmp/ccFpoo0z.s:100    .text:0000000000000094 .LVL4
     /tmp/ccFpoo0z.s:106    .text:00000000000000a0 .LVL5
     /tmp/ccFpoo0z.s:70     .text:0000000000000050 .LBB3
     /tmp/ccFpoo0z.s:107    .text:00000000000000a0 .LBE3
     /tmp/ccFpoo0z.s:2380   .debug_str:000000000000007e .LASF219
     /tmp/ccFpoo0z.s:10     .text:0000000000000000 .LFB42
     /tmp/ccFpoo0z.s:41     .text:0000000000000030 .LFE42
     /tmp/ccFpoo0z.s:50     .text:0000000000000030 .LVL1
     /tmp/ccFpoo0z.s:165    .debug_info:0000000000000000 .Ldebug_info0

UNDEFINED SYMBOLS
_ZN5RiscV10initializeEv
_ZN10TCBWrapper15userMainWrapperEPv
_ZN5RiscV16threadCreateUtilEPP3TCBPFvPvES3_
_ZN3TCB8dispatchEv
_ZN5RiscV8finalizeEv
