GAS LISTING /tmp/cchOkLVj.s 			page 1


   1              		.file	"system.cpp"
   2              		.option pic
   3              		.option norelax
   4              		.text
   5              	.Ltext0:
   6              		.align	2
   7              		.globl	_Z6memsetPKvii
   9              	_Z6memsetPKvii:
  10              	.LFB44:
  11              		.file 1 "src/kernel/../../src/kernel/tests/test2.hpp"
   1:src/kernel/../../src/kernel/tests/test2.hpp **** //
   2:src/kernel/../../src/kernel/tests/test2.hpp **** // Created by os on 1/10/23.
   3:src/kernel/../../src/kernel/tests/test2.hpp **** //
   4:src/kernel/../../src/kernel/tests/test2.hpp **** 
   5:src/kernel/../../src/kernel/tests/test2.hpp **** #ifndef KERNEL_FOR_RISCV_ARCHITECURE_TEST2_HPP
   6:src/kernel/../../src/kernel/tests/test2.hpp **** #define KERNEL_FOR_RISCV_ARCHITECURE_TEST2_HPP
   7:src/kernel/../../src/kernel/tests/test2.hpp **** #include "../../../h/kernel/slab.hpp"
   8:src/kernel/../../src/kernel/tests/test2.hpp **** 
   9:src/kernel/../../src/kernel/tests/test2.hpp **** #define RUN_NUM (5)
  10:src/kernel/../../src/kernel/tests/test2.hpp **** #define ITERATIONS (1000)
  11:src/kernel/../../src/kernel/tests/test2.hpp **** 
  12:src/kernel/../../src/kernel/tests/test2.hpp **** #define shared_size (7)
  13:src/kernel/../../src/kernel/tests/test2.hpp **** #define MASK (0xA5)
  14:src/kernel/../../src/kernel/tests/test2.hpp **** 
  15:src/kernel/../../src/kernel/tests/test2.hpp **** struct data_s {
  16:src/kernel/../../src/kernel/tests/test2.hpp ****     int id;
  17:src/kernel/../../src/kernel/tests/test2.hpp ****     kmem_cache_t  *shared;
  18:src/kernel/../../src/kernel/tests/test2.hpp ****     int iterations;
  19:src/kernel/../../src/kernel/tests/test2.hpp **** };
  20:src/kernel/../../src/kernel/tests/test2.hpp **** 
  21:src/kernel/../../src/kernel/tests/test2.hpp **** const char * const CACHE_NAMES[] = {"tc_0",
  22:src/kernel/../../src/kernel/tests/test2.hpp ****                                     "tc_1",
  23:src/kernel/../../src/kernel/tests/test2.hpp ****                                     "tc_2",
  24:src/kernel/../../src/kernel/tests/test2.hpp ****                                     "tc_3",
  25:src/kernel/../../src/kernel/tests/test2.hpp ****                                     "tc_4"};
  26:src/kernel/../../src/kernel/tests/test2.hpp **** 
  27:src/kernel/../../src/kernel/tests/test2.hpp **** void memset(const void *data, int size, int value) {
  12              		.loc 1 27 52
  13              		.cfi_startproc
  14              	.LVL0:
  15 0000 130101FF 		addi	sp,sp,-16
  16              		.cfi_def_cfa_offset 16
  17 0004 23348100 		sd	s0,8(sp)
  18              		.cfi_offset 8, -8
  19 0008 13040101 		addi	s0,sp,16
  20              		.cfi_def_cfa 8, 0
  28:src/kernel/../../src/kernel/tests/test2.hpp ****     for (int j = 0; j < size; j++) {
  21              		.loc 1 28 5
  22              	.LVL1:
  23              	.LBB2:
  24              		.loc 1 28 14 is_stmt 0
  25 000c 93070000 		li	a5,0
  26              	.LVL2:
  27              	.L3:
  28              		.loc 1 28 23 is_stmt 1 discriminator 3
  29 0010 63DAB700 		bge	a5,a1,.L1
  29:src/kernel/../../src/kernel/tests/test2.hpp ****         *((char *)data + j) = value;
GAS LISTING /tmp/cchOkLVj.s 			page 2


  30              		.loc 1 29 9 discriminator 2
  31              		.loc 1 29 24 is_stmt 0 discriminator 2
  32 0014 3307F500 		add	a4,a0,a5
  33              		.loc 1 29 29 discriminator 2
  34 0018 2300C700 		sb	a2,0(a4)
  28:src/kernel/../../src/kernel/tests/test2.hpp ****     for (int j = 0; j < size; j++) {
  35              		.loc 1 28 5 is_stmt 1 discriminator 2
  36 001c 9B871700 		addiw	a5,a5,1
  37              	.LVL3:
  38 0020 6FF01FFF 		j	.L3
  39              	.LVL4:
  40              	.L1:
  41              	.LBE2:
  30:src/kernel/../../src/kernel/tests/test2.hpp ****     }
  31:src/kernel/../../src/kernel/tests/test2.hpp **** }
  42              		.loc 1 31 1 is_stmt 0
  43 0024 03348100 		ld	s0,8(sp)
  44              		.cfi_restore 8
  45              		.cfi_def_cfa 2, 16
  46 0028 13010101 		addi	sp,sp,16
  47              		.cfi_def_cfa_offset 0
  48 002c 67800000 		jr	ra
  49              		.cfi_endproc
  50              	.LFE44:
  52              		.align	2
  53              		.globl	_Z9constructPv
  55              	_Z9constructPv:
  56              	.LFB45:
  32:src/kernel/../../src/kernel/tests/test2.hpp **** 
  33:src/kernel/../../src/kernel/tests/test2.hpp **** void construct(void *data) {
  57              		.loc 1 33 28 is_stmt 1
  58              		.cfi_startproc
  59              	.LVL5:
  60 0030 130101FF 		addi	sp,sp,-16
  61              		.cfi_def_cfa_offset 16
  62 0034 23341100 		sd	ra,8(sp)
  63 0038 23308100 		sd	s0,0(sp)
  64              		.cfi_offset 1, -8
  65              		.cfi_offset 8, -16
  66 003c 13040101 		addi	s0,sp,16
  67              		.cfi_def_cfa 8, 0
  34:src/kernel/../../src/kernel/tests/test2.hpp **** //    static int i = 1;
  35:src/kernel/../../src/kernel/tests/test2.hpp **** //    printf("%d Shared object constructed.\n", i++);
  36:src/kernel/../../src/kernel/tests/test2.hpp ****     memset(data, shared_size, MASK);
  68              		.loc 1 36 5
  69              		.loc 1 36 11 is_stmt 0
  70 0040 1306500A 		li	a2,165
  71 0044 93057000 		li	a1,7
  72 0048 97000000 		call	_Z6memsetPKvii
  72      E7800000 
  73              	.LVL6:
  37:src/kernel/../../src/kernel/tests/test2.hpp **** }
  74              		.loc 1 37 1
  75 0050 83308100 		ld	ra,8(sp)
  76              		.cfi_restore 1
  77 0054 03340100 		ld	s0,0(sp)
  78              		.cfi_restore 8
GAS LISTING /tmp/cchOkLVj.s 			page 3


  79              		.cfi_def_cfa 2, 16
  80 0058 13010101 		addi	sp,sp,16
  81              		.cfi_def_cfa_offset 0
  82 005c 67800000 		jr	ra
  83              		.cfi_endproc
  84              	.LFE45:
  86              		.align	2
  87              		.globl	_Z5checkPvm
  89              	_Z5checkPvm:
  90              	.LFB46:
  38:src/kernel/../../src/kernel/tests/test2.hpp **** 
  39:src/kernel/../../src/kernel/tests/test2.hpp **** int check(void *data, size_t size) {
  91              		.loc 1 39 36 is_stmt 1
  92              		.cfi_startproc
  93              	.LVL7:
  94 0060 130101FF 		addi	sp,sp,-16
  95              		.cfi_def_cfa_offset 16
  96 0064 23348100 		sd	s0,8(sp)
  97              		.cfi_offset 8, -8
  98 0068 13040101 		addi	s0,sp,16
  99              		.cfi_def_cfa 8, 0
 100 006c 13060500 		mv	a2,a0
  40:src/kernel/../../src/kernel/tests/test2.hpp ****     int ret = 1;
 101              		.loc 1 40 5
 102              	.LVL8:
  41:src/kernel/../../src/kernel/tests/test2.hpp ****     for (uint64 i = 0; i < size; i++) {
 103              		.loc 1 41 5
 104              	.LBB3:
 105              		.loc 1 41 17 is_stmt 0
 106 0070 93070000 		li	a5,0
 107              	.LBE3:
  40:src/kernel/../../src/kernel/tests/test2.hpp ****     int ret = 1;
 108              		.loc 1 40 9
 109 0074 13051000 		li	a0,1
 110              	.LVL9:
 111 0078 6F008000 		j	.L10
 112              	.LVL10:
 113              	.L9:
 114              	.LBB4:
 115              		.loc 1 41 5 is_stmt 1 discriminator 2
 116 007c 93871700 		addi	a5,a5,1
 117              	.LVL11:
 118              	.L10:
 119              		.loc 1 41 26 discriminator 1
 120 0080 63FEB700 		bgeu	a5,a1,.L8
  42:src/kernel/../../src/kernel/tests/test2.hpp ****         if (((unsigned char *)data)[i] != MASK) {
 121              		.loc 1 42 9
 122              		.loc 1 42 38 is_stmt 0
 123 0084 3307F600 		add	a4,a2,a5
 124 0088 83460700 		lbu	a3,0(a4)
 125              		.loc 1 42 9
 126 008c 1307500A 		li	a4,165
 127 0090 E386E6FE 		beq	a3,a4,.L9
  43:src/kernel/../../src/kernel/tests/test2.hpp ****             ret = 0;
 128              		.loc 1 43 17
 129 0094 13050000 		li	a0,0
 130              	.LVL12:
GAS LISTING /tmp/cchOkLVj.s 			page 4


 131 0098 6FF05FFE 		j	.L9
 132              	.LVL13:
 133              	.L8:
 134              	.LBE4:
  44:src/kernel/../../src/kernel/tests/test2.hpp ****         }
  45:src/kernel/../../src/kernel/tests/test2.hpp ****     }
  46:src/kernel/../../src/kernel/tests/test2.hpp **** 
  47:src/kernel/../../src/kernel/tests/test2.hpp ****     return ret;
 135              		.loc 1 47 5 is_stmt 1
  48:src/kernel/../../src/kernel/tests/test2.hpp **** }
 136              		.loc 1 48 1 is_stmt 0
 137 009c 03348100 		ld	s0,8(sp)
 138              		.cfi_restore 8
 139              		.cfi_def_cfa 2, 16
 140 00a0 13010101 		addi	sp,sp,16
 141              		.cfi_def_cfa_offset 0
 142 00a4 67800000 		jr	ra
 143              		.cfi_endproc
 144              	.LFE46:
 146              		.section	.rodata.str1.8,"aMS",@progbits,1
 147              		.align	3
 148              	.LC0:
 149 0000 56616C75 		.string	"Value not correct!"
 149      65206E6F 
 149      7420636F 
 149      72726563 
 149      742100
 150              		.text
 151              		.align	2
 152              		.globl	_Z4workPv
 154              	_Z4workPv:
 155              	.LFB47:
  49:src/kernel/../../src/kernel/tests/test2.hpp **** 
  50:src/kernel/../../src/kernel/tests/test2.hpp **** struct objects_s {
  51:src/kernel/../../src/kernel/tests/test2.hpp ****     kmem_cache_t *cache;
  52:src/kernel/../../src/kernel/tests/test2.hpp ****     void *data;
  53:src/kernel/../../src/kernel/tests/test2.hpp **** };
  54:src/kernel/../../src/kernel/tests/test2.hpp **** 
  55:src/kernel/../../src/kernel/tests/test2.hpp **** void work(void* pdata) {
 156              		.loc 1 55 24 is_stmt 1
 157              		.cfi_startproc
 158              	.LVL14:
 159 00a8 130101F8 		addi	sp,sp,-128
 160              		.cfi_def_cfa_offset 128
 161 00ac 233C1106 		sd	ra,120(sp)
 162 00b0 23388106 		sd	s0,112(sp)
 163 00b4 23349106 		sd	s1,104(sp)
 164 00b8 23302107 		sd	s2,96(sp)
 165 00bc 233C3105 		sd	s3,88(sp)
 166 00c0 23384105 		sd	s4,80(sp)
 167 00c4 23345105 		sd	s5,72(sp)
 168 00c8 23306105 		sd	s6,64(sp)
 169 00cc 233C7103 		sd	s7,56(sp)
 170 00d0 23388103 		sd	s8,48(sp)
 171 00d4 23349103 		sd	s9,40(sp)
 172              		.cfi_offset 1, -8
 173              		.cfi_offset 8, -16
GAS LISTING /tmp/cchOkLVj.s 			page 5


 174              		.cfi_offset 9, -24
 175              		.cfi_offset 18, -32
 176              		.cfi_offset 19, -40
 177              		.cfi_offset 20, -48
 178              		.cfi_offset 21, -56
 179              		.cfi_offset 22, -64
 180              		.cfi_offset 23, -72
 181              		.cfi_offset 24, -80
 182              		.cfi_offset 25, -88
 183 00d8 13040108 		addi	s0,sp,128
 184              		.cfi_def_cfa 8, 0
  56:src/kernel/../../src/kernel/tests/test2.hpp ****     struct data_s data = *(struct data_s*) pdata;
 185              		.loc 1 56 5
 186              		.loc 1 56 19 is_stmt 0
 187 00dc 033C0500 		ld	s8,0(a0)
 188 00e0 233484F9 		sd	s8,-120(s0)
 189 00e4 83378500 		ld	a5,8(a0)
 190 00e8 2338F4F8 		sd	a5,-112(s0)
 191 00ec 83370501 		ld	a5,16(a0)
 192 00f0 233CF4F8 		sd	a5,-104(s0)
  57:src/kernel/../../src/kernel/tests/test2.hpp ****     int size = 0;
 193              		.loc 1 57 5 is_stmt 1
 194              	.LVL15:
  58:src/kernel/../../src/kernel/tests/test2.hpp ****     int object_size = data.id + 1;
 195              		.loc 1 58 5
 196              		.loc 1 58 28 is_stmt 0
 197 00f4 9B070C00 		sext.w	a5,s8
 198              		.loc 1 58 9
 199 00f8 1B0C1C00 		addiw	s8,s8,1
 200              	.LVL16:
  59:src/kernel/../../src/kernel/tests/test2.hpp ****     kmem_cache_t *cache = kmem_cache_create(CACHE_NAMES[data.id], object_size, 0, 0);
 201              		.loc 1 59 5 is_stmt 1
 202              		.loc 1 59 64 is_stmt 0
 203 00fc 13973700 		slli	a4,a5,3
 204 0100 97070000 		lla	a5,.LANCHOR0
 204      93870700 
 205              	.LVL17:
 206 0108 B387E700 		add	a5,a5,a4
 207              		.loc 1 59 44
 208 010c 130B0C00 		mv	s6,s8
 209 0110 93060000 		li	a3,0
 210 0114 13060000 		li	a2,0
 211 0118 93050C00 		mv	a1,s8
 212 011c 03B50700 		ld	a0,0(a5)
 213              	.LVL18:
 214 0120 97000000 		call	_Z17kmem_cache_createPKcmPFvPvES3_@plt
 214      E7800000 
 215              	.LVL19:
 216 0128 130A0500 		mv	s4,a0
 217              	.LVL20:
  60:src/kernel/../../src/kernel/tests/test2.hpp **** 
  61:src/kernel/../../src/kernel/tests/test2.hpp ****     struct objects_s *objs = (struct objects_s*)(kmalloc(sizeof(struct objects_s) * data.iterations
 218              		.loc 1 61 5 is_stmt 1
 219              		.loc 1 61 90 is_stmt 0
 220 012c 832B84F9 		lw	s7,-104(s0)
 221              		.loc 1 61 57
 222 0130 13954B00 		slli	a0,s7,4
GAS LISTING /tmp/cchOkLVj.s 			page 6


 223              	.LVL21:
 224 0134 97000000 		call	_Z7kmallocm@plt
 224      E7800000 
 225              	.LVL22:
 226 013c 930A0500 		mv	s5,a0
 227              	.LBB5:
  62:src/kernel/../../src/kernel/tests/test2.hpp **** 
  63:src/kernel/../../src/kernel/tests/test2.hpp ****     for (int i = 0; i < data.iterations; i++) {
 228              		.loc 1 63 14
 229 0140 93040000 		li	s1,0
 230              	.LBE5:
  57:src/kernel/../../src/kernel/tests/test2.hpp ****     int object_size = data.id + 1;
 231              		.loc 1 57 9
 232 0144 93090000 		li	s3,0
 233 0148 6F008003 		j	.L17
 234              	.LVL23:
 235              	.L15:
 236              	.LBB6:
  64:src/kernel/../../src/kernel/tests/test2.hpp ****         if (i % 100 == 0) {
  65:src/kernel/../../src/kernel/tests/test2.hpp ****             objs[size].data = kmem_cache_alloc(data.shared);
  66:src/kernel/../../src/kernel/tests/test2.hpp ****             objs[size].cache = data.shared;
  67:src/kernel/../../src/kernel/tests/test2.hpp ****             if (!check(objs[size].data, shared_size)) {
  68:src/kernel/../../src/kernel/tests/test2.hpp ****                 ConsoleUtil::printString("Value not correct!");
  69:src/kernel/../../src/kernel/tests/test2.hpp ****             }
  70:src/kernel/../../src/kernel/tests/test2.hpp ****         }
  71:src/kernel/../../src/kernel/tests/test2.hpp ****         else {
  72:src/kernel/../../src/kernel/tests/test2.hpp ****             objs[size].data = kmem_cache_alloc(cache);
 237              		.loc 1 72 13 is_stmt 1
 238              		.loc 1 72 22 is_stmt 0
 239 014c 13994900 		slli	s2,s3,4
 240 0150 33892A01 		add	s2,s5,s2
 241              		.loc 1 72 47
 242 0154 13050A00 		mv	a0,s4
 243 0158 97000000 		call	_Z16kmem_cache_allocP5Cache@plt
 243      E7800000 
 244              	.LVL24:
 245              		.loc 1 72 29
 246 0160 2334A900 		sd	a0,8(s2)
  73:src/kernel/../../src/kernel/tests/test2.hpp ****             objs[size].cache = cache;
 247              		.loc 1 73 13 is_stmt 1
 248              		.loc 1 73 30 is_stmt 0
 249 0164 23304901 		sd	s4,0(s2)
  74:src/kernel/../../src/kernel/tests/test2.hpp ****             memset(objs[size].data, object_size, MASK);
 250              		.loc 1 74 13 is_stmt 1
 251              		.loc 1 74 19 is_stmt 0
 252 0168 1306500A 		li	a2,165
 253 016c 93050C00 		mv	a1,s8
 254 0170 97000000 		call	_Z6memsetPKvii
 254      E7800000 
 255              	.LVL25:
 256              	.L16:
  75:src/kernel/../../src/kernel/tests/test2.hpp ****         }
  76:src/kernel/../../src/kernel/tests/test2.hpp ****         size++;
 257              		.loc 1 76 9 is_stmt 1 discriminator 2
 258              		.loc 1 76 13 is_stmt 0 discriminator 2
 259 0178 9B891900 		addiw	s3,s3,1
 260              	.LVL26:
GAS LISTING /tmp/cchOkLVj.s 			page 7


  63:src/kernel/../../src/kernel/tests/test2.hpp ****         if (i % 100 == 0) {
 261              		.loc 1 63 5 is_stmt 1 discriminator 2
 262 017c 9B841400 		addiw	s1,s1,1
 263              	.LVL27:
 264              	.L17:
  63:src/kernel/../../src/kernel/tests/test2.hpp ****         if (i % 100 == 0) {
 265              		.loc 1 63 23 discriminator 1
 266 0180 63DA7405 		ble	s7,s1,.L14
  64:src/kernel/../../src/kernel/tests/test2.hpp ****             objs[size].data = kmem_cache_alloc(data.shared);
 267              		.loc 1 64 9
  64:src/kernel/../../src/kernel/tests/test2.hpp ****             objs[size].data = kmem_cache_alloc(data.shared);
 268              		.loc 1 64 15 is_stmt 0
 269 0184 93074006 		li	a5,100
 270 0188 BBE7F402 		remw	a5,s1,a5
  64:src/kernel/../../src/kernel/tests/test2.hpp ****             objs[size].data = kmem_cache_alloc(data.shared);
 271              		.loc 1 64 9
 272 018c E39007FC 		bnez	a5,.L15
  65:src/kernel/../../src/kernel/tests/test2.hpp ****             objs[size].cache = data.shared;
 273              		.loc 1 65 13 is_stmt 1
  65:src/kernel/../../src/kernel/tests/test2.hpp ****             objs[size].cache = data.shared;
 274              		.loc 1 65 47 is_stmt 0
 275 0190 833C04F9 		ld	s9,-112(s0)
  65:src/kernel/../../src/kernel/tests/test2.hpp ****             objs[size].cache = data.shared;
 276              		.loc 1 65 22
 277 0194 13994900 		slli	s2,s3,4
 278 0198 33892A01 		add	s2,s5,s2
  65:src/kernel/../../src/kernel/tests/test2.hpp ****             objs[size].cache = data.shared;
 279              		.loc 1 65 47
 280 019c 13850C00 		mv	a0,s9
 281 01a0 97000000 		call	_Z16kmem_cache_allocP5Cache@plt
 281      E7800000 
 282              	.LVL28:
  65:src/kernel/../../src/kernel/tests/test2.hpp ****             objs[size].cache = data.shared;
 283              		.loc 1 65 29
 284 01a8 2334A900 		sd	a0,8(s2)
  66:src/kernel/../../src/kernel/tests/test2.hpp ****             if (!check(objs[size].data, shared_size)) {
 285              		.loc 1 66 13 is_stmt 1
  66:src/kernel/../../src/kernel/tests/test2.hpp ****             if (!check(objs[size].data, shared_size)) {
 286              		.loc 1 66 30 is_stmt 0
 287 01ac 23309901 		sd	s9,0(s2)
  67:src/kernel/../../src/kernel/tests/test2.hpp ****                 ConsoleUtil::printString("Value not correct!");
 288              		.loc 1 67 13 is_stmt 1
  67:src/kernel/../../src/kernel/tests/test2.hpp ****                 ConsoleUtil::printString("Value not correct!");
 289              		.loc 1 67 23 is_stmt 0
 290 01b0 93057000 		li	a1,7
 291 01b4 97000000 		call	_Z5checkPvm
 291      E7800000 
 292              	.LVL29:
  67:src/kernel/../../src/kernel/tests/test2.hpp ****                 ConsoleUtil::printString("Value not correct!");
 293              		.loc 1 67 13
 294 01bc E31E05FA 		bnez	a0,.L16
  68:src/kernel/../../src/kernel/tests/test2.hpp ****             }
 295              		.loc 1 68 17 is_stmt 1
  68:src/kernel/../../src/kernel/tests/test2.hpp ****             }
 296              		.loc 1 68 41 is_stmt 0
 297 01c0 17050000 		lla	a0,.LC0
 297      13050500 
GAS LISTING /tmp/cchOkLVj.s 			page 8


 298 01c8 97000000 		call	_ZN11ConsoleUtil11printStringEPKc@plt
 298      E7800000 
 299              	.LVL30:
 300 01d0 6FF09FFA 		j	.L16
 301              	.L14:
 302              	.LBE6:
  77:src/kernel/../../src/kernel/tests/test2.hpp ****     }
  78:src/kernel/../../src/kernel/tests/test2.hpp **** 
  79:src/kernel/../../src/kernel/tests/test2.hpp ****     kmem_cache_info(cache);
 303              		.loc 1 79 5 is_stmt 1
 304              		.loc 1 79 20 is_stmt 0
 305 01d4 13050A00 		mv	a0,s4
 306 01d8 97000000 		call	_Z15kmem_cache_infoP5Cache@plt
 306      E7800000 
 307              	.LVL31:
  80:src/kernel/../../src/kernel/tests/test2.hpp ****     kmem_cache_info(data.shared);
 308              		.loc 1 80 5 is_stmt 1
 309              		.loc 1 80 20 is_stmt 0
 310 01e0 033504F9 		ld	a0,-112(s0)
 311 01e4 97000000 		call	_Z15kmem_cache_infoP5Cache@plt
 311      E7800000 
 312              	.LVL32:
 313              	.LBB7:
  81:src/kernel/../../src/kernel/tests/test2.hpp **** 
  82:src/kernel/../../src/kernel/tests/test2.hpp ****     for (int i = 0; i < size; i++) {
 314              		.loc 1 82 14
 315 01ec 13090000 		li	s2,0
 316 01f0 6F000003 		j	.L21
 317              	.LVL33:
 318              	.L22:
  83:src/kernel/../../src/kernel/tests/test2.hpp ****         if (!check(objs[i].data, (cache == objs[i].cache) ? object_size : shared_size)) {
 319              		.loc 1 83 19
 320 01f4 93050B00 		mv	a1,s6
 321 01f8 6F004004 		j	.L19
 322              	.L24:
  84:src/kernel/../../src/kernel/tests/test2.hpp ****             ConsoleUtil::printString("Value not correct!");
 323              		.loc 1 84 13 is_stmt 1
 324              		.loc 1 84 37 is_stmt 0
 325 01fc 17050000 		lla	a0,.LC0
 325      13050500 
 326 0204 97000000 		call	_ZN11ConsoleUtil11printStringEPKc@plt
 326      E7800000 
 327              	.LVL34:
 328              	.L20:
  85:src/kernel/../../src/kernel/tests/test2.hpp ****         }
  86:src/kernel/../../src/kernel/tests/test2.hpp ****         kmem_cache_free(objs[i].cache, objs[i].data);
 329              		.loc 1 86 9 is_stmt 1
 330              		.loc 1 86 24 is_stmt 0
 331 020c 83B58400 		ld	a1,8(s1)
 332 0210 03B50400 		ld	a0,0(s1)
 333 0214 97000000 		call	_Z15kmem_cache_freeP5CachePv@plt
 333      E7800000 
 334              	.LVL35:
  82:src/kernel/../../src/kernel/tests/test2.hpp ****         if (!check(objs[i].data, (cache == objs[i].cache) ? object_size : shared_size)) {
 335              		.loc 1 82 5 is_stmt 1
 336 021c 1B091900 		addiw	s2,s2,1
 337              	.LVL36:
GAS LISTING /tmp/cchOkLVj.s 			page 9


 338              	.L21:
  82:src/kernel/../../src/kernel/tests/test2.hpp ****         if (!check(objs[i].data, (cache == objs[i].cache) ? object_size : shared_size)) {
 339              		.loc 1 82 23 discriminator 1
 340 0220 63563903 		ble	s3,s2,.L18
  83:src/kernel/../../src/kernel/tests/test2.hpp ****             ConsoleUtil::printString("Value not correct!");
 341              		.loc 1 83 9
  83:src/kernel/../../src/kernel/tests/test2.hpp ****             ConsoleUtil::printString("Value not correct!");
 342              		.loc 1 83 26 is_stmt 0
 343 0224 93144900 		slli	s1,s2,4
 344 0228 B3849A00 		add	s1,s5,s1
  83:src/kernel/../../src/kernel/tests/test2.hpp ****             ConsoleUtil::printString("Value not correct!");
 345              		.loc 1 83 19
 346 022c 03B58400 		ld	a0,8(s1)
  83:src/kernel/../../src/kernel/tests/test2.hpp ****             ConsoleUtil::printString("Value not correct!");
 347              		.loc 1 83 52
 348 0230 83B70400 		ld	a5,0(s1)
  83:src/kernel/../../src/kernel/tests/test2.hpp ****             ConsoleUtil::printString("Value not correct!");
 349              		.loc 1 83 19
 350 0234 E38047FD 		beq	a5,s4,.L22
 351 0238 93057000 		li	a1,7
 352              	.L19:
  83:src/kernel/../../src/kernel/tests/test2.hpp ****             ConsoleUtil::printString("Value not correct!");
 353              		.loc 1 83 19 discriminator 4
 354 023c 97000000 		call	_Z5checkPvm
 354      E7800000 
 355              	.LVL37:
  83:src/kernel/../../src/kernel/tests/test2.hpp ****             ConsoleUtil::printString("Value not correct!");
 356              		.loc 1 83 9 discriminator 4
 357 0244 E31405FC 		bnez	a0,.L20
 358 0248 6FF05FFB 		j	.L24
 359              	.L18:
 360              	.LBE7:
  87:src/kernel/../../src/kernel/tests/test2.hpp ****     }
  88:src/kernel/../../src/kernel/tests/test2.hpp **** 
  89:src/kernel/../../src/kernel/tests/test2.hpp ****     kfree(objs);
 361              		.loc 1 89 5 is_stmt 1
 362              		.loc 1 89 10 is_stmt 0
 363 024c 13850A00 		mv	a0,s5
 364 0250 97000000 		call	_Z5kfreePKv@plt
 364      E7800000 
 365              	.LVL38:
  90:src/kernel/../../src/kernel/tests/test2.hpp ****     kmem_cache_destroy(cache);
 366              		.loc 1 90 5 is_stmt 1
 367              		.loc 1 90 23 is_stmt 0
 368 0258 13050A00 		mv	a0,s4
 369 025c 97000000 		call	_Z18kmem_cache_destroyP5Cache@plt
 369      E7800000 
 370              	.LVL39:
  91:src/kernel/../../src/kernel/tests/test2.hpp **** }
 371              		.loc 1 91 1
 372 0264 83308107 		ld	ra,120(sp)
 373              		.cfi_restore 1
 374 0268 03340107 		ld	s0,112(sp)
 375              		.cfi_restore 8
 376              		.cfi_def_cfa 2, 128
 377              	.LVL40:
 378 026c 83348106 		ld	s1,104(sp)
GAS LISTING /tmp/cchOkLVj.s 			page 10


 379              		.cfi_restore 9
 380 0270 03390106 		ld	s2,96(sp)
 381              		.cfi_restore 18
 382              	.LVL41:
 383 0274 83398105 		ld	s3,88(sp)
 384              		.cfi_restore 19
 385              	.LVL42:
 386 0278 033A0105 		ld	s4,80(sp)
 387              		.cfi_restore 20
 388              	.LVL43:
 389 027c 833A8104 		ld	s5,72(sp)
 390              		.cfi_restore 21
 391 0280 033B0104 		ld	s6,64(sp)
 392              		.cfi_restore 22
 393 0284 833B8103 		ld	s7,56(sp)
 394              		.cfi_restore 23
 395 0288 033C0103 		ld	s8,48(sp)
 396              		.cfi_restore 24
 397 028c 833C8102 		ld	s9,40(sp)
 398              		.cfi_restore 25
 399 0290 13010108 		addi	sp,sp,128
 400              		.cfi_def_cfa_offset 0
 401              	.LVL44:
 402 0294 67800000 		jr	ra
 403              		.cfi_endproc
 404              	.LFE47:
 406              		.align	2
 407              		.globl	_Z4runsPFvPvEP6data_si
 409              	_Z4runsPFvPvEP6data_si:
 410              	.LFB48:
  92:src/kernel/../../src/kernel/tests/test2.hpp **** 
  93:src/kernel/../../src/kernel/tests/test2.hpp **** 
  94:src/kernel/../../src/kernel/tests/test2.hpp **** 
  95:src/kernel/../../src/kernel/tests/test2.hpp **** void runs(void(*work)(void*), struct data_s* data, int num) {
 411              		.loc 1 95 61 is_stmt 1
 412              		.cfi_startproc
 413              	.LVL45:
 414 0298 130101FB 		addi	sp,sp,-80
 415              		.cfi_def_cfa_offset 80
 416 029c 23341104 		sd	ra,72(sp)
 417 02a0 23308104 		sd	s0,64(sp)
 418 02a4 233C9102 		sd	s1,56(sp)
 419 02a8 23382103 		sd	s2,48(sp)
 420 02ac 23343103 		sd	s3,40(sp)
 421 02b0 23304103 		sd	s4,32(sp)
 422              		.cfi_offset 1, -8
 423              		.cfi_offset 8, -16
 424              		.cfi_offset 9, -24
 425              		.cfi_offset 18, -32
 426              		.cfi_offset 19, -40
 427              		.cfi_offset 20, -48
 428 02b4 13040105 		addi	s0,sp,80
 429              		.cfi_def_cfa 8, 0
 430 02b8 130A0500 		mv	s4,a0
 431 02bc 13890500 		mv	s2,a1
 432 02c0 93090600 		mv	s3,a2
  96:src/kernel/../../src/kernel/tests/test2.hpp ****     for (int i = 0; i < num; i++) {
GAS LISTING /tmp/cchOkLVj.s 			page 11


 433              		.loc 1 96 5
 434              	.LVL46:
 435              	.LBB8:
 436              		.loc 1 96 14 is_stmt 0
 437 02c4 93040000 		li	s1,0
 438              	.LVL47:
 439              	.L27:
 440              		.loc 1 96 23 is_stmt 1 discriminator 1
 441 02c8 63D83403 		bge	s1,s3,.L25
 442              	.LBB9:
  97:src/kernel/../../src/kernel/tests/test2.hpp ****         struct data_s private_data;
 443              		.loc 1 97 9
  98:src/kernel/../../src/kernel/tests/test2.hpp ****         private_data = *(struct data_s*) data;
 444              		.loc 1 98 9
 445              		.loc 1 98 22 is_stmt 0
 446 02cc 83370900 		ld	a5,0(s2)
 447 02d0 233CF4FA 		sd	a5,-72(s0)
 448 02d4 83378900 		ld	a5,8(s2)
 449 02d8 2330F4FC 		sd	a5,-64(s0)
 450 02dc 83370901 		ld	a5,16(s2)
 451 02e0 2334F4FC 		sd	a5,-56(s0)
  99:src/kernel/../../src/kernel/tests/test2.hpp ****         private_data.id = i;
 452              		.loc 1 99 9 is_stmt 1
 453              		.loc 1 99 25 is_stmt 0
 454 02e4 232C94FA 		sw	s1,-72(s0)
 100:src/kernel/../../src/kernel/tests/test2.hpp ****         work(&private_data);
 455              		.loc 1 100 9 is_stmt 1
 456              		.loc 1 100 13 is_stmt 0
 457 02e8 130584FB 		addi	a0,s0,-72
 458 02ec E7000A00 		jalr	s4
 459              	.LVL48:
 460              	.LBE9:
  96:src/kernel/../../src/kernel/tests/test2.hpp ****         struct data_s private_data;
 461              		.loc 1 96 5 is_stmt 1
 462 02f0 9B841400 		addiw	s1,s1,1
 463              	.LVL49:
 464 02f4 6FF05FFD 		j	.L27
 465              	.LVL50:
 466              	.L25:
 467              	.LBE8:
 101:src/kernel/../../src/kernel/tests/test2.hpp ****     }
 102:src/kernel/../../src/kernel/tests/test2.hpp **** }
 468              		.loc 1 102 1 is_stmt 0
 469 02f8 83308104 		ld	ra,72(sp)
 470              		.cfi_restore 1
 471 02fc 03340104 		ld	s0,64(sp)
 472              		.cfi_restore 8
 473              		.cfi_def_cfa 2, 80
 474 0300 83348103 		ld	s1,56(sp)
 475              		.cfi_restore 9
 476              	.LVL51:
 477 0304 03390103 		ld	s2,48(sp)
 478              		.cfi_restore 18
 479              	.LVL52:
 480 0308 83398102 		ld	s3,40(sp)
 481              		.cfi_restore 19
 482 030c 033A0102 		ld	s4,32(sp)
GAS LISTING /tmp/cchOkLVj.s 			page 12


 483              		.cfi_restore 20
 484              	.LVL53:
 485 0310 13010105 		addi	sp,sp,80
 486              		.cfi_def_cfa_offset 0
 487 0314 67800000 		jr	ra
 488              		.cfi_endproc
 489              	.LFE48:
 491              		.section	.rodata.str1.8
 492 0013 00000000 		.align	3
 492      00
 493              	.LC1:
 494 0018 73686172 		.string	"shared object"
 494      6564206F 
 494      626A6563 
 494      7400
 495              		.text
 496              		.align	2
 497              		.globl	_Z5test2v
 499              	_Z5test2v:
 500              	.LFB49:
 103:src/kernel/../../src/kernel/tests/test2.hpp **** 
 104:src/kernel/../../src/kernel/tests/test2.hpp **** void test2() {
 501              		.loc 1 104 14 is_stmt 1
 502              		.cfi_startproc
 503 0318 130101FC 		addi	sp,sp,-64
 504              		.cfi_def_cfa_offset 64
 505 031c 233C1102 		sd	ra,56(sp)
 506 0320 23388102 		sd	s0,48(sp)
 507 0324 23349102 		sd	s1,40(sp)
 508              		.cfi_offset 1, -8
 509              		.cfi_offset 8, -16
 510              		.cfi_offset 9, -24
 511 0328 13040104 		addi	s0,sp,64
 512              		.cfi_def_cfa 8, 0
 105:src/kernel/../../src/kernel/tests/test2.hpp ****     kmem_cache_t *shared = kmem_cache_create("shared object", shared_size, construct, nullptr);
 513              		.loc 1 105 5
 514              		.loc 1 105 45 is_stmt 0
 515 032c 93060000 		li	a3,0
 516 0330 17060000 		lla	a2,_Z9constructPv
 516      13060600 
 517 0338 93057000 		li	a1,7
 518 033c 17050000 		lla	a0,.LC1
 518      13050500 
 519 0344 97000000 		call	_Z17kmem_cache_createPKcmPFvPvES3_@plt
 519      E7800000 
 520              	.LVL54:
 521 034c 93040500 		mv	s1,a0
 522              	.LVL55:
 106:src/kernel/../../src/kernel/tests/test2.hpp **** 
 107:src/kernel/../../src/kernel/tests/test2.hpp ****     struct data_s data;
 523              		.loc 1 107 5 is_stmt 1
 108:src/kernel/../../src/kernel/tests/test2.hpp ****     data.shared = shared;
 524              		.loc 1 108 5
 525              		.loc 1 108 17 is_stmt 0
 526 0350 2338A4FC 		sd	a0,-48(s0)
 109:src/kernel/../../src/kernel/tests/test2.hpp ****     data.iterations = ITERATIONS;
 527              		.loc 1 109 5 is_stmt 1
GAS LISTING /tmp/cchOkLVj.s 			page 13


 528              		.loc 1 109 21 is_stmt 0
 529 0354 9307803E 		li	a5,1000
 530 0358 232CF4FC 		sw	a5,-40(s0)
 110:src/kernel/../../src/kernel/tests/test2.hpp ****     runs(work, &data, RUN_NUM);
 531              		.loc 1 110 5 is_stmt 1
 532              		.loc 1 110 9 is_stmt 0
 533 035c 13065000 		li	a2,5
 534 0360 930584FC 		addi	a1,s0,-56
 535 0364 17050000 		lla	a0,_Z4workPv
 535      13050500 
 536 036c 97000000 		call	_Z4runsPFvPvEP6data_si
 536      E7800000 
 537              	.LVL56:
 111:src/kernel/../../src/kernel/tests/test2.hpp **** 
 112:src/kernel/../../src/kernel/tests/test2.hpp ****     kmem_cache_destroy(shared);
 538              		.loc 1 112 5 is_stmt 1
 539              		.loc 1 112 23 is_stmt 0
 540 0374 13850400 		mv	a0,s1
 541 0378 97000000 		call	_Z18kmem_cache_destroyP5Cache@plt
 541      E7800000 
 542              	.LVL57:
 113:src/kernel/../../src/kernel/tests/test2.hpp **** }
 543              		.loc 1 113 1
 544 0380 83308103 		ld	ra,56(sp)
 545              		.cfi_restore 1
 546 0384 03340103 		ld	s0,48(sp)
 547              		.cfi_restore 8
 548              		.cfi_def_cfa 2, 64
 549 0388 83348102 		ld	s1,40(sp)
 550              		.cfi_restore 9
 551              	.LVL58:
 552 038c 13010104 		addi	sp,sp,64
 553              		.cfi_def_cfa_offset 0
 554 0390 67800000 		jr	ra
 555              		.cfi_endproc
 556              	.LFE49:
 558              		.align	2
 559              		.globl	_Z4ctorPv
 561              	_Z4ctorPv:
 562              	.LFB50:
 563              		.file 2 "src/kernel/system.cpp"
   1:src/kernel/system.cpp **** //
   2:src/kernel/system.cpp **** // Created by os on 5/31/22.
   3:src/kernel/system.cpp **** //
   4:src/kernel/system.cpp **** 
   5:src/kernel/system.cpp **** #include "../../h/kernel/system.hpp"
   6:src/kernel/system.cpp **** #include "../../h/kernel/riscv.hpp"
   7:src/kernel/system.cpp **** #include "../../h/user/syscall_c.h"
   8:src/kernel/system.cpp **** #include "../../src/user/tests/userMain.hpp"
   9:src/kernel/system.cpp **** #include "../../src/kernel/tests/test2.hpp"
  10:src/kernel/system.cpp **** #include "../../h/user/printing.hpp"
  11:src/kernel/system.cpp **** #include "../../h/kernel/tcb.hpp"
  12:src/kernel/system.cpp **** #include "../../h/kernel/scheduler.hpp"
  13:src/kernel/system.cpp **** #include "../../h/user/user_wrappers.hpp"
  14:src/kernel/system.cpp **** 
  15:src/kernel/system.cpp **** bool System::initialized = false;
  16:src/kernel/system.cpp **** 
GAS LISTING /tmp/cchOkLVj.s 			page 14


  17:src/kernel/system.cpp **** struct Test{
  18:src/kernel/system.cpp ****     uint64 a,b,c,d,e,f;
  19:src/kernel/system.cpp **** };
  20:src/kernel/system.cpp **** 
  21:src/kernel/system.cpp **** void ctor(void* tst){
 564              		.loc 2 21 21 is_stmt 1
 565              		.cfi_startproc
 566              	.LVL59:
 567 0394 130101FF 		addi	sp,sp,-16
 568              		.cfi_def_cfa_offset 16
 569 0398 23348100 		sd	s0,8(sp)
 570              		.cfi_offset 8, -8
 571 039c 13040101 		addi	s0,sp,16
 572              		.cfi_def_cfa 8, 0
  22:src/kernel/system.cpp ****     ((Test*)tst)->a = 17;
 573              		.loc 2 22 5
 574              		.loc 2 22 21 is_stmt 0
 575 03a0 93071001 		li	a5,17
 576 03a4 2330F500 		sd	a5,0(a0)
  23:src/kernel/system.cpp ****     ((Test*)tst)->b = 32;
 577              		.loc 2 23 5 is_stmt 1
 578              		.loc 2 23 21 is_stmt 0
 579 03a8 93070002 		li	a5,32
 580 03ac 2334F500 		sd	a5,8(a0)
  24:src/kernel/system.cpp ****     ((Test*)tst)->c = 13;
 581              		.loc 2 24 5 is_stmt 1
 582              		.loc 2 24 21 is_stmt 0
 583 03b0 9307D000 		li	a5,13
 584 03b4 2338F500 		sd	a5,16(a0)
  25:src/kernel/system.cpp **** 
  26:src/kernel/system.cpp **** }
 585              		.loc 2 26 1
 586 03b8 03348100 		ld	s0,8(sp)
 587              		.cfi_restore 8
 588              		.cfi_def_cfa 2, 16
 589 03bc 13010101 		addi	sp,sp,16
 590              		.cfi_def_cfa_offset 0
 591 03c0 67800000 		jr	ra
 592              		.cfi_endproc
 593              	.LFE50:
 595              		.section	.rodata.str1.8
 596 0026 0000     		.align	3
 597              	.LC2:
 598 0028 0A00     		.string	"\n"
 599 002a 00000000 		.align	3
 599      0000
 600              	.LC3:
 601 0030 00       		.string	""
 602              		.text
 603              		.align	2
 604              		.globl	_ZN6SystemC2Ev
 606              	_ZN6SystemC2Ev:
 607              	.LFB52:
  27:src/kernel/system.cpp **** 
  28:src/kernel/system.cpp **** 
  29:src/kernel/system.cpp **** System::System() {
 608              		.loc 2 29 1 is_stmt 1
GAS LISTING /tmp/cchOkLVj.s 			page 15


 609              		.cfi_startproc
 610              	.LVL60:
  30:src/kernel/system.cpp ****     //check whether system is already running to prevent user malicious access
  31:src/kernel/system.cpp ****     if (!initialized) {
 611              		.loc 2 31 5
 612              	.LBB10:
 613              		.loc 2 31 9 is_stmt 0
 614 03c4 97070000 		lbu	a5,.LANCHOR1
 614      83C70700 
 615              		.loc 2 31 5
 616 03cc 63840700 		beqz	a5,.L41
 617 03d0 67800000 		ret
 618              	.L41:
 619              	.LBE10:
  29:src/kernel/system.cpp ****     //check whether system is already running to prevent user malicious access
 620              		.loc 2 29 1
 621 03d4 130101FD 		addi	sp,sp,-48
 622              		.cfi_def_cfa_offset 48
 623 03d8 23341102 		sd	ra,40(sp)
 624 03dc 23308102 		sd	s0,32(sp)
 625 03e0 233C9100 		sd	s1,24(sp)
 626              		.cfi_offset 1, -8
 627              		.cfi_offset 8, -16
 628              		.cfi_offset 9, -24
 629 03e4 13040103 		addi	s0,sp,48
 630              		.cfi_def_cfa 8, 0
 631              	.LBB12:
 632              	.LBB11:
  32:src/kernel/system.cpp ****         initialized = true;
 633              		.loc 2 32 9 is_stmt 1
 634              		.loc 2 32 21 is_stmt 0
 635 03e8 93071000 		li	a5,1
 636 03ec 17070000 		sb	a5,.LANCHOR1,a4
 636      2300F700 
  33:src/kernel/system.cpp **** 
  34:src/kernel/system.cpp ****         //initialize the machine
  35:src/kernel/system.cpp ****         RiscV::initialize();
 637              		.loc 2 35 9 is_stmt 1
 638              		.loc 2 35 26 is_stmt 0
 639 03f4 97000000 		call	_ZN5RiscV10initializeEv@plt
 639      E7800000 
 640              	.LVL61:
  36:src/kernel/system.cpp **** 
  37:src/kernel/system.cpp ****         ConsoleUtil::print("",sizeof(Slab),"\n",10);
 641              		.loc 2 37 9 is_stmt 1
 642              		.loc 2 37 27 is_stmt 0
 643 03fc 9306A000 		li	a3,10
 644 0400 17060000 		lla	a2,.LC2
 644      13060600 
 645 0408 9305000B 		li	a1,176
 646 040c 17050000 		lla	a0,.LC3
 646      13050500 
 647 0414 97000000 		call	_ZN11ConsoleUtil5printEPKciS1_i@plt
 647      E7800000 
 648              	.LVL62:
  38:src/kernel/system.cpp **** 
  39:src/kernel/system.cpp ****         Cache* cache=kmem_cache_create("",20,nullptr, nullptr);
GAS LISTING /tmp/cchOkLVj.s 			page 16


 649              		.loc 2 39 9 is_stmt 1
 650              		.loc 2 39 39 is_stmt 0
 651 041c 93060000 		li	a3,0
 652 0420 13060000 		li	a2,0
 653 0424 93054001 		li	a1,20
 654 0428 17050000 		lla	a0,.LC3
 654      13050500 
 655 0430 97000000 		call	_Z17kmem_cache_createPKcmPFvPvES3_@plt
 655      E7800000 
 656              	.LVL63:
 657 0438 93040500 		mv	s1,a0
 658              	.LVL64:
  40:src/kernel/system.cpp ****         kmem_cache_alloc(cache);
 659              		.loc 2 40 9 is_stmt 1
 660              		.loc 2 40 25 is_stmt 0
 661 043c 97000000 		call	_Z16kmem_cache_allocP5Cache@plt
 661      E7800000 
 662              	.LVL65:
  41:src/kernel/system.cpp ****         SlabAllocator::printSlab(cache->partialHead);
 663              		.loc 2 41 9 is_stmt 1
 664              		.loc 2 41 33 is_stmt 0
 665 0444 03B50407 		ld	a0,112(s1)
 666 0448 97000000 		call	_ZN13SlabAllocator9printSlabEP4Slab@plt
 666      E7800000 
 667              	.LVL66:
  42:src/kernel/system.cpp **** //        Cache* cache1 = kmem_cache_create("Cache size 0", 1, nullptr, nullptr);
  43:src/kernel/system.cpp **** //        kmem_cache_alloc(cache1);
  44:src/kernel/system.cpp **** //        SlabAllocator::printSlab(cache1->partialHead);
  45:src/kernel/system.cpp **** //        kmem_cache_info(cache1);
  46:src/kernel/system.cpp **** 
  47:src/kernel/system.cpp **** 
  48:src/kernel/system.cpp **** //        kmem_cache_info(SlabAllocator::largeSlabCache);
  49:src/kernel/system.cpp **** //        SlabAllocator::printSlab(SlabAllocator::largeSlabCache->partialHead);
  50:src/kernel/system.cpp **** //
  51:src/kernel/system.cpp **** //        kmem_cache_t* cache1 = kmem_cache_create("Cache 1", 512, nullptr, nullptr);
  52:src/kernel/system.cpp **** //        kmem_cache_t* cache2 = kmem_cache_create("Cache 1", 1500, nullptr, nullptr);
  53:src/kernel/system.cpp **** //        kmem_cache_alloc(cache1);
  54:src/kernel/system.cpp **** //        void* ret1 =kmem_cache_alloc(cache2);
  55:src/kernel/system.cpp **** //        kmem_cache_info(cache2);
  56:src/kernel/system.cpp **** //        kmem_cache_alloc(cache2);
  57:src/kernel/system.cpp **** //        kmem_cache_alloc(cache2);
  58:src/kernel/system.cpp **** //        kmem_cache_alloc(cache2);
  59:src/kernel/system.cpp **** //        kmem_cache_alloc(cache2);
  60:src/kernel/system.cpp **** //        kmem_cache_info(cache2);
  61:src/kernel/system.cpp **** //        kmem_cache_free(cache2,ret1);
  62:src/kernel/system.cpp **** //        SlabAllocator::printSlab(cache2->partialHead);
  63:src/kernel/system.cpp **** //        SlabAllocator::printSlab(cache2->fullHead);
  64:src/kernel/system.cpp **** //
  65:src/kernel/system.cpp **** //        kmem_cache_info(SlabAllocator::largeSlabCache);
  66:src/kernel/system.cpp **** //        SlabAllocator::printSlab(SlabAllocator::largeSlabCache->partialHead);
  67:src/kernel/system.cpp **** 
  68:src/kernel/system.cpp ****         test2();
 668              		.loc 2 68 9 is_stmt 1
 669              		.loc 2 68 14 is_stmt 0
 670 0450 97000000 		call	_Z5test2v
 670      E7800000 
 671              	.LVL67:
GAS LISTING /tmp/cchOkLVj.s 			page 17


  69:src/kernel/system.cpp ****         //creating a thread that will be executing user code
  70:src/kernel/system.cpp ****         //this is done as to separate user code execution from main kernel thread
  71:src/kernel/system.cpp ****         //also it provides kernel with an idle thread that will run itself if user code gets blocke
  72:src/kernel/system.cpp **** 
  73:src/kernel/system.cpp ****         thread_t userMainThread;
 672              		.loc 2 73 9 is_stmt 1
  74:src/kernel/system.cpp ****         RiscV::threadCreateUtil((TCB**)(&userMainThread), userMainWrapper, nullptr);
 673              		.loc 2 74 9
 674              		.loc 2 74 32 is_stmt 0
 675 0458 13060000 		li	a2,0
 676 045c 97050000 		la	a1,_Z15userMainWrapperPv
 676      83B50500 
 677 0464 130584FD 		addi	a0,s0,-40
 678 0468 97000000 		call	_ZN5RiscV16threadCreateUtilEPP3TCBPFvPvES3_@plt
 678      E7800000 
 679              	.LVL68:
 680              	.L36:
  75:src/kernel/system.cpp **** 
  76:src/kernel/system.cpp **** 
  77:src/kernel/system.cpp **** //        //return control to user code until it reaches the end
  78:src/kernel/system.cpp **** //        //exit only if user is finished and machine is ready to exit (in case there is something 
  79:src/kernel/system.cpp ****         while (( (TCB*)userMainThread)->status != TCB::Status::FINISHED) {
 681              		.loc 2 79 9 is_stmt 1
 682              		.loc 2 79 48
 683              		.loc 2 79 18 is_stmt 0
 684 0470 833784FD 		ld	a5,-40(s0)
 685              		.loc 2 79 41
 686 0474 03A70701 		lw	a4,16(a5)
 687              		.loc 2 79 48
 688 0478 93072000 		li	a5,2
 689 047c 6308F700 		beq	a4,a5,.L35
  80:src/kernel/system.cpp ****             RiscV::threadDispatchUtil();
 690              		.loc 2 80 13 is_stmt 1
 691              		.loc 2 80 38 is_stmt 0
 692 0480 97000000 		call	_ZN5RiscV18threadDispatchUtilEv@plt
 692      E7800000 
 693              	.LVL69:
 694 0488 6FF09FFE 		j	.L36
 695              	.L35:
  81:src/kernel/system.cpp ****         }
  82:src/kernel/system.cpp **** 
  83:src/kernel/system.cpp ****         //finalize the machine
  84:src/kernel/system.cpp ****         RiscV::finalize();
 696              		.loc 2 84 9 is_stmt 1
 697              		.loc 2 84 24 is_stmt 0
 698 048c 97000000 		call	_ZN5RiscV8finalizeEv@plt
 698      E7800000 
 699              	.LVL70:
 700              	.LBE11:
 701              	.LBE12:
  85:src/kernel/system.cpp ****     }
  86:src/kernel/system.cpp **** }...
 702              		.loc 2 86 1
 703 0494 83308102 		ld	ra,40(sp)
 704              		.cfi_restore 1
 705 0498 03340102 		ld	s0,32(sp)
 706              		.cfi_restore 8
GAS LISTING /tmp/cchOkLVj.s 			page 18


 707              		.cfi_def_cfa 2, 48
 708 049c 83348101 		ld	s1,24(sp)
 709              		.cfi_restore 9
 710              	.LVL71:
 711 04a0 13010103 		addi	sp,sp,48
 712              		.cfi_def_cfa_offset 0
 713 04a4 67800000 		jr	ra
 714              		.cfi_endproc
 715              	.LFE52:
 717              		.globl	_ZN6SystemC1Ev
 718              		.set	_ZN6SystemC1Ev,_ZN6SystemC2Ev
 719              		.globl	_ZN6System11initializedE
 720              		.section	.rodata.str1.8
 721 0031 00000000 		.align	3
 721      000000
 722              	.LC4:
 723 0038 74635F30 		.string	"tc_0"
 723      00
 724 003d 000000   		.align	3
 725              	.LC5:
 726 0040 74635F31 		.string	"tc_1"
 726      00
 727 0045 000000   		.align	3
 728              	.LC6:
 729 0048 74635F32 		.string	"tc_2"
 729      00
 730 004d 000000   		.align	3
 731              	.LC7:
 732 0050 74635F33 		.string	"tc_3"
 732      00
 733 0055 000000   		.align	3
 734              	.LC8:
 735 0058 74635F34 		.string	"tc_4"
 735      00
 736              		.bss
 737              		.set	.LANCHOR1,. + 0
 740              	_ZN6System11initializedE:
 741 0000 00       		.zero	1
 742              		.section	.data.rel.ro.local,"aw"
 743              		.align	3
 744              		.set	.LANCHOR0,. + 0
 747              	_ZL11CACHE_NAMES:
 748 0000 00000000 		.dword	.LC4
 748      00000000 
 749 0008 00000000 		.dword	.LC5
 749      00000000 
 750 0010 00000000 		.dword	.LC6
 750      00000000 
 751 0018 00000000 		.dword	.LC7
 751      00000000 
 752 0020 00000000 		.dword	.LC8
 752      00000000 
 753              		.text
 754              	.Letext0:
 755              		.file 3 "src/kernel/../../h/kernel/../../lib/hw.h"
 756              		.file 4 "src/kernel/../../h/kernel/utility.hpp"
 757              		.file 5 "src/kernel/../../h/kernel/system.hpp"
GAS LISTING /tmp/cchOkLVj.s 			page 19


 758              		.file 6 "src/kernel/../../h/kernel/riscv.hpp"
 759              		.file 7 "src/kernel/../../h/kernel/tcb.hpp"
 760              		.file 8 "src/kernel/../../h/user/_thread.hpp"
 761              		.file 9 "src/kernel/../../src/kernel/tests/../../../h/kernel/console_util.hpp"
 762              		.file 10 "src/kernel/../../src/kernel/tests/../../../h/kernel/slab_t.hpp"
 763              		.file 11 "src/kernel/../../src/kernel/tests/../../../h/kernel/cache_t.hpp"
 764              		.file 12 "src/kernel/../../src/kernel/tests/../../../h/kernel/slab_allocator.hpp"
 765              		.file 13 "src/kernel/../../src/kernel/tests/../../../h/kernel/slab.hpp"
GAS LISTING /tmp/cchOkLVj.s 			page 20


DEFINED SYMBOLS
                            *ABS*:0000000000000000 system.cpp
     /tmp/cchOkLVj.s:9      .text:0000000000000000 _Z6memsetPKvii
     /tmp/cchOkLVj.s:13     .text:0000000000000000 .L0 
     /tmp/cchOkLVj.s:15     .text:0000000000000000 .L0 
     /tmp/cchOkLVj.s:16     .text:0000000000000004 .L0 
     /tmp/cchOkLVj.s:18     .text:0000000000000008 .L0 
     /tmp/cchOkLVj.s:20     .text:000000000000000c .L0 
     /tmp/cchOkLVj.s:24     .text:000000000000000c .L0 
     /tmp/cchOkLVj.s:25     .text:000000000000000c .L0 
     /tmp/cchOkLVj.s:29     .text:0000000000000010 .L0 
     /tmp/cchOkLVj.s:31     .text:0000000000000014 .L0 
     /tmp/cchOkLVj.s:32     .text:0000000000000014 .L0 
     /tmp/cchOkLVj.s:34     .text:0000000000000018 .L0 
     /tmp/cchOkLVj.s:36     .text:000000000000001c .L0 
     /tmp/cchOkLVj.s:43     .text:0000000000000024 .L0 
     /tmp/cchOkLVj.s:44     .text:0000000000000028 .L0 
     /tmp/cchOkLVj.s:45     .text:0000000000000028 .L0 
     /tmp/cchOkLVj.s:47     .text:000000000000002c .L0 
     /tmp/cchOkLVj.s:49     .text:0000000000000030 .L0 
     /tmp/cchOkLVj.s:55     .text:0000000000000030 _Z9constructPv
     /tmp/cchOkLVj.s:58     .text:0000000000000030 .L0 
     /tmp/cchOkLVj.s:60     .text:0000000000000030 .L0 
     /tmp/cchOkLVj.s:61     .text:0000000000000034 .L0 
     /tmp/cchOkLVj.s:64     .text:000000000000003c .L0 
     /tmp/cchOkLVj.s:65     .text:000000000000003c .L0 
     /tmp/cchOkLVj.s:67     .text:0000000000000040 .L0 
     /tmp/cchOkLVj.s:69     .text:0000000000000040 .L0 
     /tmp/cchOkLVj.s:70     .text:0000000000000040 .L0 
     /tmp/cchOkLVj.s:75     .text:0000000000000050 .L0 
     /tmp/cchOkLVj.s:76     .text:0000000000000054 .L0 
     /tmp/cchOkLVj.s:78     .text:0000000000000058 .L0 
     /tmp/cchOkLVj.s:79     .text:0000000000000058 .L0 
     /tmp/cchOkLVj.s:81     .text:000000000000005c .L0 
     /tmp/cchOkLVj.s:83     .text:0000000000000060 .L0 
     /tmp/cchOkLVj.s:89     .text:0000000000000060 _Z5checkPvm
     /tmp/cchOkLVj.s:92     .text:0000000000000060 .L0 
     /tmp/cchOkLVj.s:94     .text:0000000000000060 .L0 
     /tmp/cchOkLVj.s:95     .text:0000000000000064 .L0 
     /tmp/cchOkLVj.s:97     .text:0000000000000068 .L0 
     /tmp/cchOkLVj.s:99     .text:000000000000006c .L0 
     /tmp/cchOkLVj.s:103    .text:0000000000000070 .L0 
     /tmp/cchOkLVj.s:105    .text:0000000000000070 .L0 
     /tmp/cchOkLVj.s:106    .text:0000000000000070 .L0 
     /tmp/cchOkLVj.s:109    .text:0000000000000074 .L0 
     /tmp/cchOkLVj.s:116    .text:000000000000007c .L0 
     /tmp/cchOkLVj.s:120    .text:0000000000000080 .L0 
     /tmp/cchOkLVj.s:122    .text:0000000000000084 .L0 
     /tmp/cchOkLVj.s:123    .text:0000000000000084 .L0 
     /tmp/cchOkLVj.s:126    .text:000000000000008c .L0 
     /tmp/cchOkLVj.s:129    .text:0000000000000094 .L0 
     /tmp/cchOkLVj.s:136    .text:000000000000009c .L0 
     /tmp/cchOkLVj.s:137    .text:000000000000009c .L0 
     /tmp/cchOkLVj.s:138    .text:00000000000000a0 .L0 
     /tmp/cchOkLVj.s:139    .text:00000000000000a0 .L0 
     /tmp/cchOkLVj.s:141    .text:00000000000000a4 .L0 
     /tmp/cchOkLVj.s:143    .text:00000000000000a8 .L0 
GAS LISTING /tmp/cchOkLVj.s 			page 21


     /tmp/cchOkLVj.s:154    .text:00000000000000a8 _Z4workPv
     /tmp/cchOkLVj.s:157    .text:00000000000000a8 .L0 
     /tmp/cchOkLVj.s:159    .text:00000000000000a8 .L0 
     /tmp/cchOkLVj.s:160    .text:00000000000000ac .L0 
     /tmp/cchOkLVj.s:172    .text:00000000000000d8 .L0 
     /tmp/cchOkLVj.s:173    .text:00000000000000d8 .L0 
     /tmp/cchOkLVj.s:174    .text:00000000000000d8 .L0 
     /tmp/cchOkLVj.s:175    .text:00000000000000d8 .L0 
     /tmp/cchOkLVj.s:176    .text:00000000000000d8 .L0 
     /tmp/cchOkLVj.s:177    .text:00000000000000d8 .L0 
     /tmp/cchOkLVj.s:178    .text:00000000000000d8 .L0 
     /tmp/cchOkLVj.s:179    .text:00000000000000d8 .L0 
     /tmp/cchOkLVj.s:180    .text:00000000000000d8 .L0 
     /tmp/cchOkLVj.s:181    .text:00000000000000d8 .L0 
     /tmp/cchOkLVj.s:182    .text:00000000000000d8 .L0 
     /tmp/cchOkLVj.s:184    .text:00000000000000dc .L0 
     /tmp/cchOkLVj.s:186    .text:00000000000000dc .L0 
     /tmp/cchOkLVj.s:187    .text:00000000000000dc .L0 
     /tmp/cchOkLVj.s:195    .text:00000000000000f4 .L0 
     /tmp/cchOkLVj.s:196    .text:00000000000000f4 .L0 
     /tmp/cchOkLVj.s:197    .text:00000000000000f4 .L0 
     /tmp/cchOkLVj.s:199    .text:00000000000000f8 .L0 
     /tmp/cchOkLVj.s:202    .text:00000000000000fc .L0 
     /tmp/cchOkLVj.s:203    .text:00000000000000fc .L0 
     /tmp/cchOkLVj.s:208    .text:000000000000010c .L0 
     /tmp/cchOkLVj.s:219    .text:000000000000012c .L0 
     /tmp/cchOkLVj.s:220    .text:000000000000012c .L0 
     /tmp/cchOkLVj.s:222    .text:0000000000000130 .L0 
     /tmp/cchOkLVj.s:229    .text:0000000000000140 .L0 
     /tmp/cchOkLVj.s:232    .text:0000000000000144 .L0 
     /tmp/cchOkLVj.s:238    .text:000000000000014c .L0 
     /tmp/cchOkLVj.s:239    .text:000000000000014c .L0 
     /tmp/cchOkLVj.s:242    .text:0000000000000154 .L0 
     /tmp/cchOkLVj.s:246    .text:0000000000000160 .L0 
     /tmp/cchOkLVj.s:248    .text:0000000000000164 .L0 
     /tmp/cchOkLVj.s:249    .text:0000000000000164 .L0 
     /tmp/cchOkLVj.s:251    .text:0000000000000168 .L0 
     /tmp/cchOkLVj.s:252    .text:0000000000000168 .L0 
     /tmp/cchOkLVj.s:258    .text:0000000000000178 .L0 
     /tmp/cchOkLVj.s:259    .text:0000000000000178 .L0 
     /tmp/cchOkLVj.s:262    .text:000000000000017c .L0 
     /tmp/cchOkLVj.s:266    .text:0000000000000180 .L0 
     /tmp/cchOkLVj.s:268    .text:0000000000000184 .L0 
     /tmp/cchOkLVj.s:269    .text:0000000000000184 .L0 
     /tmp/cchOkLVj.s:272    .text:000000000000018c .L0 
     /tmp/cchOkLVj.s:274    .text:0000000000000190 .L0 
     /tmp/cchOkLVj.s:275    .text:0000000000000190 .L0 
     /tmp/cchOkLVj.s:277    .text:0000000000000194 .L0 
     /tmp/cchOkLVj.s:280    .text:000000000000019c .L0 
     /tmp/cchOkLVj.s:284    .text:00000000000001a8 .L0 
     /tmp/cchOkLVj.s:286    .text:00000000000001ac .L0 
     /tmp/cchOkLVj.s:287    .text:00000000000001ac .L0 
     /tmp/cchOkLVj.s:289    .text:00000000000001b0 .L0 
     /tmp/cchOkLVj.s:290    .text:00000000000001b0 .L0 
     /tmp/cchOkLVj.s:294    .text:00000000000001bc .L0 
     /tmp/cchOkLVj.s:296    .text:00000000000001c0 .L0 
     /tmp/cchOkLVj.s:297    .text:00000000000001c0 .L0 
GAS LISTING /tmp/cchOkLVj.s 			page 22


     /tmp/cchOkLVj.s:304    .text:00000000000001d4 .L0 
     /tmp/cchOkLVj.s:305    .text:00000000000001d4 .L0 
     /tmp/cchOkLVj.s:309    .text:00000000000001e0 .L0 
     /tmp/cchOkLVj.s:310    .text:00000000000001e0 .L0 
     /tmp/cchOkLVj.s:315    .text:00000000000001ec .L0 
     /tmp/cchOkLVj.s:320    .text:00000000000001f4 .L0 
     /tmp/cchOkLVj.s:324    .text:00000000000001fc .L0 
     /tmp/cchOkLVj.s:325    .text:00000000000001fc .L0 
     /tmp/cchOkLVj.s:330    .text:000000000000020c .L0 
     /tmp/cchOkLVj.s:331    .text:000000000000020c .L0 
     /tmp/cchOkLVj.s:336    .text:000000000000021c .L0 
     /tmp/cchOkLVj.s:340    .text:0000000000000220 .L0 
     /tmp/cchOkLVj.s:342    .text:0000000000000224 .L0 
     /tmp/cchOkLVj.s:343    .text:0000000000000224 .L0 
     /tmp/cchOkLVj.s:346    .text:000000000000022c .L0 
     /tmp/cchOkLVj.s:348    .text:0000000000000230 .L0 
     /tmp/cchOkLVj.s:350    .text:0000000000000234 .L0 
     /tmp/cchOkLVj.s:354    .text:000000000000023c .L0 
     /tmp/cchOkLVj.s:357    .text:0000000000000244 .L0 
     /tmp/cchOkLVj.s:362    .text:000000000000024c .L0 
     /tmp/cchOkLVj.s:363    .text:000000000000024c .L0 
     /tmp/cchOkLVj.s:367    .text:0000000000000258 .L0 
     /tmp/cchOkLVj.s:368    .text:0000000000000258 .L0 
     /tmp/cchOkLVj.s:372    .text:0000000000000264 .L0 
     /tmp/cchOkLVj.s:373    .text:0000000000000268 .L0 
     /tmp/cchOkLVj.s:375    .text:000000000000026c .L0 
     /tmp/cchOkLVj.s:376    .text:000000000000026c .L0 
     /tmp/cchOkLVj.s:379    .text:0000000000000270 .L0 
     /tmp/cchOkLVj.s:381    .text:0000000000000274 .L0 
     /tmp/cchOkLVj.s:384    .text:0000000000000278 .L0 
     /tmp/cchOkLVj.s:387    .text:000000000000027c .L0 
     /tmp/cchOkLVj.s:390    .text:0000000000000280 .L0 
     /tmp/cchOkLVj.s:392    .text:0000000000000284 .L0 
     /tmp/cchOkLVj.s:394    .text:0000000000000288 .L0 
     /tmp/cchOkLVj.s:396    .text:000000000000028c .L0 
     /tmp/cchOkLVj.s:398    .text:0000000000000290 .L0 
     /tmp/cchOkLVj.s:400    .text:0000000000000294 .L0 
     /tmp/cchOkLVj.s:403    .text:0000000000000298 .L0 
     /tmp/cchOkLVj.s:409    .text:0000000000000298 _Z4runsPFvPvEP6data_si
     /tmp/cchOkLVj.s:412    .text:0000000000000298 .L0 
     /tmp/cchOkLVj.s:414    .text:0000000000000298 .L0 
     /tmp/cchOkLVj.s:415    .text:000000000000029c .L0 
     /tmp/cchOkLVj.s:422    .text:00000000000002b4 .L0 
     /tmp/cchOkLVj.s:423    .text:00000000000002b4 .L0 
     /tmp/cchOkLVj.s:424    .text:00000000000002b4 .L0 
     /tmp/cchOkLVj.s:425    .text:00000000000002b4 .L0 
     /tmp/cchOkLVj.s:426    .text:00000000000002b4 .L0 
     /tmp/cchOkLVj.s:427    .text:00000000000002b4 .L0 
     /tmp/cchOkLVj.s:429    .text:00000000000002b8 .L0 
     /tmp/cchOkLVj.s:436    .text:00000000000002c4 .L0 
     /tmp/cchOkLVj.s:437    .text:00000000000002c4 .L0 
     /tmp/cchOkLVj.s:441    .text:00000000000002c8 .L0 
     /tmp/cchOkLVj.s:444    .text:00000000000002cc .L0 
     /tmp/cchOkLVj.s:445    .text:00000000000002cc .L0 
     /tmp/cchOkLVj.s:446    .text:00000000000002cc .L0 
     /tmp/cchOkLVj.s:453    .text:00000000000002e4 .L0 
     /tmp/cchOkLVj.s:454    .text:00000000000002e4 .L0 
GAS LISTING /tmp/cchOkLVj.s 			page 23


     /tmp/cchOkLVj.s:456    .text:00000000000002e8 .L0 
     /tmp/cchOkLVj.s:457    .text:00000000000002e8 .L0 
     /tmp/cchOkLVj.s:462    .text:00000000000002f0 .L0 
     /tmp/cchOkLVj.s:469    .text:00000000000002f8 .L0 
     /tmp/cchOkLVj.s:470    .text:00000000000002fc .L0 
     /tmp/cchOkLVj.s:472    .text:0000000000000300 .L0 
     /tmp/cchOkLVj.s:473    .text:0000000000000300 .L0 
     /tmp/cchOkLVj.s:475    .text:0000000000000304 .L0 
     /tmp/cchOkLVj.s:478    .text:0000000000000308 .L0 
     /tmp/cchOkLVj.s:481    .text:000000000000030c .L0 
     /tmp/cchOkLVj.s:483    .text:0000000000000310 .L0 
     /tmp/cchOkLVj.s:486    .text:0000000000000314 .L0 
     /tmp/cchOkLVj.s:488    .text:0000000000000318 .L0 
     /tmp/cchOkLVj.s:499    .text:0000000000000318 _Z5test2v
     /tmp/cchOkLVj.s:502    .text:0000000000000318 .L0 
     /tmp/cchOkLVj.s:503    .text:0000000000000318 .L0 
     /tmp/cchOkLVj.s:504    .text:000000000000031c .L0 
     /tmp/cchOkLVj.s:508    .text:0000000000000328 .L0 
     /tmp/cchOkLVj.s:509    .text:0000000000000328 .L0 
     /tmp/cchOkLVj.s:510    .text:0000000000000328 .L0 
     /tmp/cchOkLVj.s:512    .text:000000000000032c .L0 
     /tmp/cchOkLVj.s:514    .text:000000000000032c .L0 
     /tmp/cchOkLVj.s:515    .text:000000000000032c .L0 
     /tmp/cchOkLVj.s:524    .text:0000000000000350 .L0 
     /tmp/cchOkLVj.s:525    .text:0000000000000350 .L0 
     /tmp/cchOkLVj.s:526    .text:0000000000000350 .L0 
     /tmp/cchOkLVj.s:528    .text:0000000000000354 .L0 
     /tmp/cchOkLVj.s:529    .text:0000000000000354 .L0 
     /tmp/cchOkLVj.s:532    .text:000000000000035c .L0 
     /tmp/cchOkLVj.s:533    .text:000000000000035c .L0 
     /tmp/cchOkLVj.s:539    .text:0000000000000374 .L0 
     /tmp/cchOkLVj.s:540    .text:0000000000000374 .L0 
     /tmp/cchOkLVj.s:544    .text:0000000000000380 .L0 
     /tmp/cchOkLVj.s:545    .text:0000000000000384 .L0 
     /tmp/cchOkLVj.s:547    .text:0000000000000388 .L0 
     /tmp/cchOkLVj.s:548    .text:0000000000000388 .L0 
     /tmp/cchOkLVj.s:550    .text:000000000000038c .L0 
     /tmp/cchOkLVj.s:553    .text:0000000000000390 .L0 
     /tmp/cchOkLVj.s:555    .text:0000000000000394 .L0 
     /tmp/cchOkLVj.s:561    .text:0000000000000394 _Z4ctorPv
     /tmp/cchOkLVj.s:565    .text:0000000000000394 .L0 
     /tmp/cchOkLVj.s:567    .text:0000000000000394 .L0 
     /tmp/cchOkLVj.s:568    .text:0000000000000398 .L0 
     /tmp/cchOkLVj.s:570    .text:000000000000039c .L0 
     /tmp/cchOkLVj.s:572    .text:00000000000003a0 .L0 
     /tmp/cchOkLVj.s:574    .text:00000000000003a0 .L0 
     /tmp/cchOkLVj.s:575    .text:00000000000003a0 .L0 
     /tmp/cchOkLVj.s:578    .text:00000000000003a8 .L0 
     /tmp/cchOkLVj.s:579    .text:00000000000003a8 .L0 
     /tmp/cchOkLVj.s:582    .text:00000000000003b0 .L0 
     /tmp/cchOkLVj.s:583    .text:00000000000003b0 .L0 
     /tmp/cchOkLVj.s:586    .text:00000000000003b8 .L0 
     /tmp/cchOkLVj.s:587    .text:00000000000003bc .L0 
     /tmp/cchOkLVj.s:588    .text:00000000000003bc .L0 
     /tmp/cchOkLVj.s:590    .text:00000000000003c0 .L0 
     /tmp/cchOkLVj.s:592    .text:00000000000003c4 .L0 
     /tmp/cchOkLVj.s:606    .text:00000000000003c4 _ZN6SystemC2Ev
GAS LISTING /tmp/cchOkLVj.s 			page 24


     /tmp/cchOkLVj.s:609    .text:00000000000003c4 .L0 
     /tmp/cchOkLVj.s:611    .text:00000000000003c4 .L0 
     /tmp/cchOkLVj.s:613    .text:00000000000003c4 .L0 
     /tmp/cchOkLVj.s:614    .text:00000000000003c4 .L0 
     /tmp/cchOkLVj.s:616    .text:00000000000003cc .L0 
     /tmp/cchOkLVj.s:621    .text:00000000000003d4 .L0 
     /tmp/cchOkLVj.s:622    .text:00000000000003d8 .L0 
     /tmp/cchOkLVj.s:626    .text:00000000000003e4 .L0 
     /tmp/cchOkLVj.s:627    .text:00000000000003e4 .L0 
     /tmp/cchOkLVj.s:628    .text:00000000000003e4 .L0 
     /tmp/cchOkLVj.s:630    .text:00000000000003e8 .L0 
     /tmp/cchOkLVj.s:634    .text:00000000000003e8 .L0 
     /tmp/cchOkLVj.s:635    .text:00000000000003e8 .L0 
     /tmp/cchOkLVj.s:638    .text:00000000000003f4 .L0 
     /tmp/cchOkLVj.s:639    .text:00000000000003f4 .L0 
     /tmp/cchOkLVj.s:642    .text:00000000000003fc .L0 
     /tmp/cchOkLVj.s:643    .text:00000000000003fc .L0 
     /tmp/cchOkLVj.s:650    .text:000000000000041c .L0 
     /tmp/cchOkLVj.s:651    .text:000000000000041c .L0 
     /tmp/cchOkLVj.s:660    .text:000000000000043c .L0 
     /tmp/cchOkLVj.s:661    .text:000000000000043c .L0 
     /tmp/cchOkLVj.s:664    .text:0000000000000444 .L0 
     /tmp/cchOkLVj.s:665    .text:0000000000000444 .L0 
     /tmp/cchOkLVj.s:669    .text:0000000000000450 .L0 
     /tmp/cchOkLVj.s:670    .text:0000000000000450 .L0 
     /tmp/cchOkLVj.s:673    .text:0000000000000458 .L0 
     /tmp/cchOkLVj.s:674    .text:0000000000000458 .L0 
     /tmp/cchOkLVj.s:675    .text:0000000000000458 .L0 
     /tmp/cchOkLVj.s:682    .text:0000000000000470 .L0 
     /tmp/cchOkLVj.s:683    .text:0000000000000470 .L0 
     /tmp/cchOkLVj.s:684    .text:0000000000000470 .L0 
     /tmp/cchOkLVj.s:686    .text:0000000000000474 .L0 
     /tmp/cchOkLVj.s:688    .text:0000000000000478 .L0 
     /tmp/cchOkLVj.s:691    .text:0000000000000480 .L0 
     /tmp/cchOkLVj.s:692    .text:0000000000000480 .L0 
     /tmp/cchOkLVj.s:697    .text:000000000000048c .L0 
     /tmp/cchOkLVj.s:698    .text:000000000000048c .L0 
     /tmp/cchOkLVj.s:703    .text:0000000000000494 .L0 
     /tmp/cchOkLVj.s:704    .text:0000000000000498 .L0 
     /tmp/cchOkLVj.s:706    .text:000000000000049c .L0 
     /tmp/cchOkLVj.s:707    .text:000000000000049c .L0 
     /tmp/cchOkLVj.s:709    .text:00000000000004a0 .L0 
     /tmp/cchOkLVj.s:712    .text:00000000000004a4 .L0 
     /tmp/cchOkLVj.s:714    .text:00000000000004a8 .L0 
     /tmp/cchOkLVj.s:606    .text:00000000000003c4 _ZN6SystemC1Ev
     /tmp/cchOkLVj.s:740    .bss:0000000000000000 _ZN6System11initializedE
     /tmp/cchOkLVj.s:737    .bss:0000000000000000 .LANCHOR1
     /tmp/cchOkLVj.s:744    .data.rel.ro.local:0000000000000000 .LANCHOR0
     /tmp/cchOkLVj.s:747    .data.rel.ro.local:0000000000000000 _ZL11CACHE_NAMES
     /tmp/cchOkLVj.s:766    .text:00000000000004a8 .L0 
     /tmp/cchOkLVj.s:204    .text:0000000000000100 .L0 
     /tmp/cchOkLVj.s:148    .rodata.str1.8:0000000000000000 .LC0
     /tmp/cchOkLVj.s:297    .text:00000000000001c0 .L0 
     /tmp/cchOkLVj.s:325    .text:00000000000001fc .L0 
     /tmp/cchOkLVj.s:516    .text:0000000000000330 .L0 
     /tmp/cchOkLVj.s:493    .rodata.str1.8:0000000000000018 .LC1
     /tmp/cchOkLVj.s:518    .text:000000000000033c .L0 
GAS LISTING /tmp/cchOkLVj.s 			page 25


     /tmp/cchOkLVj.s:535    .text:0000000000000364 .L0 
     /tmp/cchOkLVj.s:614    .text:00000000000003c4 .L0 
     /tmp/cchOkLVj.s:636    .text:00000000000003ec .L0 
     /tmp/cchOkLVj.s:597    .rodata.str1.8:0000000000000028 .LC2
     /tmp/cchOkLVj.s:644    .text:0000000000000400 .L0 
     /tmp/cchOkLVj.s:600    .rodata.str1.8:0000000000000030 .LC3
     /tmp/cchOkLVj.s:646    .text:000000000000040c .L0 
     /tmp/cchOkLVj.s:654    .text:0000000000000428 .L0 
     /tmp/cchOkLVj.s:676    .text:000000000000045c .L0 
     /tmp/cchOkLVj.s:40     .text:0000000000000024 .L1
     /tmp/cchOkLVj.s:27     .text:0000000000000010 .L3
     /tmp/cchOkLVj.s:118    .text:0000000000000080 .L10
     /tmp/cchOkLVj.s:133    .text:000000000000009c .L8
     /tmp/cchOkLVj.s:113    .text:000000000000007c .L9
     /tmp/cchOkLVj.s:264    .text:0000000000000180 .L17
     /tmp/cchOkLVj.s:301    .text:00000000000001d4 .L14
     /tmp/cchOkLVj.s:235    .text:000000000000014c .L15
     /tmp/cchOkLVj.s:256    .text:0000000000000178 .L16
     /tmp/cchOkLVj.s:338    .text:0000000000000220 .L21
     /tmp/cchOkLVj.s:352    .text:000000000000023c .L19
     /tmp/cchOkLVj.s:359    .text:000000000000024c .L18
     /tmp/cchOkLVj.s:318    .text:00000000000001f4 .L22
     /tmp/cchOkLVj.s:328    .text:000000000000020c .L20
     /tmp/cchOkLVj.s:322    .text:00000000000001fc .L24
     /tmp/cchOkLVj.s:466    .text:00000000000002f8 .L25
     /tmp/cchOkLVj.s:439    .text:00000000000002c8 .L27
     /tmp/cchOkLVj.s:618    .text:00000000000003d4 .L41
     /tmp/cchOkLVj.s:695    .text:000000000000048c .L35
     /tmp/cchOkLVj.s:680    .text:0000000000000470 .L36
     /tmp/cchOkLVj.s:722    .rodata.str1.8:0000000000000038 .LC4
     /tmp/cchOkLVj.s:725    .rodata.str1.8:0000000000000040 .LC5
     /tmp/cchOkLVj.s:728    .rodata.str1.8:0000000000000048 .LC6
     /tmp/cchOkLVj.s:731    .rodata.str1.8:0000000000000050 .LC7
     /tmp/cchOkLVj.s:734    .rodata.str1.8:0000000000000058 .LC8
     /tmp/cchOkLVj.s:3450   .debug_abbrev:0000000000000000 .Ldebug_abbrev0
     /tmp/cchOkLVj.s:5453   .debug_str:000000000000170a .LASF342
     /tmp/cchOkLVj.s:4903   .debug_str:000000000000038a .LASF343
     /tmp/cchOkLVj.s:5381   .debug_str:0000000000001432 .LASF344
     /tmp/cchOkLVj.s:5      .text:0000000000000000 .Ltext0
     /tmp/cchOkLVj.s:754    .text:00000000000004a8 .Letext0
     /tmp/cchOkLVj.s:4803   .debug_line:0000000000000000 .Ldebug_line0
     /tmp/cchOkLVj.s:4853   .debug_str:00000000000001c2 .LASF0
     /tmp/cchOkLVj.s:5449   .debug_str:00000000000016ef .LASF1
     /tmp/cchOkLVj.s:5387   .debug_str:000000000000148e .LASF2
     /tmp/cchOkLVj.s:5343   .debug_str:0000000000001315 .LASF4
     /tmp/cchOkLVj.s:5361   .debug_str:00000000000013a2 .LASF3
     /tmp/cchOkLVj.s:5011   .debug_str:0000000000000707 .LASF5
     /tmp/cchOkLVj.s:5075   .debug_str:0000000000000989 .LASF6
     /tmp/cchOkLVj.s:5263   .debug_str:0000000000001081 .LASF7
     /tmp/cchOkLVj.s:4899   .debug_str:000000000000035d .LASF8
     /tmp/cchOkLVj.s:5433   .debug_str:0000000000001612 .LASF9
     /tmp/cchOkLVj.s:5017   .debug_str:0000000000000725 .LASF10
     /tmp/cchOkLVj.s:4941   .debug_str:00000000000004a3 .LASF11
     /tmp/cchOkLVj.s:5099   .debug_str:0000000000000a82 .LASF12
     /tmp/cchOkLVj.s:5027   .debug_str:000000000000077a .LASF13
     /tmp/cchOkLVj.s:5315   .debug_str:000000000000125f .LASF14
     /tmp/cchOkLVj.s:5035   .debug_str:00000000000007c8 .LASF15
GAS LISTING /tmp/cchOkLVj.s 			page 26


     /tmp/cchOkLVj.s:4987   .debug_str:0000000000000662 .LASF16
     /tmp/cchOkLVj.s:5067   .debug_str:0000000000000936 .LASF17
     /tmp/cchOkLVj.s:5367   .debug_str:00000000000013c9 .LASF18
     /tmp/cchOkLVj.s:5485   .debug_str:00000000000018d2 .LASF19
     /tmp/cchOkLVj.s:4953   .debug_str:00000000000004e9 .LASF20
     /tmp/cchOkLVj.s:4813   .debug_str:000000000000004f .LASF21
     /tmp/cchOkLVj.s:5483   .debug_str:00000000000018c4 .LASF22
     /tmp/cchOkLVj.s:5141   .debug_str:0000000000000c21 .LASF23
     /tmp/cchOkLVj.s:5241   .debug_str:0000000000000ffe .LASF24
     /tmp/cchOkLVj.s:4991   .debug_str:00000000000006a3 .LASF26
     /tmp/cchOkLVj.s:4891   .debug_str:00000000000002f2 .LASF159
     /tmp/cchOkLVj.s:4917   .debug_str:00000000000003f4 .LASF25
     /tmp/cchOkLVj.s:4845   .debug_str:0000000000000170 .LASF27
     /tmp/cchOkLVj.s:4927   .debug_str:000000000000043a .LASF28
     /tmp/cchOkLVj.s:5383   .debug_str:0000000000001463 .LASF29
     /tmp/cchOkLVj.s:5323   .debug_str:0000000000001282 .LASF30
     /tmp/cchOkLVj.s:5255   .debug_str:000000000000104d .LASF31
     /tmp/cchOkLVj.s:5179   .debug_str:0000000000000d65 .LASF33
     /tmp/cchOkLVj.s:5063   .debug_str:0000000000000902 .LASF32
     /tmp/cchOkLVj.s:5435   .debug_str:0000000000001620 .LASF34
     /tmp/cchOkLVj.s:4897   .debug_str:0000000000000342 .LASF35
     /tmp/cchOkLVj.s:5091   .debug_str:0000000000000a08 .LASF36
     /tmp/cchOkLVj.s:4959   .debug_str:000000000000050e .LASF37
     /tmp/cchOkLVj.s:5385   .debug_str:0000000000001468 .LASF38
     /tmp/cchOkLVj.s:5199   .debug_str:0000000000000e1f .LASF39
     /tmp/cchOkLVj.s:5233   .debug_str:0000000000000fac .LASF40
     /tmp/cchOkLVj.s:4849   .debug_str:0000000000000199 .LASF41
     /tmp/cchOkLVj.s:5047   .debug_str:000000000000081f .LASF42
     /tmp/cchOkLVj.s:5055   .debug_str:00000000000008a3 .LASF43
     /tmp/cchOkLVj.s:5401   .debug_str:00000000000014e3 .LASF44
     /tmp/cchOkLVj.s:5215   .debug_str:0000000000000e90 .LASF45
     /tmp/cchOkLVj.s:4985   .debug_str:000000000000063f .LASF46
     /tmp/cchOkLVj.s:4963   .debug_str:0000000000000534 .LASF47
     /tmp/cchOkLVj.s:5409   .debug_str:0000000000001545 .LASF48
     /tmp/cchOkLVj.s:5471   .debug_str:000000000000186c .LASF49
     /tmp/cchOkLVj.s:5221   .debug_str:0000000000000ee4 .LASF50
     /tmp/cchOkLVj.s:4879   .debug_str:0000000000000299 .LASF51
     /tmp/cchOkLVj.s:5219   .debug_str:0000000000000ebf .LASF52
     /tmp/cchOkLVj.s:5405   .debug_str:000000000000151f .LASF53
     /tmp/cchOkLVj.s:5051   .debug_str:0000000000000872 .LASF54
     /tmp/cchOkLVj.s:4925   .debug_str:0000000000000427 .LASF55
     /tmp/cchOkLVj.s:5117   .debug_str:0000000000000b23 .LASF56
     /tmp/cchOkLVj.s:5077   .debug_str:000000000000099c .LASF57
     /tmp/cchOkLVj.s:5139   .debug_str:0000000000000c01 .LASF58
     /tmp/cchOkLVj.s:4823   .debug_str:00000000000000ac .LASF59
     /tmp/cchOkLVj.s:5439   .debug_str:0000000000001661 .LASF60
     /tmp/cchOkLVj.s:5469   .debug_str:0000000000001853 .LASF61
     /tmp/cchOkLVj.s:5021   .debug_str:000000000000073e .LASF62
     /tmp/cchOkLVj.s:5041   .debug_str:00000000000007f9 .LASF63
     /tmp/cchOkLVj.s:5191   .debug_str:0000000000000dc2 .LASF64
     /tmp/cchOkLVj.s:4805   .debug_str:0000000000000000 .LASF65
     /tmp/cchOkLVj.s:5349   .debug_str:000000000000134c .LASF66
     /tmp/cchOkLVj.s:5417   .debug_str:00000000000015b0 .LASF67
     /tmp/cchOkLVj.s:5329   .debug_str:00000000000012a0 .LASF69
     /tmp/cchOkLVj.s:5285   .debug_str:0000000000001186 .LASF68
     /tmp/cchOkLVj.s:5177   .debug_str:0000000000000d39 .LASF70
     /tmp/cchOkLVj.s:4839   .debug_str:0000000000000135 .LASF71
GAS LISTING /tmp/cchOkLVj.s 			page 27


     /tmp/cchOkLVj.s:5279   .debug_str:0000000000001126 .LASF72
     /tmp/cchOkLVj.s:5377   .debug_str:0000000000001416 .LASF73
     /tmp/cchOkLVj.s:4825   .debug_str:00000000000000c3 .LASF74
     /tmp/cchOkLVj.s:5475   .debug_str:0000000000001888 .LASF77
     /tmp/cchOkLVj.s:5297   .debug_str:00000000000011de .LASF79
     /tmp/cchOkLVj.s:5303   .debug_str:000000000000120a .LASF75
     /tmp/cchOkLVj.s:5403   .debug_str:000000000000150a .LASF76
     /tmp/cchOkLVj.s:4955   .debug_str:00000000000004f7 .LASF78
     /tmp/cchOkLVj.s:5341   .debug_str:0000000000001302 .LASF80
     /tmp/cchOkLVj.s:5007   .debug_str:00000000000006ec .LASF81
     /tmp/cchOkLVj.s:5147   .debug_str:0000000000000c3e .LASF82
     /tmp/cchOkLVj.s:5451   .debug_str:0000000000001702 .LASF83
     /tmp/cchOkLVj.s:5009   .debug_str:00000000000006f3 .LASF84
     /tmp/cchOkLVj.s:5307   .debug_str:000000000000122b .LASF85
     /tmp/cchOkLVj.s:5311   .debug_str:000000000000123c .LASF86
     /tmp/cchOkLVj.s:5023   .debug_str:0000000000000764 .LASF87
     /tmp/cchOkLVj.s:5175   .debug_str:0000000000000d23 .LASF88
     /tmp/cchOkLVj.s:4997   .debug_str:00000000000006c1 .LASF89
     /tmp/cchOkLVj.s:5235   .debug_str:0000000000000fd6 .LASF90
     /tmp/cchOkLVj.s:5167   .debug_str:0000000000000ccf .LASF91
     /tmp/cchOkLVj.s:5495   .debug_str:0000000000001922 .LASF92
     /tmp/cchOkLVj.s:4885   .debug_str:00000000000002cc .LASF93
     /tmp/cchOkLVj.s:5347   .debug_str:0000000000001334 .LASF94
     /tmp/cchOkLVj.s:5399   .debug_str:00000000000014dc .LASF95
     /tmp/cchOkLVj.s:4983   .debug_str:000000000000062c .LASF96
     /tmp/cchOkLVj.s:5001   .debug_str:00000000000006d6 .LASF97
     /tmp/cchOkLVj.s:5037   .debug_str:00000000000007de .LASF98
     /tmp/cchOkLVj.s:5389   .debug_str:000000000000149c .LASF99
     /tmp/cchOkLVj.s:4895   .debug_str:000000000000032f .LASF100
     /tmp/cchOkLVj.s:5069   .debug_str:000000000000093b .LASF101
     /tmp/cchOkLVj.s:5489   .debug_str:00000000000018e6 .LASF102
     /tmp/cchOkLVj.s:5393   .debug_str:00000000000014b0 .LASF103
     /tmp/cchOkLVj.s:5505   .debug_str:0000000000001982 .LASF104
     /tmp/cchOkLVj.s:5113   .debug_str:0000000000000b02 .LASF105
     /tmp/cchOkLVj.s:5109   .debug_str:0000000000000ada .LASF106
     /tmp/cchOkLVj.s:5133   .debug_str:0000000000000be1 .LASF107
     /tmp/cchOkLVj.s:5065   .debug_str:0000000000000918 .LASF108
     /tmp/cchOkLVj.s:5437   .debug_str:0000000000001643 .LASF109
     /tmp/cchOkLVj.s:4933   .debug_str:0000000000000454 .LASF110
     /tmp/cchOkLVj.s:5265   .debug_str:0000000000001094 .LASF111
     /tmp/cchOkLVj.s:5245   .debug_str:000000000000100b .LASF112
     /tmp/cchOkLVj.s:5025   .debug_str:000000000000076e .LASF113
     /tmp/cchOkLVj.s:5217   .debug_str:0000000000000ea6 .LASF114
     /tmp/cchOkLVj.s:5239   .debug_str:0000000000000ff8 .LASF115
     /tmp/cchOkLVj.s:5159   .debug_str:0000000000000c97 .LASF116
     /tmp/cchOkLVj.s:5293   .debug_str:00000000000011b1 .LASF117
     /tmp/cchOkLVj.s:5071   .debug_str:0000000000000942 .LASF118
     /tmp/cchOkLVj.s:4859   .debug_str:00000000000001db .LASF119
     /tmp/cchOkLVj.s:5123   .debug_str:0000000000000b6e .LASF120
     /tmp/cchOkLVj.s:5507   .debug_str:00000000000019a3 .LASF121
     /tmp/cchOkLVj.s:5415   .debug_str:0000000000001592 .LASF122
     /tmp/cchOkLVj.s:5497   .debug_str:000000000000193a .LASF123
     /tmp/cchOkLVj.s:5371   .debug_str:00000000000013dc .LASF124
     /tmp/cchOkLVj.s:5491   .debug_str:00000000000018f9 .LASF125
     /tmp/cchOkLVj.s:5229   .debug_str:0000000000000f5f .LASF126
     /tmp/cchOkLVj.s:4821   .debug_str:0000000000000092 .LASF127
     /tmp/cchOkLVj.s:5049   .debug_str:000000000000084b .LASF128
GAS LISTING /tmp/cchOkLVj.s 			page 28


     /tmp/cchOkLVj.s:4975   .debug_str:00000000000005c3 .LASF129
     /tmp/cchOkLVj.s:5441   .debug_str:0000000000001685 .LASF130
     /tmp/cchOkLVj.s:4873   .debug_str:0000000000000233 .LASF131
     /tmp/cchOkLVj.s:5455   .debug_str:00000000000017da .LASF132
     /tmp/cchOkLVj.s:4863   .debug_str:00000000000001fa .LASF133
     /tmp/cchOkLVj.s:5411   .debug_str:0000000000001569 .LASF134
     /tmp/cchOkLVj.s:5013   .debug_str:000000000000070e .LASF135
     /tmp/cchOkLVj.s:5345   .debug_str:000000000000131c .LASF136
     /tmp/cchOkLVj.s:5413   .debug_str:0000000000001589 .LASF137
     /tmp/cchOkLVj.s:5267   .debug_str:000000000000109f .LASF138
     /tmp/cchOkLVj.s:5105   .debug_str:0000000000000abf .LASF139
     /tmp/cchOkLVj.s:5467   .debug_str:0000000000001840 .LASF140
     /tmp/cchOkLVj.s:5061   .debug_str:00000000000008f5 .LASF141
     /tmp/cchOkLVj.s:5129   .debug_str:0000000000000bbd .LASF142
     /tmp/cchOkLVj.s:5151   .debug_str:0000000000000c58 .LASF143
     /tmp/cchOkLVj.s:5281   .debug_str:0000000000001142 .LASF144
     /tmp/cchOkLVj.s:5321   .debug_str:0000000000001275 .LASF145
     /tmp/cchOkLVj.s:5119   .debug_str:0000000000000b43 .LASF146
     /tmp/cchOkLVj.s:5107   .debug_str:0000000000000ac6 .LASF345
     /tmp/cchOkLVj.s:4843   .debug_str:000000000000014e .LASF346
     /tmp/cchOkLVj.s:5253   .debug_str:0000000000001045 .LASF302
     /tmp/cchOkLVj.s:4857   .debug_str:00000000000001d4 .LASF151
     /tmp/cchOkLVj.s:5039   .debug_str:00000000000007f1 .LASF147
     /tmp/cchOkLVj.s:5137   .debug_str:0000000000000bfb .LASF148
     /tmp/cchOkLVj.s:5125   .debug_str:0000000000000b90 .LASF149
     /tmp/cchOkLVj.s:5327   .debug_str:0000000000001298 .LASF150
     /tmp/cchOkLVj.s:5261   .debug_str:000000000000107c .LASF152
     /tmp/cchOkLVj.s:4905   .debug_str:00000000000003a0 .LASF153
     /tmp/cchOkLVj.s:5369   .debug_str:00000000000013d1 .LASF154
     /tmp/cchOkLVj.s:4807   .debug_str:0000000000000013 .LASF155
     /tmp/cchOkLVj.s:4945   .debug_str:00000000000004b7 .LASF156
     /tmp/cchOkLVj.s:5043   .debug_str:0000000000000815 .LASF157
     /tmp/cchOkLVj.s:5457   .debug_str:00000000000017fe .LASF158
     /tmp/cchOkLVj.s:5183   .debug_str:0000000000000d91 .LASF160
     /tmp/cchOkLVj.s:5397   .debug_str:00000000000014d4 .LASF161
     /tmp/cchOkLVj.s:4923   .debug_str:0000000000000414 .LASF162
     /tmp/cchOkLVj.s:5209   .debug_str:0000000000000e62 .LASF163
     /tmp/cchOkLVj.s:5053   .debug_str:0000000000000897 .LASF164
     /tmp/cchOkLVj.s:5205   .debug_str:0000000000000e4d .LASF165
     /tmp/cchOkLVj.s:4867   .debug_str:000000000000020f .LASF166
     /tmp/cchOkLVj.s:5045   .debug_str:000000000000081a .LASF167
     /tmp/cchOkLVj.s:5365   .debug_str:00000000000013ba .LASF168
     /tmp/cchOkLVj.s:5111   .debug_str:0000000000000af9 .LASF169
     /tmp/cchOkLVj.s:5195   .debug_str:0000000000000e04 .LASF170
     /tmp/cchOkLVj.s:5375   .debug_str:0000000000001400 .LASF171
     /tmp/cchOkLVj.s:4865   .debug_str:000000000000020a .LASF172
     /tmp/cchOkLVj.s:5247   .debug_str:0000000000001023 .LASF173
     /tmp/cchOkLVj.s:4951   .debug_str:00000000000004e4 .LASF174
     /tmp/cchOkLVj.s:4957   .debug_str:00000000000004fe .LASF175
     /tmp/cchOkLVj.s:5019   .debug_str:0000000000000734 .LASF176
     /tmp/cchOkLVj.s:4887   .debug_str:00000000000002d7 .LASF177
     /tmp/cchOkLVj.s:5427   .debug_str:00000000000015eb .LASF178
     /tmp/cchOkLVj.s:4971   .debug_str:0000000000000572 .LASF179
     /tmp/cchOkLVj.s:4831   .debug_str:000000000000010a .LASF180
     /tmp/cchOkLVj.s:5305   .debug_str:0000000000001213 .LASF181
     /tmp/cchOkLVj.s:5197   .debug_str:0000000000000e17 .LASF182
     /tmp/cchOkLVj.s:5095   .debug_str:0000000000000a56 .LASF183
GAS LISTING /tmp/cchOkLVj.s 			page 29


     /tmp/cchOkLVj.s:4909   .debug_str:00000000000003cd .LASF184
     /tmp/cchOkLVj.s:5373   .debug_str:00000000000013fb .LASF185
     /tmp/cchOkLVj.s:5207   .debug_str:0000000000000e5d .LASF186
     /tmp/cchOkLVj.s:5337   .debug_str:00000000000012ec .LASF187
     /tmp/cchOkLVj.s:4833   .debug_str:0000000000000116 .LASF188
     /tmp/cchOkLVj.s:5005   .debug_str:00000000000006e7 .LASF189
     /tmp/cchOkLVj.s:5181   .debug_str:0000000000000d89 .LASF190
     /tmp/cchOkLVj.s:4855   .debug_str:00000000000001cf .LASF191
     /tmp/cchOkLVj.s:4851   .debug_str:00000000000001b8 .LASF192
     /tmp/cchOkLVj.s:5135   .debug_str:0000000000000bf2 .LASF193
     /tmp/cchOkLVj.s:5379   .debug_str:0000000000001429 .LASF194
     /tmp/cchOkLVj.s:5201   .debug_str:0000000000000e3c .LASF195
     /tmp/cchOkLVj.s:5465   .debug_str:0000000000001838 .LASF196
     /tmp/cchOkLVj.s:5479   .debug_str:000000000000189d .LASF197
     /tmp/cchOkLVj.s:5395   .debug_str:00000000000014c3 .LASF198
     /tmp/cchOkLVj.s:5459   .debug_str:0000000000001803 .LASF199
     /tmp/cchOkLVj.s:5331   .debug_str:00000000000012ba .LASF200
     /tmp/cchOkLVj.s:5493   .debug_str:0000000000001912 .LASF201
     /tmp/cchOkLVj.s:4883   .debug_str:00000000000002ba .LASF202
     /tmp/cchOkLVj.s:4947   .debug_str:00000000000004ce .LASF203
     /tmp/cchOkLVj.s:4929   .debug_str:000000000000043f .LASF204
     /tmp/cchOkLVj.s:5499   .debug_str:000000000000194c .LASF205
     /tmp/cchOkLVj.s:4965   .debug_str:000000000000054b .LASF206
     /tmp/cchOkLVj.s:5359   .debug_str:0000000000001396 .LASF207
     /tmp/cchOkLVj.s:5213   .debug_str:0000000000000e86 .LASF208
     /tmp/cchOkLVj.s:5143   .debug_str:0000000000000c26 .LASF209
     /tmp/cchOkLVj.s:4819   .debug_str:0000000000000087 .LASF210
     /tmp/cchOkLVj.s:4967   .debug_str:0000000000000557 .LASF211
     /tmp/cchOkLVj.s:5391   .debug_str:00000000000014a3 .LASF212
     /tmp/cchOkLVj.s:4835   .debug_str:0000000000000120 .LASF213
     /tmp/cchOkLVj.s:5353   .debug_str:000000000000137c .LASF214
     /tmp/cchOkLVj.s:4937   .debug_str:000000000000048b .LASF215
     /tmp/cchOkLVj.s:4837   .debug_str:000000000000012a .LASF216
     /tmp/cchOkLVj.s:5425   .debug_str:00000000000015e2 .LASF217
     /tmp/cchOkLVj.s:5333   .debug_str:00000000000012c2 .LASF218
     /tmp/cchOkLVj.s:5271   .debug_str:00000000000010c0 .LASF219
     /tmp/cchOkLVj.s:4827   .debug_str:00000000000000e3 .LASF220
     /tmp/cchOkLVj.s:5169   .debug_str:0000000000000cda .LASF221
     /tmp/cchOkLVj.s:4901   .debug_str:000000000000036d .LASF222
     /tmp/cchOkLVj.s:4861   .debug_str:00000000000001f0 .LASF223
     /tmp/cchOkLVj.s:5503   .debug_str:0000000000001965 .LASF224
     /tmp/cchOkLVj.s:5171   .debug_str:0000000000000ce4 .LASF225
     /tmp/cchOkLVj.s:5351   .debug_str:000000000000136c .LASF226
     /tmp/cchOkLVj.s:5127   .debug_str:0000000000000b99 .LASF227
     /tmp/cchOkLVj.s:4881   .debug_str:00000000000002b1 .LASF228
     /tmp/cchOkLVj.s:5295   .debug_str:00000000000011c0 .LASF229
     /tmp/cchOkLVj.s:5269   .debug_str:00000000000010b4 .LASF230
     /tmp/cchOkLVj.s:5223   .debug_str:0000000000000f07 .LASF231
     /tmp/cchOkLVj.s:5243   .debug_str:0000000000001005 .LASF232
     /tmp/cchOkLVj.s:5173   .debug_str:0000000000000d03 .LASF233
     /tmp/cchOkLVj.s:5089   .debug_str:00000000000009fb .LASF234
     /tmp/cchOkLVj.s:5203   .debug_str:0000000000000e47 .LASF235
     /tmp/cchOkLVj.s:5325   .debug_str:0000000000001293 .LASF236
     /tmp/cchOkLVj.s:5187   .debug_str:0000000000000da8 .LASF237
     /tmp/cchOkLVj.s:4817   .debug_str:000000000000007e .LASF238
     /tmp/cchOkLVj.s:5081   .debug_str:00000000000009bf .LASF239
     /tmp/cchOkLVj.s:4911   .debug_str:00000000000003d2 .LASF240
GAS LISTING /tmp/cchOkLVj.s 			page 30


     /tmp/cchOkLVj.s:5421   .debug_str:00000000000015c7 .LASF241
     /tmp/cchOkLVj.s:5309   .debug_str:0000000000001233 .LASF242
     /tmp/cchOkLVj.s:5319   .debug_str:0000000000001270 .LASF243
     /tmp/cchOkLVj.s:5149   .debug_str:0000000000000c51 .LASF244
     /tmp/cchOkLVj.s:5301   .debug_str:00000000000011f8 .LASF246
     /tmp/cchOkLVj.s:5289   .debug_str:000000000000119c .LASF245
     /tmp/cchOkLVj.s:5431   .debug_str:00000000000015ff .LASF247
     /tmp/cchOkLVj.s:4871   .debug_str:000000000000022e .LASF248
     /tmp/cchOkLVj.s:5313   .debug_str:0000000000001250 .LASF249
     /tmp/cchOkLVj.s:5079   .debug_str:00000000000009af .LASF250
     /tmp/cchOkLVj.s:5257   .debug_str:0000000000001064 .LASF251
     /tmp/cchOkLVj.s:5501   .debug_str:0000000000001958 .LASF252
     /tmp/cchOkLVj.s:5249   .debug_str:0000000000001033 .LASF253
     /tmp/cchOkLVj.s:5407   .debug_str:0000000000001537 .LASF254
     /tmp/cchOkLVj.s:4815   .debug_str:000000000000005b .LASF255
     /tmp/cchOkLVj.s:5237   .debug_str:0000000000000fec .LASF258
     /tmp/cchOkLVj.s:5275   .debug_str:00000000000010f3 .LASF260
     /tmp/cchOkLVj.s:4915   .debug_str:00000000000003e8 .LASF256
     /tmp/cchOkLVj.s:5083   .debug_str:00000000000009c7 .LASF257
     /tmp/cchOkLVj.s:4939   .debug_str:0000000000000496 .LASF259
     /tmp/cchOkLVj.s:4981   .debug_str:0000000000000603 .LASF261
     /tmp/cchOkLVj.s:4995   .debug_str:00000000000006b5 .LASF262
     /tmp/cchOkLVj.s:4907   .debug_str:00000000000003a5 .LASF263
     /tmp/cchOkLVj.s:4961   .debug_str:0000000000000527 .LASF264
     /tmp/cchOkLVj.s:5283   .debug_str:000000000000115e .LASF265
     /tmp/cchOkLVj.s:5423   .debug_str:00000000000015d3 .LASF266
     /tmp/cchOkLVj.s:4989   .debug_str:0000000000000678 .LASF267
     /tmp/cchOkLVj.s:5225   .debug_str:0000000000000f29 .LASF268
     /tmp/cchOkLVj.s:5097   .debug_str:0000000000000a5d .LASF269
     /tmp/cchOkLVj.s:5355   .debug_str:0000000000001386 .LASF270
     /tmp/cchOkLVj.s:5155   .debug_str:0000000000000c6e .LASF271
     /tmp/cchOkLVj.s:5185   .debug_str:0000000000000d9d .LASF272
     /tmp/cchOkLVj.s:5273   .debug_str:00000000000010c9 .LASF273
     /tmp/cchOkLVj.s:4999   .debug_str:00000000000006cb .LASF274
     /tmp/cchOkLVj.s:5101   .debug_str:0000000000000a92 .LASF275
     /tmp/cchOkLVj.s:5103   .debug_str:0000000000000ab5 .LASF276
     /tmp/cchOkLVj.s:5029   .debug_str:000000000000078a .LASF277
     /tmp/cchOkLVj.s:4829   .debug_str:00000000000000ff .LASF278
     /tmp/cchOkLVj.s:5231   .debug_str:0000000000000f85 .LASF279
     /tmp/cchOkLVj.s:5033   .debug_str:00000000000007b6 .LASF280
     /tmp/cchOkLVj.s:4893   .debug_str:0000000000000301 .LASF281
     /tmp/cchOkLVj.s:5085   .debug_str:00000000000009f0 .LASF282
     /tmp/cchOkLVj.s:5429   .debug_str:00000000000015f9 .LASF283
     /tmp/cchOkLVj.s:4969   .debug_str:0000000000000563 .LASF284
     /tmp/cchOkLVj.s:5145   .debug_str:0000000000000c2f .LASF285
     /tmp/cchOkLVj.s:5447   .debug_str:00000000000016c1 .LASF286
     /tmp/cchOkLVj.s:5189   .debug_str:0000000000000db3 .LASF287
     /tmp/cchOkLVj.s:5057   .debug_str:00000000000008bd .LASF288
     /tmp/cchOkLVj.s:5277   .debug_str:0000000000001121 .LASF289
     /tmp/cchOkLVj.s:5093   .debug_str:0000000000000a30 .LASF290
     /tmp/cchOkLVj.s:5259   .debug_str:000000000000106e .LASF291
     /tmp/cchOkLVj.s:4973   .debug_str:000000000000059a .LASF292
     /tmp/cchOkLVj.s:5335   .debug_str:00000000000012de .LASF293
     /tmp/cchOkLVj.s:4811   .debug_str:0000000000000026 .LASF294
     /tmp/cchOkLVj.s:5121   .debug_str:0000000000000b5d .LASF295
     /tmp/cchOkLVj.s:4875   .debug_str:000000000000024a .LASF296
     /tmp/cchOkLVj.s:5165   .debug_str:0000000000000cc2 .LASF297
GAS LISTING /tmp/cchOkLVj.s 			page 31


     /tmp/cchOkLVj.s:5073   .debug_str:000000000000095e .LASF298
     /tmp/cchOkLVj.s:5251   .debug_str:000000000000103a .LASF299
     /tmp/cchOkLVj.s:5227   .debug_str:0000000000000f38 .LASF300
     /tmp/cchOkLVj.s:5163   .debug_str:0000000000000cbc .LASF301
     /tmp/cchOkLVj.s:4809   .debug_str:000000000000001f .LASF303
     /tmp/cchOkLVj.s:5357   .debug_str:000000000000138f .LASF304
     /tmp/cchOkLVj.s:5419   .debug_str:00000000000015bc .LASF305
     /tmp/cchOkLVj.s:4935   .debug_str:000000000000047f .LASF306
     /tmp/cchOkLVj.s:4921   .debug_str:000000000000040a .LASF307
     /tmp/cchOkLVj.s:5087   .debug_str:00000000000009f6 .LASF308
     /tmp/cchOkLVj.s:5193   .debug_str:0000000000000deb .LASF347
     /tmp/cchOkLVj.s:5317   .debug_str:000000000000126b .LASF309
     /tmp/cchOkLVj.s:4949   .debug_str:00000000000004df .LASF348
     /tmp/cchOkLVj.s:4979   .debug_str:00000000000005f4 .LASF310
     /tmp/cchOkLVj.s:5115   .debug_str:0000000000000b14 .LASF349
     /tmp/cchOkLVj.s:607    .text:00000000000003c4 .LFB52
     /tmp/cchOkLVj.s:715    .text:00000000000004a8 .LFE52
     /tmp/cchOkLVj.s:4509   .debug_loc:0000000000000000 .LLST16
     /tmp/cchOkLVj.s:640    .text:00000000000003fc .LVL61
     /tmp/cchOkLVj.s:648    .text:000000000000041c .LVL62
     /tmp/cchOkLVj.s:656    .text:0000000000000438 .LVL63
     /tmp/cchOkLVj.s:662    .text:0000000000000444 .LVL65
     /tmp/cchOkLVj.s:667    .text:0000000000000450 .LVL66
     /tmp/cchOkLVj.s:671    .text:0000000000000458 .LVL67
     /tmp/cchOkLVj.s:679    .text:0000000000000470 .LVL68
     /tmp/cchOkLVj.s:693    .text:0000000000000488 .LVL69
     /tmp/cchOkLVj.s:699    .text:0000000000000494 .LVL70
     /tmp/cchOkLVj.s:632    .text:00000000000003e8 .LBB11
     /tmp/cchOkLVj.s:700    .text:0000000000000494 .LBE11
     /tmp/cchOkLVj.s:4523   .debug_loc:0000000000000039 .LLST17
     /tmp/cchOkLVj.s:4841   .debug_str:0000000000000144 .LASF311
     /tmp/cchOkLVj.s:562    .text:0000000000000394 .LFB50
     /tmp/cchOkLVj.s:593    .text:00000000000003c4 .LFE50
     /tmp/cchOkLVj.s:5473   .debug_str:0000000000001882 .LASF312
     /tmp/cchOkLVj.s:5003   .debug_str:00000000000006dd .LASF313
     /tmp/cchOkLVj.s:500    .text:0000000000000318 .LFB49
     /tmp/cchOkLVj.s:556    .text:0000000000000394 .LFE49
     /tmp/cchOkLVj.s:4530   .debug_loc:000000000000005c .LLST15
     /tmp/cchOkLVj.s:520    .text:000000000000034c .LVL54
     /tmp/cchOkLVj.s:537    .text:0000000000000374 .LVL56
     /tmp/cchOkLVj.s:542    .text:0000000000000380 .LVL57
     /tmp/cchOkLVj.s:5287   .debug_str:0000000000001197 .LASF314
     /tmp/cchOkLVj.s:5211   .debug_str:0000000000000e6f .LASF315
     /tmp/cchOkLVj.s:410    .text:0000000000000298 .LFB48
     /tmp/cchOkLVj.s:489    .text:0000000000000318 .LFE48
     /tmp/cchOkLVj.s:5299   .debug_str:00000000000011f3 .LASF316
     /tmp/cchOkLVj.s:4537   .debug_loc:000000000000007f .LLST11
     /tmp/cchOkLVj.s:4555   .debug_loc:00000000000000cb .LLST12
     /tmp/cchOkLVj.s:4573   .debug_loc:0000000000000117 .LLST13
     /tmp/cchOkLVj.s:435    .text:00000000000002c4 .LBB8
     /tmp/cchOkLVj.s:467    .text:00000000000002f8 .LBE8
     /tmp/cchOkLVj.s:4587   .debug_loc:0000000000000150 .LLST14
     /tmp/cchOkLVj.s:442    .text:00000000000002cc .LBB9
     /tmp/cchOkLVj.s:460    .text:00000000000002f0 .LBE9
     /tmp/cchOkLVj.s:5291   .debug_str:00000000000011a4 .LASF317
     /tmp/cchOkLVj.s:459    .text:00000000000002f0 .LVL48
     /tmp/cchOkLVj.s:5059   .debug_str:00000000000008eb .LASF318
GAS LISTING /tmp/cchOkLVj.s 			page 32


     /tmp/cchOkLVj.s:155    .text:00000000000000a8 .LFB47
     /tmp/cchOkLVj.s:404    .text:0000000000000298 .LFE47
     /tmp/cchOkLVj.s:5363   .debug_str:00000000000013b4 .LASF319
     /tmp/cchOkLVj.s:4603   .debug_loc:000000000000019a .LLST5
     /tmp/cchOkLVj.s:4943   .debug_str:00000000000004b2 .LASF320
     /tmp/cchOkLVj.s:4617   .debug_loc:00000000000001d3 .LLST6
     /tmp/cchOkLVj.s:5015   .debug_str:0000000000000719 .LASF321
     /tmp/cchOkLVj.s:4633   .debug_loc:000000000000021d .LLST7
     /tmp/cchOkLVj.s:4682   .debug_loc:00000000000002a8 .LLST8
     /tmp/cchOkLVj.s:5157   .debug_str:0000000000000c92 .LASF322
     /tmp/cchOkLVj.s:4789   .debug_ranges:0000000000000000 .Ldebug_ranges0
     /tmp/cchOkLVj.s:4693   .debug_loc:00000000000002de .LLST9
     /tmp/cchOkLVj.s:244    .text:0000000000000160 .LVL24
     /tmp/cchOkLVj.s:255    .text:0000000000000178 .LVL25
     /tmp/cchOkLVj.s:282    .text:00000000000001a8 .LVL28
     /tmp/cchOkLVj.s:292    .text:00000000000001bc .LVL29
     /tmp/cchOkLVj.s:299    .text:00000000000001d0 .LVL30
     /tmp/cchOkLVj.s:313    .text:00000000000001ec .LBB7
     /tmp/cchOkLVj.s:360    .text:000000000000024c .LBE7
     /tmp/cchOkLVj.s:4700   .debug_loc:0000000000000301 .LLST10
     /tmp/cchOkLVj.s:327    .text:000000000000020c .LVL34
     /tmp/cchOkLVj.s:334    .text:000000000000021c .LVL35
     /tmp/cchOkLVj.s:355    .text:0000000000000244 .LVL37
     /tmp/cchOkLVj.s:215    .text:0000000000000128 .LVL19
     /tmp/cchOkLVj.s:225    .text:000000000000013c .LVL22
     /tmp/cchOkLVj.s:307    .text:00000000000001e0 .LVL31
     /tmp/cchOkLVj.s:312    .text:00000000000001ec .LVL32
     /tmp/cchOkLVj.s:365    .text:0000000000000258 .LVL38
     /tmp/cchOkLVj.s:370    .text:0000000000000264 .LVL39
     /tmp/cchOkLVj.s:5487   .debug_str:00000000000018e0 .LASF350
     /tmp/cchOkLVj.s:4931   .debug_str:0000000000000448 .LASF351
     /tmp/cchOkLVj.s:90     .text:0000000000000060 .LFB46
     /tmp/cchOkLVj.s:144    .text:00000000000000a8 .LFE46
     /tmp/cchOkLVj.s:4707   .debug_loc:0000000000000324 .LLST2
     /tmp/cchOkLVj.s:4718   .debug_loc:000000000000035a .LLST3
     /tmp/cchOkLVj.s:4734   .debug_loc:00000000000003a4 .LLST4
     /tmp/cchOkLVj.s:5445   .debug_str:00000000000016b7 .LASF323
     /tmp/cchOkLVj.s:5443   .debug_str:00000000000016a8 .LASF324
     /tmp/cchOkLVj.s:56     .text:0000000000000030 .LFB45
     /tmp/cchOkLVj.s:84     .text:0000000000000060 .LFE45
     /tmp/cchOkLVj.s:4746   .debug_loc:00000000000003db .LLST1
     /tmp/cchOkLVj.s:73     .text:0000000000000050 .LVL6
     /tmp/cchOkLVj.s:5153   .debug_str:0000000000000c67 .LASF325
     /tmp/cchOkLVj.s:5463   .debug_str:0000000000001829 .LASF326
     /tmp/cchOkLVj.s:10     .text:0000000000000000 .LFB44
     /tmp/cchOkLVj.s:50     .text:0000000000000030 .LFE44
     /tmp/cchOkLVj.s:4993   .debug_str:00000000000006af .LASF327
     /tmp/cchOkLVj.s:23     .text:000000000000000c .LBB2
     /tmp/cchOkLVj.s:41     .text:0000000000000024 .LBE2
     /tmp/cchOkLVj.s:4760   .debug_loc:0000000000000414 .LLST0
     /tmp/cchOkLVj.s:4877   .debug_str:0000000000000276 .LASF328
     /tmp/cchOkLVj.s:4869   .debug_str:000000000000021c .LASF330
     /tmp/cchOkLVj.s:5481   .debug_str:00000000000018a8 .LASF329
     /tmp/cchOkLVj.s:4889   .debug_str:00000000000002e1 .LASF331
     /tmp/cchOkLVj.s:4847   .debug_str:000000000000017b .LASF332
     /tmp/cchOkLVj.s:5161   .debug_str:0000000000000ca9 .LASF333
     /tmp/cchOkLVj.s:5461   .debug_str:000000000000180c .LASF334
GAS LISTING /tmp/cchOkLVj.s 			page 33


     /tmp/cchOkLVj.s:4919   .debug_str:00000000000003fa .LASF335
     /tmp/cchOkLVj.s:4913   .debug_str:00000000000003dc .LASF336
     /tmp/cchOkLVj.s:5031   .debug_str:00000000000007ae .LASF337
     /tmp/cchOkLVj.s:4977   .debug_str:00000000000005d9 .LASF338
     /tmp/cchOkLVj.s:5339   .debug_str:00000000000012f2 .LASF339
     /tmp/cchOkLVj.s:5477   .debug_str:0000000000001891 .LASF340
     /tmp/cchOkLVj.s:5131   .debug_str:0000000000000bdb .LASF341
     /tmp/cchOkLVj.s:610    .text:00000000000003c4 .LVL60
     /tmp/cchOkLVj.s:658    .text:000000000000043c .LVL64
     /tmp/cchOkLVj.s:710    .text:00000000000004a0 .LVL71
     /tmp/cchOkLVj.s:522    .text:0000000000000350 .LVL55
     /tmp/cchOkLVj.s:551    .text:000000000000038c .LVL58
     /tmp/cchOkLVj.s:413    .text:0000000000000298 .LVL45
     /tmp/cchOkLVj.s:438    .text:00000000000002c8 .LVL47
     /tmp/cchOkLVj.s:484    .text:0000000000000310 .LVL53
     /tmp/cchOkLVj.s:479    .text:0000000000000308 .LVL52
     /tmp/cchOkLVj.s:434    .text:00000000000002c4 .LVL46
     /tmp/cchOkLVj.s:463    .text:00000000000002f4 .LVL49
     /tmp/cchOkLVj.s:465    .text:00000000000002f8 .LVL50
     /tmp/cchOkLVj.s:476    .text:0000000000000304 .LVL51
     /tmp/cchOkLVj.s:158    .text:00000000000000a8 .LVL14
     /tmp/cchOkLVj.s:213    .text:0000000000000120 .LVL18
     /tmp/cchOkLVj.s:194    .text:00000000000000f4 .LVL15
     /tmp/cchOkLVj.s:234    .text:000000000000014c .LVL23
     /tmp/cchOkLVj.s:260    .text:000000000000017c .LVL26
     /tmp/cchOkLVj.s:263    .text:0000000000000180 .LVL27
     /tmp/cchOkLVj.s:385    .text:0000000000000278 .LVL42
     /tmp/cchOkLVj.s:200    .text:00000000000000fc .LVL16
     /tmp/cchOkLVj.s:205    .text:0000000000000108 .LVL17
     /tmp/cchOkLVj.s:377    .text:000000000000026c .LVL40
     /tmp/cchOkLVj.s:401    .text:0000000000000294 .LVL44
     /tmp/cchOkLVj.s:217    .text:000000000000012c .LVL20
     /tmp/cchOkLVj.s:223    .text:0000000000000134 .LVL21
     /tmp/cchOkLVj.s:388    .text:000000000000027c .LVL43
     /tmp/cchOkLVj.s:317    .text:00000000000001f4 .LVL33
     /tmp/cchOkLVj.s:382    .text:0000000000000274 .LVL41
     /tmp/cchOkLVj.s:93     .text:0000000000000060 .LVL7
     /tmp/cchOkLVj.s:110    .text:0000000000000078 .LVL9
     /tmp/cchOkLVj.s:102    .text:0000000000000070 .LVL8
     /tmp/cchOkLVj.s:112    .text:000000000000007c .LVL10
     /tmp/cchOkLVj.s:130    .text:0000000000000098 .LVL12
     /tmp/cchOkLVj.s:132    .text:000000000000009c .LVL13
     /tmp/cchOkLVj.s:59     .text:0000000000000030 .LVL5
     /tmp/cchOkLVj.s:22     .text:000000000000000c .LVL1
     /tmp/cchOkLVj.s:26     .text:0000000000000010 .LVL2
     /tmp/cchOkLVj.s:37     .text:0000000000000020 .LVL3
     /tmp/cchOkLVj.s:39     .text:0000000000000024 .LVL4
     /tmp/cchOkLVj.s:767    .debug_info:0000000000000000 .Ldebug_info0
     /tmp/cchOkLVj.s:104    .text:0000000000000070 .LBB3
     /tmp/cchOkLVj.s:107    .text:0000000000000074 .LBE3
     /tmp/cchOkLVj.s:114    .text:000000000000007c .LBB4
     /tmp/cchOkLVj.s:134    .text:000000000000009c .LBE4
     /tmp/cchOkLVj.s:227    .text:0000000000000140 .LBB5
     /tmp/cchOkLVj.s:230    .text:0000000000000144 .LBE5
     /tmp/cchOkLVj.s:236    .text:000000000000014c .LBB6
     /tmp/cchOkLVj.s:302    .text:00000000000001d4 .LBE6

GAS LISTING /tmp/cchOkLVj.s 			page 34


UNDEFINED SYMBOLS
_Z17kmem_cache_createPKcmPFvPvES3_
_Z7kmallocm
_Z16kmem_cache_allocP5Cache
_ZN11ConsoleUtil11printStringEPKc
_Z15kmem_cache_infoP5Cache
_Z15kmem_cache_freeP5CachePv
_Z5kfreePKv
_Z18kmem_cache_destroyP5Cache
_ZN5RiscV10initializeEv
_ZN11ConsoleUtil5printEPKciS1_i
_ZN13SlabAllocator9printSlabEP4Slab
_Z15userMainWrapperPv
_ZN5RiscV16threadCreateUtilEPP3TCBPFvPvES3_
_ZN5RiscV18threadDispatchUtilEv
_ZN5RiscV8finalizeEv
